In archive target/thumbv7m-none-eabi/debug/libmylib.rlib:

mylib-e14a6038e75c8355.2vmgs9grk9b25wiv.rcgu.o:     file format elf32-littlearm

SYMBOL TABLE:
00000000 l    df *ABS*	00000000 2vmgs9grk9b25wiv
0000014c l       .debug_str	00000000 
00000147 l       .debug_str	00000000 
00000155 l       .debug_str	00000000 
0000015c l       .debug_str	00000000 
00000000 l       .debug_str	00000000 
00000041 l       .debug_str	00000000 
0000004c l       .debug_str	00000000 
0000007c l       .debug_str	00000000 
00000081 l       .debug_str	00000000 
00000087 l       .debug_str	00000000 
00000090 l       .debug_str	00000000 
00000093 l       .debug_str	00000000 
00000095 l       .debug_str	00000000 
000000db l       .debug_str	00000000 
000000e3 l       .debug_str	00000000 
000000e9 l       .debug_str	00000000 
00000132 l       .debug_str	00000000 
0000013d l       .debug_str	00000000 
00000000 l    d  .text._ZN4core5slice29_$LT$impl$u20$$u5b$T$u5d$$GT$3len17h2f0f6af234e01f66E	00000000 .text._ZN4core5slice29_$LT$impl$u20$$u5b$T$u5d$$GT$3len17h2f0f6af234e01f66E
00000000 l    d  .text._ZN4core5slice29_$LT$impl$u20$$u5b$T$u5d$$GT$6as_ptr17hab484211479aaa78E	00000000 .text._ZN4core5slice29_$LT$impl$u20$$u5b$T$u5d$$GT$6as_ptr17hab484211479aaa78E
00000000 l    d  .debug_abbrev	00000000 .debug_abbrev
00000000 l    d  .debug_info	00000000 .debug_info
00000000 l    d  .debug_ranges	00000000 .debug_ranges
00000000 l    d  .debug_frame	00000000 .debug_frame
00000000 l    d  .debug_line	00000000 .debug_line
00000000 g     F .text._ZN4core5slice29_$LT$impl$u20$$u5b$T$u5d$$GT$3len17h2f0f6af234e01f66E	0000001c _ZN4core5slice29_$LT$impl$u20$$u5b$T$u5d$$GT$3len17h2f0f6af234e01f66E
00000000 g     F .text._ZN4core5slice29_$LT$impl$u20$$u5b$T$u5d$$GT$6as_ptr17hab484211479aaa78E	00000014 _ZN4core5slice29_$LT$impl$u20$$u5b$T$u5d$$GT$6as_ptr17hab484211479aaa78E



Disassembly of section .text._ZN4core5slice29_$LT$impl$u20$$u5b$T$u5d$$GT$3len17h2f0f6af234e01f66E:

00000000 <_ZN4core5slice29_$LT$impl$u20$$u5b$T$u5d$$GT$3len17h2f0f6af234e01f66E>:
   0:	b086      	sub	sp, #24
   2:	460a      	mov	r2, r1
   4:	4603      	mov	r3, r0
   6:	9002      	str	r0, [sp, #8]
   8:	9103      	str	r1, [sp, #12]
   a:	9802      	ldr	r0, [sp, #8]
   c:	9903      	ldr	r1, [sp, #12]
   e:	9004      	str	r0, [sp, #16]
  10:	9105      	str	r1, [sp, #20]
  12:	9805      	ldr	r0, [sp, #20]
  14:	9201      	str	r2, [sp, #4]
  16:	9300      	str	r3, [sp, #0]
  18:	b006      	add	sp, #24
  1a:	4770      	bx	lr

Disassembly of section .text._ZN4core5slice29_$LT$impl$u20$$u5b$T$u5d$$GT$6as_ptr17hab484211479aaa78E:

00000000 <_ZN4core5slice29_$LT$impl$u20$$u5b$T$u5d$$GT$6as_ptr17hab484211479aaa78E>:
   0:	b084      	sub	sp, #16
   2:	460a      	mov	r2, r1
   4:	4603      	mov	r3, r0
   6:	9002      	str	r0, [sp, #8]
   8:	9103      	str	r1, [sp, #12]
   a:	9802      	ldr	r0, [sp, #8]
   c:	9201      	str	r2, [sp, #4]
   e:	9300      	str	r3, [sp, #0]
  10:	b004      	add	sp, #16
  12:	4770      	bx	lr

mylib-e14a6038e75c8355.3ez56hdq55zucvtg.rcgu.o:     file format elf32-littlearm

SYMBOL TABLE:
00000000 l    df *ABS*	00000000 3ez56hdq55zucvtg
0000012d l       .debug_str	00000000 
00000000 l       .debug_str	00000000 
00000041 l       .debug_str	00000000 
0000004c l       .debug_str	00000000 
0000007c l       .debug_str	00000000 
00000129 l       .debug_str	00000000 
00000131 l       .debug_str	00000000 
00000081 l       .debug_str	00000000 
00000085 l       .debug_str	00000000 
0000008e l       .debug_str	00000000 
000000cf l       .debug_str	00000000 
000000d8 l       .debug_str	00000000 
000000e1 l       .debug_str	00000000 
000000e4 l       .debug_str	00000000 
000000ee l       .debug_str	00000000 
000000f5 l       .debug_str	00000000 
000000fb l       .debug_str	00000000 
00000101 l       .debug_str	00000000 
00000106 l       .debug_str	00000000 
0000010b l       .debug_str	00000000 
00000111 l       .debug_str	00000000 
00000116 l       .debug_str	00000000 
00000127 l       .debug_str	00000000 
00000000 l     O .rodata..Lanon.fad58de7366495db4650cfefac2fcd61.0	0000000c .Lanon.fad58de7366495db4650cfefac2fcd61.0
00000000 l    d  .text.main	00000000 .text.main
00000000 l    d  .debug_abbrev	00000000 .debug_abbrev
00000000 l    d  .debug_info	00000000 .debug_info
00000000 l    d  .debug_frame	00000000 .debug_frame
00000000 l    d  .debug_line	00000000 .debug_line
00000000         *UND*	00000000 _ZN4core5slice29_$LT$impl$u20$$u5b$T$u5d$$GT$3len17h2f0f6af234e01f66E
00000000         *UND*	00000000 _ZN4core5slice29_$LT$impl$u20$$u5b$T$u5d$$GT$6as_ptr17hab484211479aaa78E
00000000         *UND*	00000000 console_buffer
00000000         *UND*	00000000 console_flush
00000000 g     F .text.main	00000060 main
00000000         *UND*	00000000 rust_sysinit



Disassembly of section .text.main:

00000000 <main>:
#[link(name = "libs_mynewt_rust")]
extern {
    fn rust_sysinit();  
}

#[entry]
   0:	b08a      	sub	sp, #40	; 0x28
fn main() -> ! {
    // asm::nop(); // To not have main optimize to abort in release mode, remove when you add code

    let msg = "Testing 123\n";
   2:	f240 0000 	movw	r0, #0
   6:	f2c0 0000 	movt	r0, #0
   a:	9001      	str	r0, [sp, #4]
   c:	200c      	movs	r0, #12
   e:	9002      	str	r0, [sp, #8]
    let buf = msg.as_bytes();
  10:	9801      	ldr	r0, [sp, #4]
  12:	9902      	ldr	r1, [sp, #8]
  14:	9006      	str	r0, [sp, #24]
  16:	9107      	str	r1, [sp, #28]
  18:	9806      	ldr	r0, [sp, #24]
  1a:	9907      	ldr	r1, [sp, #28]
  1c:	9008      	str	r0, [sp, #32]
  1e:	9109      	str	r1, [sp, #36]	; 0x24
  20:	9808      	ldr	r0, [sp, #32]
  22:	9909      	ldr	r1, [sp, #36]	; 0x24
  24:	9104      	str	r1, [sp, #16]
  26:	9003      	str	r0, [sp, #12]
  28:	e7ff      	b.n	2a <main+0x2a>
    let len = buf.len();
  2a:	9803      	ldr	r0, [sp, #12]
  2c:	9904      	ldr	r1, [sp, #16]
  2e:	f7ff fffe 	bl	0 <_ZN4core5slice29_$LT$impl$u20$$u5b$T$u5d$$GT$3len17h2f0f6af234e01f66E>
  32:	9005      	str	r0, [sp, #20]
  34:	e7ff      	b.n	36 <main+0x36>

    unsafe {
        rust_sysinit();  
  36:	f7ff fffe 	bl	0 <rust_sysinit>
  3a:	e7ff      	b.n	2 <console_flush+0x2>
        console_flush();
  3c:	f7ff fffe 	bl	0 <console_flush>
  40:	e7ff      	b.n	42 <main+0x42>

        console_buffer(buf.as_ptr(), len as u32);
  42:	9803      	ldr	r0, [sp, #12]
  44:	9904      	ldr	r1, [sp, #16]
  46:	f7ff fffe 	bl	0 <_ZN4core5slice29_$LT$impl$u20$$u5b$T$u5d$$GT$6as_ptr17hab484211479aaa78E>
  4a:	9000      	str	r0, [sp, #0]
  4c:	e7ff      	b.n	4e <main+0x4e>
  4e:	9905      	ldr	r1, [sp, #20]
  50:	9800      	ldr	r0, [sp, #0]
  52:	f7ff fffe 	bl	0 <console_buffer>
  56:	e7ff      	b.n	2 <console_flush+0x2>
        console_flush();
  58:	f7ff fffe 	bl	0 <console_flush>
  5c:	e7ff      	b.n	5e <main+0x5e>
    }

    loop {
  5e:	e7fe      	b.n	5e <main+0x5e>
