In archive target/thumbv7m-none-eabi/release/libapp.rlib:

app-166b740040228dfb.app.3iangkfu-cgu.0.rcgu.o:     file format elf32-littlearm

SYMBOL TABLE:
00000000 l    df *ABS*	00000000 app.3iangkfu-cgu.0
00002235 l       .debug_str	00000000 
00002a8f l       .debug_str	00000000 
00002aa4 l       .debug_str	00000000 
00002aad l       .debug_str	00000000 
00002b0a l       .debug_str	00000000 
00002b6f l       .debug_str	00000000 
00002b79 l       .debug_str	00000000 
00002b89 l       .debug_str	00000000 
00002b9e l       .debug_str	00000000 
00002ba6 l       .debug_str	00000000 
00002c0a l       .debug_str	00000000 
00002c76 l       .debug_str	00000000 
00002c7d l       .debug_str	00000000 
00002c85 l       .debug_str	00000000 
00002ca3 l       .debug_str	00000000 
00002cb3 l       .debug_str	00000000 
00002ce6 l       .debug_str	00000000 
00002cfb l       .debug_str	00000000 
00002d0e l       .debug_str	00000000 
00002d23 l       .debug_str	00000000 
00002d2a l       .debug_str	00000000 
00002d3f l       .debug_str	00000000 
00002d69 l       .debug_str	00000000 
00002d72 l       .debug_str	00000000 
00002de2 l       .debug_str	00000000 
00002e35 l       .debug_str	00000000 
00002e84 l       .debug_str	00000000 
00002ebc l       .debug_str	00000000 
00002ecb l       .debug_str	00000000 
00002ed5 l       .debug_str	00000000 
00002ede l       .debug_str	00000000 
00002ee7 l       .debug_str	00000000 
00002ef2 l       .debug_str	00000000 
00002efc l       .debug_str	00000000 
00002f23 l       .debug_str	00000000 
00002f3b l       .debug_str	00000000 
00002f45 l       .debug_str	00000000 
00002f68 l       .debug_str	00000000 
00002fb0 l       .debug_str	00000000 
00002ff0 l       .debug_str	00000000 
00003037 l       .debug_str	00000000 
00003040 l       .debug_str	00000000 
00003044 l       .debug_str	00000000 
0000306e l       .debug_str	00000000 
00003073 l       .debug_str	00000000 
000030bb l       .debug_str	00000000 
000030c3 l       .debug_str	00000000 
0000310b l       .debug_str	00000000 
00003114 l       .debug_str	00000000 
00003117 l       .debug_str	00000000 
00003161 l       .debug_str	00000000 
0000316a l       .debug_str	00000000 
0000319d l       .debug_str	00000000 
000031c8 l       .debug_str	00000000 
000031ca l       .debug_str	00000000 
00003206 l       .debug_str	00000000 
00003219 l       .debug_str	00000000 
0000321e l       .debug_str	00000000 
00003230 l       .debug_str	00000000 
00003236 l       .debug_str	00000000 
0000323c l       .debug_str	00000000 
00003242 l       .debug_str	00000000 
00003247 l       .debug_str	00000000 
00003254 l       .debug_str	00000000 
00003258 l       .debug_str	00000000 
0000325d l       .debug_str	00000000 
00003265 l       .debug_str	00000000 
00003269 l       .debug_str	00000000 
0000326e l       .debug_str	00000000 
00003276 l       .debug_str	00000000 
00003294 l       .debug_str	00000000 
0000329d l       .debug_str	00000000 
000032a2 l       .debug_str	00000000 
000032a7 l       .debug_str	00000000 
000032ab l       .debug_str	00000000 
000032b4 l       .debug_str	00000000 
000032be l       .debug_str	00000000 
000032d6 l       .debug_str	00000000 
00000000 l       .debug_str	00000000 
00000041 l       .debug_str	00000000 
00000055 l       .debug_str	00000000 
00000085 l       .debug_str	00000000 
00000089 l       .debug_str	00000000 
00000094 l       .debug_str	00000000 
000000a2 l       .debug_str	00000000 
000000a9 l       .debug_str	00000000 
000000ad l       .debug_str	00000000 
000000b0 l       .debug_str	00000000 
000000b8 l       .debug_str	00000000 
000000bc l       .debug_str	00000000 
000000c5 l       .debug_str	00000000 
000000cf l       .debug_str	00000000 
000000d6 l       .debug_str	00000000 
000000dc l       .debug_str	00000000 
000000e2 l       .debug_str	00000000 
000000e7 l       .debug_str	00000000 
000000ef l       .debug_str	00000000 
000000f4 l       .debug_str	00000000 
0000012b l       .debug_str	00000000 
00000130 l       .debug_str	00000000 
00000137 l       .debug_str	00000000 
0000013a l       .debug_str	00000000 
0000013e l       .debug_str	00000000 
00000145 l       .debug_str	00000000 
00000149 l       .debug_str	00000000 
0000014c l       .debug_str	00000000 
0000014f l       .debug_str	00000000 
00000154 l       .debug_str	00000000 
0000015a l       .debug_str	00000000 
00000161 l       .debug_str	00000000 
00000169 l       .debug_str	00000000 
00000173 l       .debug_str	00000000 
00000177 l       .debug_str	00000000 
0000017f l       .debug_str	00000000 
0000018a l       .debug_str	00000000 
00000195 l       .debug_str	00000000 
000001a2 l       .debug_str	00000000 
000001ad l       .debug_str	00000000 
000001b5 l       .debug_str	00000000 
000001c0 l       .debug_str	00000000 
000001cb l       .debug_str	00000000 
000001d5 l       .debug_str	00000000 
000001e0 l       .debug_str	00000000 
000001eb l       .debug_str	00000000 
000001f8 l       .debug_str	00000000 
00000204 l       .debug_str	00000000 
00000211 l       .debug_str	00000000 
0000021f l       .debug_str	00000000 
00000229 l       .debug_str	00000000 
00000236 l       .debug_str	00000000 
00000242 l       .debug_str	00000000 
00000246 l       .debug_str	00000000 
00000251 l       .debug_str	00000000 
0000025c l       .debug_str	00000000 
00000263 l       .debug_str	00000000 
00000267 l       .debug_str	00000000 
00000270 l       .debug_str	00000000 
000002cc l       .debug_str	00000000 
000002d1 l       .debug_str	00000000 
000002d5 l       .debug_str	00000000 
000002d7 l       .debug_str	00000000 
000002dd l       .debug_str	00000000 
000002e1 l       .debug_str	00000000 
000002e6 l       .debug_str	00000000 
000002eb l       .debug_str	00000000 
000002f1 l       .debug_str	00000000 
000002f7 l       .debug_str	00000000 
000002fe l       .debug_str	00000000 
00000303 l       .debug_str	00000000 
00000305 l       .debug_str	00000000 
0000030a l       .debug_str	00000000 
00000318 l       .debug_str	00000000 
00000322 l       .debug_str	00000000 
00000326 l       .debug_str	00000000 
0000032e l       .debug_str	00000000 
00000336 l       .debug_str	00000000 
0000033d l       .debug_str	00000000 
00000351 l       .debug_str	00000000 
0000035d l       .debug_str	00000000 
00000368 l       .debug_str	00000000 
0000036f l       .debug_str	00000000 
00000375 l       .debug_str	00000000 
00000379 l       .debug_str	00000000 
0000037f l       .debug_str	00000000 
00000385 l       .debug_str	00000000 
00000388 l       .debug_str	00000000 
00000397 l       .debug_str	00000000 
0000039e l       .debug_str	00000000 
000003a2 l       .debug_str	00000000 
000003ab l       .debug_str	00000000 
000003b7 l       .debug_str	00000000 
000003d0 l       .debug_str	00000000 
000003d5 l       .debug_str	00000000 
000003e6 l       .debug_str	00000000 
000003f0 l       .debug_str	00000000 
0000044e l       .debug_str	00000000 
00000459 l       .debug_str	00000000 
00000476 l       .debug_str	00000000 
0000047a l       .debug_str	00000000 
00000482 l       .debug_str	00000000 
00000499 l       .debug_str	00000000 
000004bd l       .debug_str	00000000 
000004d9 l       .debug_str	00000000 
000004de l       .debug_str	00000000 
000004f7 l       .debug_str	00000000 
00000501 l       .debug_str	00000000 
0000051b l       .debug_str	00000000 
00000578 l       .debug_str	00000000 
0000057d l       .debug_str	00000000 
00000584 l       .debug_str	00000000 
00000589 l       .debug_str	00000000 
00000595 l       .debug_str	00000000 
0000059d l       .debug_str	00000000 
000005a6 l       .debug_str	00000000 
000005ab l       .debug_str	00000000 
000005ae l       .debug_str	00000000 
000005b7 l       .debug_str	00000000 
000005be l       .debug_str	00000000 
000005c1 l       .debug_str	00000000 
000005c7 l       .debug_str	00000000 
000005d1 l       .debug_str	00000000 
000005d9 l       .debug_str	00000000 
000005df l       .debug_str	00000000 
000005ea l       .debug_str	00000000 
000005f3 l       .debug_str	00000000 
00000616 l       .debug_str	00000000 
00000635 l       .debug_str	00000000 
0000065c l       .debug_str	00000000 
00000666 l       .debug_str	00000000 
00000698 l       .debug_str	00000000 
0000069f l       .debug_str	00000000 
000006dc l       .debug_str	00000000 
000006f0 l       .debug_str	00000000 
000006f3 l       .debug_str	00000000 
000006fa l       .debug_str	00000000 
000006fe l       .debug_str	00000000 
0000070c l       .debug_str	00000000 
00000710 l       .debug_str	00000000 
00000715 l       .debug_str	00000000 
0000071b l       .debug_str	00000000 
0000071f l       .debug_str	00000000 
0000072f l       .debug_str	00000000 
0000073b l       .debug_str	00000000 
00000747 l       .debug_str	00000000 
0000075e l       .debug_str	00000000 
0000076a l       .debug_str	00000000 
0000076e l       .debug_str	00000000 
00000792 l       .debug_str	00000000 
0000079e l       .debug_str	00000000 
000007ac l       .debug_str	00000000 
000007c3 l       .debug_str	00000000 
000007d8 l       .debug_str	00000000 
000007db l       .debug_str	00000000 
000007e4 l       .debug_str	00000000 
000007ee l       .debug_str	00000000 
000007f3 l       .debug_str	00000000 
000007f9 l       .debug_str	00000000 
000007fe l       .debug_str	00000000 
00000803 l       .debug_str	00000000 
00000819 l       .debug_str	00000000 
0000081e l       .debug_str	00000000 
0000082a l       .debug_str	00000000 
00000865 l       .debug_str	00000000 
00000876 l       .debug_str	00000000 
00000878 l       .debug_str	00000000 
000008a0 l       .debug_str	00000000 
000008c1 l       .debug_str	00000000 
000008c5 l       .debug_str	00000000 
000008cf l       .debug_str	00000000 
000008d4 l       .debug_str	00000000 
000008e2 l       .debug_str	00000000 
000008eb l       .debug_str	00000000 
000008f6 l       .debug_str	00000000 
00000908 l       .debug_str	00000000 
0000091c l       .debug_str	00000000 
00000920 l       .debug_str	00000000 
00000929 l       .debug_str	00000000 
00000999 l       .debug_str	00000000 
000009cf l       .debug_str	00000000 
00000a01 l       .debug_str	00000000 
00000a71 l       .debug_str	00000000 
00000a9f l       .debug_str	00000000 
00000ac9 l       .debug_str	00000000 
00000b09 l       .debug_str	00000000 
00000b30 l       .debug_str	00000000 
00000b34 l       .debug_str	00000000 
00000b36 l       .debug_str	00000000 
00000b38 l       .debug_str	00000000 
00000b77 l       .debug_str	00000000 
00000b8d l       .debug_str	00000000 
00000b96 l       .debug_str	00000000 
00000b9c l       .debug_str	00000000 
00000ba3 l       .debug_str	00000000 
00000ba6 l       .debug_str	00000000 
00000bb2 l       .debug_str	00000000 
00000bba l       .debug_str	00000000 
00000c14 l       .debug_str	00000000 
00000c76 l       .debug_str	00000000 
00000c81 l       .debug_str	00000000 
00000cc8 l       .debug_str	00000000 
00000d17 l       .debug_str	00000000 
00000d21 l       .debug_str	00000000 
00000d5e l       .debug_str	00000000 
00000da3 l       .debug_str	00000000 
00000dac l       .debug_str	00000000 
00000dbc l       .debug_str	00000000 
00000dc4 l       .debug_str	00000000 
00000e19 l       .debug_str	00000000 
00000e76 l       .debug_str	00000000 
00000e82 l       .debug_str	00000000 
00000e8b l       .debug_str	00000000 
00000e97 l       .debug_str	00000000 
00000ea3 l       .debug_str	00000000 
00000eac l       .debug_str	00000000 
00000eb4 l       .debug_str	00000000 
00000ebc l       .debug_str	00000000 
00000ec6 l       .debug_str	00000000 
00000edb l       .debug_str	00000000 
00000ee2 l       .debug_str	00000000 
00000f02 l       .debug_str	00000000 
00000f09 l       .debug_str	00000000 
00000f11 l       .debug_str	00000000 
00000f1b l       .debug_str	00000000 
00000f26 l       .debug_str	00000000 
00000f2f l       .debug_str	00000000 
00000f3a l       .debug_str	00000000 
00000f46 l       .debug_str	00000000 
00000f4a l       .debug_str	00000000 
00000f53 l       .debug_str	00000000 
00000f5a l       .debug_str	00000000 
00000f62 l       .debug_str	00000000 
00000f6a l       .debug_str	00000000 
00000f74 l       .debug_str	00000000 
00000f7a l       .debug_str	00000000 
00000f81 l       .debug_str	00000000 
00000f88 l       .debug_str	00000000 
00000fb5 l       .debug_str	00000000 
00000fea l       .debug_str	00000000 
00000ff0 l       .debug_str	00000000 
00000ff6 l       .debug_str	00000000 
00001005 l       .debug_str	00000000 
00001015 l       .debug_str	00000000 
00001025 l       .debug_str	00000000 
0000102d l       .debug_str	00000000 
00001056 l       .debug_str	00000000 
000010b4 l       .debug_str	00000000 
0000111a l       .debug_str	00000000 
00001121 l       .debug_str	00000000 
00001129 l       .debug_str	00000000 
00001132 l       .debug_str	00000000 
00001150 l       .debug_str	00000000 
00001160 l       .debug_str	00000000 
0000116e l       .debug_str	00000000 
00001179 l       .debug_str	00000000 
00001186 l       .debug_str	00000000 
00001195 l       .debug_str	00000000 
000011ab l       .debug_str	00000000 
000011b5 l       .debug_str	00000000 
000011be l       .debug_str	00000000 
000011c7 l       .debug_str	00000000 
000011ed l       .debug_str	00000000 
00001203 l       .debug_str	00000000 
0000120e l       .debug_str	00000000 
00001224 l       .debug_str	00000000 
0000122c l       .debug_str	00000000 
0000124d l       .debug_str	00000000 
00001264 l       .debug_str	00000000 
00001269 l       .debug_str	00000000 
00001271 l       .debug_str	00000000 
0000127a l       .debug_str	00000000 
00001283 l       .debug_str	00000000 
0000128c l       .debug_str	00000000 
00001294 l       .debug_str	00000000 
0000129b l       .debug_str	00000000 
000012a7 l       .debug_str	00000000 
000012b2 l       .debug_str	00000000 
000012ba l       .debug_str	00000000 
000012c2 l       .debug_str	00000000 
0000133e l       .debug_str	00000000 
000013c2 l       .debug_str	00000000 
000014be l       .debug_str	00000000 
000015c2 l       .debug_str	00000000 
000015d0 l       .debug_str	00000000 
000015db l       .debug_str	00000000 
000015e5 l       .debug_str	00000000 
000015f0 l       .debug_str	00000000 
0000161e l       .debug_str	00000000 
00001699 l       .debug_str	00000000 
0000171c l       .debug_str	00000000 
0000172a l       .debug_str	00000000 
00001789 l       .debug_str	00000000 
000017f0 l       .debug_str	00000000 
00001806 l       .debug_str	00000000 
00001816 l       .debug_str	00000000 
00001825 l       .debug_str	00000000 
00001829 l       .debug_str	00000000 
0000182f l       .debug_str	00000000 
00001835 l       .debug_str	00000000 
0000183b l       .debug_str	00000000 
00001847 l       .debug_str	00000000 
0000184f l       .debug_str	00000000 
00001857 l       .debug_str	00000000 
0000185d l       .debug_str	00000000 
00001880 l       .debug_str	00000000 
00001890 l       .debug_str	00000000 
000018c3 l       .debug_str	00000000 
00001903 l       .debug_str	00000000 
0000194b l       .debug_str	00000000 
0000194f l       .debug_str	00000000 
00001955 l       .debug_str	00000000 
0000195b l       .debug_str	00000000 
00001961 l       .debug_str	00000000 
00001973 l       .debug_str	00000000 
000019a8 l       .debug_str	00000000 
000019ea l       .debug_str	00000000 
00001a34 l       .debug_str	00000000 
00001a38 l       .debug_str	00000000 
00001a3e l       .debug_str	00000000 
00001a44 l       .debug_str	00000000 
00001a4a l       .debug_str	00000000 
00001a5c l       .debug_str	00000000 
00001a91 l       .debug_str	00000000 
00001ad3 l       .debug_str	00000000 
00001b1d l       .debug_str	00000000 
00001b21 l       .debug_str	00000000 
00001b27 l       .debug_str	00000000 
00001b2d l       .debug_str	00000000 
00001b33 l       .debug_str	00000000 
00001b39 l       .debug_str	00000000 
00001b4a l       .debug_str	00000000 
00001b7e l       .debug_str	00000000 
00001bbf l       .debug_str	00000000 
00001c08 l       .debug_str	00000000 
00001c0d l       .debug_str	00000000 
00001c12 l       .debug_str	00000000 
00001c16 l       .debug_str	00000000 
00001c1c l       .debug_str	00000000 
00001c22 l       .debug_str	00000000 
00001c28 l       .debug_str	00000000 
00001c39 l       .debug_str	00000000 
00001c6d l       .debug_str	00000000 
00001cae l       .debug_str	00000000 
00001cf7 l       .debug_str	00000000 
00001cfb l       .debug_str	00000000 
00001d04 l       .debug_str	00000000 
00001d15 l       .debug_str	00000000 
00001d49 l       .debug_str	00000000 
00001d8a l       .debug_str	00000000 
00001dd3 l       .debug_str	00000000 
00001dd8 l       .debug_str	00000000 
00001ddc l       .debug_str	00000000 
00001de5 l       .debug_str	00000000 
00001dec l       .debug_str	00000000 
00001df4 l       .debug_str	00000000 
00001e06 l       .debug_str	00000000 
00001e3b l       .debug_str	00000000 
00001e7d l       .debug_str	00000000 
00001ec7 l       .debug_str	00000000 
00001ecb l       .debug_str	00000000 
00001ed1 l       .debug_str	00000000 
00001ed7 l       .debug_str	00000000 
00001edd l       .debug_str	00000000 
00001ee3 l       .debug_str	00000000 
00001eeb l       .debug_str	00000000 
00001ef9 l       .debug_str	00000000 
00001f08 l       .debug_str	00000000 
00001f19 l       .debug_str	00000000 
00001f24 l       .debug_str	00000000 
00001f2f l       .debug_str	00000000 
00001f3a l       .debug_str	00000000 
00001f41 l       .debug_str	00000000 
00001f64 l       .debug_str	00000000 
00001f76 l       .debug_str	00000000 
00001fab l       .debug_str	00000000 
00001fed l       .debug_str	00000000 
00002037 l       .debug_str	00000000 
0000203b l       .debug_str	00000000 
00002045 l       .debug_str	00000000 
00002057 l       .debug_str	00000000 
0000208c l       .debug_str	00000000 
000020ce l       .debug_str	00000000 
00002118 l       .debug_str	00000000 
0000211d l       .debug_str	00000000 
00002127 l       .debug_str	00000000 
00002139 l       .debug_str	00000000 
0000216e l       .debug_str	00000000 
000021b0 l       .debug_str	00000000 
000021fa l       .debug_str	00000000 
0000220e l       .debug_str	00000000 
0000221c l       .debug_str	00000000 
0000222c l       .debug_str	00000000 
00002240 l       .debug_str	00000000 
0000224f l       .debug_str	00000000 
00002264 l       .debug_str	00000000 
00002295 l       .debug_str	00000000 
00002332 l       .debug_str	00000000 
000023d7 l       .debug_str	00000000 
000023e2 l       .debug_str	00000000 
000023eb l       .debug_str	00000000 
0000240c l       .debug_str	00000000 
0000241f l       .debug_str	00000000 
00002455 l       .debug_str	00000000 
000024d8 l       .debug_str	00000000 
00002563 l       .debug_str	00000000 
0000257f l       .debug_str	00000000 
000025cb l       .debug_str	00000000 
0000261f l       .debug_str	00000000 
0000263c l       .debug_str	00000000 
00002650 l       .debug_str	00000000 
0000269c l       .debug_str	00000000 
000026f0 l       .debug_str	00000000 
00002706 l       .debug_str	00000000 
0000271a l       .debug_str	00000000 
00002761 l       .debug_str	00000000 
000027b0 l       .debug_str	00000000 
000027b9 l       .debug_str	00000000 
000027c7 l       .debug_str	00000000 
000027f8 l       .debug_str	00000000 
000027fe l       .debug_str	00000000 
00002806 l       .debug_str	00000000 
0000280d l       .debug_str	00000000 
00002815 l       .debug_str	00000000 
00002820 l       .debug_str	00000000 
00002828 l       .debug_str	00000000 
00002837 l       .debug_str	00000000 
0000283b l       .debug_str	00000000 
00002846 l       .debug_str	00000000 
00002852 l       .debug_str	00000000 
0000285d l       .debug_str	00000000 
0000286e l       .debug_str	00000000 
00002874 l       .debug_str	00000000 
0000287c l       .debug_str	00000000 
00002883 l       .debug_str	00000000 
0000288d l       .debug_str	00000000 
00002895 l       .debug_str	00000000 
0000289d l       .debug_str	00000000 
000028bf l       .debug_str	00000000 
000028ca l       .debug_str	00000000 
000028d6 l       .debug_str	00000000 
000028de l       .debug_str	00000000 
000028e7 l       .debug_str	00000000 
000028f2 l       .debug_str	00000000 
000028f9 l       .debug_str	00000000 
00002904 l       .debug_str	00000000 
0000290f l       .debug_str	00000000 
0000291f l       .debug_str	00000000 
00002929 l       .debug_str	00000000 
0000292f l       .debug_str	00000000 
00002951 l       .debug_str	00000000 
00002989 l       .debug_str	00000000 
000029c9 l       .debug_str	00000000 
000029d0 l       .debug_str	00000000 
000029d8 l       .debug_str	00000000 
000029ef l       .debug_str	00000000 
000029f8 l       .debug_str	00000000 
00002a08 l       .debug_str	00000000 
00002a17 l       .debug_str	00000000 
00002a1f l       .debug_str	00000000 
00002a26 l       .debug_str	00000000 
00002a2e l       .debug_str	00000000 
00002a4c l       .debug_str	00000000 
00002a5c l       .debug_str	00000000 
00000000 l     O .rodata..Lanon.3ed011473997af99b525cde47c9eaaac.0	00000000 .Lanon.3ed011473997af99b525cde47c9eaaac.0
00000000 l     O .rodata..Lanon.3ed011473997af99b525cde47c9eaaac.10	00000018 .Lanon.3ed011473997af99b525cde47c9eaaac.10
00000000 l     O .rodata..Lanon.3ed011473997af99b525cde47c9eaaac.12	00000018 .Lanon.3ed011473997af99b525cde47c9eaaac.12
00000000 l     O .rodata..Lanon.3ed011473997af99b525cde47c9eaaac.13	00000016 .Lanon.3ed011473997af99b525cde47c9eaaac.13
00000000 l     O .rodata..Lanon.3ed011473997af99b525cde47c9eaaac.14	00000018 .Lanon.3ed011473997af99b525cde47c9eaaac.14
00000000 l     O .rodata..Lanon.3ed011473997af99b525cde47c9eaaac.16	0000000c .Lanon.3ed011473997af99b525cde47c9eaaac.16
00000000 l     O .rodata.cst4	00000004 .Lanon.3ed011473997af99b525cde47c9eaaac.17
00000000 l     O .rodata..Lanon.3ed011473997af99b525cde47c9eaaac.2	00000010 .Lanon.3ed011473997af99b525cde47c9eaaac.2
00000000 l     O .rodata..Lanon.3ed011473997af99b525cde47c9eaaac.21	00000018 .Lanon.3ed011473997af99b525cde47c9eaaac.21
00000000 l     O .rodata..Lanon.3ed011473997af99b525cde47c9eaaac.23	00000008 .Lanon.3ed011473997af99b525cde47c9eaaac.23
00000000 l     O .rodata..Lanon.3ed011473997af99b525cde47c9eaaac.24	00000010 .Lanon.3ed011473997af99b525cde47c9eaaac.24
00000000 l     O .rodata..Lanon.3ed011473997af99b525cde47c9eaaac.25	00000001 .Lanon.3ed011473997af99b525cde47c9eaaac.25
00000000 l     O .rodata..Lanon.3ed011473997af99b525cde47c9eaaac.27	00000018 .Lanon.3ed011473997af99b525cde47c9eaaac.27
00000000 l     O .rodata..Lanon.3ed011473997af99b525cde47c9eaaac.29	00000008 .Lanon.3ed011473997af99b525cde47c9eaaac.29
00000000 l     O .rodata..Lanon.3ed011473997af99b525cde47c9eaaac.30	00000010 .Lanon.3ed011473997af99b525cde47c9eaaac.30
00000000 l     O .rodata..Lanon.3ed011473997af99b525cde47c9eaaac.31	00000016 .Lanon.3ed011473997af99b525cde47c9eaaac.31
00000000 l     O .rodata..Lanon.3ed011473997af99b525cde47c9eaaac.32	00000007 .Lanon.3ed011473997af99b525cde47c9eaaac.32
00000000 l     O .rodata..Lanon.3ed011473997af99b525cde47c9eaaac.33	0000000d .Lanon.3ed011473997af99b525cde47c9eaaac.33
00000004 l     O .rodata.cst4	00000004 .Lanon.3ed011473997af99b525cde47c9eaaac.34
00000000 l     O .rodata..Lanon.3ed011473997af99b525cde47c9eaaac.35	00000007 .Lanon.3ed011473997af99b525cde47c9eaaac.35
00000000 l     O .rodata..Lanon.3ed011473997af99b525cde47c9eaaac.36	00000006 .Lanon.3ed011473997af99b525cde47c9eaaac.36
00000000 l     O .rodata..Lanon.3ed011473997af99b525cde47c9eaaac.37	00000003 .Lanon.3ed011473997af99b525cde47c9eaaac.37
00000000 l     O .rodata..Lanon.3ed011473997af99b525cde47c9eaaac.38	00000005 .Lanon.3ed011473997af99b525cde47c9eaaac.38
00000000 l     O .rodata..Lanon.3ed011473997af99b525cde47c9eaaac.39	00000048 .Lanon.3ed011473997af99b525cde47c9eaaac.39
00000000 l     O .rodata..Lanon.3ed011473997af99b525cde47c9eaaac.4	00000010 .Lanon.3ed011473997af99b525cde47c9eaaac.4
00000000 l     O .rodata..Lanon.3ed011473997af99b525cde47c9eaaac.40	00000001 .Lanon.3ed011473997af99b525cde47c9eaaac.40
00000000 l     O .rodata.cst8	00000008 .Lanon.3ed011473997af99b525cde47c9eaaac.41
00000008 l     O .rodata.cst8	00000008 .Lanon.3ed011473997af99b525cde47c9eaaac.42
00000010 l     O .rodata.cst8	00000008 .Lanon.3ed011473997af99b525cde47c9eaaac.43
00000018 l     O .rodata.cst8	00000008 .Lanon.3ed011473997af99b525cde47c9eaaac.44
00000000 l     O .rodata..Lanon.3ed011473997af99b525cde47c9eaaac.45	00000006 .Lanon.3ed011473997af99b525cde47c9eaaac.45
00000000 l     O .rodata..Lanon.3ed011473997af99b525cde47c9eaaac.46	00000007 .Lanon.3ed011473997af99b525cde47c9eaaac.46
00000000 l     O .rodata..Lanon.3ed011473997af99b525cde47c9eaaac.47	00000003 .Lanon.3ed011473997af99b525cde47c9eaaac.47
00000020 l     O .rodata.cst8	00000008 .Lanon.3ed011473997af99b525cde47c9eaaac.48
00000000 l     O .rodata..Lanon.3ed011473997af99b525cde47c9eaaac.6	0000000e .Lanon.3ed011473997af99b525cde47c9eaaac.6
00000000 l     O .rodata..Lanon.3ed011473997af99b525cde47c9eaaac.9	00000018 .Lanon.3ed011473997af99b525cde47c9eaaac.9
00000000 l     O .rodata._ZN3app10app_sensor13SENSOR_DEVICE17hcbf3355853b29726E	0000000c _ZN3app10app_sensor13SENSOR_DEVICE17hcbf3355853b29726E
00000000 l     F .text._ZN3app10app_sensor18handle_sensor_data17h79eb4755e3c99ccdE	00000362 _ZN3app10app_sensor18handle_sensor_data17h79eb4755e3c99ccdE
00000000 l     F .text._ZN42_$LT$$RF$T$u20$as$u20$core..fmt..Debug$GT$3fmt17h8c0de614cc1c1d91E	0000003a _ZN42_$LT$$RF$T$u20$as$u20$core..fmt..Debug$GT$3fmt17h8c0de614cc1c1d91E
00000000 l     F .text._ZN42_$LT$$RF$T$u20$as$u20$core..fmt..Debug$GT$3fmt17hfbbb2e19b853fe48E	0000003a _ZN42_$LT$$RF$T$u20$as$u20$core..fmt..Debug$GT$3fmt17hfbbb2e19b853fe48E
00000000 l     F .text._ZN44_$LT$$RF$T$u20$as$u20$core..fmt..Display$GT$3fmt17he0caf70069709cf6E	0000000c _ZN44_$LT$$RF$T$u20$as$u20$core..fmt..Display$GT$3fmt17he0caf70069709cf6E
00000000 l     F .text._ZN4core6result13unwrap_failed17h5e505f4515655aafE	00000050 _ZN4core6result13unwrap_failed17h5e505f4515655aafE
00000000 l    d  .text._ZN42_$LT$$RF$T$u20$as$u20$core..fmt..Debug$GT$3fmt17h8c0de614cc1c1d91E	00000000 .text._ZN42_$LT$$RF$T$u20$as$u20$core..fmt..Debug$GT$3fmt17h8c0de614cc1c1d91E
00000000 l    d  .text._ZN42_$LT$$RF$T$u20$as$u20$core..fmt..Debug$GT$3fmt17hfbbb2e19b853fe48E	00000000 .text._ZN42_$LT$$RF$T$u20$as$u20$core..fmt..Debug$GT$3fmt17hfbbb2e19b853fe48E
00000000 l    d  .text._ZN44_$LT$$RF$T$u20$as$u20$core..fmt..Display$GT$3fmt17he0caf70069709cf6E	00000000 .text._ZN44_$LT$$RF$T$u20$as$u20$core..fmt..Display$GT$3fmt17he0caf70069709cf6E
00000000 l    d  .text._ZN4core6result13unwrap_failed17h5e505f4515655aafE	00000000 .text._ZN4core6result13unwrap_failed17h5e505f4515655aafE
00000000 l    d  .text._ZN3app10app_sensor18handle_sensor_data17h79eb4755e3c99ccdE	00000000 .text._ZN3app10app_sensor18handle_sensor_data17h79eb4755e3c99ccdE
00000000 l    d  .text.main	00000000 .text.main
00000000 l    d  .text.rust_begin_unwind	00000000 .text.rust_begin_unwind
00000000 l    d  .rodata..Lanon.3ed011473997af99b525cde47c9eaaac.0	00000000 .rodata..Lanon.3ed011473997af99b525cde47c9eaaac.0
00000000 l    d  .rodata..Lanon.3ed011473997af99b525cde47c9eaaac.1	00000000 .rodata..Lanon.3ed011473997af99b525cde47c9eaaac.1
00000000 l    d  .rodata..Lanon.3ed011473997af99b525cde47c9eaaac.3	00000000 .rodata..Lanon.3ed011473997af99b525cde47c9eaaac.3
00000000 l    d  .rodata..Lanon.3ed011473997af99b525cde47c9eaaac.5	00000000 .rodata..Lanon.3ed011473997af99b525cde47c9eaaac.5
00000000 l    d  .rodata._ZN3app10app_sensor13SENSOR_DEVICE17hcbf3355853b29726E	00000000 .rodata._ZN3app10app_sensor13SENSOR_DEVICE17hcbf3355853b29726E
00000000 l    d  .rodata..Lanon.3ed011473997af99b525cde47c9eaaac.7	00000000 .rodata..Lanon.3ed011473997af99b525cde47c9eaaac.7
00000000 l    d  .rodata..Lanon.3ed011473997af99b525cde47c9eaaac.8	00000000 .rodata..Lanon.3ed011473997af99b525cde47c9eaaac.8
00000000 l    d  .rodata..Lanon.3ed011473997af99b525cde47c9eaaac.11	00000000 .rodata..Lanon.3ed011473997af99b525cde47c9eaaac.11
00000000 l    d  .rodata..Lanon.3ed011473997af99b525cde47c9eaaac.15	00000000 .rodata..Lanon.3ed011473997af99b525cde47c9eaaac.15
00000000 l    d  .rodata..Lanon.3ed011473997af99b525cde47c9eaaac.18	00000000 .rodata..Lanon.3ed011473997af99b525cde47c9eaaac.18
00000000 l    d  .rodata..Lanon.3ed011473997af99b525cde47c9eaaac.19	00000000 .rodata..Lanon.3ed011473997af99b525cde47c9eaaac.19
00000000 l    d  .rodata..Lanon.3ed011473997af99b525cde47c9eaaac.20	00000000 .rodata..Lanon.3ed011473997af99b525cde47c9eaaac.20
00000000 l    d  .rodata..Lanon.3ed011473997af99b525cde47c9eaaac.22	00000000 .rodata..Lanon.3ed011473997af99b525cde47c9eaaac.22
00000000 l    d  .rodata..Lanon.3ed011473997af99b525cde47c9eaaac.26	00000000 .rodata..Lanon.3ed011473997af99b525cde47c9eaaac.26
00000000 l    d  .rodata..Lanon.3ed011473997af99b525cde47c9eaaac.28	00000000 .rodata..Lanon.3ed011473997af99b525cde47c9eaaac.28
00000000 l    d  .debug_loc	00000000 .debug_loc
00000000 l    d  .debug_abbrev	00000000 .debug_abbrev
00000000 l    d  .debug_info	00000000 .debug_info
00000000 l    d  .debug_ranges	00000000 .debug_ranges
00000000 l    d  .debug_frame	00000000 .debug_frame
00000000 l    d  .debug_line	00000000 .debug_line
00000000         *UND*	00000000 _ZN42_$LT$str$u20$as$u20$core..fmt..Display$GT$3fmt17h3a34938e29ce59dcE
00000000         *UND*	00000000 _ZN4core3fmt3num3imp51_$LT$impl$u20$core..fmt..Display$u20$for$u20$u8$GT$3fmt17heb4d046d241d78d0E
00000000         *UND*	00000000 _ZN4core3fmt3num3imp52_$LT$impl$u20$core..fmt..Display$u20$for$u20$i32$GT$3fmt17h33b3bbdbc74b88baE
00000000         *UND*	00000000 _ZN4core3fmt3num52_$LT$impl$u20$core..fmt..LowerHex$u20$for$u20$u8$GT$3fmt17he275dc913fe9b8e5E
00000000         *UND*	00000000 _ZN4core3fmt3num52_$LT$impl$u20$core..fmt..UpperHex$u20$for$u20$u8$GT$3fmt17h1d24bfddebe6efa8E
00000000         *UND*	00000000 _ZN4core3fmt3num53_$LT$impl$u20$core..fmt..LowerHex$u20$for$u20$i32$GT$3fmt17hb2119167a92723afE
00000000         *UND*	00000000 _ZN4core3fmt3num53_$LT$impl$u20$core..fmt..UpperHex$u20$for$u20$i32$GT$3fmt17hc44988ae29d24532E
00000000         *UND*	00000000 _ZN4core3fmt9Formatter15debug_lower_hex17h6ead2f28bb05b574E
00000000         *UND*	00000000 _ZN4core3fmt9Formatter15debug_upper_hex17hd6d96e6aa5cb78d8E
00000000         *UND*	00000000 _ZN4core5panic8Location4file17h94cc6af18de736c4E
00000000         *UND*	00000000 _ZN4core5panic8Location4line17h3ffc63f14d0a6636E
00000000         *UND*	00000000 _ZN4core5panic9PanicInfo8location17h5226165d8771f8a2E
00000000         *UND*	00000000 _ZN4core9panicking5panic17h53ca63c6ac6312f8E
00000000         *UND*	00000000 _ZN4core9panicking9panic_fmt17h6b4d8e87b0965449E
00000000         *UND*	00000000 _ZN59_$LT$core..fmt..Arguments$u20$as$u20$core..fmt..Display$GT$3fmt17h3e269ca172b8335aE
00000000         *UND*	00000000 _ZN64_$LT$mynewt..result..MynewtError$u20$as$u20$core..fmt..Debug$GT$3fmt17hd9330c65d0df5de4E
00000000         *UND*	00000000 _ZN6mynewt2hw6sensor10as_untyped17hc52911d8f92952d2E
00000000         *UND*	00000000 _ZN6mynewt2hw6sensor17register_listener17h3d76972915cb34a9E
00000000         *UND*	00000000 _ZN6mynewt2hw6sensor8bindings16set_poll_rate_ms17he698cfb7bf5b51c7E
00000000         *UND*	00000000 _ZN6mynewt2hw6sensor8bindings23mgr_find_next_bydevname17hf4e8778610b4d919E
00000000         *UND*	00000000 _ZN6mynewt2hw6sensor8bindings4read17he7d98afe9c6fd247E
00000000         *UND*	00000000 _ZN6mynewt3sys7console10print_strn17hbdb822de1c27ec12E
00000000         *UND*	00000000 _ZN6mynewt3sys7console5flush17h5c6729c8c5c7d57eE
00000000         *UND*	00000000 _ZN6mynewt3sys7console5print17hd50240000fba952aE
00000000         *UND*	00000000 _ZN6mynewt3sys7console6buffer17hd7d5926ef191360aE
00000000         *UND*	00000000 _ZN6mynewt3sys7console8printhex17hc6ef47fda2338553E
00000000         *UND*	00000000 _ZN6mynewt4Strn3new17h77c8f169826f5a6cE
00000000         *UND*	00000000 _ZN6mynewt4libs14sensor_network12prepare_post17h46290df74e86fc17E
00000000         *UND*	00000000 _ZN6mynewt4libs14sensor_network13get_device_id17hec33904383d64aaaE
00000000         *UND*	00000000 _ZN6mynewt4libs14sensor_network14do_server_post17h1a375a94de2766a8E
00000000         *UND*	00000000 _ZN6mynewt4libs14sensor_network16init_server_post17h1e398973dfb84ef2E
00000000         *UND*	00000000 _ZN6mynewt4libs14sensor_network22start_server_transport17hf15d3358d69d9782E
00000000         *UND*	00000000 _ZN6mynewt6kernel2os10eventq_run17h9c2e732b43da5431E
00000000         *UND*	00000000 _ZN6mynewt6kernel2os15eventq_dflt_get17h48c73d6bff98f8a5E
00000000         *UND*	00000000 _ZN6mynewt7sysinit17h090e57ed8a26d343E
00000000         *UND*	00000000 _ZN6mynewt8encoding12coap_context11CoapContext11key_to_cstr17h1b96f565c5bdc904E
00000000         *UND*	00000000 _ZN6mynewt8encoding12coap_context11CoapContext11to_void_ptr17h209f9eb6723e95f8E
00000000         *UND*	00000000 _ZN6mynewt8encoding12coap_context11CoapContext13value_to_cstr17h5e53ea86d8c21a39E
00000000         *UND*	00000000 _ZN6mynewt8encoding12coap_context11CoapContext20json_set_text_string17heb57dad15fd369fdE
00000000         *UND*	00000000 _ZN6mynewt8encoding12coap_context12COAP_CONTEXT17h9936a15f5b15e73fE
00000000         *UND*	00000000 _ZN75_$LT$str$u20$as$u20$mynewt..encoding..coap_context..ToBytesOptionalNull$GT$21to_bytes_optional_nul17h0d8f6093cb511724E
00000000         *UND*	00000000 _ZN84_$LT$mynewt..Strn$u20$as$u20$mynewt..encoding..coap_context..ToBytesOptionalNull$GT$21to_bytes_optional_nul17h7603c80f8d18bea1E
00000000         *UND*	00000000 __bkpt
00000000         *UND*	00000000 get_temp_raw_data
00000000         *UND*	00000000 json_helper_close_array
00000000         *UND*	00000000 json_helper_object_array_end_item
00000000         *UND*	00000000 json_helper_object_array_start_item
00000000         *UND*	00000000 json_helper_set_array
00000000         *UND*	00000000 json_helper_set_int
00000000         *UND*	00000000 json_helper_set_text_string
00000000         *UND*	00000000 json_rep_end_root_object
00000000         *UND*	00000000 json_rep_start_root_object
00000000 g     F .text.main	00000116 main
00000000         *UND*	00000000 power_standby_wakeup
00000000 g     F .text.rust_begin_unwind	00000078 rust_begin_unwind



Disassembly of section .text._ZN42_$LT$$RF$T$u20$as$u20$core..fmt..Debug$GT$3fmt17h8c0de614cc1c1d91E:

00000000 <_ZN42_$LT$$RF$T$u20$as$u20$core..fmt..Debug$GT$3fmt17h8c0de614cc1c1d91E>:
_ZN42_$LT$$RF$T$u20$as$u20$core..fmt..Debug$GT$3fmt17h8c0de614cc1c1d91E():
/rustc/50a0defd5a93523067ef239936cc2e0755220904/src/libcore/fmt/mod.rs:1914
   0:	b5b0      	push	{r4, r5, r7, lr}
   2:	6805      	ldr	r5, [r0, #0]
_ZN4core3fmt3num49_$LT$impl$u20$core..fmt..Debug$u20$for$u20$u8$GT$3fmt17h271d1c938b44f4eaE():
/rustc/50a0defd5a93523067ef239936cc2e0755220904/src/libcore/fmt/num.rs:147
   4:	4608      	mov	r0, r1
   6:	460c      	mov	r4, r1
   8:	f7ff fffe 	bl	0 <_ZN4core3fmt9Formatter15debug_lower_hex17h6ead2f28bb05b574E>
   c:	b128      	cbz	r0, 1a <_ZN42_$LT$$RF$T$u20$as$u20$core..fmt..Debug$GT$3fmt17h8c0de614cc1c1d91E+0x1a>
/rustc/50a0defd5a93523067ef239936cc2e0755220904/src/libcore/fmt/num.rs:148
   e:	4628      	mov	r0, r5
  10:	4621      	mov	r1, r4
  12:	e8bd 40b0 	ldmia.w	sp!, {r4, r5, r7, lr}
  16:	f7ff bffe 	b.w	0 <_ZN4core3fmt3num52_$LT$impl$u20$core..fmt..LowerHex$u20$for$u20$u8$GT$3fmt17he275dc913fe9b8e5E>
/rustc/50a0defd5a93523067ef239936cc2e0755220904/src/libcore/fmt/num.rs:149
  1a:	4620      	mov	r0, r4
  1c:	f7ff fffe 	bl	0 <_ZN4core3fmt9Formatter15debug_upper_hex17hd6d96e6aa5cb78d8E>
  20:	b128      	cbz	r0, 2e <_ZN42_$LT$$RF$T$u20$as$u20$core..fmt..Debug$GT$3fmt17h8c0de614cc1c1d91E+0x2e>
/rustc/50a0defd5a93523067ef239936cc2e0755220904/src/libcore/fmt/num.rs:150
  22:	4628      	mov	r0, r5
  24:	4621      	mov	r1, r4
  26:	e8bd 40b0 	ldmia.w	sp!, {r4, r5, r7, lr}
  2a:	f7ff bffe 	b.w	0 <_ZN4core3fmt3num52_$LT$impl$u20$core..fmt..UpperHex$u20$for$u20$u8$GT$3fmt17h1d24bfddebe6efa8E>
/rustc/50a0defd5a93523067ef239936cc2e0755220904/src/libcore/fmt/num.rs:152
  2e:	4628      	mov	r0, r5
  30:	4621      	mov	r1, r4
  32:	e8bd 40b0 	ldmia.w	sp!, {r4, r5, r7, lr}
  36:	f7ff bffe 	b.w	0 <_ZN4core3fmt3num3imp51_$LT$impl$u20$core..fmt..Display$u20$for$u20$u8$GT$3fmt17heb4d046d241d78d0E>

Disassembly of section .text._ZN42_$LT$$RF$T$u20$as$u20$core..fmt..Debug$GT$3fmt17hfbbb2e19b853fe48E:

00000000 <_ZN42_$LT$$RF$T$u20$as$u20$core..fmt..Debug$GT$3fmt17hfbbb2e19b853fe48E>:
_ZN42_$LT$$RF$T$u20$as$u20$core..fmt..Debug$GT$3fmt17hfbbb2e19b853fe48E():
/rustc/50a0defd5a93523067ef239936cc2e0755220904/src/libcore/fmt/mod.rs:1914
   0:	b5b0      	push	{r4, r5, r7, lr}
   2:	6805      	ldr	r5, [r0, #0]
_ZN4core3fmt3num50_$LT$impl$u20$core..fmt..Debug$u20$for$u20$i32$GT$3fmt17hc0a5c2426ccebe61E():
/rustc/50a0defd5a93523067ef239936cc2e0755220904/src/libcore/fmt/num.rs:147
   4:	4608      	mov	r0, r1
   6:	460c      	mov	r4, r1
   8:	f7ff fffe 	bl	0 <_ZN4core3fmt9Formatter15debug_lower_hex17h6ead2f28bb05b574E>
   c:	b128      	cbz	r0, 1a <_ZN42_$LT$$RF$T$u20$as$u20$core..fmt..Debug$GT$3fmt17hfbbb2e19b853fe48E+0x1a>
/rustc/50a0defd5a93523067ef239936cc2e0755220904/src/libcore/fmt/num.rs:148
   e:	4628      	mov	r0, r5
  10:	4621      	mov	r1, r4
  12:	e8bd 40b0 	ldmia.w	sp!, {r4, r5, r7, lr}
  16:	f7ff bffe 	b.w	0 <_ZN4core3fmt3num53_$LT$impl$u20$core..fmt..LowerHex$u20$for$u20$i32$GT$3fmt17hb2119167a92723afE>
/rustc/50a0defd5a93523067ef239936cc2e0755220904/src/libcore/fmt/num.rs:149
  1a:	4620      	mov	r0, r4
  1c:	f7ff fffe 	bl	0 <_ZN4core3fmt9Formatter15debug_upper_hex17hd6d96e6aa5cb78d8E>
  20:	b128      	cbz	r0, 2e <_ZN42_$LT$$RF$T$u20$as$u20$core..fmt..Debug$GT$3fmt17hfbbb2e19b853fe48E+0x2e>
/rustc/50a0defd5a93523067ef239936cc2e0755220904/src/libcore/fmt/num.rs:150
  22:	4628      	mov	r0, r5
  24:	4621      	mov	r1, r4
  26:	e8bd 40b0 	ldmia.w	sp!, {r4, r5, r7, lr}
  2a:	f7ff bffe 	b.w	0 <_ZN4core3fmt3num53_$LT$impl$u20$core..fmt..UpperHex$u20$for$u20$i32$GT$3fmt17hc44988ae29d24532E>
/rustc/50a0defd5a93523067ef239936cc2e0755220904/src/libcore/fmt/num.rs:152
  2e:	4628      	mov	r0, r5
  30:	4621      	mov	r1, r4
  32:	e8bd 40b0 	ldmia.w	sp!, {r4, r5, r7, lr}
  36:	f7ff bffe 	b.w	0 <_ZN4core3fmt3num3imp52_$LT$impl$u20$core..fmt..Display$u20$for$u20$i32$GT$3fmt17h33b3bbdbc74b88baE>

Disassembly of section .text._ZN44_$LT$$RF$T$u20$as$u20$core..fmt..Display$GT$3fmt17he0caf70069709cf6E:

00000000 <_ZN44_$LT$$RF$T$u20$as$u20$core..fmt..Display$GT$3fmt17he0caf70069709cf6E>:
_ZN44_$LT$$RF$T$u20$as$u20$core..fmt..Display$GT$3fmt17he0caf70069709cf6E():
/rustc/50a0defd5a93523067ef239936cc2e0755220904/src/libcore/fmt/mod.rs:1914
   0:	460a      	mov	r2, r1
   2:	e9d0 3100 	ldrd	r3, r1, [r0]
   6:	4618      	mov	r0, r3
   8:	f7ff bffe 	b.w	0 <_ZN42_$LT$str$u20$as$u20$core..fmt..Display$GT$3fmt17h3a34938e29ce59dcE>

Disassembly of section .text._ZN4core6result13unwrap_failed17h5e505f4515655aafE:

00000000 <_ZN4core6result13unwrap_failed17h5e505f4515655aafE>:
_ZN4core6result13unwrap_failed17h5e505f4515655aafE():
/rustc/50a0defd5a93523067ef239936cc2e0755220904/src/libcore/result.rs:998
   0:	b08e      	sub	sp, #56	; 0x38
   2:	2208      	movs	r2, #8
   4:	e9cd 0201 	strd	r0, r2, [sp, #4]
/rustc/50a0defd5a93523067ef239936cc2e0755220904/src/libcore/result.rs:999
   8:	f240 0000 	movw	r0, #0
   c:	f2c0 0000 	movt	r0, #0
  10:	9103      	str	r1, [sp, #12]
  12:	900d      	str	r0, [sp, #52]	; 0x34
  14:	a803      	add	r0, sp, #12
  16:	900c      	str	r0, [sp, #48]	; 0x30
  18:	f240 0000 	movw	r0, #0
  1c:	f2c0 0000 	movt	r0, #0
  20:	a90a      	add	r1, sp, #40	; 0x28
  22:	900b      	str	r0, [sp, #44]	; 0x2c
  24:	a801      	add	r0, sp, #4
  26:	900a      	str	r0, [sp, #40]	; 0x28
  28:	2002      	movs	r0, #2
_ZN4core3fmt9Arguments6new_v117ha99294a9defa432aE():
/rustc/50a0defd5a93523067ef239936cc2e0755220904/src/libcore/fmt/mod.rs:316
  2a:	9009      	str	r0, [sp, #36]	; 0x24
  2c:	9108      	str	r1, [sp, #32]
  2e:	2100      	movs	r1, #0
  30:	9107      	str	r1, [sp, #28]
  32:	e9cd 0105 	strd	r0, r1, [sp, #20]
  36:	f240 0000 	movw	r0, #0
  3a:	f2c0 0000 	movt	r0, #0
_ZN4core6result13unwrap_failed17h5e505f4515655aafE():
/rustc/50a0defd5a93523067ef239936cc2e0755220904/src/libcore/macros.rs:18
  3e:	f240 0100 	movw	r1, #0
_ZN4core3fmt9Arguments6new_v117ha99294a9defa432aE():
/rustc/50a0defd5a93523067ef239936cc2e0755220904/src/libcore/fmt/mod.rs:316
  42:	9004      	str	r0, [sp, #16]
  44:	a804      	add	r0, sp, #16
_ZN4core6result13unwrap_failed17h5e505f4515655aafE():
/rustc/50a0defd5a93523067ef239936cc2e0755220904/src/libcore/macros.rs:18
  46:	f2c0 0100 	movt	r1, #0
  4a:	f7ff fffe 	bl	0 <_ZN4core9panicking9panic_fmt17h6b4d8e87b0965449E>
  4e:	defe      	udf	#254	; 0xfe

Disassembly of section .text._ZN3app10app_sensor18handle_sensor_data17h79eb4755e3c99ccdE:

00000000 <_ZN3app10app_sensor18handle_sensor_data17h79eb4755e3c99ccdE>:
_ZN3app10app_sensor18handle_sensor_data17h79eb4755e3c99ccdE():
/Users/Luppy/mynewt/stm32bluepill-mynewt-sensor/rust/app/src/app_sensor.rs:86
    Ok(())
}

///  This listener function is called every 10 seconds by Mynewt to handle the polled sensor data.
///  Return 0 if we have handled the sensor data successfully.
extern fn handle_sensor_data(sensor: sensor_ptr, _arg: sensor_arg, 
   0:	e92d 4ff0 	stmdb	sp!, {r4, r5, r6, r7, r8, r9, sl, fp, lr}
   4:	b099      	sub	sp, #100	; 0x64
   6:	4605      	mov	r5, r0
/Users/Luppy/mynewt/stm32bluepill-mynewt-sensor/rust/app/src/app_sensor.rs:88
    sensor_data: sensor_data_ptr, sensor_type: sensor_type_t) -> MynewtError {
    console::print("Rust handle_sensor_data\n");
   8:	f240 0000 	movw	r0, #0
   c:	f2c0 0000 	movt	r0, #0
  10:	2118      	movs	r1, #24
  12:	4614      	mov	r4, r2
  14:	f7ff fffe 	bl	0 <_ZN6mynewt3sys7console5print17hd50240000fba952aE>
/Users/Luppy/mynewt/stm32bluepill-mynewt-sensor/rust/app/src/app_sensor.rs:91

    //  Check that the temperature data is valid.
    if sensor_data.is_null() { return MynewtError::SYS_EINVAL; }  //  Exit if data is missing
  18:	2c00      	cmp	r4, #0
  1a:	d04d      	beq.n	b8 <_ZN3app10app_sensor18handle_sensor_data17h79eb4755e3c99ccdE+0xb8>
/Users/Luppy/mynewt/stm32bluepill-mynewt-sensor/rust/app/src/app_sensor.rs:92
    assert!(!sensor.is_null(), "null sensor");
  1c:	2d00      	cmp	r5, #0
  1e:	f000 8122 	beq.w	266 <_ZN3app10app_sensor18handle_sensor_data17h79eb4755e3c99ccdE+0x266>
_ZN3app10app_sensor19convert_sensor_data17h8de66336c1027443E():
/Users/Luppy/mynewt/stm32bluepill-mynewt-sensor/rust/app/src/app_sensor.rs:120

///  Convert the raw temperature value received from Mynewt into a `SensorValue` for transmission, which includes the sensor data key `t`. 
///  `sensor_type` indicates the type of data in `sensor_data`.
#[allow(non_snake_case, unused_variables)]
fn convert_sensor_data(sensor_data: sensor_data_ptr, sensor_type: sensor_type_t) -> SensorValue {
    console::print("TMP listener got rawtmp\n");
  22:	f240 0000 	movw	r0, #0
  26:	2118      	movs	r1, #24
  28:	f2c0 0000 	movt	r0, #0
  2c:	f7ff fffe 	bl	0 <_ZN6mynewt3sys7console5print17hd50240000fba952aE>
  30:	ad01      	add	r5, sp, #4
  32:	2600      	movs	r6, #0
/Users/Luppy/mynewt/stm32bluepill-mynewt-sensor/rust/app/src/app_sensor.rs:128
        key: &TEMP_SENSOR_KEY,  //  Sensor data key is `t`
        val: match sensor_type {
            SENSOR_TYPE_AMBIENT_TEMPERATURE_RAW => {  //  If this is raw temperature...
                //  Interpret the sensor data as a `sensor_temp_raw_data` struct that contains raw temp.
                let mut rawtempdata = fill_zero!(sensor_temp_raw_data);
                let rc = unsafe { sensor::get_temp_raw_data(sensor_data, &mut rawtempdata) };
  34:	4620      	mov	r0, r4
/Users/Luppy/mynewt/stm32bluepill-mynewt-sensor/rust/app/src/app_sensor.rs:127
                let mut rawtempdata = fill_zero!(sensor_temp_raw_data);
  36:	f88d 6008 	strb.w	r6, [sp, #8]
/Users/Luppy/mynewt/stm32bluepill-mynewt-sensor/rust/app/src/app_sensor.rs:128
                let rc = unsafe { sensor::get_temp_raw_data(sensor_data, &mut rawtempdata) };
  3a:	4629      	mov	r1, r5
/Users/Luppy/mynewt/stm32bluepill-mynewt-sensor/rust/app/src/app_sensor.rs:127
                let mut rawtempdata = fill_zero!(sensor_temp_raw_data);
  3c:	9601      	str	r6, [sp, #4]
/Users/Luppy/mynewt/stm32bluepill-mynewt-sensor/rust/app/src/app_sensor.rs:128
                let rc = unsafe { sensor::get_temp_raw_data(sensor_data, &mut rawtempdata) };
  3e:	f7ff fffe 	bl	0 <get_temp_raw_data>
/Users/Luppy/mynewt/stm32bluepill-mynewt-sensor/rust/app/src/app_sensor.rs:129
                assert_eq!(rc, 0, "rawtmp fail");
  42:	2800      	cmp	r0, #0
/Users/Luppy/mynewt/stm32bluepill-mynewt-sensor/rust/app/src/app_sensor.rs:128
                let rc = unsafe { sensor::get_temp_raw_data(sensor_data, &mut rawtempdata) };
  44:	9003      	str	r0, [sp, #12]
/Users/Luppy/mynewt/stm32bluepill-mynewt-sensor/rust/app/src/app_sensor.rs:129
                assert_eq!(rc, 0, "rawtmp fail");
  46:	f040 8115 	bne.w	274 <_ZN3app10app_sensor18handle_sensor_data17h79eb4755e3c99ccdE+0x274>
/Users/Luppy/mynewt/stm32bluepill-mynewt-sensor/rust/app/src/app_sensor.rs:131
                //  Check that the raw temperature data is valid.
                assert_ne!(rawtempdata.strd_temp_raw_is_valid, 0, "bad rawtmp");                
  4a:	f89d 0008 	ldrb.w	r0, [sp, #8]
  4e:	2800      	cmp	r0, #0
  50:	f000 814b 	beq.w	2ea <_ZN3app10app_sensor18handle_sensor_data17h79eb4755e3c99ccdE+0x2ea>
_ZN3app11app_network16send_sensor_data17h3295296628e22717E():
/Users/Luppy/mynewt/stm32bluepill-mynewt-sensor/rust/app/src/app_network.rs:51
///   {"key":"device", "value":"0102030405060708090a0b0c0d0e0f10"},
///   {"key":"t",      "value":1715}
/// ]}
/// ```
pub fn send_sensor_data(val: &SensorValue) -> MynewtResult<()>  {  //  Returns an error code upon error.
    console::print("Rust send_sensor_data\n");
  54:	f240 0000 	movw	r0, #0
  58:	2116      	movs	r1, #22
  5a:	f2c0 0000 	movt	r0, #0
_ZN3app10app_sensor19convert_sensor_data17h8de66336c1027443E():
/Users/Luppy/mynewt/stm32bluepill-mynewt-sensor/rust/app/src/app_sensor.rs:133
                //  Raw temperature data is valid.  Return it.
                SensorValueType::Uint(rawtempdata.strd_temp_raw)  //  Raw Temperature in integer (0 to 4095)
  5e:	9c01      	ldr	r4, [sp, #4]
_ZN3app11app_network16send_sensor_data17h3295296628e22717E():
/Users/Luppy/mynewt/stm32bluepill-mynewt-sensor/rust/app/src/app_network.rs:51
  60:	f7ff fffe 	bl	0 <_ZN6mynewt3sys7console5print17hd50240000fba952aE>
  64:	a812      	add	r0, sp, #72	; 0x48
/Users/Luppy/mynewt/stm32bluepill-mynewt-sensor/rust/app/src/app_network.rs:53
    //  Get a randomly-generated device ID that changes each time we restart the device.
    let device_id = sensor_network::get_device_id() ? ;
  66:	f7ff fffe 	bl	0 <_ZN6mynewt4libs14sensor_network13get_device_id17hec33904383d64aaaE>
_ZN73_$LT$core..result..Result$LT$T$C$E$GT$$u20$as$u20$core..ops..try..Try$GT$11into_result17h02dae62e41da41c2E():
/rustc/50a0defd5a93523067ef239936cc2e0755220904/src/libcore/result.rs:1283
  6a:	e9dd 1012 	ldrd	r1, r0, [sp, #72]	; 0x48
_ZN3app11app_network16send_sensor_data17h3295296628e22717E():
/Users/Luppy/mynewt/stm32bluepill-mynewt-sensor/rust/app/src/app_network.rs:53
  6e:	2901      	cmp	r1, #1
  70:	d015      	beq.n	9e <_ZN3app10app_sensor18handle_sensor_data17h79eb4755e3c99ccdE+0x9e>
  72:	e9dd 1214 	ldrd	r1, r2, [sp, #80]	; 0x50
  76:	ab04      	add	r3, sp, #16
  78:	ad12      	add	r5, sp, #72	; 0x48
  7a:	c307      	stmia	r3!, {r0, r1, r2}
/Users/Luppy/mynewt/stm32bluepill-mynewt-sensor/rust/app/src/app_network.rs:58

    //  Start composing the CoAP Server message with the sensor data in the payload.  This will 
    //  block other tasks from composing and posting CoAP messages (through a semaphore).
    //  We only have 1 memory buffer for composing CoAP messages so it needs to be locked.
    let rc = sensor_network::init_server_post( strn!(()) ) ? ;  //  `strn!(())` means use default CoAP URI in `syscfg.yml`
  7c:	f240 0100 	movw	r1, #0
  80:	f2c0 0100 	movt	r1, #0
  84:	4628      	mov	r0, r5
  86:	2201      	movs	r2, #1
  88:	f7ff fffe 	bl	0 <_ZN6mynewt4Strn3new17h77c8f169826f5a6cE>
  8c:	a80a      	add	r0, sp, #40	; 0x28
  8e:	4629      	mov	r1, r5
  90:	f7ff fffe 	bl	0 <_ZN6mynewt4libs14sensor_network16init_server_post17h1e398973dfb84ef2E>
_ZN73_$LT$core..result..Result$LT$T$C$E$GT$$u20$as$u20$core..ops..try..Try$GT$11into_result17h237714238f8e00e0E():
/rustc/50a0defd5a93523067ef239936cc2e0755220904/src/libcore/result.rs:1283
  94:	980a      	ldr	r0, [sp, #40]	; 0x28
  96:	b2c1      	uxtb	r1, r0
_ZN3app11app_network16send_sensor_data17h3295296628e22717E():
/Users/Luppy/mynewt/stm32bluepill-mynewt-sensor/rust/app/src/app_network.rs:58
  98:	2901      	cmp	r1, #1
  9a:	d112      	bne.n	c2 <_ZN3app10app_sensor18handle_sensor_data17h79eb4755e3c99ccdE+0xc2>
  9c:	980b      	ldr	r0, [sp, #44]	; 0x2c
_ZN3app10app_sensor18handle_sensor_data17h79eb4755e3c99ccdE():
/Users/Luppy/mynewt/stm32bluepill-mynewt-sensor/rust/app/src/app_sensor.rs:106
    if let Err(err) = res {  //  `if let` will assign `err` to the error code inside `res`
  9e:	3006      	adds	r0, #6
  a0:	d106      	bne.n	b0 <_ZN3app10app_sensor18handle_sensor_data17h79eb4755e3c99ccdE+0xb0>
/Users/Luppy/mynewt/stm32bluepill-mynewt-sensor/rust/app/src/app_sensor.rs:108
            console::print("TMP network not ready\n");
  a2:	f240 0000 	movw	r0, #0
  a6:	2116      	movs	r1, #22
  a8:	f2c0 0000 	movt	r0, #0
  ac:	f7ff fffe 	bl	0 <_ZN6mynewt3sys7console5print17hd50240000fba952aE>
  b0:	2000      	movs	r0, #0
/Users/Luppy/mynewt/stm32bluepill-mynewt-sensor/rust/app/src/app_sensor.rs:114
}
  b2:	b019      	add	sp, #100	; 0x64
  b4:	e8bd 8ff0 	ldmia.w	sp!, {r4, r5, r6, r7, r8, r9, sl, fp, pc}
  b8:	f06f 0001 	mvn.w	r0, #1
  bc:	b019      	add	sp, #100	; 0x64
  be:	e8bd 8ff0 	ldmia.w	sp!, {r4, r5, r6, r7, r8, r9, sl, fp, pc}
_ZN3app11app_network16send_sensor_data17h3295296628e22717E():
/Users/Luppy/mynewt/stm32bluepill-mynewt-sensor/rust/app/src/app_network.rs:61

    //  If network transport not ready, tell caller (Sensor Listener) to try again later.
    if !rc { return Err(MynewtError::SYS_EAGAIN); }
  c2:	f410 4f7f 	tst.w	r0, #65280	; 0xff00
  c6:	d0ec      	beq.n	a2 <_ZN3app10app_sensor18handle_sensor_data17h79eb4755e3c99ccdE+0xa2>
  c8:	a812      	add	r0, sp, #72	; 0x48
/Users/Luppy/mynewt/stm32bluepill-mynewt-sensor/rust/app/src/app_network.rs:65

    //  Compose the CoAP Payload using the coap!() macro.
    //  Select @json or @cbor To encode CoAP Payload in JSON or CBOR format.
    let _payload = coap!( @json {        
  ca:	2132      	movs	r1, #50	; 0x32
  cc:	f7ff fffe 	bl	0 <_ZN6mynewt4libs14sensor_network12prepare_post17h46290df74e86fc17E>
_ZN73_$LT$core..result..Result$LT$T$C$E$GT$$u20$as$u20$core..ops..try..Try$GT$11into_result17h237714238f8e00e0E():
/rustc/50a0defd5a93523067ef239936cc2e0755220904/src/libcore/result.rs:1283
  d0:	f89d 0048 	ldrb.w	r0, [sp, #72]	; 0x48
_ZN3app11app_network16send_sensor_data17h3295296628e22717E():
/Users/Luppy/mynewt/stm32bluepill-mynewt-sensor/rust/app/src/app_network.rs:65
  d4:	2801      	cmp	r0, #1
  d6:	f000 80b1 	beq.w	23c <_ZN3app10app_sensor18handle_sensor_data17h79eb4755e3c99ccdE+0x23c>
  da:	f7ff fffe 	bl	0 <json_rep_start_root_object>
  de:	f240 0a00 	movw	sl, #0
  e2:	f2c0 0a00 	movt	sl, #0
  e6:	4650      	mov	r0, sl
  e8:	f7ff fffe 	bl	0 <_ZN6mynewt8encoding12coap_context11CoapContext11to_void_ptr17h209f9eb6723e95f8E>
  ec:	f240 0100 	movw	r1, #0
  f0:	4607      	mov	r7, r0
  f2:	f2c0 0100 	movt	r1, #0
  f6:	4650      	mov	r0, sl
  f8:	2207      	movs	r2, #7
  fa:	f7ff fffe 	bl	0 <_ZN6mynewt8encoding12coap_context11CoapContext11key_to_cstr17h1b96f565c5bdc904E>
  fe:	4601      	mov	r1, r0
 100:	4638      	mov	r0, r7
 102:	f7ff fffe 	bl	0 <json_helper_set_array>
 106:	f240 0900 	movw	r9, #0
 10a:	4650      	mov	r0, sl
 10c:	f2c0 0900 	movt	r9, #0
 110:	220d      	movs	r2, #13
 112:	4649      	mov	r1, r9
 114:	f7ff fffe 	bl	0 <_ZN6mynewt8encoding12coap_context11CoapContext11key_to_cstr17h1b96f565c5bdc904E>
 118:	f7ff fffe 	bl	0 <json_helper_object_array_start_item>
 11c:	ae0a      	add	r6, sp, #40	; 0x28
 11e:	f240 0100 	movw	r1, #0
 122:	f2c0 0100 	movt	r1, #0
 126:	2204      	movs	r2, #4
 128:	4630      	mov	r0, r6
 12a:	f7ff fffe 	bl	0 <_ZN6mynewt4Strn3new17h77c8f169826f5a6cE>
 12e:	af12      	add	r7, sp, #72	; 0x48
 130:	f240 0100 	movw	r1, #0
 134:	f2c0 0100 	movt	r1, #0
 138:	2207      	movs	r2, #7
 13a:	4638      	mov	r0, r7
 13c:	f7ff fffe 	bl	0 <_ZN6mynewt4Strn3new17h77c8f169826f5a6cE>
 140:	4650      	mov	r0, sl
 142:	4631      	mov	r1, r6
 144:	463a      	mov	r2, r7
 146:	f7ff fffe 	bl	0 <_ZN6mynewt8encoding12coap_context11CoapContext20json_set_text_string17heb57dad15fd369fdE>
 14a:	ae12      	add	r6, sp, #72	; 0x48
 14c:	f240 0100 	movw	r1, #0
 150:	f2c0 0100 	movt	r1, #0
 154:	2206      	movs	r2, #6
 156:	4630      	mov	r0, r6
 158:	f7ff fffe 	bl	0 <_ZN6mynewt4Strn3new17h77c8f169826f5a6cE>
 15c:	aa04      	add	r2, sp, #16
 15e:	4650      	mov	r0, sl
 160:	4631      	mov	r1, r6
 162:	f7ff fffe 	bl	0 <_ZN6mynewt8encoding12coap_context11CoapContext20json_set_text_string17heb57dad15fd369fdE>
 166:	4650      	mov	r0, sl
 168:	4649      	mov	r1, r9
 16a:	220d      	movs	r2, #13
 16c:	f7ff fffe 	bl	0 <_ZN6mynewt8encoding12coap_context11CoapContext11key_to_cstr17h1b96f565c5bdc904E>
 170:	f7ff fffe 	bl	0 <json_helper_object_array_end_item>
 174:	4650      	mov	r0, sl
 176:	4649      	mov	r1, r9
 178:	220d      	movs	r2, #13
 17a:	f7ff fffe 	bl	0 <_ZN6mynewt8encoding12coap_context11CoapContext11key_to_cstr17h1b96f565c5bdc904E>
 17e:	f7ff fffe 	bl	0 <json_helper_object_array_start_item>
 182:	f240 0000 	movw	r0, #0
 186:	2103      	movs	r1, #3
 188:	f2c0 0000 	movt	r0, #0
 18c:	f7ff fffe 	bl	0 <_ZN75_$LT$str$u20$as$u20$mynewt..encoding..coap_context..ToBytesOptionalNull$GT$21to_bytes_optional_nul17h0d8f6093cb511724E>
 190:	4606      	mov	r6, r0
 192:	f240 0000 	movw	r0, #0
 196:	f2c0 0000 	movt	r0, #0
 19a:	460f      	mov	r7, r1
 19c:	f7ff fffe 	bl	0 <_ZN84_$LT$mynewt..Strn$u20$as$u20$mynewt..encoding..coap_context..ToBytesOptionalNull$GT$21to_bytes_optional_nul17h7603c80f8d18bea1E>
 1a0:	4605      	mov	r5, r0
 1a2:	4650      	mov	r0, sl
 1a4:	468b      	mov	fp, r1
 1a6:	f7ff fffe 	bl	0 <_ZN6mynewt8encoding12coap_context11CoapContext11to_void_ptr17h209f9eb6723e95f8E>
 1aa:	4680      	mov	r8, r0
 1ac:	4650      	mov	r0, sl
 1ae:	4631      	mov	r1, r6
 1b0:	463a      	mov	r2, r7
 1b2:	f7ff fffe 	bl	0 <_ZN6mynewt8encoding12coap_context11CoapContext11key_to_cstr17h1b96f565c5bdc904E>
 1b6:	4606      	mov	r6, r0
 1b8:	4650      	mov	r0, sl
 1ba:	4629      	mov	r1, r5
 1bc:	465a      	mov	r2, fp
 1be:	f7ff fffe 	bl	0 <_ZN6mynewt8encoding12coap_context11CoapContext13value_to_cstr17h5e53ea86d8c21a39E>
 1c2:	4602      	mov	r2, r0
 1c4:	4640      	mov	r0, r8
 1c6:	4631      	mov	r1, r6
 1c8:	f7ff fffe 	bl	0 <json_helper_set_text_string>
 1cc:	f240 0000 	movw	r0, #0
 1d0:	2105      	movs	r1, #5
 1d2:	f2c0 0000 	movt	r0, #0
 1d6:	f7ff fffe 	bl	0 <_ZN75_$LT$str$u20$as$u20$mynewt..encoding..coap_context..ToBytesOptionalNull$GT$21to_bytes_optional_nul17h0d8f6093cb511724E>
 1da:	4605      	mov	r5, r0
 1dc:	4650      	mov	r0, sl
 1de:	460e      	mov	r6, r1
 1e0:	f7ff fffe 	bl	0 <_ZN6mynewt8encoding12coap_context11CoapContext11to_void_ptr17h209f9eb6723e95f8E>
 1e4:	4607      	mov	r7, r0
 1e6:	4650      	mov	r0, sl
 1e8:	4629      	mov	r1, r5
 1ea:	4632      	mov	r2, r6
 1ec:	f7ff fffe 	bl	0 <_ZN6mynewt8encoding12coap_context11CoapContext11key_to_cstr17h1b96f565c5bdc904E>
 1f0:	4601      	mov	r1, r0
 1f2:	4638      	mov	r0, r7
 1f4:	4622      	mov	r2, r4
 1f6:	2300      	movs	r3, #0
 1f8:	f7ff fffe 	bl	0 <json_helper_set_int>
 1fc:	4650      	mov	r0, sl
 1fe:	4649      	mov	r1, r9
 200:	220d      	movs	r2, #13
 202:	f7ff fffe 	bl	0 <_ZN6mynewt8encoding12coap_context11CoapContext11key_to_cstr17h1b96f565c5bdc904E>
 206:	f7ff fffe 	bl	0 <json_helper_object_array_end_item>
 20a:	4650      	mov	r0, sl
 20c:	f7ff fffe 	bl	0 <_ZN6mynewt8encoding12coap_context11CoapContext11to_void_ptr17h209f9eb6723e95f8E>
 210:	f240 0100 	movw	r1, #0
 214:	4604      	mov	r4, r0
 216:	4650      	mov	r0, sl
 218:	f2c0 0100 	movt	r1, #0
 21c:	2207      	movs	r2, #7
 21e:	f7ff fffe 	bl	0 <_ZN6mynewt8encoding12coap_context11CoapContext11key_to_cstr17h1b96f565c5bdc904E>
 222:	4601      	mov	r1, r0
 224:	4620      	mov	r0, r4
 226:	f7ff fffe 	bl	0 <json_helper_close_array>
 22a:	f7ff fffe 	bl	0 <json_rep_end_root_object>
 22e:	a812      	add	r0, sp, #72	; 0x48
/Users/Luppy/mynewt/stm32bluepill-mynewt-sensor/rust/app/src/app_network.rs:80
    });

    //  Post the CoAP Server message to the CoAP Background Task for transmission.  After posting the
    //  message to the background task, we release a semaphore that unblocks other requests
    //  to compose and post CoAP messages.
    sensor_network::do_server_post() ? ;
 230:	f7ff fffe 	bl	0 <_ZN6mynewt4libs14sensor_network14do_server_post17h1a375a94de2766a8E>
_ZN73_$LT$core..result..Result$LT$T$C$E$GT$$u20$as$u20$core..ops..try..Try$GT$11into_result17h237714238f8e00e0E():
/rustc/50a0defd5a93523067ef239936cc2e0755220904/src/libcore/result.rs:1283
 234:	f89d 0048 	ldrb.w	r0, [sp, #72]	; 0x48
_ZN3app11app_network16send_sensor_data17h3295296628e22717E():
/Users/Luppy/mynewt/stm32bluepill-mynewt-sensor/rust/app/src/app_network.rs:80
 238:	2801      	cmp	r0, #1
 23a:	d104      	bne.n	246 <_ZN3app10app_sensor18handle_sensor_data17h79eb4755e3c99ccdE+0x246>
_ZN3app10app_sensor18handle_sensor_data17h79eb4755e3c99ccdE():
 23c:	9813      	ldr	r0, [sp, #76]	; 0x4c
/Users/Luppy/mynewt/stm32bluepill-mynewt-sensor/rust/app/src/app_sensor.rs:106
    if let Err(err) = res {  //  `if let` will assign `err` to the error code inside `res`
 23e:	3006      	adds	r0, #6
 240:	f43f af2f 	beq.w	a2 <_ZN3app10app_sensor18handle_sensor_data17h79eb4755e3c99ccdE+0xa2>
 244:	e734      	b.n	fffffe6c <.Lanon.3ed011473997af99b525cde47c9eaaac.48+0xfffffe4c>
_ZN3app11app_network16send_sensor_data17h3295296628e22717E():
/Users/Luppy/mynewt/stm32bluepill-mynewt-sensor/rust/app/src/app_network.rs:83

    //  Display the URL with the random device ID for viewing the sensor data.
    console::print("NET view your sensor at \nhttps://blue-pill-geolocate.appspot.com?device=");
 246:	f240 0000 	movw	r0, #0
 24a:	2148      	movs	r1, #72	; 0x48
 24c:	f2c0 0000 	movt	r0, #0
 250:	f7ff fffe 	bl	0 <_ZN6mynewt3sys7console5print17hd50240000fba952aE>
 254:	a804      	add	r0, sp, #16
/Users/Luppy/mynewt/stm32bluepill-mynewt-sensor/rust/app/src/app_network.rs:84
    console::print_strn(&device_id); console::print("\n");
 256:	f7ff fffe 	bl	0 <_ZN6mynewt3sys7console10print_strn17hbdb822de1c27ec12E>
 25a:	f240 0000 	movw	r0, #0
 25e:	2101      	movs	r1, #1
 260:	f2c0 0000 	movt	r0, #0
 264:	e722      	b.n	fffffe48 <.Lanon.3ed011473997af99b525cde47c9eaaac.48+0xfffffe28>
_ZN3app10app_sensor18handle_sensor_data17h79eb4755e3c99ccdE():
/Users/Luppy/mynewt/stm32bluepill-mynewt-sensor/rust/app/src/app_sensor.rs:92
    assert!(!sensor.is_null(), "null sensor");
 266:	f240 0000 	movw	r0, #0
 26a:	f2c0 0000 	movt	r0, #0
 26e:	f7ff fffe 	bl	0 <_ZN4core9panicking5panic17h53ca63c6ac6312f8E>
 272:	defe      	udf	#254	; 0xfe
 274:	a803      	add	r0, sp, #12
_ZN3app10app_sensor19convert_sensor_data17h8de66336c1027443E():
/Users/Luppy/mynewt/stm32bluepill-mynewt-sensor/rust/app/src/app_sensor.rs:129
                assert_eq!(rc, 0, "rawtmp fail");
 276:	9010      	str	r0, [sp, #64]	; 0x40
 278:	f240 0000 	movw	r0, #0
_ZN4core3fmt9Arguments6new_v117ha99294a9defa432aE():
/rustc/50a0defd5a93523067ef239936cc2e0755220904/src/libcore/fmt/mod.rs:316
 27c:	9617      	str	r6, [sp, #92]	; 0x5c
_ZN3app10app_sensor19convert_sensor_data17h8de66336c1027443E():
/Users/Luppy/mynewt/stm32bluepill-mynewt-sensor/rust/app/src/app_sensor.rs:129
 27e:	f2c0 0000 	movt	r0, #0
 282:	a911      	add	r1, sp, #68	; 0x44
 284:	9011      	str	r0, [sp, #68]	; 0x44
_ZN4core3fmt9Arguments6new_v117ha99294a9defa432aE():
/rustc/50a0defd5a93523067ef239936cc2e0755220904/src/libcore/fmt/mod.rs:316
 286:	f240 0000 	movw	r0, #0
 28a:	f2c0 0000 	movt	r0, #0
 28e:	9016      	str	r0, [sp, #88]	; 0x58
 290:	2001      	movs	r0, #1
 292:	e9cd 6614 	strd	r6, r6, [sp, #80]	; 0x50
 296:	9013      	str	r0, [sp, #76]	; 0x4c
 298:	f240 0000 	movw	r0, #0
 29c:	f2c0 0000 	movt	r0, #0
 2a0:	9012      	str	r0, [sp, #72]	; 0x48
_ZN3app10app_sensor19convert_sensor_data17h8de66336c1027443E():
/Users/Luppy/mynewt/stm32bluepill-mynewt-sensor/rust/app/src/app_sensor.rs:129
 2a2:	f240 0000 	movw	r0, #0
 2a6:	f2c0 0000 	movt	r0, #0
 2aa:	900f      	str	r0, [sp, #60]	; 0x3c
 2ac:	a812      	add	r0, sp, #72	; 0x48
 2ae:	900e      	str	r0, [sp, #56]	; 0x38
 2b0:	f240 0000 	movw	r0, #0
 2b4:	f2c0 0000 	movt	r0, #0
 2b8:	900d      	str	r0, [sp, #52]	; 0x34
 2ba:	e9cd 010b 	strd	r0, r1, [sp, #44]	; 0x2c
 2be:	a810      	add	r0, sp, #64	; 0x40
 2c0:	a90a      	add	r1, sp, #40	; 0x28
 2c2:	900a      	str	r0, [sp, #40]	; 0x28
 2c4:	2003      	movs	r0, #3
_ZN4core3fmt9Arguments6new_v117ha99294a9defa432aE():
/rustc/50a0defd5a93523067ef239936cc2e0755220904/src/libcore/fmt/mod.rs:316
 2c6:	9009      	str	r0, [sp, #36]	; 0x24
 2c8:	e9cd 6107 	strd	r6, r1, [sp, #28]
_ZN3app10app_sensor19convert_sensor_data17h8de66336c1027443E():
/Users/Luppy/mynewt/stm32bluepill-mynewt-sensor/rust/app/src/app_sensor.rs:129
 2cc:	f240 0100 	movw	r1, #0
_ZN4core3fmt9Arguments6new_v117ha99294a9defa432aE():
/rustc/50a0defd5a93523067ef239936cc2e0755220904/src/libcore/fmt/mod.rs:316
 2d0:	e9cd 0605 	strd	r0, r6, [sp, #20]
 2d4:	f240 0000 	movw	r0, #0
 2d8:	f2c0 0000 	movt	r0, #0
_ZN3app10app_sensor19convert_sensor_data17h8de66336c1027443E():
/Users/Luppy/mynewt/stm32bluepill-mynewt-sensor/rust/app/src/app_sensor.rs:129
 2dc:	f2c0 0100 	movt	r1, #0
_ZN4core3fmt9Arguments6new_v117ha99294a9defa432aE():
/rustc/50a0defd5a93523067ef239936cc2e0755220904/src/libcore/fmt/mod.rs:316
 2e0:	9004      	str	r0, [sp, #16]
 2e2:	a804      	add	r0, sp, #16
_ZN3app10app_sensor19convert_sensor_data17h8de66336c1027443E():
/Users/Luppy/mynewt/stm32bluepill-mynewt-sensor/rust/app/src/app_sensor.rs:129
 2e4:	f7ff fffe 	bl	0 <_ZN4core9panicking9panic_fmt17h6b4d8e87b0965449E>
 2e8:	defe      	udf	#254	; 0xfe
 2ea:	1d28      	adds	r0, r5, #4
/Users/Luppy/mynewt/stm32bluepill-mynewt-sensor/rust/app/src/app_sensor.rs:131
                assert_ne!(rawtempdata.strd_temp_raw_is_valid, 0, "bad rawtmp");                
 2ec:	9010      	str	r0, [sp, #64]	; 0x40
 2ee:	f240 0000 	movw	r0, #0
_ZN4core3fmt9Arguments6new_v117ha99294a9defa432aE():
/rustc/50a0defd5a93523067ef239936cc2e0755220904/src/libcore/fmt/mod.rs:316
 2f2:	f240 0100 	movw	r1, #0
_ZN3app10app_sensor19convert_sensor_data17h8de66336c1027443E():
/Users/Luppy/mynewt/stm32bluepill-mynewt-sensor/rust/app/src/app_sensor.rs:131
 2f6:	f2c0 0000 	movt	r0, #0
_ZN4core3fmt9Arguments6new_v117ha99294a9defa432aE():
/rustc/50a0defd5a93523067ef239936cc2e0755220904/src/libcore/fmt/mod.rs:316
 2fa:	f2c0 0100 	movt	r1, #0
_ZN3app10app_sensor19convert_sensor_data17h8de66336c1027443E():
/Users/Luppy/mynewt/stm32bluepill-mynewt-sensor/rust/app/src/app_sensor.rs:131
 2fe:	9011      	str	r0, [sp, #68]	; 0x44
 300:	2000      	movs	r0, #0
_ZN4core3fmt9Arguments6new_v117ha99294a9defa432aE():
/rustc/50a0defd5a93523067ef239936cc2e0755220904/src/libcore/fmt/mod.rs:316
 302:	9017      	str	r0, [sp, #92]	; 0x5c
 304:	aa11      	add	r2, sp, #68	; 0x44
 306:	9116      	str	r1, [sp, #88]	; 0x58
 308:	2101      	movs	r1, #1
 30a:	e9cd 0014 	strd	r0, r0, [sp, #80]	; 0x50
 30e:	9113      	str	r1, [sp, #76]	; 0x4c
 310:	f240 0100 	movw	r1, #0
 314:	f2c0 0100 	movt	r1, #0
 318:	9112      	str	r1, [sp, #72]	; 0x48
_ZN3app10app_sensor19convert_sensor_data17h8de66336c1027443E():
/Users/Luppy/mynewt/stm32bluepill-mynewt-sensor/rust/app/src/app_sensor.rs:131
 31a:	f240 0100 	movw	r1, #0
 31e:	f2c0 0100 	movt	r1, #0
 322:	910f      	str	r1, [sp, #60]	; 0x3c
 324:	a912      	add	r1, sp, #72	; 0x48
 326:	910e      	str	r1, [sp, #56]	; 0x38
 328:	f240 0100 	movw	r1, #0
 32c:	f2c0 0100 	movt	r1, #0
 330:	910d      	str	r1, [sp, #52]	; 0x34
 332:	e9cd 120b 	strd	r1, r2, [sp, #44]	; 0x2c
 336:	a910      	add	r1, sp, #64	; 0x40
 338:	aa0a      	add	r2, sp, #40	; 0x28
 33a:	910a      	str	r1, [sp, #40]	; 0x28
 33c:	2103      	movs	r1, #3
_ZN4core3fmt9Arguments6new_v117ha99294a9defa432aE():
/rustc/50a0defd5a93523067ef239936cc2e0755220904/src/libcore/fmt/mod.rs:316
 33e:	9109      	str	r1, [sp, #36]	; 0x24
 340:	e9cd 0207 	strd	r0, r2, [sp, #28]
 344:	e9cd 1005 	strd	r1, r0, [sp, #20]
 348:	f240 0000 	movw	r0, #0
 34c:	f2c0 0000 	movt	r0, #0
_ZN3app10app_sensor19convert_sensor_data17h8de66336c1027443E():
/Users/Luppy/mynewt/stm32bluepill-mynewt-sensor/rust/app/src/app_sensor.rs:131
 350:	f240 0100 	movw	r1, #0
_ZN4core3fmt9Arguments6new_v117ha99294a9defa432aE():
/rustc/50a0defd5a93523067ef239936cc2e0755220904/src/libcore/fmt/mod.rs:316
 354:	9004      	str	r0, [sp, #16]
 356:	a804      	add	r0, sp, #16
_ZN3app10app_sensor19convert_sensor_data17h8de66336c1027443E():
/Users/Luppy/mynewt/stm32bluepill-mynewt-sensor/rust/app/src/app_sensor.rs:131
 358:	f2c0 0100 	movt	r1, #0
 35c:	f7ff fffe 	bl	0 <_ZN4core9panicking9panic_fmt17h6b4d8e87b0965449E>
 360:	defe      	udf	#254	; 0xfe

Disassembly of section .text.main:

00000000 <main>:
main():
/Users/Luppy/mynewt/stm32bluepill-mynewt-sensor/rust/app/src/lib.rs:49
};

///  Main program that initialises the sensor, network driver and starts reading and sending sensor data in the background.
///  main() will be called at Mynewt startup. It replaces the C version of the main() function.
#[no_mangle]                 //  Don't mangle the name "main"
extern "C" fn main() -> ! {  //  Declare extern "C" because it will be called by Mynewt
   0:	b08a      	sub	sp, #40	; 0x28
/Users/Luppy/mynewt/stm32bluepill-mynewt-sensor/rust/app/src/lib.rs:55
    //  Initialise the Mynewt packages and Blue Pill internal temperature sensor driver.
    //  Start the CoAP / OIC Background Task to transmit CoAP messages.  Any startup
    //  functions defined in pkg.yml of our custom drivers and libraries will be called by 
    //  sysinit().  Here are the startup functions consolidated by Mynewt:
    //  bin/targets/bluepill_my_sensor/generated/src/bluepill_my_sensor-sysinit-app.c
    mynewt::sysinit();
   2:	f7ff fffe 	bl	0 <_ZN6mynewt7sysinit17h090e57ed8a26d343E>
/Users/Luppy/mynewt/stm32bluepill-mynewt-sensor/rust/app/src/lib.rs:58

    //  Start the Server Transport for sending sensor data to CoAP Server over NB-IoT.
    sensor_network::start_server_transport()
   6:	f7ff fffe 	bl	0 <_ZN6mynewt4libs14sensor_network22start_server_transport17hf15d3358d69d9782E>
_ZN4core6result19Result$LT$T$C$E$GT$6expect17h227a6c964a897fdfE():
/rustc/50a0defd5a93523067ef239936cc2e0755220904/src/libcore/result.rs:826
   a:	2801      	cmp	r0, #1
   c:	d16c      	bne.n	e8 <main+0xe8>
_ZN3app10app_sensor21start_sensor_listener17h1497147758d31eaaE():
/Users/Luppy/mynewt/stm32bluepill-mynewt-sensor/rust/app/src/app_sensor.rs:50
    console::print("Rust TMP poll\n");
   e:	f240 0000 	movw	r0, #0
  12:	210e      	movs	r1, #14
  14:	f2c0 0000 	movt	r0, #0
  18:	f7ff fffe 	bl	0 <_ZN6mynewt3sys7console5print17hd50240000fba952aE>
/Users/Luppy/mynewt/stm32bluepill-mynewt-sensor/rust/app/src/app_sensor.rs:53
    let sensor = sensor::mgr_find_next_bydevname(&SENSOR_DEVICE, core::ptr::null_mut()) ? ;
  1c:	f240 0100 	movw	r1, #0
  20:	a804      	add	r0, sp, #16
  22:	f2c0 0100 	movt	r1, #0
  26:	2200      	movs	r2, #0
  28:	f7ff fffe 	bl	0 <_ZN6mynewt2hw6sensor8bindings23mgr_find_next_bydevname17hf4e8778610b4d919E>
_ZN73_$LT$core..result..Result$LT$T$C$E$GT$$u20$as$u20$core..ops..try..Try$GT$11into_result17h288bc0a9b4fcc104E():
/rustc/50a0defd5a93523067ef239936cc2e0755220904/src/libcore/result.rs:1283
  2c:	e9dd 0404 	ldrd	r0, r4, [sp, #16]
_ZN3app10app_sensor21start_sensor_listener17h1497147758d31eaaE():
/Users/Luppy/mynewt/stm32bluepill-mynewt-sensor/rust/app/src/app_sensor.rs:53
  30:	2801      	cmp	r0, #1
  32:	d103      	bne.n	3c <main+0x3c>
main():
  34:	4621      	mov	r1, r4
_ZN4core6result19Result$LT$T$C$E$GT$6expect17h227a6c964a897fdfE():
/rustc/50a0defd5a93523067ef239936cc2e0755220904/src/libcore/result.rs:826
  36:	2901      	cmp	r1, #1
  38:	d03a      	beq.n	b0 <main+0xb0>
  3a:	e065      	b.n	108 <main+0x108>
_ZN3app10app_sensor21start_sensor_listener17h1497147758d31eaaE():
/Users/Luppy/mynewt/stm32bluepill-mynewt-sensor/rust/app/src/app_sensor.rs:54
    assert!(!sensor.is_null(), "no sensor");
  3c:	2c00      	cmp	r4, #0
  3e:	d05b      	beq.n	f8 <main+0xf8>
_ZN3app10app_sensor14standby_wakeup17hbee703fd89b0a4dfE():
/Users/Luppy/mynewt/stm32bluepill-mynewt-sensor/rust/app/src/app_sensor.rs:145

extern {
    fn power_standby_wakeup() -> i32;
}
fn standby_wakeup() -> bool {
    if unsafe { power_standby_wakeup() == 0 } { false }
  40:	f7ff fffe 	bl	0 <power_standby_wakeup>
_ZN3app10app_sensor21start_sensor_listener17h1497147758d31eaaE():
/Users/Luppy/mynewt/stm32bluepill-mynewt-sensor/rust/app/src/app_sensor.rs:57
    if !standby_wakeup() {
  44:	b1a8      	cbz	r0, 2e <main+0x2e>
/Users/Luppy/mynewt/stm32bluepill-mynewt-sensor/rust/app/src/app_sensor.rs:75
            sensor::as_untyped(handle_sensor_data),  //  Handler function
  46:	f240 0000 	movw	r0, #0
  4a:	f2c0 0000 	movt	r0, #0
  4e:	f7ff fffe 	bl	0 <_ZN6mynewt2hw6sensor10as_untyped17hc52911d8f92952d2E>
  52:	2200      	movs	r2, #0
  54:	f04f 31ff 	mov.w	r1, #4294967295	; 0xffffffff
/Users/Luppy/mynewt/stm32bluepill-mynewt-sensor/rust/app/src/app_sensor.rs:72
        sensor::read(
  58:	e9cd 0200 	strd	r0, r2, [sp]
  5c:	4620      	mov	r0, r4
  5e:	f04f 6280 	mov.w	r2, #67108864	; 0x4000000
  62:	2300      	movs	r3, #0
  64:	9102      	str	r1, [sp, #8]
  66:	f7ff fffe 	bl	0 <_ZN6mynewt2hw6sensor8bindings4read17he7d98afe9c6fd247E>
  6a:	4601      	mov	r1, r0
_ZN4core6result19Result$LT$T$C$E$GT$6expect17h227a6c964a897fdfE():
/rustc/50a0defd5a93523067ef239936cc2e0755220904/src/libcore/result.rs:826
  6c:	2901      	cmp	r1, #1
  6e:	d01f      	beq.n	b0 <main+0xb0>
  70:	e04a      	b.n	108 <main+0x108>
_ZN3app10app_sensor21start_sensor_listener17h1497147758d31eaaE():
/Users/Luppy/mynewt/stm32bluepill-mynewt-sensor/rust/app/src/app_sensor.rs:59
        sensor::set_poll_rate_ms(&SENSOR_DEVICE, SENSOR_POLL_TIME) ? ;
  72:	f240 0000 	movw	r0, #0
  76:	f644 6120 	movw	r1, #20000	; 0x4e20
  7a:	f2c0 0000 	movt	r0, #0
  7e:	f7ff fffe 	bl	0 <_ZN6mynewt2hw6sensor8bindings16set_poll_rate_ms17he698cfb7bf5b51c7E>
  82:	2801      	cmp	r0, #1
  84:	d13f      	bne.n	106 <main+0x106>
/Users/Luppy/mynewt/stm32bluepill-mynewt-sensor/rust/app/src/app_sensor.rs:64
            sl_func       : sensor::as_untyped(handle_sensor_data),  //  Listener function
  86:	f240 0000 	movw	r0, #0
  8a:	f2c0 0000 	movt	r0, #0
  8e:	f7ff fffe 	bl	0 <_ZN6mynewt2hw6sensor10as_untyped17hc52911d8f92952d2E>
  92:	2100      	movs	r1, #0
  94:	f04f 6280 	mov.w	r2, #67108864	; 0x4000000
/Users/Luppy/mynewt/stm32bluepill-mynewt-sensor/rust/app/src/app_sensor.rs:69
        sensor::register_listener(sensor, listener) ? ;  //  `?` means in case of error, return error now.
  98:	9105      	str	r1, [sp, #20]
  9a:	9204      	str	r2, [sp, #16]
  9c:	9108      	str	r1, [sp, #32]
  9e:	e9cd 0106 	strd	r0, r1, [sp, #24]
  a2:	a904      	add	r1, sp, #16
  a4:	4620      	mov	r0, r4
  a6:	f7ff fffe 	bl	0 <_ZN6mynewt2hw6sensor17register_listener17h3d76972915cb34a9E>
  aa:	4601      	mov	r1, r0
_ZN4core6result19Result$LT$T$C$E$GT$6expect17h227a6c964a897fdfE():
/rustc/50a0defd5a93523067ef239936cc2e0755220904/src/libcore/result.rs:826
  ac:	2901      	cmp	r1, #1
  ae:	d12b      	bne.n	108 <main+0x108>
main():
  b0:	ac04      	add	r4, sp, #16
/Users/Luppy/mynewt/stm32bluepill-mynewt-sensor/rust/app/src/lib.rs:69
        .expect("TMP fail");

    //  Main event loop
    loop {                            //  Loop forever...
        os::eventq_run(               //  Processing events...
            os::eventq_dflt_get()     //  From default event queue.
  b2:	4620      	mov	r0, r4
  b4:	f7ff fffe 	bl	0 <_ZN6mynewt6kernel2os15eventq_dflt_get17h48c73d6bff98f8a5E>
_ZN4core6result19Result$LT$T$C$E$GT$6expect17heae390a828292d8bE():
/rustc/50a0defd5a93523067ef239936cc2e0755220904/src/libcore/result.rs:826
  b8:	9804      	ldr	r0, [sp, #16]
  ba:	2801      	cmp	r0, #1
  bc:	d00c      	beq.n	d8 <main+0xd8>
  be:	9805      	ldr	r0, [sp, #20]
main():
/Users/Luppy/mynewt/stm32bluepill-mynewt-sensor/rust/app/src/lib.rs:68
        os::eventq_run(               //  Processing events...
  c0:	f7ff fffe 	bl	0 <_ZN6mynewt6kernel2os10eventq_run17h9c2e732b43da5431E>
_ZN4core6result19Result$LT$T$C$E$GT$6expect17h227a6c964a897fdfE():
/rustc/50a0defd5a93523067ef239936cc2e0755220904/src/libcore/result.rs:826
  c4:	2801      	cmp	r0, #1
  c6:	d0f4      	beq.n	b2 <main+0xb2>
main():
  c8:	4601      	mov	r1, r0
_ZN4core6result19Result$LT$T$C$E$GT$6expect17h227a6c964a897fdfE():
/rustc/50a0defd5a93523067ef239936cc2e0755220904/src/libcore/result.rs:827
  ca:	f240 0000 	movw	r0, #0
  ce:	f2c0 0000 	movt	r0, #0
  d2:	f7ff fffe 	bl	0 <main>
  d6:	defe      	udf	#254	; 0xfe
_ZN4core6result19Result$LT$T$C$E$GT$6expect17heae390a828292d8bE():
/rustc/50a0defd5a93523067ef239936cc2e0755220904/src/libcore/result.rs:827
  d8:	9905      	ldr	r1, [sp, #20]
  da:	f240 0000 	movw	r0, #0
  de:	f2c0 0000 	movt	r0, #0
  e2:	f7ff fffe 	bl	0 <main>
  e6:	defe      	udf	#254	; 0xfe
main():
  e8:	4601      	mov	r1, r0
_ZN4core6result19Result$LT$T$C$E$GT$6expect17h227a6c964a897fdfE():
/rustc/50a0defd5a93523067ef239936cc2e0755220904/src/libcore/result.rs:827
  ea:	f240 0000 	movw	r0, #0
  ee:	f2c0 0000 	movt	r0, #0
  f2:	f7ff fffe 	bl	0 <main>
  f6:	defe      	udf	#254	; 0xfe
_ZN3app10app_sensor21start_sensor_listener17h1497147758d31eaaE():
/Users/Luppy/mynewt/stm32bluepill-mynewt-sensor/rust/app/src/app_sensor.rs:54
    assert!(!sensor.is_null(), "no sensor");
  f8:	f240 0000 	movw	r0, #0
  fc:	f2c0 0000 	movt	r0, #0
 100:	f7ff fffe 	bl	0 <_ZN4core9panicking5panic17h53ca63c6ac6312f8E>
 104:	defe      	udf	#254	; 0xfe
main():
 106:	4601      	mov	r1, r0
_ZN4core6result19Result$LT$T$C$E$GT$6expect17h227a6c964a897fdfE():
/rustc/50a0defd5a93523067ef239936cc2e0755220904/src/libcore/result.rs:827
 108:	f240 0000 	movw	r0, #0
 10c:	f2c0 0000 	movt	r0, #0
 110:	f7ff fffe 	bl	0 <main>
 114:	defe      	udf	#254	; 0xfe

Disassembly of section .text.rust_begin_unwind:

00000000 <rust_begin_unwind>:
rust_begin_unwind():
/Users/Luppy/mynewt/stm32bluepill-mynewt-sensor/rust/app/src/lib.rs:78
    //  Never comes here
}

///  This function is called on panic, like an assertion failure. We display the filename and line number and pause in the debugger. From https://os.phil-opp.com/freestanding-rust-binary/
#[panic_handler]
fn panic(info: &PanicInfo) -> ! {
   0:	4604      	mov	r4, r0
/Users/Luppy/mynewt/stm32bluepill-mynewt-sensor/rust/app/src/lib.rs:80
    //  Display the filename and line number to the Semihosting Console.
    console::print("panic ");
   2:	f240 0000 	movw	r0, #0
   6:	f2c0 0000 	movt	r0, #0
   a:	2106      	movs	r1, #6
   c:	f7ff fffe 	bl	0 <_ZN6mynewt3sys7console5print17hd50240000fba952aE>
/Users/Luppy/mynewt/stm32bluepill-mynewt-sensor/rust/app/src/lib.rs:81
    if let Some(location) = info.location() {
  10:	4620      	mov	r0, r4
  12:	f7ff fffe 	bl	0 <_ZN4core5panic9PanicInfo8location17h5226165d8771f8a2E>
  16:	b318      	cbz	r0, 60 <rust_begin_unwind+0x60>
  18:	4604      	mov	r4, r0
/Users/Luppy/mynewt/stm32bluepill-mynewt-sensor/rust/app/src/lib.rs:82
        let file = location.file();
  1a:	f7ff fffe 	bl	0 <_ZN4core5panic8Location4file17h94cc6af18de736c4E>
  1e:	4605      	mov	r5, r0
/Users/Luppy/mynewt/stm32bluepill-mynewt-sensor/rust/app/src/lib.rs:83
        let line = location.line();
  20:	4620      	mov	r0, r4
/Users/Luppy/mynewt/stm32bluepill-mynewt-sensor/rust/app/src/lib.rs:82
        let file = location.file();
  22:	460e      	mov	r6, r1
/Users/Luppy/mynewt/stm32bluepill-mynewt-sensor/rust/app/src/lib.rs:83
        let line = location.line();
  24:	f7ff fffe 	bl	0 <_ZN4core5panic8Location4line17h3ffc63f14d0a6636E>
  28:	4604      	mov	r4, r0
/Users/Luppy/mynewt/stm32bluepill-mynewt-sensor/rust/app/src/lib.rs:84
        console::print("at ");        console::buffer(&file);
  2a:	f240 0000 	movw	r0, #0
  2e:	f2c0 0000 	movt	r0, #0
  32:	2103      	movs	r1, #3
  34:	f7ff fffe 	bl	0 <_ZN6mynewt3sys7console5print17hd50240000fba952aE>
  38:	4628      	mov	r0, r5
  3a:	4631      	mov	r1, r6
  3c:	f7ff fffe 	bl	0 <_ZN6mynewt3sys7console6buffer17hd7d5926ef191360aE>
/Users/Luppy/mynewt/stm32bluepill-mynewt-sensor/rust/app/src/lib.rs:85
        console::print(" line 0x");   console::printhex(line as u8);  //  TODO: Print in decimal not hex. Allow more than 255 lines.
  40:	f240 0000 	movw	r0, #0
  44:	2108      	movs	r1, #8
  46:	f2c0 0000 	movt	r0, #0
  4a:	f7ff fffe 	bl	0 <_ZN6mynewt3sys7console5print17hd50240000fba952aE>
  4e:	4620      	mov	r0, r4
  50:	f7ff fffe 	bl	0 <_ZN6mynewt3sys7console8printhex17hc6ef47fda2338553E>
/Users/Luppy/mynewt/stm32bluepill-mynewt-sensor/rust/app/src/lib.rs:86
        console::print("\n");         console::flush();
  54:	f240 0000 	movw	r0, #0
  58:	2101      	movs	r1, #1
  5a:	f2c0 0000 	movt	r0, #0
  5e:	e004      	b.n	c <rust_begin_unwind+0xc>
/Users/Luppy/mynewt/stm32bluepill-mynewt-sensor/rust/app/src/lib.rs:88
    } else {
        console::print("no loc\n");   console::flush();
  60:	f240 0000 	movw	r0, #0
  64:	2107      	movs	r1, #7
  66:	f2c0 0000 	movt	r0, #0
  6a:	f7ff fffe 	bl	0 <_ZN6mynewt3sys7console5print17hd50240000fba952aE>
  6e:	f7ff fffe 	bl	0 <_ZN6mynewt3sys7console5flush17h5c6729c8c5c7d57eE>
_ZN8cortex_m3asm4bkpt17h756c5667fd4cf09cE():
/Users/Luppy/.cargo/registry/src/github.com-1ecc6299db9ec823/cortex-m-0.6.0/src/asm.rs:19
        () => unsafe {
            extern "C" {
                fn __bkpt();
            }

            __bkpt();
  72:	f7ff fffe 	bl	0 <__bkpt>
rust_begin_unwind():
/Users/Luppy/mynewt/stm32bluepill-mynewt-sensor/rust/app/src/lib.rs:93
    }
    //  Pause in the debugger.
    bkpt();
    //  Loop forever so that device won't restart.
    loop {}
  76:	e7fe      	b.n	76 <rust_begin_unwind+0x76>
arm-none-eabi-objdump: rust.metadata.bin: File format not recognized
arm-none-eabi-objdump: app-166b740040228dfb.app.3iangkfu-cgu.0.rcgu.bc.z: File format not recognized
