In archive target/thumbv7em-none-eabihf/debug/libapp.rlib:

app-f1b560250e7c1912.1100txxf3br1xj2k.rcgu.o:     file format elf32-littlearm

SYMBOL TABLE:
00000000 l    df *ABS*	00000000 1100txxf3br1xj2k
00001fac l       .debug_str	00000000 
00002898 l       .debug_str	00000000 
0000289c l       .debug_str	00000000 
000028a4 l       .debug_str	00000000 
000028ad l       .debug_str	00000000 
000028b4 l       .debug_str	00000000 
000028ba l       .debug_str	00000000 
000028c0 l       .debug_str	00000000 
000028c5 l       .debug_str	00000000 
000028cd l       .debug_str	00000000 
000028d2 l       .debug_str	00000000 
00002942 l       .debug_str	00000000 
00002978 l       .debug_str	00000000 
000029aa l       .debug_str	00000000 
000029ae l       .debug_str	00000000 
000029b3 l       .debug_str	00000000 
000029b5 l       .debug_str	00000000 
000029b7 l       .debug_str	00000000 
000029bc l       .debug_str	00000000 
00000000 l       .debug_str	00000000 
00000041 l       .debug_str	00000000 
00000055 l       .debug_str	00000000 
00000085 l       .debug_str	00000000 
0000008a l       .debug_str	00000000 
0000008e l       .debug_str	00000000 
00000091 l       .debug_str	00000000 
0000009c l       .debug_str	00000000 
000000a7 l       .debug_str	00000000 
000000ae l       .debug_str	00000000 
000000b5 l       .debug_str	00000000 
000000bc l       .debug_str	00000000 
000000c0 l       .debug_str	00000000 
000000c8 l       .debug_str	00000000 
000000d3 l       .debug_str	00000000 
000000de l       .debug_str	00000000 
000000eb l       .debug_str	00000000 
000000f6 l       .debug_str	00000000 
000000fe l       .debug_str	00000000 
00000109 l       .debug_str	00000000 
00000114 l       .debug_str	00000000 
0000011e l       .debug_str	00000000 
00000129 l       .debug_str	00000000 
00000134 l       .debug_str	00000000 
00000141 l       .debug_str	00000000 
0000014d l       .debug_str	00000000 
0000015a l       .debug_str	00000000 
00000168 l       .debug_str	00000000 
00000172 l       .debug_str	00000000 
0000017f l       .debug_str	00000000 
0000018b l       .debug_str	00000000 
0000018f l       .debug_str	00000000 
00000192 l       .debug_str	00000000 
00000196 l       .debug_str	00000000 
0000019d l       .debug_str	00000000 
000001a0 l       .debug_str	00000000 
000001aa l       .debug_str	00000000 
000001b5 l       .debug_str	00000000 
000001be l       .debug_str	00000000 
000001c9 l       .debug_str	00000000 
000001d5 l       .debug_str	00000000 
000001d9 l       .debug_str	00000000 
000001e2 l       .debug_str	00000000 
000001e9 l       .debug_str	00000000 
000001f1 l       .debug_str	00000000 
000001f9 l       .debug_str	00000000 
00000203 l       .debug_str	00000000 
00000209 l       .debug_str	00000000 
00000210 l       .debug_str	00000000 
0000021a l       .debug_str	00000000 
00000221 l       .debug_str	00000000 
00000228 l       .debug_str	00000000 
0000022d l       .debug_str	00000000 
00000244 l       .debug_str	00000000 
00000271 l       .debug_str	00000000 
00000273 l       .debug_str	00000000 
00000278 l       .debug_str	00000000 
000002ad l       .debug_str	00000000 
000002b3 l       .debug_str	00000000 
000002b9 l       .debug_str	00000000 
000002c8 l       .debug_str	00000000 
000002d8 l       .debug_str	00000000 
000002e8 l       .debug_str	00000000 
000002f0 l       .debug_str	00000000 
00000319 l       .debug_str	00000000 
00000377 l       .debug_str	00000000 
000003dd l       .debug_str	00000000 
000003e4 l       .debug_str	00000000 
000003ec l       .debug_str	00000000 
000003f5 l       .debug_str	00000000 
00000413 l       .debug_str	00000000 
00000423 l       .debug_str	00000000 
00000431 l       .debug_str	00000000 
0000043c l       .debug_str	00000000 
00000449 l       .debug_str	00000000 
00000458 l       .debug_str	00000000 
00000462 l       .debug_str	00000000 
00000478 l       .debug_str	00000000 
00000482 l       .debug_str	00000000 
0000048b l       .debug_str	00000000 
00000494 l       .debug_str	00000000 
000004ba l       .debug_str	00000000 
000004d0 l       .debug_str	00000000 
000004db l       .debug_str	00000000 
000004f1 l       .debug_str	00000000 
000004f9 l       .debug_str	00000000 
0000051a l       .debug_str	00000000 
00000523 l       .debug_str	00000000 
0000052c l       .debug_str	00000000 
00000537 l       .debug_str	00000000 
00000541 l       .debug_str	00000000 
00000547 l       .debug_str	00000000 
0000057f l       .debug_str	00000000 
000005bf l       .debug_str	00000000 
000005c6 l       .debug_str	00000000 
000005ce l       .debug_str	00000000 
000005e5 l       .debug_str	00000000 
000005ee l       .debug_str	00000000 
00000610 l       .debug_str	00000000 
0000061a l       .debug_str	00000000 
00000641 l       .debug_str	00000000 
00000659 l       .debug_str	00000000 
00000663 l       .debug_str	00000000 
00000686 l       .debug_str	00000000 
00000688 l       .debug_str	00000000 
0000068c l       .debug_str	00000000 
000006d4 l       .debug_str	00000000 
000006dd l       .debug_str	00000000 
0000071d l       .debug_str	00000000 
00000764 l       .debug_str	00000000 
00000767 l       .debug_str	00000000 
000007d6 l       .debug_str	00000000 
00000801 l       .debug_str	00000000 
00000829 l       .debug_str	00000000 
0000082c l       .debug_str	00000000 
00000833 l       .debug_str	00000000 
0000083c l       .debug_str	00000000 
00000842 l       .debug_str	00000000 
0000084e l       .debug_str	00000000 
00000856 l       .debug_str	00000000 
000008b0 l       .debug_str	00000000 
00000912 l       .debug_str	00000000 
0000091d l       .debug_str	00000000 
00000964 l       .debug_str	00000000 
000009b3 l       .debug_str	00000000 
000009bd l       .debug_str	00000000 
000009fa l       .debug_str	00000000 
00000a3f l       .debug_str	00000000 
00000a48 l       .debug_str	00000000 
00000a58 l       .debug_str	00000000 
00000a60 l       .debug_str	00000000 
00000ab5 l       .debug_str	00000000 
00000b12 l       .debug_str	00000000 
00000b1e l       .debug_str	00000000 
00000b27 l       .debug_str	00000000 
00000b33 l       .debug_str	00000000 
00000b3f l       .debug_str	00000000 
00000b48 l       .debug_str	00000000 
00000b50 l       .debug_str	00000000 
00000b58 l       .debug_str	00000000 
00000b6d l       .debug_str	00000000 
00000b74 l       .debug_str	00000000 
00000b94 l       .debug_str	00000000 
00000b9b l       .debug_str	00000000 
00000ba3 l       .debug_str	00000000 
00000bad l       .debug_str	00000000 
00000bc4 l       .debug_str	00000000 
00000bc9 l       .debug_str	00000000 
00000bd1 l       .debug_str	00000000 
00000bda l       .debug_str	00000000 
00000be3 l       .debug_str	00000000 
00000bec l       .debug_str	00000000 
00000bf4 l       .debug_str	00000000 
00000bf8 l       .debug_str	00000000 
00000bff l       .debug_str	00000000 
00000c0b l       .debug_str	00000000 
00000c16 l       .debug_str	00000000 
00000c1e l       .debug_str	00000000 
00000c26 l       .debug_str	00000000 
00000ca2 l       .debug_str	00000000 
00000d26 l       .debug_str	00000000 
00000e22 l       .debug_str	00000000 
00000f26 l       .debug_str	00000000 
00000f34 l       .debug_str	00000000 
00000f3f l       .debug_str	00000000 
00000f49 l       .debug_str	00000000 
00000f5d l       .debug_str	00000000 
00000f68 l       .debug_str	00000000 
00000f96 l       .debug_str	00000000 
00001011 l       .debug_str	00000000 
00001094 l       .debug_str	00000000 
000010a2 l       .debug_str	00000000 
00001101 l       .debug_str	00000000 
00001168 l       .debug_str	00000000 
0000117e l       .debug_str	00000000 
0000118e l       .debug_str	00000000 
0000119d l       .debug_str	00000000 
000011a1 l       .debug_str	00000000 
000011a8 l       .debug_str	00000000 
000011ae l       .debug_str	00000000 
000011b2 l       .debug_str	00000000 
000011b8 l       .debug_str	00000000 
000011be l       .debug_str	00000000 
000011ca l       .debug_str	00000000 
000011d2 l       .debug_str	00000000 
000011d8 l       .debug_str	00000000 
000011e0 l       .debug_str	00000000 
000011e6 l       .debug_str	00000000 
00001209 l       .debug_str	00000000 
00001219 l       .debug_str	00000000 
0000124c l       .debug_str	00000000 
0000128c l       .debug_str	00000000 
000012d4 l       .debug_str	00000000 
000012d8 l       .debug_str	00000000 
000012de l       .debug_str	00000000 
000012e4 l       .debug_str	00000000 
000012ea l       .debug_str	00000000 
000012fc l       .debug_str	00000000 
00001331 l       .debug_str	00000000 
00001373 l       .debug_str	00000000 
000013bd l       .debug_str	00000000 
000013c1 l       .debug_str	00000000 
000013c7 l       .debug_str	00000000 
000013cd l       .debug_str	00000000 
000013d3 l       .debug_str	00000000 
000013e5 l       .debug_str	00000000 
0000141a l       .debug_str	00000000 
0000145c l       .debug_str	00000000 
000014a6 l       .debug_str	00000000 
000014aa l       .debug_str	00000000 
000014b0 l       .debug_str	00000000 
000014b6 l       .debug_str	00000000 
000014bc l       .debug_str	00000000 
000014c2 l       .debug_str	00000000 
000014d3 l       .debug_str	00000000 
00001507 l       .debug_str	00000000 
00001548 l       .debug_str	00000000 
00001591 l       .debug_str	00000000 
00001596 l       .debug_str	00000000 
0000159b l       .debug_str	00000000 
0000159f l       .debug_str	00000000 
000015a5 l       .debug_str	00000000 
000015ab l       .debug_str	00000000 
000015b1 l       .debug_str	00000000 
000015c2 l       .debug_str	00000000 
000015f6 l       .debug_str	00000000 
00001637 l       .debug_str	00000000 
00001680 l       .debug_str	00000000 
00001684 l       .debug_str	00000000 
0000168d l       .debug_str	00000000 
0000169e l       .debug_str	00000000 
000016d2 l       .debug_str	00000000 
00001713 l       .debug_str	00000000 
0000175c l       .debug_str	00000000 
00001761 l       .debug_str	00000000 
00001765 l       .debug_str	00000000 
0000176e l       .debug_str	00000000 
00001775 l       .debug_str	00000000 
0000177d l       .debug_str	00000000 
0000178f l       .debug_str	00000000 
000017c4 l       .debug_str	00000000 
00001806 l       .debug_str	00000000 
00001850 l       .debug_str	00000000 
00001854 l       .debug_str	00000000 
0000185a l       .debug_str	00000000 
00001860 l       .debug_str	00000000 
00001866 l       .debug_str	00000000 
0000186c l       .debug_str	00000000 
00001874 l       .debug_str	00000000 
00001882 l       .debug_str	00000000 
00001891 l       .debug_str	00000000 
000018a2 l       .debug_str	00000000 
000018ad l       .debug_str	00000000 
000018b8 l       .debug_str	00000000 
000018c3 l       .debug_str	00000000 
000018ca l       .debug_str	00000000 
000018ed l       .debug_str	00000000 
000018ff l       .debug_str	00000000 
00001934 l       .debug_str	00000000 
00001976 l       .debug_str	00000000 
000019c0 l       .debug_str	00000000 
000019c4 l       .debug_str	00000000 
000019ce l       .debug_str	00000000 
000019e0 l       .debug_str	00000000 
00001a15 l       .debug_str	00000000 
00001a57 l       .debug_str	00000000 
00001aa1 l       .debug_str	00000000 
00001aa6 l       .debug_str	00000000 
00001ab0 l       .debug_str	00000000 
00001ac2 l       .debug_str	00000000 
00001af7 l       .debug_str	00000000 
00001b39 l       .debug_str	00000000 
00001b83 l       .debug_str	00000000 
00001b97 l       .debug_str	00000000 
00001b9b l       .debug_str	00000000 
00001ba9 l       .debug_str	00000000 
00001bb9 l       .debug_str	00000000 
00001bc2 l       .debug_str	00000000 
00001bcd l       .debug_str	00000000 
00001bdc l       .debug_str	00000000 
00001bf1 l       .debug_str	00000000 
00001c22 l       .debug_str	00000000 
00001cbf l       .debug_str	00000000 
00001d64 l       .debug_str	00000000 
00001d6f l       .debug_str	00000000 
00001d78 l       .debug_str	00000000 
00001d99 l       .debug_str	00000000 
00001dac l       .debug_str	00000000 
00001de2 l       .debug_str	00000000 
00001e65 l       .debug_str	00000000 
00001ef0 l       .debug_str	00000000 
00001f0c l       .debug_str	00000000 
00001f58 l       .debug_str	00000000 
00001fc9 l       .debug_str	00000000 
00001fdd l       .debug_str	00000000 
00002029 l       .debug_str	00000000 
0000207d l       .debug_str	00000000 
00002093 l       .debug_str	00000000 
000020a7 l       .debug_str	00000000 
000020ee l       .debug_str	00000000 
0000213d l       .debug_str	00000000 
00002146 l       .debug_str	00000000 
00002154 l       .debug_str	00000000 
00002185 l       .debug_str	00000000 
0000218b l       .debug_str	00000000 
00002193 l       .debug_str	00000000 
0000219a l       .debug_str	00000000 
000021a2 l       .debug_str	00000000 
000021ad l       .debug_str	00000000 
000021b5 l       .debug_str	00000000 
000021c4 l       .debug_str	00000000 
000021c8 l       .debug_str	00000000 
000021d3 l       .debug_str	00000000 
000021df l       .debug_str	00000000 
000021ea l       .debug_str	00000000 
000021fb l       .debug_str	00000000 
00002201 l       .debug_str	00000000 
00002209 l       .debug_str	00000000 
00002210 l       .debug_str	00000000 
0000221a l       .debug_str	00000000 
00002222 l       .debug_str	00000000 
0000222a l       .debug_str	00000000 
0000224c l       .debug_str	00000000 
00002257 l       .debug_str	00000000 
00002263 l       .debug_str	00000000 
0000226b l       .debug_str	00000000 
00002274 l       .debug_str	00000000 
0000227f l       .debug_str	00000000 
00002286 l       .debug_str	00000000 
00002291 l       .debug_str	00000000 
0000229c l       .debug_str	00000000 
000022ac l       .debug_str	00000000 
000022bc l       .debug_str	00000000 
000022cb l       .debug_str	00000000 
000022d3 l       .debug_str	00000000 
000022da l       .debug_str	00000000 
000022e2 l       .debug_str	00000000 
00002300 l       .debug_str	00000000 
00002310 l       .debug_str	00000000 
00002343 l       .debug_str	00000000 
00002358 l       .debug_str	00000000 
00002361 l       .debug_str	00000000 
000023be l       .debug_str	00000000 
00002423 l       .debug_str	00000000 
0000242d l       .debug_str	00000000 
0000243d l       .debug_str	00000000 
00002452 l       .debug_str	00000000 
0000245a l       .debug_str	00000000 
000024be l       .debug_str	00000000 
0000252a l       .debug_str	00000000 
00002531 l       .debug_str	00000000 
00002539 l       .debug_str	00000000 
00002557 l       .debug_str	00000000 
00002567 l       .debug_str	00000000 
0000259a l       .debug_str	00000000 
000025af l       .debug_str	00000000 
000025c2 l       .debug_str	00000000 
000025d7 l       .debug_str	00000000 
000025de l       .debug_str	00000000 
000025f3 l       .debug_str	00000000 
0000261d l       .debug_str	00000000 
0000268d l       .debug_str	00000000 
000026e0 l       .debug_str	00000000 
0000272f l       .debug_str	00000000 
00002734 l       .debug_str	00000000 
000027a4 l       .debug_str	00000000 
000027d2 l       .debug_str	00000000 
000027fc l       .debug_str	00000000 
0000286c l       .debug_str	00000000 
00000000 l    d  .text._ZN4core6result19Result$LT$T$C$E$GT$6expect17h2fff601934191de6E	00000000 .text._ZN4core6result19Result$LT$T$C$E$GT$6expect17h2fff601934191de6E
00000000 l    d  .text._ZN73_$LT$core..result..Result$LT$T$C$E$GT$$u20$as$u20$core..ops..try..Try$GT$10from_error17h01f54dfdd396312fE	00000000 .text._ZN73_$LT$core..result..Result$LT$T$C$E$GT$$u20$as$u20$core..ops..try..Try$GT$10from_error17h01f54dfdd396312fE
00000000 l    d  .text._ZN73_$LT$core..result..Result$LT$T$C$E$GT$$u20$as$u20$core..ops..try..Try$GT$11into_result17h3db1ad3c3d82dc49E	00000000 .text._ZN73_$LT$core..result..Result$LT$T$C$E$GT$$u20$as$u20$core..ops..try..Try$GT$11into_result17h3db1ad3c3d82dc49E
00000000 l    d  .text._ZN73_$LT$core..result..Result$LT$T$C$E$GT$$u20$as$u20$core..ops..try..Try$GT$11into_result17h91dd7052b6c9bbf8E	00000000 .text._ZN73_$LT$core..result..Result$LT$T$C$E$GT$$u20$as$u20$core..ops..try..Try$GT$11into_result17h91dd7052b6c9bbf8E
00000000 l    d  .text._ZN73_$LT$core..result..Result$LT$T$C$E$GT$$u20$as$u20$core..ops..try..Try$GT$11into_result17hb671b49d1f1f4fa3E	00000000 .text._ZN73_$LT$core..result..Result$LT$T$C$E$GT$$u20$as$u20$core..ops..try..Try$GT$11into_result17hb671b49d1f1f4fa3E
00000000 l    d  .text._ZN73_$LT$core..result..Result$LT$T$C$E$GT$$u20$as$u20$core..ops..try..Try$GT$11into_result17hfc1ab05964340f6bE	00000000 .text._ZN73_$LT$core..result..Result$LT$T$C$E$GT$$u20$as$u20$core..ops..try..Try$GT$11into_result17hfc1ab05964340f6bE
00000000 l    d  .debug_loc	00000000 .debug_loc
00000000 l    d  .debug_abbrev	00000000 .debug_abbrev
00000000 l    d  .debug_info	00000000 .debug_info
00000000 l    d  .debug_ranges	00000000 .debug_ranges
00000000 l    d  .debug_frame	00000000 .debug_frame
00000000 l    d  .debug_line	00000000 .debug_line
00000000         *UND*	00000000 _ZN4core6result13unwrap_failed17hd7a3ccac7d40646dE
00000000 g     F .text._ZN4core6result19Result$LT$T$C$E$GT$6expect17h2fff601934191de6E	0000005a _ZN4core6result19Result$LT$T$C$E$GT$6expect17h2fff601934191de6E
00000000 g     F .text._ZN73_$LT$core..result..Result$LT$T$C$E$GT$$u20$as$u20$core..ops..try..Try$GT$10from_error17h01f54dfdd396312fE	00000012 _ZN73_$LT$core..result..Result$LT$T$C$E$GT$$u20$as$u20$core..ops..try..Try$GT$10from_error17h01f54dfdd396312fE
00000000 g     F .text._ZN73_$LT$core..result..Result$LT$T$C$E$GT$$u20$as$u20$core..ops..try..Try$GT$11into_result17h3db1ad3c3d82dc49E	0000001a _ZN73_$LT$core..result..Result$LT$T$C$E$GT$$u20$as$u20$core..ops..try..Try$GT$11into_result17h3db1ad3c3d82dc49E
00000000 g     F .text._ZN73_$LT$core..result..Result$LT$T$C$E$GT$$u20$as$u20$core..ops..try..Try$GT$11into_result17h91dd7052b6c9bbf8E	0000001a _ZN73_$LT$core..result..Result$LT$T$C$E$GT$$u20$as$u20$core..ops..try..Try$GT$11into_result17h91dd7052b6c9bbf8E
00000000 g     F .text._ZN73_$LT$core..result..Result$LT$T$C$E$GT$$u20$as$u20$core..ops..try..Try$GT$11into_result17hb671b49d1f1f4fa3E	0000000e _ZN73_$LT$core..result..Result$LT$T$C$E$GT$$u20$as$u20$core..ops..try..Try$GT$11into_result17hb671b49d1f1f4fa3E
00000000 g     F .text._ZN73_$LT$core..result..Result$LT$T$C$E$GT$$u20$as$u20$core..ops..try..Try$GT$11into_result17hfc1ab05964340f6bE	00000028 _ZN73_$LT$core..result..Result$LT$T$C$E$GT$$u20$as$u20$core..ops..try..Try$GT$11into_result17hfc1ab05964340f6bE



Disassembly of section .text._ZN4core6result19Result$LT$T$C$E$GT$6expect17h2fff601934191de6E:

00000000 <_ZN4core6result19Result$LT$T$C$E$GT$6expect17h2fff601934191de6E>:
_ZN4core6result19Result$LT$T$C$E$GT$6expect17h2fff601934191de6E():
/rustc/50a0defd5a93523067ef239936cc2e0755220904/src/libcore/result.rs:824
   0:	b580      	push	{r7, lr}
   2:	b08a      	sub	sp, #40	; 0x28
   4:	4613      	mov	r3, r2
   6:	468c      	mov	ip, r1
   8:	4686      	mov	lr, r0
   a:	9106      	str	r1, [sp, #24]
   c:	9207      	str	r2, [sp, #28]
/rustc/50a0defd5a93523067ef239936cc2e0755220904/src/libcore/result.rs:826
   e:	6800      	ldr	r0, [r0, #0]
  10:	2800      	cmp	r0, #0
  12:	9305      	str	r3, [sp, #20]
  14:	f8cd c010 	str.w	ip, [sp, #16]
  18:	f8cd e00c 	str.w	lr, [sp, #12]
  1c:	9002      	str	r0, [sp, #8]
  1e:	d005      	beq.n	2c <_ZN4core6result19Result$LT$T$C$E$GT$6expect17h2fff601934191de6E+0x2c>
  20:	e7ff      	b.n	22 <_ZN4core6result19Result$LT$T$C$E$GT$6expect17h2fff601934191de6E+0x22>
  22:	9802      	ldr	r0, [sp, #8]
  24:	2801      	cmp	r0, #1
  26:	d00b      	beq.n	40 <_ZN4core6result19Result$LT$T$C$E$GT$6expect17h2fff601934191de6E+0x40>
  28:	e7ff      	b.n	2a <_ZN4core6result19Result$LT$T$C$E$GT$6expect17h2fff601934191de6E+0x2a>
/rustc/50a0defd5a93523067ef239936cc2e0755220904/src/libcore/result.rs:829
  2a:	defe      	udf	#254	; 0xfe
/rustc/50a0defd5a93523067ef239936cc2e0755220904/src/libcore/result.rs:826
  2c:	9803      	ldr	r0, [sp, #12]
  2e:	6841      	ldr	r1, [r0, #4]
  30:	9108      	str	r1, [sp, #32]
  32:	9808      	ldr	r0, [sp, #32]
/rustc/50a0defd5a93523067ef239936cc2e0755220904/src/libcore/result.rs:829
  34:	9903      	ldr	r1, [sp, #12]
  36:	680a      	ldr	r2, [r1, #0]
  38:	2a00      	cmp	r2, #0
  3a:	9001      	str	r0, [sp, #4]
  3c:	d009      	beq.n	52 <_ZN4core6result19Result$LT$T$C$E$GT$6expect17h2fff601934191de6E+0x52>
  3e:	e00b      	b.n	58 <_ZN4core6result19Result$LT$T$C$E$GT$6expect17h2fff601934191de6E+0x58>
/rustc/50a0defd5a93523067ef239936cc2e0755220904/src/libcore/result.rs:827
  40:	9803      	ldr	r0, [sp, #12]
  42:	6841      	ldr	r1, [r0, #4]
  44:	9109      	str	r1, [sp, #36]	; 0x24
  46:	9806      	ldr	r0, [sp, #24]
  48:	9907      	ldr	r1, [sp, #28]
  4a:	9a09      	ldr	r2, [sp, #36]	; 0x24
  4c:	f7ff fffe 	bl	0 <_ZN4core6result13unwrap_failed17hd7a3ccac7d40646dE>
  50:	defe      	udf	#254	; 0xfe
/rustc/50a0defd5a93523067ef239936cc2e0755220904/src/libcore/result.rs:829
  52:	9801      	ldr	r0, [sp, #4]
  54:	b00a      	add	sp, #40	; 0x28
  56:	bd80      	pop	{r7, pc}
  58:	e7fb      	b.n	52 <_ZN4core6result19Result$LT$T$C$E$GT$6expect17h2fff601934191de6E+0x52>

Disassembly of section .text._ZN73_$LT$core..result..Result$LT$T$C$E$GT$$u20$as$u20$core..ops..try..Try$GT$10from_error17h01f54dfdd396312fE:

00000000 <_ZN73_$LT$core..result..Result$LT$T$C$E$GT$$u20$as$u20$core..ops..try..Try$GT$10from_error17h01f54dfdd396312fE>:
_ZN73_$LT$core..result..Result$LT$T$C$E$GT$$u20$as$u20$core..ops..try..Try$GT$10from_error17h01f54dfdd396312fE():
/rustc/50a0defd5a93523067ef239936cc2e0755220904/src/libcore/result.rs:1292
   0:	b083      	sub	sp, #12
   2:	4601      	mov	r1, r0
   4:	9001      	str	r0, [sp, #4]
/rustc/50a0defd5a93523067ef239936cc2e0755220904/src/libcore/result.rs:1293
   6:	9801      	ldr	r0, [sp, #4]
   8:	9002      	str	r0, [sp, #8]
/rustc/50a0defd5a93523067ef239936cc2e0755220904/src/libcore/result.rs:1294
   a:	9802      	ldr	r0, [sp, #8]
   c:	9100      	str	r1, [sp, #0]
   e:	b003      	add	sp, #12
  10:	4770      	bx	lr

Disassembly of section .text._ZN73_$LT$core..result..Result$LT$T$C$E$GT$$u20$as$u20$core..ops..try..Try$GT$11into_result17h3db1ad3c3d82dc49E:

00000000 <_ZN73_$LT$core..result..Result$LT$T$C$E$GT$$u20$as$u20$core..ops..try..Try$GT$11into_result17h3db1ad3c3d82dc49E>:
_ZN73_$LT$core..result..Result$LT$T$C$E$GT$$u20$as$u20$core..ops..try..Try$GT$11into_result17h3db1ad3c3d82dc49E():
/rustc/50a0defd5a93523067ef239936cc2e0755220904/src/libcore/result.rs:1282
   0:	b082      	sub	sp, #8
   2:	460a      	mov	r2, r1
   4:	4603      	mov	r3, r0
/rustc/50a0defd5a93523067ef239936cc2e0755220904/src/libcore/result.rs:1283
   6:	f8d1 c000 	ldr.w	ip, [r1]
   a:	6849      	ldr	r1, [r1, #4]
   c:	6041      	str	r1, [r0, #4]
   e:	f8c0 c000 	str.w	ip, [r0]
/rustc/50a0defd5a93523067ef239936cc2e0755220904/src/libcore/result.rs:1284
  12:	9201      	str	r2, [sp, #4]
  14:	9300      	str	r3, [sp, #0]
  16:	b002      	add	sp, #8
  18:	4770      	bx	lr

Disassembly of section .text._ZN73_$LT$core..result..Result$LT$T$C$E$GT$$u20$as$u20$core..ops..try..Try$GT$11into_result17h91dd7052b6c9bbf8E:

00000000 <_ZN73_$LT$core..result..Result$LT$T$C$E$GT$$u20$as$u20$core..ops..try..Try$GT$11into_result17h91dd7052b6c9bbf8E>:
_ZN73_$LT$core..result..Result$LT$T$C$E$GT$$u20$as$u20$core..ops..try..Try$GT$11into_result17h91dd7052b6c9bbf8E():
/rustc/50a0defd5a93523067ef239936cc2e0755220904/src/libcore/result.rs:1282
   0:	b082      	sub	sp, #8
   2:	460a      	mov	r2, r1
   4:	4603      	mov	r3, r0
/rustc/50a0defd5a93523067ef239936cc2e0755220904/src/libcore/result.rs:1283
   6:	f8d1 c000 	ldr.w	ip, [r1]
   a:	6849      	ldr	r1, [r1, #4]
   c:	6041      	str	r1, [r0, #4]
   e:	f8c0 c000 	str.w	ip, [r0]
/rustc/50a0defd5a93523067ef239936cc2e0755220904/src/libcore/result.rs:1284
  12:	9201      	str	r2, [sp, #4]
  14:	9300      	str	r3, [sp, #0]
  16:	b002      	add	sp, #8
  18:	4770      	bx	lr

Disassembly of section .text._ZN73_$LT$core..result..Result$LT$T$C$E$GT$$u20$as$u20$core..ops..try..Try$GT$11into_result17hb671b49d1f1f4fa3E:

00000000 <_ZN73_$LT$core..result..Result$LT$T$C$E$GT$$u20$as$u20$core..ops..try..Try$GT$11into_result17hb671b49d1f1f4fa3E>:
_ZN73_$LT$core..result..Result$LT$T$C$E$GT$$u20$as$u20$core..ops..try..Try$GT$11into_result17hb671b49d1f1f4fa3E():
/rustc/50a0defd5a93523067ef239936cc2e0755220904/src/libcore/result.rs:1282
   0:	b082      	sub	sp, #8
   2:	4601      	mov	r1, r0
   4:	9001      	str	r0, [sp, #4]
/rustc/50a0defd5a93523067ef239936cc2e0755220904/src/libcore/result.rs:1283
   6:	9801      	ldr	r0, [sp, #4]
/rustc/50a0defd5a93523067ef239936cc2e0755220904/src/libcore/result.rs:1284
   8:	9100      	str	r1, [sp, #0]
   a:	b002      	add	sp, #8
   c:	4770      	bx	lr

Disassembly of section .text._ZN73_$LT$core..result..Result$LT$T$C$E$GT$$u20$as$u20$core..ops..try..Try$GT$11into_result17hfc1ab05964340f6bE:

00000000 <_ZN73_$LT$core..result..Result$LT$T$C$E$GT$$u20$as$u20$core..ops..try..Try$GT$11into_result17hfc1ab05964340f6bE>:
_ZN73_$LT$core..result..Result$LT$T$C$E$GT$$u20$as$u20$core..ops..try..Try$GT$11into_result17hfc1ab05964340f6bE():
/rustc/50a0defd5a93523067ef239936cc2e0755220904/src/libcore/result.rs:1282
   0:	b510      	push	{r4, lr}
   2:	b082      	sub	sp, #8
   4:	460a      	mov	r2, r1
   6:	4603      	mov	r3, r0
/rustc/50a0defd5a93523067ef239936cc2e0755220904/src/libcore/result.rs:1283
   8:	f8d1 c000 	ldr.w	ip, [r1]
   c:	f8d1 e004 	ldr.w	lr, [r1, #4]
  10:	688c      	ldr	r4, [r1, #8]
  12:	68c9      	ldr	r1, [r1, #12]
  14:	60c1      	str	r1, [r0, #12]
  16:	6084      	str	r4, [r0, #8]
  18:	f8c0 e004 	str.w	lr, [r0, #4]
  1c:	f8c0 c000 	str.w	ip, [r0]
/rustc/50a0defd5a93523067ef239936cc2e0755220904/src/libcore/result.rs:1284
  20:	9201      	str	r2, [sp, #4]
  22:	9300      	str	r3, [sp, #0]
  24:	b002      	add	sp, #8
  26:	bd10      	pop	{r4, pc}

app-f1b560250e7c1912.17tgp8w0b8msekkh.rcgu.o:     file format elf32-littlearm

SYMBOL TABLE:
00000000 l    df *ABS*	00000000 17tgp8w0b8msekkh
000002bb l       .debug_str	00000000 
000002ce l       .debug_str	00000000 
000002d3 l       .debug_str	00000000 
000002d9 l       .debug_str	00000000 
000002dd l       .debug_str	00000000 
000002ed l       .debug_str	00000000 
000002f9 l       .debug_str	00000000 
0000031a l       .debug_str	00000000 
00000324 l       .debug_str	00000000 
00000328 l       .debug_str	00000000 
0000032b l       .debug_str	00000000 
00000330 l       .debug_str	00000000 
00000339 l       .debug_str	00000000 
00000347 l       .debug_str	00000000 
00000350 l       .debug_str	00000000 
0000035b l       .debug_str	00000000 
0000036d l       .debug_str	00000000 
00000381 l       .debug_str	00000000 
00000387 l       .debug_str	00000000 
00000000 l       .debug_str	00000000 
00000041 l       .debug_str	00000000 
00000055 l       .debug_str	00000000 
00000085 l       .debug_str	00000000 
0000008c l       .debug_str	00000000 
00000093 l       .debug_str	00000000 
00000097 l       .debug_str	00000000 
0000009f l       .debug_str	00000000 
000000aa l       .debug_str	00000000 
000000b5 l       .debug_str	00000000 
000000c2 l       .debug_str	00000000 
000000cd l       .debug_str	00000000 
000000d5 l       .debug_str	00000000 
000000e0 l       .debug_str	00000000 
000000eb l       .debug_str	00000000 
000000f5 l       .debug_str	00000000 
00000100 l       .debug_str	00000000 
0000010b l       .debug_str	00000000 
00000118 l       .debug_str	00000000 
00000124 l       .debug_str	00000000 
00000131 l       .debug_str	00000000 
0000013f l       .debug_str	00000000 
00000149 l       .debug_str	00000000 
00000156 l       .debug_str	00000000 
00000162 l       .debug_str	00000000 
00000167 l       .debug_str	00000000 
0000016b l       .debug_str	00000000 
00000174 l       .debug_str	00000000 
000001b5 l       .debug_str	00000000 
000001be l       .debug_str	00000000 
000001c7 l       .debug_str	00000000 
000001ca l       .debug_str	00000000 
000001d4 l       .debug_str	00000000 
000001db l       .debug_str	00000000 
000001e1 l       .debug_str	00000000 
000001e7 l       .debug_str	00000000 
000001ec l       .debug_str	00000000 
000001f1 l       .debug_str	00000000 
000001f5 l       .debug_str	00000000 
00000201 l       .debug_str	00000000 
0000023c l       .debug_str	00000000 
0000024d l       .debug_str	00000000 
00000251 l       .debug_str	00000000 
00000254 l       .debug_str	00000000 
00000258 l       .debug_str	00000000 
0000025b l       .debug_str	00000000 
0000025d l       .debug_str	00000000 
0000025f l       .debug_str	00000000 
00000263 l       .debug_str	00000000 
0000028b l       .debug_str	00000000 
0000028f l       .debug_str	00000000 
00000292 l       .debug_str	00000000 
00000299 l       .debug_str	00000000 
0000029d l       .debug_str	00000000 
000002a1 l       .debug_str	00000000 
000002a9 l       .debug_str	00000000 
000002ae l       .debug_str	00000000 
000002b6 l       .debug_str	00000000 
000002c9 l       .debug_str	00000000 
00000000 l     O .rodata..Lanon.38b6a0482bdf16d8b3aff532564e3b37.0	00000016 .Lanon.38b6a0482bdf16d8b3aff532564e3b37.0
00000000 l     O .rodata..Lanon.38b6a0482bdf16d8b3aff532564e3b37.1	00000001 .Lanon.38b6a0482bdf16d8b3aff532564e3b37.1
00000000 l     O .rodata..Lanon.38b6a0482bdf16d8b3aff532564e3b37.12	0000000d .Lanon.38b6a0482bdf16d8b3aff532564e3b37.12
00000000 l     O .rodata.cst4	00000004 .Lanon.38b6a0482bdf16d8b3aff532564e3b37.14
00000000 l     O .rodata..Lanon.38b6a0482bdf16d8b3aff532564e3b37.15	00000007 .Lanon.38b6a0482bdf16d8b3aff532564e3b37.15
00000000 l     O .rodata..Lanon.38b6a0482bdf16d8b3aff532564e3b37.17	00000006 .Lanon.38b6a0482bdf16d8b3aff532564e3b37.17
00000000 l     O .rodata..Lanon.38b6a0482bdf16d8b3aff532564e3b37.26	00000003 .Lanon.38b6a0482bdf16d8b3aff532564e3b37.26
00000000 l     O .rodata..Lanon.38b6a0482bdf16d8b3aff532564e3b37.28	00000005 .Lanon.38b6a0482bdf16d8b3aff532564e3b37.28
00000000 l     O .rodata..Lanon.38b6a0482bdf16d8b3aff532564e3b37.34	00000048 .Lanon.38b6a0482bdf16d8b3aff532564e3b37.34
00000000 l     O .rodata..Lanon.38b6a0482bdf16d8b3aff532564e3b37.35	00000001 .Lanon.38b6a0482bdf16d8b3aff532564e3b37.35
00000000 l     O .rodata..Lanon.38b6a0482bdf16d8b3aff532564e3b37.6	00000007 .Lanon.38b6a0482bdf16d8b3aff532564e3b37.6
00000000 l    d  .text._ZN3app11app_network16send_sensor_data17h6637fc0fb2624307E	00000000 .text._ZN3app11app_network16send_sensor_data17h6637fc0fb2624307E
00000000 l    d  .debug_abbrev	00000000 .debug_abbrev
00000000 l    d  .debug_info	00000000 .debug_info
00000000 l    d  .debug_ranges	00000000 .debug_ranges
00000000 l    d  .debug_frame	00000000 .debug_frame
00000000 l    d  .debug_line	00000000 .debug_line
00000000 g     F .text._ZN3app11app_network16send_sensor_data17h6637fc0fb2624307E	000004fa .hidden _ZN3app11app_network16send_sensor_data17h6637fc0fb2624307E
00000000         *UND*	00000000 _ZN50_$LT$T$u20$as$u20$core..convert..From$LT$T$GT$$GT$4from17h74fdd30c8f097361E
00000000         *UND*	00000000 _ZN6mynewt3sys7console10print_strn17h0b2f02e2f9142b3fE
00000000         *UND*	00000000 _ZN6mynewt3sys7console5print17hb1682fdf35bd72e2E
00000000         *UND*	00000000 _ZN6mynewt4Strn3new17hb866d05aacc8292bE
00000000         *UND*	00000000 _ZN6mynewt4libs14sensor_network12prepare_post17h43168bc7920fca20E
00000000         *UND*	00000000 _ZN6mynewt4libs14sensor_network13get_device_id17hae084fb84eb86c74E
00000000         *UND*	00000000 _ZN6mynewt4libs14sensor_network14do_server_post17h1c395988b4c7335aE
00000000         *UND*	00000000 _ZN6mynewt4libs14sensor_network16init_server_post17hfaf42cdd297c81c3E
00000000         *UND*	00000000 _ZN6mynewt8encoding12coap_context11CoapContext11key_to_cstr17h22ec0e6a0be240bcE
00000000         *UND*	00000000 _ZN6mynewt8encoding12coap_context11CoapContext11to_void_ptr17h46c73b5777181df8E
00000000         *UND*	00000000 _ZN6mynewt8encoding12coap_context11CoapContext13value_to_cstr17h82bec2845e222ac6E
00000000         *UND*	00000000 _ZN6mynewt8encoding12coap_context11CoapContext20json_set_text_string17hb2f9a85845ba70fdE
00000000         *UND*	00000000 _ZN6mynewt8encoding12coap_context11CoapContext4fail17h8c26559d3eca4000E
00000000         *UND*	00000000 _ZN6mynewt8encoding12coap_context12COAP_CONTEXT17hf19ab5ae085f8eadE
00000000         *UND*	00000000 _ZN73_$LT$core..result..Result$LT$T$C$E$GT$$u20$as$u20$core..ops..try..Try$GT$10from_error17h01f54dfdd396312fE
00000000         *UND*	00000000 _ZN73_$LT$core..result..Result$LT$T$C$E$GT$$u20$as$u20$core..ops..try..Try$GT$11into_result17h91dd7052b6c9bbf8E
00000000         *UND*	00000000 _ZN73_$LT$core..result..Result$LT$T$C$E$GT$$u20$as$u20$core..ops..try..Try$GT$11into_result17hfc1ab05964340f6bE
00000000         *UND*	00000000 _ZN75_$LT$str$u20$as$u20$mynewt..encoding..coap_context..ToBytesOptionalNull$GT$21to_bytes_optional_nul17hc8b501c00991f8aaE
00000000         *UND*	00000000 _ZN84_$LT$mynewt..Strn$u20$as$u20$mynewt..encoding..coap_context..ToBytesOptionalNull$GT$21to_bytes_optional_nul17ha8f26f6b5d582ef0E
00000000         *UND*	00000000 json_helper_close_array
00000000         *UND*	00000000 json_helper_object_array_end_item
00000000         *UND*	00000000 json_helper_object_array_start_item
00000000         *UND*	00000000 json_helper_set_array
00000000         *UND*	00000000 json_helper_set_int
00000000         *UND*	00000000 json_helper_set_text_string
00000000         *UND*	00000000 json_rep_end_root_object
00000000         *UND*	00000000 json_rep_start_root_object



Disassembly of section .text._ZN3app11app_network16send_sensor_data17h6637fc0fb2624307E:

00000000 <_ZN3app11app_network16send_sensor_data17h6637fc0fb2624307E>:
_ZN3app11app_network16send_sensor_data17h6637fc0fb2624307E():
/Users/Luppy/mynewt/stm32bluepill-mynewt-sensor/rust/app/src/app_network.rs:50
/// {"values":[
///   {"key":"device", "value":"0102030405060708090a0b0c0d0e0f10"},
///   {"key":"t",      "value":1715}
/// ]}
/// ```
pub fn send_sensor_data(val: &SensorValue) -> MynewtResult<()>  {  //  Returns an error code upon error.
   0:	b580      	push	{r7, lr}
   2:	f5ad 7d0e 	sub.w	sp, sp, #568	; 0x238
   6:	4601      	mov	r1, r0
   8:	9029      	str	r0, [sp, #164]	; 0xa4
/Users/Luppy/mynewt/stm32bluepill-mynewt-sensor/rust/app/src/app_network.rs:51
    console::print("Rust send_sensor_data\n");
   a:	f240 0000 	movw	r0, #0
   e:	f2c0 0000 	movt	r0, #0
  12:	2216      	movs	r2, #22
  14:	9128      	str	r1, [sp, #160]	; 0xa0
  16:	4611      	mov	r1, r2
  18:	f7ff fffe 	bl	0 <_ZN6mynewt3sys7console5print17hb1682fdf35bd72e2E>
  1c:	e7ff      	b.n	1e <_ZN3app11app_network16send_sensor_data17h6637fc0fb2624307E+0x1e>
  1e:	a832      	add	r0, sp, #200	; 0xc8
/Users/Luppy/mynewt/stm32bluepill-mynewt-sensor/rust/app/src/app_network.rs:53
    //  Get a randomly-generated device ID that changes each time we restart the device.
    let device_id = sensor_network::get_device_id() ? ;
  20:	f7ff fffe 	bl	0 <_ZN6mynewt4libs14sensor_network13get_device_id17hae084fb84eb86c74E>
  24:	e7ff      	b.n	26 <_ZN3app11app_network16send_sensor_data17h6637fc0fb2624307E+0x26>
  26:	a82e      	add	r0, sp, #184	; 0xb8
  28:	a932      	add	r1, sp, #200	; 0xc8
  2a:	f7ff fffe 	bl	0 <_ZN73_$LT$core..result..Result$LT$T$C$E$GT$$u20$as$u20$core..ops..try..Try$GT$11into_result17hfc1ab05964340f6bE>
  2e:	e7ff      	b.n	30 <_ZN3app11app_network16send_sensor_data17h6637fc0fb2624307E+0x30>
  30:	982e      	ldr	r0, [sp, #184]	; 0xb8
  32:	2800      	cmp	r0, #0
  34:	9027      	str	r0, [sp, #156]	; 0x9c
  36:	d017      	beq.n	68 <_ZN3app11app_network16send_sensor_data17h6637fc0fb2624307E+0x68>
  38:	e7ff      	b.n	3a <_ZN3app11app_network16send_sensor_data17h6637fc0fb2624307E+0x3a>
  3a:	9827      	ldr	r0, [sp, #156]	; 0x9c
  3c:	2801      	cmp	r0, #1
  3e:	d001      	beq.n	44 <_ZN3app11app_network16send_sensor_data17h6637fc0fb2624307E+0x44>
  40:	e7ff      	b.n	42 <_ZN3app11app_network16send_sensor_data17h6637fc0fb2624307E+0x42>
/Users/Luppy/mynewt/stm32bluepill-mynewt-sensor/rust/app/src/lib.rs:1
/*
  42:	defe      	udf	#254	; 0xfe
/Users/Luppy/mynewt/stm32bluepill-mynewt-sensor/rust/app/src/app_network.rs:53
  44:	982f      	ldr	r0, [sp, #188]	; 0xbc
  46:	9036      	str	r0, [sp, #216]	; 0xd8
  48:	9836      	ldr	r0, [sp, #216]	; 0xd8
  4a:	f7ff fffe 	bl	0 <_ZN50_$LT$T$u20$as$u20$core..convert..From$LT$T$GT$$GT$4from17h74fdd30c8f097361E>
  4e:	9026      	str	r0, [sp, #152]	; 0x98
  50:	e7ff      	b.n	52 <_ZN3app11app_network16send_sensor_data17h6637fc0fb2624307E+0x52>
  52:	9826      	ldr	r0, [sp, #152]	; 0x98
  54:	f7ff fffe 	bl	0 <_ZN73_$LT$core..result..Result$LT$T$C$E$GT$$u20$as$u20$core..ops..try..Try$GT$10from_error17h01f54dfdd396312fE>
  58:	902a      	str	r0, [sp, #168]	; 0xa8
  5a:	e7ff      	b.n	5c <_ZN3app11app_network16send_sensor_data17h6637fc0fb2624307E+0x5c>
  5c:	e003      	b.n	66 <_ZN3app11app_network16send_sensor_data17h6637fc0fb2624307E+0x66>
/Users/Luppy/mynewt/stm32bluepill-mynewt-sensor/rust/app/src/lib.rs:1
  5e:	982a      	ldr	r0, [sp, #168]	; 0xa8
  60:	f50d 7d0e 	add.w	sp, sp, #568	; 0x238
  64:	bd80      	pop	{r7, pc}
/Users/Luppy/mynewt/stm32bluepill-mynewt-sensor/rust/app/src/app_network.rs:53
  66:	e7fa      	b.n	5e <_ZN3app11app_network16send_sensor_data17h6637fc0fb2624307E+0x5e>
  68:	982f      	ldr	r0, [sp, #188]	; 0xbc
  6a:	9930      	ldr	r1, [sp, #192]	; 0xc0
  6c:	9a31      	ldr	r2, [sp, #196]	; 0xc4
  6e:	9239      	str	r2, [sp, #228]	; 0xe4
  70:	9138      	str	r1, [sp, #224]	; 0xe0
  72:	9037      	str	r0, [sp, #220]	; 0xdc
  74:	9837      	ldr	r0, [sp, #220]	; 0xdc
  76:	9938      	ldr	r1, [sp, #224]	; 0xe0
  78:	9a39      	ldr	r2, [sp, #228]	; 0xe4
  7a:	922d      	str	r2, [sp, #180]	; 0xb4
  7c:	912c      	str	r1, [sp, #176]	; 0xb0
  7e:	902b      	str	r0, [sp, #172]	; 0xac
/Users/Luppy/mynewt/stm32bluepill-mynewt-sensor/rust/app/src/app_network.rs:58

    //  Start composing the CoAP Server message with the sensor data in the payload.  This will 
    //  block other tasks from composing and posting CoAP messages (through a semaphore).
    //  We only have 1 memory buffer for composing CoAP messages so it needs to be locked.
    let rc = sensor_network::init_server_post( strn!(()) ) ? ;  //  `strn!(())` means use default CoAP URI in `syscfg.yml`
  80:	f240 0100 	movw	r1, #0
  84:	f2c0 0100 	movt	r1, #0
  88:	a83f      	add	r0, sp, #252	; 0xfc
  8a:	2201      	movs	r2, #1
  8c:	f7ff fffe 	bl	0 <_ZN6mynewt4Strn3new17hb866d05aacc8292bE>
  90:	e7ff      	b.n	92 <_ZN3app11app_network16send_sensor_data17h6637fc0fb2624307E+0x92>
  92:	a83d      	add	r0, sp, #244	; 0xf4
  94:	a93f      	add	r1, sp, #252	; 0xfc
  96:	f7ff fffe 	bl	0 <_ZN6mynewt4libs14sensor_network16init_server_post17hfaf42cdd297c81c3E>
  9a:	e7ff      	b.n	9c <_ZN3app11app_network16send_sensor_data17h6637fc0fb2624307E+0x9c>
  9c:	a83b      	add	r0, sp, #236	; 0xec
  9e:	a93d      	add	r1, sp, #244	; 0xf4
  a0:	f7ff fffe 	bl	0 <_ZN73_$LT$core..result..Result$LT$T$C$E$GT$$u20$as$u20$core..ops..try..Try$GT$11into_result17h91dd7052b6c9bbf8E>
  a4:	e7ff      	b.n	a6 <_ZN3app11app_network16send_sensor_data17h6637fc0fb2624307E+0xa6>
  a6:	f89d 00ec 	ldrb.w	r0, [sp, #236]	; 0xec
  aa:	07c1      	lsls	r1, r0, #31
  ac:	2900      	cmp	r1, #0
  ae:	9025      	str	r0, [sp, #148]	; 0x94
  b0:	d012      	beq.n	d8 <_ZN3app11app_network16send_sensor_data17h6637fc0fb2624307E+0xd8>
  b2:	e7ff      	b.n	b4 <_ZN3app11app_network16send_sensor_data17h6637fc0fb2624307E+0xb4>
  b4:	9825      	ldr	r0, [sp, #148]	; 0x94
  b6:	2801      	cmp	r0, #1
  b8:	d1c3      	bne.n	42 <_ZN3app11app_network16send_sensor_data17h6637fc0fb2624307E+0x42>
  ba:	e7ff      	b.n	bc <_ZN3app11app_network16send_sensor_data17h6637fc0fb2624307E+0xbc>
  bc:	983c      	ldr	r0, [sp, #240]	; 0xf0
  be:	9042      	str	r0, [sp, #264]	; 0x108
  c0:	9842      	ldr	r0, [sp, #264]	; 0x108
  c2:	f7ff fffe 	bl	0 <_ZN50_$LT$T$u20$as$u20$core..convert..From$LT$T$GT$$GT$4from17h74fdd30c8f097361E>
  c6:	9024      	str	r0, [sp, #144]	; 0x90
  c8:	e7ff      	b.n	ca <_ZN3app11app_network16send_sensor_data17h6637fc0fb2624307E+0xca>
  ca:	9824      	ldr	r0, [sp, #144]	; 0x90
  cc:	f7ff fffe 	bl	0 <_ZN73_$LT$core..result..Result$LT$T$C$E$GT$$u20$as$u20$core..ops..try..Try$GT$10from_error17h01f54dfdd396312fE>
  d0:	902a      	str	r0, [sp, #168]	; 0xa8
  d2:	e7ff      	b.n	d4 <_ZN3app11app_network16send_sensor_data17h6637fc0fb2624307E+0xd4>
  d4:	e7ff      	b.n	d6 <_ZN3app11app_network16send_sensor_data17h6637fc0fb2624307E+0xd6>
  d6:	e7c6      	b.n	66 <_ZN3app11app_network16send_sensor_data17h6637fc0fb2624307E+0x66>
  d8:	f89d 00ed 	ldrb.w	r0, [sp, #237]	; 0xed
  dc:	f88d 010f 	strb.w	r0, [sp, #271]	; 0x10f
  e0:	f89d 010f 	ldrb.w	r0, [sp, #271]	; 0x10f
  e4:	f88d 00eb 	strb.w	r0, [sp, #235]	; 0xeb
/Users/Luppy/mynewt/stm32bluepill-mynewt-sensor/rust/app/src/app_network.rs:61

    //  If network transport not ready, tell caller (Sensor Listener) to try again later.
    if !rc { return Err(MynewtError::SYS_EAGAIN); }
  e8:	f89d 00eb 	ldrb.w	r0, [sp, #235]	; 0xeb
  ec:	07c0      	lsls	r0, r0, #31
  ee:	2800      	cmp	r0, #0
  f0:	d106      	bne.n	100 <_ZN3app11app_network16send_sensor_data17h6637fc0fb2624307E+0x100>
  f2:	e7ff      	b.n	f4 <_ZN3app11app_network16send_sensor_data17h6637fc0fb2624307E+0xf4>
  f4:	f06f 0005 	mvn.w	r0, #5
  f8:	9044      	str	r0, [sp, #272]	; 0x110
  fa:	9844      	ldr	r0, [sp, #272]	; 0x110
  fc:	902a      	str	r0, [sp, #168]	; 0xa8
  fe:	e7ea      	b.n	d6 <_ZN3app11app_network16send_sensor_data17h6637fc0fb2624307E+0xd6>
 100:	a848      	add	r0, sp, #288	; 0x120
 102:	2132      	movs	r1, #50	; 0x32
/Users/Luppy/mynewt/stm32bluepill-mynewt-sensor/rust/app/src/app_network.rs:65

    //  Compose the CoAP Payload using the coap!() macro.
    //  Select @json or @cbor To encode CoAP Payload in JSON or CBOR format.
    let _payload = coap!( @json {        
 104:	f7ff fffe 	bl	0 <_ZN6mynewt4libs14sensor_network12prepare_post17h43168bc7920fca20E>
 108:	e7ff      	b.n	10a <_ZN3app11app_network16send_sensor_data17h6637fc0fb2624307E+0x10a>
 10a:	a846      	add	r0, sp, #280	; 0x118
 10c:	a948      	add	r1, sp, #288	; 0x120
 10e:	f7ff fffe 	bl	0 <_ZN73_$LT$core..result..Result$LT$T$C$E$GT$$u20$as$u20$core..ops..try..Try$GT$11into_result17h91dd7052b6c9bbf8E>
 112:	e7ff      	b.n	114 <_ZN3app11app_network16send_sensor_data17h6637fc0fb2624307E+0x114>
 114:	f89d 0118 	ldrb.w	r0, [sp, #280]	; 0x118
 118:	07c1      	lsls	r1, r0, #31
 11a:	2900      	cmp	r1, #0
 11c:	9023      	str	r0, [sp, #140]	; 0x8c
 11e:	d013      	beq.n	148 <_ZN3app11app_network16send_sensor_data17h6637fc0fb2624307E+0x148>
 120:	e7ff      	b.n	122 <_ZN3app11app_network16send_sensor_data17h6637fc0fb2624307E+0x122>
 122:	9823      	ldr	r0, [sp, #140]	; 0x8c
 124:	2801      	cmp	r0, #1
 126:	f47f af8c 	bne.w	42 <_ZN3app11app_network16send_sensor_data17h6637fc0fb2624307E+0x42>
 12a:	e7ff      	b.n	12c <_ZN3app11app_network16send_sensor_data17h6637fc0fb2624307E+0x12c>
 12c:	9847      	ldr	r0, [sp, #284]	; 0x11c
 12e:	904a      	str	r0, [sp, #296]	; 0x128
 130:	984a      	ldr	r0, [sp, #296]	; 0x128
 132:	f7ff fffe 	bl	0 <_ZN50_$LT$T$u20$as$u20$core..convert..From$LT$T$GT$$GT$4from17h74fdd30c8f097361E>
 136:	9022      	str	r0, [sp, #136]	; 0x88
 138:	e7ff      	b.n	13a <_ZN3app11app_network16send_sensor_data17h6637fc0fb2624307E+0x13a>
 13a:	9822      	ldr	r0, [sp, #136]	; 0x88
 13c:	f7ff fffe 	bl	0 <_ZN73_$LT$core..result..Result$LT$T$C$E$GT$$u20$as$u20$core..ops..try..Try$GT$10from_error17h01f54dfdd396312fE>
 140:	902a      	str	r0, [sp, #168]	; 0xa8
 142:	e7ff      	b.n	144 <_ZN3app11app_network16send_sensor_data17h6637fc0fb2624307E+0x144>
 144:	e7ff      	b.n	146 <_ZN3app11app_network16send_sensor_data17h6637fc0fb2624307E+0x146>
 146:	e7c6      	b.n	d6 <_ZN3app11app_network16send_sensor_data17h6637fc0fb2624307E+0xd6>
 148:	f89d 0119 	ldrb.w	r0, [sp, #281]	; 0x119
 14c:	f88d 012f 	strb.w	r0, [sp, #303]	; 0x12f
 150:	f7ff fffe 	bl	0 <json_rep_start_root_object>
 154:	e7ff      	b.n	2 <_ZN3app11app_network16send_sensor_data17h6637fc0fb2624307E+0x2>
 156:	f240 0000 	movw	r0, #0
 15a:	f2c0 0000 	movt	r0, #0
 15e:	904c      	str	r0, [sp, #304]	; 0x130
 160:	2007      	movs	r0, #7
 162:	904d      	str	r0, [sp, #308]	; 0x134
/Users/Luppy/mynewt/stm32bluepill-mynewt-sensor/rust/app/src/lib.rs:1
 164:	f240 0000 	movw	r0, #0
 168:	f2c0 0000 	movt	r0, #0
 16c:	f7ff fffe 	bl	0 <_ZN6mynewt8encoding12coap_context11CoapContext11to_void_ptr17h46c73b5777181df8E>
 170:	9021      	str	r0, [sp, #132]	; 0x84
 172:	e7ff      	b.n	174 <_ZN3app11app_network16send_sensor_data17h6637fc0fb2624307E+0x174>
/Users/Luppy/mynewt/stm32bluepill-mynewt-sensor/rust/app/src/app_network.rs:65
 174:	984c      	ldr	r0, [sp, #304]	; 0x130
 176:	994d      	ldr	r1, [sp, #308]	; 0x134
 178:	9076      	str	r0, [sp, #472]	; 0x1d8
 17a:	9177      	str	r1, [sp, #476]	; 0x1dc
_ZN4core3str21_$LT$impl$u20$str$GT$8as_bytes17hbca31947ef6ad219E():
/rustc/50a0defd5a93523067ef239936cc2e0755220904/src/libcore/str/mod.rs:2153
 17c:	9876      	ldr	r0, [sp, #472]	; 0x1d8
 17e:	9977      	ldr	r1, [sp, #476]	; 0x1dc
 180:	9078      	str	r0, [sp, #480]	; 0x1e0
 182:	9179      	str	r1, [sp, #484]	; 0x1e4
 184:	9978      	ldr	r1, [sp, #480]	; 0x1e0
 186:	9a79      	ldr	r2, [sp, #484]	; 0x1e4
_ZN3app11app_network16send_sensor_data17h6637fc0fb2624307E():
/Users/Luppy/mynewt/stm32bluepill-mynewt-sensor/rust/app/src/app_network.rs:65
 188:	9120      	str	r1, [sp, #128]	; 0x80
 18a:	921f      	str	r2, [sp, #124]	; 0x7c
 18c:	e7ff      	b.n	18e <_ZN3app11app_network16send_sensor_data17h6637fc0fb2624307E+0x18e>
/Users/Luppy/mynewt/stm32bluepill-mynewt-sensor/rust/app/src/lib.rs:1
 18e:	f240 0000 	movw	r0, #0
 192:	f2c0 0000 	movt	r0, #0
 196:	9920      	ldr	r1, [sp, #128]	; 0x80
 198:	9a1f      	ldr	r2, [sp, #124]	; 0x7c
 19a:	f7ff fffe 	bl	0 <_ZN6mynewt8encoding12coap_context11CoapContext11key_to_cstr17h22ec0e6a0be240bcE>
 19e:	901e      	str	r0, [sp, #120]	; 0x78
 1a0:	e7ff      	b.n	1a2 <_ZN3app11app_network16send_sensor_data17h6637fc0fb2624307E+0x1a2>
/Users/Luppy/mynewt/stm32bluepill-mynewt-sensor/rust/app/src/app_network.rs:65
 1a2:	9821      	ldr	r0, [sp, #132]	; 0x84
 1a4:	991e      	ldr	r1, [sp, #120]	; 0x78
 1a6:	f7ff fffe 	bl	0 <json_helper_set_array>
 1aa:	e7ff      	b.n	2 <_ZN3app11app_network16send_sensor_data17h6637fc0fb2624307E+0x2>
 1ac:	f240 0000 	movw	r0, #0
 1b0:	f2c0 0000 	movt	r0, #0
 1b4:	904e      	str	r0, [sp, #312]	; 0x138
 1b6:	200d      	movs	r0, #13
 1b8:	904f      	str	r0, [sp, #316]	; 0x13c
 1ba:	984e      	ldr	r0, [sp, #312]	; 0x138
 1bc:	994f      	ldr	r1, [sp, #316]	; 0x13c
 1be:	908a      	str	r0, [sp, #552]	; 0x228
 1c0:	918b      	str	r1, [sp, #556]	; 0x22c
_ZN4core3str21_$LT$impl$u20$str$GT$8as_bytes17hbca31947ef6ad219E():
/rustc/50a0defd5a93523067ef239936cc2e0755220904/src/libcore/str/mod.rs:2153
 1c2:	988a      	ldr	r0, [sp, #552]	; 0x228
 1c4:	998b      	ldr	r1, [sp, #556]	; 0x22c
 1c6:	908c      	str	r0, [sp, #560]	; 0x230
 1c8:	918d      	str	r1, [sp, #564]	; 0x234
 1ca:	998c      	ldr	r1, [sp, #560]	; 0x230
 1cc:	9a8d      	ldr	r2, [sp, #564]	; 0x234
_ZN3app11app_network16send_sensor_data17h6637fc0fb2624307E():
/Users/Luppy/mynewt/stm32bluepill-mynewt-sensor/rust/app/src/app_network.rs:65
 1ce:	911d      	str	r1, [sp, #116]	; 0x74
 1d0:	921c      	str	r2, [sp, #112]	; 0x70
 1d2:	e7ff      	b.n	1d4 <_ZN3app11app_network16send_sensor_data17h6637fc0fb2624307E+0x1d4>
/Users/Luppy/mynewt/stm32bluepill-mynewt-sensor/rust/app/src/lib.rs:1
 1d4:	f240 0000 	movw	r0, #0
 1d8:	f2c0 0000 	movt	r0, #0
 1dc:	991d      	ldr	r1, [sp, #116]	; 0x74
 1de:	9a1c      	ldr	r2, [sp, #112]	; 0x70
 1e0:	f7ff fffe 	bl	0 <_ZN6mynewt8encoding12coap_context11CoapContext11key_to_cstr17h22ec0e6a0be240bcE>
 1e4:	901b      	str	r0, [sp, #108]	; 0x6c
 1e6:	e7ff      	b.n	1e8 <_ZN3app11app_network16send_sensor_data17h6637fc0fb2624307E+0x1e8>
/Users/Luppy/mynewt/stm32bluepill-mynewt-sensor/rust/app/src/app_network.rs:65
 1e8:	981b      	ldr	r0, [sp, #108]	; 0x6c
 1ea:	f7ff fffe 	bl	0 <json_helper_object_array_start_item>
 1ee:	e7ff      	b.n	2 <_ZN3app11app_network16send_sensor_data17h6637fc0fb2624307E+0x2>
 1f0:	f240 0100 	movw	r1, #0
 1f4:	f2c0 0100 	movt	r1, #0
 1f8:	a851      	add	r0, sp, #324	; 0x144
 1fa:	2204      	movs	r2, #4
 1fc:	f7ff fffe 	bl	0 <_ZN6mynewt4Strn3new17hb866d05aacc8292bE>
 200:	e7ff      	b.n	202 <_ZN3app11app_network16send_sensor_data17h6637fc0fb2624307E+0x202>
 202:	a851      	add	r0, sp, #324	; 0x144
 204:	9050      	str	r0, [sp, #320]	; 0x140
 206:	f240 0100 	movw	r1, #0
 20a:	f2c0 0100 	movt	r1, #0
 20e:	a855      	add	r0, sp, #340	; 0x154
 210:	2207      	movs	r2, #7
 212:	f7ff fffe 	bl	0 <_ZN6mynewt4Strn3new17hb866d05aacc8292bE>
 216:	e7ff      	b.n	218 <_ZN3app11app_network16send_sensor_data17h6637fc0fb2624307E+0x218>
 218:	a855      	add	r0, sp, #340	; 0x154
 21a:	9054      	str	r0, [sp, #336]	; 0x150
 21c:	9950      	ldr	r1, [sp, #320]	; 0x140
 21e:	9a54      	ldr	r2, [sp, #336]	; 0x150
/Users/Luppy/mynewt/stm32bluepill-mynewt-sensor/rust/app/src/lib.rs:1
 220:	f240 0000 	movw	r0, #0
 224:	f2c0 0000 	movt	r0, #0
 228:	f7ff fffe 	bl	0 <_ZN6mynewt8encoding12coap_context11CoapContext20json_set_text_string17hb2f9a85845ba70fdE>
 22c:	e7ff      	b.n	2 <_ZN3app11app_network16send_sensor_data17h6637fc0fb2624307E+0x2>
/Users/Luppy/mynewt/stm32bluepill-mynewt-sensor/rust/app/src/app_network.rs:65
 22e:	f240 0100 	movw	r1, #0
 232:	f2c0 0100 	movt	r1, #0
 236:	a859      	add	r0, sp, #356	; 0x164
 238:	2206      	movs	r2, #6
 23a:	f7ff fffe 	bl	0 <_ZN6mynewt4Strn3new17hb866d05aacc8292bE>
 23e:	e7ff      	b.n	240 <_ZN3app11app_network16send_sensor_data17h6637fc0fb2624307E+0x240>
 240:	a859      	add	r0, sp, #356	; 0x164
 242:	9058      	str	r0, [sp, #352]	; 0x160
 244:	a82b      	add	r0, sp, #172	; 0xac
/Users/Luppy/mynewt/stm32bluepill-mynewt-sensor/rust/app/src/app_network.rs:69
        //  Create `values` as an array of items under the root.
        //  Append to the `values` array the random device ID:
        //  `{"key":"device", "value":"0102030405060708090a0b0c0d0e0f10"}`
        "device": &device_id,
 246:	905c      	str	r0, [sp, #368]	; 0x170
/Users/Luppy/mynewt/stm32bluepill-mynewt-sensor/rust/app/src/app_network.rs:65
    let _payload = coap!( @json {        
 248:	9958      	ldr	r1, [sp, #352]	; 0x160
 24a:	9a5c      	ldr	r2, [sp, #368]	; 0x170
/Users/Luppy/mynewt/stm32bluepill-mynewt-sensor/rust/app/src/lib.rs:1
 24c:	f240 0000 	movw	r0, #0
 250:	f2c0 0000 	movt	r0, #0
 254:	f7ff fffe 	bl	0 <_ZN6mynewt8encoding12coap_context11CoapContext20json_set_text_string17hb2f9a85845ba70fdE>
 258:	e7ff      	b.n	2 <_ZN3app11app_network16send_sensor_data17h6637fc0fb2624307E+0x2>
/Users/Luppy/mynewt/stm32bluepill-mynewt-sensor/rust/app/src/app_network.rs:65
 25a:	f240 0000 	movw	r0, #0
 25e:	f2c0 0000 	movt	r0, #0
 262:	905d      	str	r0, [sp, #372]	; 0x174
 264:	200d      	movs	r0, #13
 266:	905e      	str	r0, [sp, #376]	; 0x178
 268:	985d      	ldr	r0, [sp, #372]	; 0x174
 26a:	995e      	ldr	r1, [sp, #376]	; 0x178
 26c:	9086      	str	r0, [sp, #536]	; 0x218
 26e:	9187      	str	r1, [sp, #540]	; 0x21c
_ZN4core3str21_$LT$impl$u20$str$GT$8as_bytes17hbca31947ef6ad219E():
/rustc/50a0defd5a93523067ef239936cc2e0755220904/src/libcore/str/mod.rs:2153
 270:	9886      	ldr	r0, [sp, #536]	; 0x218
 272:	9987      	ldr	r1, [sp, #540]	; 0x21c
 274:	9088      	str	r0, [sp, #544]	; 0x220
 276:	9189      	str	r1, [sp, #548]	; 0x224
 278:	9988      	ldr	r1, [sp, #544]	; 0x220
 27a:	9a89      	ldr	r2, [sp, #548]	; 0x224
_ZN3app11app_network16send_sensor_data17h6637fc0fb2624307E():
/Users/Luppy/mynewt/stm32bluepill-mynewt-sensor/rust/app/src/app_network.rs:65
 27c:	911a      	str	r1, [sp, #104]	; 0x68
 27e:	9219      	str	r2, [sp, #100]	; 0x64
 280:	e7ff      	b.n	282 <_ZN3app11app_network16send_sensor_data17h6637fc0fb2624307E+0x282>
/Users/Luppy/mynewt/stm32bluepill-mynewt-sensor/rust/app/src/lib.rs:1
 282:	f240 0000 	movw	r0, #0
 286:	f2c0 0000 	movt	r0, #0
 28a:	991a      	ldr	r1, [sp, #104]	; 0x68
 28c:	9a19      	ldr	r2, [sp, #100]	; 0x64
 28e:	f7ff fffe 	bl	0 <_ZN6mynewt8encoding12coap_context11CoapContext11key_to_cstr17h22ec0e6a0be240bcE>
 292:	9018      	str	r0, [sp, #96]	; 0x60
 294:	e7ff      	b.n	296 <_ZN3app11app_network16send_sensor_data17h6637fc0fb2624307E+0x296>
/Users/Luppy/mynewt/stm32bluepill-mynewt-sensor/rust/app/src/app_network.rs:65
 296:	9818      	ldr	r0, [sp, #96]	; 0x60
 298:	f7ff fffe 	bl	0 <json_helper_object_array_end_item>
 29c:	e7ff      	b.n	29e <_ZN3app11app_network16send_sensor_data17h6637fc0fb2624307E+0x29e>
 29e:	9829      	ldr	r0, [sp, #164]	; 0xa4
 2a0:	6840      	ldr	r0, [r0, #4]
 2a2:	2801      	cmp	r0, #1
 2a4:	f040 80af 	bne.w	406 <_ZN3app11app_network16send_sensor_data17h6637fc0fb2624307E+0x406>
 2a8:	e7ff      	b.n	2aa <_ZN3app11app_network16send_sensor_data17h6637fc0fb2624307E+0x2aa>
 2aa:	9829      	ldr	r0, [sp, #164]	; 0xa4
 2ac:	6880      	ldr	r0, [r0, #8]
 2ae:	905f      	str	r0, [sp, #380]	; 0x17c
 2b0:	f240 0000 	movw	r0, #0
 2b4:	f2c0 0000 	movt	r0, #0
 2b8:	9060      	str	r0, [sp, #384]	; 0x180
 2ba:	200d      	movs	r0, #13
 2bc:	9061      	str	r0, [sp, #388]	; 0x184
 2be:	9860      	ldr	r0, [sp, #384]	; 0x180
 2c0:	9961      	ldr	r1, [sp, #388]	; 0x184
 2c2:	9082      	str	r0, [sp, #520]	; 0x208
 2c4:	9183      	str	r1, [sp, #524]	; 0x20c
_ZN4core3str21_$LT$impl$u20$str$GT$8as_bytes17hbca31947ef6ad219E():
/rustc/50a0defd5a93523067ef239936cc2e0755220904/src/libcore/str/mod.rs:2153
 2c6:	9882      	ldr	r0, [sp, #520]	; 0x208
 2c8:	9983      	ldr	r1, [sp, #524]	; 0x20c
 2ca:	9084      	str	r0, [sp, #528]	; 0x210
 2cc:	9185      	str	r1, [sp, #532]	; 0x214
 2ce:	9984      	ldr	r1, [sp, #528]	; 0x210
 2d0:	9a85      	ldr	r2, [sp, #532]	; 0x214
_ZN3app11app_network16send_sensor_data17h6637fc0fb2624307E():
/Users/Luppy/mynewt/stm32bluepill-mynewt-sensor/rust/app/src/app_network.rs:65
 2d2:	9117      	str	r1, [sp, #92]	; 0x5c
 2d4:	9216      	str	r2, [sp, #88]	; 0x58
 2d6:	e7ff      	b.n	2d8 <_ZN3app11app_network16send_sensor_data17h6637fc0fb2624307E+0x2d8>
/Users/Luppy/mynewt/stm32bluepill-mynewt-sensor/rust/app/src/lib.rs:1
 2d8:	f240 0000 	movw	r0, #0
 2dc:	f2c0 0000 	movt	r0, #0
 2e0:	9917      	ldr	r1, [sp, #92]	; 0x5c
 2e2:	9a16      	ldr	r2, [sp, #88]	; 0x58
 2e4:	f7ff fffe 	bl	0 <_ZN6mynewt8encoding12coap_context11CoapContext11key_to_cstr17h22ec0e6a0be240bcE>
 2e8:	9015      	str	r0, [sp, #84]	; 0x54
 2ea:	e7ff      	b.n	2ec <_ZN3app11app_network16send_sensor_data17h6637fc0fb2624307E+0x2ec>
/Users/Luppy/mynewt/stm32bluepill-mynewt-sensor/rust/app/src/app_network.rs:65
 2ec:	9815      	ldr	r0, [sp, #84]	; 0x54
 2ee:	f7ff fffe 	bl	0 <json_helper_object_array_start_item>
 2f2:	e7ff      	b.n	2 <_ZN3app11app_network16send_sensor_data17h6637fc0fb2624307E+0x2>
 2f4:	f240 0000 	movw	r0, #0
 2f8:	f2c0 0000 	movt	r0, #0
 2fc:	2103      	movs	r1, #3
 2fe:	f7ff fffe 	bl	0 <_ZN75_$LT$str$u20$as$u20$mynewt..encoding..coap_context..ToBytesOptionalNull$GT$21to_bytes_optional_nul17hc8b501c00991f8aaE>
 302:	9014      	str	r0, [sp, #80]	; 0x50
 304:	9113      	str	r1, [sp, #76]	; 0x4c
 306:	e7ff      	b.n	308 <_ZN3app11app_network16send_sensor_data17h6637fc0fb2624307E+0x308>
 308:	9814      	ldr	r0, [sp, #80]	; 0x50
 30a:	9062      	str	r0, [sp, #392]	; 0x188
 30c:	9913      	ldr	r1, [sp, #76]	; 0x4c
 30e:	9163      	str	r1, [sp, #396]	; 0x18c
 310:	9a29      	ldr	r2, [sp, #164]	; 0xa4
 312:	6810      	ldr	r0, [r2, #0]
 314:	f7ff fffe 	bl	0 <_ZN84_$LT$mynewt..Strn$u20$as$u20$mynewt..encoding..coap_context..ToBytesOptionalNull$GT$21to_bytes_optional_nul17ha8f26f6b5d582ef0E>
 318:	9012      	str	r0, [sp, #72]	; 0x48
 31a:	9111      	str	r1, [sp, #68]	; 0x44
 31c:	e7ff      	b.n	31e <_ZN3app11app_network16send_sensor_data17h6637fc0fb2624307E+0x31e>
 31e:	9812      	ldr	r0, [sp, #72]	; 0x48
 320:	9064      	str	r0, [sp, #400]	; 0x190
 322:	9911      	ldr	r1, [sp, #68]	; 0x44
 324:	9165      	str	r1, [sp, #404]	; 0x194
/Users/Luppy/mynewt/stm32bluepill-mynewt-sensor/rust/app/src/lib.rs:1
 326:	f240 0000 	movw	r0, #0
 32a:	f2c0 0000 	movt	r0, #0
 32e:	f7ff fffe 	bl	0 <_ZN6mynewt8encoding12coap_context11CoapContext11to_void_ptr17h46c73b5777181df8E>
 332:	9010      	str	r0, [sp, #64]	; 0x40
 334:	e7ff      	b.n	336 <_ZN3app11app_network16send_sensor_data17h6637fc0fb2624307E+0x336>
/Users/Luppy/mynewt/stm32bluepill-mynewt-sensor/rust/app/src/app_network.rs:65
 336:	9962      	ldr	r1, [sp, #392]	; 0x188
 338:	9a63      	ldr	r2, [sp, #396]	; 0x18c
/Users/Luppy/mynewt/stm32bluepill-mynewt-sensor/rust/app/src/lib.rs:1
 33a:	f240 0000 	movw	r0, #0
 33e:	f2c0 0000 	movt	r0, #0
 342:	f7ff fffe 	bl	0 <_ZN6mynewt8encoding12coap_context11CoapContext11key_to_cstr17h22ec0e6a0be240bcE>
 346:	900f      	str	r0, [sp, #60]	; 0x3c
 348:	e7ff      	b.n	34a <_ZN3app11app_network16send_sensor_data17h6637fc0fb2624307E+0x34a>
/Users/Luppy/mynewt/stm32bluepill-mynewt-sensor/rust/app/src/app_network.rs:65
 34a:	9964      	ldr	r1, [sp, #400]	; 0x190
 34c:	9a65      	ldr	r2, [sp, #404]	; 0x194
/Users/Luppy/mynewt/stm32bluepill-mynewt-sensor/rust/app/src/lib.rs:1
 34e:	f240 0000 	movw	r0, #0
 352:	f2c0 0000 	movt	r0, #0
 356:	f7ff fffe 	bl	0 <_ZN6mynewt8encoding12coap_context11CoapContext13value_to_cstr17h82bec2845e222ac6E>
 35a:	900e      	str	r0, [sp, #56]	; 0x38
 35c:	e7ff      	b.n	35e <_ZN3app11app_network16send_sensor_data17h6637fc0fb2624307E+0x35e>
/Users/Luppy/mynewt/stm32bluepill-mynewt-sensor/rust/app/src/app_network.rs:65
 35e:	9810      	ldr	r0, [sp, #64]	; 0x40
 360:	990f      	ldr	r1, [sp, #60]	; 0x3c
 362:	9a0e      	ldr	r2, [sp, #56]	; 0x38
 364:	f7ff fffe 	bl	0 <json_helper_set_text_string>
 368:	e7ff      	b.n	2 <_ZN3app11app_network16send_sensor_data17h6637fc0fb2624307E+0x2>
 36a:	f240 0000 	movw	r0, #0
 36e:	f2c0 0000 	movt	r0, #0
 372:	2105      	movs	r1, #5
 374:	f7ff fffe 	bl	0 <_ZN75_$LT$str$u20$as$u20$mynewt..encoding..coap_context..ToBytesOptionalNull$GT$21to_bytes_optional_nul17hc8b501c00991f8aaE>
 378:	900d      	str	r0, [sp, #52]	; 0x34
 37a:	910c      	str	r1, [sp, #48]	; 0x30
 37c:	e7ff      	b.n	37e <_ZN3app11app_network16send_sensor_data17h6637fc0fb2624307E+0x37e>
 37e:	980d      	ldr	r0, [sp, #52]	; 0x34
 380:	9066      	str	r0, [sp, #408]	; 0x198
 382:	990c      	ldr	r1, [sp, #48]	; 0x30
 384:	9167      	str	r1, [sp, #412]	; 0x19c
 386:	9a5f      	ldr	r2, [sp, #380]	; 0x17c
 388:	2300      	movs	r3, #0
 38a:	9369      	str	r3, [sp, #420]	; 0x1a4
 38c:	9268      	str	r2, [sp, #416]	; 0x1a0
/Users/Luppy/mynewt/stm32bluepill-mynewt-sensor/rust/app/src/lib.rs:1
 38e:	f240 0000 	movw	r0, #0
 392:	f2c0 0000 	movt	r0, #0
 396:	f7ff fffe 	bl	0 <_ZN6mynewt8encoding12coap_context11CoapContext11to_void_ptr17h46c73b5777181df8E>
 39a:	900b      	str	r0, [sp, #44]	; 0x2c
 39c:	e7ff      	b.n	39e <_ZN3app11app_network16send_sensor_data17h6637fc0fb2624307E+0x39e>
/Users/Luppy/mynewt/stm32bluepill-mynewt-sensor/rust/app/src/app_network.rs:65
 39e:	9966      	ldr	r1, [sp, #408]	; 0x198
 3a0:	9a67      	ldr	r2, [sp, #412]	; 0x19c
/Users/Luppy/mynewt/stm32bluepill-mynewt-sensor/rust/app/src/lib.rs:1
 3a2:	f240 0000 	movw	r0, #0
 3a6:	f2c0 0000 	movt	r0, #0
 3aa:	f7ff fffe 	bl	0 <_ZN6mynewt8encoding12coap_context11CoapContext11key_to_cstr17h22ec0e6a0be240bcE>
 3ae:	900a      	str	r0, [sp, #40]	; 0x28
 3b0:	e7ff      	b.n	3b2 <_ZN3app11app_network16send_sensor_data17h6637fc0fb2624307E+0x3b2>
/Users/Luppy/mynewt/stm32bluepill-mynewt-sensor/rust/app/src/app_network.rs:65
 3b2:	9a68      	ldr	r2, [sp, #416]	; 0x1a0
 3b4:	9b69      	ldr	r3, [sp, #420]	; 0x1a4
 3b6:	980b      	ldr	r0, [sp, #44]	; 0x2c
 3b8:	990a      	ldr	r1, [sp, #40]	; 0x28
 3ba:	f7ff fffe 	bl	0 <json_helper_set_int>
 3be:	e7ff      	b.n	2 <_ZN3app11app_network16send_sensor_data17h6637fc0fb2624307E+0x2>
 3c0:	f240 0000 	movw	r0, #0
 3c4:	f2c0 0000 	movt	r0, #0
 3c8:	906a      	str	r0, [sp, #424]	; 0x1a8
 3ca:	200d      	movs	r0, #13
 3cc:	906b      	str	r0, [sp, #428]	; 0x1ac
 3ce:	986a      	ldr	r0, [sp, #424]	; 0x1a8
 3d0:	996b      	ldr	r1, [sp, #428]	; 0x1ac
 3d2:	907e      	str	r0, [sp, #504]	; 0x1f8
 3d4:	917f      	str	r1, [sp, #508]	; 0x1fc
_ZN4core3str21_$LT$impl$u20$str$GT$8as_bytes17hbca31947ef6ad219E():
/rustc/50a0defd5a93523067ef239936cc2e0755220904/src/libcore/str/mod.rs:2153
 3d6:	987e      	ldr	r0, [sp, #504]	; 0x1f8
 3d8:	997f      	ldr	r1, [sp, #508]	; 0x1fc
 3da:	9080      	str	r0, [sp, #512]	; 0x200
 3dc:	9181      	str	r1, [sp, #516]	; 0x204
 3de:	9980      	ldr	r1, [sp, #512]	; 0x200
 3e0:	9a81      	ldr	r2, [sp, #516]	; 0x204
_ZN3app11app_network16send_sensor_data17h6637fc0fb2624307E():
/Users/Luppy/mynewt/stm32bluepill-mynewt-sensor/rust/app/src/app_network.rs:65
 3e2:	9109      	str	r1, [sp, #36]	; 0x24
 3e4:	9208      	str	r2, [sp, #32]
 3e6:	e7ff      	b.n	3e8 <_ZN3app11app_network16send_sensor_data17h6637fc0fb2624307E+0x3e8>
/Users/Luppy/mynewt/stm32bluepill-mynewt-sensor/rust/app/src/lib.rs:1
 3e8:	f240 0000 	movw	r0, #0
 3ec:	f2c0 0000 	movt	r0, #0
 3f0:	9909      	ldr	r1, [sp, #36]	; 0x24
 3f2:	9a08      	ldr	r2, [sp, #32]
 3f4:	f7ff fffe 	bl	0 <_ZN6mynewt8encoding12coap_context11CoapContext11key_to_cstr17h22ec0e6a0be240bcE>
 3f8:	9007      	str	r0, [sp, #28]
 3fa:	e7ff      	b.n	3fc <_ZN3app11app_network16send_sensor_data17h6637fc0fb2624307E+0x3fc>
/Users/Luppy/mynewt/stm32bluepill-mynewt-sensor/rust/app/src/app_network.rs:65
 3fc:	9807      	ldr	r0, [sp, #28]
 3fe:	f7ff fffe 	bl	0 <json_helper_object_array_end_item>
 402:	e7ff      	b.n	404 <_ZN3app11app_network16send_sensor_data17h6637fc0fb2624307E+0x404>
 404:	e00c      	b.n	420 <_ZN3app11app_network16send_sensor_data17h6637fc0fb2624307E+0x420>
 406:	2001      	movs	r0, #1
 408:	f88d 01b3 	strb.w	r0, [sp, #435]	; 0x1b3
 40c:	f89d 11b3 	ldrb.w	r1, [sp, #435]	; 0x1b3
 410:	f240 0000 	movw	r0, #0
 414:	f2c0 0000 	movt	r0, #0
 418:	f7ff fffe 	bl	0 <_ZN6mynewt8encoding12coap_context11CoapContext4fail17h8c26559d3eca4000E>
 41c:	e7ff      	b.n	41e <_ZN3app11app_network16send_sensor_data17h6637fc0fb2624307E+0x41e>
 41e:	e7ff      	b.n	420 <_ZN3app11app_network16send_sensor_data17h6637fc0fb2624307E+0x420>
 420:	f240 0000 	movw	r0, #0
 424:	f2c0 0000 	movt	r0, #0
 428:	906d      	str	r0, [sp, #436]	; 0x1b4
 42a:	2007      	movs	r0, #7
 42c:	906e      	str	r0, [sp, #440]	; 0x1b8
/Users/Luppy/mynewt/stm32bluepill-mynewt-sensor/rust/app/src/lib.rs:1
 42e:	f240 0000 	movw	r0, #0
 432:	f2c0 0000 	movt	r0, #0
 436:	f7ff fffe 	bl	0 <_ZN6mynewt8encoding12coap_context11CoapContext11to_void_ptr17h46c73b5777181df8E>
 43a:	9006      	str	r0, [sp, #24]
 43c:	e7ff      	b.n	43e <_ZN3app11app_network16send_sensor_data17h6637fc0fb2624307E+0x43e>
/Users/Luppy/mynewt/stm32bluepill-mynewt-sensor/rust/app/src/app_network.rs:65
 43e:	986d      	ldr	r0, [sp, #436]	; 0x1b4
 440:	996e      	ldr	r1, [sp, #440]	; 0x1b8
 442:	907a      	str	r0, [sp, #488]	; 0x1e8
 444:	917b      	str	r1, [sp, #492]	; 0x1ec
_ZN4core3str21_$LT$impl$u20$str$GT$8as_bytes17hbca31947ef6ad219E():
/rustc/50a0defd5a93523067ef239936cc2e0755220904/src/libcore/str/mod.rs:2153
 446:	987a      	ldr	r0, [sp, #488]	; 0x1e8
 448:	997b      	ldr	r1, [sp, #492]	; 0x1ec
 44a:	907c      	str	r0, [sp, #496]	; 0x1f0
 44c:	917d      	str	r1, [sp, #500]	; 0x1f4
 44e:	997c      	ldr	r1, [sp, #496]	; 0x1f0
 450:	9a7d      	ldr	r2, [sp, #500]	; 0x1f4
_ZN3app11app_network16send_sensor_data17h6637fc0fb2624307E():
/Users/Luppy/mynewt/stm32bluepill-mynewt-sensor/rust/app/src/app_network.rs:65
 452:	9105      	str	r1, [sp, #20]
 454:	9204      	str	r2, [sp, #16]
 456:	e7ff      	b.n	458 <_ZN3app11app_network16send_sensor_data17h6637fc0fb2624307E+0x458>
/Users/Luppy/mynewt/stm32bluepill-mynewt-sensor/rust/app/src/lib.rs:1
 458:	f240 0000 	movw	r0, #0
 45c:	f2c0 0000 	movt	r0, #0
 460:	9905      	ldr	r1, [sp, #20]
 462:	9a04      	ldr	r2, [sp, #16]
 464:	f7ff fffe 	bl	0 <_ZN6mynewt8encoding12coap_context11CoapContext11key_to_cstr17h22ec0e6a0be240bcE>
 468:	9003      	str	r0, [sp, #12]
 46a:	e7ff      	b.n	46c <_ZN3app11app_network16send_sensor_data17h6637fc0fb2624307E+0x46c>
/Users/Luppy/mynewt/stm32bluepill-mynewt-sensor/rust/app/src/app_network.rs:65
 46c:	9806      	ldr	r0, [sp, #24]
 46e:	9903      	ldr	r1, [sp, #12]
 470:	f7ff fffe 	bl	0 <json_helper_close_array>
 474:	e7ff      	b.n	2 <json_rep_end_root_object+0x2>
 476:	f7ff fffe 	bl	0 <json_rep_end_root_object>
 47a:	e7ff      	b.n	47c <_ZN3app11app_network16send_sensor_data17h6637fc0fb2624307E+0x47c>
 47c:	a871      	add	r0, sp, #452	; 0x1c4
/Users/Luppy/mynewt/stm32bluepill-mynewt-sensor/rust/app/src/app_network.rs:80
    });

    //  Post the CoAP Server message to the CoAP Background Task for transmission.  After posting the
    //  message to the background task, we release a semaphore that unblocks other requests
    //  to compose and post CoAP messages.
    sensor_network::do_server_post() ? ;
 47e:	f7ff fffe 	bl	0 <_ZN6mynewt4libs14sensor_network14do_server_post17h1c395988b4c7335aE>
 482:	e7ff      	b.n	484 <_ZN3app11app_network16send_sensor_data17h6637fc0fb2624307E+0x484>
 484:	a86f      	add	r0, sp, #444	; 0x1bc
 486:	a971      	add	r1, sp, #452	; 0x1c4
 488:	f7ff fffe 	bl	0 <_ZN73_$LT$core..result..Result$LT$T$C$E$GT$$u20$as$u20$core..ops..try..Try$GT$11into_result17h91dd7052b6c9bbf8E>
 48c:	e7ff      	b.n	48e <_ZN3app11app_network16send_sensor_data17h6637fc0fb2624307E+0x48e>
 48e:	f89d 01bc 	ldrb.w	r0, [sp, #444]	; 0x1bc
 492:	07c1      	lsls	r1, r0, #31
 494:	2900      	cmp	r1, #0
 496:	9002      	str	r0, [sp, #8]
 498:	d012      	beq.n	4c0 <_ZN3app11app_network16send_sensor_data17h6637fc0fb2624307E+0x4c0>
 49a:	e7ff      	b.n	49c <_ZN3app11app_network16send_sensor_data17h6637fc0fb2624307E+0x49c>
 49c:	9802      	ldr	r0, [sp, #8]
 49e:	2801      	cmp	r0, #1
 4a0:	f47f adcf 	bne.w	42 <_ZN3app11app_network16send_sensor_data17h6637fc0fb2624307E+0x42>
 4a4:	e7ff      	b.n	4a6 <_ZN3app11app_network16send_sensor_data17h6637fc0fb2624307E+0x4a6>
 4a6:	9870      	ldr	r0, [sp, #448]	; 0x1c0
 4a8:	9073      	str	r0, [sp, #460]	; 0x1cc
 4aa:	9873      	ldr	r0, [sp, #460]	; 0x1cc
 4ac:	f7ff fffe 	bl	0 <_ZN50_$LT$T$u20$as$u20$core..convert..From$LT$T$GT$$GT$4from17h74fdd30c8f097361E>
 4b0:	9001      	str	r0, [sp, #4]
 4b2:	e7ff      	b.n	4b4 <_ZN3app11app_network16send_sensor_data17h6637fc0fb2624307E+0x4b4>
 4b4:	9801      	ldr	r0, [sp, #4]
 4b6:	f7ff fffe 	bl	0 <_ZN73_$LT$core..result..Result$LT$T$C$E$GT$$u20$as$u20$core..ops..try..Try$GT$10from_error17h01f54dfdd396312fE>
 4ba:	902a      	str	r0, [sp, #168]	; 0xa8
 4bc:	e7ff      	b.n	4be <_ZN3app11app_network16send_sensor_data17h6637fc0fb2624307E+0x4be>
 4be:	e642      	b.n	146 <_ZN3app11app_network16send_sensor_data17h6637fc0fb2624307E+0x146>
 4c0:	f89d 01bd 	ldrb.w	r0, [sp, #445]	; 0x1bd
 4c4:	f88d 01d3 	strb.w	r0, [sp, #467]	; 0x1d3
/Users/Luppy/mynewt/stm32bluepill-mynewt-sensor/rust/app/src/app_network.rs:83

    //  Display the URL with the random device ID for viewing the sensor data.
    console::print("NET view your sensor at \nhttps://blue-pill-geolocate.appspot.com?device=");
 4c8:	f240 0000 	movw	r0, #0
 4cc:	f2c0 0000 	movt	r0, #0
 4d0:	2148      	movs	r1, #72	; 0x48
 4d2:	f7ff fffe 	bl	0 <_ZN6mynewt3sys7console5print17hb1682fdf35bd72e2E>
 4d6:	e7ff      	b.n	4d8 <_ZN3app11app_network16send_sensor_data17h6637fc0fb2624307E+0x4d8>
 4d8:	a82b      	add	r0, sp, #172	; 0xac
/Users/Luppy/mynewt/stm32bluepill-mynewt-sensor/rust/app/src/app_network.rs:84
    console::print_strn(&device_id); console::print("\n");
 4da:	f7ff fffe 	bl	0 <_ZN6mynewt3sys7console10print_strn17h0b2f02e2f9142b3fE>
 4de:	e7ff      	b.n	2 <_ZN3app11app_network16send_sensor_data17h6637fc0fb2624307E+0x2>
 4e0:	f240 0000 	movw	r0, #0
 4e4:	f2c0 0000 	movt	r0, #0
 4e8:	2101      	movs	r1, #1
 4ea:	f7ff fffe 	bl	0 <_ZN6mynewt3sys7console5print17hb1682fdf35bd72e2E>
 4ee:	e7ff      	b.n	4f0 <_ZN3app11app_network16send_sensor_data17h6637fc0fb2624307E+0x4f0>
 4f0:	2000      	movs	r0, #0
/Users/Luppy/mynewt/stm32bluepill-mynewt-sensor/rust/app/src/app_network.rs:87

    //  The CoAP Background Task will transmit the message in the background.
    Ok(())
 4f2:	902a      	str	r0, [sp, #168]	; 0xa8
 4f4:	2001      	movs	r0, #1
 4f6:	902a      	str	r0, [sp, #168]	; 0xa8
/Users/Luppy/mynewt/stm32bluepill-mynewt-sensor/rust/app/src/lib.rs:1
 4f8:	e5b1      	b.n	5e <_ZN3app11app_network16send_sensor_data17h6637fc0fb2624307E+0x5e>

app-f1b560250e7c1912.1r25n1asbsmlozr4.rcgu.o:     file format elf32-littlearm

SYMBOL TABLE:
00000000 l    df *ABS*	00000000 1r25n1asbsmlozr4
000001fc l       .debug_str	00000000 
00000000 l       .debug_str	00000000 
00000041 l       .debug_str	00000000 
00000055 l       .debug_str	00000000 
00000085 l       .debug_str	00000000 
0000008c l       .debug_str	00000000 
00000093 l       .debug_str	00000000 
00000097 l       .debug_str	00000000 
0000009f l       .debug_str	00000000 
000000aa l       .debug_str	00000000 
000000b5 l       .debug_str	00000000 
000000c2 l       .debug_str	00000000 
00000206 l       .debug_str	00000000 
000000cd l       .debug_str	00000000 
000000d5 l       .debug_str	00000000 
000000e0 l       .debug_str	00000000 
000000eb l       .debug_str	00000000 
000000f5 l       .debug_str	00000000 
00000100 l       .debug_str	00000000 
0000010b l       .debug_str	00000000 
00000118 l       .debug_str	00000000 
00000124 l       .debug_str	00000000 
00000131 l       .debug_str	00000000 
0000013f l       .debug_str	00000000 
00000149 l       .debug_str	00000000 
00000156 l       .debug_str	00000000 
00000162 l       .debug_str	00000000 
0000016b l       .debug_str	00000000 
000001cc l       .debug_str	00000000 
000001cf l       .debug_str	00000000 
000001d4 l       .debug_str	00000000 
000001d9 l       .debug_str	00000000 
000001f6 l       .debug_str	00000000 
00000000 l    d  .text._ZN68_$LT$mynewt..result..MynewtError$u20$as$u20$core..cmp..PartialEq$GT$2eq17h4eb0375cc16f0456E	00000000 .text._ZN68_$LT$mynewt..result..MynewtError$u20$as$u20$core..cmp..PartialEq$GT$2eq17h4eb0375cc16f0456E
00000000 l    d  .debug_abbrev	00000000 .debug_abbrev
00000000 l    d  .debug_info	00000000 .debug_info
00000000 l    d  .debug_frame	00000000 .debug_frame
00000000 l    d  .debug_line	00000000 .debug_line
00000000 g     F .text._ZN68_$LT$mynewt..result..MynewtError$u20$as$u20$core..cmp..PartialEq$GT$2eq17h4eb0375cc16f0456E	00000068 .hidden _ZN68_$LT$mynewt..result..MynewtError$u20$as$u20$core..cmp..PartialEq$GT$2eq17h4eb0375cc16f0456E



Disassembly of section .text._ZN68_$LT$mynewt..result..MynewtError$u20$as$u20$core..cmp..PartialEq$GT$2eq17h4eb0375cc16f0456E:

00000000 <_ZN68_$LT$mynewt..result..MynewtError$u20$as$u20$core..cmp..PartialEq$GT$2eq17h4eb0375cc16f0456E>:
_ZN68_$LT$mynewt..result..MynewtError$u20$as$u20$core..cmp..PartialEq$GT$2eq17h4eb0375cc16f0456E():
/Users/Luppy/mynewt/stm32bluepill-mynewt-sensor/rust/mynewt/src/lib.rs:52
    /// Upon error, returns `Err(err)` where err is the MynewtError error code.
    pub type MynewtResult<T> = ::core::result::Result<T, MynewtError>;

    /// Error codes for Mynewt API
    #[repr(i32)]
    #[derive(Debug, PartialEq)]
   0:	b092      	sub	sp, #72	; 0x48
   2:	460a      	mov	r2, r1
   4:	4603      	mov	r3, r0
   6:	9007      	str	r0, [sp, #28]
   8:	9108      	str	r1, [sp, #32]
   a:	9807      	ldr	r0, [sp, #28]
   c:	6800      	ldr	r0, [r0, #0]
   e:	17c1      	asrs	r1, r0, #31
  10:	900e      	str	r0, [sp, #56]	; 0x38
  12:	910f      	str	r1, [sp, #60]	; 0x3c
  14:	980e      	ldr	r0, [sp, #56]	; 0x38
  16:	990f      	ldr	r1, [sp, #60]	; 0x3c
  18:	9206      	str	r2, [sp, #24]
  1a:	9305      	str	r3, [sp, #20]
  1c:	9004      	str	r0, [sp, #16]
  1e:	9103      	str	r1, [sp, #12]
  20:	e7ff      	b.n	22 <_ZN68_$LT$mynewt..result..MynewtError$u20$as$u20$core..cmp..PartialEq$GT$2eq17h4eb0375cc16f0456E+0x22>
  22:	9804      	ldr	r0, [sp, #16]
  24:	900a      	str	r0, [sp, #40]	; 0x28
  26:	9908      	ldr	r1, [sp, #32]
  28:	6809      	ldr	r1, [r1, #0]
  2a:	17ca      	asrs	r2, r1, #31
  2c:	9110      	str	r1, [sp, #64]	; 0x40
  2e:	9211      	str	r2, [sp, #68]	; 0x44
  30:	9910      	ldr	r1, [sp, #64]	; 0x40
  32:	9a11      	ldr	r2, [sp, #68]	; 0x44
  34:	9102      	str	r1, [sp, #8]
  36:	9201      	str	r2, [sp, #4]
  38:	e7ff      	b.n	3a <_ZN68_$LT$mynewt..result..MynewtError$u20$as$u20$core..cmp..PartialEq$GT$2eq17h4eb0375cc16f0456E+0x3a>
  3a:	9802      	ldr	r0, [sp, #8]
  3c:	900b      	str	r0, [sp, #44]	; 0x2c
  3e:	990a      	ldr	r1, [sp, #40]	; 0x28
  40:	9a0b      	ldr	r2, [sp, #44]	; 0x2c
  42:	4291      	cmp	r1, r2
  44:	d108      	bne.n	58 <_ZN68_$LT$mynewt..result..MynewtError$u20$as$u20$core..cmp..PartialEq$GT$2eq17h4eb0375cc16f0456E+0x58>
  46:	e7ff      	b.n	48 <_ZN68_$LT$mynewt..result..MynewtError$u20$as$u20$core..cmp..PartialEq$GT$2eq17h4eb0375cc16f0456E+0x48>
  48:	9807      	ldr	r0, [sp, #28]
  4a:	9908      	ldr	r1, [sp, #32]
  4c:	900c      	str	r0, [sp, #48]	; 0x30
  4e:	910d      	str	r1, [sp, #52]	; 0x34
  50:	2001      	movs	r0, #1
  52:	f88d 0027 	strb.w	r0, [sp, #39]	; 0x27
  56:	e003      	b.n	60 <_ZN68_$LT$mynewt..result..MynewtError$u20$as$u20$core..cmp..PartialEq$GT$2eq17h4eb0375cc16f0456E+0x60>
  58:	2000      	movs	r0, #0
  5a:	f88d 0027 	strb.w	r0, [sp, #39]	; 0x27
  5e:	e7ff      	b.n	60 <_ZN68_$LT$mynewt..result..MynewtError$u20$as$u20$core..cmp..PartialEq$GT$2eq17h4eb0375cc16f0456E+0x60>
  60:	f89d 0027 	ldrb.w	r0, [sp, #39]	; 0x27
  64:	b012      	add	sp, #72	; 0x48
  66:	4770      	bx	lr

app-f1b560250e7c1912.3kxuqob6slyisrfp.rcgu.o:     file format elf32-littlearm

SYMBOL TABLE:
00000000 l    df *ABS*	00000000 3kxuqob6slyisrfp
000021c4 l       .debug_str	00000000 
00002775 l       .debug_str	00000000 
0000277f l       .debug_str	00000000 
00002782 l       .debug_str	00000000 
00002788 l       .debug_str	00000000 
00002792 l       .debug_str	00000000 
0000279a l       .debug_str	00000000 
000027a0 l       .debug_str	00000000 
000027a6 l       .debug_str	00000000 
000027b1 l       .debug_str	00000000 
000027ba l       .debug_str	00000000 
000027dd l       .debug_str	00000000 
000027fc l       .debug_str	00000000 
00002823 l       .debug_str	00000000 
00002828 l       .debug_str	00000000 
0000282e l       .debug_str	00000000 
00002834 l       .debug_str	00000000 
00002843 l       .debug_str	00000000 
00002847 l       .debug_str	00000000 
00002850 l       .debug_str	00000000 
00002858 l       .debug_str	00000000 
00002860 l       .debug_str	00000000 
00002867 l       .debug_str	00000000 
00002873 l       .debug_str	00000000 
0000287f l       .debug_str	00000000 
00002898 l       .debug_str	00000000 
0000289d l       .debug_str	00000000 
000028ae l       .debug_str	00000000 
000028b8 l       .debug_str	00000000 
000028c6 l       .debug_str	00000000 
000028ca l       .debug_str	00000000 
000028d5 l       .debug_str	00000000 
000028dc l       .debug_str	00000000 
000028e2 l       .debug_str	00000000 
000028e6 l       .debug_str	00000000 
000028ea l       .debug_str	00000000 
000028f2 l       .debug_str	00000000 
00002909 l       .debug_str	00000000 
0000292d l       .debug_str	00000000 
00002949 l       .debug_str	00000000 
00002953 l       .debug_str	00000000 
0000296d l       .debug_str	00000000 
000029cb l       .debug_str	00000000 
000029d6 l       .debug_str	00000000 
000029f3 l       .debug_str	00000000 
00002a0c l       .debug_str	00000000 
00002a16 l       .debug_str	00000000 
00002a2c l       .debug_str	00000000 
00002a30 l       .debug_str	00000000 
00000000 l       .debug_str	00000000 
00000041 l       .debug_str	00000000 
00000055 l       .debug_str	00000000 
00000085 l       .debug_str	00000000 
00000089 l       .debug_str	00000000 
00000094 l       .debug_str	00000000 
000000a2 l       .debug_str	00000000 
000000a9 l       .debug_str	00000000 
000000ad l       .debug_str	00000000 
000000b0 l       .debug_str	00000000 
000000b8 l       .debug_str	00000000 
000000bc l       .debug_str	00000000 
000000c5 l       .debug_str	00000000 
000000cf l       .debug_str	00000000 
000000d6 l       .debug_str	00000000 
000000dc l       .debug_str	00000000 
000000e2 l       .debug_str	00000000 
000000e7 l       .debug_str	00000000 
000000ef l       .debug_str	00000000 
000000f4 l       .debug_str	00000000 
0000012b l       .debug_str	00000000 
00000132 l       .debug_str	00000000 
00000136 l       .debug_str	00000000 
0000013e l       .debug_str	00000000 
00000149 l       .debug_str	00000000 
00000154 l       .debug_str	00000000 
00000161 l       .debug_str	00000000 
0000016c l       .debug_str	00000000 
00000174 l       .debug_str	00000000 
0000017f l       .debug_str	00000000 
0000018a l       .debug_str	00000000 
00000194 l       .debug_str	00000000 
0000019f l       .debug_str	00000000 
000001aa l       .debug_str	00000000 
000001b7 l       .debug_str	00000000 
000001c3 l       .debug_str	00000000 
000001d0 l       .debug_str	00000000 
000001de l       .debug_str	00000000 
000001e8 l       .debug_str	00000000 
000001f5 l       .debug_str	00000000 
00000201 l       .debug_str	00000000 
00000206 l       .debug_str	00000000 
0000020a l       .debug_str	00000000 
00000215 l       .debug_str	00000000 
00000220 l       .debug_str	00000000 
00000227 l       .debug_str	00000000 
0000022b l       .debug_str	00000000 
0000022e l       .debug_str	00000000 
00000231 l       .debug_str	00000000 
00000236 l       .debug_str	00000000 
0000023c l       .debug_str	00000000 
00000243 l       .debug_str	00000000 
0000024b l       .debug_str	00000000 
00000255 l       .debug_str	00000000 
00000258 l       .debug_str	00000000 
0000025c l       .debug_str	00000000 
00000263 l       .debug_str	00000000 
000002a2 l       .debug_str	00000000 
000002b8 l       .debug_str	00000000 
000002bc l       .debug_str	00000000 
000002bf l       .debug_str	00000000 
000002c1 l       .debug_str	00000000 
000002c3 l       .debug_str	00000000 
000002eb l       .debug_str	00000000 
00000327 l       .debug_str	00000000 
0000033a l       .debug_str	00000000 
00000377 l       .debug_str	00000000 
0000038b l       .debug_str	00000000 
0000038e l       .debug_str	00000000 
00000395 l       .debug_str	00000000 
00000399 l       .debug_str	00000000 
000003a7 l       .debug_str	00000000 
000003ab l       .debug_str	00000000 
000003b0 l       .debug_str	00000000 
000003b5 l       .debug_str	00000000 
000003bb l       .debug_str	00000000 
000003bf l       .debug_str	00000000 
000003cf l       .debug_str	00000000 
000003db l       .debug_str	00000000 
00000413 l       .debug_str	00000000 
00000422 l       .debug_str	00000000 
00000427 l       .debug_str	00000000 
00000430 l       .debug_str	00000000 
00000436 l       .debug_str	00000000 
0000043d l       .debug_str	00000000 
00000440 l       .debug_str	00000000 
0000044c l       .debug_str	00000000 
00000454 l       .debug_str	00000000 
0000045b l       .debug_str	00000000 
00000472 l       .debug_str	00000000 
000004cc l       .debug_str	00000000 
000004d1 l       .debug_str	00000000 
00000533 l       .debug_str	00000000 
0000053e l       .debug_str	00000000 
00000585 l       .debug_str	00000000 
000005d4 l       .debug_str	00000000 
000005de l       .debug_str	00000000 
0000061b l       .debug_str	00000000 
00000660 l       .debug_str	00000000 
00000669 l       .debug_str	00000000 
00000679 l       .debug_str	00000000 
00000681 l       .debug_str	00000000 
000006d6 l       .debug_str	00000000 
00000733 l       .debug_str	00000000 
0000073f l       .debug_str	00000000 
00000748 l       .debug_str	00000000 
00000754 l       .debug_str	00000000 
00000760 l       .debug_str	00000000 
00000769 l       .debug_str	00000000 
00000771 l       .debug_str	00000000 
00000779 l       .debug_str	00000000 
00000783 l       .debug_str	00000000 
00000798 l       .debug_str	00000000 
0000079f l       .debug_str	00000000 
000007bf l       .debug_str	00000000 
000007c6 l       .debug_str	00000000 
000007ce l       .debug_str	00000000 
000007d8 l       .debug_str	00000000 
000007e3 l       .debug_str	00000000 
000007ec l       .debug_str	00000000 
000007f7 l       .debug_str	00000000 
00000803 l       .debug_str	00000000 
00000807 l       .debug_str	00000000 
00000810 l       .debug_str	00000000 
00000817 l       .debug_str	00000000 
0000081f l       .debug_str	00000000 
00000827 l       .debug_str	00000000 
00000831 l       .debug_str	00000000 
00000837 l       .debug_str	00000000 
0000083e l       .debug_str	00000000 
00000845 l       .debug_str	00000000 
00000872 l       .debug_str	00000000 
000008a7 l       .debug_str	00000000 
000008ad l       .debug_str	00000000 
000008b3 l       .debug_str	00000000 
000008c2 l       .debug_str	00000000 
000008d2 l       .debug_str	00000000 
000008e2 l       .debug_str	00000000 
000008ea l       .debug_str	00000000 
00000913 l       .debug_str	00000000 
00000971 l       .debug_str	00000000 
000009d7 l       .debug_str	00000000 
000009de l       .debug_str	00000000 
000009e6 l       .debug_str	00000000 
000009ef l       .debug_str	00000000 
00000a0d l       .debug_str	00000000 
00000a1d l       .debug_str	00000000 
00000a2b l       .debug_str	00000000 
00000a36 l       .debug_str	00000000 
00000a43 l       .debug_str	00000000 
00000a52 l       .debug_str	00000000 
00000a68 l       .debug_str	00000000 
00000a72 l       .debug_str	00000000 
00000a7b l       .debug_str	00000000 
00000a84 l       .debug_str	00000000 
00000aaa l       .debug_str	00000000 
00000ac0 l       .debug_str	00000000 
00000acb l       .debug_str	00000000 
00000ae1 l       .debug_str	00000000 
00000ae9 l       .debug_str	00000000 
00000b0a l       .debug_str	00000000 
00000b21 l       .debug_str	00000000 
00000b26 l       .debug_str	00000000 
00000b2e l       .debug_str	00000000 
00000b37 l       .debug_str	00000000 
00000b40 l       .debug_str	00000000 
00000b49 l       .debug_str	00000000 
00000b51 l       .debug_str	00000000 
00000b55 l       .debug_str	00000000 
00000b5c l       .debug_str	00000000 
00000b68 l       .debug_str	00000000 
00000b73 l       .debug_str	00000000 
00000b7b l       .debug_str	00000000 
00000b83 l       .debug_str	00000000 
00000bff l       .debug_str	00000000 
00000c83 l       .debug_str	00000000 
00000d7f l       .debug_str	00000000 
00000e83 l       .debug_str	00000000 
00000e91 l       .debug_str	00000000 
00000e9c l       .debug_str	00000000 
00000ea6 l       .debug_str	00000000 
00000eba l       .debug_str	00000000 
00000ec5 l       .debug_str	00000000 
00000ef3 l       .debug_str	00000000 
00000f6e l       .debug_str	00000000 
00000ff1 l       .debug_str	00000000 
00000fff l       .debug_str	00000000 
0000105e l       .debug_str	00000000 
000010c5 l       .debug_str	00000000 
000010db l       .debug_str	00000000 
000010eb l       .debug_str	00000000 
000010fa l       .debug_str	00000000 
000010fe l       .debug_str	00000000 
00001105 l       .debug_str	00000000 
0000110b l       .debug_str	00000000 
00001111 l       .debug_str	00000000 
00001117 l       .debug_str	00000000 
00001123 l       .debug_str	00000000 
0000112b l       .debug_str	00000000 
00001131 l       .debug_str	00000000 
00001139 l       .debug_str	00000000 
0000113f l       .debug_str	00000000 
00001162 l       .debug_str	00000000 
00001172 l       .debug_str	00000000 
000011a5 l       .debug_str	00000000 
000011e5 l       .debug_str	00000000 
0000122d l       .debug_str	00000000 
00001231 l       .debug_str	00000000 
00001237 l       .debug_str	00000000 
0000123d l       .debug_str	00000000 
00001243 l       .debug_str	00000000 
00001255 l       .debug_str	00000000 
0000128a l       .debug_str	00000000 
000012cc l       .debug_str	00000000 
00001316 l       .debug_str	00000000 
0000131a l       .debug_str	00000000 
00001320 l       .debug_str	00000000 
00001326 l       .debug_str	00000000 
0000132c l       .debug_str	00000000 
0000133e l       .debug_str	00000000 
00001373 l       .debug_str	00000000 
000013b5 l       .debug_str	00000000 
000013ff l       .debug_str	00000000 
00001403 l       .debug_str	00000000 
00001409 l       .debug_str	00000000 
0000140f l       .debug_str	00000000 
00001415 l       .debug_str	00000000 
0000141b l       .debug_str	00000000 
0000142c l       .debug_str	00000000 
00001460 l       .debug_str	00000000 
000014a1 l       .debug_str	00000000 
000014ea l       .debug_str	00000000 
000014ef l       .debug_str	00000000 
000014f4 l       .debug_str	00000000 
000014f8 l       .debug_str	00000000 
000014fe l       .debug_str	00000000 
00001504 l       .debug_str	00000000 
0000150a l       .debug_str	00000000 
0000151b l       .debug_str	00000000 
0000154f l       .debug_str	00000000 
00001590 l       .debug_str	00000000 
000015d9 l       .debug_str	00000000 
000015dd l       .debug_str	00000000 
000015e6 l       .debug_str	00000000 
000015f7 l       .debug_str	00000000 
0000162b l       .debug_str	00000000 
0000166c l       .debug_str	00000000 
000016b5 l       .debug_str	00000000 
000016ba l       .debug_str	00000000 
000016be l       .debug_str	00000000 
000016c7 l       .debug_str	00000000 
000016ce l       .debug_str	00000000 
000016d6 l       .debug_str	00000000 
000016e8 l       .debug_str	00000000 
0000171d l       .debug_str	00000000 
0000175f l       .debug_str	00000000 
000017a9 l       .debug_str	00000000 
000017ad l       .debug_str	00000000 
000017b3 l       .debug_str	00000000 
000017b9 l       .debug_str	00000000 
000017bf l       .debug_str	00000000 
000017c5 l       .debug_str	00000000 
000017cd l       .debug_str	00000000 
000017db l       .debug_str	00000000 
000017ea l       .debug_str	00000000 
000017fb l       .debug_str	00000000 
00001806 l       .debug_str	00000000 
00001811 l       .debug_str	00000000 
0000181c l       .debug_str	00000000 
00001823 l       .debug_str	00000000 
00001846 l       .debug_str	00000000 
00001858 l       .debug_str	00000000 
0000188d l       .debug_str	00000000 
000018cf l       .debug_str	00000000 
00001919 l       .debug_str	00000000 
0000191d l       .debug_str	00000000 
00001927 l       .debug_str	00000000 
00001939 l       .debug_str	00000000 
0000196e l       .debug_str	00000000 
000019b0 l       .debug_str	00000000 
000019fa l       .debug_str	00000000 
000019ff l       .debug_str	00000000 
00001a09 l       .debug_str	00000000 
00001a1b l       .debug_str	00000000 
00001a50 l       .debug_str	00000000 
00001a92 l       .debug_str	00000000 
00001adc l       .debug_str	00000000 
00001af0 l       .debug_str	00000000 
00001af4 l       .debug_str	00000000 
00001b02 l       .debug_str	00000000 
00001b12 l       .debug_str	00000000 
00001b1b l       .debug_str	00000000 
00001b26 l       .debug_str	00000000 
00001b35 l       .debug_str	00000000 
00001b4a l       .debug_str	00000000 
00001b7b l       .debug_str	00000000 
00001c18 l       .debug_str	00000000 
00001cbd l       .debug_str	00000000 
00001cc8 l       .debug_str	00000000 
00001cd1 l       .debug_str	00000000 
00001cf2 l       .debug_str	00000000 
00001d05 l       .debug_str	00000000 
00001d3b l       .debug_str	00000000 
00001dbe l       .debug_str	00000000 
00001e49 l       .debug_str	00000000 
00001e65 l       .debug_str	00000000 
00001eb1 l       .debug_str	00000000 
00001f05 l       .debug_str	00000000 
00001f22 l       .debug_str	00000000 
00001f36 l       .debug_str	00000000 
00001f82 l       .debug_str	00000000 
00001fd6 l       .debug_str	00000000 
00001fec l       .debug_str	00000000 
00002000 l       .debug_str	00000000 
00002047 l       .debug_str	00000000 
00002096 l       .debug_str	00000000 
0000209f l       .debug_str	00000000 
000020ad l       .debug_str	00000000 
000020de l       .debug_str	00000000 
000020e4 l       .debug_str	00000000 
000020ec l       .debug_str	00000000 
000020f3 l       .debug_str	00000000 
000020fb l       .debug_str	00000000 
00002106 l       .debug_str	00000000 
0000210e l       .debug_str	00000000 
0000211d l       .debug_str	00000000 
00002121 l       .debug_str	00000000 
0000212c l       .debug_str	00000000 
00002138 l       .debug_str	00000000 
00002143 l       .debug_str	00000000 
00002154 l       .debug_str	00000000 
0000215a l       .debug_str	00000000 
00002162 l       .debug_str	00000000 
00002169 l       .debug_str	00000000 
00002173 l       .debug_str	00000000 
0000217b l       .debug_str	00000000 
00002183 l       .debug_str	00000000 
000021a5 l       .debug_str	00000000 
000021b0 l       .debug_str	00000000 
000021bc l       .debug_str	00000000 
000021cd l       .debug_str	00000000 
000021d8 l       .debug_str	00000000 
000021df l       .debug_str	00000000 
000021ea l       .debug_str	00000000 
000021f5 l       .debug_str	00000000 
00002205 l       .debug_str	00000000 
0000220f l       .debug_str	00000000 
00002215 l       .debug_str	00000000 
00002237 l       .debug_str	00000000 
0000226f l       .debug_str	00000000 
000022af l       .debug_str	00000000 
000022b6 l       .debug_str	00000000 
000022be l       .debug_str	00000000 
000022d5 l       .debug_str	00000000 
000022de l       .debug_str	00000000 
000022ee l       .debug_str	00000000 
000022fd l       .debug_str	00000000 
00002305 l       .debug_str	00000000 
0000230c l       .debug_str	00000000 
00002314 l       .debug_str	00000000 
00002332 l       .debug_str	00000000 
00002342 l       .debug_str	00000000 
00002375 l       .debug_str	00000000 
0000238a l       .debug_str	00000000 
00002393 l       .debug_str	00000000 
000023f0 l       .debug_str	00000000 
00002455 l       .debug_str	00000000 
0000245f l       .debug_str	00000000 
0000246f l       .debug_str	00000000 
00002484 l       .debug_str	00000000 
0000248c l       .debug_str	00000000 
000024f0 l       .debug_str	00000000 
0000255c l       .debug_str	00000000 
00002563 l       .debug_str	00000000 
0000256b l       .debug_str	00000000 
00002589 l       .debug_str	00000000 
00002599 l       .debug_str	00000000 
000025cc l       .debug_str	00000000 
000025e1 l       .debug_str	00000000 
000025f4 l       .debug_str	00000000 
00002609 l       .debug_str	00000000 
00002610 l       .debug_str	00000000 
00002625 l       .debug_str	00000000 
0000264f l       .debug_str	00000000 
00002653 l       .debug_str	00000000 
0000265c l       .debug_str	00000000 
00002661 l       .debug_str	00000000 
0000266d l       .debug_str	00000000 
00002679 l       .debug_str	00000000 
00002686 l       .debug_str	00000000 
0000268a l       .debug_str	00000000 
000026ae l       .debug_str	00000000 
000026ba l       .debug_str	00000000 
000026c8 l       .debug_str	00000000 
000026df l       .debug_str	00000000 
000026f4 l       .debug_str	00000000 
000026f7 l       .debug_str	00000000 
00002700 l       .debug_str	00000000 
00002705 l       .debug_str	00000000 
0000270f l       .debug_str	00000000 
00002714 l       .debug_str	00000000 
0000271a l       .debug_str	00000000 
0000271f l       .debug_str	00000000 
00002724 l       .debug_str	00000000 
0000272b l       .debug_str	00000000 
00002730 l       .debug_str	00000000 
0000273c l       .debug_str	00000000 
00002744 l       .debug_str	00000000 
0000274d l       .debug_str	00000000 
00002752 l       .debug_str	00000000 
00002755 l       .debug_str	00000000 
0000275e l       .debug_str	00000000 
00002765 l       .debug_str	00000000 
0000276a l       .debug_str	00000000 
0000276f l       .debug_str	00000000 
00000000 l     O .rodata..Lanon.1da65b9e18cdac36dd7514f94a23b15c.1	0000000e .Lanon.1da65b9e18cdac36dd7514f94a23b15c.1
00000000 l     O .rodata.cst4	00000004 .Lanon.1da65b9e18cdac36dd7514f94a23b15c.10
00000000 l     O .rodata..Lanon.1da65b9e18cdac36dd7514f94a23b15c.11	00000016 .Lanon.1da65b9e18cdac36dd7514f94a23b15c.11
00000000 l     O .rodata..Lanon.1da65b9e18cdac36dd7514f94a23b15c.12	00000018 .Lanon.1da65b9e18cdac36dd7514f94a23b15c.12
00000000 l     O .rodata..Lanon.1da65b9e18cdac36dd7514f94a23b15c.14	0000000c .Lanon.1da65b9e18cdac36dd7514f94a23b15c.14
00000004 l     O .rodata.cst4	00000004 .Lanon.1da65b9e18cdac36dd7514f94a23b15c.15
00000000 l     O .rodata..Lanon.1da65b9e18cdac36dd7514f94a23b15c.19	00000018 .Lanon.1da65b9e18cdac36dd7514f94a23b15c.19
00000000 l     O .rodata..Lanon.1da65b9e18cdac36dd7514f94a23b15c.21	00000008 .Lanon.1da65b9e18cdac36dd7514f94a23b15c.21
00000000 l     O .rodata..Lanon.1da65b9e18cdac36dd7514f94a23b15c.22	00000000 .Lanon.1da65b9e18cdac36dd7514f94a23b15c.22
00000000 l     O .rodata..Lanon.1da65b9e18cdac36dd7514f94a23b15c.23	00000010 .Lanon.1da65b9e18cdac36dd7514f94a23b15c.23
00000000 l     O .rodata..Lanon.1da65b9e18cdac36dd7514f94a23b15c.24	00000001 .Lanon.1da65b9e18cdac36dd7514f94a23b15c.24
00000000 l     O .rodata..Lanon.1da65b9e18cdac36dd7514f94a23b15c.26	00000018 .Lanon.1da65b9e18cdac36dd7514f94a23b15c.26
00000000 l     O .rodata..Lanon.1da65b9e18cdac36dd7514f94a23b15c.28	00000008 .Lanon.1da65b9e18cdac36dd7514f94a23b15c.28
00000000 l     O .rodata..Lanon.1da65b9e18cdac36dd7514f94a23b15c.29	00000010 .Lanon.1da65b9e18cdac36dd7514f94a23b15c.29
00000000 l     O .rodata..Lanon.1da65b9e18cdac36dd7514f94a23b15c.4	00000018 .Lanon.1da65b9e18cdac36dd7514f94a23b15c.4
00000000 l     O .rodata..Lanon.1da65b9e18cdac36dd7514f94a23b15c.5	00000018 .Lanon.1da65b9e18cdac36dd7514f94a23b15c.5
00000000 l     O .rodata..Lanon.1da65b9e18cdac36dd7514f94a23b15c.7	00000018 .Lanon.1da65b9e18cdac36dd7514f94a23b15c.7
00000000 l     O .rodata.cst8	00000008 .Lanon.1da65b9e18cdac36dd7514f94a23b15c.8
00000000 l     O .rodata..Lanon.1da65b9e18cdac36dd7514f94a23b15c.9	00000018 .Lanon.1da65b9e18cdac36dd7514f94a23b15c.9
00000000 l     O .rodata._ZN3app10app_sensor13SENSOR_DEVICE17h7673cb8d7a020577E	0000000c _ZN3app10app_sensor13SENSOR_DEVICE17h7673cb8d7a020577E
00000000 l     F .text._ZN3app10app_sensor14standby_wakeup17hcba670e2cd66cdf7E	0000002c _ZN3app10app_sensor14standby_wakeup17hcba670e2cd66cdf7E
00000000 l     F .text._ZN3app10app_sensor18handle_sensor_data17h8ba1ab377474ac2bE	000000f6 _ZN3app10app_sensor18handle_sensor_data17h8ba1ab377474ac2bE
00000000 l     F .text._ZN3app10app_sensor19convert_sensor_data17h5eeac278bb2f2f4bE	00000250 _ZN3app10app_sensor19convert_sensor_data17h5eeac278bb2f2f4bE
00000000 l    d  .text._ZN3app10app_sensor21start_sensor_listener17h7939c7ebab994b0cE	00000000 .text._ZN3app10app_sensor21start_sensor_listener17h7939c7ebab994b0cE
00000000 l    d  .text._ZN3app10app_sensor18handle_sensor_data17h8ba1ab377474ac2bE	00000000 .text._ZN3app10app_sensor18handle_sensor_data17h8ba1ab377474ac2bE
00000000 l    d  .text._ZN3app10app_sensor19convert_sensor_data17h5eeac278bb2f2f4bE	00000000 .text._ZN3app10app_sensor19convert_sensor_data17h5eeac278bb2f2f4bE
00000000 l    d  .text._ZN3app10app_sensor14standby_wakeup17hcba670e2cd66cdf7E	00000000 .text._ZN3app10app_sensor14standby_wakeup17hcba670e2cd66cdf7E
00000000 l    d  .rodata..Lanon.1da65b9e18cdac36dd7514f94a23b15c.0	00000000 .rodata..Lanon.1da65b9e18cdac36dd7514f94a23b15c.0
00000000 l    d  .rodata._ZN3app10app_sensor13SENSOR_DEVICE17h7673cb8d7a020577E	00000000 .rodata._ZN3app10app_sensor13SENSOR_DEVICE17h7673cb8d7a020577E
00000000 l    d  .rodata..Lanon.1da65b9e18cdac36dd7514f94a23b15c.2	00000000 .rodata..Lanon.1da65b9e18cdac36dd7514f94a23b15c.2
00000000 l    d  .rodata..Lanon.1da65b9e18cdac36dd7514f94a23b15c.3	00000000 .rodata..Lanon.1da65b9e18cdac36dd7514f94a23b15c.3
00000000 l    d  .rodata..Lanon.1da65b9e18cdac36dd7514f94a23b15c.6	00000000 .rodata..Lanon.1da65b9e18cdac36dd7514f94a23b15c.6
00000000 l    d  .rodata..Lanon.1da65b9e18cdac36dd7514f94a23b15c.13	00000000 .rodata..Lanon.1da65b9e18cdac36dd7514f94a23b15c.13
00000000 l    d  .rodata..Lanon.1da65b9e18cdac36dd7514f94a23b15c.16	00000000 .rodata..Lanon.1da65b9e18cdac36dd7514f94a23b15c.16
00000000 l    d  .rodata..Lanon.1da65b9e18cdac36dd7514f94a23b15c.17	00000000 .rodata..Lanon.1da65b9e18cdac36dd7514f94a23b15c.17
00000000 l    d  .rodata..Lanon.1da65b9e18cdac36dd7514f94a23b15c.18	00000000 .rodata..Lanon.1da65b9e18cdac36dd7514f94a23b15c.18
00000000 l    d  .rodata..Lanon.1da65b9e18cdac36dd7514f94a23b15c.20	00000000 .rodata..Lanon.1da65b9e18cdac36dd7514f94a23b15c.20
00000000 l    d  .rodata..Lanon.1da65b9e18cdac36dd7514f94a23b15c.25	00000000 .rodata..Lanon.1da65b9e18cdac36dd7514f94a23b15c.25
00000000 l    d  .rodata..Lanon.1da65b9e18cdac36dd7514f94a23b15c.27	00000000 .rodata..Lanon.1da65b9e18cdac36dd7514f94a23b15c.27
00000000 l    d  .debug_abbrev	00000000 .debug_abbrev
00000000 l    d  .debug_info	00000000 .debug_info
00000000 l    d  .debug_ranges	00000000 .debug_ranges
00000000 l    d  .debug_frame	00000000 .debug_frame
00000000 l    d  .debug_line	00000000 .debug_line
00000000 g     F .text._ZN3app10app_sensor21start_sensor_listener17h7939c7ebab994b0cE	00000220 .hidden _ZN3app10app_sensor21start_sensor_listener17h7939c7ebab994b0cE
00000000         *UND*	00000000 .hidden _ZN3app11app_network16send_sensor_data17h6637fc0fb2624307E
00000000         *UND*	00000000 _ZN42_$LT$$RF$T$u20$as$u20$core..fmt..Debug$GT$3fmt17h1fa2856d91e98cc6E
00000000         *UND*	00000000 _ZN42_$LT$$RF$T$u20$as$u20$core..fmt..Debug$GT$3fmt17h75926216b49f1528E
00000000         *UND*	00000000 _ZN4core3fmt10ArgumentV13new17h1252490a845702b2E
00000000         *UND*	00000000 _ZN4core3fmt10ArgumentV13new17h1fd456c0303f7393E
00000000         *UND*	00000000 _ZN4core3fmt10ArgumentV13new17h3ff460d93d7be67eE
00000000         *UND*	00000000 .hidden _ZN4core3fmt9Arguments6new_v117h65750cb239a0e359E
00000000         *UND*	00000000 _ZN4core3ptr31_$LT$impl$u20$$BP$mut$u20$T$GT$7is_null17h338d2aa41f137666E
00000000         *UND*	00000000 _ZN4core3ptr31_$LT$impl$u20$$BP$mut$u20$T$GT$7is_null17h4fa429edeff1280eE
00000000         *UND*	00000000 _ZN4core3ptr8null_mut17h24cf814abebeb867E
00000000         *UND*	00000000 _ZN4core3ptr8null_mut17h9bb218a56760d6c4E
00000000         *UND*	00000000 _ZN4core9panicking5panic17h53ca63c6ac6312f8E
00000000         *UND*	00000000 _ZN4core9panicking9panic_fmt17h6b4d8e87b0965449E
00000000         *UND*	00000000 _ZN50_$LT$T$u20$as$u20$core..convert..From$LT$T$GT$$GT$4from17h74fdd30c8f097361E
00000000         *UND*	00000000 _ZN59_$LT$core..fmt..Arguments$u20$as$u20$core..fmt..Display$GT$3fmt17h3e269ca172b8335aE
00000000         *UND*	00000000 .hidden _ZN68_$LT$mynewt..result..MynewtError$u20$as$u20$core..cmp..PartialEq$GT$2eq17h4eb0375cc16f0456E
00000000         *UND*	00000000 _ZN6mynewt2hw6sensor10as_untyped17hf4c7558e853ffc61E
00000000         *UND*	00000000 _ZN6mynewt2hw6sensor17register_listener17h1bd7e4beeee805d1E
00000000         *UND*	00000000 _ZN6mynewt2hw6sensor8bindings16set_poll_rate_ms17h3c50d102cc4dcf23E
00000000         *UND*	00000000 _ZN6mynewt2hw6sensor8bindings23mgr_find_next_bydevname17ha84c56fba2778274E
00000000         *UND*	00000000 _ZN6mynewt2hw6sensor8bindings4read17h70a6dd985d5efdbfE
00000000         *UND*	00000000 _ZN6mynewt3sys7console5print17hb1682fdf35bd72e2E
00000000         *UND*	00000000 _ZN73_$LT$core..result..Result$LT$T$C$E$GT$$u20$as$u20$core..ops..try..Try$GT$10from_error17h01f54dfdd396312fE
00000000         *UND*	00000000 _ZN73_$LT$core..result..Result$LT$T$C$E$GT$$u20$as$u20$core..ops..try..Try$GT$11into_result17h3db1ad3c3d82dc49E
00000000         *UND*	00000000 _ZN73_$LT$core..result..Result$LT$T$C$E$GT$$u20$as$u20$core..ops..try..Try$GT$11into_result17hb671b49d1f1f4fa3E
00000000         *UND*	00000000 __aeabi_memcpy
00000000         *UND*	00000000 get_temp_raw_data
00000000         *UND*	00000000 power_standby_wakeup



Disassembly of section .text._ZN3app10app_sensor21start_sensor_listener17h7939c7ebab994b0cE:

00000000 <_ZN3app10app_sensor21start_sensor_listener17h7939c7ebab994b0cE>:
_ZN3app10app_sensor21start_sensor_listener17h7939c7ebab994b0cE():
/Users/Luppy/mynewt/stm32bluepill-mynewt-sensor/rust/app/src/app_sensor.rs:49
///  Type of sensor: Raw temperature sensor (integer sensor values 0 to 4095)
const TEMP_SENSOR_TYPE: sensor_type_t = sensor::SENSOR_TYPE_AMBIENT_TEMPERATURE_RAW;

///  Ask Mynewt to poll or read the temperature sensor and call `handle_sensor_data()`
///  Return `Ok()` if successful, else return `Err()` with `MynewtError` error code inside.
pub fn start_sensor_listener() -> MynewtResult<()>  {  //  Returns an error code upon error.
   0:	b5f0      	push	{r4, r5, r6, r7, lr}
   2:	b0c3      	sub	sp, #268	; 0x10c
/Users/Luppy/mynewt/stm32bluepill-mynewt-sensor/rust/app/src/app_sensor.rs:50
    console::print("Rust TMP poll\n");
   4:	f240 0000 	movw	r0, #0
   8:	f2c0 0000 	movt	r0, #0
   c:	210e      	movs	r1, #14
   e:	f7ff fffe 	bl	0 <_ZN6mynewt3sys7console5print17hb1682fdf35bd72e2E>
  12:	e7ff      	b.n	2 <_ZN4core3ptr8null_mut17h24cf814abebeb867E+0x2>
/Users/Luppy/mynewt/stm32bluepill-mynewt-sensor/rust/app/src/app_sensor.rs:53

    //  Fetch the sensor by name, without locking the driver for exclusive access.
    let sensor = sensor::mgr_find_next_bydevname(&SENSOR_DEVICE, core::ptr::null_mut()) ? ;
  14:	f7ff fffe 	bl	0 <_ZN4core3ptr8null_mut17h24cf814abebeb867E>
  18:	9016      	str	r0, [sp, #88]	; 0x58
  1a:	e7ff      	b.n	1c <_ZN3app10app_sensor21start_sensor_listener17h7939c7ebab994b0cE+0x1c>
  1c:	f240 0100 	movw	r1, #0
  20:	f2c0 0100 	movt	r1, #0
  24:	a81b      	add	r0, sp, #108	; 0x6c
  26:	9a16      	ldr	r2, [sp, #88]	; 0x58
  28:	f7ff fffe 	bl	0 <_ZN6mynewt2hw6sensor8bindings23mgr_find_next_bydevname17ha84c56fba2778274E>
  2c:	e7ff      	b.n	2e <_ZN3app10app_sensor21start_sensor_listener17h7939c7ebab994b0cE+0x2e>
  2e:	a819      	add	r0, sp, #100	; 0x64
  30:	a91b      	add	r1, sp, #108	; 0x6c
  32:	f7ff fffe 	bl	0 <_ZN73_$LT$core..result..Result$LT$T$C$E$GT$$u20$as$u20$core..ops..try..Try$GT$11into_result17h3db1ad3c3d82dc49E>
  36:	e7ff      	b.n	38 <_ZN3app10app_sensor21start_sensor_listener17h7939c7ebab994b0cE+0x38>
  38:	9819      	ldr	r0, [sp, #100]	; 0x64
  3a:	2800      	cmp	r0, #0
  3c:	9015      	str	r0, [sp, #84]	; 0x54
  3e:	d016      	beq.n	6e <_ZN3app10app_sensor21start_sensor_listener17h7939c7ebab994b0cE+0x6e>
  40:	e7ff      	b.n	42 <_ZN3app10app_sensor21start_sensor_listener17h7939c7ebab994b0cE+0x42>
  42:	9815      	ldr	r0, [sp, #84]	; 0x54
  44:	2801      	cmp	r0, #1
  46:	d001      	beq.n	4c <_ZN3app10app_sensor21start_sensor_listener17h7939c7ebab994b0cE+0x4c>
  48:	e7ff      	b.n	4a <_ZN3app10app_sensor21start_sensor_listener17h7939c7ebab994b0cE+0x4a>
/Users/Luppy/mynewt/stm32bluepill-mynewt-sensor/rust/app/src/app_sensor.rs:82
            os::OS_TIMEOUT_NEVER
        ) ? ;
    }
    //  Return `Ok()` to indicate success.  This line should not end with a semicolon (;).
    Ok(())
}
  4a:	defe      	udf	#254	; 0xfe
/Users/Luppy/mynewt/stm32bluepill-mynewt-sensor/rust/app/src/app_sensor.rs:53
    let sensor = sensor::mgr_find_next_bydevname(&SENSOR_DEVICE, core::ptr::null_mut()) ? ;
  4c:	981a      	ldr	r0, [sp, #104]	; 0x68
  4e:	901d      	str	r0, [sp, #116]	; 0x74
  50:	981d      	ldr	r0, [sp, #116]	; 0x74
  52:	f7ff fffe 	bl	0 <_ZN50_$LT$T$u20$as$u20$core..convert..From$LT$T$GT$$GT$4from17h74fdd30c8f097361E>
  56:	9014      	str	r0, [sp, #80]	; 0x50
  58:	e7ff      	b.n	5a <_ZN3app10app_sensor21start_sensor_listener17h7939c7ebab994b0cE+0x5a>
  5a:	9814      	ldr	r0, [sp, #80]	; 0x50
  5c:	f7ff fffe 	bl	0 <_ZN73_$LT$core..result..Result$LT$T$C$E$GT$$u20$as$u20$core..ops..try..Try$GT$10from_error17h01f54dfdd396312fE>
  60:	9017      	str	r0, [sp, #92]	; 0x5c
  62:	e7ff      	b.n	64 <_ZN3app10app_sensor21start_sensor_listener17h7939c7ebab994b0cE+0x64>
  64:	e002      	b.n	6c <_ZN3app10app_sensor21start_sensor_listener17h7939c7ebab994b0cE+0x6c>
/Users/Luppy/mynewt/stm32bluepill-mynewt-sensor/rust/app/src/app_sensor.rs:82
}
  66:	9817      	ldr	r0, [sp, #92]	; 0x5c
  68:	b043      	add	sp, #268	; 0x10c
  6a:	bdf0      	pop	{r4, r5, r6, r7, pc}
/Users/Luppy/mynewt/stm32bluepill-mynewt-sensor/rust/app/src/app_sensor.rs:53
    let sensor = sensor::mgr_find_next_bydevname(&SENSOR_DEVICE, core::ptr::null_mut()) ? ;
  6c:	e7fb      	b.n	66 <_ZN3app10app_sensor21start_sensor_listener17h7939c7ebab994b0cE+0x66>
  6e:	981a      	ldr	r0, [sp, #104]	; 0x68
  70:	901e      	str	r0, [sp, #120]	; 0x78
  72:	981e      	ldr	r0, [sp, #120]	; 0x78
  74:	9018      	str	r0, [sp, #96]	; 0x60
/Users/Luppy/mynewt/stm32bluepill-mynewt-sensor/rust/app/src/app_sensor.rs:54
    assert!(!sensor.is_null(), "no sensor");
  76:	9818      	ldr	r0, [sp, #96]	; 0x60
  78:	f7ff fffe 	bl	0 <_ZN4core3ptr31_$LT$impl$u20$$BP$mut$u20$T$GT$7is_null17h338d2aa41f137666E>
  7c:	9013      	str	r0, [sp, #76]	; 0x4c
  7e:	e7ff      	b.n	80 <_ZN3app10app_sensor21start_sensor_listener17h7939c7ebab994b0cE+0x80>
  80:	9813      	ldr	r0, [sp, #76]	; 0x4c
  82:	07c1      	lsls	r1, r0, #31
  84:	2900      	cmp	r1, #0
  86:	d007      	beq.n	98 <_ZN3app10app_sensor21start_sensor_listener17h7939c7ebab994b0cE+0x98>
  88:	e7ff      	b.n	8a <_ZN3app10app_sensor21start_sensor_listener17h7939c7ebab994b0cE+0x8a>
  8a:	f240 0000 	movw	r0, #0
  8e:	f2c0 0000 	movt	r0, #0
  92:	f7ff fffe 	bl	0 <_ZN4core9panicking5panic17h53ca63c6ac6312f8E>
  96:	defe      	udf	#254	; 0xfe
/Users/Luppy/mynewt/stm32bluepill-mynewt-sensor/rust/app/src/app_sensor.rs:57
    if !standby_wakeup() {
  98:	f7ff fffe 	bl	0 <_ZN3app10app_sensor21start_sensor_listener17h7939c7ebab994b0cE>
  9c:	9012      	str	r0, [sp, #72]	; 0x48
  9e:	e7ff      	b.n	a0 <_ZN3app10app_sensor21start_sensor_listener17h7939c7ebab994b0cE+0xa0>
  a0:	9812      	ldr	r0, [sp, #72]	; 0x48
  a2:	07c1      	lsls	r1, r0, #31
  a4:	2900      	cmp	r1, #0
  a6:	d177      	bne.n	198 <_ZN3app10app_sensor21start_sensor_listener17h7939c7ebab994b0cE+0x198>
  a8:	e7ff      	b.n	aa <_ZN3app10app_sensor21start_sensor_listener17h7939c7ebab994b0cE+0xaa>
/Users/Luppy/mynewt/stm32bluepill-mynewt-sensor/rust/app/src/app_sensor.rs:59
        sensor::set_poll_rate_ms(&SENSOR_DEVICE, SENSOR_POLL_TIME) ? ;
  aa:	f240 0000 	movw	r0, #0
  ae:	f2c0 0000 	movt	r0, #0
  b2:	f242 7110 	movw	r1, #10000	; 0x2710
  b6:	f7ff fffe 	bl	0 <_ZN6mynewt2hw6sensor8bindings16set_poll_rate_ms17h3c50d102cc4dcf23E>
  ba:	9011      	str	r0, [sp, #68]	; 0x44
  bc:	e7ff      	b.n	be <_ZN3app10app_sensor21start_sensor_listener17h7939c7ebab994b0cE+0xbe>
  be:	9811      	ldr	r0, [sp, #68]	; 0x44
  c0:	f7ff fffe 	bl	0 <_ZN73_$LT$core..result..Result$LT$T$C$E$GT$$u20$as$u20$core..ops..try..Try$GT$11into_result17hb671b49d1f1f4fa3E>
  c4:	901f      	str	r0, [sp, #124]	; 0x7c
  c6:	e7ff      	b.n	c8 <_ZN3app10app_sensor21start_sensor_listener17h7939c7ebab994b0cE+0xc8>
  c8:	981f      	ldr	r0, [sp, #124]	; 0x7c
  ca:	1e41      	subs	r1, r0, #1
  cc:	bf18      	it	ne
  ce:	2101      	movne	r1, #1
  d0:	2801      	cmp	r0, #1
  d2:	9110      	str	r1, [sp, #64]	; 0x40
  d4:	d012      	beq.n	fc <_ZN3app10app_sensor21start_sensor_listener17h7939c7ebab994b0cE+0xfc>
  d6:	e7ff      	b.n	d8 <_ZN3app10app_sensor21start_sensor_listener17h7939c7ebab994b0cE+0xd8>
  d8:	9810      	ldr	r0, [sp, #64]	; 0x40
  da:	2801      	cmp	r0, #1
  dc:	d1b5      	bne.n	4a <_ZN3app10app_sensor21start_sensor_listener17h7939c7ebab994b0cE+0x4a>
  de:	e7ff      	b.n	e0 <_ZN3app10app_sensor21start_sensor_listener17h7939c7ebab994b0cE+0xe0>
  e0:	981f      	ldr	r0, [sp, #124]	; 0x7c
  e2:	9020      	str	r0, [sp, #128]	; 0x80
  e4:	9820      	ldr	r0, [sp, #128]	; 0x80
  e6:	f7ff fffe 	bl	0 <_ZN50_$LT$T$u20$as$u20$core..convert..From$LT$T$GT$$GT$4from17h74fdd30c8f097361E>
  ea:	900f      	str	r0, [sp, #60]	; 0x3c
  ec:	e7ff      	b.n	ee <_ZN3app10app_sensor21start_sensor_listener17h7939c7ebab994b0cE+0xee>
  ee:	980f      	ldr	r0, [sp, #60]	; 0x3c
  f0:	f7ff fffe 	bl	0 <_ZN73_$LT$core..result..Result$LT$T$C$E$GT$$u20$as$u20$core..ops..try..Try$GT$10from_error17h01f54dfdd396312fE>
  f4:	9017      	str	r0, [sp, #92]	; 0x5c
  f6:	e7ff      	b.n	f8 <_ZN3app10app_sensor21start_sensor_listener17h7939c7ebab994b0cE+0xf8>
  f8:	e7ff      	b.n	fa <_ZN3app10app_sensor21start_sensor_listener17h7939c7ebab994b0cE+0xfa>
  fa:	e7b7      	b.n	6c <_ZN3app10app_sensor21start_sensor_listener17h7939c7ebab994b0cE+0x6c>
/Users/Luppy/mynewt/stm32bluepill-mynewt-sensor/rust/app/src/app_sensor.rs:64
            sl_func       : sensor::as_untyped(handle_sensor_data),  //  Listener function
  fc:	f240 0000 	movw	r0, #0
 100:	f2c0 0000 	movt	r0, #0
 104:	f7ff fffe 	bl	0 <_ZN6mynewt2hw6sensor10as_untyped17hf4c7558e853ffc61E>
 108:	900e      	str	r0, [sp, #56]	; 0x38
 10a:	e7ff      	b.n	10c <_ZN3app10app_sensor21start_sensor_listener17h7939c7ebab994b0cE+0x10c>
 10c:	2000      	movs	r0, #0
/Users/Luppy/mynewt/stm32bluepill-mynewt-sensor/rust/app/src/app_sensor.rs:65
            ..fill_zero!(sensor_listener)           //  Set other fields to 0
 10e:	9034      	str	r0, [sp, #208]	; 0xd0
 110:	9033      	str	r0, [sp, #204]	; 0xcc
 112:	9032      	str	r0, [sp, #200]	; 0xc8
 114:	9031      	str	r0, [sp, #196]	; 0xc4
 116:	9030      	str	r0, [sp, #192]	; 0xc0
 118:	902f      	str	r0, [sp, #188]	; 0xbc
 11a:	a828      	add	r0, sp, #160	; 0xa0
 11c:	a92f      	add	r1, sp, #188	; 0xbc
 11e:	2218      	movs	r2, #24
 120:	f7ff fffe 	bl	0 <__aeabi_memcpy>
 124:	900d      	str	r0, [sp, #52]	; 0x34
 126:	e7ff      	b.n	128 <_ZN3app10app_sensor21start_sensor_listener17h7939c7ebab994b0cE+0x128>
 128:	2000      	movs	r0, #0
/Users/Luppy/mynewt/stm32bluepill-mynewt-sensor/rust/app/src/app_sensor.rs:62
        let listener = sensor_listener {
 12a:	9023      	str	r0, [sp, #140]	; 0x8c
 12c:	f04f 6080 	mov.w	r0, #67108864	; 0x4000000
 130:	9022      	str	r0, [sp, #136]	; 0x88
 132:	980e      	ldr	r0, [sp, #56]	; 0x38
 134:	9024      	str	r0, [sp, #144]	; 0x90
 136:	992b      	ldr	r1, [sp, #172]	; 0xac
 138:	9125      	str	r1, [sp, #148]	; 0x94
 13a:	992c      	ldr	r1, [sp, #176]	; 0xb0
 13c:	9126      	str	r1, [sp, #152]	; 0x98
/Users/Luppy/mynewt/stm32bluepill-mynewt-sensor/rust/app/src/app_sensor.rs:69
        sensor::register_listener(sensor, listener) ? ;  //  `?` means in case of error, return error now.
 13e:	9818      	ldr	r0, [sp, #96]	; 0x60
 140:	a922      	add	r1, sp, #136	; 0x88
 142:	aa36      	add	r2, sp, #216	; 0xd8
 144:	4613      	mov	r3, r2
 146:	e891 50f0 	ldmia.w	r1, {r4, r5, r6, r7, ip, lr}
 14a:	e883 50f0 	stmia.w	r3, {r4, r5, r6, r7, ip, lr}
 14e:	4611      	mov	r1, r2
 150:	f7ff fffe 	bl	0 <_ZN6mynewt2hw6sensor17register_listener17h1bd7e4beeee805d1E>
 154:	900c      	str	r0, [sp, #48]	; 0x30
 156:	e7ff      	b.n	158 <_ZN3app10app_sensor21start_sensor_listener17h7939c7ebab994b0cE+0x158>
 158:	980c      	ldr	r0, [sp, #48]	; 0x30
 15a:	f7ff fffe 	bl	0 <_ZN73_$LT$core..result..Result$LT$T$C$E$GT$$u20$as$u20$core..ops..try..Try$GT$11into_result17hb671b49d1f1f4fa3E>
 15e:	9035      	str	r0, [sp, #212]	; 0xd4
 160:	e7ff      	b.n	162 <_ZN3app10app_sensor21start_sensor_listener17h7939c7ebab994b0cE+0x162>
 162:	9835      	ldr	r0, [sp, #212]	; 0xd4
 164:	1e41      	subs	r1, r0, #1
 166:	bf18      	it	ne
 168:	2101      	movne	r1, #1
 16a:	2801      	cmp	r0, #1
 16c:	910b      	str	r1, [sp, #44]	; 0x2c
 16e:	d012      	beq.n	196 <_ZN3app10app_sensor21start_sensor_listener17h7939c7ebab994b0cE+0x196>
 170:	e7ff      	b.n	172 <_ZN3app10app_sensor21start_sensor_listener17h7939c7ebab994b0cE+0x172>
 172:	980b      	ldr	r0, [sp, #44]	; 0x2c
 174:	2801      	cmp	r0, #1
 176:	f47f af68 	bne.w	4a <_ZN3app10app_sensor21start_sensor_listener17h7939c7ebab994b0cE+0x4a>
 17a:	e7ff      	b.n	17c <_ZN3app10app_sensor21start_sensor_listener17h7939c7ebab994b0cE+0x17c>
 17c:	9835      	ldr	r0, [sp, #212]	; 0xd4
 17e:	903d      	str	r0, [sp, #244]	; 0xf4
 180:	983d      	ldr	r0, [sp, #244]	; 0xf4
 182:	f7ff fffe 	bl	0 <_ZN50_$LT$T$u20$as$u20$core..convert..From$LT$T$GT$$GT$4from17h74fdd30c8f097361E>
 186:	900a      	str	r0, [sp, #40]	; 0x28
 188:	e7ff      	b.n	18a <_ZN3app10app_sensor21start_sensor_listener17h7939c7ebab994b0cE+0x18a>
 18a:	980a      	ldr	r0, [sp, #40]	; 0x28
 18c:	f7ff fffe 	bl	0 <_ZN73_$LT$core..result..Result$LT$T$C$E$GT$$u20$as$u20$core..ops..try..Try$GT$10from_error17h01f54dfdd396312fE>
 190:	9017      	str	r0, [sp, #92]	; 0x5c
 192:	e7ff      	b.n	194 <_ZN3app10app_sensor21start_sensor_listener17h7939c7ebab994b0cE+0x194>
 194:	e7b1      	b.n	fa <_ZN3app10app_sensor21start_sensor_listener17h7939c7ebab994b0cE+0xfa>
/Users/Luppy/mynewt/stm32bluepill-mynewt-sensor/rust/app/src/app_sensor.rs:57
    if !standby_wakeup() {
 196:	e03e      	b.n	216 <_ZN3app10app_sensor21start_sensor_listener17h7939c7ebab994b0cE+0x216>
/Users/Luppy/mynewt/stm32bluepill-mynewt-sensor/rust/app/src/app_sensor.rs:73
            sensor, 
 198:	9818      	ldr	r0, [sp, #96]	; 0x60
/Users/Luppy/mynewt/stm32bluepill-mynewt-sensor/rust/app/src/app_sensor.rs:75
            sensor::as_untyped(handle_sensor_data),  //  Handler function
 19a:	f240 0100 	movw	r1, #0
 19e:	f2c0 0100 	movt	r1, #0
 1a2:	9009      	str	r0, [sp, #36]	; 0x24
 1a4:	4608      	mov	r0, r1
 1a6:	f7ff fffe 	bl	0 <_ZN6mynewt2hw6sensor10as_untyped17hf4c7558e853ffc61E>
 1aa:	9008      	str	r0, [sp, #32]
 1ac:	e7ff      	b.n	1ae <_ZN3app10app_sensor21start_sensor_listener17h7939c7ebab994b0cE+0x1ae>
/Users/Luppy/mynewt/stm32bluepill-mynewt-sensor/rust/app/src/app_sensor.rs:76
            core::ptr::null_mut(), 
 1ae:	f7ff fffe 	bl	0 <_ZN4core3ptr8null_mut17h9bb218a56760d6c4E>
 1b2:	9007      	str	r0, [sp, #28]
 1b4:	e7ff      	b.n	1b6 <_ZN3app10app_sensor21start_sensor_listener17h7939c7ebab994b0cE+0x1b6>
/Users/Luppy/mynewt/stm32bluepill-mynewt-sensor/rust/app/src/app_sensor.rs:72
        sensor::read(
 1b6:	4668      	mov	r0, sp
 1b8:	f04f 31ff 	mov.w	r1, #4294967295	; 0xffffffff
 1bc:	6081      	str	r1, [r0, #8]
 1be:	9907      	ldr	r1, [sp, #28]
 1c0:	6041      	str	r1, [r0, #4]
 1c2:	9a08      	ldr	r2, [sp, #32]
 1c4:	6002      	str	r2, [r0, #0]
 1c6:	f04f 6280 	mov.w	r2, #67108864	; 0x4000000
 1ca:	2300      	movs	r3, #0
 1cc:	9809      	ldr	r0, [sp, #36]	; 0x24
 1ce:	f7ff fffe 	bl	0 <_ZN6mynewt2hw6sensor8bindings4read17h70a6dd985d5efdbfE>
 1d2:	9006      	str	r0, [sp, #24]
 1d4:	e7ff      	b.n	1d6 <_ZN3app10app_sensor21start_sensor_listener17h7939c7ebab994b0cE+0x1d6>
 1d6:	9806      	ldr	r0, [sp, #24]
 1d8:	f7ff fffe 	bl	0 <_ZN73_$LT$core..result..Result$LT$T$C$E$GT$$u20$as$u20$core..ops..try..Try$GT$11into_result17hb671b49d1f1f4fa3E>
 1dc:	903f      	str	r0, [sp, #252]	; 0xfc
 1de:	e7ff      	b.n	1e0 <_ZN3app10app_sensor21start_sensor_listener17h7939c7ebab994b0cE+0x1e0>
/Users/Luppy/mynewt/stm32bluepill-mynewt-sensor/rust/app/src/app_sensor.rs:78
        ) ? ;
 1e0:	983f      	ldr	r0, [sp, #252]	; 0xfc
 1e2:	1e41      	subs	r1, r0, #1
 1e4:	bf18      	it	ne
 1e6:	2101      	movne	r1, #1
 1e8:	2801      	cmp	r0, #1
 1ea:	9105      	str	r1, [sp, #20]
 1ec:	d012      	beq.n	214 <_ZN3app10app_sensor21start_sensor_listener17h7939c7ebab994b0cE+0x214>
 1ee:	e7ff      	b.n	1f0 <_ZN3app10app_sensor21start_sensor_listener17h7939c7ebab994b0cE+0x1f0>
 1f0:	9805      	ldr	r0, [sp, #20]
 1f2:	2801      	cmp	r0, #1
 1f4:	f47f af29 	bne.w	4a <_ZN3app10app_sensor21start_sensor_listener17h7939c7ebab994b0cE+0x4a>
 1f8:	e7ff      	b.n	1fa <_ZN3app10app_sensor21start_sensor_listener17h7939c7ebab994b0cE+0x1fa>
 1fa:	983f      	ldr	r0, [sp, #252]	; 0xfc
 1fc:	9040      	str	r0, [sp, #256]	; 0x100
 1fe:	9840      	ldr	r0, [sp, #256]	; 0x100
 200:	f7ff fffe 	bl	0 <_ZN50_$LT$T$u20$as$u20$core..convert..From$LT$T$GT$$GT$4from17h74fdd30c8f097361E>
 204:	9004      	str	r0, [sp, #16]
 206:	e7ff      	b.n	208 <_ZN3app10app_sensor21start_sensor_listener17h7939c7ebab994b0cE+0x208>
 208:	9804      	ldr	r0, [sp, #16]
 20a:	f7ff fffe 	bl	0 <_ZN73_$LT$core..result..Result$LT$T$C$E$GT$$u20$as$u20$core..ops..try..Try$GT$10from_error17h01f54dfdd396312fE>
 20e:	9017      	str	r0, [sp, #92]	; 0x5c
 210:	e7ff      	b.n	212 <_ZN3app10app_sensor21start_sensor_listener17h7939c7ebab994b0cE+0x212>
 212:	e772      	b.n	fa <_ZN3app10app_sensor21start_sensor_listener17h7939c7ebab994b0cE+0xfa>
/Users/Luppy/mynewt/stm32bluepill-mynewt-sensor/rust/app/src/app_sensor.rs:57
    if !standby_wakeup() {
 214:	e7ff      	b.n	216 <_ZN3app10app_sensor21start_sensor_listener17h7939c7ebab994b0cE+0x216>
 216:	2000      	movs	r0, #0
/Users/Luppy/mynewt/stm32bluepill-mynewt-sensor/rust/app/src/app_sensor.rs:81
    Ok(())
 218:	9017      	str	r0, [sp, #92]	; 0x5c
 21a:	2001      	movs	r0, #1
 21c:	9017      	str	r0, [sp, #92]	; 0x5c
/Users/Luppy/mynewt/stm32bluepill-mynewt-sensor/rust/app/src/app_sensor.rs:82
}
 21e:	e722      	b.n	66 <_ZN3app10app_sensor21start_sensor_listener17h7939c7ebab994b0cE+0x66>

Disassembly of section .text._ZN3app10app_sensor18handle_sensor_data17h8ba1ab377474ac2bE:

00000000 <_ZN3app10app_sensor18handle_sensor_data17h8ba1ab377474ac2bE>:
_ZN3app10app_sensor18handle_sensor_data17h8ba1ab377474ac2bE():
/Users/Luppy/mynewt/stm32bluepill-mynewt-sensor/rust/app/src/app_sensor.rs:86

///  This listener function is called every 10 seconds by Mynewt to handle the polled sensor data.
///  Return 0 if we have handled the sensor data successfully.
extern fn handle_sensor_data(sensor: sensor_ptr, _arg: sensor_arg, 
   0:	b5b0      	push	{r4, r5, r7, lr}
   2:	b092      	sub	sp, #72	; 0x48
   4:	9b17      	ldr	r3, [sp, #92]	; 0x5c
   6:	f8dd c058 	ldr.w	ip, [sp, #88]	; 0x58
   a:	4696      	mov	lr, r2
   c:	460c      	mov	r4, r1
   e:	4605      	mov	r5, r0
  10:	9007      	str	r0, [sp, #28]
  12:	9108      	str	r1, [sp, #32]
  14:	9209      	str	r2, [sp, #36]	; 0x24
  16:	930b      	str	r3, [sp, #44]	; 0x2c
  18:	f8cd c028 	str.w	ip, [sp, #40]	; 0x28
/Users/Luppy/mynewt/stm32bluepill-mynewt-sensor/rust/app/src/app_sensor.rs:88
    sensor_data: sensor_data_ptr, sensor_type: sensor_type_t) -> MynewtError {
    console::print("Rust handle_sensor_data\n");
  1c:	f240 0000 	movw	r0, #0
  20:	f2c0 0000 	movt	r0, #0
  24:	2118      	movs	r1, #24
  26:	f8cd e018 	str.w	lr, [sp, #24]
  2a:	9405      	str	r4, [sp, #20]
  2c:	9504      	str	r5, [sp, #16]
  2e:	f7ff fffe 	bl	0 <_ZN6mynewt3sys7console5print17hb1682fdf35bd72e2E>
  32:	e7ff      	b.n	34 <_ZN3app10app_sensor18handle_sensor_data17h8ba1ab377474ac2bE+0x34>
/Users/Luppy/mynewt/stm32bluepill-mynewt-sensor/rust/app/src/app_sensor.rs:91

    //  Check that the temperature data is valid.
    if sensor_data.is_null() { return MynewtError::SYS_EINVAL; }  //  Exit if data is missing
  34:	9809      	ldr	r0, [sp, #36]	; 0x24
  36:	f7ff fffe 	bl	0 <_ZN4core3ptr31_$LT$impl$u20$$BP$mut$u20$T$GT$7is_null17h4fa429edeff1280eE>
  3a:	9003      	str	r0, [sp, #12]
  3c:	e7ff      	b.n	3e <_ZN3app10app_sensor18handle_sensor_data17h8ba1ab377474ac2bE+0x3e>
  3e:	9803      	ldr	r0, [sp, #12]
  40:	07c1      	lsls	r1, r0, #31
  42:	2900      	cmp	r1, #0
  44:	d007      	beq.n	56 <_ZN3app10app_sensor18handle_sensor_data17h8ba1ab377474ac2bE+0x56>
  46:	e7ff      	b.n	48 <_ZN3app10app_sensor18handle_sensor_data17h8ba1ab377474ac2bE+0x48>
  48:	f06f 0001 	mvn.w	r0, #1
  4c:	900c      	str	r0, [sp, #48]	; 0x30
  4e:	e7ff      	b.n	50 <_ZN3app10app_sensor18handle_sensor_data17h8ba1ab377474ac2bE+0x50>
/Users/Luppy/mynewt/stm32bluepill-mynewt-sensor/rust/app/src/app_sensor.rs:114
            return MynewtError::SYS_EOK; 
        }            
    }
    //  Return 0 to Mynewt to indicate no error.  Should not end with a semicolon (;).
    MynewtError::SYS_EOK
}
  50:	980c      	ldr	r0, [sp, #48]	; 0x30
  52:	b012      	add	sp, #72	; 0x48
  54:	bdb0      	pop	{r4, r5, r7, pc}
/Users/Luppy/mynewt/stm32bluepill-mynewt-sensor/rust/app/src/app_sensor.rs:92
    assert!(!sensor.is_null(), "null sensor");
  56:	9807      	ldr	r0, [sp, #28]
  58:	f7ff fffe 	bl	0 <_ZN4core3ptr31_$LT$impl$u20$$BP$mut$u20$T$GT$7is_null17h338d2aa41f137666E>
  5c:	9002      	str	r0, [sp, #8]
  5e:	e7ff      	b.n	60 <_ZN3app10app_sensor18handle_sensor_data17h8ba1ab377474ac2bE+0x60>
  60:	9802      	ldr	r0, [sp, #8]
  62:	07c1      	lsls	r1, r0, #31
  64:	2900      	cmp	r1, #0
  66:	d007      	beq.n	78 <_ZN3app10app_sensor18handle_sensor_data17h8ba1ab377474ac2bE+0x78>
  68:	e7ff      	b.n	6a <_ZN3app10app_sensor18handle_sensor_data17h8ba1ab377474ac2bE+0x6a>
  6a:	f240 0000 	movw	r0, #0
  6e:	f2c0 0000 	movt	r0, #0
  72:	f7ff fffe 	bl	0 <_ZN4core9panicking5panic17h53ca63c6ac6312f8E>
  76:	defe      	udf	#254	; 0xfe
/Users/Luppy/mynewt/stm32bluepill-mynewt-sensor/rust/app/src/app_sensor.rs:95
    let sensor_value = convert_sensor_data(sensor_data, sensor_type);
  78:	9909      	ldr	r1, [sp, #36]	; 0x24
  7a:	9a0a      	ldr	r2, [sp, #40]	; 0x28
  7c:	9b0b      	ldr	r3, [sp, #44]	; 0x2c
  7e:	a80d      	add	r0, sp, #52	; 0x34
  80:	f7ff fffe 	bl	0 <_ZN3app10app_sensor18handle_sensor_data17h8ba1ab377474ac2bE>
  84:	e7ff      	b.n	86 <_ZN3app10app_sensor18handle_sensor_data17h8ba1ab377474ac2bE+0x86>
/Users/Luppy/mynewt/stm32bluepill-mynewt-sensor/rust/app/src/app_sensor.rs:96
    if let SensorValueType::None = sensor_value.val { assert!(false, "bad type"); }
  86:	980e      	ldr	r0, [sp, #56]	; 0x38
  88:	2800      	cmp	r0, #0
  8a:	d10c      	bne.n	a6 <_ZN3app10app_sensor18handle_sensor_data17h8ba1ab377474ac2bE+0xa6>
  8c:	e7ff      	b.n	8e <_ZN3app10app_sensor18handle_sensor_data17h8ba1ab377474ac2bE+0x8e>
  8e:	2000      	movs	r0, #0
  90:	2800      	cmp	r0, #0
  92:	d107      	bne.n	a4 <_ZN3app10app_sensor18handle_sensor_data17h8ba1ab377474ac2bE+0xa4>
  94:	e7ff      	b.n	96 <_ZN3app10app_sensor18handle_sensor_data17h8ba1ab377474ac2bE+0x96>
  96:	f240 0000 	movw	r0, #0
  9a:	f2c0 0000 	movt	r0, #0
  9e:	f7ff fffe 	bl	0 <_ZN4core9panicking5panic17h53ca63c6ac6312f8E>
  a2:	defe      	udf	#254	; 0xfe
  a4:	e7ff      	b.n	a6 <_ZN3app10app_sensor18handle_sensor_data17h8ba1ab377474ac2bE+0xa6>
  a6:	a80d      	add	r0, sp, #52	; 0x34
/Users/Luppy/mynewt/stm32bluepill-mynewt-sensor/rust/app/src/app_sensor.rs:102
    let res = send_sensor_data(&sensor_value);
  a8:	f7ff fffe 	bl	0 <_ZN3app11app_network16send_sensor_data17h6637fc0fb2624307E>
  ac:	9010      	str	r0, [sp, #64]	; 0x40
  ae:	e7ff      	b.n	b0 <_ZN3app10app_sensor18handle_sensor_data17h8ba1ab377474ac2bE+0xb0>
/Users/Luppy/mynewt/stm32bluepill-mynewt-sensor/rust/app/src/app_sensor.rs:106
    if let Err(err) = res {  //  `if let` will assign `err` to the error code inside `res`
  b0:	9810      	ldr	r0, [sp, #64]	; 0x40
  b2:	2801      	cmp	r0, #1
  b4:	d01c      	beq.n	f0 <_ZN3app10app_sensor18handle_sensor_data17h8ba1ab377474ac2bE+0xf0>
  b6:	e7ff      	b.n	b8 <_ZN3app10app_sensor18handle_sensor_data17h8ba1ab377474ac2bE+0xb8>
  b8:	9810      	ldr	r0, [sp, #64]	; 0x40
  ba:	9011      	str	r0, [sp, #68]	; 0x44
/Users/Luppy/mynewt/stm32bluepill-mynewt-sensor/rust/app/src/app_sensor.rs:107
        if err == MynewtError::SYS_EAGAIN {
  bc:	f240 0100 	movw	r1, #0
  c0:	f2c0 0100 	movt	r1, #0
  c4:	a811      	add	r0, sp, #68	; 0x44
  c6:	f7ff fffe 	bl	0 <_ZN68_$LT$mynewt..result..MynewtError$u20$as$u20$core..cmp..PartialEq$GT$2eq17h4eb0375cc16f0456E>
  ca:	9001      	str	r0, [sp, #4]
  cc:	e7ff      	b.n	ce <_ZN3app10app_sensor18handle_sensor_data17h8ba1ab377474ac2bE+0xce>
  ce:	9801      	ldr	r0, [sp, #4]
  d0:	07c1      	lsls	r1, r0, #31
  d2:	2900      	cmp	r1, #0
  d4:	d00b      	beq.n	ee <_ZN3app10app_sensor18handle_sensor_data17h8ba1ab377474ac2bE+0xee>
  d6:	e7ff      	b.n	d8 <_ZN3app10app_sensor18handle_sensor_data17h8ba1ab377474ac2bE+0xd8>
/Users/Luppy/mynewt/stm32bluepill-mynewt-sensor/rust/app/src/app_sensor.rs:108
            console::print("TMP network not ready\n");
  d8:	f240 0000 	movw	r0, #0
  dc:	f2c0 0000 	movt	r0, #0
  e0:	2116      	movs	r1, #22
  e2:	f7ff fffe 	bl	0 <_ZN6mynewt3sys7console5print17hb1682fdf35bd72e2E>
  e6:	e7ff      	b.n	e8 <_ZN3app10app_sensor18handle_sensor_data17h8ba1ab377474ac2bE+0xe8>
  e8:	2000      	movs	r0, #0
/Users/Luppy/mynewt/stm32bluepill-mynewt-sensor/rust/app/src/app_sensor.rs:109
            return MynewtError::SYS_EOK; 
  ea:	900c      	str	r0, [sp, #48]	; 0x30
  ec:	e7b0      	b.n	50 <_ZN3app10app_sensor18handle_sensor_data17h8ba1ab377474ac2bE+0x50>
/Users/Luppy/mynewt/stm32bluepill-mynewt-sensor/rust/app/src/app_sensor.rs:106
    if let Err(err) = res {  //  `if let` will assign `err` to the error code inside `res`
  ee:	e7ff      	b.n	f0 <_ZN3app10app_sensor18handle_sensor_data17h8ba1ab377474ac2bE+0xf0>
  f0:	2000      	movs	r0, #0
/Users/Luppy/mynewt/stm32bluepill-mynewt-sensor/rust/app/src/app_sensor.rs:113
    MynewtError::SYS_EOK
  f2:	900c      	str	r0, [sp, #48]	; 0x30
/Users/Luppy/mynewt/stm32bluepill-mynewt-sensor/rust/app/src/app_sensor.rs:114
}
  f4:	e7ac      	b.n	50 <_ZN3app10app_sensor18handle_sensor_data17h8ba1ab377474ac2bE+0x50>

Disassembly of section .text._ZN3app10app_sensor19convert_sensor_data17h5eeac278bb2f2f4bE:

00000000 <_ZN3app10app_sensor19convert_sensor_data17h5eeac278bb2f2f4bE>:
_ZN3app10app_sensor19convert_sensor_data17h5eeac278bb2f2f4bE():
/Users/Luppy/mynewt/stm32bluepill-mynewt-sensor/rust/app/src/app_sensor.rs:119

///  Convert the raw temperature value received from Mynewt into a `SensorValue` for transmission, which includes the sensor data key `t`. 
///  `sensor_type` indicates the type of data in `sensor_data`.
#[allow(non_snake_case, unused_variables)]
fn convert_sensor_data(sensor_data: sensor_data_ptr, sensor_type: sensor_type_t) -> SensorValue {
   0:	b5b0      	push	{r4, r5, r7, lr}
   2:	b0da      	sub	sp, #360	; 0x168
   4:	469c      	mov	ip, r3
   6:	4696      	mov	lr, r2
   8:	460c      	mov	r4, r1
   a:	9111      	str	r1, [sp, #68]	; 0x44
   c:	9313      	str	r3, [sp, #76]	; 0x4c
   e:	9212      	str	r2, [sp, #72]	; 0x48
/Users/Luppy/mynewt/stm32bluepill-mynewt-sensor/rust/app/src/app_sensor.rs:120
    console::print("TMP listener got rawtmp\n");
  10:	f240 0100 	movw	r1, #0
  14:	f2c0 0100 	movt	r1, #0
  18:	2218      	movs	r2, #24
  1a:	9010      	str	r0, [sp, #64]	; 0x40
  1c:	4608      	mov	r0, r1
  1e:	4611      	mov	r1, r2
  20:	f8cd c03c 	str.w	ip, [sp, #60]	; 0x3c
  24:	f8cd e038 	str.w	lr, [sp, #56]	; 0x38
  28:	940d      	str	r4, [sp, #52]	; 0x34
  2a:	f7ff fffe 	bl	0 <_ZN6mynewt3sys7console5print17hb1682fdf35bd72e2E>
  2e:	e7ff      	b.n	30 <_ZN3app10app_sensor19convert_sensor_data17h5eeac278bb2f2f4bE+0x30>
/Users/Luppy/mynewt/stm32bluepill-mynewt-sensor/rust/app/src/app_sensor.rs:125
    //  Construct and return a new `SensorValue` (without semicolon)
    SensorValue {
        key: &TEMP_SENSOR_KEY,  //  Sensor data key is `t`
        val: match sensor_type {
            SENSOR_TYPE_AMBIENT_TEMPERATURE_RAW => {  //  If this is raw temperature...
  30:	9812      	ldr	r0, [sp, #72]	; 0x48
  32:	9913      	ldr	r1, [sp, #76]	; 0x4c
  34:	9117      	str	r1, [sp, #92]	; 0x5c
  36:	9016      	str	r0, [sp, #88]	; 0x58
  38:	2000      	movs	r0, #0
/Users/Luppy/mynewt/stm32bluepill-mynewt-sensor/rust/app/src/app_sensor.rs:127
                //  Interpret the sensor data as a `sensor_temp_raw_data` struct that contains raw temp.
                let mut rawtempdata = fill_zero!(sensor_temp_raw_data);
  3a:	f88d 0070 	strb.w	r0, [sp, #112]	; 0x70
  3e:	901b      	str	r0, [sp, #108]	; 0x6c
  40:	f89d 0070 	ldrb.w	r0, [sp, #112]	; 0x70
  44:	f88d 0068 	strb.w	r0, [sp, #104]	; 0x68
  48:	981b      	ldr	r0, [sp, #108]	; 0x6c
  4a:	9019      	str	r0, [sp, #100]	; 0x64
  4c:	e7ff      	b.n	4e <_ZN3app10app_sensor19convert_sensor_data17h5eeac278bb2f2f4bE+0x4e>
/Users/Luppy/mynewt/stm32bluepill-mynewt-sensor/rust/app/src/app_sensor.rs:128
                let rc = unsafe { sensor::get_temp_raw_data(sensor_data, &mut rawtempdata) };
  4e:	9811      	ldr	r0, [sp, #68]	; 0x44
  50:	a919      	add	r1, sp, #100	; 0x64
  52:	f7ff fffe 	bl	0 <get_temp_raw_data>
  56:	901d      	str	r0, [sp, #116]	; 0x74
  58:	e7ff      	b.n	5a <_ZN3app10app_sensor19convert_sensor_data17h5eeac278bb2f2f4bE+0x5a>
  5a:	a81d      	add	r0, sp, #116	; 0x74
/Users/Luppy/mynewt/stm32bluepill-mynewt-sensor/rust/app/src/app_sensor.rs:129
                assert_eq!(rc, 0, "rawtmp fail");
  5c:	901e      	str	r0, [sp, #120]	; 0x78
  5e:	f240 0000 	movw	r0, #0
  62:	f2c0 0000 	movt	r0, #0
  66:	901f      	str	r0, [sp, #124]	; 0x7c
  68:	981e      	ldr	r0, [sp, #120]	; 0x78
  6a:	9020      	str	r0, [sp, #128]	; 0x80
  6c:	981f      	ldr	r0, [sp, #124]	; 0x7c
  6e:	9021      	str	r0, [sp, #132]	; 0x84
  70:	9820      	ldr	r0, [sp, #128]	; 0x80
  72:	6800      	ldr	r0, [r0, #0]
  74:	9921      	ldr	r1, [sp, #132]	; 0x84
  76:	6809      	ldr	r1, [r1, #0]
  78:	4288      	cmp	r0, r1
  7a:	d014      	beq.n	a6 <_ZN3app10app_sensor19convert_sensor_data17h5eeac278bb2f2f4bE+0xa6>
  7c:	e7ff      	b.n	7e <_ZN3app10app_sensor19convert_sensor_data17h5eeac278bb2f2f4bE+0x7e>
  7e:	9820      	ldr	r0, [sp, #128]	; 0x80
  80:	9031      	str	r0, [sp, #196]	; 0xc4
  82:	9821      	ldr	r0, [sp, #132]	; 0x84
  84:	9032      	str	r0, [sp, #200]	; 0xc8
  86:	4668      	mov	r0, sp
  88:	2100      	movs	r1, #0
  8a:	6001      	str	r1, [r0, #0]
  8c:	f240 0100 	movw	r1, #0
  90:	f2c0 0100 	movt	r1, #0
  94:	f240 0300 	movw	r3, #0
  98:	f2c0 0300 	movt	r3, #0
  9c:	a833      	add	r0, sp, #204	; 0xcc
  9e:	2201      	movs	r2, #1
  a0:	f7ff fffe 	bl	0 <_ZN4core3fmt9Arguments6new_v117h65750cb239a0e359E>
  a4:	e012      	b.n	cc <_ZN3app10app_sensor19convert_sensor_data17h5eeac278bb2f2f4bE+0xcc>
  a6:	a819      	add	r0, sp, #100	; 0x64
/Users/Luppy/mynewt/stm32bluepill-mynewt-sensor/rust/app/src/app_sensor.rs:131
                //  Check that the raw temperature data is valid.
                assert_ne!(rawtempdata.strd_temp_raw_is_valid, 0, "bad rawtmp");                
  a8:	3004      	adds	r0, #4
  aa:	903c      	str	r0, [sp, #240]	; 0xf0
  ac:	f240 0000 	movw	r0, #0
  b0:	f2c0 0000 	movt	r0, #0
  b4:	903d      	str	r0, [sp, #244]	; 0xf4
  b6:	983c      	ldr	r0, [sp, #240]	; 0xf0
  b8:	903e      	str	r0, [sp, #248]	; 0xf8
  ba:	983d      	ldr	r0, [sp, #244]	; 0xf4
  bc:	903f      	str	r0, [sp, #252]	; 0xfc
  be:	983e      	ldr	r0, [sp, #248]	; 0xf8
  c0:	7800      	ldrb	r0, [r0, #0]
  c2:	993f      	ldr	r1, [sp, #252]	; 0xfc
  c4:	7809      	ldrb	r1, [r1, #0]
  c6:	4288      	cmp	r0, r1
  c8:	d04f      	beq.n	16a <_ZN3app10app_sensor19convert_sensor_data17h5eeac278bb2f2f4bE+0x16a>
  ca:	e062      	b.n	192 <_ZN3app10app_sensor19convert_sensor_data17h5eeac278bb2f2f4bE+0x192>
  cc:	a831      	add	r0, sp, #196	; 0xc4
/Users/Luppy/mynewt/stm32bluepill-mynewt-sensor/rust/app/src/app_sensor.rs:129
                assert_eq!(rc, 0, "rawtmp fail");
  ce:	902e      	str	r0, [sp, #184]	; 0xb8
  d0:	a832      	add	r0, sp, #200	; 0xc8
  d2:	902f      	str	r0, [sp, #188]	; 0xbc
  d4:	a833      	add	r0, sp, #204	; 0xcc
  d6:	9030      	str	r0, [sp, #192]	; 0xc0
  d8:	982e      	ldr	r0, [sp, #184]	; 0xb8
  da:	9039      	str	r0, [sp, #228]	; 0xe4
  dc:	982f      	ldr	r0, [sp, #188]	; 0xbc
  de:	903a      	str	r0, [sp, #232]	; 0xe8
  e0:	9830      	ldr	r0, [sp, #192]	; 0xc0
  e2:	903b      	str	r0, [sp, #236]	; 0xec
  e4:	9839      	ldr	r0, [sp, #228]	; 0xe4
  e6:	f240 0100 	movw	r1, #0
  ea:	f2c0 0100 	movt	r1, #0
  ee:	f7ff fffe 	bl	0 <_ZN4core3fmt10ArgumentV13new17h1fd456c0303f7393E>
  f2:	900c      	str	r0, [sp, #48]	; 0x30
  f4:	910b      	str	r1, [sp, #44]	; 0x2c
  f6:	e7ff      	b.n	f8 <_ZN3app10app_sensor19convert_sensor_data17h5eeac278bb2f2f4bE+0xf8>
  f8:	983a      	ldr	r0, [sp, #232]	; 0xe8
  fa:	f240 0100 	movw	r1, #0
  fe:	f2c0 0100 	movt	r1, #0
 102:	f7ff fffe 	bl	0 <_ZN4core3fmt10ArgumentV13new17h1fd456c0303f7393E>
 106:	900a      	str	r0, [sp, #40]	; 0x28
 108:	9109      	str	r1, [sp, #36]	; 0x24
 10a:	e7ff      	b.n	10c <_ZN3app10app_sensor19convert_sensor_data17h5eeac278bb2f2f4bE+0x10c>
 10c:	983b      	ldr	r0, [sp, #236]	; 0xec
 10e:	f240 0100 	movw	r1, #0
 112:	f2c0 0100 	movt	r1, #0
 116:	f7ff fffe 	bl	0 <_ZN4core3fmt10ArgumentV13new17h3ff460d93d7be67eE>
 11a:	9008      	str	r0, [sp, #32]
 11c:	9107      	str	r1, [sp, #28]
 11e:	e7ff      	b.n	120 <_ZN3app10app_sensor19convert_sensor_data17h5eeac278bb2f2f4bE+0x120>
 120:	980c      	ldr	r0, [sp, #48]	; 0x30
 122:	9028      	str	r0, [sp, #160]	; 0xa0
 124:	990b      	ldr	r1, [sp, #44]	; 0x2c
 126:	9129      	str	r1, [sp, #164]	; 0xa4
 128:	9a0a      	ldr	r2, [sp, #40]	; 0x28
 12a:	922a      	str	r2, [sp, #168]	; 0xa8
 12c:	9b09      	ldr	r3, [sp, #36]	; 0x24
 12e:	932b      	str	r3, [sp, #172]	; 0xac
 130:	f8dd c020 	ldr.w	ip, [sp, #32]
 134:	f8cd c0b0 	str.w	ip, [sp, #176]	; 0xb0
 138:	f8dd e01c 	ldr.w	lr, [sp, #28]
 13c:	f8cd e0b4 	str.w	lr, [sp, #180]	; 0xb4
 140:	466c      	mov	r4, sp
 142:	2503      	movs	r5, #3
 144:	6025      	str	r5, [r4, #0]
 146:	f240 0100 	movw	r1, #0
 14a:	f2c0 0100 	movt	r1, #0
 14e:	a822      	add	r0, sp, #136	; 0x88
 150:	ab28      	add	r3, sp, #160	; 0xa0
 152:	462a      	mov	r2, r5
 154:	f7ff fffe 	bl	0 <_ZN4core3fmt9Arguments6new_v117h65750cb239a0e359E>
 158:	e7ff      	b.n	2 <_ZN3app10app_sensor19convert_sensor_data17h5eeac278bb2f2f4bE+0x2>
 15a:	f240 0100 	movw	r1, #0
 15e:	f2c0 0100 	movt	r1, #0
 162:	a822      	add	r0, sp, #136	; 0x88
 164:	f7ff fffe 	bl	0 <_ZN4core9panicking9panic_fmt17h6b4d8e87b0965449E>
 168:	defe      	udf	#254	; 0xfe
/Users/Luppy/mynewt/stm32bluepill-mynewt-sensor/rust/app/src/app_sensor.rs:131
                assert_ne!(rawtempdata.strd_temp_raw_is_valid, 0, "bad rawtmp");                
 16a:	983e      	ldr	r0, [sp, #248]	; 0xf8
 16c:	904f      	str	r0, [sp, #316]	; 0x13c
 16e:	983f      	ldr	r0, [sp, #252]	; 0xfc
 170:	9050      	str	r0, [sp, #320]	; 0x140
 172:	4668      	mov	r0, sp
 174:	2100      	movs	r1, #0
 176:	6001      	str	r1, [r0, #0]
 178:	f240 0100 	movw	r1, #0
 17c:	f2c0 0100 	movt	r1, #0
 180:	f240 0300 	movw	r3, #0
 184:	f2c0 0300 	movt	r3, #0
 188:	a851      	add	r0, sp, #324	; 0x144
 18a:	2201      	movs	r2, #1
 18c:	f7ff fffe 	bl	0 <_ZN4core3fmt9Arguments6new_v117h65750cb239a0e359E>
 190:	e00f      	b.n	1b2 <_ZN3app10app_sensor19convert_sensor_data17h5eeac278bb2f2f4bE+0x1b2>
/Users/Luppy/mynewt/stm32bluepill-mynewt-sensor/rust/app/src/app_sensor.rs:133
                //  Raw temperature data is valid.  Return it.
                SensorValueType::Uint(rawtempdata.strd_temp_raw)  //  Raw Temperature in integer (0 to 4095)
 192:	9819      	ldr	r0, [sp, #100]	; 0x64
 194:	9015      	str	r0, [sp, #84]	; 0x54
 196:	2001      	movs	r0, #1
 198:	9014      	str	r0, [sp, #80]	; 0x50
/Users/Luppy/mynewt/stm32bluepill-mynewt-sensor/rust/app/src/app_sensor.rs:122
    SensorValue {
 19a:	f240 0000 	movw	r0, #0
 19e:	f2c0 0000 	movt	r0, #0
 1a2:	9910      	ldr	r1, [sp, #64]	; 0x40
 1a4:	6008      	str	r0, [r1, #0]
 1a6:	9814      	ldr	r0, [sp, #80]	; 0x50
 1a8:	9a15      	ldr	r2, [sp, #84]	; 0x54
 1aa:	608a      	str	r2, [r1, #8]
 1ac:	6048      	str	r0, [r1, #4]
/Users/Luppy/mynewt/stm32bluepill-mynewt-sensor/rust/app/src/app_sensor.rs:139
            }
            //  Unknown type of sensor value
            //  _ => { assert!(false, "sensor type"); SensorValueType::Uint(0) }
        }
    }
}
 1ae:	b05a      	add	sp, #360	; 0x168
 1b0:	bdb0      	pop	{r4, r5, r7, pc}
 1b2:	a84f      	add	r0, sp, #316	; 0x13c
/Users/Luppy/mynewt/stm32bluepill-mynewt-sensor/rust/app/src/app_sensor.rs:131
                assert_ne!(rawtempdata.strd_temp_raw_is_valid, 0, "bad rawtmp");                
 1b4:	904c      	str	r0, [sp, #304]	; 0x130
 1b6:	a850      	add	r0, sp, #320	; 0x140
 1b8:	904d      	str	r0, [sp, #308]	; 0x134
 1ba:	a851      	add	r0, sp, #324	; 0x144
 1bc:	904e      	str	r0, [sp, #312]	; 0x138
 1be:	984c      	ldr	r0, [sp, #304]	; 0x130
 1c0:	9057      	str	r0, [sp, #348]	; 0x15c
 1c2:	984d      	ldr	r0, [sp, #308]	; 0x134
 1c4:	9058      	str	r0, [sp, #352]	; 0x160
 1c6:	984e      	ldr	r0, [sp, #312]	; 0x138
 1c8:	9059      	str	r0, [sp, #356]	; 0x164
 1ca:	9857      	ldr	r0, [sp, #348]	; 0x15c
 1cc:	f240 0100 	movw	r1, #0
 1d0:	f2c0 0100 	movt	r1, #0
 1d4:	f7ff fffe 	bl	0 <_ZN4core3fmt10ArgumentV13new17h1252490a845702b2E>
 1d8:	9006      	str	r0, [sp, #24]
 1da:	9105      	str	r1, [sp, #20]
 1dc:	e7ff      	b.n	1de <_ZN3app10app_sensor19convert_sensor_data17h5eeac278bb2f2f4bE+0x1de>
 1de:	9858      	ldr	r0, [sp, #352]	; 0x160
 1e0:	f240 0100 	movw	r1, #0
 1e4:	f2c0 0100 	movt	r1, #0
 1e8:	f7ff fffe 	bl	0 <_ZN4core3fmt10ArgumentV13new17h1252490a845702b2E>
 1ec:	9004      	str	r0, [sp, #16]
 1ee:	9103      	str	r1, [sp, #12]
 1f0:	e7ff      	b.n	1f2 <_ZN3app10app_sensor19convert_sensor_data17h5eeac278bb2f2f4bE+0x1f2>
 1f2:	9859      	ldr	r0, [sp, #356]	; 0x164
 1f4:	f240 0100 	movw	r1, #0
 1f8:	f2c0 0100 	movt	r1, #0
 1fc:	f7ff fffe 	bl	0 <_ZN4core3fmt10ArgumentV13new17h3ff460d93d7be67eE>
 200:	9002      	str	r0, [sp, #8]
 202:	9101      	str	r1, [sp, #4]
 204:	e7ff      	b.n	206 <_ZN3app10app_sensor19convert_sensor_data17h5eeac278bb2f2f4bE+0x206>
 206:	9806      	ldr	r0, [sp, #24]
 208:	9046      	str	r0, [sp, #280]	; 0x118
 20a:	9905      	ldr	r1, [sp, #20]
 20c:	9147      	str	r1, [sp, #284]	; 0x11c
 20e:	9a04      	ldr	r2, [sp, #16]
 210:	9248      	str	r2, [sp, #288]	; 0x120
 212:	9b03      	ldr	r3, [sp, #12]
 214:	9349      	str	r3, [sp, #292]	; 0x124
 216:	f8dd c008 	ldr.w	ip, [sp, #8]
 21a:	f8cd c128 	str.w	ip, [sp, #296]	; 0x128
 21e:	f8dd e004 	ldr.w	lr, [sp, #4]
 222:	f8cd e12c 	str.w	lr, [sp, #300]	; 0x12c
 226:	466c      	mov	r4, sp
 228:	2503      	movs	r5, #3
 22a:	6025      	str	r5, [r4, #0]
 22c:	f240 0100 	movw	r1, #0
 230:	f2c0 0100 	movt	r1, #0
 234:	a840      	add	r0, sp, #256	; 0x100
 236:	ab46      	add	r3, sp, #280	; 0x118
 238:	462a      	mov	r2, r5
 23a:	f7ff fffe 	bl	0 <_ZN4core3fmt9Arguments6new_v117h65750cb239a0e359E>
 23e:	e7ff      	b.n	2 <_ZN3app10app_sensor19convert_sensor_data17h5eeac278bb2f2f4bE+0x2>
 240:	f240 0100 	movw	r1, #0
 244:	f2c0 0100 	movt	r1, #0
 248:	a840      	add	r0, sp, #256	; 0x100
 24a:	f7ff fffe 	bl	0 <_ZN4core9panicking9panic_fmt17h6b4d8e87b0965449E>
 24e:	defe      	udf	#254	; 0xfe

Disassembly of section .text._ZN3app10app_sensor14standby_wakeup17hcba670e2cd66cdf7E:

00000000 <_ZN3app10app_sensor14standby_wakeup17hcba670e2cd66cdf7E>:
_ZN3app10app_sensor14standby_wakeup17hcba670e2cd66cdf7E():
/Users/Luppy/mynewt/stm32bluepill-mynewt-sensor/rust/app/src/app_sensor.rs:144

extern {
    fn power_standby_wakeup() -> i32;
}
fn standby_wakeup() -> bool {
   0:	b580      	push	{r7, lr}
   2:	b082      	sub	sp, #8
/Users/Luppy/mynewt/stm32bluepill-mynewt-sensor/rust/app/src/app_sensor.rs:145
    if unsafe { power_standby_wakeup() == 0 } { false }
   4:	f7ff fffe 	bl	0 <power_standby_wakeup>
   8:	9000      	str	r0, [sp, #0]
   a:	e7ff      	b.n	c <_ZN3app10app_sensor14standby_wakeup17hcba670e2cd66cdf7E+0xc>
   c:	9800      	ldr	r0, [sp, #0]
   e:	2800      	cmp	r0, #0
  10:	d104      	bne.n	1c <_ZN3app10app_sensor14standby_wakeup17hcba670e2cd66cdf7E+0x1c>
  12:	e7ff      	b.n	14 <_ZN3app10app_sensor14standby_wakeup17hcba670e2cd66cdf7E+0x14>
  14:	2000      	movs	r0, #0
  16:	f88d 0007 	strb.w	r0, [sp, #7]
  1a:	e003      	b.n	24 <_ZN3app10app_sensor14standby_wakeup17hcba670e2cd66cdf7E+0x24>
  1c:	2001      	movs	r0, #1
/Users/Luppy/mynewt/stm32bluepill-mynewt-sensor/rust/app/src/app_sensor.rs:146
    else { true }
  1e:	f88d 0007 	strb.w	r0, [sp, #7]
/Users/Luppy/mynewt/stm32bluepill-mynewt-sensor/rust/app/src/app_sensor.rs:145
    if unsafe { power_standby_wakeup() == 0 } { false }
  22:	e7ff      	b.n	24 <_ZN3app10app_sensor14standby_wakeup17hcba670e2cd66cdf7E+0x24>
/Users/Luppy/mynewt/stm32bluepill-mynewt-sensor/rust/app/src/lib.rs:1
/*
  24:	f89d 0007 	ldrb.w	r0, [sp, #7]
  28:	b002      	add	sp, #8
  2a:	bd80      	pop	{r7, pc}

app-f1b560250e7c1912.3sjsqxnjxqqkheji.rcgu.o:     file format elf32-littlearm

SYMBOL TABLE:
00000000 l    df *ABS*	00000000 3sjsqxnjxqqkheji
000001cb l       .debug_str	00000000 
00000000 l       .debug_str	00000000 
00000041 l       .debug_str	00000000 
00000055 l       .debug_str	00000000 
00000085 l       .debug_str	00000000 
0000008c l       .debug_str	00000000 
00000093 l       .debug_str	00000000 
00000097 l       .debug_str	00000000 
0000009f l       .debug_str	00000000 
000000aa l       .debug_str	00000000 
000000b5 l       .debug_str	00000000 
000000c2 l       .debug_str	00000000 
000001ed l       .debug_str	00000000 
000000cd l       .debug_str	00000000 
000000d5 l       .debug_str	00000000 
000000e0 l       .debug_str	00000000 
000000eb l       .debug_str	00000000 
000000f5 l       .debug_str	00000000 
00000100 l       .debug_str	00000000 
0000010b l       .debug_str	00000000 
00000118 l       .debug_str	00000000 
00000124 l       .debug_str	00000000 
00000131 l       .debug_str	00000000 
0000013f l       .debug_str	00000000 
00000149 l       .debug_str	00000000 
00000156 l       .debug_str	00000000 
00000162 l       .debug_str	00000000 
00000167 l       .debug_str	00000000 
0000016f l       .debug_str	00000000 
00000178 l       .debug_str	00000000 
0000017a l       .debug_str	00000000 
00000000 l    d  .text._ZN50_$LT$T$u20$as$u20$core..convert..From$LT$T$GT$$GT$4from17h74fdd30c8f097361E	00000000 .text._ZN50_$LT$T$u20$as$u20$core..convert..From$LT$T$GT$$GT$4from17h74fdd30c8f097361E
00000000 l    d  .debug_abbrev	00000000 .debug_abbrev
00000000 l    d  .debug_info	00000000 .debug_info
00000000 l    d  .debug_frame	00000000 .debug_frame
00000000 l    d  .debug_line	00000000 .debug_line
00000000 g     F .text._ZN50_$LT$T$u20$as$u20$core..convert..From$LT$T$GT$$GT$4from17h74fdd30c8f097361E	0000000e _ZN50_$LT$T$u20$as$u20$core..convert..From$LT$T$GT$$GT$4from17h74fdd30c8f097361E



Disassembly of section .text._ZN50_$LT$T$u20$as$u20$core..convert..From$LT$T$GT$$GT$4from17h74fdd30c8f097361E:

00000000 <_ZN50_$LT$T$u20$as$u20$core..convert..From$LT$T$GT$$GT$4from17h74fdd30c8f097361E>:
_ZN50_$LT$T$u20$as$u20$core..convert..From$LT$T$GT$$GT$4from17h74fdd30c8f097361E():
/rustc/50a0defd5a93523067ef239936cc2e0755220904/src/libcore/convert.rs:547
   0:	b082      	sub	sp, #8
   2:	4601      	mov	r1, r0
   4:	9001      	str	r0, [sp, #4]
   6:	9801      	ldr	r0, [sp, #4]
   8:	9100      	str	r1, [sp, #0]
   a:	b002      	add	sp, #8
   c:	4770      	bx	lr

app-f1b560250e7c1912.4lctw9a02p63osgz.rcgu.o:     file format elf32-littlearm

SYMBOL TABLE:
00000000 l    df *ABS*	00000000 4lctw9a02p63osgz
00000340 l       .debug_str	00000000 
000003d1 l       .debug_str	00000000 
000003db l       .debug_str	00000000 
000003f5 l       .debug_str	00000000 
00000453 l       .debug_str	00000000 
0000045e l       .debug_str	00000000 
0000047b l       .debug_str	00000000 
00000494 l       .debug_str	00000000 
0000049e l       .debug_str	00000000 
000004b4 l       .debug_str	00000000 
000004d2 l       .debug_str	00000000 
000004db l       .debug_str	00000000 
000004e0 l       .debug_str	00000000 
000004e5 l       .debug_str	00000000 
000004e9 l       .debug_str	00000000 
000004f2 l       .debug_str	00000000 
000004fc l       .debug_str	00000000 
00000514 l       .debug_str	00000000 
00000000 l       .debug_str	00000000 
00000041 l       .debug_str	00000000 
00000055 l       .debug_str	00000000 
00000085 l       .debug_str	00000000 
0000008a l       .debug_str	00000000 
0000008e l       .debug_str	00000000 
00000091 l       .debug_str	00000000 
00000094 l       .debug_str	00000000 
00000097 l       .debug_str	00000000 
0000009c l       .debug_str	00000000 
000000a2 l       .debug_str	00000000 
000000a9 l       .debug_str	00000000 
000000b1 l       .debug_str	00000000 
000000bb l       .debug_str	00000000 
000000c2 l       .debug_str	00000000 
000000c5 l       .debug_str	00000000 
000000c9 l       .debug_str	00000000 
000000d0 l       .debug_str	00000000 
000000d4 l       .debug_str	00000000 
000000dd l       .debug_str	00000000 
000000e1 l       .debug_str	00000000 
0000010b l       .debug_str	00000000 
00000110 l       .debug_str	00000000 
00000115 l       .debug_str	00000000 
00000117 l       .debug_str	00000000 
00000129 l       .debug_str	00000000 
0000012f l       .debug_str	00000000 
00000134 l       .debug_str	00000000 
0000013c l       .debug_str	00000000 
00000140 l       .debug_str	00000000 
00000148 l       .debug_str	00000000 
00000150 l       .debug_str	00000000 
00000157 l       .debug_str	00000000 
0000015d l       .debug_str	00000000 
00000171 l       .debug_str	00000000 
0000017d l       .debug_str	00000000 
00000182 l       .debug_str	00000000 
0000018a l       .debug_str	00000000 
00000191 l       .debug_str	00000000 
00000195 l       .debug_str	00000000 
0000019a l       .debug_str	00000000 
000001a1 l       .debug_str	00000000 
000001aa l       .debug_str	00000000 
000001b4 l       .debug_str	00000000 
000001bb l       .debug_str	00000000 
000001c0 l       .debug_str	00000000 
000001cc l       .debug_str	00000000 
000001d4 l       .debug_str	00000000 
000001dd l       .debug_str	00000000 
000001e2 l       .debug_str	00000000 
000001e5 l       .debug_str	00000000 
000001e9 l       .debug_str	00000000 
000001f2 l       .debug_str	00000000 
000001f9 l       .debug_str	00000000 
000001fe l       .debug_str	00000000 
00000203 l       .debug_str	00000000 
00000209 l       .debug_str	00000000 
0000020f l       .debug_str	00000000 
00000219 l       .debug_str	00000000 
0000021c l       .debug_str	00000000 
00000222 l       .debug_str	00000000 
0000022c l       .debug_str	00000000 
00000234 l       .debug_str	00000000 
0000023a l       .debug_str	00000000 
00000240 l       .debug_str	00000000 
0000024b l       .debug_str	00000000 
00000254 l       .debug_str	00000000 
00000277 l       .debug_str	00000000 
00000296 l       .debug_str	00000000 
00000298 l       .debug_str	00000000 
0000029d l       .debug_str	00000000 
000002c4 l       .debug_str	00000000 
000002c9 l       .debug_str	00000000 
000002cf l       .debug_str	00000000 
000002d5 l       .debug_str	00000000 
000002d8 l       .debug_str	00000000 
000002e7 l       .debug_str	00000000 
000002ee l       .debug_str	00000000 
000002f2 l       .debug_str	00000000 
000002fb l       .debug_str	00000000 
00000307 l       .debug_str	00000000 
00000320 l       .debug_str	00000000 
00000325 l       .debug_str	00000000 
00000336 l       .debug_str	00000000 
0000034e l       .debug_str	00000000 
00000352 l       .debug_str	00000000 
0000035d l       .debug_str	00000000 
00000364 l       .debug_str	00000000 
0000036a l       .debug_str	00000000 
0000036e l       .debug_str	00000000 
00000372 l       .debug_str	00000000 
0000037a l       .debug_str	00000000 
00000391 l       .debug_str	00000000 
000003b5 l       .debug_str	00000000 
00000000 l     O .rodata.cst8	00000008 .Lanon.3ed011473997af99b525cde47c9eaaac.0
00000008 l     O .rodata.cst8	00000008 .Lanon.3ed011473997af99b525cde47c9eaaac.1
00000010 l     O .rodata.cst8	00000008 .Lanon.3ed011473997af99b525cde47c9eaaac.2
00000000 l     O .rodata..Lanon.3ed011473997af99b525cde47c9eaaac.3	00000006 .Lanon.3ed011473997af99b525cde47c9eaaac.3
00000000 l     O .rodata..Lanon.3ed011473997af99b525cde47c9eaaac.4	00000007 .Lanon.3ed011473997af99b525cde47c9eaaac.4
00000000 l     O .rodata..Lanon.3ed011473997af99b525cde47c9eaaac.5	00000003 .Lanon.3ed011473997af99b525cde47c9eaaac.5
00000018 l     O .rodata.cst8	00000008 .Lanon.3ed011473997af99b525cde47c9eaaac.6
00000000 l     O .rodata..Lanon.3ed011473997af99b525cde47c9eaaac.7	00000001 .Lanon.3ed011473997af99b525cde47c9eaaac.7
00000000 l    d  .text.main	00000000 .text.main
00000000 l    d  .text.rust_begin_unwind	00000000 .text.rust_begin_unwind
00000000 l    d  .debug_abbrev	00000000 .debug_abbrev
00000000 l    d  .debug_info	00000000 .debug_info
00000000 l    d  .debug_ranges	00000000 .debug_ranges
00000000 l    d  .debug_frame	00000000 .debug_frame
00000000 l    d  .debug_line	00000000 .debug_line
00000000         *UND*	00000000 .hidden _ZN3app10app_sensor21start_sensor_listener17h7939c7ebab994b0cE
00000000         *UND*	00000000 _ZN4core5panic8Location4file17h94cc6af18de736c4E
00000000         *UND*	00000000 _ZN4core5panic8Location4line17h3ffc63f14d0a6636E
00000000         *UND*	00000000 _ZN4core5panic9PanicInfo8location17h5226165d8771f8a2E
00000000         *UND*	00000000 _ZN4core6result19Result$LT$T$C$E$GT$6expect17h2fff601934191de6E
00000000         *UND*	00000000 _ZN4core6result19Result$LT$T$C$E$GT$6expect17h5d84aa78d3cb1f4bE
00000000         *UND*	00000000 _ZN6mynewt3sys7console5flush17hd3edc8d6ed39f65bE
00000000         *UND*	00000000 _ZN6mynewt3sys7console5print17hb1682fdf35bd72e2E
00000000         *UND*	00000000 _ZN6mynewt3sys7console6buffer17h879fbe75b694f9b0E
00000000         *UND*	00000000 _ZN6mynewt3sys7console8printhex17h213859656f416868E
00000000         *UND*	00000000 _ZN6mynewt6kernel2os10eventq_run17hf94349a19187232aE
00000000         *UND*	00000000 _ZN6mynewt6kernel2os15eventq_dflt_get17hb4dc273e7d2c43d5E
00000000         *UND*	00000000 _ZN6mynewt7sysinit17hca204e3e3a01257fE
00000000         *UND*	00000000 __bkpt
00000000         *UND*	00000000 gps_l70r_start
00000000 g     F .text.main	00000064 main
00000000 g     F .text.rust_begin_unwind	000000ae rust_begin_unwind



Disassembly of section .text.main:

00000000 <main>:
main():
/Users/Luppy/mynewt/stm32bluepill-mynewt-sensor/rust/app/src/lib.rs:49
};

///  Main program that initialises the sensor, network driver and starts reading and sending sensor data in the background.
///  main() will be called at Mynewt startup. It replaces the C version of the main() function.
#[no_mangle]                 //  Don't mangle the name "main"
extern "C" fn main() -> ! {  //  Declare extern "C" because it will be called by Mynewt
   0:	b086      	sub	sp, #24
/Users/Luppy/mynewt/stm32bluepill-mynewt-sensor/rust/app/src/lib.rs:55
    //  Initialise the Mynewt packages and Blue Pill internal temperature sensor driver.
    //  Start the CoAP / OIC Background Task to transmit CoAP messages.  Any startup
    //  functions defined in pkg.yml of our custom drivers and libraries will be called by 
    //  sysinit().  Here are the startup functions consolidated by Mynewt:
    //  bin/targets/bluepill_my_sensor/generated/src/bluepill_my_sensor-sysinit-app.c
    mynewt::sysinit();
   2:	f7ff fffe 	bl	0 <_ZN6mynewt7sysinit17hca204e3e3a01257fE>
   6:	e7ff      	b.n	2 <_ZN3app10app_sensor21start_sensor_listener17h7939c7ebab994b0cE+0x2>
/Users/Luppy/mynewt/stm32bluepill-mynewt-sensor/rust/app/src/lib.rs:63
    ////sensor_network::start_server_transport()
        ////.expect("NET fail");

    //  Start polling the temperature sensor every 10 seconds in the background.
    //  If this is a standby wakeup, the server transport must already be started.
    app_sensor::start_sensor_listener()
   8:	f7ff fffe 	bl	0 <_ZN3app10app_sensor21start_sensor_listener17h7939c7ebab994b0cE>
   c:	9003      	str	r0, [sp, #12]
   e:	e7ff      	b.n	10 <main+0x10>
  10:	f240 0100 	movw	r1, #0
  14:	f2c0 0100 	movt	r1, #0
  18:	2208      	movs	r2, #8
  1a:	9803      	ldr	r0, [sp, #12]
  1c:	f7ff fffe 	bl	0 <_ZN4core6result19Result$LT$T$C$E$GT$6expect17h5d84aa78d3cb1f4bE>
  20:	e7ff      	b.n	2 <gps_l70r_start+0x2>
/Users/Luppy/mynewt/stm32bluepill-mynewt-sensor/rust/app/src/lib.rs:68
        .expect("TMP fail");

    //  Start the GPS.
    extern { fn gps_l70r_start() -> i32; }
    unsafe { gps_l70r_start() };
  22:	f7ff fffe 	bl	0 <gps_l70r_start>
  26:	9002      	str	r0, [sp, #8]
  28:	e7ff      	b.n	2a <main+0x2a>
  2a:	a804      	add	r0, sp, #16
/Users/Luppy/mynewt/stm32bluepill-mynewt-sensor/rust/app/src/lib.rs:73

    //  Main event loop
    loop {                            //  Loop forever...
        os::eventq_run(               //  Processing events...
            os::eventq_dflt_get()     //  From default event queue.
  2c:	f7ff fffe 	bl	0 <_ZN6mynewt6kernel2os15eventq_dflt_get17hb4dc273e7d2c43d5E>
  30:	e7ff      	b.n	a <main+0xa>
  32:	f240 0100 	movw	r1, #0
  36:	f2c0 0100 	movt	r1, #0
  3a:	a804      	add	r0, sp, #16
  3c:	2208      	movs	r2, #8
  3e:	f7ff fffe 	bl	0 <_ZN4core6result19Result$LT$T$C$E$GT$6expect17h2fff601934191de6E>
  42:	9001      	str	r0, [sp, #4]
  44:	e7ff      	b.n	46 <main+0x46>
/Users/Luppy/mynewt/stm32bluepill-mynewt-sensor/rust/app/src/lib.rs:72
        os::eventq_run(               //  Processing events...
  46:	9801      	ldr	r0, [sp, #4]
  48:	f7ff fffe 	bl	0 <_ZN6mynewt6kernel2os10eventq_run17hf94349a19187232aE>
  4c:	9000      	str	r0, [sp, #0]
  4e:	e7ff      	b.n	50 <main+0x50>
  50:	f240 0100 	movw	r1, #0
  54:	f2c0 0100 	movt	r1, #0
  58:	2208      	movs	r2, #8
  5a:	9800      	ldr	r0, [sp, #0]
  5c:	f7ff fffe 	bl	0 <_ZN4core6result19Result$LT$T$C$E$GT$6expect17h5d84aa78d3cb1f4bE>
  60:	e7ff      	b.n	62 <main+0x62>
/Users/Luppy/mynewt/stm32bluepill-mynewt-sensor/rust/app/src/lib.rs:71
    loop {                            //  Loop forever...
  62:	e7e2      	b.n	2a <main+0x2a>

Disassembly of section .text.rust_begin_unwind:

00000000 <rust_begin_unwind>:
rust_begin_unwind():
/Users/Luppy/mynewt/stm32bluepill-mynewt-sensor/rust/app/src/lib.rs:82
    //  Never comes here
}

///  This function is called on panic, like an assertion failure. We display the filename and line number and pause in the debugger. From https://os.phil-opp.com/freestanding-rust-binary/
#[panic_handler]
fn panic(info: &PanicInfo) -> ! {
   0:	b088      	sub	sp, #32
   2:	4601      	mov	r1, r0
   4:	9002      	str	r0, [sp, #8]
/Users/Luppy/mynewt/stm32bluepill-mynewt-sensor/rust/app/src/lib.rs:84
    //  Display the filename and line number to the Semihosting Console.
    console::print("panic ");
   6:	f240 0000 	movw	r0, #0
   a:	f2c0 0000 	movt	r0, #0
   e:	2206      	movs	r2, #6
  10:	9101      	str	r1, [sp, #4]
  12:	4611      	mov	r1, r2
  14:	f7ff fffe 	bl	0 <_ZN6mynewt3sys7console5print17hb1682fdf35bd72e2E>
  18:	e7ff      	b.n	1a <rust_begin_unwind+0x1a>
/Users/Luppy/mynewt/stm32bluepill-mynewt-sensor/rust/app/src/lib.rs:85
    if let Some(location) = info.location() {
  1a:	9802      	ldr	r0, [sp, #8]
  1c:	f7ff fffe 	bl	0 <_ZN4core5panic9PanicInfo8location17h5226165d8771f8a2E>
  20:	9003      	str	r0, [sp, #12]
  22:	e7ff      	b.n	24 <rust_begin_unwind+0x24>
  24:	9803      	ldr	r0, [sp, #12]
  26:	2800      	cmp	r0, #0
  28:	d032      	beq.n	90 <rust_begin_unwind+0x90>
  2a:	e7ff      	b.n	2c <rust_begin_unwind+0x2c>
  2c:	9803      	ldr	r0, [sp, #12]
  2e:	9004      	str	r0, [sp, #16]
/Users/Luppy/mynewt/stm32bluepill-mynewt-sensor/rust/app/src/lib.rs:86
        let file = location.file();
  30:	9804      	ldr	r0, [sp, #16]
  32:	f7ff fffe 	bl	0 <_ZN4core5panic8Location4file17h94cc6af18de736c4E>
  36:	9106      	str	r1, [sp, #24]
  38:	9005      	str	r0, [sp, #20]
  3a:	e7ff      	b.n	3c <rust_begin_unwind+0x3c>
/Users/Luppy/mynewt/stm32bluepill-mynewt-sensor/rust/app/src/lib.rs:87
        let line = location.line();
  3c:	9804      	ldr	r0, [sp, #16]
  3e:	f7ff fffe 	bl	0 <_ZN4core5panic8Location4line17h3ffc63f14d0a6636E>
  42:	9007      	str	r0, [sp, #28]
  44:	e7ff      	b.n	46 <rust_begin_unwind+0x46>
/Users/Luppy/mynewt/stm32bluepill-mynewt-sensor/rust/app/src/lib.rs:88
        console::print("at ");        console::buffer(&file);
  46:	f240 0000 	movw	r0, #0
  4a:	f2c0 0000 	movt	r0, #0
  4e:	2103      	movs	r1, #3
  50:	f7ff fffe 	bl	0 <_ZN6mynewt3sys7console5print17hb1682fdf35bd72e2E>
  54:	e7ff      	b.n	56 <rust_begin_unwind+0x56>
  56:	9805      	ldr	r0, [sp, #20]
  58:	9906      	ldr	r1, [sp, #24]
  5a:	f7ff fffe 	bl	0 <_ZN6mynewt3sys7console6buffer17h879fbe75b694f9b0E>
  5e:	e7ff      	b.n	1a <rust_begin_unwind+0x1a>
/Users/Luppy/mynewt/stm32bluepill-mynewt-sensor/rust/app/src/lib.rs:89
        console::print(" line 0x");   console::printhex(line as u8);  //  TODO: Print in decimal not hex. Allow more than 255 lines.
  60:	f240 0000 	movw	r0, #0
  64:	f2c0 0000 	movt	r0, #0
  68:	2108      	movs	r1, #8
  6a:	f7ff fffe 	bl	0 <_ZN6mynewt3sys7console5print17hb1682fdf35bd72e2E>
  6e:	e7ff      	b.n	70 <rust_begin_unwind+0x70>
  70:	9807      	ldr	r0, [sp, #28]
  72:	f7ff fffe 	bl	0 <_ZN6mynewt3sys7console8printhex17h213859656f416868E>
  76:	e7ff      	b.n	2 <rust_begin_unwind+0x2>
/Users/Luppy/mynewt/stm32bluepill-mynewt-sensor/rust/app/src/lib.rs:90
        console::print("\n");         console::flush();
  78:	f240 0000 	movw	r0, #0
  7c:	f2c0 0000 	movt	r0, #0
  80:	2101      	movs	r1, #1
  82:	f7ff fffe 	bl	0 <_ZN6mynewt3sys7console5print17hb1682fdf35bd72e2E>
  86:	e7ff      	b.n	2 <_ZN6mynewt3sys7console5flush17hd3edc8d6ed39f65bE+0x2>
  88:	f7ff fffe 	bl	0 <_ZN6mynewt3sys7console5flush17hd3edc8d6ed39f65bE>
  8c:	e7ff      	b.n	8e <rust_begin_unwind+0x8e>
/Users/Luppy/mynewt/stm32bluepill-mynewt-sensor/rust/app/src/lib.rs:85
    if let Some(location) = info.location() {
  8e:	e00a      	b.n	a6 <rust_begin_unwind+0xa6>
/Users/Luppy/mynewt/stm32bluepill-mynewt-sensor/rust/app/src/lib.rs:92
    } else {
        console::print("no loc\n");   console::flush();
  90:	f240 0000 	movw	r0, #0
  94:	f2c0 0000 	movt	r0, #0
  98:	2107      	movs	r1, #7
  9a:	f7ff fffe 	bl	0 <_ZN6mynewt3sys7console5print17hb1682fdf35bd72e2E>
  9e:	e7ff      	b.n	2 <_ZN6mynewt3sys7console5flush17hd3edc8d6ed39f65bE+0x2>
  a0:	f7ff fffe 	bl	0 <_ZN6mynewt3sys7console5flush17hd3edc8d6ed39f65bE>
  a4:	e7ff      	b.n	2 <__bkpt+0x2>
_ZN8cortex_m3asm4bkpt17h38d1ae7ad2dd546bE():
/Users/Luppy/.cargo/registry/src/github.com-1ecc6299db9ec823/cortex-m-0.6.0/src/asm.rs:19
        () => unsafe {
            extern "C" {
                fn __bkpt();
            }

            __bkpt();
  a6:	f7ff fffe 	bl	0 <__bkpt>
rust_begin_unwind():
/Users/Luppy/mynewt/stm32bluepill-mynewt-sensor/rust/app/src/lib.rs:95
    }
    //  Pause in the debugger.
    bkpt();
  aa:	e7ff      	b.n	ac <rust_begin_unwind+0xac>
/Users/Luppy/mynewt/stm32bluepill-mynewt-sensor/rust/app/src/lib.rs:97
    //  Loop forever so that device won't restart.
    loop {}
  ac:	e7fe      	b.n	ac <rust_begin_unwind+0xac>

app-f1b560250e7c1912.ofkm9nozj6gi6be.rcgu.o:     file format elf32-littlearm

SYMBOL TABLE:
00000000 l    df *ABS*	00000000 ofkm9nozj6gi6be
00001bec l       .debug_str	00000000 
000022b3 l       .debug_str	00000000 
000022c8 l       .debug_str	00000000 
000022db l       .debug_str	00000000 
000022f0 l       .debug_str	00000000 
000022f7 l       .debug_str	00000000 
0000230c l       .debug_str	00000000 
00002336 l       .debug_str	00000000 
00002365 l       .debug_str	00000000 
0000238f l       .debug_str	00000000 
00000000 l       .debug_str	00000000 
00000041 l       .debug_str	00000000 
00000055 l       .debug_str	00000000 
00000085 l       .debug_str	00000000 
0000008a l       .debug_str	00000000 
0000008e l       .debug_str	00000000 
00000091 l       .debug_str	00000000 
0000009c l       .debug_str	00000000 
000000a7 l       .debug_str	00000000 
000000ae l       .debug_str	00000000 
000000b2 l       .debug_str	00000000 
000000b9 l       .debug_str	00000000 
000000bc l       .debug_str	00000000 
000000c3 l       .debug_str	00000000 
000000cc l       .debug_str	00000000 
000000d2 l       .debug_str	00000000 
000000d9 l       .debug_str	00000000 
000000dc l       .debug_str	00000000 
000000e8 l       .debug_str	00000000 
000000f0 l       .debug_str	00000000 
000000f7 l       .debug_str	00000000 
000000fb l       .debug_str	00000000 
00000100 l       .debug_str	00000000 
00000104 l       .debug_str	00000000 
0000011b l       .debug_str	00000000 
00000175 l       .debug_str	00000000 
00000177 l       .debug_str	00000000 
0000017c l       .debug_str	00000000 
00000180 l       .debug_str	00000000 
000001e2 l       .debug_str	00000000 
000001ed l       .debug_str	00000000 
00000234 l       .debug_str	00000000 
00000283 l       .debug_str	00000000 
0000028d l       .debug_str	00000000 
000002ca l       .debug_str	00000000 
0000030f l       .debug_str	00000000 
00000318 l       .debug_str	00000000 
00000328 l       .debug_str	00000000 
00000330 l       .debug_str	00000000 
00000385 l       .debug_str	00000000 
000003e2 l       .debug_str	00000000 
000003ee l       .debug_str	00000000 
000003f7 l       .debug_str	00000000 
00000403 l       .debug_str	00000000 
0000040f l       .debug_str	00000000 
00000418 l       .debug_str	00000000 
00000420 l       .debug_str	00000000 
0000042a l       .debug_str	00000000 
00000432 l       .debug_str	00000000 
0000043c l       .debug_str	00000000 
00000451 l       .debug_str	00000000 
00000458 l       .debug_str	00000000 
00000478 l       .debug_str	00000000 
0000047f l       .debug_str	00000000 
00000487 l       .debug_str	00000000 
00000491 l       .debug_str	00000000 
0000049c l       .debug_str	00000000 
000004a5 l       .debug_str	00000000 
000004b0 l       .debug_str	00000000 
000004bc l       .debug_str	00000000 
000004c0 l       .debug_str	00000000 
000004c9 l       .debug_str	00000000 
000004d0 l       .debug_str	00000000 
000004d8 l       .debug_str	00000000 
000004e0 l       .debug_str	00000000 
000004ea l       .debug_str	00000000 
000004f0 l       .debug_str	00000000 
000004f7 l       .debug_str	00000000 
000004fe l       .debug_str	00000000 
0000052b l       .debug_str	00000000 
00000560 l       .debug_str	00000000 
00000566 l       .debug_str	00000000 
0000056c l       .debug_str	00000000 
0000057b l       .debug_str	00000000 
0000058b l       .debug_str	00000000 
0000059b l       .debug_str	00000000 
000005a3 l       .debug_str	00000000 
000005cc l       .debug_str	00000000 
0000062a l       .debug_str	00000000 
00000690 l       .debug_str	00000000 
00000697 l       .debug_str	00000000 
0000069f l       .debug_str	00000000 
000006a8 l       .debug_str	00000000 
000006c6 l       .debug_str	00000000 
000006d6 l       .debug_str	00000000 
000006e4 l       .debug_str	00000000 
000006ef l       .debug_str	00000000 
000006fc l       .debug_str	00000000 
0000070b l       .debug_str	00000000 
00000721 l       .debug_str	00000000 
0000072b l       .debug_str	00000000 
00000734 l       .debug_str	00000000 
0000073d l       .debug_str	00000000 
00000763 l       .debug_str	00000000 
00000779 l       .debug_str	00000000 
00000784 l       .debug_str	00000000 
0000079a l       .debug_str	00000000 
000007a2 l       .debug_str	00000000 
000007c3 l       .debug_str	00000000 
000007da l       .debug_str	00000000 
000007df l       .debug_str	00000000 
000007e7 l       .debug_str	00000000 
000007f0 l       .debug_str	00000000 
000007f9 l       .debug_str	00000000 
00000802 l       .debug_str	00000000 
0000080a l       .debug_str	00000000 
0000080e l       .debug_str	00000000 
00000815 l       .debug_str	00000000 
00000821 l       .debug_str	00000000 
0000082c l       .debug_str	00000000 
00000834 l       .debug_str	00000000 
0000083c l       .debug_str	00000000 
00000866 l       .debug_str	00000000 
000008e2 l       .debug_str	00000000 
00000966 l       .debug_str	00000000 
00000a62 l       .debug_str	00000000 
00000b66 l       .debug_str	00000000 
00000b74 l       .debug_str	00000000 
00000b7f l       .debug_str	00000000 
00000b89 l       .debug_str	00000000 
00000b9d l       .debug_str	00000000 
00000ba8 l       .debug_str	00000000 
00000bd6 l       .debug_str	00000000 
00000c51 l       .debug_str	00000000 
00000cd4 l       .debug_str	00000000 
00000ce2 l       .debug_str	00000000 
00000d41 l       .debug_str	00000000 
00000da8 l       .debug_str	00000000 
00000dbe l       .debug_str	00000000 
00000dce l       .debug_str	00000000 
00000ddd l       .debug_str	00000000 
00000de1 l       .debug_str	00000000 
00000de8 l       .debug_str	00000000 
00000dee l       .debug_str	00000000 
00000df2 l       .debug_str	00000000 
00000df8 l       .debug_str	00000000 
00000dfe l       .debug_str	00000000 
00000e0a l       .debug_str	00000000 
00000e12 l       .debug_str	00000000 
00000e18 l       .debug_str	00000000 
00000e20 l       .debug_str	00000000 
00000e26 l       .debug_str	00000000 
00000e49 l       .debug_str	00000000 
00000e59 l       .debug_str	00000000 
00000e8c l       .debug_str	00000000 
00000ecc l       .debug_str	00000000 
00000f14 l       .debug_str	00000000 
00000f18 l       .debug_str	00000000 
00000f1e l       .debug_str	00000000 
00000f24 l       .debug_str	00000000 
00000f2a l       .debug_str	00000000 
00000f3c l       .debug_str	00000000 
00000f71 l       .debug_str	00000000 
00000fb3 l       .debug_str	00000000 
00000ffd l       .debug_str	00000000 
00001001 l       .debug_str	00000000 
00001007 l       .debug_str	00000000 
0000100d l       .debug_str	00000000 
00001013 l       .debug_str	00000000 
00001025 l       .debug_str	00000000 
0000105a l       .debug_str	00000000 
0000109c l       .debug_str	00000000 
000010e6 l       .debug_str	00000000 
000010ea l       .debug_str	00000000 
000010f0 l       .debug_str	00000000 
000010f6 l       .debug_str	00000000 
000010fc l       .debug_str	00000000 
00001102 l       .debug_str	00000000 
00001113 l       .debug_str	00000000 
00001147 l       .debug_str	00000000 
00001188 l       .debug_str	00000000 
000011d1 l       .debug_str	00000000 
000011d6 l       .debug_str	00000000 
000011db l       .debug_str	00000000 
000011df l       .debug_str	00000000 
000011e5 l       .debug_str	00000000 
000011eb l       .debug_str	00000000 
000011f1 l       .debug_str	00000000 
00001202 l       .debug_str	00000000 
00001236 l       .debug_str	00000000 
00001277 l       .debug_str	00000000 
000012c0 l       .debug_str	00000000 
000012c4 l       .debug_str	00000000 
000012cd l       .debug_str	00000000 
000012de l       .debug_str	00000000 
00001312 l       .debug_str	00000000 
00001353 l       .debug_str	00000000 
0000139c l       .debug_str	00000000 
000013a1 l       .debug_str	00000000 
000013a5 l       .debug_str	00000000 
000013ae l       .debug_str	00000000 
000013b5 l       .debug_str	00000000 
000013bd l       .debug_str	00000000 
000013cf l       .debug_str	00000000 
00001404 l       .debug_str	00000000 
00001446 l       .debug_str	00000000 
00001490 l       .debug_str	00000000 
00001494 l       .debug_str	00000000 
0000149a l       .debug_str	00000000 
000014a0 l       .debug_str	00000000 
000014a6 l       .debug_str	00000000 
000014ac l       .debug_str	00000000 
000014b4 l       .debug_str	00000000 
000014c2 l       .debug_str	00000000 
000014d1 l       .debug_str	00000000 
000014e2 l       .debug_str	00000000 
000014ed l       .debug_str	00000000 
000014f8 l       .debug_str	00000000 
00001503 l       .debug_str	00000000 
0000150a l       .debug_str	00000000 
0000152d l       .debug_str	00000000 
0000153f l       .debug_str	00000000 
00001574 l       .debug_str	00000000 
000015b6 l       .debug_str	00000000 
00001600 l       .debug_str	00000000 
00001604 l       .debug_str	00000000 
0000160e l       .debug_str	00000000 
00001620 l       .debug_str	00000000 
00001655 l       .debug_str	00000000 
00001697 l       .debug_str	00000000 
000016e1 l       .debug_str	00000000 
000016e6 l       .debug_str	00000000 
000016f0 l       .debug_str	00000000 
00001702 l       .debug_str	00000000 
00001737 l       .debug_str	00000000 
00001779 l       .debug_str	00000000 
000017c3 l       .debug_str	00000000 
000017d7 l       .debug_str	00000000 
000017db l       .debug_str	00000000 
000017e9 l       .debug_str	00000000 
000017f9 l       .debug_str	00000000 
00001802 l       .debug_str	00000000 
0000180d l       .debug_str	00000000 
0000181c l       .debug_str	00000000 
00001831 l       .debug_str	00000000 
00001862 l       .debug_str	00000000 
000018ff l       .debug_str	00000000 
000019a4 l       .debug_str	00000000 
000019af l       .debug_str	00000000 
000019b8 l       .debug_str	00000000 
000019d9 l       .debug_str	00000000 
000019ec l       .debug_str	00000000 
00001a22 l       .debug_str	00000000 
00001aa5 l       .debug_str	00000000 
00001b30 l       .debug_str	00000000 
00001b4c l       .debug_str	00000000 
00001b98 l       .debug_str	00000000 
00001c09 l       .debug_str	00000000 
00001c1d l       .debug_str	00000000 
00001c69 l       .debug_str	00000000 
00001cbd l       .debug_str	00000000 
00001cd3 l       .debug_str	00000000 
00001ce7 l       .debug_str	00000000 
00001d2e l       .debug_str	00000000 
00001d7d l       .debug_str	00000000 
00001d86 l       .debug_str	00000000 
00001d94 l       .debug_str	00000000 
00001dc5 l       .debug_str	00000000 
00001dcb l       .debug_str	00000000 
00001dd3 l       .debug_str	00000000 
00001dda l       .debug_str	00000000 
00001de2 l       .debug_str	00000000 
00001ded l       .debug_str	00000000 
00001df5 l       .debug_str	00000000 
00001e04 l       .debug_str	00000000 
00001e08 l       .debug_str	00000000 
00001e13 l       .debug_str	00000000 
00001e1f l       .debug_str	00000000 
00001e2a l       .debug_str	00000000 
00001e3b l       .debug_str	00000000 
00001e41 l       .debug_str	00000000 
00001e49 l       .debug_str	00000000 
00001e50 l       .debug_str	00000000 
00001e5a l       .debug_str	00000000 
00001e62 l       .debug_str	00000000 
00001e6a l       .debug_str	00000000 
00001e8c l       .debug_str	00000000 
00001e97 l       .debug_str	00000000 
00001ea3 l       .debug_str	00000000 
00001eab l       .debug_str	00000000 
00001eb4 l       .debug_str	00000000 
00001ebf l       .debug_str	00000000 
00001ec6 l       .debug_str	00000000 
00001ed1 l       .debug_str	00000000 
00001edc l       .debug_str	00000000 
00001eec l       .debug_str	00000000 
00001ef6 l       .debug_str	00000000 
00001efc l       .debug_str	00000000 
00001f1e l       .debug_str	00000000 
00001f56 l       .debug_str	00000000 
00001f96 l       .debug_str	00000000 
00001f9d l       .debug_str	00000000 
00001fa5 l       .debug_str	00000000 
00001fbc l       .debug_str	00000000 
00001fc5 l       .debug_str	00000000 
00001fd5 l       .debug_str	00000000 
00001fe4 l       .debug_str	00000000 
00001fec l       .debug_str	00000000 
00001ff3 l       .debug_str	00000000 
00001ffb l       .debug_str	00000000 
00002019 l       .debug_str	00000000 
00002029 l       .debug_str	00000000 
0000205c l       .debug_str	00000000 
00002071 l       .debug_str	00000000 
0000207a l       .debug_str	00000000 
000020d7 l       .debug_str	00000000 
0000213c l       .debug_str	00000000 
00002146 l       .debug_str	00000000 
00002156 l       .debug_str	00000000 
0000216b l       .debug_str	00000000 
00002173 l       .debug_str	00000000 
000021d7 l       .debug_str	00000000 
00002243 l       .debug_str	00000000 
0000224a l       .debug_str	00000000 
00002252 l       .debug_str	00000000 
00002270 l       .debug_str	00000000 
00002280 l       .debug_str	00000000 
00000000 l    d  .text._ZN4core3ptr8null_mut17h24cf814abebeb867E	00000000 .text._ZN4core3ptr8null_mut17h24cf814abebeb867E
00000000 l    d  .text._ZN4core3ptr8null_mut17h9bb218a56760d6c4E	00000000 .text._ZN4core3ptr8null_mut17h9bb218a56760d6c4E
00000000 l    d  .debug_abbrev	00000000 .debug_abbrev
00000000 l    d  .debug_info	00000000 .debug_info
00000000 l    d  .debug_ranges	00000000 .debug_ranges
00000000 l    d  .debug_frame	00000000 .debug_frame
00000000 l    d  .debug_line	00000000 .debug_line
00000000 g     F .text._ZN4core3ptr8null_mut17h24cf814abebeb867E	00000004 _ZN4core3ptr8null_mut17h24cf814abebeb867E
00000000 g     F .text._ZN4core3ptr8null_mut17h9bb218a56760d6c4E	00000004 _ZN4core3ptr8null_mut17h9bb218a56760d6c4E



Disassembly of section .text._ZN4core3ptr8null_mut17h24cf814abebeb867E:

00000000 <_ZN4core3ptr8null_mut17h24cf814abebeb867E>:
_ZN4core3ptr8null_mut17h24cf814abebeb867E():
/rustc/50a0defd5a93523067ef239936cc2e0755220904/src/libcore/ptr.rs:229
   0:	2000      	movs	r0, #0
   2:	4770      	bx	lr

Disassembly of section .text._ZN4core3ptr8null_mut17h9bb218a56760d6c4E:

00000000 <_ZN4core3ptr8null_mut17h9bb218a56760d6c4E>:
_ZN4core3ptr8null_mut17h9bb218a56760d6c4E():
/rustc/50a0defd5a93523067ef239936cc2e0755220904/src/libcore/ptr.rs:229
   0:	2000      	movs	r0, #0
   2:	4770      	bx	lr

app-f1b560250e7c1912.u8pmfpgg5a2yro7.rcgu.o:     file format elf32-littlearm

SYMBOL TABLE:
00000000 l    df *ABS*	00000000 u8pmfpgg5a2yro7
000002b9 l       .debug_str	00000000 
000003d6 l       .debug_str	00000000 
000003e1 l       .debug_str	00000000 
000003fe l       .debug_str	00000000 
00000417 l       .debug_str	00000000 
00000421 l       .debug_str	00000000 
00000453 l       .debug_str	00000000 
00000000 l       .debug_str	00000000 
00000041 l       .debug_str	00000000 
00000055 l       .debug_str	00000000 
00000085 l       .debug_str	00000000 
0000008a l       .debug_str	00000000 
0000008e l       .debug_str	00000000 
00000091 l       .debug_str	00000000 
00000094 l       .debug_str	00000000 
00000097 l       .debug_str	00000000 
0000009c l       .debug_str	00000000 
000000a2 l       .debug_str	00000000 
000000a9 l       .debug_str	00000000 
000000b1 l       .debug_str	00000000 
000000bb l       .debug_str	00000000 
000000c2 l       .debug_str	00000000 
000000c5 l       .debug_str	00000000 
000000c9 l       .debug_str	00000000 
000000d0 l       .debug_str	00000000 
000000d7 l       .debug_str	00000000 
000000e0 l       .debug_str	00000000 
000000ea l       .debug_str	00000000 
000000f1 l       .debug_str	00000000 
000000f7 l       .debug_str	00000000 
000000fc l       .debug_str	00000000 
00000108 l       .debug_str	00000000 
00000110 l       .debug_str	00000000 
00000117 l       .debug_str	00000000 
0000011b l       .debug_str	00000000 
00000120 l       .debug_str	00000000 
00000129 l       .debug_str	00000000 
0000012e l       .debug_str	00000000 
00000131 l       .debug_str	00000000 
00000135 l       .debug_str	00000000 
0000013e l       .debug_str	00000000 
00000145 l       .debug_str	00000000 
0000014a l       .debug_str	00000000 
0000014f l       .debug_str	00000000 
00000155 l       .debug_str	00000000 
0000015b l       .debug_str	00000000 
00000165 l       .debug_str	00000000 
00000168 l       .debug_str	00000000 
0000016e l       .debug_str	00000000 
00000178 l       .debug_str	00000000 
00000180 l       .debug_str	00000000 
00000186 l       .debug_str	00000000 
0000018c l       .debug_str	00000000 
00000197 l       .debug_str	00000000 
000001a0 l       .debug_str	00000000 
000001c3 l       .debug_str	00000000 
000001e2 l       .debug_str	00000000 
000001e4 l       .debug_str	00000000 
000001e9 l       .debug_str	00000000 
00000210 l       .debug_str	00000000 
00000215 l       .debug_str	00000000 
0000021b l       .debug_str	00000000 
00000221 l       .debug_str	00000000 
00000224 l       .debug_str	00000000 
00000233 l       .debug_str	00000000 
0000023a l       .debug_str	00000000 
0000023e l       .debug_str	00000000 
00000247 l       .debug_str	00000000 
0000024f l       .debug_str	00000000 
00000257 l       .debug_str	00000000 
0000025e l       .debug_str	00000000 
00000272 l       .debug_str	00000000 
0000027e l       .debug_str	00000000 
0000028a l       .debug_str	00000000 
000002a3 l       .debug_str	00000000 
000002a8 l       .debug_str	00000000 
000002c3 l       .debug_str	00000000 
000002d1 l       .debug_str	00000000 
000002d5 l       .debug_str	00000000 
000002e0 l       .debug_str	00000000 
000002e7 l       .debug_str	00000000 
000002ed l       .debug_str	00000000 
000002f1 l       .debug_str	00000000 
000002f5 l       .debug_str	00000000 
000002fd l       .debug_str	00000000 
00000314 l       .debug_str	00000000 
00000338 l       .debug_str	00000000 
00000354 l       .debug_str	00000000 
0000035e l       .debug_str	00000000 
00000378 l       .debug_str	00000000 
00000000 l    d  .text._ZN4core3fmt9Arguments6new_v117h65750cb239a0e359E	00000000 .text._ZN4core3fmt9Arguments6new_v117h65750cb239a0e359E
00000000 l    d  .debug_abbrev	00000000 .debug_abbrev
00000000 l    d  .debug_info	00000000 .debug_info
00000000 l    d  .debug_frame	00000000 .debug_frame
00000000 l    d  .debug_line	00000000 .debug_line
00000000 g     F .text._ZN4core3fmt9Arguments6new_v117h65750cb239a0e359E	0000004c .hidden _ZN4core3fmt9Arguments6new_v117h65750cb239a0e359E



Disassembly of section .text._ZN4core3fmt9Arguments6new_v117h65750cb239a0e359E:

00000000 <_ZN4core3fmt9Arguments6new_v117h65750cb239a0e359E>:
_ZN4core3fmt9Arguments6new_v117h65750cb239a0e359E():
/rustc/50a0defd5a93523067ef239936cc2e0755220904/src/libcore/fmt/mod.rs:314
   0:	b570      	push	{r4, r5, r6, lr}
   2:	b08a      	sub	sp, #40	; 0x28
   4:	f8dd c038 	ldr.w	ip, [sp, #56]	; 0x38
   8:	469e      	mov	lr, r3
   a:	4614      	mov	r4, r2
   c:	460d      	mov	r5, r1
   e:	4606      	mov	r6, r0
  10:	9104      	str	r1, [sp, #16]
  12:	9205      	str	r2, [sp, #20]
  14:	9306      	str	r3, [sp, #24]
  16:	f8cd c01c 	str.w	ip, [sp, #28]
/rustc/50a0defd5a93523067ef239936cc2e0755220904/src/libcore/fmt/mod.rs:317
  1a:	9904      	ldr	r1, [sp, #16]
  1c:	9a05      	ldr	r2, [sp, #20]
  1e:	2300      	movs	r3, #0
/rustc/50a0defd5a93523067ef239936cc2e0755220904/src/libcore/fmt/mod.rs:318
  20:	9309      	str	r3, [sp, #36]	; 0x24
  22:	9308      	str	r3, [sp, #32]
  24:	9308      	str	r3, [sp, #32]
/rustc/50a0defd5a93523067ef239936cc2e0755220904/src/libcore/fmt/mod.rs:319
  26:	9b06      	ldr	r3, [sp, #24]
  28:	f8dd c01c 	ldr.w	ip, [sp, #28]
/rustc/50a0defd5a93523067ef239936cc2e0755220904/src/libcore/fmt/mod.rs:316
  2c:	6001      	str	r1, [r0, #0]
  2e:	6042      	str	r2, [r0, #4]
  30:	9908      	ldr	r1, [sp, #32]
  32:	9a09      	ldr	r2, [sp, #36]	; 0x24
  34:	6081      	str	r1, [r0, #8]
  36:	60c2      	str	r2, [r0, #12]
  38:	6103      	str	r3, [r0, #16]
  3a:	f8c0 c014 	str.w	ip, [r0, #20]
/rustc/50a0defd5a93523067ef239936cc2e0755220904/src/libcore/fmt/mod.rs:321
  3e:	f8cd e00c 	str.w	lr, [sp, #12]
  42:	9402      	str	r4, [sp, #8]
  44:	9501      	str	r5, [sp, #4]
  46:	9600      	str	r6, [sp, #0]
  48:	b00a      	add	sp, #40	; 0x28
  4a:	bd70      	pop	{r4, r5, r6, pc}
arm-none-eabi-objdump: rust.metadata.bin: File format not recognized
arm-none-eabi-objdump: app-f1b560250e7c1912.1100txxf3br1xj2k.rcgu.bc.z: File format not recognized
arm-none-eabi-objdump: app-f1b560250e7c1912.17tgp8w0b8msekkh.rcgu.bc.z: File format not recognized
arm-none-eabi-objdump: app-f1b560250e7c1912.1r25n1asbsmlozr4.rcgu.bc.z: File format not recognized
arm-none-eabi-objdump: app-f1b560250e7c1912.3kxuqob6slyisrfp.rcgu.bc.z: File format not recognized
arm-none-eabi-objdump: app-f1b560250e7c1912.3sjsqxnjxqqkheji.rcgu.bc.z: File format not recognized
arm-none-eabi-objdump: app-f1b560250e7c1912.4lctw9a02p63osgz.rcgu.bc.z: File format not recognized
arm-none-eabi-objdump: app-f1b560250e7c1912.ofkm9nozj6gi6be.rcgu.bc.z: File format not recognized
arm-none-eabi-objdump: app-f1b560250e7c1912.u8pmfpgg5a2yro7.rcgu.bc.z: File format not recognized
