In archive target\thumbv7em-none-eabihf\debug\libapp.rlib:

app-ba860f72f0ac9e7b.2bqatrntwn9uk26t.rcgu.o:     file format elf32-littlearm

SYMBOL TABLE:
00000000 l    df *ABS*	00000000 2bqatrntwn9uk26t
000012ed l       .debug_str	00000000 
0000296f l       .debug_str	00000000 
00002964 l       .debug_str	00000000 
00002960 l       .debug_str	00000000 
00002952 l       .debug_str	00000000 
00002948 l       .debug_str	00000000 
00002ab0 l       .debug_str	00000000 
00002937 l       .debug_str	00000000 
00002932 l       .debug_str	00000000 
00002919 l       .debug_str	00000000 
0000290d l       .debug_str	00000000 
00002901 l       .debug_str	00000000 
000028fa l       .debug_str	00000000 
000028f2 l       .debug_str	00000000 
000028ea l       .debug_str	00000000 
000028e1 l       .debug_str	00000000 
000028dd l       .debug_str	00000000 
00002aa6 l       .debug_str	00000000 
000028ce l       .debug_str	00000000 
000028c8 l       .debug_str	00000000 
000028c3 l       .debug_str	00000000 
0000289c l       .debug_str	00000000 
0000287d l       .debug_str	00000000 
0000285a l       .debug_str	00000000 
00002851 l       .debug_str	00000000 
00002846 l       .debug_str	00000000 
00002a8d l       .debug_str	00000000 
00002840 l       .debug_str	00000000 
0000283a l       .debug_str	00000000 
00002a70 l       .debug_str	00000000 
00002a65 l       .debug_str	00000000 
00002a07 l       .debug_str	00000000 
000029ed l       .debug_str	00000000 
000029e3 l       .debug_str	00000000 
000029c7 l       .debug_str	00000000 
000029a3 l       .debug_str	00000000 
0000298c l       .debug_str	00000000 
00002984 l       .debug_str	00000000 
00002980 l       .debug_str	00000000 
0000297c l       .debug_str	00000000 
00000000 l       .debug_str	00000000 
00000041 l       .debug_str	00000000 
00000055 l       .debug_str	00000000 
00000074 l       .debug_str	00000000 
00000078 l       .debug_str	00000000 
00000083 l       .debug_str	00000000 
0000008e l       .debug_str	00000000 
00000095 l       .debug_str	00000000 
00000099 l       .debug_str	00000000 
0000009c l       .debug_str	00000000 
000000a4 l       .debug_str	00000000 
000000a8 l       .debug_str	00000000 
000000b1 l       .debug_str	00000000 
000000bb l       .debug_str	00000000 
000000c2 l       .debug_str	00000000 
000000c8 l       .debug_str	00000000 
000000ce l       .debug_str	00000000 
000000d3 l       .debug_str	00000000 
000000db l       .debug_str	00000000 
000000e0 l       .debug_str	00000000 
00000114 l       .debug_str	00000000 
00000128 l       .debug_str	00000000 
0000012b l       .debug_str	00000000 
00000132 l       .debug_str	00000000 
00000136 l       .debug_str	00000000 
0000013b l       .debug_str	00000000 
00000140 l       .debug_str	00000000 
00000146 l       .debug_str	00000000 
0000014a l       .debug_str	00000000 
00000156 l       .debug_str	00000000 
0000015f l       .debug_str	00000000 
00000163 l       .debug_str	00000000 
0000016d l       .debug_str	00000000 
00000176 l       .debug_str	00000000 
00000186 l       .debug_str	00000000 
000001c3 l       .debug_str	00000000 
000001ca l       .debug_str	00000000 
000001ce l       .debug_str	00000000 
000001d6 l       .debug_str	00000000 
000001e1 l       .debug_str	00000000 
000001ec l       .debug_str	00000000 
000001f9 l       .debug_str	00000000 
00000204 l       .debug_str	00000000 
0000020c l       .debug_str	00000000 
00000217 l       .debug_str	00000000 
00000222 l       .debug_str	00000000 
0000022c l       .debug_str	00000000 
00000237 l       .debug_str	00000000 
00000242 l       .debug_str	00000000 
0000024f l       .debug_str	00000000 
0000025b l       .debug_str	00000000 
00000268 l       .debug_str	00000000 
00000276 l       .debug_str	00000000 
00000280 l       .debug_str	00000000 
0000028d l       .debug_str	00000000 
00000299 l       .debug_str	00000000 
0000029e l       .debug_str	00000000 
000002a2 l       .debug_str	00000000 
000002ad l       .debug_str	00000000 
000002b8 l       .debug_str	00000000 
000002bf l       .debug_str	00000000 
000002c3 l       .debug_str	00000000 
000002c6 l       .debug_str	00000000 
000002c9 l       .debug_str	00000000 
000002ce l       .debug_str	00000000 
000002d4 l       .debug_str	00000000 
000002db l       .debug_str	00000000 
000002e3 l       .debug_str	00000000 
000002ed l       .debug_str	00000000 
000002f0 l       .debug_str	00000000 
000002f4 l       .debug_str	00000000 
000002fb l       .debug_str	00000000 
00000337 l       .debug_str	00000000 
0000034a l       .debug_str	00000000 
0000034d l       .debug_str	00000000 
0000034f l       .debug_str	00000000 
00000351 l       .debug_str	00000000 
00000379 l       .debug_str	00000000 
000003b2 l       .debug_str	00000000 
000003c2 l       .debug_str	00000000 
000003fc l       .debug_str	00000000 
0000040d l       .debug_str	00000000 
00000411 l       .debug_str	00000000 
0000041f l       .debug_str	00000000 
00000425 l       .debug_str	00000000 
00000429 l       .debug_str	00000000 
00000435 l       .debug_str	00000000 
00000474 l       .debug_str	00000000 
0000048a l       .debug_str	00000000 
00000493 l       .debug_str	00000000 
00000499 l       .debug_str	00000000 
000004a0 l       .debug_str	00000000 
000004a3 l       .debug_str	00000000 
000004af l       .debug_str	00000000 
000004b7 l       .debug_str	00000000 
000004be l       .debug_str	00000000 
000004d5 l       .debug_str	00000000 
0000052f l       .debug_str	00000000 
00000534 l       .debug_str	00000000 
00000596 l       .debug_str	00000000 
000005a1 l       .debug_str	00000000 
000005e8 l       .debug_str	00000000 
00000637 l       .debug_str	00000000 
00000641 l       .debug_str	00000000 
0000067e l       .debug_str	00000000 
000006c3 l       .debug_str	00000000 
000006cc l       .debug_str	00000000 
000006dc l       .debug_str	00000000 
000006e4 l       .debug_str	00000000 
00000739 l       .debug_str	00000000 
00000796 l       .debug_str	00000000 
000007a2 l       .debug_str	00000000 
000007ab l       .debug_str	00000000 
000007b7 l       .debug_str	00000000 
000007c3 l       .debug_str	00000000 
000007cc l       .debug_str	00000000 
000007d4 l       .debug_str	00000000 
000007dc l       .debug_str	00000000 
000007e6 l       .debug_str	00000000 
000007fb l       .debug_str	00000000 
00000802 l       .debug_str	00000000 
00000822 l       .debug_str	00000000 
00000829 l       .debug_str	00000000 
00000831 l       .debug_str	00000000 
0000083b l       .debug_str	00000000 
00000846 l       .debug_str	00000000 
0000084f l       .debug_str	00000000 
0000085a l       .debug_str	00000000 
00000866 l       .debug_str	00000000 
0000086a l       .debug_str	00000000 
00000873 l       .debug_str	00000000 
0000087a l       .debug_str	00000000 
00000882 l       .debug_str	00000000 
0000088a l       .debug_str	00000000 
00000894 l       .debug_str	00000000 
0000089a l       .debug_str	00000000 
000008a1 l       .debug_str	00000000 
000008a8 l       .debug_str	00000000 
000008d5 l       .debug_str	00000000 
0000090a l       .debug_str	00000000 
00000910 l       .debug_str	00000000 
00000916 l       .debug_str	00000000 
00000925 l       .debug_str	00000000 
00000935 l       .debug_str	00000000 
00000945 l       .debug_str	00000000 
0000094d l       .debug_str	00000000 
00000976 l       .debug_str	00000000 
000009d4 l       .debug_str	00000000 
00000a3a l       .debug_str	00000000 
00000a41 l       .debug_str	00000000 
00000a49 l       .debug_str	00000000 
00000a52 l       .debug_str	00000000 
00000a70 l       .debug_str	00000000 
00000a80 l       .debug_str	00000000 
00000a8e l       .debug_str	00000000 
00000a99 l       .debug_str	00000000 
00000aa6 l       .debug_str	00000000 
00000ab5 l       .debug_str	00000000 
00000acb l       .debug_str	00000000 
00000ad5 l       .debug_str	00000000 
00000ade l       .debug_str	00000000 
00000ae7 l       .debug_str	00000000 
00000b0d l       .debug_str	00000000 
00000b23 l       .debug_str	00000000 
00000b2e l       .debug_str	00000000 
00000b44 l       .debug_str	00000000 
00000b4c l       .debug_str	00000000 
00000b6d l       .debug_str	00000000 
00000b84 l       .debug_str	00000000 
00000b89 l       .debug_str	00000000 
00000b91 l       .debug_str	00000000 
00000b9a l       .debug_str	00000000 
00000ba3 l       .debug_str	00000000 
00000bac l       .debug_str	00000000 
00000bb4 l       .debug_str	00000000 
00000bb8 l       .debug_str	00000000 
00000bbf l       .debug_str	00000000 
00000bcb l       .debug_str	00000000 
00000bd6 l       .debug_str	00000000 
00000bde l       .debug_str	00000000 
00000be6 l       .debug_str	00000000 
00000c62 l       .debug_str	00000000 
00000ce6 l       .debug_str	00000000 
00000de2 l       .debug_str	00000000 
00000ee6 l       .debug_str	00000000 
00000ef4 l       .debug_str	00000000 
00000eff l       .debug_str	00000000 
00000f09 l       .debug_str	00000000 
00000f1d l       .debug_str	00000000 
00000f28 l       .debug_str	00000000 
00000f56 l       .debug_str	00000000 
00000fd1 l       .debug_str	00000000 
00001054 l       .debug_str	00000000 
00001062 l       .debug_str	00000000 
000010c1 l       .debug_str	00000000 
00001128 l       .debug_str	00000000 
0000113e l       .debug_str	00000000 
0000114e l       .debug_str	00000000 
0000115d l       .debug_str	00000000 
00001161 l       .debug_str	00000000 
00001168 l       .debug_str	00000000 
0000116e l       .debug_str	00000000 
00001174 l       .debug_str	00000000 
0000117a l       .debug_str	00000000 
00001186 l       .debug_str	00000000 
0000118e l       .debug_str	00000000 
00001194 l       .debug_str	00000000 
0000119c l       .debug_str	00000000 
000011a2 l       .debug_str	00000000 
000011c5 l       .debug_str	00000000 
000011d5 l       .debug_str	00000000 
00001208 l       .debug_str	00000000 
00001248 l       .debug_str	00000000 
00001290 l       .debug_str	00000000 
00001294 l       .debug_str	00000000 
0000129a l       .debug_str	00000000 
000012a0 l       .debug_str	00000000 
000012a6 l       .debug_str	00000000 
000012b8 l       .debug_str	00000000 
00002832 l       .debug_str	00000000 
0000132f l       .debug_str	00000000 
00001379 l       .debug_str	00000000 
0000137d l       .debug_str	00000000 
00001383 l       .debug_str	00000000 
00001389 l       .debug_str	00000000 
0000138f l       .debug_str	00000000 
000013a1 l       .debug_str	00000000 
000013d6 l       .debug_str	00000000 
00001418 l       .debug_str	00000000 
00001462 l       .debug_str	00000000 
00001466 l       .debug_str	00000000 
0000146c l       .debug_str	00000000 
00001472 l       .debug_str	00000000 
00001478 l       .debug_str	00000000 
0000147e l       .debug_str	00000000 
0000148f l       .debug_str	00000000 
000014c3 l       .debug_str	00000000 
00001504 l       .debug_str	00000000 
0000154d l       .debug_str	00000000 
00001552 l       .debug_str	00000000 
00001557 l       .debug_str	00000000 
0000155b l       .debug_str	00000000 
00001561 l       .debug_str	00000000 
00001567 l       .debug_str	00000000 
0000156d l       .debug_str	00000000 
0000157e l       .debug_str	00000000 
000015b2 l       .debug_str	00000000 
000015f3 l       .debug_str	00000000 
0000163c l       .debug_str	00000000 
00001640 l       .debug_str	00000000 
00001649 l       .debug_str	00000000 
0000165a l       .debug_str	00000000 
0000168e l       .debug_str	00000000 
000016cf l       .debug_str	00000000 
00001718 l       .debug_str	00000000 
0000171d l       .debug_str	00000000 
00001721 l       .debug_str	00000000 
0000172a l       .debug_str	00000000 
00001731 l       .debug_str	00000000 
00001739 l       .debug_str	00000000 
0000174b l       .debug_str	00000000 
00001780 l       .debug_str	00000000 
000017c2 l       .debug_str	00000000 
0000180c l       .debug_str	00000000 
00001810 l       .debug_str	00000000 
00001816 l       .debug_str	00000000 
0000181c l       .debug_str	00000000 
00001822 l       .debug_str	00000000 
00001828 l       .debug_str	00000000 
00001830 l       .debug_str	00000000 
0000183e l       .debug_str	00000000 
0000184d l       .debug_str	00000000 
0000185e l       .debug_str	00000000 
00001869 l       .debug_str	00000000 
00001874 l       .debug_str	00000000 
0000187f l       .debug_str	00000000 
00001886 l       .debug_str	00000000 
000018a9 l       .debug_str	00000000 
000018bb l       .debug_str	00000000 
000018f0 l       .debug_str	00000000 
00001932 l       .debug_str	00000000 
0000197c l       .debug_str	00000000 
00001980 l       .debug_str	00000000 
0000198a l       .debug_str	00000000 
0000199c l       .debug_str	00000000 
000019d1 l       .debug_str	00000000 
00001a13 l       .debug_str	00000000 
00001a5d l       .debug_str	00000000 
00001a62 l       .debug_str	00000000 
00001a6c l       .debug_str	00000000 
00001a7e l       .debug_str	00000000 
00001ab3 l       .debug_str	00000000 
00001af5 l       .debug_str	00000000 
00001b3f l       .debug_str	00000000 
00001b53 l       .debug_str	00000000 
00001b57 l       .debug_str	00000000 
00001b65 l       .debug_str	00000000 
00001b75 l       .debug_str	00000000 
00001b7e l       .debug_str	00000000 
00001b89 l       .debug_str	00000000 
00001b98 l       .debug_str	00000000 
00001bad l       .debug_str	00000000 
00001bde l       .debug_str	00000000 
00001c7b l       .debug_str	00000000 
00001d20 l       .debug_str	00000000 
00001d2b l       .debug_str	00000000 
00001d34 l       .debug_str	00000000 
00001d55 l       .debug_str	00000000 
00001d68 l       .debug_str	00000000 
00001d9e l       .debug_str	00000000 
00001e21 l       .debug_str	00000000 
00001eac l       .debug_str	00000000 
00001ec8 l       .debug_str	00000000 
00001f14 l       .debug_str	00000000 
00001f68 l       .debug_str	00000000 
00001f85 l       .debug_str	00000000 
00001f99 l       .debug_str	00000000 
00001fe5 l       .debug_str	00000000 
00002039 l       .debug_str	00000000 
0000204f l       .debug_str	00000000 
00002063 l       .debug_str	00000000 
000020aa l       .debug_str	00000000 
000020f9 l       .debug_str	00000000 
00002102 l       .debug_str	00000000 
00002110 l       .debug_str	00000000 
00002141 l       .debug_str	00000000 
00002147 l       .debug_str	00000000 
0000214f l       .debug_str	00000000 
00002156 l       .debug_str	00000000 
0000215e l       .debug_str	00000000 
00002169 l       .debug_str	00000000 
00002171 l       .debug_str	00000000 
00002180 l       .debug_str	00000000 
00002184 l       .debug_str	00000000 
0000218f l       .debug_str	00000000 
0000219b l       .debug_str	00000000 
000021a6 l       .debug_str	00000000 
000021b7 l       .debug_str	00000000 
000021bd l       .debug_str	00000000 
000021c5 l       .debug_str	00000000 
000021cc l       .debug_str	00000000 
000021d6 l       .debug_str	00000000 
000021de l       .debug_str	00000000 
000021e6 l       .debug_str	00000000 
00002208 l       .debug_str	00000000 
00002213 l       .debug_str	00000000 
0000221f l       .debug_str	00000000 
00002227 l       .debug_str	00000000 
00002230 l       .debug_str	00000000 
0000223b l       .debug_str	00000000 
00002242 l       .debug_str	00000000 
0000224d l       .debug_str	00000000 
00002258 l       .debug_str	00000000 
00002268 l       .debug_str	00000000 
00002272 l       .debug_str	00000000 
00002278 l       .debug_str	00000000 
0000229a l       .debug_str	00000000 
000022d2 l       .debug_str	00000000 
00002312 l       .debug_str	00000000 
00002319 l       .debug_str	00000000 
00002321 l       .debug_str	00000000 
00002338 l       .debug_str	00000000 
00002341 l       .debug_str	00000000 
00002351 l       .debug_str	00000000 
00002360 l       .debug_str	00000000 
00002368 l       .debug_str	00000000 
0000236f l       .debug_str	00000000 
00002377 l       .debug_str	00000000 
00002395 l       .debug_str	00000000 
000023a5 l       .debug_str	00000000 
000023d8 l       .debug_str	00000000 
000023ed l       .debug_str	00000000 
000023f6 l       .debug_str	00000000 
00002453 l       .debug_str	00000000 
000024b8 l       .debug_str	00000000 
000024c2 l       .debug_str	00000000 
000024d2 l       .debug_str	00000000 
000024e7 l       .debug_str	00000000 
000024ef l       .debug_str	00000000 
00002553 l       .debug_str	00000000 
000025bf l       .debug_str	00000000 
000025c6 l       .debug_str	00000000 
000025ce l       .debug_str	00000000 
000025ec l       .debug_str	00000000 
000025fc l       .debug_str	00000000 
0000262f l       .debug_str	00000000 
00002644 l       .debug_str	00000000 
00002657 l       .debug_str	00000000 
0000266c l       .debug_str	00000000 
00002673 l       .debug_str	00000000 
00002688 l       .debug_str	00000000 
000026b2 l       .debug_str	00000000 
000026b6 l       .debug_str	00000000 
000026ba l       .debug_str	00000000 
000026c3 l       .debug_str	00000000 
000026c8 l       .debug_str	00000000 
000026d4 l       .debug_str	00000000 
000026e0 l       .debug_str	00000000 
000026ed l       .debug_str	00000000 
00002705 l       .debug_str	00000000 
00002711 l       .debug_str	00000000 
0000271e l       .debug_str	00000000 
0000272c l       .debug_str	00000000 
00002739 l       .debug_str	00000000 
0000274f l       .debug_str	00000000 
00002766 l       .debug_str	00000000 
0000277c l       .debug_str	00000000 
00002794 l       .debug_str	00000000 
00002797 l       .debug_str	00000000 
000027a0 l       .debug_str	00000000 
000027a5 l       .debug_str	00000000 
000027af l       .debug_str	00000000 
000027b4 l       .debug_str	00000000 
000027ba l       .debug_str	00000000 
000027bf l       .debug_str	00000000 
000027c4 l       .debug_str	00000000 
000027cb l       .debug_str	00000000 
000027d0 l       .debug_str	00000000 
000027dc l       .debug_str	00000000 
000027e4 l       .debug_str	00000000 
000027ed l       .debug_str	00000000 
000027f2 l       .debug_str	00000000 
000027f5 l       .debug_str	00000000 
000027fe l       .debug_str	00000000 
00002805 l       .debug_str	00000000 
0000280a l       .debug_str	00000000 
0000280f l       .debug_str	00000000 
00002815 l       .debug_str	00000000 
0000281f l       .debug_str	00000000 
00002822 l       .debug_str	00000000 
00002828 l       .debug_str	00000000 
00002976 l       .debug_str	00000000 
00000000 l     O .rodata..Lanon.e46afc319663ca1946cfe7c945d2b251.1	0000000e .Lanon.e46afc319663ca1946cfe7c945d2b251.1
00000000 l     O .rodata..Lanon.e46afc319663ca1946cfe7c945d2b251.10	00000007 .Lanon.e46afc319663ca1946cfe7c945d2b251.10
00000000 l     O .rodata..Lanon.e46afc319663ca1946cfe7c945d2b251.11	00000001 .Lanon.e46afc319663ca1946cfe7c945d2b251.11
00000000 l     O .rodata..Lanon.e46afc319663ca1946cfe7c945d2b251.12	00000014 .Lanon.e46afc319663ca1946cfe7c945d2b251.12
00000000 l     O .rodata..Lanon.e46afc319663ca1946cfe7c945d2b251.13	0000002a .Lanon.e46afc319663ca1946cfe7c945d2b251.13
00000000 l     O .rodata..Lanon.e46afc319663ca1946cfe7c945d2b251.15	0000000c .Lanon.e46afc319663ca1946cfe7c945d2b251.15
00000000 l     O .rodata.cst4	00000004 .Lanon.e46afc319663ca1946cfe7c945d2b251.16
00000000 l     O .rodata..Lanon.e46afc319663ca1946cfe7c945d2b251.20	00000018 .Lanon.e46afc319663ca1946cfe7c945d2b251.20
00000000 l     O .rodata..Lanon.e46afc319663ca1946cfe7c945d2b251.22	00000008 .Lanon.e46afc319663ca1946cfe7c945d2b251.22
00000000 l     O .rodata..Lanon.e46afc319663ca1946cfe7c945d2b251.23	00000000 .Lanon.e46afc319663ca1946cfe7c945d2b251.23
00000000 l     O .rodata..Lanon.e46afc319663ca1946cfe7c945d2b251.24	00000010 .Lanon.e46afc319663ca1946cfe7c945d2b251.24
00000000 l     O .rodata..Lanon.e46afc319663ca1946cfe7c945d2b251.4	00000018 .Lanon.e46afc319663ca1946cfe7c945d2b251.4
00000000 l     O .rodata..Lanon.e46afc319663ca1946cfe7c945d2b251.5	0000001c .Lanon.e46afc319663ca1946cfe7c945d2b251.5
00000000 l     O .rodata..Lanon.e46afc319663ca1946cfe7c945d2b251.7	00000018 .Lanon.e46afc319663ca1946cfe7c945d2b251.7
00000000 l     O .rodata..Lanon.e46afc319663ca1946cfe7c945d2b251.8	0000000f .Lanon.e46afc319663ca1946cfe7c945d2b251.8
00000000 l     O .rodata..Lanon.e46afc319663ca1946cfe7c945d2b251.9	00000007 .Lanon.e46afc319663ca1946cfe7c945d2b251.9
00000000 l     O .rodata._ZN3app10gps_sensor10GPS_DEVICE17h5c1dc9ec84221b48E	0000000c _ZN3app10gps_sensor10GPS_DEVICE17h5c1dc9ec84221b48E
00000000 l     F .text._ZN3app10gps_sensor15handle_gps_data17h161a6c6153221eeeE	00000152 _ZN3app10gps_sensor15handle_gps_data17h161a6c6153221eeeE
00000000 l     F .text._ZN3app10gps_sensor16convert_gps_data17hdeb43b8f0524d562E	00000218 _ZN3app10gps_sensor16convert_gps_data17hdeb43b8f0524d562E
00000000 l     O .bss._ZN3app10gps_sensor19current_geolocation17hc62d493c14b35f87E	00000020 _ZN3app10gps_sensor19current_geolocation17hc62d493c14b35f87E
00000000 l     F .text._ZN3app10gps_sensor21aggregate_sensor_data17h564b9a4ef9721806E	000000a2 _ZN3app10gps_sensor21aggregate_sensor_data17h564b9a4ef9721806E
00000000 l    d  .text._ZN3app10gps_sensor18start_gps_listener17hff4f7c9c3618b255E	00000000 .text._ZN3app10gps_sensor18start_gps_listener17hff4f7c9c3618b255E
00000000 l    d  .text._ZN3app10gps_sensor15handle_gps_data17h161a6c6153221eeeE	00000000 .text._ZN3app10gps_sensor15handle_gps_data17h161a6c6153221eeeE
00000000 l    d  .text._ZN3app10gps_sensor16convert_gps_data17hdeb43b8f0524d562E	00000000 .text._ZN3app10gps_sensor16convert_gps_data17hdeb43b8f0524d562E
00000000 l    d  .text._ZN3app10gps_sensor21aggregate_sensor_data17h564b9a4ef9721806E	00000000 .text._ZN3app10gps_sensor21aggregate_sensor_data17h564b9a4ef9721806E
00000000 l    d  .rodata..Lanon.e46afc319663ca1946cfe7c945d2b251.0	00000000 .rodata..Lanon.e46afc319663ca1946cfe7c945d2b251.0
00000000 l    d  .rodata._ZN3app10gps_sensor10GPS_DEVICE17h5c1dc9ec84221b48E	00000000 .rodata._ZN3app10gps_sensor10GPS_DEVICE17h5c1dc9ec84221b48E
00000000 l    d  .rodata..Lanon.e46afc319663ca1946cfe7c945d2b251.2	00000000 .rodata..Lanon.e46afc319663ca1946cfe7c945d2b251.2
00000000 l    d  .rodata..Lanon.e46afc319663ca1946cfe7c945d2b251.3	00000000 .rodata..Lanon.e46afc319663ca1946cfe7c945d2b251.3
00000000 l    d  .rodata..Lanon.e46afc319663ca1946cfe7c945d2b251.6	00000000 .rodata..Lanon.e46afc319663ca1946cfe7c945d2b251.6
00000000 l    d  .rodata..Lanon.e46afc319663ca1946cfe7c945d2b251.14	00000000 .rodata..Lanon.e46afc319663ca1946cfe7c945d2b251.14
00000000 l    d  .rodata..Lanon.e46afc319663ca1946cfe7c945d2b251.17	00000000 .rodata..Lanon.e46afc319663ca1946cfe7c945d2b251.17
00000000 l    d  .rodata..Lanon.e46afc319663ca1946cfe7c945d2b251.18	00000000 .rodata..Lanon.e46afc319663ca1946cfe7c945d2b251.18
00000000 l    d  .rodata..Lanon.e46afc319663ca1946cfe7c945d2b251.19	00000000 .rodata..Lanon.e46afc319663ca1946cfe7c945d2b251.19
00000000 l    d  .rodata..Lanon.e46afc319663ca1946cfe7c945d2b251.21	00000000 .rodata..Lanon.e46afc319663ca1946cfe7c945d2b251.21
00000000 l    d  .bss._ZN3app10gps_sensor19current_geolocation17hc62d493c14b35f87E	00000000 .bss._ZN3app10gps_sensor19current_geolocation17hc62d493c14b35f87E
00000000 l    d  .debug_loc	00000000 .debug_loc
00000000 l    d  .debug_abbrev	00000000 .debug_abbrev
00000000 l    d  .debug_info	00000000 .debug_info
00000000 l    d  .debug_ranges	00000000 .debug_ranges
00000000 l    d  .debug_frame	00000000 .debug_frame
00000000 l    d  .debug_line	00000000 .debug_line
00000000 g     F .text._ZN3app10gps_sensor18start_gps_listener17hff4f7c9c3618b255E	0000018c .hidden _ZN3app10gps_sensor18start_gps_listener17hff4f7c9c3618b255E
00000000         *UND*	00000000 _ZN42_$LT$$RF$T$u20$as$u20$core..fmt..Debug$GT$3fmt17h5f3655b75e30a970E
00000000         *UND*	00000000 _ZN4core3fmt10ArgumentV13new17hd9b543e4f4267a1eE
00000000         *UND*	00000000 _ZN4core3fmt10ArgumentV13new17hf7ba76b3ae396a12E
00000000         *UND*	00000000 .hidden _ZN4core3fmt9Arguments6new_v117hed481d77d3c83033E
00000000         *UND*	00000000 _ZN4core3ptr31_$LT$impl$u20$$BP$mut$u20$T$GT$7is_null17h2fb6a3a5463e515aE
00000000         *UND*	00000000 _ZN4core3ptr31_$LT$impl$u20$$BP$mut$u20$T$GT$7is_null17h4d8b2180f89bdb80E
00000000         *UND*	00000000 _ZN4core3ptr8null_mut17h9b62b0f2d444e6e2E
00000000         *UND*	00000000 _ZN4core9panicking5panic17h138a849f37d3ac2dE
00000000         *UND*	00000000 _ZN4core9panicking9panic_fmt17hbfe32cf8392a510cE
00000000         *UND*	00000000 _ZN50_$LT$T$u20$as$u20$core..convert..From$LT$T$GT$$GT$4from17he9bf930fef93cf18E
00000000         *UND*	00000000 _ZN59_$LT$core..fmt..Arguments$u20$as$u20$core..fmt..Display$GT$3fmt17hd71f50db4d05698dE
00000000         *UND*	00000000 _ZN6mynewt2hw6sensor10as_untyped17ha5537e83bf02040aE
00000000         *UND*	00000000 _ZN6mynewt2hw6sensor17register_listener17hc302d184d2da34dbE
00000000         *UND*	00000000 _ZN6mynewt2hw6sensor8bindings16set_poll_rate_ms17h1b333cb0fcc2972cE
00000000         *UND*	00000000 _ZN6mynewt2hw6sensor8bindings23mgr_find_next_bydevname17hcf58d7c66915afb3E
00000000         *UND*	00000000 _ZN6mynewt3sys7console10printfloat17h2616b070d64acd4bE
00000000         *UND*	00000000 _ZN6mynewt3sys7console11printdouble17h8cfea39cbc53f217E
00000000         *UND*	00000000 _ZN6mynewt3sys7console5flush17h6e6adb2d6c74f9b0E
00000000         *UND*	00000000 _ZN6mynewt3sys7console5print17ha0601e49e4927bc4E
00000000         *UND*	00000000 _ZN73_$LT$core..result..Result$LT$T$C$E$GT$$u20$as$u20$core..ops..try..Try$GT$10from_error17h411c740de4b3d5baE
00000000         *UND*	00000000 _ZN73_$LT$core..result..Result$LT$T$C$E$GT$$u20$as$u20$core..ops..try..Try$GT$11into_result17h421b2f04d2878290E
00000000         *UND*	00000000 _ZN73_$LT$core..result..Result$LT$T$C$E$GT$$u20$as$u20$core..ops..try..Try$GT$11into_result17h5477961aa483feaaE
00000000         *UND*	00000000 __aeabi_d2f
00000000         *UND*	00000000 __aeabi_memcpy
00000000         *UND*	00000000 __aeabi_memcpy8
00000000         *UND*	00000000 get_geolocation_data



Disassembly of section .text._ZN3app10gps_sensor18start_gps_listener17hff4f7c9c3618b255E:

00000000 <_ZN3app10gps_sensor18start_gps_listener17hff4f7c9c3618b255E>:
_ZN3app10gps_sensor18start_gps_listener17hff4f7c9c3618b255E():
c:\stm32bluepill-mynewt-sensor/rust\app\src/gps_sensor.rs:48
///  Type of sensor: Geolocation (latitude, longitude, altitude)
const GPS_SENSOR_TYPE: sensor_type_t = sensor::SENSOR_TYPE_GEOLOCATION;

///  Ask Mynewt to poll the GPS sensor and call `handle_gps_data()`
///  Return `Ok()` if successful, else return `Err()` with `MynewtError` error code inside.
pub fn start_gps_listener() -> MynewtResult<()>  {  //  Returns an error code upon error.
   0:	b5f0      	push	{r4, r5, r6, r7, lr}
   2:	b0b5      	sub	sp, #212	; 0xd4
c:\stm32bluepill-mynewt-sensor/rust\app\src/gps_sensor.rs:49
    console::print("Rust GPS poll\n");
   4:	f240 0000 	movw	r0, #0
   8:	f2c0 0000 	movt	r0, #0
   c:	210e      	movs	r1, #14
   e:	f7ff fffe 	bl	0 <_ZN6mynewt3sys7console5print17ha0601e49e4927bc4E>
  12:	e7ff      	b.n	2 <_ZN4core3ptr8null_mut17h9b62b0f2d444e6e2E+0x2>
c:\stm32bluepill-mynewt-sensor/rust\app\src/gps_sensor.rs:52

    //  Fetch the sensor by name, without locking the driver for exclusive access.
    let sensor = sensor::mgr_find_next_bydevname(&GPS_DEVICE, core::ptr::null_mut()) ? ;
  14:	f7ff fffe 	bl	0 <_ZN4core3ptr8null_mut17h9b62b0f2d444e6e2E>
  18:	900c      	str	r0, [sp, #48]	; 0x30
  1a:	e7ff      	b.n	1c <_ZN3app10gps_sensor18start_gps_listener17hff4f7c9c3618b255E+0x1c>
  1c:	f240 0100 	movw	r1, #0
  20:	f2c0 0100 	movt	r1, #0
  24:	a811      	add	r0, sp, #68	; 0x44
  26:	9a0c      	ldr	r2, [sp, #48]	; 0x30
  28:	f7ff fffe 	bl	0 <_ZN6mynewt2hw6sensor8bindings23mgr_find_next_bydevname17hcf58d7c66915afb3E>
  2c:	e7ff      	b.n	2e <_ZN3app10gps_sensor18start_gps_listener17hff4f7c9c3618b255E+0x2e>
  2e:	a80f      	add	r0, sp, #60	; 0x3c
  30:	a911      	add	r1, sp, #68	; 0x44
  32:	f7ff fffe 	bl	0 <_ZN73_$LT$core..result..Result$LT$T$C$E$GT$$u20$as$u20$core..ops..try..Try$GT$11into_result17h421b2f04d2878290E>
  36:	e7ff      	b.n	38 <_ZN3app10gps_sensor18start_gps_listener17hff4f7c9c3618b255E+0x38>
  38:	980f      	ldr	r0, [sp, #60]	; 0x3c
  3a:	2800      	cmp	r0, #0
  3c:	900b      	str	r0, [sp, #44]	; 0x2c
  3e:	d016      	beq.n	6e <_ZN3app10gps_sensor18start_gps_listener17hff4f7c9c3618b255E+0x6e>
  40:	e7ff      	b.n	42 <_ZN3app10gps_sensor18start_gps_listener17hff4f7c9c3618b255E+0x42>
  42:	980b      	ldr	r0, [sp, #44]	; 0x2c
  44:	2801      	cmp	r0, #1
  46:	d001      	beq.n	4c <_ZN3app10gps_sensor18start_gps_listener17hff4f7c9c3618b255E+0x4c>
  48:	e7ff      	b.n	4a <_ZN3app10gps_sensor18start_gps_listener17hff4f7c9c3618b255E+0x4a>
c:\stm32bluepill-mynewt-sensor/rust\app\src/gps_sensor.rs:70
    //  Register the Listener Function to be called with the polled sensor data.
    sensor::register_listener(sensor, listener) ? ;  //  `?` means in case of error, return error now.

    //  Return `Ok()` to indicate success.  This line should not end with a semicolon (;).
    Ok(())
}
  4a:	defe      	udf	#254	; 0xfe
c:\stm32bluepill-mynewt-sensor/rust\app\src/gps_sensor.rs:52
    let sensor = sensor::mgr_find_next_bydevname(&GPS_DEVICE, core::ptr::null_mut()) ? ;
  4c:	9810      	ldr	r0, [sp, #64]	; 0x40
  4e:	9013      	str	r0, [sp, #76]	; 0x4c
  50:	9813      	ldr	r0, [sp, #76]	; 0x4c
  52:	f7ff fffe 	bl	0 <_ZN50_$LT$T$u20$as$u20$core..convert..From$LT$T$GT$$GT$4from17he9bf930fef93cf18E>
  56:	900a      	str	r0, [sp, #40]	; 0x28
  58:	e7ff      	b.n	5a <_ZN3app10gps_sensor18start_gps_listener17hff4f7c9c3618b255E+0x5a>
  5a:	980a      	ldr	r0, [sp, #40]	; 0x28
  5c:	f7ff fffe 	bl	0 <_ZN73_$LT$core..result..Result$LT$T$C$E$GT$$u20$as$u20$core..ops..try..Try$GT$10from_error17h411c740de4b3d5baE>
  60:	900d      	str	r0, [sp, #52]	; 0x34
  62:	e7ff      	b.n	64 <_ZN3app10gps_sensor18start_gps_listener17hff4f7c9c3618b255E+0x64>
  64:	e002      	b.n	6c <_ZN3app10gps_sensor18start_gps_listener17hff4f7c9c3618b255E+0x6c>
c:\stm32bluepill-mynewt-sensor/rust\app\src/gps_sensor.rs:70
}
  66:	980d      	ldr	r0, [sp, #52]	; 0x34
  68:	b035      	add	sp, #212	; 0xd4
  6a:	bdf0      	pop	{r4, r5, r6, r7, pc}
c:\stm32bluepill-mynewt-sensor/rust\app\src/gps_sensor.rs:52
    let sensor = sensor::mgr_find_next_bydevname(&GPS_DEVICE, core::ptr::null_mut()) ? ;
  6c:	e7fb      	b.n	66 <_ZN3app10gps_sensor18start_gps_listener17hff4f7c9c3618b255E+0x66>
  6e:	9810      	ldr	r0, [sp, #64]	; 0x40
  70:	9014      	str	r0, [sp, #80]	; 0x50
  72:	9814      	ldr	r0, [sp, #80]	; 0x50
  74:	900e      	str	r0, [sp, #56]	; 0x38
c:\stm32bluepill-mynewt-sensor/rust\app\src/gps_sensor.rs:53
    assert!(!sensor.is_null(), "no gps");
  76:	980e      	ldr	r0, [sp, #56]	; 0x38
  78:	f7ff fffe 	bl	0 <_ZN4core3ptr31_$LT$impl$u20$$BP$mut$u20$T$GT$7is_null17h2fb6a3a5463e515aE>
  7c:	9009      	str	r0, [sp, #36]	; 0x24
  7e:	e7ff      	b.n	80 <_ZN3app10gps_sensor18start_gps_listener17hff4f7c9c3618b255E+0x80>
  80:	9809      	ldr	r0, [sp, #36]	; 0x24
  82:	07c1      	lsls	r1, r0, #31
  84:	2900      	cmp	r1, #0
  86:	d007      	beq.n	98 <_ZN3app10gps_sensor18start_gps_listener17hff4f7c9c3618b255E+0x98>
  88:	e7ff      	b.n	8a <_ZN3app10gps_sensor18start_gps_listener17hff4f7c9c3618b255E+0x8a>
  8a:	f240 0000 	movw	r0, #0
  8e:	f2c0 0000 	movt	r0, #0
  92:	f7ff fffe 	bl	0 <_ZN4core9panicking5panic17h138a849f37d3ac2dE>
  96:	defe      	udf	#254	; 0xfe
c:\stm32bluepill-mynewt-sensor/rust\app\src/gps_sensor.rs:56
    sensor::set_poll_rate_ms(&GPS_DEVICE, GPS_POLL_TIME) ? ;
  98:	f240 0000 	movw	r0, #0
  9c:	f2c0 0000 	movt	r0, #0
  a0:	f242 7110 	movw	r1, #10000	; 0x2710
  a4:	f7ff fffe 	bl	0 <_ZN6mynewt2hw6sensor8bindings16set_poll_rate_ms17h1b333cb0fcc2972cE>
  a8:	9008      	str	r0, [sp, #32]
  aa:	e7ff      	b.n	ac <_ZN3app10gps_sensor18start_gps_listener17hff4f7c9c3618b255E+0xac>
  ac:	9808      	ldr	r0, [sp, #32]
  ae:	f7ff fffe 	bl	0 <_ZN73_$LT$core..result..Result$LT$T$C$E$GT$$u20$as$u20$core..ops..try..Try$GT$11into_result17h5477961aa483feaaE>
  b2:	9015      	str	r0, [sp, #84]	; 0x54
  b4:	e7ff      	b.n	b6 <_ZN3app10gps_sensor18start_gps_listener17hff4f7c9c3618b255E+0xb6>
  b6:	9815      	ldr	r0, [sp, #84]	; 0x54
  b8:	1e41      	subs	r1, r0, #1
  ba:	bf18      	it	ne
  bc:	2101      	movne	r1, #1
  be:	2801      	cmp	r0, #1
  c0:	9107      	str	r1, [sp, #28]
  c2:	d011      	beq.n	e8 <_ZN3app10gps_sensor18start_gps_listener17hff4f7c9c3618b255E+0xe8>
  c4:	e7ff      	b.n	c6 <_ZN3app10gps_sensor18start_gps_listener17hff4f7c9c3618b255E+0xc6>
  c6:	9807      	ldr	r0, [sp, #28]
  c8:	2801      	cmp	r0, #1
  ca:	d1be      	bne.n	4a <_ZN3app10gps_sensor18start_gps_listener17hff4f7c9c3618b255E+0x4a>
  cc:	e7ff      	b.n	ce <_ZN3app10gps_sensor18start_gps_listener17hff4f7c9c3618b255E+0xce>
  ce:	9815      	ldr	r0, [sp, #84]	; 0x54
  d0:	9016      	str	r0, [sp, #88]	; 0x58
  d2:	9816      	ldr	r0, [sp, #88]	; 0x58
  d4:	f7ff fffe 	bl	0 <_ZN50_$LT$T$u20$as$u20$core..convert..From$LT$T$GT$$GT$4from17he9bf930fef93cf18E>
  d8:	9006      	str	r0, [sp, #24]
  da:	e7ff      	b.n	dc <_ZN3app10gps_sensor18start_gps_listener17hff4f7c9c3618b255E+0xdc>
  dc:	9806      	ldr	r0, [sp, #24]
  de:	f7ff fffe 	bl	0 <_ZN73_$LT$core..result..Result$LT$T$C$E$GT$$u20$as$u20$core..ops..try..Try$GT$10from_error17h411c740de4b3d5baE>
  e2:	900d      	str	r0, [sp, #52]	; 0x34
  e4:	e7ff      	b.n	e6 <_ZN3app10gps_sensor18start_gps_listener17hff4f7c9c3618b255E+0xe6>
  e6:	e7c1      	b.n	6c <_ZN3app10gps_sensor18start_gps_listener17hff4f7c9c3618b255E+0x6c>
c:\stm32bluepill-mynewt-sensor/rust\app\src/gps_sensor.rs:61
        sl_func       : sensor::as_untyped(handle_gps_data),  //  Listener function
  e8:	f240 0000 	movw	r0, #0
  ec:	f2c0 0000 	movt	r0, #0
  f0:	f7ff fffe 	bl	0 <_ZN6mynewt2hw6sensor10as_untyped17ha5537e83bf02040aE>
  f4:	9005      	str	r0, [sp, #20]
  f6:	e7ff      	b.n	f8 <_ZN3app10gps_sensor18start_gps_listener17hff4f7c9c3618b255E+0xf8>
  f8:	2000      	movs	r0, #0
c:\stm32bluepill-mynewt-sensor/rust\app\src/gps_sensor.rs:62
        ..fill_zero!(sensor_listener)     //  Set other fields to 0
  fa:	902a      	str	r0, [sp, #168]	; 0xa8
  fc:	9029      	str	r0, [sp, #164]	; 0xa4
  fe:	9028      	str	r0, [sp, #160]	; 0xa0
 100:	9027      	str	r0, [sp, #156]	; 0x9c
 102:	9026      	str	r0, [sp, #152]	; 0x98
 104:	9025      	str	r0, [sp, #148]	; 0x94
 106:	a81e      	add	r0, sp, #120	; 0x78
 108:	a925      	add	r1, sp, #148	; 0x94
 10a:	2218      	movs	r2, #24
 10c:	f7ff fffe 	bl	0 <__aeabi_memcpy>
 110:	9004      	str	r0, [sp, #16]
 112:	e7ff      	b.n	114 <_ZN3app10gps_sensor18start_gps_listener17hff4f7c9c3618b255E+0x114>
 114:	2000      	movs	r0, #0
c:\stm32bluepill-mynewt-sensor/rust\app\src/gps_sensor.rs:59
    let listener = sensor_listener {
 116:	9019      	str	r0, [sp, #100]	; 0x64
 118:	f04f 6000 	mov.w	r0, #134217728	; 0x8000000
 11c:	9018      	str	r0, [sp, #96]	; 0x60
 11e:	9805      	ldr	r0, [sp, #20]
 120:	901a      	str	r0, [sp, #104]	; 0x68
 122:	9921      	ldr	r1, [sp, #132]	; 0x84
 124:	911b      	str	r1, [sp, #108]	; 0x6c
 126:	9922      	ldr	r1, [sp, #136]	; 0x88
 128:	911c      	str	r1, [sp, #112]	; 0x70
c:\stm32bluepill-mynewt-sensor/rust\app\src/gps_sensor.rs:66
    sensor::register_listener(sensor, listener) ? ;  //  `?` means in case of error, return error now.
 12a:	980e      	ldr	r0, [sp, #56]	; 0x38
 12c:	a918      	add	r1, sp, #96	; 0x60
 12e:	aa2c      	add	r2, sp, #176	; 0xb0
 130:	4613      	mov	r3, r2
 132:	e891 50f0 	ldmia.w	r1, {r4, r5, r6, r7, ip, lr}
 136:	e883 50f0 	stmia.w	r3, {r4, r5, r6, r7, ip, lr}
 13a:	4611      	mov	r1, r2
 13c:	f7ff fffe 	bl	0 <_ZN6mynewt2hw6sensor17register_listener17hc302d184d2da34dbE>
 140:	9003      	str	r0, [sp, #12]
 142:	e7ff      	b.n	144 <_ZN3app10gps_sensor18start_gps_listener17hff4f7c9c3618b255E+0x144>
 144:	9803      	ldr	r0, [sp, #12]
 146:	f7ff fffe 	bl	0 <_ZN73_$LT$core..result..Result$LT$T$C$E$GT$$u20$as$u20$core..ops..try..Try$GT$11into_result17h5477961aa483feaaE>
 14a:	902b      	str	r0, [sp, #172]	; 0xac
 14c:	e7ff      	b.n	14e <_ZN3app10gps_sensor18start_gps_listener17hff4f7c9c3618b255E+0x14e>
 14e:	982b      	ldr	r0, [sp, #172]	; 0xac
 150:	1e41      	subs	r1, r0, #1
 152:	bf18      	it	ne
 154:	2101      	movne	r1, #1
 156:	2801      	cmp	r0, #1
 158:	9102      	str	r1, [sp, #8]
 15a:	d012      	beq.n	182 <_ZN3app10gps_sensor18start_gps_listener17hff4f7c9c3618b255E+0x182>
 15c:	e7ff      	b.n	15e <_ZN3app10gps_sensor18start_gps_listener17hff4f7c9c3618b255E+0x15e>
 15e:	9802      	ldr	r0, [sp, #8]
 160:	2801      	cmp	r0, #1
 162:	f47f af72 	bne.w	4a <_ZN3app10gps_sensor18start_gps_listener17hff4f7c9c3618b255E+0x4a>
 166:	e7ff      	b.n	168 <_ZN3app10gps_sensor18start_gps_listener17hff4f7c9c3618b255E+0x168>
 168:	982b      	ldr	r0, [sp, #172]	; 0xac
 16a:	9032      	str	r0, [sp, #200]	; 0xc8
 16c:	9832      	ldr	r0, [sp, #200]	; 0xc8
 16e:	f7ff fffe 	bl	0 <_ZN50_$LT$T$u20$as$u20$core..convert..From$LT$T$GT$$GT$4from17he9bf930fef93cf18E>
 172:	9001      	str	r0, [sp, #4]
 174:	e7ff      	b.n	176 <_ZN3app10gps_sensor18start_gps_listener17hff4f7c9c3618b255E+0x176>
 176:	9801      	ldr	r0, [sp, #4]
 178:	f7ff fffe 	bl	0 <_ZN73_$LT$core..result..Result$LT$T$C$E$GT$$u20$as$u20$core..ops..try..Try$GT$10from_error17h411c740de4b3d5baE>
 17c:	900d      	str	r0, [sp, #52]	; 0x34
 17e:	e7ff      	b.n	180 <_ZN3app10gps_sensor18start_gps_listener17hff4f7c9c3618b255E+0x180>
 180:	e774      	b.n	6c <_ZN3app10gps_sensor18start_gps_listener17hff4f7c9c3618b255E+0x6c>
 182:	2000      	movs	r0, #0
c:\stm32bluepill-mynewt-sensor/rust\app\src/gps_sensor.rs:69
    Ok(())
 184:	900d      	str	r0, [sp, #52]	; 0x34
 186:	2001      	movs	r0, #1
 188:	900d      	str	r0, [sp, #52]	; 0x34
c:\stm32bluepill-mynewt-sensor/rust\app\src/gps_sensor.rs:70
}
 18a:	e76c      	b.n	66 <_ZN3app10gps_sensor18start_gps_listener17hff4f7c9c3618b255E+0x66>

Disassembly of section .text._ZN3app10gps_sensor15handle_gps_data17h161a6c6153221eeeE:

00000000 <_ZN3app10gps_sensor15handle_gps_data17h161a6c6153221eeeE>:
_ZN3app10gps_sensor15handle_gps_data17h161a6c6153221eeeE():
c:\stm32bluepill-mynewt-sensor/rust\app\src/gps_sensor.rs:74

///  This listener function is called every 10 seconds by Mynewt to handle the polled GPS data.
///  Return 0 if we have handled the GPS data successfully.
extern fn handle_gps_data(sensor: sensor_ptr, _arg: sensor_arg, 
   0:	b5b0      	push	{r4, r5, r7, lr}
   2:	b0b8      	sub	sp, #224	; 0xe0
   4:	9b3d      	ldr	r3, [sp, #244]	; 0xf4
   6:	f8dd c0f0 	ldr.w	ip, [sp, #240]	; 0xf0
   a:	4696      	mov	lr, r2
   c:	460c      	mov	r4, r1
   e:	4605      	mov	r5, r0
  10:	9007      	str	r0, [sp, #28]
  12:	9108      	str	r1, [sp, #32]
  14:	9209      	str	r2, [sp, #36]	; 0x24
  16:	930b      	str	r3, [sp, #44]	; 0x2c
  18:	f8cd c028 	str.w	ip, [sp, #40]	; 0x28
c:\stm32bluepill-mynewt-sensor/rust\app\src/gps_sensor.rs:76
    sensor_data: sensor_data_ptr, sensor_type: sensor_type_t) -> MynewtError {
    console::print("\nInfo: Rust handle_gps_data\n");
  1c:	f240 0000 	movw	r0, #0
  20:	f2c0 0000 	movt	r0, #0
  24:	211c      	movs	r1, #28
  26:	f8cd e018 	str.w	lr, [sp, #24]
  2a:	9405      	str	r4, [sp, #20]
  2c:	9504      	str	r5, [sp, #16]
  2e:	f7ff fffe 	bl	0 <_ZN6mynewt3sys7console5print17ha0601e49e4927bc4E>
  32:	e7ff      	b.n	34 <_ZN3app10gps_sensor15handle_gps_data17h161a6c6153221eeeE+0x34>
c:\stm32bluepill-mynewt-sensor/rust\app\src/gps_sensor.rs:79

    //  Check that the GPS geolocation data is available.
    if sensor_data.is_null() { return MynewtError::SYS_EINVAL; }  //  Exit if GPS is not ready
  34:	9809      	ldr	r0, [sp, #36]	; 0x24
  36:	f7ff fffe 	bl	0 <_ZN4core3ptr31_$LT$impl$u20$$BP$mut$u20$T$GT$7is_null17h4d8b2180f89bdb80E>
  3a:	9003      	str	r0, [sp, #12]
  3c:	e7ff      	b.n	3e <_ZN3app10gps_sensor15handle_gps_data17h161a6c6153221eeeE+0x3e>
  3e:	9803      	ldr	r0, [sp, #12]
  40:	07c1      	lsls	r1, r0, #31
  42:	2900      	cmp	r1, #0
  44:	d007      	beq.n	56 <_ZN3app10gps_sensor15handle_gps_data17h161a6c6153221eeeE+0x56>
  46:	e7ff      	b.n	48 <_ZN3app10gps_sensor15handle_gps_data17h161a6c6153221eeeE+0x48>
  48:	f06f 0001 	mvn.w	r0, #1
  4c:	900d      	str	r0, [sp, #52]	; 0x34
  4e:	e7ff      	b.n	50 <_ZN3app10gps_sensor15handle_gps_data17h161a6c6153221eeeE+0x50>
c:\stm32bluepill-mynewt-sensor/rust\app\src/gps_sensor.rs:102
    //  Aggregate the GPS geolocation with other sensor data before transmitting to server.
    aggregate_sensor_data(sensor_value);

    //  Return 0 to Mynewt to indicate no error.  Should not end with a semicolon (;).
    MynewtError::SYS_EOK
}
  50:	980d      	ldr	r0, [sp, #52]	; 0x34
  52:	b038      	add	sp, #224	; 0xe0
  54:	bdb0      	pop	{r4, r5, r7, pc}
c:\stm32bluepill-mynewt-sensor/rust\app\src/gps_sensor.rs:80
    assert!(!sensor.is_null(), "null sensor");
  56:	9807      	ldr	r0, [sp, #28]
  58:	f7ff fffe 	bl	0 <_ZN4core3ptr31_$LT$impl$u20$$BP$mut$u20$T$GT$7is_null17h2fb6a3a5463e515aE>
  5c:	9002      	str	r0, [sp, #8]
  5e:	e7ff      	b.n	60 <_ZN3app10gps_sensor15handle_gps_data17h161a6c6153221eeeE+0x60>
  60:	9802      	ldr	r0, [sp, #8]
  62:	07c1      	lsls	r1, r0, #31
  64:	2900      	cmp	r1, #0
  66:	d007      	beq.n	78 <_ZN3app10gps_sensor15handle_gps_data17h161a6c6153221eeeE+0x78>
  68:	e7ff      	b.n	6a <_ZN3app10gps_sensor15handle_gps_data17h161a6c6153221eeeE+0x6a>
  6a:	f240 0000 	movw	r0, #0
  6e:	f2c0 0000 	movt	r0, #0
  72:	f7ff fffe 	bl	0 <_ZN4core9panicking5panic17h138a849f37d3ac2dE>
  76:	defe      	udf	#254	; 0xfe
c:\stm32bluepill-mynewt-sensor/rust\app\src/gps_sensor.rs:83
    let sensor_value = convert_gps_data(sensor_data, sensor_type);
  78:	9909      	ldr	r1, [sp, #36]	; 0x24
  7a:	9a0a      	ldr	r2, [sp, #40]	; 0x28
  7c:	9b0b      	ldr	r3, [sp, #44]	; 0x2c
  7e:	a80e      	add	r0, sp, #56	; 0x38
  80:	f7ff fffe 	bl	0 <_ZN3app10gps_sensor15handle_gps_data17h161a6c6153221eeeE>
  84:	e7ff      	b.n	86 <_ZN3app10gps_sensor15handle_gps_data17h161a6c6153221eeeE+0x86>
c:\stm32bluepill-mynewt-sensor/rust\app\src/gps_sensor.rs:84
    if let SensorValueType::None = sensor_value.value {
  86:	980e      	ldr	r0, [sp, #56]	; 0x38
  88:	2800      	cmp	r0, #0
  8a:	d10c      	bne.n	a6 <_ZN3app10gps_sensor15handle_gps_data17h161a6c6153221eeeE+0xa6>
  8c:	e7ff      	b.n	8e <_ZN3app10gps_sensor15handle_gps_data17h161a6c6153221eeeE+0x8e>
c:\stm32bluepill-mynewt-sensor/rust\app\src/gps_sensor.rs:85
        console::print("Warn: GPS not ready\n");
  8e:	f240 0000 	movw	r0, #0
  92:	f2c0 0000 	movt	r0, #0
  96:	2114      	movs	r1, #20
  98:	f7ff fffe 	bl	0 <_ZN6mynewt3sys7console5print17ha0601e49e4927bc4E>
  9c:	e7ff      	b.n	9e <_ZN3app10gps_sensor15handle_gps_data17h161a6c6153221eeeE+0x9e>
  9e:	f06f 0001 	mvn.w	r0, #1
c:\stm32bluepill-mynewt-sensor/rust\app\src/gps_sensor.rs:86
        return MynewtError::SYS_EINVAL;   //  Exit if GPS is not ready
  a2:	900d      	str	r0, [sp, #52]	; 0x34
  a4:	e7d4      	b.n	50 <_ZN3app10gps_sensor15handle_gps_data17h161a6c6153221eeeE+0x50>
c:\stm32bluepill-mynewt-sensor/rust\app\src/gps_sensor.rs:90
    if let SensorValueType::Geolocation { latitude, longitude, altitude } = sensor_value.value {
  a6:	980e      	ldr	r0, [sp, #56]	; 0x38
  a8:	2803      	cmp	r0, #3
  aa:	d145      	bne.n	138 <_ZN3app10gps_sensor15handle_gps_data17h161a6c6153221eeeE+0x138>
  ac:	e7ff      	b.n	ae <_ZN3app10gps_sensor15handle_gps_data17h161a6c6153221eeeE+0xae>
  ae:	ed9d 0b10 	vldr	d0, [sp, #64]	; 0x40
  b2:	ed8d 0b20 	vstr	d0, [sp, #128]	; 0x80
  b6:	ed9d 0b12 	vldr	d0, [sp, #72]	; 0x48
  ba:	ed8d 0b22 	vstr	d0, [sp, #136]	; 0x88
  be:	ed9d 0b14 	vldr	d0, [sp, #80]	; 0x50
  c2:	ed8d 0b24 	vstr	d0, [sp, #144]	; 0x90
c:\stm32bluepill-mynewt-sensor/rust\app\src/gps_sensor.rs:91
        console::print("Info: GPS lat: ");   console::printdouble(latitude);
  c6:	f240 0000 	movw	r0, #0
  ca:	f2c0 0000 	movt	r0, #0
  ce:	210f      	movs	r1, #15
  d0:	f7ff fffe 	bl	0 <_ZN6mynewt3sys7console5print17ha0601e49e4927bc4E>
  d4:	e7ff      	b.n	d6 <_ZN3app10gps_sensor15handle_gps_data17h161a6c6153221eeeE+0xd6>
  d6:	ed9d 0b20 	vldr	d0, [sp, #128]	; 0x80
  da:	f7ff fffe 	bl	0 <_ZN6mynewt3sys7console11printdouble17h8cfea39cbc53f217E>
  de:	e7ff      	b.n	2 <_ZN3app10gps_sensor15handle_gps_data17h161a6c6153221eeeE+0x2>
c:\stm32bluepill-mynewt-sensor/rust\app\src/gps_sensor.rs:92
        console::print(", lng: "); console::printdouble(longitude);
  e0:	f240 0000 	movw	r0, #0
  e4:	f2c0 0000 	movt	r0, #0
  e8:	2107      	movs	r1, #7
  ea:	f7ff fffe 	bl	0 <_ZN6mynewt3sys7console5print17ha0601e49e4927bc4E>
  ee:	e7ff      	b.n	f0 <_ZN3app10gps_sensor15handle_gps_data17h161a6c6153221eeeE+0xf0>
  f0:	ed9d 0b22 	vldr	d0, [sp, #136]	; 0x88
  f4:	f7ff fffe 	bl	0 <_ZN6mynewt3sys7console11printdouble17h8cfea39cbc53f217E>
  f8:	e7ff      	b.n	2 <_ZN3app10gps_sensor15handle_gps_data17h161a6c6153221eeeE+0x2>
c:\stm32bluepill-mynewt-sensor/rust\app\src/gps_sensor.rs:93
        console::print(", alt: "); console::printfloat(altitude as f32);
  fa:	f240 0000 	movw	r0, #0
  fe:	f2c0 0000 	movt	r0, #0
 102:	2107      	movs	r1, #7
 104:	f7ff fffe 	bl	0 <_ZN6mynewt3sys7console5print17ha0601e49e4927bc4E>
 108:	e7ff      	b.n	10a <_ZN3app10gps_sensor15handle_gps_data17h161a6c6153221eeeE+0x10a>
 10a:	ed9d 0b24 	vldr	d0, [sp, #144]	; 0x90
 10e:	ec51 0b10 	vmov	r0, r1, d0
 112:	f7ff fffe 	bl	0 <__aeabi_d2f>
 116:	ee00 0a10 	vmov	s0, r0
 11a:	f7ff fffe 	bl	0 <_ZN6mynewt3sys7console10printfloat17h2616b070d64acd4bE>
 11e:	e7ff      	b.n	2 <_ZN3app10gps_sensor15handle_gps_data17h161a6c6153221eeeE+0x2>
c:\stm32bluepill-mynewt-sensor/rust\app\src/gps_sensor.rs:94
        console::print("\n"); console::flush();
 120:	f240 0000 	movw	r0, #0
 124:	f2c0 0000 	movt	r0, #0
 128:	2101      	movs	r1, #1
 12a:	f7ff fffe 	bl	0 <_ZN6mynewt3sys7console5print17ha0601e49e4927bc4E>
 12e:	e7ff      	b.n	2 <_ZN6mynewt3sys7console5flush17h6e6adb2d6c74f9b0E+0x2>
 130:	f7ff fffe 	bl	0 <_ZN6mynewt3sys7console5flush17h6e6adb2d6c74f9b0E>
 134:	e7ff      	b.n	136 <_ZN3app10gps_sensor15handle_gps_data17h161a6c6153221eeeE+0x136>
c:\stm32bluepill-mynewt-sensor/rust\app\src/gps_sensor.rs:90
    if let SensorValueType::Geolocation { latitude, longitude, altitude } = sensor_value.value {
 136:	e7ff      	b.n	138 <_ZN3app10gps_sensor15handle_gps_data17h161a6c6153221eeeE+0x138>
 138:	a826      	add	r0, sp, #152	; 0x98
 13a:	a90e      	add	r1, sp, #56	; 0x38
 13c:	2248      	movs	r2, #72	; 0x48
c:\stm32bluepill-mynewt-sensor/rust\app\src/gps_sensor.rs:98
    aggregate_sensor_data(sensor_value);
 13e:	9001      	str	r0, [sp, #4]
 140:	f7ff fffe 	bl	0 <__aeabi_memcpy8>
 144:	9801      	ldr	r0, [sp, #4]
 146:	f7ff fffe 	bl	0 <_ZN3app10gps_sensor15handle_gps_data17h161a6c6153221eeeE>
 14a:	e7ff      	b.n	14c <_ZN3app10gps_sensor15handle_gps_data17h161a6c6153221eeeE+0x14c>
 14c:	2000      	movs	r0, #0
c:\stm32bluepill-mynewt-sensor/rust\app\src/gps_sensor.rs:101
    MynewtError::SYS_EOK
 14e:	900d      	str	r0, [sp, #52]	; 0x34
c:\stm32bluepill-mynewt-sensor/rust\app\src/gps_sensor.rs:102
}
 150:	e77e      	b.n	50 <_ZN3app10gps_sensor15handle_gps_data17h161a6c6153221eeeE+0x50>

Disassembly of section .text._ZN3app10gps_sensor16convert_gps_data17hdeb43b8f0524d562E:

00000000 <_ZN3app10gps_sensor16convert_gps_data17hdeb43b8f0524d562E>:
_ZN3app10gps_sensor16convert_gps_data17hdeb43b8f0524d562E():
c:\stm32bluepill-mynewt-sensor/rust\app\src/gps_sensor.rs:107

///  Convert the geolocation value received from Mynewt into a Geolocation `SensorValue` for transmission. 
///  `sensor_type` indicates the type of data in `sensor_data`.
#[allow(non_snake_case, unused_variables)]
fn convert_gps_data(sensor_data: sensor_data_ptr, sensor_type: sensor_type_t) -> SensorValue {
   0:	b5b0      	push	{r4, r5, r7, lr}
   2:	b0d6      	sub	sp, #344	; 0x158
   4:	469c      	mov	ip, r3
   6:	4696      	mov	lr, r2
   8:	460c      	mov	r4, r1
   a:	9113      	str	r1, [sp, #76]	; 0x4c
   c:	9315      	str	r3, [sp, #84]	; 0x54
   e:	9214      	str	r2, [sp, #80]	; 0x50
c:\stm32bluepill-mynewt-sensor/rust\app\src/gps_sensor.rs:108
    console::print("Info: GPS listener converting geolocation\n");
  10:	f240 0100 	movw	r1, #0
  14:	f2c0 0100 	movt	r1, #0
  18:	222a      	movs	r2, #42	; 0x2a
  1a:	900b      	str	r0, [sp, #44]	; 0x2c
  1c:	4608      	mov	r0, r1
  1e:	4611      	mov	r1, r2
  20:	f8cd c028 	str.w	ip, [sp, #40]	; 0x28
  24:	f8cd e024 	str.w	lr, [sp, #36]	; 0x24
  28:	9408      	str	r4, [sp, #32]
  2a:	f7ff fffe 	bl	0 <_ZN6mynewt3sys7console5print17ha0601e49e4927bc4E>
  2e:	e7ff      	b.n	30 <_ZN3app10gps_sensor16convert_gps_data17hdeb43b8f0524d562E+0x30>
  30:	2000      	movs	r0, #0
c:\stm32bluepill-mynewt-sensor/rust\app\src/gps_sensor.rs:112
    //  Construct and return a new `SensorValue` (without semicolon)
    SensorValue {
        key: &GPS_SENSOR_KEY,  //  Sensor data key is `geolocation`
        geo: SensorValueType::None,
  32:	9016      	str	r0, [sp, #88]	; 0x58
c:\stm32bluepill-mynewt-sensor/rust\app\src/gps_sensor.rs:114
        value: match sensor_type {
            SENSOR_TYPE_GEOLOCATION => {  //  If sensor data is GPS geolocation...
  34:	9914      	ldr	r1, [sp, #80]	; 0x50
  36:	9a15      	ldr	r2, [sp, #84]	; 0x54
  38:	9227      	str	r2, [sp, #156]	; 0x9c
  3a:	9126      	str	r1, [sp, #152]	; 0x98
c:\stm32bluepill-mynewt-sensor/rust\app\src/gps_sensor.rs:116
                //  Interpret the sensor data as a `sensor_geolocation_data` struct that contains GPS geolocation.
                let mut geolocation = fill_zero!(sensor_geolocation_data);
  3c:	f8cd 00d3 	str.w	r0, [sp, #211]	; 0xd3
  40:	9034      	str	r0, [sp, #208]	; 0xd0
  42:	9033      	str	r0, [sp, #204]	; 0xcc
  44:	9032      	str	r0, [sp, #200]	; 0xc8
  46:	9031      	str	r0, [sp, #196]	; 0xc4
  48:	9030      	str	r0, [sp, #192]	; 0xc0
  4a:	902f      	str	r0, [sp, #188]	; 0xbc
  4c:	a828      	add	r0, sp, #160	; 0xa0
  4e:	a92f      	add	r1, sp, #188	; 0xbc
  50:	221b      	movs	r2, #27
  52:	f7ff fffe 	bl	0 <__aeabi_memcpy>
  56:	9007      	str	r0, [sp, #28]
  58:	e7ff      	b.n	5a <_ZN3app10gps_sensor16convert_gps_data17hdeb43b8f0524d562E+0x5a>
c:\stm32bluepill-mynewt-sensor/rust\app\src/gps_sensor.rs:117
                let rc = unsafe { sensor::get_geolocation_data(sensor_data, &mut geolocation) };
  5a:	9813      	ldr	r0, [sp, #76]	; 0x4c
  5c:	a928      	add	r1, sp, #160	; 0xa0
  5e:	f7ff fffe 	bl	0 <get_geolocation_data>
  62:	9036      	str	r0, [sp, #216]	; 0xd8
  64:	e7ff      	b.n	66 <_ZN3app10gps_sensor16convert_gps_data17hdeb43b8f0524d562E+0x66>
  66:	a836      	add	r0, sp, #216	; 0xd8
c:\stm32bluepill-mynewt-sensor/rust\app\src/gps_sensor.rs:118
                assert_eq!(rc, 0, "geodata fail");
  68:	9037      	str	r0, [sp, #220]	; 0xdc
  6a:	f240 0000 	movw	r0, #0
  6e:	f2c0 0000 	movt	r0, #0
  72:	9038      	str	r0, [sp, #224]	; 0xe0
  74:	9837      	ldr	r0, [sp, #220]	; 0xdc
  76:	9039      	str	r0, [sp, #228]	; 0xe4
  78:	9838      	ldr	r0, [sp, #224]	; 0xe0
  7a:	903a      	str	r0, [sp, #232]	; 0xe8
  7c:	9839      	ldr	r0, [sp, #228]	; 0xe4
  7e:	6800      	ldr	r0, [r0, #0]
  80:	993a      	ldr	r1, [sp, #232]	; 0xe8
  82:	6809      	ldr	r1, [r1, #0]
  84:	4288      	cmp	r0, r1
  86:	d014      	beq.n	b2 <_ZN3app10gps_sensor16convert_gps_data17hdeb43b8f0524d562E+0xb2>
  88:	e7ff      	b.n	8a <_ZN3app10gps_sensor16convert_gps_data17hdeb43b8f0524d562E+0x8a>
  8a:	9839      	ldr	r0, [sp, #228]	; 0xe4
  8c:	904a      	str	r0, [sp, #296]	; 0x128
  8e:	983a      	ldr	r0, [sp, #232]	; 0xe8
  90:	904b      	str	r0, [sp, #300]	; 0x12c
  92:	4668      	mov	r0, sp
  94:	2100      	movs	r1, #0
  96:	6001      	str	r1, [r0, #0]
  98:	f240 0100 	movw	r1, #0
  9c:	f2c0 0100 	movt	r1, #0
  a0:	f240 0300 	movw	r3, #0
  a4:	f2c0 0300 	movt	r3, #0
  a8:	a84c      	add	r0, sp, #304	; 0x130
  aa:	2201      	movs	r2, #1
  ac:	f7ff fffe 	bl	0 <_ZN4core3fmt9Arguments6new_v117hed481d77d3c83033E>
  b0:	e004      	b.n	bc <_ZN3app10gps_sensor16convert_gps_data17hdeb43b8f0524d562E+0xbc>
c:\stm32bluepill-mynewt-sensor/rust\app\src/gps_sensor.rs:120
                //  Check that the geolocation data is valid.
                if  geolocation.sgd_latitude_is_valid  != 0 &&
  b2:	f89d 00b8 	ldrb.w	r0, [sp, #184]	; 0xb8
  b6:	2800      	cmp	r0, #0
  b8:	d165      	bne.n	186 <_ZN3app10gps_sensor16convert_gps_data17hdeb43b8f0524d562E+0x186>
  ba:	e060      	b.n	17e <_ZN3app10gps_sensor16convert_gps_data17hdeb43b8f0524d562E+0x17e>
  bc:	a84a      	add	r0, sp, #296	; 0x128
c:\stm32bluepill-mynewt-sensor/rust\app\src/gps_sensor.rs:118
                assert_eq!(rc, 0, "geodata fail");
  be:	9047      	str	r0, [sp, #284]	; 0x11c
  c0:	a84b      	add	r0, sp, #300	; 0x12c
  c2:	9048      	str	r0, [sp, #288]	; 0x120
  c4:	a84c      	add	r0, sp, #304	; 0x130
  c6:	9049      	str	r0, [sp, #292]	; 0x124
  c8:	9847      	ldr	r0, [sp, #284]	; 0x11c
  ca:	9052      	str	r0, [sp, #328]	; 0x148
  cc:	9848      	ldr	r0, [sp, #288]	; 0x120
  ce:	9053      	str	r0, [sp, #332]	; 0x14c
  d0:	9849      	ldr	r0, [sp, #292]	; 0x124
  d2:	9054      	str	r0, [sp, #336]	; 0x150
  d4:	9852      	ldr	r0, [sp, #328]	; 0x148
  d6:	f240 0100 	movw	r1, #0
  da:	f2c0 0100 	movt	r1, #0
  de:	f7ff fffe 	bl	0 <_ZN4core3fmt10ArgumentV13new17hd9b543e4f4267a1eE>
  e2:	9006      	str	r0, [sp, #24]
  e4:	9105      	str	r1, [sp, #20]
  e6:	e7ff      	b.n	e8 <_ZN3app10gps_sensor16convert_gps_data17hdeb43b8f0524d562E+0xe8>
  e8:	9853      	ldr	r0, [sp, #332]	; 0x14c
  ea:	f240 0100 	movw	r1, #0
  ee:	f2c0 0100 	movt	r1, #0
  f2:	f7ff fffe 	bl	0 <_ZN4core3fmt10ArgumentV13new17hd9b543e4f4267a1eE>
  f6:	9004      	str	r0, [sp, #16]
  f8:	9103      	str	r1, [sp, #12]
  fa:	e7ff      	b.n	fc <_ZN3app10gps_sensor16convert_gps_data17hdeb43b8f0524d562E+0xfc>
  fc:	9854      	ldr	r0, [sp, #336]	; 0x150
  fe:	f240 0100 	movw	r1, #0
 102:	f2c0 0100 	movt	r1, #0
 106:	f7ff fffe 	bl	0 <_ZN4core3fmt10ArgumentV13new17hf7ba76b3ae396a12E>
 10a:	9002      	str	r0, [sp, #8]
 10c:	9101      	str	r1, [sp, #4]
 10e:	e7ff      	b.n	110 <_ZN3app10gps_sensor16convert_gps_data17hdeb43b8f0524d562E+0x110>
 110:	9806      	ldr	r0, [sp, #24]
 112:	9041      	str	r0, [sp, #260]	; 0x104
 114:	9905      	ldr	r1, [sp, #20]
 116:	9142      	str	r1, [sp, #264]	; 0x108
 118:	9a04      	ldr	r2, [sp, #16]
 11a:	9243      	str	r2, [sp, #268]	; 0x10c
 11c:	9b03      	ldr	r3, [sp, #12]
 11e:	9344      	str	r3, [sp, #272]	; 0x110
 120:	f8dd c008 	ldr.w	ip, [sp, #8]
 124:	f8cd c114 	str.w	ip, [sp, #276]	; 0x114
 128:	f8dd e004 	ldr.w	lr, [sp, #4]
 12c:	f8cd e118 	str.w	lr, [sp, #280]	; 0x118
 130:	466c      	mov	r4, sp
 132:	2503      	movs	r5, #3
 134:	6025      	str	r5, [r4, #0]
 136:	f240 0100 	movw	r1, #0
 13a:	f2c0 0100 	movt	r1, #0
 13e:	a83b      	add	r0, sp, #236	; 0xec
 140:	ab41      	add	r3, sp, #260	; 0x104
 142:	462a      	mov	r2, r5
 144:	f7ff fffe 	bl	0 <_ZN4core3fmt9Arguments6new_v117hed481d77d3c83033E>
 148:	e7ff      	b.n	2 <_ZN3app10gps_sensor16convert_gps_data17hdeb43b8f0524d562E+0x2>
 14a:	f240 0100 	movw	r1, #0
 14e:	f2c0 0100 	movt	r1, #0
 152:	a83b      	add	r0, sp, #236	; 0xec
 154:	f7ff fffe 	bl	0 <_ZN4core9panicking9panic_fmt17hbfe32cf8392a510cE>
 158:	defe      	udf	#254	; 0xfe
 15a:	2000      	movs	r0, #0
c:\stm32bluepill-mynewt-sensor/rust\app\src/gps_sensor.rs:120
                if  geolocation.sgd_latitude_is_valid  != 0 &&
 15c:	f88d 0156 	strb.w	r0, [sp, #342]	; 0x156
 160:	e007      	b.n	172 <_ZN3app10gps_sensor16convert_gps_data17hdeb43b8f0524d562E+0x172>
c:\stm32bluepill-mynewt-sensor/rust\app\src/gps_sensor.rs:122
                    geolocation.sgd_longitude_is_valid != 0 &&
                    geolocation.sgd_altitude_is_valid  != 0 {
 162:	f89d 00ba 	ldrb.w	r0, [sp, #186]	; 0xba
 166:	2800      	cmp	r0, #0
 168:	bf18      	it	ne
 16a:	2001      	movne	r0, #1
c:\stm32bluepill-mynewt-sensor/rust\app\src/gps_sensor.rs:120
                if  geolocation.sgd_latitude_is_valid  != 0 &&
 16c:	f88d 0156 	strb.w	r0, [sp, #342]	; 0x156
 170:	e7ff      	b.n	172 <_ZN3app10gps_sensor16convert_gps_data17hdeb43b8f0524d562E+0x172>
 172:	f89d 0156 	ldrb.w	r0, [sp, #342]	; 0x156
 176:	07c0      	lsls	r0, r0, #31
 178:	2800      	cmp	r0, #0
 17a:	d112      	bne.n	1a2 <_ZN3app10gps_sensor16convert_gps_data17hdeb43b8f0524d562E+0x1a2>
 17c:	e02c      	b.n	1d8 <_ZN3app10gps_sensor16convert_gps_data17hdeb43b8f0524d562E+0x1d8>
 17e:	2000      	movs	r0, #0
 180:	f88d 0157 	strb.w	r0, [sp, #343]	; 0x157
 184:	e007      	b.n	196 <_ZN3app10gps_sensor16convert_gps_data17hdeb43b8f0524d562E+0x196>
c:\stm32bluepill-mynewt-sensor/rust\app\src/gps_sensor.rs:121
                    geolocation.sgd_longitude_is_valid != 0 &&
 186:	f89d 00b9 	ldrb.w	r0, [sp, #185]	; 0xb9
 18a:	2800      	cmp	r0, #0
 18c:	bf18      	it	ne
 18e:	2001      	movne	r0, #1
c:\stm32bluepill-mynewt-sensor/rust\app\src/gps_sensor.rs:120
                if  geolocation.sgd_latitude_is_valid  != 0 &&
 190:	f88d 0157 	strb.w	r0, [sp, #343]	; 0x157
 194:	e7ff      	b.n	196 <_ZN3app10gps_sensor16convert_gps_data17hdeb43b8f0524d562E+0x196>
 196:	f89d 0157 	ldrb.w	r0, [sp, #343]	; 0x157
 19a:	07c0      	lsls	r0, r0, #31
 19c:	2800      	cmp	r0, #0
 19e:	d1e0      	bne.n	162 <_ZN3app10gps_sensor16convert_gps_data17hdeb43b8f0524d562E+0x162>
 1a0:	e7db      	b.n	15a <_ZN3app10gps_sensor16convert_gps_data17hdeb43b8f0524d562E+0x15a>
c:\stm32bluepill-mynewt-sensor/rust\app\src/gps_sensor.rs:125
                    //  Geolocation data is valid.  Return it.
                    SensorValueType::Geolocation {
                        latitude:  geolocation.sgd_latitude,
 1a2:	9828      	ldr	r0, [sp, #160]	; 0xa0
 1a4:	9929      	ldr	r1, [sp, #164]	; 0xa4
c:\stm32bluepill-mynewt-sensor/rust\app\src/gps_sensor.rs:126
                        longitude: geolocation.sgd_longitude,
 1a6:	9a2a      	ldr	r2, [sp, #168]	; 0xa8
 1a8:	9b2b      	ldr	r3, [sp, #172]	; 0xac
c:\stm32bluepill-mynewt-sensor/rust\app\src/gps_sensor.rs:125
                        latitude:  geolocation.sgd_latitude,
 1aa:	910d      	str	r1, [sp, #52]	; 0x34
 1ac:	900c      	str	r0, [sp, #48]	; 0x30
 1ae:	ed9d 0b0c 	vldr	d0, [sp, #48]	; 0x30
c:\stm32bluepill-mynewt-sensor/rust\app\src/gps_sensor.rs:126
                        longitude: geolocation.sgd_longitude,
 1b2:	930f      	str	r3, [sp, #60]	; 0x3c
 1b4:	920e      	str	r2, [sp, #56]	; 0x38
 1b6:	ed9d 1b0e 	vldr	d1, [sp, #56]	; 0x38
c:\stm32bluepill-mynewt-sensor/rust\app\src/gps_sensor.rs:127
                        altitude:  geolocation.sgd_altitude,
 1ba:	982d      	ldr	r0, [sp, #180]	; 0xb4
 1bc:	9011      	str	r0, [sp, #68]	; 0x44
 1be:	982c      	ldr	r0, [sp, #176]	; 0xb0
 1c0:	9010      	str	r0, [sp, #64]	; 0x40
 1c2:	ed9d 2b10 	vldr	d2, [sp, #64]	; 0x40
c:\stm32bluepill-mynewt-sensor/rust\app\src/gps_sensor.rs:124
                    SensorValueType::Geolocation {
 1c6:	ed8d 0b20 	vstr	d0, [sp, #128]	; 0x80
 1ca:	ed8d 1b22 	vstr	d1, [sp, #136]	; 0x88
 1ce:	ed8d 2b24 	vstr	d2, [sp, #144]	; 0x90
 1d2:	2003      	movs	r0, #3
 1d4:	901e      	str	r0, [sp, #120]	; 0x78
c:\stm32bluepill-mynewt-sensor/rust\app\src/gps_sensor.rs:120
                if  geolocation.sgd_latitude_is_valid  != 0 &&
 1d6:	e002      	b.n	1de <_ZN3app10gps_sensor16convert_gps_data17hdeb43b8f0524d562E+0x1de>
 1d8:	2000      	movs	r0, #0
c:\stm32bluepill-mynewt-sensor/rust\app\src/gps_sensor.rs:129
                    }
                } else { SensorValueType::None }  //  Geolocation data is invalid.  Maybe GPS is not ready.                 
 1da:	901e      	str	r0, [sp, #120]	; 0x78
c:\stm32bluepill-mynewt-sensor/rust\app\src/gps_sensor.rs:120
                if  geolocation.sgd_latitude_is_valid  != 0 &&
 1dc:	e7ff      	b.n	1de <_ZN3app10gps_sensor16convert_gps_data17hdeb43b8f0524d562E+0x1de>
c:\stm32bluepill-mynewt-sensor/rust\app\src/gps_sensor.rs:110
    SensorValue {
 1de:	f240 0000 	movw	r0, #0
 1e2:	f2c0 0000 	movt	r0, #0
 1e6:	990b      	ldr	r1, [sp, #44]	; 0x2c
 1e8:	6408      	str	r0, [r1, #64]	; 0x40
 1ea:	a81e      	add	r0, sp, #120	; 0x78
 1ec:	e8b0 500c 	ldmia.w	r0!, {r2, r3, ip, lr}
 1f0:	e8a1 500c 	stmia.w	r1!, {r2, r3, ip, lr}
 1f4:	e890 500c 	ldmia.w	r0, {r2, r3, ip, lr}
 1f8:	e881 500c 	stmia.w	r1, {r2, r3, ip, lr}
 1fc:	980b      	ldr	r0, [sp, #44]	; 0x2c
 1fe:	f100 0120 	add.w	r1, r0, #32
 202:	aa16      	add	r2, sp, #88	; 0x58
 204:	e8b2 5018 	ldmia.w	r2!, {r3, r4, ip, lr}
 208:	e8a1 5018 	stmia.w	r1!, {r3, r4, ip, lr}
 20c:	e892 5018 	ldmia.w	r2, {r3, r4, ip, lr}
 210:	e881 5018 	stmia.w	r1, {r3, r4, ip, lr}
c:\stm32bluepill-mynewt-sensor/rust\app\src/gps_sensor.rs:135
            }
            //  Unknown type of sensor value
            //  _ => { assert!(false, "sensor type"); SensorValueType::None }
        }
    }
}
 214:	b056      	add	sp, #344	; 0x158
 216:	bdb0      	pop	{r4, r5, r7, pc}

Disassembly of section .text._ZN3app10gps_sensor21aggregate_sensor_data17h564b9a4ef9721806E:

00000000 <_ZN3app10gps_sensor21aggregate_sensor_data17h564b9a4ef9721806E>:
_ZN3app10gps_sensor21aggregate_sensor_data17h564b9a4ef9721806E():
c:\stm32bluepill-mynewt-sensor/rust\app\src/gps_sensor.rs:140

static mut current_geolocation: SensorValueType = SensorValueType::None;

///  Aggregate the sensor value with other sensor data before transmitting to server.
fn aggregate_sensor_data(sensor_value: SensorValue) {
   0:	b570      	push	{r4, r5, r6, lr}
   2:	b0ac      	sub	sp, #176	; 0xb0
   4:	4601      	mov	r1, r0
c:\stm32bluepill-mynewt-sensor/rust\app\src/gps_sensor.rs:141
    if let SensorValueType::Geolocation {..} = sensor_value.value {
   6:	6800      	ldr	r0, [r0, #0]
   8:	2803      	cmp	r0, #3
   a:	9101      	str	r1, [sp, #4]
   c:	d118      	bne.n	40 <_ZN3app10gps_sensor21aggregate_sensor_data17h564b9a4ef9721806E+0x40>
   e:	e7ff      	b.n	10 <_ZN3app10gps_sensor21aggregate_sensor_data17h564b9a4ef9721806E+0x10>
  10:	a802      	add	r0, sp, #8
c:\stm32bluepill-mynewt-sensor/rust\app\src/gps_sensor.rs:143
        //  Save the geolocation for later transmission.
        unsafe { current_geolocation = sensor_value.value };
  12:	4601      	mov	r1, r0
  14:	9a01      	ldr	r2, [sp, #4]
  16:	e8b2 5018 	ldmia.w	r2!, {r3, r4, ip, lr}
  1a:	e8a1 5018 	stmia.w	r1!, {r3, r4, ip, lr}
  1e:	e892 5018 	ldmia.w	r2, {r3, r4, ip, lr}
  22:	e881 5018 	stmia.w	r1, {r3, r4, ip, lr}
  26:	f240 0100 	movw	r1, #0
  2a:	f2c0 0100 	movt	r1, #0
  2e:	e8b0 500c 	ldmia.w	r0!, {r2, r3, ip, lr}
  32:	e8a1 500c 	stmia.w	r1!, {r2, r3, ip, lr}
  36:	e890 500c 	ldmia.w	r0, {r2, r3, ip, lr}
  3a:	e881 500c 	stmia.w	r1, {r2, r3, ip, lr}
c:\stm32bluepill-mynewt-sensor/rust\app\src/gps_sensor.rs:141
    if let SensorValueType::Geolocation {..} = sensor_value.value {
  3e:	e02e      	b.n	9e <_ZN3app10gps_sensor21aggregate_sensor_data17h564b9a4ef9721806E+0x9e>
c:\stm32bluepill-mynewt-sensor/rust\app\src/gps_sensor.rs:147
    } else {
        //  Attach the current geolocation to the sensor data for transmission.
        let transmit_value = SensorValue {
            key:    sensor_value.key,
  40:	9801      	ldr	r0, [sp, #4]
  42:	6c01      	ldr	r1, [r0, #64]	; 0x40
  44:	aa1c      	add	r2, sp, #112	; 0x70
c:\stm32bluepill-mynewt-sensor/rust\app\src/gps_sensor.rs:148
            value:  sensor_value.value,
  46:	4613      	mov	r3, r2
  48:	e8b0 5030 	ldmia.w	r0!, {r4, r5, ip, lr}
  4c:	e8a3 5030 	stmia.w	r3!, {r4, r5, ip, lr}
  50:	e890 5030 	ldmia.w	r0, {r4, r5, ip, lr}
  54:	e883 5030 	stmia.w	r3, {r4, r5, ip, lr}
c:\stm32bluepill-mynewt-sensor/rust\app\src/gps_sensor.rs:149
            geo:    unsafe { current_geolocation }
  58:	f240 0000 	movw	r0, #0
  5c:	f2c0 0000 	movt	r0, #0
  60:	ab24      	add	r3, sp, #144	; 0x90
  62:	469c      	mov	ip, r3
  64:	e8b0 4070 	ldmia.w	r0!, {r4, r5, r6, lr}
  68:	e8ac 4070 	stmia.w	ip!, {r4, r5, r6, lr}
  6c:	e890 4070 	ldmia.w	r0, {r4, r5, r6, lr}
  70:	e88c 4070 	stmia.w	ip, {r4, r5, r6, lr}
c:\stm32bluepill-mynewt-sensor/rust\app\src/gps_sensor.rs:146
        let transmit_value = SensorValue {
  74:	911a      	str	r1, [sp, #104]	; 0x68
  76:	a80a      	add	r0, sp, #40	; 0x28
  78:	4601      	mov	r1, r0
  7a:	e8b2 5030 	ldmia.w	r2!, {r4, r5, ip, lr}
  7e:	e8a1 5030 	stmia.w	r1!, {r4, r5, ip, lr}
  82:	e892 5030 	ldmia.w	r2, {r4, r5, ip, lr}
  86:	e881 5030 	stmia.w	r1, {r4, r5, ip, lr}
  8a:	3020      	adds	r0, #32
  8c:	e8b3 5006 	ldmia.w	r3!, {r1, r2, ip, lr}
  90:	e8a0 5006 	stmia.w	r0!, {r1, r2, ip, lr}
  94:	e893 5006 	ldmia.w	r3, {r1, r2, ip, lr}
  98:	e880 5006 	stmia.w	r0, {r1, r2, ip, lr}
c:\stm32bluepill-mynewt-sensor/rust\app\src/gps_sensor.rs:141
    if let SensorValueType::Geolocation {..} = sensor_value.value {
  9c:	e7ff      	b.n	9e <_ZN3app10gps_sensor21aggregate_sensor_data17h564b9a4ef9721806E+0x9e>
c:\stm32bluepill-mynewt-sensor/rust\app\src/gps_sensor.rs:153
        };
        //  TODO: Transmit sensor value with geolocation.
    }
  9e:	b02c      	add	sp, #176	; 0xb0
  a0:	bd70      	pop	{r4, r5, r6, pc}

app-ba860f72f0ac9e7b.2irj8h114k888726.rcgu.o:     file format elf32-littlearm

SYMBOL TABLE:
00000000 l    df *ABS*	00000000 2irj8h114k888726
000011cf l       .debug_str	00000000 
000027d4 l       .debug_str	00000000 
000027e2 l       .debug_str	00000000 
000027ce l       .debug_str	00000000 
000027dd l       .debug_str	00000000 
000027c7 l       .debug_str	00000000 
000027db l       .debug_str	00000000 
000027be l       .debug_str	00000000 
00000000 l       .debug_str	00000000 
00000041 l       .debug_str	00000000 
00000055 l       .debug_str	00000000 
00000074 l       .debug_str	00000000 
00000079 l       .debug_str	00000000 
0000007d l       .debug_str	00000000 
00000080 l       .debug_str	00000000 
0000008b l       .debug_str	00000000 
00000096 l       .debug_str	00000000 
0000009d l       .debug_str	00000000 
000000a4 l       .debug_str	00000000 
000000ab l       .debug_str	00000000 
000000af l       .debug_str	00000000 
000000b7 l       .debug_str	00000000 
000000c2 l       .debug_str	00000000 
000000cd l       .debug_str	00000000 
000000da l       .debug_str	00000000 
000000e5 l       .debug_str	00000000 
000000ed l       .debug_str	00000000 
000000f8 l       .debug_str	00000000 
00000103 l       .debug_str	00000000 
0000010d l       .debug_str	00000000 
00000118 l       .debug_str	00000000 
00000123 l       .debug_str	00000000 
00000130 l       .debug_str	00000000 
0000013c l       .debug_str	00000000 
00000149 l       .debug_str	00000000 
00000157 l       .debug_str	00000000 
00000161 l       .debug_str	00000000 
0000016e l       .debug_str	00000000 
0000017a l       .debug_str	00000000 
0000017e l       .debug_str	00000000 
00000181 l       .debug_str	00000000 
00000185 l       .debug_str	00000000 
0000018c l       .debug_str	00000000 
0000018f l       .debug_str	00000000 
00000199 l       .debug_str	00000000 
000001a4 l       .debug_str	00000000 
000001ad l       .debug_str	00000000 
000001b8 l       .debug_str	00000000 
000001c4 l       .debug_str	00000000 
000001c8 l       .debug_str	00000000 
000001d1 l       .debug_str	00000000 
000001d8 l       .debug_str	00000000 
000001e0 l       .debug_str	00000000 
000001e8 l       .debug_str	00000000 
000001f2 l       .debug_str	00000000 
000001f8 l       .debug_str	00000000 
000001ff l       .debug_str	00000000 
00000209 l       .debug_str	00000000 
00000210 l       .debug_str	00000000 
00000217 l       .debug_str	00000000 
0000021c l       .debug_str	00000000 
00000233 l       .debug_str	00000000 
00000260 l       .debug_str	00000000 
00000262 l       .debug_str	00000000 
00000267 l       .debug_str	00000000 
0000029c l       .debug_str	00000000 
000002a2 l       .debug_str	00000000 
000002a8 l       .debug_str	00000000 
000002b7 l       .debug_str	00000000 
000002c7 l       .debug_str	00000000 
000002d7 l       .debug_str	00000000 
000002df l       .debug_str	00000000 
00000308 l       .debug_str	00000000 
00000366 l       .debug_str	00000000 
000003cc l       .debug_str	00000000 
000003d3 l       .debug_str	00000000 
000003db l       .debug_str	00000000 
000003e4 l       .debug_str	00000000 
00000402 l       .debug_str	00000000 
00000412 l       .debug_str	00000000 
00000420 l       .debug_str	00000000 
0000042b l       .debug_str	00000000 
00000438 l       .debug_str	00000000 
00000447 l       .debug_str	00000000 
00000451 l       .debug_str	00000000 
00000467 l       .debug_str	00000000 
00000471 l       .debug_str	00000000 
0000047a l       .debug_str	00000000 
00000483 l       .debug_str	00000000 
000004a9 l       .debug_str	00000000 
000004bf l       .debug_str	00000000 
000004ca l       .debug_str	00000000 
000004e0 l       .debug_str	00000000 
000004e8 l       .debug_str	00000000 
00000509 l       .debug_str	00000000 
00000512 l       .debug_str	00000000 
0000051b l       .debug_str	00000000 
00000526 l       .debug_str	00000000 
00000530 l       .debug_str	00000000 
00000536 l       .debug_str	00000000 
0000056e l       .debug_str	00000000 
000005ae l       .debug_str	00000000 
000005b5 l       .debug_str	00000000 
000005bd l       .debug_str	00000000 
000005d4 l       .debug_str	00000000 
000005dd l       .debug_str	00000000 
000005ff l       .debug_str	00000000 
00000609 l       .debug_str	00000000 
00000630 l       .debug_str	00000000 
00000648 l       .debug_str	00000000 
00000652 l       .debug_str	00000000 
00000675 l       .debug_str	00000000 
00000677 l       .debug_str	00000000 
0000067b l       .debug_str	00000000 
000006c3 l       .debug_str	00000000 
000006cc l       .debug_str	00000000 
0000070c l       .debug_str	00000000 
00000753 l       .debug_str	00000000 
00000756 l       .debug_str	00000000 
000007c5 l       .debug_str	00000000 
000007f0 l       .debug_str	00000000 
00000818 l       .debug_str	00000000 
0000081b l       .debug_str	00000000 
00000822 l       .debug_str	00000000 
0000082b l       .debug_str	00000000 
00000831 l       .debug_str	00000000 
0000083d l       .debug_str	00000000 
00000845 l       .debug_str	00000000 
0000089f l       .debug_str	00000000 
00000901 l       .debug_str	00000000 
0000090c l       .debug_str	00000000 
00000953 l       .debug_str	00000000 
000009a2 l       .debug_str	00000000 
000009ac l       .debug_str	00000000 
000009e9 l       .debug_str	00000000 
00000a2e l       .debug_str	00000000 
00000a37 l       .debug_str	00000000 
00000a47 l       .debug_str	00000000 
00000a4f l       .debug_str	00000000 
00000aa4 l       .debug_str	00000000 
00000b01 l       .debug_str	00000000 
00000b0d l       .debug_str	00000000 
00000b16 l       .debug_str	00000000 
00000b22 l       .debug_str	00000000 
00000b2e l       .debug_str	00000000 
00000b37 l       .debug_str	00000000 
00000b3f l       .debug_str	00000000 
00000b47 l       .debug_str	00000000 
00000b5c l       .debug_str	00000000 
00000b63 l       .debug_str	00000000 
00000b83 l       .debug_str	00000000 
00000b8a l       .debug_str	00000000 
00000b92 l       .debug_str	00000000 
00000b9c l       .debug_str	00000000 
00000bb3 l       .debug_str	00000000 
00000bb8 l       .debug_str	00000000 
00000bc0 l       .debug_str	00000000 
00000bc9 l       .debug_str	00000000 
00000bd2 l       .debug_str	00000000 
00000bdb l       .debug_str	00000000 
00000be3 l       .debug_str	00000000 
00000be7 l       .debug_str	00000000 
00000bee l       .debug_str	00000000 
00000bfa l       .debug_str	00000000 
00000c05 l       .debug_str	00000000 
00000c0d l       .debug_str	00000000 
00000c15 l       .debug_str	00000000 
00000c91 l       .debug_str	00000000 
00000d15 l       .debug_str	00000000 
00000e11 l       .debug_str	00000000 
00000f15 l       .debug_str	00000000 
00000f23 l       .debug_str	00000000 
00000f2e l       .debug_str	00000000 
00000f38 l       .debug_str	00000000 
00000f4c l       .debug_str	00000000 
00000f57 l       .debug_str	00000000 
00000f85 l       .debug_str	00000000 
00001000 l       .debug_str	00000000 
00001083 l       .debug_str	00000000 
00001091 l       .debug_str	00000000 
000010f0 l       .debug_str	00000000 
00001157 l       .debug_str	00000000 
0000116d l       .debug_str	00000000 
0000117d l       .debug_str	00000000 
0000118c l       .debug_str	00000000 
00001190 l       .debug_str	00000000 
00001197 l       .debug_str	00000000 
0000119d l       .debug_str	00000000 
000011a1 l       .debug_str	00000000 
000011a7 l       .debug_str	00000000 
000011ad l       .debug_str	00000000 
000011b9 l       .debug_str	00000000 
000011c1 l       .debug_str	00000000 
000011c7 l       .debug_str	00000000 
000027ba l       .debug_str	00000000 
000011d5 l       .debug_str	00000000 
000011f8 l       .debug_str	00000000 
00001208 l       .debug_str	00000000 
0000123b l       .debug_str	00000000 
0000127b l       .debug_str	00000000 
000012c3 l       .debug_str	00000000 
000012c7 l       .debug_str	00000000 
000012cd l       .debug_str	00000000 
000012d3 l       .debug_str	00000000 
000012d9 l       .debug_str	00000000 
000012eb l       .debug_str	00000000 
00001320 l       .debug_str	00000000 
00001362 l       .debug_str	00000000 
000013ac l       .debug_str	00000000 
000013b0 l       .debug_str	00000000 
000013b6 l       .debug_str	00000000 
000013bc l       .debug_str	00000000 
000013c2 l       .debug_str	00000000 
000013d4 l       .debug_str	00000000 
00001409 l       .debug_str	00000000 
0000144b l       .debug_str	00000000 
00001495 l       .debug_str	00000000 
00001499 l       .debug_str	00000000 
0000149f l       .debug_str	00000000 
000014a5 l       .debug_str	00000000 
000014ab l       .debug_str	00000000 
000014b1 l       .debug_str	00000000 
000014c2 l       .debug_str	00000000 
000014f6 l       .debug_str	00000000 
00001537 l       .debug_str	00000000 
00001580 l       .debug_str	00000000 
00001585 l       .debug_str	00000000 
0000158a l       .debug_str	00000000 
0000158e l       .debug_str	00000000 
00001594 l       .debug_str	00000000 
0000159a l       .debug_str	00000000 
000015a0 l       .debug_str	00000000 
000015b1 l       .debug_str	00000000 
000015e5 l       .debug_str	00000000 
00001626 l       .debug_str	00000000 
0000166f l       .debug_str	00000000 
00001673 l       .debug_str	00000000 
0000167c l       .debug_str	00000000 
0000168d l       .debug_str	00000000 
000016c1 l       .debug_str	00000000 
00001702 l       .debug_str	00000000 
0000174b l       .debug_str	00000000 
00001750 l       .debug_str	00000000 
00001754 l       .debug_str	00000000 
0000175d l       .debug_str	00000000 
00001764 l       .debug_str	00000000 
0000176c l       .debug_str	00000000 
0000177e l       .debug_str	00000000 
000017b3 l       .debug_str	00000000 
000017f5 l       .debug_str	00000000 
0000183f l       .debug_str	00000000 
00001843 l       .debug_str	00000000 
00001849 l       .debug_str	00000000 
0000184f l       .debug_str	00000000 
00001855 l       .debug_str	00000000 
0000185b l       .debug_str	00000000 
00001863 l       .debug_str	00000000 
00001871 l       .debug_str	00000000 
00001880 l       .debug_str	00000000 
00001891 l       .debug_str	00000000 
0000189c l       .debug_str	00000000 
000018a7 l       .debug_str	00000000 
000018b2 l       .debug_str	00000000 
000018b9 l       .debug_str	00000000 
000018dc l       .debug_str	00000000 
000018ee l       .debug_str	00000000 
00001923 l       .debug_str	00000000 
00001965 l       .debug_str	00000000 
000019af l       .debug_str	00000000 
000019b3 l       .debug_str	00000000 
000019bd l       .debug_str	00000000 
000019cf l       .debug_str	00000000 
00001a04 l       .debug_str	00000000 
00001a46 l       .debug_str	00000000 
00001a90 l       .debug_str	00000000 
00001a95 l       .debug_str	00000000 
00001a9f l       .debug_str	00000000 
00001ab1 l       .debug_str	00000000 
00001ae6 l       .debug_str	00000000 
00001b28 l       .debug_str	00000000 
00001b72 l       .debug_str	00000000 
00001b86 l       .debug_str	00000000 
00001b8a l       .debug_str	00000000 
00001b98 l       .debug_str	00000000 
00001ba8 l       .debug_str	00000000 
00001bb1 l       .debug_str	00000000 
00001bbc l       .debug_str	00000000 
00001bcb l       .debug_str	00000000 
00001be0 l       .debug_str	00000000 
00001c11 l       .debug_str	00000000 
00001cae l       .debug_str	00000000 
00001d53 l       .debug_str	00000000 
00001d5e l       .debug_str	00000000 
00001d67 l       .debug_str	00000000 
00001d88 l       .debug_str	00000000 
00001d9b l       .debug_str	00000000 
00001dd1 l       .debug_str	00000000 
00001e54 l       .debug_str	00000000 
00001edf l       .debug_str	00000000 
00001efb l       .debug_str	00000000 
00001f47 l       .debug_str	00000000 
00001f9b l       .debug_str	00000000 
00001fb8 l       .debug_str	00000000 
00001fcc l       .debug_str	00000000 
00002018 l       .debug_str	00000000 
0000206c l       .debug_str	00000000 
00002082 l       .debug_str	00000000 
00002096 l       .debug_str	00000000 
000020dd l       .debug_str	00000000 
0000212c l       .debug_str	00000000 
00002135 l       .debug_str	00000000 
00002143 l       .debug_str	00000000 
00002174 l       .debug_str	00000000 
0000217a l       .debug_str	00000000 
00002182 l       .debug_str	00000000 
00002189 l       .debug_str	00000000 
00002191 l       .debug_str	00000000 
0000219c l       .debug_str	00000000 
000021a4 l       .debug_str	00000000 
000021b3 l       .debug_str	00000000 
000021b7 l       .debug_str	00000000 
000021c2 l       .debug_str	00000000 
000021ce l       .debug_str	00000000 
000021d9 l       .debug_str	00000000 
000021ea l       .debug_str	00000000 
000021f0 l       .debug_str	00000000 
000021f8 l       .debug_str	00000000 
000021ff l       .debug_str	00000000 
00002209 l       .debug_str	00000000 
00002211 l       .debug_str	00000000 
00002219 l       .debug_str	00000000 
0000223b l       .debug_str	00000000 
00002246 l       .debug_str	00000000 
00002252 l       .debug_str	00000000 
0000225a l       .debug_str	00000000 
00002263 l       .debug_str	00000000 
0000226e l       .debug_str	00000000 
00002275 l       .debug_str	00000000 
00002280 l       .debug_str	00000000 
0000228b l       .debug_str	00000000 
0000229b l       .debug_str	00000000 
000022ab l       .debug_str	00000000 
000022ba l       .debug_str	00000000 
000022c2 l       .debug_str	00000000 
000022c9 l       .debug_str	00000000 
000022d1 l       .debug_str	00000000 
000022ef l       .debug_str	00000000 
000022ff l       .debug_str	00000000 
00002332 l       .debug_str	00000000 
00002347 l       .debug_str	00000000 
00002350 l       .debug_str	00000000 
000023ad l       .debug_str	00000000 
00002412 l       .debug_str	00000000 
0000241c l       .debug_str	00000000 
0000242c l       .debug_str	00000000 
00002441 l       .debug_str	00000000 
00002449 l       .debug_str	00000000 
000024ad l       .debug_str	00000000 
00002519 l       .debug_str	00000000 
00002520 l       .debug_str	00000000 
00002528 l       .debug_str	00000000 
00002546 l       .debug_str	00000000 
00002556 l       .debug_str	00000000 
00002589 l       .debug_str	00000000 
0000259e l       .debug_str	00000000 
000025b1 l       .debug_str	00000000 
000025c6 l       .debug_str	00000000 
000025cd l       .debug_str	00000000 
000025e2 l       .debug_str	00000000 
0000260c l       .debug_str	00000000 
0000267c l       .debug_str	00000000 
000026cf l       .debug_str	00000000 
0000271e l       .debug_str	00000000 
0000278e l       .debug_str	00000000 
000027d9 l       .debug_str	00000000 
00000000 l    d  .text._ZN4core6result19Result$LT$T$C$E$GT$6expect17h30f9912194b1df84E	00000000 .text._ZN4core6result19Result$LT$T$C$E$GT$6expect17h30f9912194b1df84E
00000000 l    d  .text._ZN73_$LT$core..result..Result$LT$T$C$E$GT$$u20$as$u20$core..ops..try..Try$GT$10from_error17h411c740de4b3d5baE	00000000 .text._ZN73_$LT$core..result..Result$LT$T$C$E$GT$$u20$as$u20$core..ops..try..Try$GT$10from_error17h411c740de4b3d5baE
00000000 l    d  .text._ZN73_$LT$core..result..Result$LT$T$C$E$GT$$u20$as$u20$core..ops..try..Try$GT$11into_result17h421b2f04d2878290E	00000000 .text._ZN73_$LT$core..result..Result$LT$T$C$E$GT$$u20$as$u20$core..ops..try..Try$GT$11into_result17h421b2f04d2878290E
00000000 l    d  .text._ZN73_$LT$core..result..Result$LT$T$C$E$GT$$u20$as$u20$core..ops..try..Try$GT$11into_result17h5477961aa483feaaE	00000000 .text._ZN73_$LT$core..result..Result$LT$T$C$E$GT$$u20$as$u20$core..ops..try..Try$GT$11into_result17h5477961aa483feaaE
00000000 l    d  .debug_loc	00000000 .debug_loc
00000000 l    d  .debug_abbrev	00000000 .debug_abbrev
00000000 l    d  .debug_info	00000000 .debug_info
00000000 l    d  .debug_ranges	00000000 .debug_ranges
00000000 l    d  .debug_frame	00000000 .debug_frame
00000000 l    d  .debug_line	00000000 .debug_line
00000000         *UND*	00000000 _ZN4core6result13unwrap_failed17hc06b1ee04940e7c4E
00000000 g     F .text._ZN4core6result19Result$LT$T$C$E$GT$6expect17h30f9912194b1df84E	0000005a _ZN4core6result19Result$LT$T$C$E$GT$6expect17h30f9912194b1df84E
00000000 g     F .text._ZN73_$LT$core..result..Result$LT$T$C$E$GT$$u20$as$u20$core..ops..try..Try$GT$10from_error17h411c740de4b3d5baE	00000012 _ZN73_$LT$core..result..Result$LT$T$C$E$GT$$u20$as$u20$core..ops..try..Try$GT$10from_error17h411c740de4b3d5baE
00000000 g     F .text._ZN73_$LT$core..result..Result$LT$T$C$E$GT$$u20$as$u20$core..ops..try..Try$GT$11into_result17h421b2f04d2878290E	0000001a _ZN73_$LT$core..result..Result$LT$T$C$E$GT$$u20$as$u20$core..ops..try..Try$GT$11into_result17h421b2f04d2878290E
00000000 g     F .text._ZN73_$LT$core..result..Result$LT$T$C$E$GT$$u20$as$u20$core..ops..try..Try$GT$11into_result17h5477961aa483feaaE	0000000e _ZN73_$LT$core..result..Result$LT$T$C$E$GT$$u20$as$u20$core..ops..try..Try$GT$11into_result17h5477961aa483feaaE



Disassembly of section .text._ZN4core6result19Result$LT$T$C$E$GT$6expect17h30f9912194b1df84E:

00000000 <_ZN4core6result19Result$LT$T$C$E$GT$6expect17h30f9912194b1df84E>:
_ZN4core6result19Result$LT$T$C$E$GT$6expect17h30f9912194b1df84E():
/rustc/03ee55bb1c8c2379fdabf68e306186b390444f61/src/libcore/result.rs:824
   0:	b580      	push	{r7, lr}
   2:	b08a      	sub	sp, #40	; 0x28
   4:	4613      	mov	r3, r2
   6:	468c      	mov	ip, r1
   8:	4686      	mov	lr, r0
   a:	9106      	str	r1, [sp, #24]
   c:	9207      	str	r2, [sp, #28]
/rustc/03ee55bb1c8c2379fdabf68e306186b390444f61/src/libcore/result.rs:826
   e:	6800      	ldr	r0, [r0, #0]
  10:	2800      	cmp	r0, #0
  12:	9305      	str	r3, [sp, #20]
  14:	f8cd c010 	str.w	ip, [sp, #16]
  18:	f8cd e00c 	str.w	lr, [sp, #12]
  1c:	9002      	str	r0, [sp, #8]
  1e:	d005      	beq.n	2c <_ZN4core6result19Result$LT$T$C$E$GT$6expect17h30f9912194b1df84E+0x2c>
  20:	e7ff      	b.n	22 <_ZN4core6result19Result$LT$T$C$E$GT$6expect17h30f9912194b1df84E+0x22>
  22:	9802      	ldr	r0, [sp, #8]
  24:	2801      	cmp	r0, #1
  26:	d00b      	beq.n	40 <_ZN4core6result19Result$LT$T$C$E$GT$6expect17h30f9912194b1df84E+0x40>
  28:	e7ff      	b.n	2a <_ZN4core6result19Result$LT$T$C$E$GT$6expect17h30f9912194b1df84E+0x2a>
/rustc/03ee55bb1c8c2379fdabf68e306186b390444f61/src/libcore/result.rs:829
  2a:	defe      	udf	#254	; 0xfe
/rustc/03ee55bb1c8c2379fdabf68e306186b390444f61/src/libcore/result.rs:826
  2c:	9803      	ldr	r0, [sp, #12]
  2e:	6841      	ldr	r1, [r0, #4]
  30:	9108      	str	r1, [sp, #32]
  32:	9808      	ldr	r0, [sp, #32]
/rustc/03ee55bb1c8c2379fdabf68e306186b390444f61/src/libcore/result.rs:829
  34:	9903      	ldr	r1, [sp, #12]
  36:	680a      	ldr	r2, [r1, #0]
  38:	2a00      	cmp	r2, #0
  3a:	9001      	str	r0, [sp, #4]
  3c:	d009      	beq.n	52 <_ZN4core6result19Result$LT$T$C$E$GT$6expect17h30f9912194b1df84E+0x52>
  3e:	e00b      	b.n	58 <_ZN4core6result19Result$LT$T$C$E$GT$6expect17h30f9912194b1df84E+0x58>
/rustc/03ee55bb1c8c2379fdabf68e306186b390444f61/src/libcore/result.rs:827
  40:	9803      	ldr	r0, [sp, #12]
  42:	6841      	ldr	r1, [r0, #4]
  44:	9109      	str	r1, [sp, #36]	; 0x24
  46:	9806      	ldr	r0, [sp, #24]
  48:	9907      	ldr	r1, [sp, #28]
  4a:	9a09      	ldr	r2, [sp, #36]	; 0x24
  4c:	f7ff fffe 	bl	0 <_ZN4core6result13unwrap_failed17hc06b1ee04940e7c4E>
  50:	defe      	udf	#254	; 0xfe
/rustc/03ee55bb1c8c2379fdabf68e306186b390444f61/src/libcore/result.rs:829
  52:	9801      	ldr	r0, [sp, #4]
  54:	b00a      	add	sp, #40	; 0x28
  56:	bd80      	pop	{r7, pc}
  58:	e7fb      	b.n	52 <_ZN4core6result19Result$LT$T$C$E$GT$6expect17h30f9912194b1df84E+0x52>

Disassembly of section .text._ZN73_$LT$core..result..Result$LT$T$C$E$GT$$u20$as$u20$core..ops..try..Try$GT$10from_error17h411c740de4b3d5baE:

00000000 <_ZN73_$LT$core..result..Result$LT$T$C$E$GT$$u20$as$u20$core..ops..try..Try$GT$10from_error17h411c740de4b3d5baE>:
_ZN73_$LT$core..result..Result$LT$T$C$E$GT$$u20$as$u20$core..ops..try..Try$GT$10from_error17h411c740de4b3d5baE():
/rustc/03ee55bb1c8c2379fdabf68e306186b390444f61/src/libcore/result.rs:1292
   0:	b083      	sub	sp, #12
   2:	4601      	mov	r1, r0
   4:	9001      	str	r0, [sp, #4]
/rustc/03ee55bb1c8c2379fdabf68e306186b390444f61/src/libcore/result.rs:1293
   6:	9801      	ldr	r0, [sp, #4]
   8:	9002      	str	r0, [sp, #8]
/rustc/03ee55bb1c8c2379fdabf68e306186b390444f61/src/libcore/result.rs:1294
   a:	9802      	ldr	r0, [sp, #8]
   c:	9100      	str	r1, [sp, #0]
   e:	b003      	add	sp, #12
  10:	4770      	bx	lr

Disassembly of section .text._ZN73_$LT$core..result..Result$LT$T$C$E$GT$$u20$as$u20$core..ops..try..Try$GT$11into_result17h421b2f04d2878290E:

00000000 <_ZN73_$LT$core..result..Result$LT$T$C$E$GT$$u20$as$u20$core..ops..try..Try$GT$11into_result17h421b2f04d2878290E>:
_ZN73_$LT$core..result..Result$LT$T$C$E$GT$$u20$as$u20$core..ops..try..Try$GT$11into_result17h421b2f04d2878290E():
/rustc/03ee55bb1c8c2379fdabf68e306186b390444f61/src/libcore/result.rs:1282
   0:	b082      	sub	sp, #8
   2:	460a      	mov	r2, r1
   4:	4603      	mov	r3, r0
/rustc/03ee55bb1c8c2379fdabf68e306186b390444f61/src/libcore/result.rs:1283
   6:	f8d1 c000 	ldr.w	ip, [r1]
   a:	6849      	ldr	r1, [r1, #4]
   c:	6041      	str	r1, [r0, #4]
   e:	f8c0 c000 	str.w	ip, [r0]
/rustc/03ee55bb1c8c2379fdabf68e306186b390444f61/src/libcore/result.rs:1284
  12:	9201      	str	r2, [sp, #4]
  14:	9300      	str	r3, [sp, #0]
  16:	b002      	add	sp, #8
  18:	4770      	bx	lr

Disassembly of section .text._ZN73_$LT$core..result..Result$LT$T$C$E$GT$$u20$as$u20$core..ops..try..Try$GT$11into_result17h5477961aa483feaaE:

00000000 <_ZN73_$LT$core..result..Result$LT$T$C$E$GT$$u20$as$u20$core..ops..try..Try$GT$11into_result17h5477961aa483feaaE>:
_ZN73_$LT$core..result..Result$LT$T$C$E$GT$$u20$as$u20$core..ops..try..Try$GT$11into_result17h5477961aa483feaaE():
/rustc/03ee55bb1c8c2379fdabf68e306186b390444f61/src/libcore/result.rs:1282
   0:	b082      	sub	sp, #8
   2:	4601      	mov	r1, r0
   4:	9001      	str	r0, [sp, #4]
/rustc/03ee55bb1c8c2379fdabf68e306186b390444f61/src/libcore/result.rs:1283
   6:	9801      	ldr	r0, [sp, #4]
/rustc/03ee55bb1c8c2379fdabf68e306186b390444f61/src/libcore/result.rs:1284
   8:	9100      	str	r1, [sp, #0]
   a:	b002      	add	sp, #8
   c:	4770      	bx	lr

app-ba860f72f0ac9e7b.2urosza1x5g7hih0.rcgu.o:     file format elf32-littlearm

SYMBOL TABLE:
00000000 l    df *ABS*	00000000 2urosza1x5g7hih0
00000186 l       .debug_str	00000000 
00000410 l       .debug_str	00000000 
00000000 l       .debug_str	00000000 
00000041 l       .debug_str	00000000 
00000055 l       .debug_str	00000000 
00000074 l       .debug_str	00000000 
00000079 l       .debug_str	00000000 
0000007d l       .debug_str	00000000 
00000080 l       .debug_str	00000000 
00000083 l       .debug_str	00000000 
00000086 l       .debug_str	00000000 
0000008b l       .debug_str	00000000 
00000091 l       .debug_str	00000000 
00000098 l       .debug_str	00000000 
000000a0 l       .debug_str	00000000 
000000aa l       .debug_str	00000000 
000000b1 l       .debug_str	00000000 
000000b4 l       .debug_str	00000000 
000000b8 l       .debug_str	00000000 
000000bf l       .debug_str	00000000 
000000c6 l       .debug_str	00000000 
000000cf l       .debug_str	00000000 
000000d9 l       .debug_str	00000000 
000000e0 l       .debug_str	00000000 
000000e6 l       .debug_str	00000000 
000000eb l       .debug_str	00000000 
000000f7 l       .debug_str	00000000 
000000ff l       .debug_str	00000000 
00000106 l       .debug_str	00000000 
0000010a l       .debug_str	00000000 
0000010f l       .debug_str	00000000 
00000118 l       .debug_str	00000000 
0000011d l       .debug_str	00000000 
00000120 l       .debug_str	00000000 
00000124 l       .debug_str	00000000 
0000012d l       .debug_str	00000000 
00000134 l       .debug_str	00000000 
00000139 l       .debug_str	00000000 
0000013e l       .debug_str	00000000 
00000144 l       .debug_str	00000000 
0000014a l       .debug_str	00000000 
00000154 l       .debug_str	00000000 
00000157 l       .debug_str	00000000 
0000015d l       .debug_str	00000000 
00000167 l       .debug_str	00000000 
0000016f l       .debug_str	00000000 
00000175 l       .debug_str	00000000 
0000017b l       .debug_str	00000000 
00000406 l       .debug_str	00000000 
0000018f l       .debug_str	00000000 
000001b2 l       .debug_str	00000000 
000001d1 l       .debug_str	00000000 
000001d3 l       .debug_str	00000000 
000001d8 l       .debug_str	00000000 
000001ff l       .debug_str	00000000 
00000204 l       .debug_str	00000000 
0000020a l       .debug_str	00000000 
00000210 l       .debug_str	00000000 
00000213 l       .debug_str	00000000 
00000222 l       .debug_str	00000000 
00000229 l       .debug_str	00000000 
0000022d l       .debug_str	00000000 
00000236 l       .debug_str	00000000 
0000023e l       .debug_str	00000000 
00000246 l       .debug_str	00000000 
0000024d l       .debug_str	00000000 
00000261 l       .debug_str	00000000 
0000026d l       .debug_str	00000000 
00000279 l       .debug_str	00000000 
00000292 l       .debug_str	00000000 
00000297 l       .debug_str	00000000 
000002a8 l       .debug_str	00000000 
000002b2 l       .debug_str	00000000 
000002c0 l       .debug_str	00000000 
000002c4 l       .debug_str	00000000 
000002cf l       .debug_str	00000000 
000002d6 l       .debug_str	00000000 
000002dc l       .debug_str	00000000 
000002e0 l       .debug_str	00000000 
000002e4 l       .debug_str	00000000 
000002ec l       .debug_str	00000000 
00000303 l       .debug_str	00000000 
00000327 l       .debug_str	00000000 
00000343 l       .debug_str	00000000 
0000034d l       .debug_str	00000000 
00000367 l       .debug_str	00000000 
000003c5 l       .debug_str	00000000 
000003d0 l       .debug_str	00000000 
000003ed l       .debug_str	00000000 
00000442 l       .debug_str	00000000 
00000000 l    d  .text._ZN4core3fmt9Arguments6new_v117hed481d77d3c83033E	00000000 .text._ZN4core3fmt9Arguments6new_v117hed481d77d3c83033E
00000000 l    d  .debug_abbrev	00000000 .debug_abbrev
00000000 l    d  .debug_info	00000000 .debug_info
00000000 l    d  .debug_frame	00000000 .debug_frame
00000000 l    d  .debug_line	00000000 .debug_line
00000000 g     F .text._ZN4core3fmt9Arguments6new_v117hed481d77d3c83033E	0000004c .hidden _ZN4core3fmt9Arguments6new_v117hed481d77d3c83033E



Disassembly of section .text._ZN4core3fmt9Arguments6new_v117hed481d77d3c83033E:

00000000 <_ZN4core3fmt9Arguments6new_v117hed481d77d3c83033E>:
_ZN4core3fmt9Arguments6new_v117hed481d77d3c83033E():
/rustc/03ee55bb1c8c2379fdabf68e306186b390444f61/src/libcore/fmt/mod.rs:314
   0:	b570      	push	{r4, r5, r6, lr}
   2:	b08a      	sub	sp, #40	; 0x28
   4:	f8dd c038 	ldr.w	ip, [sp, #56]	; 0x38
   8:	469e      	mov	lr, r3
   a:	4614      	mov	r4, r2
   c:	460d      	mov	r5, r1
   e:	4606      	mov	r6, r0
  10:	9104      	str	r1, [sp, #16]
  12:	9205      	str	r2, [sp, #20]
  14:	9306      	str	r3, [sp, #24]
  16:	f8cd c01c 	str.w	ip, [sp, #28]
/rustc/03ee55bb1c8c2379fdabf68e306186b390444f61/src/libcore/fmt/mod.rs:317
  1a:	9904      	ldr	r1, [sp, #16]
  1c:	9a05      	ldr	r2, [sp, #20]
  1e:	2300      	movs	r3, #0
/rustc/03ee55bb1c8c2379fdabf68e306186b390444f61/src/libcore/fmt/mod.rs:318
  20:	9309      	str	r3, [sp, #36]	; 0x24
  22:	9308      	str	r3, [sp, #32]
  24:	9308      	str	r3, [sp, #32]
/rustc/03ee55bb1c8c2379fdabf68e306186b390444f61/src/libcore/fmt/mod.rs:319
  26:	9b06      	ldr	r3, [sp, #24]
  28:	f8dd c01c 	ldr.w	ip, [sp, #28]
/rustc/03ee55bb1c8c2379fdabf68e306186b390444f61/src/libcore/fmt/mod.rs:316
  2c:	6001      	str	r1, [r0, #0]
  2e:	6042      	str	r2, [r0, #4]
  30:	9908      	ldr	r1, [sp, #32]
  32:	9a09      	ldr	r2, [sp, #36]	; 0x24
  34:	6081      	str	r1, [r0, #8]
  36:	60c2      	str	r2, [r0, #12]
  38:	6103      	str	r3, [r0, #16]
  3a:	f8c0 c014 	str.w	ip, [r0, #20]
/rustc/03ee55bb1c8c2379fdabf68e306186b390444f61/src/libcore/fmt/mod.rs:321
  3e:	f8cd e00c 	str.w	lr, [sp, #12]
  42:	9402      	str	r4, [sp, #8]
  44:	9501      	str	r5, [sp, #4]
  46:	9600      	str	r6, [sp, #0]
  48:	b00a      	add	sp, #40	; 0x28
  4a:	bd70      	pop	{r4, r5, r6, pc}

app-ba860f72f0ac9e7b.3t0neq0rfdfezmuj.rcgu.o:     file format elf32-littlearm

SYMBOL TABLE:
00000000 l    df *ABS*	00000000 3t0neq0rfdfezmuj
000000a7 l       .debug_str	00000000 
000000d6 l       .debug_str	00000000 
000000e3 l       .debug_str	00000000 
00000000 l       .debug_str	00000000 
00000041 l       .debug_str	00000000 
00000055 l       .debug_str	00000000 
00000074 l       .debug_str	00000000 
00000078 l       .debug_str	00000000 
00000083 l       .debug_str	00000000 
00000091 l       .debug_str	00000000 
00000098 l       .debug_str	00000000 
0000009c l       .debug_str	00000000 
0000009f l       .debug_str	00000000 
000000d1 l       .debug_str	00000000 
000000ab l       .debug_str	00000000 
000000b4 l       .debug_str	00000000 
000000be l       .debug_str	00000000 
000000c5 l       .debug_str	00000000 
000000cb l       .debug_str	00000000 
000000de l       .debug_str	00000000 
00000000 l     O .rodata._ZN3app10app_sensor13SENSOR_DEVICE17h54c19c743b889826E	0000000c _ZN3app10app_sensor13SENSOR_DEVICE17h54c19c743b889826E
00000000 l    d  .rodata..Lanon.d41d8cd98f00b204e9800998ecf8427e.0	00000000 .rodata..Lanon.d41d8cd98f00b204e9800998ecf8427e.0
00000000 l    d  .rodata._ZN3app10app_sensor13SENSOR_DEVICE17h54c19c743b889826E	00000000 .rodata._ZN3app10app_sensor13SENSOR_DEVICE17h54c19c743b889826E
00000000 l    d  .debug_abbrev	00000000 .debug_abbrev
00000000 l    d  .debug_info	00000000 .debug_info
00000000 l    d  .debug_line	00000000 .debug_line



app-ba860f72f0ac9e7b.55jcccxybhk58gh5.rcgu.o:     file format elf32-littlearm

SYMBOL TABLE:
00000000 l    df *ABS*	00000000 55jcccxybhk58gh5
000000ef l       .debug_str	00000000 
000001ba l       .debug_str	00000000 
00000000 l       .debug_str	00000000 
00000041 l       .debug_str	00000000 
00000055 l       .debug_str	00000000 
00000074 l       .debug_str	00000000 
0000007b l       .debug_str	00000000 
00000082 l       .debug_str	00000000 
00000086 l       .debug_str	00000000 
0000008e l       .debug_str	00000000 
00000099 l       .debug_str	00000000 
000000a4 l       .debug_str	00000000 
000000b1 l       .debug_str	00000000 
000000bc l       .debug_str	00000000 
000000c4 l       .debug_str	00000000 
000000cf l       .debug_str	00000000 
000000da l       .debug_str	00000000 
000000e4 l       .debug_str	00000000 
00000169 l       .debug_str	00000000 
000000fa l       .debug_str	00000000 
00000107 l       .debug_str	00000000 
00000113 l       .debug_str	00000000 
00000120 l       .debug_str	00000000 
0000012e l       .debug_str	00000000 
00000138 l       .debug_str	00000000 
00000145 l       .debug_str	00000000 
00000151 l       .debug_str	00000000 
00000156 l       .debug_str	00000000 
0000015e l       .debug_str	00000000 
00000167 l       .debug_str	00000000 
000001dc l       .debug_str	00000000 
00000000 l    d  .text._ZN50_$LT$T$u20$as$u20$core..convert..From$LT$T$GT$$GT$4from17he9bf930fef93cf18E	00000000 .text._ZN50_$LT$T$u20$as$u20$core..convert..From$LT$T$GT$$GT$4from17he9bf930fef93cf18E
00000000 l    d  .debug_abbrev	00000000 .debug_abbrev
00000000 l    d  .debug_info	00000000 .debug_info
00000000 l    d  .debug_frame	00000000 .debug_frame
00000000 l    d  .debug_line	00000000 .debug_line
00000000 g     F .text._ZN50_$LT$T$u20$as$u20$core..convert..From$LT$T$GT$$GT$4from17he9bf930fef93cf18E	0000000e _ZN50_$LT$T$u20$as$u20$core..convert..From$LT$T$GT$$GT$4from17he9bf930fef93cf18E



Disassembly of section .text._ZN50_$LT$T$u20$as$u20$core..convert..From$LT$T$GT$$GT$4from17he9bf930fef93cf18E:

00000000 <_ZN50_$LT$T$u20$as$u20$core..convert..From$LT$T$GT$$GT$4from17he9bf930fef93cf18E>:
_ZN50_$LT$T$u20$as$u20$core..convert..From$LT$T$GT$$GT$4from17he9bf930fef93cf18E():
/rustc/03ee55bb1c8c2379fdabf68e306186b390444f61/src/libcore/convert.rs:547
   0:	b082      	sub	sp, #8
   2:	4601      	mov	r1, r0
   4:	9001      	str	r0, [sp, #4]
   6:	9801      	ldr	r0, [sp, #4]
   8:	9100      	str	r1, [sp, #0]
   a:	b002      	add	sp, #8
   c:	4770      	bx	lr

app-ba860f72f0ac9e7b.ju01llv1v56g26l.rcgu.o:     file format elf32-littlearm

SYMBOL TABLE:
00000000 l    df *ABS*	00000000 ju01llv1v56g26l
000001e1 l       .debug_str	00000000 
000004e1 l       .debug_str	00000000 
000004d8 l       .debug_str	00000000 
000004d4 l       .debug_str	00000000 
000004cf l       .debug_str	00000000 
00000503 l       .debug_str	00000000 
000004ca l       .debug_str	00000000 
000004c1 l       .debug_str	00000000 
000004a3 l       .debug_str	00000000 
0000048d l       .debug_str	00000000 
00000483 l       .debug_str	00000000 
0000046a l       .debug_str	00000000 
00000000 l       .debug_str	00000000 
00000041 l       .debug_str	00000000 
00000055 l       .debug_str	00000000 
00000074 l       .debug_str	00000000 
00000079 l       .debug_str	00000000 
0000007d l       .debug_str	00000000 
00000080 l       .debug_str	00000000 
00000083 l       .debug_str	00000000 
00000086 l       .debug_str	00000000 
0000008b l       .debug_str	00000000 
00000091 l       .debug_str	00000000 
00000098 l       .debug_str	00000000 
000000a0 l       .debug_str	00000000 
000000aa l       .debug_str	00000000 
000000b1 l       .debug_str	00000000 
000000b4 l       .debug_str	00000000 
000000b8 l       .debug_str	00000000 
000000bf l       .debug_str	00000000 
000000c3 l       .debug_str	00000000 
000000cc l       .debug_str	00000000 
000000d0 l       .debug_str	00000000 
000000fa l       .debug_str	00000000 
000000ff l       .debug_str	00000000 
00000104 l       .debug_str	00000000 
00000106 l       .debug_str	00000000 
00000118 l       .debug_str	00000000 
0000011e l       .debug_str	00000000 
00000123 l       .debug_str	00000000 
0000012b l       .debug_str	00000000 
0000012f l       .debug_str	00000000 
00000137 l       .debug_str	00000000 
0000013f l       .debug_str	00000000 
00000146 l       .debug_str	00000000 
0000014c l       .debug_str	00000000 
00000160 l       .debug_str	00000000 
0000016c l       .debug_str	00000000 
00000171 l       .debug_str	00000000 
00000179 l       .debug_str	00000000 
00000180 l       .debug_str	00000000 
00000184 l       .debug_str	00000000 
00000189 l       .debug_str	00000000 
00000190 l       .debug_str	00000000 
00000199 l       .debug_str	00000000 
000001a3 l       .debug_str	00000000 
000001aa l       .debug_str	00000000 
000001af l       .debug_str	00000000 
000001bb l       .debug_str	00000000 
000001c3 l       .debug_str	00000000 
000001cc l       .debug_str	00000000 
000001d1 l       .debug_str	00000000 
000001d4 l       .debug_str	00000000 
000001d8 l       .debug_str	00000000 
0000044d l       .debug_str	00000000 
000001e8 l       .debug_str	00000000 
000001ed l       .debug_str	00000000 
000001f2 l       .debug_str	00000000 
000001f8 l       .debug_str	00000000 
000001fe l       .debug_str	00000000 
00000208 l       .debug_str	00000000 
0000020b l       .debug_str	00000000 
00000211 l       .debug_str	00000000 
0000021b l       .debug_str	00000000 
00000223 l       .debug_str	00000000 
00000229 l       .debug_str	00000000 
0000022f l       .debug_str	00000000 
0000023a l       .debug_str	00000000 
00000243 l       .debug_str	00000000 
00000266 l       .debug_str	00000000 
00000285 l       .debug_str	00000000 
00000287 l       .debug_str	00000000 
0000028c l       .debug_str	00000000 
000002b3 l       .debug_str	00000000 
000002b8 l       .debug_str	00000000 
000002be l       .debug_str	00000000 
000002c4 l       .debug_str	00000000 
000002c7 l       .debug_str	00000000 
000002d6 l       .debug_str	00000000 
000002dd l       .debug_str	00000000 
000002e1 l       .debug_str	00000000 
000002ea l       .debug_str	00000000 
000002f6 l       .debug_str	00000000 
0000030f l       .debug_str	00000000 
00000314 l       .debug_str	00000000 
00000325 l       .debug_str	00000000 
0000032f l       .debug_str	00000000 
0000033d l       .debug_str	00000000 
00000341 l       .debug_str	00000000 
0000034c l       .debug_str	00000000 
00000353 l       .debug_str	00000000 
00000359 l       .debug_str	00000000 
0000035d l       .debug_str	00000000 
00000361 l       .debug_str	00000000 
00000369 l       .debug_str	00000000 
00000380 l       .debug_str	00000000 
000003a4 l       .debug_str	00000000 
000003c0 l       .debug_str	00000000 
000003ca l       .debug_str	00000000 
000003e4 l       .debug_str	00000000 
00000442 l       .debug_str	00000000 
000004eb l       .debug_str	00000000 
00000000 l     O .rodata.cst8	00000008 .Lanon.3ed011473997af99b525cde47c9eaaac.0
00000008 l     O .rodata.cst8	00000008 .Lanon.3ed011473997af99b525cde47c9eaaac.1
00000010 l     O .rodata.cst8	00000008 .Lanon.3ed011473997af99b525cde47c9eaaac.2
00000000 l     O .rodata..Lanon.3ed011473997af99b525cde47c9eaaac.3	00000006 .Lanon.3ed011473997af99b525cde47c9eaaac.3
00000000 l     O .rodata..Lanon.3ed011473997af99b525cde47c9eaaac.4	00000007 .Lanon.3ed011473997af99b525cde47c9eaaac.4
00000000 l     O .rodata..Lanon.3ed011473997af99b525cde47c9eaaac.5	00000003 .Lanon.3ed011473997af99b525cde47c9eaaac.5
00000018 l     O .rodata.cst8	00000008 .Lanon.3ed011473997af99b525cde47c9eaaac.6
00000000 l     O .rodata..Lanon.3ed011473997af99b525cde47c9eaaac.7	00000001 .Lanon.3ed011473997af99b525cde47c9eaaac.7
00000000 l    d  .text.main	00000000 .text.main
00000000 l    d  .text.rust_begin_unwind	00000000 .text.rust_begin_unwind
00000000 l    d  .debug_abbrev	00000000 .debug_abbrev
00000000 l    d  .debug_info	00000000 .debug_info
00000000 l    d  .debug_ranges	00000000 .debug_ranges
00000000 l    d  .debug_frame	00000000 .debug_frame
00000000 l    d  .debug_line	00000000 .debug_line
00000000         *UND*	00000000 .hidden _ZN3app10gps_sensor18start_gps_listener17hff4f7c9c3618b255E
00000000         *UND*	00000000 _ZN4core5panic8Location4file17ha9ce911e26883425E
00000000         *UND*	00000000 _ZN4core5panic8Location4line17h997c0352f671f211E
00000000         *UND*	00000000 _ZN4core5panic9PanicInfo8location17h122f9d519f4a246bE
00000000         *UND*	00000000 _ZN4core6result19Result$LT$T$C$E$GT$6expect17h30f9912194b1df84E
00000000         *UND*	00000000 _ZN4core6result19Result$LT$T$C$E$GT$6expect17h411d4bdc2d390250E
00000000         *UND*	00000000 _ZN6mynewt3sys7console5flush17h6e6adb2d6c74f9b0E
00000000         *UND*	00000000 _ZN6mynewt3sys7console5print17ha0601e49e4927bc4E
00000000         *UND*	00000000 _ZN6mynewt3sys7console6buffer17h37b7b8db742c4e2fE
00000000         *UND*	00000000 _ZN6mynewt3sys7console8printhex17h05a35c2add16de62E
00000000         *UND*	00000000 _ZN6mynewt6kernel2os10eventq_run17h6ef32da48f4d5d86E
00000000         *UND*	00000000 _ZN6mynewt6kernel2os15eventq_dflt_get17hc3569ee6b12f336bE
00000000         *UND*	00000000 _ZN6mynewt7sysinit17hdf9acde92c8fdcd0E
00000000         *UND*	00000000 gps_l70r_start
00000000 g     F .text.main	00000066 main
00000000 g     F .text.rust_begin_unwind	000000ac rust_begin_unwind



Disassembly of section .text.main:

00000000 <main>:
main():
c:\stm32bluepill-mynewt-sensor/rust\app\src/lib.rs:50
};

///  Main program that initialises the sensor, network driver and starts reading and sending sensor data in the background.
///  main() will be called at Mynewt startup. It replaces the C version of the main() function.
#[no_mangle]                 //  Don't mangle the name "main"
extern "C" fn main() -> ! {  //  Declare extern "C" because it will be called by Mynewt
   0:	b086      	sub	sp, #24
c:\stm32bluepill-mynewt-sensor/rust\app\src/lib.rs:56
    //  Initialise the Mynewt packages and Blue Pill internal temperature sensor driver.
    //  Start the CoAP / OIC Background Task to transmit CoAP messages.  Any startup
    //  functions defined in pkg.yml of our custom drivers and libraries will be called by 
    //  sysinit().  Here are the startup functions consolidated by Mynewt:
    //  bin/targets/bluepill_my_sensor/generated/src/bluepill_my_sensor-sysinit-app.c
    mynewt::sysinit();
   2:	f7ff fffe 	bl	0 <_ZN6mynewt7sysinit17hdf9acde92c8fdcd0E>
   6:	e7ff      	b.n	2 <gps_l70r_start+0x2>
c:\stm32bluepill-mynewt-sensor/rust\app\src/lib.rs:71
        .expect("TMP fail");
*/

    //  Start the GPS.
    extern { fn gps_l70r_start() -> i32; }
    unsafe { gps_l70r_start() };
   8:	f7ff fffe 	bl	0 <gps_l70r_start>
   c:	9003      	str	r0, [sp, #12]
   e:	e7ff      	b.n	10 <main+0x10>
c:\stm32bluepill-mynewt-sensor/rust\app\src/lib.rs:76

    //  Start polling the GPS.
    //  extern { fn start_gps_listener(); }
    //  unsafe { start_gps_listener() };
    gps_sensor::start_gps_listener()
  10:	f7ff fffe 	bl	0 <_ZN3app10gps_sensor18start_gps_listener17hff4f7c9c3618b255E>
  14:	9002      	str	r0, [sp, #8]
  16:	e7ff      	b.n	18 <main+0x18>
  18:	f240 0100 	movw	r1, #0
  1c:	f2c0 0100 	movt	r1, #0
  20:	2208      	movs	r2, #8
  22:	9802      	ldr	r0, [sp, #8]
  24:	f7ff fffe 	bl	0 <_ZN4core6result19Result$LT$T$C$E$GT$6expect17h411d4bdc2d390250E>
  28:	e7ff      	b.n	2a <main+0x2a>
c:\stm32bluepill-mynewt-sensor/rust\app\src/lib.rs:80
        .expect("GPS fail");

    //  Main event loop
    loop {                            //  Loop forever...
  2a:	e7ff      	b.n	2c <main+0x2c>
  2c:	a804      	add	r0, sp, #16
c:\stm32bluepill-mynewt-sensor/rust\app\src/lib.rs:82
        os::eventq_run(               //  Processing events...
            os::eventq_dflt_get()     //  From default event queue.
  2e:	f7ff fffe 	bl	0 <_ZN6mynewt6kernel2os15eventq_dflt_get17hc3569ee6b12f336bE>
  32:	e7ff      	b.n	a <main+0xa>
  34:	f240 0100 	movw	r1, #0
  38:	f2c0 0100 	movt	r1, #0
  3c:	a804      	add	r0, sp, #16
  3e:	2208      	movs	r2, #8
  40:	f7ff fffe 	bl	0 <_ZN4core6result19Result$LT$T$C$E$GT$6expect17h30f9912194b1df84E>
  44:	9001      	str	r0, [sp, #4]
  46:	e7ff      	b.n	48 <main+0x48>
c:\stm32bluepill-mynewt-sensor/rust\app\src/lib.rs:81
        os::eventq_run(               //  Processing events...
  48:	9801      	ldr	r0, [sp, #4]
  4a:	f7ff fffe 	bl	0 <_ZN6mynewt6kernel2os10eventq_run17h6ef32da48f4d5d86E>
  4e:	9000      	str	r0, [sp, #0]
  50:	e7ff      	b.n	52 <main+0x52>
  52:	f240 0100 	movw	r1, #0
  56:	f2c0 0100 	movt	r1, #0
  5a:	2208      	movs	r2, #8
  5c:	9800      	ldr	r0, [sp, #0]
  5e:	f7ff fffe 	bl	0 <_ZN4core6result19Result$LT$T$C$E$GT$6expect17h411d4bdc2d390250E>
  62:	e7ff      	b.n	64 <main+0x64>
c:\stm32bluepill-mynewt-sensor/rust\app\src/lib.rs:80
    loop {                            //  Loop forever...
  64:	e7e2      	b.n	2c <main+0x2c>

Disassembly of section .text.rust_begin_unwind:

00000000 <rust_begin_unwind>:
rust_begin_unwind():
c:\stm32bluepill-mynewt-sensor/rust\app\src/lib.rs:91
    //  Never comes here
}

///  This function is called on panic, like an assertion failure. We display the filename and line number and pause in the debugger. From https://os.phil-opp.com/freestanding-rust-binary/
#[panic_handler]
fn panic(info: &PanicInfo) -> ! {
   0:	b088      	sub	sp, #32
   2:	4601      	mov	r1, r0
   4:	9002      	str	r0, [sp, #8]
c:\stm32bluepill-mynewt-sensor/rust\app\src/lib.rs:93
    //  Display the filename and line number to the Semihosting Console.
    console::print("panic ");
   6:	f240 0000 	movw	r0, #0
   a:	f2c0 0000 	movt	r0, #0
   e:	2206      	movs	r2, #6
  10:	9101      	str	r1, [sp, #4]
  12:	4611      	mov	r1, r2
  14:	f7ff fffe 	bl	0 <_ZN6mynewt3sys7console5print17ha0601e49e4927bc4E>
  18:	e7ff      	b.n	1a <rust_begin_unwind+0x1a>
c:\stm32bluepill-mynewt-sensor/rust\app\src/lib.rs:94
    if let Some(location) = info.location() {
  1a:	9802      	ldr	r0, [sp, #8]
  1c:	f7ff fffe 	bl	0 <_ZN4core5panic9PanicInfo8location17h122f9d519f4a246bE>
  20:	9003      	str	r0, [sp, #12]
  22:	e7ff      	b.n	24 <rust_begin_unwind+0x24>
  24:	9803      	ldr	r0, [sp, #12]
  26:	2800      	cmp	r0, #0
  28:	d032      	beq.n	90 <rust_begin_unwind+0x90>
  2a:	e7ff      	b.n	2c <rust_begin_unwind+0x2c>
  2c:	9803      	ldr	r0, [sp, #12]
  2e:	9004      	str	r0, [sp, #16]
c:\stm32bluepill-mynewt-sensor/rust\app\src/lib.rs:95
        let file = location.file();
  30:	9804      	ldr	r0, [sp, #16]
  32:	f7ff fffe 	bl	0 <_ZN4core5panic8Location4file17ha9ce911e26883425E>
  36:	9106      	str	r1, [sp, #24]
  38:	9005      	str	r0, [sp, #20]
  3a:	e7ff      	b.n	3c <rust_begin_unwind+0x3c>
c:\stm32bluepill-mynewt-sensor/rust\app\src/lib.rs:96
        let line = location.line();
  3c:	9804      	ldr	r0, [sp, #16]
  3e:	f7ff fffe 	bl	0 <_ZN4core5panic8Location4line17h997c0352f671f211E>
  42:	9007      	str	r0, [sp, #28]
  44:	e7ff      	b.n	46 <rust_begin_unwind+0x46>
c:\stm32bluepill-mynewt-sensor/rust\app\src/lib.rs:97
        console::print("at ");        console::buffer(&file);
  46:	f240 0000 	movw	r0, #0
  4a:	f2c0 0000 	movt	r0, #0
  4e:	2103      	movs	r1, #3
  50:	f7ff fffe 	bl	0 <_ZN6mynewt3sys7console5print17ha0601e49e4927bc4E>
  54:	e7ff      	b.n	56 <rust_begin_unwind+0x56>
  56:	9805      	ldr	r0, [sp, #20]
  58:	9906      	ldr	r1, [sp, #24]
  5a:	f7ff fffe 	bl	0 <_ZN6mynewt3sys7console6buffer17h37b7b8db742c4e2fE>
  5e:	e7ff      	b.n	1a <rust_begin_unwind+0x1a>
c:\stm32bluepill-mynewt-sensor/rust\app\src/lib.rs:98
        console::print(" line 0x");   console::printhex(line as u8);  //  TODO: Print in decimal not hex. Allow more than 255 lines.
  60:	f240 0000 	movw	r0, #0
  64:	f2c0 0000 	movt	r0, #0
  68:	2108      	movs	r1, #8
  6a:	f7ff fffe 	bl	0 <_ZN6mynewt3sys7console5print17ha0601e49e4927bc4E>
  6e:	e7ff      	b.n	70 <rust_begin_unwind+0x70>
  70:	9807      	ldr	r0, [sp, #28]
  72:	f7ff fffe 	bl	0 <_ZN6mynewt3sys7console8printhex17h05a35c2add16de62E>
  76:	e7ff      	b.n	2 <rust_begin_unwind+0x2>
c:\stm32bluepill-mynewt-sensor/rust\app\src/lib.rs:99
        console::print("\n");         console::flush();
  78:	f240 0000 	movw	r0, #0
  7c:	f2c0 0000 	movt	r0, #0
  80:	2101      	movs	r1, #1
  82:	f7ff fffe 	bl	0 <_ZN6mynewt3sys7console5print17ha0601e49e4927bc4E>
  86:	e7ff      	b.n	2 <_ZN6mynewt3sys7console5flush17h6e6adb2d6c74f9b0E+0x2>
  88:	f7ff fffe 	bl	0 <_ZN6mynewt3sys7console5flush17h6e6adb2d6c74f9b0E>
  8c:	e7ff      	b.n	8e <rust_begin_unwind+0x8e>
c:\stm32bluepill-mynewt-sensor/rust\app\src/lib.rs:94
    if let Some(location) = info.location() {
  8e:	e00a      	b.n	a6 <rust_begin_unwind+0xa6>
c:\stm32bluepill-mynewt-sensor/rust\app\src/lib.rs:101
    } else {
        console::print("no loc\n");   console::flush();
  90:	f240 0000 	movw	r0, #0
  94:	f2c0 0000 	movt	r0, #0
  98:	2107      	movs	r1, #7
  9a:	f7ff fffe 	bl	0 <_ZN6mynewt3sys7console5print17ha0601e49e4927bc4E>
  9e:	e7ff      	b.n	2 <_ZN6mynewt3sys7console5flush17h6e6adb2d6c74f9b0E+0x2>
  a0:	f7ff fffe 	bl	0 <_ZN6mynewt3sys7console5flush17h6e6adb2d6c74f9b0E>
  a4:	e7ff      	b.n	a6 <rust_begin_unwind+0xa6>
_ZN8cortex_m3asm4bkpt17h5468adc9991cdf06E():
C:\Users\guppy\.cargo\registry\src\github.com-1ecc6299db9ec823\cortex-m-0.6.1\src/asm.rs:11
/// exception.
#[inline(always)]
pub fn bkpt() {
    match () {
        #[cfg(all(cortex_m, feature = "inline-asm"))]
        () => unsafe { asm!("bkpt" :::: "volatile") },
  a6:	be00      	bkpt	0x0000
rust_begin_unwind():
c:\stm32bluepill-mynewt-sensor/rust\app\src/lib.rs:104
    }
    //  Pause in the debugger.
    bkpt();
  a8:	e7ff      	b.n	aa <rust_begin_unwind+0xaa>
c:\stm32bluepill-mynewt-sensor/rust\app\src/lib.rs:106
    //  Loop forever so that device won't restart.
    loop {}
  aa:	e7fe      	b.n	aa <rust_begin_unwind+0xaa>

app-ba860f72f0ac9e7b.n3qxs2j9ahxer3s.rcgu.o:     file format elf32-littlearm

SYMBOL TABLE:
00000000 l    df *ABS*	00000000 n3qxs2j9ahxer3s
000010d9 l       .debug_str	00000000 
000022fb l       .debug_str	00000000 
00000000 l       .debug_str	00000000 
00000041 l       .debug_str	00000000 
00000055 l       .debug_str	00000000 
00000074 l       .debug_str	00000000 
00000079 l       .debug_str	00000000 
0000007d l       .debug_str	00000000 
00000080 l       .debug_str	00000000 
0000008b l       .debug_str	00000000 
00000096 l       .debug_str	00000000 
0000009d l       .debug_str	00000000 
000000a1 l       .debug_str	00000000 
000000a8 l       .debug_str	00000000 
000000ab l       .debug_str	00000000 
000000b2 l       .debug_str	00000000 
000000bb l       .debug_str	00000000 
000000c1 l       .debug_str	00000000 
000000c8 l       .debug_str	00000000 
000000cb l       .debug_str	00000000 
000000d7 l       .debug_str	00000000 
000000df l       .debug_str	00000000 
000000e6 l       .debug_str	00000000 
000000ea l       .debug_str	00000000 
000000ef l       .debug_str	00000000 
000000f3 l       .debug_str	00000000 
0000010a l       .debug_str	00000000 
00000164 l       .debug_str	00000000 
00000166 l       .debug_str	00000000 
0000016b l       .debug_str	00000000 
0000016f l       .debug_str	00000000 
000001d1 l       .debug_str	00000000 
000001dc l       .debug_str	00000000 
00000223 l       .debug_str	00000000 
00000272 l       .debug_str	00000000 
0000027c l       .debug_str	00000000 
000002b9 l       .debug_str	00000000 
000002fe l       .debug_str	00000000 
00000307 l       .debug_str	00000000 
00000317 l       .debug_str	00000000 
0000031f l       .debug_str	00000000 
00000374 l       .debug_str	00000000 
000003d1 l       .debug_str	00000000 
000003dd l       .debug_str	00000000 
000003e6 l       .debug_str	00000000 
000003f2 l       .debug_str	00000000 
000003fe l       .debug_str	00000000 
00000407 l       .debug_str	00000000 
0000040f l       .debug_str	00000000 
00000419 l       .debug_str	00000000 
00000421 l       .debug_str	00000000 
0000042b l       .debug_str	00000000 
00000440 l       .debug_str	00000000 
00000447 l       .debug_str	00000000 
00000467 l       .debug_str	00000000 
0000046e l       .debug_str	00000000 
00000476 l       .debug_str	00000000 
00000480 l       .debug_str	00000000 
0000048b l       .debug_str	00000000 
00000494 l       .debug_str	00000000 
0000049f l       .debug_str	00000000 
000004ab l       .debug_str	00000000 
000004af l       .debug_str	00000000 
000004b8 l       .debug_str	00000000 
000004bf l       .debug_str	00000000 
000004c7 l       .debug_str	00000000 
000004cf l       .debug_str	00000000 
000004d9 l       .debug_str	00000000 
000004df l       .debug_str	00000000 
000004e6 l       .debug_str	00000000 
000004ed l       .debug_str	00000000 
0000051a l       .debug_str	00000000 
0000054f l       .debug_str	00000000 
00000555 l       .debug_str	00000000 
0000055b l       .debug_str	00000000 
0000056a l       .debug_str	00000000 
0000057a l       .debug_str	00000000 
0000058a l       .debug_str	00000000 
00000592 l       .debug_str	00000000 
000005bb l       .debug_str	00000000 
00000619 l       .debug_str	00000000 
0000067f l       .debug_str	00000000 
00000686 l       .debug_str	00000000 
0000068e l       .debug_str	00000000 
00000697 l       .debug_str	00000000 
000006b5 l       .debug_str	00000000 
000006c5 l       .debug_str	00000000 
000006d3 l       .debug_str	00000000 
000006de l       .debug_str	00000000 
000006eb l       .debug_str	00000000 
000006fa l       .debug_str	00000000 
00000710 l       .debug_str	00000000 
0000071a l       .debug_str	00000000 
00000723 l       .debug_str	00000000 
0000072c l       .debug_str	00000000 
00000752 l       .debug_str	00000000 
00000768 l       .debug_str	00000000 
00000773 l       .debug_str	00000000 
00000789 l       .debug_str	00000000 
00000791 l       .debug_str	00000000 
000007b2 l       .debug_str	00000000 
000007c9 l       .debug_str	00000000 
000007ce l       .debug_str	00000000 
000007d6 l       .debug_str	00000000 
000007df l       .debug_str	00000000 
000007e8 l       .debug_str	00000000 
000007f1 l       .debug_str	00000000 
000007f9 l       .debug_str	00000000 
000007fd l       .debug_str	00000000 
00000804 l       .debug_str	00000000 
00000810 l       .debug_str	00000000 
0000081b l       .debug_str	00000000 
00000823 l       .debug_str	00000000 
0000082b l       .debug_str	00000000 
00000855 l       .debug_str	00000000 
000008d1 l       .debug_str	00000000 
00000955 l       .debug_str	00000000 
00000a51 l       .debug_str	00000000 
00000b55 l       .debug_str	00000000 
00000b63 l       .debug_str	00000000 
00000b6e l       .debug_str	00000000 
00000b78 l       .debug_str	00000000 
00000b8c l       .debug_str	00000000 
00000b97 l       .debug_str	00000000 
00000bc5 l       .debug_str	00000000 
00000c40 l       .debug_str	00000000 
00000cc3 l       .debug_str	00000000 
00000cd1 l       .debug_str	00000000 
00000d30 l       .debug_str	00000000 
00000d97 l       .debug_str	00000000 
00000dad l       .debug_str	00000000 
00000dbd l       .debug_str	00000000 
00000dcc l       .debug_str	00000000 
00000dd0 l       .debug_str	00000000 
00000dd7 l       .debug_str	00000000 
00000ddd l       .debug_str	00000000 
00000de1 l       .debug_str	00000000 
00000de7 l       .debug_str	00000000 
00000ded l       .debug_str	00000000 
00000df9 l       .debug_str	00000000 
00000e01 l       .debug_str	00000000 
00000e07 l       .debug_str	00000000 
00000e0f l       .debug_str	00000000 
00000e15 l       .debug_str	00000000 
00000e38 l       .debug_str	00000000 
00000e48 l       .debug_str	00000000 
00000e7b l       .debug_str	00000000 
00000ebb l       .debug_str	00000000 
00000f03 l       .debug_str	00000000 
00000f07 l       .debug_str	00000000 
00000f0d l       .debug_str	00000000 
00000f13 l       .debug_str	00000000 
00000f19 l       .debug_str	00000000 
00000f2b l       .debug_str	00000000 
00000f60 l       .debug_str	00000000 
00000fa2 l       .debug_str	00000000 
00000fec l       .debug_str	00000000 
00000ff0 l       .debug_str	00000000 
00000ff6 l       .debug_str	00000000 
00000ffc l       .debug_str	00000000 
00001002 l       .debug_str	00000000 
00001014 l       .debug_str	00000000 
00001049 l       .debug_str	00000000 
0000108b l       .debug_str	00000000 
000010d5 l       .debug_str	00000000 
000022e6 l       .debug_str	00000000 
000010df l       .debug_str	00000000 
000010e5 l       .debug_str	00000000 
000010eb l       .debug_str	00000000 
000010f1 l       .debug_str	00000000 
00001102 l       .debug_str	00000000 
00001136 l       .debug_str	00000000 
00001177 l       .debug_str	00000000 
000011c0 l       .debug_str	00000000 
000011c5 l       .debug_str	00000000 
000011ca l       .debug_str	00000000 
000011ce l       .debug_str	00000000 
000011d4 l       .debug_str	00000000 
000011da l       .debug_str	00000000 
000011e0 l       .debug_str	00000000 
000011f1 l       .debug_str	00000000 
00001225 l       .debug_str	00000000 
00001266 l       .debug_str	00000000 
000012af l       .debug_str	00000000 
000012b3 l       .debug_str	00000000 
000012bc l       .debug_str	00000000 
000012cd l       .debug_str	00000000 
00001301 l       .debug_str	00000000 
00001342 l       .debug_str	00000000 
0000138b l       .debug_str	00000000 
00001390 l       .debug_str	00000000 
00001394 l       .debug_str	00000000 
0000139d l       .debug_str	00000000 
000013a4 l       .debug_str	00000000 
000013ac l       .debug_str	00000000 
000013be l       .debug_str	00000000 
000013f3 l       .debug_str	00000000 
00001435 l       .debug_str	00000000 
0000147f l       .debug_str	00000000 
00001483 l       .debug_str	00000000 
00001489 l       .debug_str	00000000 
0000148f l       .debug_str	00000000 
00001495 l       .debug_str	00000000 
0000149b l       .debug_str	00000000 
000014a3 l       .debug_str	00000000 
000014b1 l       .debug_str	00000000 
000014c0 l       .debug_str	00000000 
000014d1 l       .debug_str	00000000 
000014dc l       .debug_str	00000000 
000014e7 l       .debug_str	00000000 
000014f2 l       .debug_str	00000000 
000014f9 l       .debug_str	00000000 
0000151c l       .debug_str	00000000 
0000152e l       .debug_str	00000000 
00001563 l       .debug_str	00000000 
000015a5 l       .debug_str	00000000 
000015ef l       .debug_str	00000000 
000015f3 l       .debug_str	00000000 
000015fd l       .debug_str	00000000 
0000160f l       .debug_str	00000000 
00001644 l       .debug_str	00000000 
00001686 l       .debug_str	00000000 
000016d0 l       .debug_str	00000000 
000016d5 l       .debug_str	00000000 
000016df l       .debug_str	00000000 
000016f1 l       .debug_str	00000000 
00001726 l       .debug_str	00000000 
00001768 l       .debug_str	00000000 
000017b2 l       .debug_str	00000000 
000017c6 l       .debug_str	00000000 
000017ca l       .debug_str	00000000 
000017d8 l       .debug_str	00000000 
000017e8 l       .debug_str	00000000 
000017f1 l       .debug_str	00000000 
000017fc l       .debug_str	00000000 
0000180b l       .debug_str	00000000 
00001820 l       .debug_str	00000000 
00001851 l       .debug_str	00000000 
000018ee l       .debug_str	00000000 
00001993 l       .debug_str	00000000 
0000199e l       .debug_str	00000000 
000019a7 l       .debug_str	00000000 
000019c8 l       .debug_str	00000000 
000019db l       .debug_str	00000000 
00001a11 l       .debug_str	00000000 
00001a94 l       .debug_str	00000000 
00001b1f l       .debug_str	00000000 
00001b3b l       .debug_str	00000000 
00001b87 l       .debug_str	00000000 
00001bdb l       .debug_str	00000000 
00001bf8 l       .debug_str	00000000 
00001c0c l       .debug_str	00000000 
00001c58 l       .debug_str	00000000 
00001cac l       .debug_str	00000000 
00001cc2 l       .debug_str	00000000 
00001cd6 l       .debug_str	00000000 
00001d1d l       .debug_str	00000000 
00001d6c l       .debug_str	00000000 
00001d75 l       .debug_str	00000000 
00001d83 l       .debug_str	00000000 
00001db4 l       .debug_str	00000000 
00001dba l       .debug_str	00000000 
00001dc2 l       .debug_str	00000000 
00001dc9 l       .debug_str	00000000 
00001dd1 l       .debug_str	00000000 
00001ddc l       .debug_str	00000000 
00001de4 l       .debug_str	00000000 
00001df3 l       .debug_str	00000000 
00001df7 l       .debug_str	00000000 
00001e02 l       .debug_str	00000000 
00001e0e l       .debug_str	00000000 
00001e19 l       .debug_str	00000000 
00001e2a l       .debug_str	00000000 
00001e30 l       .debug_str	00000000 
00001e38 l       .debug_str	00000000 
00001e3f l       .debug_str	00000000 
00001e49 l       .debug_str	00000000 
00001e51 l       .debug_str	00000000 
00001e59 l       .debug_str	00000000 
00001e7b l       .debug_str	00000000 
00001e86 l       .debug_str	00000000 
00001e92 l       .debug_str	00000000 
00001e9a l       .debug_str	00000000 
00001ea3 l       .debug_str	00000000 
00001eae l       .debug_str	00000000 
00001eb5 l       .debug_str	00000000 
00001ec0 l       .debug_str	00000000 
00001ecb l       .debug_str	00000000 
00001edb l       .debug_str	00000000 
00001ee5 l       .debug_str	00000000 
00001eeb l       .debug_str	00000000 
00001f0d l       .debug_str	00000000 
00001f45 l       .debug_str	00000000 
00001f85 l       .debug_str	00000000 
00001f8c l       .debug_str	00000000 
00001f94 l       .debug_str	00000000 
00001fab l       .debug_str	00000000 
00001fb4 l       .debug_str	00000000 
00001fc4 l       .debug_str	00000000 
00001fd3 l       .debug_str	00000000 
00001fdb l       .debug_str	00000000 
00001fe2 l       .debug_str	00000000 
00001fea l       .debug_str	00000000 
00002008 l       .debug_str	00000000 
00002018 l       .debug_str	00000000 
0000204b l       .debug_str	00000000 
00002060 l       .debug_str	00000000 
00002069 l       .debug_str	00000000 
000020c6 l       .debug_str	00000000 
0000212b l       .debug_str	00000000 
00002135 l       .debug_str	00000000 
00002145 l       .debug_str	00000000 
0000215a l       .debug_str	00000000 
00002162 l       .debug_str	00000000 
000021c6 l       .debug_str	00000000 
00002232 l       .debug_str	00000000 
00002239 l       .debug_str	00000000 
00002241 l       .debug_str	00000000 
0000225f l       .debug_str	00000000 
0000226f l       .debug_str	00000000 
000022a2 l       .debug_str	00000000 
000022b7 l       .debug_str	00000000 
000022ca l       .debug_str	00000000 
000022df l       .debug_str	00000000 
00002325 l       .debug_str	00000000 
00000000 l    d  .text._ZN4core3ptr8null_mut17h9b62b0f2d444e6e2E	00000000 .text._ZN4core3ptr8null_mut17h9b62b0f2d444e6e2E
00000000 l    d  .debug_abbrev	00000000 .debug_abbrev
00000000 l    d  .debug_info	00000000 .debug_info
00000000 l    d  .debug_frame	00000000 .debug_frame
00000000 l    d  .debug_line	00000000 .debug_line
00000000 g     F .text._ZN4core3ptr8null_mut17h9b62b0f2d444e6e2E	00000004 _ZN4core3ptr8null_mut17h9b62b0f2d444e6e2E



Disassembly of section .text._ZN4core3ptr8null_mut17h9b62b0f2d444e6e2E:

00000000 <_ZN4core3ptr8null_mut17h9b62b0f2d444e6e2E>:
_ZN4core3ptr8null_mut17h9b62b0f2d444e6e2E():
/rustc/03ee55bb1c8c2379fdabf68e306186b390444f61/src/libcore/ptr/mod.rs:231
   0:	2000      	movs	r0, #0
   2:	4770      	bx	lr
arm-none-eabi-objdump: rust.metadata.bin: File format not recognized
arm-none-eabi-objdump: app-ba860f72f0ac9e7b.2bqatrntwn9uk26t.rcgu.bc.z: File format not recognized
arm-none-eabi-objdump: app-ba860f72f0ac9e7b.2irj8h114k888726.rcgu.bc.z: File format not recognized
arm-none-eabi-objdump: app-ba860f72f0ac9e7b.2urosza1x5g7hih0.rcgu.bc.z: File format not recognized
arm-none-eabi-objdump: app-ba860f72f0ac9e7b.3t0neq0rfdfezmuj.rcgu.bc.z: File format not recognized
arm-none-eabi-objdump: app-ba860f72f0ac9e7b.55jcccxybhk58gh5.rcgu.bc.z: File format not recognized
arm-none-eabi-objdump: app-ba860f72f0ac9e7b.ju01llv1v56g26l.rcgu.bc.z: File format not recognized
arm-none-eabi-objdump: app-ba860f72f0ac9e7b.n3qxs2j9ahxer3s.rcgu.bc.z: File format not recognized
