In archive target\thumbv7em-none-eabihf\debug\libapp.rlib:

app-06a5867689f9e070.19qr8nhu1n3j5nvx.rcgu.o:     file format elf32-littlearm

SYMBOL TABLE:
00000000 l    df *ABS*	00000000 19qr8nhu1n3j5nvx
000001d5 l       .debug_str	00000000 
000004e1 l       .debug_str	00000000 
000004dd l       .debug_str	00000000 
000004d8 l       .debug_str	00000000 
000004d3 l       .debug_str	00000000 
000004ca l       .debug_str	00000000 
000004ac l       .debug_str	00000000 
00000496 l       .debug_str	00000000 
0000048c l       .debug_str	00000000 
00000473 l       .debug_str	00000000 
0000050b l       .debug_str	00000000 
00000456 l       .debug_str	00000000 
0000044b l       .debug_str	00000000 
000003ed l       .debug_str	00000000 
000003d3 l       .debug_str	00000000 
000003c9 l       .debug_str	00000000 
000003ad l       .debug_str	00000000 
00000501 l       .debug_str	00000000 
00000000 l       .debug_str	00000000 
00000041 l       .debug_str	00000000 
00000055 l       .debug_str	00000000 
00000076 l       .debug_str	00000000 
0000007b l       .debug_str	00000000 
0000007f l       .debug_str	00000000 
00000082 l       .debug_str	00000000 
00000085 l       .debug_str	00000000 
00000088 l       .debug_str	00000000 
0000008d l       .debug_str	00000000 
00000093 l       .debug_str	00000000 
0000009a l       .debug_str	00000000 
000000a2 l       .debug_str	00000000 
000000ac l       .debug_str	00000000 
000000b3 l       .debug_str	00000000 
000000b6 l       .debug_str	00000000 
000000ba l       .debug_str	00000000 
000000c1 l       .debug_str	00000000 
000000c5 l       .debug_str	00000000 
000000ce l       .debug_str	00000000 
000000d2 l       .debug_str	00000000 
000000fc l       .debug_str	00000000 
00000101 l       .debug_str	00000000 
00000106 l       .debug_str	00000000 
00000108 l       .debug_str	00000000 
0000011a l       .debug_str	00000000 
00000120 l       .debug_str	00000000 
00000123 l       .debug_str	00000000 
00000127 l       .debug_str	00000000 
0000012c l       .debug_str	00000000 
00000134 l       .debug_str	00000000 
00000138 l       .debug_str	00000000 
00000140 l       .debug_str	00000000 
00000148 l       .debug_str	00000000 
0000014f l       .debug_str	00000000 
00000155 l       .debug_str	00000000 
00000169 l       .debug_str	00000000 
00000175 l       .debug_str	00000000 
0000017a l       .debug_str	00000000 
00000182 l       .debug_str	00000000 
00000189 l       .debug_str	00000000 
0000018d l       .debug_str	00000000 
00000192 l       .debug_str	00000000 
00000199 l       .debug_str	00000000 
000001a2 l       .debug_str	00000000 
000001ac l       .debug_str	00000000 
000001b3 l       .debug_str	00000000 
000001b8 l       .debug_str	00000000 
000001c4 l       .debug_str	00000000 
000001cc l       .debug_str	00000000 
00000389 l       .debug_str	00000000 
000001da l       .debug_str	00000000 
000001dd l       .debug_str	00000000 
000001e1 l       .debug_str	00000000 
000001ea l       .debug_str	00000000 
000001f1 l       .debug_str	00000000 
000001f6 l       .debug_str	00000000 
000001fb l       .debug_str	00000000 
00000201 l       .debug_str	00000000 
00000207 l       .debug_str	00000000 
00000211 l       .debug_str	00000000 
00000214 l       .debug_str	00000000 
0000021a l       .debug_str	00000000 
00000224 l       .debug_str	00000000 
0000022c l       .debug_str	00000000 
00000232 l       .debug_str	00000000 
00000238 l       .debug_str	00000000 
00000243 l       .debug_str	00000000 
0000024c l       .debug_str	00000000 
0000026f l       .debug_str	00000000 
0000028e l       .debug_str	00000000 
00000290 l       .debug_str	00000000 
00000295 l       .debug_str	00000000 
000002bc l       .debug_str	00000000 
000002c1 l       .debug_str	00000000 
000002c7 l       .debug_str	00000000 
000002cd l       .debug_str	00000000 
000002d0 l       .debug_str	00000000 
000002df l       .debug_str	00000000 
000002e6 l       .debug_str	00000000 
000002ea l       .debug_str	00000000 
000002f3 l       .debug_str	00000000 
000002ff l       .debug_str	00000000 
00000318 l       .debug_str	00000000 
0000031d l       .debug_str	00000000 
0000032e l       .debug_str	00000000 
00000338 l       .debug_str	00000000 
00000346 l       .debug_str	00000000 
0000034a l       .debug_str	00000000 
00000355 l       .debug_str	00000000 
0000035c l       .debug_str	00000000 
00000362 l       .debug_str	00000000 
00000366 l       .debug_str	00000000 
0000036a l       .debug_str	00000000 
00000372 l       .debug_str	00000000 
000004ea l       .debug_str	00000000 
00000000 l     O .rodata.cst8	00000008 .Lanon.3ed011473997af99b525cde47c9eaaac.0
00000008 l     O .rodata.cst8	00000008 .Lanon.3ed011473997af99b525cde47c9eaaac.1
00000000 l     O .rodata..Lanon.3ed011473997af99b525cde47c9eaaac.10	00000007 .Lanon.3ed011473997af99b525cde47c9eaaac.10
00000000 l     O .rodata..Lanon.3ed011473997af99b525cde47c9eaaac.11	00000003 .Lanon.3ed011473997af99b525cde47c9eaaac.11
00000000 l     O .rodata..Lanon.3ed011473997af99b525cde47c9eaaac.12	00000006 .Lanon.3ed011473997af99b525cde47c9eaaac.12
00000000 l     O .rodata..Lanon.3ed011473997af99b525cde47c9eaaac.13	00000001 .Lanon.3ed011473997af99b525cde47c9eaaac.13
00000000 l     O .rodata..Lanon.3ed011473997af99b525cde47c9eaaac.3	00000010 .Lanon.3ed011473997af99b525cde47c9eaaac.3
00000010 l     O .rodata.cst8	00000008 .Lanon.3ed011473997af99b525cde47c9eaaac.4
00000000 l     O .rodata..Lanon.3ed011473997af99b525cde47c9eaaac.5	0000000d .Lanon.3ed011473997af99b525cde47c9eaaac.5
00000018 l     O .rodata.cst8	00000008 .Lanon.3ed011473997af99b525cde47c9eaaac.6
00000020 l     O .rodata.cst8	00000008 .Lanon.3ed011473997af99b525cde47c9eaaac.7
00000028 l     O .rodata.cst8	00000008 .Lanon.3ed011473997af99b525cde47c9eaaac.8
00000000 l     O .rodata..Lanon.3ed011473997af99b525cde47c9eaaac.9	00000006 .Lanon.3ed011473997af99b525cde47c9eaaac.9
00000000 l    d  .text.main	00000000 .text.main
00000000 l    d  .text.rust_begin_unwind	00000000 .text.rust_begin_unwind
00000000 l    d  .rodata..Lanon.3ed011473997af99b525cde47c9eaaac.2	00000000 .rodata..Lanon.3ed011473997af99b525cde47c9eaaac.2
00000000 l    d  .debug_abbrev	00000000 .debug_abbrev
00000000 l    d  .debug_info	00000000 .debug_info
00000000 l    d  .debug_ranges	00000000 .debug_ranges
00000000 l    d  .debug_frame	00000000 .debug_frame
00000000 l    d  .debug_line	00000000 .debug_line
00000000         *UND*	00000000 piet_embedded_graphics::display::test_display
00000000         *UND*	00000000 piet_embedded_graphics::display::start_display
00000000         *UND*	00000000 .hidden app::app_sensor::start_sensor_listener
00000000         *UND*	00000000 .hidden app::touch_sensor::start_touch_sensor
00000000         *UND*	00000000 core::panic::Location::file
00000000         *UND*	00000000 core::panic::Location::line
00000000         *UND*	00000000 core::panic::PanicInfo::payload
00000000         *UND*	00000000 core::panic::PanicInfo::location
00000000         *UND*	00000000 core::option::Option<T>::unwrap
00000000         *UND*	00000000 core::result::Result<T,E>::expect
00000000         *UND*	00000000 core::result::Result<T,E>::expect
00000000         *UND*	00000000 core::panicking::panic
00000000         *UND*	00000000 <dyn core::any::Any+core::marker::Send>::downcast_ref
00000000         *UND*	00000000 mynewt::sys::console::flush
00000000         *UND*	00000000 mynewt::sys::console::print
00000000         *UND*	00000000 mynewt::sys::console::buffer
00000000         *UND*	00000000 mynewt::sys::console::printint
00000000         *UND*	00000000 mynewt::kernel::os::eventq_run
00000000         *UND*	00000000 mynewt::kernel::os::eventq_dflt_get
00000000         *UND*	00000000 mynewt::sysinit
00000000 g     F .text.main	000000de main
00000000 g     F .text.rust_begin_unwind	000000f0 rust_begin_unwind
00000000         *UND*	00000000 start_ble



Disassembly of section .text.main:

00000000 <main>:
main():
c:\PineTime\pinetime-rust-mynewt/rust\app\src/lib.rs:53
};

///  Main program that initialises the sensor, network driver and starts reading and sending sensor data in the background.
///  main() will be called at Mynewt startup. It replaces the C version of the main() function.
#[no_mangle]                 //  Don't mangle the name "main"
extern "C" fn main() -> ! {  //  Declare extern "C" because it will be called by Mynewt
   0:	b08c      	sub	sp, #48	; 0x30
c:\PineTime\pinetime-rust-mynewt/rust\app\src/lib.rs:58
    //  Initialise the Mynewt packages and internal temperature sensor driver. Any startup
    //  functions defined in pkg.yml of our custom drivers and libraries will be called by 
    //  sysinit().  Here are the startup functions consolidated by Mynewt:
    //  bin/targets/nrf52_my_sensor/generated/src/nrf52_my_sensor-sysinit-app.c
    mynewt::sysinit();
   2:	f7ff fffe 	bl	0 <mynewt::sysinit>
   6:	e7ff      	b.n	2 <app::app_sensor::start_sensor_listener+0x2>
c:\PineTime\pinetime-rust-mynewt/rust\app\src/lib.rs:66
    //  sensor_network::start_server_transport()
    //    .expect("NET fail");

    //  Start polling the simulated temperature sensor every 10 seconds in the background.
    //  TODO: Replace by touch handler.
    app_sensor::start_sensor_listener()
   8:	f7ff fffe 	bl	0 <app::app_sensor::start_sensor_listener>
   c:	9007      	str	r0, [sp, #28]
   e:	e7ff      	b.n	10 <main+0x10>
  10:	f240 0100 	movw	r1, #0
  14:	f2c0 0100 	movt	r1, #0
  18:	2208      	movs	r2, #8
  1a:	9807      	ldr	r0, [sp, #28]
  1c:	f7ff fffe 	bl	0 <core::result::Result<T,E>::expect>
  20:	e7ff      	b.n	2 <start_ble+0x2>
c:\PineTime\pinetime-rust-mynewt/rust\app\src/lib.rs:71
        .expect("TMP fail");

    //  Start Bluetooth Beacon.  TODO: Create a safe wrapper for starting Bluetooth LE.
    extern { fn start_ble() -> i32; }
    let rc = unsafe { start_ble() };
  22:	f7ff fffe 	bl	0 <start_ble>
  26:	9008      	str	r0, [sp, #32]
  28:	e7ff      	b.n	2a <main+0x2a>
c:\PineTime\pinetime-rust-mynewt/rust\app\src/lib.rs:72
    assert!(rc == 0, "BLE fail");
  2a:	9808      	ldr	r0, [sp, #32]
  2c:	2800      	cmp	r0, #0
  2e:	d104      	bne.n	3a <main+0x3a>
  30:	e7ff      	b.n	32 <main+0x32>
c:\PineTime\pinetime-rust-mynewt/rust\app\src/lib.rs:75

    //  Start the display
    druid::start_display()
  32:	f7ff fffe 	bl	0 <piet_embedded_graphics::display::start_display>
  36:	9006      	str	r0, [sp, #24]
  38:	e010      	b.n	5c <main+0x5c>
c:\PineTime\pinetime-rust-mynewt/rust\app\src/lib.rs:72
    assert!(rc == 0, "BLE fail");
  3a:	f240 0000 	movw	r0, #0
  3e:	f2c0 0000 	movt	r0, #0
  42:	900b      	str	r0, [sp, #44]	; 0x2c
  44:	9a0b      	ldr	r2, [sp, #44]	; 0x2c
  46:	9205      	str	r2, [sp, #20]
  48:	e7ff      	b.n	4a <main+0x4a>
  4a:	f240 0000 	movw	r0, #0
  4e:	f2c0 0000 	movt	r0, #0
  52:	2108      	movs	r1, #8
  54:	9a05      	ldr	r2, [sp, #20]
  56:	f7ff fffe 	bl	0 <core::panicking::panic>
  5a:	defe      	udf	#254	; 0xfe
c:\PineTime\pinetime-rust-mynewt/rust\app\src/lib.rs:75
    druid::start_display()
  5c:	f240 0100 	movw	r1, #0
  60:	f2c0 0100 	movt	r1, #0
  64:	2208      	movs	r2, #8
  66:	9806      	ldr	r0, [sp, #24]
  68:	f7ff fffe 	bl	0 <core::result::Result<T,E>::expect>
  6c:	e7ff      	b.n	2 <piet_embedded_graphics::display::test_display+0x2>
c:\PineTime\pinetime-rust-mynewt/rust\app\src/lib.rs:79
        .expect("DSP fail");

    //  Test the display
    druid::test_display()
  6e:	f7ff fffe 	bl	0 <piet_embedded_graphics::display::test_display>
  72:	9004      	str	r0, [sp, #16]
  74:	e7ff      	b.n	76 <main+0x76>
  76:	f240 0100 	movw	r1, #0
  7a:	f2c0 0100 	movt	r1, #0
  7e:	220d      	movs	r2, #13
  80:	9804      	ldr	r0, [sp, #16]
  82:	f7ff fffe 	bl	0 <core::result::Result<T,E>::expect>
  86:	e7ff      	b.n	2 <app::touch_sensor::start_touch_sensor+0x2>
c:\PineTime\pinetime-rust-mynewt/rust\app\src/lib.rs:83
        .expect("DSP test fail");

    //  Start the touch sensor
    touch_sensor::start_touch_sensor()
  88:	f7ff fffe 	bl	0 <app::touch_sensor::start_touch_sensor>
  8c:	9003      	str	r0, [sp, #12]
  8e:	e7ff      	b.n	90 <main+0x90>
  90:	f240 0100 	movw	r1, #0
  94:	f2c0 0100 	movt	r1, #0
  98:	2208      	movs	r2, #8
  9a:	9803      	ldr	r0, [sp, #12]
  9c:	f7ff fffe 	bl	0 <core::result::Result<T,E>::expect>
  a0:	e7ff      	b.n	a2 <main+0xa2>
c:\PineTime\pinetime-rust-mynewt/rust\app\src/lib.rs:94

    //  Launch the Druid UI
    //  hello::launch();

    //  Main event loop
    loop {                            //  Loop forever...
  a2:	e7ff      	b.n	a4 <main+0xa4>
  a4:	a809      	add	r0, sp, #36	; 0x24
c:\PineTime\pinetime-rust-mynewt/rust\app\src/lib.rs:96
        os::eventq_run(               //  Processing events...
            os::eventq_dflt_get()     //  From default event queue.
  a6:	f7ff fffe 	bl	0 <mynewt::kernel::os::eventq_dflt_get>
  aa:	e7ff      	b.n	22 <main+0x22>
  ac:	f240 0100 	movw	r1, #0
  b0:	f2c0 0100 	movt	r1, #0
  b4:	a809      	add	r0, sp, #36	; 0x24
  b6:	2208      	movs	r2, #8
  b8:	f7ff fffe 	bl	0 <core::result::Result<T,E>::expect>
  bc:	9002      	str	r0, [sp, #8]
  be:	e7ff      	b.n	c0 <main+0xc0>
c:\PineTime\pinetime-rust-mynewt/rust\app\src/lib.rs:95
        os::eventq_run(               //  Processing events...
  c0:	9802      	ldr	r0, [sp, #8]
  c2:	f7ff fffe 	bl	0 <mynewt::kernel::os::eventq_run>
  c6:	9001      	str	r0, [sp, #4]
  c8:	e7ff      	b.n	ca <main+0xca>
  ca:	f240 0100 	movw	r1, #0
  ce:	f2c0 0100 	movt	r1, #0
  d2:	2208      	movs	r2, #8
  d4:	9801      	ldr	r0, [sp, #4]
  d6:	f7ff fffe 	bl	0 <core::result::Result<T,E>::expect>
  da:	e7ff      	b.n	dc <main+0xdc>
c:\PineTime\pinetime-rust-mynewt/rust\app\src/lib.rs:94
    loop {                            //  Loop forever...
  dc:	e7e2      	b.n	a4 <main+0xa4>

Disassembly of section .text.rust_begin_unwind:

00000000 <rust_begin_unwind>:
rust_begin_unwind():
c:\PineTime\pinetime-rust-mynewt/rust\app\src/lib.rs:105
    //  Never comes here
}

///  This function is called on panic, like an assertion failure. We display the filename and line number and pause in the debugger. From https://os.phil-opp.com/freestanding-rust-binary/
#[panic_handler]
fn panic(info: &PanicInfo) -> ! {
   0:	b08a      	sub	sp, #40	; 0x28
   2:	9004      	str	r0, [sp, #16]
c:\PineTime\pinetime-rust-mynewt/rust\app\src/lib.rs:107
    //  Display the filename and line number to the Semihosting Console.
    console::print("panic ");
   4:	f240 0000 	movw	r0, #0
   8:	f2c0 0000 	movt	r0, #0
   c:	2106      	movs	r1, #6
   e:	f7ff fffe 	bl	0 <mynewt::sys::console::print>
  12:	e7ff      	b.n	14 <rust_begin_unwind+0x14>
c:\PineTime\pinetime-rust-mynewt/rust\app\src/lib.rs:108
    if let Some(location) = info.location() {
  14:	9804      	ldr	r0, [sp, #16]
  16:	f7ff fffe 	bl	0 <core::panic::PanicInfo::location>
  1a:	9005      	str	r0, [sp, #20]
  1c:	e7ff      	b.n	1e <rust_begin_unwind+0x1e>
  1e:	9805      	ldr	r0, [sp, #20]
  20:	2800      	cmp	r0, #0
  22:	d108      	bne.n	36 <rust_begin_unwind+0x36>
  24:	e7ff      	b.n	26 <rust_begin_unwind+0x26>
c:\PineTime\pinetime-rust-mynewt/rust\app\src/lib.rs:115
        let line = location.line();
        console::print("at ");       console::buffer(&file);
        console::print(" line ");    console::printint(line as i32);
        console::print("\n");        console::flush();
    } else {
        console::print("no loc\n");  console::flush();
  26:	f240 0000 	movw	r0, #0
  2a:	f2c0 0000 	movt	r0, #0
  2e:	2107      	movs	r1, #7
  30:	f7ff fffe 	bl	0 <mynewt::sys::console::print>
  34:	e031      	b.n	9a <rust_begin_unwind+0x9a>
c:\PineTime\pinetime-rust-mynewt/rust\app\src/lib.rs:108
    if let Some(location) = info.location() {
  36:	9805      	ldr	r0, [sp, #20]
  38:	9006      	str	r0, [sp, #24]
c:\PineTime\pinetime-rust-mynewt/rust\app\src/lib.rs:109
        let file = location.file();
  3a:	9806      	ldr	r0, [sp, #24]
  3c:	f7ff fffe 	bl	0 <core::panic::Location::file>
  40:	9108      	str	r1, [sp, #32]
  42:	9007      	str	r0, [sp, #28]
  44:	e7ff      	b.n	46 <rust_begin_unwind+0x46>
c:\PineTime\pinetime-rust-mynewt/rust\app\src/lib.rs:110
        let line = location.line();
  46:	9806      	ldr	r0, [sp, #24]
  48:	f7ff fffe 	bl	0 <core::panic::Location::line>
  4c:	9009      	str	r0, [sp, #36]	; 0x24
  4e:	e7ff      	b.n	50 <rust_begin_unwind+0x50>
c:\PineTime\pinetime-rust-mynewt/rust\app\src/lib.rs:111
        console::print("at ");       console::buffer(&file);
  50:	f240 0000 	movw	r0, #0
  54:	f2c0 0000 	movt	r0, #0
  58:	2103      	movs	r1, #3
  5a:	f7ff fffe 	bl	0 <mynewt::sys::console::print>
  5e:	e7ff      	b.n	60 <rust_begin_unwind+0x60>
  60:	9807      	ldr	r0, [sp, #28]
  62:	9908      	ldr	r1, [sp, #32]
  64:	f7ff fffe 	bl	0 <mynewt::sys::console::buffer>
  68:	e7ff      	b.n	2 <rust_begin_unwind+0x2>
c:\PineTime\pinetime-rust-mynewt/rust\app\src/lib.rs:112
        console::print(" line ");    console::printint(line as i32);
  6a:	f240 0000 	movw	r0, #0
  6e:	f2c0 0000 	movt	r0, #0
  72:	2106      	movs	r1, #6
  74:	f7ff fffe 	bl	0 <mynewt::sys::console::print>
  78:	e7ff      	b.n	7a <rust_begin_unwind+0x7a>
  7a:	9809      	ldr	r0, [sp, #36]	; 0x24
  7c:	f7ff fffe 	bl	0 <mynewt::sys::console::printint>
  80:	e7ff      	b.n	2 <rust_begin_unwind+0x2>
c:\PineTime\pinetime-rust-mynewt/rust\app\src/lib.rs:113
        console::print("\n");        console::flush();
  82:	f240 0000 	movw	r0, #0
  86:	f2c0 0000 	movt	r0, #0
  8a:	2101      	movs	r1, #1
  8c:	f7ff fffe 	bl	0 <mynewt::sys::console::print>
  90:	e7ff      	b.n	2 <mynewt::sys::console::flush+0x2>
  92:	f7ff fffe 	bl	0 <mynewt::sys::console::flush>
  96:	e7ff      	b.n	98 <rust_begin_unwind+0x98>
c:\PineTime\pinetime-rust-mynewt/rust\app\src/lib.rs:108
    if let Some(location) = info.location() {
  98:	e003      	b.n	a2 <rust_begin_unwind+0xa2>
c:\PineTime\pinetime-rust-mynewt/rust\app\src/lib.rs:115
        console::print("no loc\n");  console::flush();
  9a:	f7ff fffe 	bl	0 <mynewt::sys::console::flush>
  9e:	e7ff      	b.n	a0 <rust_begin_unwind+0xa0>
c:\PineTime\pinetime-rust-mynewt/rust\app\src/lib.rs:108
    if let Some(location) = info.location() {
  a0:	e7ff      	b.n	a2 <rust_begin_unwind+0xa2>
_ZN8cortex_m3asm4bkpt17h1775bf5a4f20741fE():
C:\Users\guppy\.cargo\registry\src\github.com-1ecc6299db9ec823\cortex-m-0.6.1\src/asm.rs:11
/// exception.
#[inline(always)]
pub fn bkpt() {
    match () {
        #[cfg(all(cortex_m, feature = "inline-asm"))]
        () => unsafe { asm!("bkpt" :::: "volatile") },
  a2:	be00      	bkpt	0x0000
rust_begin_unwind():
c:\PineTime\pinetime-rust-mynewt/rust\app\src/lib.rs:118
    }
    //  Pause in the debugger.
    bkpt();
  a4:	e7ff      	b.n	a6 <rust_begin_unwind+0xa6>
c:\PineTime\pinetime-rust-mynewt/rust\app\src/lib.rs:120
    //  Display the payload.
    console::print(info.payload().downcast_ref::<&str>().unwrap());
  a6:	9804      	ldr	r0, [sp, #16]
  a8:	f7ff fffe 	bl	0 <core::panic::PanicInfo::payload>
  ac:	9003      	str	r0, [sp, #12]
  ae:	9102      	str	r1, [sp, #8]
  b0:	e7ff      	b.n	b2 <rust_begin_unwind+0xb2>
  b2:	9803      	ldr	r0, [sp, #12]
  b4:	9902      	ldr	r1, [sp, #8]
  b6:	f7ff fffe 	bl	0 <<dyn core::any::Any+core::marker::Send>::downcast_ref>
  ba:	9001      	str	r0, [sp, #4]
  bc:	e7ff      	b.n	be <rust_begin_unwind+0xbe>
  be:	9801      	ldr	r0, [sp, #4]
  c0:	f7ff fffe 	bl	0 <core::option::Option<T>::unwrap>
  c4:	9000      	str	r0, [sp, #0]
  c6:	e7ff      	b.n	c8 <rust_begin_unwind+0xc8>
  c8:	9800      	ldr	r0, [sp, #0]
  ca:	6800      	ldr	r0, [r0, #0]
  cc:	9900      	ldr	r1, [sp, #0]
  ce:	6849      	ldr	r1, [r1, #4]
  d0:	f7ff fffe 	bl	0 <mynewt::sys::console::print>
  d4:	e7ff      	b.n	2 <rust_begin_unwind+0x2>
c:\PineTime\pinetime-rust-mynewt/rust\app\src/lib.rs:121
    console::print("\n");  console::flush();
  d6:	f240 0000 	movw	r0, #0
  da:	f2c0 0000 	movt	r0, #0
  de:	2101      	movs	r1, #1
  e0:	f7ff fffe 	bl	0 <mynewt::sys::console::print>
  e4:	e7ff      	b.n	2 <mynewt::sys::console::flush+0x2>
  e6:	f7ff fffe 	bl	0 <mynewt::sys::console::flush>
  ea:	e7ff      	b.n	ec <rust_begin_unwind+0xec>
c:\PineTime\pinetime-rust-mynewt/rust\app\src/lib.rs:123
    //  Loop forever so that device won't restart.
    loop {}
  ec:	e7ff      	b.n	ee <rust_begin_unwind+0xee>
  ee:	e7fe      	b.n	ee <rust_begin_unwind+0xee>

app-06a5867689f9e070.1tfihnvjg34ugq4k.rcgu.o:     file format elf32-littlearm

SYMBOL TABLE:
00000000 l    df *ABS*	00000000 1tfihnvjg34ugq4k
00000513 l       .debug_str	00000000 
00000e83 l       .debug_str	00000000 
00000e7e l       .debug_str	00000000 
00000e57 l       .debug_str	00000000 
00000e52 l       .debug_str	00000000 
00000e4b l       .debug_str	00000000 
00000e28 l       .debug_str	00000000 
00000e1e l       .debug_str	00000000 
00000e06 l       .debug_str	00000000 
00000ddf l       .debug_str	00000000 
00000dd5 l       .debug_str	00000000 
00000dca l       .debug_str	00000000 
00000f00 l       .debug_str	00000000 
00000dc1 l       .debug_str	00000000 
00000db8 l       .debug_str	00000000 
00000efb l       .debug_str	00000000 
00000d97 l       .debug_str	00000000 
00000d8f l       .debug_str	00000000 
00000d79 l       .debug_str	00000000 
00000d6e l       .debug_str	00000000 
00000ef1 l       .debug_str	00000000 
00000d58 l       .debug_str	00000000 
00000d32 l       .debug_str	00000000 
00000d29 l       .debug_str	00000000 
00000d20 l       .debug_str	00000000 
00000d16 l       .debug_str	00000000 
00000d00 l       .debug_str	00000000 
00000cf1 l       .debug_str	00000000 
00000ce4 l       .debug_str	00000000 
00000cd9 l       .debug_str	00000000 
00000ccb l       .debug_str	00000000 
00000cbb l       .debug_str	00000000 
00000c9d l       .debug_str	00000000 
00000c94 l       .debug_str	00000000 
00000c8c l       .debug_str	00000000 
00000c85 l       .debug_str	00000000 
00000c1f l       .debug_str	00000000 
00000bc1 l       .debug_str	00000000 
00000b98 l       .debug_str	00000000 
00000b90 l       .debug_str	00000000 
00000b80 l       .debug_str	00000000 
00000b70 l       .debug_str	00000000 
00000b61 l       .debug_str	00000000 
00000b5b l       .debug_str	00000000 
00000b55 l       .debug_str	00000000 
00000b20 l       .debug_str	00000000 
00000af3 l       .debug_str	00000000 
00000aec l       .debug_str	00000000 
00000ae5 l       .debug_str	00000000 
00000adf l       .debug_str	00000000 
00000ad5 l       .debug_str	00000000 
00000acd l       .debug_str	00000000 
00000ac5 l       .debug_str	00000000 
00000abe l       .debug_str	00000000 
00000ab5 l       .debug_str	00000000 
00000aa9 l       .debug_str	00000000 
00000a9e l       .debug_str	00000000 
00000a95 l       .debug_str	00000000 
00000a8a l       .debug_str	00000000 
00000a80 l       .debug_str	00000000 
00000a7a l       .debug_str	00000000 
00000a76 l       .debug_str	00000000 
00000a60 l       .debug_str	00000000 
00000ee3 l       .debug_str	00000000 
00000a56 l       .debug_str	00000000 
00000a3d l       .debug_str	00000000 
00000a20 l       .debug_str	00000000 
00000a15 l       .debug_str	00000000 
000009b7 l       .debug_str	00000000 
0000099d l       .debug_str	00000000 
00000993 l       .debug_str	00000000 
00000977 l       .debug_str	00000000 
00000953 l       .debug_str	00000000 
0000093c l       .debug_str	00000000 
00000ed4 l       .debug_str	00000000 
00000ecf l       .debug_str	00000000 
00000ec9 l       .debug_str	00000000 
00000ec2 l       .debug_str	00000000 
00000ebc l       .debug_str	00000000 
00000eb5 l       .debug_str	00000000 
00000ead l       .debug_str	00000000 
00000eab l       .debug_str	00000000 
00000ea7 l       .debug_str	00000000 
00000ea0 l       .debug_str	00000000 
00000e93 l       .debug_str	00000000 
00000e8f l       .debug_str	00000000 
00000000 l       .debug_str	00000000 
00000041 l       .debug_str	00000000 
00000055 l       .debug_str	00000000 
00000076 l       .debug_str	00000000 
0000007a l       .debug_str	00000000 
00000087 l       .debug_str	00000000 
00000093 l       .debug_str	00000000 
0000009a l       .debug_str	00000000 
0000009e l       .debug_str	00000000 
000000a2 l       .debug_str	00000000 
000000a6 l       .debug_str	00000000 
000000ab l       .debug_str	00000000 
000000e2 l       .debug_str	00000000 
000000ee l       .debug_str	00000000 
000000f4 l       .debug_str	00000000 
0000012b l       .debug_str	00000000 
00000136 l       .debug_str	00000000 
0000013e l       .debug_str	00000000 
00000140 l       .debug_str	00000000 
00000144 l       .debug_str	00000000 
00000146 l       .debug_str	00000000 
0000014d l       .debug_str	00000000 
00000150 l       .debug_str	00000000 
00000157 l       .debug_str	00000000 
00000160 l       .debug_str	00000000 
00000165 l       .debug_str	00000000 
0000016f l       .debug_str	00000000 
00000183 l       .debug_str	00000000 
00000189 l       .debug_str	00000000 
00000193 l       .debug_str	00000000 
000001a2 l       .debug_str	00000000 
000001d8 l       .debug_str	00000000 
000001dc l       .debug_str	00000000 
0000020a l       .debug_str	00000000 
00000216 l       .debug_str	00000000 
0000021d l       .debug_str	00000000 
00000220 l       .debug_str	00000000 
0000022a l       .debug_str	00000000 
00000230 l       .debug_str	00000000 
00000235 l       .debug_str	00000000 
0000023c l       .debug_str	00000000 
00000240 l       .debug_str	00000000 
00000245 l       .debug_str	00000000 
00000267 l       .debug_str	00000000 
0000029f l       .debug_str	00000000 
000002a1 l       .debug_str	00000000 
000002a6 l       .debug_str	00000000 
000002aa l       .debug_str	00000000 
000002ea l       .debug_str	00000000 
000002f1 l       .debug_str	00000000 
000002f5 l       .debug_str	00000000 
00000300 l       .debug_str	00000000 
0000030b l       .debug_str	00000000 
00000312 l       .debug_str	00000000 
00000329 l       .debug_str	00000000 
00000331 l       .debug_str	00000000 
0000033b l       .debug_str	00000000 
00000352 l       .debug_str	00000000 
0000035b l       .debug_str	00000000 
00000392 l       .debug_str	00000000 
0000039b l       .debug_str	00000000 
0000039e l       .debug_str	00000000 
000003a6 l       .debug_str	00000000 
000003aa l       .debug_str	00000000 
000003b1 l       .debug_str	00000000 
000003b9 l       .debug_str	00000000 
000003cd l       .debug_str	00000000 
00000400 l       .debug_str	00000000 
0000040b l       .debug_str	00000000 
00000441 l       .debug_str	00000000 
00000448 l       .debug_str	00000000 
00000450 l       .debug_str	00000000 
0000045b l       .debug_str	00000000 
00000466 l       .debug_str	00000000 
00000473 l       .debug_str	00000000 
0000047e l       .debug_str	00000000 
00000486 l       .debug_str	00000000 
00000491 l       .debug_str	00000000 
0000049c l       .debug_str	00000000 
000004a6 l       .debug_str	00000000 
000004b1 l       .debug_str	00000000 
000004bc l       .debug_str	00000000 
000004c9 l       .debug_str	00000000 
000004d5 l       .debug_str	00000000 
000004e2 l       .debug_str	00000000 
000004f0 l       .debug_str	00000000 
000004fa l       .debug_str	00000000 
00000507 l       .debug_str	00000000 
00000934 l       .debug_str	00000000 
00000517 l       .debug_str	00000000 
0000051a l       .debug_str	00000000 
0000051d l       .debug_str	00000000 
00000522 l       .debug_str	00000000 
00000528 l       .debug_str	00000000 
0000052f l       .debug_str	00000000 
00000537 l       .debug_str	00000000 
00000541 l       .debug_str	00000000 
00000544 l       .debug_str	00000000 
00000548 l       .debug_str	00000000 
0000054f l       .debug_str	00000000 
0000058d l       .debug_str	00000000 
000005a0 l       .debug_str	00000000 
000005a3 l       .debug_str	00000000 
000005a5 l       .debug_str	00000000 
000005cd l       .debug_str	00000000 
00000610 l       .debug_str	00000000 
00000628 l       .debug_str	00000000 
00000668 l       .debug_str	00000000 
0000067d l       .debug_str	00000000 
000006b7 l       .debug_str	00000000 
000006c6 l       .debug_str	00000000 
00000705 l       .debug_str	00000000 
00000719 l       .debug_str	00000000 
0000071d l       .debug_str	00000000 
00000720 l       .debug_str	00000000 
00000729 l       .debug_str	00000000 
0000072e l       .debug_str	00000000 
00000738 l       .debug_str	00000000 
0000073d l       .debug_str	00000000 
00000743 l       .debug_str	00000000 
00000748 l       .debug_str	00000000 
0000074d l       .debug_str	00000000 
00000754 l       .debug_str	00000000 
0000075d l       .debug_str	00000000 
00000767 l       .debug_str	00000000 
0000076e l       .debug_str	00000000 
00000774 l       .debug_str	00000000 
00000779 l       .debug_str	00000000 
00000785 l       .debug_str	00000000 
0000078d l       .debug_str	00000000 
00000796 l       .debug_str	00000000 
0000079b l       .debug_str	00000000 
0000079e l       .debug_str	00000000 
000007a7 l       .debug_str	00000000 
000007ae l       .debug_str	00000000 
000007b3 l       .debug_str	00000000 
000007b8 l       .debug_str	00000000 
000007be l       .debug_str	00000000 
000007c4 l       .debug_str	00000000 
000007ce l       .debug_str	00000000 
000007d1 l       .debug_str	00000000 
000007d7 l       .debug_str	00000000 
000007e1 l       .debug_str	00000000 
000007e9 l       .debug_str	00000000 
000007ef l       .debug_str	00000000 
000007f5 l       .debug_str	00000000 
00000800 l       .debug_str	00000000 
00000809 l       .debug_str	00000000 
0000082c l       .debug_str	00000000 
0000084b l       .debug_str	00000000 
00000872 l       .debug_str	00000000 
00000877 l       .debug_str	00000000 
0000087d l       .debug_str	00000000 
00000883 l       .debug_str	00000000 
00000892 l       .debug_str	00000000 
00000899 l       .debug_str	00000000 
0000089d l       .debug_str	00000000 
000008a6 l       .debug_str	00000000 
000008ae l       .debug_str	00000000 
000008b5 l       .debug_str	00000000 
000008c1 l       .debug_str	00000000 
000008cd l       .debug_str	00000000 
000008e6 l       .debug_str	00000000 
000008eb l       .debug_str	00000000 
000008fc l       .debug_str	00000000 
00000906 l       .debug_str	00000000 
00000914 l       .debug_str	00000000 
0000091f l       .debug_str	00000000 
00000926 l       .debug_str	00000000 
0000092c l       .debug_str	00000000 
00000930 l       .debug_str	00000000 
00000e89 l       .debug_str	00000000 
00000000 l     O .rodata..Lanon.df298a3082eb50f0d21cb4e9700ecbaf.0	00000012 .Lanon.df298a3082eb50f0d21cb4e9700ecbaf.0
00000000 l     O .rodata.cst4	00000004 .Lanon.df298a3082eb50f0d21cb4e9700ecbaf.1
00000000 l     O .rodata.cst8	00000008 .Lanon.df298a3082eb50f0d21cb4e9700ecbaf.10
00000000 l     O .rodata..Lanon.df298a3082eb50f0d21cb4e9700ecbaf.11	0000000e .Lanon.df298a3082eb50f0d21cb4e9700ecbaf.11
00000000 l     O .rodata..Lanon.df298a3082eb50f0d21cb4e9700ecbaf.12	00000013 .Lanon.df298a3082eb50f0d21cb4e9700ecbaf.12
00000000 l     O .rodata..Lanon.df298a3082eb50f0d21cb4e9700ecbaf.13	00000010 .Lanon.df298a3082eb50f0d21cb4e9700ecbaf.13
00000000 l     O .rodata..Lanon.df298a3082eb50f0d21cb4e9700ecbaf.14	00000010 .Lanon.df298a3082eb50f0d21cb4e9700ecbaf.14
00000000 l     O .rodata..Lanon.df298a3082eb50f0d21cb4e9700ecbaf.15	00000010 .Lanon.df298a3082eb50f0d21cb4e9700ecbaf.15
00000000 l     O .rodata..Lanon.df298a3082eb50f0d21cb4e9700ecbaf.16	00000010 .Lanon.df298a3082eb50f0d21cb4e9700ecbaf.16
00000000 l     O .rodata..Lanon.df298a3082eb50f0d21cb4e9700ecbaf.17	00000010 .Lanon.df298a3082eb50f0d21cb4e9700ecbaf.17
00000000 l     O .rodata..Lanon.df298a3082eb50f0d21cb4e9700ecbaf.18	00000010 .Lanon.df298a3082eb50f0d21cb4e9700ecbaf.18
00000000 l     O .rodata..Lanon.df298a3082eb50f0d21cb4e9700ecbaf.19	00000010 .Lanon.df298a3082eb50f0d21cb4e9700ecbaf.19
00000000 l     O .rodata..Lanon.df298a3082eb50f0d21cb4e9700ecbaf.20	00000010 .Lanon.df298a3082eb50f0d21cb4e9700ecbaf.20
00000000 l     O .rodata..Lanon.df298a3082eb50f0d21cb4e9700ecbaf.21	00000010 .Lanon.df298a3082eb50f0d21cb4e9700ecbaf.21
00000000 l     O .rodata..Lanon.df298a3082eb50f0d21cb4e9700ecbaf.22	00000010 .Lanon.df298a3082eb50f0d21cb4e9700ecbaf.22
00000000 l     O .rodata..Lanon.df298a3082eb50f0d21cb4e9700ecbaf.23	00000010 .Lanon.df298a3082eb50f0d21cb4e9700ecbaf.23
00000000 l     O .rodata..Lanon.df298a3082eb50f0d21cb4e9700ecbaf.24	00000010 .Lanon.df298a3082eb50f0d21cb4e9700ecbaf.24
00000000 l     O .rodata..Lanon.df298a3082eb50f0d21cb4e9700ecbaf.25	00000010 .Lanon.df298a3082eb50f0d21cb4e9700ecbaf.25
00000000 l     O .rodata..Lanon.df298a3082eb50f0d21cb4e9700ecbaf.26	00000010 .Lanon.df298a3082eb50f0d21cb4e9700ecbaf.26
00000000 l     O .rodata..Lanon.df298a3082eb50f0d21cb4e9700ecbaf.27	00000010 .Lanon.df298a3082eb50f0d21cb4e9700ecbaf.27
00000000 l     O .rodata..Lanon.df298a3082eb50f0d21cb4e9700ecbaf.28	00000010 .Lanon.df298a3082eb50f0d21cb4e9700ecbaf.28
00000000 l     O .rodata..Lanon.df298a3082eb50f0d21cb4e9700ecbaf.29	00000010 .Lanon.df298a3082eb50f0d21cb4e9700ecbaf.29
00000000 l     O .rodata..Lanon.df298a3082eb50f0d21cb4e9700ecbaf.30	00000010 .Lanon.df298a3082eb50f0d21cb4e9700ecbaf.30
00000000 l     O .rodata..Lanon.df298a3082eb50f0d21cb4e9700ecbaf.31	00000010 .Lanon.df298a3082eb50f0d21cb4e9700ecbaf.31
00000000 l     O .rodata..Lanon.df298a3082eb50f0d21cb4e9700ecbaf.32	00000010 .Lanon.df298a3082eb50f0d21cb4e9700ecbaf.32
00000000 l     O .rodata..Lanon.df298a3082eb50f0d21cb4e9700ecbaf.33	00000010 .Lanon.df298a3082eb50f0d21cb4e9700ecbaf.33
00000000 l     O .rodata..Lanon.df298a3082eb50f0d21cb4e9700ecbaf.34	00000010 .Lanon.df298a3082eb50f0d21cb4e9700ecbaf.34
00000000 l     O .rodata..Lanon.df298a3082eb50f0d21cb4e9700ecbaf.35	00000010 .Lanon.df298a3082eb50f0d21cb4e9700ecbaf.35
00000000 l     O .rodata..Lanon.df298a3082eb50f0d21cb4e9700ecbaf.36	00000010 .Lanon.df298a3082eb50f0d21cb4e9700ecbaf.36
00000000 l     O .rodata..Lanon.df298a3082eb50f0d21cb4e9700ecbaf.37	00000010 .Lanon.df298a3082eb50f0d21cb4e9700ecbaf.37
00000000 l     O .rodata..Lanon.df298a3082eb50f0d21cb4e9700ecbaf.38	00000010 .Lanon.df298a3082eb50f0d21cb4e9700ecbaf.38
00000000 l     O .rodata..Lanon.df298a3082eb50f0d21cb4e9700ecbaf.39	00000010 .Lanon.df298a3082eb50f0d21cb4e9700ecbaf.39
00000000 l     O .rodata..Lanon.df298a3082eb50f0d21cb4e9700ecbaf.40	00000010 .Lanon.df298a3082eb50f0d21cb4e9700ecbaf.40
00000000 l     O .rodata..Lanon.df298a3082eb50f0d21cb4e9700ecbaf.41	00000010 .Lanon.df298a3082eb50f0d21cb4e9700ecbaf.41
00000000 l     O .rodata..Lanon.df298a3082eb50f0d21cb4e9700ecbaf.42	00000010 .Lanon.df298a3082eb50f0d21cb4e9700ecbaf.42
00000000 l     O .rodata..Lanon.df298a3082eb50f0d21cb4e9700ecbaf.43	00000010 .Lanon.df298a3082eb50f0d21cb4e9700ecbaf.43
00000000 l     O .rodata..Lanon.df298a3082eb50f0d21cb4e9700ecbaf.44	00000010 .Lanon.df298a3082eb50f0d21cb4e9700ecbaf.44
00000000 l     O .rodata..Lanon.df298a3082eb50f0d21cb4e9700ecbaf.45	00000010 .Lanon.df298a3082eb50f0d21cb4e9700ecbaf.45
00000000 l     O .rodata..Lanon.df298a3082eb50f0d21cb4e9700ecbaf.46	00000010 .Lanon.df298a3082eb50f0d21cb4e9700ecbaf.46
00000000 l     O .rodata..Lanon.df298a3082eb50f0d21cb4e9700ecbaf.47	00000010 .Lanon.df298a3082eb50f0d21cb4e9700ecbaf.47
00000000 l     O .rodata..Lanon.df298a3082eb50f0d21cb4e9700ecbaf.48	00000010 .Lanon.df298a3082eb50f0d21cb4e9700ecbaf.48
00000000 l     O .rodata..Lanon.df298a3082eb50f0d21cb4e9700ecbaf.49	00000007 .Lanon.df298a3082eb50f0d21cb4e9700ecbaf.49
00000000 l     O .rodata..Lanon.df298a3082eb50f0d21cb4e9700ecbaf.5	00000018 .Lanon.df298a3082eb50f0d21cb4e9700ecbaf.5
00000000 l     O .rodata..Lanon.df298a3082eb50f0d21cb4e9700ecbaf.50	00000010 .Lanon.df298a3082eb50f0d21cb4e9700ecbaf.50
00000000 l     O .rodata..Lanon.df298a3082eb50f0d21cb4e9700ecbaf.51	00000010 .Lanon.df298a3082eb50f0d21cb4e9700ecbaf.51
00000008 l     O .rodata.cst8	00000008 .Lanon.df298a3082eb50f0d21cb4e9700ecbaf.52
00000000 l     O .rodata..Lanon.df298a3082eb50f0d21cb4e9700ecbaf.53	00000010 .Lanon.df298a3082eb50f0d21cb4e9700ecbaf.53
00000010 l     O .rodata.cst8	00000008 .Lanon.df298a3082eb50f0d21cb4e9700ecbaf.54
00000000 l     O .rodata..Lanon.df298a3082eb50f0d21cb4e9700ecbaf.55	00000010 .Lanon.df298a3082eb50f0d21cb4e9700ecbaf.55
00000000 l     O .rodata..Lanon.df298a3082eb50f0d21cb4e9700ecbaf.7	00000008 .Lanon.df298a3082eb50f0d21cb4e9700ecbaf.7
00000000 l     O .rodata..Lanon.df298a3082eb50f0d21cb4e9700ecbaf.9	00000010 .Lanon.df298a3082eb50f0d21cb4e9700ecbaf.9
00000000 l     O .bss._ZN3app12touch_sensor10I2C_BUFFER17h1e013187beb46e7aE	00000001 app::touch_sensor::I2C_BUFFER
00000000 l     O .bss._ZN3app12touch_sensor10TOUCH_DATA17hf72950d202291c68E	00000052 app::touch_sensor::TOUCH_DATA
00000000 l     O .bss._ZN3app12touch_sensor11TOUCH_DELAY17hafa95c0f002f101cE	00000000 app::touch_sensor::TOUCH_DELAY
00000000 l     O .bss._ZN3app12touch_sensor11TOUCH_EVENT17hf04fc5f49154c5a7E	00000010 app::touch_sensor::TOUCH_EVENT
00000000 l     O .bss._ZN3app12touch_sensor11TOUCH_RESET17heaad6ab6d3464f55E	00000004 app::touch_sensor::TOUCH_RESET
00000000 l     F .text._ZN3app12touch_sensor14read_touchdata17h4bb2ca3513851cbcE	00000786 app::touch_sensor::read_touchdata
00000000 l     F .text._ZN3app12touch_sensor19read_register_range17h784f7a37a5b2e28aE	000001d4 app::touch_sensor::read_register_range
00000000 l     F .text._ZN3app12touch_sensor20touch_event_callback17h4242eeec36805d60E	00000056 app::touch_sensor::touch_event_callback
00000000 l     F .text._ZN3app12touch_sensor23touch_interrupt_handler17h7b65dd42df46a5ecE	00000046 app::touch_sensor::touch_interrupt_handler
00000000 l     O .bss._ZN3app12touch_sensor3buf17hf5e6c84435b19dd9E	0000003f app::touch_sensor::buf
00000000 l     O .bss._ZN3app12touch_sensor8I2C_DATA17hf7eeb7a29ff7f638E	00000008 app::touch_sensor::I2C_DATA
00000000 l     O .rodata.str.0	00000021 str.0
00000000 l     O .rodata.str.1	0000001c str.1
00000000 l    d  .text._ZN3app12touch_sensor18start_touch_sensor17hf989d5e8d01742e6E	00000000 .text._ZN3app12touch_sensor18start_touch_sensor17hf989d5e8d01742e6E
00000000 l    d  .text._ZN3app12touch_sensor23touch_interrupt_handler17h7b65dd42df46a5ecE	00000000 .text._ZN3app12touch_sensor23touch_interrupt_handler17h7b65dd42df46a5ecE
00000000 l    d  .text._ZN3app12touch_sensor20touch_event_callback17h4242eeec36805d60E	00000000 .text._ZN3app12touch_sensor20touch_event_callback17h4242eeec36805d60E
00000000 l    d  .text._ZN3app12touch_sensor14read_touchdata17h4bb2ca3513851cbcE	00000000 .text._ZN3app12touch_sensor14read_touchdata17h4bb2ca3513851cbcE
00000000 l    d  .text._ZN3app12touch_sensor19read_register_range17h784f7a37a5b2e28aE	00000000 .text._ZN3app12touch_sensor19read_register_range17h784f7a37a5b2e28aE
00000000 l    d  .bss._ZN3app12touch_sensor11TOUCH_RESET17heaad6ab6d3464f55E	00000000 .bss._ZN3app12touch_sensor11TOUCH_RESET17heaad6ab6d3464f55E
00000000 l    d  .bss._ZN3app12touch_sensor11TOUCH_DELAY17hafa95c0f002f101cE	00000000 .bss._ZN3app12touch_sensor11TOUCH_DELAY17hafa95c0f002f101cE
00000000 l    d  .rodata..Lanon.df298a3082eb50f0d21cb4e9700ecbaf.2	00000000 .rodata..Lanon.df298a3082eb50f0d21cb4e9700ecbaf.2
00000000 l    d  .rodata..Lanon.df298a3082eb50f0d21cb4e9700ecbaf.3	00000000 .rodata..Lanon.df298a3082eb50f0d21cb4e9700ecbaf.3
00000000 l    d  .rodata..Lanon.df298a3082eb50f0d21cb4e9700ecbaf.4	00000000 .rodata..Lanon.df298a3082eb50f0d21cb4e9700ecbaf.4
00000000 l    d  .rodata..Lanon.df298a3082eb50f0d21cb4e9700ecbaf.6	00000000 .rodata..Lanon.df298a3082eb50f0d21cb4e9700ecbaf.6
00000000 l    d  .rodata..Lanon.df298a3082eb50f0d21cb4e9700ecbaf.8	00000000 .rodata..Lanon.df298a3082eb50f0d21cb4e9700ecbaf.8
00000000 l    d  .bss._ZN3app12touch_sensor10TOUCH_DATA17hf72950d202291c68E	00000000 .bss._ZN3app12touch_sensor10TOUCH_DATA17hf72950d202291c68E
00000000 l    d  .bss._ZN3app12touch_sensor3buf17hf5e6c84435b19dd9E	00000000 .bss._ZN3app12touch_sensor3buf17hf5e6c84435b19dd9E
00000000 l    d  .bss._ZN3app12touch_sensor11TOUCH_EVENT17hf04fc5f49154c5a7E	00000000 .bss._ZN3app12touch_sensor11TOUCH_EVENT17hf04fc5f49154c5a7E
00000000 l    d  .bss._ZN3app12touch_sensor8I2C_DATA17hf7eeb7a29ff7f638E	00000000 .bss._ZN3app12touch_sensor8I2C_DATA17hf7eeb7a29ff7f638E
00000000 l    d  .bss._ZN3app12touch_sensor10I2C_BUFFER17h1e013187beb46e7aE	00000000 .bss._ZN3app12touch_sensor10I2C_BUFFER17h1e013187beb46e7aE
00000000 l    d  .debug_abbrev	00000000 .debug_abbrev
00000000 l    d  .debug_info	00000000 .debug_info
00000000 l    d  .debug_ranges	00000000 .debug_ranges
00000000 l    d  .debug_frame	00000000 .debug_frame
00000000 l    d  .debug_line	00000000 .debug_line
00000000 g     F .text._ZN3app12touch_sensor18start_touch_sensor17hf989d5e8d01742e6E	0000025c .hidden app::touch_sensor::start_touch_sensor
00000000         *UND*	00000000 <&T as core::fmt::Debug>::fmt
00000000         *UND*	00000000 core::fmt::ArgumentV1::new
00000000         *UND*	00000000 core::fmt::ArgumentV1::new
00000000         *UND*	00000000 .hidden core::fmt::Arguments::new_v1
00000000         *UND*	00000000 core::iter::range::<impl core::iter::traits::iterator::Iterator for core::ops::range::Range<A>>::next
00000000         *UND*	00000000 core::slice::<impl [T]>::as_mut_ptr
00000000         *UND*	00000000 core::slice::<impl [T]>::len
00000000         *UND*	00000000 core::result::Result<T,E>::expect
00000000         *UND*	00000000 core::result::Result<T,E>::expect
00000000         *UND*	00000000 core::panicking::panic_bounds_check
00000000         *UND*	00000000 core::panicking::panic
00000000         *UND*	00000000 core::panicking::panic_fmt
00000000         *UND*	00000000 <T as core::convert::From<T>>::from
00000000         *UND*	00000000 <core::fmt::Arguments as core::fmt::Display>::fmt
00000000         *UND*	00000000 druid::win_handler::handle_touch
00000000         *UND*	00000000 <I as core::iter::traits::collect::IntoIterator>::into_iter
00000000         *UND*	00000000 mynewt::hal::GPIO::init
00000000         *UND*	00000000 mynewt::sys::console::print
00000000         *UND*	00000000 mynewt::kernel::os::eventq_dflt_get
00000000         *UND*	00000000 <core::result::Result<T,E> as core::ops::try::Try>::from_error
00000000         *UND*	00000000 <core::result::Result<T,E> as core::ops::try::Try>::into_result
00000000         *UND*	00000000 <mynewt::hal::GPIO as embedded_hal::digital::v2::OutputPin>::set_low
00000000         *UND*	00000000 <mynewt::hal::GPIO as embedded_hal::digital::v2::OutputPin>::set_high
00000000         *UND*	00000000 <mynewt::hal::Delay as embedded_hal::blocking::delay::DelayMs<u8>>::delay_ms
00000000         *UND*	00000000 __aeabi_memclr
00000000         *UND*	00000000 __aeabi_memcpy
00000000         *UND*	00000000 hal_gpio_irq_enable
00000000         *UND*	00000000 hal_gpio_irq_init
00000000         *UND*	00000000 hal_i2c_master_read
00000000         *UND*	00000000 hal_i2c_master_write
00000000         *UND*	00000000 os_eventq_put



Disassembly of section .text._ZN3app12touch_sensor18start_touch_sensor17hf989d5e8d01742e6E:

00000000 <app::touch_sensor::start_touch_sensor>:
_ZN3app12touch_sensor18start_touch_sensor17hf989d5e8d01742e6E():
c:\PineTime\pinetime-rust-mynewt/rust\app\src/touch_sensor.rs:39
/// ```rust
/// let peripherals = nrf52::Peripherals::take().unwrap();
/// let nfcpins = peripherals.UICR.nfcpins.read().bits();
/// console::print("nfcpins = "); console::printhex(nfcpins as u8); console::print("\n");
/// ```
pub fn start_touch_sensor() -> MynewtResult<()> {
   0:	b5b0      	push	{r4, r5, r7, lr}
   2:	b0bc      	sub	sp, #240	; 0xf0
c:\PineTime\pinetime-rust-mynewt/rust\app\src/touch_sensor.rs:40
    console::print("Rust touch sensor\n");
   4:	f240 0000 	movw	r0, #0
   8:	f2c0 0000 	movt	r0, #0
   c:	2112      	movs	r1, #18
   e:	f7ff fffe 	bl	0 <mynewt::sys::console::print>
  12:	e7ff      	b.n	2 <app::touch_sensor::start_touch_sensor+0x2>
c:\PineTime\pinetime-rust-mynewt/rust\app\src/touch_sensor.rs:43

    //  Init GPIO for the Reset Pin
    unsafe { TOUCH_RESET.init(TOUCH_RESET_PIN) ? };
  14:	f240 0000 	movw	r0, #0
  18:	f2c0 0000 	movt	r0, #0
  1c:	210a      	movs	r1, #10
  1e:	f7ff fffe 	bl	0 <mynewt::hal::GPIO::init>
  22:	900e      	str	r0, [sp, #56]	; 0x38
  24:	e7ff      	b.n	26 <app::touch_sensor::start_touch_sensor+0x26>
  26:	980e      	ldr	r0, [sp, #56]	; 0x38
  28:	f7ff fffe 	bl	0 <<core::result::Result<T,E> as core::ops::try::Try>::into_result>
  2c:	9010      	str	r0, [sp, #64]	; 0x40
  2e:	e7ff      	b.n	30 <app::touch_sensor::start_touch_sensor+0x30>
  30:	9810      	ldr	r0, [sp, #64]	; 0x40
  32:	1e41      	subs	r1, r0, #1
  34:	bf18      	it	ne
  36:	2101      	movne	r1, #1
  38:	2801      	cmp	r0, #1
  3a:	d012      	beq.n	62 <app::touch_sensor::start_touch_sensor+0x62>
  3c:	e7ff      	b.n	3e <app::touch_sensor::start_touch_sensor+0x3e>
  3e:	e000      	b.n	42 <app::touch_sensor::start_touch_sensor+0x42>
  40:	defe      	udf	#254	; 0xfe
  42:	9810      	ldr	r0, [sp, #64]	; 0x40
  44:	9011      	str	r0, [sp, #68]	; 0x44
  46:	9811      	ldr	r0, [sp, #68]	; 0x44
  48:	f7ff fffe 	bl	0 <<T as core::convert::From<T>>::from>
  4c:	900d      	str	r0, [sp, #52]	; 0x34
  4e:	e002      	b.n	56 <app::touch_sensor::start_touch_sensor+0x56>
c:\PineTime\pinetime-rust-mynewt/rust\app\src/touch_sensor.rs:69
    assert_eq!(rc, 0, "IRQ init fail");

    //  Start monitoring for touch controller interrupts
    unsafe { hal::hal_gpio_irq_enable(TOUCH_INTERRUPT_PIN) };
    Ok(())
}
  50:	980f      	ldr	r0, [sp, #60]	; 0x3c
  52:	b03c      	add	sp, #240	; 0xf0
  54:	bdb0      	pop	{r4, r5, r7, pc}
c:\PineTime\pinetime-rust-mynewt/rust\app\src/touch_sensor.rs:43
    unsafe { TOUCH_RESET.init(TOUCH_RESET_PIN) ? };
  56:	980d      	ldr	r0, [sp, #52]	; 0x34
  58:	f7ff fffe 	bl	0 <<core::result::Result<T,E> as core::ops::try::Try>::from_error>
  5c:	900f      	str	r0, [sp, #60]	; 0x3c
  5e:	e7ff      	b.n	60 <app::touch_sensor::start_touch_sensor+0x60>
  60:	e7f6      	b.n	50 <app::touch_sensor::start_touch_sensor+0x50>
c:\PineTime\pinetime-rust-mynewt/rust\app\src/touch_sensor.rs:47
        TOUCH_RESET.set_low() ? ;
  62:	f240 0000 	movw	r0, #0
  66:	f2c0 0000 	movt	r0, #0
  6a:	f7ff fffe 	bl	0 <<mynewt::hal::GPIO as embedded_hal::digital::v2::OutputPin>::set_low>
  6e:	900c      	str	r0, [sp, #48]	; 0x30
  70:	e7ff      	b.n	72 <app::touch_sensor::start_touch_sensor+0x72>
  72:	980c      	ldr	r0, [sp, #48]	; 0x30
  74:	f7ff fffe 	bl	0 <<core::result::Result<T,E> as core::ops::try::Try>::into_result>
  78:	9013      	str	r0, [sp, #76]	; 0x4c
  7a:	e7ff      	b.n	7c <app::touch_sensor::start_touch_sensor+0x7c>
  7c:	9813      	ldr	r0, [sp, #76]	; 0x4c
  7e:	1e41      	subs	r1, r0, #1
  80:	bf18      	it	ne
  82:	2101      	movne	r1, #1
  84:	2801      	cmp	r0, #1
  86:	d010      	beq.n	aa <app::touch_sensor::start_touch_sensor+0xaa>
  88:	e7ff      	b.n	8a <app::touch_sensor::start_touch_sensor+0x8a>
  8a:	e000      	b.n	8e <app::touch_sensor::start_touch_sensor+0x8e>
  8c:	defe      	udf	#254	; 0xfe
  8e:	9813      	ldr	r0, [sp, #76]	; 0x4c
  90:	9014      	str	r0, [sp, #80]	; 0x50
  92:	9814      	ldr	r0, [sp, #80]	; 0x50
  94:	f7ff fffe 	bl	0 <<T as core::convert::From<T>>::from>
  98:	900b      	str	r0, [sp, #44]	; 0x2c
  9a:	e7ff      	b.n	9c <app::touch_sensor::start_touch_sensor+0x9c>
  9c:	980b      	ldr	r0, [sp, #44]	; 0x2c
  9e:	f7ff fffe 	bl	0 <<core::result::Result<T,E> as core::ops::try::Try>::from_error>
  a2:	900f      	str	r0, [sp, #60]	; 0x3c
  a4:	e7ff      	b.n	a6 <app::touch_sensor::start_touch_sensor+0xa6>
  a6:	e7ff      	b.n	a8 <app::touch_sensor::start_touch_sensor+0xa8>
  a8:	e7d2      	b.n	50 <app::touch_sensor::start_touch_sensor+0x50>
c:\PineTime\pinetime-rust-mynewt/rust\app\src/touch_sensor.rs:48
        TOUCH_DELAY.delay_ms(20);
  aa:	f240 0000 	movw	r0, #0
  ae:	f2c0 0000 	movt	r0, #0
  b2:	2114      	movs	r1, #20
  b4:	f7ff fffe 	bl	0 <<mynewt::hal::Delay as embedded_hal::blocking::delay::DelayMs<u8>>::delay_ms>
  b8:	e7ff      	b.n	2 <app::touch_sensor::start_touch_sensor+0x2>
c:\PineTime\pinetime-rust-mynewt/rust\app\src/touch_sensor.rs:49
        TOUCH_RESET.set_high() ? ;
  ba:	f240 0000 	movw	r0, #0
  be:	f2c0 0000 	movt	r0, #0
  c2:	f7ff fffe 	bl	0 <<mynewt::hal::GPIO as embedded_hal::digital::v2::OutputPin>::set_high>
  c6:	900a      	str	r0, [sp, #40]	; 0x28
  c8:	e7ff      	b.n	ca <app::touch_sensor::start_touch_sensor+0xca>
  ca:	980a      	ldr	r0, [sp, #40]	; 0x28
  cc:	f7ff fffe 	bl	0 <<core::result::Result<T,E> as core::ops::try::Try>::into_result>
  d0:	9016      	str	r0, [sp, #88]	; 0x58
  d2:	e7ff      	b.n	d4 <app::touch_sensor::start_touch_sensor+0xd4>
  d4:	9816      	ldr	r0, [sp, #88]	; 0x58
  d6:	1e41      	subs	r1, r0, #1
  d8:	bf18      	it	ne
  da:	2101      	movne	r1, #1
  dc:	2801      	cmp	r0, #1
  de:	d00f      	beq.n	100 <app::touch_sensor::start_touch_sensor+0x100>
  e0:	e7ff      	b.n	e2 <app::touch_sensor::start_touch_sensor+0xe2>
  e2:	e000      	b.n	e6 <app::touch_sensor::start_touch_sensor+0xe6>
  e4:	defe      	udf	#254	; 0xfe
  e6:	9816      	ldr	r0, [sp, #88]	; 0x58
  e8:	9017      	str	r0, [sp, #92]	; 0x5c
  ea:	9817      	ldr	r0, [sp, #92]	; 0x5c
  ec:	f7ff fffe 	bl	0 <<T as core::convert::From<T>>::from>
  f0:	9009      	str	r0, [sp, #36]	; 0x24
  f2:	e7ff      	b.n	f4 <app::touch_sensor::start_touch_sensor+0xf4>
  f4:	9809      	ldr	r0, [sp, #36]	; 0x24
  f6:	f7ff fffe 	bl	0 <<core::result::Result<T,E> as core::ops::try::Try>::from_error>
  fa:	900f      	str	r0, [sp, #60]	; 0x3c
  fc:	e7ff      	b.n	fe <app::touch_sensor::start_touch_sensor+0xfe>
  fe:	e7d3      	b.n	a8 <app::touch_sensor::start_touch_sensor+0xa8>
c:\PineTime\pinetime-rust-mynewt/rust\app\src/touch_sensor.rs:50
        TOUCH_DELAY.delay_ms(200); TOUCH_DELAY.delay_ms(200);    
 100:	f240 0000 	movw	r0, #0
 104:	f2c0 0000 	movt	r0, #0
 108:	21c8      	movs	r1, #200	; 0xc8
 10a:	f7ff fffe 	bl	0 <<mynewt::hal::Delay as embedded_hal::blocking::delay::DelayMs<u8>>::delay_ms>
 10e:	e7ff      	b.n	2 <app::touch_sensor::start_touch_sensor+0x2>
 110:	f240 0000 	movw	r0, #0
 114:	f2c0 0000 	movt	r0, #0
 118:	21c8      	movs	r1, #200	; 0xc8
 11a:	f7ff fffe 	bl	0 <<mynewt::hal::Delay as embedded_hal::blocking::delay::DelayMs<u8>>::delay_ms>
 11e:	e7ff      	b.n	2 <app::touch_sensor::start_touch_sensor+0x2>
c:\PineTime\pinetime-rust-mynewt/rust\app\src/touch_sensor.rs:54
    unsafe { TOUCH_EVENT.ev_cb = Some( touch_event_callback ) };
 120:	f240 0000 	movw	r0, #0
 124:	f2c0 0000 	movt	r0, #0
 128:	9019      	str	r0, [sp, #100]	; 0x64
 12a:	f240 0000 	movw	r0, #0
 12e:	f2c0 0000 	movt	r0, #0
 132:	901a      	str	r0, [sp, #104]	; 0x68
 134:	981a      	ldr	r0, [sp, #104]	; 0x68
 136:	9919      	ldr	r1, [sp, #100]	; 0x64
 138:	6041      	str	r1, [r0, #4]
c:\PineTime\pinetime-rust-mynewt/rust\app\src/touch_sensor.rs:59
        Some( touch_interrupt_handler ),  //  Call `touch_interrupt_handler()` upon detecting interrupt
 13a:	f240 0000 	movw	r0, #0
 13e:	f2c0 0000 	movt	r0, #0
 142:	901c      	str	r0, [sp, #112]	; 0x70
c:\PineTime\pinetime-rust-mynewt/rust\app\src/touch_sensor.rs:60
        core::ptr::null_mut(),            //  No arguments for `touch_interrupt_handler()`
 144:	e7ff      	b.n	146 <app::touch_sensor::start_touch_sensor+0x146>
c:\PineTime\pinetime-rust-mynewt/rust\app\src/touch_sensor.rs:57
    let rc = unsafe { hal::hal_gpio_irq_init(
 146:	991c      	ldr	r1, [sp, #112]	; 0x70
 148:	4668      	mov	r0, sp
 14a:	2201      	movs	r2, #1
 14c:	6002      	str	r2, [r0, #0]
 14e:	201c      	movs	r0, #28
 150:	2200      	movs	r2, #0
 152:	2302      	movs	r3, #2
 154:	f7ff fffe 	bl	0 <hal_gpio_irq_init>
 158:	901b      	str	r0, [sp, #108]	; 0x6c
 15a:	e7ff      	b.n	15c <app::touch_sensor::start_touch_sensor+0x15c>
 15c:	a81b      	add	r0, sp, #108	; 0x6c
c:\PineTime\pinetime-rust-mynewt/rust\app\src/touch_sensor.rs:64
    assert_eq!(rc, 0, "IRQ init fail");
 15e:	901d      	str	r0, [sp, #116]	; 0x74
 160:	f240 0000 	movw	r0, #0
 164:	f2c0 0000 	movt	r0, #0
 168:	901e      	str	r0, [sp, #120]	; 0x78
 16a:	981d      	ldr	r0, [sp, #116]	; 0x74
 16c:	901f      	str	r0, [sp, #124]	; 0x7c
 16e:	981e      	ldr	r0, [sp, #120]	; 0x78
 170:	9020      	str	r0, [sp, #128]	; 0x80
 172:	981f      	ldr	r0, [sp, #124]	; 0x7c
 174:	6800      	ldr	r0, [r0, #0]
 176:	9920      	ldr	r1, [sp, #128]	; 0x80
 178:	6809      	ldr	r1, [r1, #0]
 17a:	4288      	cmp	r0, r1
 17c:	d104      	bne.n	188 <app::touch_sensor::start_touch_sensor+0x188>
 17e:	e7ff      	b.n	180 <app::touch_sensor::start_touch_sensor+0x180>
 180:	201c      	movs	r0, #28
c:\PineTime\pinetime-rust-mynewt/rust\app\src/touch_sensor.rs:67
    unsafe { hal::hal_gpio_irq_enable(TOUCH_INTERRUPT_PIN) };
 182:	f7ff fffe 	bl	0 <hal_gpio_irq_enable>
 186:	e064      	b.n	252 <app::touch_sensor::start_touch_sensor+0x252>
c:\PineTime\pinetime-rust-mynewt/rust\app\src/touch_sensor.rs:64
    assert_eq!(rc, 0, "IRQ init fail");
 188:	981f      	ldr	r0, [sp, #124]	; 0x7c
 18a:	9030      	str	r0, [sp, #192]	; 0xc0
 18c:	9820      	ldr	r0, [sp, #128]	; 0x80
 18e:	9031      	str	r0, [sp, #196]	; 0xc4
 190:	4668      	mov	r0, sp
 192:	2100      	movs	r1, #0
 194:	6001      	str	r1, [r0, #0]
 196:	f240 0100 	movw	r1, #0
 19a:	f2c0 0100 	movt	r1, #0
 19e:	a832      	add	r0, sp, #200	; 0xc8
 1a0:	2201      	movs	r2, #1
 1a2:	2304      	movs	r3, #4
 1a4:	f7ff fffe 	bl	0 <core::fmt::Arguments::new_v1>
 1a8:	e7ff      	b.n	1aa <app::touch_sensor::start_touch_sensor+0x1aa>
 1aa:	a830      	add	r0, sp, #192	; 0xc0
 1ac:	902d      	str	r0, [sp, #180]	; 0xb4
 1ae:	a831      	add	r0, sp, #196	; 0xc4
 1b0:	902e      	str	r0, [sp, #184]	; 0xb8
 1b2:	a832      	add	r0, sp, #200	; 0xc8
 1b4:	902f      	str	r0, [sp, #188]	; 0xbc
 1b6:	982d      	ldr	r0, [sp, #180]	; 0xb4
 1b8:	9038      	str	r0, [sp, #224]	; 0xe0
 1ba:	982e      	ldr	r0, [sp, #184]	; 0xb8
 1bc:	9039      	str	r0, [sp, #228]	; 0xe4
 1be:	982f      	ldr	r0, [sp, #188]	; 0xbc
 1c0:	903a      	str	r0, [sp, #232]	; 0xe8
 1c2:	9838      	ldr	r0, [sp, #224]	; 0xe0
 1c4:	f240 0100 	movw	r1, #0
 1c8:	f2c0 0100 	movt	r1, #0
 1cc:	f7ff fffe 	bl	0 <core::fmt::ArgumentV1::new>
 1d0:	9008      	str	r0, [sp, #32]
 1d2:	9107      	str	r1, [sp, #28]
 1d4:	e7ff      	b.n	1d6 <app::touch_sensor::start_touch_sensor+0x1d6>
 1d6:	9839      	ldr	r0, [sp, #228]	; 0xe4
 1d8:	f240 0100 	movw	r1, #0
 1dc:	f2c0 0100 	movt	r1, #0
 1e0:	f7ff fffe 	bl	0 <core::fmt::ArgumentV1::new>
 1e4:	9006      	str	r0, [sp, #24]
 1e6:	9105      	str	r1, [sp, #20]
 1e8:	e7ff      	b.n	1ea <app::touch_sensor::start_touch_sensor+0x1ea>
 1ea:	983a      	ldr	r0, [sp, #232]	; 0xe8
 1ec:	f240 0100 	movw	r1, #0
 1f0:	f2c0 0100 	movt	r1, #0
 1f4:	f7ff fffe 	bl	0 <core::fmt::ArgumentV1::new>
 1f8:	9004      	str	r0, [sp, #16]
 1fa:	9103      	str	r1, [sp, #12]
 1fc:	e7ff      	b.n	1fe <app::touch_sensor::start_touch_sensor+0x1fe>
 1fe:	9808      	ldr	r0, [sp, #32]
 200:	9027      	str	r0, [sp, #156]	; 0x9c
 202:	9907      	ldr	r1, [sp, #28]
 204:	9128      	str	r1, [sp, #160]	; 0xa0
 206:	9a06      	ldr	r2, [sp, #24]
 208:	9229      	str	r2, [sp, #164]	; 0xa4
 20a:	9b05      	ldr	r3, [sp, #20]
 20c:	932a      	str	r3, [sp, #168]	; 0xa8
 20e:	f8dd c010 	ldr.w	ip, [sp, #16]
 212:	f8cd c0ac 	str.w	ip, [sp, #172]	; 0xac
 216:	f8dd e00c 	ldr.w	lr, [sp, #12]
 21a:	f8cd e0b0 	str.w	lr, [sp, #176]	; 0xb0
 21e:	466c      	mov	r4, sp
 220:	2503      	movs	r5, #3
 222:	6025      	str	r5, [r4, #0]
 224:	f240 0100 	movw	r1, #0
 228:	f2c0 0100 	movt	r1, #0
 22c:	a821      	add	r0, sp, #132	; 0x84
 22e:	ab27      	add	r3, sp, #156	; 0x9c
 230:	462a      	mov	r2, r5
 232:	f7ff fffe 	bl	0 <core::fmt::Arguments::new_v1>
 236:	e7ff      	b.n	2 <app::touch_sensor::start_touch_sensor+0x2>
 238:	f240 0000 	movw	r0, #0
 23c:	f2c0 0000 	movt	r0, #0
 240:	903b      	str	r0, [sp, #236]	; 0xec
 242:	993b      	ldr	r1, [sp, #236]	; 0xec
 244:	9102      	str	r1, [sp, #8]
 246:	e7ff      	b.n	248 <app::touch_sensor::start_touch_sensor+0x248>
 248:	a821      	add	r0, sp, #132	; 0x84
 24a:	9902      	ldr	r1, [sp, #8]
 24c:	f7ff fffe 	bl	0 <core::panicking::panic_fmt>
 250:	defe      	udf	#254	; 0xfe
 252:	2000      	movs	r0, #0
c:\PineTime\pinetime-rust-mynewt/rust\app\src/touch_sensor.rs:68
    Ok(())
 254:	900f      	str	r0, [sp, #60]	; 0x3c
 256:	2001      	movs	r0, #1
 258:	900f      	str	r0, [sp, #60]	; 0x3c
c:\PineTime\pinetime-rust-mynewt/rust\app\src/touch_sensor.rs:69
}
 25a:	e6f9      	b.n	50 <app::touch_sensor::start_touch_sensor+0x50>

Disassembly of section .text._ZN3app12touch_sensor23touch_interrupt_handler17h7b65dd42df46a5ecE:

00000000 <app::touch_sensor::touch_interrupt_handler>:
_ZN3app12touch_sensor23touch_interrupt_handler17h7b65dd42df46a5ecE():
c:\PineTime\pinetime-rust-mynewt/rust\app\src/touch_sensor.rs:72

/// Interrupt handler for the touch controller, triggered when a touch is detected
extern "C" fn touch_interrupt_handler(arg: *mut core::ffi::c_void) {
   0:	b580      	push	{r7, lr}
   2:	b086      	sub	sp, #24
   4:	9001      	str	r0, [sp, #4]
c:\PineTime\pinetime-rust-mynewt/rust\app\src/touch_sensor.rs:74
    //  We forward a touch event to the Default Event Queue for deferred processing.  Don't do any processing here.
    unsafe { TOUCH_EVENT.ev_arg = arg };
   6:	9801      	ldr	r0, [sp, #4]
   8:	f240 0100 	movw	r1, #0
   c:	f2c0 0100 	movt	r1, #0
  10:	9102      	str	r1, [sp, #8]
  12:	9902      	ldr	r1, [sp, #8]
  14:	6088      	str	r0, [r1, #8]
  16:	a804      	add	r0, sp, #16
c:\PineTime\pinetime-rust-mynewt/rust\app\src/touch_sensor.rs:76
    //  Fetch the Default Event Queue. TODO: Use dedicated Event Queue for higher priority processing.
    let queue = os::eventq_dflt_get()
  18:	f7ff fffe 	bl	0 <mynewt::kernel::os::eventq_dflt_get>
  1c:	e7ff      	b.n	2 <app::touch_sensor::touch_interrupt_handler+0x2>
  1e:	f240 0100 	movw	r1, #0
  22:	f2c0 0100 	movt	r1, #0
  26:	a804      	add	r0, sp, #16
  28:	2208      	movs	r2, #8
  2a:	f7ff fffe 	bl	0 <core::result::Result<T,E>::expect>
  2e:	9003      	str	r0, [sp, #12]
  30:	e7ff      	b.n	32 <app::touch_sensor::touch_interrupt_handler+0x32>
c:\PineTime\pinetime-rust-mynewt/rust\app\src/touch_sensor.rs:78
        .expect("GET fail");
	unsafe { os::os_eventq_put(queue, &mut TOUCH_EVENT) };  //  Trigger the callback function `touch_event_callback()`
  32:	9803      	ldr	r0, [sp, #12]
  34:	f240 0100 	movw	r1, #0
  38:	f2c0 0100 	movt	r1, #0
  3c:	f7ff fffe 	bl	0 <os_eventq_put>
  40:	e7ff      	b.n	42 <app::touch_sensor::touch_interrupt_handler+0x42>
c:\PineTime\pinetime-rust-mynewt/rust\app\src/touch_sensor.rs:79
}
  42:	b006      	add	sp, #24
  44:	bd80      	pop	{r7, pc}

Disassembly of section .text._ZN3app12touch_sensor20touch_event_callback17h4242eeec36805d60E:

00000000 <app::touch_sensor::touch_event_callback>:
_ZN3app12touch_sensor20touch_event_callback17h4242eeec36805d60E():
c:\PineTime\pinetime-rust-mynewt/rust\app\src/touch_sensor.rs:82

/// Callback for the touch event that is triggered when a touch is detected
extern "C" fn touch_event_callback(_event: *mut os_event) {
   0:	b580      	push	{r7, lr}
   2:	b086      	sub	sp, #24
   4:	9001      	str	r0, [sp, #4]
c:\PineTime\pinetime-rust-mynewt/rust\app\src/touch_sensor.rs:86
    //  console::printhex(unsafe { os::os_time_get() } as u8); console::print(" touch\n");
    unsafe { 
        //  Fetch the touch data from the touch controller
        read_touchdata(&mut TOUCH_DATA)
   6:	f240 0000 	movw	r0, #0
   a:	f2c0 0000 	movt	r0, #0
   e:	f7ff fffe 	bl	0 <app::touch_sensor::touch_event_callback>
  12:	9000      	str	r0, [sp, #0]
  14:	e7ff      	b.n	16 <app::touch_sensor::touch_event_callback+0x16>
  16:	f240 0100 	movw	r1, #0
  1a:	f2c0 0100 	movt	r1, #0
  1e:	220e      	movs	r2, #14
  20:	9800      	ldr	r0, [sp, #0]
  22:	f7ff fffe 	bl	0 <core::result::Result<T,E>::expect>
  26:	e7ff      	b.n	2 <app::touch_sensor::touch_event_callback+0x2>
c:\PineTime\pinetime-rust-mynewt/rust\app\src/touch_sensor.rs:88
            .expect("touchdata fail");
        let x = TOUCH_DATA.touches[0].x;
  28:	f240 0000 	movw	r0, #0
  2c:	f2c0 0000 	movt	r0, #0
  30:	9003      	str	r0, [sp, #12]
  32:	9903      	ldr	r1, [sp, #12]
  34:	8809      	ldrh	r1, [r1, #0]
  36:	f8ad 100a 	strh.w	r1, [sp, #10]
c:\PineTime\pinetime-rust-mynewt/rust\app\src/touch_sensor.rs:89
        let y = TOUCH_DATA.touches[0].y;
  3a:	9005      	str	r0, [sp, #20]
  3c:	9805      	ldr	r0, [sp, #20]
  3e:	8840      	ldrh	r0, [r0, #2]
  40:	f8ad 0012 	strh.w	r0, [sp, #18]
c:\PineTime\pinetime-rust-mynewt/rust\app\src/touch_sensor.rs:92

        //  Handle the touch data in the UI        
        druid::handle_touch(x, y);
  44:	f8bd 1012 	ldrh.w	r1, [sp, #18]
  48:	f8bd 000a 	ldrh.w	r0, [sp, #10]
  4c:	f7ff fffe 	bl	0 <druid::win_handler::handle_touch>
  50:	e7ff      	b.n	52 <app::touch_sensor::touch_event_callback+0x52>
c:\PineTime\pinetime-rust-mynewt/rust\app\src/touch_sensor.rs:101
    }
    //  Disable the console output because it slows down the rendering
    //  console::printint(unsafe { TOUCH_DATA.touches[0].x } as i32); console::print(", ");
    //  console::printint(unsafe { TOUCH_DATA.touches[0].y } as i32); console::print("\n");
    //  console::flush();   
}
  52:	b006      	add	sp, #24
  54:	bd80      	pop	{r7, pc}

Disassembly of section .text._ZN3app12touch_sensor14read_touchdata17h4bb2ca3513851cbcE:

00000000 <app::touch_sensor::read_touchdata>:
_ZN3app12touch_sensor14read_touchdata17h4bb2ca3513851cbcE():
c:\PineTime\pinetime-rust-mynewt/rust\app\src/touch_sensor.rs:108
/// Touch data will be populated here
static mut TOUCH_DATA: TouchEventInfo = fill_zero!(TouchEventInfo);

/// Read touch controller data. This only works when the screen has been tapped and the touch controller wakes up.
/// Ported from https://github.com/lupyuen/hynitron_i2c_cst0xxse/blob/master/cst0xx_core.c#L407-L466
fn read_touchdata(data: &mut TouchEventInfo) -> MynewtResult<()> {
   0:	b580      	push	{r7, lr}
   2:	b0f0      	sub	sp, #448	; 0x1c0
   4:	902d      	str	r0, [sp, #180]	; 0xb4
c:\PineTime\pinetime-rust-mynewt/rust\app\src/touch_sensor.rs:109
    read_register_range(           //  Read the range of I2C registers...
   6:	4668      	mov	r0, sp
   8:	213f      	movs	r1, #63	; 0x3f
   a:	6001      	str	r1, [r0, #0]
   c:	f240 0300 	movw	r3, #0
  10:	f2c0 0300 	movt	r3, #0
  14:	2015      	movs	r0, #21
  16:	2200      	movs	r2, #0
  18:	912c      	str	r1, [sp, #176]	; 0xb0
  1a:	4611      	mov	r1, r2
  1c:	9a2c      	ldr	r2, [sp, #176]	; 0xb0
  1e:	f7ff fffe 	bl	0 <app::touch_sensor::read_touchdata>
  22:	902b      	str	r0, [sp, #172]	; 0xac
  24:	e7ff      	b.n	26 <app::touch_sensor::read_touchdata+0x26>
  26:	f240 0100 	movw	r1, #0
  2a:	f2c0 0100 	movt	r1, #0
  2e:	2213      	movs	r2, #19
  30:	982b      	ldr	r0, [sp, #172]	; 0xac
  32:	f7ff fffe 	bl	0 <core::result::Result<T,E>::expect>
  36:	e7ff      	b.n	38 <app::touch_sensor::read_touchdata+0x38>
  38:	f50d 7085 	add.w	r0, sp, #266	; 0x10a
  3c:	2152      	movs	r1, #82	; 0x52
c:\PineTime\pinetime-rust-mynewt/rust\app\src/touch_sensor.rs:115
        TOUCH_CONTROLLER_ADDRESS,  //  From the touch controller
        0,                         //  Starting from register 0
        POINT_READ_BUF as u8,      //  Number of registers to read
        unsafe { &mut buf }        //  Save the read data into `buf`
    ).expect("read touchdata fail");
    *data = fill_zero!(TouchEventInfo);
  3e:	902a      	str	r0, [sp, #168]	; 0xa8
  40:	9129      	str	r1, [sp, #164]	; 0xa4
  42:	f7ff fffe 	bl	0 <__aeabi_memclr>
  46:	a82e      	add	r0, sp, #184	; 0xb8
  48:	992a      	ldr	r1, [sp, #168]	; 0xa8
  4a:	9a29      	ldr	r2, [sp, #164]	; 0xa4
  4c:	f7ff fffe 	bl	0 <__aeabi_memcpy>
  50:	e7ff      	b.n	52 <app::touch_sensor::read_touchdata+0x52>
  52:	982d      	ldr	r0, [sp, #180]	; 0xb4
  54:	a92e      	add	r1, sp, #184	; 0xb8
  56:	2252      	movs	r2, #82	; 0x52
  58:	f7ff fffe 	bl	0 <__aeabi_memcpy>
c:\PineTime\pinetime-rust-mynewt/rust\app\src/touch_sensor.rs:116
    data.point_num = unsafe { buf[FT_TOUCH_POINT_NUM] & 0x0F };
  5c:	f240 0100 	movw	r1, #0
  60:	f2c0 0100 	movt	r1, #0
  64:	9157      	str	r1, [sp, #348]	; 0x15c
  66:	9957      	ldr	r1, [sp, #348]	; 0x15c
  68:	7889      	ldrb	r1, [r1, #2]
  6a:	f001 010f 	and.w	r1, r1, #15
  6e:	9a2d      	ldr	r2, [sp, #180]	; 0xb4
  70:	f882 1051 	strb.w	r1, [r2, #81]	; 0x51
c:\PineTime\pinetime-rust-mynewt/rust\app\src/touch_sensor.rs:117
    data.count     = 0;
  74:	992d      	ldr	r1, [sp, #180]	; 0xb4
  76:	2200      	movs	r2, #0
  78:	f881 2050 	strb.w	r2, [r1, #80]	; 0x50
c:\PineTime\pinetime-rust-mynewt/rust\app\src/touch_sensor.rs:120

    //  Populate the first 5 touch points
    for i in 0..CFG_MAX_TOUCH_POINTS {
  7c:	9258      	str	r2, [sp, #352]	; 0x160
  7e:	2105      	movs	r1, #5
  80:	9159      	str	r1, [sp, #356]	; 0x164
  82:	9958      	ldr	r1, [sp, #352]	; 0x160
  84:	9a59      	ldr	r2, [sp, #356]	; 0x164
  86:	9028      	str	r0, [sp, #160]	; 0xa0
  88:	4608      	mov	r0, r1
  8a:	4611      	mov	r1, r2
  8c:	f7ff fffe 	bl	0 <<I as core::iter::traits::collect::IntoIterator>::into_iter>
  90:	9027      	str	r0, [sp, #156]	; 0x9c
  92:	9126      	str	r1, [sp, #152]	; 0x98
  94:	e7ff      	b.n	96 <app::touch_sensor::read_touchdata+0x96>
  96:	9827      	ldr	r0, [sp, #156]	; 0x9c
  98:	905a      	str	r0, [sp, #360]	; 0x168
  9a:	9926      	ldr	r1, [sp, #152]	; 0x98
  9c:	915b      	str	r1, [sp, #364]	; 0x16c
  9e:	e7ff      	b.n	a0 <app::touch_sensor::read_touchdata+0xa0>
  a0:	a85a      	add	r0, sp, #360	; 0x168
  a2:	f7ff fffe 	bl	0 <core::iter::range::<impl core::iter::traits::iterator::Iterator for core::ops::range::Range<A>>::next>
  a6:	915e      	str	r1, [sp, #376]	; 0x178
  a8:	905d      	str	r0, [sp, #372]	; 0x174
  aa:	e7ff      	b.n	ac <app::touch_sensor::read_touchdata+0xac>
  ac:	985d      	ldr	r0, [sp, #372]	; 0x174
  ae:	2800      	cmp	r0, #0
  b0:	d001      	beq.n	b6 <app::touch_sensor::read_touchdata+0xb6>
  b2:	e7ff      	b.n	b4 <app::touch_sensor::read_touchdata+0xb4>
  b4:	e001      	b.n	ba <app::touch_sensor::read_touchdata+0xba>
  b6:	e014      	b.n	e2 <app::touch_sensor::read_touchdata+0xe2>
  b8:	defe      	udf	#254	; 0xfe
  ba:	985e      	ldr	r0, [sp, #376]	; 0x178
  bc:	905f      	str	r0, [sp, #380]	; 0x17c
  be:	985f      	ldr	r0, [sp, #380]	; 0x17c
  c0:	905c      	str	r0, [sp, #368]	; 0x170
  c2:	985c      	ldr	r0, [sp, #368]	; 0x170
  c4:	9060      	str	r0, [sp, #384]	; 0x180
c:\PineTime\pinetime-rust-mynewt/rust\app\src/touch_sensor.rs:121
        let pointid = unsafe { buf[HYN_TOUCH_ID_POS + HYN_TOUCH_STEP * i] } >> 4;
  c6:	f240 0000 	movw	r0, #0
  ca:	f2c0 0000 	movt	r0, #0
  ce:	9062      	str	r0, [sp, #392]	; 0x188
  d0:	9860      	ldr	r0, [sp, #384]	; 0x180
  d2:	2106      	movs	r1, #6
  d4:	fba1 0100 	umull	r0, r1, r1, r0
  d8:	2900      	cmp	r1, #0
  da:	9025      	str	r0, [sp, #148]	; 0x94
  dc:	f040 81d6 	bne.w	48c <app::touch_sensor::read_touchdata+0x48c>
  e0:	e002      	b.n	e8 <app::touch_sensor::read_touchdata+0xe8>
  e2:	2001      	movs	r0, #1
c:\PineTime\pinetime-rust-mynewt/rust\app\src/touch_sensor.rs:153
            && (data.point_num == 0) {
            break;
        }
    }
    Ok(())
}
  e4:	b070      	add	sp, #448	; 0x1c0
  e6:	bd80      	pop	{r7, pc}
c:\PineTime\pinetime-rust-mynewt/rust\app\src/touch_sensor.rs:121
        let pointid = unsafe { buf[HYN_TOUCH_ID_POS + HYN_TOUCH_STEP * i] } >> 4;
  e8:	9825      	ldr	r0, [sp, #148]	; 0x94
  ea:	1d41      	adds	r1, r0, #5
  ec:	460a      	mov	r2, r1
  ee:	4281      	cmp	r1, r0
  f0:	9224      	str	r2, [sp, #144]	; 0x90
  f2:	f0c0 81d7 	bcc.w	4a4 <app::touch_sensor::read_touchdata+0x4a4>
  f6:	e7ff      	b.n	f8 <app::touch_sensor::read_touchdata+0xf8>
  f8:	9824      	ldr	r0, [sp, #144]	; 0x90
  fa:	283e      	cmp	r0, #62	; 0x3e
  fc:	f200 81de 	bhi.w	4bc <app::touch_sensor::read_touchdata+0x4bc>
 100:	e7ff      	b.n	102 <app::touch_sensor::read_touchdata+0x102>
 102:	9862      	ldr	r0, [sp, #392]	; 0x188
 104:	9924      	ldr	r1, [sp, #144]	; 0x90
 106:	5c40      	ldrb	r0, [r0, r1]
 108:	0900      	lsrs	r0, r0, #4
 10a:	9023      	str	r0, [sp, #140]	; 0x8c
 10c:	e7ff      	b.n	10e <app::touch_sensor::read_touchdata+0x10e>
 10e:	9823      	ldr	r0, [sp, #140]	; 0x8c
 110:	f88d 0187 	strb.w	r0, [sp, #391]	; 0x187
c:\PineTime\pinetime-rust-mynewt/rust\app\src/touch_sensor.rs:122
        if pointid >= HYN_MAX_ID { break; }
 114:	f89d 1187 	ldrb.w	r1, [sp, #391]	; 0x187
 118:	290e      	cmp	r1, #14
 11a:	d80b      	bhi.n	134 <app::touch_sensor::read_touchdata+0x134>
 11c:	e7ff      	b.n	11e <app::touch_sensor::read_touchdata+0x11e>
c:\PineTime\pinetime-rust-mynewt/rust\app\src/touch_sensor.rs:125
        data.count += 1;
 11e:	982d      	ldr	r0, [sp, #180]	; 0xb4
 120:	f890 0050 	ldrb.w	r0, [r0, #80]	; 0x50
 124:	3001      	adds	r0, #1
 126:	b2c1      	uxtb	r1, r0
 128:	4602      	mov	r2, r0
 12a:	4281      	cmp	r1, r0
 12c:	9222      	str	r2, [sp, #136]	; 0x88
 12e:	f040 81ce 	bne.w	4ce <app::touch_sensor::read_touchdata+0x4ce>
 132:	e001      	b.n	138 <app::touch_sensor::read_touchdata+0x138>
c:\PineTime\pinetime-rust-mynewt/rust\app\src/touch_sensor.rs:122
        if pointid >= HYN_MAX_ID { break; }
 134:	e7ff      	b.n	136 <app::touch_sensor::read_touchdata+0x136>
 136:	e7d4      	b.n	e2 <app::touch_sensor::read_touchdata+0xe2>
c:\PineTime\pinetime-rust-mynewt/rust\app\src/touch_sensor.rs:125
        data.count += 1;
 138:	982d      	ldr	r0, [sp, #180]	; 0xb4
 13a:	9922      	ldr	r1, [sp, #136]	; 0x88
 13c:	f880 1050 	strb.w	r1, [r0, #80]	; 0x50
c:\PineTime\pinetime-rust-mynewt/rust\app\src/touch_sensor.rs:126
        let x_high = unsafe { buf[HYN_TOUCH_X_H_POS + HYN_TOUCH_STEP * i] & 0x0F } as u16;
 140:	f240 0000 	movw	r0, #0
 144:	f2c0 0000 	movt	r0, #0
 148:	9064      	str	r0, [sp, #400]	; 0x190
 14a:	9860      	ldr	r0, [sp, #384]	; 0x180
 14c:	2206      	movs	r2, #6
 14e:	fba2 0200 	umull	r0, r2, r2, r0
 152:	2a00      	cmp	r2, #0
 154:	9021      	str	r0, [sp, #132]	; 0x84
 156:	f040 81c6 	bne.w	4e6 <app::touch_sensor::read_touchdata+0x4e6>
 15a:	e7ff      	b.n	15c <app::touch_sensor::read_touchdata+0x15c>
 15c:	9821      	ldr	r0, [sp, #132]	; 0x84
 15e:	1cc1      	adds	r1, r0, #3
 160:	460a      	mov	r2, r1
 162:	4281      	cmp	r1, r0
 164:	9220      	str	r2, [sp, #128]	; 0x80
 166:	f0c0 81ca 	bcc.w	4fe <app::touch_sensor::read_touchdata+0x4fe>
 16a:	e7ff      	b.n	16c <app::touch_sensor::read_touchdata+0x16c>
 16c:	9820      	ldr	r0, [sp, #128]	; 0x80
 16e:	283e      	cmp	r0, #62	; 0x3e
 170:	f200 81d1 	bhi.w	516 <app::touch_sensor::read_touchdata+0x516>
 174:	e7ff      	b.n	176 <app::touch_sensor::read_touchdata+0x176>
 176:	9864      	ldr	r0, [sp, #400]	; 0x190
 178:	9920      	ldr	r1, [sp, #128]	; 0x80
 17a:	5c40      	ldrb	r0, [r0, r1]
 17c:	f000 000f 	and.w	r0, r0, #15
 180:	f8ad 018e 	strh.w	r0, [sp, #398]	; 0x18e
c:\PineTime\pinetime-rust-mynewt/rust\app\src/touch_sensor.rs:127
        let x_low  = unsafe { buf[HYN_TOUCH_X_L_POS + HYN_TOUCH_STEP * i] } as u16;
 184:	f240 0000 	movw	r0, #0
 188:	f2c0 0000 	movt	r0, #0
 18c:	9066      	str	r0, [sp, #408]	; 0x198
 18e:	9860      	ldr	r0, [sp, #384]	; 0x180
 190:	2206      	movs	r2, #6
 192:	fba2 0200 	umull	r0, r2, r2, r0
 196:	2a00      	cmp	r2, #0
 198:	901f      	str	r0, [sp, #124]	; 0x7c
 19a:	f040 81c5 	bne.w	528 <app::touch_sensor::read_touchdata+0x528>
 19e:	e7ff      	b.n	1a0 <app::touch_sensor::read_touchdata+0x1a0>
 1a0:	981f      	ldr	r0, [sp, #124]	; 0x7c
 1a2:	1d01      	adds	r1, r0, #4
 1a4:	460a      	mov	r2, r1
 1a6:	4281      	cmp	r1, r0
 1a8:	921e      	str	r2, [sp, #120]	; 0x78
 1aa:	f0c0 81c9 	bcc.w	540 <app::touch_sensor::read_touchdata+0x540>
 1ae:	e7ff      	b.n	1b0 <app::touch_sensor::read_touchdata+0x1b0>
 1b0:	981e      	ldr	r0, [sp, #120]	; 0x78
 1b2:	283e      	cmp	r0, #62	; 0x3e
 1b4:	f200 81d0 	bhi.w	558 <app::touch_sensor::read_touchdata+0x558>
 1b8:	e7ff      	b.n	1ba <app::touch_sensor::read_touchdata+0x1ba>
 1ba:	9866      	ldr	r0, [sp, #408]	; 0x198
 1bc:	991e      	ldr	r1, [sp, #120]	; 0x78
 1be:	5c40      	ldrb	r0, [r0, r1]
 1c0:	f8ad 0196 	strh.w	r0, [sp, #406]	; 0x196
c:\PineTime\pinetime-rust-mynewt/rust\app\src/touch_sensor.rs:128
        data.touches[i].x  = (x_high << 8) | x_low;
 1c4:	f8bd 018e 	ldrh.w	r0, [sp, #398]	; 0x18e
 1c8:	0200      	lsls	r0, r0, #8
 1ca:	901d      	str	r0, [sp, #116]	; 0x74
 1cc:	e7ff      	b.n	1ce <app::touch_sensor::read_touchdata+0x1ce>
 1ce:	f8bd 0196 	ldrh.w	r0, [sp, #406]	; 0x196
 1d2:	9960      	ldr	r1, [sp, #384]	; 0x180
 1d4:	2909      	cmp	r1, #9
 1d6:	901c      	str	r0, [sp, #112]	; 0x70
 1d8:	911b      	str	r1, [sp, #108]	; 0x6c
 1da:	f200 81c6 	bhi.w	56a <app::touch_sensor::read_touchdata+0x56a>
 1de:	e7ff      	b.n	1e0 <app::touch_sensor::read_touchdata+0x1e0>
 1e0:	982d      	ldr	r0, [sp, #180]	; 0xb4
 1e2:	991d      	ldr	r1, [sp, #116]	; 0x74
 1e4:	9a1c      	ldr	r2, [sp, #112]	; 0x70
 1e6:	ea41 0302 	orr.w	r3, r1, r2
 1ea:	f8dd c06c 	ldr.w	ip, [sp, #108]	; 0x6c
 1ee:	f820 303c 	strh.w	r3, [r0, ip, lsl #3]
c:\PineTime\pinetime-rust-mynewt/rust\app\src/touch_sensor.rs:130
        let y_high = unsafe { buf[HYN_TOUCH_Y_H_POS + HYN_TOUCH_STEP * i] & 0x0F } as u16;
 1f2:	f240 0000 	movw	r0, #0
 1f6:	f2c0 0000 	movt	r0, #0
 1fa:	9068      	str	r0, [sp, #416]	; 0x1a0
 1fc:	9860      	ldr	r0, [sp, #384]	; 0x180
 1fe:	2306      	movs	r3, #6
 200:	fba3 0300 	umull	r0, r3, r3, r0
 204:	2b00      	cmp	r3, #0
 206:	901a      	str	r0, [sp, #104]	; 0x68
 208:	f040 81b8 	bne.w	57c <app::touch_sensor::read_touchdata+0x57c>
 20c:	e7ff      	b.n	20e <app::touch_sensor::read_touchdata+0x20e>
 20e:	981a      	ldr	r0, [sp, #104]	; 0x68
 210:	1d41      	adds	r1, r0, #5
 212:	460a      	mov	r2, r1
 214:	4281      	cmp	r1, r0
 216:	9219      	str	r2, [sp, #100]	; 0x64
 218:	f0c0 81bc 	bcc.w	594 <app::touch_sensor::read_touchdata+0x594>
 21c:	e7ff      	b.n	21e <app::touch_sensor::read_touchdata+0x21e>
 21e:	9819      	ldr	r0, [sp, #100]	; 0x64
 220:	283e      	cmp	r0, #62	; 0x3e
 222:	f200 81c3 	bhi.w	5ac <app::touch_sensor::read_touchdata+0x5ac>
 226:	e7ff      	b.n	228 <app::touch_sensor::read_touchdata+0x228>
 228:	9868      	ldr	r0, [sp, #416]	; 0x1a0
 22a:	9919      	ldr	r1, [sp, #100]	; 0x64
 22c:	5c40      	ldrb	r0, [r0, r1]
 22e:	f000 000f 	and.w	r0, r0, #15
 232:	f8ad 019e 	strh.w	r0, [sp, #414]	; 0x19e
c:\PineTime\pinetime-rust-mynewt/rust\app\src/touch_sensor.rs:131
        let y_low  = unsafe { buf[HYN_TOUCH_Y_L_POS + HYN_TOUCH_STEP * i] } as u16;
 236:	f240 0000 	movw	r0, #0
 23a:	f2c0 0000 	movt	r0, #0
 23e:	906a      	str	r0, [sp, #424]	; 0x1a8
 240:	9860      	ldr	r0, [sp, #384]	; 0x180
 242:	2206      	movs	r2, #6
 244:	fba2 0200 	umull	r0, r2, r2, r0
 248:	2a00      	cmp	r2, #0
 24a:	9018      	str	r0, [sp, #96]	; 0x60
 24c:	f040 81b7 	bne.w	5be <app::touch_sensor::read_touchdata+0x5be>
 250:	e7ff      	b.n	252 <app::touch_sensor::read_touchdata+0x252>
 252:	9818      	ldr	r0, [sp, #96]	; 0x60
 254:	1d81      	adds	r1, r0, #6
 256:	460a      	mov	r2, r1
 258:	4281      	cmp	r1, r0
 25a:	9217      	str	r2, [sp, #92]	; 0x5c
 25c:	f0c0 81bb 	bcc.w	5d6 <app::touch_sensor::read_touchdata+0x5d6>
 260:	e7ff      	b.n	262 <app::touch_sensor::read_touchdata+0x262>
 262:	9817      	ldr	r0, [sp, #92]	; 0x5c
 264:	283e      	cmp	r0, #62	; 0x3e
 266:	f200 81c2 	bhi.w	5ee <app::touch_sensor::read_touchdata+0x5ee>
 26a:	e7ff      	b.n	26c <app::touch_sensor::read_touchdata+0x26c>
 26c:	986a      	ldr	r0, [sp, #424]	; 0x1a8
 26e:	9917      	ldr	r1, [sp, #92]	; 0x5c
 270:	5c40      	ldrb	r0, [r0, r1]
 272:	f8ad 01a6 	strh.w	r0, [sp, #422]	; 0x1a6
c:\PineTime\pinetime-rust-mynewt/rust\app\src/touch_sensor.rs:132
        data.touches[i].y  = (y_high << 8) | y_low;
 276:	f8bd 019e 	ldrh.w	r0, [sp, #414]	; 0x19e
 27a:	0200      	lsls	r0, r0, #8
 27c:	9016      	str	r0, [sp, #88]	; 0x58
 27e:	e7ff      	b.n	280 <app::touch_sensor::read_touchdata+0x280>
 280:	f8bd 01a6 	ldrh.w	r0, [sp, #422]	; 0x1a6
 284:	9960      	ldr	r1, [sp, #384]	; 0x180
 286:	2909      	cmp	r1, #9
 288:	9015      	str	r0, [sp, #84]	; 0x54
 28a:	9114      	str	r1, [sp, #80]	; 0x50
 28c:	f200 81b8 	bhi.w	600 <app::touch_sensor::read_touchdata+0x600>
 290:	e7ff      	b.n	292 <app::touch_sensor::read_touchdata+0x292>
 292:	982d      	ldr	r0, [sp, #180]	; 0xb4
 294:	9914      	ldr	r1, [sp, #80]	; 0x50
 296:	eb00 00c1 	add.w	r0, r0, r1, lsl #3
 29a:	9a16      	ldr	r2, [sp, #88]	; 0x58
 29c:	9b15      	ldr	r3, [sp, #84]	; 0x54
 29e:	ea42 0c03 	orr.w	ip, r2, r3
 2a2:	f8a0 c002 	strh.w	ip, [r0, #2]
c:\PineTime\pinetime-rust-mynewt/rust\app\src/touch_sensor.rs:136
            unsafe { buf[HYN_TOUCH_EVENT_POS + HYN_TOUCH_STEP * i] } >> 6;
 2a6:	f240 0000 	movw	r0, #0
 2aa:	f2c0 0000 	movt	r0, #0
 2ae:	906b      	str	r0, [sp, #428]	; 0x1ac
 2b0:	9860      	ldr	r0, [sp, #384]	; 0x180
 2b2:	f04f 0c06 	mov.w	ip, #6
 2b6:	fbac 0c00 	umull	r0, ip, ip, r0
 2ba:	f1bc 0f00 	cmp.w	ip, #0
 2be:	9013      	str	r0, [sp, #76]	; 0x4c
 2c0:	f040 81a7 	bne.w	612 <app::touch_sensor::read_touchdata+0x612>
 2c4:	e7ff      	b.n	2c6 <app::touch_sensor::read_touchdata+0x2c6>
 2c6:	9813      	ldr	r0, [sp, #76]	; 0x4c
 2c8:	1cc1      	adds	r1, r0, #3
 2ca:	460a      	mov	r2, r1
 2cc:	4281      	cmp	r1, r0
 2ce:	9212      	str	r2, [sp, #72]	; 0x48
 2d0:	f0c0 81ab 	bcc.w	62a <app::touch_sensor::read_touchdata+0x62a>
 2d4:	e7ff      	b.n	2d6 <app::touch_sensor::read_touchdata+0x2d6>
 2d6:	9812      	ldr	r0, [sp, #72]	; 0x48
 2d8:	283e      	cmp	r0, #62	; 0x3e
 2da:	f200 81b2 	bhi.w	642 <app::touch_sensor::read_touchdata+0x642>
 2de:	e7ff      	b.n	2e0 <app::touch_sensor::read_touchdata+0x2e0>
 2e0:	986b      	ldr	r0, [sp, #428]	; 0x1ac
 2e2:	9912      	ldr	r1, [sp, #72]	; 0x48
 2e4:	5c40      	ldrb	r0, [r0, r1]
 2e6:	0980      	lsrs	r0, r0, #6
 2e8:	9011      	str	r0, [sp, #68]	; 0x44
 2ea:	e7ff      	b.n	2ec <app::touch_sensor::read_touchdata+0x2ec>
c:\PineTime\pinetime-rust-mynewt/rust\app\src/touch_sensor.rs:135
        data.touches[i].action =
 2ec:	9860      	ldr	r0, [sp, #384]	; 0x180
 2ee:	2809      	cmp	r0, #9
 2f0:	9010      	str	r0, [sp, #64]	; 0x40
 2f2:	f200 81af 	bhi.w	654 <app::touch_sensor::read_touchdata+0x654>
 2f6:	e7ff      	b.n	2f8 <app::touch_sensor::read_touchdata+0x2f8>
 2f8:	982d      	ldr	r0, [sp, #180]	; 0xb4
 2fa:	9910      	ldr	r1, [sp, #64]	; 0x40
 2fc:	eb00 00c1 	add.w	r0, r0, r1, lsl #3
 300:	9a11      	ldr	r2, [sp, #68]	; 0x44
 302:	7102      	strb	r2, [r0, #4]
c:\PineTime\pinetime-rust-mynewt/rust\app\src/touch_sensor.rs:138
            unsafe { buf[HYN_TOUCH_ID_POS    + HYN_TOUCH_STEP * i] } >> 4;
 304:	f240 0000 	movw	r0, #0
 308:	f2c0 0000 	movt	r0, #0
 30c:	906c      	str	r0, [sp, #432]	; 0x1b0
 30e:	9860      	ldr	r0, [sp, #384]	; 0x180
 310:	2306      	movs	r3, #6
 312:	fba3 0300 	umull	r0, r3, r3, r0
 316:	2b00      	cmp	r3, #0
 318:	900f      	str	r0, [sp, #60]	; 0x3c
 31a:	f040 81a4 	bne.w	666 <app::touch_sensor::read_touchdata+0x666>
 31e:	e7ff      	b.n	320 <app::touch_sensor::read_touchdata+0x320>
 320:	980f      	ldr	r0, [sp, #60]	; 0x3c
 322:	1d41      	adds	r1, r0, #5
 324:	460a      	mov	r2, r1
 326:	4281      	cmp	r1, r0
 328:	920e      	str	r2, [sp, #56]	; 0x38
 32a:	f0c0 81a8 	bcc.w	67e <app::touch_sensor::read_touchdata+0x67e>
 32e:	e7ff      	b.n	330 <app::touch_sensor::read_touchdata+0x330>
 330:	980e      	ldr	r0, [sp, #56]	; 0x38
 332:	283e      	cmp	r0, #62	; 0x3e
 334:	f200 81af 	bhi.w	696 <app::touch_sensor::read_touchdata+0x696>
 338:	e7ff      	b.n	33a <app::touch_sensor::read_touchdata+0x33a>
 33a:	986c      	ldr	r0, [sp, #432]	; 0x1b0
 33c:	990e      	ldr	r1, [sp, #56]	; 0x38
 33e:	5c40      	ldrb	r0, [r0, r1]
 340:	0900      	lsrs	r0, r0, #4
 342:	900d      	str	r0, [sp, #52]	; 0x34
 344:	e7ff      	b.n	346 <app::touch_sensor::read_touchdata+0x346>
c:\PineTime\pinetime-rust-mynewt/rust\app\src/touch_sensor.rs:137
        data.touches[i].finger =
 346:	9860      	ldr	r0, [sp, #384]	; 0x180
 348:	2809      	cmp	r0, #9
 34a:	900c      	str	r0, [sp, #48]	; 0x30
 34c:	f200 81ac 	bhi.w	6a8 <app::touch_sensor::read_touchdata+0x6a8>
 350:	e7ff      	b.n	352 <app::touch_sensor::read_touchdata+0x352>
 352:	982d      	ldr	r0, [sp, #180]	; 0xb4
 354:	990c      	ldr	r1, [sp, #48]	; 0x30
 356:	eb00 00c1 	add.w	r0, r0, r1, lsl #3
 35a:	9a0d      	ldr	r2, [sp, #52]	; 0x34
 35c:	7142      	strb	r2, [r0, #5]
c:\PineTime\pinetime-rust-mynewt/rust\app\src/touch_sensor.rs:142
            unsafe { buf[HYN_TOUCH_XY_POS + HYN_TOUCH_STEP * i] };  //  Can't be constant value
 35e:	f240 0000 	movw	r0, #0
 362:	f2c0 0000 	movt	r0, #0
 366:	906d      	str	r0, [sp, #436]	; 0x1b4
 368:	9860      	ldr	r0, [sp, #384]	; 0x180
 36a:	2306      	movs	r3, #6
 36c:	fba3 0300 	umull	r0, r3, r3, r0
 370:	2b00      	cmp	r3, #0
 372:	900b      	str	r0, [sp, #44]	; 0x2c
 374:	f040 81a1 	bne.w	6ba <app::touch_sensor::read_touchdata+0x6ba>
 378:	e7ff      	b.n	37a <app::touch_sensor::read_touchdata+0x37a>
 37a:	980b      	ldr	r0, [sp, #44]	; 0x2c
 37c:	1dc1      	adds	r1, r0, #7
 37e:	460a      	mov	r2, r1
 380:	4281      	cmp	r1, r0
 382:	920a      	str	r2, [sp, #40]	; 0x28
 384:	f0c0 81a5 	bcc.w	6d2 <app::touch_sensor::read_touchdata+0x6d2>
 388:	e7ff      	b.n	38a <app::touch_sensor::read_touchdata+0x38a>
 38a:	980a      	ldr	r0, [sp, #40]	; 0x28
 38c:	283e      	cmp	r0, #62	; 0x3e
 38e:	f200 81ac 	bhi.w	6ea <app::touch_sensor::read_touchdata+0x6ea>
 392:	e7ff      	b.n	394 <app::touch_sensor::read_touchdata+0x394>
 394:	986d      	ldr	r0, [sp, #436]	; 0x1b4
 396:	990a      	ldr	r1, [sp, #40]	; 0x28
 398:	5c40      	ldrb	r0, [r0, r1]
c:\PineTime\pinetime-rust-mynewt/rust\app\src/touch_sensor.rs:141
        data.touches[i].pressure =
 39a:	9a60      	ldr	r2, [sp, #384]	; 0x180
 39c:	2a09      	cmp	r2, #9
 39e:	9009      	str	r0, [sp, #36]	; 0x24
 3a0:	9208      	str	r2, [sp, #32]
 3a2:	f200 81ab 	bhi.w	6fc <app::touch_sensor::read_touchdata+0x6fc>
 3a6:	e7ff      	b.n	3a8 <app::touch_sensor::read_touchdata+0x3a8>
 3a8:	982d      	ldr	r0, [sp, #180]	; 0xb4
 3aa:	9908      	ldr	r1, [sp, #32]
 3ac:	eb00 00c1 	add.w	r0, r0, r1, lsl #3
 3b0:	9a09      	ldr	r2, [sp, #36]	; 0x24
 3b2:	7182      	strb	r2, [r0, #6]
c:\PineTime\pinetime-rust-mynewt/rust\app\src/touch_sensor.rs:144
            unsafe { buf[HYN_TOUCH_MISC   + HYN_TOUCH_STEP * i] } >> 4;
 3b4:	f240 0000 	movw	r0, #0
 3b8:	f2c0 0000 	movt	r0, #0
 3bc:	906e      	str	r0, [sp, #440]	; 0x1b8
 3be:	9860      	ldr	r0, [sp, #384]	; 0x180
 3c0:	2306      	movs	r3, #6
 3c2:	fba3 0300 	umull	r0, r3, r3, r0
 3c6:	2b00      	cmp	r3, #0
 3c8:	9007      	str	r0, [sp, #28]
 3ca:	f040 81a0 	bne.w	70e <app::touch_sensor::read_touchdata+0x70e>
 3ce:	e7ff      	b.n	3d0 <app::touch_sensor::read_touchdata+0x3d0>
 3d0:	9807      	ldr	r0, [sp, #28]
 3d2:	f100 0108 	add.w	r1, r0, #8
 3d6:	460a      	mov	r2, r1
 3d8:	4281      	cmp	r1, r0
 3da:	9206      	str	r2, [sp, #24]
 3dc:	f0c0 81a3 	bcc.w	726 <app::touch_sensor::read_touchdata+0x726>
 3e0:	e7ff      	b.n	3e2 <app::touch_sensor::read_touchdata+0x3e2>
 3e2:	9806      	ldr	r0, [sp, #24]
 3e4:	283e      	cmp	r0, #62	; 0x3e
 3e6:	f200 81aa 	bhi.w	73e <app::touch_sensor::read_touchdata+0x73e>
 3ea:	e7ff      	b.n	3ec <app::touch_sensor::read_touchdata+0x3ec>
 3ec:	986e      	ldr	r0, [sp, #440]	; 0x1b8
 3ee:	9906      	ldr	r1, [sp, #24]
 3f0:	5c40      	ldrb	r0, [r0, r1]
 3f2:	0900      	lsrs	r0, r0, #4
 3f4:	9005      	str	r0, [sp, #20]
 3f6:	e7ff      	b.n	3f8 <app::touch_sensor::read_touchdata+0x3f8>
c:\PineTime\pinetime-rust-mynewt/rust\app\src/touch_sensor.rs:143
        data.touches[i].area =
 3f8:	9860      	ldr	r0, [sp, #384]	; 0x180
 3fa:	2809      	cmp	r0, #9
 3fc:	9004      	str	r0, [sp, #16]
 3fe:	f200 81a7 	bhi.w	750 <app::touch_sensor::read_touchdata+0x750>
 402:	e7ff      	b.n	404 <app::touch_sensor::read_touchdata+0x404>
 404:	982d      	ldr	r0, [sp, #180]	; 0xb4
 406:	9904      	ldr	r1, [sp, #16]
 408:	eb00 00c1 	add.w	r0, r0, r1, lsl #3
 40c:	9a05      	ldr	r2, [sp, #20]
 40e:	71c2      	strb	r2, [r0, #7]
c:\PineTime\pinetime-rust-mynewt/rust\app\src/touch_sensor.rs:147
        if (data.touches[i].action == 0 || data.touches[i].action == 2)  //  If touch is down or contact
 410:	9860      	ldr	r0, [sp, #384]	; 0x180
 412:	280a      	cmp	r0, #10
 414:	9003      	str	r0, [sp, #12]
 416:	d327      	bcc.n	468 <app::touch_sensor::read_touchdata+0x468>
 418:	e1a3      	b.n	762 <app::touch_sensor::read_touchdata+0x762>
 41a:	2001      	movs	r0, #1
 41c:	f88d 01be 	strb.w	r0, [sp, #446]	; 0x1be
 420:	e009      	b.n	436 <app::touch_sensor::read_touchdata+0x436>
 422:	2000      	movs	r0, #0
 424:	f88d 01be 	strb.w	r0, [sp, #446]	; 0x1be
 428:	e005      	b.n	436 <app::touch_sensor::read_touchdata+0x436>
c:\PineTime\pinetime-rust-mynewt/rust\app\src/touch_sensor.rs:148
            && (data.point_num == 0) {
 42a:	982d      	ldr	r0, [sp, #180]	; 0xb4
 42c:	f890 0051 	ldrb.w	r0, [r0, #81]	; 0x51
c:\PineTime\pinetime-rust-mynewt/rust\app\src/touch_sensor.rs:147
        if (data.touches[i].action == 0 || data.touches[i].action == 2)  //  If touch is down or contact
 430:	2800      	cmp	r0, #0
 432:	d0f2      	beq.n	41a <app::touch_sensor::read_touchdata+0x41a>
 434:	e7f5      	b.n	422 <app::touch_sensor::read_touchdata+0x422>
 436:	f89d 01be 	ldrb.w	r0, [sp, #446]	; 0x1be
 43a:	07c0      	lsls	r0, r0, #31
 43c:	2800      	cmp	r0, #0
 43e:	d124      	bne.n	48a <app::touch_sensor::read_touchdata+0x48a>
 440:	e022      	b.n	488 <app::touch_sensor::read_touchdata+0x488>
 442:	2001      	movs	r0, #1
 444:	f88d 01bf 	strb.w	r0, [sp, #447]	; 0x1bf
 448:	e008      	b.n	45c <app::touch_sensor::read_touchdata+0x45c>
 44a:	2000      	movs	r0, #0
 44c:	f88d 01bf 	strb.w	r0, [sp, #447]	; 0x1bf
 450:	e004      	b.n	45c <app::touch_sensor::read_touchdata+0x45c>
 452:	9860      	ldr	r0, [sp, #384]	; 0x180
 454:	280a      	cmp	r0, #10
 456:	9002      	str	r0, [sp, #8]
 458:	d30e      	bcc.n	478 <app::touch_sensor::read_touchdata+0x478>
 45a:	e18b      	b.n	774 <app::touch_sensor::read_touchdata+0x774>
 45c:	f89d 01bf 	ldrb.w	r0, [sp, #447]	; 0x1bf
 460:	07c0      	lsls	r0, r0, #31
 462:	2800      	cmp	r0, #0
 464:	d1e1      	bne.n	42a <app::touch_sensor::read_touchdata+0x42a>
 466:	e7dc      	b.n	422 <app::touch_sensor::read_touchdata+0x422>
 468:	982d      	ldr	r0, [sp, #180]	; 0xb4
 46a:	9903      	ldr	r1, [sp, #12]
 46c:	eb00 00c1 	add.w	r0, r0, r1, lsl #3
 470:	7900      	ldrb	r0, [r0, #4]
 472:	2800      	cmp	r0, #0
 474:	d0e5      	beq.n	442 <app::touch_sensor::read_touchdata+0x442>
 476:	e7ec      	b.n	452 <app::touch_sensor::read_touchdata+0x452>
 478:	982d      	ldr	r0, [sp, #180]	; 0xb4
 47a:	9902      	ldr	r1, [sp, #8]
 47c:	eb00 00c1 	add.w	r0, r0, r1, lsl #3
 480:	7900      	ldrb	r0, [r0, #4]
 482:	2802      	cmp	r0, #2
 484:	d0dd      	beq.n	442 <app::touch_sensor::read_touchdata+0x442>
 486:	e7e0      	b.n	44a <app::touch_sensor::read_touchdata+0x44a>
c:\PineTime\pinetime-rust-mynewt/rust\app\src/touch_sensor.rs:120
    for i in 0..CFG_MAX_TOUCH_POINTS {
 488:	e60a      	b.n	a0 <app::touch_sensor::read_touchdata+0xa0>
c:\PineTime\pinetime-rust-mynewt/rust\app\src/touch_sensor.rs:149
            break;
 48a:	e654      	b.n	136 <app::touch_sensor::read_touchdata+0x136>
c:\PineTime\pinetime-rust-mynewt/rust\app\src/touch_sensor.rs:121
        let pointid = unsafe { buf[HYN_TOUCH_ID_POS + HYN_TOUCH_STEP * i] } >> 4;
 48c:	f240 0000 	movw	r0, #0
 490:	f2c0 0000 	movt	r0, #0
 494:	f240 0200 	movw	r2, #0
 498:	f2c0 0200 	movt	r2, #0
 49c:	2121      	movs	r1, #33	; 0x21
 49e:	f7ff fffe 	bl	0 <core::panicking::panic>
 4a2:	defe      	udf	#254	; 0xfe
 4a4:	f240 0000 	movw	r0, #0
 4a8:	f2c0 0000 	movt	r0, #0
 4ac:	f240 0200 	movw	r2, #0
 4b0:	f2c0 0200 	movt	r2, #0
 4b4:	211c      	movs	r1, #28
 4b6:	f7ff fffe 	bl	0 <core::panicking::panic>
 4ba:	defe      	udf	#254	; 0xfe
 4bc:	f240 0000 	movw	r0, #0
 4c0:	f2c0 0000 	movt	r0, #0
 4c4:	223f      	movs	r2, #63	; 0x3f
 4c6:	9924      	ldr	r1, [sp, #144]	; 0x90
 4c8:	f7ff fffe 	bl	0 <core::panicking::panic_bounds_check>
 4cc:	defe      	udf	#254	; 0xfe
c:\PineTime\pinetime-rust-mynewt/rust\app\src/touch_sensor.rs:125
        data.count += 1;
 4ce:	f240 0000 	movw	r0, #0
 4d2:	f2c0 0000 	movt	r0, #0
 4d6:	f240 0200 	movw	r2, #0
 4da:	f2c0 0200 	movt	r2, #0
 4de:	211c      	movs	r1, #28
 4e0:	f7ff fffe 	bl	0 <core::panicking::panic>
 4e4:	defe      	udf	#254	; 0xfe
c:\PineTime\pinetime-rust-mynewt/rust\app\src/touch_sensor.rs:126
        let x_high = unsafe { buf[HYN_TOUCH_X_H_POS + HYN_TOUCH_STEP * i] & 0x0F } as u16;
 4e6:	f240 0000 	movw	r0, #0
 4ea:	f2c0 0000 	movt	r0, #0
 4ee:	f240 0200 	movw	r2, #0
 4f2:	f2c0 0200 	movt	r2, #0
 4f6:	2121      	movs	r1, #33	; 0x21
 4f8:	f7ff fffe 	bl	0 <core::panicking::panic>
 4fc:	defe      	udf	#254	; 0xfe
 4fe:	f240 0000 	movw	r0, #0
 502:	f2c0 0000 	movt	r0, #0
 506:	f240 0200 	movw	r2, #0
 50a:	f2c0 0200 	movt	r2, #0
 50e:	211c      	movs	r1, #28
 510:	f7ff fffe 	bl	0 <core::panicking::panic>
 514:	defe      	udf	#254	; 0xfe
 516:	f240 0000 	movw	r0, #0
 51a:	f2c0 0000 	movt	r0, #0
 51e:	223f      	movs	r2, #63	; 0x3f
 520:	9920      	ldr	r1, [sp, #128]	; 0x80
 522:	f7ff fffe 	bl	0 <core::panicking::panic_bounds_check>
 526:	defe      	udf	#254	; 0xfe
c:\PineTime\pinetime-rust-mynewt/rust\app\src/touch_sensor.rs:127
        let x_low  = unsafe { buf[HYN_TOUCH_X_L_POS + HYN_TOUCH_STEP * i] } as u16;
 528:	f240 0000 	movw	r0, #0
 52c:	f2c0 0000 	movt	r0, #0
 530:	f240 0200 	movw	r2, #0
 534:	f2c0 0200 	movt	r2, #0
 538:	2121      	movs	r1, #33	; 0x21
 53a:	f7ff fffe 	bl	0 <core::panicking::panic>
 53e:	defe      	udf	#254	; 0xfe
 540:	f240 0000 	movw	r0, #0
 544:	f2c0 0000 	movt	r0, #0
 548:	f240 0200 	movw	r2, #0
 54c:	f2c0 0200 	movt	r2, #0
 550:	211c      	movs	r1, #28
 552:	f7ff fffe 	bl	0 <core::panicking::panic>
 556:	defe      	udf	#254	; 0xfe
 558:	f240 0000 	movw	r0, #0
 55c:	f2c0 0000 	movt	r0, #0
 560:	223f      	movs	r2, #63	; 0x3f
 562:	991e      	ldr	r1, [sp, #120]	; 0x78
 564:	f7ff fffe 	bl	0 <core::panicking::panic_bounds_check>
 568:	defe      	udf	#254	; 0xfe
c:\PineTime\pinetime-rust-mynewt/rust\app\src/touch_sensor.rs:128
        data.touches[i].x  = (x_high << 8) | x_low;
 56a:	f240 0000 	movw	r0, #0
 56e:	f2c0 0000 	movt	r0, #0
 572:	220a      	movs	r2, #10
 574:	991b      	ldr	r1, [sp, #108]	; 0x6c
 576:	f7ff fffe 	bl	0 <core::panicking::panic_bounds_check>
 57a:	defe      	udf	#254	; 0xfe
c:\PineTime\pinetime-rust-mynewt/rust\app\src/touch_sensor.rs:130
        let y_high = unsafe { buf[HYN_TOUCH_Y_H_POS + HYN_TOUCH_STEP * i] & 0x0F } as u16;
 57c:	f240 0000 	movw	r0, #0
 580:	f2c0 0000 	movt	r0, #0
 584:	f240 0200 	movw	r2, #0
 588:	f2c0 0200 	movt	r2, #0
 58c:	2121      	movs	r1, #33	; 0x21
 58e:	f7ff fffe 	bl	0 <core::panicking::panic>
 592:	defe      	udf	#254	; 0xfe
 594:	f240 0000 	movw	r0, #0
 598:	f2c0 0000 	movt	r0, #0
 59c:	f240 0200 	movw	r2, #0
 5a0:	f2c0 0200 	movt	r2, #0
 5a4:	211c      	movs	r1, #28
 5a6:	f7ff fffe 	bl	0 <core::panicking::panic>
 5aa:	defe      	udf	#254	; 0xfe
 5ac:	f240 0000 	movw	r0, #0
 5b0:	f2c0 0000 	movt	r0, #0
 5b4:	223f      	movs	r2, #63	; 0x3f
 5b6:	9919      	ldr	r1, [sp, #100]	; 0x64
 5b8:	f7ff fffe 	bl	0 <core::panicking::panic_bounds_check>
 5bc:	defe      	udf	#254	; 0xfe
c:\PineTime\pinetime-rust-mynewt/rust\app\src/touch_sensor.rs:131
        let y_low  = unsafe { buf[HYN_TOUCH_Y_L_POS + HYN_TOUCH_STEP * i] } as u16;
 5be:	f240 0000 	movw	r0, #0
 5c2:	f2c0 0000 	movt	r0, #0
 5c6:	f240 0200 	movw	r2, #0
 5ca:	f2c0 0200 	movt	r2, #0
 5ce:	2121      	movs	r1, #33	; 0x21
 5d0:	f7ff fffe 	bl	0 <core::panicking::panic>
 5d4:	defe      	udf	#254	; 0xfe
 5d6:	f240 0000 	movw	r0, #0
 5da:	f2c0 0000 	movt	r0, #0
 5de:	f240 0200 	movw	r2, #0
 5e2:	f2c0 0200 	movt	r2, #0
 5e6:	211c      	movs	r1, #28
 5e8:	f7ff fffe 	bl	0 <core::panicking::panic>
 5ec:	defe      	udf	#254	; 0xfe
 5ee:	f240 0000 	movw	r0, #0
 5f2:	f2c0 0000 	movt	r0, #0
 5f6:	223f      	movs	r2, #63	; 0x3f
 5f8:	9917      	ldr	r1, [sp, #92]	; 0x5c
 5fa:	f7ff fffe 	bl	0 <core::panicking::panic_bounds_check>
 5fe:	defe      	udf	#254	; 0xfe
c:\PineTime\pinetime-rust-mynewt/rust\app\src/touch_sensor.rs:132
        data.touches[i].y  = (y_high << 8) | y_low;
 600:	f240 0000 	movw	r0, #0
 604:	f2c0 0000 	movt	r0, #0
 608:	220a      	movs	r2, #10
 60a:	9914      	ldr	r1, [sp, #80]	; 0x50
 60c:	f7ff fffe 	bl	0 <core::panicking::panic_bounds_check>
 610:	defe      	udf	#254	; 0xfe
c:\PineTime\pinetime-rust-mynewt/rust\app\src/touch_sensor.rs:136
            unsafe { buf[HYN_TOUCH_EVENT_POS + HYN_TOUCH_STEP * i] } >> 6;
 612:	f240 0000 	movw	r0, #0
 616:	f2c0 0000 	movt	r0, #0
 61a:	f240 0200 	movw	r2, #0
 61e:	f2c0 0200 	movt	r2, #0
 622:	2121      	movs	r1, #33	; 0x21
 624:	f7ff fffe 	bl	0 <core::panicking::panic>
 628:	defe      	udf	#254	; 0xfe
 62a:	f240 0000 	movw	r0, #0
 62e:	f2c0 0000 	movt	r0, #0
 632:	f240 0200 	movw	r2, #0
 636:	f2c0 0200 	movt	r2, #0
 63a:	211c      	movs	r1, #28
 63c:	f7ff fffe 	bl	0 <core::panicking::panic>
 640:	defe      	udf	#254	; 0xfe
 642:	f240 0000 	movw	r0, #0
 646:	f2c0 0000 	movt	r0, #0
 64a:	223f      	movs	r2, #63	; 0x3f
 64c:	9912      	ldr	r1, [sp, #72]	; 0x48
 64e:	f7ff fffe 	bl	0 <core::panicking::panic_bounds_check>
 652:	defe      	udf	#254	; 0xfe
c:\PineTime\pinetime-rust-mynewt/rust\app\src/touch_sensor.rs:135
        data.touches[i].action =
 654:	f240 0000 	movw	r0, #0
 658:	f2c0 0000 	movt	r0, #0
 65c:	220a      	movs	r2, #10
 65e:	9910      	ldr	r1, [sp, #64]	; 0x40
 660:	f7ff fffe 	bl	0 <core::panicking::panic_bounds_check>
 664:	defe      	udf	#254	; 0xfe
c:\PineTime\pinetime-rust-mynewt/rust\app\src/touch_sensor.rs:138
            unsafe { buf[HYN_TOUCH_ID_POS    + HYN_TOUCH_STEP * i] } >> 4;
 666:	f240 0000 	movw	r0, #0
 66a:	f2c0 0000 	movt	r0, #0
 66e:	f240 0200 	movw	r2, #0
 672:	f2c0 0200 	movt	r2, #0
 676:	2121      	movs	r1, #33	; 0x21
 678:	f7ff fffe 	bl	0 <core::panicking::panic>
 67c:	defe      	udf	#254	; 0xfe
 67e:	f240 0000 	movw	r0, #0
 682:	f2c0 0000 	movt	r0, #0
 686:	f240 0200 	movw	r2, #0
 68a:	f2c0 0200 	movt	r2, #0
 68e:	211c      	movs	r1, #28
 690:	f7ff fffe 	bl	0 <core::panicking::panic>
 694:	defe      	udf	#254	; 0xfe
 696:	f240 0000 	movw	r0, #0
 69a:	f2c0 0000 	movt	r0, #0
 69e:	223f      	movs	r2, #63	; 0x3f
 6a0:	990e      	ldr	r1, [sp, #56]	; 0x38
 6a2:	f7ff fffe 	bl	0 <core::panicking::panic_bounds_check>
 6a6:	defe      	udf	#254	; 0xfe
c:\PineTime\pinetime-rust-mynewt/rust\app\src/touch_sensor.rs:137
        data.touches[i].finger =
 6a8:	f240 0000 	movw	r0, #0
 6ac:	f2c0 0000 	movt	r0, #0
 6b0:	220a      	movs	r2, #10
 6b2:	990c      	ldr	r1, [sp, #48]	; 0x30
 6b4:	f7ff fffe 	bl	0 <core::panicking::panic_bounds_check>
 6b8:	defe      	udf	#254	; 0xfe
c:\PineTime\pinetime-rust-mynewt/rust\app\src/touch_sensor.rs:142
            unsafe { buf[HYN_TOUCH_XY_POS + HYN_TOUCH_STEP * i] };  //  Can't be constant value
 6ba:	f240 0000 	movw	r0, #0
 6be:	f2c0 0000 	movt	r0, #0
 6c2:	f240 0200 	movw	r2, #0
 6c6:	f2c0 0200 	movt	r2, #0
 6ca:	2121      	movs	r1, #33	; 0x21
 6cc:	f7ff fffe 	bl	0 <core::panicking::panic>
 6d0:	defe      	udf	#254	; 0xfe
 6d2:	f240 0000 	movw	r0, #0
 6d6:	f2c0 0000 	movt	r0, #0
 6da:	f240 0200 	movw	r2, #0
 6de:	f2c0 0200 	movt	r2, #0
 6e2:	211c      	movs	r1, #28
 6e4:	f7ff fffe 	bl	0 <core::panicking::panic>
 6e8:	defe      	udf	#254	; 0xfe
 6ea:	f240 0000 	movw	r0, #0
 6ee:	f2c0 0000 	movt	r0, #0
 6f2:	223f      	movs	r2, #63	; 0x3f
 6f4:	990a      	ldr	r1, [sp, #40]	; 0x28
 6f6:	f7ff fffe 	bl	0 <core::panicking::panic_bounds_check>
 6fa:	defe      	udf	#254	; 0xfe
c:\PineTime\pinetime-rust-mynewt/rust\app\src/touch_sensor.rs:141
        data.touches[i].pressure =
 6fc:	f240 0000 	movw	r0, #0
 700:	f2c0 0000 	movt	r0, #0
 704:	220a      	movs	r2, #10
 706:	9908      	ldr	r1, [sp, #32]
 708:	f7ff fffe 	bl	0 <core::panicking::panic_bounds_check>
 70c:	defe      	udf	#254	; 0xfe
c:\PineTime\pinetime-rust-mynewt/rust\app\src/touch_sensor.rs:144
            unsafe { buf[HYN_TOUCH_MISC   + HYN_TOUCH_STEP * i] } >> 4;
 70e:	f240 0000 	movw	r0, #0
 712:	f2c0 0000 	movt	r0, #0
 716:	f240 0200 	movw	r2, #0
 71a:	f2c0 0200 	movt	r2, #0
 71e:	2121      	movs	r1, #33	; 0x21
 720:	f7ff fffe 	bl	0 <core::panicking::panic>
 724:	defe      	udf	#254	; 0xfe
 726:	f240 0000 	movw	r0, #0
 72a:	f2c0 0000 	movt	r0, #0
 72e:	f240 0200 	movw	r2, #0
 732:	f2c0 0200 	movt	r2, #0
 736:	211c      	movs	r1, #28
 738:	f7ff fffe 	bl	0 <core::panicking::panic>
 73c:	defe      	udf	#254	; 0xfe
 73e:	f240 0000 	movw	r0, #0
 742:	f2c0 0000 	movt	r0, #0
 746:	223f      	movs	r2, #63	; 0x3f
 748:	9906      	ldr	r1, [sp, #24]
 74a:	f7ff fffe 	bl	0 <core::panicking::panic_bounds_check>
 74e:	defe      	udf	#254	; 0xfe
c:\PineTime\pinetime-rust-mynewt/rust\app\src/touch_sensor.rs:143
        data.touches[i].area =
 750:	f240 0000 	movw	r0, #0
 754:	f2c0 0000 	movt	r0, #0
 758:	220a      	movs	r2, #10
 75a:	9904      	ldr	r1, [sp, #16]
 75c:	f7ff fffe 	bl	0 <core::panicking::panic_bounds_check>
 760:	defe      	udf	#254	; 0xfe
c:\PineTime\pinetime-rust-mynewt/rust\app\src/touch_sensor.rs:147
        if (data.touches[i].action == 0 || data.touches[i].action == 2)  //  If touch is down or contact
 762:	f240 0000 	movw	r0, #0
 766:	f2c0 0000 	movt	r0, #0
 76a:	220a      	movs	r2, #10
 76c:	9903      	ldr	r1, [sp, #12]
 76e:	f7ff fffe 	bl	0 <core::panicking::panic_bounds_check>
 772:	defe      	udf	#254	; 0xfe
 774:	f240 0000 	movw	r0, #0
 778:	f2c0 0000 	movt	r0, #0
 77c:	220a      	movs	r2, #10
 77e:	9902      	ldr	r1, [sp, #8]
 780:	f7ff fffe 	bl	0 <core::panicking::panic_bounds_check>
 784:	defe      	udf	#254	; 0xfe

Disassembly of section .text._ZN3app12touch_sensor19read_register_range17h784f7a37a5b2e28aE:

00000000 <app::touch_sensor::read_register_range>:
_ZN3app12touch_sensor19read_register_range17h784f7a37a5b2e28aE():
c:\PineTime\pinetime-rust-mynewt/rust\app\src/touch_sensor.rs:212

/// Event that will be forwarded to the Event Queue when a touch interrupt is triggered
static mut TOUCH_EVENT: os_event = fill_zero!(os_event);  //  Init all fields to 0 or NULL

/// Read a range of I2C registers from the I2C address `addr` (7-bit address), starting at `start_register` for count `num_registers`. Save into `buffer`.
fn read_register_range(addr: u8, start_register: u8, num_registers: u8, buffer: &mut[u8]) -> MynewtResult<()> {
   0:	b5b0      	push	{r4, r5, r7, lr}
   2:	b0a0      	sub	sp, #128	; 0x80
   4:	f8dd c090 	ldr.w	ip, [sp, #144]	; 0x90
   8:	4696      	mov	lr, r2
   a:	460c      	mov	r4, r1
   c:	4605      	mov	r5, r0
   e:	f88d 003d 	strb.w	r0, [sp, #61]	; 0x3d
  12:	f88d 103e 	strb.w	r1, [sp, #62]	; 0x3e
  16:	f88d 203f 	strb.w	r2, [sp, #63]	; 0x3f
  1a:	9310      	str	r3, [sp, #64]	; 0x40
  1c:	f8cd c044 	str.w	ip, [sp, #68]	; 0x44
c:\PineTime\pinetime-rust-mynewt/rust\app\src/touch_sensor.rs:213
    assert!(buffer.len() >= num_registers as usize, "i2c buf");  //  Buffer too small
  20:	9810      	ldr	r0, [sp, #64]	; 0x40
  22:	9911      	ldr	r1, [sp, #68]	; 0x44
  24:	f8cd e038 	str.w	lr, [sp, #56]	; 0x38
  28:	940d      	str	r4, [sp, #52]	; 0x34
  2a:	950c      	str	r5, [sp, #48]	; 0x30
  2c:	f7ff fffe 	bl	0 <core::slice::<impl [T]>::len>
  30:	900b      	str	r0, [sp, #44]	; 0x2c
  32:	e7ff      	b.n	34 <app::touch_sensor::read_register_range+0x34>
  34:	f89d 003f 	ldrb.w	r0, [sp, #63]	; 0x3f
  38:	990b      	ldr	r1, [sp, #44]	; 0x2c
  3a:	4281      	cmp	r1, r0
  3c:	d30c      	bcc.n	58 <app::touch_sensor::read_register_range+0x58>
  3e:	e7ff      	b.n	40 <app::touch_sensor::read_register_range+0x40>
c:\PineTime\pinetime-rust-mynewt/rust\app\src/touch_sensor.rs:214
    assert!(start_register + num_registers < 128, "i2c addr");   //  Not 7-bit address
  40:	f89d 003e 	ldrb.w	r0, [sp, #62]	; 0x3e
  44:	f89d 103f 	ldrb.w	r1, [sp, #63]	; 0x3f
  48:	4408      	add	r0, r1
  4a:	b2c1      	uxtb	r1, r0
  4c:	4602      	mov	r2, r0
  4e:	4281      	cmp	r1, r0
  50:	920a      	str	r2, [sp, #40]	; 0x28
  52:	f040 80b3 	bne.w	1bc <app::touch_sensor::read_register_range+0x1bc>
  56:	e010      	b.n	24 <app::touch_sensor::read_register_range+0x24>
c:\PineTime\pinetime-rust-mynewt/rust\app\src/touch_sensor.rs:213
    assert!(buffer.len() >= num_registers as usize, "i2c buf");  //  Buffer too small
  58:	f240 0000 	movw	r0, #0
  5c:	f2c0 0000 	movt	r0, #0
  60:	901d      	str	r0, [sp, #116]	; 0x74
  62:	9a1d      	ldr	r2, [sp, #116]	; 0x74
  64:	9209      	str	r2, [sp, #36]	; 0x24
  66:	e7ff      	b.n	68 <app::touch_sensor::read_register_range+0x68>
  68:	f240 0000 	movw	r0, #0
  6c:	f2c0 0000 	movt	r0, #0
  70:	2107      	movs	r1, #7
  72:	9a09      	ldr	r2, [sp, #36]	; 0x24
  74:	f7ff fffe 	bl	0 <core::panicking::panic>
  78:	defe      	udf	#254	; 0xfe
c:\PineTime\pinetime-rust-mynewt/rust\app\src/touch_sensor.rs:214
    assert!(start_register + num_registers < 128, "i2c addr");   //  Not 7-bit address
  7a:	980a      	ldr	r0, [sp, #40]	; 0x28
  7c:	b241      	sxtb	r1, r0
  7e:	2900      	cmp	r1, #0
  80:	d41a      	bmi.n	b8 <app::touch_sensor::read_register_range+0xb8>
  82:	e7ff      	b.n	84 <app::touch_sensor::read_register_range+0x84>
c:\PineTime\pinetime-rust-mynewt/rust\app\src/touch_sensor.rs:223
    //    Send the Start Condition (High to Low SDA Transition)...
    //    Followed by I2C Address (7 bits)...
    //    Followed by Write Mode (1 bit, value 0)...
    //    Followed by starting Register Number (8 bits)
    unsafe { 
        I2C_BUFFER[0] = start_register;  //  I2C Packet buffer contains starting Register Number (1 byte)
  84:	f89d 003e 	ldrb.w	r0, [sp, #62]	; 0x3e
  88:	f240 0100 	movw	r1, #0
  8c:	f2c0 0100 	movt	r1, #0
  90:	9113      	str	r1, [sp, #76]	; 0x4c
  92:	9a13      	ldr	r2, [sp, #76]	; 0x4c
  94:	7010      	strb	r0, [r2, #0]
c:\PineTime\pinetime-rust-mynewt/rust\app\src/touch_sensor.rs:224
        I2C_DATA.address = addr;         //  I2C Packet address (7 bits)
  96:	f89d 003d 	ldrb.w	r0, [sp, #61]	; 0x3d
  9a:	f240 0200 	movw	r2, #0
  9e:	f2c0 0200 	movt	r2, #0
  a2:	9214      	str	r2, [sp, #80]	; 0x50
  a4:	9a14      	ldr	r2, [sp, #80]	; 0x50
  a6:	7010      	strb	r0, [r2, #0]
  a8:	2001      	movs	r0, #1
c:\PineTime\pinetime-rust-mynewt/rust\app\src/touch_sensor.rs:225
        I2C_DATA.len = I2C_BUFFER.len() as u16;     //  I2C Packet data size is 1 byte
  aa:	9008      	str	r0, [sp, #32]
  ac:	4608      	mov	r0, r1
  ae:	9908      	ldr	r1, [sp, #32]
  b0:	f7ff fffe 	bl	0 <core::slice::<impl [T]>::len>
  b4:	9007      	str	r0, [sp, #28]
  b6:	e010      	b.n	da <app::touch_sensor::read_register_range+0xda>
c:\PineTime\pinetime-rust-mynewt/rust\app\src/touch_sensor.rs:214
    assert!(start_register + num_registers < 128, "i2c addr");   //  Not 7-bit address
  b8:	f240 0000 	movw	r0, #0
  bc:	f2c0 0000 	movt	r0, #0
  c0:	901e      	str	r0, [sp, #120]	; 0x78
  c2:	9a1e      	ldr	r2, [sp, #120]	; 0x78
  c4:	9206      	str	r2, [sp, #24]
  c6:	e7ff      	b.n	c8 <app::touch_sensor::read_register_range+0xc8>
  c8:	f240 0000 	movw	r0, #0
  cc:	f2c0 0000 	movt	r0, #0
  d0:	2108      	movs	r1, #8
  d2:	9a06      	ldr	r2, [sp, #24]
  d4:	f7ff fffe 	bl	0 <core::panicking::panic>
  d8:	defe      	udf	#254	; 0xfe
c:\PineTime\pinetime-rust-mynewt/rust\app\src/touch_sensor.rs:225
        I2C_DATA.len = I2C_BUFFER.len() as u16;     //  I2C Packet data size is 1 byte
  da:	f240 0000 	movw	r0, #0
  de:	f2c0 0000 	movt	r0, #0
  e2:	9015      	str	r0, [sp, #84]	; 0x54
  e4:	9815      	ldr	r0, [sp, #84]	; 0x54
  e6:	9907      	ldr	r1, [sp, #28]
  e8:	8041      	strh	r1, [r0, #2]
c:\PineTime\pinetime-rust-mynewt/rust\app\src/touch_sensor.rs:226
        I2C_DATA.buffer = I2C_BUFFER.as_mut_ptr();  //  I2C Packet data points to packet buffer
  ea:	f240 0000 	movw	r0, #0
  ee:	f2c0 0000 	movt	r0, #0
  f2:	2101      	movs	r1, #1
  f4:	f7ff fffe 	bl	0 <core::slice::<impl [T]>::as_mut_ptr>
  f8:	9005      	str	r0, [sp, #20]
  fa:	e7ff      	b.n	fc <app::touch_sensor::read_register_range+0xfc>
  fc:	f240 0000 	movw	r0, #0
 100:	f2c0 0000 	movt	r0, #0
 104:	9016      	str	r0, [sp, #88]	; 0x58
 106:	9916      	ldr	r1, [sp, #88]	; 0x58
 108:	9a05      	ldr	r2, [sp, #20]
 10a:	604a      	str	r2, [r1, #4]
 10c:	2101      	movs	r1, #1
 10e:	f44f 727a 	mov.w	r2, #1000	; 0x3e8
 112:	2300      	movs	r3, #0
c:\PineTime\pinetime-rust-mynewt/rust\app\src/touch_sensor.rs:228
    };
    let _rc1 = unsafe { hal::hal_i2c_master_write(1, &mut I2C_DATA, 1000, 0) };  //  No stop yet, must continue even if we hit an error
 114:	9004      	str	r0, [sp, #16]
 116:	4608      	mov	r0, r1
 118:	9904      	ldr	r1, [sp, #16]
 11a:	f7ff fffe 	bl	0 <hal_i2c_master_write>
 11e:	9017      	str	r0, [sp, #92]	; 0x5c
 120:	e7ff      	b.n	122 <app::touch_sensor::read_register_range+0x122>
c:\PineTime\pinetime-rust-mynewt/rust\app\src/touch_sensor.rs:234
    //  Step 3: Prepare to receive the stream of I2C Device Register values...
    //    Send the Start Condition (High to Low SDA Transition)...
    //    Followed by I2C Address (7 bits)...
    //    Followed by Read Mode (1 bit, value 1)
    unsafe { 
        I2C_BUFFER[0] = 0x00;     //  I2C Packet buffer should be empty (provided by caller)
 122:	f240 0000 	movw	r0, #0
 126:	f2c0 0000 	movt	r0, #0
 12a:	9018      	str	r0, [sp, #96]	; 0x60
 12c:	9818      	ldr	r0, [sp, #96]	; 0x60
 12e:	2100      	movs	r1, #0
 130:	7001      	strb	r1, [r0, #0]
c:\PineTime\pinetime-rust-mynewt/rust\app\src/touch_sensor.rs:235
        I2C_DATA.address = addr;  //  I2C Packet address (7 bits)
 132:	f89d 003d 	ldrb.w	r0, [sp, #61]	; 0x3d
 136:	f240 0100 	movw	r1, #0
 13a:	f2c0 0100 	movt	r1, #0
 13e:	9119      	str	r1, [sp, #100]	; 0x64
 140:	9a19      	ldr	r2, [sp, #100]	; 0x64
 142:	7010      	strb	r0, [r2, #0]
c:\PineTime\pinetime-rust-mynewt/rust\app\src/touch_sensor.rs:236
        I2C_DATA.len = num_registers as u16;    //  I2C Packet data size is number of Registers to read
 144:	f89d 003f 	ldrb.w	r0, [sp, #63]	; 0x3f
 148:	911a      	str	r1, [sp, #104]	; 0x68
 14a:	991a      	ldr	r1, [sp, #104]	; 0x68
 14c:	8048      	strh	r0, [r1, #2]
c:\PineTime\pinetime-rust-mynewt/rust\app\src/touch_sensor.rs:237
        I2C_DATA.buffer = buffer.as_mut_ptr();  //  I2C Packet data points to packet buffer
 14e:	9810      	ldr	r0, [sp, #64]	; 0x40
 150:	9911      	ldr	r1, [sp, #68]	; 0x44
 152:	f7ff fffe 	bl	0 <core::slice::<impl [T]>::as_mut_ptr>
 156:	9003      	str	r0, [sp, #12]
 158:	e7ff      	b.n	15a <app::touch_sensor::read_register_range+0x15a>
 15a:	f240 0000 	movw	r0, #0
 15e:	f2c0 0000 	movt	r0, #0
 162:	901b      	str	r0, [sp, #108]	; 0x6c
 164:	991b      	ldr	r1, [sp, #108]	; 0x6c
 166:	9a03      	ldr	r2, [sp, #12]
 168:	604a      	str	r2, [r1, #4]
 16a:	f44f 727a 	mov.w	r2, #1000	; 0x3e8
 16e:	2101      	movs	r1, #1
c:\PineTime\pinetime-rust-mynewt/rust\app\src/touch_sensor.rs:241
    };
    //  Step 4: Receive the requested number of Register values from I2C Device (1 byte per register)
    //  Step 5: Send the Stop Condition (Low to High SDA Transition)
    let rc2 = unsafe { hal::hal_i2c_master_read(1, &mut I2C_DATA, 1000, 1) };
 170:	9002      	str	r0, [sp, #8]
 172:	4608      	mov	r0, r1
 174:	9b02      	ldr	r3, [sp, #8]
 176:	9101      	str	r1, [sp, #4]
 178:	4619      	mov	r1, r3
 17a:	9b01      	ldr	r3, [sp, #4]
 17c:	f7ff fffe 	bl	0 <hal_i2c_master_read>
 180:	901c      	str	r0, [sp, #112]	; 0x70
 182:	e7ff      	b.n	184 <app::touch_sensor::read_register_range+0x184>
c:\PineTime\pinetime-rust-mynewt/rust\app\src/touch_sensor.rs:242
    if rc2 == hal::HAL_I2C_ERR_ADDR_NACK as i32 {
 184:	981c      	ldr	r0, [sp, #112]	; 0x70
 186:	2804      	cmp	r0, #4
 188:	d007      	beq.n	19a <app::touch_sensor::read_register_range+0x19a>
 18a:	e7ff      	b.n	18c <app::touch_sensor::read_register_range+0x18c>
 18c:	2000      	movs	r0, #0
c:\PineTime\pinetime-rust-mynewt/rust\app\src/touch_sensor.rs:246
        assert!(false, "i2c fail");  //  I2C read failed
        return Ok(());               //  TODO: Return an error
    }
    Ok(())
 18e:	9012      	str	r0, [sp, #72]	; 0x48
 190:	2001      	movs	r0, #1
 192:	9012      	str	r0, [sp, #72]	; 0x48
c:\PineTime\pinetime-rust-mynewt/rust\app\src/touch_sensor.rs:247
}
 194:	9812      	ldr	r0, [sp, #72]	; 0x48
 196:	b020      	add	sp, #128	; 0x80
 198:	bdb0      	pop	{r4, r5, r7, pc}
c:\PineTime\pinetime-rust-mynewt/rust\app\src/touch_sensor.rs:243
        assert!(false, "i2c fail");  //  I2C read failed
 19a:	f240 0000 	movw	r0, #0
 19e:	f2c0 0000 	movt	r0, #0
 1a2:	901f      	str	r0, [sp, #124]	; 0x7c
 1a4:	9a1f      	ldr	r2, [sp, #124]	; 0x7c
 1a6:	9200      	str	r2, [sp, #0]
 1a8:	e7ff      	b.n	1aa <app::touch_sensor::read_register_range+0x1aa>
 1aa:	f240 0000 	movw	r0, #0
 1ae:	f2c0 0000 	movt	r0, #0
 1b2:	2108      	movs	r1, #8
 1b4:	9a00      	ldr	r2, [sp, #0]
 1b6:	f7ff fffe 	bl	0 <core::panicking::panic>
 1ba:	defe      	udf	#254	; 0xfe
c:\PineTime\pinetime-rust-mynewt/rust\app\src/touch_sensor.rs:214
    assert!(start_register + num_registers < 128, "i2c addr");   //  Not 7-bit address
 1bc:	f240 0000 	movw	r0, #0
 1c0:	f2c0 0000 	movt	r0, #0
 1c4:	f240 0200 	movw	r2, #0
 1c8:	f2c0 0200 	movt	r2, #0
 1cc:	211c      	movs	r1, #28
 1ce:	f7ff fffe 	bl	0 <core::panicking::panic>
 1d2:	defe      	udf	#254	; 0xfe

app-06a5867689f9e070.23f9mzv1v4gn2no4.rcgu.o:     file format elf32-littlearm

SYMBOL TABLE:
00000000 l    df *ABS*	00000000 23f9mzv1v4gn2no4
0000111e l       .debug_str	00000000 
00002817 l       .debug_str	00000000 
000027e1 l       .debug_str	00000000 
00002856 l       .debug_str	00000000 
00002771 l       .debug_str	00000000 
00002854 l       .debug_str	00000000 
0000276c l       .debug_str	00000000 
00002852 l       .debug_str	00000000 
00002764 l       .debug_str	00000000 
0000284d l       .debug_str	00000000 
00000000 l       .debug_str	00000000 
00000041 l       .debug_str	00000000 
00000055 l       .debug_str	00000000 
00000076 l       .debug_str	00000000 
0000007d l       .debug_str	00000000 
00000084 l       .debug_str	00000000 
0000008b l       .debug_str	00000000 
0000008f l       .debug_str	00000000 
00000097 l       .debug_str	00000000 
000000a2 l       .debug_str	00000000 
000000ad l       .debug_str	00000000 
000000ba l       .debug_str	00000000 
000000c5 l       .debug_str	00000000 
000000cd l       .debug_str	00000000 
000000d8 l       .debug_str	00000000 
000000e3 l       .debug_str	00000000 
000000ed l       .debug_str	00000000 
000000f8 l       .debug_str	00000000 
00000103 l       .debug_str	00000000 
00000110 l       .debug_str	00000000 
0000011c l       .debug_str	00000000 
00000129 l       .debug_str	00000000 
00000137 l       .debug_str	00000000 
00000141 l       .debug_str	00000000 
0000014e l       .debug_str	00000000 
0000015a l       .debug_str	00000000 
0000015f l       .debug_str	00000000 
00000163 l       .debug_str	00000000 
00000166 l       .debug_str	00000000 
00000171 l       .debug_str	00000000 
0000017c l       .debug_str	00000000 
00000183 l       .debug_str	00000000 
00000187 l       .debug_str	00000000 
0000018a l       .debug_str	00000000 
0000018e l       .debug_str	00000000 
00000195 l       .debug_str	00000000 
00000198 l       .debug_str	00000000 
000001a2 l       .debug_str	00000000 
000001ad l       .debug_str	00000000 
000001b6 l       .debug_str	00000000 
000001c1 l       .debug_str	00000000 
000001cd l       .debug_str	00000000 
000001d1 l       .debug_str	00000000 
000001da l       .debug_str	00000000 
000001e1 l       .debug_str	00000000 
000001e9 l       .debug_str	00000000 
000001f1 l       .debug_str	00000000 
000001fb l       .debug_str	00000000 
00000201 l       .debug_str	00000000 
00000208 l       .debug_str	00000000 
00000212 l       .debug_str	00000000 
00000219 l       .debug_str	00000000 
00000220 l       .debug_str	00000000 
00000225 l       .debug_str	00000000 
0000023c l       .debug_str	00000000 
00000269 l       .debug_str	00000000 
0000026b l       .debug_str	00000000 
00000270 l       .debug_str	00000000 
000002a5 l       .debug_str	00000000 
000002ab l       .debug_str	00000000 
000002b1 l       .debug_str	00000000 
000002c0 l       .debug_str	00000000 
000002d0 l       .debug_str	00000000 
000002e0 l       .debug_str	00000000 
000002e8 l       .debug_str	00000000 
00000311 l       .debug_str	00000000 
0000036f l       .debug_str	00000000 
000003d5 l       .debug_str	00000000 
000003dc l       .debug_str	00000000 
000003e4 l       .debug_str	00000000 
000003ed l       .debug_str	00000000 
0000040b l       .debug_str	00000000 
0000041b l       .debug_str	00000000 
00000429 l       .debug_str	00000000 
00000434 l       .debug_str	00000000 
00000441 l       .debug_str	00000000 
00000450 l       .debug_str	00000000 
0000045a l       .debug_str	00000000 
00000470 l       .debug_str	00000000 
0000047a l       .debug_str	00000000 
00000483 l       .debug_str	00000000 
0000048c l       .debug_str	00000000 
000004b2 l       .debug_str	00000000 
000004c8 l       .debug_str	00000000 
000004d3 l       .debug_str	00000000 
000004e9 l       .debug_str	00000000 
000004f1 l       .debug_str	00000000 
00000512 l       .debug_str	00000000 
0000051b l       .debug_str	00000000 
00000524 l       .debug_str	00000000 
0000052f l       .debug_str	00000000 
00000539 l       .debug_str	00000000 
0000053f l       .debug_str	00000000 
00000577 l       .debug_str	00000000 
000005b7 l       .debug_str	00000000 
000005be l       .debug_str	00000000 
000005c6 l       .debug_str	00000000 
000005dd l       .debug_str	00000000 
000005e6 l       .debug_str	00000000 
00000608 l       .debug_str	00000000 
00000612 l       .debug_str	00000000 
00000639 l       .debug_str	00000000 
00000651 l       .debug_str	00000000 
0000065b l       .debug_str	00000000 
0000067e l       .debug_str	00000000 
00000680 l       .debug_str	00000000 
00000684 l       .debug_str	00000000 
000006cc l       .debug_str	00000000 
000006d5 l       .debug_str	00000000 
00000715 l       .debug_str	00000000 
0000075c l       .debug_str	00000000 
0000075f l       .debug_str	00000000 
00000766 l       .debug_str	00000000 
0000076f l       .debug_str	00000000 
0000077e l       .debug_str	00000000 
00000782 l       .debug_str	00000000 
0000078a l       .debug_str	00000000 
00000790 l       .debug_str	00000000 
0000079c l       .debug_str	00000000 
000007a4 l       .debug_str	00000000 
000007fe l       .debug_str	00000000 
00000860 l       .debug_str	00000000 
0000086b l       .debug_str	00000000 
000008b2 l       .debug_str	00000000 
00000901 l       .debug_str	00000000 
0000090b l       .debug_str	00000000 
00000948 l       .debug_str	00000000 
0000098d l       .debug_str	00000000 
00000996 l       .debug_str	00000000 
000009a6 l       .debug_str	00000000 
000009ae l       .debug_str	00000000 
00000a03 l       .debug_str	00000000 
00000a60 l       .debug_str	00000000 
00000a6c l       .debug_str	00000000 
00000a75 l       .debug_str	00000000 
00000a81 l       .debug_str	00000000 
00000a8d l       .debug_str	00000000 
00000a96 l       .debug_str	00000000 
00000a9e l       .debug_str	00000000 
00000aa6 l       .debug_str	00000000 
00000abb l       .debug_str	00000000 
00000ac2 l       .debug_str	00000000 
00000ae2 l       .debug_str	00000000 
00000ae9 l       .debug_str	00000000 
00000af1 l       .debug_str	00000000 
00000afb l       .debug_str	00000000 
00000b12 l       .debug_str	00000000 
00000b17 l       .debug_str	00000000 
00000b1f l       .debug_str	00000000 
00000b28 l       .debug_str	00000000 
00000b31 l       .debug_str	00000000 
00000b3a l       .debug_str	00000000 
00000b42 l       .debug_str	00000000 
00000b49 l       .debug_str	00000000 
00000b55 l       .debug_str	00000000 
00000b60 l       .debug_str	00000000 
00000b68 l       .debug_str	00000000 
00000b70 l       .debug_str	00000000 
00000c6c l       .debug_str	00000000 
00000d70 l       .debug_str	00000000 
00000d7e l       .debug_str	00000000 
00000d89 l       .debug_str	00000000 
00000d93 l       .debug_str	00000000 
00000da7 l       .debug_str	00000000 
00000db2 l       .debug_str	00000000 
00000de0 l       .debug_str	00000000 
00000e5b l       .debug_str	00000000 
00000ede l       .debug_str	00000000 
00000eec l       .debug_str	00000000 
00000f4b l       .debug_str	00000000 
00000fb2 l       .debug_str	00000000 
00000fc8 l       .debug_str	00000000 
00000fd8 l       .debug_str	00000000 
00000fe7 l       .debug_str	00000000 
00000feb l       .debug_str	00000000 
00000ff2 l       .debug_str	00000000 
00000ff8 l       .debug_str	00000000 
00000ffc l       .debug_str	00000000 
00001002 l       .debug_str	00000000 
00001008 l       .debug_str	00000000 
00001014 l       .debug_str	00000000 
0000101c l       .debug_str	00000000 
00001022 l       .debug_str	00000000 
0000102a l       .debug_str	00000000 
00001030 l       .debug_str	00000000 
00001053 l       .debug_str	00000000 
00001063 l       .debug_str	00000000 
00001096 l       .debug_str	00000000 
000010d6 l       .debug_str	00000000 
0000275f l       .debug_str	00000000 
00001122 l       .debug_str	00000000 
00001128 l       .debug_str	00000000 
0000112e l       .debug_str	00000000 
00001134 l       .debug_str	00000000 
00001146 l       .debug_str	00000000 
0000117b l       .debug_str	00000000 
000011bd l       .debug_str	00000000 
00001207 l       .debug_str	00000000 
0000120b l       .debug_str	00000000 
00001211 l       .debug_str	00000000 
00001217 l       .debug_str	00000000 
0000121d l       .debug_str	00000000 
0000122f l       .debug_str	00000000 
00001264 l       .debug_str	00000000 
000012a6 l       .debug_str	00000000 
000012f0 l       .debug_str	00000000 
000012f4 l       .debug_str	00000000 
000012fa l       .debug_str	00000000 
00001300 l       .debug_str	00000000 
00001306 l       .debug_str	00000000 
0000130c l       .debug_str	00000000 
0000131d l       .debug_str	00000000 
00001351 l       .debug_str	00000000 
00001392 l       .debug_str	00000000 
000013db l       .debug_str	00000000 
000013e0 l       .debug_str	00000000 
000013e5 l       .debug_str	00000000 
000013e9 l       .debug_str	00000000 
000013ef l       .debug_str	00000000 
000013f5 l       .debug_str	00000000 
000013fb l       .debug_str	00000000 
0000140c l       .debug_str	00000000 
00001440 l       .debug_str	00000000 
00001481 l       .debug_str	00000000 
000014ca l       .debug_str	00000000 
000014ce l       .debug_str	00000000 
000014d7 l       .debug_str	00000000 
000014e8 l       .debug_str	00000000 
0000151c l       .debug_str	00000000 
0000155d l       .debug_str	00000000 
000015a6 l       .debug_str	00000000 
000015ab l       .debug_str	00000000 
000015af l       .debug_str	00000000 
000015b8 l       .debug_str	00000000 
000015bf l       .debug_str	00000000 
000015c7 l       .debug_str	00000000 
000015d9 l       .debug_str	00000000 
0000160e l       .debug_str	00000000 
00001650 l       .debug_str	00000000 
0000169a l       .debug_str	00000000 
0000169e l       .debug_str	00000000 
000016a4 l       .debug_str	00000000 
000016aa l       .debug_str	00000000 
000016b0 l       .debug_str	00000000 
000016b6 l       .debug_str	00000000 
000016be l       .debug_str	00000000 
000016cc l       .debug_str	00000000 
000016db l       .debug_str	00000000 
000016ec l       .debug_str	00000000 
000016f7 l       .debug_str	00000000 
00001702 l       .debug_str	00000000 
0000170d l       .debug_str	00000000 
00001714 l       .debug_str	00000000 
00001737 l       .debug_str	00000000 
00001749 l       .debug_str	00000000 
0000177e l       .debug_str	00000000 
000017c0 l       .debug_str	00000000 
0000180a l       .debug_str	00000000 
0000180e l       .debug_str	00000000 
00001818 l       .debug_str	00000000 
0000182a l       .debug_str	00000000 
0000185f l       .debug_str	00000000 
000018a1 l       .debug_str	00000000 
000018eb l       .debug_str	00000000 
000018f0 l       .debug_str	00000000 
000018fa l       .debug_str	00000000 
0000190c l       .debug_str	00000000 
00001941 l       .debug_str	00000000 
00001983 l       .debug_str	00000000 
000019cd l       .debug_str	00000000 
000019e1 l       .debug_str	00000000 
000019e5 l       .debug_str	00000000 
000019f3 l       .debug_str	00000000 
00001a03 l       .debug_str	00000000 
00001a0c l       .debug_str	00000000 
00001a17 l       .debug_str	00000000 
00001a26 l       .debug_str	00000000 
00001a3b l       .debug_str	00000000 
00001a6c l       .debug_str	00000000 
00001b09 l       .debug_str	00000000 
00001bae l       .debug_str	00000000 
00001bb9 l       .debug_str	00000000 
00001bc2 l       .debug_str	00000000 
00001be3 l       .debug_str	00000000 
00001bf6 l       .debug_str	00000000 
00001c2c l       .debug_str	00000000 
00001caf l       .debug_str	00000000 
00001d3a l       .debug_str	00000000 
00001d56 l       .debug_str	00000000 
00001da2 l       .debug_str	00000000 
00001df6 l       .debug_str	00000000 
00001e13 l       .debug_str	00000000 
00001e27 l       .debug_str	00000000 
00001e73 l       .debug_str	00000000 
00001ec7 l       .debug_str	00000000 
00001edd l       .debug_str	00000000 
00001ef1 l       .debug_str	00000000 
00001f38 l       .debug_str	00000000 
00001f87 l       .debug_str	00000000 
00001f90 l       .debug_str	00000000 
00001f9e l       .debug_str	00000000 
00001fcf l       .debug_str	00000000 
00001fd5 l       .debug_str	00000000 
00001fdd l       .debug_str	00000000 
00001fe4 l       .debug_str	00000000 
00001fec l       .debug_str	00000000 
00001ff7 l       .debug_str	00000000 
00001fff l       .debug_str	00000000 
0000200e l       .debug_str	00000000 
00002012 l       .debug_str	00000000 
0000201d l       .debug_str	00000000 
00002029 l       .debug_str	00000000 
00002034 l       .debug_str	00000000 
00002045 l       .debug_str	00000000 
0000204b l       .debug_str	00000000 
00002053 l       .debug_str	00000000 
0000205a l       .debug_str	00000000 
00002064 l       .debug_str	00000000 
0000206c l       .debug_str	00000000 
00002074 l       .debug_str	00000000 
00002096 l       .debug_str	00000000 
000020a1 l       .debug_str	00000000 
000020ad l       .debug_str	00000000 
000020b5 l       .debug_str	00000000 
000020be l       .debug_str	00000000 
000020c9 l       .debug_str	00000000 
000020d0 l       .debug_str	00000000 
000020db l       .debug_str	00000000 
000020e6 l       .debug_str	00000000 
000020f6 l       .debug_str	00000000 
00002106 l       .debug_str	00000000 
00002139 l       .debug_str	00000000 
0000214e l       .debug_str	00000000 
00002157 l       .debug_str	00000000 
000021b4 l       .debug_str	00000000 
00002219 l       .debug_str	00000000 
00002223 l       .debug_str	00000000 
00002233 l       .debug_str	00000000 
00002248 l       .debug_str	00000000 
00002250 l       .debug_str	00000000 
000022b4 l       .debug_str	00000000 
00002320 l       .debug_str	00000000 
00002327 l       .debug_str	00000000 
0000232f l       .debug_str	00000000 
0000234d l       .debug_str	00000000 
0000235d l       .debug_str	00000000 
00002390 l       .debug_str	00000000 
000023a5 l       .debug_str	00000000 
000023b8 l       .debug_str	00000000 
000023cd l       .debug_str	00000000 
000023d4 l       .debug_str	00000000 
000023e9 l       .debug_str	00000000 
00002413 l       .debug_str	00000000 
0000248f l       .debug_str	00000000 
00002513 l       .debug_str	00000000 
0000251a l       .debug_str	00000000 
00002522 l       .debug_str	00000000 
00002540 l       .debug_str	00000000 
00002550 l       .debug_str	00000000 
000025c0 l       .debug_str	00000000 
00002617 l       .debug_str	00000000 
0000266a l       .debug_str	00000000 
0000266f l       .debug_str	00000000 
000026df l       .debug_str	00000000 
0000270d l       .debug_str	00000000 
00002737 l       .debug_str	00000000 
0000273b l       .debug_str	00000000 
00002743 l       .debug_str	00000000 
0000274c l       .debug_str	00000000 
00002753 l       .debug_str	00000000 
00002759 l       .debug_str	00000000 
00002849 l       .debug_str	00000000 
00000000 l     O .rodata..Lanon.ffff64075d4b4e05f7d53b55839fdd4c.0	00000010 .Lanon.ffff64075d4b4e05f7d53b55839fdd4c.0
00000000 l    d  .text._ZN4core6result19Result$LT$T$C$E$GT$6expect17h8277064c6273cfa0E	00000000 .text._ZN4core6result19Result$LT$T$C$E$GT$6expect17h8277064c6273cfa0E
00000000 l    d  .text._ZN73_$LT$core..result..Result$LT$T$C$E$GT$$u20$as$u20$core..ops..try..Try$GT$11into_result17hb5f6c13958127973E	00000000 .text._ZN73_$LT$core..result..Result$LT$T$C$E$GT$$u20$as$u20$core..ops..try..Try$GT$11into_result17hb5f6c13958127973E
00000000 l    d  .text._ZN73_$LT$core..result..Result$LT$T$C$E$GT$$u20$as$u20$core..ops..try..Try$GT$11into_result17hbca07377c9968158E	00000000 .text._ZN73_$LT$core..result..Result$LT$T$C$E$GT$$u20$as$u20$core..ops..try..Try$GT$11into_result17hbca07377c9968158E
00000000 l    d  .text._ZN73_$LT$core..result..Result$LT$T$C$E$GT$$u20$as$u20$core..ops..try..Try$GT$11into_result17hee27e2338af80ed8E	00000000 .text._ZN73_$LT$core..result..Result$LT$T$C$E$GT$$u20$as$u20$core..ops..try..Try$GT$11into_result17hee27e2338af80ed8E
00000000 l    d  .rodata..Lanon.ffff64075d4b4e05f7d53b55839fdd4c.0	00000000 .rodata..Lanon.ffff64075d4b4e05f7d53b55839fdd4c.0
00000000 l    d  .debug_loc	00000000 .debug_loc
00000000 l    d  .debug_abbrev	00000000 .debug_abbrev
00000000 l    d  .debug_info	00000000 .debug_info
00000000 l    d  .debug_ranges	00000000 .debug_ranges
00000000 l    d  .debug_frame	00000000 .debug_frame
00000000 l    d  .debug_line	00000000 .debug_line
00000000         *UND*	00000000 core::ptr::real_drop_in_place
00000000         *UND*	00000000 core::result::unwrap_failed
00000000 g     F .text._ZN4core6result19Result$LT$T$C$E$GT$6expect17h8277064c6273cfa0E	0000004a core::result::Result<T,E>::expect
00000000         *UND*	00000000 <mynewt::result::MynewtError as core::fmt::Debug>::fmt
00000000 g     F .text._ZN73_$LT$core..result..Result$LT$T$C$E$GT$$u20$as$u20$core..ops..try..Try$GT$11into_result17hb5f6c13958127973E	00000014 <core::result::Result<T,E> as core::ops::try::Try>::into_result
00000000 g     F .text._ZN73_$LT$core..result..Result$LT$T$C$E$GT$$u20$as$u20$core..ops..try..Try$GT$11into_result17hbca07377c9968158E	0000000a <core::result::Result<T,E> as core::ops::try::Try>::into_result
00000000 g     F .text._ZN73_$LT$core..result..Result$LT$T$C$E$GT$$u20$as$u20$core..ops..try..Try$GT$11into_result17hee27e2338af80ed8E	00000016 <core::result::Result<T,E> as core::ops::try::Try>::into_result



Disassembly of section .text._ZN4core6result19Result$LT$T$C$E$GT$6expect17h8277064c6273cfa0E:

00000000 <core::result::Result<T,E>::expect>:
_ZN4core6result19Result$LT$T$C$E$GT$6expect17h8277064c6273cfa0E():
/rustc/412f43ac5b4ae8c3599e71c6972112e9be4758fa/src/libcore/result.rs:981
   0:	b086      	sub	sp, #24
   2:	9102      	str	r1, [sp, #8]
   4:	9203      	str	r2, [sp, #12]
/rustc/412f43ac5b4ae8c3599e71c6972112e9be4758fa/src/libcore/result.rs:983
   6:	6801      	ldr	r1, [r0, #0]
   8:	2900      	cmp	r1, #0
   a:	9001      	str	r0, [sp, #4]
   c:	d002      	beq.n	14 <core::result::Result<T,E>::expect+0x14>
   e:	e7ff      	b.n	10 <core::result::Result<T,E>::expect+0x10>
  10:	e00a      	b.n	28 <core::result::Result<T,E>::expect+0x28>
/rustc/412f43ac5b4ae8c3599e71c6972112e9be4758fa/src/libcore/result.rs:982
  12:	defe      	udf	#254	; 0xfe
/rustc/412f43ac5b4ae8c3599e71c6972112e9be4758fa/src/libcore/result.rs:983
  14:	9801      	ldr	r0, [sp, #4]
  16:	6841      	ldr	r1, [r0, #4]
  18:	9104      	str	r1, [sp, #16]
  1a:	9804      	ldr	r0, [sp, #16]
/rustc/412f43ac5b4ae8c3599e71c6972112e9be4758fa/src/libcore/result.rs:986
  1c:	9901      	ldr	r1, [sp, #4]
  1e:	680a      	ldr	r2, [r1, #0]
  20:	2a00      	cmp	r2, #0
  22:	9000      	str	r0, [sp, #0]
  24:	d00d      	beq.n	42 <core::result::Result<T,E>::expect+0x42>
  26:	e00f      	b.n	48 <core::result::Result<T,E>::expect+0x48>
/rustc/412f43ac5b4ae8c3599e71c6972112e9be4758fa/src/libcore/result.rs:984
  28:	9801      	ldr	r0, [sp, #4]
  2a:	6841      	ldr	r1, [r0, #4]
  2c:	9105      	str	r1, [sp, #20]
  2e:	9802      	ldr	r0, [sp, #8]
  30:	9903      	ldr	r1, [sp, #12]
  32:	f240 0300 	movw	r3, #0
  36:	f2c0 0300 	movt	r3, #0
  3a:	aa05      	add	r2, sp, #20
  3c:	f7ff fffe 	bl	0 <core::result::unwrap_failed>
  40:	defe      	udf	#254	; 0xfe
/rustc/412f43ac5b4ae8c3599e71c6972112e9be4758fa/src/libcore/result.rs:986
  42:	9800      	ldr	r0, [sp, #0]
  44:	b006      	add	sp, #24
  46:	4770      	bx	lr
  48:	e7fb      	b.n	42 <core::result::Result<T,E>::expect+0x42>

Disassembly of section .text._ZN73_$LT$core..result..Result$LT$T$C$E$GT$$u20$as$u20$core..ops..try..Try$GT$11into_result17hb5f6c13958127973E:

00000000 <<core::result::Result<T,E> as core::ops::try::Try>::into_result>:
_ZN73_$LT$core..result..Result$LT$T$C$E$GT$$u20$as$u20$core..ops..try..Try$GT$11into_result17hb5f6c13958127973E():
/rustc/412f43ac5b4ae8c3599e71c6972112e9be4758fa/src/libcore/result.rs:1461
   0:	b580      	push	{r7, lr}
/rustc/412f43ac5b4ae8c3599e71c6972112e9be4758fa/src/libcore/result.rs:1462
   2:	e8b1 500c 	ldmia.w	r1!, {r2, r3, ip, lr}
   6:	e8a0 500c 	stmia.w	r0!, {r2, r3, ip, lr}
   a:	e891 500c 	ldmia.w	r1, {r2, r3, ip, lr}
   e:	e880 500c 	stmia.w	r0, {r2, r3, ip, lr}
/rustc/412f43ac5b4ae8c3599e71c6972112e9be4758fa/src/libcore/result.rs:1463
  12:	bd80      	pop	{r7, pc}

Disassembly of section .text._ZN73_$LT$core..result..Result$LT$T$C$E$GT$$u20$as$u20$core..ops..try..Try$GT$11into_result17hbca07377c9968158E:

00000000 <<core::result::Result<T,E> as core::ops::try::Try>::into_result>:
_ZN73_$LT$core..result..Result$LT$T$C$E$GT$$u20$as$u20$core..ops..try..Try$GT$11into_result17hbca07377c9968158E():
/rustc/412f43ac5b4ae8c3599e71c6972112e9be4758fa/src/libcore/result.rs:1462
   0:	680a      	ldr	r2, [r1, #0]
   2:	6849      	ldr	r1, [r1, #4]
   4:	6041      	str	r1, [r0, #4]
   6:	6002      	str	r2, [r0, #0]
/rustc/412f43ac5b4ae8c3599e71c6972112e9be4758fa/src/libcore/result.rs:1463
   8:	4770      	bx	lr

Disassembly of section .text._ZN73_$LT$core..result..Result$LT$T$C$E$GT$$u20$as$u20$core..ops..try..Try$GT$11into_result17hee27e2338af80ed8E:

00000000 <<core::result::Result<T,E> as core::ops::try::Try>::into_result>:
_ZN73_$LT$core..result..Result$LT$T$C$E$GT$$u20$as$u20$core..ops..try..Try$GT$11into_result17hee27e2338af80ed8E():
/rustc/412f43ac5b4ae8c3599e71c6972112e9be4758fa/src/libcore/result.rs:1462
   0:	680a      	ldr	r2, [r1, #0]
   2:	684b      	ldr	r3, [r1, #4]
   4:	f8d1 c008 	ldr.w	ip, [r1, #8]
   8:	68c9      	ldr	r1, [r1, #12]
   a:	60c1      	str	r1, [r0, #12]
   c:	f8c0 c008 	str.w	ip, [r0, #8]
  10:	6043      	str	r3, [r0, #4]
  12:	6002      	str	r2, [r0, #0]
/rustc/412f43ac5b4ae8c3599e71c6972112e9be4758fa/src/libcore/result.rs:1463
  14:	4770      	bx	lr

app-06a5867689f9e070.2twga10y2lgi2gem.rcgu.o:     file format elf32-littlearm

SYMBOL TABLE:
00000000 l    df *ABS*	00000000 2twga10y2lgi2gem
00000119 l       .debug_str	00000000 
00000237 l       .debug_str	00000000 
00000263 l       .debug_str	00000000 
0000022f l       .debug_str	00000000 
0000025e l       .debug_str	00000000 
00000227 l       .debug_str	00000000 
00000252 l       .debug_str	00000000 
00000222 l       .debug_str	00000000 
00000000 l       .debug_str	00000000 
00000041 l       .debug_str	00000000 
00000055 l       .debug_str	00000000 
00000076 l       .debug_str	00000000 
0000007b l       .debug_str	00000000 
0000007f l       .debug_str	00000000 
00000088 l       .debug_str	00000000 
0000008a l       .debug_str	00000000 
0000008e l       .debug_str	00000000 
00000095 l       .debug_str	00000000 
0000009e l       .debug_str	00000000 
000000a1 l       .debug_str	00000000 
000000ab l       .debug_str	00000000 
000000b2 l       .debug_str	00000000 
000000b8 l       .debug_str	00000000 
000000bd l       .debug_str	00000000 
000000bf l       .debug_str	00000000 
00000106 l       .debug_str	00000000 
000001c4 l       .debug_str	00000000 
00000120 l       .debug_str	00000000 
00000124 l       .debug_str	00000000 
00000129 l       .debug_str	00000000 
0000012f l       .debug_str	00000000 
00000134 l       .debug_str	00000000 
00000138 l       .debug_str	00000000 
00000146 l       .debug_str	00000000 
00000182 l       .debug_str	00000000 
0000018b l       .debug_str	00000000 
00000190 l       .debug_str	00000000 
000001bb l       .debug_str	00000000 
0000023e l       .debug_str	00000000 
00000000 l    d  .text._ZN31_$LT$dyn$u20$core..any..Any$GT$12downcast_ref17he7629875f1f238e9E	00000000 .text._ZN31_$LT$dyn$u20$core..any..Any$GT$12downcast_ref17he7629875f1f238e9E
00000000 l    d  .text._ZN31_$LT$dyn$u20$core..any..Any$GT$2is17h011007e407e3cfc2E	00000000 .text._ZN31_$LT$dyn$u20$core..any..Any$GT$2is17h011007e407e3cfc2E
00000000 l    d  .text._ZN4core3any6TypeId2of17h23156541454a0e47E	00000000 .text._ZN4core3any6TypeId2of17h23156541454a0e47E
00000000 l    d  .text._ZN54_$LT$dyn$u20$core..any..Any$u2b$core..marker..Send$GT$12downcast_ref17hca5ee4f50eb49e94E	00000000 .text._ZN54_$LT$dyn$u20$core..any..Any$u2b$core..marker..Send$GT$12downcast_ref17hca5ee4f50eb49e94E
00000000 l    d  .debug_abbrev	00000000 .debug_abbrev
00000000 l    d  .debug_info	00000000 .debug_info
00000000 l    d  .debug_ranges	00000000 .debug_ranges
00000000 l    d  .debug_frame	00000000 .debug_frame
00000000 l    d  .debug_line	00000000 .debug_line
00000000 g     F .text._ZN31_$LT$dyn$u20$core..any..Any$GT$12downcast_ref17he7629875f1f238e9E	00000030 <dyn core::any::Any>::downcast_ref
00000000 g     F .text._ZN31_$LT$dyn$u20$core..any..Any$GT$2is17h011007e407e3cfc2E	00000036 <dyn core::any::Any>::is
00000000 g     F .text._ZN4core3any6TypeId2of17h23156541454a0e47E	00000030 core::any::TypeId::of
00000000 g     F .text._ZN54_$LT$dyn$u20$core..any..Any$u2b$core..marker..Send$GT$12downcast_ref17hca5ee4f50eb49e94E	0000001a <dyn core::any::Any+core::marker::Send>::downcast_ref
00000000         *UND*	00000000 .hidden <core::any::TypeId as core::cmp::PartialEq>::eq



Disassembly of section .text._ZN31_$LT$dyn$u20$core..any..Any$GT$12downcast_ref17he7629875f1f238e9E:

00000000 <<dyn core::any::Any>::downcast_ref>:
_ZN31_$LT$dyn$u20$core..any..Any$GT$12downcast_ref17he7629875f1f238e9E():
/rustc/412f43ac5b4ae8c3599e71c6972112e9be4758fa/src/libcore/any.rs:183
   0:	b580      	push	{r7, lr}
   2:	b084      	sub	sp, #16
   4:	9001      	str	r0, [sp, #4]
   6:	9102      	str	r1, [sp, #8]
/rustc/412f43ac5b4ae8c3599e71c6972112e9be4758fa/src/libcore/any.rs:184
   8:	9801      	ldr	r0, [sp, #4]
   a:	9902      	ldr	r1, [sp, #8]
   c:	f7ff fffe 	bl	0 <<dyn core::any::Any>::downcast_ref>
  10:	9000      	str	r0, [sp, #0]
  12:	e7ff      	b.n	14 <<dyn core::any::Any>::downcast_ref+0x14>
  14:	9800      	ldr	r0, [sp, #0]
  16:	07c1      	lsls	r1, r0, #31
  18:	2900      	cmp	r1, #0
  1a:	d103      	bne.n	24 <<dyn core::any::Any>::downcast_ref+0x24>
  1c:	e7ff      	b.n	1e <<dyn core::any::Any>::downcast_ref+0x1e>
  1e:	2000      	movs	r0, #0
/rustc/412f43ac5b4ae8c3599e71c6972112e9be4758fa/src/libcore/any.rs:190
  20:	9003      	str	r0, [sp, #12]
/rustc/412f43ac5b4ae8c3599e71c6972112e9be4758fa/src/libcore/any.rs:184
  22:	e002      	b.n	2a <<dyn core::any::Any>::downcast_ref+0x2a>
/rustc/412f43ac5b4ae8c3599e71c6972112e9be4758fa/src/libcore/any.rs:187
  24:	9801      	ldr	r0, [sp, #4]
  26:	9003      	str	r0, [sp, #12]
/rustc/412f43ac5b4ae8c3599e71c6972112e9be4758fa/src/libcore/any.rs:184
  28:	e7ff      	b.n	2a <<dyn core::any::Any>::downcast_ref+0x2a>
/rustc/412f43ac5b4ae8c3599e71c6972112e9be4758fa/src/libcore/any.rs:192
  2a:	9803      	ldr	r0, [sp, #12]
  2c:	b004      	add	sp, #16
  2e:	bd80      	pop	{r7, pc}

Disassembly of section .text._ZN31_$LT$dyn$u20$core..any..Any$GT$2is17h011007e407e3cfc2E:

00000000 <<dyn core::any::Any>::is>:
_ZN31_$LT$dyn$u20$core..any..Any$GT$2is17h011007e407e3cfc2E():
/rustc/412f43ac5b4ae8c3599e71c6972112e9be4758fa/src/libcore/any.rs:151
   0:	b580      	push	{r7, lr}
   2:	b088      	sub	sp, #32
   4:	9002      	str	r0, [sp, #8]
   6:	9103      	str	r1, [sp, #12]
/rustc/412f43ac5b4ae8c3599e71c6972112e9be4758fa/src/libcore/any.rs:153
   8:	f7ff fffe 	bl	0 <<dyn core::any::Any>::is>
   c:	9105      	str	r1, [sp, #20]
   e:	9004      	str	r0, [sp, #16]
  10:	e7ff      	b.n	12 <<dyn core::any::Any>::is+0x12>
/rustc/412f43ac5b4ae8c3599e71c6972112e9be4758fa/src/libcore/any.rs:156
  12:	9802      	ldr	r0, [sp, #8]
  14:	9903      	ldr	r1, [sp, #12]
  16:	68c9      	ldr	r1, [r1, #12]
  18:	4788      	blx	r1
  1a:	9107      	str	r1, [sp, #28]
  1c:	9006      	str	r0, [sp, #24]
  1e:	e7ff      	b.n	20 <<dyn core::any::Any>::is+0x20>
  20:	a804      	add	r0, sp, #16
  22:	a906      	add	r1, sp, #24
/rustc/412f43ac5b4ae8c3599e71c6972112e9be4758fa/src/libcore/any.rs:159
  24:	f7ff fffe 	bl	0 <<core::any::TypeId as core::cmp::PartialEq>::eq>
  28:	9001      	str	r0, [sp, #4]
  2a:	e7ff      	b.n	2c <<dyn core::any::Any>::is+0x2c>
/rustc/412f43ac5b4ae8c3599e71c6972112e9be4758fa/src/libcore/any.rs:160
  2c:	9801      	ldr	r0, [sp, #4]
  2e:	f000 0001 	and.w	r0, r0, #1
  32:	b008      	add	sp, #32
  34:	bd80      	pop	{r7, pc}

Disassembly of section .text._ZN4core3any6TypeId2of17h23156541454a0e47E:

00000000 <core::any::TypeId::of>:
_ZN4core3any6TypeId2of17h23156541454a0e47E():
/rustc/412f43ac5b4ae8c3599e71c6972112e9be4758fa/src/libcore/any.rs:427
   0:	b086      	sub	sp, #24
   2:	f249 40d9 	movw	r0, #38105	; 0x94d9
   6:	f2c1 1010 	movt	r0, #4368	; 0x1110
/rustc/412f43ac5b4ae8c3599e71c6972112e9be4758fa/src/libcore/any.rs:433
   a:	9005      	str	r0, [sp, #20]
   c:	f249 7064 	movw	r0, #38756	; 0x9764
  10:	f2c7 00b0 	movt	r0, #28848	; 0x70b0
  14:	9004      	str	r0, [sp, #16]
  16:	9804      	ldr	r0, [sp, #16]
  18:	9905      	ldr	r1, [sp, #20]
  1a:	9001      	str	r0, [sp, #4]
  1c:	9100      	str	r1, [sp, #0]
  1e:	e7ff      	b.n	20 <core::any::TypeId::of+0x20>
/rustc/412f43ac5b4ae8c3599e71c6972112e9be4758fa/src/libcore/any.rs:428
  20:	9801      	ldr	r0, [sp, #4]
  22:	9002      	str	r0, [sp, #8]
  24:	9900      	ldr	r1, [sp, #0]
  26:	9103      	str	r1, [sp, #12]
/rustc/412f43ac5b4ae8c3599e71c6972112e9be4758fa/src/libcore/any.rs:435
  28:	9802      	ldr	r0, [sp, #8]
  2a:	9903      	ldr	r1, [sp, #12]
  2c:	b006      	add	sp, #24
  2e:	4770      	bx	lr

Disassembly of section .text._ZN54_$LT$dyn$u20$core..any..Any$u2b$core..marker..Send$GT$12downcast_ref17hca5ee4f50eb49e94E:

00000000 <<dyn core::any::Any+core::marker::Send>::downcast_ref>:
_ZN54_$LT$dyn$u20$core..any..Any$u2b$core..marker..Send$GT$12downcast_ref17hca5ee4f50eb49e94E():
/rustc/412f43ac5b4ae8c3599e71c6972112e9be4758fa/src/libcore/any.rs:276
   0:	b580      	push	{r7, lr}
   2:	b084      	sub	sp, #16
   4:	9002      	str	r0, [sp, #8]
   6:	9103      	str	r1, [sp, #12]
/rustc/412f43ac5b4ae8c3599e71c6972112e9be4758fa/src/libcore/any.rs:277
   8:	9802      	ldr	r0, [sp, #8]
   a:	9903      	ldr	r1, [sp, #12]
   c:	f7ff fffe 	bl	0 <<dyn core::any::Any+core::marker::Send>::downcast_ref>
  10:	9001      	str	r0, [sp, #4]
  12:	e7ff      	b.n	14 <<dyn core::any::Any+core::marker::Send>::downcast_ref+0x14>
/rustc/412f43ac5b4ae8c3599e71c6972112e9be4758fa/src/libcore/any.rs:278
  14:	9801      	ldr	r0, [sp, #4]
  16:	b004      	add	sp, #16
  18:	bd80      	pop	{r7, pc}

app-06a5867689f9e070.400upkxv10b3175s.rcgu.o:     file format elf32-littlearm

SYMBOL TABLE:
00000000 l    df *ABS*	00000000 400upkxv10b3175s
000000ec l       .debug_str	00000000 
0000011d l       .debug_str	00000000 
00000000 l       .debug_str	00000000 
00000041 l       .debug_str	00000000 
00000055 l       .debug_str	00000000 
00000076 l       .debug_str	00000000 
0000007b l       .debug_str	00000000 
0000007f l       .debug_str	00000000 
00000088 l       .debug_str	00000000 
000000df l       .debug_str	00000000 
000000e2 l       .debug_str	00000000 
000000e7 l       .debug_str	00000000 
00000112 l       .debug_str	00000000 
000000ee l       .debug_str	00000000 
000000f2 l       .debug_str	00000000 
000000f9 l       .debug_str	00000000 
0000010c l       .debug_str	00000000 
00000122 l       .debug_str	00000000 
00000000 l    d  .text._ZN58_$LT$core..any..TypeId$u20$as$u20$core..cmp..PartialEq$GT$2eq17h59388b908711b916E	00000000 .text._ZN58_$LT$core..any..TypeId$u20$as$u20$core..cmp..PartialEq$GT$2eq17h59388b908711b916E
00000000 l    d  .debug_abbrev	00000000 .debug_abbrev
00000000 l    d  .debug_info	00000000 .debug_info
00000000 l    d  .debug_frame	00000000 .debug_frame
00000000 l    d  .debug_line	00000000 .debug_line
00000000 g     F .text._ZN58_$LT$core..any..TypeId$u20$as$u20$core..cmp..PartialEq$GT$2eq17h59388b908711b916E	0000002a .hidden <core::any::TypeId as core::cmp::PartialEq>::eq



Disassembly of section .text._ZN58_$LT$core..any..TypeId$u20$as$u20$core..cmp..PartialEq$GT$2eq17h59388b908711b916E:

00000000 <<core::any::TypeId as core::cmp::PartialEq>::eq>:
_ZN58_$LT$core..any..TypeId$u20$as$u20$core..cmp..PartialEq$GT$2eq17h59388b908711b916E():
/rustc/412f43ac5b4ae8c3599e71c6972112e9be4758fa/src/libcore/any.rs:403
   0:	b084      	sub	sp, #16
   2:	9000      	str	r0, [sp, #0]
   4:	9101      	str	r1, [sp, #4]
/rustc/412f43ac5b4ae8c3599e71c6972112e9be4758fa/src/libcore/any.rs:406
   6:	9801      	ldr	r0, [sp, #4]
   8:	9002      	str	r0, [sp, #8]
   a:	9800      	ldr	r0, [sp, #0]
   c:	9003      	str	r0, [sp, #12]
   e:	9803      	ldr	r0, [sp, #12]
  10:	6801      	ldr	r1, [r0, #0]
  12:	6840      	ldr	r0, [r0, #4]
  14:	9a02      	ldr	r2, [sp, #8]
  16:	6813      	ldr	r3, [r2, #0]
  18:	6852      	ldr	r2, [r2, #4]
  1a:	4050      	eors	r0, r2
  1c:	4059      	eors	r1, r3
  1e:	4308      	orrs	r0, r1
  20:	fab0 f080 	clz	r0, r0
  24:	0940      	lsrs	r0, r0, #5
/rustc/412f43ac5b4ae8c3599e71c6972112e9be4758fa/src/libcore/any.rs:403
  26:	b004      	add	sp, #16
  28:	4770      	bx	lr

app-06a5867689f9e070.4mbo8vo7cjwtljbz.rcgu.o:     file format elf32-littlearm

SYMBOL TABLE:
00000000 l    df *ABS*	00000000 4mbo8vo7cjwtljbz
00000188 l       .debug_str	00000000 
00000412 l       .debug_str	00000000 
00000000 l       .debug_str	00000000 
00000041 l       .debug_str	00000000 
00000055 l       .debug_str	00000000 
00000076 l       .debug_str	00000000 
0000007b l       .debug_str	00000000 
0000007f l       .debug_str	00000000 
00000082 l       .debug_str	00000000 
00000085 l       .debug_str	00000000 
00000088 l       .debug_str	00000000 
0000008d l       .debug_str	00000000 
00000093 l       .debug_str	00000000 
0000009a l       .debug_str	00000000 
000000a2 l       .debug_str	00000000 
000000ac l       .debug_str	00000000 
000000b3 l       .debug_str	00000000 
000000b6 l       .debug_str	00000000 
000000ba l       .debug_str	00000000 
000000c1 l       .debug_str	00000000 
000000c8 l       .debug_str	00000000 
000000d1 l       .debug_str	00000000 
000000db l       .debug_str	00000000 
000000e2 l       .debug_str	00000000 
000000e8 l       .debug_str	00000000 
000000ed l       .debug_str	00000000 
000000f9 l       .debug_str	00000000 
00000101 l       .debug_str	00000000 
00000108 l       .debug_str	00000000 
0000010c l       .debug_str	00000000 
00000111 l       .debug_str	00000000 
0000011a l       .debug_str	00000000 
0000011f l       .debug_str	00000000 
00000122 l       .debug_str	00000000 
00000126 l       .debug_str	00000000 
0000012f l       .debug_str	00000000 
00000136 l       .debug_str	00000000 
0000013b l       .debug_str	00000000 
00000140 l       .debug_str	00000000 
00000146 l       .debug_str	00000000 
0000014c l       .debug_str	00000000 
00000156 l       .debug_str	00000000 
00000159 l       .debug_str	00000000 
0000015f l       .debug_str	00000000 
00000169 l       .debug_str	00000000 
00000171 l       .debug_str	00000000 
00000177 l       .debug_str	00000000 
0000017d l       .debug_str	00000000 
00000408 l       .debug_str	00000000 
00000191 l       .debug_str	00000000 
000001b4 l       .debug_str	00000000 
000001d3 l       .debug_str	00000000 
000001d5 l       .debug_str	00000000 
000001da l       .debug_str	00000000 
00000201 l       .debug_str	00000000 
00000206 l       .debug_str	00000000 
0000020c l       .debug_str	00000000 
00000212 l       .debug_str	00000000 
00000215 l       .debug_str	00000000 
00000224 l       .debug_str	00000000 
0000022b l       .debug_str	00000000 
0000022f l       .debug_str	00000000 
00000238 l       .debug_str	00000000 
00000240 l       .debug_str	00000000 
00000248 l       .debug_str	00000000 
0000024f l       .debug_str	00000000 
00000263 l       .debug_str	00000000 
0000026f l       .debug_str	00000000 
0000027b l       .debug_str	00000000 
00000294 l       .debug_str	00000000 
00000299 l       .debug_str	00000000 
000002aa l       .debug_str	00000000 
000002b4 l       .debug_str	00000000 
000002c2 l       .debug_str	00000000 
000002c6 l       .debug_str	00000000 
000002d1 l       .debug_str	00000000 
000002d8 l       .debug_str	00000000 
000002de l       .debug_str	00000000 
000002e2 l       .debug_str	00000000 
000002e6 l       .debug_str	00000000 
000002ee l       .debug_str	00000000 
00000305 l       .debug_str	00000000 
00000329 l       .debug_str	00000000 
00000345 l       .debug_str	00000000 
0000034f l       .debug_str	00000000 
00000369 l       .debug_str	00000000 
000003c7 l       .debug_str	00000000 
000003d2 l       .debug_str	00000000 
000003ef l       .debug_str	00000000 
00000444 l       .debug_str	00000000 
00000000 l    d  .text._ZN4core3fmt9Arguments6new_v117h375b3ff1b34634f2E	00000000 .text._ZN4core3fmt9Arguments6new_v117h375b3ff1b34634f2E
00000000 l    d  .debug_abbrev	00000000 .debug_abbrev
00000000 l    d  .debug_info	00000000 .debug_info
00000000 l    d  .debug_frame	00000000 .debug_frame
00000000 l    d  .debug_line	00000000 .debug_line
00000000 g     F .text._ZN4core3fmt9Arguments6new_v117h375b3ff1b34634f2E	00000038 .hidden core::fmt::Arguments::new_v1



Disassembly of section .text._ZN4core3fmt9Arguments6new_v117h375b3ff1b34634f2E:

00000000 <core::fmt::Arguments::new_v1>:
_ZN4core3fmt9Arguments6new_v117h375b3ff1b34634f2E():
/rustc/412f43ac5b4ae8c3599e71c6972112e9be4758fa/src/libcore/fmt/mod.rs:316
   0:	b086      	sub	sp, #24
   2:	f8dd c018 	ldr.w	ip, [sp, #24]
   6:	9100      	str	r1, [sp, #0]
   8:	9201      	str	r2, [sp, #4]
   a:	9302      	str	r3, [sp, #8]
   c:	f8cd c00c 	str.w	ip, [sp, #12]
/rustc/412f43ac5b4ae8c3599e71c6972112e9be4758fa/src/libcore/fmt/mod.rs:319
  10:	9900      	ldr	r1, [sp, #0]
  12:	9a01      	ldr	r2, [sp, #4]
  14:	2300      	movs	r3, #0
/rustc/412f43ac5b4ae8c3599e71c6972112e9be4758fa/src/libcore/fmt/mod.rs:320
  16:	9305      	str	r3, [sp, #20]
  18:	9304      	str	r3, [sp, #16]
  1a:	9304      	str	r3, [sp, #16]
/rustc/412f43ac5b4ae8c3599e71c6972112e9be4758fa/src/libcore/fmt/mod.rs:321
  1c:	9b02      	ldr	r3, [sp, #8]
  1e:	f8dd c00c 	ldr.w	ip, [sp, #12]
/rustc/412f43ac5b4ae8c3599e71c6972112e9be4758fa/src/libcore/fmt/mod.rs:318
  22:	6001      	str	r1, [r0, #0]
  24:	6042      	str	r2, [r0, #4]
  26:	9904      	ldr	r1, [sp, #16]
  28:	9a05      	ldr	r2, [sp, #20]
  2a:	6081      	str	r1, [r0, #8]
  2c:	60c2      	str	r2, [r0, #12]
  2e:	6103      	str	r3, [r0, #16]
  30:	f8c0 c014 	str.w	ip, [r0, #20]
/rustc/412f43ac5b4ae8c3599e71c6972112e9be4758fa/src/libcore/fmt/mod.rs:323
  34:	b006      	add	sp, #24
  36:	4770      	bx	lr

app-06a5867689f9e070.4n904pcucgqn2aby.rcgu.o:     file format elf32-littlearm

SYMBOL TABLE:
00000000 l    df *ABS*	00000000 4n904pcucgqn2aby
000000f1 l       .debug_str	00000000 
00000193 l       .debug_str	00000000 
00000000 l       .debug_str	00000000 
00000041 l       .debug_str	00000000 
00000055 l       .debug_str	00000000 
00000076 l       .debug_str	00000000 
0000007d l       .debug_str	00000000 
00000084 l       .debug_str	00000000 
00000088 l       .debug_str	00000000 
00000090 l       .debug_str	00000000 
0000009b l       .debug_str	00000000 
000000a6 l       .debug_str	00000000 
000000b3 l       .debug_str	00000000 
000000be l       .debug_str	00000000 
000000c6 l       .debug_str	00000000 
000000d1 l       .debug_str	00000000 
000000dc l       .debug_str	00000000 
000000e6 l       .debug_str	00000000 
0000015e l       .debug_str	00000000 
000000fc l       .debug_str	00000000 
00000109 l       .debug_str	00000000 
00000115 l       .debug_str	00000000 
00000122 l       .debug_str	00000000 
00000130 l       .debug_str	00000000 
0000013a l       .debug_str	00000000 
00000147 l       .debug_str	00000000 
00000153 l       .debug_str	00000000 
00000158 l       .debug_str	00000000 
0000015c l       .debug_str	00000000 
000001c3 l       .debug_str	00000000 
00000000 l    d  .text._ZN4core3ptr18real_drop_in_place17hf1fdd21b6705273dE	00000000 .text._ZN4core3ptr18real_drop_in_place17hf1fdd21b6705273dE
00000000 l    d  .debug_abbrev	00000000 .debug_abbrev
00000000 l    d  .debug_info	00000000 .debug_info
00000000 l    d  .debug_frame	00000000 .debug_frame
00000000 l    d  .debug_line	00000000 .debug_line
00000000 g     F .text._ZN4core3ptr18real_drop_in_place17hf1fdd21b6705273dE	00000008 .hidden core::ptr::real_drop_in_place



Disassembly of section .text._ZN4core3ptr18real_drop_in_place17hf1fdd21b6705273dE:

00000000 <core::ptr::real_drop_in_place>:
_ZN4core3ptr18real_drop_in_place17hf1fdd21b6705273dE():
/rustc/412f43ac5b4ae8c3599e71c6972112e9be4758fa/src/libcore/ptr/mod.rs:181
   0:	b081      	sub	sp, #4
   2:	9000      	str	r0, [sp, #0]
   4:	b001      	add	sp, #4
   6:	4770      	bx	lr

app-06a5867689f9e070.4ueschib3k7ymmzj.rcgu.o:     file format elf32-littlearm

SYMBOL TABLE:
00000000 l    df *ABS*	00000000 4ueschib3k7ymmzj
000001cb l       .debug_str	00000000 
000003c3 l       .debug_str	00000000 
000003af l       .debug_str	00000000 
000003d0 l       .debug_str	00000000 
0000039d l       .debug_str	00000000 
0000038f l       .debug_str	00000000 
00000386 l       .debug_str	00000000 
00000381 l       .debug_str	00000000 
0000037e l       .debug_str	00000000 
0000037a l       .debug_str	00000000 
00000370 l       .debug_str	00000000 
0000036e l       .debug_str	00000000 
0000036a l       .debug_str	00000000 
00000349 l       .debug_str	00000000 
0000033d l       .debug_str	00000000 
00000339 l       .debug_str	00000000 
00000329 l       .debug_str	00000000 
00000324 l       .debug_str	00000000 
0000031f l       .debug_str	00000000 
00000319 l       .debug_str	00000000 
00000000 l       .debug_str	00000000 
00000041 l       .debug_str	00000000 
00000055 l       .debug_str	00000000 
00000076 l       .debug_str	00000000 
0000007d l       .debug_str	00000000 
00000084 l       .debug_str	00000000 
00000088 l       .debug_str	00000000 
00000090 l       .debug_str	00000000 
0000009b l       .debug_str	00000000 
000000a6 l       .debug_str	00000000 
000000b3 l       .debug_str	00000000 
000000be l       .debug_str	00000000 
000000c6 l       .debug_str	00000000 
000000d1 l       .debug_str	00000000 
000000dc l       .debug_str	00000000 
000000e6 l       .debug_str	00000000 
000000f1 l       .debug_str	00000000 
000000fc l       .debug_str	00000000 
00000109 l       .debug_str	00000000 
00000115 l       .debug_str	00000000 
00000122 l       .debug_str	00000000 
00000130 l       .debug_str	00000000 
0000013a l       .debug_str	00000000 
00000147 l       .debug_str	00000000 
00000153 l       .debug_str	00000000 
00000157 l       .debug_str	00000000 
00000163 l       .debug_str	00000000 
00000168 l       .debug_str	00000000 
0000016c l       .debug_str	00000000 
00000175 l       .debug_str	00000000 
000001b6 l       .debug_str	00000000 
000001bf l       .debug_str	00000000 
000001c8 l       .debug_str	00000000 
0000030b l       .debug_str	00000000 
000001d5 l       .debug_str	00000000 
000001dc l       .debug_str	00000000 
000001e2 l       .debug_str	00000000 
000001e8 l       .debug_str	00000000 
000001ed l       .debug_str	00000000 
000001f2 l       .debug_str	00000000 
00000232 l       .debug_str	00000000 
00000248 l       .debug_str	00000000 
0000024c l       .debug_str	00000000 
0000024f l       .debug_str	00000000 
00000253 l       .debug_str	00000000 
00000256 l       .debug_str	00000000 
00000258 l       .debug_str	00000000 
0000025a l       .debug_str	00000000 
0000025e l       .debug_str	00000000 
00000286 l       .debug_str	00000000 
000002c1 l       .debug_str	00000000 
000002d2 l       .debug_str	00000000 
000002df l       .debug_str	00000000 
000002e2 l       .debug_str	00000000 
000002e9 l       .debug_str	00000000 
000002ed l       .debug_str	00000000 
000002f1 l       .debug_str	00000000 
000002f9 l       .debug_str	00000000 
000002fe l       .debug_str	00000000 
00000306 l       .debug_str	00000000 
000003c7 l       .debug_str	00000000 
00000000 l     O .rodata..Lanon.0ce0ba5e50596918b5a0255880ff13ce.0	00000017 .Lanon.0ce0ba5e50596918b5a0255880ff13ce.0
00000000 l     O .rodata..Lanon.0ce0ba5e50596918b5a0255880ff13ce.1	00000001 .Lanon.0ce0ba5e50596918b5a0255880ff13ce.1
00000000 l     O .rodata..Lanon.0ce0ba5e50596918b5a0255880ff13ce.10	00000005 .Lanon.0ce0ba5e50596918b5a0255880ff13ce.10
00000008 l     O .rodata.cst4	00000004 .Lanon.0ce0ba5e50596918b5a0255880ff13ce.11
00000000 l     O .rodata..Lanon.0ce0ba5e50596918b5a0255880ff13ce.12	00000007 .Lanon.0ce0ba5e50596918b5a0255880ff13ce.12
00000000 l     O .rodata..Lanon.0ce0ba5e50596918b5a0255880ff13ce.13	00000006 .Lanon.0ce0ba5e50596918b5a0255880ff13ce.13
00000000 l     O .rodata..Lanon.0ce0ba5e50596918b5a0255880ff13ce.14	00000048 .Lanon.0ce0ba5e50596918b5a0255880ff13ce.14
00000000 l     O .rodata..Lanon.0ce0ba5e50596918b5a0255880ff13ce.2	00000001 .Lanon.0ce0ba5e50596918b5a0255880ff13ce.2
00000000 l     O .rodata..Lanon.0ce0ba5e50596918b5a0255880ff13ce.3	00000001 .Lanon.0ce0ba5e50596918b5a0255880ff13ce.3
00000000 l     O .rodata..Lanon.0ce0ba5e50596918b5a0255880ff13ce.4	00000007 .Lanon.0ce0ba5e50596918b5a0255880ff13ce.4
00000000 l     O .rodata..Lanon.0ce0ba5e50596918b5a0255880ff13ce.5	0000000d .Lanon.0ce0ba5e50596918b5a0255880ff13ce.5
00000000 l     O .rodata..Lanon.0ce0ba5e50596918b5a0255880ff13ce.6	00000003 .Lanon.0ce0ba5e50596918b5a0255880ff13ce.6
00000000 l     O .rodata..Lanon.0ce0ba5e50596918b5a0255880ff13ce.7	00000005 .Lanon.0ce0ba5e50596918b5a0255880ff13ce.7
00000000 l     O .rodata.cst4	00000004 .Lanon.0ce0ba5e50596918b5a0255880ff13ce.8
00000004 l     O .rodata.cst4	00000004 .Lanon.0ce0ba5e50596918b5a0255880ff13ce.9
00000000 l     F .text._ZN3app11app_network16send_sensor_data17h1f8310a0d403bb32E	0000057c app::app_network::send_sensor_data
00000000 l    d  .text._ZN3app11app_network21aggregate_sensor_data17h8128d61108154c10E	00000000 .text._ZN3app11app_network21aggregate_sensor_data17h8128d61108154c10E
00000000 l    d  .text._ZN3app11app_network16send_sensor_data17h1f8310a0d403bb32E	00000000 .text._ZN3app11app_network16send_sensor_data17h1f8310a0d403bb32E
00000000 l    d  .debug_abbrev	00000000 .debug_abbrev
00000000 l    d  .debug_info	00000000 .debug_info
00000000 l    d  .debug_ranges	00000000 .debug_ranges
00000000 l    d  .debug_frame	00000000 .debug_frame
00000000 l    d  .debug_line	00000000 .debug_line
00000000 g     F .text._ZN3app11app_network21aggregate_sensor_data17h8128d61108154c10E	00000016 .hidden app::app_network::aggregate_sensor_data
00000000         *UND*	00000000 <T as core::convert::From<T>>::from
00000000         *UND*	00000000 mynewt::sys::console::print_strn
00000000         *UND*	00000000 mynewt::sys::console::flush
00000000         *UND*	00000000 mynewt::sys::console::print
00000000         *UND*	00000000 mynewt::sys::console::printint
00000000         *UND*	00000000 mynewt::Strn::new
00000000         *UND*	00000000 mynewt::libs::sensor_network::prepare_post
00000000         *UND*	00000000 mynewt::libs::sensor_network::get_device_id
00000000         *UND*	00000000 mynewt::libs::sensor_network::do_server_post
00000000         *UND*	00000000 mynewt::libs::sensor_network::init_server_post
00000000         *UND*	00000000 mynewt::encoding::coap_context::CoapContext::key_to_cstr
00000000         *UND*	00000000 mynewt::encoding::coap_context::CoapContext::to_void_ptr
00000000         *UND*	00000000 mynewt::encoding::coap_context::CoapContext::value_to_cstr
00000000         *UND*	00000000 mynewt::encoding::coap_context::CoapContext::json_set_geolocation
00000000         *UND*	00000000 mynewt::encoding::coap_context::CoapContext::json_set_text_string
00000000         *UND*	00000000 mynewt::encoding::coap_context::CoapContext::fail
00000000         *UND*	00000000 mynewt::encoding::coap_context::COAP_CONTEXT
00000000         *UND*	00000000 <core::result::Result<T,E> as core::ops::try::Try>::from_error
00000000         *UND*	00000000 <core::result::Result<T,E> as core::ops::try::Try>::into_result
00000000         *UND*	00000000 <core::result::Result<T,E> as core::ops::try::Try>::into_result
00000000         *UND*	00000000 <str as mynewt::encoding::coap_context::ToBytesOptionalNull>::to_bytes_optional_nul
00000000         *UND*	00000000 <mynewt::Strn as mynewt::encoding::coap_context::ToBytesOptionalNull>::to_bytes_optional_nul
00000000         *UND*	00000000 json_helper_close_array
00000000         *UND*	00000000 json_helper_object_array_end_item
00000000         *UND*	00000000 json_helper_object_array_start_item
00000000         *UND*	00000000 json_helper_set_array
00000000         *UND*	00000000 json_helper_set_int
00000000         *UND*	00000000 json_helper_set_text_string
00000000         *UND*	00000000 json_rep_end_root_object
00000000         *UND*	00000000 json_rep_start_root_object



Disassembly of section .text._ZN3app11app_network21aggregate_sensor_data17h8128d61108154c10E:

00000000 <app::app_network::aggregate_sensor_data>:
_ZN3app11app_network21aggregate_sensor_data17h8128d61108154c10E():
c:\PineTime\pinetime-rust-mynewt/rust\app\src/app_network.rs:59
        send_sensor_data(&transmit_value)
    }
}

#[cfg(not(feature = "use_float"))]  //  If floating-point and geolocation are disabled, send sensor data without geolocation
pub fn aggregate_sensor_data(sensor_value: &SensorValue) -> MynewtResult<()>  {  //  Returns an error code upon error.
   0:	b580      	push	{r7, lr}
   2:	b082      	sub	sp, #8
   4:	9001      	str	r0, [sp, #4]
c:\PineTime\pinetime-rust-mynewt/rust\app\src/app_network.rs:61
    //  Transmit sensor value without geolocation and return the result
    send_sensor_data(sensor_value)
   6:	9801      	ldr	r0, [sp, #4]
   8:	f7ff fffe 	bl	0 <app::app_network::aggregate_sensor_data>
   c:	9000      	str	r0, [sp, #0]
   e:	e7ff      	b.n	10 <app::app_network::aggregate_sensor_data+0x10>
c:\PineTime\pinetime-rust-mynewt/rust\app\src/app_network.rs:62
}
  10:	9800      	ldr	r0, [sp, #0]
  12:	b002      	add	sp, #8
  14:	bd80      	pop	{r7, pc}

Disassembly of section .text._ZN3app11app_network16send_sensor_data17h1f8310a0d403bb32E:

00000000 <app::app_network::send_sensor_data>:
_ZN3app11app_network16send_sensor_data17h1f8310a0d403bb32E():
c:\PineTime\pinetime-rust-mynewt/rust\app\src/app_network.rs:75
/// {"values":[
///   {"key":"t",      "value":1715, "geo": { "lat": ..., "long": ... }},
///   {"key":"device", "value":"0102030405060708090a0b0c0d0e0f10"}
/// ]}
/// ```
fn send_sensor_data(val: &SensorValue) -> MynewtResult<()>  {  //  Returns an error code upon error.
   0:	b580      	push	{r7, lr}
   2:	f5ad 7d16 	sub.w	sp, sp, #600	; 0x258
   6:	9025      	str	r0, [sp, #148]	; 0x94
c:\PineTime\pinetime-rust-mynewt/rust\app\src/app_network.rs:76
    console::print("Rust send_sensor_data: ");
   8:	f240 0000 	movw	r0, #0
   c:	f2c0 0000 	movt	r0, #0
  10:	2117      	movs	r1, #23
  12:	f7ff fffe 	bl	0 <mynewt::sys::console::print>
  16:	e7ff      	b.n	18 <app::app_network::send_sensor_data+0x18>
c:\PineTime\pinetime-rust-mynewt/rust\app\src/app_network.rs:77
    if let SensorValueType::Uint(i) = val.value {
  18:	9825      	ldr	r0, [sp, #148]	; 0x94
  1a:	6840      	ldr	r0, [r0, #4]
  1c:	2801      	cmp	r0, #1
  1e:	d115      	bne.n	4c <app::app_network::send_sensor_data+0x4c>
  20:	e7ff      	b.n	22 <app::app_network::send_sensor_data+0x22>
  22:	9825      	ldr	r0, [sp, #148]	; 0x94
  24:	6880      	ldr	r0, [r0, #8]
  26:	9027      	str	r0, [sp, #156]	; 0x9c
c:\PineTime\pinetime-rust-mynewt/rust\app\src/app_network.rs:78
        console::print_strn(val.key);
  28:	9825      	ldr	r0, [sp, #148]	; 0x94
  2a:	6800      	ldr	r0, [r0, #0]
  2c:	f7ff fffe 	bl	0 <mynewt::sys::console::print_strn>
  30:	e7ff      	b.n	2 <app::app_network::send_sensor_data+0x2>
c:\PineTime\pinetime-rust-mynewt/rust\app\src/app_network.rs:79
        console::print("=");
  32:	f240 0000 	movw	r0, #0
  36:	f2c0 0000 	movt	r0, #0
  3a:	2101      	movs	r1, #1
  3c:	f7ff fffe 	bl	0 <mynewt::sys::console::print>
  40:	e7ff      	b.n	42 <app::app_network::send_sensor_data+0x42>
c:\PineTime\pinetime-rust-mynewt/rust\app\src/app_network.rs:80
        console::printint(i as i32);
  42:	9827      	ldr	r0, [sp, #156]	; 0x9c
  44:	f7ff fffe 	bl	0 <mynewt::sys::console::printint>
  48:	e7ff      	b.n	4a <app::app_network::send_sensor_data+0x4a>
c:\PineTime\pinetime-rust-mynewt/rust\app\src/app_network.rs:77
    if let SensorValueType::Uint(i) = val.value {
  4a:	e7ff      	b.n	4c <app::app_network::send_sensor_data+0x4c>
c:\PineTime\pinetime-rust-mynewt/rust\app\src/app_network.rs:82
    }
    console::print("\n");
  4c:	f240 0000 	movw	r0, #0
  50:	f2c0 0000 	movt	r0, #0
  54:	2101      	movs	r1, #1
  56:	f7ff fffe 	bl	0 <mynewt::sys::console::print>
  5a:	e7ff      	b.n	2 <mynewt::sys::console::flush+0x2>
c:\PineTime\pinetime-rust-mynewt/rust\app\src/app_network.rs:83
    console::flush(); ////
  5c:	f7ff fffe 	bl	0 <mynewt::sys::console::flush>
  60:	e7ff      	b.n	62 <app::app_network::send_sensor_data+0x62>
  62:	a82f      	add	r0, sp, #188	; 0xbc
c:\PineTime\pinetime-rust-mynewt/rust\app\src/app_network.rs:86

    //  Get a randomly-generated device ID that changes each time we restart the device.
    let device_id = sensor_network::get_device_id() ? ;
  64:	f7ff fffe 	bl	0 <mynewt::libs::sensor_network::get_device_id>
  68:	e7ff      	b.n	6a <app::app_network::send_sensor_data+0x6a>
  6a:	a82b      	add	r0, sp, #172	; 0xac
  6c:	a92f      	add	r1, sp, #188	; 0xbc
  6e:	f7ff fffe 	bl	0 <<core::result::Result<T,E> as core::ops::try::Try>::into_result>
  72:	e7ff      	b.n	74 <app::app_network::send_sensor_data+0x74>
  74:	982b      	ldr	r0, [sp, #172]	; 0xac
  76:	2800      	cmp	r0, #0
  78:	d014      	beq.n	a4 <app::app_network::send_sensor_data+0xa4>
  7a:	e7ff      	b.n	7c <app::app_network::send_sensor_data+0x7c>
  7c:	e000      	b.n	80 <app::app_network::send_sensor_data+0x80>
  7e:	defe      	udf	#254	; 0xfe
  80:	982c      	ldr	r0, [sp, #176]	; 0xb0
  82:	9033      	str	r0, [sp, #204]	; 0xcc
  84:	9833      	ldr	r0, [sp, #204]	; 0xcc
  86:	f7ff fffe 	bl	0 <<T as core::convert::From<T>>::from>
  8a:	9024      	str	r0, [sp, #144]	; 0x90
  8c:	e003      	b.n	96 <app::app_network::send_sensor_data+0x96>
c:\PineTime\pinetime-rust-mynewt/rust\app\src/app_network.rs:121
    console::print("NET view your sensor at \nhttps://blue-pill-geolocate.appspot.com?device=");
    console::print_strn(&device_id); console::print("\n");

    //  The CoAP Background Task will transmit the message in the background.
    Ok(())
}
  8e:	9826      	ldr	r0, [sp, #152]	; 0x98
  90:	f50d 7d16 	add.w	sp, sp, #600	; 0x258
  94:	bd80      	pop	{r7, pc}
c:\PineTime\pinetime-rust-mynewt/rust\app\src/app_network.rs:86
    let device_id = sensor_network::get_device_id() ? ;
  96:	9824      	ldr	r0, [sp, #144]	; 0x90
  98:	f7ff fffe 	bl	0 <<core::result::Result<T,E> as core::ops::try::Try>::from_error>
  9c:	9026      	str	r0, [sp, #152]	; 0x98
  9e:	e7ff      	b.n	a0 <app::app_network::send_sensor_data+0xa0>
  a0:	e7ff      	b.n	a2 <app::app_network::send_sensor_data+0xa2>
  a2:	e7f4      	b.n	8e <app::app_network::send_sensor_data+0x8e>
  a4:	982c      	ldr	r0, [sp, #176]	; 0xb0
  a6:	992d      	ldr	r1, [sp, #180]	; 0xb4
  a8:	9a2e      	ldr	r2, [sp, #184]	; 0xb8
  aa:	9236      	str	r2, [sp, #216]	; 0xd8
  ac:	9135      	str	r1, [sp, #212]	; 0xd4
  ae:	9034      	str	r0, [sp, #208]	; 0xd0
  b0:	9834      	ldr	r0, [sp, #208]	; 0xd0
  b2:	9935      	ldr	r1, [sp, #212]	; 0xd4
  b4:	9a36      	ldr	r2, [sp, #216]	; 0xd8
  b6:	922a      	str	r2, [sp, #168]	; 0xa8
  b8:	9129      	str	r1, [sp, #164]	; 0xa4
  ba:	9028      	str	r0, [sp, #160]	; 0xa0
c:\PineTime\pinetime-rust-mynewt/rust\app\src/app_network.rs:91
    let rc = sensor_network::init_server_post( strn!(()) ) ? ;  //  `strn!(())` means use default CoAP URI in `syscfg.yml`
  bc:	f240 0100 	movw	r1, #0
  c0:	f2c0 0100 	movt	r1, #0
  c4:	a83c      	add	r0, sp, #240	; 0xf0
  c6:	2201      	movs	r2, #1
  c8:	f7ff fffe 	bl	0 <mynewt::Strn::new>
  cc:	e7ff      	b.n	ce <app::app_network::send_sensor_data+0xce>
  ce:	a83a      	add	r0, sp, #232	; 0xe8
  d0:	a93c      	add	r1, sp, #240	; 0xf0
  d2:	f7ff fffe 	bl	0 <mynewt::libs::sensor_network::init_server_post>
  d6:	e7ff      	b.n	d8 <app::app_network::send_sensor_data+0xd8>
  d8:	a838      	add	r0, sp, #224	; 0xe0
  da:	a93a      	add	r1, sp, #232	; 0xe8
  dc:	f7ff fffe 	bl	0 <<core::result::Result<T,E> as core::ops::try::Try>::into_result>
  e0:	e7ff      	b.n	e2 <app::app_network::send_sensor_data+0xe2>
  e2:	f89d 00e0 	ldrb.w	r0, [sp, #224]	; 0xe0
  e6:	07c1      	lsls	r1, r0, #31
  e8:	2900      	cmp	r1, #0
  ea:	d010      	beq.n	10e <app::app_network::send_sensor_data+0x10e>
  ec:	e7ff      	b.n	ee <app::app_network::send_sensor_data+0xee>
  ee:	e000      	b.n	f2 <app::app_network::send_sensor_data+0xf2>
  f0:	defe      	udf	#254	; 0xfe
  f2:	9839      	ldr	r0, [sp, #228]	; 0xe4
  f4:	903f      	str	r0, [sp, #252]	; 0xfc
  f6:	983f      	ldr	r0, [sp, #252]	; 0xfc
  f8:	f7ff fffe 	bl	0 <<T as core::convert::From<T>>::from>
  fc:	9023      	str	r0, [sp, #140]	; 0x8c
  fe:	e7ff      	b.n	100 <app::app_network::send_sensor_data+0x100>
 100:	9823      	ldr	r0, [sp, #140]	; 0x8c
 102:	f7ff fffe 	bl	0 <<core::result::Result<T,E> as core::ops::try::Try>::from_error>
 106:	9026      	str	r0, [sp, #152]	; 0x98
 108:	e7ff      	b.n	10a <app::app_network::send_sensor_data+0x10a>
 10a:	e7ff      	b.n	10c <app::app_network::send_sensor_data+0x10c>
 10c:	e7c9      	b.n	a2 <app::app_network::send_sensor_data+0xa2>
 10e:	f89d 00e1 	ldrb.w	r0, [sp, #225]	; 0xe1
 112:	f88d 0103 	strb.w	r0, [sp, #259]	; 0x103
 116:	f89d 0103 	ldrb.w	r0, [sp, #259]	; 0x103
 11a:	f88d 00df 	strb.w	r0, [sp, #223]	; 0xdf
c:\PineTime\pinetime-rust-mynewt/rust\app\src/app_network.rs:94
    if !rc { return Err(MynewtError::SYS_EAGAIN); }
 11e:	f89d 00df 	ldrb.w	r0, [sp, #223]	; 0xdf
 122:	07c0      	lsls	r0, r0, #31
 124:	2800      	cmp	r0, #0
 126:	d005      	beq.n	134 <app::app_network::send_sensor_data+0x134>
 128:	e7ff      	b.n	12a <app::app_network::send_sensor_data+0x12a>
 12a:	a845      	add	r0, sp, #276	; 0x114
 12c:	2132      	movs	r1, #50	; 0x32
c:\PineTime\pinetime-rust-mynewt/rust\app\src/app_network.rs:98
    let _payload = coap!( @json {        
 12e:	f7ff fffe 	bl	0 <mynewt::libs::sensor_network::prepare_post>
 132:	e005      	b.n	140 <app::app_network::send_sensor_data+0x140>
 134:	f06f 0005 	mvn.w	r0, #5
c:\PineTime\pinetime-rust-mynewt/rust\app\src/app_network.rs:94
    if !rc { return Err(MynewtError::SYS_EAGAIN); }
 138:	9041      	str	r0, [sp, #260]	; 0x104
 13a:	9841      	ldr	r0, [sp, #260]	; 0x104
 13c:	9026      	str	r0, [sp, #152]	; 0x98
 13e:	e7e5      	b.n	10c <app::app_network::send_sensor_data+0x10c>
 140:	a843      	add	r0, sp, #268	; 0x10c
 142:	a945      	add	r1, sp, #276	; 0x114
c:\PineTime\pinetime-rust-mynewt/rust\app\src/app_network.rs:98
    let _payload = coap!( @json {        
 144:	f7ff fffe 	bl	0 <<core::result::Result<T,E> as core::ops::try::Try>::into_result>
 148:	e7ff      	b.n	14a <app::app_network::send_sensor_data+0x14a>
 14a:	f89d 010c 	ldrb.w	r0, [sp, #268]	; 0x10c
 14e:	07c1      	lsls	r1, r0, #31
 150:	2900      	cmp	r1, #0
 152:	d010      	beq.n	176 <app::app_network::send_sensor_data+0x176>
 154:	e7ff      	b.n	156 <app::app_network::send_sensor_data+0x156>
 156:	e000      	b.n	15a <app::app_network::send_sensor_data+0x15a>
 158:	defe      	udf	#254	; 0xfe
 15a:	9844      	ldr	r0, [sp, #272]	; 0x110
 15c:	9047      	str	r0, [sp, #284]	; 0x11c
 15e:	9847      	ldr	r0, [sp, #284]	; 0x11c
 160:	f7ff fffe 	bl	0 <<T as core::convert::From<T>>::from>
 164:	9022      	str	r0, [sp, #136]	; 0x88
 166:	e7ff      	b.n	168 <app::app_network::send_sensor_data+0x168>
 168:	9822      	ldr	r0, [sp, #136]	; 0x88
 16a:	f7ff fffe 	bl	0 <<core::result::Result<T,E> as core::ops::try::Try>::from_error>
 16e:	9026      	str	r0, [sp, #152]	; 0x98
 170:	e7ff      	b.n	172 <app::app_network::send_sensor_data+0x172>
 172:	e7ff      	b.n	174 <app::app_network::send_sensor_data+0x174>
 174:	e7ca      	b.n	10c <app::app_network::send_sensor_data+0x10c>
 176:	f89d 010d 	ldrb.w	r0, [sp, #269]	; 0x10d
 17a:	f88d 0123 	strb.w	r0, [sp, #291]	; 0x123
 17e:	f7ff fffe 	bl	0 <json_rep_start_root_object>
 182:	e7ff      	b.n	2 <app::app_network::send_sensor_data+0x2>
 184:	f240 0000 	movw	r0, #0
 188:	f2c0 0000 	movt	r0, #0
 18c:	9049      	str	r0, [sp, #292]	; 0x124
 18e:	2007      	movs	r0, #7
 190:	904a      	str	r0, [sp, #296]	; 0x128
 192:	f240 0000 	movw	r0, #0
 196:	f2c0 0000 	movt	r0, #0
 19a:	f7ff fffe 	bl	0 <mynewt::encoding::coap_context::CoapContext::to_void_ptr>
 19e:	9021      	str	r0, [sp, #132]	; 0x84
 1a0:	e7ff      	b.n	1a2 <app::app_network::send_sensor_data+0x1a2>
 1a2:	9849      	ldr	r0, [sp, #292]	; 0x124
 1a4:	994a      	ldr	r1, [sp, #296]	; 0x128
 1a6:	907e      	str	r0, [sp, #504]	; 0x1f8
 1a8:	917f      	str	r1, [sp, #508]	; 0x1fc
_ZN4core3str21_$LT$impl$u20$str$GT$8as_bytes17h724e50c34863b638E():
/rustc/412f43ac5b4ae8c3599e71c6972112e9be4758fa/src/libcore/str/mod.rs:2179
 1aa:	987e      	ldr	r0, [sp, #504]	; 0x1f8
 1ac:	997f      	ldr	r1, [sp, #508]	; 0x1fc
 1ae:	9080      	str	r0, [sp, #512]	; 0x200
 1b0:	9181      	str	r1, [sp, #516]	; 0x204
 1b2:	9980      	ldr	r1, [sp, #512]	; 0x200
 1b4:	9a81      	ldr	r2, [sp, #516]	; 0x204
_ZN3app11app_network16send_sensor_data17h1f8310a0d403bb32E():
c:\PineTime\pinetime-rust-mynewt/rust\app\src/app_network.rs:98
 1b6:	9120      	str	r1, [sp, #128]	; 0x80
 1b8:	921f      	str	r2, [sp, #124]	; 0x7c
 1ba:	e7ff      	b.n	1bc <app::app_network::send_sensor_data+0x1bc>
 1bc:	f240 0000 	movw	r0, #0
 1c0:	f2c0 0000 	movt	r0, #0
 1c4:	9920      	ldr	r1, [sp, #128]	; 0x80
 1c6:	9a1f      	ldr	r2, [sp, #124]	; 0x7c
 1c8:	f7ff fffe 	bl	0 <mynewt::encoding::coap_context::CoapContext::key_to_cstr>
 1cc:	901e      	str	r0, [sp, #120]	; 0x78
 1ce:	e7ff      	b.n	1d0 <app::app_network::send_sensor_data+0x1d0>
 1d0:	9821      	ldr	r0, [sp, #132]	; 0x84
 1d2:	991e      	ldr	r1, [sp, #120]	; 0x78
 1d4:	f7ff fffe 	bl	0 <json_helper_set_array>
 1d8:	e7ff      	b.n	1da <app::app_network::send_sensor_data+0x1da>
 1da:	9825      	ldr	r0, [sp, #148]	; 0x94
 1dc:	68c1      	ldr	r1, [r0, #12]
 1de:	6900      	ldr	r0, [r0, #16]
 1e0:	914b      	str	r1, [sp, #300]	; 0x12c
 1e2:	904c      	str	r0, [sp, #304]	; 0x130
 1e4:	9825      	ldr	r0, [sp, #148]	; 0x94
 1e6:	6840      	ldr	r0, [r0, #4]
 1e8:	2801      	cmp	r0, #1
 1ea:	d00c      	beq.n	206 <app::app_network::send_sensor_data+0x206>
 1ec:	e7ff      	b.n	1ee <app::app_network::send_sensor_data+0x1ee>
 1ee:	2001      	movs	r0, #1
 1f0:	f88d 0193 	strb.w	r0, [sp, #403]	; 0x193
 1f4:	f89d 1193 	ldrb.w	r1, [sp, #403]	; 0x193
 1f8:	f240 0000 	movw	r0, #0
 1fc:	f2c0 0000 	movt	r0, #0
 200:	f7ff fffe 	bl	0 <mynewt::encoding::coap_context::CoapContext::fail>
 204:	e0d7      	b.n	3b6 <app::app_network::send_sensor_data+0x3b6>
 206:	9825      	ldr	r0, [sp, #148]	; 0x94
 208:	6880      	ldr	r0, [r0, #8]
 20a:	904d      	str	r0, [sp, #308]	; 0x134
 20c:	f240 0000 	movw	r0, #0
 210:	f2c0 0000 	movt	r0, #0
 214:	904e      	str	r0, [sp, #312]	; 0x138
 216:	200d      	movs	r0, #13
 218:	904f      	str	r0, [sp, #316]	; 0x13c
 21a:	984e      	ldr	r0, [sp, #312]	; 0x138
 21c:	994f      	ldr	r1, [sp, #316]	; 0x13c
 21e:	9092      	str	r0, [sp, #584]	; 0x248
 220:	9193      	str	r1, [sp, #588]	; 0x24c
_ZN4core3str21_$LT$impl$u20$str$GT$8as_bytes17h724e50c34863b638E():
/rustc/412f43ac5b4ae8c3599e71c6972112e9be4758fa/src/libcore/str/mod.rs:2179
 222:	9892      	ldr	r0, [sp, #584]	; 0x248
 224:	9993      	ldr	r1, [sp, #588]	; 0x24c
 226:	9094      	str	r0, [sp, #592]	; 0x250
 228:	9195      	str	r1, [sp, #596]	; 0x254
 22a:	9994      	ldr	r1, [sp, #592]	; 0x250
 22c:	9a95      	ldr	r2, [sp, #596]	; 0x254
_ZN3app11app_network16send_sensor_data17h1f8310a0d403bb32E():
c:\PineTime\pinetime-rust-mynewt/rust\app\src/app_network.rs:98
 22e:	911d      	str	r1, [sp, #116]	; 0x74
 230:	921c      	str	r2, [sp, #112]	; 0x70
 232:	e7ff      	b.n	234 <app::app_network::send_sensor_data+0x234>
 234:	f240 0000 	movw	r0, #0
 238:	f2c0 0000 	movt	r0, #0
 23c:	991d      	ldr	r1, [sp, #116]	; 0x74
 23e:	9a1c      	ldr	r2, [sp, #112]	; 0x70
 240:	f7ff fffe 	bl	0 <mynewt::encoding::coap_context::CoapContext::key_to_cstr>
 244:	901b      	str	r0, [sp, #108]	; 0x6c
 246:	e7ff      	b.n	248 <app::app_network::send_sensor_data+0x248>
 248:	981b      	ldr	r0, [sp, #108]	; 0x6c
 24a:	f7ff fffe 	bl	0 <json_helper_object_array_start_item>
 24e:	e7ff      	b.n	2 <app::app_network::send_sensor_data+0x2>
 250:	f240 0000 	movw	r0, #0
 254:	f2c0 0000 	movt	r0, #0
 258:	2103      	movs	r1, #3
 25a:	f7ff fffe 	bl	0 <<str as mynewt::encoding::coap_context::ToBytesOptionalNull>::to_bytes_optional_nul>
 25e:	901a      	str	r0, [sp, #104]	; 0x68
 260:	9119      	str	r1, [sp, #100]	; 0x64
 262:	e7ff      	b.n	264 <app::app_network::send_sensor_data+0x264>
 264:	981a      	ldr	r0, [sp, #104]	; 0x68
 266:	9050      	str	r0, [sp, #320]	; 0x140
 268:	9919      	ldr	r1, [sp, #100]	; 0x64
 26a:	9151      	str	r1, [sp, #324]	; 0x144
 26c:	9a25      	ldr	r2, [sp, #148]	; 0x94
 26e:	6810      	ldr	r0, [r2, #0]
 270:	f7ff fffe 	bl	0 <<mynewt::Strn as mynewt::encoding::coap_context::ToBytesOptionalNull>::to_bytes_optional_nul>
 274:	9018      	str	r0, [sp, #96]	; 0x60
 276:	9117      	str	r1, [sp, #92]	; 0x5c
 278:	e7ff      	b.n	27a <app::app_network::send_sensor_data+0x27a>
 27a:	9818      	ldr	r0, [sp, #96]	; 0x60
 27c:	9052      	str	r0, [sp, #328]	; 0x148
 27e:	9917      	ldr	r1, [sp, #92]	; 0x5c
 280:	9153      	str	r1, [sp, #332]	; 0x14c
 282:	f240 0000 	movw	r0, #0
 286:	f2c0 0000 	movt	r0, #0
 28a:	f7ff fffe 	bl	0 <mynewt::encoding::coap_context::CoapContext::to_void_ptr>
 28e:	9016      	str	r0, [sp, #88]	; 0x58
 290:	e7ff      	b.n	292 <app::app_network::send_sensor_data+0x292>
 292:	9950      	ldr	r1, [sp, #320]	; 0x140
 294:	9a51      	ldr	r2, [sp, #324]	; 0x144
 296:	f240 0000 	movw	r0, #0
 29a:	f2c0 0000 	movt	r0, #0
 29e:	f7ff fffe 	bl	0 <mynewt::encoding::coap_context::CoapContext::key_to_cstr>
 2a2:	9015      	str	r0, [sp, #84]	; 0x54
 2a4:	e7ff      	b.n	2a6 <app::app_network::send_sensor_data+0x2a6>
 2a6:	9952      	ldr	r1, [sp, #328]	; 0x148
 2a8:	9a53      	ldr	r2, [sp, #332]	; 0x14c
 2aa:	f240 0000 	movw	r0, #0
 2ae:	f2c0 0000 	movt	r0, #0
 2b2:	f7ff fffe 	bl	0 <mynewt::encoding::coap_context::CoapContext::value_to_cstr>
 2b6:	9014      	str	r0, [sp, #80]	; 0x50
 2b8:	e7ff      	b.n	2ba <app::app_network::send_sensor_data+0x2ba>
 2ba:	9816      	ldr	r0, [sp, #88]	; 0x58
 2bc:	9915      	ldr	r1, [sp, #84]	; 0x54
 2be:	9a14      	ldr	r2, [sp, #80]	; 0x50
 2c0:	f7ff fffe 	bl	0 <json_helper_set_text_string>
 2c4:	e7ff      	b.n	2 <app::app_network::send_sensor_data+0x2>
 2c6:	f240 0000 	movw	r0, #0
 2ca:	f2c0 0000 	movt	r0, #0
 2ce:	2105      	movs	r1, #5
 2d0:	f7ff fffe 	bl	0 <<str as mynewt::encoding::coap_context::ToBytesOptionalNull>::to_bytes_optional_nul>
 2d4:	9013      	str	r0, [sp, #76]	; 0x4c
 2d6:	9112      	str	r1, [sp, #72]	; 0x48
 2d8:	e7ff      	b.n	2da <app::app_network::send_sensor_data+0x2da>
 2da:	9813      	ldr	r0, [sp, #76]	; 0x4c
 2dc:	9054      	str	r0, [sp, #336]	; 0x150
 2de:	9912      	ldr	r1, [sp, #72]	; 0x48
 2e0:	9155      	str	r1, [sp, #340]	; 0x154
 2e2:	9a4d      	ldr	r2, [sp, #308]	; 0x134
 2e4:	2300      	movs	r3, #0
 2e6:	9357      	str	r3, [sp, #348]	; 0x15c
 2e8:	9256      	str	r2, [sp, #344]	; 0x158
 2ea:	f240 0000 	movw	r0, #0
 2ee:	f2c0 0000 	movt	r0, #0
 2f2:	f7ff fffe 	bl	0 <mynewt::encoding::coap_context::CoapContext::to_void_ptr>
 2f6:	9011      	str	r0, [sp, #68]	; 0x44
 2f8:	e7ff      	b.n	2fa <app::app_network::send_sensor_data+0x2fa>
 2fa:	9954      	ldr	r1, [sp, #336]	; 0x150
 2fc:	9a55      	ldr	r2, [sp, #340]	; 0x154
 2fe:	f240 0000 	movw	r0, #0
 302:	f2c0 0000 	movt	r0, #0
 306:	f7ff fffe 	bl	0 <mynewt::encoding::coap_context::CoapContext::key_to_cstr>
 30a:	9010      	str	r0, [sp, #64]	; 0x40
 30c:	e7ff      	b.n	30e <app::app_network::send_sensor_data+0x30e>
 30e:	9a56      	ldr	r2, [sp, #344]	; 0x158
 310:	9b57      	ldr	r3, [sp, #348]	; 0x15c
 312:	9811      	ldr	r0, [sp, #68]	; 0x44
 314:	9910      	ldr	r1, [sp, #64]	; 0x40
 316:	f7ff fffe 	bl	0 <json_helper_set_int>
 31a:	e7ff      	b.n	2 <app::app_network::send_sensor_data+0x2>
 31c:	f240 0100 	movw	r1, #0
 320:	f2c0 0100 	movt	r1, #0
 324:	a859      	add	r0, sp, #356	; 0x164
 326:	2204      	movs	r2, #4
 328:	f7ff fffe 	bl	0 <mynewt::Strn::new>
 32c:	e7ff      	b.n	6 <app::app_network::send_sensor_data+0x6>
 32e:	f240 0100 	movw	r1, #0
 332:	f2c0 0100 	movt	r1, #0
 336:	a85c      	add	r0, sp, #368	; 0x170
 338:	2204      	movs	r2, #4
 33a:	f7ff fffe 	bl	0 <mynewt::Strn::new>
 33e:	e7ff      	b.n	2 <app::app_network::send_sensor_data+0x2>
 340:	f240 0100 	movw	r1, #0
 344:	f2c0 0100 	movt	r1, #0
 348:	a85f      	add	r0, sp, #380	; 0x17c
 34a:	2205      	movs	r2, #5
 34c:	f7ff fffe 	bl	0 <mynewt::Strn::new>
 350:	e7ff      	b.n	352 <app::app_network::send_sensor_data+0x352>
 352:	984b      	ldr	r0, [sp, #300]	; 0x12c
 354:	994c      	ldr	r1, [sp, #304]	; 0x130
 356:	466a      	mov	r2, sp
 358:	6051      	str	r1, [r2, #4]
 35a:	6010      	str	r0, [r2, #0]
 35c:	f240 0000 	movw	r0, #0
 360:	f2c0 0000 	movt	r0, #0
 364:	a959      	add	r1, sp, #356	; 0x164
 366:	aa5c      	add	r2, sp, #368	; 0x170
 368:	ab5f      	add	r3, sp, #380	; 0x17c
 36a:	f7ff fffe 	bl	0 <mynewt::encoding::coap_context::CoapContext::json_set_geolocation>
 36e:	e7ff      	b.n	2 <app::app_network::send_sensor_data+0x2>
 370:	f240 0000 	movw	r0, #0
 374:	f2c0 0000 	movt	r0, #0
 378:	9062      	str	r0, [sp, #392]	; 0x188
 37a:	200d      	movs	r0, #13
 37c:	9063      	str	r0, [sp, #396]	; 0x18c
 37e:	9862      	ldr	r0, [sp, #392]	; 0x188
 380:	9963      	ldr	r1, [sp, #396]	; 0x18c
 382:	908e      	str	r0, [sp, #568]	; 0x238
 384:	918f      	str	r1, [sp, #572]	; 0x23c
_ZN4core3str21_$LT$impl$u20$str$GT$8as_bytes17h724e50c34863b638E():
/rustc/412f43ac5b4ae8c3599e71c6972112e9be4758fa/src/libcore/str/mod.rs:2179
 386:	988e      	ldr	r0, [sp, #568]	; 0x238
 388:	998f      	ldr	r1, [sp, #572]	; 0x23c
 38a:	9090      	str	r0, [sp, #576]	; 0x240
 38c:	9191      	str	r1, [sp, #580]	; 0x244
 38e:	9990      	ldr	r1, [sp, #576]	; 0x240
 390:	9a91      	ldr	r2, [sp, #580]	; 0x244
_ZN3app11app_network16send_sensor_data17h1f8310a0d403bb32E():
c:\PineTime\pinetime-rust-mynewt/rust\app\src/app_network.rs:98
 392:	910f      	str	r1, [sp, #60]	; 0x3c
 394:	920e      	str	r2, [sp, #56]	; 0x38
 396:	e7ff      	b.n	398 <app::app_network::send_sensor_data+0x398>
 398:	f240 0000 	movw	r0, #0
 39c:	f2c0 0000 	movt	r0, #0
 3a0:	990f      	ldr	r1, [sp, #60]	; 0x3c
 3a2:	9a0e      	ldr	r2, [sp, #56]	; 0x38
 3a4:	f7ff fffe 	bl	0 <mynewt::encoding::coap_context::CoapContext::key_to_cstr>
 3a8:	900d      	str	r0, [sp, #52]	; 0x34
 3aa:	e7ff      	b.n	3ac <app::app_network::send_sensor_data+0x3ac>
 3ac:	980d      	ldr	r0, [sp, #52]	; 0x34
 3ae:	f7ff fffe 	bl	0 <json_helper_object_array_end_item>
 3b2:	e7ff      	b.n	3b4 <app::app_network::send_sensor_data+0x3b4>
 3b4:	e000      	b.n	3b8 <app::app_network::send_sensor_data+0x3b8>
 3b6:	e7ff      	b.n	3b8 <app::app_network::send_sensor_data+0x3b8>
 3b8:	f240 0000 	movw	r0, #0
 3bc:	f2c0 0000 	movt	r0, #0
 3c0:	9065      	str	r0, [sp, #404]	; 0x194
 3c2:	200d      	movs	r0, #13
 3c4:	9066      	str	r0, [sp, #408]	; 0x198
 3c6:	9865      	ldr	r0, [sp, #404]	; 0x194
 3c8:	9966      	ldr	r1, [sp, #408]	; 0x198
 3ca:	908a      	str	r0, [sp, #552]	; 0x228
 3cc:	918b      	str	r1, [sp, #556]	; 0x22c
_ZN4core3str21_$LT$impl$u20$str$GT$8as_bytes17h724e50c34863b638E():
/rustc/412f43ac5b4ae8c3599e71c6972112e9be4758fa/src/libcore/str/mod.rs:2179
 3ce:	988a      	ldr	r0, [sp, #552]	; 0x228
 3d0:	998b      	ldr	r1, [sp, #556]	; 0x22c
 3d2:	908c      	str	r0, [sp, #560]	; 0x230
 3d4:	918d      	str	r1, [sp, #564]	; 0x234
 3d6:	998c      	ldr	r1, [sp, #560]	; 0x230
 3d8:	9a8d      	ldr	r2, [sp, #564]	; 0x234
_ZN3app11app_network16send_sensor_data17h1f8310a0d403bb32E():
c:\PineTime\pinetime-rust-mynewt/rust\app\src/app_network.rs:98
 3da:	910c      	str	r1, [sp, #48]	; 0x30
 3dc:	920b      	str	r2, [sp, #44]	; 0x2c
 3de:	e7ff      	b.n	3e0 <app::app_network::send_sensor_data+0x3e0>
 3e0:	f240 0000 	movw	r0, #0
 3e4:	f2c0 0000 	movt	r0, #0
 3e8:	990c      	ldr	r1, [sp, #48]	; 0x30
 3ea:	9a0b      	ldr	r2, [sp, #44]	; 0x2c
 3ec:	f7ff fffe 	bl	0 <mynewt::encoding::coap_context::CoapContext::key_to_cstr>
 3f0:	900a      	str	r0, [sp, #40]	; 0x28
 3f2:	e7ff      	b.n	3f4 <app::app_network::send_sensor_data+0x3f4>
 3f4:	980a      	ldr	r0, [sp, #40]	; 0x28
 3f6:	f7ff fffe 	bl	0 <json_helper_object_array_start_item>
 3fa:	e7ff      	b.n	a <app::app_network::send_sensor_data+0xa>
 3fc:	f240 0100 	movw	r1, #0
 400:	f2c0 0100 	movt	r1, #0
 404:	a868      	add	r0, sp, #416	; 0x1a0
 406:	2204      	movs	r2, #4
 408:	f7ff fffe 	bl	0 <mynewt::Strn::new>
 40c:	e7ff      	b.n	40e <app::app_network::send_sensor_data+0x40e>
 40e:	a868      	add	r0, sp, #416	; 0x1a0
 410:	9067      	str	r0, [sp, #412]	; 0x19c
 412:	f240 0100 	movw	r1, #0
 416:	f2c0 0100 	movt	r1, #0
 41a:	a86c      	add	r0, sp, #432	; 0x1b0
 41c:	2207      	movs	r2, #7
 41e:	f7ff fffe 	bl	0 <mynewt::Strn::new>
 422:	e7ff      	b.n	424 <app::app_network::send_sensor_data+0x424>
 424:	a86c      	add	r0, sp, #432	; 0x1b0
 426:	906b      	str	r0, [sp, #428]	; 0x1ac
 428:	9967      	ldr	r1, [sp, #412]	; 0x19c
 42a:	9a6b      	ldr	r2, [sp, #428]	; 0x1ac
 42c:	f240 0000 	movw	r0, #0
 430:	f2c0 0000 	movt	r0, #0
 434:	f7ff fffe 	bl	0 <mynewt::encoding::coap_context::CoapContext::json_set_text_string>
 438:	e7ff      	b.n	2 <app::app_network::send_sensor_data+0x2>
 43a:	f240 0100 	movw	r1, #0
 43e:	f2c0 0100 	movt	r1, #0
 442:	a870      	add	r0, sp, #448	; 0x1c0
 444:	2206      	movs	r2, #6
 446:	f7ff fffe 	bl	0 <mynewt::Strn::new>
 44a:	e7ff      	b.n	44c <app::app_network::send_sensor_data+0x44c>
 44c:	a870      	add	r0, sp, #448	; 0x1c0
 44e:	906f      	str	r0, [sp, #444]	; 0x1bc
 450:	a828      	add	r0, sp, #160	; 0xa0
c:\PineTime\pinetime-rust-mynewt/rust\app\src/app_network.rs:107
        "device": &device_id,
 452:	9073      	str	r0, [sp, #460]	; 0x1cc
c:\PineTime\pinetime-rust-mynewt/rust\app\src/app_network.rs:98
    let _payload = coap!( @json {        
 454:	996f      	ldr	r1, [sp, #444]	; 0x1bc
 456:	9a73      	ldr	r2, [sp, #460]	; 0x1cc
 458:	f240 0000 	movw	r0, #0
 45c:	f2c0 0000 	movt	r0, #0
 460:	f7ff fffe 	bl	0 <mynewt::encoding::coap_context::CoapContext::json_set_text_string>
 464:	e7ff      	b.n	2 <app::app_network::send_sensor_data+0x2>
 466:	f240 0000 	movw	r0, #0
 46a:	f2c0 0000 	movt	r0, #0
 46e:	9074      	str	r0, [sp, #464]	; 0x1d0
 470:	200d      	movs	r0, #13
 472:	9075      	str	r0, [sp, #468]	; 0x1d4
 474:	9874      	ldr	r0, [sp, #464]	; 0x1d0
 476:	9975      	ldr	r1, [sp, #468]	; 0x1d4
 478:	9086      	str	r0, [sp, #536]	; 0x218
 47a:	9187      	str	r1, [sp, #540]	; 0x21c
_ZN4core3str21_$LT$impl$u20$str$GT$8as_bytes17h724e50c34863b638E():
/rustc/412f43ac5b4ae8c3599e71c6972112e9be4758fa/src/libcore/str/mod.rs:2179
 47c:	9886      	ldr	r0, [sp, #536]	; 0x218
 47e:	9987      	ldr	r1, [sp, #540]	; 0x21c
 480:	9088      	str	r0, [sp, #544]	; 0x220
 482:	9189      	str	r1, [sp, #548]	; 0x224
 484:	9988      	ldr	r1, [sp, #544]	; 0x220
 486:	9a89      	ldr	r2, [sp, #548]	; 0x224
_ZN3app11app_network16send_sensor_data17h1f8310a0d403bb32E():
c:\PineTime\pinetime-rust-mynewt/rust\app\src/app_network.rs:98
 488:	9109      	str	r1, [sp, #36]	; 0x24
 48a:	9208      	str	r2, [sp, #32]
 48c:	e7ff      	b.n	48e <app::app_network::send_sensor_data+0x48e>
 48e:	f240 0000 	movw	r0, #0
 492:	f2c0 0000 	movt	r0, #0
 496:	9909      	ldr	r1, [sp, #36]	; 0x24
 498:	9a08      	ldr	r2, [sp, #32]
 49a:	f7ff fffe 	bl	0 <mynewt::encoding::coap_context::CoapContext::key_to_cstr>
 49e:	9007      	str	r0, [sp, #28]
 4a0:	e7ff      	b.n	4a2 <app::app_network::send_sensor_data+0x4a2>
 4a2:	9807      	ldr	r0, [sp, #28]
 4a4:	f7ff fffe 	bl	0 <json_helper_object_array_end_item>
 4a8:	e7ff      	b.n	2 <app::app_network::send_sensor_data+0x2>
 4aa:	f240 0000 	movw	r0, #0
 4ae:	f2c0 0000 	movt	r0, #0
 4b2:	9076      	str	r0, [sp, #472]	; 0x1d8
 4b4:	2007      	movs	r0, #7
 4b6:	9077      	str	r0, [sp, #476]	; 0x1dc
 4b8:	f240 0000 	movw	r0, #0
 4bc:	f2c0 0000 	movt	r0, #0
 4c0:	f7ff fffe 	bl	0 <mynewt::encoding::coap_context::CoapContext::to_void_ptr>
 4c4:	9006      	str	r0, [sp, #24]
 4c6:	e7ff      	b.n	4c8 <app::app_network::send_sensor_data+0x4c8>
 4c8:	9876      	ldr	r0, [sp, #472]	; 0x1d8
 4ca:	9977      	ldr	r1, [sp, #476]	; 0x1dc
 4cc:	9082      	str	r0, [sp, #520]	; 0x208
 4ce:	9183      	str	r1, [sp, #524]	; 0x20c
_ZN4core3str21_$LT$impl$u20$str$GT$8as_bytes17h724e50c34863b638E():
/rustc/412f43ac5b4ae8c3599e71c6972112e9be4758fa/src/libcore/str/mod.rs:2179
 4d0:	9882      	ldr	r0, [sp, #520]	; 0x208
 4d2:	9983      	ldr	r1, [sp, #524]	; 0x20c
 4d4:	9084      	str	r0, [sp, #528]	; 0x210
 4d6:	9185      	str	r1, [sp, #532]	; 0x214
 4d8:	9984      	ldr	r1, [sp, #528]	; 0x210
 4da:	9a85      	ldr	r2, [sp, #532]	; 0x214
_ZN3app11app_network16send_sensor_data17h1f8310a0d403bb32E():
c:\PineTime\pinetime-rust-mynewt/rust\app\src/app_network.rs:98
 4dc:	9105      	str	r1, [sp, #20]
 4de:	9204      	str	r2, [sp, #16]
 4e0:	e7ff      	b.n	4e2 <app::app_network::send_sensor_data+0x4e2>
 4e2:	f240 0000 	movw	r0, #0
 4e6:	f2c0 0000 	movt	r0, #0
 4ea:	9905      	ldr	r1, [sp, #20]
 4ec:	9a04      	ldr	r2, [sp, #16]
 4ee:	f7ff fffe 	bl	0 <mynewt::encoding::coap_context::CoapContext::key_to_cstr>
 4f2:	9003      	str	r0, [sp, #12]
 4f4:	e7ff      	b.n	4f6 <app::app_network::send_sensor_data+0x4f6>
 4f6:	9806      	ldr	r0, [sp, #24]
 4f8:	9903      	ldr	r1, [sp, #12]
 4fa:	f7ff fffe 	bl	0 <json_helper_close_array>
 4fe:	e7ff      	b.n	2 <json_rep_end_root_object+0x2>
 500:	f7ff fffe 	bl	0 <json_rep_end_root_object>
 504:	e7ff      	b.n	506 <app::app_network::send_sensor_data+0x506>
 506:	a87a      	add	r0, sp, #488	; 0x1e8
c:\PineTime\pinetime-rust-mynewt/rust\app\src/app_network.rs:113
    sensor_network::do_server_post() ? ;
 508:	f7ff fffe 	bl	0 <mynewt::libs::sensor_network::do_server_post>
 50c:	e7ff      	b.n	50e <app::app_network::send_sensor_data+0x50e>
 50e:	a878      	add	r0, sp, #480	; 0x1e0
 510:	a97a      	add	r1, sp, #488	; 0x1e8
 512:	f7ff fffe 	bl	0 <<core::result::Result<T,E> as core::ops::try::Try>::into_result>
 516:	e7ff      	b.n	518 <app::app_network::send_sensor_data+0x518>
 518:	f89d 01e0 	ldrb.w	r0, [sp, #480]	; 0x1e0
 51c:	07c1      	lsls	r1, r0, #31
 51e:	2900      	cmp	r1, #0
 520:	d00f      	beq.n	542 <app::app_network::send_sensor_data+0x542>
 522:	e7ff      	b.n	524 <app::app_network::send_sensor_data+0x524>
 524:	e000      	b.n	528 <app::app_network::send_sensor_data+0x528>
 526:	defe      	udf	#254	; 0xfe
 528:	9879      	ldr	r0, [sp, #484]	; 0x1e4
 52a:	907c      	str	r0, [sp, #496]	; 0x1f0
 52c:	987c      	ldr	r0, [sp, #496]	; 0x1f0
 52e:	f7ff fffe 	bl	0 <<T as core::convert::From<T>>::from>
 532:	9002      	str	r0, [sp, #8]
 534:	e7ff      	b.n	536 <app::app_network::send_sensor_data+0x536>
 536:	9802      	ldr	r0, [sp, #8]
 538:	f7ff fffe 	bl	0 <<core::result::Result<T,E> as core::ops::try::Try>::from_error>
 53c:	9026      	str	r0, [sp, #152]	; 0x98
 53e:	e7ff      	b.n	540 <app::app_network::send_sensor_data+0x540>
 540:	e618      	b.n	174 <app::app_network::send_sensor_data+0x174>
 542:	f89d 01e1 	ldrb.w	r0, [sp, #481]	; 0x1e1
 546:	f88d 01f7 	strb.w	r0, [sp, #503]	; 0x1f7
c:\PineTime\pinetime-rust-mynewt/rust\app\src/app_network.rs:116
    console::print("NET view your sensor at \nhttps://blue-pill-geolocate.appspot.com?device=");
 54a:	f240 0000 	movw	r0, #0
 54e:	f2c0 0000 	movt	r0, #0
 552:	2148      	movs	r1, #72	; 0x48
 554:	f7ff fffe 	bl	0 <mynewt::sys::console::print>
 558:	e7ff      	b.n	55a <app::app_network::send_sensor_data+0x55a>
 55a:	a828      	add	r0, sp, #160	; 0xa0
c:\PineTime\pinetime-rust-mynewt/rust\app\src/app_network.rs:117
    console::print_strn(&device_id); console::print("\n");
 55c:	f7ff fffe 	bl	0 <mynewt::sys::console::print_strn>
 560:	e7ff      	b.n	2 <app::app_network::send_sensor_data+0x2>
 562:	f240 0000 	movw	r0, #0
 566:	f2c0 0000 	movt	r0, #0
 56a:	2101      	movs	r1, #1
 56c:	f7ff fffe 	bl	0 <mynewt::sys::console::print>
 570:	e7ff      	b.n	572 <app::app_network::send_sensor_data+0x572>
 572:	2000      	movs	r0, #0
c:\PineTime\pinetime-rust-mynewt/rust\app\src/app_network.rs:120
    Ok(())
 574:	9026      	str	r0, [sp, #152]	; 0x98
 576:	2001      	movs	r0, #1
 578:	9026      	str	r0, [sp, #152]	; 0x98
c:\PineTime\pinetime-rust-mynewt/rust\app\src/app_network.rs:121
}
 57a:	e588      	b.n	8e <app::app_network::send_sensor_data+0x8e>

app-06a5867689f9e070.658iodb5tkfa3em.rcgu.o:     file format elf32-littlearm

SYMBOL TABLE:
00000000 l    df *ABS*	00000000 658iodb5tkfa3em
00001005 l       .debug_str	00000000 
000024a3 l       .debug_str	00000000 
0000249c l       .debug_str	00000000 
00002487 l       .debug_str	00000000 
00002474 l       .debug_str	00000000 
0000245f l       .debug_str	00000000 
000024ef l       .debug_str	00000000 
000024e6 l       .debug_str	00000000 
000024e2 l       .debug_str	00000000 
00000000 l       .debug_str	00000000 
00000041 l       .debug_str	00000000 
00000055 l       .debug_str	00000000 
00000076 l       .debug_str	00000000 
0000007a l       .debug_str	00000000 
00000085 l       .debug_str	00000000 
00000093 l       .debug_str	00000000 
0000009a l       .debug_str	00000000 
0000009e l       .debug_str	00000000 
000000a1 l       .debug_str	00000000 
000000a9 l       .debug_str	00000000 
000000ad l       .debug_str	00000000 
000000b6 l       .debug_str	00000000 
000000c0 l       .debug_str	00000000 
000000c7 l       .debug_str	00000000 
000000cd l       .debug_str	00000000 
000000d3 l       .debug_str	00000000 
000000d8 l       .debug_str	00000000 
000000e0 l       .debug_str	00000000 
000000e5 l       .debug_str	00000000 
0000011c l       .debug_str	00000000 
00000123 l       .debug_str	00000000 
00000127 l       .debug_str	00000000 
0000012f l       .debug_str	00000000 
0000013a l       .debug_str	00000000 
00000145 l       .debug_str	00000000 
00000152 l       .debug_str	00000000 
0000015d l       .debug_str	00000000 
00000165 l       .debug_str	00000000 
00000170 l       .debug_str	00000000 
0000017b l       .debug_str	00000000 
00000185 l       .debug_str	00000000 
00000190 l       .debug_str	00000000 
0000019b l       .debug_str	00000000 
000001a8 l       .debug_str	00000000 
000001b4 l       .debug_str	00000000 
000001c1 l       .debug_str	00000000 
000001cf l       .debug_str	00000000 
000001d9 l       .debug_str	00000000 
000001e6 l       .debug_str	00000000 
000001f2 l       .debug_str	00000000 
000001f7 l       .debug_str	00000000 
000001fb l       .debug_str	00000000 
00000206 l       .debug_str	00000000 
00000211 l       .debug_str	00000000 
00000218 l       .debug_str	00000000 
00000257 l       .debug_str	00000000 
0000026d l       .debug_str	00000000 
00000271 l       .debug_str	00000000 
00000274 l       .debug_str	00000000 
00000277 l       .debug_str	00000000 
00000279 l       .debug_str	00000000 
0000027b l       .debug_str	00000000 
0000027f l       .debug_str	00000000 
000002a7 l       .debug_str	00000000 
000002ae l       .debug_str	00000000 
000002b1 l       .debug_str	00000000 
000002ba l       .debug_str	00000000 
000002c0 l       .debug_str	00000000 
000002c7 l       .debug_str	00000000 
000002ca l       .debug_str	00000000 
000002d6 l       .debug_str	00000000 
000002de l       .debug_str	00000000 
000002e5 l       .debug_str	00000000 
000002ea l       .debug_str	00000000 
00000301 l       .debug_str	00000000 
0000035b l       .debug_str	00000000 
00000360 l       .debug_str	00000000 
000003c2 l       .debug_str	00000000 
000003cd l       .debug_str	00000000 
00000414 l       .debug_str	00000000 
00000463 l       .debug_str	00000000 
0000046d l       .debug_str	00000000 
000004aa l       .debug_str	00000000 
000004ef l       .debug_str	00000000 
000004f8 l       .debug_str	00000000 
00000508 l       .debug_str	00000000 
00000510 l       .debug_str	00000000 
00000565 l       .debug_str	00000000 
000005c2 l       .debug_str	00000000 
000005ce l       .debug_str	00000000 
000005d7 l       .debug_str	00000000 
000005e3 l       .debug_str	00000000 
000005ef l       .debug_str	00000000 
000005f8 l       .debug_str	00000000 
00000600 l       .debug_str	00000000 
00000608 l       .debug_str	00000000 
00000612 l       .debug_str	00000000 
00000627 l       .debug_str	00000000 
0000062e l       .debug_str	00000000 
0000064e l       .debug_str	00000000 
00000655 l       .debug_str	00000000 
0000065d l       .debug_str	00000000 
00000667 l       .debug_str	00000000 
00000672 l       .debug_str	00000000 
0000067b l       .debug_str	00000000 
00000686 l       .debug_str	00000000 
00000692 l       .debug_str	00000000 
00000696 l       .debug_str	00000000 
0000069f l       .debug_str	00000000 
000006a6 l       .debug_str	00000000 
000006ae l       .debug_str	00000000 
000006b6 l       .debug_str	00000000 
000006c0 l       .debug_str	00000000 
000006c6 l       .debug_str	00000000 
000006cd l       .debug_str	00000000 
000006d4 l       .debug_str	00000000 
00000701 l       .debug_str	00000000 
00000736 l       .debug_str	00000000 
0000073c l       .debug_str	00000000 
00000742 l       .debug_str	00000000 
00000751 l       .debug_str	00000000 
00000761 l       .debug_str	00000000 
00000771 l       .debug_str	00000000 
00000779 l       .debug_str	00000000 
000007a2 l       .debug_str	00000000 
00000800 l       .debug_str	00000000 
00000866 l       .debug_str	00000000 
0000086d l       .debug_str	00000000 
00000875 l       .debug_str	00000000 
0000087e l       .debug_str	00000000 
0000089c l       .debug_str	00000000 
000008ac l       .debug_str	00000000 
000008ba l       .debug_str	00000000 
000008c5 l       .debug_str	00000000 
000008d2 l       .debug_str	00000000 
000008e1 l       .debug_str	00000000 
000008f7 l       .debug_str	00000000 
00000901 l       .debug_str	00000000 
0000090a l       .debug_str	00000000 
00000913 l       .debug_str	00000000 
00000939 l       .debug_str	00000000 
0000094f l       .debug_str	00000000 
0000095a l       .debug_str	00000000 
00000970 l       .debug_str	00000000 
00000978 l       .debug_str	00000000 
00000999 l       .debug_str	00000000 
000009b0 l       .debug_str	00000000 
000009b5 l       .debug_str	00000000 
000009bd l       .debug_str	00000000 
000009c6 l       .debug_str	00000000 
000009cf l       .debug_str	00000000 
000009d8 l       .debug_str	00000000 
000009e0 l       .debug_str	00000000 
000009e4 l       .debug_str	00000000 
000009eb l       .debug_str	00000000 
000009f7 l       .debug_str	00000000 
00000a02 l       .debug_str	00000000 
00000a0a l       .debug_str	00000000 
00000a12 l       .debug_str	00000000 
00000a8e l       .debug_str	00000000 
00000b12 l       .debug_str	00000000 
00000c0e l       .debug_str	00000000 
00000d12 l       .debug_str	00000000 
00000d20 l       .debug_str	00000000 
00000d2b l       .debug_str	00000000 
00000d35 l       .debug_str	00000000 
00000d49 l       .debug_str	00000000 
00000d54 l       .debug_str	00000000 
00000d82 l       .debug_str	00000000 
00000dfd l       .debug_str	00000000 
00000e80 l       .debug_str	00000000 
00000e8e l       .debug_str	00000000 
00000eed l       .debug_str	00000000 
00000f54 l       .debug_str	00000000 
00000f6a l       .debug_str	00000000 
00000f7a l       .debug_str	00000000 
00000f89 l       .debug_str	00000000 
00000f8d l       .debug_str	00000000 
00000f94 l       .debug_str	00000000 
00000f9a l       .debug_str	00000000 
00000f9e l       .debug_str	00000000 
00000fa4 l       .debug_str	00000000 
00000faa l       .debug_str	00000000 
00000fb6 l       .debug_str	00000000 
00000fbe l       .debug_str	00000000 
00000fc4 l       .debug_str	00000000 
00000fcc l       .debug_str	00000000 
00000fd2 l       .debug_str	00000000 
00000ff5 l       .debug_str	00000000 
0000242c l       .debug_str	00000000 
00001038 l       .debug_str	00000000 
00001078 l       .debug_str	00000000 
000010c0 l       .debug_str	00000000 
000010c4 l       .debug_str	00000000 
000010ca l       .debug_str	00000000 
000010d0 l       .debug_str	00000000 
000010d6 l       .debug_str	00000000 
000010e8 l       .debug_str	00000000 
0000111d l       .debug_str	00000000 
0000115f l       .debug_str	00000000 
000011a9 l       .debug_str	00000000 
000011ad l       .debug_str	00000000 
000011b3 l       .debug_str	00000000 
000011b9 l       .debug_str	00000000 
000011bf l       .debug_str	00000000 
000011d1 l       .debug_str	00000000 
00001206 l       .debug_str	00000000 
00001248 l       .debug_str	00000000 
00001292 l       .debug_str	00000000 
00001296 l       .debug_str	00000000 
0000129c l       .debug_str	00000000 
000012a2 l       .debug_str	00000000 
000012a8 l       .debug_str	00000000 
000012ae l       .debug_str	00000000 
000012bf l       .debug_str	00000000 
000012f3 l       .debug_str	00000000 
00001334 l       .debug_str	00000000 
0000137d l       .debug_str	00000000 
00001382 l       .debug_str	00000000 
00001387 l       .debug_str	00000000 
0000138b l       .debug_str	00000000 
00001391 l       .debug_str	00000000 
00001397 l       .debug_str	00000000 
0000139d l       .debug_str	00000000 
000013ae l       .debug_str	00000000 
000013e2 l       .debug_str	00000000 
00001423 l       .debug_str	00000000 
0000146c l       .debug_str	00000000 
00001470 l       .debug_str	00000000 
00001479 l       .debug_str	00000000 
0000148a l       .debug_str	00000000 
000014be l       .debug_str	00000000 
000014ff l       .debug_str	00000000 
00001548 l       .debug_str	00000000 
0000154d l       .debug_str	00000000 
00001551 l       .debug_str	00000000 
0000155a l       .debug_str	00000000 
00001561 l       .debug_str	00000000 
00001569 l       .debug_str	00000000 
0000157b l       .debug_str	00000000 
000015b0 l       .debug_str	00000000 
000015f2 l       .debug_str	00000000 
0000163c l       .debug_str	00000000 
00001640 l       .debug_str	00000000 
00001646 l       .debug_str	00000000 
0000164c l       .debug_str	00000000 
00001652 l       .debug_str	00000000 
00001658 l       .debug_str	00000000 
00001660 l       .debug_str	00000000 
0000166e l       .debug_str	00000000 
0000167d l       .debug_str	00000000 
0000168e l       .debug_str	00000000 
00001699 l       .debug_str	00000000 
000016a4 l       .debug_str	00000000 
000016af l       .debug_str	00000000 
000016b6 l       .debug_str	00000000 
000016d9 l       .debug_str	00000000 
000016eb l       .debug_str	00000000 
00001720 l       .debug_str	00000000 
00001762 l       .debug_str	00000000 
000017ac l       .debug_str	00000000 
000017b0 l       .debug_str	00000000 
000017ba l       .debug_str	00000000 
000017cc l       .debug_str	00000000 
00001801 l       .debug_str	00000000 
00001843 l       .debug_str	00000000 
0000188d l       .debug_str	00000000 
00001892 l       .debug_str	00000000 
0000189c l       .debug_str	00000000 
000018ae l       .debug_str	00000000 
000018e3 l       .debug_str	00000000 
00001925 l       .debug_str	00000000 
0000196f l       .debug_str	00000000 
00001983 l       .debug_str	00000000 
00001987 l       .debug_str	00000000 
00001995 l       .debug_str	00000000 
000019a5 l       .debug_str	00000000 
000019ae l       .debug_str	00000000 
000019b9 l       .debug_str	00000000 
000019c8 l       .debug_str	00000000 
000019dd l       .debug_str	00000000 
00001a0e l       .debug_str	00000000 
00001aab l       .debug_str	00000000 
00001b50 l       .debug_str	00000000 
00001b5b l       .debug_str	00000000 
00001b64 l       .debug_str	00000000 
00001b85 l       .debug_str	00000000 
00001b98 l       .debug_str	00000000 
00001bce l       .debug_str	00000000 
00001c51 l       .debug_str	00000000 
00001cdc l       .debug_str	00000000 
00001cf8 l       .debug_str	00000000 
00001d44 l       .debug_str	00000000 
00001d98 l       .debug_str	00000000 
00001db5 l       .debug_str	00000000 
00001dc9 l       .debug_str	00000000 
00001e15 l       .debug_str	00000000 
00001e69 l       .debug_str	00000000 
00001e7f l       .debug_str	00000000 
00001e93 l       .debug_str	00000000 
00001eda l       .debug_str	00000000 
00001f29 l       .debug_str	00000000 
00001f32 l       .debug_str	00000000 
00001f40 l       .debug_str	00000000 
00001f71 l       .debug_str	00000000 
00001f77 l       .debug_str	00000000 
00001f7f l       .debug_str	00000000 
00001f86 l       .debug_str	00000000 
00001f8e l       .debug_str	00000000 
00001f99 l       .debug_str	00000000 
00001fa1 l       .debug_str	00000000 
00001fb0 l       .debug_str	00000000 
00001fb4 l       .debug_str	00000000 
00001fbf l       .debug_str	00000000 
00001fcb l       .debug_str	00000000 
00001fd6 l       .debug_str	00000000 
00001fe7 l       .debug_str	00000000 
00001fed l       .debug_str	00000000 
00001ff5 l       .debug_str	00000000 
00001ffc l       .debug_str	00000000 
00002006 l       .debug_str	00000000 
0000200e l       .debug_str	00000000 
00002016 l       .debug_str	00000000 
00002038 l       .debug_str	00000000 
00002043 l       .debug_str	00000000 
0000204f l       .debug_str	00000000 
00002057 l       .debug_str	00000000 
00002060 l       .debug_str	00000000 
0000206b l       .debug_str	00000000 
00002072 l       .debug_str	00000000 
0000207d l       .debug_str	00000000 
00002088 l       .debug_str	00000000 
00002098 l       .debug_str	00000000 
000020a2 l       .debug_str	00000000 
000020a8 l       .debug_str	00000000 
000020ca l       .debug_str	00000000 
00002102 l       .debug_str	00000000 
00002142 l       .debug_str	00000000 
00002149 l       .debug_str	00000000 
00002151 l       .debug_str	00000000 
00002168 l       .debug_str	00000000 
00002171 l       .debug_str	00000000 
00002181 l       .debug_str	00000000 
00002190 l       .debug_str	00000000 
00002198 l       .debug_str	00000000 
0000219f l       .debug_str	00000000 
000021a7 l       .debug_str	00000000 
000021c5 l       .debug_str	00000000 
000021d5 l       .debug_str	00000000 
00002208 l       .debug_str	00000000 
0000221d l       .debug_str	00000000 
00002226 l       .debug_str	00000000 
00002283 l       .debug_str	00000000 
000022e8 l       .debug_str	00000000 
000022f2 l       .debug_str	00000000 
00002302 l       .debug_str	00000000 
00002317 l       .debug_str	00000000 
0000231f l       .debug_str	00000000 
00002383 l       .debug_str	00000000 
000023ef l       .debug_str	00000000 
000023f6 l       .debug_str	00000000 
000023fe l       .debug_str	00000000 
0000241c l       .debug_str	00000000 
000024b8 l       .debug_str	00000000 
00000000 l     O .rodata..Lanon.d0480d3058231b21127bcdf684c04279.1	0000000e .Lanon.d0480d3058231b21127bcdf684c04279.1
00000000 l     O .rodata..Lanon.d0480d3058231b21127bcdf684c04279.2	00000006 .Lanon.d0480d3058231b21127bcdf684c04279.2
00000000 l     O .rodata..Lanon.d0480d3058231b21127bcdf684c04279.4	0000000c .Lanon.d0480d3058231b21127bcdf684c04279.4
00000000 l     O .rodata._ZN3app10app_sensor13SENSOR_DEVICE17h24d01bf01188e9deE	0000000c app::app_sensor::SENSOR_DEVICE
00000000 l    d  .text._ZN3app10app_sensor21start_sensor_listener17hc0d5dc7021187b6eE	00000000 .text._ZN3app10app_sensor21start_sensor_listener17hc0d5dc7021187b6eE
00000000 l    d  .rodata..Lanon.d0480d3058231b21127bcdf684c04279.0	00000000 .rodata..Lanon.d0480d3058231b21127bcdf684c04279.0
00000000 l    d  .rodata._ZN3app10app_sensor13SENSOR_DEVICE17h24d01bf01188e9deE	00000000 .rodata._ZN3app10app_sensor13SENSOR_DEVICE17h24d01bf01188e9deE
00000000 l    d  .rodata..Lanon.d0480d3058231b21127bcdf684c04279.3	00000000 .rodata..Lanon.d0480d3058231b21127bcdf684c04279.3
00000000 l    d  .debug_abbrev	00000000 .debug_abbrev
00000000 l    d  .debug_info	00000000 .debug_info
00000000 l    d  .debug_ranges	00000000 .debug_ranges
00000000 l    d  .debug_frame	00000000 .debug_frame
00000000 l    d  .debug_line	00000000 .debug_line
00000000 g     F .text._ZN3app10app_sensor21start_sensor_listener17hc0d5dc7021187b6eE	00000162 .hidden app::app_sensor::start_sensor_listener
00000000         *UND*	00000000 .hidden app::app_network::aggregate_sensor_data
00000000         *UND*	00000000 core::option::Option<T>::expect
00000000         *UND*	00000000 <T as core::convert::From<T>>::from
00000000         *UND*	00000000 mynewt::hw::sensor_mgr::find_bydevname
00000000         *UND*	00000000 mynewt::hw::sensor::register_listener
00000000         *UND*	00000000 mynewt::hw::sensor::new_sensor_listener
00000000         *UND*	00000000 mynewt::hw::sensor::bindings::set_poll_rate_ms
00000000         *UND*	00000000 mynewt::sys::console::print
00000000         *UND*	00000000 <core::result::Result<T,E> as core::ops::try::Try>::from_error
00000000         *UND*	00000000 <core::result::Result<T,E> as core::ops::try::Try>::into_result
00000000         *UND*	00000000 <core::result::Result<T,E> as core::ops::try::Try>::into_result
00000000         *UND*	00000000 <mynewt::hw::sensor_mgr::SensorsByDevname as core::iter::traits::iterator::Iterator>::next



Disassembly of section .text._ZN3app10app_sensor21start_sensor_listener17hc0d5dc7021187b6eE:

00000000 <app::app_sensor::start_sensor_listener>:
_ZN3app10app_sensor21start_sensor_listener17hc0d5dc7021187b6eE():
c:\PineTime\pinetime-rust-mynewt/rust\app\src/app_sensor.rs:46
///  Type of sensor: Raw temperature sensor (integer sensor values 0 to 4095)
const TEMP_SENSOR_TYPE: sensor_type_t = sensor::SENSOR_TYPE_AMBIENT_TEMPERATURE_RAW;

///  Ask Mynewt to poll or read the temperature sensor and call `aggregate_sensor_data()`
///  Return `Ok()` if successful, else return `Err()` with `MynewtError` error code inside.
pub fn start_sensor_listener() -> MynewtResult<()>  {  //  Returns an error code upon error.
   0:	b5f0      	push	{r4, r5, r6, r7, lr}
   2:	b0bb      	sub	sp, #236	; 0xec
c:\PineTime\pinetime-rust-mynewt/rust\app\src/app_sensor.rs:47
    console::print("Rust TMP poll\n");
   4:	f240 0000 	movw	r0, #0
   8:	f2c0 0000 	movt	r0, #0
   c:	210e      	movs	r1, #14
   e:	f7ff fffe 	bl	0 <mynewt::sys::console::print>
  12:	e7ff      	b.n	2 <app::app_sensor::start_sensor_listener+0x2>
c:\PineTime\pinetime-rust-mynewt/rust\app\src/app_sensor.rs:50

    //  Fetch the sensor by name.
    let sensor = sensor_mgr::find_bydevname(&SENSOR_DEVICE)
  14:	f240 0100 	movw	r1, #0
  18:	f2c0 0100 	movt	r1, #0
  1c:	a80b      	add	r0, sp, #44	; 0x2c
  1e:	f7ff fffe 	bl	0 <mynewt::hw::sensor_mgr::find_bydevname>
  22:	e7ff      	b.n	24 <app::app_sensor::start_sensor_listener+0x24>
  24:	a80b      	add	r0, sp, #44	; 0x2c
  26:	f7ff fffe 	bl	0 <<mynewt::hw::sensor_mgr::SensorsByDevname as core::iter::traits::iterator::Iterator>::next>
  2a:	9008      	str	r0, [sp, #32]
  2c:	9107      	str	r1, [sp, #28]
  2e:	e7ff      	b.n	30 <app::app_sensor::start_sensor_listener+0x30>
  30:	f240 0200 	movw	r2, #0
  34:	f2c0 0200 	movt	r2, #0
  38:	2306      	movs	r3, #6
  3a:	9808      	ldr	r0, [sp, #32]
  3c:	9907      	ldr	r1, [sp, #28]
  3e:	f7ff fffe 	bl	0 <core::option::Option<T>::expect>
  42:	900a      	str	r0, [sp, #40]	; 0x28
  44:	e7ff      	b.n	46 <app::app_sensor::start_sensor_listener+0x46>
c:\PineTime\pinetime-rust-mynewt/rust\app\src/app_sensor.rs:55
        .next()             //  Fetch the first sensor that matches
        .expect("no TMP");  //  Stop if no sensor found

    //  At power on, we ask Mynewt to poll our temperature sensor every 10 seconds.
    sensor::set_poll_rate_ms(&SENSOR_DEVICE, SENSOR_POLL_TIME) ? ;
  46:	f240 0000 	movw	r0, #0
  4a:	f2c0 0000 	movt	r0, #0
  4e:	f247 5130 	movw	r1, #30000	; 0x7530
  52:	f7ff fffe 	bl	0 <mynewt::hw::sensor::bindings::set_poll_rate_ms>
  56:	9006      	str	r0, [sp, #24]
  58:	e7ff      	b.n	5a <app::app_sensor::start_sensor_listener+0x5a>
  5a:	9806      	ldr	r0, [sp, #24]
  5c:	f7ff fffe 	bl	0 <<core::result::Result<T,E> as core::ops::try::Try>::into_result>
  60:	900f      	str	r0, [sp, #60]	; 0x3c
  62:	e7ff      	b.n	64 <app::app_sensor::start_sensor_listener+0x64>
  64:	980f      	ldr	r0, [sp, #60]	; 0x3c
  66:	1e41      	subs	r1, r0, #1
  68:	bf18      	it	ne
  6a:	2101      	movne	r1, #1
  6c:	2801      	cmp	r0, #1
  6e:	d013      	beq.n	98 <app::app_sensor::start_sensor_listener+0x98>
  70:	e7ff      	b.n	72 <app::app_sensor::start_sensor_listener+0x72>
  72:	e000      	b.n	76 <app::app_sensor::start_sensor_listener+0x76>
  74:	defe      	udf	#254	; 0xfe
  76:	980f      	ldr	r0, [sp, #60]	; 0x3c
  78:	9010      	str	r0, [sp, #64]	; 0x40
  7a:	9810      	ldr	r0, [sp, #64]	; 0x40
  7c:	f7ff fffe 	bl	0 <<T as core::convert::From<T>>::from>
  80:	9005      	str	r0, [sp, #20]
  82:	e002      	b.n	8a <app::app_sensor::start_sensor_listener+0x8a>
c:\PineTime\pinetime-rust-mynewt/rust\app\src/app_sensor.rs:69
    //  Register the Listener Function to be called with the polled sensor data.
    sensor::register_listener(sensor, listener) ? ;  //  `?` means in case of error, return error now.

    //  Return `Ok()` to indicate success.  This line should not end with a semicolon (;).
    Ok(())
  84:	9809      	ldr	r0, [sp, #36]	; 0x24
  86:	b03b      	add	sp, #236	; 0xec
  88:	bdf0      	pop	{r4, r5, r6, r7, pc}
c:\PineTime\pinetime-rust-mynewt/rust\app\src/app_sensor.rs:55
    sensor::set_poll_rate_ms(&SENSOR_DEVICE, SENSOR_POLL_TIME) ? ;
  8a:	9805      	ldr	r0, [sp, #20]
  8c:	f7ff fffe 	bl	0 <<core::result::Result<T,E> as core::ops::try::Try>::from_error>
  90:	9009      	str	r0, [sp, #36]	; 0x24
  92:	e7ff      	b.n	94 <app::app_sensor::start_sensor_listener+0x94>
  94:	e7ff      	b.n	96 <app::app_sensor::start_sensor_listener+0x96>
  96:	e7f5      	b.n	84 <app::app_sensor::start_sensor_listener+0x84>
c:\PineTime\pinetime-rust-mynewt/rust\app\src/app_sensor.rs:58
    let listener = sensor::new_sensor_listener(
  98:	f240 0000 	movw	r0, #0
  9c:	f2c0 0000 	movt	r0, #0
  a0:	4669      	mov	r1, sp
  a2:	6008      	str	r0, [r1, #0]
  a4:	f240 0100 	movw	r1, #0
  a8:	f2c0 0100 	movt	r1, #0
  ac:	a820      	add	r0, sp, #128	; 0x80
  ae:	f04f 6280 	mov.w	r2, #67108864	; 0x4000000
  b2:	2300      	movs	r3, #0
  b4:	f7ff fffe 	bl	0 <mynewt::hw::sensor::new_sensor_listener>
  b8:	e7ff      	b.n	ba <app::app_sensor::start_sensor_listener+0xba>
  ba:	a818      	add	r0, sp, #96	; 0x60
  bc:	a920      	add	r1, sp, #128	; 0x80
  be:	f7ff fffe 	bl	0 <<core::result::Result<T,E> as core::ops::try::Try>::into_result>
  c2:	e7ff      	b.n	c4 <app::app_sensor::start_sensor_listener+0xc4>
c:\PineTime\pinetime-rust-mynewt/rust\app\src/app_sensor.rs:62
    ) ? ;
  c4:	9818      	ldr	r0, [sp, #96]	; 0x60
  c6:	2800      	cmp	r0, #0
  c8:	d010      	beq.n	ec <app::app_sensor::start_sensor_listener+0xec>
  ca:	e7ff      	b.n	cc <app::app_sensor::start_sensor_listener+0xcc>
  cc:	e000      	b.n	d0 <app::app_sensor::start_sensor_listener+0xd0>
c:\PineTime\pinetime-rust-mynewt/rust\app\src/app_sensor.rs:58
    let listener = sensor::new_sensor_listener(
  ce:	defe      	udf	#254	; 0xfe
c:\PineTime\pinetime-rust-mynewt/rust\app\src/app_sensor.rs:62
    ) ? ;
  d0:	9819      	ldr	r0, [sp, #100]	; 0x64
  d2:	9029      	str	r0, [sp, #164]	; 0xa4
  d4:	9829      	ldr	r0, [sp, #164]	; 0xa4
  d6:	f7ff fffe 	bl	0 <<T as core::convert::From<T>>::from>
  da:	9004      	str	r0, [sp, #16]
  dc:	e7ff      	b.n	de <app::app_sensor::start_sensor_listener+0xde>
  de:	9804      	ldr	r0, [sp, #16]
  e0:	f7ff fffe 	bl	0 <<core::result::Result<T,E> as core::ops::try::Try>::from_error>
  e4:	9009      	str	r0, [sp, #36]	; 0x24
  e6:	e7ff      	b.n	e8 <app::app_sensor::start_sensor_listener+0xe8>
  e8:	e7ff      	b.n	ea <app::app_sensor::start_sensor_listener+0xea>
  ea:	e7d4      	b.n	96 <app::app_sensor::start_sensor_listener+0x96>
  ec:	a818      	add	r0, sp, #96	; 0x60
c:\PineTime\pinetime-rust-mynewt/rust\app\src/app_sensor.rs:58
    let listener = sensor::new_sensor_listener(
  ee:	3008      	adds	r0, #8
  f0:	a92a      	add	r1, sp, #168	; 0xa8
  f2:	460a      	mov	r2, r1
  f4:	e890 5078 	ldmia.w	r0, {r3, r4, r5, r6, ip, lr}
  f8:	e882 5078 	stmia.w	r2, {r3, r4, r5, r6, ip, lr}
  fc:	a812      	add	r0, sp, #72	; 0x48
  fe:	4602      	mov	r2, r0
 100:	e891 5078 	ldmia.w	r1, {r3, r4, r5, r6, ip, lr}
 104:	e882 5078 	stmia.w	r2, {r3, r4, r5, r6, ip, lr}
c:\PineTime\pinetime-rust-mynewt/rust\app\src/app_sensor.rs:65
    sensor::register_listener(sensor, listener) ? ;  //  `?` means in case of error, return error now.
 108:	990a      	ldr	r1, [sp, #40]	; 0x28
 10a:	aa32      	add	r2, sp, #200	; 0xc8
 10c:	4613      	mov	r3, r2
 10e:	e890 50f0 	ldmia.w	r0, {r4, r5, r6, r7, ip, lr}
 112:	e883 50f0 	stmia.w	r3, {r4, r5, r6, r7, ip, lr}
 116:	4608      	mov	r0, r1
 118:	4611      	mov	r1, r2
 11a:	f7ff fffe 	bl	0 <mynewt::hw::sensor::register_listener>
 11e:	9003      	str	r0, [sp, #12]
 120:	e7ff      	b.n	122 <app::app_sensor::start_sensor_listener+0x122>
 122:	9803      	ldr	r0, [sp, #12]
 124:	f7ff fffe 	bl	0 <<core::result::Result<T,E> as core::ops::try::Try>::into_result>
 128:	9031      	str	r0, [sp, #196]	; 0xc4
 12a:	e7ff      	b.n	12c <app::app_sensor::start_sensor_listener+0x12c>
 12c:	9831      	ldr	r0, [sp, #196]	; 0xc4
 12e:	1e41      	subs	r1, r0, #1
 130:	bf18      	it	ne
 132:	2101      	movne	r1, #1
 134:	2801      	cmp	r0, #1
 136:	d00f      	beq.n	158 <app::app_sensor::start_sensor_listener+0x158>
 138:	e7ff      	b.n	13a <app::app_sensor::start_sensor_listener+0x13a>
 13a:	e000      	b.n	13e <app::app_sensor::start_sensor_listener+0x13e>
 13c:	defe      	udf	#254	; 0xfe
 13e:	9831      	ldr	r0, [sp, #196]	; 0xc4
 140:	9039      	str	r0, [sp, #228]	; 0xe4
 142:	9839      	ldr	r0, [sp, #228]	; 0xe4
 144:	f7ff fffe 	bl	0 <<T as core::convert::From<T>>::from>
 148:	9002      	str	r0, [sp, #8]
 14a:	e7ff      	b.n	14c <app::app_sensor::start_sensor_listener+0x14c>
 14c:	9802      	ldr	r0, [sp, #8]
 14e:	f7ff fffe 	bl	0 <<core::result::Result<T,E> as core::ops::try::Try>::from_error>
 152:	9009      	str	r0, [sp, #36]	; 0x24
 154:	e7ff      	b.n	156 <app::app_sensor::start_sensor_listener+0x156>
 156:	e7c8      	b.n	ea <app::app_sensor::start_sensor_listener+0xea>
 158:	2000      	movs	r0, #0
c:\PineTime\pinetime-rust-mynewt/rust\app\src/app_sensor.rs:68
    Ok(())
 15a:	9009      	str	r0, [sp, #36]	; 0x24
 15c:	2001      	movs	r0, #1
 15e:	9009      	str	r0, [sp, #36]	; 0x24
c:\PineTime\pinetime-rust-mynewt/rust\app\src/app_sensor.rs:69
 160:	e790      	b.n	84 <app::app_sensor::start_sensor_listener+0x84>

app-06a5867689f9e070.f8wx52eaugjhoon.rcgu.o:     file format elf32-littlearm

SYMBOL TABLE:
00000000 l    df *ABS*	00000000 f8wx52eaugjhoon
0000110a l       .debug_str	00000000 
00002404 l       .debug_str	00000000 
0000241b l       .debug_str	00000000 
000023c8 l       .debug_str	00000000 
00002396 l       .debug_str	00000000 
0000235a l       .debug_str	00000000 
00002417 l       .debug_str	00000000 
00000000 l       .debug_str	00000000 
00000041 l       .debug_str	00000000 
00000055 l       .debug_str	00000000 
00000076 l       .debug_str	00000000 
0000007b l       .debug_str	00000000 
0000007f l       .debug_str	00000000 
00000082 l       .debug_str	00000000 
0000008d l       .debug_str	00000000 
00000098 l       .debug_str	00000000 
0000009f l       .debug_str	00000000 
000000a6 l       .debug_str	00000000 
000000aa l       .debug_str	00000000 
000000af l       .debug_str	00000000 
000000b6 l       .debug_str	00000000 
000000b9 l       .debug_str	00000000 
000000c0 l       .debug_str	00000000 
000000c9 l       .debug_str	00000000 
000000cf l       .debug_str	00000000 
000000d6 l       .debug_str	00000000 
000000d9 l       .debug_str	00000000 
000000e5 l       .debug_str	00000000 
000000ed l       .debug_str	00000000 
000000f1 l       .debug_str	00000000 
00000108 l       .debug_str	00000000 
00000162 l       .debug_str	00000000 
00000164 l       .debug_str	00000000 
00000169 l       .debug_str	00000000 
0000016d l       .debug_str	00000000 
000001cf l       .debug_str	00000000 
000001da l       .debug_str	00000000 
00000221 l       .debug_str	00000000 
00000270 l       .debug_str	00000000 
0000027a l       .debug_str	00000000 
000002b7 l       .debug_str	00000000 
000002fc l       .debug_str	00000000 
00000305 l       .debug_str	00000000 
00000315 l       .debug_str	00000000 
0000031d l       .debug_str	00000000 
00000372 l       .debug_str	00000000 
000003cf l       .debug_str	00000000 
000003db l       .debug_str	00000000 
000003e4 l       .debug_str	00000000 
000003f0 l       .debug_str	00000000 
000003fc l       .debug_str	00000000 
00000405 l       .debug_str	00000000 
0000040d l       .debug_str	00000000 
00000417 l       .debug_str	00000000 
0000041f l       .debug_str	00000000 
00000429 l       .debug_str	00000000 
0000043e l       .debug_str	00000000 
00000445 l       .debug_str	00000000 
00000465 l       .debug_str	00000000 
0000046c l       .debug_str	00000000 
00000474 l       .debug_str	00000000 
0000047e l       .debug_str	00000000 
00000489 l       .debug_str	00000000 
00000492 l       .debug_str	00000000 
0000049d l       .debug_str	00000000 
000004a9 l       .debug_str	00000000 
000004ad l       .debug_str	00000000 
000004b6 l       .debug_str	00000000 
000004bd l       .debug_str	00000000 
000004c5 l       .debug_str	00000000 
000004cd l       .debug_str	00000000 
000004d7 l       .debug_str	00000000 
000004dd l       .debug_str	00000000 
000004e4 l       .debug_str	00000000 
000004eb l       .debug_str	00000000 
00000518 l       .debug_str	00000000 
0000054d l       .debug_str	00000000 
00000553 l       .debug_str	00000000 
00000559 l       .debug_str	00000000 
00000568 l       .debug_str	00000000 
00000578 l       .debug_str	00000000 
00000588 l       .debug_str	00000000 
00000590 l       .debug_str	00000000 
000005b9 l       .debug_str	00000000 
00000617 l       .debug_str	00000000 
0000067d l       .debug_str	00000000 
00000684 l       .debug_str	00000000 
0000068c l       .debug_str	00000000 
00000695 l       .debug_str	00000000 
000006b3 l       .debug_str	00000000 
000006c3 l       .debug_str	00000000 
000006d1 l       .debug_str	00000000 
000006dc l       .debug_str	00000000 
000006e9 l       .debug_str	00000000 
000006f8 l       .debug_str	00000000 
0000070e l       .debug_str	00000000 
00000718 l       .debug_str	00000000 
00000721 l       .debug_str	00000000 
0000072a l       .debug_str	00000000 
00000750 l       .debug_str	00000000 
00000766 l       .debug_str	00000000 
00000771 l       .debug_str	00000000 
00000787 l       .debug_str	00000000 
0000078f l       .debug_str	00000000 
000007b0 l       .debug_str	00000000 
000007c7 l       .debug_str	00000000 
000007cc l       .debug_str	00000000 
000007d4 l       .debug_str	00000000 
000007dd l       .debug_str	00000000 
000007e6 l       .debug_str	00000000 
000007ef l       .debug_str	00000000 
000007f7 l       .debug_str	00000000 
000007fb l       .debug_str	00000000 
00000802 l       .debug_str	00000000 
0000080e l       .debug_str	00000000 
00000819 l       .debug_str	00000000 
00000821 l       .debug_str	00000000 
00000829 l       .debug_str	00000000 
000008a5 l       .debug_str	00000000 
00000929 l       .debug_str	00000000 
00000a25 l       .debug_str	00000000 
00000b29 l       .debug_str	00000000 
00000b37 l       .debug_str	00000000 
00000b42 l       .debug_str	00000000 
00000b4c l       .debug_str	00000000 
00000b60 l       .debug_str	00000000 
00000b6b l       .debug_str	00000000 
00000b99 l       .debug_str	00000000 
00000c14 l       .debug_str	00000000 
00000c97 l       .debug_str	00000000 
00000ca5 l       .debug_str	00000000 
00000d04 l       .debug_str	00000000 
00000d6b l       .debug_str	00000000 
00000d81 l       .debug_str	00000000 
00000d91 l       .debug_str	00000000 
00000da0 l       .debug_str	00000000 
00000da4 l       .debug_str	00000000 
00000dab l       .debug_str	00000000 
00000db1 l       .debug_str	00000000 
00000db5 l       .debug_str	00000000 
00000dbb l       .debug_str	00000000 
00000dc1 l       .debug_str	00000000 
00000dcd l       .debug_str	00000000 
00000dd5 l       .debug_str	00000000 
00000ddb l       .debug_str	00000000 
00000de3 l       .debug_str	00000000 
00000de9 l       .debug_str	00000000 
00000e0c l       .debug_str	00000000 
00000e1c l       .debug_str	00000000 
00000e4f l       .debug_str	00000000 
00000e8f l       .debug_str	00000000 
00000ed7 l       .debug_str	00000000 
00000edb l       .debug_str	00000000 
00000ee1 l       .debug_str	00000000 
00000ee7 l       .debug_str	00000000 
00000eed l       .debug_str	00000000 
00000eff l       .debug_str	00000000 
00000f34 l       .debug_str	00000000 
00000f76 l       .debug_str	00000000 
00000fc0 l       .debug_str	00000000 
00000fc4 l       .debug_str	00000000 
00000fca l       .debug_str	00000000 
00000fd0 l       .debug_str	00000000 
00000fd6 l       .debug_str	00000000 
00000fe8 l       .debug_str	00000000 
0000101d l       .debug_str	00000000 
0000105f l       .debug_str	00000000 
000010a9 l       .debug_str	00000000 
000010ad l       .debug_str	00000000 
000010b3 l       .debug_str	00000000 
000010b9 l       .debug_str	00000000 
000010bf l       .debug_str	00000000 
000010c5 l       .debug_str	00000000 
000010d6 l       .debug_str	00000000 
0000234c l       .debug_str	00000000 
0000114b l       .debug_str	00000000 
00001194 l       .debug_str	00000000 
00001199 l       .debug_str	00000000 
0000119e l       .debug_str	00000000 
000011a2 l       .debug_str	00000000 
000011a8 l       .debug_str	00000000 
000011ae l       .debug_str	00000000 
000011b4 l       .debug_str	00000000 
000011c5 l       .debug_str	00000000 
000011f9 l       .debug_str	00000000 
0000123a l       .debug_str	00000000 
00001283 l       .debug_str	00000000 
00001287 l       .debug_str	00000000 
00001290 l       .debug_str	00000000 
000012a1 l       .debug_str	00000000 
000012d5 l       .debug_str	00000000 
00001316 l       .debug_str	00000000 
0000135f l       .debug_str	00000000 
00001364 l       .debug_str	00000000 
00001368 l       .debug_str	00000000 
00001371 l       .debug_str	00000000 
00001378 l       .debug_str	00000000 
00001380 l       .debug_str	00000000 
00001392 l       .debug_str	00000000 
000013c7 l       .debug_str	00000000 
00001409 l       .debug_str	00000000 
00001453 l       .debug_str	00000000 
00001457 l       .debug_str	00000000 
0000145d l       .debug_str	00000000 
00001463 l       .debug_str	00000000 
00001469 l       .debug_str	00000000 
0000146f l       .debug_str	00000000 
00001477 l       .debug_str	00000000 
00001485 l       .debug_str	00000000 
00001494 l       .debug_str	00000000 
000014a5 l       .debug_str	00000000 
000014b0 l       .debug_str	00000000 
000014bb l       .debug_str	00000000 
000014c6 l       .debug_str	00000000 
000014cd l       .debug_str	00000000 
000014f0 l       .debug_str	00000000 
00001502 l       .debug_str	00000000 
00001537 l       .debug_str	00000000 
00001579 l       .debug_str	00000000 
000015c3 l       .debug_str	00000000 
000015c7 l       .debug_str	00000000 
000015d1 l       .debug_str	00000000 
000015e3 l       .debug_str	00000000 
00001618 l       .debug_str	00000000 
0000165a l       .debug_str	00000000 
000016a4 l       .debug_str	00000000 
000016a9 l       .debug_str	00000000 
000016b3 l       .debug_str	00000000 
000016c5 l       .debug_str	00000000 
000016fa l       .debug_str	00000000 
0000173c l       .debug_str	00000000 
00001786 l       .debug_str	00000000 
0000179a l       .debug_str	00000000 
0000179e l       .debug_str	00000000 
000017ac l       .debug_str	00000000 
000017bc l       .debug_str	00000000 
000017c5 l       .debug_str	00000000 
000017d0 l       .debug_str	00000000 
000017df l       .debug_str	00000000 
000017f4 l       .debug_str	00000000 
00001825 l       .debug_str	00000000 
000018c2 l       .debug_str	00000000 
00001967 l       .debug_str	00000000 
00001972 l       .debug_str	00000000 
0000197b l       .debug_str	00000000 
0000199c l       .debug_str	00000000 
000019af l       .debug_str	00000000 
000019e5 l       .debug_str	00000000 
00001a68 l       .debug_str	00000000 
00001af3 l       .debug_str	00000000 
00001b0f l       .debug_str	00000000 
00001b5b l       .debug_str	00000000 
00001baf l       .debug_str	00000000 
00001bcc l       .debug_str	00000000 
00001be0 l       .debug_str	00000000 
00001c2c l       .debug_str	00000000 
00001c80 l       .debug_str	00000000 
00001c96 l       .debug_str	00000000 
00001caa l       .debug_str	00000000 
00001cf1 l       .debug_str	00000000 
00001d40 l       .debug_str	00000000 
00001d49 l       .debug_str	00000000 
00001d57 l       .debug_str	00000000 
00001d88 l       .debug_str	00000000 
00001d8e l       .debug_str	00000000 
00001d96 l       .debug_str	00000000 
00001d9d l       .debug_str	00000000 
00001da5 l       .debug_str	00000000 
00001db0 l       .debug_str	00000000 
00001db8 l       .debug_str	00000000 
00001dc7 l       .debug_str	00000000 
00001dcb l       .debug_str	00000000 
00001dd6 l       .debug_str	00000000 
00001de2 l       .debug_str	00000000 
00001ded l       .debug_str	00000000 
00001dfe l       .debug_str	00000000 
00001e04 l       .debug_str	00000000 
00001e0c l       .debug_str	00000000 
00001e13 l       .debug_str	00000000 
00001e1d l       .debug_str	00000000 
00001e25 l       .debug_str	00000000 
00001e2d l       .debug_str	00000000 
00001e4f l       .debug_str	00000000 
00001e5a l       .debug_str	00000000 
00001e66 l       .debug_str	00000000 
00001e6e l       .debug_str	00000000 
00001e77 l       .debug_str	00000000 
00001e82 l       .debug_str	00000000 
00001e89 l       .debug_str	00000000 
00001e94 l       .debug_str	00000000 
00001e9f l       .debug_str	00000000 
00001eaf l       .debug_str	00000000 
00001eb9 l       .debug_str	00000000 
00001ebf l       .debug_str	00000000 
00001ee1 l       .debug_str	00000000 
00001f19 l       .debug_str	00000000 
00001f59 l       .debug_str	00000000 
00001f60 l       .debug_str	00000000 
00001f68 l       .debug_str	00000000 
00001f7f l       .debug_str	00000000 
00001f88 l       .debug_str	00000000 
00001f98 l       .debug_str	00000000 
00001fa7 l       .debug_str	00000000 
00001faf l       .debug_str	00000000 
00001fb6 l       .debug_str	00000000 
00001fbe l       .debug_str	00000000 
00001fdc l       .debug_str	00000000 
00001fec l       .debug_str	00000000 
0000201f l       .debug_str	00000000 
00002034 l       .debug_str	00000000 
0000203d l       .debug_str	00000000 
0000209a l       .debug_str	00000000 
000020ff l       .debug_str	00000000 
00002109 l       .debug_str	00000000 
00002119 l       .debug_str	00000000 
0000212e l       .debug_str	00000000 
00002136 l       .debug_str	00000000 
0000219a l       .debug_str	00000000 
00002206 l       .debug_str	00000000 
0000220d l       .debug_str	00000000 
00002215 l       .debug_str	00000000 
00002233 l       .debug_str	00000000 
00002243 l       .debug_str	00000000 
00002276 l       .debug_str	00000000 
0000228b l       .debug_str	00000000 
0000229e l       .debug_str	00000000 
000022b3 l       .debug_str	00000000 
000022ba l       .debug_str	00000000 
000022cf l       .debug_str	00000000 
000022f9 l       .debug_str	00000000 
0000232b l       .debug_str	00000000 
00002334 l       .debug_str	00000000 
0000233b l       .debug_str	00000000 
00002341 l       .debug_str	00000000 
00002346 l       .debug_str	00000000 
00002412 l       .debug_str	00000000 
00000000 l     O .rodata..Lanon.8e21448b3865a25a40f851559a199df2.0	0000002b .Lanon.8e21448b3865a25a40f851559a199df2.0
00000000 l     O .rodata..Lanon.8e21448b3865a25a40f851559a199df2.2	00000010 .Lanon.8e21448b3865a25a40f851559a199df2.2
00000000 l    d  .text._ZN4core6option15Option$LT$T$GT$6expect17h1e7af72550cc01b6E	00000000 .text._ZN4core6option15Option$LT$T$GT$6expect17h1e7af72550cc01b6E
00000000 l    d  .text._ZN4core6option15Option$LT$T$GT$6unwrap17h433a87afa602c847E	00000000 .text._ZN4core6option15Option$LT$T$GT$6unwrap17h433a87afa602c847E
00000000 l    d  .rodata..Lanon.8e21448b3865a25a40f851559a199df2.1	00000000 .rodata..Lanon.8e21448b3865a25a40f851559a199df2.1
00000000 l    d  .debug_abbrev	00000000 .debug_abbrev
00000000 l    d  .debug_info	00000000 .debug_info
00000000 l    d  .debug_ranges	00000000 .debug_ranges
00000000 l    d  .debug_frame	00000000 .debug_frame
00000000 l    d  .debug_line	00000000 .debug_line
00000000         *UND*	00000000 core::option::expect_failed
00000000 g     F .text._ZN4core6option15Option$LT$T$GT$6expect17h1e7af72550cc01b6E	00000038 core::option::Option<T>::expect
00000000 g     F .text._ZN4core6option15Option$LT$T$GT$6unwrap17h433a87afa602c847E	00000052 core::option::Option<T>::unwrap
00000000         *UND*	00000000 core::panicking::panic



Disassembly of section .text._ZN4core6option15Option$LT$T$GT$6expect17h1e7af72550cc01b6E:

00000000 <core::option::Option<T>::expect>:
_ZN4core6option15Option$LT$T$GT$6expect17h1e7af72550cc01b6E():
/rustc/412f43ac5b4ae8c3599e71c6972112e9be4758fa/src/libcore/option.rs:344
   0:	b086      	sub	sp, #24
   2:	9001      	str	r0, [sp, #4]
   4:	9102      	str	r1, [sp, #8]
   6:	9203      	str	r2, [sp, #12]
   8:	9304      	str	r3, [sp, #16]
/rustc/412f43ac5b4ae8c3599e71c6972112e9be4758fa/src/libcore/option.rs:346
   a:	9801      	ldr	r0, [sp, #4]
   c:	2800      	cmp	r0, #0
   e:	d001      	beq.n	14 <core::option::Option<T>::expect+0x14>
  10:	e7ff      	b.n	12 <core::option::Option<T>::expect+0x12>
  12:	e005      	b.n	20 <core::option::Option<T>::expect+0x20>
/rustc/412f43ac5b4ae8c3599e71c6972112e9be4758fa/src/libcore/option.rs:347
  14:	9803      	ldr	r0, [sp, #12]
  16:	9904      	ldr	r1, [sp, #16]
  18:	f7ff fffe 	bl	0 <core::option::expect_failed>
  1c:	defe      	udf	#254	; 0xfe
/rustc/412f43ac5b4ae8c3599e71c6972112e9be4758fa/src/libcore/option.rs:345
  1e:	defe      	udf	#254	; 0xfe
/rustc/412f43ac5b4ae8c3599e71c6972112e9be4758fa/src/libcore/option.rs:346
  20:	9802      	ldr	r0, [sp, #8]
  22:	9005      	str	r0, [sp, #20]
  24:	9805      	ldr	r0, [sp, #20]
/rustc/412f43ac5b4ae8c3599e71c6972112e9be4758fa/src/libcore/option.rs:349
  26:	9901      	ldr	r1, [sp, #4]
  28:	2901      	cmp	r1, #1
  2a:	9000      	str	r0, [sp, #0]
  2c:	d103      	bne.n	36 <core::option::Option<T>::expect+0x36>
  2e:	e7ff      	b.n	30 <core::option::Option<T>::expect+0x30>
  30:	9800      	ldr	r0, [sp, #0]
  32:	b006      	add	sp, #24
  34:	4770      	bx	lr
  36:	e7fb      	b.n	30 <core::option::Option<T>::expect+0x30>

Disassembly of section .text._ZN4core6option15Option$LT$T$GT$6unwrap17h433a87afa602c847E:

00000000 <core::option::Option<T>::unwrap>:
_ZN4core6option15Option$LT$T$GT$6unwrap17h433a87afa602c847E():
/rustc/412f43ac5b4ae8c3599e71c6972112e9be4758fa/src/libcore/option.rs:377
   0:	b086      	sub	sp, #24
   2:	9003      	str	r0, [sp, #12]
/rustc/412f43ac5b4ae8c3599e71c6972112e9be4758fa/src/libcore/option.rs:379
   4:	9803      	ldr	r0, [sp, #12]
   6:	2800      	cmp	r0, #0
   8:	4601      	mov	r1, r0
   a:	bf18      	it	ne
   c:	2101      	movne	r1, #1
   e:	2800      	cmp	r0, #0
  10:	d001      	beq.n	16 <core::option::Option<T>::unwrap+0x16>
  12:	e7ff      	b.n	14 <core::option::Option<T>::unwrap+0x14>
  14:	e008      	b.n	28 <core::option::Option<T>::unwrap+0x28>
/rustc/412f43ac5b4ae8c3599e71c6972112e9be4758fa/src/libcore/macros/mod.rs:15
  16:	f240 0000 	movw	r0, #0
  1a:	f2c0 0000 	movt	r0, #0
  1e:	9005      	str	r0, [sp, #20]
  20:	9a05      	ldr	r2, [sp, #20]
  22:	9202      	str	r2, [sp, #8]
  24:	e008      	b.n	38 <core::option::Option<T>::unwrap+0x38>
/rustc/412f43ac5b4ae8c3599e71c6972112e9be4758fa/src/libcore/option.rs:378
  26:	defe      	udf	#254	; 0xfe
/rustc/412f43ac5b4ae8c3599e71c6972112e9be4758fa/src/libcore/option.rs:379
  28:	9803      	ldr	r0, [sp, #12]
  2a:	9004      	str	r0, [sp, #16]
  2c:	9804      	ldr	r0, [sp, #16]
/rustc/412f43ac5b4ae8c3599e71c6972112e9be4758fa/src/libcore/option.rs:382
  2e:	9903      	ldr	r1, [sp, #12]
  30:	2900      	cmp	r1, #0
  32:	9001      	str	r0, [sp, #4]
  34:	d109      	bne.n	4a <core::option::Option<T>::unwrap+0x4a>
  36:	e00b      	b.n	50 <core::option::Option<T>::unwrap+0x50>
/rustc/412f43ac5b4ae8c3599e71c6972112e9be4758fa/src/libcore/macros/mod.rs:15
  38:	f240 0000 	movw	r0, #0
  3c:	f2c0 0000 	movt	r0, #0
  40:	212b      	movs	r1, #43	; 0x2b
  42:	9a02      	ldr	r2, [sp, #8]
  44:	f7ff fffe 	bl	0 <core::panicking::panic>
  48:	defe      	udf	#254	; 0xfe
/rustc/412f43ac5b4ae8c3599e71c6972112e9be4758fa/src/libcore/option.rs:382
  4a:	9801      	ldr	r0, [sp, #4]
  4c:	b006      	add	sp, #24
  4e:	4770      	bx	lr
  50:	e7fb      	b.n	4a <core::option::Option<T>::unwrap+0x4a>
arm-none-eabi-objdump: lib.rmeta: File format not recognized
arm-none-eabi-objdump: app-06a5867689f9e070.19qr8nhu1n3j5nvx.rcgu.bc.z: File format not recognized
arm-none-eabi-objdump: app-06a5867689f9e070.1tfihnvjg34ugq4k.rcgu.bc.z: File format not recognized
arm-none-eabi-objdump: app-06a5867689f9e070.23f9mzv1v4gn2no4.rcgu.bc.z: File format not recognized
arm-none-eabi-objdump: app-06a5867689f9e070.2twga10y2lgi2gem.rcgu.bc.z: File format not recognized
arm-none-eabi-objdump: app-06a5867689f9e070.400upkxv10b3175s.rcgu.bc.z: File format not recognized
arm-none-eabi-objdump: app-06a5867689f9e070.4mbo8vo7cjwtljbz.rcgu.bc.z: File format not recognized
arm-none-eabi-objdump: app-06a5867689f9e070.4n904pcucgqn2aby.rcgu.bc.z: File format not recognized
arm-none-eabi-objdump: app-06a5867689f9e070.4ueschib3k7ymmzj.rcgu.bc.z: File format not recognized
arm-none-eabi-objdump: app-06a5867689f9e070.658iodb5tkfa3em.rcgu.bc.z: File format not recognized
arm-none-eabi-objdump: app-06a5867689f9e070.f8wx52eaugjhoon.rcgu.bc.z: File format not recognized
