In archive target/thumbv7em-none-eabihf/debug/libapp.rlib:

app-1669bcaaaa4db712.18hqtjaq2yggsxu4.rcgu.o:     file format elf32-littlearm

SYMBOL TABLE:
00000000 l    df *ABS*	00000000 18hqtjaq2yggsxu4
00000315 l       .debug_str	00000000 
000002fc l       .debug_str	00000000 
00000300 l       .debug_str	00000000 
00000308 l       .debug_str	00000000 
0000030d l       .debug_str	00000000 
0000031a l       .debug_str	00000000 
00000328 l       .debug_str	00000000 
0000032e l       .debug_str	00000000 
00000333 l       .debug_str	00000000 
00000338 l       .debug_str	00000000 
00000348 l       .debug_str	00000000 
0000034c l       .debug_str	00000000 
00000358 l       .debug_str	00000000 
00000379 l       .debug_str	00000000 
0000037d l       .debug_str	00000000 
0000037f l       .debug_str	00000000 
00000389 l       .debug_str	00000000 
0000038d l       .debug_str	00000000 
00000390 l       .debug_str	00000000 
00000395 l       .debug_str	00000000 
0000039e l       .debug_str	00000000 
000003ac l       .debug_str	00000000 
000003be l       .debug_str	00000000 
000003d2 l       .debug_str	00000000 
000003d6 l       .debug_str	00000000 
000003df l       .debug_str	00000000 
00000000 l       .debug_str	00000000 
00000041 l       .debug_str	00000000 
00000055 l       .debug_str	00000000 
00000085 l       .debug_str	00000000 
0000008c l       .debug_str	00000000 
00000093 l       .debug_str	00000000 
00000097 l       .debug_str	00000000 
0000009f l       .debug_str	00000000 
000000aa l       .debug_str	00000000 
000000b5 l       .debug_str	00000000 
000000c2 l       .debug_str	00000000 
000000cd l       .debug_str	00000000 
000000d5 l       .debug_str	00000000 
000000e0 l       .debug_str	00000000 
000000eb l       .debug_str	00000000 
000000f5 l       .debug_str	00000000 
00000100 l       .debug_str	00000000 
0000010b l       .debug_str	00000000 
00000118 l       .debug_str	00000000 
00000124 l       .debug_str	00000000 
00000131 l       .debug_str	00000000 
0000013f l       .debug_str	00000000 
00000149 l       .debug_str	00000000 
00000156 l       .debug_str	00000000 
00000162 l       .debug_str	00000000 
00000166 l       .debug_str	00000000 
00000172 l       .debug_str	00000000 
00000177 l       .debug_str	00000000 
0000017b l       .debug_str	00000000 
00000184 l       .debug_str	00000000 
000001c5 l       .debug_str	00000000 
000001ce l       .debug_str	00000000 
000001d7 l       .debug_str	00000000 
000001da l       .debug_str	00000000 
000001e4 l       .debug_str	00000000 
000001eb l       .debug_str	00000000 
000001f1 l       .debug_str	00000000 
000001f7 l       .debug_str	00000000 
000001fc l       .debug_str	00000000 
00000201 l       .debug_str	00000000 
00000241 l       .debug_str	00000000 
00000257 l       .debug_str	00000000 
0000025b l       .debug_str	00000000 
0000025e l       .debug_str	00000000 
00000262 l       .debug_str	00000000 
00000265 l       .debug_str	00000000 
00000267 l       .debug_str	00000000 
00000269 l       .debug_str	00000000 
0000026d l       .debug_str	00000000 
00000295 l       .debug_str	00000000 
000002d0 l       .debug_str	00000000 
000002e1 l       .debug_str	00000000 
000002ee l       .debug_str	00000000 
000002f1 l       .debug_str	00000000 
000002f8 l       .debug_str	00000000 
00000000 l     O .rodata..Lanon.33f6aad864d1fbfe8fcf120f75a1d3b1.0	00000017 .Lanon.33f6aad864d1fbfe8fcf120f75a1d3b1.0
00000000 l     O .rodata..Lanon.33f6aad864d1fbfe8fcf120f75a1d3b1.1	00000001 .Lanon.33f6aad864d1fbfe8fcf120f75a1d3b1.1
00000000 l     O .rodata..Lanon.33f6aad864d1fbfe8fcf120f75a1d3b1.15	0000000d .Lanon.33f6aad864d1fbfe8fcf120f75a1d3b1.15
00000000 l     O .rodata..Lanon.33f6aad864d1fbfe8fcf120f75a1d3b1.17	00000003 .Lanon.33f6aad864d1fbfe8fcf120f75a1d3b1.17
00000000 l     O .rodata..Lanon.33f6aad864d1fbfe8fcf120f75a1d3b1.19	00000005 .Lanon.33f6aad864d1fbfe8fcf120f75a1d3b1.19
00000000 l     O .rodata..Lanon.33f6aad864d1fbfe8fcf120f75a1d3b1.2	00000001 .Lanon.33f6aad864d1fbfe8fcf120f75a1d3b1.2
00000000 l     O .rodata.cst4	00000004 .Lanon.33f6aad864d1fbfe8fcf120f75a1d3b1.20
00000004 l     O .rodata.cst4	00000004 .Lanon.33f6aad864d1fbfe8fcf120f75a1d3b1.21
00000000 l     O .rodata..Lanon.33f6aad864d1fbfe8fcf120f75a1d3b1.22	00000005 .Lanon.33f6aad864d1fbfe8fcf120f75a1d3b1.22
00000000 l     O .rodata..Lanon.33f6aad864d1fbfe8fcf120f75a1d3b1.3	00000001 .Lanon.33f6aad864d1fbfe8fcf120f75a1d3b1.3
00000008 l     O .rodata.cst4	00000004 .Lanon.33f6aad864d1fbfe8fcf120f75a1d3b1.31
00000000 l     O .rodata..Lanon.33f6aad864d1fbfe8fcf120f75a1d3b1.32	00000007 .Lanon.33f6aad864d1fbfe8fcf120f75a1d3b1.32
00000000 l     O .rodata..Lanon.33f6aad864d1fbfe8fcf120f75a1d3b1.34	00000006 .Lanon.33f6aad864d1fbfe8fcf120f75a1d3b1.34
00000000 l     O .rodata..Lanon.33f6aad864d1fbfe8fcf120f75a1d3b1.39	00000048 .Lanon.33f6aad864d1fbfe8fcf120f75a1d3b1.39
00000000 l     O .rodata..Lanon.33f6aad864d1fbfe8fcf120f75a1d3b1.8	00000007 .Lanon.33f6aad864d1fbfe8fcf120f75a1d3b1.8
00000000 l     F .text._ZN3app11app_network16send_sensor_data17haaef9b646089d379E	000005a2 _ZN3app11app_network16send_sensor_data17haaef9b646089d379E
00000000 l    d  .text._ZN3app11app_network21aggregate_sensor_data17h2e6dc21aa0529facE	00000000 .text._ZN3app11app_network21aggregate_sensor_data17h2e6dc21aa0529facE
00000000 l    d  .text._ZN3app11app_network16send_sensor_data17haaef9b646089d379E	00000000 .text._ZN3app11app_network16send_sensor_data17haaef9b646089d379E
00000000 l    d  .debug_abbrev	00000000 .debug_abbrev
00000000 l    d  .debug_info	00000000 .debug_info
00000000 l    d  .debug_ranges	00000000 .debug_ranges
00000000 l    d  .debug_frame	00000000 .debug_frame
00000000 l    d  .debug_line	00000000 .debug_line
00000000 g     F .text._ZN3app11app_network21aggregate_sensor_data17h2e6dc21aa0529facE	0000001a .hidden _ZN3app11app_network21aggregate_sensor_data17h2e6dc21aa0529facE
00000000         *UND*	00000000 _ZN50_$LT$T$u20$as$u20$core..convert..From$LT$T$GT$$GT$4from17h18d49e5f5b831b87E
00000000         *UND*	00000000 _ZN6mynewt3sys7console10print_strn17h3a375a76c52dc7fdE
00000000         *UND*	00000000 _ZN6mynewt3sys7console5flush17h66326d32cc095ce4E
00000000         *UND*	00000000 _ZN6mynewt3sys7console5print17hea17a43bd9cd9b8bE
00000000         *UND*	00000000 _ZN6mynewt3sys7console8printint17hb417dbfda78e233cE
00000000         *UND*	00000000 _ZN6mynewt4Strn3new17he20cc2d6381bc00dE
00000000         *UND*	00000000 _ZN6mynewt4libs14sensor_network12prepare_post17hb79a8946e9d99f74E
00000000         *UND*	00000000 _ZN6mynewt4libs14sensor_network13get_device_id17h4ff95abb0120a0ffE
00000000         *UND*	00000000 _ZN6mynewt4libs14sensor_network14do_server_post17h27b8dd125aeba137E
00000000         *UND*	00000000 _ZN6mynewt4libs14sensor_network16init_server_post17hb1ac451f3223a22fE
00000000         *UND*	00000000 _ZN6mynewt8encoding12coap_context11CoapContext11key_to_cstr17h0a418cf3862c99c8E
00000000         *UND*	00000000 _ZN6mynewt8encoding12coap_context11CoapContext11to_void_ptr17h0d3c5b9c2d5e4e5bE
00000000         *UND*	00000000 _ZN6mynewt8encoding12coap_context11CoapContext13value_to_cstr17h4556e32ec96f6128E
00000000         *UND*	00000000 _ZN6mynewt8encoding12coap_context11CoapContext20json_set_geolocation17h39c9809447f00f7fE
00000000         *UND*	00000000 _ZN6mynewt8encoding12coap_context11CoapContext20json_set_text_string17h9c3caf9358348dcbE
00000000         *UND*	00000000 _ZN6mynewt8encoding12coap_context11CoapContext4fail17h83962bfc6f09277fE
00000000         *UND*	00000000 _ZN6mynewt8encoding12coap_context12COAP_CONTEXT17h7ea8a4ddb8883ff4E
00000000         *UND*	00000000 _ZN73_$LT$core..result..Result$LT$T$C$E$GT$$u20$as$u20$core..ops..try..Try$GT$10from_error17h80f38a6d6d522ff5E
00000000         *UND*	00000000 _ZN73_$LT$core..result..Result$LT$T$C$E$GT$$u20$as$u20$core..ops..try..Try$GT$11into_result17haedbfaaa07adb92fE
00000000         *UND*	00000000 _ZN73_$LT$core..result..Result$LT$T$C$E$GT$$u20$as$u20$core..ops..try..Try$GT$11into_result17hbefde40070c9a0e0E
00000000         *UND*	00000000 _ZN75_$LT$str$u20$as$u20$mynewt..encoding..coap_context..ToBytesOptionalNull$GT$21to_bytes_optional_nul17hc477ef11a43aaeeeE
00000000         *UND*	00000000 _ZN84_$LT$mynewt..Strn$u20$as$u20$mynewt..encoding..coap_context..ToBytesOptionalNull$GT$21to_bytes_optional_nul17hbefd2cb2015e2770E
00000000         *UND*	00000000 json_helper_close_array
00000000         *UND*	00000000 json_helper_object_array_end_item
00000000         *UND*	00000000 json_helper_object_array_start_item
00000000         *UND*	00000000 json_helper_set_array
00000000         *UND*	00000000 json_helper_set_int
00000000         *UND*	00000000 json_helper_set_text_string
00000000         *UND*	00000000 json_rep_end_root_object
00000000         *UND*	00000000 json_rep_start_root_object



Disassembly of section .text._ZN3app11app_network21aggregate_sensor_data17h2e6dc21aa0529facE:

00000000 <_ZN3app11app_network21aggregate_sensor_data17h2e6dc21aa0529facE>:
_ZN3app11app_network21aggregate_sensor_data17h2e6dc21aa0529facE():
/Users/Luppy/mynewt/stm32bluepill-mynewt-sensor/rust/app/src/app_network.rs:59
        send_sensor_data(&transmit_value)
    }
}

#[cfg(not(feature = "use_float"))]  //  If floating-point and geolocation are disabled, send sensor data without geolocation
pub fn aggregate_sensor_data(sensor_value: &SensorValue) -> MynewtResult<()>  {  //  Returns an error code upon error.
   0:	b580      	push	{r7, lr}
   2:	b084      	sub	sp, #16
   4:	4601      	mov	r1, r0
   6:	9003      	str	r0, [sp, #12]
/Users/Luppy/mynewt/stm32bluepill-mynewt-sensor/rust/app/src/app_network.rs:61
    //  Transmit sensor value without geolocation and return the result
    send_sensor_data(sensor_value)
   8:	9803      	ldr	r0, [sp, #12]
   a:	9102      	str	r1, [sp, #8]
   c:	f7ff fffe 	bl	0 <_ZN3app11app_network21aggregate_sensor_data17h2e6dc21aa0529facE>
  10:	9001      	str	r0, [sp, #4]
  12:	e7ff      	b.n	14 <_ZN3app11app_network21aggregate_sensor_data17h2e6dc21aa0529facE+0x14>
/Users/Luppy/mynewt/stm32bluepill-mynewt-sensor/rust/app/src/app_network.rs:62
}
  14:	9801      	ldr	r0, [sp, #4]
  16:	b004      	add	sp, #16
  18:	bd80      	pop	{r7, pc}

Disassembly of section .text._ZN3app11app_network16send_sensor_data17haaef9b646089d379E:

00000000 <_ZN3app11app_network16send_sensor_data17haaef9b646089d379E>:
_ZN3app11app_network16send_sensor_data17haaef9b646089d379E():
/Users/Luppy/mynewt/stm32bluepill-mynewt-sensor/rust/app/src/app_network.rs:75
/// {"values":[
///   {"key":"t",      "value":1715, "geo": { "lat": ..., "long": ... }},
///   {"key":"device", "value":"0102030405060708090a0b0c0d0e0f10"}
/// ]}
/// ```
fn send_sensor_data(val: &SensorValue) -> MynewtResult<()>  {  //  Returns an error code upon error.
   0:	b580      	push	{r7, lr}
   2:	f5ad 7d1c 	sub.w	sp, sp, #624	; 0x270
   6:	4601      	mov	r1, r0
   8:	902b      	str	r0, [sp, #172]	; 0xac
/Users/Luppy/mynewt/stm32bluepill-mynewt-sensor/rust/app/src/app_network.rs:76
    console::print("Rust send_sensor_data: ");
   a:	f240 0000 	movw	r0, #0
   e:	f2c0 0000 	movt	r0, #0
  12:	2217      	movs	r2, #23
  14:	912a      	str	r1, [sp, #168]	; 0xa8
  16:	4611      	mov	r1, r2
  18:	f7ff fffe 	bl	0 <_ZN6mynewt3sys7console5print17hea17a43bd9cd9b8bE>
  1c:	e7ff      	b.n	1e <_ZN3app11app_network16send_sensor_data17haaef9b646089d379E+0x1e>
/Users/Luppy/mynewt/stm32bluepill-mynewt-sensor/rust/app/src/app_network.rs:77
    if let SensorValueType::Uint(i) = val.value {
  1e:	982b      	ldr	r0, [sp, #172]	; 0xac
  20:	6840      	ldr	r0, [r0, #4]
  22:	2801      	cmp	r0, #1
  24:	d115      	bne.n	52 <_ZN3app11app_network16send_sensor_data17haaef9b646089d379E+0x52>
  26:	e7ff      	b.n	28 <_ZN3app11app_network16send_sensor_data17haaef9b646089d379E+0x28>
  28:	982b      	ldr	r0, [sp, #172]	; 0xac
  2a:	6880      	ldr	r0, [r0, #8]
  2c:	902d      	str	r0, [sp, #180]	; 0xb4
/Users/Luppy/mynewt/stm32bluepill-mynewt-sensor/rust/app/src/app_network.rs:78
        console::print_strn(val.key);
  2e:	982b      	ldr	r0, [sp, #172]	; 0xac
  30:	6800      	ldr	r0, [r0, #0]
  32:	f7ff fffe 	bl	0 <_ZN6mynewt3sys7console10print_strn17h3a375a76c52dc7fdE>
  36:	e7ff      	b.n	2 <_ZN3app11app_network16send_sensor_data17haaef9b646089d379E+0x2>
/Users/Luppy/mynewt/stm32bluepill-mynewt-sensor/rust/app/src/app_network.rs:79
        console::print("=");
  38:	f240 0000 	movw	r0, #0
  3c:	f2c0 0000 	movt	r0, #0
  40:	2101      	movs	r1, #1
  42:	f7ff fffe 	bl	0 <_ZN6mynewt3sys7console5print17hea17a43bd9cd9b8bE>
  46:	e7ff      	b.n	48 <_ZN3app11app_network16send_sensor_data17haaef9b646089d379E+0x48>
/Users/Luppy/mynewt/stm32bluepill-mynewt-sensor/rust/app/src/app_network.rs:80
        console::printint(i as i32);
  48:	982d      	ldr	r0, [sp, #180]	; 0xb4
  4a:	f7ff fffe 	bl	0 <_ZN6mynewt3sys7console8printint17hb417dbfda78e233cE>
  4e:	e7ff      	b.n	50 <_ZN3app11app_network16send_sensor_data17haaef9b646089d379E+0x50>
/Users/Luppy/mynewt/stm32bluepill-mynewt-sensor/rust/app/src/app_network.rs:77
    if let SensorValueType::Uint(i) = val.value {
  50:	e7ff      	b.n	52 <_ZN3app11app_network16send_sensor_data17haaef9b646089d379E+0x52>
/Users/Luppy/mynewt/stm32bluepill-mynewt-sensor/rust/app/src/app_network.rs:82
    }
    console::print("\n");
  52:	f240 0000 	movw	r0, #0
  56:	f2c0 0000 	movt	r0, #0
  5a:	2101      	movs	r1, #1
  5c:	f7ff fffe 	bl	0 <_ZN6mynewt3sys7console5print17hea17a43bd9cd9b8bE>
  60:	e7ff      	b.n	2 <_ZN6mynewt3sys7console5flush17h66326d32cc095ce4E+0x2>
/Users/Luppy/mynewt/stm32bluepill-mynewt-sensor/rust/app/src/app_network.rs:83
    console::flush(); ////
  62:	f7ff fffe 	bl	0 <_ZN6mynewt3sys7console5flush17h66326d32cc095ce4E>
  66:	e7ff      	b.n	68 <_ZN3app11app_network16send_sensor_data17haaef9b646089d379E+0x68>
  68:	a835      	add	r0, sp, #212	; 0xd4
/Users/Luppy/mynewt/stm32bluepill-mynewt-sensor/rust/app/src/app_network.rs:86

    //  Get a randomly-generated device ID that changes each time we restart the device.
    let device_id = sensor_network::get_device_id() ? ;
  6a:	f7ff fffe 	bl	0 <_ZN6mynewt4libs14sensor_network13get_device_id17h4ff95abb0120a0ffE>
  6e:	e7ff      	b.n	70 <_ZN3app11app_network16send_sensor_data17haaef9b646089d379E+0x70>
  70:	a831      	add	r0, sp, #196	; 0xc4
  72:	a935      	add	r1, sp, #212	; 0xd4
  74:	f7ff fffe 	bl	0 <_ZN73_$LT$core..result..Result$LT$T$C$E$GT$$u20$as$u20$core..ops..try..Try$GT$11into_result17haedbfaaa07adb92fE>
  78:	e7ff      	b.n	7a <_ZN3app11app_network16send_sensor_data17haaef9b646089d379E+0x7a>
  7a:	9831      	ldr	r0, [sp, #196]	; 0xc4
  7c:	2800      	cmp	r0, #0
  7e:	9029      	str	r0, [sp, #164]	; 0xa4
  80:	d017      	beq.n	b2 <_ZN3app11app_network16send_sensor_data17haaef9b646089d379E+0xb2>
  82:	e7ff      	b.n	84 <_ZN3app11app_network16send_sensor_data17haaef9b646089d379E+0x84>
  84:	9829      	ldr	r0, [sp, #164]	; 0xa4
  86:	2801      	cmp	r0, #1
  88:	d001      	beq.n	8e <_ZN3app11app_network16send_sensor_data17haaef9b646089d379E+0x8e>
  8a:	e7ff      	b.n	8c <_ZN3app11app_network16send_sensor_data17haaef9b646089d379E+0x8c>
/Users/Luppy/mynewt/stm32bluepill-mynewt-sensor/rust/app/src/app_network.rs:121
    console::print("NET view your sensor at \nhttps://blue-pill-geolocate.appspot.com?device=");
    console::print_strn(&device_id); console::print("\n");

    //  The CoAP Background Task will transmit the message in the background.
    Ok(())
}
  8c:	defe      	udf	#254	; 0xfe
/Users/Luppy/mynewt/stm32bluepill-mynewt-sensor/rust/app/src/app_network.rs:86
    let device_id = sensor_network::get_device_id() ? ;
  8e:	9832      	ldr	r0, [sp, #200]	; 0xc8
  90:	9039      	str	r0, [sp, #228]	; 0xe4
  92:	9839      	ldr	r0, [sp, #228]	; 0xe4
  94:	f7ff fffe 	bl	0 <_ZN50_$LT$T$u20$as$u20$core..convert..From$LT$T$GT$$GT$4from17h18d49e5f5b831b87E>
  98:	9028      	str	r0, [sp, #160]	; 0xa0
  9a:	e7ff      	b.n	9c <_ZN3app11app_network16send_sensor_data17haaef9b646089d379E+0x9c>
  9c:	9828      	ldr	r0, [sp, #160]	; 0xa0
  9e:	f7ff fffe 	bl	0 <_ZN73_$LT$core..result..Result$LT$T$C$E$GT$$u20$as$u20$core..ops..try..Try$GT$10from_error17h80f38a6d6d522ff5E>
  a2:	902c      	str	r0, [sp, #176]	; 0xb0
  a4:	e7ff      	b.n	a6 <_ZN3app11app_network16send_sensor_data17haaef9b646089d379E+0xa6>
  a6:	e003      	b.n	b0 <_ZN3app11app_network16send_sensor_data17haaef9b646089d379E+0xb0>
/Users/Luppy/mynewt/stm32bluepill-mynewt-sensor/rust/app/src/app_network.rs:121
}
  a8:	982c      	ldr	r0, [sp, #176]	; 0xb0
  aa:	f50d 7d1c 	add.w	sp, sp, #624	; 0x270
  ae:	bd80      	pop	{r7, pc}
/Users/Luppy/mynewt/stm32bluepill-mynewt-sensor/rust/app/src/app_network.rs:86
    let device_id = sensor_network::get_device_id() ? ;
  b0:	e7fa      	b.n	a8 <_ZN3app11app_network16send_sensor_data17haaef9b646089d379E+0xa8>
  b2:	9832      	ldr	r0, [sp, #200]	; 0xc8
  b4:	9933      	ldr	r1, [sp, #204]	; 0xcc
  b6:	9a34      	ldr	r2, [sp, #208]	; 0xd0
  b8:	923c      	str	r2, [sp, #240]	; 0xf0
  ba:	913b      	str	r1, [sp, #236]	; 0xec
  bc:	903a      	str	r0, [sp, #232]	; 0xe8
  be:	983a      	ldr	r0, [sp, #232]	; 0xe8
  c0:	993b      	ldr	r1, [sp, #236]	; 0xec
  c2:	9a3c      	ldr	r2, [sp, #240]	; 0xf0
  c4:	9230      	str	r2, [sp, #192]	; 0xc0
  c6:	912f      	str	r1, [sp, #188]	; 0xbc
  c8:	902e      	str	r0, [sp, #184]	; 0xb8
/Users/Luppy/mynewt/stm32bluepill-mynewt-sensor/rust/app/src/app_network.rs:91
    let rc = sensor_network::init_server_post( strn!(()) ) ? ;  //  `strn!(())` means use default CoAP URI in `syscfg.yml`
  ca:	f240 0100 	movw	r1, #0
  ce:	f2c0 0100 	movt	r1, #0
  d2:	a842      	add	r0, sp, #264	; 0x108
  d4:	2201      	movs	r2, #1
  d6:	f7ff fffe 	bl	0 <_ZN6mynewt4Strn3new17he20cc2d6381bc00dE>
  da:	e7ff      	b.n	dc <_ZN3app11app_network16send_sensor_data17haaef9b646089d379E+0xdc>
  dc:	a840      	add	r0, sp, #256	; 0x100
  de:	a942      	add	r1, sp, #264	; 0x108
  e0:	f7ff fffe 	bl	0 <_ZN6mynewt4libs14sensor_network16init_server_post17hb1ac451f3223a22fE>
  e4:	e7ff      	b.n	e6 <_ZN3app11app_network16send_sensor_data17haaef9b646089d379E+0xe6>
  e6:	a83e      	add	r0, sp, #248	; 0xf8
  e8:	a940      	add	r1, sp, #256	; 0x100
  ea:	f7ff fffe 	bl	0 <_ZN73_$LT$core..result..Result$LT$T$C$E$GT$$u20$as$u20$core..ops..try..Try$GT$11into_result17hbefde40070c9a0e0E>
  ee:	e7ff      	b.n	f0 <_ZN3app11app_network16send_sensor_data17haaef9b646089d379E+0xf0>
  f0:	f89d 00f8 	ldrb.w	r0, [sp, #248]	; 0xf8
  f4:	07c1      	lsls	r1, r0, #31
  f6:	2900      	cmp	r1, #0
  f8:	9027      	str	r0, [sp, #156]	; 0x9c
  fa:	d012      	beq.n	122 <_ZN3app11app_network16send_sensor_data17haaef9b646089d379E+0x122>
  fc:	e7ff      	b.n	fe <_ZN3app11app_network16send_sensor_data17haaef9b646089d379E+0xfe>
  fe:	9827      	ldr	r0, [sp, #156]	; 0x9c
 100:	2801      	cmp	r0, #1
 102:	d1c3      	bne.n	8c <_ZN3app11app_network16send_sensor_data17haaef9b646089d379E+0x8c>
 104:	e7ff      	b.n	106 <_ZN3app11app_network16send_sensor_data17haaef9b646089d379E+0x106>
 106:	983f      	ldr	r0, [sp, #252]	; 0xfc
 108:	9045      	str	r0, [sp, #276]	; 0x114
 10a:	9845      	ldr	r0, [sp, #276]	; 0x114
 10c:	f7ff fffe 	bl	0 <_ZN50_$LT$T$u20$as$u20$core..convert..From$LT$T$GT$$GT$4from17h18d49e5f5b831b87E>
 110:	9026      	str	r0, [sp, #152]	; 0x98
 112:	e7ff      	b.n	114 <_ZN3app11app_network16send_sensor_data17haaef9b646089d379E+0x114>
 114:	9826      	ldr	r0, [sp, #152]	; 0x98
 116:	f7ff fffe 	bl	0 <_ZN73_$LT$core..result..Result$LT$T$C$E$GT$$u20$as$u20$core..ops..try..Try$GT$10from_error17h80f38a6d6d522ff5E>
 11a:	902c      	str	r0, [sp, #176]	; 0xb0
 11c:	e7ff      	b.n	11e <_ZN3app11app_network16send_sensor_data17haaef9b646089d379E+0x11e>
 11e:	e7ff      	b.n	120 <_ZN3app11app_network16send_sensor_data17haaef9b646089d379E+0x120>
 120:	e7c6      	b.n	b0 <_ZN3app11app_network16send_sensor_data17haaef9b646089d379E+0xb0>
 122:	f89d 00f9 	ldrb.w	r0, [sp, #249]	; 0xf9
 126:	f88d 011b 	strb.w	r0, [sp, #283]	; 0x11b
 12a:	f89d 011b 	ldrb.w	r0, [sp, #283]	; 0x11b
 12e:	f88d 00f7 	strb.w	r0, [sp, #247]	; 0xf7
/Users/Luppy/mynewt/stm32bluepill-mynewt-sensor/rust/app/src/app_network.rs:94
    if !rc { return Err(MynewtError::SYS_EAGAIN); }
 132:	f89d 00f7 	ldrb.w	r0, [sp, #247]	; 0xf7
 136:	07c0      	lsls	r0, r0, #31
 138:	2800      	cmp	r0, #0
 13a:	d106      	bne.n	14a <_ZN3app11app_network16send_sensor_data17haaef9b646089d379E+0x14a>
 13c:	e7ff      	b.n	13e <_ZN3app11app_network16send_sensor_data17haaef9b646089d379E+0x13e>
 13e:	f06f 0005 	mvn.w	r0, #5
 142:	9047      	str	r0, [sp, #284]	; 0x11c
 144:	9847      	ldr	r0, [sp, #284]	; 0x11c
 146:	902c      	str	r0, [sp, #176]	; 0xb0
 148:	e7ea      	b.n	120 <_ZN3app11app_network16send_sensor_data17haaef9b646089d379E+0x120>
 14a:	a84b      	add	r0, sp, #300	; 0x12c
 14c:	2132      	movs	r1, #50	; 0x32
/Users/Luppy/mynewt/stm32bluepill-mynewt-sensor/rust/app/src/app_network.rs:98
    let _payload = coap!( @json {        
 14e:	f7ff fffe 	bl	0 <_ZN6mynewt4libs14sensor_network12prepare_post17hb79a8946e9d99f74E>
 152:	e7ff      	b.n	154 <_ZN3app11app_network16send_sensor_data17haaef9b646089d379E+0x154>
 154:	a849      	add	r0, sp, #292	; 0x124
 156:	a94b      	add	r1, sp, #300	; 0x12c
 158:	f7ff fffe 	bl	0 <_ZN73_$LT$core..result..Result$LT$T$C$E$GT$$u20$as$u20$core..ops..try..Try$GT$11into_result17hbefde40070c9a0e0E>
 15c:	e7ff      	b.n	15e <_ZN3app11app_network16send_sensor_data17haaef9b646089d379E+0x15e>
 15e:	f89d 0124 	ldrb.w	r0, [sp, #292]	; 0x124
 162:	07c1      	lsls	r1, r0, #31
 164:	2900      	cmp	r1, #0
 166:	9025      	str	r0, [sp, #148]	; 0x94
 168:	d013      	beq.n	192 <_ZN3app11app_network16send_sensor_data17haaef9b646089d379E+0x192>
 16a:	e7ff      	b.n	16c <_ZN3app11app_network16send_sensor_data17haaef9b646089d379E+0x16c>
 16c:	9825      	ldr	r0, [sp, #148]	; 0x94
 16e:	2801      	cmp	r0, #1
 170:	f47f af8c 	bne.w	8c <_ZN3app11app_network16send_sensor_data17haaef9b646089d379E+0x8c>
 174:	e7ff      	b.n	176 <_ZN3app11app_network16send_sensor_data17haaef9b646089d379E+0x176>
 176:	984a      	ldr	r0, [sp, #296]	; 0x128
 178:	904d      	str	r0, [sp, #308]	; 0x134
 17a:	984d      	ldr	r0, [sp, #308]	; 0x134
 17c:	f7ff fffe 	bl	0 <_ZN50_$LT$T$u20$as$u20$core..convert..From$LT$T$GT$$GT$4from17h18d49e5f5b831b87E>
 180:	9024      	str	r0, [sp, #144]	; 0x90
 182:	e7ff      	b.n	184 <_ZN3app11app_network16send_sensor_data17haaef9b646089d379E+0x184>
 184:	9824      	ldr	r0, [sp, #144]	; 0x90
 186:	f7ff fffe 	bl	0 <_ZN73_$LT$core..result..Result$LT$T$C$E$GT$$u20$as$u20$core..ops..try..Try$GT$10from_error17h80f38a6d6d522ff5E>
 18a:	902c      	str	r0, [sp, #176]	; 0xb0
 18c:	e7ff      	b.n	18e <_ZN3app11app_network16send_sensor_data17haaef9b646089d379E+0x18e>
 18e:	e7ff      	b.n	190 <_ZN3app11app_network16send_sensor_data17haaef9b646089d379E+0x190>
 190:	e7c6      	b.n	120 <_ZN3app11app_network16send_sensor_data17haaef9b646089d379E+0x120>
 192:	f89d 0125 	ldrb.w	r0, [sp, #293]	; 0x125
 196:	f88d 013b 	strb.w	r0, [sp, #315]	; 0x13b
 19a:	f7ff fffe 	bl	0 <json_rep_start_root_object>
 19e:	e7ff      	b.n	2 <_ZN3app11app_network16send_sensor_data17haaef9b646089d379E+0x2>
 1a0:	f240 0000 	movw	r0, #0
 1a4:	f2c0 0000 	movt	r0, #0
 1a8:	904f      	str	r0, [sp, #316]	; 0x13c
 1aa:	2007      	movs	r0, #7
 1ac:	9050      	str	r0, [sp, #320]	; 0x140
 1ae:	f240 0000 	movw	r0, #0
 1b2:	f2c0 0000 	movt	r0, #0
 1b6:	f7ff fffe 	bl	0 <_ZN6mynewt8encoding12coap_context11CoapContext11to_void_ptr17h0d3c5b9c2d5e4e5bE>
 1ba:	9023      	str	r0, [sp, #140]	; 0x8c
 1bc:	e7ff      	b.n	1be <_ZN3app11app_network16send_sensor_data17haaef9b646089d379E+0x1be>
 1be:	984f      	ldr	r0, [sp, #316]	; 0x13c
 1c0:	9950      	ldr	r1, [sp, #320]	; 0x140
 1c2:	9084      	str	r0, [sp, #528]	; 0x210
 1c4:	9185      	str	r1, [sp, #532]	; 0x214
_ZN4core3str21_$LT$impl$u20$str$GT$8as_bytes17hbca31947ef6ad219E():
/rustc/50a0defd5a93523067ef239936cc2e0755220904/src/libcore/str/mod.rs:2153
 1c6:	9884      	ldr	r0, [sp, #528]	; 0x210
 1c8:	9985      	ldr	r1, [sp, #532]	; 0x214
 1ca:	9086      	str	r0, [sp, #536]	; 0x218
 1cc:	9187      	str	r1, [sp, #540]	; 0x21c
 1ce:	9986      	ldr	r1, [sp, #536]	; 0x218
 1d0:	9a87      	ldr	r2, [sp, #540]	; 0x21c
_ZN3app11app_network16send_sensor_data17haaef9b646089d379E():
/Users/Luppy/mynewt/stm32bluepill-mynewt-sensor/rust/app/src/app_network.rs:98
 1d2:	9122      	str	r1, [sp, #136]	; 0x88
 1d4:	9221      	str	r2, [sp, #132]	; 0x84
 1d6:	e7ff      	b.n	1d8 <_ZN3app11app_network16send_sensor_data17haaef9b646089d379E+0x1d8>
 1d8:	f240 0000 	movw	r0, #0
 1dc:	f2c0 0000 	movt	r0, #0
 1e0:	9922      	ldr	r1, [sp, #136]	; 0x88
 1e2:	9a21      	ldr	r2, [sp, #132]	; 0x84
 1e4:	f7ff fffe 	bl	0 <_ZN6mynewt8encoding12coap_context11CoapContext11key_to_cstr17h0a418cf3862c99c8E>
 1e8:	9020      	str	r0, [sp, #128]	; 0x80
 1ea:	e7ff      	b.n	1ec <_ZN3app11app_network16send_sensor_data17haaef9b646089d379E+0x1ec>
 1ec:	9823      	ldr	r0, [sp, #140]	; 0x8c
 1ee:	9920      	ldr	r1, [sp, #128]	; 0x80
 1f0:	f7ff fffe 	bl	0 <json_helper_set_array>
 1f4:	e7ff      	b.n	1f6 <_ZN3app11app_network16send_sensor_data17haaef9b646089d379E+0x1f6>
 1f6:	982b      	ldr	r0, [sp, #172]	; 0xac
 1f8:	68c1      	ldr	r1, [r0, #12]
 1fa:	6900      	ldr	r0, [r0, #16]
 1fc:	9151      	str	r1, [sp, #324]	; 0x144
 1fe:	9052      	str	r0, [sp, #328]	; 0x148
 200:	982b      	ldr	r0, [sp, #172]	; 0xac
 202:	6840      	ldr	r0, [r0, #4]
 204:	2801      	cmp	r0, #1
 206:	f040 80d9 	bne.w	3bc <_ZN3app11app_network16send_sensor_data17haaef9b646089d379E+0x3bc>
 20a:	e7ff      	b.n	20c <_ZN3app11app_network16send_sensor_data17haaef9b646089d379E+0x20c>
 20c:	982b      	ldr	r0, [sp, #172]	; 0xac
 20e:	6880      	ldr	r0, [r0, #8]
 210:	9053      	str	r0, [sp, #332]	; 0x14c
 212:	f240 0000 	movw	r0, #0
 216:	f2c0 0000 	movt	r0, #0
 21a:	9054      	str	r0, [sp, #336]	; 0x150
 21c:	200d      	movs	r0, #13
 21e:	9055      	str	r0, [sp, #340]	; 0x154
 220:	9854      	ldr	r0, [sp, #336]	; 0x150
 222:	9955      	ldr	r1, [sp, #340]	; 0x154
 224:	9098      	str	r0, [sp, #608]	; 0x260
 226:	9199      	str	r1, [sp, #612]	; 0x264
_ZN4core3str21_$LT$impl$u20$str$GT$8as_bytes17hbca31947ef6ad219E():
/rustc/50a0defd5a93523067ef239936cc2e0755220904/src/libcore/str/mod.rs:2153
 228:	9898      	ldr	r0, [sp, #608]	; 0x260
 22a:	9999      	ldr	r1, [sp, #612]	; 0x264
 22c:	909a      	str	r0, [sp, #616]	; 0x268
 22e:	919b      	str	r1, [sp, #620]	; 0x26c
 230:	999a      	ldr	r1, [sp, #616]	; 0x268
 232:	9a9b      	ldr	r2, [sp, #620]	; 0x26c
_ZN3app11app_network16send_sensor_data17haaef9b646089d379E():
/Users/Luppy/mynewt/stm32bluepill-mynewt-sensor/rust/app/src/app_network.rs:98
 234:	911f      	str	r1, [sp, #124]	; 0x7c
 236:	921e      	str	r2, [sp, #120]	; 0x78
 238:	e7ff      	b.n	23a <_ZN3app11app_network16send_sensor_data17haaef9b646089d379E+0x23a>
 23a:	f240 0000 	movw	r0, #0
 23e:	f2c0 0000 	movt	r0, #0
 242:	991f      	ldr	r1, [sp, #124]	; 0x7c
 244:	9a1e      	ldr	r2, [sp, #120]	; 0x78
 246:	f7ff fffe 	bl	0 <_ZN6mynewt8encoding12coap_context11CoapContext11key_to_cstr17h0a418cf3862c99c8E>
 24a:	901d      	str	r0, [sp, #116]	; 0x74
 24c:	e7ff      	b.n	24e <_ZN3app11app_network16send_sensor_data17haaef9b646089d379E+0x24e>
 24e:	981d      	ldr	r0, [sp, #116]	; 0x74
 250:	f7ff fffe 	bl	0 <json_helper_object_array_start_item>
 254:	e7ff      	b.n	2 <_ZN3app11app_network16send_sensor_data17haaef9b646089d379E+0x2>
 256:	f240 0000 	movw	r0, #0
 25a:	f2c0 0000 	movt	r0, #0
 25e:	2103      	movs	r1, #3
 260:	f7ff fffe 	bl	0 <_ZN75_$LT$str$u20$as$u20$mynewt..encoding..coap_context..ToBytesOptionalNull$GT$21to_bytes_optional_nul17hc477ef11a43aaeeeE>
 264:	901c      	str	r0, [sp, #112]	; 0x70
 266:	911b      	str	r1, [sp, #108]	; 0x6c
 268:	e7ff      	b.n	26a <_ZN3app11app_network16send_sensor_data17haaef9b646089d379E+0x26a>
 26a:	981c      	ldr	r0, [sp, #112]	; 0x70
 26c:	9056      	str	r0, [sp, #344]	; 0x158
 26e:	991b      	ldr	r1, [sp, #108]	; 0x6c
 270:	9157      	str	r1, [sp, #348]	; 0x15c
 272:	9a2b      	ldr	r2, [sp, #172]	; 0xac
 274:	6810      	ldr	r0, [r2, #0]
 276:	f7ff fffe 	bl	0 <_ZN84_$LT$mynewt..Strn$u20$as$u20$mynewt..encoding..coap_context..ToBytesOptionalNull$GT$21to_bytes_optional_nul17hbefd2cb2015e2770E>
 27a:	901a      	str	r0, [sp, #104]	; 0x68
 27c:	9119      	str	r1, [sp, #100]	; 0x64
 27e:	e7ff      	b.n	280 <_ZN3app11app_network16send_sensor_data17haaef9b646089d379E+0x280>
 280:	981a      	ldr	r0, [sp, #104]	; 0x68
 282:	9058      	str	r0, [sp, #352]	; 0x160
 284:	9919      	ldr	r1, [sp, #100]	; 0x64
 286:	9159      	str	r1, [sp, #356]	; 0x164
 288:	f240 0000 	movw	r0, #0
 28c:	f2c0 0000 	movt	r0, #0
 290:	f7ff fffe 	bl	0 <_ZN6mynewt8encoding12coap_context11CoapContext11to_void_ptr17h0d3c5b9c2d5e4e5bE>
 294:	9018      	str	r0, [sp, #96]	; 0x60
 296:	e7ff      	b.n	298 <_ZN3app11app_network16send_sensor_data17haaef9b646089d379E+0x298>
 298:	9956      	ldr	r1, [sp, #344]	; 0x158
 29a:	9a57      	ldr	r2, [sp, #348]	; 0x15c
 29c:	f240 0000 	movw	r0, #0
 2a0:	f2c0 0000 	movt	r0, #0
 2a4:	f7ff fffe 	bl	0 <_ZN6mynewt8encoding12coap_context11CoapContext11key_to_cstr17h0a418cf3862c99c8E>
 2a8:	9017      	str	r0, [sp, #92]	; 0x5c
 2aa:	e7ff      	b.n	2ac <_ZN3app11app_network16send_sensor_data17haaef9b646089d379E+0x2ac>
 2ac:	9958      	ldr	r1, [sp, #352]	; 0x160
 2ae:	9a59      	ldr	r2, [sp, #356]	; 0x164
 2b0:	f240 0000 	movw	r0, #0
 2b4:	f2c0 0000 	movt	r0, #0
 2b8:	f7ff fffe 	bl	0 <_ZN6mynewt8encoding12coap_context11CoapContext13value_to_cstr17h4556e32ec96f6128E>
 2bc:	9016      	str	r0, [sp, #88]	; 0x58
 2be:	e7ff      	b.n	2c0 <_ZN3app11app_network16send_sensor_data17haaef9b646089d379E+0x2c0>
 2c0:	9818      	ldr	r0, [sp, #96]	; 0x60
 2c2:	9917      	ldr	r1, [sp, #92]	; 0x5c
 2c4:	9a16      	ldr	r2, [sp, #88]	; 0x58
 2c6:	f7ff fffe 	bl	0 <json_helper_set_text_string>
 2ca:	e7ff      	b.n	2 <_ZN3app11app_network16send_sensor_data17haaef9b646089d379E+0x2>
 2cc:	f240 0000 	movw	r0, #0
 2d0:	f2c0 0000 	movt	r0, #0
 2d4:	2105      	movs	r1, #5
 2d6:	f7ff fffe 	bl	0 <_ZN75_$LT$str$u20$as$u20$mynewt..encoding..coap_context..ToBytesOptionalNull$GT$21to_bytes_optional_nul17hc477ef11a43aaeeeE>
 2da:	9015      	str	r0, [sp, #84]	; 0x54
 2dc:	9114      	str	r1, [sp, #80]	; 0x50
 2de:	e7ff      	b.n	2e0 <_ZN3app11app_network16send_sensor_data17haaef9b646089d379E+0x2e0>
 2e0:	9815      	ldr	r0, [sp, #84]	; 0x54
 2e2:	905a      	str	r0, [sp, #360]	; 0x168
 2e4:	9914      	ldr	r1, [sp, #80]	; 0x50
 2e6:	915b      	str	r1, [sp, #364]	; 0x16c
 2e8:	9a53      	ldr	r2, [sp, #332]	; 0x14c
 2ea:	2300      	movs	r3, #0
 2ec:	935d      	str	r3, [sp, #372]	; 0x174
 2ee:	925c      	str	r2, [sp, #368]	; 0x170
 2f0:	f240 0000 	movw	r0, #0
 2f4:	f2c0 0000 	movt	r0, #0
 2f8:	f7ff fffe 	bl	0 <_ZN6mynewt8encoding12coap_context11CoapContext11to_void_ptr17h0d3c5b9c2d5e4e5bE>
 2fc:	9013      	str	r0, [sp, #76]	; 0x4c
 2fe:	e7ff      	b.n	300 <_ZN3app11app_network16send_sensor_data17haaef9b646089d379E+0x300>
 300:	995a      	ldr	r1, [sp, #360]	; 0x168
 302:	9a5b      	ldr	r2, [sp, #364]	; 0x16c
 304:	f240 0000 	movw	r0, #0
 308:	f2c0 0000 	movt	r0, #0
 30c:	f7ff fffe 	bl	0 <_ZN6mynewt8encoding12coap_context11CoapContext11key_to_cstr17h0a418cf3862c99c8E>
 310:	9012      	str	r0, [sp, #72]	; 0x48
 312:	e7ff      	b.n	314 <_ZN3app11app_network16send_sensor_data17haaef9b646089d379E+0x314>
 314:	9a5c      	ldr	r2, [sp, #368]	; 0x170
 316:	9b5d      	ldr	r3, [sp, #372]	; 0x174
 318:	9813      	ldr	r0, [sp, #76]	; 0x4c
 31a:	9912      	ldr	r1, [sp, #72]	; 0x48
 31c:	f7ff fffe 	bl	0 <json_helper_set_int>
 320:	e7ff      	b.n	2 <_ZN3app11app_network16send_sensor_data17haaef9b646089d379E+0x2>
 322:	f240 0100 	movw	r1, #0
 326:	f2c0 0100 	movt	r1, #0
 32a:	a85e      	add	r0, sp, #376	; 0x178
 32c:	2204      	movs	r2, #4
 32e:	f7ff fffe 	bl	0 <_ZN6mynewt4Strn3new17he20cc2d6381bc00dE>
 332:	e7ff      	b.n	6 <_ZN3app11app_network16send_sensor_data17haaef9b646089d379E+0x6>
 334:	f240 0100 	movw	r1, #0
 338:	f2c0 0100 	movt	r1, #0
 33c:	a861      	add	r0, sp, #388	; 0x184
 33e:	2204      	movs	r2, #4
 340:	f7ff fffe 	bl	0 <_ZN6mynewt4Strn3new17he20cc2d6381bc00dE>
 344:	e7ff      	b.n	2 <_ZN3app11app_network16send_sensor_data17haaef9b646089d379E+0x2>
 346:	f240 0100 	movw	r1, #0
 34a:	f2c0 0100 	movt	r1, #0
 34e:	a864      	add	r0, sp, #400	; 0x190
 350:	2205      	movs	r2, #5
 352:	f7ff fffe 	bl	0 <_ZN6mynewt4Strn3new17he20cc2d6381bc00dE>
 356:	e7ff      	b.n	358 <_ZN3app11app_network16send_sensor_data17haaef9b646089d379E+0x358>
 358:	9851      	ldr	r0, [sp, #324]	; 0x144
 35a:	9952      	ldr	r1, [sp, #328]	; 0x148
 35c:	466a      	mov	r2, sp
 35e:	6051      	str	r1, [r2, #4]
 360:	6010      	str	r0, [r2, #0]
 362:	f240 0000 	movw	r0, #0
 366:	f2c0 0000 	movt	r0, #0
 36a:	a95e      	add	r1, sp, #376	; 0x178
 36c:	aa61      	add	r2, sp, #388	; 0x184
 36e:	ab64      	add	r3, sp, #400	; 0x190
 370:	f7ff fffe 	bl	0 <_ZN6mynewt8encoding12coap_context11CoapContext20json_set_geolocation17h39c9809447f00f7fE>
 374:	e7ff      	b.n	2 <_ZN3app11app_network16send_sensor_data17haaef9b646089d379E+0x2>
 376:	f240 0000 	movw	r0, #0
 37a:	f2c0 0000 	movt	r0, #0
 37e:	9067      	str	r0, [sp, #412]	; 0x19c
 380:	200d      	movs	r0, #13
 382:	9068      	str	r0, [sp, #416]	; 0x1a0
 384:	9867      	ldr	r0, [sp, #412]	; 0x19c
 386:	9968      	ldr	r1, [sp, #416]	; 0x1a0
 388:	9094      	str	r0, [sp, #592]	; 0x250
 38a:	9195      	str	r1, [sp, #596]	; 0x254
_ZN4core3str21_$LT$impl$u20$str$GT$8as_bytes17hbca31947ef6ad219E():
/rustc/50a0defd5a93523067ef239936cc2e0755220904/src/libcore/str/mod.rs:2153
 38c:	9894      	ldr	r0, [sp, #592]	; 0x250
 38e:	9995      	ldr	r1, [sp, #596]	; 0x254
 390:	9096      	str	r0, [sp, #600]	; 0x258
 392:	9197      	str	r1, [sp, #604]	; 0x25c
 394:	9996      	ldr	r1, [sp, #600]	; 0x258
 396:	9a97      	ldr	r2, [sp, #604]	; 0x25c
_ZN3app11app_network16send_sensor_data17haaef9b646089d379E():
/Users/Luppy/mynewt/stm32bluepill-mynewt-sensor/rust/app/src/app_network.rs:98
 398:	9111      	str	r1, [sp, #68]	; 0x44
 39a:	9210      	str	r2, [sp, #64]	; 0x40
 39c:	e7ff      	b.n	39e <_ZN3app11app_network16send_sensor_data17haaef9b646089d379E+0x39e>
 39e:	f240 0000 	movw	r0, #0
 3a2:	f2c0 0000 	movt	r0, #0
 3a6:	9911      	ldr	r1, [sp, #68]	; 0x44
 3a8:	9a10      	ldr	r2, [sp, #64]	; 0x40
 3aa:	f7ff fffe 	bl	0 <_ZN6mynewt8encoding12coap_context11CoapContext11key_to_cstr17h0a418cf3862c99c8E>
 3ae:	900f      	str	r0, [sp, #60]	; 0x3c
 3b0:	e7ff      	b.n	3b2 <_ZN3app11app_network16send_sensor_data17haaef9b646089d379E+0x3b2>
 3b2:	980f      	ldr	r0, [sp, #60]	; 0x3c
 3b4:	f7ff fffe 	bl	0 <json_helper_object_array_end_item>
 3b8:	e7ff      	b.n	3ba <_ZN3app11app_network16send_sensor_data17haaef9b646089d379E+0x3ba>
 3ba:	e00c      	b.n	3d6 <_ZN3app11app_network16send_sensor_data17haaef9b646089d379E+0x3d6>
 3bc:	2001      	movs	r0, #1
 3be:	f88d 01a7 	strb.w	r0, [sp, #423]	; 0x1a7
 3c2:	f89d 11a7 	ldrb.w	r1, [sp, #423]	; 0x1a7
 3c6:	f240 0000 	movw	r0, #0
 3ca:	f2c0 0000 	movt	r0, #0
 3ce:	f7ff fffe 	bl	0 <_ZN6mynewt8encoding12coap_context11CoapContext4fail17h83962bfc6f09277fE>
 3d2:	e7ff      	b.n	3d4 <_ZN3app11app_network16send_sensor_data17haaef9b646089d379E+0x3d4>
 3d4:	e7ff      	b.n	3d6 <_ZN3app11app_network16send_sensor_data17haaef9b646089d379E+0x3d6>
 3d6:	f240 0000 	movw	r0, #0
 3da:	f2c0 0000 	movt	r0, #0
 3de:	906a      	str	r0, [sp, #424]	; 0x1a8
 3e0:	200d      	movs	r0, #13
 3e2:	906b      	str	r0, [sp, #428]	; 0x1ac
 3e4:	986a      	ldr	r0, [sp, #424]	; 0x1a8
 3e6:	996b      	ldr	r1, [sp, #428]	; 0x1ac
 3e8:	9090      	str	r0, [sp, #576]	; 0x240
 3ea:	9191      	str	r1, [sp, #580]	; 0x244
_ZN4core3str21_$LT$impl$u20$str$GT$8as_bytes17hbca31947ef6ad219E():
/rustc/50a0defd5a93523067ef239936cc2e0755220904/src/libcore/str/mod.rs:2153
 3ec:	9890      	ldr	r0, [sp, #576]	; 0x240
 3ee:	9991      	ldr	r1, [sp, #580]	; 0x244
 3f0:	9092      	str	r0, [sp, #584]	; 0x248
 3f2:	9193      	str	r1, [sp, #588]	; 0x24c
 3f4:	9992      	ldr	r1, [sp, #584]	; 0x248
 3f6:	9a93      	ldr	r2, [sp, #588]	; 0x24c
_ZN3app11app_network16send_sensor_data17haaef9b646089d379E():
/Users/Luppy/mynewt/stm32bluepill-mynewt-sensor/rust/app/src/app_network.rs:98
 3f8:	910e      	str	r1, [sp, #56]	; 0x38
 3fa:	920d      	str	r2, [sp, #52]	; 0x34
 3fc:	e7ff      	b.n	3fe <_ZN3app11app_network16send_sensor_data17haaef9b646089d379E+0x3fe>
 3fe:	f240 0000 	movw	r0, #0
 402:	f2c0 0000 	movt	r0, #0
 406:	990e      	ldr	r1, [sp, #56]	; 0x38
 408:	9a0d      	ldr	r2, [sp, #52]	; 0x34
 40a:	f7ff fffe 	bl	0 <_ZN6mynewt8encoding12coap_context11CoapContext11key_to_cstr17h0a418cf3862c99c8E>
 40e:	900c      	str	r0, [sp, #48]	; 0x30
 410:	e7ff      	b.n	412 <_ZN3app11app_network16send_sensor_data17haaef9b646089d379E+0x412>
 412:	980c      	ldr	r0, [sp, #48]	; 0x30
 414:	f7ff fffe 	bl	0 <json_helper_object_array_start_item>
 418:	e7ff      	b.n	a <_ZN3app11app_network16send_sensor_data17haaef9b646089d379E+0xa>
 41a:	f240 0100 	movw	r1, #0
 41e:	f2c0 0100 	movt	r1, #0
 422:	a86d      	add	r0, sp, #436	; 0x1b4
 424:	2204      	movs	r2, #4
 426:	f7ff fffe 	bl	0 <_ZN6mynewt4Strn3new17he20cc2d6381bc00dE>
 42a:	e7ff      	b.n	42c <_ZN3app11app_network16send_sensor_data17haaef9b646089d379E+0x42c>
 42c:	a86d      	add	r0, sp, #436	; 0x1b4
 42e:	906c      	str	r0, [sp, #432]	; 0x1b0
 430:	f240 0100 	movw	r1, #0
 434:	f2c0 0100 	movt	r1, #0
 438:	a871      	add	r0, sp, #452	; 0x1c4
 43a:	2207      	movs	r2, #7
 43c:	f7ff fffe 	bl	0 <_ZN6mynewt4Strn3new17he20cc2d6381bc00dE>
 440:	e7ff      	b.n	442 <_ZN3app11app_network16send_sensor_data17haaef9b646089d379E+0x442>
 442:	a871      	add	r0, sp, #452	; 0x1c4
 444:	9070      	str	r0, [sp, #448]	; 0x1c0
 446:	996c      	ldr	r1, [sp, #432]	; 0x1b0
 448:	9a70      	ldr	r2, [sp, #448]	; 0x1c0
 44a:	f240 0000 	movw	r0, #0
 44e:	f2c0 0000 	movt	r0, #0
 452:	f7ff fffe 	bl	0 <_ZN6mynewt8encoding12coap_context11CoapContext20json_set_text_string17h9c3caf9358348dcbE>
 456:	e7ff      	b.n	2 <_ZN3app11app_network16send_sensor_data17haaef9b646089d379E+0x2>
 458:	f240 0100 	movw	r1, #0
 45c:	f2c0 0100 	movt	r1, #0
 460:	a875      	add	r0, sp, #468	; 0x1d4
 462:	2206      	movs	r2, #6
 464:	f7ff fffe 	bl	0 <_ZN6mynewt4Strn3new17he20cc2d6381bc00dE>
 468:	e7ff      	b.n	46a <_ZN3app11app_network16send_sensor_data17haaef9b646089d379E+0x46a>
 46a:	a875      	add	r0, sp, #468	; 0x1d4
 46c:	9074      	str	r0, [sp, #464]	; 0x1d0
 46e:	a82e      	add	r0, sp, #184	; 0xb8
/Users/Luppy/mynewt/stm32bluepill-mynewt-sensor/rust/app/src/app_network.rs:107
        "device": &device_id,
 470:	9078      	str	r0, [sp, #480]	; 0x1e0
/Users/Luppy/mynewt/stm32bluepill-mynewt-sensor/rust/app/src/app_network.rs:98
    let _payload = coap!( @json {        
 472:	9974      	ldr	r1, [sp, #464]	; 0x1d0
 474:	9a78      	ldr	r2, [sp, #480]	; 0x1e0
 476:	f240 0000 	movw	r0, #0
 47a:	f2c0 0000 	movt	r0, #0
 47e:	f7ff fffe 	bl	0 <_ZN6mynewt8encoding12coap_context11CoapContext20json_set_text_string17h9c3caf9358348dcbE>
 482:	e7ff      	b.n	2 <_ZN3app11app_network16send_sensor_data17haaef9b646089d379E+0x2>
 484:	f240 0000 	movw	r0, #0
 488:	f2c0 0000 	movt	r0, #0
 48c:	9079      	str	r0, [sp, #484]	; 0x1e4
 48e:	200d      	movs	r0, #13
 490:	907a      	str	r0, [sp, #488]	; 0x1e8
 492:	9879      	ldr	r0, [sp, #484]	; 0x1e4
 494:	997a      	ldr	r1, [sp, #488]	; 0x1e8
 496:	908c      	str	r0, [sp, #560]	; 0x230
 498:	918d      	str	r1, [sp, #564]	; 0x234
_ZN4core3str21_$LT$impl$u20$str$GT$8as_bytes17hbca31947ef6ad219E():
/rustc/50a0defd5a93523067ef239936cc2e0755220904/src/libcore/str/mod.rs:2153
 49a:	988c      	ldr	r0, [sp, #560]	; 0x230
 49c:	998d      	ldr	r1, [sp, #564]	; 0x234
 49e:	908e      	str	r0, [sp, #568]	; 0x238
 4a0:	918f      	str	r1, [sp, #572]	; 0x23c
 4a2:	998e      	ldr	r1, [sp, #568]	; 0x238
 4a4:	9a8f      	ldr	r2, [sp, #572]	; 0x23c
_ZN3app11app_network16send_sensor_data17haaef9b646089d379E():
/Users/Luppy/mynewt/stm32bluepill-mynewt-sensor/rust/app/src/app_network.rs:98
 4a6:	910b      	str	r1, [sp, #44]	; 0x2c
 4a8:	920a      	str	r2, [sp, #40]	; 0x28
 4aa:	e7ff      	b.n	4ac <_ZN3app11app_network16send_sensor_data17haaef9b646089d379E+0x4ac>
 4ac:	f240 0000 	movw	r0, #0
 4b0:	f2c0 0000 	movt	r0, #0
 4b4:	990b      	ldr	r1, [sp, #44]	; 0x2c
 4b6:	9a0a      	ldr	r2, [sp, #40]	; 0x28
 4b8:	f7ff fffe 	bl	0 <_ZN6mynewt8encoding12coap_context11CoapContext11key_to_cstr17h0a418cf3862c99c8E>
 4bc:	9009      	str	r0, [sp, #36]	; 0x24
 4be:	e7ff      	b.n	4c0 <_ZN3app11app_network16send_sensor_data17haaef9b646089d379E+0x4c0>
 4c0:	9809      	ldr	r0, [sp, #36]	; 0x24
 4c2:	f7ff fffe 	bl	0 <json_helper_object_array_end_item>
 4c6:	e7ff      	b.n	2 <_ZN3app11app_network16send_sensor_data17haaef9b646089d379E+0x2>
 4c8:	f240 0000 	movw	r0, #0
 4cc:	f2c0 0000 	movt	r0, #0
 4d0:	907b      	str	r0, [sp, #492]	; 0x1ec
 4d2:	2007      	movs	r0, #7
 4d4:	907c      	str	r0, [sp, #496]	; 0x1f0
 4d6:	f240 0000 	movw	r0, #0
 4da:	f2c0 0000 	movt	r0, #0
 4de:	f7ff fffe 	bl	0 <_ZN6mynewt8encoding12coap_context11CoapContext11to_void_ptr17h0d3c5b9c2d5e4e5bE>
 4e2:	9008      	str	r0, [sp, #32]
 4e4:	e7ff      	b.n	4e6 <_ZN3app11app_network16send_sensor_data17haaef9b646089d379E+0x4e6>
 4e6:	987b      	ldr	r0, [sp, #492]	; 0x1ec
 4e8:	997c      	ldr	r1, [sp, #496]	; 0x1f0
 4ea:	9088      	str	r0, [sp, #544]	; 0x220
 4ec:	9189      	str	r1, [sp, #548]	; 0x224
_ZN4core3str21_$LT$impl$u20$str$GT$8as_bytes17hbca31947ef6ad219E():
/rustc/50a0defd5a93523067ef239936cc2e0755220904/src/libcore/str/mod.rs:2153
 4ee:	9888      	ldr	r0, [sp, #544]	; 0x220
 4f0:	9989      	ldr	r1, [sp, #548]	; 0x224
 4f2:	908a      	str	r0, [sp, #552]	; 0x228
 4f4:	918b      	str	r1, [sp, #556]	; 0x22c
 4f6:	998a      	ldr	r1, [sp, #552]	; 0x228
 4f8:	9a8b      	ldr	r2, [sp, #556]	; 0x22c
_ZN3app11app_network16send_sensor_data17haaef9b646089d379E():
/Users/Luppy/mynewt/stm32bluepill-mynewt-sensor/rust/app/src/app_network.rs:98
 4fa:	9107      	str	r1, [sp, #28]
 4fc:	9206      	str	r2, [sp, #24]
 4fe:	e7ff      	b.n	500 <_ZN3app11app_network16send_sensor_data17haaef9b646089d379E+0x500>
 500:	f240 0000 	movw	r0, #0
 504:	f2c0 0000 	movt	r0, #0
 508:	9907      	ldr	r1, [sp, #28]
 50a:	9a06      	ldr	r2, [sp, #24]
 50c:	f7ff fffe 	bl	0 <_ZN6mynewt8encoding12coap_context11CoapContext11key_to_cstr17h0a418cf3862c99c8E>
 510:	9005      	str	r0, [sp, #20]
 512:	e7ff      	b.n	514 <_ZN3app11app_network16send_sensor_data17haaef9b646089d379E+0x514>
 514:	9808      	ldr	r0, [sp, #32]
 516:	9905      	ldr	r1, [sp, #20]
 518:	f7ff fffe 	bl	0 <json_helper_close_array>
 51c:	e7ff      	b.n	2 <json_rep_end_root_object+0x2>
 51e:	f7ff fffe 	bl	0 <json_rep_end_root_object>
 522:	e7ff      	b.n	524 <_ZN3app11app_network16send_sensor_data17haaef9b646089d379E+0x524>
 524:	a87f      	add	r0, sp, #508	; 0x1fc
/Users/Luppy/mynewt/stm32bluepill-mynewt-sensor/rust/app/src/app_network.rs:113
    sensor_network::do_server_post() ? ;
 526:	f7ff fffe 	bl	0 <_ZN6mynewt4libs14sensor_network14do_server_post17h27b8dd125aeba137E>
 52a:	e7ff      	b.n	52c <_ZN3app11app_network16send_sensor_data17haaef9b646089d379E+0x52c>
 52c:	a87d      	add	r0, sp, #500	; 0x1f4
 52e:	a97f      	add	r1, sp, #508	; 0x1fc
 530:	f7ff fffe 	bl	0 <_ZN73_$LT$core..result..Result$LT$T$C$E$GT$$u20$as$u20$core..ops..try..Try$GT$11into_result17hbefde40070c9a0e0E>
 534:	e7ff      	b.n	536 <_ZN3app11app_network16send_sensor_data17haaef9b646089d379E+0x536>
 536:	f89d 01f4 	ldrb.w	r0, [sp, #500]	; 0x1f4
 53a:	07c1      	lsls	r1, r0, #31
 53c:	2900      	cmp	r1, #0
 53e:	9004      	str	r0, [sp, #16]
 540:	d012      	beq.n	568 <_ZN3app11app_network16send_sensor_data17haaef9b646089d379E+0x568>
 542:	e7ff      	b.n	544 <_ZN3app11app_network16send_sensor_data17haaef9b646089d379E+0x544>
 544:	9804      	ldr	r0, [sp, #16]
 546:	2801      	cmp	r0, #1
 548:	f47f ada0 	bne.w	8c <_ZN3app11app_network16send_sensor_data17haaef9b646089d379E+0x8c>
 54c:	e7ff      	b.n	54e <_ZN3app11app_network16send_sensor_data17haaef9b646089d379E+0x54e>
 54e:	987e      	ldr	r0, [sp, #504]	; 0x1f8
 550:	9081      	str	r0, [sp, #516]	; 0x204
 552:	9881      	ldr	r0, [sp, #516]	; 0x204
 554:	f7ff fffe 	bl	0 <_ZN50_$LT$T$u20$as$u20$core..convert..From$LT$T$GT$$GT$4from17h18d49e5f5b831b87E>
 558:	9003      	str	r0, [sp, #12]
 55a:	e7ff      	b.n	55c <_ZN3app11app_network16send_sensor_data17haaef9b646089d379E+0x55c>
 55c:	9803      	ldr	r0, [sp, #12]
 55e:	f7ff fffe 	bl	0 <_ZN73_$LT$core..result..Result$LT$T$C$E$GT$$u20$as$u20$core..ops..try..Try$GT$10from_error17h80f38a6d6d522ff5E>
 562:	902c      	str	r0, [sp, #176]	; 0xb0
 564:	e7ff      	b.n	566 <_ZN3app11app_network16send_sensor_data17haaef9b646089d379E+0x566>
 566:	e613      	b.n	190 <_ZN3app11app_network16send_sensor_data17haaef9b646089d379E+0x190>
 568:	f89d 01f5 	ldrb.w	r0, [sp, #501]	; 0x1f5
 56c:	f88d 020b 	strb.w	r0, [sp, #523]	; 0x20b
/Users/Luppy/mynewt/stm32bluepill-mynewt-sensor/rust/app/src/app_network.rs:116
    console::print("NET view your sensor at \nhttps://blue-pill-geolocate.appspot.com?device=");
 570:	f240 0000 	movw	r0, #0
 574:	f2c0 0000 	movt	r0, #0
 578:	2148      	movs	r1, #72	; 0x48
 57a:	f7ff fffe 	bl	0 <_ZN6mynewt3sys7console5print17hea17a43bd9cd9b8bE>
 57e:	e7ff      	b.n	580 <_ZN3app11app_network16send_sensor_data17haaef9b646089d379E+0x580>
 580:	a82e      	add	r0, sp, #184	; 0xb8
/Users/Luppy/mynewt/stm32bluepill-mynewt-sensor/rust/app/src/app_network.rs:117
    console::print_strn(&device_id); console::print("\n");
 582:	f7ff fffe 	bl	0 <_ZN6mynewt3sys7console10print_strn17h3a375a76c52dc7fdE>
 586:	e7ff      	b.n	2 <_ZN3app11app_network16send_sensor_data17haaef9b646089d379E+0x2>
 588:	f240 0000 	movw	r0, #0
 58c:	f2c0 0000 	movt	r0, #0
 590:	2101      	movs	r1, #1
 592:	f7ff fffe 	bl	0 <_ZN6mynewt3sys7console5print17hea17a43bd9cd9b8bE>
 596:	e7ff      	b.n	598 <_ZN3app11app_network16send_sensor_data17haaef9b646089d379E+0x598>
 598:	2000      	movs	r0, #0
/Users/Luppy/mynewt/stm32bluepill-mynewt-sensor/rust/app/src/app_network.rs:120
    Ok(())
 59a:	902c      	str	r0, [sp, #176]	; 0xb0
 59c:	2001      	movs	r0, #1
 59e:	902c      	str	r0, [sp, #176]	; 0xb0
/Users/Luppy/mynewt/stm32bluepill-mynewt-sensor/rust/app/src/app_network.rs:121
}
 5a0:	e582      	b.n	a8 <_ZN3app11app_network16send_sensor_data17haaef9b646089d379E+0xa8>

app-1669bcaaaa4db712.1hhkk4hcp76ew96c.rcgu.o:     file format elf32-littlearm

SYMBOL TABLE:
00000000 l    df *ABS*	00000000 1hhkk4hcp76ew96c
00001b5f l       .debug_str	00000000 
000023fe l       .debug_str	00000000 
00002405 l       .debug_str	00000000 
0000240d l       .debug_str	00000000 
0000242b l       .debug_str	00000000 
0000243b l       .debug_str	00000000 
0000246e l       .debug_str	00000000 
00002483 l       .debug_str	00000000 
00002496 l       .debug_str	00000000 
000024ab l       .debug_str	00000000 
000024b2 l       .debug_str	00000000 
000024c7 l       .debug_str	00000000 
000024f1 l       .debug_str	00000000 
000024f5 l       .debug_str	00000000 
000024fe l       .debug_str	00000000 
00000000 l       .debug_str	00000000 
00000041 l       .debug_str	00000000 
00000055 l       .debug_str	00000000 
00000085 l       .debug_str	00000000 
00000089 l       .debug_str	00000000 
00000094 l       .debug_str	00000000 
000000a2 l       .debug_str	00000000 
000000a9 l       .debug_str	00000000 
000000ad l       .debug_str	00000000 
000000b0 l       .debug_str	00000000 
000000b8 l       .debug_str	00000000 
000000bc l       .debug_str	00000000 
000000c5 l       .debug_str	00000000 
000000cf l       .debug_str	00000000 
000000d6 l       .debug_str	00000000 
000000dc l       .debug_str	00000000 
000000e2 l       .debug_str	00000000 
000000e7 l       .debug_str	00000000 
000000ef l       .debug_str	00000000 
000000f4 l       .debug_str	00000000 
0000012b l       .debug_str	00000000 
00000132 l       .debug_str	00000000 
00000136 l       .debug_str	00000000 
0000013e l       .debug_str	00000000 
00000149 l       .debug_str	00000000 
00000154 l       .debug_str	00000000 
00000161 l       .debug_str	00000000 
0000016c l       .debug_str	00000000 
00000174 l       .debug_str	00000000 
0000017f l       .debug_str	00000000 
0000018a l       .debug_str	00000000 
00000194 l       .debug_str	00000000 
0000019f l       .debug_str	00000000 
000001aa l       .debug_str	00000000 
000001b7 l       .debug_str	00000000 
000001c3 l       .debug_str	00000000 
000001d0 l       .debug_str	00000000 
000001de l       .debug_str	00000000 
000001e8 l       .debug_str	00000000 
000001f5 l       .debug_str	00000000 
00000201 l       .debug_str	00000000 
00000206 l       .debug_str	00000000 
0000020a l       .debug_str	00000000 
00000215 l       .debug_str	00000000 
00000220 l       .debug_str	00000000 
00000227 l       .debug_str	00000000 
00000266 l       .debug_str	00000000 
0000027c l       .debug_str	00000000 
00000280 l       .debug_str	00000000 
00000283 l       .debug_str	00000000 
00000286 l       .debug_str	00000000 
00000288 l       .debug_str	00000000 
0000028a l       .debug_str	00000000 
0000028e l       .debug_str	00000000 
000002b6 l       .debug_str	00000000 
000002bd l       .debug_str	00000000 
000002c0 l       .debug_str	00000000 
000002c9 l       .debug_str	00000000 
000002cf l       .debug_str	00000000 
000002d6 l       .debug_str	00000000 
000002d9 l       .debug_str	00000000 
000002e5 l       .debug_str	00000000 
000002ed l       .debug_str	00000000 
000002f4 l       .debug_str	00000000 
000002f9 l       .debug_str	00000000 
00000310 l       .debug_str	00000000 
0000036a l       .debug_str	00000000 
0000036f l       .debug_str	00000000 
000003d1 l       .debug_str	00000000 
000003dc l       .debug_str	00000000 
00000423 l       .debug_str	00000000 
00000472 l       .debug_str	00000000 
0000047c l       .debug_str	00000000 
000004b9 l       .debug_str	00000000 
000004fe l       .debug_str	00000000 
00000507 l       .debug_str	00000000 
00000517 l       .debug_str	00000000 
0000051f l       .debug_str	00000000 
00000574 l       .debug_str	00000000 
000005d1 l       .debug_str	00000000 
000005dd l       .debug_str	00000000 
000005e6 l       .debug_str	00000000 
000005f2 l       .debug_str	00000000 
000005fe l       .debug_str	00000000 
00000607 l       .debug_str	00000000 
0000060f l       .debug_str	00000000 
00000617 l       .debug_str	00000000 
00000621 l       .debug_str	00000000 
00000636 l       .debug_str	00000000 
0000063d l       .debug_str	00000000 
0000065d l       .debug_str	00000000 
00000664 l       .debug_str	00000000 
0000066c l       .debug_str	00000000 
00000676 l       .debug_str	00000000 
00000681 l       .debug_str	00000000 
0000068a l       .debug_str	00000000 
00000695 l       .debug_str	00000000 
000006a1 l       .debug_str	00000000 
000006a5 l       .debug_str	00000000 
000006ae l       .debug_str	00000000 
000006b5 l       .debug_str	00000000 
000006bd l       .debug_str	00000000 
000006c5 l       .debug_str	00000000 
000006cf l       .debug_str	00000000 
000006d5 l       .debug_str	00000000 
000006dc l       .debug_str	00000000 
000006e3 l       .debug_str	00000000 
00000710 l       .debug_str	00000000 
00000745 l       .debug_str	00000000 
0000074b l       .debug_str	00000000 
00000751 l       .debug_str	00000000 
00000760 l       .debug_str	00000000 
00000770 l       .debug_str	00000000 
00000780 l       .debug_str	00000000 
00000788 l       .debug_str	00000000 
000007b1 l       .debug_str	00000000 
0000080f l       .debug_str	00000000 
00000875 l       .debug_str	00000000 
0000087c l       .debug_str	00000000 
00000884 l       .debug_str	00000000 
0000088d l       .debug_str	00000000 
000008ab l       .debug_str	00000000 
000008bb l       .debug_str	00000000 
000008c9 l       .debug_str	00000000 
000008d4 l       .debug_str	00000000 
000008e1 l       .debug_str	00000000 
000008f0 l       .debug_str	00000000 
00000906 l       .debug_str	00000000 
00000910 l       .debug_str	00000000 
00000919 l       .debug_str	00000000 
00000922 l       .debug_str	00000000 
00000948 l       .debug_str	00000000 
0000095e l       .debug_str	00000000 
00000969 l       .debug_str	00000000 
0000097f l       .debug_str	00000000 
00000987 l       .debug_str	00000000 
000009a8 l       .debug_str	00000000 
000009bf l       .debug_str	00000000 
000009c4 l       .debug_str	00000000 
000009cc l       .debug_str	00000000 
000009d5 l       .debug_str	00000000 
000009de l       .debug_str	00000000 
000009e7 l       .debug_str	00000000 
000009ef l       .debug_str	00000000 
000009f3 l       .debug_str	00000000 
000009fa l       .debug_str	00000000 
00000a06 l       .debug_str	00000000 
00000a11 l       .debug_str	00000000 
00000a19 l       .debug_str	00000000 
00000a21 l       .debug_str	00000000 
00000a9d l       .debug_str	00000000 
00000b21 l       .debug_str	00000000 
00000c1d l       .debug_str	00000000 
00000d21 l       .debug_str	00000000 
00000d2f l       .debug_str	00000000 
00000d3a l       .debug_str	00000000 
00000d44 l       .debug_str	00000000 
00000d58 l       .debug_str	00000000 
00000d63 l       .debug_str	00000000 
00000d91 l       .debug_str	00000000 
00000e0c l       .debug_str	00000000 
00000e8f l       .debug_str	00000000 
00000e9d l       .debug_str	00000000 
00000efc l       .debug_str	00000000 
00000f63 l       .debug_str	00000000 
00000f79 l       .debug_str	00000000 
00000f89 l       .debug_str	00000000 
00000f98 l       .debug_str	00000000 
00000f9c l       .debug_str	00000000 
00000fa3 l       .debug_str	00000000 
00000fa9 l       .debug_str	00000000 
00000fad l       .debug_str	00000000 
00000fb3 l       .debug_str	00000000 
00000fb9 l       .debug_str	00000000 
00000fc5 l       .debug_str	00000000 
00000fcd l       .debug_str	00000000 
00000fd3 l       .debug_str	00000000 
00000fdb l       .debug_str	00000000 
00000fe1 l       .debug_str	00000000 
00001004 l       .debug_str	00000000 
00001014 l       .debug_str	00000000 
00001047 l       .debug_str	00000000 
00001087 l       .debug_str	00000000 
000010cf l       .debug_str	00000000 
000010d3 l       .debug_str	00000000 
000010d9 l       .debug_str	00000000 
000010df l       .debug_str	00000000 
000010e5 l       .debug_str	00000000 
000010f7 l       .debug_str	00000000 
0000112c l       .debug_str	00000000 
0000116e l       .debug_str	00000000 
000011b8 l       .debug_str	00000000 
000011bc l       .debug_str	00000000 
000011c2 l       .debug_str	00000000 
000011c8 l       .debug_str	00000000 
000011ce l       .debug_str	00000000 
000011e0 l       .debug_str	00000000 
00001215 l       .debug_str	00000000 
00001257 l       .debug_str	00000000 
000012a1 l       .debug_str	00000000 
000012a5 l       .debug_str	00000000 
000012ab l       .debug_str	00000000 
000012b1 l       .debug_str	00000000 
000012b7 l       .debug_str	00000000 
000012bd l       .debug_str	00000000 
000012ce l       .debug_str	00000000 
00001302 l       .debug_str	00000000 
00001343 l       .debug_str	00000000 
0000138c l       .debug_str	00000000 
00001391 l       .debug_str	00000000 
00001396 l       .debug_str	00000000 
0000139a l       .debug_str	00000000 
000013a0 l       .debug_str	00000000 
000013a6 l       .debug_str	00000000 
000013ac l       .debug_str	00000000 
000013bd l       .debug_str	00000000 
000013f1 l       .debug_str	00000000 
00001432 l       .debug_str	00000000 
0000147b l       .debug_str	00000000 
0000147f l       .debug_str	00000000 
00001488 l       .debug_str	00000000 
00001499 l       .debug_str	00000000 
000014cd l       .debug_str	00000000 
0000150e l       .debug_str	00000000 
00001557 l       .debug_str	00000000 
0000155c l       .debug_str	00000000 
00001560 l       .debug_str	00000000 
00001569 l       .debug_str	00000000 
00001570 l       .debug_str	00000000 
00001578 l       .debug_str	00000000 
0000158a l       .debug_str	00000000 
000015bf l       .debug_str	00000000 
00001601 l       .debug_str	00000000 
0000164b l       .debug_str	00000000 
0000164f l       .debug_str	00000000 
00001655 l       .debug_str	00000000 
0000165b l       .debug_str	00000000 
00001661 l       .debug_str	00000000 
00001667 l       .debug_str	00000000 
0000166f l       .debug_str	00000000 
0000167d l       .debug_str	00000000 
0000168c l       .debug_str	00000000 
0000169d l       .debug_str	00000000 
000016a8 l       .debug_str	00000000 
000016b3 l       .debug_str	00000000 
000016be l       .debug_str	00000000 
000016c5 l       .debug_str	00000000 
000016e8 l       .debug_str	00000000 
000016fa l       .debug_str	00000000 
0000172f l       .debug_str	00000000 
00001771 l       .debug_str	00000000 
000017bb l       .debug_str	00000000 
000017bf l       .debug_str	00000000 
000017c9 l       .debug_str	00000000 
000017db l       .debug_str	00000000 
00001810 l       .debug_str	00000000 
00001852 l       .debug_str	00000000 
0000189c l       .debug_str	00000000 
000018a1 l       .debug_str	00000000 
000018ab l       .debug_str	00000000 
000018bd l       .debug_str	00000000 
000018f2 l       .debug_str	00000000 
00001934 l       .debug_str	00000000 
0000197e l       .debug_str	00000000 
00001992 l       .debug_str	00000000 
00001996 l       .debug_str	00000000 
000019a4 l       .debug_str	00000000 
000019b4 l       .debug_str	00000000 
000019bd l       .debug_str	00000000 
000019c8 l       .debug_str	00000000 
000019d7 l       .debug_str	00000000 
000019ec l       .debug_str	00000000 
00001a1d l       .debug_str	00000000 
00001aba l       .debug_str	00000000 
00001b6a l       .debug_str	00000000 
00001b73 l       .debug_str	00000000 
00001b94 l       .debug_str	00000000 
00001ba7 l       .debug_str	00000000 
00001bdd l       .debug_str	00000000 
00001c60 l       .debug_str	00000000 
00001ceb l       .debug_str	00000000 
00001d07 l       .debug_str	00000000 
00001d53 l       .debug_str	00000000 
00001da7 l       .debug_str	00000000 
00001dc4 l       .debug_str	00000000 
00001dd8 l       .debug_str	00000000 
00001e24 l       .debug_str	00000000 
00001e78 l       .debug_str	00000000 
00001e8e l       .debug_str	00000000 
00001ea2 l       .debug_str	00000000 
00001ee9 l       .debug_str	00000000 
00001f38 l       .debug_str	00000000 
00001f41 l       .debug_str	00000000 
00001f4f l       .debug_str	00000000 
00001f80 l       .debug_str	00000000 
00001f86 l       .debug_str	00000000 
00001f8e l       .debug_str	00000000 
00001f95 l       .debug_str	00000000 
00001f9d l       .debug_str	00000000 
00001fa8 l       .debug_str	00000000 
00001fb0 l       .debug_str	00000000 
00001fbf l       .debug_str	00000000 
00001fc3 l       .debug_str	00000000 
00001fce l       .debug_str	00000000 
00001fda l       .debug_str	00000000 
00001fe5 l       .debug_str	00000000 
00001ff6 l       .debug_str	00000000 
00001ffc l       .debug_str	00000000 
00002004 l       .debug_str	00000000 
0000200b l       .debug_str	00000000 
00002015 l       .debug_str	00000000 
0000201d l       .debug_str	00000000 
00002025 l       .debug_str	00000000 
00002047 l       .debug_str	00000000 
00002052 l       .debug_str	00000000 
0000205e l       .debug_str	00000000 
00002066 l       .debug_str	00000000 
0000206f l       .debug_str	00000000 
0000207a l       .debug_str	00000000 
00002081 l       .debug_str	00000000 
0000208c l       .debug_str	00000000 
00002097 l       .debug_str	00000000 
000020a7 l       .debug_str	00000000 
000020b1 l       .debug_str	00000000 
000020b7 l       .debug_str	00000000 
000020d9 l       .debug_str	00000000 
00002111 l       .debug_str	00000000 
00002151 l       .debug_str	00000000 
00002158 l       .debug_str	00000000 
00002160 l       .debug_str	00000000 
00002177 l       .debug_str	00000000 
00002180 l       .debug_str	00000000 
00002190 l       .debug_str	00000000 
0000219f l       .debug_str	00000000 
000021a7 l       .debug_str	00000000 
000021ae l       .debug_str	00000000 
000021b6 l       .debug_str	00000000 
000021d4 l       .debug_str	00000000 
000021e4 l       .debug_str	00000000 
00002217 l       .debug_str	00000000 
0000222c l       .debug_str	00000000 
00002235 l       .debug_str	00000000 
00002292 l       .debug_str	00000000 
000022f7 l       .debug_str	00000000 
00002301 l       .debug_str	00000000 
00002311 l       .debug_str	00000000 
00002326 l       .debug_str	00000000 
0000232e l       .debug_str	00000000 
00002392 l       .debug_str	00000000 
00000000 l     O .rodata..Lanon.6a888d804666a5839e420f2c6b5262e1.1	0000000e .Lanon.6a888d804666a5839e420f2c6b5262e1.1
00000000 l     O .rodata..Lanon.6a888d804666a5839e420f2c6b5262e1.2	00000006 .Lanon.6a888d804666a5839e420f2c6b5262e1.2
00000000 l     O .rodata..Lanon.6a888d804666a5839e420f2c6b5262e1.4	0000000c .Lanon.6a888d804666a5839e420f2c6b5262e1.4
00000000 l     O .rodata._ZN3app10app_sensor13SENSOR_DEVICE17h466e382b36b4edc0E	0000000c _ZN3app10app_sensor13SENSOR_DEVICE17h466e382b36b4edc0E
00000000 l    d  .text._ZN3app10app_sensor21start_sensor_listener17he6710ab1ed16405cE	00000000 .text._ZN3app10app_sensor21start_sensor_listener17he6710ab1ed16405cE
00000000 l    d  .rodata..Lanon.6a888d804666a5839e420f2c6b5262e1.0	00000000 .rodata..Lanon.6a888d804666a5839e420f2c6b5262e1.0
00000000 l    d  .rodata._ZN3app10app_sensor13SENSOR_DEVICE17h466e382b36b4edc0E	00000000 .rodata._ZN3app10app_sensor13SENSOR_DEVICE17h466e382b36b4edc0E
00000000 l    d  .rodata..Lanon.6a888d804666a5839e420f2c6b5262e1.3	00000000 .rodata..Lanon.6a888d804666a5839e420f2c6b5262e1.3
00000000 l    d  .debug_abbrev	00000000 .debug_abbrev
00000000 l    d  .debug_info	00000000 .debug_info
00000000 l    d  .debug_ranges	00000000 .debug_ranges
00000000 l    d  .debug_frame	00000000 .debug_frame
00000000 l    d  .debug_line	00000000 .debug_line
00000000 g     F .text._ZN3app10app_sensor21start_sensor_listener17he6710ab1ed16405cE	00000176 .hidden _ZN3app10app_sensor21start_sensor_listener17he6710ab1ed16405cE
00000000         *UND*	00000000 .hidden _ZN3app11app_network21aggregate_sensor_data17h2e6dc21aa0529facE
00000000         *UND*	00000000 _ZN4core6option15Option$LT$T$GT$6expect17he3620cc016d45c7aE
00000000         *UND*	00000000 _ZN50_$LT$T$u20$as$u20$core..convert..From$LT$T$GT$$GT$4from17h18d49e5f5b831b87E
00000000         *UND*	00000000 _ZN6mynewt2hw10sensor_mgr14find_bydevname17h488568cfd50c5e1eE
00000000         *UND*	00000000 _ZN6mynewt2hw6sensor17register_listener17h0f6fe805ddb6887dE
00000000         *UND*	00000000 _ZN6mynewt2hw6sensor19new_sensor_listener17ha1a72a76249a503eE
00000000         *UND*	00000000 _ZN6mynewt2hw6sensor8bindings16set_poll_rate_ms17h8c3ab719f02fe225E
00000000         *UND*	00000000 _ZN6mynewt3sys7console5print17hea17a43bd9cd9b8bE
00000000         *UND*	00000000 _ZN73_$LT$core..result..Result$LT$T$C$E$GT$$u20$as$u20$core..ops..try..Try$GT$10from_error17h80f38a6d6d522ff5E
00000000         *UND*	00000000 _ZN73_$LT$core..result..Result$LT$T$C$E$GT$$u20$as$u20$core..ops..try..Try$GT$11into_result17h4d269a69f3ac33acE
00000000         *UND*	00000000 _ZN73_$LT$core..result..Result$LT$T$C$E$GT$$u20$as$u20$core..ops..try..Try$GT$11into_result17hbefd7b540f8203c4E
00000000         *UND*	00000000 _ZN99_$LT$mynewt..hw..sensor_mgr..SensorsByDevname$u20$as$u20$core..iter..traits..iterator..Iterator$GT$4next17h93b463d19a383fa9E



Disassembly of section .text._ZN3app10app_sensor21start_sensor_listener17he6710ab1ed16405cE:

00000000 <_ZN3app10app_sensor21start_sensor_listener17he6710ab1ed16405cE>:
_ZN3app10app_sensor21start_sensor_listener17he6710ab1ed16405cE():
/Users/Luppy/mynewt/stm32bluepill-mynewt-sensor/rust/app/src/app_sensor.rs:46
///  Type of sensor: Raw temperature sensor (integer sensor values 0 to 4095)
const TEMP_SENSOR_TYPE: sensor_type_t = sensor::SENSOR_TYPE_AMBIENT_TEMPERATURE_RAW;

///  Ask Mynewt to poll or read the temperature sensor and call `aggregate_sensor_data()`
///  Return `Ok()` if successful, else return `Err()` with `MynewtError` error code inside.
pub fn start_sensor_listener() -> MynewtResult<()>  {  //  Returns an error code upon error.
   0:	b5f0      	push	{r4, r5, r6, r7, lr}
   2:	b0bd      	sub	sp, #244	; 0xf4
/Users/Luppy/mynewt/stm32bluepill-mynewt-sensor/rust/app/src/app_sensor.rs:47
    console::print("Rust TMP poll\n");
   4:	f240 0000 	movw	r0, #0
   8:	f2c0 0000 	movt	r0, #0
   c:	210e      	movs	r1, #14
   e:	f7ff fffe 	bl	0 <_ZN6mynewt3sys7console5print17hea17a43bd9cd9b8bE>
  12:	e7ff      	b.n	2 <_ZN3app10app_sensor21start_sensor_listener17he6710ab1ed16405cE+0x2>
/Users/Luppy/mynewt/stm32bluepill-mynewt-sensor/rust/app/src/app_sensor.rs:50

    //  Fetch the sensor by name.
    let sensor = sensor_mgr::find_bydevname(&SENSOR_DEVICE)
  14:	f240 0100 	movw	r1, #0
  18:	f2c0 0100 	movt	r1, #0
  1c:	a80d      	add	r0, sp, #52	; 0x34
  1e:	f7ff fffe 	bl	0 <_ZN6mynewt2hw10sensor_mgr14find_bydevname17h488568cfd50c5e1eE>
  22:	e7ff      	b.n	24 <_ZN3app10app_sensor21start_sensor_listener17he6710ab1ed16405cE+0x24>
  24:	a80d      	add	r0, sp, #52	; 0x34
  26:	f7ff fffe 	bl	0 <_ZN99_$LT$mynewt..hw..sensor_mgr..SensorsByDevname$u20$as$u20$core..iter..traits..iterator..Iterator$GT$4next17h93b463d19a383fa9E>
  2a:	900a      	str	r0, [sp, #40]	; 0x28
  2c:	9109      	str	r1, [sp, #36]	; 0x24
  2e:	e7ff      	b.n	30 <_ZN3app10app_sensor21start_sensor_listener17he6710ab1ed16405cE+0x30>
  30:	f240 0200 	movw	r2, #0
  34:	f2c0 0200 	movt	r2, #0
  38:	2306      	movs	r3, #6
  3a:	980a      	ldr	r0, [sp, #40]	; 0x28
  3c:	9909      	ldr	r1, [sp, #36]	; 0x24
  3e:	f7ff fffe 	bl	0 <_ZN4core6option15Option$LT$T$GT$6expect17he3620cc016d45c7aE>
  42:	900c      	str	r0, [sp, #48]	; 0x30
  44:	e7ff      	b.n	46 <_ZN3app10app_sensor21start_sensor_listener17he6710ab1ed16405cE+0x46>
/Users/Luppy/mynewt/stm32bluepill-mynewt-sensor/rust/app/src/app_sensor.rs:55
        .next()             //  Fetch the first sensor that matches
        .expect("no TMP");  //  Stop if no sensor found

    //  At power on, we ask Mynewt to poll our temperature sensor every 10 seconds.
    sensor::set_poll_rate_ms(&SENSOR_DEVICE, SENSOR_POLL_TIME) ? ;
  46:	f240 0000 	movw	r0, #0
  4a:	f2c0 0000 	movt	r0, #0
  4e:	f247 5130 	movw	r1, #30000	; 0x7530
  52:	f7ff fffe 	bl	0 <_ZN6mynewt2hw6sensor8bindings16set_poll_rate_ms17h8c3ab719f02fe225E>
  56:	9008      	str	r0, [sp, #32]
  58:	e7ff      	b.n	5a <_ZN3app10app_sensor21start_sensor_listener17he6710ab1ed16405cE+0x5a>
  5a:	9808      	ldr	r0, [sp, #32]
  5c:	f7ff fffe 	bl	0 <_ZN73_$LT$core..result..Result$LT$T$C$E$GT$$u20$as$u20$core..ops..try..Try$GT$11into_result17hbefd7b540f8203c4E>
  60:	9011      	str	r0, [sp, #68]	; 0x44
  62:	e7ff      	b.n	64 <_ZN3app10app_sensor21start_sensor_listener17he6710ab1ed16405cE+0x64>
  64:	9811      	ldr	r0, [sp, #68]	; 0x44
  66:	1e41      	subs	r1, r0, #1
  68:	bf18      	it	ne
  6a:	2101      	movne	r1, #1
  6c:	2801      	cmp	r0, #1
  6e:	9107      	str	r1, [sp, #28]
  70:	d016      	beq.n	a0 <_ZN3app10app_sensor21start_sensor_listener17he6710ab1ed16405cE+0xa0>
  72:	e7ff      	b.n	74 <_ZN3app10app_sensor21start_sensor_listener17he6710ab1ed16405cE+0x74>
  74:	9807      	ldr	r0, [sp, #28]
  76:	2801      	cmp	r0, #1
  78:	d001      	beq.n	7e <_ZN3app10app_sensor21start_sensor_listener17he6710ab1ed16405cE+0x7e>
  7a:	e7ff      	b.n	7c <_ZN3app10app_sensor21start_sensor_listener17he6710ab1ed16405cE+0x7c>
/Users/Luppy/mynewt/stm32bluepill-mynewt-sensor/rust/app/src/lib.rs:1
/*
  7c:	defe      	udf	#254	; 0xfe
/Users/Luppy/mynewt/stm32bluepill-mynewt-sensor/rust/app/src/app_sensor.rs:55
  7e:	9811      	ldr	r0, [sp, #68]	; 0x44
  80:	9012      	str	r0, [sp, #72]	; 0x48
  82:	9812      	ldr	r0, [sp, #72]	; 0x48
  84:	f7ff fffe 	bl	0 <_ZN50_$LT$T$u20$as$u20$core..convert..From$LT$T$GT$$GT$4from17h18d49e5f5b831b87E>
  88:	9006      	str	r0, [sp, #24]
  8a:	e7ff      	b.n	8c <_ZN3app10app_sensor21start_sensor_listener17he6710ab1ed16405cE+0x8c>
  8c:	9806      	ldr	r0, [sp, #24]
  8e:	f7ff fffe 	bl	0 <_ZN73_$LT$core..result..Result$LT$T$C$E$GT$$u20$as$u20$core..ops..try..Try$GT$10from_error17h80f38a6d6d522ff5E>
  92:	900b      	str	r0, [sp, #44]	; 0x2c
  94:	e7ff      	b.n	96 <_ZN3app10app_sensor21start_sensor_listener17he6710ab1ed16405cE+0x96>
  96:	e002      	b.n	9e <_ZN3app10app_sensor21start_sensor_listener17he6710ab1ed16405cE+0x9e>
/Users/Luppy/mynewt/stm32bluepill-mynewt-sensor/rust/app/src/lib.rs:1
  98:	980b      	ldr	r0, [sp, #44]	; 0x2c
  9a:	b03d      	add	sp, #244	; 0xf4
  9c:	bdf0      	pop	{r4, r5, r6, r7, pc}
/Users/Luppy/mynewt/stm32bluepill-mynewt-sensor/rust/app/src/app_sensor.rs:55
  9e:	e7fb      	b.n	98 <_ZN3app10app_sensor21start_sensor_listener17he6710ab1ed16405cE+0x98>
/Users/Luppy/mynewt/stm32bluepill-mynewt-sensor/rust/app/src/app_sensor.rs:58

    // Create a sensor listener that will call function `aggregate_sensor_data` after polling the sensor data
    let listener = sensor::new_sensor_listener(
  a0:	f240 0000 	movw	r0, #0
  a4:	f2c0 0000 	movt	r0, #0
  a8:	4669      	mov	r1, sp
  aa:	6008      	str	r0, [r1, #0]
  ac:	f240 0100 	movw	r1, #0
  b0:	f2c0 0100 	movt	r1, #0
  b4:	a822      	add	r0, sp, #136	; 0x88
  b6:	f04f 6280 	mov.w	r2, #67108864	; 0x4000000
  ba:	2300      	movs	r3, #0
  bc:	f7ff fffe 	bl	0 <_ZN6mynewt2hw6sensor19new_sensor_listener17ha1a72a76249a503eE>
  c0:	e7ff      	b.n	c2 <_ZN3app10app_sensor21start_sensor_listener17he6710ab1ed16405cE+0xc2>
  c2:	a81a      	add	r0, sp, #104	; 0x68
  c4:	a922      	add	r1, sp, #136	; 0x88
  c6:	f7ff fffe 	bl	0 <_ZN73_$LT$core..result..Result$LT$T$C$E$GT$$u20$as$u20$core..ops..try..Try$GT$11into_result17h4d269a69f3ac33acE>
  ca:	e7ff      	b.n	cc <_ZN3app10app_sensor21start_sensor_listener17he6710ab1ed16405cE+0xcc>
/Users/Luppy/mynewt/stm32bluepill-mynewt-sensor/rust/app/src/app_sensor.rs:62
        &TEMP_SENSOR_KEY,   //  Transmit as field: `t`
        TEMP_SENSOR_TYPE,   //  Type of sensor data: Raw temperature (integer from 0 to 4095)
        app_network::aggregate_sensor_data  //  Call this function with the polled data: `aggregate_sensor_data`
    ) ? ;
  cc:	981a      	ldr	r0, [sp, #104]	; 0x68
  ce:	2800      	cmp	r0, #0
  d0:	9005      	str	r0, [sp, #20]
  d2:	d012      	beq.n	fa <_ZN3app10app_sensor21start_sensor_listener17he6710ab1ed16405cE+0xfa>
  d4:	e7ff      	b.n	d6 <_ZN3app10app_sensor21start_sensor_listener17he6710ab1ed16405cE+0xd6>
  d6:	9805      	ldr	r0, [sp, #20]
  d8:	2801      	cmp	r0, #1
  da:	d1cf      	bne.n	7c <_ZN3app10app_sensor21start_sensor_listener17he6710ab1ed16405cE+0x7c>
  dc:	e7ff      	b.n	de <_ZN3app10app_sensor21start_sensor_listener17he6710ab1ed16405cE+0xde>
  de:	981b      	ldr	r0, [sp, #108]	; 0x6c
  e0:	902b      	str	r0, [sp, #172]	; 0xac
  e2:	982b      	ldr	r0, [sp, #172]	; 0xac
  e4:	f7ff fffe 	bl	0 <_ZN50_$LT$T$u20$as$u20$core..convert..From$LT$T$GT$$GT$4from17h18d49e5f5b831b87E>
  e8:	9004      	str	r0, [sp, #16]
  ea:	e7ff      	b.n	ec <_ZN3app10app_sensor21start_sensor_listener17he6710ab1ed16405cE+0xec>
  ec:	9804      	ldr	r0, [sp, #16]
  ee:	f7ff fffe 	bl	0 <_ZN73_$LT$core..result..Result$LT$T$C$E$GT$$u20$as$u20$core..ops..try..Try$GT$10from_error17h80f38a6d6d522ff5E>
  f2:	900b      	str	r0, [sp, #44]	; 0x2c
  f4:	e7ff      	b.n	f6 <_ZN3app10app_sensor21start_sensor_listener17he6710ab1ed16405cE+0xf6>
  f6:	e7ff      	b.n	f8 <_ZN3app10app_sensor21start_sensor_listener17he6710ab1ed16405cE+0xf8>
  f8:	e7d1      	b.n	9e <_ZN3app10app_sensor21start_sensor_listener17he6710ab1ed16405cE+0x9e>
  fa:	a81a      	add	r0, sp, #104	; 0x68
/Users/Luppy/mynewt/stm32bluepill-mynewt-sensor/rust/app/src/app_sensor.rs:58
    let listener = sensor::new_sensor_listener(
  fc:	3008      	adds	r0, #8
  fe:	a92c      	add	r1, sp, #176	; 0xb0
 100:	460a      	mov	r2, r1
 102:	e890 5078 	ldmia.w	r0, {r3, r4, r5, r6, ip, lr}
 106:	e882 5078 	stmia.w	r2, {r3, r4, r5, r6, ip, lr}
 10a:	a814      	add	r0, sp, #80	; 0x50
 10c:	4602      	mov	r2, r0
 10e:	e891 5078 	ldmia.w	r1, {r3, r4, r5, r6, ip, lr}
 112:	e882 5078 	stmia.w	r2, {r3, r4, r5, r6, ip, lr}
/Users/Luppy/mynewt/stm32bluepill-mynewt-sensor/rust/app/src/app_sensor.rs:65

    //  Register the Listener Function to be called with the polled sensor data.
    sensor::register_listener(sensor, listener) ? ;  //  `?` means in case of error, return error now.
 116:	990c      	ldr	r1, [sp, #48]	; 0x30
 118:	aa34      	add	r2, sp, #208	; 0xd0
 11a:	4613      	mov	r3, r2
 11c:	e890 50f0 	ldmia.w	r0, {r4, r5, r6, r7, ip, lr}
 120:	e883 50f0 	stmia.w	r3, {r4, r5, r6, r7, ip, lr}
 124:	4608      	mov	r0, r1
 126:	4611      	mov	r1, r2
 128:	f7ff fffe 	bl	0 <_ZN6mynewt2hw6sensor17register_listener17h0f6fe805ddb6887dE>
 12c:	9003      	str	r0, [sp, #12]
 12e:	e7ff      	b.n	130 <_ZN3app10app_sensor21start_sensor_listener17he6710ab1ed16405cE+0x130>
 130:	9803      	ldr	r0, [sp, #12]
 132:	f7ff fffe 	bl	0 <_ZN73_$LT$core..result..Result$LT$T$C$E$GT$$u20$as$u20$core..ops..try..Try$GT$11into_result17hbefd7b540f8203c4E>
 136:	9033      	str	r0, [sp, #204]	; 0xcc
 138:	e7ff      	b.n	13a <_ZN3app10app_sensor21start_sensor_listener17he6710ab1ed16405cE+0x13a>
 13a:	9833      	ldr	r0, [sp, #204]	; 0xcc
 13c:	1e41      	subs	r1, r0, #1
 13e:	bf18      	it	ne
 140:	2101      	movne	r1, #1
 142:	2801      	cmp	r0, #1
 144:	9102      	str	r1, [sp, #8]
 146:	d011      	beq.n	16c <_ZN3app10app_sensor21start_sensor_listener17he6710ab1ed16405cE+0x16c>
 148:	e7ff      	b.n	14a <_ZN3app10app_sensor21start_sensor_listener17he6710ab1ed16405cE+0x14a>
 14a:	9802      	ldr	r0, [sp, #8]
 14c:	2801      	cmp	r0, #1
 14e:	d195      	bne.n	7c <_ZN3app10app_sensor21start_sensor_listener17he6710ab1ed16405cE+0x7c>
 150:	e7ff      	b.n	152 <_ZN3app10app_sensor21start_sensor_listener17he6710ab1ed16405cE+0x152>
 152:	9833      	ldr	r0, [sp, #204]	; 0xcc
 154:	903a      	str	r0, [sp, #232]	; 0xe8
 156:	983a      	ldr	r0, [sp, #232]	; 0xe8
 158:	f7ff fffe 	bl	0 <_ZN50_$LT$T$u20$as$u20$core..convert..From$LT$T$GT$$GT$4from17h18d49e5f5b831b87E>
 15c:	9001      	str	r0, [sp, #4]
 15e:	e7ff      	b.n	160 <_ZN3app10app_sensor21start_sensor_listener17he6710ab1ed16405cE+0x160>
 160:	9801      	ldr	r0, [sp, #4]
 162:	f7ff fffe 	bl	0 <_ZN73_$LT$core..result..Result$LT$T$C$E$GT$$u20$as$u20$core..ops..try..Try$GT$10from_error17h80f38a6d6d522ff5E>
 166:	900b      	str	r0, [sp, #44]	; 0x2c
 168:	e7ff      	b.n	16a <_ZN3app10app_sensor21start_sensor_listener17he6710ab1ed16405cE+0x16a>
 16a:	e7c5      	b.n	f8 <_ZN3app10app_sensor21start_sensor_listener17he6710ab1ed16405cE+0xf8>
 16c:	2000      	movs	r0, #0
/Users/Luppy/mynewt/stm32bluepill-mynewt-sensor/rust/app/src/app_sensor.rs:68

    //  Return `Ok()` to indicate success.  This line should not end with a semicolon (;).
    Ok(())
 16e:	900b      	str	r0, [sp, #44]	; 0x2c
 170:	2001      	movs	r0, #1
 172:	900b      	str	r0, [sp, #44]	; 0x2c
/Users/Luppy/mynewt/stm32bluepill-mynewt-sensor/rust/app/src/lib.rs:1
 174:	e790      	b.n	98 <_ZN3app10app_sensor21start_sensor_listener17he6710ab1ed16405cE+0x98>

app-1669bcaaaa4db712.1xlkd562vrkevpk2.rcgu.o:     file format elf32-littlearm

SYMBOL TABLE:
00000000 l    df *ABS*	00000000 1xlkd562vrkevpk2
00000131 l       .debug_str	00000000 
00000000 l       .debug_str	00000000 
00000041 l       .debug_str	00000000 
00000055 l       .debug_str	00000000 
00000085 l       .debug_str	00000000 
0000008a l       .debug_str	00000000 
0000008e l       .debug_str	00000000 
00000097 l       .debug_str	00000000 
000000ee l       .debug_str	00000000 
0000012c l       .debug_str	00000000 
000000f1 l       .debug_str	00000000 
000000f6 l       .debug_str	00000000 
000000fb l       .debug_str	00000000 
000000fd l       .debug_str	00000000 
00000101 l       .debug_str	00000000 
00000108 l       .debug_str	00000000 
0000011b l       .debug_str	00000000 
00000121 l       .debug_str	00000000 
00000000 l    d  .text._ZN58_$LT$core..any..TypeId$u20$as$u20$core..cmp..PartialEq$GT$2eq17hb1617771359e341eE	00000000 .text._ZN58_$LT$core..any..TypeId$u20$as$u20$core..cmp..PartialEq$GT$2eq17hb1617771359e341eE
00000000 l    d  .debug_abbrev	00000000 .debug_abbrev
00000000 l    d  .debug_info	00000000 .debug_info
00000000 l    d  .debug_frame	00000000 .debug_frame
00000000 l    d  .debug_line	00000000 .debug_line
00000000 g     F .text._ZN58_$LT$core..any..TypeId$u20$as$u20$core..cmp..PartialEq$GT$2eq17hb1617771359e341eE	0000003e .hidden _ZN58_$LT$core..any..TypeId$u20$as$u20$core..cmp..PartialEq$GT$2eq17hb1617771359e341eE



Disassembly of section .text._ZN58_$LT$core..any..TypeId$u20$as$u20$core..cmp..PartialEq$GT$2eq17hb1617771359e341eE:

00000000 <_ZN58_$LT$core..any..TypeId$u20$as$u20$core..cmp..PartialEq$GT$2eq17hb1617771359e341eE>:
_ZN58_$LT$core..any..TypeId$u20$as$u20$core..cmp..PartialEq$GT$2eq17hb1617771359e341eE():
/rustc/50a0defd5a93523067ef239936cc2e0755220904/src/libcore/any.rs:421
   0:	b580      	push	{r7, lr}
   2:	b086      	sub	sp, #24
   4:	460a      	mov	r2, r1
   6:	4603      	mov	r3, r0
   8:	9002      	str	r0, [sp, #8]
   a:	9103      	str	r1, [sp, #12]
/rustc/50a0defd5a93523067ef239936cc2e0755220904/src/libcore/any.rs:424
   c:	9803      	ldr	r0, [sp, #12]
   e:	9004      	str	r0, [sp, #16]
  10:	9802      	ldr	r0, [sp, #8]
  12:	9005      	str	r0, [sp, #20]
  14:	9805      	ldr	r0, [sp, #20]
  16:	6801      	ldr	r1, [r0, #0]
  18:	6840      	ldr	r0, [r0, #4]
  1a:	f8dd c010 	ldr.w	ip, [sp, #16]
  1e:	f8dc e000 	ldr.w	lr, [ip]
  22:	f8dc c004 	ldr.w	ip, [ip, #4]
  26:	ea80 000c 	eor.w	r0, r0, ip
  2a:	ea81 010e 	eor.w	r1, r1, lr
  2e:	4308      	orrs	r0, r1
  30:	fab0 f080 	clz	r0, r0
  34:	0940      	lsrs	r0, r0, #5
/rustc/50a0defd5a93523067ef239936cc2e0755220904/src/libcore/any.rs:421
  36:	9201      	str	r2, [sp, #4]
  38:	9300      	str	r3, [sp, #0]
  3a:	b006      	add	sp, #24
  3c:	bd80      	pop	{r7, pc}

app-1669bcaaaa4db712.2l235o8jg9b6cj7f.rcgu.o:     file format elf32-littlearm

SYMBOL TABLE:
00000000 l    df *ABS*	00000000 2l235o8jg9b6cj7f
0000032c l       .debug_str	00000000 
00000371 l       .debug_str	00000000 
00000375 l       .debug_str	00000000 
00000379 l       .debug_str	00000000 
00000381 l       .debug_str	00000000 
00000398 l       .debug_str	00000000 
000003bc l       .debug_str	00000000 
000003d8 l       .debug_str	00000000 
000003e2 l       .debug_str	00000000 
000003fc l       .debug_str	00000000 
0000045a l       .debug_str	00000000 
00000465 l       .debug_str	00000000 
00000482 l       .debug_str	00000000 
0000049b l       .debug_str	00000000 
000004a5 l       .debug_str	00000000 
000004bb l       .debug_str	00000000 
000004d9 l       .debug_str	00000000 
000004e2 l       .debug_str	00000000 
000004e7 l       .debug_str	00000000 
000004ec l       .debug_str	00000000 
000004f0 l       .debug_str	00000000 
000004f9 l       .debug_str	00000000 
00000503 l       .debug_str	00000000 
0000051b l       .debug_str	00000000 
00000000 l       .debug_str	00000000 
00000041 l       .debug_str	00000000 
00000055 l       .debug_str	00000000 
00000085 l       .debug_str	00000000 
0000008a l       .debug_str	00000000 
0000008e l       .debug_str	00000000 
00000091 l       .debug_str	00000000 
00000094 l       .debug_str	00000000 
00000097 l       .debug_str	00000000 
0000009c l       .debug_str	00000000 
000000a2 l       .debug_str	00000000 
000000a9 l       .debug_str	00000000 
000000b1 l       .debug_str	00000000 
000000bb l       .debug_str	00000000 
000000c2 l       .debug_str	00000000 
000000c5 l       .debug_str	00000000 
000000c9 l       .debug_str	00000000 
000000d0 l       .debug_str	00000000 
000000d4 l       .debug_str	00000000 
000000dd l       .debug_str	00000000 
000000e1 l       .debug_str	00000000 
0000010b l       .debug_str	00000000 
00000110 l       .debug_str	00000000 
00000115 l       .debug_str	00000000 
00000117 l       .debug_str	00000000 
00000129 l       .debug_str	00000000 
0000012f l       .debug_str	00000000 
00000132 l       .debug_str	00000000 
00000136 l       .debug_str	00000000 
0000013b l       .debug_str	00000000 
00000143 l       .debug_str	00000000 
00000147 l       .debug_str	00000000 
0000014f l       .debug_str	00000000 
00000157 l       .debug_str	00000000 
0000015e l       .debug_str	00000000 
00000164 l       .debug_str	00000000 
00000178 l       .debug_str	00000000 
00000184 l       .debug_str	00000000 
00000189 l       .debug_str	00000000 
00000191 l       .debug_str	00000000 
00000198 l       .debug_str	00000000 
0000019c l       .debug_str	00000000 
000001a1 l       .debug_str	00000000 
000001a8 l       .debug_str	00000000 
000001b1 l       .debug_str	00000000 
000001bb l       .debug_str	00000000 
000001c2 l       .debug_str	00000000 
000001c7 l       .debug_str	00000000 
000001d3 l       .debug_str	00000000 
000001db l       .debug_str	00000000 
000001e4 l       .debug_str	00000000 
000001e9 l       .debug_str	00000000 
000001ec l       .debug_str	00000000 
000001f0 l       .debug_str	00000000 
000001f9 l       .debug_str	00000000 
00000200 l       .debug_str	00000000 
00000205 l       .debug_str	00000000 
0000020a l       .debug_str	00000000 
00000210 l       .debug_str	00000000 
00000216 l       .debug_str	00000000 
00000220 l       .debug_str	00000000 
00000223 l       .debug_str	00000000 
00000229 l       .debug_str	00000000 
00000233 l       .debug_str	00000000 
0000023b l       .debug_str	00000000 
00000241 l       .debug_str	00000000 
00000247 l       .debug_str	00000000 
00000252 l       .debug_str	00000000 
0000025b l       .debug_str	00000000 
0000027e l       .debug_str	00000000 
0000029d l       .debug_str	00000000 
0000029f l       .debug_str	00000000 
000002a4 l       .debug_str	00000000 
000002cb l       .debug_str	00000000 
000002d0 l       .debug_str	00000000 
000002d6 l       .debug_str	00000000 
000002dc l       .debug_str	00000000 
000002df l       .debug_str	00000000 
000002ee l       .debug_str	00000000 
000002f5 l       .debug_str	00000000 
000002f9 l       .debug_str	00000000 
00000302 l       .debug_str	00000000 
0000030e l       .debug_str	00000000 
00000327 l       .debug_str	00000000 
0000033d l       .debug_str	00000000 
00000347 l       .debug_str	00000000 
00000355 l       .debug_str	00000000 
00000359 l       .debug_str	00000000 
00000364 l       .debug_str	00000000 
0000036b l       .debug_str	00000000 
00000000 l     O .rodata.cst8	00000008 .Lanon.3ed011473997af99b525cde47c9eaaac.0
00000008 l     O .rodata.cst8	00000008 .Lanon.3ed011473997af99b525cde47c9eaaac.1
00000000 l     O .rodata..Lanon.3ed011473997af99b525cde47c9eaaac.10	00000007 .Lanon.3ed011473997af99b525cde47c9eaaac.10
00000000 l     O .rodata..Lanon.3ed011473997af99b525cde47c9eaaac.11	00000003 .Lanon.3ed011473997af99b525cde47c9eaaac.11
00000000 l     O .rodata..Lanon.3ed011473997af99b525cde47c9eaaac.12	00000006 .Lanon.3ed011473997af99b525cde47c9eaaac.12
00000000 l     O .rodata..Lanon.3ed011473997af99b525cde47c9eaaac.13	00000001 .Lanon.3ed011473997af99b525cde47c9eaaac.13
00000000 l     O .rodata..Lanon.3ed011473997af99b525cde47c9eaaac.3	00000018 .Lanon.3ed011473997af99b525cde47c9eaaac.3
00000010 l     O .rodata.cst8	00000008 .Lanon.3ed011473997af99b525cde47c9eaaac.4
00000000 l     O .rodata..Lanon.3ed011473997af99b525cde47c9eaaac.5	0000000d .Lanon.3ed011473997af99b525cde47c9eaaac.5
00000018 l     O .rodata.cst8	00000008 .Lanon.3ed011473997af99b525cde47c9eaaac.6
00000020 l     O .rodata.cst8	00000008 .Lanon.3ed011473997af99b525cde47c9eaaac.7
00000028 l     O .rodata.cst8	00000008 .Lanon.3ed011473997af99b525cde47c9eaaac.8
00000000 l     O .rodata..Lanon.3ed011473997af99b525cde47c9eaaac.9	00000006 .Lanon.3ed011473997af99b525cde47c9eaaac.9
00000000 l    d  .text.main	00000000 .text.main
00000000 l    d  .text.rust_begin_unwind	00000000 .text.rust_begin_unwind
00000000 l    d  .rodata..Lanon.3ed011473997af99b525cde47c9eaaac.2	00000000 .rodata..Lanon.3ed011473997af99b525cde47c9eaaac.2
00000000 l    d  .debug_abbrev	00000000 .debug_abbrev
00000000 l    d  .debug_info	00000000 .debug_info
00000000 l    d  .debug_ranges	00000000 .debug_ranges
00000000 l    d  .debug_frame	00000000 .debug_frame
00000000 l    d  .debug_line	00000000 .debug_line
00000000         *UND*	00000000 _ZN22piet_embedded_graphics7display12test_display17h7e6066b92c3830eaE
00000000         *UND*	00000000 _ZN22piet_embedded_graphics7display13start_display17ha6ca932061c1b2f3E
00000000         *UND*	00000000 .hidden _ZN3app10app_sensor21start_sensor_listener17he6710ab1ed16405cE
00000000         *UND*	00000000 .hidden _ZN3app12touch_sensor18start_touch_sensor17h4afc12e136213875E
00000000         *UND*	00000000 _ZN4core5panic8Location4file17h94cc6af18de736c4E
00000000         *UND*	00000000 _ZN4core5panic8Location4line17h3ffc63f14d0a6636E
00000000         *UND*	00000000 _ZN4core5panic9PanicInfo7payload17h618364282c06396fE
00000000         *UND*	00000000 _ZN4core5panic9PanicInfo8location17h5226165d8771f8a2E
00000000         *UND*	00000000 _ZN4core6option15Option$LT$T$GT$6unwrap17h28a543b21c4c1b3eE
00000000         *UND*	00000000 _ZN4core6result19Result$LT$T$C$E$GT$6expect17had2f748eb2f9e666E
00000000         *UND*	00000000 _ZN4core6result19Result$LT$T$C$E$GT$6expect17hff06cf26ae8e8a9cE
00000000         *UND*	00000000 _ZN4core9panicking5panic17h53ca63c6ac6312f8E
00000000         *UND*	00000000 _ZN59_$LT$dyn$u20$$u2b$core..any..Any$u2b$core..marker..Send$GT$12downcast_ref17h7c6dc83330c3b001E
00000000         *UND*	00000000 _ZN6mynewt3sys7console5flush17h66326d32cc095ce4E
00000000         *UND*	00000000 _ZN6mynewt3sys7console5print17hea17a43bd9cd9b8bE
00000000         *UND*	00000000 _ZN6mynewt3sys7console6buffer17h12b8830ad5727422E
00000000         *UND*	00000000 _ZN6mynewt3sys7console8printint17hb417dbfda78e233cE
00000000         *UND*	00000000 _ZN6mynewt6kernel2os10eventq_run17h8dfd62a61f30f239E
00000000         *UND*	00000000 _ZN6mynewt6kernel2os15eventq_dflt_get17h467e54255005abe5E
00000000         *UND*	00000000 _ZN6mynewt7sysinit17hb394fba85ec98fd3E
00000000 g     F .text.main	000000ca main
00000000 g     F .text.rust_begin_unwind	000000f2 rust_begin_unwind
00000000         *UND*	00000000 start_ble



Disassembly of section .text.main:

00000000 <main>:
main():
/Users/Luppy/mynewt/stm32bluepill-mynewt-sensor/rust/app/src/lib.rs:53
};

///  Main program that initialises the sensor, network driver and starts reading and sending sensor data in the background.
///  main() will be called at Mynewt startup. It replaces the C version of the main() function.
#[no_mangle]                 //  Don't mangle the name "main"
extern "C" fn main() -> ! {  //  Declare extern "C" because it will be called by Mynewt
   0:	b08a      	sub	sp, #40	; 0x28
/Users/Luppy/mynewt/stm32bluepill-mynewt-sensor/rust/app/src/lib.rs:58
    //  Initialise the Mynewt packages and internal temperature sensor driver. Any startup
    //  functions defined in pkg.yml of our custom drivers and libraries will be called by 
    //  sysinit().  Here are the startup functions consolidated by Mynewt:
    //  bin/targets/nrf52_my_sensor/generated/src/nrf52_my_sensor-sysinit-app.c
    mynewt::sysinit();
   2:	f7ff fffe 	bl	0 <_ZN6mynewt7sysinit17hb394fba85ec98fd3E>
   6:	e7ff      	b.n	2 <_ZN3app10app_sensor21start_sensor_listener17he6710ab1ed16405cE+0x2>
/Users/Luppy/mynewt/stm32bluepill-mynewt-sensor/rust/app/src/lib.rs:66
    //  sensor_network::start_server_transport()
    //    .expect("NET fail");

    //  Start polling the simulated temperature sensor every 10 seconds in the background.
    //  TODO: Replace by touch handler.
    app_sensor::start_sensor_listener()
   8:	f7ff fffe 	bl	0 <_ZN3app10app_sensor21start_sensor_listener17he6710ab1ed16405cE>
   c:	9006      	str	r0, [sp, #24]
   e:	e7ff      	b.n	10 <main+0x10>
  10:	f240 0100 	movw	r1, #0
  14:	f2c0 0100 	movt	r1, #0
  18:	2208      	movs	r2, #8
  1a:	9806      	ldr	r0, [sp, #24]
  1c:	f7ff fffe 	bl	0 <_ZN4core6result19Result$LT$T$C$E$GT$6expect17hff06cf26ae8e8a9cE>
  20:	e7ff      	b.n	2 <start_ble+0x2>
/Users/Luppy/mynewt/stm32bluepill-mynewt-sensor/rust/app/src/lib.rs:71
        .expect("TMP fail");

    //  Start Bluetooth Beacon.  TODO: Create a safe wrapper for starting Bluetooth LE.
    extern { fn start_ble() -> i32; }
    let rc = unsafe { start_ble() };
  22:	f7ff fffe 	bl	0 <start_ble>
  26:	9007      	str	r0, [sp, #28]
  28:	e7ff      	b.n	2a <main+0x2a>
/Users/Luppy/mynewt/stm32bluepill-mynewt-sensor/rust/app/src/lib.rs:72
    assert!(rc == 0, "BLE fail");
  2a:	9807      	ldr	r0, [sp, #28]
  2c:	2800      	cmp	r0, #0
  2e:	d007      	beq.n	40 <main+0x40>
  30:	e7ff      	b.n	32 <main+0x32>
  32:	f240 0000 	movw	r0, #0
  36:	f2c0 0000 	movt	r0, #0
  3a:	f7ff fffe 	bl	0 <_ZN4core9panicking5panic17h53ca63c6ac6312f8E>
  3e:	defe      	udf	#254	; 0xfe
/Users/Luppy/mynewt/stm32bluepill-mynewt-sensor/rust/app/src/lib.rs:75

    //  Start the display
    druid::start_display()
  40:	f7ff fffe 	bl	0 <_ZN22piet_embedded_graphics7display13start_display17ha6ca932061c1b2f3E>
  44:	9005      	str	r0, [sp, #20]
  46:	e7ff      	b.n	48 <main+0x48>
  48:	f240 0100 	movw	r1, #0
  4c:	f2c0 0100 	movt	r1, #0
  50:	2208      	movs	r2, #8
  52:	9805      	ldr	r0, [sp, #20]
  54:	f7ff fffe 	bl	0 <_ZN4core6result19Result$LT$T$C$E$GT$6expect17hff06cf26ae8e8a9cE>
  58:	e7ff      	b.n	2 <_ZN22piet_embedded_graphics7display12test_display17h7e6066b92c3830eaE+0x2>
/Users/Luppy/mynewt/stm32bluepill-mynewt-sensor/rust/app/src/lib.rs:79
        .expect("DSP fail");

    //  Test the display
    druid::test_display()
  5a:	f7ff fffe 	bl	0 <_ZN22piet_embedded_graphics7display12test_display17h7e6066b92c3830eaE>
  5e:	9004      	str	r0, [sp, #16]
  60:	e7ff      	b.n	62 <main+0x62>
  62:	f240 0100 	movw	r1, #0
  66:	f2c0 0100 	movt	r1, #0
  6a:	220d      	movs	r2, #13
  6c:	9804      	ldr	r0, [sp, #16]
  6e:	f7ff fffe 	bl	0 <_ZN4core6result19Result$LT$T$C$E$GT$6expect17hff06cf26ae8e8a9cE>
  72:	e7ff      	b.n	2 <_ZN3app12touch_sensor18start_touch_sensor17h4afc12e136213875E+0x2>
/Users/Luppy/mynewt/stm32bluepill-mynewt-sensor/rust/app/src/lib.rs:83
        .expect("DSP test fail");

    //  Start the touch sensor
    touch_sensor::start_touch_sensor()
  74:	f7ff fffe 	bl	0 <_ZN3app12touch_sensor18start_touch_sensor17h4afc12e136213875E>
  78:	9003      	str	r0, [sp, #12]
  7a:	e7ff      	b.n	7c <main+0x7c>
  7c:	f240 0100 	movw	r1, #0
  80:	f2c0 0100 	movt	r1, #0
  84:	2208      	movs	r2, #8
  86:	9803      	ldr	r0, [sp, #12]
  88:	f7ff fffe 	bl	0 <_ZN4core6result19Result$LT$T$C$E$GT$6expect17hff06cf26ae8e8a9cE>
  8c:	e7ff      	b.n	8e <main+0x8e>
/Users/Luppy/mynewt/stm32bluepill-mynewt-sensor/rust/app/src/lib.rs:94

    //  Launch the Druid UI
    //  hello::launch();

    //  Main event loop
    loop {                            //  Loop forever...
  8e:	e7ff      	b.n	90 <main+0x90>
  90:	a808      	add	r0, sp, #32
/Users/Luppy/mynewt/stm32bluepill-mynewt-sensor/rust/app/src/lib.rs:96
        os::eventq_run(               //  Processing events...
            os::eventq_dflt_get()     //  From default event queue.
  92:	f7ff fffe 	bl	0 <_ZN6mynewt6kernel2os15eventq_dflt_get17h467e54255005abe5E>
  96:	e7ff      	b.n	22 <main+0x22>
  98:	f240 0100 	movw	r1, #0
  9c:	f2c0 0100 	movt	r1, #0
  a0:	a808      	add	r0, sp, #32
  a2:	2208      	movs	r2, #8
  a4:	f7ff fffe 	bl	0 <_ZN4core6result19Result$LT$T$C$E$GT$6expect17had2f748eb2f9e666E>
  a8:	9002      	str	r0, [sp, #8]
  aa:	e7ff      	b.n	ac <main+0xac>
/Users/Luppy/mynewt/stm32bluepill-mynewt-sensor/rust/app/src/lib.rs:95
        os::eventq_run(               //  Processing events...
  ac:	9802      	ldr	r0, [sp, #8]
  ae:	f7ff fffe 	bl	0 <_ZN6mynewt6kernel2os10eventq_run17h8dfd62a61f30f239E>
  b2:	9001      	str	r0, [sp, #4]
  b4:	e7ff      	b.n	b6 <main+0xb6>
  b6:	f240 0100 	movw	r1, #0
  ba:	f2c0 0100 	movt	r1, #0
  be:	2208      	movs	r2, #8
  c0:	9801      	ldr	r0, [sp, #4]
  c2:	f7ff fffe 	bl	0 <_ZN4core6result19Result$LT$T$C$E$GT$6expect17hff06cf26ae8e8a9cE>
  c6:	e7ff      	b.n	c8 <main+0xc8>
/Users/Luppy/mynewt/stm32bluepill-mynewt-sensor/rust/app/src/lib.rs:94
    loop {                            //  Loop forever...
  c8:	e7e2      	b.n	90 <main+0x90>

Disassembly of section .text.rust_begin_unwind:

00000000 <rust_begin_unwind>:
rust_begin_unwind():
/Users/Luppy/mynewt/stm32bluepill-mynewt-sensor/rust/app/src/lib.rs:105
    //  Never comes here
}

///  This function is called on panic, like an assertion failure. We display the filename and line number and pause in the debugger. From https://os.phil-opp.com/freestanding-rust-binary/
#[panic_handler]
fn panic(info: &PanicInfo) -> ! {
   0:	b08c      	sub	sp, #48	; 0x30
   2:	4601      	mov	r1, r0
   4:	9006      	str	r0, [sp, #24]
/Users/Luppy/mynewt/stm32bluepill-mynewt-sensor/rust/app/src/lib.rs:107
    //  Display the filename and line number to the Semihosting Console.
    console::print("panic ");
   6:	f240 0000 	movw	r0, #0
   a:	f2c0 0000 	movt	r0, #0
   e:	2206      	movs	r2, #6
  10:	9105      	str	r1, [sp, #20]
  12:	4611      	mov	r1, r2
  14:	f7ff fffe 	bl	0 <_ZN6mynewt3sys7console5print17hea17a43bd9cd9b8bE>
  18:	e7ff      	b.n	1a <rust_begin_unwind+0x1a>
/Users/Luppy/mynewt/stm32bluepill-mynewt-sensor/rust/app/src/lib.rs:108
    if let Some(location) = info.location() {
  1a:	9806      	ldr	r0, [sp, #24]
  1c:	f7ff fffe 	bl	0 <_ZN4core5panic9PanicInfo8location17h5226165d8771f8a2E>
  20:	9007      	str	r0, [sp, #28]
  22:	e7ff      	b.n	24 <rust_begin_unwind+0x24>
  24:	9807      	ldr	r0, [sp, #28]
  26:	2800      	cmp	r0, #0
  28:	d032      	beq.n	90 <rust_begin_unwind+0x90>
  2a:	e7ff      	b.n	2c <rust_begin_unwind+0x2c>
  2c:	9807      	ldr	r0, [sp, #28]
  2e:	9008      	str	r0, [sp, #32]
/Users/Luppy/mynewt/stm32bluepill-mynewt-sensor/rust/app/src/lib.rs:109
        let file = location.file();
  30:	9808      	ldr	r0, [sp, #32]
  32:	f7ff fffe 	bl	0 <_ZN4core5panic8Location4file17h94cc6af18de736c4E>
  36:	910a      	str	r1, [sp, #40]	; 0x28
  38:	9009      	str	r0, [sp, #36]	; 0x24
  3a:	e7ff      	b.n	3c <rust_begin_unwind+0x3c>
/Users/Luppy/mynewt/stm32bluepill-mynewt-sensor/rust/app/src/lib.rs:110
        let line = location.line();
  3c:	9808      	ldr	r0, [sp, #32]
  3e:	f7ff fffe 	bl	0 <_ZN4core5panic8Location4line17h3ffc63f14d0a6636E>
  42:	900b      	str	r0, [sp, #44]	; 0x2c
  44:	e7ff      	b.n	46 <rust_begin_unwind+0x46>
/Users/Luppy/mynewt/stm32bluepill-mynewt-sensor/rust/app/src/lib.rs:111
        console::print("at ");       console::buffer(&file);
  46:	f240 0000 	movw	r0, #0
  4a:	f2c0 0000 	movt	r0, #0
  4e:	2103      	movs	r1, #3
  50:	f7ff fffe 	bl	0 <_ZN6mynewt3sys7console5print17hea17a43bd9cd9b8bE>
  54:	e7ff      	b.n	56 <rust_begin_unwind+0x56>
  56:	9809      	ldr	r0, [sp, #36]	; 0x24
  58:	990a      	ldr	r1, [sp, #40]	; 0x28
  5a:	f7ff fffe 	bl	0 <_ZN6mynewt3sys7console6buffer17h12b8830ad5727422E>
  5e:	e7ff      	b.n	2 <rust_begin_unwind+0x2>
/Users/Luppy/mynewt/stm32bluepill-mynewt-sensor/rust/app/src/lib.rs:112
        console::print(" line ");    console::printint(line as i32);
  60:	f240 0000 	movw	r0, #0
  64:	f2c0 0000 	movt	r0, #0
  68:	2106      	movs	r1, #6
  6a:	f7ff fffe 	bl	0 <_ZN6mynewt3sys7console5print17hea17a43bd9cd9b8bE>
  6e:	e7ff      	b.n	70 <rust_begin_unwind+0x70>
  70:	980b      	ldr	r0, [sp, #44]	; 0x2c
  72:	f7ff fffe 	bl	0 <_ZN6mynewt3sys7console8printint17hb417dbfda78e233cE>
  76:	e7ff      	b.n	2 <rust_begin_unwind+0x2>
/Users/Luppy/mynewt/stm32bluepill-mynewt-sensor/rust/app/src/lib.rs:113
        console::print("\n");        console::flush();
  78:	f240 0000 	movw	r0, #0
  7c:	f2c0 0000 	movt	r0, #0
  80:	2101      	movs	r1, #1
  82:	f7ff fffe 	bl	0 <_ZN6mynewt3sys7console5print17hea17a43bd9cd9b8bE>
  86:	e7ff      	b.n	2 <_ZN6mynewt3sys7console5flush17h66326d32cc095ce4E+0x2>
  88:	f7ff fffe 	bl	0 <_ZN6mynewt3sys7console5flush17h66326d32cc095ce4E>
  8c:	e7ff      	b.n	8e <rust_begin_unwind+0x8e>
/Users/Luppy/mynewt/stm32bluepill-mynewt-sensor/rust/app/src/lib.rs:108
    if let Some(location) = info.location() {
  8e:	e00a      	b.n	a6 <rust_begin_unwind+0xa6>
/Users/Luppy/mynewt/stm32bluepill-mynewt-sensor/rust/app/src/lib.rs:115
    } else {
        console::print("no loc\n");  console::flush();
  90:	f240 0000 	movw	r0, #0
  94:	f2c0 0000 	movt	r0, #0
  98:	2107      	movs	r1, #7
  9a:	f7ff fffe 	bl	0 <_ZN6mynewt3sys7console5print17hea17a43bd9cd9b8bE>
  9e:	e7ff      	b.n	2 <_ZN6mynewt3sys7console5flush17h66326d32cc095ce4E+0x2>
  a0:	f7ff fffe 	bl	0 <_ZN6mynewt3sys7console5flush17h66326d32cc095ce4E>
  a4:	e7ff      	b.n	a6 <rust_begin_unwind+0xa6>
_ZN8cortex_m3asm4bkpt17h15d676c3288af66bE():
/Users/Luppy/.cargo/registry/src/github.com-1ecc6299db9ec823/cortex-m-0.6.1/src/asm.rs:11
/// exception.
#[inline(always)]
pub fn bkpt() {
    match () {
        #[cfg(all(cortex_m, feature = "inline-asm"))]
        () => unsafe { asm!("bkpt" :::: "volatile") },
  a6:	be00      	bkpt	0x0000
rust_begin_unwind():
/Users/Luppy/mynewt/stm32bluepill-mynewt-sensor/rust/app/src/lib.rs:118
    }
    //  Pause in the debugger.
    bkpt();
  a8:	e7ff      	b.n	aa <rust_begin_unwind+0xaa>
/Users/Luppy/mynewt/stm32bluepill-mynewt-sensor/rust/app/src/lib.rs:120
    //  Display the payload.
    console::print(info.payload().downcast_ref::<&str>().unwrap());
  aa:	9806      	ldr	r0, [sp, #24]
  ac:	f7ff fffe 	bl	0 <_ZN4core5panic9PanicInfo7payload17h618364282c06396fE>
  b0:	9004      	str	r0, [sp, #16]
  b2:	9103      	str	r1, [sp, #12]
  b4:	e7ff      	b.n	b6 <rust_begin_unwind+0xb6>
  b6:	9804      	ldr	r0, [sp, #16]
  b8:	9903      	ldr	r1, [sp, #12]
  ba:	f7ff fffe 	bl	0 <_ZN59_$LT$dyn$u20$$u2b$core..any..Any$u2b$core..marker..Send$GT$12downcast_ref17h7c6dc83330c3b001E>
  be:	9002      	str	r0, [sp, #8]
  c0:	e7ff      	b.n	c2 <rust_begin_unwind+0xc2>
  c2:	9802      	ldr	r0, [sp, #8]
  c4:	f7ff fffe 	bl	0 <_ZN4core6option15Option$LT$T$GT$6unwrap17h28a543b21c4c1b3eE>
  c8:	9001      	str	r0, [sp, #4]
  ca:	e7ff      	b.n	cc <rust_begin_unwind+0xcc>
  cc:	9801      	ldr	r0, [sp, #4]
  ce:	6800      	ldr	r0, [r0, #0]
  d0:	9901      	ldr	r1, [sp, #4]
  d2:	6849      	ldr	r1, [r1, #4]
  d4:	f7ff fffe 	bl	0 <_ZN6mynewt3sys7console5print17hea17a43bd9cd9b8bE>
  d8:	e7ff      	b.n	2 <rust_begin_unwind+0x2>
/Users/Luppy/mynewt/stm32bluepill-mynewt-sensor/rust/app/src/lib.rs:121
    console::print("\n");  console::flush();
  da:	f240 0000 	movw	r0, #0
  de:	f2c0 0000 	movt	r0, #0
  e2:	2101      	movs	r1, #1
  e4:	f7ff fffe 	bl	0 <_ZN6mynewt3sys7console5print17hea17a43bd9cd9b8bE>
  e8:	e7ff      	b.n	2 <_ZN6mynewt3sys7console5flush17h66326d32cc095ce4E+0x2>
  ea:	f7ff fffe 	bl	0 <_ZN6mynewt3sys7console5flush17h66326d32cc095ce4E>
  ee:	e7ff      	b.n	f0 <rust_begin_unwind+0xf0>
/Users/Luppy/mynewt/stm32bluepill-mynewt-sensor/rust/app/src/lib.rs:123
    //  Loop forever so that device won't restart.
    loop {}
  f0:	e7fe      	b.n	f0 <rust_begin_unwind+0xf0>

app-1669bcaaaa4db712.3by5qbbhgiikd23j.rcgu.o:     file format elf32-littlearm

SYMBOL TABLE:
00000000 l    df *ABS*	00000000 3by5qbbhgiikd23j
000002b9 l       .debug_str	00000000 
000003d6 l       .debug_str	00000000 
000003e1 l       .debug_str	00000000 
000003fe l       .debug_str	00000000 
00000417 l       .debug_str	00000000 
00000421 l       .debug_str	00000000 
00000453 l       .debug_str	00000000 
00000000 l       .debug_str	00000000 
00000041 l       .debug_str	00000000 
00000055 l       .debug_str	00000000 
00000085 l       .debug_str	00000000 
0000008a l       .debug_str	00000000 
0000008e l       .debug_str	00000000 
00000091 l       .debug_str	00000000 
00000094 l       .debug_str	00000000 
00000097 l       .debug_str	00000000 
0000009c l       .debug_str	00000000 
000000a2 l       .debug_str	00000000 
000000a9 l       .debug_str	00000000 
000000b1 l       .debug_str	00000000 
000000bb l       .debug_str	00000000 
000000c2 l       .debug_str	00000000 
000000c5 l       .debug_str	00000000 
000000c9 l       .debug_str	00000000 
000000d0 l       .debug_str	00000000 
000000d7 l       .debug_str	00000000 
000000e0 l       .debug_str	00000000 
000000ea l       .debug_str	00000000 
000000f1 l       .debug_str	00000000 
000000f7 l       .debug_str	00000000 
000000fc l       .debug_str	00000000 
00000108 l       .debug_str	00000000 
00000110 l       .debug_str	00000000 
00000117 l       .debug_str	00000000 
0000011b l       .debug_str	00000000 
00000120 l       .debug_str	00000000 
00000129 l       .debug_str	00000000 
0000012e l       .debug_str	00000000 
00000131 l       .debug_str	00000000 
00000135 l       .debug_str	00000000 
0000013e l       .debug_str	00000000 
00000145 l       .debug_str	00000000 
0000014a l       .debug_str	00000000 
0000014f l       .debug_str	00000000 
00000155 l       .debug_str	00000000 
0000015b l       .debug_str	00000000 
00000165 l       .debug_str	00000000 
00000168 l       .debug_str	00000000 
0000016e l       .debug_str	00000000 
00000178 l       .debug_str	00000000 
00000180 l       .debug_str	00000000 
00000186 l       .debug_str	00000000 
0000018c l       .debug_str	00000000 
00000197 l       .debug_str	00000000 
000001a0 l       .debug_str	00000000 
000001c3 l       .debug_str	00000000 
000001e2 l       .debug_str	00000000 
000001e4 l       .debug_str	00000000 
000001e9 l       .debug_str	00000000 
00000210 l       .debug_str	00000000 
00000215 l       .debug_str	00000000 
0000021b l       .debug_str	00000000 
00000221 l       .debug_str	00000000 
00000224 l       .debug_str	00000000 
00000233 l       .debug_str	00000000 
0000023a l       .debug_str	00000000 
0000023e l       .debug_str	00000000 
00000247 l       .debug_str	00000000 
0000024f l       .debug_str	00000000 
00000257 l       .debug_str	00000000 
0000025e l       .debug_str	00000000 
00000272 l       .debug_str	00000000 
0000027e l       .debug_str	00000000 
0000028a l       .debug_str	00000000 
000002a3 l       .debug_str	00000000 
000002a8 l       .debug_str	00000000 
000002c3 l       .debug_str	00000000 
000002d1 l       .debug_str	00000000 
000002d5 l       .debug_str	00000000 
000002e0 l       .debug_str	00000000 
000002e7 l       .debug_str	00000000 
000002ed l       .debug_str	00000000 
000002f1 l       .debug_str	00000000 
000002f5 l       .debug_str	00000000 
000002fd l       .debug_str	00000000 
00000314 l       .debug_str	00000000 
00000338 l       .debug_str	00000000 
00000354 l       .debug_str	00000000 
0000035e l       .debug_str	00000000 
00000378 l       .debug_str	00000000 
00000000 l    d  .text._ZN4core3fmt9Arguments6new_v117h85f95281af4eb96fE	00000000 .text._ZN4core3fmt9Arguments6new_v117h85f95281af4eb96fE
00000000 l    d  .debug_abbrev	00000000 .debug_abbrev
00000000 l    d  .debug_info	00000000 .debug_info
00000000 l    d  .debug_frame	00000000 .debug_frame
00000000 l    d  .debug_line	00000000 .debug_line
00000000 g     F .text._ZN4core3fmt9Arguments6new_v117h85f95281af4eb96fE	0000004c .hidden _ZN4core3fmt9Arguments6new_v117h85f95281af4eb96fE



Disassembly of section .text._ZN4core3fmt9Arguments6new_v117h85f95281af4eb96fE:

00000000 <_ZN4core3fmt9Arguments6new_v117h85f95281af4eb96fE>:
_ZN4core3fmt9Arguments6new_v117h85f95281af4eb96fE():
/rustc/50a0defd5a93523067ef239936cc2e0755220904/src/libcore/fmt/mod.rs:314
   0:	b570      	push	{r4, r5, r6, lr}
   2:	b08a      	sub	sp, #40	; 0x28
   4:	f8dd c038 	ldr.w	ip, [sp, #56]	; 0x38
   8:	469e      	mov	lr, r3
   a:	4614      	mov	r4, r2
   c:	460d      	mov	r5, r1
   e:	4606      	mov	r6, r0
  10:	9104      	str	r1, [sp, #16]
  12:	9205      	str	r2, [sp, #20]
  14:	9306      	str	r3, [sp, #24]
  16:	f8cd c01c 	str.w	ip, [sp, #28]
/rustc/50a0defd5a93523067ef239936cc2e0755220904/src/libcore/fmt/mod.rs:317
  1a:	9904      	ldr	r1, [sp, #16]
  1c:	9a05      	ldr	r2, [sp, #20]
  1e:	2300      	movs	r3, #0
/rustc/50a0defd5a93523067ef239936cc2e0755220904/src/libcore/fmt/mod.rs:318
  20:	9309      	str	r3, [sp, #36]	; 0x24
  22:	9308      	str	r3, [sp, #32]
  24:	9308      	str	r3, [sp, #32]
/rustc/50a0defd5a93523067ef239936cc2e0755220904/src/libcore/fmt/mod.rs:319
  26:	9b06      	ldr	r3, [sp, #24]
  28:	f8dd c01c 	ldr.w	ip, [sp, #28]
/rustc/50a0defd5a93523067ef239936cc2e0755220904/src/libcore/fmt/mod.rs:316
  2c:	6001      	str	r1, [r0, #0]
  2e:	6042      	str	r2, [r0, #4]
  30:	9908      	ldr	r1, [sp, #32]
  32:	9a09      	ldr	r2, [sp, #36]	; 0x24
  34:	6081      	str	r1, [r0, #8]
  36:	60c2      	str	r2, [r0, #12]
  38:	6103      	str	r3, [r0, #16]
  3a:	f8c0 c014 	str.w	ip, [r0, #20]
/rustc/50a0defd5a93523067ef239936cc2e0755220904/src/libcore/fmt/mod.rs:321
  3e:	f8cd e00c 	str.w	lr, [sp, #12]
  42:	9402      	str	r4, [sp, #8]
  44:	9501      	str	r5, [sp, #4]
  46:	9600      	str	r6, [sp, #0]
  48:	b00a      	add	sp, #40	; 0x28
  4a:	bd70      	pop	{r4, r5, r6, pc}

app-1669bcaaaa4db712.3s8btg69y9ebywp4.rcgu.o:     file format elf32-littlearm

SYMBOL TABLE:
00000000 l    df *ABS*	00000000 3s8btg69y9ebywp4
00001daa l       .debug_str	00000000 
0000269f l       .debug_str	00000000 
000026a7 l       .debug_str	00000000 
000026ac l       .debug_str	00000000 
0000271c l       .debug_str	00000000 
00002752 l       .debug_str	00000000 
00002784 l       .debug_str	00000000 
00002789 l       .debug_str	00000000 
000027f9 l       .debug_str	00000000 
00002827 l       .debug_str	00000000 
00002851 l       .debug_str	00000000 
00002855 l       .debug_str	00000000 
0000285a l       .debug_str	00000000 
0000285c l       .debug_str	00000000 
0000285e l       .debug_str	00000000 
00000000 l       .debug_str	00000000 
00000041 l       .debug_str	00000000 
00000055 l       .debug_str	00000000 
00000085 l       .debug_str	00000000 
0000008a l       .debug_str	00000000 
0000008e l       .debug_str	00000000 
00000091 l       .debug_str	00000000 
0000009c l       .debug_str	00000000 
000000a7 l       .debug_str	00000000 
000000ae l       .debug_str	00000000 
000000b5 l       .debug_str	00000000 
000000bc l       .debug_str	00000000 
000000c0 l       .debug_str	00000000 
000000c8 l       .debug_str	00000000 
000000d3 l       .debug_str	00000000 
000000de l       .debug_str	00000000 
000000eb l       .debug_str	00000000 
000000f6 l       .debug_str	00000000 
000000fe l       .debug_str	00000000 
00000109 l       .debug_str	00000000 
00000114 l       .debug_str	00000000 
0000011e l       .debug_str	00000000 
00000129 l       .debug_str	00000000 
00000134 l       .debug_str	00000000 
00000141 l       .debug_str	00000000 
0000014d l       .debug_str	00000000 
0000015a l       .debug_str	00000000 
00000168 l       .debug_str	00000000 
00000172 l       .debug_str	00000000 
0000017f l       .debug_str	00000000 
0000018b l       .debug_str	00000000 
0000018f l       .debug_str	00000000 
00000192 l       .debug_str	00000000 
00000196 l       .debug_str	00000000 
0000019d l       .debug_str	00000000 
000001a0 l       .debug_str	00000000 
000001aa l       .debug_str	00000000 
000001b5 l       .debug_str	00000000 
000001be l       .debug_str	00000000 
000001c9 l       .debug_str	00000000 
000001d5 l       .debug_str	00000000 
000001d9 l       .debug_str	00000000 
000001e2 l       .debug_str	00000000 
000001e9 l       .debug_str	00000000 
000001f1 l       .debug_str	00000000 
000001f9 l       .debug_str	00000000 
00000203 l       .debug_str	00000000 
00000209 l       .debug_str	00000000 
00000210 l       .debug_str	00000000 
0000021a l       .debug_str	00000000 
00000221 l       .debug_str	00000000 
00000228 l       .debug_str	00000000 
0000022d l       .debug_str	00000000 
00000244 l       .debug_str	00000000 
00000271 l       .debug_str	00000000 
00000273 l       .debug_str	00000000 
00000278 l       .debug_str	00000000 
000002ad l       .debug_str	00000000 
000002b3 l       .debug_str	00000000 
000002b9 l       .debug_str	00000000 
000002c8 l       .debug_str	00000000 
000002d8 l       .debug_str	00000000 
000002e8 l       .debug_str	00000000 
000002f0 l       .debug_str	00000000 
00000319 l       .debug_str	00000000 
00000377 l       .debug_str	00000000 
000003dd l       .debug_str	00000000 
000003e4 l       .debug_str	00000000 
000003ec l       .debug_str	00000000 
000003f5 l       .debug_str	00000000 
00000413 l       .debug_str	00000000 
00000423 l       .debug_str	00000000 
00000431 l       .debug_str	00000000 
0000043c l       .debug_str	00000000 
00000449 l       .debug_str	00000000 
00000458 l       .debug_str	00000000 
00000462 l       .debug_str	00000000 
00000478 l       .debug_str	00000000 
00000482 l       .debug_str	00000000 
0000048b l       .debug_str	00000000 
00000494 l       .debug_str	00000000 
000004ba l       .debug_str	00000000 
000004d0 l       .debug_str	00000000 
000004db l       .debug_str	00000000 
000004f1 l       .debug_str	00000000 
000004f9 l       .debug_str	00000000 
0000051a l       .debug_str	00000000 
00000523 l       .debug_str	00000000 
0000052c l       .debug_str	00000000 
00000537 l       .debug_str	00000000 
00000541 l       .debug_str	00000000 
00000547 l       .debug_str	00000000 
0000057f l       .debug_str	00000000 
000005bf l       .debug_str	00000000 
000005c6 l       .debug_str	00000000 
000005ce l       .debug_str	00000000 
000005e5 l       .debug_str	00000000 
000005ee l       .debug_str	00000000 
00000610 l       .debug_str	00000000 
0000061a l       .debug_str	00000000 
00000641 l       .debug_str	00000000 
00000659 l       .debug_str	00000000 
00000663 l       .debug_str	00000000 
00000686 l       .debug_str	00000000 
00000688 l       .debug_str	00000000 
0000068c l       .debug_str	00000000 
000006d4 l       .debug_str	00000000 
000006dd l       .debug_str	00000000 
0000071d l       .debug_str	00000000 
00000764 l       .debug_str	00000000 
00000767 l       .debug_str	00000000 
0000076e l       .debug_str	00000000 
00000777 l       .debug_str	00000000 
00000786 l       .debug_str	00000000 
0000078a l       .debug_str	00000000 
00000792 l       .debug_str	00000000 
00000798 l       .debug_str	00000000 
000007a4 l       .debug_str	00000000 
000007ac l       .debug_str	00000000 
00000806 l       .debug_str	00000000 
00000868 l       .debug_str	00000000 
00000873 l       .debug_str	00000000 
000008ba l       .debug_str	00000000 
00000909 l       .debug_str	00000000 
00000913 l       .debug_str	00000000 
00000950 l       .debug_str	00000000 
00000995 l       .debug_str	00000000 
0000099e l       .debug_str	00000000 
000009ae l       .debug_str	00000000 
000009b6 l       .debug_str	00000000 
00000a0b l       .debug_str	00000000 
00000a68 l       .debug_str	00000000 
00000a74 l       .debug_str	00000000 
00000a7d l       .debug_str	00000000 
00000a89 l       .debug_str	00000000 
00000a95 l       .debug_str	00000000 
00000a9e l       .debug_str	00000000 
00000aa6 l       .debug_str	00000000 
00000aae l       .debug_str	00000000 
00000ac3 l       .debug_str	00000000 
00000aca l       .debug_str	00000000 
00000aea l       .debug_str	00000000 
00000af1 l       .debug_str	00000000 
00000af9 l       .debug_str	00000000 
00000b03 l       .debug_str	00000000 
00000b1a l       .debug_str	00000000 
00000b1f l       .debug_str	00000000 
00000b27 l       .debug_str	00000000 
00000b30 l       .debug_str	00000000 
00000b39 l       .debug_str	00000000 
00000b42 l       .debug_str	00000000 
00000b4a l       .debug_str	00000000 
00000b51 l       .debug_str	00000000 
00000b5d l       .debug_str	00000000 
00000b68 l       .debug_str	00000000 
00000b70 l       .debug_str	00000000 
00000b78 l       .debug_str	00000000 
00000c74 l       .debug_str	00000000 
00000d78 l       .debug_str	00000000 
00000d86 l       .debug_str	00000000 
00000d91 l       .debug_str	00000000 
00000d9b l       .debug_str	00000000 
00000daf l       .debug_str	00000000 
00000dba l       .debug_str	00000000 
00000de8 l       .debug_str	00000000 
00000e63 l       .debug_str	00000000 
00000ee6 l       .debug_str	00000000 
00000ef4 l       .debug_str	00000000 
00000f53 l       .debug_str	00000000 
00000fba l       .debug_str	00000000 
00000fd0 l       .debug_str	00000000 
00000fe0 l       .debug_str	00000000 
00000fef l       .debug_str	00000000 
00000ff3 l       .debug_str	00000000 
00000ffa l       .debug_str	00000000 
00001000 l       .debug_str	00000000 
00001004 l       .debug_str	00000000 
0000100a l       .debug_str	00000000 
00001010 l       .debug_str	00000000 
0000101c l       .debug_str	00000000 
00001024 l       .debug_str	00000000 
0000102a l       .debug_str	00000000 
00001032 l       .debug_str	00000000 
00001038 l       .debug_str	00000000 
0000105b l       .debug_str	00000000 
0000106b l       .debug_str	00000000 
0000109e l       .debug_str	00000000 
000010de l       .debug_str	00000000 
00001126 l       .debug_str	00000000 
0000112a l       .debug_str	00000000 
00001130 l       .debug_str	00000000 
00001136 l       .debug_str	00000000 
0000113c l       .debug_str	00000000 
0000114e l       .debug_str	00000000 
00001183 l       .debug_str	00000000 
000011c5 l       .debug_str	00000000 
0000120f l       .debug_str	00000000 
00001213 l       .debug_str	00000000 
00001219 l       .debug_str	00000000 
0000121f l       .debug_str	00000000 
00001225 l       .debug_str	00000000 
00001237 l       .debug_str	00000000 
0000126c l       .debug_str	00000000 
000012ae l       .debug_str	00000000 
000012f8 l       .debug_str	00000000 
000012fc l       .debug_str	00000000 
00001302 l       .debug_str	00000000 
00001308 l       .debug_str	00000000 
0000130e l       .debug_str	00000000 
00001314 l       .debug_str	00000000 
00001325 l       .debug_str	00000000 
00001359 l       .debug_str	00000000 
0000139a l       .debug_str	00000000 
000013e3 l       .debug_str	00000000 
000013e8 l       .debug_str	00000000 
000013ed l       .debug_str	00000000 
000013f1 l       .debug_str	00000000 
000013f7 l       .debug_str	00000000 
000013fd l       .debug_str	00000000 
00001403 l       .debug_str	00000000 
00001414 l       .debug_str	00000000 
00001448 l       .debug_str	00000000 
00001489 l       .debug_str	00000000 
000014d2 l       .debug_str	00000000 
000014d6 l       .debug_str	00000000 
000014df l       .debug_str	00000000 
000014f0 l       .debug_str	00000000 
00001524 l       .debug_str	00000000 
00001565 l       .debug_str	00000000 
000015ae l       .debug_str	00000000 
000015b3 l       .debug_str	00000000 
000015b7 l       .debug_str	00000000 
000015c0 l       .debug_str	00000000 
000015c7 l       .debug_str	00000000 
000015cf l       .debug_str	00000000 
000015e1 l       .debug_str	00000000 
00001616 l       .debug_str	00000000 
00001658 l       .debug_str	00000000 
000016a2 l       .debug_str	00000000 
000016a6 l       .debug_str	00000000 
000016ac l       .debug_str	00000000 
000016b2 l       .debug_str	00000000 
000016b8 l       .debug_str	00000000 
000016be l       .debug_str	00000000 
000016c6 l       .debug_str	00000000 
000016d4 l       .debug_str	00000000 
000016e3 l       .debug_str	00000000 
000016f4 l       .debug_str	00000000 
000016ff l       .debug_str	00000000 
0000170a l       .debug_str	00000000 
00001715 l       .debug_str	00000000 
0000171c l       .debug_str	00000000 
0000173f l       .debug_str	00000000 
00001751 l       .debug_str	00000000 
00001786 l       .debug_str	00000000 
000017c8 l       .debug_str	00000000 
00001812 l       .debug_str	00000000 
00001816 l       .debug_str	00000000 
00001820 l       .debug_str	00000000 
00001832 l       .debug_str	00000000 
00001867 l       .debug_str	00000000 
000018a9 l       .debug_str	00000000 
000018f3 l       .debug_str	00000000 
000018f8 l       .debug_str	00000000 
00001902 l       .debug_str	00000000 
00001914 l       .debug_str	00000000 
00001949 l       .debug_str	00000000 
0000198b l       .debug_str	00000000 
000019d5 l       .debug_str	00000000 
000019e9 l       .debug_str	00000000 
000019ed l       .debug_str	00000000 
000019fb l       .debug_str	00000000 
00001a0b l       .debug_str	00000000 
00001a14 l       .debug_str	00000000 
00001a1f l       .debug_str	00000000 
00001a2e l       .debug_str	00000000 
00001a43 l       .debug_str	00000000 
00001a74 l       .debug_str	00000000 
00001b11 l       .debug_str	00000000 
00001bb6 l       .debug_str	00000000 
00001bc1 l       .debug_str	00000000 
00001bca l       .debug_str	00000000 
00001beb l       .debug_str	00000000 
00001bfe l       .debug_str	00000000 
00001c34 l       .debug_str	00000000 
00001cb7 l       .debug_str	00000000 
00001d42 l       .debug_str	00000000 
00001d5e l       .debug_str	00000000 
00001dfe l       .debug_str	00000000 
00001e1b l       .debug_str	00000000 
00001e2f l       .debug_str	00000000 
00001e7b l       .debug_str	00000000 
00001ecf l       .debug_str	00000000 
00001ee5 l       .debug_str	00000000 
00001ef9 l       .debug_str	00000000 
00001f40 l       .debug_str	00000000 
00001f8f l       .debug_str	00000000 
00001f98 l       .debug_str	00000000 
00001fa6 l       .debug_str	00000000 
00001fd7 l       .debug_str	00000000 
00001fdd l       .debug_str	00000000 
00001fe5 l       .debug_str	00000000 
00001fec l       .debug_str	00000000 
00001ff4 l       .debug_str	00000000 
00001fff l       .debug_str	00000000 
00002007 l       .debug_str	00000000 
00002016 l       .debug_str	00000000 
0000201a l       .debug_str	00000000 
00002025 l       .debug_str	00000000 
00002031 l       .debug_str	00000000 
0000203c l       .debug_str	00000000 
0000204d l       .debug_str	00000000 
00002053 l       .debug_str	00000000 
0000205b l       .debug_str	00000000 
00002062 l       .debug_str	00000000 
0000206c l       .debug_str	00000000 
00002074 l       .debug_str	00000000 
0000207c l       .debug_str	00000000 
0000209e l       .debug_str	00000000 
000020a9 l       .debug_str	00000000 
000020b5 l       .debug_str	00000000 
000020bd l       .debug_str	00000000 
000020c6 l       .debug_str	00000000 
000020d1 l       .debug_str	00000000 
000020d8 l       .debug_str	00000000 
000020e3 l       .debug_str	00000000 
000020ee l       .debug_str	00000000 
000020fe l       .debug_str	00000000 
0000210e l       .debug_str	00000000 
00002141 l       .debug_str	00000000 
00002156 l       .debug_str	00000000 
0000215f l       .debug_str	00000000 
000021bc l       .debug_str	00000000 
00002221 l       .debug_str	00000000 
0000222b l       .debug_str	00000000 
0000223b l       .debug_str	00000000 
00002250 l       .debug_str	00000000 
00002258 l       .debug_str	00000000 
000022bc l       .debug_str	00000000 
00002328 l       .debug_str	00000000 
0000232f l       .debug_str	00000000 
00002337 l       .debug_str	00000000 
00002355 l       .debug_str	00000000 
00002365 l       .debug_str	00000000 
00002398 l       .debug_str	00000000 
000023ad l       .debug_str	00000000 
000023c0 l       .debug_str	00000000 
000023d5 l       .debug_str	00000000 
000023dc l       .debug_str	00000000 
000023f1 l       .debug_str	00000000 
0000241b l       .debug_str	00000000 
00002497 l       .debug_str	00000000 
0000251b l       .debug_str	00000000 
00002522 l       .debug_str	00000000 
0000252a l       .debug_str	00000000 
00002548 l       .debug_str	00000000 
00002558 l       .debug_str	00000000 
000025c8 l       .debug_str	00000000 
0000261f l       .debug_str	00000000 
00002672 l       .debug_str	00000000 
00002676 l       .debug_str	00000000 
0000267e l       .debug_str	00000000 
00002687 l       .debug_str	00000000 
0000268e l       .debug_str	00000000 
00002694 l       .debug_str	00000000 
0000269a l       .debug_str	00000000 
00000000 l    d  .text._ZN4core6result19Result$LT$T$C$E$GT$6expect17had2f748eb2f9e666E	00000000 .text._ZN4core6result19Result$LT$T$C$E$GT$6expect17had2f748eb2f9e666E
00000000 l    d  .text._ZN73_$LT$core..result..Result$LT$T$C$E$GT$$u20$as$u20$core..ops..try..Try$GT$11into_result17h4d269a69f3ac33acE	00000000 .text._ZN73_$LT$core..result..Result$LT$T$C$E$GT$$u20$as$u20$core..ops..try..Try$GT$11into_result17h4d269a69f3ac33acE
00000000 l    d  .text._ZN73_$LT$core..result..Result$LT$T$C$E$GT$$u20$as$u20$core..ops..try..Try$GT$11into_result17haedbfaaa07adb92fE	00000000 .text._ZN73_$LT$core..result..Result$LT$T$C$E$GT$$u20$as$u20$core..ops..try..Try$GT$11into_result17haedbfaaa07adb92fE
00000000 l    d  .text._ZN73_$LT$core..result..Result$LT$T$C$E$GT$$u20$as$u20$core..ops..try..Try$GT$11into_result17hbefde40070c9a0e0E	00000000 .text._ZN73_$LT$core..result..Result$LT$T$C$E$GT$$u20$as$u20$core..ops..try..Try$GT$11into_result17hbefde40070c9a0e0E
00000000 l    d  .debug_loc	00000000 .debug_loc
00000000 l    d  .debug_abbrev	00000000 .debug_abbrev
00000000 l    d  .debug_info	00000000 .debug_info
00000000 l    d  .debug_ranges	00000000 .debug_ranges
00000000 l    d  .debug_frame	00000000 .debug_frame
00000000 l    d  .debug_line	00000000 .debug_line
00000000         *UND*	00000000 _ZN4core6result13unwrap_failed17h9d436e7363580263E
00000000 g     F .text._ZN4core6result19Result$LT$T$C$E$GT$6expect17had2f748eb2f9e666E	0000005a _ZN4core6result19Result$LT$T$C$E$GT$6expect17had2f748eb2f9e666E
00000000 g     F .text._ZN73_$LT$core..result..Result$LT$T$C$E$GT$$u20$as$u20$core..ops..try..Try$GT$11into_result17h4d269a69f3ac33acE	00000020 _ZN73_$LT$core..result..Result$LT$T$C$E$GT$$u20$as$u20$core..ops..try..Try$GT$11into_result17h4d269a69f3ac33acE
00000000 g     F .text._ZN73_$LT$core..result..Result$LT$T$C$E$GT$$u20$as$u20$core..ops..try..Try$GT$11into_result17haedbfaaa07adb92fE	00000028 _ZN73_$LT$core..result..Result$LT$T$C$E$GT$$u20$as$u20$core..ops..try..Try$GT$11into_result17haedbfaaa07adb92fE
00000000 g     F .text._ZN73_$LT$core..result..Result$LT$T$C$E$GT$$u20$as$u20$core..ops..try..Try$GT$11into_result17hbefde40070c9a0e0E	0000001a _ZN73_$LT$core..result..Result$LT$T$C$E$GT$$u20$as$u20$core..ops..try..Try$GT$11into_result17hbefde40070c9a0e0E



Disassembly of section .text._ZN4core6result19Result$LT$T$C$E$GT$6expect17had2f748eb2f9e666E:

00000000 <_ZN4core6result19Result$LT$T$C$E$GT$6expect17had2f748eb2f9e666E>:
_ZN4core6result19Result$LT$T$C$E$GT$6expect17had2f748eb2f9e666E():
/rustc/50a0defd5a93523067ef239936cc2e0755220904/src/libcore/result.rs:824
   0:	b580      	push	{r7, lr}
   2:	b08a      	sub	sp, #40	; 0x28
   4:	4613      	mov	r3, r2
   6:	468c      	mov	ip, r1
   8:	4686      	mov	lr, r0
   a:	9106      	str	r1, [sp, #24]
   c:	9207      	str	r2, [sp, #28]
/rustc/50a0defd5a93523067ef239936cc2e0755220904/src/libcore/result.rs:826
   e:	6800      	ldr	r0, [r0, #0]
  10:	2800      	cmp	r0, #0
  12:	9305      	str	r3, [sp, #20]
  14:	f8cd c010 	str.w	ip, [sp, #16]
  18:	f8cd e00c 	str.w	lr, [sp, #12]
  1c:	9002      	str	r0, [sp, #8]
  1e:	d005      	beq.n	2c <_ZN4core6result19Result$LT$T$C$E$GT$6expect17had2f748eb2f9e666E+0x2c>
  20:	e7ff      	b.n	22 <_ZN4core6result19Result$LT$T$C$E$GT$6expect17had2f748eb2f9e666E+0x22>
  22:	9802      	ldr	r0, [sp, #8]
  24:	2801      	cmp	r0, #1
  26:	d00b      	beq.n	40 <_ZN4core6result19Result$LT$T$C$E$GT$6expect17had2f748eb2f9e666E+0x40>
  28:	e7ff      	b.n	2a <_ZN4core6result19Result$LT$T$C$E$GT$6expect17had2f748eb2f9e666E+0x2a>
/rustc/50a0defd5a93523067ef239936cc2e0755220904/src/libcore/result.rs:829
  2a:	defe      	udf	#254	; 0xfe
/rustc/50a0defd5a93523067ef239936cc2e0755220904/src/libcore/result.rs:826
  2c:	9803      	ldr	r0, [sp, #12]
  2e:	6841      	ldr	r1, [r0, #4]
  30:	9108      	str	r1, [sp, #32]
  32:	9808      	ldr	r0, [sp, #32]
/rustc/50a0defd5a93523067ef239936cc2e0755220904/src/libcore/result.rs:829
  34:	9903      	ldr	r1, [sp, #12]
  36:	680a      	ldr	r2, [r1, #0]
  38:	2a00      	cmp	r2, #0
  3a:	9001      	str	r0, [sp, #4]
  3c:	d009      	beq.n	52 <_ZN4core6result19Result$LT$T$C$E$GT$6expect17had2f748eb2f9e666E+0x52>
  3e:	e00b      	b.n	58 <_ZN4core6result19Result$LT$T$C$E$GT$6expect17had2f748eb2f9e666E+0x58>
/rustc/50a0defd5a93523067ef239936cc2e0755220904/src/libcore/result.rs:827
  40:	9803      	ldr	r0, [sp, #12]
  42:	6841      	ldr	r1, [r0, #4]
  44:	9109      	str	r1, [sp, #36]	; 0x24
  46:	9806      	ldr	r0, [sp, #24]
  48:	9907      	ldr	r1, [sp, #28]
  4a:	9a09      	ldr	r2, [sp, #36]	; 0x24
  4c:	f7ff fffe 	bl	0 <_ZN4core6result13unwrap_failed17h9d436e7363580263E>
  50:	defe      	udf	#254	; 0xfe
/rustc/50a0defd5a93523067ef239936cc2e0755220904/src/libcore/result.rs:829
  52:	9801      	ldr	r0, [sp, #4]
  54:	b00a      	add	sp, #40	; 0x28
  56:	bd80      	pop	{r7, pc}
  58:	e7fb      	b.n	52 <_ZN4core6result19Result$LT$T$C$E$GT$6expect17had2f748eb2f9e666E+0x52>

Disassembly of section .text._ZN73_$LT$core..result..Result$LT$T$C$E$GT$$u20$as$u20$core..ops..try..Try$GT$11into_result17h4d269a69f3ac33acE:

00000000 <_ZN73_$LT$core..result..Result$LT$T$C$E$GT$$u20$as$u20$core..ops..try..Try$GT$11into_result17h4d269a69f3ac33acE>:
_ZN73_$LT$core..result..Result$LT$T$C$E$GT$$u20$as$u20$core..ops..try..Try$GT$11into_result17h4d269a69f3ac33acE():
/rustc/50a0defd5a93523067ef239936cc2e0755220904/src/libcore/result.rs:1282
   0:	b5b0      	push	{r4, r5, r7, lr}
   2:	b082      	sub	sp, #8
   4:	460a      	mov	r2, r1
   6:	4603      	mov	r3, r0
/rustc/50a0defd5a93523067ef239936cc2e0755220904/src/libcore/result.rs:1283
   8:	e8b1 5030 	ldmia.w	r1!, {r4, r5, ip, lr}
   c:	e8a0 5030 	stmia.w	r0!, {r4, r5, ip, lr}
  10:	e891 5030 	ldmia.w	r1, {r4, r5, ip, lr}
  14:	e880 5030 	stmia.w	r0, {r4, r5, ip, lr}
/rustc/50a0defd5a93523067ef239936cc2e0755220904/src/libcore/result.rs:1284
  18:	9201      	str	r2, [sp, #4]
  1a:	9300      	str	r3, [sp, #0]
  1c:	b002      	add	sp, #8
  1e:	bdb0      	pop	{r4, r5, r7, pc}

Disassembly of section .text._ZN73_$LT$core..result..Result$LT$T$C$E$GT$$u20$as$u20$core..ops..try..Try$GT$11into_result17haedbfaaa07adb92fE:

00000000 <_ZN73_$LT$core..result..Result$LT$T$C$E$GT$$u20$as$u20$core..ops..try..Try$GT$11into_result17haedbfaaa07adb92fE>:
_ZN73_$LT$core..result..Result$LT$T$C$E$GT$$u20$as$u20$core..ops..try..Try$GT$11into_result17haedbfaaa07adb92fE():
/rustc/50a0defd5a93523067ef239936cc2e0755220904/src/libcore/result.rs:1282
   0:	b510      	push	{r4, lr}
   2:	b082      	sub	sp, #8
   4:	460a      	mov	r2, r1
   6:	4603      	mov	r3, r0
/rustc/50a0defd5a93523067ef239936cc2e0755220904/src/libcore/result.rs:1283
   8:	f8d1 c000 	ldr.w	ip, [r1]
   c:	f8d1 e004 	ldr.w	lr, [r1, #4]
  10:	688c      	ldr	r4, [r1, #8]
  12:	68c9      	ldr	r1, [r1, #12]
  14:	60c1      	str	r1, [r0, #12]
  16:	6084      	str	r4, [r0, #8]
  18:	f8c0 e004 	str.w	lr, [r0, #4]
  1c:	f8c0 c000 	str.w	ip, [r0]
/rustc/50a0defd5a93523067ef239936cc2e0755220904/src/libcore/result.rs:1284
  20:	9201      	str	r2, [sp, #4]
  22:	9300      	str	r3, [sp, #0]
  24:	b002      	add	sp, #8
  26:	bd10      	pop	{r4, pc}

Disassembly of section .text._ZN73_$LT$core..result..Result$LT$T$C$E$GT$$u20$as$u20$core..ops..try..Try$GT$11into_result17hbefde40070c9a0e0E:

00000000 <_ZN73_$LT$core..result..Result$LT$T$C$E$GT$$u20$as$u20$core..ops..try..Try$GT$11into_result17hbefde40070c9a0e0E>:
_ZN73_$LT$core..result..Result$LT$T$C$E$GT$$u20$as$u20$core..ops..try..Try$GT$11into_result17hbefde40070c9a0e0E():
/rustc/50a0defd5a93523067ef239936cc2e0755220904/src/libcore/result.rs:1282
   0:	b082      	sub	sp, #8
   2:	460a      	mov	r2, r1
   4:	4603      	mov	r3, r0
/rustc/50a0defd5a93523067ef239936cc2e0755220904/src/libcore/result.rs:1283
   6:	f8d1 c000 	ldr.w	ip, [r1]
   a:	6849      	ldr	r1, [r1, #4]
   c:	6041      	str	r1, [r0, #4]
   e:	f8c0 c000 	str.w	ip, [r0]
/rustc/50a0defd5a93523067ef239936cc2e0755220904/src/libcore/result.rs:1284
  12:	9201      	str	r2, [sp, #4]
  14:	9300      	str	r3, [sp, #0]
  16:	b002      	add	sp, #8
  18:	4770      	bx	lr

app-1669bcaaaa4db712.4uvyc51vxen3nrfb.rcgu.o:     file format elf32-littlearm

SYMBOL TABLE:
00000000 l    df *ABS*	00000000 4uvyc51vxen3nrfb
00000240 l       .debug_str	00000000 
0000015a l       .debug_str	00000000 
0000019b l       .debug_str	00000000 
000001a4 l       .debug_str	00000000 
000001a9 l       .debug_str	00000000 
000001d4 l       .debug_str	00000000 
000001dd l       .debug_str	00000000 
00000245 l       .debug_str	00000000 
0000024d l       .debug_str	00000000 
00000255 l       .debug_str	00000000 
0000025c l       .debug_str	00000000 
00000270 l       .debug_str	00000000 
0000027c l       .debug_str	00000000 
00000281 l       .debug_str	00000000 
00000000 l       .debug_str	00000000 
00000041 l       .debug_str	00000000 
00000055 l       .debug_str	00000000 
00000085 l       .debug_str	00000000 
0000008a l       .debug_str	00000000 
0000008e l       .debug_str	00000000 
00000097 l       .debug_str	00000000 
00000099 l       .debug_str	00000000 
0000009d l       .debug_str	00000000 
000000a4 l       .debug_str	00000000 
000000ad l       .debug_str	00000000 
000000b0 l       .debug_str	00000000 
000000ba l       .debug_str	00000000 
000000c1 l       .debug_str	00000000 
000000c7 l       .debug_str	00000000 
000000cc l       .debug_str	00000000 
000000ce l       .debug_str	00000000 
0000011a l       .debug_str	00000000 
0000012d l       .debug_str	00000000 
00000134 l       .debug_str	00000000 
00000138 l       .debug_str	00000000 
0000013d l       .debug_str	00000000 
00000143 l       .debug_str	00000000 
00000148 l       .debug_str	00000000 
0000014c l       .debug_str	00000000 
00000000 l    d  .text._ZN36_$LT$dyn$u20$$u2b$core..any..Any$GT$12downcast_ref17h8f288e9990cb28c1E	00000000 .text._ZN36_$LT$dyn$u20$$u2b$core..any..Any$GT$12downcast_ref17h8f288e9990cb28c1E
00000000 l    d  .text._ZN36_$LT$dyn$u20$$u2b$core..any..Any$GT$2is17hf8c2a90e09d9d180E	00000000 .text._ZN36_$LT$dyn$u20$$u2b$core..any..Any$GT$2is17hf8c2a90e09d9d180E
00000000 l    d  .text._ZN4core3any6TypeId2of17h867b8df9af7ca95fE	00000000 .text._ZN4core3any6TypeId2of17h867b8df9af7ca95fE
00000000 l    d  .text._ZN59_$LT$dyn$u20$$u2b$core..any..Any$u2b$core..marker..Send$GT$12downcast_ref17h7c6dc83330c3b001E	00000000 .text._ZN59_$LT$dyn$u20$$u2b$core..any..Any$u2b$core..marker..Send$GT$12downcast_ref17h7c6dc83330c3b001E
00000000 l    d  .debug_abbrev	00000000 .debug_abbrev
00000000 l    d  .debug_info	00000000 .debug_info
00000000 l    d  .debug_ranges	00000000 .debug_ranges
00000000 l    d  .debug_frame	00000000 .debug_frame
00000000 l    d  .debug_line	00000000 .debug_line
00000000 g     F .text._ZN36_$LT$dyn$u20$$u2b$core..any..Any$GT$12downcast_ref17h8f288e9990cb28c1E	00000038 _ZN36_$LT$dyn$u20$$u2b$core..any..Any$GT$12downcast_ref17h8f288e9990cb28c1E
00000000 g     F .text._ZN36_$LT$dyn$u20$$u2b$core..any..Any$GT$2is17hf8c2a90e09d9d180E	0000003e _ZN36_$LT$dyn$u20$$u2b$core..any..Any$GT$2is17hf8c2a90e09d9d180E
00000000 g     F .text._ZN4core3any6TypeId2of17h867b8df9af7ca95fE	00000030 _ZN4core3any6TypeId2of17h867b8df9af7ca95fE
00000000         *UND*	00000000 .hidden _ZN58_$LT$core..any..TypeId$u20$as$u20$core..cmp..PartialEq$GT$2eq17hb1617771359e341eE
00000000 g     F .text._ZN59_$LT$dyn$u20$$u2b$core..any..Any$u2b$core..marker..Send$GT$12downcast_ref17h7c6dc83330c3b001E	00000022 _ZN59_$LT$dyn$u20$$u2b$core..any..Any$u2b$core..marker..Send$GT$12downcast_ref17h7c6dc83330c3b001E



Disassembly of section .text._ZN36_$LT$dyn$u20$$u2b$core..any..Any$GT$12downcast_ref17h8f288e9990cb28c1E:

00000000 <_ZN36_$LT$dyn$u20$$u2b$core..any..Any$GT$12downcast_ref17h8f288e9990cb28c1E>:
_ZN36_$LT$dyn$u20$$u2b$core..any..Any$GT$12downcast_ref17h8f288e9990cb28c1E():
/rustc/50a0defd5a93523067ef239936cc2e0755220904/src/libcore/any.rs:189
   0:	b580      	push	{r7, lr}
   2:	b086      	sub	sp, #24
   4:	460a      	mov	r2, r1
   6:	4603      	mov	r3, r0
   8:	9003      	str	r0, [sp, #12]
   a:	9104      	str	r1, [sp, #16]
/rustc/50a0defd5a93523067ef239936cc2e0755220904/src/libcore/any.rs:190
   c:	9803      	ldr	r0, [sp, #12]
   e:	9904      	ldr	r1, [sp, #16]
  10:	9202      	str	r2, [sp, #8]
  12:	9301      	str	r3, [sp, #4]
  14:	f7ff fffe 	bl	0 <_ZN36_$LT$dyn$u20$$u2b$core..any..Any$GT$12downcast_ref17h8f288e9990cb28c1E>
  18:	9000      	str	r0, [sp, #0]
  1a:	e7ff      	b.n	1c <_ZN36_$LT$dyn$u20$$u2b$core..any..Any$GT$12downcast_ref17h8f288e9990cb28c1E+0x1c>
  1c:	9800      	ldr	r0, [sp, #0]
  1e:	07c1      	lsls	r1, r0, #31
  20:	2900      	cmp	r1, #0
  22:	d003      	beq.n	2c <_ZN36_$LT$dyn$u20$$u2b$core..any..Any$GT$12downcast_ref17h8f288e9990cb28c1E+0x2c>
  24:	e7ff      	b.n	26 <_ZN36_$LT$dyn$u20$$u2b$core..any..Any$GT$12downcast_ref17h8f288e9990cb28c1E+0x26>
/rustc/50a0defd5a93523067ef239936cc2e0755220904/src/libcore/any.rs:192
  26:	9803      	ldr	r0, [sp, #12]
  28:	9005      	str	r0, [sp, #20]
/rustc/50a0defd5a93523067ef239936cc2e0755220904/src/libcore/any.rs:190
  2a:	e002      	b.n	32 <_ZN36_$LT$dyn$u20$$u2b$core..any..Any$GT$12downcast_ref17h8f288e9990cb28c1E+0x32>
  2c:	2000      	movs	r0, #0
/rustc/50a0defd5a93523067ef239936cc2e0755220904/src/libcore/any.rs:195
  2e:	9005      	str	r0, [sp, #20]
/rustc/50a0defd5a93523067ef239936cc2e0755220904/src/libcore/any.rs:190
  30:	e7ff      	b.n	32 <_ZN36_$LT$dyn$u20$$u2b$core..any..Any$GT$12downcast_ref17h8f288e9990cb28c1E+0x32>
/rustc/50a0defd5a93523067ef239936cc2e0755220904/src/libcore/any.rs:197
  32:	9805      	ldr	r0, [sp, #20]
  34:	b006      	add	sp, #24
  36:	bd80      	pop	{r7, pc}

Disassembly of section .text._ZN36_$LT$dyn$u20$$u2b$core..any..Any$GT$2is17hf8c2a90e09d9d180E:

00000000 <_ZN36_$LT$dyn$u20$$u2b$core..any..Any$GT$2is17hf8c2a90e09d9d180E>:
_ZN36_$LT$dyn$u20$$u2b$core..any..Any$GT$2is17hf8c2a90e09d9d180E():
/rustc/50a0defd5a93523067ef239936cc2e0755220904/src/libcore/any.rs:155
   0:	b580      	push	{r7, lr}
   2:	b08a      	sub	sp, #40	; 0x28
   4:	460a      	mov	r2, r1
   6:	4603      	mov	r3, r0
   8:	9004      	str	r0, [sp, #16]
   a:	9105      	str	r1, [sp, #20]
/rustc/50a0defd5a93523067ef239936cc2e0755220904/src/libcore/any.rs:157
   c:	9203      	str	r2, [sp, #12]
   e:	9302      	str	r3, [sp, #8]
  10:	f7ff fffe 	bl	0 <_ZN36_$LT$dyn$u20$$u2b$core..any..Any$GT$2is17hf8c2a90e09d9d180E>
  14:	9107      	str	r1, [sp, #28]
  16:	9006      	str	r0, [sp, #24]
  18:	e7ff      	b.n	1a <_ZN36_$LT$dyn$u20$$u2b$core..any..Any$GT$2is17hf8c2a90e09d9d180E+0x1a>
/rustc/50a0defd5a93523067ef239936cc2e0755220904/src/libcore/any.rs:160
  1a:	9804      	ldr	r0, [sp, #16]
  1c:	9905      	ldr	r1, [sp, #20]
  1e:	68c9      	ldr	r1, [r1, #12]
  20:	4788      	blx	r1
  22:	9109      	str	r1, [sp, #36]	; 0x24
  24:	9008      	str	r0, [sp, #32]
  26:	e7ff      	b.n	28 <_ZN36_$LT$dyn$u20$$u2b$core..any..Any$GT$2is17hf8c2a90e09d9d180E+0x28>
  28:	a806      	add	r0, sp, #24
  2a:	a908      	add	r1, sp, #32
/rustc/50a0defd5a93523067ef239936cc2e0755220904/src/libcore/any.rs:163
  2c:	f7ff fffe 	bl	0 <_ZN58_$LT$core..any..TypeId$u20$as$u20$core..cmp..PartialEq$GT$2eq17hb1617771359e341eE>
  30:	9001      	str	r0, [sp, #4]
  32:	e7ff      	b.n	34 <_ZN36_$LT$dyn$u20$$u2b$core..any..Any$GT$2is17hf8c2a90e09d9d180E+0x34>
/rustc/50a0defd5a93523067ef239936cc2e0755220904/src/libcore/any.rs:164
  34:	9801      	ldr	r0, [sp, #4]
  36:	f000 0001 	and.w	r0, r0, #1
  3a:	b00a      	add	sp, #40	; 0x28
  3c:	bd80      	pop	{r7, pc}

Disassembly of section .text._ZN4core3any6TypeId2of17h867b8df9af7ca95fE:

00000000 <_ZN4core3any6TypeId2of17h867b8df9af7ca95fE>:
_ZN4core3any6TypeId2of17h867b8df9af7ca95fE():
/rustc/50a0defd5a93523067ef239936cc2e0755220904/src/libcore/any.rs:447
   0:	b086      	sub	sp, #24
   2:	f249 40d9 	movw	r0, #38105	; 0x94d9
   6:	f2c1 1010 	movt	r0, #4368	; 0x1110
/rustc/50a0defd5a93523067ef239936cc2e0755220904/src/libcore/any.rs:449
   a:	9005      	str	r0, [sp, #20]
   c:	f249 7064 	movw	r0, #38756	; 0x9764
  10:	f2c7 00b0 	movt	r0, #28848	; 0x70b0
  14:	9004      	str	r0, [sp, #16]
  16:	9804      	ldr	r0, [sp, #16]
  18:	9905      	ldr	r1, [sp, #20]
  1a:	9001      	str	r0, [sp, #4]
  1c:	9100      	str	r1, [sp, #0]
  1e:	e7ff      	b.n	20 <_ZN4core3any6TypeId2of17h867b8df9af7ca95fE+0x20>
/rustc/50a0defd5a93523067ef239936cc2e0755220904/src/libcore/any.rs:448
  20:	9801      	ldr	r0, [sp, #4]
  22:	9002      	str	r0, [sp, #8]
  24:	9900      	ldr	r1, [sp, #0]
  26:	9103      	str	r1, [sp, #12]
/rustc/50a0defd5a93523067ef239936cc2e0755220904/src/libcore/any.rs:451
  28:	9802      	ldr	r0, [sp, #8]
  2a:	9903      	ldr	r1, [sp, #12]
  2c:	b006      	add	sp, #24
  2e:	4770      	bx	lr

Disassembly of section .text._ZN59_$LT$dyn$u20$$u2b$core..any..Any$u2b$core..marker..Send$GT$12downcast_ref17h7c6dc83330c3b001E:

00000000 <_ZN59_$LT$dyn$u20$$u2b$core..any..Any$u2b$core..marker..Send$GT$12downcast_ref17h7c6dc83330c3b001E>:
_ZN59_$LT$dyn$u20$$u2b$core..any..Any$u2b$core..marker..Send$GT$12downcast_ref17h7c6dc83330c3b001E():
/rustc/50a0defd5a93523067ef239936cc2e0755220904/src/libcore/any.rs:286
   0:	b580      	push	{r7, lr}
   2:	b086      	sub	sp, #24
   4:	460a      	mov	r2, r1
   6:	4603      	mov	r3, r0
   8:	9004      	str	r0, [sp, #16]
   a:	9105      	str	r1, [sp, #20]
/rustc/50a0defd5a93523067ef239936cc2e0755220904/src/libcore/any.rs:287
   c:	9804      	ldr	r0, [sp, #16]
   e:	9905      	ldr	r1, [sp, #20]
  10:	9203      	str	r2, [sp, #12]
  12:	9302      	str	r3, [sp, #8]
  14:	f7ff fffe 	bl	0 <_ZN59_$LT$dyn$u20$$u2b$core..any..Any$u2b$core..marker..Send$GT$12downcast_ref17h7c6dc83330c3b001E>
  18:	9001      	str	r0, [sp, #4]
  1a:	e7ff      	b.n	1c <_ZN59_$LT$dyn$u20$$u2b$core..any..Any$u2b$core..marker..Send$GT$12downcast_ref17h7c6dc83330c3b001E+0x1c>
/rustc/50a0defd5a93523067ef239936cc2e0755220904/src/libcore/any.rs:288
  1c:	9801      	ldr	r0, [sp, #4]
  1e:	b006      	add	sp, #24
  20:	bd80      	pop	{r7, pc}

app-1669bcaaaa4db712.djwsmb2ryxo2enp.rcgu.o:     file format elf32-littlearm

SYMBOL TABLE:
00000000 l    df *ABS*	00000000 djwsmb2ryxo2enp
00000986 l       .debug_str	00000000 
000008dc l       .debug_str	00000000 
000008f5 l       .debug_str	00000000 
000008fa l       .debug_str	00000000 
0000090b l       .debug_str	00000000 
00000915 l       .debug_str	00000000 
00000923 l       .debug_str	00000000 
0000092e l       .debug_str	00000000 
00000935 l       .debug_str	00000000 
0000093b l       .debug_str	00000000 
0000093f l       .debug_str	00000000 
00000943 l       .debug_str	00000000 
0000094b l       .debug_str	00000000 
00000962 l       .debug_str	00000000 
000009a2 l       .debug_str	00000000 
000009ac l       .debug_str	00000000 
000009c6 l       .debug_str	00000000 
00000a24 l       .debug_str	00000000 
00000a2f l       .debug_str	00000000 
00000a4c l       .debug_str	00000000 
00000a65 l       .debug_str	00000000 
00000a6f l       .debug_str	00000000 
00000a85 l       .debug_str	00000000 
00000a89 l       .debug_str	00000000 
00000a8f l       .debug_str	00000000 
00000a99 l       .debug_str	00000000 
00000aa4 l       .debug_str	00000000 
00000aad l       .debug_str	00000000 
00000ab8 l       .debug_str	00000000 
00000ac4 l       .debug_str	00000000 
00000acd l       .debug_str	00000000 
00000ad4 l       .debug_str	00000000 
00000adc l       .debug_str	00000000 
00000ae4 l       .debug_str	00000000 
00000aee l       .debug_str	00000000 
00000af4 l       .debug_str	00000000 
00000afb l       .debug_str	00000000 
00000b02 l       .debug_str	00000000 
00000b2f l       .debug_str	00000000 
00000b64 l       .debug_str	00000000 
00000b6a l       .debug_str	00000000 
00000b70 l       .debug_str	00000000 
00000b7f l       .debug_str	00000000 
00000b8f l       .debug_str	00000000 
00000b9f l       .debug_str	00000000 
00000ba7 l       .debug_str	00000000 
00000bd0 l       .debug_str	00000000 
00000c2e l       .debug_str	00000000 
00000c94 l       .debug_str	00000000 
00000c9b l       .debug_str	00000000 
00000ca3 l       .debug_str	00000000 
00000cac l       .debug_str	00000000 
00000cca l       .debug_str	00000000 
00000cda l       .debug_str	00000000 
00000ce8 l       .debug_str	00000000 
00000cf3 l       .debug_str	00000000 
00000d00 l       .debug_str	00000000 
00000d0f l       .debug_str	00000000 
00000d25 l       .debug_str	00000000 
00000d2f l       .debug_str	00000000 
00000d38 l       .debug_str	00000000 
00000d41 l       .debug_str	00000000 
00000d67 l       .debug_str	00000000 
00000d7d l       .debug_str	00000000 
00000d88 l       .debug_str	00000000 
00000d9e l       .debug_str	00000000 
00000da6 l       .debug_str	00000000 
00000dc7 l       .debug_str	00000000 
00000dd0 l       .debug_str	00000000 
00000dd9 l       .debug_str	00000000 
00000de4 l       .debug_str	00000000 
00000dee l       .debug_str	00000000 
00000e15 l       .debug_str	00000000 
00000e2d l       .debug_str	00000000 
00000e37 l       .debug_str	00000000 
00000e5a l       .debug_str	00000000 
00000e61 l       .debug_str	00000000 
00000e66 l       .debug_str	00000000 
00000e8d l       .debug_str	00000000 
00000e92 l       .debug_str	00000000 
00000e98 l       .debug_str	00000000 
00000e9e l       .debug_str	00000000 
00000ea2 l       .debug_str	00000000 
00000eaf l       .debug_str	00000000 
00000eb6 l       .debug_str	00000000 
00000eba l       .debug_str	00000000 
00000ebc l       .debug_str	00000000 
00000ec4 l       .debug_str	00000000 
00000ecb l       .debug_str	00000000 
00000ed1 l       .debug_str	00000000 
00000ed8 l       .debug_str	00000000 
00000ede l       .debug_str	00000000 
00000ee3 l       .debug_str	00000000 
00000ef2 l       .debug_str	00000000 
00000f00 l       .debug_str	00000000 
00000f0a l       .debug_str	00000000 
00000f0f l       .debug_str	00000000 
00000000 l       .debug_str	00000000 
00000041 l       .debug_str	00000000 
00000055 l       .debug_str	00000000 
00000085 l       .debug_str	00000000 
00000089 l       .debug_str	00000000 
00000096 l       .debug_str	00000000 
000000a2 l       .debug_str	00000000 
000000a9 l       .debug_str	00000000 
000000ad l       .debug_str	00000000 
000000b1 l       .debug_str	00000000 
000000b5 l       .debug_str	00000000 
000000ba l       .debug_str	00000000 
000000f1 l       .debug_str	00000000 
000000fd l       .debug_str	00000000 
00000103 l       .debug_str	00000000 
0000013a l       .debug_str	00000000 
00000145 l       .debug_str	00000000 
0000014d l       .debug_str	00000000 
0000014f l       .debug_str	00000000 
00000153 l       .debug_str	00000000 
00000155 l       .debug_str	00000000 
0000015c l       .debug_str	00000000 
0000015f l       .debug_str	00000000 
00000166 l       .debug_str	00000000 
0000016f l       .debug_str	00000000 
00000174 l       .debug_str	00000000 
0000017e l       .debug_str	00000000 
00000192 l       .debug_str	00000000 
00000198 l       .debug_str	00000000 
000001a2 l       .debug_str	00000000 
000001b1 l       .debug_str	00000000 
000001e7 l       .debug_str	00000000 
000001eb l       .debug_str	00000000 
00000219 l       .debug_str	00000000 
00000225 l       .debug_str	00000000 
0000022c l       .debug_str	00000000 
0000022f l       .debug_str	00000000 
00000239 l       .debug_str	00000000 
0000023f l       .debug_str	00000000 
00000244 l       .debug_str	00000000 
0000024b l       .debug_str	00000000 
0000024f l       .debug_str	00000000 
00000254 l       .debug_str	00000000 
00000276 l       .debug_str	00000000 
000002ae l       .debug_str	00000000 
000002b0 l       .debug_str	00000000 
000002b5 l       .debug_str	00000000 
000002b9 l       .debug_str	00000000 
000002f9 l       .debug_str	00000000 
00000300 l       .debug_str	00000000 
00000304 l       .debug_str	00000000 
0000030f l       .debug_str	00000000 
0000031a l       .debug_str	00000000 
00000321 l       .debug_str	00000000 
00000338 l       .debug_str	00000000 
00000340 l       .debug_str	00000000 
0000034a l       .debug_str	00000000 
00000361 l       .debug_str	00000000 
0000036a l       .debug_str	00000000 
000003a1 l       .debug_str	00000000 
000003aa l       .debug_str	00000000 
000003ad l       .debug_str	00000000 
000003b5 l       .debug_str	00000000 
000003b9 l       .debug_str	00000000 
000003c0 l       .debug_str	00000000 
000003c8 l       .debug_str	00000000 
000003dc l       .debug_str	00000000 
0000040f l       .debug_str	00000000 
0000041a l       .debug_str	00000000 
00000450 l       .debug_str	00000000 
00000457 l       .debug_str	00000000 
0000045f l       .debug_str	00000000 
0000046a l       .debug_str	00000000 
00000475 l       .debug_str	00000000 
00000482 l       .debug_str	00000000 
0000048d l       .debug_str	00000000 
00000495 l       .debug_str	00000000 
000004a0 l       .debug_str	00000000 
000004ab l       .debug_str	00000000 
000004b5 l       .debug_str	00000000 
000004c0 l       .debug_str	00000000 
000004cb l       .debug_str	00000000 
000004d8 l       .debug_str	00000000 
000004e4 l       .debug_str	00000000 
000004f1 l       .debug_str	00000000 
000004ff l       .debug_str	00000000 
00000509 l       .debug_str	00000000 
00000516 l       .debug_str	00000000 
00000522 l       .debug_str	00000000 
00000526 l       .debug_str	00000000 
00000529 l       .debug_str	00000000 
0000052c l       .debug_str	00000000 
00000531 l       .debug_str	00000000 
00000537 l       .debug_str	00000000 
0000053e l       .debug_str	00000000 
00000546 l       .debug_str	00000000 
00000550 l       .debug_str	00000000 
00000553 l       .debug_str	00000000 
00000557 l       .debug_str	00000000 
0000055e l       .debug_str	00000000 
0000059c l       .debug_str	00000000 
000005af l       .debug_str	00000000 
000005b2 l       .debug_str	00000000 
000005b4 l       .debug_str	00000000 
000005dc l       .debug_str	00000000 
0000061f l       .debug_str	00000000 
00000637 l       .debug_str	00000000 
00000677 l       .debug_str	00000000 
0000068c l       .debug_str	00000000 
000006c6 l       .debug_str	00000000 
000006d5 l       .debug_str	00000000 
00000714 l       .debug_str	00000000 
00000728 l       .debug_str	00000000 
0000072c l       .debug_str	00000000 
0000072f l       .debug_str	00000000 
00000738 l       .debug_str	00000000 
0000073d l       .debug_str	00000000 
00000747 l       .debug_str	00000000 
0000074c l       .debug_str	00000000 
00000752 l       .debug_str	00000000 
00000757 l       .debug_str	00000000 
0000075c l       .debug_str	00000000 
00000763 l       .debug_str	00000000 
0000076c l       .debug_str	00000000 
00000776 l       .debug_str	00000000 
0000077d l       .debug_str	00000000 
00000783 l       .debug_str	00000000 
00000788 l       .debug_str	00000000 
00000794 l       .debug_str	00000000 
0000079c l       .debug_str	00000000 
000007a5 l       .debug_str	00000000 
000007aa l       .debug_str	00000000 
000007ad l       .debug_str	00000000 
000007b6 l       .debug_str	00000000 
000007bd l       .debug_str	00000000 
000007c2 l       .debug_str	00000000 
000007c7 l       .debug_str	00000000 
000007cd l       .debug_str	00000000 
000007d3 l       .debug_str	00000000 
000007dd l       .debug_str	00000000 
000007e0 l       .debug_str	00000000 
000007e6 l       .debug_str	00000000 
000007f0 l       .debug_str	00000000 
000007f8 l       .debug_str	00000000 
000007fe l       .debug_str	00000000 
00000804 l       .debug_str	00000000 
0000080f l       .debug_str	00000000 
00000818 l       .debug_str	00000000 
0000083b l       .debug_str	00000000 
0000085a l       .debug_str	00000000 
00000881 l       .debug_str	00000000 
00000886 l       .debug_str	00000000 
0000088c l       .debug_str	00000000 
00000892 l       .debug_str	00000000 
000008a1 l       .debug_str	00000000 
000008a8 l       .debug_str	00000000 
000008ac l       .debug_str	00000000 
000008b5 l       .debug_str	00000000 
000008bd l       .debug_str	00000000 
000008c4 l       .debug_str	00000000 
000008d0 l       .debug_str	00000000 
00000000 l     O .rodata..Lanon.33085165110163face1ada533961b292.0	00000012 .Lanon.33085165110163face1ada533961b292.0
00000000 l     O .rodata.cst4	00000004 .Lanon.33085165110163face1ada533961b292.1
00000000 l     O .rodata..Lanon.33085165110163face1ada533961b292.10	00000010 .Lanon.33085165110163face1ada533961b292.10
00000000 l     O .rodata.cst8	00000008 .Lanon.33085165110163face1ada533961b292.11
00000000 l     O .rodata..Lanon.33085165110163face1ada533961b292.12	0000000e .Lanon.33085165110163face1ada533961b292.12
00000000 l     O .rodata..Lanon.33085165110163face1ada533961b292.13	00000013 .Lanon.33085165110163face1ada533961b292.13
00000000 l     O .rodata..Lanon.33085165110163face1ada533961b292.14	00000018 .Lanon.33085165110163face1ada533961b292.14
00000000 l     O .rodata..Lanon.33085165110163face1ada533961b292.15	00000018 .Lanon.33085165110163face1ada533961b292.15
00000000 l     O .rodata..Lanon.33085165110163face1ada533961b292.16	00000010 .Lanon.33085165110163face1ada533961b292.16
00000000 l     O .rodata..Lanon.33085165110163face1ada533961b292.17	00000018 .Lanon.33085165110163face1ada533961b292.17
00000000 l     O .rodata..Lanon.33085165110163face1ada533961b292.18	00000018 .Lanon.33085165110163face1ada533961b292.18
00000000 l     O .rodata..Lanon.33085165110163face1ada533961b292.19	00000018 .Lanon.33085165110163face1ada533961b292.19
00000000 l     O .rodata..Lanon.33085165110163face1ada533961b292.20	00000010 .Lanon.33085165110163face1ada533961b292.20
00000000 l     O .rodata..Lanon.33085165110163face1ada533961b292.21	00000018 .Lanon.33085165110163face1ada533961b292.21
00000000 l     O .rodata..Lanon.33085165110163face1ada533961b292.22	00000018 .Lanon.33085165110163face1ada533961b292.22
00000000 l     O .rodata..Lanon.33085165110163face1ada533961b292.23	00000010 .Lanon.33085165110163face1ada533961b292.23
00000000 l     O .rodata..Lanon.33085165110163face1ada533961b292.24	00000010 .Lanon.33085165110163face1ada533961b292.24
00000000 l     O .rodata..Lanon.33085165110163face1ada533961b292.25	00000018 .Lanon.33085165110163face1ada533961b292.25
00000000 l     O .rodata..Lanon.33085165110163face1ada533961b292.26	00000018 .Lanon.33085165110163face1ada533961b292.26
00000000 l     O .rodata..Lanon.33085165110163face1ada533961b292.27	00000010 .Lanon.33085165110163face1ada533961b292.27
00000000 l     O .rodata..Lanon.33085165110163face1ada533961b292.28	00000018 .Lanon.33085165110163face1ada533961b292.28
00000000 l     O .rodata..Lanon.33085165110163face1ada533961b292.29	00000018 .Lanon.33085165110163face1ada533961b292.29
00000000 l     O .rodata..Lanon.33085165110163face1ada533961b292.30	00000010 .Lanon.33085165110163face1ada533961b292.30
00000000 l     O .rodata..Lanon.33085165110163face1ada533961b292.31	00000010 .Lanon.33085165110163face1ada533961b292.31
00000000 l     O .rodata..Lanon.33085165110163face1ada533961b292.32	00000018 .Lanon.33085165110163face1ada533961b292.32
00000000 l     O .rodata..Lanon.33085165110163face1ada533961b292.33	00000018 .Lanon.33085165110163face1ada533961b292.33
00000000 l     O .rodata..Lanon.33085165110163face1ada533961b292.34	00000010 .Lanon.33085165110163face1ada533961b292.34
00000000 l     O .rodata..Lanon.33085165110163face1ada533961b292.35	00000010 .Lanon.33085165110163face1ada533961b292.35
00000000 l     O .rodata..Lanon.33085165110163face1ada533961b292.36	00000018 .Lanon.33085165110163face1ada533961b292.36
00000000 l     O .rodata..Lanon.33085165110163face1ada533961b292.37	00000018 .Lanon.33085165110163face1ada533961b292.37
00000000 l     O .rodata..Lanon.33085165110163face1ada533961b292.38	00000010 .Lanon.33085165110163face1ada533961b292.38
00000000 l     O .rodata..Lanon.33085165110163face1ada533961b292.39	00000010 .Lanon.33085165110163face1ada533961b292.39
00000000 l     O .rodata..Lanon.33085165110163face1ada533961b292.40	00000018 .Lanon.33085165110163face1ada533961b292.40
00000000 l     O .rodata..Lanon.33085165110163face1ada533961b292.41	00000018 .Lanon.33085165110163face1ada533961b292.41
00000000 l     O .rodata..Lanon.33085165110163face1ada533961b292.42	00000010 .Lanon.33085165110163face1ada533961b292.42
00000000 l     O .rodata..Lanon.33085165110163face1ada533961b292.43	00000010 .Lanon.33085165110163face1ada533961b292.43
00000000 l     O .rodata..Lanon.33085165110163face1ada533961b292.44	00000018 .Lanon.33085165110163face1ada533961b292.44
00000000 l     O .rodata..Lanon.33085165110163face1ada533961b292.45	00000018 .Lanon.33085165110163face1ada533961b292.45
00000000 l     O .rodata..Lanon.33085165110163face1ada533961b292.46	00000010 .Lanon.33085165110163face1ada533961b292.46
00000000 l     O .rodata..Lanon.33085165110163face1ada533961b292.47	00000010 .Lanon.33085165110163face1ada533961b292.47
00000000 l     O .rodata..Lanon.33085165110163face1ada533961b292.48	00000010 .Lanon.33085165110163face1ada533961b292.48
00000000 l     O .rodata..Lanon.33085165110163face1ada533961b292.49	00000010 .Lanon.33085165110163face1ada533961b292.49
00000000 l     O .rodata..Lanon.33085165110163face1ada533961b292.5	00000018 .Lanon.33085165110163face1ada533961b292.5
00000000 l     O .rodata..Lanon.33085165110163face1ada533961b292.51	00000018 .Lanon.33085165110163face1ada533961b292.51
00000000 l     O .rodata..Lanon.33085165110163face1ada533961b292.52	00000018 .Lanon.33085165110163face1ada533961b292.52
00000008 l     O .rodata.cst8	00000008 .Lanon.33085165110163face1ada533961b292.53
00000000 l     O .rodata..Lanon.33085165110163face1ada533961b292.54	00000018 .Lanon.33085165110163face1ada533961b292.54
00000010 l     O .rodata.cst8	00000008 .Lanon.33085165110163face1ada533961b292.55
00000000 l     O .rodata..Lanon.33085165110163face1ada533961b292.56	00000018 .Lanon.33085165110163face1ada533961b292.56
00000000 l     O .rodata..Lanon.33085165110163face1ada533961b292.7	00000008 .Lanon.33085165110163face1ada533961b292.7
00000000 l     O .rodata..Lanon.33085165110163face1ada533961b292.8	00000000 .Lanon.33085165110163face1ada533961b292.8
00000000 l     O .bss._ZN3app12touch_sensor10I2C_BUFFER17hb9c8dc3c780b2339E	00000001 _ZN3app12touch_sensor10I2C_BUFFER17hb9c8dc3c780b2339E
00000000 l     O .bss._ZN3app12touch_sensor10TOUCH_DATA17h6de595fd6fc75187E	00000052 _ZN3app12touch_sensor10TOUCH_DATA17h6de595fd6fc75187E
00000000 l     O .bss._ZN3app12touch_sensor11TOUCH_DELAY17h188b511f83f5442fE	00000000 _ZN3app12touch_sensor11TOUCH_DELAY17h188b511f83f5442fE
00000000 l     O .bss._ZN3app12touch_sensor11TOUCH_EVENT17h5f28dfbdff5beb3fE	00000010 _ZN3app12touch_sensor11TOUCH_EVENT17h5f28dfbdff5beb3fE
00000000 l     O .bss._ZN3app12touch_sensor11TOUCH_RESET17h9d8e5a6c48719223E	00000004 _ZN3app12touch_sensor11TOUCH_RESET17h9d8e5a6c48719223E
00000000 l     F .text._ZN3app12touch_sensor14read_touchdata17h2fc609c35ea6ae90E	000006b0 _ZN3app12touch_sensor14read_touchdata17h2fc609c35ea6ae90E
00000000 l     F .text._ZN3app12touch_sensor19read_register_range17haa9595e4b793f17fE	0000018a _ZN3app12touch_sensor19read_register_range17haa9595e4b793f17fE
00000000 l     F .text._ZN3app12touch_sensor20touch_event_callback17h81c41810730ccaffE	0000005e _ZN3app12touch_sensor20touch_event_callback17h81c41810730ccaffE
00000000 l     F .text._ZN3app12touch_sensor23touch_interrupt_handler17head29b23677d6f3bE	00000046 _ZN3app12touch_sensor23touch_interrupt_handler17head29b23677d6f3bE
00000000 l     O .bss._ZN3app12touch_sensor3buf17h39f35d9bb49c1111E	0000003f _ZN3app12touch_sensor3buf17h39f35d9bb49c1111E
00000000 l     O .bss._ZN3app12touch_sensor8I2C_DATA17h26e7c34fe62b25fdE	00000008 _ZN3app12touch_sensor8I2C_DATA17h26e7c34fe62b25fdE
00000000 l     O .rodata.str.0	0000001c str.0
00000000 l     O .rodata.str.1	00000021 str.1
00000000 l     O .rodata.str.2	0000001c str.2
00000000 l    d  .text._ZN3app12touch_sensor18start_touch_sensor17h4afc12e136213875E	00000000 .text._ZN3app12touch_sensor18start_touch_sensor17h4afc12e136213875E
00000000 l    d  .text._ZN3app12touch_sensor23touch_interrupt_handler17head29b23677d6f3bE	00000000 .text._ZN3app12touch_sensor23touch_interrupt_handler17head29b23677d6f3bE
00000000 l    d  .text._ZN3app12touch_sensor20touch_event_callback17h81c41810730ccaffE	00000000 .text._ZN3app12touch_sensor20touch_event_callback17h81c41810730ccaffE
00000000 l    d  .text._ZN3app12touch_sensor14read_touchdata17h2fc609c35ea6ae90E	00000000 .text._ZN3app12touch_sensor14read_touchdata17h2fc609c35ea6ae90E
00000000 l    d  .text._ZN3app12touch_sensor19read_register_range17haa9595e4b793f17fE	00000000 .text._ZN3app12touch_sensor19read_register_range17haa9595e4b793f17fE
00000000 l    d  .bss._ZN3app12touch_sensor11TOUCH_RESET17h9d8e5a6c48719223E	00000000 .bss._ZN3app12touch_sensor11TOUCH_RESET17h9d8e5a6c48719223E
00000000 l    d  .bss._ZN3app12touch_sensor11TOUCH_DELAY17h188b511f83f5442fE	00000000 .bss._ZN3app12touch_sensor11TOUCH_DELAY17h188b511f83f5442fE
00000000 l    d  .rodata..Lanon.33085165110163face1ada533961b292.2	00000000 .rodata..Lanon.33085165110163face1ada533961b292.2
00000000 l    d  .rodata..Lanon.33085165110163face1ada533961b292.3	00000000 .rodata..Lanon.33085165110163face1ada533961b292.3
00000000 l    d  .rodata..Lanon.33085165110163face1ada533961b292.4	00000000 .rodata..Lanon.33085165110163face1ada533961b292.4
00000000 l    d  .rodata..Lanon.33085165110163face1ada533961b292.6	00000000 .rodata..Lanon.33085165110163face1ada533961b292.6
00000000 l    d  .rodata..Lanon.33085165110163face1ada533961b292.9	00000000 .rodata..Lanon.33085165110163face1ada533961b292.9
00000000 l    d  .bss._ZN3app12touch_sensor10TOUCH_DATA17h6de595fd6fc75187E	00000000 .bss._ZN3app12touch_sensor10TOUCH_DATA17h6de595fd6fc75187E
00000000 l    d  .rodata.str.0	00000000 .rodata.str.0
00000000 l    d  .rodata.str.1	00000000 .rodata.str.1
00000000 l    d  .rodata.str.2	00000000 .rodata.str.2
00000000 l    d  .bss._ZN3app12touch_sensor3buf17h39f35d9bb49c1111E	00000000 .bss._ZN3app12touch_sensor3buf17h39f35d9bb49c1111E
00000000 l    d  .bss._ZN3app12touch_sensor11TOUCH_EVENT17h5f28dfbdff5beb3fE	00000000 .bss._ZN3app12touch_sensor11TOUCH_EVENT17h5f28dfbdff5beb3fE
00000000 l    d  .rodata..Lanon.33085165110163face1ada533961b292.50	00000000 .rodata..Lanon.33085165110163face1ada533961b292.50
00000000 l    d  .bss._ZN3app12touch_sensor8I2C_DATA17h26e7c34fe62b25fdE	00000000 .bss._ZN3app12touch_sensor8I2C_DATA17h26e7c34fe62b25fdE
00000000 l    d  .bss._ZN3app12touch_sensor10I2C_BUFFER17hb9c8dc3c780b2339E	00000000 .bss._ZN3app12touch_sensor10I2C_BUFFER17hb9c8dc3c780b2339E
00000000 l    d  .debug_abbrev	00000000 .debug_abbrev
00000000 l    d  .debug_info	00000000 .debug_info
00000000 l    d  .debug_ranges	00000000 .debug_ranges
00000000 l    d  .debug_frame	00000000 .debug_frame
00000000 l    d  .debug_line	00000000 .debug_line
00000000 g     F .text._ZN3app12touch_sensor18start_touch_sensor17h4afc12e136213875E	00000268 .hidden _ZN3app12touch_sensor18start_touch_sensor17h4afc12e136213875E
00000000         *UND*	00000000 _ZN42_$LT$$RF$T$u20$as$u20$core..fmt..Debug$GT$3fmt17hddb8f9e02e1c4303E
00000000         *UND*	00000000 _ZN4core3fmt10ArgumentV13new17h0072bd4aa4e67a3cE
00000000         *UND*	00000000 _ZN4core3fmt10ArgumentV13new17he79f747c54d01ba3E
00000000         *UND*	00000000 .hidden _ZN4core3fmt9Arguments6new_v117h85f95281af4eb96fE
00000000         *UND*	00000000 _ZN4core3ptr8null_mut17hf1582f8c6c47e4ffE
00000000         *UND*	00000000 _ZN4core4iter5range101_$LT$impl$u20$core..iter..traits..iterator..Iterator$u20$for$u20$core..ops..range..Range$LT$A$GT$$GT$4next17h958b1d5f87088d8dE
00000000         *UND*	00000000 _ZN4core5slice29_$LT$impl$u20$$u5b$T$u5d$$GT$10as_mut_ptr17h62482040e6da4f65E
00000000         *UND*	00000000 _ZN4core5slice29_$LT$impl$u20$$u5b$T$u5d$$GT$3len17h70be3ebb33ef544dE
00000000         *UND*	00000000 _ZN4core6result19Result$LT$T$C$E$GT$6expect17had2f748eb2f9e666E
00000000         *UND*	00000000 _ZN4core6result19Result$LT$T$C$E$GT$6expect17hff06cf26ae8e8a9cE
00000000         *UND*	00000000 _ZN4core9panicking18panic_bounds_check17h946762cd0671aec9E
00000000         *UND*	00000000 _ZN4core9panicking5panic17h53ca63c6ac6312f8E
00000000         *UND*	00000000 _ZN4core9panicking9panic_fmt17h6b4d8e87b0965449E
00000000         *UND*	00000000 _ZN50_$LT$T$u20$as$u20$core..convert..From$LT$T$GT$$GT$4from17h18d49e5f5b831b87E
00000000         *UND*	00000000 _ZN59_$LT$core..fmt..Arguments$u20$as$u20$core..fmt..Display$GT$3fmt17h3e269ca172b8335aE
00000000         *UND*	00000000 _ZN5druid11win_handler12handle_touch17h1ba0079abf75a3f0E
00000000         *UND*	00000000 _ZN63_$LT$I$u20$as$u20$core..iter..traits..collect..IntoIterator$GT$9into_iter17h986290776580f7d8E
00000000         *UND*	00000000 _ZN6mynewt3hal4GPIO4init17hbf44fdb309ff5849E
00000000         *UND*	00000000 _ZN6mynewt3sys7console5print17hea17a43bd9cd9b8bE
00000000         *UND*	00000000 _ZN6mynewt6kernel2os15eventq_dflt_get17h467e54255005abe5E
00000000         *UND*	00000000 _ZN73_$LT$core..result..Result$LT$T$C$E$GT$$u20$as$u20$core..ops..try..Try$GT$10from_error17h80f38a6d6d522ff5E
00000000         *UND*	00000000 _ZN73_$LT$core..result..Result$LT$T$C$E$GT$$u20$as$u20$core..ops..try..Try$GT$11into_result17hbefd7b540f8203c4E
00000000         *UND*	00000000 _ZN74_$LT$mynewt..hal..GPIO$u20$as$u20$embedded_hal..digital..v2..OutputPin$GT$7set_low17h235f34afa52133daE
00000000         *UND*	00000000 _ZN74_$LT$mynewt..hal..GPIO$u20$as$u20$embedded_hal..digital..v2..OutputPin$GT$8set_high17h87241fa07a6fff94E
00000000         *UND*	00000000 _ZN87_$LT$mynewt..hal..Delay$u20$as$u20$embedded_hal..blocking..delay..DelayMs$LT$u8$GT$$GT$8delay_ms17h4a71862579c0ff4eE
00000000         *UND*	00000000 __aeabi_memclr
00000000         *UND*	00000000 __aeabi_memcpy
00000000         *UND*	00000000 hal_gpio_irq_enable
00000000         *UND*	00000000 hal_gpio_irq_init
00000000         *UND*	00000000 hal_i2c_master_read
00000000         *UND*	00000000 hal_i2c_master_write
00000000         *UND*	00000000 os_eventq_put



Disassembly of section .text._ZN3app12touch_sensor18start_touch_sensor17h4afc12e136213875E:

00000000 <_ZN3app12touch_sensor18start_touch_sensor17h4afc12e136213875E>:
_ZN3app12touch_sensor18start_touch_sensor17h4afc12e136213875E():
/Users/Luppy/mynewt/stm32bluepill-mynewt-sensor/rust/app/src/touch_sensor.rs:39
/// ```rust
/// let peripherals = nrf52::Peripherals::take().unwrap();
/// let nfcpins = peripherals.UICR.nfcpins.read().bits();
/// console::print("nfcpins = "); console::printhex(nfcpins as u8); console::print("\n");
/// ```
pub fn start_touch_sensor() -> MynewtResult<()> {
   0:	b5b0      	push	{r4, r5, r7, lr}
   2:	b0bc      	sub	sp, #240	; 0xf0
/Users/Luppy/mynewt/stm32bluepill-mynewt-sensor/rust/app/src/touch_sensor.rs:40
    console::print("Rust touch sensor\n");
   4:	f240 0000 	movw	r0, #0
   8:	f2c0 0000 	movt	r0, #0
   c:	2112      	movs	r1, #18
   e:	f7ff fffe 	bl	0 <_ZN6mynewt3sys7console5print17hea17a43bd9cd9b8bE>
  12:	e7ff      	b.n	2 <_ZN3app12touch_sensor18start_touch_sensor17h4afc12e136213875E+0x2>
/Users/Luppy/mynewt/stm32bluepill-mynewt-sensor/rust/app/src/touch_sensor.rs:43

    //  Init GPIO for the Reset Pin
    unsafe { TOUCH_RESET.init(TOUCH_RESET_PIN) ? };
  14:	f240 0000 	movw	r0, #0
  18:	f2c0 0000 	movt	r0, #0
  1c:	210a      	movs	r1, #10
  1e:	f7ff fffe 	bl	0 <_ZN6mynewt3hal4GPIO4init17hbf44fdb309ff5849E>
  22:	9010      	str	r0, [sp, #64]	; 0x40
  24:	e7ff      	b.n	26 <_ZN3app12touch_sensor18start_touch_sensor17h4afc12e136213875E+0x26>
  26:	9810      	ldr	r0, [sp, #64]	; 0x40
  28:	f7ff fffe 	bl	0 <_ZN73_$LT$core..result..Result$LT$T$C$E$GT$$u20$as$u20$core..ops..try..Try$GT$11into_result17hbefd7b540f8203c4E>
  2c:	9012      	str	r0, [sp, #72]	; 0x48
  2e:	e7ff      	b.n	30 <_ZN3app12touch_sensor18start_touch_sensor17h4afc12e136213875E+0x30>
  30:	9812      	ldr	r0, [sp, #72]	; 0x48
  32:	1e41      	subs	r1, r0, #1
  34:	bf18      	it	ne
  36:	2101      	movne	r1, #1
  38:	2801      	cmp	r0, #1
  3a:	910f      	str	r1, [sp, #60]	; 0x3c
  3c:	d015      	beq.n	6a <_ZN3app12touch_sensor18start_touch_sensor17h4afc12e136213875E+0x6a>
  3e:	e7ff      	b.n	40 <_ZN3app12touch_sensor18start_touch_sensor17h4afc12e136213875E+0x40>
  40:	980f      	ldr	r0, [sp, #60]	; 0x3c
  42:	2801      	cmp	r0, #1
  44:	d001      	beq.n	4a <_ZN3app12touch_sensor18start_touch_sensor17h4afc12e136213875E+0x4a>
  46:	e7ff      	b.n	48 <_ZN3app12touch_sensor18start_touch_sensor17h4afc12e136213875E+0x48>
/Users/Luppy/mynewt/stm32bluepill-mynewt-sensor/rust/app/src/touch_sensor.rs:69
    assert_eq!(rc, 0, "IRQ init fail");

    //  Start monitoring for touch controller interrupts
    unsafe { hal::hal_gpio_irq_enable(TOUCH_INTERRUPT_PIN) };
    Ok(())
}
  48:	defe      	udf	#254	; 0xfe
/Users/Luppy/mynewt/stm32bluepill-mynewt-sensor/rust/app/src/touch_sensor.rs:43
    unsafe { TOUCH_RESET.init(TOUCH_RESET_PIN) ? };
  4a:	9812      	ldr	r0, [sp, #72]	; 0x48
  4c:	9013      	str	r0, [sp, #76]	; 0x4c
  4e:	9813      	ldr	r0, [sp, #76]	; 0x4c
  50:	f7ff fffe 	bl	0 <_ZN50_$LT$T$u20$as$u20$core..convert..From$LT$T$GT$$GT$4from17h18d49e5f5b831b87E>
  54:	900e      	str	r0, [sp, #56]	; 0x38
  56:	e7ff      	b.n	58 <_ZN3app12touch_sensor18start_touch_sensor17h4afc12e136213875E+0x58>
  58:	980e      	ldr	r0, [sp, #56]	; 0x38
  5a:	f7ff fffe 	bl	0 <_ZN73_$LT$core..result..Result$LT$T$C$E$GT$$u20$as$u20$core..ops..try..Try$GT$10from_error17h80f38a6d6d522ff5E>
  5e:	9011      	str	r0, [sp, #68]	; 0x44
  60:	e7ff      	b.n	62 <_ZN3app12touch_sensor18start_touch_sensor17h4afc12e136213875E+0x62>
  62:	e7ff      	b.n	64 <_ZN3app12touch_sensor18start_touch_sensor17h4afc12e136213875E+0x64>
/Users/Luppy/mynewt/stm32bluepill-mynewt-sensor/rust/app/src/touch_sensor.rs:69
}
  64:	9811      	ldr	r0, [sp, #68]	; 0x44
  66:	b03c      	add	sp, #240	; 0xf0
  68:	bdb0      	pop	{r4, r5, r7, pc}
/Users/Luppy/mynewt/stm32bluepill-mynewt-sensor/rust/app/src/touch_sensor.rs:47
        TOUCH_RESET.set_low() ? ;
  6a:	f240 0000 	movw	r0, #0
  6e:	f2c0 0000 	movt	r0, #0
  72:	f7ff fffe 	bl	0 <_ZN74_$LT$mynewt..hal..GPIO$u20$as$u20$embedded_hal..digital..v2..OutputPin$GT$7set_low17h235f34afa52133daE>
  76:	900d      	str	r0, [sp, #52]	; 0x34
  78:	e7ff      	b.n	7a <_ZN3app12touch_sensor18start_touch_sensor17h4afc12e136213875E+0x7a>
  7a:	980d      	ldr	r0, [sp, #52]	; 0x34
  7c:	f7ff fffe 	bl	0 <_ZN73_$LT$core..result..Result$LT$T$C$E$GT$$u20$as$u20$core..ops..try..Try$GT$11into_result17hbefd7b540f8203c4E>
  80:	9015      	str	r0, [sp, #84]	; 0x54
  82:	e7ff      	b.n	84 <_ZN3app12touch_sensor18start_touch_sensor17h4afc12e136213875E+0x84>
  84:	9815      	ldr	r0, [sp, #84]	; 0x54
  86:	1e41      	subs	r1, r0, #1
  88:	bf18      	it	ne
  8a:	2101      	movne	r1, #1
  8c:	2801      	cmp	r0, #1
  8e:	910c      	str	r1, [sp, #48]	; 0x30
  90:	d011      	beq.n	b6 <_ZN3app12touch_sensor18start_touch_sensor17h4afc12e136213875E+0xb6>
  92:	e7ff      	b.n	94 <_ZN3app12touch_sensor18start_touch_sensor17h4afc12e136213875E+0x94>
  94:	980c      	ldr	r0, [sp, #48]	; 0x30
  96:	2801      	cmp	r0, #1
  98:	d1d6      	bne.n	48 <_ZN3app12touch_sensor18start_touch_sensor17h4afc12e136213875E+0x48>
  9a:	e7ff      	b.n	9c <_ZN3app12touch_sensor18start_touch_sensor17h4afc12e136213875E+0x9c>
  9c:	9815      	ldr	r0, [sp, #84]	; 0x54
  9e:	9016      	str	r0, [sp, #88]	; 0x58
  a0:	9816      	ldr	r0, [sp, #88]	; 0x58
  a2:	f7ff fffe 	bl	0 <_ZN50_$LT$T$u20$as$u20$core..convert..From$LT$T$GT$$GT$4from17h18d49e5f5b831b87E>
  a6:	900b      	str	r0, [sp, #44]	; 0x2c
  a8:	e7ff      	b.n	aa <_ZN3app12touch_sensor18start_touch_sensor17h4afc12e136213875E+0xaa>
  aa:	980b      	ldr	r0, [sp, #44]	; 0x2c
  ac:	f7ff fffe 	bl	0 <_ZN73_$LT$core..result..Result$LT$T$C$E$GT$$u20$as$u20$core..ops..try..Try$GT$10from_error17h80f38a6d6d522ff5E>
  b0:	9011      	str	r0, [sp, #68]	; 0x44
  b2:	e7ff      	b.n	b4 <_ZN3app12touch_sensor18start_touch_sensor17h4afc12e136213875E+0xb4>
  b4:	e7d6      	b.n	64 <_ZN3app12touch_sensor18start_touch_sensor17h4afc12e136213875E+0x64>
/Users/Luppy/mynewt/stm32bluepill-mynewt-sensor/rust/app/src/touch_sensor.rs:48
        TOUCH_DELAY.delay_ms(20);
  b6:	f240 0000 	movw	r0, #0
  ba:	f2c0 0000 	movt	r0, #0
  be:	2114      	movs	r1, #20
  c0:	f7ff fffe 	bl	0 <_ZN87_$LT$mynewt..hal..Delay$u20$as$u20$embedded_hal..blocking..delay..DelayMs$LT$u8$GT$$GT$8delay_ms17h4a71862579c0ff4eE>
  c4:	e7ff      	b.n	2 <_ZN3app12touch_sensor18start_touch_sensor17h4afc12e136213875E+0x2>
/Users/Luppy/mynewt/stm32bluepill-mynewt-sensor/rust/app/src/touch_sensor.rs:49
        TOUCH_RESET.set_high() ? ;
  c6:	f240 0000 	movw	r0, #0
  ca:	f2c0 0000 	movt	r0, #0
  ce:	f7ff fffe 	bl	0 <_ZN74_$LT$mynewt..hal..GPIO$u20$as$u20$embedded_hal..digital..v2..OutputPin$GT$8set_high17h87241fa07a6fff94E>
  d2:	900a      	str	r0, [sp, #40]	; 0x28
  d4:	e7ff      	b.n	d6 <_ZN3app12touch_sensor18start_touch_sensor17h4afc12e136213875E+0xd6>
  d6:	980a      	ldr	r0, [sp, #40]	; 0x28
  d8:	f7ff fffe 	bl	0 <_ZN73_$LT$core..result..Result$LT$T$C$E$GT$$u20$as$u20$core..ops..try..Try$GT$11into_result17hbefd7b540f8203c4E>
  dc:	9018      	str	r0, [sp, #96]	; 0x60
  de:	e7ff      	b.n	e0 <_ZN3app12touch_sensor18start_touch_sensor17h4afc12e136213875E+0xe0>
  e0:	9818      	ldr	r0, [sp, #96]	; 0x60
  e2:	1e41      	subs	r1, r0, #1
  e4:	bf18      	it	ne
  e6:	2101      	movne	r1, #1
  e8:	2801      	cmp	r0, #1
  ea:	9109      	str	r1, [sp, #36]	; 0x24
  ec:	d011      	beq.n	112 <_ZN3app12touch_sensor18start_touch_sensor17h4afc12e136213875E+0x112>
  ee:	e7ff      	b.n	f0 <_ZN3app12touch_sensor18start_touch_sensor17h4afc12e136213875E+0xf0>
  f0:	9809      	ldr	r0, [sp, #36]	; 0x24
  f2:	2801      	cmp	r0, #1
  f4:	d1a8      	bne.n	48 <_ZN3app12touch_sensor18start_touch_sensor17h4afc12e136213875E+0x48>
  f6:	e7ff      	b.n	f8 <_ZN3app12touch_sensor18start_touch_sensor17h4afc12e136213875E+0xf8>
  f8:	9818      	ldr	r0, [sp, #96]	; 0x60
  fa:	9019      	str	r0, [sp, #100]	; 0x64
  fc:	9819      	ldr	r0, [sp, #100]	; 0x64
  fe:	f7ff fffe 	bl	0 <_ZN50_$LT$T$u20$as$u20$core..convert..From$LT$T$GT$$GT$4from17h18d49e5f5b831b87E>
 102:	9008      	str	r0, [sp, #32]
 104:	e7ff      	b.n	106 <_ZN3app12touch_sensor18start_touch_sensor17h4afc12e136213875E+0x106>
 106:	9808      	ldr	r0, [sp, #32]
 108:	f7ff fffe 	bl	0 <_ZN73_$LT$core..result..Result$LT$T$C$E$GT$$u20$as$u20$core..ops..try..Try$GT$10from_error17h80f38a6d6d522ff5E>
 10c:	9011      	str	r0, [sp, #68]	; 0x44
 10e:	e7ff      	b.n	110 <_ZN3app12touch_sensor18start_touch_sensor17h4afc12e136213875E+0x110>
 110:	e7a8      	b.n	64 <_ZN3app12touch_sensor18start_touch_sensor17h4afc12e136213875E+0x64>
/Users/Luppy/mynewt/stm32bluepill-mynewt-sensor/rust/app/src/touch_sensor.rs:50
        TOUCH_DELAY.delay_ms(200); TOUCH_DELAY.delay_ms(200);    
 112:	f240 0000 	movw	r0, #0
 116:	f2c0 0000 	movt	r0, #0
 11a:	21c8      	movs	r1, #200	; 0xc8
 11c:	f7ff fffe 	bl	0 <_ZN87_$LT$mynewt..hal..Delay$u20$as$u20$embedded_hal..blocking..delay..DelayMs$LT$u8$GT$$GT$8delay_ms17h4a71862579c0ff4eE>
 120:	e7ff      	b.n	2 <_ZN3app12touch_sensor18start_touch_sensor17h4afc12e136213875E+0x2>
 122:	f240 0000 	movw	r0, #0
 126:	f2c0 0000 	movt	r0, #0
 12a:	21c8      	movs	r1, #200	; 0xc8
 12c:	f7ff fffe 	bl	0 <_ZN87_$LT$mynewt..hal..Delay$u20$as$u20$embedded_hal..blocking..delay..DelayMs$LT$u8$GT$$GT$8delay_ms17h4a71862579c0ff4eE>
 130:	e7ff      	b.n	2 <_ZN3app12touch_sensor18start_touch_sensor17h4afc12e136213875E+0x2>
/Users/Luppy/mynewt/stm32bluepill-mynewt-sensor/rust/app/src/touch_sensor.rs:54
    unsafe { TOUCH_EVENT.ev_cb = Some( touch_event_callback ) };
 132:	f240 0000 	movw	r0, #0
 136:	f2c0 0000 	movt	r0, #0
 13a:	f240 0100 	movw	r1, #0
 13e:	f2c0 0100 	movt	r1, #0
 142:	6041      	str	r1, [r0, #4]
/Users/Luppy/mynewt/stm32bluepill-mynewt-sensor/rust/app/src/touch_sensor.rs:59
        Some( touch_interrupt_handler ),  //  Call `touch_interrupt_handler()` upon detecting interrupt
 144:	f240 0000 	movw	r0, #0
 148:	f2c0 0000 	movt	r0, #0
 14c:	901c      	str	r0, [sp, #112]	; 0x70
/Users/Luppy/mynewt/stm32bluepill-mynewt-sensor/rust/app/src/touch_sensor.rs:60
        core::ptr::null_mut(),            //  No arguments for `touch_interrupt_handler()`
 14e:	f7ff fffe 	bl	0 <_ZN4core3ptr8null_mut17hf1582f8c6c47e4ffE>
 152:	9007      	str	r0, [sp, #28]
 154:	e7ff      	b.n	156 <_ZN3app12touch_sensor18start_touch_sensor17h4afc12e136213875E+0x156>
/Users/Luppy/mynewt/stm32bluepill-mynewt-sensor/rust/app/src/touch_sensor.rs:57
    let rc = unsafe { hal::hal_gpio_irq_init(
 156:	991c      	ldr	r1, [sp, #112]	; 0x70
 158:	4668      	mov	r0, sp
 15a:	2201      	movs	r2, #1
 15c:	6002      	str	r2, [r0, #0]
 15e:	201c      	movs	r0, #28
 160:	2302      	movs	r3, #2
 162:	9a07      	ldr	r2, [sp, #28]
 164:	f7ff fffe 	bl	0 <hal_gpio_irq_init>
 168:	901b      	str	r0, [sp, #108]	; 0x6c
 16a:	e7ff      	b.n	16c <_ZN3app12touch_sensor18start_touch_sensor17h4afc12e136213875E+0x16c>
 16c:	a81b      	add	r0, sp, #108	; 0x6c
/Users/Luppy/mynewt/stm32bluepill-mynewt-sensor/rust/app/src/touch_sensor.rs:64
    assert_eq!(rc, 0, "IRQ init fail");
 16e:	901d      	str	r0, [sp, #116]	; 0x74
 170:	f240 0000 	movw	r0, #0
 174:	f2c0 0000 	movt	r0, #0
 178:	901e      	str	r0, [sp, #120]	; 0x78
 17a:	981d      	ldr	r0, [sp, #116]	; 0x74
 17c:	901f      	str	r0, [sp, #124]	; 0x7c
 17e:	981e      	ldr	r0, [sp, #120]	; 0x78
 180:	9020      	str	r0, [sp, #128]	; 0x80
 182:	981f      	ldr	r0, [sp, #124]	; 0x7c
 184:	6800      	ldr	r0, [r0, #0]
 186:	9920      	ldr	r1, [sp, #128]	; 0x80
 188:	6809      	ldr	r1, [r1, #0]
 18a:	4288      	cmp	r0, r1
 18c:	d014      	beq.n	1b8 <_ZN3app12touch_sensor18start_touch_sensor17h4afc12e136213875E+0x1b8>
 18e:	e7ff      	b.n	190 <_ZN3app12touch_sensor18start_touch_sensor17h4afc12e136213875E+0x190>
 190:	981f      	ldr	r0, [sp, #124]	; 0x7c
 192:	9030      	str	r0, [sp, #192]	; 0xc0
 194:	9820      	ldr	r0, [sp, #128]	; 0x80
 196:	9031      	str	r0, [sp, #196]	; 0xc4
 198:	4668      	mov	r0, sp
 19a:	2100      	movs	r1, #0
 19c:	6001      	str	r1, [r0, #0]
 19e:	f240 0100 	movw	r1, #0
 1a2:	f2c0 0100 	movt	r1, #0
 1a6:	f240 0300 	movw	r3, #0
 1aa:	f2c0 0300 	movt	r3, #0
 1ae:	a832      	add	r0, sp, #200	; 0xc8
 1b0:	2201      	movs	r2, #1
 1b2:	f7ff fffe 	bl	0 <_ZN4core3fmt9Arguments6new_v117h85f95281af4eb96fE>
 1b6:	e003      	b.n	1c0 <_ZN3app12touch_sensor18start_touch_sensor17h4afc12e136213875E+0x1c0>
 1b8:	201c      	movs	r0, #28
/Users/Luppy/mynewt/stm32bluepill-mynewt-sensor/rust/app/src/touch_sensor.rs:67
    unsafe { hal::hal_gpio_irq_enable(TOUCH_INTERRUPT_PIN) };
 1ba:	f7ff fffe 	bl	0 <hal_gpio_irq_enable>
 1be:	e04e      	b.n	25e <_ZN3app12touch_sensor18start_touch_sensor17h4afc12e136213875E+0x25e>
 1c0:	a830      	add	r0, sp, #192	; 0xc0
/Users/Luppy/mynewt/stm32bluepill-mynewt-sensor/rust/app/src/touch_sensor.rs:64
    assert_eq!(rc, 0, "IRQ init fail");
 1c2:	902d      	str	r0, [sp, #180]	; 0xb4
 1c4:	a831      	add	r0, sp, #196	; 0xc4
 1c6:	902e      	str	r0, [sp, #184]	; 0xb8
 1c8:	a832      	add	r0, sp, #200	; 0xc8
 1ca:	902f      	str	r0, [sp, #188]	; 0xbc
 1cc:	982d      	ldr	r0, [sp, #180]	; 0xb4
 1ce:	9038      	str	r0, [sp, #224]	; 0xe0
 1d0:	982e      	ldr	r0, [sp, #184]	; 0xb8
 1d2:	9039      	str	r0, [sp, #228]	; 0xe4
 1d4:	982f      	ldr	r0, [sp, #188]	; 0xbc
 1d6:	903a      	str	r0, [sp, #232]	; 0xe8
 1d8:	9838      	ldr	r0, [sp, #224]	; 0xe0
 1da:	f240 0100 	movw	r1, #0
 1de:	f2c0 0100 	movt	r1, #0
 1e2:	f7ff fffe 	bl	0 <_ZN4core3fmt10ArgumentV13new17h0072bd4aa4e67a3cE>
 1e6:	9006      	str	r0, [sp, #24]
 1e8:	9105      	str	r1, [sp, #20]
 1ea:	e7ff      	b.n	1ec <_ZN3app12touch_sensor18start_touch_sensor17h4afc12e136213875E+0x1ec>
 1ec:	9839      	ldr	r0, [sp, #228]	; 0xe4
 1ee:	f240 0100 	movw	r1, #0
 1f2:	f2c0 0100 	movt	r1, #0
 1f6:	f7ff fffe 	bl	0 <_ZN4core3fmt10ArgumentV13new17h0072bd4aa4e67a3cE>
 1fa:	9004      	str	r0, [sp, #16]
 1fc:	9103      	str	r1, [sp, #12]
 1fe:	e7ff      	b.n	200 <_ZN3app12touch_sensor18start_touch_sensor17h4afc12e136213875E+0x200>
 200:	983a      	ldr	r0, [sp, #232]	; 0xe8
 202:	f240 0100 	movw	r1, #0
 206:	f2c0 0100 	movt	r1, #0
 20a:	f7ff fffe 	bl	0 <_ZN4core3fmt10ArgumentV13new17he79f747c54d01ba3E>
 20e:	9002      	str	r0, [sp, #8]
 210:	9101      	str	r1, [sp, #4]
 212:	e7ff      	b.n	214 <_ZN3app12touch_sensor18start_touch_sensor17h4afc12e136213875E+0x214>
 214:	9806      	ldr	r0, [sp, #24]
 216:	9027      	str	r0, [sp, #156]	; 0x9c
 218:	9905      	ldr	r1, [sp, #20]
 21a:	9128      	str	r1, [sp, #160]	; 0xa0
 21c:	9a04      	ldr	r2, [sp, #16]
 21e:	9229      	str	r2, [sp, #164]	; 0xa4
 220:	9b03      	ldr	r3, [sp, #12]
 222:	932a      	str	r3, [sp, #168]	; 0xa8
 224:	f8dd c008 	ldr.w	ip, [sp, #8]
 228:	f8cd c0ac 	str.w	ip, [sp, #172]	; 0xac
 22c:	f8dd e004 	ldr.w	lr, [sp, #4]
 230:	f8cd e0b0 	str.w	lr, [sp, #176]	; 0xb0
 234:	466c      	mov	r4, sp
 236:	2503      	movs	r5, #3
 238:	6025      	str	r5, [r4, #0]
 23a:	f240 0100 	movw	r1, #0
 23e:	f2c0 0100 	movt	r1, #0
 242:	a821      	add	r0, sp, #132	; 0x84
 244:	ab27      	add	r3, sp, #156	; 0x9c
 246:	462a      	mov	r2, r5
 248:	f7ff fffe 	bl	0 <_ZN4core3fmt9Arguments6new_v117h85f95281af4eb96fE>
 24c:	e7ff      	b.n	2 <_ZN3app12touch_sensor18start_touch_sensor17h4afc12e136213875E+0x2>
 24e:	f240 0100 	movw	r1, #0
 252:	f2c0 0100 	movt	r1, #0
 256:	a821      	add	r0, sp, #132	; 0x84
 258:	f7ff fffe 	bl	0 <_ZN4core9panicking9panic_fmt17h6b4d8e87b0965449E>
 25c:	defe      	udf	#254	; 0xfe
 25e:	2000      	movs	r0, #0
/Users/Luppy/mynewt/stm32bluepill-mynewt-sensor/rust/app/src/touch_sensor.rs:68
    Ok(())
 260:	9011      	str	r0, [sp, #68]	; 0x44
 262:	2001      	movs	r0, #1
 264:	9011      	str	r0, [sp, #68]	; 0x44
/Users/Luppy/mynewt/stm32bluepill-mynewt-sensor/rust/app/src/touch_sensor.rs:69
}
 266:	e6fd      	b.n	64 <_ZN3app12touch_sensor18start_touch_sensor17h4afc12e136213875E+0x64>

Disassembly of section .text._ZN3app12touch_sensor23touch_interrupt_handler17head29b23677d6f3bE:

00000000 <_ZN3app12touch_sensor23touch_interrupt_handler17head29b23677d6f3bE>:
_ZN3app12touch_sensor23touch_interrupt_handler17head29b23677d6f3bE():
/Users/Luppy/mynewt/stm32bluepill-mynewt-sensor/rust/app/src/touch_sensor.rs:72

/// Interrupt handler for the touch controller, triggered when a touch is detected
extern "C" fn touch_interrupt_handler(arg: *mut core::ffi::c_void) {
   0:	b580      	push	{r7, lr}
   2:	b086      	sub	sp, #24
   4:	4601      	mov	r1, r0
   6:	9002      	str	r0, [sp, #8]
/Users/Luppy/mynewt/stm32bluepill-mynewt-sensor/rust/app/src/touch_sensor.rs:74
    //  We forward a touch event to the Default Event Queue for deferred processing.  Don't do any processing here.
    unsafe { TOUCH_EVENT.ev_arg = arg };
   8:	9802      	ldr	r0, [sp, #8]
   a:	f240 0200 	movw	r2, #0
   e:	f2c0 0200 	movt	r2, #0
  12:	6090      	str	r0, [r2, #8]
  14:	a804      	add	r0, sp, #16
/Users/Luppy/mynewt/stm32bluepill-mynewt-sensor/rust/app/src/touch_sensor.rs:76
    //  Fetch the Default Event Queue. TODO: Use dedicated Event Queue for higher priority processing.
    let queue = os::eventq_dflt_get()
  16:	9101      	str	r1, [sp, #4]
  18:	f7ff fffe 	bl	0 <_ZN6mynewt6kernel2os15eventq_dflt_get17h467e54255005abe5E>
  1c:	e7ff      	b.n	2 <_ZN3app12touch_sensor23touch_interrupt_handler17head29b23677d6f3bE+0x2>
  1e:	f240 0100 	movw	r1, #0
  22:	f2c0 0100 	movt	r1, #0
  26:	a804      	add	r0, sp, #16
  28:	2208      	movs	r2, #8
  2a:	f7ff fffe 	bl	0 <_ZN4core6result19Result$LT$T$C$E$GT$6expect17had2f748eb2f9e666E>
  2e:	9003      	str	r0, [sp, #12]
  30:	e7ff      	b.n	32 <_ZN3app12touch_sensor23touch_interrupt_handler17head29b23677d6f3bE+0x32>
/Users/Luppy/mynewt/stm32bluepill-mynewt-sensor/rust/app/src/touch_sensor.rs:78
        .expect("GET fail");
	unsafe { os::os_eventq_put(queue, &mut TOUCH_EVENT) };  //  Trigger the callback function `touch_event_callback()`
  32:	9803      	ldr	r0, [sp, #12]
  34:	f240 0100 	movw	r1, #0
  38:	f2c0 0100 	movt	r1, #0
  3c:	f7ff fffe 	bl	0 <os_eventq_put>
  40:	e7ff      	b.n	42 <_ZN3app12touch_sensor23touch_interrupt_handler17head29b23677d6f3bE+0x42>
/Users/Luppy/mynewt/stm32bluepill-mynewt-sensor/rust/app/src/touch_sensor.rs:79
}
  42:	b006      	add	sp, #24
  44:	bd80      	pop	{r7, pc}

Disassembly of section .text._ZN3app12touch_sensor20touch_event_callback17h81c41810730ccaffE:

00000000 <_ZN3app12touch_sensor20touch_event_callback17h81c41810730ccaffE>:
_ZN3app12touch_sensor20touch_event_callback17h81c41810730ccaffE():
/Users/Luppy/mynewt/stm32bluepill-mynewt-sensor/rust/app/src/touch_sensor.rs:82

/// Callback for the touch event that is triggered when a touch is detected
extern "C" fn touch_event_callback(_event: *mut os_event) {
   0:	b580      	push	{r7, lr}
   2:	b084      	sub	sp, #16
   4:	4601      	mov	r1, r0
   6:	9002      	str	r0, [sp, #8]
/Users/Luppy/mynewt/stm32bluepill-mynewt-sensor/rust/app/src/touch_sensor.rs:86
    //  console::printhex(unsafe { os::os_time_get() } as u8); console::print(" touch\n");
    unsafe { 
        //  Fetch the touch data from the touch controller
        read_touchdata(&mut TOUCH_DATA)
   8:	f240 0000 	movw	r0, #0
   c:	f2c0 0000 	movt	r0, #0
  10:	9101      	str	r1, [sp, #4]
  12:	f7ff fffe 	bl	0 <_ZN3app12touch_sensor20touch_event_callback17h81c41810730ccaffE>
  16:	9000      	str	r0, [sp, #0]
  18:	e7ff      	b.n	1a <_ZN3app12touch_sensor20touch_event_callback17h81c41810730ccaffE+0x1a>
  1a:	f240 0100 	movw	r1, #0
  1e:	f2c0 0100 	movt	r1, #0
  22:	220e      	movs	r2, #14
  24:	9800      	ldr	r0, [sp, #0]
  26:	f7ff fffe 	bl	0 <_ZN4core6result19Result$LT$T$C$E$GT$6expect17hff06cf26ae8e8a9cE>
  2a:	e7ff      	b.n	2c <_ZN3app12touch_sensor20touch_event_callback17h81c41810730ccaffE+0x2c>
/Users/Luppy/mynewt/stm32bluepill-mynewt-sensor/rust/app/src/touch_sensor.rs:88
            .expect("touchdata fail");
        let x = TOUCH_DATA.touches[0].x;
  2c:	e7ff      	b.n	2e <_ZN3app12touch_sensor20touch_event_callback17h81c41810730ccaffE+0x2e>
  2e:	f240 0000 	movw	r0, #0
  32:	f2c0 0000 	movt	r0, #0
  36:	8800      	ldrh	r0, [r0, #0]
  38:	f8ad 000c 	strh.w	r0, [sp, #12]
/Users/Luppy/mynewt/stm32bluepill-mynewt-sensor/rust/app/src/touch_sensor.rs:89
        let y = TOUCH_DATA.touches[0].y;
  3c:	e7ff      	b.n	2 <_ZN3app12touch_sensor20touch_event_callback17h81c41810730ccaffE+0x2>
  3e:	f240 0000 	movw	r0, #0
  42:	f2c0 0000 	movt	r0, #0
  46:	8840      	ldrh	r0, [r0, #2]
  48:	f8ad 000e 	strh.w	r0, [sp, #14]
/Users/Luppy/mynewt/stm32bluepill-mynewt-sensor/rust/app/src/touch_sensor.rs:92

        //  Handle the touch data in the UI        
        druid::handle_touch(x, y);
  4c:	f8bd 100e 	ldrh.w	r1, [sp, #14]
  50:	f8bd 000c 	ldrh.w	r0, [sp, #12]
  54:	f7ff fffe 	bl	0 <_ZN5druid11win_handler12handle_touch17h1ba0079abf75a3f0E>
  58:	e7ff      	b.n	5a <_ZN3app12touch_sensor20touch_event_callback17h81c41810730ccaffE+0x5a>
/Users/Luppy/mynewt/stm32bluepill-mynewt-sensor/rust/app/src/touch_sensor.rs:101
    }
    //  Disable the console output because it slows down the rendering
    //  console::printint(unsafe { TOUCH_DATA.touches[0].x } as i32); console::print(", ");
    //  console::printint(unsafe { TOUCH_DATA.touches[0].y } as i32); console::print("\n");
    //  console::flush();   
}
  5a:	b004      	add	sp, #16
  5c:	bd80      	pop	{r7, pc}

Disassembly of section .text._ZN3app12touch_sensor14read_touchdata17h2fc609c35ea6ae90E:

00000000 <_ZN3app12touch_sensor14read_touchdata17h2fc609c35ea6ae90E>:
_ZN3app12touch_sensor14read_touchdata17h2fc609c35ea6ae90E():
/Users/Luppy/mynewt/stm32bluepill-mynewt-sensor/rust/app/src/touch_sensor.rs:108
/// Touch data will be populated here
static mut TOUCH_DATA: TouchEventInfo = fill_zero!(TouchEventInfo);

/// Read touch controller data. This only works when the screen has been tapped and the touch controller wakes up.
/// Ported from https://github.com/lupyuen/hynitron_i2c_cst0xxse/blob/master/cst0xx_core.c#L407-L466
fn read_touchdata(data: &mut TouchEventInfo) -> MynewtResult<()> {
   0:	b580      	push	{r7, lr}
   2:	b0e6      	sub	sp, #408	; 0x198
   4:	4601      	mov	r1, r0
   6:	902e      	str	r0, [sp, #184]	; 0xb8
/Users/Luppy/mynewt/stm32bluepill-mynewt-sensor/rust/app/src/touch_sensor.rs:109
    read_register_range(           //  Read the range of I2C registers...
   8:	4668      	mov	r0, sp
   a:	223f      	movs	r2, #63	; 0x3f
   c:	6002      	str	r2, [r0, #0]
   e:	f240 0300 	movw	r3, #0
  12:	f2c0 0300 	movt	r3, #0
  16:	2015      	movs	r0, #21
  18:	f04f 0c00 	mov.w	ip, #0
  1c:	912d      	str	r1, [sp, #180]	; 0xb4
  1e:	4661      	mov	r1, ip
  20:	f7ff fffe 	bl	0 <_ZN3app12touch_sensor14read_touchdata17h2fc609c35ea6ae90E>
  24:	902c      	str	r0, [sp, #176]	; 0xb0
  26:	e7ff      	b.n	28 <_ZN3app12touch_sensor14read_touchdata17h2fc609c35ea6ae90E+0x28>
  28:	f240 0100 	movw	r1, #0
  2c:	f2c0 0100 	movt	r1, #0
  30:	2213      	movs	r2, #19
  32:	982c      	ldr	r0, [sp, #176]	; 0xb0
  34:	f7ff fffe 	bl	0 <_ZN4core6result19Result$LT$T$C$E$GT$6expect17hff06cf26ae8e8a9cE>
  38:	e7ff      	b.n	3a <_ZN3app12touch_sensor14read_touchdata17h2fc609c35ea6ae90E+0x3a>
  3a:	f50d 7089 	add.w	r0, sp, #274	; 0x112
  3e:	2152      	movs	r1, #82	; 0x52
/Users/Luppy/mynewt/stm32bluepill-mynewt-sensor/rust/app/src/touch_sensor.rs:115
        TOUCH_CONTROLLER_ADDRESS,  //  From the touch controller
        0,                         //  Starting from register 0
        POINT_READ_BUF as u8,      //  Number of registers to read
        unsafe { &mut buf }        //  Save the read data into `buf`
    ).expect("read touchdata fail");
    *data = fill_zero!(TouchEventInfo);
  40:	902b      	str	r0, [sp, #172]	; 0xac
  42:	912a      	str	r1, [sp, #168]	; 0xa8
  44:	f7ff fffe 	bl	0 <__aeabi_memclr>
  48:	a830      	add	r0, sp, #192	; 0xc0
  4a:	992b      	ldr	r1, [sp, #172]	; 0xac
  4c:	9a2a      	ldr	r2, [sp, #168]	; 0xa8
  4e:	f7ff fffe 	bl	0 <__aeabi_memcpy>
  52:	9029      	str	r0, [sp, #164]	; 0xa4
  54:	e7ff      	b.n	56 <_ZN3app12touch_sensor14read_touchdata17h2fc609c35ea6ae90E+0x56>
  56:	982e      	ldr	r0, [sp, #184]	; 0xb8
  58:	a930      	add	r1, sp, #192	; 0xc0
  5a:	2252      	movs	r2, #82	; 0x52
  5c:	f7ff fffe 	bl	0 <__aeabi_memcpy>
/Users/Luppy/mynewt/stm32bluepill-mynewt-sensor/rust/app/src/touch_sensor.rs:116
    data.point_num = unsafe { buf[FT_TOUCH_POINT_NUM] & 0x0F };
  60:	9028      	str	r0, [sp, #160]	; 0xa0
  62:	e7ff      	b.n	64 <_ZN3app12touch_sensor14read_touchdata17h2fc609c35ea6ae90E+0x64>
  64:	f240 0000 	movw	r0, #0
  68:	f2c0 0000 	movt	r0, #0
  6c:	7880      	ldrb	r0, [r0, #2]
  6e:	f000 000f 	and.w	r0, r0, #15
  72:	992e      	ldr	r1, [sp, #184]	; 0xb8
  74:	f881 0051 	strb.w	r0, [r1, #81]	; 0x51
/Users/Luppy/mynewt/stm32bluepill-mynewt-sensor/rust/app/src/touch_sensor.rs:117
    data.count     = 0;
  78:	982e      	ldr	r0, [sp, #184]	; 0xb8
  7a:	2100      	movs	r1, #0
  7c:	f880 1050 	strb.w	r1, [r0, #80]	; 0x50
/Users/Luppy/mynewt/stm32bluepill-mynewt-sensor/rust/app/src/touch_sensor.rs:120

    //  Populate the first 5 touch points
    for i in 0..CFG_MAX_TOUCH_POINTS {
  80:	9159      	str	r1, [sp, #356]	; 0x164
  82:	2005      	movs	r0, #5
  84:	905a      	str	r0, [sp, #360]	; 0x168
  86:	9859      	ldr	r0, [sp, #356]	; 0x164
  88:	995a      	ldr	r1, [sp, #360]	; 0x168
  8a:	f7ff fffe 	bl	0 <_ZN63_$LT$I$u20$as$u20$core..iter..traits..collect..IntoIterator$GT$9into_iter17h986290776580f7d8E>
  8e:	9027      	str	r0, [sp, #156]	; 0x9c
  90:	9126      	str	r1, [sp, #152]	; 0x98
  92:	e7ff      	b.n	94 <_ZN3app12touch_sensor14read_touchdata17h2fc609c35ea6ae90E+0x94>
  94:	9827      	ldr	r0, [sp, #156]	; 0x9c
  96:	905b      	str	r0, [sp, #364]	; 0x16c
  98:	9926      	ldr	r1, [sp, #152]	; 0x98
  9a:	915c      	str	r1, [sp, #368]	; 0x170
  9c:	e7ff      	b.n	9e <_ZN3app12touch_sensor14read_touchdata17h2fc609c35ea6ae90E+0x9e>
  9e:	a85b      	add	r0, sp, #364	; 0x16c
  a0:	f7ff fffe 	bl	0 <_ZN4core4iter5range101_$LT$impl$u20$core..iter..traits..iterator..Iterator$u20$for$u20$core..ops..range..Range$LT$A$GT$$GT$4next17h958b1d5f87088d8dE>
  a4:	915f      	str	r1, [sp, #380]	; 0x17c
  a6:	905e      	str	r0, [sp, #376]	; 0x178
  a8:	e7ff      	b.n	aa <_ZN3app12touch_sensor14read_touchdata17h2fc609c35ea6ae90E+0xaa>
  aa:	985e      	ldr	r0, [sp, #376]	; 0x178
  ac:	2800      	cmp	r0, #0
  ae:	9025      	str	r0, [sp, #148]	; 0x94
  b0:	d014      	beq.n	dc <_ZN3app12touch_sensor14read_touchdata17h2fc609c35ea6ae90E+0xdc>
  b2:	e7ff      	b.n	b4 <_ZN3app12touch_sensor14read_touchdata17h2fc609c35ea6ae90E+0xb4>
  b4:	9825      	ldr	r0, [sp, #148]	; 0x94
  b6:	2801      	cmp	r0, #1
  b8:	d001      	beq.n	be <_ZN3app12touch_sensor14read_touchdata17h2fc609c35ea6ae90E+0xbe>
  ba:	e7ff      	b.n	bc <_ZN3app12touch_sensor14read_touchdata17h2fc609c35ea6ae90E+0xbc>
/Users/Luppy/mynewt/stm32bluepill-mynewt-sensor/rust/app/src/touch_sensor.rs:153
            && (data.point_num == 0) {
            break;
        }
    }
    Ok(())
}
  bc:	defe      	udf	#254	; 0xfe
/Users/Luppy/mynewt/stm32bluepill-mynewt-sensor/rust/app/src/touch_sensor.rs:120
    for i in 0..CFG_MAX_TOUCH_POINTS {
  be:	985f      	ldr	r0, [sp, #380]	; 0x17c
  c0:	9060      	str	r0, [sp, #384]	; 0x180
  c2:	9860      	ldr	r0, [sp, #384]	; 0x180
  c4:	905d      	str	r0, [sp, #372]	; 0x174
  c6:	985d      	ldr	r0, [sp, #372]	; 0x174
  c8:	9061      	str	r0, [sp, #388]	; 0x184
/Users/Luppy/mynewt/stm32bluepill-mynewt-sensor/rust/app/src/touch_sensor.rs:121
        let pointid = unsafe { buf[HYN_TOUCH_ID_POS + HYN_TOUCH_STEP * i] } >> 4;
  ca:	9861      	ldr	r0, [sp, #388]	; 0x184
  cc:	2106      	movs	r1, #6
  ce:	fba1 0100 	umull	r0, r1, r1, r0
  d2:	2900      	cmp	r1, #0
  d4:	9024      	str	r0, [sp, #144]	; 0x90
  d6:	f040 81cd 	bne.w	474 <_ZN3app12touch_sensor14read_touchdata17h2fc609c35ea6ae90E+0x474>
  da:	e007      	b.n	ec <_ZN3app12touch_sensor14read_touchdata17h2fc609c35ea6ae90E+0xec>
/Users/Luppy/mynewt/stm32bluepill-mynewt-sensor/rust/app/src/touch_sensor.rs:120
    for i in 0..CFG_MAX_TOUCH_POINTS {
  dc:	e7ff      	b.n	de <_ZN3app12touch_sensor14read_touchdata17h2fc609c35ea6ae90E+0xde>
  de:	2000      	movs	r0, #0
/Users/Luppy/mynewt/stm32bluepill-mynewt-sensor/rust/app/src/touch_sensor.rs:152
    Ok(())
  e0:	902f      	str	r0, [sp, #188]	; 0xbc
  e2:	2001      	movs	r0, #1
  e4:	902f      	str	r0, [sp, #188]	; 0xbc
/Users/Luppy/mynewt/stm32bluepill-mynewt-sensor/rust/app/src/touch_sensor.rs:153
}
  e6:	982f      	ldr	r0, [sp, #188]	; 0xbc
  e8:	b066      	add	sp, #408	; 0x198
  ea:	bd80      	pop	{r7, pc}
/Users/Luppy/mynewt/stm32bluepill-mynewt-sensor/rust/app/src/touch_sensor.rs:121
        let pointid = unsafe { buf[HYN_TOUCH_ID_POS + HYN_TOUCH_STEP * i] } >> 4;
  ec:	9824      	ldr	r0, [sp, #144]	; 0x90
  ee:	1d41      	adds	r1, r0, #5
  f0:	460a      	mov	r2, r1
  f2:	4281      	cmp	r1, r0
  f4:	9223      	str	r2, [sp, #140]	; 0x8c
  f6:	f0c0 81c4 	bcc.w	482 <_ZN3app12touch_sensor14read_touchdata17h2fc609c35ea6ae90E+0x482>
  fa:	e7ff      	b.n	fc <_ZN3app12touch_sensor14read_touchdata17h2fc609c35ea6ae90E+0xfc>
  fc:	9823      	ldr	r0, [sp, #140]	; 0x8c
  fe:	283e      	cmp	r0, #62	; 0x3e
 100:	f200 81c6 	bhi.w	490 <_ZN3app12touch_sensor14read_touchdata17h2fc609c35ea6ae90E+0x490>
 104:	e7ff      	b.n	2 <_ZN3app12touch_sensor14read_touchdata17h2fc609c35ea6ae90E+0x2>
 106:	f240 0000 	movw	r0, #0
 10a:	f2c0 0000 	movt	r0, #0
 10e:	9923      	ldr	r1, [sp, #140]	; 0x8c
 110:	5c40      	ldrb	r0, [r0, r1]
 112:	0900      	lsrs	r0, r0, #4
 114:	9022      	str	r0, [sp, #136]	; 0x88
 116:	e7ff      	b.n	118 <_ZN3app12touch_sensor14read_touchdata17h2fc609c35ea6ae90E+0x118>
 118:	9822      	ldr	r0, [sp, #136]	; 0x88
 11a:	f88d 0189 	strb.w	r0, [sp, #393]	; 0x189
/Users/Luppy/mynewt/stm32bluepill-mynewt-sensor/rust/app/src/touch_sensor.rs:122
        if pointid >= HYN_MAX_ID { break; }
 11e:	f89d 1189 	ldrb.w	r1, [sp, #393]	; 0x189
 122:	290f      	cmp	r1, #15
 124:	d302      	bcc.n	12c <_ZN3app12touch_sensor14read_touchdata17h2fc609c35ea6ae90E+0x12c>
 126:	e7ff      	b.n	128 <_ZN3app12touch_sensor14read_touchdata17h2fc609c35ea6ae90E+0x128>
 128:	e7ff      	b.n	12a <_ZN3app12touch_sensor14read_touchdata17h2fc609c35ea6ae90E+0x12a>
 12a:	e7d8      	b.n	de <_ZN3app12touch_sensor14read_touchdata17h2fc609c35ea6ae90E+0xde>
/Users/Luppy/mynewt/stm32bluepill-mynewt-sensor/rust/app/src/touch_sensor.rs:125
        data.count += 1;
 12c:	982e      	ldr	r0, [sp, #184]	; 0xb8
 12e:	f890 0050 	ldrb.w	r0, [r0, #80]	; 0x50
 132:	3001      	adds	r0, #1
 134:	b2c1      	uxtb	r1, r0
 136:	4602      	mov	r2, r0
 138:	4281      	cmp	r1, r0
 13a:	9221      	str	r2, [sp, #132]	; 0x84
 13c:	f040 81b1 	bne.w	4a2 <_ZN3app12touch_sensor14read_touchdata17h2fc609c35ea6ae90E+0x4a2>
 140:	e7ff      	b.n	142 <_ZN3app12touch_sensor14read_touchdata17h2fc609c35ea6ae90E+0x142>
 142:	982e      	ldr	r0, [sp, #184]	; 0xb8
 144:	9921      	ldr	r1, [sp, #132]	; 0x84
 146:	f880 1050 	strb.w	r1, [r0, #80]	; 0x50
/Users/Luppy/mynewt/stm32bluepill-mynewt-sensor/rust/app/src/touch_sensor.rs:126
        let x_high = unsafe { buf[HYN_TOUCH_X_H_POS + HYN_TOUCH_STEP * i] & 0x0F } as u16;
 14a:	9861      	ldr	r0, [sp, #388]	; 0x184
 14c:	2206      	movs	r2, #6
 14e:	fba2 0200 	umull	r0, r2, r2, r0
 152:	2a00      	cmp	r2, #0
 154:	9020      	str	r0, [sp, #128]	; 0x80
 156:	f040 81ab 	bne.w	4b0 <_ZN3app12touch_sensor14read_touchdata17h2fc609c35ea6ae90E+0x4b0>
 15a:	e7ff      	b.n	15c <_ZN3app12touch_sensor14read_touchdata17h2fc609c35ea6ae90E+0x15c>
 15c:	9820      	ldr	r0, [sp, #128]	; 0x80
 15e:	1cc1      	adds	r1, r0, #3
 160:	460a      	mov	r2, r1
 162:	4281      	cmp	r1, r0
 164:	921f      	str	r2, [sp, #124]	; 0x7c
 166:	f0c0 81aa 	bcc.w	4be <_ZN3app12touch_sensor14read_touchdata17h2fc609c35ea6ae90E+0x4be>
 16a:	e7ff      	b.n	16c <_ZN3app12touch_sensor14read_touchdata17h2fc609c35ea6ae90E+0x16c>
 16c:	981f      	ldr	r0, [sp, #124]	; 0x7c
 16e:	283e      	cmp	r0, #62	; 0x3e
 170:	f200 81ac 	bhi.w	4cc <_ZN3app12touch_sensor14read_touchdata17h2fc609c35ea6ae90E+0x4cc>
 174:	e7ff      	b.n	2 <_ZN3app12touch_sensor14read_touchdata17h2fc609c35ea6ae90E+0x2>
 176:	f240 0000 	movw	r0, #0
 17a:	f2c0 0000 	movt	r0, #0
 17e:	991f      	ldr	r1, [sp, #124]	; 0x7c
 180:	5c40      	ldrb	r0, [r0, r1]
 182:	f000 000f 	and.w	r0, r0, #15
 186:	f8ad 018a 	strh.w	r0, [sp, #394]	; 0x18a
/Users/Luppy/mynewt/stm32bluepill-mynewt-sensor/rust/app/src/touch_sensor.rs:127
        let x_low  = unsafe { buf[HYN_TOUCH_X_L_POS + HYN_TOUCH_STEP * i] } as u16;
 18a:	9861      	ldr	r0, [sp, #388]	; 0x184
 18c:	2206      	movs	r2, #6
 18e:	fba2 0200 	umull	r0, r2, r2, r0
 192:	2a00      	cmp	r2, #0
 194:	901e      	str	r0, [sp, #120]	; 0x78
 196:	f040 81a2 	bne.w	4de <_ZN3app12touch_sensor14read_touchdata17h2fc609c35ea6ae90E+0x4de>
 19a:	e7ff      	b.n	19c <_ZN3app12touch_sensor14read_touchdata17h2fc609c35ea6ae90E+0x19c>
 19c:	981e      	ldr	r0, [sp, #120]	; 0x78
 19e:	1d01      	adds	r1, r0, #4
 1a0:	460a      	mov	r2, r1
 1a2:	4281      	cmp	r1, r0
 1a4:	921d      	str	r2, [sp, #116]	; 0x74
 1a6:	f0c0 81a1 	bcc.w	4ec <_ZN3app12touch_sensor14read_touchdata17h2fc609c35ea6ae90E+0x4ec>
 1aa:	e7ff      	b.n	1ac <_ZN3app12touch_sensor14read_touchdata17h2fc609c35ea6ae90E+0x1ac>
 1ac:	981d      	ldr	r0, [sp, #116]	; 0x74
 1ae:	283e      	cmp	r0, #62	; 0x3e
 1b0:	f200 81a3 	bhi.w	4fa <_ZN3app12touch_sensor14read_touchdata17h2fc609c35ea6ae90E+0x4fa>
 1b4:	e7ff      	b.n	2 <_ZN3app12touch_sensor14read_touchdata17h2fc609c35ea6ae90E+0x2>
 1b6:	f240 0000 	movw	r0, #0
 1ba:	f2c0 0000 	movt	r0, #0
 1be:	991d      	ldr	r1, [sp, #116]	; 0x74
 1c0:	5c40      	ldrb	r0, [r0, r1]
 1c2:	f8ad 018c 	strh.w	r0, [sp, #396]	; 0x18c
/Users/Luppy/mynewt/stm32bluepill-mynewt-sensor/rust/app/src/touch_sensor.rs:128
        data.touches[i].x  = (x_high << 8) | x_low;
 1c6:	f8bd 018a 	ldrh.w	r0, [sp, #394]	; 0x18a
 1ca:	0200      	lsls	r0, r0, #8
 1cc:	901c      	str	r0, [sp, #112]	; 0x70
 1ce:	e7ff      	b.n	1d0 <_ZN3app12touch_sensor14read_touchdata17h2fc609c35ea6ae90E+0x1d0>
 1d0:	f8bd 018c 	ldrh.w	r0, [sp, #396]	; 0x18c
 1d4:	9961      	ldr	r1, [sp, #388]	; 0x184
 1d6:	2909      	cmp	r1, #9
 1d8:	901b      	str	r0, [sp, #108]	; 0x6c
 1da:	911a      	str	r1, [sp, #104]	; 0x68
 1dc:	f200 8196 	bhi.w	50c <_ZN3app12touch_sensor14read_touchdata17h2fc609c35ea6ae90E+0x50c>
 1e0:	e7ff      	b.n	1e2 <_ZN3app12touch_sensor14read_touchdata17h2fc609c35ea6ae90E+0x1e2>
 1e2:	982e      	ldr	r0, [sp, #184]	; 0xb8
 1e4:	991c      	ldr	r1, [sp, #112]	; 0x70
 1e6:	9a1b      	ldr	r2, [sp, #108]	; 0x6c
 1e8:	ea41 0302 	orr.w	r3, r1, r2
 1ec:	f8dd c068 	ldr.w	ip, [sp, #104]	; 0x68
 1f0:	f820 303c 	strh.w	r3, [r0, ip, lsl #3]
/Users/Luppy/mynewt/stm32bluepill-mynewt-sensor/rust/app/src/touch_sensor.rs:130
        let y_high = unsafe { buf[HYN_TOUCH_Y_H_POS + HYN_TOUCH_STEP * i] & 0x0F } as u16;
 1f4:	9861      	ldr	r0, [sp, #388]	; 0x184
 1f6:	2306      	movs	r3, #6
 1f8:	fba3 0300 	umull	r0, r3, r3, r0
 1fc:	2b00      	cmp	r3, #0
 1fe:	9019      	str	r0, [sp, #100]	; 0x64
 200:	f040 818d 	bne.w	51e <_ZN3app12touch_sensor14read_touchdata17h2fc609c35ea6ae90E+0x51e>
 204:	e7ff      	b.n	206 <_ZN3app12touch_sensor14read_touchdata17h2fc609c35ea6ae90E+0x206>
 206:	9819      	ldr	r0, [sp, #100]	; 0x64
 208:	1d41      	adds	r1, r0, #5
 20a:	460a      	mov	r2, r1
 20c:	4281      	cmp	r1, r0
 20e:	9218      	str	r2, [sp, #96]	; 0x60
 210:	f0c0 818c 	bcc.w	52c <_ZN3app12touch_sensor14read_touchdata17h2fc609c35ea6ae90E+0x52c>
 214:	e7ff      	b.n	216 <_ZN3app12touch_sensor14read_touchdata17h2fc609c35ea6ae90E+0x216>
 216:	9818      	ldr	r0, [sp, #96]	; 0x60
 218:	283e      	cmp	r0, #62	; 0x3e
 21a:	f200 818e 	bhi.w	53a <_ZN3app12touch_sensor14read_touchdata17h2fc609c35ea6ae90E+0x53a>
 21e:	e7ff      	b.n	2 <_ZN3app12touch_sensor14read_touchdata17h2fc609c35ea6ae90E+0x2>
 220:	f240 0000 	movw	r0, #0
 224:	f2c0 0000 	movt	r0, #0
 228:	9918      	ldr	r1, [sp, #96]	; 0x60
 22a:	5c40      	ldrb	r0, [r0, r1]
 22c:	f000 000f 	and.w	r0, r0, #15
 230:	f8ad 018e 	strh.w	r0, [sp, #398]	; 0x18e
/Users/Luppy/mynewt/stm32bluepill-mynewt-sensor/rust/app/src/touch_sensor.rs:131
        let y_low  = unsafe { buf[HYN_TOUCH_Y_L_POS + HYN_TOUCH_STEP * i] } as u16;
 234:	9861      	ldr	r0, [sp, #388]	; 0x184
 236:	2206      	movs	r2, #6
 238:	fba2 0200 	umull	r0, r2, r2, r0
 23c:	2a00      	cmp	r2, #0
 23e:	9017      	str	r0, [sp, #92]	; 0x5c
 240:	f040 8184 	bne.w	54c <_ZN3app12touch_sensor14read_touchdata17h2fc609c35ea6ae90E+0x54c>
 244:	e7ff      	b.n	246 <_ZN3app12touch_sensor14read_touchdata17h2fc609c35ea6ae90E+0x246>
 246:	9817      	ldr	r0, [sp, #92]	; 0x5c
 248:	1d81      	adds	r1, r0, #6
 24a:	460a      	mov	r2, r1
 24c:	4281      	cmp	r1, r0
 24e:	9216      	str	r2, [sp, #88]	; 0x58
 250:	f0c0 8183 	bcc.w	55a <_ZN3app12touch_sensor14read_touchdata17h2fc609c35ea6ae90E+0x55a>
 254:	e7ff      	b.n	256 <_ZN3app12touch_sensor14read_touchdata17h2fc609c35ea6ae90E+0x256>
 256:	9816      	ldr	r0, [sp, #88]	; 0x58
 258:	283e      	cmp	r0, #62	; 0x3e
 25a:	f200 8185 	bhi.w	568 <_ZN3app12touch_sensor14read_touchdata17h2fc609c35ea6ae90E+0x568>
 25e:	e7ff      	b.n	2 <_ZN3app12touch_sensor14read_touchdata17h2fc609c35ea6ae90E+0x2>
 260:	f240 0000 	movw	r0, #0
 264:	f2c0 0000 	movt	r0, #0
 268:	9916      	ldr	r1, [sp, #88]	; 0x58
 26a:	5c40      	ldrb	r0, [r0, r1]
 26c:	f8ad 0190 	strh.w	r0, [sp, #400]	; 0x190
/Users/Luppy/mynewt/stm32bluepill-mynewt-sensor/rust/app/src/touch_sensor.rs:132
        data.touches[i].y  = (y_high << 8) | y_low;
 270:	f8bd 018e 	ldrh.w	r0, [sp, #398]	; 0x18e
 274:	0200      	lsls	r0, r0, #8
 276:	9015      	str	r0, [sp, #84]	; 0x54
 278:	e7ff      	b.n	27a <_ZN3app12touch_sensor14read_touchdata17h2fc609c35ea6ae90E+0x27a>
 27a:	f8bd 0190 	ldrh.w	r0, [sp, #400]	; 0x190
 27e:	9961      	ldr	r1, [sp, #388]	; 0x184
 280:	2909      	cmp	r1, #9
 282:	9014      	str	r0, [sp, #80]	; 0x50
 284:	9113      	str	r1, [sp, #76]	; 0x4c
 286:	f200 8178 	bhi.w	57a <_ZN3app12touch_sensor14read_touchdata17h2fc609c35ea6ae90E+0x57a>
 28a:	e7ff      	b.n	28c <_ZN3app12touch_sensor14read_touchdata17h2fc609c35ea6ae90E+0x28c>
 28c:	982e      	ldr	r0, [sp, #184]	; 0xb8
 28e:	9913      	ldr	r1, [sp, #76]	; 0x4c
 290:	eb00 00c1 	add.w	r0, r0, r1, lsl #3
 294:	9a15      	ldr	r2, [sp, #84]	; 0x54
 296:	9b14      	ldr	r3, [sp, #80]	; 0x50
 298:	ea42 0c03 	orr.w	ip, r2, r3
 29c:	f8a0 c002 	strh.w	ip, [r0, #2]
/Users/Luppy/mynewt/stm32bluepill-mynewt-sensor/rust/app/src/touch_sensor.rs:136
            unsafe { buf[HYN_TOUCH_EVENT_POS + HYN_TOUCH_STEP * i] } >> 6;
 2a0:	9861      	ldr	r0, [sp, #388]	; 0x184
 2a2:	f04f 0c06 	mov.w	ip, #6
 2a6:	fbac 0c00 	umull	r0, ip, ip, r0
 2aa:	f1bc 0f00 	cmp.w	ip, #0
 2ae:	9012      	str	r0, [sp, #72]	; 0x48
 2b0:	f040 816c 	bne.w	58c <_ZN3app12touch_sensor14read_touchdata17h2fc609c35ea6ae90E+0x58c>
 2b4:	e7ff      	b.n	2b6 <_ZN3app12touch_sensor14read_touchdata17h2fc609c35ea6ae90E+0x2b6>
 2b6:	9812      	ldr	r0, [sp, #72]	; 0x48
 2b8:	1cc1      	adds	r1, r0, #3
 2ba:	460a      	mov	r2, r1
 2bc:	4281      	cmp	r1, r0
 2be:	9211      	str	r2, [sp, #68]	; 0x44
 2c0:	f0c0 816b 	bcc.w	59a <_ZN3app12touch_sensor14read_touchdata17h2fc609c35ea6ae90E+0x59a>
 2c4:	e7ff      	b.n	2c6 <_ZN3app12touch_sensor14read_touchdata17h2fc609c35ea6ae90E+0x2c6>
 2c6:	9811      	ldr	r0, [sp, #68]	; 0x44
 2c8:	283e      	cmp	r0, #62	; 0x3e
 2ca:	f200 816d 	bhi.w	5a8 <_ZN3app12touch_sensor14read_touchdata17h2fc609c35ea6ae90E+0x5a8>
 2ce:	e7ff      	b.n	2 <_ZN3app12touch_sensor14read_touchdata17h2fc609c35ea6ae90E+0x2>
 2d0:	f240 0000 	movw	r0, #0
 2d4:	f2c0 0000 	movt	r0, #0
 2d8:	9911      	ldr	r1, [sp, #68]	; 0x44
 2da:	5c40      	ldrb	r0, [r0, r1]
 2dc:	0980      	lsrs	r0, r0, #6
 2de:	9010      	str	r0, [sp, #64]	; 0x40
 2e0:	e7ff      	b.n	2e2 <_ZN3app12touch_sensor14read_touchdata17h2fc609c35ea6ae90E+0x2e2>
/Users/Luppy/mynewt/stm32bluepill-mynewt-sensor/rust/app/src/touch_sensor.rs:135
        data.touches[i].action =
 2e2:	9861      	ldr	r0, [sp, #388]	; 0x184
 2e4:	2809      	cmp	r0, #9
 2e6:	900f      	str	r0, [sp, #60]	; 0x3c
 2e8:	f200 8167 	bhi.w	5ba <_ZN3app12touch_sensor14read_touchdata17h2fc609c35ea6ae90E+0x5ba>
 2ec:	e7ff      	b.n	2ee <_ZN3app12touch_sensor14read_touchdata17h2fc609c35ea6ae90E+0x2ee>
 2ee:	982e      	ldr	r0, [sp, #184]	; 0xb8
 2f0:	990f      	ldr	r1, [sp, #60]	; 0x3c
 2f2:	eb00 00c1 	add.w	r0, r0, r1, lsl #3
 2f6:	9a10      	ldr	r2, [sp, #64]	; 0x40
 2f8:	7102      	strb	r2, [r0, #4]
/Users/Luppy/mynewt/stm32bluepill-mynewt-sensor/rust/app/src/touch_sensor.rs:138
            unsafe { buf[HYN_TOUCH_ID_POS    + HYN_TOUCH_STEP * i] } >> 4;
 2fa:	9861      	ldr	r0, [sp, #388]	; 0x184
 2fc:	2306      	movs	r3, #6
 2fe:	fba3 0300 	umull	r0, r3, r3, r0
 302:	2b00      	cmp	r3, #0
 304:	900e      	str	r0, [sp, #56]	; 0x38
 306:	f040 8161 	bne.w	5cc <_ZN3app12touch_sensor14read_touchdata17h2fc609c35ea6ae90E+0x5cc>
 30a:	e7ff      	b.n	30c <_ZN3app12touch_sensor14read_touchdata17h2fc609c35ea6ae90E+0x30c>
 30c:	980e      	ldr	r0, [sp, #56]	; 0x38
 30e:	1d41      	adds	r1, r0, #5
 310:	460a      	mov	r2, r1
 312:	4281      	cmp	r1, r0
 314:	920d      	str	r2, [sp, #52]	; 0x34
 316:	f0c0 8160 	bcc.w	5da <_ZN3app12touch_sensor14read_touchdata17h2fc609c35ea6ae90E+0x5da>
 31a:	e7ff      	b.n	31c <_ZN3app12touch_sensor14read_touchdata17h2fc609c35ea6ae90E+0x31c>
 31c:	980d      	ldr	r0, [sp, #52]	; 0x34
 31e:	283e      	cmp	r0, #62	; 0x3e
 320:	f200 8162 	bhi.w	5e8 <_ZN3app12touch_sensor14read_touchdata17h2fc609c35ea6ae90E+0x5e8>
 324:	e7ff      	b.n	2 <_ZN3app12touch_sensor14read_touchdata17h2fc609c35ea6ae90E+0x2>
 326:	f240 0000 	movw	r0, #0
 32a:	f2c0 0000 	movt	r0, #0
 32e:	990d      	ldr	r1, [sp, #52]	; 0x34
 330:	5c40      	ldrb	r0, [r0, r1]
 332:	0900      	lsrs	r0, r0, #4
 334:	900c      	str	r0, [sp, #48]	; 0x30
 336:	e7ff      	b.n	338 <_ZN3app12touch_sensor14read_touchdata17h2fc609c35ea6ae90E+0x338>
/Users/Luppy/mynewt/stm32bluepill-mynewt-sensor/rust/app/src/touch_sensor.rs:137
        data.touches[i].finger =
 338:	9861      	ldr	r0, [sp, #388]	; 0x184
 33a:	2809      	cmp	r0, #9
 33c:	900b      	str	r0, [sp, #44]	; 0x2c
 33e:	f200 815c 	bhi.w	5fa <_ZN3app12touch_sensor14read_touchdata17h2fc609c35ea6ae90E+0x5fa>
 342:	e7ff      	b.n	344 <_ZN3app12touch_sensor14read_touchdata17h2fc609c35ea6ae90E+0x344>
 344:	982e      	ldr	r0, [sp, #184]	; 0xb8
 346:	990b      	ldr	r1, [sp, #44]	; 0x2c
 348:	eb00 00c1 	add.w	r0, r0, r1, lsl #3
 34c:	9a0c      	ldr	r2, [sp, #48]	; 0x30
 34e:	7142      	strb	r2, [r0, #5]
/Users/Luppy/mynewt/stm32bluepill-mynewt-sensor/rust/app/src/touch_sensor.rs:142
            unsafe { buf[HYN_TOUCH_XY_POS + HYN_TOUCH_STEP * i] };  //  Can't be constant value
 350:	9861      	ldr	r0, [sp, #388]	; 0x184
 352:	2306      	movs	r3, #6
 354:	fba3 0300 	umull	r0, r3, r3, r0
 358:	2b00      	cmp	r3, #0
 35a:	900a      	str	r0, [sp, #40]	; 0x28
 35c:	f040 8156 	bne.w	60c <_ZN3app12touch_sensor14read_touchdata17h2fc609c35ea6ae90E+0x60c>
 360:	e7ff      	b.n	362 <_ZN3app12touch_sensor14read_touchdata17h2fc609c35ea6ae90E+0x362>
 362:	980a      	ldr	r0, [sp, #40]	; 0x28
 364:	1dc1      	adds	r1, r0, #7
 366:	460a      	mov	r2, r1
 368:	4281      	cmp	r1, r0
 36a:	9209      	str	r2, [sp, #36]	; 0x24
 36c:	f0c0 8155 	bcc.w	61a <_ZN3app12touch_sensor14read_touchdata17h2fc609c35ea6ae90E+0x61a>
 370:	e7ff      	b.n	372 <_ZN3app12touch_sensor14read_touchdata17h2fc609c35ea6ae90E+0x372>
 372:	9809      	ldr	r0, [sp, #36]	; 0x24
 374:	283e      	cmp	r0, #62	; 0x3e
 376:	f200 8157 	bhi.w	628 <_ZN3app12touch_sensor14read_touchdata17h2fc609c35ea6ae90E+0x628>
 37a:	e7ff      	b.n	2 <_ZN3app12touch_sensor14read_touchdata17h2fc609c35ea6ae90E+0x2>
 37c:	f240 0000 	movw	r0, #0
 380:	f2c0 0000 	movt	r0, #0
 384:	9909      	ldr	r1, [sp, #36]	; 0x24
 386:	5c40      	ldrb	r0, [r0, r1]
/Users/Luppy/mynewt/stm32bluepill-mynewt-sensor/rust/app/src/touch_sensor.rs:141
        data.touches[i].pressure =
 388:	9a61      	ldr	r2, [sp, #388]	; 0x184
 38a:	2a09      	cmp	r2, #9
 38c:	9008      	str	r0, [sp, #32]
 38e:	9207      	str	r2, [sp, #28]
 390:	f200 8153 	bhi.w	63a <_ZN3app12touch_sensor14read_touchdata17h2fc609c35ea6ae90E+0x63a>
 394:	e7ff      	b.n	396 <_ZN3app12touch_sensor14read_touchdata17h2fc609c35ea6ae90E+0x396>
 396:	982e      	ldr	r0, [sp, #184]	; 0xb8
 398:	9907      	ldr	r1, [sp, #28]
 39a:	eb00 00c1 	add.w	r0, r0, r1, lsl #3
 39e:	9a08      	ldr	r2, [sp, #32]
 3a0:	7182      	strb	r2, [r0, #6]
/Users/Luppy/mynewt/stm32bluepill-mynewt-sensor/rust/app/src/touch_sensor.rs:144
            unsafe { buf[HYN_TOUCH_MISC   + HYN_TOUCH_STEP * i] } >> 4;
 3a2:	9861      	ldr	r0, [sp, #388]	; 0x184
 3a4:	2306      	movs	r3, #6
 3a6:	fba3 0300 	umull	r0, r3, r3, r0
 3aa:	2b00      	cmp	r3, #0
 3ac:	9006      	str	r0, [sp, #24]
 3ae:	f040 814d 	bne.w	64c <_ZN3app12touch_sensor14read_touchdata17h2fc609c35ea6ae90E+0x64c>
 3b2:	e7ff      	b.n	3b4 <_ZN3app12touch_sensor14read_touchdata17h2fc609c35ea6ae90E+0x3b4>
 3b4:	9806      	ldr	r0, [sp, #24]
 3b6:	f100 0108 	add.w	r1, r0, #8
 3ba:	460a      	mov	r2, r1
 3bc:	4281      	cmp	r1, r0
 3be:	9205      	str	r2, [sp, #20]
 3c0:	f0c0 814b 	bcc.w	65a <_ZN3app12touch_sensor14read_touchdata17h2fc609c35ea6ae90E+0x65a>
 3c4:	e7ff      	b.n	3c6 <_ZN3app12touch_sensor14read_touchdata17h2fc609c35ea6ae90E+0x3c6>
 3c6:	9805      	ldr	r0, [sp, #20]
 3c8:	283e      	cmp	r0, #62	; 0x3e
 3ca:	f200 814d 	bhi.w	668 <_ZN3app12touch_sensor14read_touchdata17h2fc609c35ea6ae90E+0x668>
 3ce:	e7ff      	b.n	2 <_ZN3app12touch_sensor14read_touchdata17h2fc609c35ea6ae90E+0x2>
 3d0:	f240 0000 	movw	r0, #0
 3d4:	f2c0 0000 	movt	r0, #0
 3d8:	9905      	ldr	r1, [sp, #20]
 3da:	5c40      	ldrb	r0, [r0, r1]
 3dc:	0900      	lsrs	r0, r0, #4
 3de:	9004      	str	r0, [sp, #16]
 3e0:	e7ff      	b.n	3e2 <_ZN3app12touch_sensor14read_touchdata17h2fc609c35ea6ae90E+0x3e2>
/Users/Luppy/mynewt/stm32bluepill-mynewt-sensor/rust/app/src/touch_sensor.rs:143
        data.touches[i].area =
 3e2:	9861      	ldr	r0, [sp, #388]	; 0x184
 3e4:	2809      	cmp	r0, #9
 3e6:	9003      	str	r0, [sp, #12]
 3e8:	f200 8147 	bhi.w	67a <_ZN3app12touch_sensor14read_touchdata17h2fc609c35ea6ae90E+0x67a>
 3ec:	e7ff      	b.n	3ee <_ZN3app12touch_sensor14read_touchdata17h2fc609c35ea6ae90E+0x3ee>
 3ee:	982e      	ldr	r0, [sp, #184]	; 0xb8
 3f0:	9903      	ldr	r1, [sp, #12]
 3f2:	eb00 00c1 	add.w	r0, r0, r1, lsl #3
 3f6:	9a04      	ldr	r2, [sp, #16]
 3f8:	71c2      	strb	r2, [r0, #7]
/Users/Luppy/mynewt/stm32bluepill-mynewt-sensor/rust/app/src/touch_sensor.rs:147
        if (data.touches[i].action == 0 || data.touches[i].action == 2)  //  If touch is down or contact
 3fa:	9861      	ldr	r0, [sp, #388]	; 0x184
 3fc:	280a      	cmp	r0, #10
 3fe:	9002      	str	r0, [sp, #8]
 400:	d322      	bcc.n	448 <_ZN3app12touch_sensor14read_touchdata17h2fc609c35ea6ae90E+0x448>
 402:	e143      	b.n	68c <_ZN3app12touch_sensor14read_touchdata17h2fc609c35ea6ae90E+0x68c>
 404:	2000      	movs	r0, #0
 406:	f88d 0192 	strb.w	r0, [sp, #402]	; 0x192
 40a:	e008      	b.n	41e <_ZN3app12touch_sensor14read_touchdata17h2fc609c35ea6ae90E+0x41e>
/Users/Luppy/mynewt/stm32bluepill-mynewt-sensor/rust/app/src/touch_sensor.rs:148
            && (data.point_num == 0) {
 40c:	982e      	ldr	r0, [sp, #184]	; 0xb8
 40e:	f890 0051 	ldrb.w	r0, [r0, #81]	; 0x51
 412:	fab0 f080 	clz	r0, r0
 416:	0940      	lsrs	r0, r0, #5
/Users/Luppy/mynewt/stm32bluepill-mynewt-sensor/rust/app/src/touch_sensor.rs:147
        if (data.touches[i].action == 0 || data.touches[i].action == 2)  //  If touch is down or contact
 418:	f88d 0192 	strb.w	r0, [sp, #402]	; 0x192
 41c:	e7ff      	b.n	41e <_ZN3app12touch_sensor14read_touchdata17h2fc609c35ea6ae90E+0x41e>
 41e:	f89d 0192 	ldrb.w	r0, [sp, #402]	; 0x192
 422:	07c0      	lsls	r0, r0, #31
 424:	2800      	cmp	r0, #0
 426:	d123      	bne.n	470 <_ZN3app12touch_sensor14read_touchdata17h2fc609c35ea6ae90E+0x470>
 428:	e023      	b.n	472 <_ZN3app12touch_sensor14read_touchdata17h2fc609c35ea6ae90E+0x472>
 42a:	2001      	movs	r0, #1
 42c:	f88d 0193 	strb.w	r0, [sp, #403]	; 0x193
 430:	e004      	b.n	43c <_ZN3app12touch_sensor14read_touchdata17h2fc609c35ea6ae90E+0x43c>
 432:	9861      	ldr	r0, [sp, #388]	; 0x184
 434:	280a      	cmp	r0, #10
 436:	9001      	str	r0, [sp, #4]
 438:	d30e      	bcc.n	458 <_ZN3app12touch_sensor14read_touchdata17h2fc609c35ea6ae90E+0x458>
 43a:	e130      	b.n	69e <_ZN3app12touch_sensor14read_touchdata17h2fc609c35ea6ae90E+0x69e>
 43c:	f89d 0193 	ldrb.w	r0, [sp, #403]	; 0x193
 440:	07c0      	lsls	r0, r0, #31
 442:	2800      	cmp	r0, #0
 444:	d1e2      	bne.n	40c <_ZN3app12touch_sensor14read_touchdata17h2fc609c35ea6ae90E+0x40c>
 446:	e7dd      	b.n	404 <_ZN3app12touch_sensor14read_touchdata17h2fc609c35ea6ae90E+0x404>
 448:	982e      	ldr	r0, [sp, #184]	; 0xb8
 44a:	9902      	ldr	r1, [sp, #8]
 44c:	eb00 00c1 	add.w	r0, r0, r1, lsl #3
 450:	7900      	ldrb	r0, [r0, #4]
 452:	2800      	cmp	r0, #0
 454:	d0e9      	beq.n	42a <_ZN3app12touch_sensor14read_touchdata17h2fc609c35ea6ae90E+0x42a>
 456:	e7ec      	b.n	432 <_ZN3app12touch_sensor14read_touchdata17h2fc609c35ea6ae90E+0x432>
 458:	982e      	ldr	r0, [sp, #184]	; 0xb8
 45a:	9901      	ldr	r1, [sp, #4]
 45c:	eb00 00c1 	add.w	r0, r0, r1, lsl #3
 460:	7900      	ldrb	r0, [r0, #4]
 462:	3802      	subs	r0, #2
 464:	fab0 f080 	clz	r0, r0
 468:	0940      	lsrs	r0, r0, #5
 46a:	f88d 0193 	strb.w	r0, [sp, #403]	; 0x193
 46e:	e7e5      	b.n	43c <_ZN3app12touch_sensor14read_touchdata17h2fc609c35ea6ae90E+0x43c>
/Users/Luppy/mynewt/stm32bluepill-mynewt-sensor/rust/app/src/touch_sensor.rs:149
            break;
 470:	e65b      	b.n	12a <_ZN3app12touch_sensor14read_touchdata17h2fc609c35ea6ae90E+0x12a>
/Users/Luppy/mynewt/stm32bluepill-mynewt-sensor/rust/app/src/touch_sensor.rs:120
    for i in 0..CFG_MAX_TOUCH_POINTS {
 472:	e614      	b.n	9e <_ZN3app12touch_sensor14read_touchdata17h2fc609c35ea6ae90E+0x9e>
/Users/Luppy/mynewt/stm32bluepill-mynewt-sensor/rust/app/src/touch_sensor.rs:121
        let pointid = unsafe { buf[HYN_TOUCH_ID_POS + HYN_TOUCH_STEP * i] } >> 4;
 474:	f240 0000 	movw	r0, #0
 478:	f2c0 0000 	movt	r0, #0
 47c:	f7ff fffe 	bl	0 <_ZN4core9panicking5panic17h53ca63c6ac6312f8E>
 480:	defe      	udf	#254	; 0xfe
 482:	f240 0000 	movw	r0, #0
 486:	f2c0 0000 	movt	r0, #0
 48a:	f7ff fffe 	bl	0 <_ZN4core9panicking5panic17h53ca63c6ac6312f8E>
 48e:	defe      	udf	#254	; 0xfe
 490:	f240 0000 	movw	r0, #0
 494:	f2c0 0000 	movt	r0, #0
 498:	223f      	movs	r2, #63	; 0x3f
 49a:	9923      	ldr	r1, [sp, #140]	; 0x8c
 49c:	f7ff fffe 	bl	0 <_ZN4core9panicking18panic_bounds_check17h946762cd0671aec9E>
 4a0:	defe      	udf	#254	; 0xfe
/Users/Luppy/mynewt/stm32bluepill-mynewt-sensor/rust/app/src/touch_sensor.rs:125
        data.count += 1;
 4a2:	f240 0000 	movw	r0, #0
 4a6:	f2c0 0000 	movt	r0, #0
 4aa:	f7ff fffe 	bl	0 <_ZN4core9panicking5panic17h53ca63c6ac6312f8E>
 4ae:	defe      	udf	#254	; 0xfe
/Users/Luppy/mynewt/stm32bluepill-mynewt-sensor/rust/app/src/touch_sensor.rs:126
        let x_high = unsafe { buf[HYN_TOUCH_X_H_POS + HYN_TOUCH_STEP * i] & 0x0F } as u16;
 4b0:	f240 0000 	movw	r0, #0
 4b4:	f2c0 0000 	movt	r0, #0
 4b8:	f7ff fffe 	bl	0 <_ZN4core9panicking5panic17h53ca63c6ac6312f8E>
 4bc:	defe      	udf	#254	; 0xfe
 4be:	f240 0000 	movw	r0, #0
 4c2:	f2c0 0000 	movt	r0, #0
 4c6:	f7ff fffe 	bl	0 <_ZN4core9panicking5panic17h53ca63c6ac6312f8E>
 4ca:	defe      	udf	#254	; 0xfe
 4cc:	f240 0000 	movw	r0, #0
 4d0:	f2c0 0000 	movt	r0, #0
 4d4:	223f      	movs	r2, #63	; 0x3f
 4d6:	991f      	ldr	r1, [sp, #124]	; 0x7c
 4d8:	f7ff fffe 	bl	0 <_ZN4core9panicking18panic_bounds_check17h946762cd0671aec9E>
 4dc:	defe      	udf	#254	; 0xfe
/Users/Luppy/mynewt/stm32bluepill-mynewt-sensor/rust/app/src/touch_sensor.rs:127
        let x_low  = unsafe { buf[HYN_TOUCH_X_L_POS + HYN_TOUCH_STEP * i] } as u16;
 4de:	f240 0000 	movw	r0, #0
 4e2:	f2c0 0000 	movt	r0, #0
 4e6:	f7ff fffe 	bl	0 <_ZN4core9panicking5panic17h53ca63c6ac6312f8E>
 4ea:	defe      	udf	#254	; 0xfe
 4ec:	f240 0000 	movw	r0, #0
 4f0:	f2c0 0000 	movt	r0, #0
 4f4:	f7ff fffe 	bl	0 <_ZN4core9panicking5panic17h53ca63c6ac6312f8E>
 4f8:	defe      	udf	#254	; 0xfe
 4fa:	f240 0000 	movw	r0, #0
 4fe:	f2c0 0000 	movt	r0, #0
 502:	223f      	movs	r2, #63	; 0x3f
 504:	991d      	ldr	r1, [sp, #116]	; 0x74
 506:	f7ff fffe 	bl	0 <_ZN4core9panicking18panic_bounds_check17h946762cd0671aec9E>
 50a:	defe      	udf	#254	; 0xfe
/Users/Luppy/mynewt/stm32bluepill-mynewt-sensor/rust/app/src/touch_sensor.rs:128
        data.touches[i].x  = (x_high << 8) | x_low;
 50c:	f240 0000 	movw	r0, #0
 510:	f2c0 0000 	movt	r0, #0
 514:	220a      	movs	r2, #10
 516:	991a      	ldr	r1, [sp, #104]	; 0x68
 518:	f7ff fffe 	bl	0 <_ZN4core9panicking18panic_bounds_check17h946762cd0671aec9E>
 51c:	defe      	udf	#254	; 0xfe
/Users/Luppy/mynewt/stm32bluepill-mynewt-sensor/rust/app/src/touch_sensor.rs:130
        let y_high = unsafe { buf[HYN_TOUCH_Y_H_POS + HYN_TOUCH_STEP * i] & 0x0F } as u16;
 51e:	f240 0000 	movw	r0, #0
 522:	f2c0 0000 	movt	r0, #0
 526:	f7ff fffe 	bl	0 <_ZN4core9panicking5panic17h53ca63c6ac6312f8E>
 52a:	defe      	udf	#254	; 0xfe
 52c:	f240 0000 	movw	r0, #0
 530:	f2c0 0000 	movt	r0, #0
 534:	f7ff fffe 	bl	0 <_ZN4core9panicking5panic17h53ca63c6ac6312f8E>
 538:	defe      	udf	#254	; 0xfe
 53a:	f240 0000 	movw	r0, #0
 53e:	f2c0 0000 	movt	r0, #0
 542:	223f      	movs	r2, #63	; 0x3f
 544:	9918      	ldr	r1, [sp, #96]	; 0x60
 546:	f7ff fffe 	bl	0 <_ZN4core9panicking18panic_bounds_check17h946762cd0671aec9E>
 54a:	defe      	udf	#254	; 0xfe
/Users/Luppy/mynewt/stm32bluepill-mynewt-sensor/rust/app/src/touch_sensor.rs:131
        let y_low  = unsafe { buf[HYN_TOUCH_Y_L_POS + HYN_TOUCH_STEP * i] } as u16;
 54c:	f240 0000 	movw	r0, #0
 550:	f2c0 0000 	movt	r0, #0
 554:	f7ff fffe 	bl	0 <_ZN4core9panicking5panic17h53ca63c6ac6312f8E>
 558:	defe      	udf	#254	; 0xfe
 55a:	f240 0000 	movw	r0, #0
 55e:	f2c0 0000 	movt	r0, #0
 562:	f7ff fffe 	bl	0 <_ZN4core9panicking5panic17h53ca63c6ac6312f8E>
 566:	defe      	udf	#254	; 0xfe
 568:	f240 0000 	movw	r0, #0
 56c:	f2c0 0000 	movt	r0, #0
 570:	223f      	movs	r2, #63	; 0x3f
 572:	9916      	ldr	r1, [sp, #88]	; 0x58
 574:	f7ff fffe 	bl	0 <_ZN4core9panicking18panic_bounds_check17h946762cd0671aec9E>
 578:	defe      	udf	#254	; 0xfe
/Users/Luppy/mynewt/stm32bluepill-mynewt-sensor/rust/app/src/touch_sensor.rs:132
        data.touches[i].y  = (y_high << 8) | y_low;
 57a:	f240 0000 	movw	r0, #0
 57e:	f2c0 0000 	movt	r0, #0
 582:	220a      	movs	r2, #10
 584:	9913      	ldr	r1, [sp, #76]	; 0x4c
 586:	f7ff fffe 	bl	0 <_ZN4core9panicking18panic_bounds_check17h946762cd0671aec9E>
 58a:	defe      	udf	#254	; 0xfe
/Users/Luppy/mynewt/stm32bluepill-mynewt-sensor/rust/app/src/touch_sensor.rs:136
            unsafe { buf[HYN_TOUCH_EVENT_POS + HYN_TOUCH_STEP * i] } >> 6;
 58c:	f240 0000 	movw	r0, #0
 590:	f2c0 0000 	movt	r0, #0
 594:	f7ff fffe 	bl	0 <_ZN4core9panicking5panic17h53ca63c6ac6312f8E>
 598:	defe      	udf	#254	; 0xfe
 59a:	f240 0000 	movw	r0, #0
 59e:	f2c0 0000 	movt	r0, #0
 5a2:	f7ff fffe 	bl	0 <_ZN4core9panicking5panic17h53ca63c6ac6312f8E>
 5a6:	defe      	udf	#254	; 0xfe
 5a8:	f240 0000 	movw	r0, #0
 5ac:	f2c0 0000 	movt	r0, #0
 5b0:	223f      	movs	r2, #63	; 0x3f
 5b2:	9911      	ldr	r1, [sp, #68]	; 0x44
 5b4:	f7ff fffe 	bl	0 <_ZN4core9panicking18panic_bounds_check17h946762cd0671aec9E>
 5b8:	defe      	udf	#254	; 0xfe
/Users/Luppy/mynewt/stm32bluepill-mynewt-sensor/rust/app/src/touch_sensor.rs:135
        data.touches[i].action =
 5ba:	f240 0000 	movw	r0, #0
 5be:	f2c0 0000 	movt	r0, #0
 5c2:	220a      	movs	r2, #10
 5c4:	990f      	ldr	r1, [sp, #60]	; 0x3c
 5c6:	f7ff fffe 	bl	0 <_ZN4core9panicking18panic_bounds_check17h946762cd0671aec9E>
 5ca:	defe      	udf	#254	; 0xfe
/Users/Luppy/mynewt/stm32bluepill-mynewt-sensor/rust/app/src/touch_sensor.rs:138
            unsafe { buf[HYN_TOUCH_ID_POS    + HYN_TOUCH_STEP * i] } >> 4;
 5cc:	f240 0000 	movw	r0, #0
 5d0:	f2c0 0000 	movt	r0, #0
 5d4:	f7ff fffe 	bl	0 <_ZN4core9panicking5panic17h53ca63c6ac6312f8E>
 5d8:	defe      	udf	#254	; 0xfe
 5da:	f240 0000 	movw	r0, #0
 5de:	f2c0 0000 	movt	r0, #0
 5e2:	f7ff fffe 	bl	0 <_ZN4core9panicking5panic17h53ca63c6ac6312f8E>
 5e6:	defe      	udf	#254	; 0xfe
 5e8:	f240 0000 	movw	r0, #0
 5ec:	f2c0 0000 	movt	r0, #0
 5f0:	223f      	movs	r2, #63	; 0x3f
 5f2:	990d      	ldr	r1, [sp, #52]	; 0x34
 5f4:	f7ff fffe 	bl	0 <_ZN4core9panicking18panic_bounds_check17h946762cd0671aec9E>
 5f8:	defe      	udf	#254	; 0xfe
/Users/Luppy/mynewt/stm32bluepill-mynewt-sensor/rust/app/src/touch_sensor.rs:137
        data.touches[i].finger =
 5fa:	f240 0000 	movw	r0, #0
 5fe:	f2c0 0000 	movt	r0, #0
 602:	220a      	movs	r2, #10
 604:	990b      	ldr	r1, [sp, #44]	; 0x2c
 606:	f7ff fffe 	bl	0 <_ZN4core9panicking18panic_bounds_check17h946762cd0671aec9E>
 60a:	defe      	udf	#254	; 0xfe
/Users/Luppy/mynewt/stm32bluepill-mynewt-sensor/rust/app/src/touch_sensor.rs:142
            unsafe { buf[HYN_TOUCH_XY_POS + HYN_TOUCH_STEP * i] };  //  Can't be constant value
 60c:	f240 0000 	movw	r0, #0
 610:	f2c0 0000 	movt	r0, #0
 614:	f7ff fffe 	bl	0 <_ZN4core9panicking5panic17h53ca63c6ac6312f8E>
 618:	defe      	udf	#254	; 0xfe
 61a:	f240 0000 	movw	r0, #0
 61e:	f2c0 0000 	movt	r0, #0
 622:	f7ff fffe 	bl	0 <_ZN4core9panicking5panic17h53ca63c6ac6312f8E>
 626:	defe      	udf	#254	; 0xfe
 628:	f240 0000 	movw	r0, #0
 62c:	f2c0 0000 	movt	r0, #0
 630:	223f      	movs	r2, #63	; 0x3f
 632:	9909      	ldr	r1, [sp, #36]	; 0x24
 634:	f7ff fffe 	bl	0 <_ZN4core9panicking18panic_bounds_check17h946762cd0671aec9E>
 638:	defe      	udf	#254	; 0xfe
/Users/Luppy/mynewt/stm32bluepill-mynewt-sensor/rust/app/src/touch_sensor.rs:141
        data.touches[i].pressure =
 63a:	f240 0000 	movw	r0, #0
 63e:	f2c0 0000 	movt	r0, #0
 642:	220a      	movs	r2, #10
 644:	9907      	ldr	r1, [sp, #28]
 646:	f7ff fffe 	bl	0 <_ZN4core9panicking18panic_bounds_check17h946762cd0671aec9E>
 64a:	defe      	udf	#254	; 0xfe
/Users/Luppy/mynewt/stm32bluepill-mynewt-sensor/rust/app/src/touch_sensor.rs:144
            unsafe { buf[HYN_TOUCH_MISC   + HYN_TOUCH_STEP * i] } >> 4;
 64c:	f240 0000 	movw	r0, #0
 650:	f2c0 0000 	movt	r0, #0
 654:	f7ff fffe 	bl	0 <_ZN4core9panicking5panic17h53ca63c6ac6312f8E>
 658:	defe      	udf	#254	; 0xfe
 65a:	f240 0000 	movw	r0, #0
 65e:	f2c0 0000 	movt	r0, #0
 662:	f7ff fffe 	bl	0 <_ZN4core9panicking5panic17h53ca63c6ac6312f8E>
 666:	defe      	udf	#254	; 0xfe
 668:	f240 0000 	movw	r0, #0
 66c:	f2c0 0000 	movt	r0, #0
 670:	223f      	movs	r2, #63	; 0x3f
 672:	9905      	ldr	r1, [sp, #20]
 674:	f7ff fffe 	bl	0 <_ZN4core9panicking18panic_bounds_check17h946762cd0671aec9E>
 678:	defe      	udf	#254	; 0xfe
/Users/Luppy/mynewt/stm32bluepill-mynewt-sensor/rust/app/src/touch_sensor.rs:143
        data.touches[i].area =
 67a:	f240 0000 	movw	r0, #0
 67e:	f2c0 0000 	movt	r0, #0
 682:	220a      	movs	r2, #10
 684:	9903      	ldr	r1, [sp, #12]
 686:	f7ff fffe 	bl	0 <_ZN4core9panicking18panic_bounds_check17h946762cd0671aec9E>
 68a:	defe      	udf	#254	; 0xfe
/Users/Luppy/mynewt/stm32bluepill-mynewt-sensor/rust/app/src/touch_sensor.rs:147
        if (data.touches[i].action == 0 || data.touches[i].action == 2)  //  If touch is down or contact
 68c:	f240 0000 	movw	r0, #0
 690:	f2c0 0000 	movt	r0, #0
 694:	220a      	movs	r2, #10
 696:	9902      	ldr	r1, [sp, #8]
 698:	f7ff fffe 	bl	0 <_ZN4core9panicking18panic_bounds_check17h946762cd0671aec9E>
 69c:	defe      	udf	#254	; 0xfe
 69e:	f240 0000 	movw	r0, #0
 6a2:	f2c0 0000 	movt	r0, #0
 6a6:	220a      	movs	r2, #10
 6a8:	9901      	ldr	r1, [sp, #4]
 6aa:	f7ff fffe 	bl	0 <_ZN4core9panicking18panic_bounds_check17h946762cd0671aec9E>
 6ae:	defe      	udf	#254	; 0xfe

Disassembly of section .text._ZN3app12touch_sensor19read_register_range17haa9595e4b793f17fE:

00000000 <_ZN3app12touch_sensor19read_register_range17haa9595e4b793f17fE>:
_ZN3app12touch_sensor19read_register_range17haa9595e4b793f17fE():
/Users/Luppy/mynewt/stm32bluepill-mynewt-sensor/rust/app/src/touch_sensor.rs:212

/// Event that will be forwarded to the Event Queue when a touch interrupt is triggered
static mut TOUCH_EVENT: os_event = fill_zero!(os_event);  //  Init all fields to 0 or NULL

/// Read a range of I2C registers from the I2C address `addr` (7-bit address), starting at `start_register` for count `num_registers`. Save into `buffer`.
fn read_register_range(addr: u8, start_register: u8, num_registers: u8, buffer: &mut[u8]) -> MynewtResult<()> {
   0:	b570      	push	{r4, r5, r6, lr}
   2:	b094      	sub	sp, #80	; 0x50
   4:	f8dd c060 	ldr.w	ip, [sp, #96]	; 0x60
   8:	469e      	mov	lr, r3
   a:	4614      	mov	r4, r2
   c:	460d      	mov	r5, r1
   e:	4606      	mov	r6, r0
  10:	f88d 0031 	strb.w	r0, [sp, #49]	; 0x31
  14:	f88d 1032 	strb.w	r1, [sp, #50]	; 0x32
  18:	f88d 2033 	strb.w	r2, [sp, #51]	; 0x33
  1c:	930d      	str	r3, [sp, #52]	; 0x34
  1e:	f8cd c038 	str.w	ip, [sp, #56]	; 0x38
/Users/Luppy/mynewt/stm32bluepill-mynewt-sensor/rust/app/src/touch_sensor.rs:213
    assert!(buffer.len() >= num_registers as usize, "i2c buf");  //  Buffer too small
  22:	980d      	ldr	r0, [sp, #52]	; 0x34
  24:	990e      	ldr	r1, [sp, #56]	; 0x38
  26:	f8cd e02c 	str.w	lr, [sp, #44]	; 0x2c
  2a:	940a      	str	r4, [sp, #40]	; 0x28
  2c:	9509      	str	r5, [sp, #36]	; 0x24
  2e:	9608      	str	r6, [sp, #32]
  30:	f7ff fffe 	bl	0 <_ZN4core5slice29_$LT$impl$u20$$u5b$T$u5d$$GT$3len17h70be3ebb33ef544dE>
  34:	9007      	str	r0, [sp, #28]
  36:	e7ff      	b.n	38 <_ZN3app12touch_sensor19read_register_range17haa9595e4b793f17fE+0x38>
  38:	f89d 0033 	ldrb.w	r0, [sp, #51]	; 0x33
  3c:	9907      	ldr	r1, [sp, #28]
  3e:	4281      	cmp	r1, r0
  40:	d207      	bcs.n	52 <_ZN3app12touch_sensor19read_register_range17haa9595e4b793f17fE+0x52>
  42:	e7ff      	b.n	44 <_ZN3app12touch_sensor19read_register_range17haa9595e4b793f17fE+0x44>
  44:	f240 0000 	movw	r0, #0
  48:	f2c0 0000 	movt	r0, #0
  4c:	f7ff fffe 	bl	0 <_ZN4core9panicking5panic17h53ca63c6ac6312f8E>
  50:	defe      	udf	#254	; 0xfe
/Users/Luppy/mynewt/stm32bluepill-mynewt-sensor/rust/app/src/touch_sensor.rs:214
    assert!(start_register + num_registers < 128, "i2c addr");   //  Not 7-bit address
  52:	f89d 0032 	ldrb.w	r0, [sp, #50]	; 0x32
  56:	f89d 1033 	ldrb.w	r1, [sp, #51]	; 0x33
  5a:	4408      	add	r0, r1
  5c:	b2c1      	uxtb	r1, r0
  5e:	4602      	mov	r2, r0
  60:	4281      	cmp	r1, r0
  62:	9206      	str	r2, [sp, #24]
  64:	f040 808a 	bne.w	17c <_ZN3app12touch_sensor19read_register_range17haa9595e4b793f17fE+0x17c>
  68:	e7ff      	b.n	6a <_ZN3app12touch_sensor19read_register_range17haa9595e4b793f17fE+0x6a>
  6a:	9806      	ldr	r0, [sp, #24]
  6c:	b241      	sxtb	r1, r0
  6e:	f1b1 3fff 	cmp.w	r1, #4294967295	; 0xffffffff
  72:	dc07      	bgt.n	84 <_ZN3app12touch_sensor19read_register_range17haa9595e4b793f17fE+0x84>
  74:	e7ff      	b.n	76 <_ZN3app12touch_sensor19read_register_range17haa9595e4b793f17fE+0x76>
  76:	f240 0000 	movw	r0, #0
  7a:	f2c0 0000 	movt	r0, #0
  7e:	f7ff fffe 	bl	0 <_ZN4core9panicking5panic17h53ca63c6ac6312f8E>
  82:	defe      	udf	#254	; 0xfe
/Users/Luppy/mynewt/stm32bluepill-mynewt-sensor/rust/app/src/touch_sensor.rs:223
    //    Send the Start Condition (High to Low SDA Transition)...
    //    Followed by I2C Address (7 bits)...
    //    Followed by Write Mode (1 bit, value 0)...
    //    Followed by starting Register Number (8 bits)
    unsafe { 
        I2C_BUFFER[0] = start_register;  //  I2C Packet buffer contains starting Register Number (1 byte)
  84:	f89d 0032 	ldrb.w	r0, [sp, #50]	; 0x32
  88:	9005      	str	r0, [sp, #20]
  8a:	e7ff      	b.n	8c <_ZN3app12touch_sensor19read_register_range17haa9595e4b793f17fE+0x8c>
  8c:	f240 0000 	movw	r0, #0
  90:	f2c0 0000 	movt	r0, #0
  94:	9905      	ldr	r1, [sp, #20]
  96:	7001      	strb	r1, [r0, #0]
/Users/Luppy/mynewt/stm32bluepill-mynewt-sensor/rust/app/src/touch_sensor.rs:224
        I2C_DATA.address = addr;         //  I2C Packet address (7 bits)
  98:	f89d 2031 	ldrb.w	r2, [sp, #49]	; 0x31
  9c:	f240 0300 	movw	r3, #0
  a0:	f2c0 0300 	movt	r3, #0
  a4:	701a      	strb	r2, [r3, #0]
  a6:	2101      	movs	r1, #1
/Users/Luppy/mynewt/stm32bluepill-mynewt-sensor/rust/app/src/touch_sensor.rs:225
        I2C_DATA.len = I2C_BUFFER.len() as u16;     //  I2C Packet data size is 1 byte
  a8:	f7ff fffe 	bl	0 <_ZN4core5slice29_$LT$impl$u20$$u5b$T$u5d$$GT$3len17h70be3ebb33ef544dE>
  ac:	9004      	str	r0, [sp, #16]
  ae:	e7ff      	b.n	b0 <_ZN3app12touch_sensor19read_register_range17haa9595e4b793f17fE+0xb0>
  b0:	f240 0000 	movw	r0, #0
  b4:	f2c0 0000 	movt	r0, #0
  b8:	9904      	ldr	r1, [sp, #16]
  ba:	8041      	strh	r1, [r0, #2]
/Users/Luppy/mynewt/stm32bluepill-mynewt-sensor/rust/app/src/touch_sensor.rs:226
        I2C_DATA.buffer = I2C_BUFFER.as_mut_ptr();  //  I2C Packet data points to packet buffer
  bc:	f240 0000 	movw	r0, #0
  c0:	f2c0 0000 	movt	r0, #0
  c4:	2101      	movs	r1, #1
  c6:	f7ff fffe 	bl	0 <_ZN4core5slice29_$LT$impl$u20$$u5b$T$u5d$$GT$10as_mut_ptr17h62482040e6da4f65E>
  ca:	9003      	str	r0, [sp, #12]
  cc:	e7ff      	b.n	ce <_ZN3app12touch_sensor19read_register_range17haa9595e4b793f17fE+0xce>
  ce:	f240 0000 	movw	r0, #0
  d2:	f2c0 0000 	movt	r0, #0
  d6:	9903      	ldr	r1, [sp, #12]
  d8:	6041      	str	r1, [r0, #4]
  da:	2201      	movs	r2, #1
  dc:	f44f 737a 	mov.w	r3, #1000	; 0x3e8
  e0:	f04f 0c00 	mov.w	ip, #0
/Users/Luppy/mynewt/stm32bluepill-mynewt-sensor/rust/app/src/touch_sensor.rs:228
    };
    let _rc1 = unsafe { hal::hal_i2c_master_write(1, &mut I2C_DATA, 1000, 0) };  //  No stop yet, must continue even if we hit an error
  e4:	9002      	str	r0, [sp, #8]
  e6:	4610      	mov	r0, r2
  e8:	9902      	ldr	r1, [sp, #8]
  ea:	461a      	mov	r2, r3
  ec:	4663      	mov	r3, ip
  ee:	f7ff fffe 	bl	0 <hal_i2c_master_write>
  f2:	9010      	str	r0, [sp, #64]	; 0x40
  f4:	e7ff      	b.n	f6 <_ZN3app12touch_sensor19read_register_range17haa9595e4b793f17fE+0xf6>
/Users/Luppy/mynewt/stm32bluepill-mynewt-sensor/rust/app/src/touch_sensor.rs:234
    //  Step 3: Prepare to receive the stream of I2C Device Register values...
    //    Send the Start Condition (High to Low SDA Transition)...
    //    Followed by I2C Address (7 bits)...
    //    Followed by Read Mode (1 bit, value 1)
    unsafe { 
        I2C_BUFFER[0] = 0x00;     //  I2C Packet buffer should be empty (provided by caller)
  f6:	e7ff      	b.n	f8 <_ZN3app12touch_sensor19read_register_range17haa9595e4b793f17fE+0xf8>
  f8:	f240 0000 	movw	r0, #0
  fc:	f2c0 0000 	movt	r0, #0
 100:	2100      	movs	r1, #0
 102:	7001      	strb	r1, [r0, #0]
/Users/Luppy/mynewt/stm32bluepill-mynewt-sensor/rust/app/src/touch_sensor.rs:235
        I2C_DATA.address = addr;  //  I2C Packet address (7 bits)
 104:	f89d 0031 	ldrb.w	r0, [sp, #49]	; 0x31
 108:	f240 0100 	movw	r1, #0
 10c:	f2c0 0100 	movt	r1, #0
 110:	7008      	strb	r0, [r1, #0]
/Users/Luppy/mynewt/stm32bluepill-mynewt-sensor/rust/app/src/touch_sensor.rs:236
        I2C_DATA.len = num_registers as u16;    //  I2C Packet data size is number of Registers to read
 112:	f89d 0033 	ldrb.w	r0, [sp, #51]	; 0x33
 116:	8048      	strh	r0, [r1, #2]
/Users/Luppy/mynewt/stm32bluepill-mynewt-sensor/rust/app/src/touch_sensor.rs:237
        I2C_DATA.buffer = buffer.as_mut_ptr();  //  I2C Packet data points to packet buffer
 118:	980d      	ldr	r0, [sp, #52]	; 0x34
 11a:	990e      	ldr	r1, [sp, #56]	; 0x38
 11c:	f7ff fffe 	bl	0 <_ZN4core5slice29_$LT$impl$u20$$u5b$T$u5d$$GT$10as_mut_ptr17h62482040e6da4f65E>
 120:	9001      	str	r0, [sp, #4]
 122:	e7ff      	b.n	124 <_ZN3app12touch_sensor19read_register_range17haa9595e4b793f17fE+0x124>
 124:	f240 0000 	movw	r0, #0
 128:	f2c0 0000 	movt	r0, #0
 12c:	9901      	ldr	r1, [sp, #4]
 12e:	6041      	str	r1, [r0, #4]
 130:	f44f 727a 	mov.w	r2, #1000	; 0x3e8
 134:	2301      	movs	r3, #1
/Users/Luppy/mynewt/stm32bluepill-mynewt-sensor/rust/app/src/touch_sensor.rs:241
    };
    //  Step 4: Receive the requested number of Register values from I2C Device (1 byte per register)
    //  Step 5: Send the Stop Condition (Low to High SDA Transition)
    let rc2 = unsafe { hal::hal_i2c_master_read(1, &mut I2C_DATA, 1000, 1) };
 136:	9000      	str	r0, [sp, #0]
 138:	4618      	mov	r0, r3
 13a:	9900      	ldr	r1, [sp, #0]
 13c:	f7ff fffe 	bl	0 <hal_i2c_master_read>
 140:	9011      	str	r0, [sp, #68]	; 0x44
 142:	e7ff      	b.n	144 <_ZN3app12touch_sensor19read_register_range17haa9595e4b793f17fE+0x144>
/Users/Luppy/mynewt/stm32bluepill-mynewt-sensor/rust/app/src/touch_sensor.rs:242
    if rc2 == hal::HAL_I2C_ERR_ADDR_NACK as i32 {
 144:	9811      	ldr	r0, [sp, #68]	; 0x44
 146:	2804      	cmp	r0, #4
 148:	d113      	bne.n	172 <_ZN3app12touch_sensor19read_register_range17haa9595e4b793f17fE+0x172>
 14a:	e7ff      	b.n	14c <_ZN3app12touch_sensor19read_register_range17haa9595e4b793f17fE+0x14c>
 14c:	2000      	movs	r0, #0
/Users/Luppy/mynewt/stm32bluepill-mynewt-sensor/rust/app/src/touch_sensor.rs:243
        assert!(false, "i2c fail");  //  I2C read failed
 14e:	2800      	cmp	r0, #0
 150:	d107      	bne.n	162 <_ZN3app12touch_sensor19read_register_range17haa9595e4b793f17fE+0x162>
 152:	e7ff      	b.n	154 <_ZN3app12touch_sensor19read_register_range17haa9595e4b793f17fE+0x154>
 154:	f240 0000 	movw	r0, #0
 158:	f2c0 0000 	movt	r0, #0
 15c:	f7ff fffe 	bl	0 <_ZN4core9panicking5panic17h53ca63c6ac6312f8E>
 160:	defe      	udf	#254	; 0xfe
 162:	2000      	movs	r0, #0
/Users/Luppy/mynewt/stm32bluepill-mynewt-sensor/rust/app/src/touch_sensor.rs:244
        return Ok(());               //  TODO: Return an error
 164:	900f      	str	r0, [sp, #60]	; 0x3c
 166:	2001      	movs	r0, #1
 168:	900f      	str	r0, [sp, #60]	; 0x3c
 16a:	e7ff      	b.n	16c <_ZN3app12touch_sensor19read_register_range17haa9595e4b793f17fE+0x16c>
/Users/Luppy/mynewt/stm32bluepill-mynewt-sensor/rust/app/src/touch_sensor.rs:247
    }
    Ok(())
}
 16c:	980f      	ldr	r0, [sp, #60]	; 0x3c
 16e:	b014      	add	sp, #80	; 0x50
 170:	bd70      	pop	{r4, r5, r6, pc}
 172:	2000      	movs	r0, #0
/Users/Luppy/mynewt/stm32bluepill-mynewt-sensor/rust/app/src/touch_sensor.rs:246
    Ok(())
 174:	900f      	str	r0, [sp, #60]	; 0x3c
 176:	2001      	movs	r0, #1
 178:	900f      	str	r0, [sp, #60]	; 0x3c
/Users/Luppy/mynewt/stm32bluepill-mynewt-sensor/rust/app/src/touch_sensor.rs:247
}
 17a:	e7f7      	b.n	16c <_ZN3app12touch_sensor19read_register_range17haa9595e4b793f17fE+0x16c>
/Users/Luppy/mynewt/stm32bluepill-mynewt-sensor/rust/app/src/touch_sensor.rs:214
    assert!(start_register + num_registers < 128, "i2c addr");   //  Not 7-bit address
 17c:	f240 0000 	movw	r0, #0
 180:	f2c0 0000 	movt	r0, #0
 184:	f7ff fffe 	bl	0 <_ZN4core9panicking5panic17h53ca63c6ac6312f8E>
 188:	defe      	udf	#254	; 0xfe

app-1669bcaaaa4db712.fwa3aitlntor7gj.rcgu.o:     file format elf32-littlearm

SYMBOL TABLE:
00000000 l    df *ABS*	00000000 fwa3aitlntor7gj
00001d58 l       .debug_str	00000000 
00002343 l       .debug_str	00000000 
0000234a l       .debug_str	00000000 
00002350 l       .debug_str	00000000 
00002355 l       .debug_str	00000000 
0000235b l       .debug_str	00000000 
00002369 l       .debug_str	00000000 
000023a5 l       .debug_str	00000000 
000023d7 l       .debug_str	00000000 
00002413 l       .debug_str	00000000 
00002421 l       .debug_str	00000000 
00002426 l       .debug_str	00000000 
0000242a l       .debug_str	00000000 
00000000 l       .debug_str	00000000 
00000041 l       .debug_str	00000000 
00000055 l       .debug_str	00000000 
00000085 l       .debug_str	00000000 
0000008a l       .debug_str	00000000 
0000008e l       .debug_str	00000000 
00000091 l       .debug_str	00000000 
0000009c l       .debug_str	00000000 
000000a7 l       .debug_str	00000000 
000000ae l       .debug_str	00000000 
000000b5 l       .debug_str	00000000 
000000b9 l       .debug_str	00000000 
000000be l       .debug_str	00000000 
000000c5 l       .debug_str	00000000 
000000c8 l       .debug_str	00000000 
000000cf l       .debug_str	00000000 
000000d8 l       .debug_str	00000000 
000000de l       .debug_str	00000000 
000000e5 l       .debug_str	00000000 
000000e8 l       .debug_str	00000000 
000000f4 l       .debug_str	00000000 
000000fc l       .debug_str	00000000 
00000100 l       .debug_str	00000000 
00000117 l       .debug_str	00000000 
00000171 l       .debug_str	00000000 
00000173 l       .debug_str	00000000 
00000178 l       .debug_str	00000000 
0000017c l       .debug_str	00000000 
000001de l       .debug_str	00000000 
000001e9 l       .debug_str	00000000 
00000230 l       .debug_str	00000000 
0000027f l       .debug_str	00000000 
00000289 l       .debug_str	00000000 
000002c6 l       .debug_str	00000000 
0000030b l       .debug_str	00000000 
00000314 l       .debug_str	00000000 
00000324 l       .debug_str	00000000 
0000032c l       .debug_str	00000000 
00000381 l       .debug_str	00000000 
000003de l       .debug_str	00000000 
000003ea l       .debug_str	00000000 
000003f3 l       .debug_str	00000000 
000003ff l       .debug_str	00000000 
0000040b l       .debug_str	00000000 
00000414 l       .debug_str	00000000 
0000041c l       .debug_str	00000000 
00000426 l       .debug_str	00000000 
0000042e l       .debug_str	00000000 
00000438 l       .debug_str	00000000 
0000044d l       .debug_str	00000000 
00000454 l       .debug_str	00000000 
00000474 l       .debug_str	00000000 
0000047b l       .debug_str	00000000 
00000483 l       .debug_str	00000000 
0000048d l       .debug_str	00000000 
00000498 l       .debug_str	00000000 
000004a1 l       .debug_str	00000000 
000004ac l       .debug_str	00000000 
000004b8 l       .debug_str	00000000 
000004bc l       .debug_str	00000000 
000004c5 l       .debug_str	00000000 
000004cc l       .debug_str	00000000 
000004d4 l       .debug_str	00000000 
000004dc l       .debug_str	00000000 
000004e6 l       .debug_str	00000000 
000004ec l       .debug_str	00000000 
000004f3 l       .debug_str	00000000 
000004fa l       .debug_str	00000000 
00000527 l       .debug_str	00000000 
0000055c l       .debug_str	00000000 
00000562 l       .debug_str	00000000 
00000568 l       .debug_str	00000000 
00000577 l       .debug_str	00000000 
00000587 l       .debug_str	00000000 
00000597 l       .debug_str	00000000 
0000059f l       .debug_str	00000000 
000005c8 l       .debug_str	00000000 
00000626 l       .debug_str	00000000 
0000068c l       .debug_str	00000000 
00000693 l       .debug_str	00000000 
0000069b l       .debug_str	00000000 
000006a4 l       .debug_str	00000000 
000006c2 l       .debug_str	00000000 
000006d2 l       .debug_str	00000000 
000006e0 l       .debug_str	00000000 
000006eb l       .debug_str	00000000 
000006f8 l       .debug_str	00000000 
00000707 l       .debug_str	00000000 
0000071d l       .debug_str	00000000 
00000727 l       .debug_str	00000000 
00000730 l       .debug_str	00000000 
00000739 l       .debug_str	00000000 
0000075f l       .debug_str	00000000 
00000775 l       .debug_str	00000000 
00000780 l       .debug_str	00000000 
00000796 l       .debug_str	00000000 
0000079e l       .debug_str	00000000 
000007bf l       .debug_str	00000000 
000007d6 l       .debug_str	00000000 
000007db l       .debug_str	00000000 
000007e3 l       .debug_str	00000000 
000007ec l       .debug_str	00000000 
000007f5 l       .debug_str	00000000 
000007fe l       .debug_str	00000000 
00000806 l       .debug_str	00000000 
0000080a l       .debug_str	00000000 
00000811 l       .debug_str	00000000 
0000081d l       .debug_str	00000000 
00000828 l       .debug_str	00000000 
00000830 l       .debug_str	00000000 
00000838 l       .debug_str	00000000 
000008b4 l       .debug_str	00000000 
00000938 l       .debug_str	00000000 
00000a34 l       .debug_str	00000000 
00000b38 l       .debug_str	00000000 
00000b46 l       .debug_str	00000000 
00000b51 l       .debug_str	00000000 
00000b5b l       .debug_str	00000000 
00000b6f l       .debug_str	00000000 
00000b7a l       .debug_str	00000000 
00000ba8 l       .debug_str	00000000 
00000c23 l       .debug_str	00000000 
00000ca6 l       .debug_str	00000000 
00000cb4 l       .debug_str	00000000 
00000d13 l       .debug_str	00000000 
00000d7a l       .debug_str	00000000 
00000d90 l       .debug_str	00000000 
00000da0 l       .debug_str	00000000 
00000daf l       .debug_str	00000000 
00000db3 l       .debug_str	00000000 
00000dba l       .debug_str	00000000 
00000dc0 l       .debug_str	00000000 
00000dc4 l       .debug_str	00000000 
00000dca l       .debug_str	00000000 
00000dd0 l       .debug_str	00000000 
00000ddc l       .debug_str	00000000 
00000de4 l       .debug_str	00000000 
00000dea l       .debug_str	00000000 
00000df2 l       .debug_str	00000000 
00000df8 l       .debug_str	00000000 
00000e1b l       .debug_str	00000000 
00000e2b l       .debug_str	00000000 
00000e5e l       .debug_str	00000000 
00000e9e l       .debug_str	00000000 
00000ee6 l       .debug_str	00000000 
00000eea l       .debug_str	00000000 
00000ef0 l       .debug_str	00000000 
00000ef6 l       .debug_str	00000000 
00000efc l       .debug_str	00000000 
00000f0e l       .debug_str	00000000 
00000f43 l       .debug_str	00000000 
00000f85 l       .debug_str	00000000 
00000fcf l       .debug_str	00000000 
00000fd3 l       .debug_str	00000000 
00000fd9 l       .debug_str	00000000 
00000fdf l       .debug_str	00000000 
00000fe5 l       .debug_str	00000000 
00000ff7 l       .debug_str	00000000 
0000102c l       .debug_str	00000000 
0000106e l       .debug_str	00000000 
000010b8 l       .debug_str	00000000 
000010bc l       .debug_str	00000000 
000010c2 l       .debug_str	00000000 
000010c8 l       .debug_str	00000000 
000010ce l       .debug_str	00000000 
000010d4 l       .debug_str	00000000 
000010e5 l       .debug_str	00000000 
00001119 l       .debug_str	00000000 
0000115a l       .debug_str	00000000 
000011a3 l       .debug_str	00000000 
000011a8 l       .debug_str	00000000 
000011ad l       .debug_str	00000000 
000011b1 l       .debug_str	00000000 
000011b7 l       .debug_str	00000000 
000011bd l       .debug_str	00000000 
000011c3 l       .debug_str	00000000 
000011d4 l       .debug_str	00000000 
00001208 l       .debug_str	00000000 
00001249 l       .debug_str	00000000 
00001292 l       .debug_str	00000000 
00001296 l       .debug_str	00000000 
0000129f l       .debug_str	00000000 
000012b0 l       .debug_str	00000000 
000012e4 l       .debug_str	00000000 
00001325 l       .debug_str	00000000 
0000136e l       .debug_str	00000000 
00001373 l       .debug_str	00000000 
00001377 l       .debug_str	00000000 
00001380 l       .debug_str	00000000 
00001387 l       .debug_str	00000000 
0000138f l       .debug_str	00000000 
000013a1 l       .debug_str	00000000 
000013d6 l       .debug_str	00000000 
00001418 l       .debug_str	00000000 
00001462 l       .debug_str	00000000 
00001466 l       .debug_str	00000000 
0000146c l       .debug_str	00000000 
00001472 l       .debug_str	00000000 
00001478 l       .debug_str	00000000 
0000147e l       .debug_str	00000000 
00001486 l       .debug_str	00000000 
00001494 l       .debug_str	00000000 
000014a3 l       .debug_str	00000000 
000014b4 l       .debug_str	00000000 
000014bf l       .debug_str	00000000 
000014ca l       .debug_str	00000000 
000014d5 l       .debug_str	00000000 
000014dc l       .debug_str	00000000 
000014ff l       .debug_str	00000000 
00001511 l       .debug_str	00000000 
00001546 l       .debug_str	00000000 
00001588 l       .debug_str	00000000 
000015d2 l       .debug_str	00000000 
000015d6 l       .debug_str	00000000 
000015e0 l       .debug_str	00000000 
000015f2 l       .debug_str	00000000 
00001627 l       .debug_str	00000000 
00001669 l       .debug_str	00000000 
000016b3 l       .debug_str	00000000 
000016b8 l       .debug_str	00000000 
000016c2 l       .debug_str	00000000 
000016d4 l       .debug_str	00000000 
00001709 l       .debug_str	00000000 
0000174b l       .debug_str	00000000 
00001795 l       .debug_str	00000000 
000017a9 l       .debug_str	00000000 
000017ad l       .debug_str	00000000 
000017bb l       .debug_str	00000000 
000017cb l       .debug_str	00000000 
000017d4 l       .debug_str	00000000 
000017df l       .debug_str	00000000 
000017ee l       .debug_str	00000000 
00001803 l       .debug_str	00000000 
00001834 l       .debug_str	00000000 
000018d1 l       .debug_str	00000000 
00001976 l       .debug_str	00000000 
00001981 l       .debug_str	00000000 
0000198a l       .debug_str	00000000 
000019ab l       .debug_str	00000000 
000019be l       .debug_str	00000000 
000019f4 l       .debug_str	00000000 
00001a77 l       .debug_str	00000000 
00001b02 l       .debug_str	00000000 
00001b1e l       .debug_str	00000000 
00001b6a l       .debug_str	00000000 
00001bbe l       .debug_str	00000000 
00001bdb l       .debug_str	00000000 
00001bef l       .debug_str	00000000 
00001c3b l       .debug_str	00000000 
00001c8f l       .debug_str	00000000 
00001ca5 l       .debug_str	00000000 
00001cb9 l       .debug_str	00000000 
00001d00 l       .debug_str	00000000 
00001d4f l       .debug_str	00000000 
00001d66 l       .debug_str	00000000 
00001d97 l       .debug_str	00000000 
00001d9d l       .debug_str	00000000 
00001da5 l       .debug_str	00000000 
00001dac l       .debug_str	00000000 
00001db4 l       .debug_str	00000000 
00001dbf l       .debug_str	00000000 
00001dc7 l       .debug_str	00000000 
00001dd6 l       .debug_str	00000000 
00001dda l       .debug_str	00000000 
00001de5 l       .debug_str	00000000 
00001df1 l       .debug_str	00000000 
00001dfc l       .debug_str	00000000 
00001e0d l       .debug_str	00000000 
00001e13 l       .debug_str	00000000 
00001e1b l       .debug_str	00000000 
00001e22 l       .debug_str	00000000 
00001e2c l       .debug_str	00000000 
00001e34 l       .debug_str	00000000 
00001e3c l       .debug_str	00000000 
00001e5e l       .debug_str	00000000 
00001e69 l       .debug_str	00000000 
00001e75 l       .debug_str	00000000 
00001e7d l       .debug_str	00000000 
00001e86 l       .debug_str	00000000 
00001e91 l       .debug_str	00000000 
00001e98 l       .debug_str	00000000 
00001ea3 l       .debug_str	00000000 
00001eae l       .debug_str	00000000 
00001ebe l       .debug_str	00000000 
00001ec8 l       .debug_str	00000000 
00001ece l       .debug_str	00000000 
00001ef0 l       .debug_str	00000000 
00001f28 l       .debug_str	00000000 
00001f68 l       .debug_str	00000000 
00001f6f l       .debug_str	00000000 
00001f77 l       .debug_str	00000000 
00001f8e l       .debug_str	00000000 
00001f97 l       .debug_str	00000000 
00001fa7 l       .debug_str	00000000 
00001fb6 l       .debug_str	00000000 
00001fbe l       .debug_str	00000000 
00001fc5 l       .debug_str	00000000 
00001fcd l       .debug_str	00000000 
00001feb l       .debug_str	00000000 
00001ffb l       .debug_str	00000000 
0000202e l       .debug_str	00000000 
00002043 l       .debug_str	00000000 
0000204c l       .debug_str	00000000 
000020a9 l       .debug_str	00000000 
0000210e l       .debug_str	00000000 
00002118 l       .debug_str	00000000 
00002128 l       .debug_str	00000000 
0000213d l       .debug_str	00000000 
00002145 l       .debug_str	00000000 
000021a9 l       .debug_str	00000000 
00002215 l       .debug_str	00000000 
0000221c l       .debug_str	00000000 
00002224 l       .debug_str	00000000 
00002242 l       .debug_str	00000000 
00002252 l       .debug_str	00000000 
00002285 l       .debug_str	00000000 
0000229a l       .debug_str	00000000 
000022ad l       .debug_str	00000000 
000022c2 l       .debug_str	00000000 
000022c9 l       .debug_str	00000000 
000022de l       .debug_str	00000000 
00002308 l       .debug_str	00000000 
0000233a l       .debug_str	00000000 
00000000 l     O .rodata..Lanon.9e0841931bc89e4a33e9a1a5741217a2.2	00000018 .Lanon.9e0841931bc89e4a33e9a1a5741217a2.2
00000000 l    d  .text._ZN4core6option15Option$LT$T$GT$6expect17he3620cc016d45c7aE	00000000 .text._ZN4core6option15Option$LT$T$GT$6expect17he3620cc016d45c7aE
00000000 l    d  .text._ZN4core6option15Option$LT$T$GT$6unwrap17h28a543b21c4c1b3eE	00000000 .text._ZN4core6option15Option$LT$T$GT$6unwrap17h28a543b21c4c1b3eE
00000000 l    d  .rodata..Lanon.9e0841931bc89e4a33e9a1a5741217a2.0	00000000 .rodata..Lanon.9e0841931bc89e4a33e9a1a5741217a2.0
00000000 l    d  .rodata..Lanon.9e0841931bc89e4a33e9a1a5741217a2.1	00000000 .rodata..Lanon.9e0841931bc89e4a33e9a1a5741217a2.1
00000000 l    d  .debug_abbrev	00000000 .debug_abbrev
00000000 l    d  .debug_info	00000000 .debug_info
00000000 l    d  .debug_ranges	00000000 .debug_ranges
00000000 l    d  .debug_frame	00000000 .debug_frame
00000000 l    d  .debug_line	00000000 .debug_line
00000000         *UND*	00000000 _ZN4core6option13expect_failed17h3eeb96a257d935a1E
00000000 g     F .text._ZN4core6option15Option$LT$T$GT$6expect17he3620cc016d45c7aE	00000056 _ZN4core6option15Option$LT$T$GT$6expect17he3620cc016d45c7aE
00000000 g     F .text._ZN4core6option15Option$LT$T$GT$6unwrap17h28a543b21c4c1b3eE	0000004a _ZN4core6option15Option$LT$T$GT$6unwrap17h28a543b21c4c1b3eE
00000000         *UND*	00000000 _ZN4core9panicking5panic17h53ca63c6ac6312f8E



Disassembly of section .text._ZN4core6option15Option$LT$T$GT$6expect17he3620cc016d45c7aE:

00000000 <_ZN4core6option15Option$LT$T$GT$6expect17he3620cc016d45c7aE>:
_ZN4core6option15Option$LT$T$GT$6expect17he3620cc016d45c7aE():
/rustc/50a0defd5a93523067ef239936cc2e0755220904/src/libcore/option.rs:311
   0:	b5b0      	push	{r4, r5, r7, lr}
   2:	b08c      	sub	sp, #48	; 0x30
   4:	469c      	mov	ip, r3
   6:	4696      	mov	lr, r2
   8:	460c      	mov	r4, r1
   a:	4605      	mov	r5, r0
   c:	9007      	str	r0, [sp, #28]
   e:	9108      	str	r1, [sp, #32]
  10:	9209      	str	r2, [sp, #36]	; 0x24
  12:	930a      	str	r3, [sp, #40]	; 0x28
/rustc/50a0defd5a93523067ef239936cc2e0755220904/src/libcore/option.rs:313
  14:	9807      	ldr	r0, [sp, #28]
  16:	2800      	cmp	r0, #0
  18:	f8cd c018 	str.w	ip, [sp, #24]
  1c:	f8cd e014 	str.w	lr, [sp, #20]
  20:	9404      	str	r4, [sp, #16]
  22:	9503      	str	r5, [sp, #12]
  24:	9002      	str	r0, [sp, #8]
  26:	d00d      	beq.n	44 <_ZN4core6option15Option$LT$T$GT$6expect17he3620cc016d45c7aE+0x44>
  28:	e7ff      	b.n	2a <_ZN4core6option15Option$LT$T$GT$6expect17he3620cc016d45c7aE+0x2a>
  2a:	9802      	ldr	r0, [sp, #8]
  2c:	2801      	cmp	r0, #1
  2e:	d001      	beq.n	34 <_ZN4core6option15Option$LT$T$GT$6expect17he3620cc016d45c7aE+0x34>
  30:	e7ff      	b.n	32 <_ZN4core6option15Option$LT$T$GT$6expect17he3620cc016d45c7aE+0x32>
/rustc/50a0defd5a93523067ef239936cc2e0755220904/src/libcore/option.rs:316
  32:	defe      	udf	#254	; 0xfe
/rustc/50a0defd5a93523067ef239936cc2e0755220904/src/libcore/option.rs:313
  34:	9808      	ldr	r0, [sp, #32]
  36:	900b      	str	r0, [sp, #44]	; 0x2c
  38:	980b      	ldr	r0, [sp, #44]	; 0x2c
/rustc/50a0defd5a93523067ef239936cc2e0755220904/src/libcore/option.rs:316
  3a:	9907      	ldr	r1, [sp, #28]
  3c:	2901      	cmp	r1, #1
  3e:	9001      	str	r0, [sp, #4]
  40:	d005      	beq.n	4e <_ZN4core6option15Option$LT$T$GT$6expect17he3620cc016d45c7aE+0x4e>
  42:	e007      	b.n	54 <_ZN4core6option15Option$LT$T$GT$6expect17he3620cc016d45c7aE+0x54>
/rustc/50a0defd5a93523067ef239936cc2e0755220904/src/libcore/option.rs:314
  44:	9809      	ldr	r0, [sp, #36]	; 0x24
  46:	990a      	ldr	r1, [sp, #40]	; 0x28
  48:	f7ff fffe 	bl	0 <_ZN4core6option13expect_failed17h3eeb96a257d935a1E>
  4c:	defe      	udf	#254	; 0xfe
/rustc/50a0defd5a93523067ef239936cc2e0755220904/src/libcore/option.rs:316
  4e:	9801      	ldr	r0, [sp, #4]
  50:	b00c      	add	sp, #48	; 0x30
  52:	bdb0      	pop	{r4, r5, r7, pc}
  54:	e7fb      	b.n	4e <_ZN4core6option15Option$LT$T$GT$6expect17he3620cc016d45c7aE+0x4e>

Disassembly of section .text._ZN4core6option15Option$LT$T$GT$6unwrap17h28a543b21c4c1b3eE:

00000000 <_ZN4core6option15Option$LT$T$GT$6unwrap17h28a543b21c4c1b3eE>:
_ZN4core6option15Option$LT$T$GT$6unwrap17h28a543b21c4c1b3eE():
/rustc/50a0defd5a93523067ef239936cc2e0755220904/src/libcore/option.rs:344
   0:	b086      	sub	sp, #24
   2:	4601      	mov	r1, r0
   4:	9004      	str	r0, [sp, #16]
/rustc/50a0defd5a93523067ef239936cc2e0755220904/src/libcore/option.rs:346
   6:	9804      	ldr	r0, [sp, #16]
   8:	2800      	cmp	r0, #0
   a:	4602      	mov	r2, r0
   c:	bf18      	it	ne
   e:	2201      	movne	r2, #1
  10:	2800      	cmp	r0, #0
  12:	9103      	str	r1, [sp, #12]
  14:	9202      	str	r2, [sp, #8]
  16:	d00d      	beq.n	34 <_ZN4core6option15Option$LT$T$GT$6unwrap17h28a543b21c4c1b3eE+0x34>
  18:	e7ff      	b.n	1a <_ZN4core6option15Option$LT$T$GT$6unwrap17h28a543b21c4c1b3eE+0x1a>
  1a:	9802      	ldr	r0, [sp, #8]
  1c:	2801      	cmp	r0, #1
  1e:	d001      	beq.n	24 <_ZN4core6option15Option$LT$T$GT$6unwrap17h28a543b21c4c1b3eE+0x24>
  20:	e7ff      	b.n	22 <_ZN4core6option15Option$LT$T$GT$6unwrap17h28a543b21c4c1b3eE+0x22>
/rustc/50a0defd5a93523067ef239936cc2e0755220904/src/libcore/option.rs:349
  22:	defe      	udf	#254	; 0xfe
/rustc/50a0defd5a93523067ef239936cc2e0755220904/src/libcore/option.rs:346
  24:	9804      	ldr	r0, [sp, #16]
  26:	9005      	str	r0, [sp, #20]
  28:	9805      	ldr	r0, [sp, #20]
/rustc/50a0defd5a93523067ef239936cc2e0755220904/src/libcore/option.rs:349
  2a:	9904      	ldr	r1, [sp, #16]
  2c:	2900      	cmp	r1, #0
  2e:	9001      	str	r0, [sp, #4]
  30:	d107      	bne.n	42 <_ZN4core6option15Option$LT$T$GT$6unwrap17h28a543b21c4c1b3eE+0x42>
  32:	e009      	b.n	48 <_ZN4core6option15Option$LT$T$GT$6unwrap17h28a543b21c4c1b3eE+0x48>
/rustc/50a0defd5a93523067ef239936cc2e0755220904/src/libcore/macros.rs:12
  34:	f240 0000 	movw	r0, #0
  38:	f2c0 0000 	movt	r0, #0
  3c:	f7ff fffe 	bl	0 <_ZN4core9panicking5panic17h53ca63c6ac6312f8E>
  40:	defe      	udf	#254	; 0xfe
/rustc/50a0defd5a93523067ef239936cc2e0755220904/src/libcore/option.rs:349
  42:	9801      	ldr	r0, [sp, #4]
  44:	b006      	add	sp, #24
  46:	4770      	bx	lr
  48:	e7fb      	b.n	42 <_ZN4core6option15Option$LT$T$GT$6unwrap17h28a543b21c4c1b3eE+0x42>
arm-none-eabi-objdump: rust.metadata.bin: File format not recognized
arm-none-eabi-objdump: app-1669bcaaaa4db712.18hqtjaq2yggsxu4.rcgu.bc.z: File format not recognized
arm-none-eabi-objdump: app-1669bcaaaa4db712.1hhkk4hcp76ew96c.rcgu.bc.z: File format not recognized
arm-none-eabi-objdump: app-1669bcaaaa4db712.1xlkd562vrkevpk2.rcgu.bc.z: File format not recognized
arm-none-eabi-objdump: app-1669bcaaaa4db712.2l235o8jg9b6cj7f.rcgu.bc.z: File format not recognized
arm-none-eabi-objdump: app-1669bcaaaa4db712.3by5qbbhgiikd23j.rcgu.bc.z: File format not recognized
arm-none-eabi-objdump: app-1669bcaaaa4db712.3s8btg69y9ebywp4.rcgu.bc.z: File format not recognized
arm-none-eabi-objdump: app-1669bcaaaa4db712.4uvyc51vxen3nrfb.rcgu.bc.z: File format not recognized
arm-none-eabi-objdump: app-1669bcaaaa4db712.djwsmb2ryxo2enp.rcgu.bc.z: File format not recognized
arm-none-eabi-objdump: app-1669bcaaaa4db712.fwa3aitlntor7gj.rcgu.bc.z: File format not recognized
