In archive target/thumbv7em-none-eabihf/debug/libapp.rlib:

app-b90ce02d7e477c3f.1865e6mu8o34enxf.rcgu.o:     file format elf32-littlearm

SYMBOL TABLE:
00000000 l    df *ABS*	00000000 1865e6mu8o34enxf
00001b98 l       .debug_str	00000000 
000022c8 l       .debug_str	00000000 
000022db l       .debug_str	00000000 
000022f0 l       .debug_str	00000000 
000022f7 l       .debug_str	00000000 
0000230c l       .debug_str	00000000 
00002336 l       .debug_str	00000000 
00000000 l       .debug_str	00000000 
00000041 l       .debug_str	00000000 
00000055 l       .debug_str	00000000 
00000085 l       .debug_str	00000000 
0000008a l       .debug_str	00000000 
0000008e l       .debug_str	00000000 
00000091 l       .debug_str	00000000 
0000009c l       .debug_str	00000000 
000000a7 l       .debug_str	00000000 
000000ae l       .debug_str	00000000 
000000b2 l       .debug_str	00000000 
000000b9 l       .debug_str	00000000 
000000bc l       .debug_str	00000000 
000000c3 l       .debug_str	00000000 
000000cc l       .debug_str	00000000 
000000d2 l       .debug_str	00000000 
000000d9 l       .debug_str	00000000 
000000dc l       .debug_str	00000000 
000000e8 l       .debug_str	00000000 
000000f0 l       .debug_str	00000000 
000000f7 l       .debug_str	00000000 
000000fb l       .debug_str	00000000 
00000100 l       .debug_str	00000000 
00000104 l       .debug_str	00000000 
0000011b l       .debug_str	00000000 
00000175 l       .debug_str	00000000 
00000177 l       .debug_str	00000000 
0000017c l       .debug_str	00000000 
00000180 l       .debug_str	00000000 
000001e2 l       .debug_str	00000000 
000001ed l       .debug_str	00000000 
00000234 l       .debug_str	00000000 
00000283 l       .debug_str	00000000 
0000028d l       .debug_str	00000000 
000002ca l       .debug_str	00000000 
0000030f l       .debug_str	00000000 
00000318 l       .debug_str	00000000 
00000328 l       .debug_str	00000000 
00000330 l       .debug_str	00000000 
00000385 l       .debug_str	00000000 
000003e2 l       .debug_str	00000000 
000003ee l       .debug_str	00000000 
000003f7 l       .debug_str	00000000 
00000403 l       .debug_str	00000000 
0000040f l       .debug_str	00000000 
00000418 l       .debug_str	00000000 
00000420 l       .debug_str	00000000 
0000042a l       .debug_str	00000000 
00000432 l       .debug_str	00000000 
0000043c l       .debug_str	00000000 
00000451 l       .debug_str	00000000 
00000458 l       .debug_str	00000000 
00000478 l       .debug_str	00000000 
0000047f l       .debug_str	00000000 
00000487 l       .debug_str	00000000 
00000491 l       .debug_str	00000000 
0000049c l       .debug_str	00000000 
000004a5 l       .debug_str	00000000 
000004b0 l       .debug_str	00000000 
000004bc l       .debug_str	00000000 
000004c0 l       .debug_str	00000000 
000004c9 l       .debug_str	00000000 
000004d0 l       .debug_str	00000000 
000004d8 l       .debug_str	00000000 
000004e0 l       .debug_str	00000000 
000004ea l       .debug_str	00000000 
000004f0 l       .debug_str	00000000 
000004f7 l       .debug_str	00000000 
000004fe l       .debug_str	00000000 
0000052b l       .debug_str	00000000 
00000560 l       .debug_str	00000000 
00000566 l       .debug_str	00000000 
0000056c l       .debug_str	00000000 
0000057b l       .debug_str	00000000 
0000058b l       .debug_str	00000000 
0000059b l       .debug_str	00000000 
000005a3 l       .debug_str	00000000 
000005cc l       .debug_str	00000000 
0000062a l       .debug_str	00000000 
00000690 l       .debug_str	00000000 
00000697 l       .debug_str	00000000 
0000069f l       .debug_str	00000000 
000006a8 l       .debug_str	00000000 
000006c6 l       .debug_str	00000000 
000006d6 l       .debug_str	00000000 
000006e4 l       .debug_str	00000000 
000006ef l       .debug_str	00000000 
000006fc l       .debug_str	00000000 
0000070b l       .debug_str	00000000 
00000721 l       .debug_str	00000000 
0000072b l       .debug_str	00000000 
00000734 l       .debug_str	00000000 
0000073d l       .debug_str	00000000 
00000763 l       .debug_str	00000000 
00000779 l       .debug_str	00000000 
00000784 l       .debug_str	00000000 
0000079a l       .debug_str	00000000 
000007a2 l       .debug_str	00000000 
000007c3 l       .debug_str	00000000 
000007da l       .debug_str	00000000 
000007df l       .debug_str	00000000 
000007e7 l       .debug_str	00000000 
000007f0 l       .debug_str	00000000 
000007f9 l       .debug_str	00000000 
00000802 l       .debug_str	00000000 
0000080a l       .debug_str	00000000 
0000080e l       .debug_str	00000000 
00000815 l       .debug_str	00000000 
00000821 l       .debug_str	00000000 
0000082c l       .debug_str	00000000 
00000834 l       .debug_str	00000000 
0000083c l       .debug_str	00000000 
00000866 l       .debug_str	00000000 
000008e2 l       .debug_str	00000000 
00000966 l       .debug_str	00000000 
00000a62 l       .debug_str	00000000 
00000b66 l       .debug_str	00000000 
00000b74 l       .debug_str	00000000 
00000b7f l       .debug_str	00000000 
00000b89 l       .debug_str	00000000 
00000b9d l       .debug_str	00000000 
00000ba8 l       .debug_str	00000000 
00000bd6 l       .debug_str	00000000 
00000c51 l       .debug_str	00000000 
00000cd4 l       .debug_str	00000000 
00000ce2 l       .debug_str	00000000 
00000d41 l       .debug_str	00000000 
00000da8 l       .debug_str	00000000 
00000dbe l       .debug_str	00000000 
00000dce l       .debug_str	00000000 
00000ddd l       .debug_str	00000000 
00000de1 l       .debug_str	00000000 
00000de8 l       .debug_str	00000000 
00000dee l       .debug_str	00000000 
00000df2 l       .debug_str	00000000 
00000df8 l       .debug_str	00000000 
00000dfe l       .debug_str	00000000 
00000e0a l       .debug_str	00000000 
00000e12 l       .debug_str	00000000 
00000e18 l       .debug_str	00000000 
00000e20 l       .debug_str	00000000 
00000e26 l       .debug_str	00000000 
00000e49 l       .debug_str	00000000 
00000e59 l       .debug_str	00000000 
00000e8c l       .debug_str	00000000 
00000ecc l       .debug_str	00000000 
00000f14 l       .debug_str	00000000 
00000f18 l       .debug_str	00000000 
00000f1e l       .debug_str	00000000 
00000f24 l       .debug_str	00000000 
00000f2a l       .debug_str	00000000 
00000f3c l       .debug_str	00000000 
00000f71 l       .debug_str	00000000 
00000fb3 l       .debug_str	00000000 
00000ffd l       .debug_str	00000000 
00001001 l       .debug_str	00000000 
00001007 l       .debug_str	00000000 
0000100d l       .debug_str	00000000 
00001013 l       .debug_str	00000000 
00001025 l       .debug_str	00000000 
0000105a l       .debug_str	00000000 
0000109c l       .debug_str	00000000 
000010e6 l       .debug_str	00000000 
000010ea l       .debug_str	00000000 
000010f0 l       .debug_str	00000000 
000010f6 l       .debug_str	00000000 
000010fc l       .debug_str	00000000 
00001102 l       .debug_str	00000000 
00001113 l       .debug_str	00000000 
00001147 l       .debug_str	00000000 
00001188 l       .debug_str	00000000 
000011d1 l       .debug_str	00000000 
000011d6 l       .debug_str	00000000 
000011db l       .debug_str	00000000 
000011df l       .debug_str	00000000 
000011e5 l       .debug_str	00000000 
000011eb l       .debug_str	00000000 
000011f1 l       .debug_str	00000000 
00001202 l       .debug_str	00000000 
00001236 l       .debug_str	00000000 
00001277 l       .debug_str	00000000 
000012c0 l       .debug_str	00000000 
000012c4 l       .debug_str	00000000 
000012cd l       .debug_str	00000000 
000012de l       .debug_str	00000000 
00001312 l       .debug_str	00000000 
00001353 l       .debug_str	00000000 
0000139c l       .debug_str	00000000 
000013a1 l       .debug_str	00000000 
000013a5 l       .debug_str	00000000 
000013ae l       .debug_str	00000000 
000013b5 l       .debug_str	00000000 
000013bd l       .debug_str	00000000 
000013cf l       .debug_str	00000000 
00001404 l       .debug_str	00000000 
00001446 l       .debug_str	00000000 
00001490 l       .debug_str	00000000 
00001494 l       .debug_str	00000000 
0000149a l       .debug_str	00000000 
000014a0 l       .debug_str	00000000 
000014a6 l       .debug_str	00000000 
000014ac l       .debug_str	00000000 
000014b4 l       .debug_str	00000000 
000014c2 l       .debug_str	00000000 
000014d1 l       .debug_str	00000000 
000014e2 l       .debug_str	00000000 
000014ed l       .debug_str	00000000 
000014f8 l       .debug_str	00000000 
00001503 l       .debug_str	00000000 
0000150a l       .debug_str	00000000 
0000152d l       .debug_str	00000000 
0000153f l       .debug_str	00000000 
00001574 l       .debug_str	00000000 
000015b6 l       .debug_str	00000000 
00001600 l       .debug_str	00000000 
00001604 l       .debug_str	00000000 
0000160e l       .debug_str	00000000 
00001620 l       .debug_str	00000000 
00001655 l       .debug_str	00000000 
00001697 l       .debug_str	00000000 
000016e1 l       .debug_str	00000000 
000016e6 l       .debug_str	00000000 
000016f0 l       .debug_str	00000000 
00001702 l       .debug_str	00000000 
00001737 l       .debug_str	00000000 
00001779 l       .debug_str	00000000 
000017c3 l       .debug_str	00000000 
000017d7 l       .debug_str	00000000 
000017db l       .debug_str	00000000 
000017e9 l       .debug_str	00000000 
000017f9 l       .debug_str	00000000 
00001802 l       .debug_str	00000000 
0000180d l       .debug_str	00000000 
0000181c l       .debug_str	00000000 
00001831 l       .debug_str	00000000 
00001862 l       .debug_str	00000000 
000018ff l       .debug_str	00000000 
000019a4 l       .debug_str	00000000 
000019af l       .debug_str	00000000 
000019b8 l       .debug_str	00000000 
000019d9 l       .debug_str	00000000 
000019ec l       .debug_str	00000000 
00001a22 l       .debug_str	00000000 
00001aa5 l       .debug_str	00000000 
00001b30 l       .debug_str	00000000 
00001b4c l       .debug_str	00000000 
00001bec l       .debug_str	00000000 
00001c09 l       .debug_str	00000000 
00001c1d l       .debug_str	00000000 
00001c69 l       .debug_str	00000000 
00001cbd l       .debug_str	00000000 
00001cd3 l       .debug_str	00000000 
00001ce7 l       .debug_str	00000000 
00001d2e l       .debug_str	00000000 
00001d7d l       .debug_str	00000000 
00001d86 l       .debug_str	00000000 
00001d94 l       .debug_str	00000000 
00001dc5 l       .debug_str	00000000 
00001dcb l       .debug_str	00000000 
00001dd3 l       .debug_str	00000000 
00001dda l       .debug_str	00000000 
00001de2 l       .debug_str	00000000 
00001ded l       .debug_str	00000000 
00001df5 l       .debug_str	00000000 
00001e04 l       .debug_str	00000000 
00001e08 l       .debug_str	00000000 
00001e13 l       .debug_str	00000000 
00001e1f l       .debug_str	00000000 
00001e2a l       .debug_str	00000000 
00001e3b l       .debug_str	00000000 
00001e41 l       .debug_str	00000000 
00001e49 l       .debug_str	00000000 
00001e50 l       .debug_str	00000000 
00001e5a l       .debug_str	00000000 
00001e62 l       .debug_str	00000000 
00001e6a l       .debug_str	00000000 
00001e8c l       .debug_str	00000000 
00001e97 l       .debug_str	00000000 
00001ea3 l       .debug_str	00000000 
00001eab l       .debug_str	00000000 
00001eb4 l       .debug_str	00000000 
00001ebf l       .debug_str	00000000 
00001ec6 l       .debug_str	00000000 
00001ed1 l       .debug_str	00000000 
00001edc l       .debug_str	00000000 
00001eec l       .debug_str	00000000 
00001ef6 l       .debug_str	00000000 
00001efc l       .debug_str	00000000 
00001f1e l       .debug_str	00000000 
00001f56 l       .debug_str	00000000 
00001f96 l       .debug_str	00000000 
00001f9d l       .debug_str	00000000 
00001fa5 l       .debug_str	00000000 
00001fbc l       .debug_str	00000000 
00001fc5 l       .debug_str	00000000 
00001fd5 l       .debug_str	00000000 
00001fe4 l       .debug_str	00000000 
00001fec l       .debug_str	00000000 
00001ff3 l       .debug_str	00000000 
00001ffb l       .debug_str	00000000 
00002019 l       .debug_str	00000000 
00002029 l       .debug_str	00000000 
0000205c l       .debug_str	00000000 
00002071 l       .debug_str	00000000 
0000207a l       .debug_str	00000000 
000020d7 l       .debug_str	00000000 
0000213c l       .debug_str	00000000 
00002146 l       .debug_str	00000000 
00002156 l       .debug_str	00000000 
0000216b l       .debug_str	00000000 
00002173 l       .debug_str	00000000 
000021d7 l       .debug_str	00000000 
00002243 l       .debug_str	00000000 
0000224a l       .debug_str	00000000 
00002252 l       .debug_str	00000000 
00002270 l       .debug_str	00000000 
00002280 l       .debug_str	00000000 
000022b3 l       .debug_str	00000000 
00000000 l    d  .text._ZN4core3ptr8null_mut17h77c2d0fe6651650cE	00000000 .text._ZN4core3ptr8null_mut17h77c2d0fe6651650cE
00000000 l    d  .debug_abbrev	00000000 .debug_abbrev
00000000 l    d  .debug_info	00000000 .debug_info
00000000 l    d  .debug_frame	00000000 .debug_frame
00000000 l    d  .debug_line	00000000 .debug_line
00000000 g     F .text._ZN4core3ptr8null_mut17h77c2d0fe6651650cE	00000004 _ZN4core3ptr8null_mut17h77c2d0fe6651650cE



Disassembly of section .text._ZN4core3ptr8null_mut17h77c2d0fe6651650cE:

00000000 <_ZN4core3ptr8null_mut17h77c2d0fe6651650cE>:
_ZN4core3ptr8null_mut17h77c2d0fe6651650cE():
/rustc/50a0defd5a93523067ef239936cc2e0755220904/src/libcore/ptr.rs:229
   0:	2000      	movs	r0, #0
   2:	4770      	bx	lr

app-b90ce02d7e477c3f.1av89fbqeepl6rg1.rcgu.o:     file format elf32-littlearm

SYMBOL TABLE:
00000000 l    df *ABS*	00000000 1av89fbqeepl6rg1
000000e7 l       .debug_str	00000000 
000000ef l       .debug_str	00000000 
000000f4 l       .debug_str	00000000 
00000000 l       .debug_str	00000000 
00000041 l       .debug_str	00000000 
00000055 l       .debug_str	00000000 
00000085 l       .debug_str	00000000 
00000089 l       .debug_str	00000000 
00000094 l       .debug_str	00000000 
000000a2 l       .debug_str	00000000 
000000a9 l       .debug_str	00000000 
000000ad l       .debug_str	00000000 
000000b0 l       .debug_str	00000000 
000000b8 l       .debug_str	00000000 
000000bc l       .debug_str	00000000 
000000c5 l       .debug_str	00000000 
000000cf l       .debug_str	00000000 
000000d6 l       .debug_str	00000000 
000000dc l       .debug_str	00000000 
000000e2 l       .debug_str	00000000 
00000000 l     O .rodata._ZN3app10app_sensor13SENSOR_DEVICE17hefbfbc9c9146f744E	0000000c _ZN3app10app_sensor13SENSOR_DEVICE17hefbfbc9c9146f744E
00000000 l    d  .rodata..Lanon.d41d8cd98f00b204e9800998ecf8427e.0	00000000 .rodata..Lanon.d41d8cd98f00b204e9800998ecf8427e.0
00000000 l    d  .rodata._ZN3app10app_sensor13SENSOR_DEVICE17hefbfbc9c9146f744E	00000000 .rodata._ZN3app10app_sensor13SENSOR_DEVICE17hefbfbc9c9146f744E
00000000 l    d  .debug_abbrev	00000000 .debug_abbrev
00000000 l    d  .debug_info	00000000 .debug_info
00000000 l    d  .debug_line	00000000 .debug_line



app-b90ce02d7e477c3f.29cfty5pwckdmq5t.rcgu.o:     file format elf32-littlearm

SYMBOL TABLE:
00000000 l    df *ABS*	00000000 29cfty5pwckdmq5t
000002b9 l       .debug_str	00000000 
000003d6 l       .debug_str	00000000 
000003e1 l       .debug_str	00000000 
000003fe l       .debug_str	00000000 
00000417 l       .debug_str	00000000 
00000421 l       .debug_str	00000000 
00000453 l       .debug_str	00000000 
00000000 l       .debug_str	00000000 
00000041 l       .debug_str	00000000 
00000055 l       .debug_str	00000000 
00000085 l       .debug_str	00000000 
0000008a l       .debug_str	00000000 
0000008e l       .debug_str	00000000 
00000091 l       .debug_str	00000000 
00000094 l       .debug_str	00000000 
00000097 l       .debug_str	00000000 
0000009c l       .debug_str	00000000 
000000a2 l       .debug_str	00000000 
000000a9 l       .debug_str	00000000 
000000b1 l       .debug_str	00000000 
000000bb l       .debug_str	00000000 
000000c2 l       .debug_str	00000000 
000000c5 l       .debug_str	00000000 
000000c9 l       .debug_str	00000000 
000000d0 l       .debug_str	00000000 
000000d7 l       .debug_str	00000000 
000000e0 l       .debug_str	00000000 
000000ea l       .debug_str	00000000 
000000f1 l       .debug_str	00000000 
000000f7 l       .debug_str	00000000 
000000fc l       .debug_str	00000000 
00000108 l       .debug_str	00000000 
00000110 l       .debug_str	00000000 
00000117 l       .debug_str	00000000 
0000011b l       .debug_str	00000000 
00000120 l       .debug_str	00000000 
00000129 l       .debug_str	00000000 
0000012e l       .debug_str	00000000 
00000131 l       .debug_str	00000000 
00000135 l       .debug_str	00000000 
0000013e l       .debug_str	00000000 
00000145 l       .debug_str	00000000 
0000014a l       .debug_str	00000000 
0000014f l       .debug_str	00000000 
00000155 l       .debug_str	00000000 
0000015b l       .debug_str	00000000 
00000165 l       .debug_str	00000000 
00000168 l       .debug_str	00000000 
0000016e l       .debug_str	00000000 
00000178 l       .debug_str	00000000 
00000180 l       .debug_str	00000000 
00000186 l       .debug_str	00000000 
0000018c l       .debug_str	00000000 
00000197 l       .debug_str	00000000 
000001a0 l       .debug_str	00000000 
000001c3 l       .debug_str	00000000 
000001e2 l       .debug_str	00000000 
000001e4 l       .debug_str	00000000 
000001e9 l       .debug_str	00000000 
00000210 l       .debug_str	00000000 
00000215 l       .debug_str	00000000 
0000021b l       .debug_str	00000000 
00000221 l       .debug_str	00000000 
00000224 l       .debug_str	00000000 
00000233 l       .debug_str	00000000 
0000023a l       .debug_str	00000000 
0000023e l       .debug_str	00000000 
00000247 l       .debug_str	00000000 
0000024f l       .debug_str	00000000 
00000257 l       .debug_str	00000000 
0000025e l       .debug_str	00000000 
00000272 l       .debug_str	00000000 
0000027e l       .debug_str	00000000 
0000028a l       .debug_str	00000000 
000002a3 l       .debug_str	00000000 
000002a8 l       .debug_str	00000000 
000002c3 l       .debug_str	00000000 
000002d1 l       .debug_str	00000000 
000002d5 l       .debug_str	00000000 
000002e0 l       .debug_str	00000000 
000002e7 l       .debug_str	00000000 
000002ed l       .debug_str	00000000 
000002f1 l       .debug_str	00000000 
000002f5 l       .debug_str	00000000 
000002fd l       .debug_str	00000000 
00000314 l       .debug_str	00000000 
00000338 l       .debug_str	00000000 
00000354 l       .debug_str	00000000 
0000035e l       .debug_str	00000000 
00000378 l       .debug_str	00000000 
00000000 l    d  .text._ZN4core3fmt9Arguments6new_v117hc2d8281224709357E	00000000 .text._ZN4core3fmt9Arguments6new_v117hc2d8281224709357E
00000000 l    d  .debug_abbrev	00000000 .debug_abbrev
00000000 l    d  .debug_info	00000000 .debug_info
00000000 l    d  .debug_frame	00000000 .debug_frame
00000000 l    d  .debug_line	00000000 .debug_line
00000000 g     F .text._ZN4core3fmt9Arguments6new_v117hc2d8281224709357E	0000004c .hidden _ZN4core3fmt9Arguments6new_v117hc2d8281224709357E



Disassembly of section .text._ZN4core3fmt9Arguments6new_v117hc2d8281224709357E:

00000000 <_ZN4core3fmt9Arguments6new_v117hc2d8281224709357E>:
_ZN4core3fmt9Arguments6new_v117hc2d8281224709357E():
/rustc/50a0defd5a93523067ef239936cc2e0755220904/src/libcore/fmt/mod.rs:314
   0:	b570      	push	{r4, r5, r6, lr}
   2:	b08a      	sub	sp, #40	; 0x28
   4:	f8dd c038 	ldr.w	ip, [sp, #56]	; 0x38
   8:	469e      	mov	lr, r3
   a:	4614      	mov	r4, r2
   c:	460d      	mov	r5, r1
   e:	4606      	mov	r6, r0
  10:	9104      	str	r1, [sp, #16]
  12:	9205      	str	r2, [sp, #20]
  14:	9306      	str	r3, [sp, #24]
  16:	f8cd c01c 	str.w	ip, [sp, #28]
/rustc/50a0defd5a93523067ef239936cc2e0755220904/src/libcore/fmt/mod.rs:317
  1a:	9904      	ldr	r1, [sp, #16]
  1c:	9a05      	ldr	r2, [sp, #20]
  1e:	2300      	movs	r3, #0
/rustc/50a0defd5a93523067ef239936cc2e0755220904/src/libcore/fmt/mod.rs:318
  20:	9309      	str	r3, [sp, #36]	; 0x24
  22:	9308      	str	r3, [sp, #32]
  24:	9308      	str	r3, [sp, #32]
/rustc/50a0defd5a93523067ef239936cc2e0755220904/src/libcore/fmt/mod.rs:319
  26:	9b06      	ldr	r3, [sp, #24]
  28:	f8dd c01c 	ldr.w	ip, [sp, #28]
/rustc/50a0defd5a93523067ef239936cc2e0755220904/src/libcore/fmt/mod.rs:316
  2c:	6001      	str	r1, [r0, #0]
  2e:	6042      	str	r2, [r0, #4]
  30:	9908      	ldr	r1, [sp, #32]
  32:	9a09      	ldr	r2, [sp, #36]	; 0x24
  34:	6081      	str	r1, [r0, #8]
  36:	60c2      	str	r2, [r0, #12]
  38:	6103      	str	r3, [r0, #16]
  3a:	f8c0 c014 	str.w	ip, [r0, #20]
/rustc/50a0defd5a93523067ef239936cc2e0755220904/src/libcore/fmt/mod.rs:321
  3e:	f8cd e00c 	str.w	lr, [sp, #12]
  42:	9402      	str	r4, [sp, #8]
  44:	9501      	str	r5, [sp, #4]
  46:	9600      	str	r6, [sp, #0]
  48:	b00a      	add	sp, #40	; 0x28
  4a:	bd70      	pop	{r4, r5, r6, pc}

app-b90ce02d7e477c3f.387fyplfnkxh0j64.rcgu.o:     file format elf32-littlearm

SYMBOL TABLE:
00000000 l    df *ABS*	00000000 387fyplfnkxh0j64
000001cb l       .debug_str	00000000 
00000000 l       .debug_str	00000000 
00000041 l       .debug_str	00000000 
00000055 l       .debug_str	00000000 
00000085 l       .debug_str	00000000 
0000008c l       .debug_str	00000000 
00000093 l       .debug_str	00000000 
00000097 l       .debug_str	00000000 
0000009f l       .debug_str	00000000 
000000aa l       .debug_str	00000000 
000000b5 l       .debug_str	00000000 
000000c2 l       .debug_str	00000000 
000001ed l       .debug_str	00000000 
000000cd l       .debug_str	00000000 
000000d5 l       .debug_str	00000000 
000000e0 l       .debug_str	00000000 
000000eb l       .debug_str	00000000 
000000f5 l       .debug_str	00000000 
00000100 l       .debug_str	00000000 
0000010b l       .debug_str	00000000 
00000118 l       .debug_str	00000000 
00000124 l       .debug_str	00000000 
00000131 l       .debug_str	00000000 
0000013f l       .debug_str	00000000 
00000149 l       .debug_str	00000000 
00000156 l       .debug_str	00000000 
00000162 l       .debug_str	00000000 
00000167 l       .debug_str	00000000 
0000016f l       .debug_str	00000000 
00000178 l       .debug_str	00000000 
0000017a l       .debug_str	00000000 
00000000 l    d  .text._ZN50_$LT$T$u20$as$u20$core..convert..From$LT$T$GT$$GT$4from17h4bfa181a78946fa0E	00000000 .text._ZN50_$LT$T$u20$as$u20$core..convert..From$LT$T$GT$$GT$4from17h4bfa181a78946fa0E
00000000 l    d  .debug_abbrev	00000000 .debug_abbrev
00000000 l    d  .debug_info	00000000 .debug_info
00000000 l    d  .debug_frame	00000000 .debug_frame
00000000 l    d  .debug_line	00000000 .debug_line
00000000 g     F .text._ZN50_$LT$T$u20$as$u20$core..convert..From$LT$T$GT$$GT$4from17h4bfa181a78946fa0E	0000000e _ZN50_$LT$T$u20$as$u20$core..convert..From$LT$T$GT$$GT$4from17h4bfa181a78946fa0E



Disassembly of section .text._ZN50_$LT$T$u20$as$u20$core..convert..From$LT$T$GT$$GT$4from17h4bfa181a78946fa0E:

00000000 <_ZN50_$LT$T$u20$as$u20$core..convert..From$LT$T$GT$$GT$4from17h4bfa181a78946fa0E>:
_ZN50_$LT$T$u20$as$u20$core..convert..From$LT$T$GT$$GT$4from17h4bfa181a78946fa0E():
/rustc/50a0defd5a93523067ef239936cc2e0755220904/src/libcore/convert.rs:547
   0:	b082      	sub	sp, #8
   2:	4601      	mov	r1, r0
   4:	9001      	str	r0, [sp, #4]
   6:	9801      	ldr	r0, [sp, #4]
   8:	9100      	str	r1, [sp, #0]
   a:	b002      	add	sp, #8
   c:	4770      	bx	lr

app-b90ce02d7e477c3f.4dkwsijwq614g9b5.rcgu.o:     file format elf32-littlearm

SYMBOL TABLE:
00000000 l    df *ABS*	00000000 4dkwsijwq614g9b5
0000224c l       .debug_str	00000000 
00002820 l       .debug_str	00000000 
00002826 l       .debug_str	00000000 
00002830 l       .debug_str	00000000 
00002833 l       .debug_str	00000000 
00002839 l       .debug_str	00000000 
00002843 l       .debug_str	00000000 
0000284b l       .debug_str	00000000 
00002851 l       .debug_str	00000000 
00002857 l       .debug_str	00000000 
00002862 l       .debug_str	00000000 
0000286b l       .debug_str	00000000 
0000288e l       .debug_str	00000000 
000028ad l       .debug_str	00000000 
000028d4 l       .debug_str	00000000 
000028d9 l       .debug_str	00000000 
000028df l       .debug_str	00000000 
000028ee l       .debug_str	00000000 
000028f2 l       .debug_str	00000000 
000028fb l       .debug_str	00000000 
00002903 l       .debug_str	00000000 
0000290b l       .debug_str	00000000 
00002912 l       .debug_str	00000000 
0000291e l       .debug_str	00000000 
0000292a l       .debug_str	00000000 
00002943 l       .debug_str	00000000 
00002948 l       .debug_str	00000000 
00002959 l       .debug_str	00000000 
00002963 l       .debug_str	00000000 
00002971 l       .debug_str	00000000 
00002975 l       .debug_str	00000000 
00002980 l       .debug_str	00000000 
00002987 l       .debug_str	00000000 
0000298d l       .debug_str	00000000 
00002991 l       .debug_str	00000000 
00002995 l       .debug_str	00000000 
0000299d l       .debug_str	00000000 
000029b4 l       .debug_str	00000000 
000029d8 l       .debug_str	00000000 
000029f4 l       .debug_str	00000000 
000029fe l       .debug_str	00000000 
00002a18 l       .debug_str	00000000 
00002a76 l       .debug_str	00000000 
00002a81 l       .debug_str	00000000 
00002a9e l       .debug_str	00000000 
00002ab7 l       .debug_str	00000000 
00002ac1 l       .debug_str	00000000 
00000000 l       .debug_str	00000000 
00000041 l       .debug_str	00000000 
00000055 l       .debug_str	00000000 
00000085 l       .debug_str	00000000 
00000089 l       .debug_str	00000000 
00000094 l       .debug_str	00000000 
0000009f l       .debug_str	00000000 
000000a6 l       .debug_str	00000000 
000000aa l       .debug_str	00000000 
000000ad l       .debug_str	00000000 
000000b5 l       .debug_str	00000000 
000000b9 l       .debug_str	00000000 
000000c2 l       .debug_str	00000000 
000000cc l       .debug_str	00000000 
000000d3 l       .debug_str	00000000 
000000d9 l       .debug_str	00000000 
000000df l       .debug_str	00000000 
000000e4 l       .debug_str	00000000 
000000ec l       .debug_str	00000000 
000000f1 l       .debug_str	00000000 
00000125 l       .debug_str	00000000 
00000139 l       .debug_str	00000000 
0000013c l       .debug_str	00000000 
00000143 l       .debug_str	00000000 
00000147 l       .debug_str	00000000 
0000014c l       .debug_str	00000000 
00000151 l       .debug_str	00000000 
00000157 l       .debug_str	00000000 
0000015b l       .debug_str	00000000 
00000167 l       .debug_str	00000000 
00000170 l       .debug_str	00000000 
00000174 l       .debug_str	00000000 
0000017e l       .debug_str	00000000 
00000187 l       .debug_str	00000000 
00000197 l       .debug_str	00000000 
000001d4 l       .debug_str	00000000 
000001db l       .debug_str	00000000 
000001df l       .debug_str	00000000 
000001e7 l       .debug_str	00000000 
000001f2 l       .debug_str	00000000 
000001fd l       .debug_str	00000000 
0000020a l       .debug_str	00000000 
00000215 l       .debug_str	00000000 
0000021d l       .debug_str	00000000 
00000228 l       .debug_str	00000000 
00000233 l       .debug_str	00000000 
0000023d l       .debug_str	00000000 
00000248 l       .debug_str	00000000 
00000253 l       .debug_str	00000000 
00000260 l       .debug_str	00000000 
0000026c l       .debug_str	00000000 
00000279 l       .debug_str	00000000 
00000287 l       .debug_str	00000000 
00000291 l       .debug_str	00000000 
0000029e l       .debug_str	00000000 
000002aa l       .debug_str	00000000 
000002af l       .debug_str	00000000 
000002b3 l       .debug_str	00000000 
000002be l       .debug_str	00000000 
000002c9 l       .debug_str	00000000 
000002d0 l       .debug_str	00000000 
000002d4 l       .debug_str	00000000 
000002d7 l       .debug_str	00000000 
000002da l       .debug_str	00000000 
000002df l       .debug_str	00000000 
000002e5 l       .debug_str	00000000 
000002ec l       .debug_str	00000000 
000002f4 l       .debug_str	00000000 
000002fe l       .debug_str	00000000 
00000301 l       .debug_str	00000000 
00000305 l       .debug_str	00000000 
0000030c l       .debug_str	00000000 
00000348 l       .debug_str	00000000 
0000035b l       .debug_str	00000000 
0000035e l       .debug_str	00000000 
00000360 l       .debug_str	00000000 
00000362 l       .debug_str	00000000 
0000038a l       .debug_str	00000000 
000003c3 l       .debug_str	00000000 
000003d3 l       .debug_str	00000000 
0000040d l       .debug_str	00000000 
0000041e l       .debug_str	00000000 
00000422 l       .debug_str	00000000 
00000430 l       .debug_str	00000000 
00000436 l       .debug_str	00000000 
0000043a l       .debug_str	00000000 
00000446 l       .debug_str	00000000 
00000485 l       .debug_str	00000000 
0000049b l       .debug_str	00000000 
000004a4 l       .debug_str	00000000 
000004aa l       .debug_str	00000000 
000004b1 l       .debug_str	00000000 
000004b4 l       .debug_str	00000000 
000004c0 l       .debug_str	00000000 
000004c8 l       .debug_str	00000000 
000004cf l       .debug_str	00000000 
000004e6 l       .debug_str	00000000 
00000540 l       .debug_str	00000000 
00000545 l       .debug_str	00000000 
000005a7 l       .debug_str	00000000 
000005b2 l       .debug_str	00000000 
000005f9 l       .debug_str	00000000 
00000648 l       .debug_str	00000000 
00000652 l       .debug_str	00000000 
0000068f l       .debug_str	00000000 
000006d4 l       .debug_str	00000000 
000006dd l       .debug_str	00000000 
000006ed l       .debug_str	00000000 
000006f5 l       .debug_str	00000000 
0000074a l       .debug_str	00000000 
000007a7 l       .debug_str	00000000 
000007b3 l       .debug_str	00000000 
000007bc l       .debug_str	00000000 
000007c8 l       .debug_str	00000000 
000007d4 l       .debug_str	00000000 
000007dd l       .debug_str	00000000 
000007e5 l       .debug_str	00000000 
000007ed l       .debug_str	00000000 
000007f7 l       .debug_str	00000000 
0000080c l       .debug_str	00000000 
00000813 l       .debug_str	00000000 
00000833 l       .debug_str	00000000 
0000083a l       .debug_str	00000000 
00000842 l       .debug_str	00000000 
0000084c l       .debug_str	00000000 
00000857 l       .debug_str	00000000 
00000860 l       .debug_str	00000000 
0000086b l       .debug_str	00000000 
00000877 l       .debug_str	00000000 
0000087b l       .debug_str	00000000 
00000884 l       .debug_str	00000000 
0000088b l       .debug_str	00000000 
00000893 l       .debug_str	00000000 
0000089b l       .debug_str	00000000 
000008a5 l       .debug_str	00000000 
000008ab l       .debug_str	00000000 
000008b2 l       .debug_str	00000000 
000008b9 l       .debug_str	00000000 
000008e6 l       .debug_str	00000000 
0000091b l       .debug_str	00000000 
00000921 l       .debug_str	00000000 
00000927 l       .debug_str	00000000 
00000936 l       .debug_str	00000000 
00000946 l       .debug_str	00000000 
00000956 l       .debug_str	00000000 
0000095e l       .debug_str	00000000 
00000987 l       .debug_str	00000000 
000009e5 l       .debug_str	00000000 
00000a4b l       .debug_str	00000000 
00000a52 l       .debug_str	00000000 
00000a5a l       .debug_str	00000000 
00000a63 l       .debug_str	00000000 
00000a81 l       .debug_str	00000000 
00000a91 l       .debug_str	00000000 
00000a9f l       .debug_str	00000000 
00000aaa l       .debug_str	00000000 
00000ab7 l       .debug_str	00000000 
00000ac6 l       .debug_str	00000000 
00000adc l       .debug_str	00000000 
00000ae6 l       .debug_str	00000000 
00000aef l       .debug_str	00000000 
00000af8 l       .debug_str	00000000 
00000b1e l       .debug_str	00000000 
00000b34 l       .debug_str	00000000 
00000b3f l       .debug_str	00000000 
00000b55 l       .debug_str	00000000 
00000b5d l       .debug_str	00000000 
00000b7e l       .debug_str	00000000 
00000b95 l       .debug_str	00000000 
00000b9a l       .debug_str	00000000 
00000ba2 l       .debug_str	00000000 
00000bab l       .debug_str	00000000 
00000bb4 l       .debug_str	00000000 
00000bbd l       .debug_str	00000000 
00000bc5 l       .debug_str	00000000 
00000bc9 l       .debug_str	00000000 
00000bd0 l       .debug_str	00000000 
00000bdc l       .debug_str	00000000 
00000be7 l       .debug_str	00000000 
00000bef l       .debug_str	00000000 
00000bf7 l       .debug_str	00000000 
00000c73 l       .debug_str	00000000 
00000cf7 l       .debug_str	00000000 
00000df3 l       .debug_str	00000000 
00000ef7 l       .debug_str	00000000 
00000f05 l       .debug_str	00000000 
00000f10 l       .debug_str	00000000 
00000f1a l       .debug_str	00000000 
00000f2e l       .debug_str	00000000 
00000f39 l       .debug_str	00000000 
00000f67 l       .debug_str	00000000 
00000fe2 l       .debug_str	00000000 
00001065 l       .debug_str	00000000 
00001073 l       .debug_str	00000000 
000010d2 l       .debug_str	00000000 
00001139 l       .debug_str	00000000 
0000114f l       .debug_str	00000000 
0000115f l       .debug_str	00000000 
0000116e l       .debug_str	00000000 
00001172 l       .debug_str	00000000 
00001179 l       .debug_str	00000000 
0000117f l       .debug_str	00000000 
00001185 l       .debug_str	00000000 
0000118b l       .debug_str	00000000 
00001197 l       .debug_str	00000000 
0000119f l       .debug_str	00000000 
000011a5 l       .debug_str	00000000 
000011ad l       .debug_str	00000000 
000011b3 l       .debug_str	00000000 
000011d6 l       .debug_str	00000000 
000011e6 l       .debug_str	00000000 
00001219 l       .debug_str	00000000 
00001259 l       .debug_str	00000000 
000012a1 l       .debug_str	00000000 
000012a5 l       .debug_str	00000000 
000012ab l       .debug_str	00000000 
000012b1 l       .debug_str	00000000 
000012b7 l       .debug_str	00000000 
000012c9 l       .debug_str	00000000 
000012fe l       .debug_str	00000000 
00001340 l       .debug_str	00000000 
0000138a l       .debug_str	00000000 
0000138e l       .debug_str	00000000 
00001394 l       .debug_str	00000000 
0000139a l       .debug_str	00000000 
000013a0 l       .debug_str	00000000 
000013b2 l       .debug_str	00000000 
000013e7 l       .debug_str	00000000 
00001429 l       .debug_str	00000000 
00001473 l       .debug_str	00000000 
00001477 l       .debug_str	00000000 
0000147d l       .debug_str	00000000 
00001483 l       .debug_str	00000000 
00001489 l       .debug_str	00000000 
0000148f l       .debug_str	00000000 
000014a0 l       .debug_str	00000000 
000014d4 l       .debug_str	00000000 
00001515 l       .debug_str	00000000 
0000155e l       .debug_str	00000000 
00001563 l       .debug_str	00000000 
00001568 l       .debug_str	00000000 
0000156c l       .debug_str	00000000 
00001572 l       .debug_str	00000000 
00001578 l       .debug_str	00000000 
0000157e l       .debug_str	00000000 
0000158f l       .debug_str	00000000 
000015c3 l       .debug_str	00000000 
00001604 l       .debug_str	00000000 
0000164d l       .debug_str	00000000 
00001651 l       .debug_str	00000000 
0000165a l       .debug_str	00000000 
0000166b l       .debug_str	00000000 
0000169f l       .debug_str	00000000 
000016e0 l       .debug_str	00000000 
00001729 l       .debug_str	00000000 
0000172e l       .debug_str	00000000 
00001732 l       .debug_str	00000000 
0000173b l       .debug_str	00000000 
00001742 l       .debug_str	00000000 
0000174a l       .debug_str	00000000 
0000175c l       .debug_str	00000000 
00001791 l       .debug_str	00000000 
000017d3 l       .debug_str	00000000 
0000181d l       .debug_str	00000000 
00001821 l       .debug_str	00000000 
00001827 l       .debug_str	00000000 
0000182d l       .debug_str	00000000 
00001833 l       .debug_str	00000000 
00001839 l       .debug_str	00000000 
00001841 l       .debug_str	00000000 
0000184f l       .debug_str	00000000 
0000185e l       .debug_str	00000000 
0000186f l       .debug_str	00000000 
0000187a l       .debug_str	00000000 
00001885 l       .debug_str	00000000 
00001890 l       .debug_str	00000000 
00001897 l       .debug_str	00000000 
000018ba l       .debug_str	00000000 
000018cc l       .debug_str	00000000 
00001901 l       .debug_str	00000000 
00001943 l       .debug_str	00000000 
0000198d l       .debug_str	00000000 
00001991 l       .debug_str	00000000 
0000199b l       .debug_str	00000000 
000019ad l       .debug_str	00000000 
000019e2 l       .debug_str	00000000 
00001a24 l       .debug_str	00000000 
00001a6e l       .debug_str	00000000 
00001a73 l       .debug_str	00000000 
00001a7d l       .debug_str	00000000 
00001a8f l       .debug_str	00000000 
00001ac4 l       .debug_str	00000000 
00001b06 l       .debug_str	00000000 
00001b50 l       .debug_str	00000000 
00001b64 l       .debug_str	00000000 
00001b68 l       .debug_str	00000000 
00001b76 l       .debug_str	00000000 
00001b86 l       .debug_str	00000000 
00001b8f l       .debug_str	00000000 
00001b9a l       .debug_str	00000000 
00001ba9 l       .debug_str	00000000 
00001bbe l       .debug_str	00000000 
00001bef l       .debug_str	00000000 
00001c8c l       .debug_str	00000000 
00001d31 l       .debug_str	00000000 
00001d3c l       .debug_str	00000000 
00001d45 l       .debug_str	00000000 
00001d66 l       .debug_str	00000000 
00001d79 l       .debug_str	00000000 
00001daf l       .debug_str	00000000 
00001e32 l       .debug_str	00000000 
00001ebd l       .debug_str	00000000 
00001ed9 l       .debug_str	00000000 
00001f25 l       .debug_str	00000000 
00001f79 l       .debug_str	00000000 
00001f96 l       .debug_str	00000000 
00001faa l       .debug_str	00000000 
00001ff6 l       .debug_str	00000000 
0000204a l       .debug_str	00000000 
00002060 l       .debug_str	00000000 
00002074 l       .debug_str	00000000 
000020bb l       .debug_str	00000000 
0000210a l       .debug_str	00000000 
00002113 l       .debug_str	00000000 
00002121 l       .debug_str	00000000 
00002152 l       .debug_str	00000000 
00002158 l       .debug_str	00000000 
00002160 l       .debug_str	00000000 
00002167 l       .debug_str	00000000 
0000216f l       .debug_str	00000000 
0000217a l       .debug_str	00000000 
00002182 l       .debug_str	00000000 
00002191 l       .debug_str	00000000 
00002195 l       .debug_str	00000000 
000021a0 l       .debug_str	00000000 
000021ac l       .debug_str	00000000 
000021b7 l       .debug_str	00000000 
000021c8 l       .debug_str	00000000 
000021ce l       .debug_str	00000000 
000021d6 l       .debug_str	00000000 
000021dd l       .debug_str	00000000 
000021e7 l       .debug_str	00000000 
000021ef l       .debug_str	00000000 
000021f7 l       .debug_str	00000000 
00002219 l       .debug_str	00000000 
00002224 l       .debug_str	00000000 
00002230 l       .debug_str	00000000 
00002238 l       .debug_str	00000000 
00002241 l       .debug_str	00000000 
00002253 l       .debug_str	00000000 
0000225e l       .debug_str	00000000 
00002269 l       .debug_str	00000000 
00002279 l       .debug_str	00000000 
00002283 l       .debug_str	00000000 
00002289 l       .debug_str	00000000 
000022ab l       .debug_str	00000000 
000022e3 l       .debug_str	00000000 
00002323 l       .debug_str	00000000 
0000232a l       .debug_str	00000000 
00002332 l       .debug_str	00000000 
00002349 l       .debug_str	00000000 
00002352 l       .debug_str	00000000 
00002362 l       .debug_str	00000000 
00002371 l       .debug_str	00000000 
00002379 l       .debug_str	00000000 
00002380 l       .debug_str	00000000 
00002388 l       .debug_str	00000000 
000023a6 l       .debug_str	00000000 
000023b6 l       .debug_str	00000000 
000023e9 l       .debug_str	00000000 
000023fe l       .debug_str	00000000 
00002407 l       .debug_str	00000000 
00002464 l       .debug_str	00000000 
000024c9 l       .debug_str	00000000 
000024d3 l       .debug_str	00000000 
000024e3 l       .debug_str	00000000 
000024f8 l       .debug_str	00000000 
00002500 l       .debug_str	00000000 
00002564 l       .debug_str	00000000 
000025d0 l       .debug_str	00000000 
000025d7 l       .debug_str	00000000 
000025df l       .debug_str	00000000 
000025fd l       .debug_str	00000000 
0000260d l       .debug_str	00000000 
00002640 l       .debug_str	00000000 
00002655 l       .debug_str	00000000 
00002668 l       .debug_str	00000000 
0000267d l       .debug_str	00000000 
00002684 l       .debug_str	00000000 
00002699 l       .debug_str	00000000 
000026c3 l       .debug_str	00000000 
000026c7 l       .debug_str	00000000 
000026cb l       .debug_str	00000000 
000026d4 l       .debug_str	00000000 
000026d9 l       .debug_str	00000000 
000026e5 l       .debug_str	00000000 
000026f1 l       .debug_str	00000000 
000026fe l       .debug_str	00000000 
00002716 l       .debug_str	00000000 
00002722 l       .debug_str	00000000 
0000272f l       .debug_str	00000000 
0000273d l       .debug_str	00000000 
0000274a l       .debug_str	00000000 
00002760 l       .debug_str	00000000 
00002777 l       .debug_str	00000000 
0000278d l       .debug_str	00000000 
000027a5 l       .debug_str	00000000 
000027a8 l       .debug_str	00000000 
000027b1 l       .debug_str	00000000 
000027b6 l       .debug_str	00000000 
000027c0 l       .debug_str	00000000 
000027c5 l       .debug_str	00000000 
000027cb l       .debug_str	00000000 
000027d0 l       .debug_str	00000000 
000027d5 l       .debug_str	00000000 
000027dc l       .debug_str	00000000 
000027e1 l       .debug_str	00000000 
000027ed l       .debug_str	00000000 
000027f5 l       .debug_str	00000000 
000027fe l       .debug_str	00000000 
00002803 l       .debug_str	00000000 
00002806 l       .debug_str	00000000 
0000280f l       .debug_str	00000000 
00002816 l       .debug_str	00000000 
0000281b l       .debug_str	00000000 
00000000 l     O .rodata..Lanon.a1ce8d617669cf2f75141f25115b0b98.1	0000000e .Lanon.a1ce8d617669cf2f75141f25115b0b98.1
00000000 l     O .rodata..Lanon.a1ce8d617669cf2f75141f25115b0b98.10	00000007 .Lanon.a1ce8d617669cf2f75141f25115b0b98.10
00000000 l     O .rodata..Lanon.a1ce8d617669cf2f75141f25115b0b98.11	00000001 .Lanon.a1ce8d617669cf2f75141f25115b0b98.11
00000000 l     O .rodata..Lanon.a1ce8d617669cf2f75141f25115b0b98.12	00000014 .Lanon.a1ce8d617669cf2f75141f25115b0b98.12
00000000 l     O .rodata..Lanon.a1ce8d617669cf2f75141f25115b0b98.13	0000002a .Lanon.a1ce8d617669cf2f75141f25115b0b98.13
00000000 l     O .rodata..Lanon.a1ce8d617669cf2f75141f25115b0b98.15	0000000c .Lanon.a1ce8d617669cf2f75141f25115b0b98.15
00000000 l     O .rodata.cst4	00000004 .Lanon.a1ce8d617669cf2f75141f25115b0b98.16
00000000 l     O .rodata..Lanon.a1ce8d617669cf2f75141f25115b0b98.20	00000018 .Lanon.a1ce8d617669cf2f75141f25115b0b98.20
00000000 l     O .rodata..Lanon.a1ce8d617669cf2f75141f25115b0b98.22	00000008 .Lanon.a1ce8d617669cf2f75141f25115b0b98.22
00000000 l     O .rodata..Lanon.a1ce8d617669cf2f75141f25115b0b98.23	00000000 .Lanon.a1ce8d617669cf2f75141f25115b0b98.23
00000000 l     O .rodata..Lanon.a1ce8d617669cf2f75141f25115b0b98.24	00000010 .Lanon.a1ce8d617669cf2f75141f25115b0b98.24
00000000 l     O .rodata..Lanon.a1ce8d617669cf2f75141f25115b0b98.4	00000018 .Lanon.a1ce8d617669cf2f75141f25115b0b98.4
00000000 l     O .rodata..Lanon.a1ce8d617669cf2f75141f25115b0b98.5	0000001c .Lanon.a1ce8d617669cf2f75141f25115b0b98.5
00000000 l     O .rodata..Lanon.a1ce8d617669cf2f75141f25115b0b98.7	00000018 .Lanon.a1ce8d617669cf2f75141f25115b0b98.7
00000000 l     O .rodata..Lanon.a1ce8d617669cf2f75141f25115b0b98.8	0000000f .Lanon.a1ce8d617669cf2f75141f25115b0b98.8
00000000 l     O .rodata..Lanon.a1ce8d617669cf2f75141f25115b0b98.9	00000007 .Lanon.a1ce8d617669cf2f75141f25115b0b98.9
00000000 l     O .rodata._ZN3app10gps_sensor10GPS_DEVICE17h9632919ea1cd25c6E	0000000c _ZN3app10gps_sensor10GPS_DEVICE17h9632919ea1cd25c6E
00000000 l     F .text._ZN3app10gps_sensor15handle_gps_data17hd01302e5f121f8abE	00000150 _ZN3app10gps_sensor15handle_gps_data17hd01302e5f121f8abE
00000000 l     F .text._ZN3app10gps_sensor16convert_gps_data17hf450a47ae78a3fb6E	00000218 _ZN3app10gps_sensor16convert_gps_data17hf450a47ae78a3fb6E
00000000 l     O .bss._ZN3app10gps_sensor19current_geolocation17h201eee0a8ea0b8eeE	00000020 _ZN3app10gps_sensor19current_geolocation17h201eee0a8ea0b8eeE
00000000 l     F .text._ZN3app10gps_sensor21aggregate_sensor_data17h256211044f7d4fb3E	000000a2 _ZN3app10gps_sensor21aggregate_sensor_data17h256211044f7d4fb3E
00000000 l    d  .text._ZN3app10gps_sensor18start_gps_listener17h506d2223cd840063E	00000000 .text._ZN3app10gps_sensor18start_gps_listener17h506d2223cd840063E
00000000 l    d  .text._ZN3app10gps_sensor15handle_gps_data17hd01302e5f121f8abE	00000000 .text._ZN3app10gps_sensor15handle_gps_data17hd01302e5f121f8abE
00000000 l    d  .text._ZN3app10gps_sensor16convert_gps_data17hf450a47ae78a3fb6E	00000000 .text._ZN3app10gps_sensor16convert_gps_data17hf450a47ae78a3fb6E
00000000 l    d  .text._ZN3app10gps_sensor21aggregate_sensor_data17h256211044f7d4fb3E	00000000 .text._ZN3app10gps_sensor21aggregate_sensor_data17h256211044f7d4fb3E
00000000 l    d  .rodata..Lanon.a1ce8d617669cf2f75141f25115b0b98.0	00000000 .rodata..Lanon.a1ce8d617669cf2f75141f25115b0b98.0
00000000 l    d  .rodata._ZN3app10gps_sensor10GPS_DEVICE17h9632919ea1cd25c6E	00000000 .rodata._ZN3app10gps_sensor10GPS_DEVICE17h9632919ea1cd25c6E
00000000 l    d  .rodata..Lanon.a1ce8d617669cf2f75141f25115b0b98.2	00000000 .rodata..Lanon.a1ce8d617669cf2f75141f25115b0b98.2
00000000 l    d  .rodata..Lanon.a1ce8d617669cf2f75141f25115b0b98.3	00000000 .rodata..Lanon.a1ce8d617669cf2f75141f25115b0b98.3
00000000 l    d  .rodata..Lanon.a1ce8d617669cf2f75141f25115b0b98.6	00000000 .rodata..Lanon.a1ce8d617669cf2f75141f25115b0b98.6
00000000 l    d  .rodata..Lanon.a1ce8d617669cf2f75141f25115b0b98.14	00000000 .rodata..Lanon.a1ce8d617669cf2f75141f25115b0b98.14
00000000 l    d  .rodata..Lanon.a1ce8d617669cf2f75141f25115b0b98.17	00000000 .rodata..Lanon.a1ce8d617669cf2f75141f25115b0b98.17
00000000 l    d  .rodata..Lanon.a1ce8d617669cf2f75141f25115b0b98.18	00000000 .rodata..Lanon.a1ce8d617669cf2f75141f25115b0b98.18
00000000 l    d  .rodata..Lanon.a1ce8d617669cf2f75141f25115b0b98.19	00000000 .rodata..Lanon.a1ce8d617669cf2f75141f25115b0b98.19
00000000 l    d  .rodata..Lanon.a1ce8d617669cf2f75141f25115b0b98.21	00000000 .rodata..Lanon.a1ce8d617669cf2f75141f25115b0b98.21
00000000 l    d  .bss._ZN3app10gps_sensor19current_geolocation17h201eee0a8ea0b8eeE	00000000 .bss._ZN3app10gps_sensor19current_geolocation17h201eee0a8ea0b8eeE
00000000 l    d  .debug_loc	00000000 .debug_loc
00000000 l    d  .debug_abbrev	00000000 .debug_abbrev
00000000 l    d  .debug_info	00000000 .debug_info
00000000 l    d  .debug_ranges	00000000 .debug_ranges
00000000 l    d  .debug_frame	00000000 .debug_frame
00000000 l    d  .debug_line	00000000 .debug_line
00000000 g     F .text._ZN3app10gps_sensor18start_gps_listener17h506d2223cd840063E	0000018c .hidden _ZN3app10gps_sensor18start_gps_listener17h506d2223cd840063E
00000000         *UND*	00000000 _ZN42_$LT$$RF$T$u20$as$u20$core..fmt..Debug$GT$3fmt17h2a30ce0f4e55b06fE
00000000         *UND*	00000000 _ZN4core3fmt10ArgumentV13new17h77e41a362c8b7a28E
00000000         *UND*	00000000 _ZN4core3fmt10ArgumentV13new17ha911407dafd615aaE
00000000         *UND*	00000000 .hidden _ZN4core3fmt9Arguments6new_v117hc2d8281224709357E
00000000         *UND*	00000000 _ZN4core3ptr31_$LT$impl$u20$$BP$mut$u20$T$GT$7is_null17h80b6c30939e62171E
00000000         *UND*	00000000 _ZN4core3ptr31_$LT$impl$u20$$BP$mut$u20$T$GT$7is_null17hcb61da1d9a7f9d5bE
00000000         *UND*	00000000 _ZN4core3ptr8null_mut17h77c2d0fe6651650cE
00000000         *UND*	00000000 _ZN4core9panicking5panic17h53ca63c6ac6312f8E
00000000         *UND*	00000000 _ZN4core9panicking9panic_fmt17h6b4d8e87b0965449E
00000000         *UND*	00000000 _ZN50_$LT$T$u20$as$u20$core..convert..From$LT$T$GT$$GT$4from17h4bfa181a78946fa0E
00000000         *UND*	00000000 _ZN59_$LT$core..fmt..Arguments$u20$as$u20$core..fmt..Display$GT$3fmt17h3e269ca172b8335aE
00000000         *UND*	00000000 _ZN6mynewt2hw6sensor10as_untyped17h2092c0ad7af74b6bE
00000000         *UND*	00000000 _ZN6mynewt2hw6sensor17register_listener17h17ebbfb47266c768E
00000000         *UND*	00000000 _ZN6mynewt2hw6sensor8bindings16set_poll_rate_ms17h554be26f45a098a1E
00000000         *UND*	00000000 _ZN6mynewt2hw6sensor8bindings23mgr_find_next_bydevname17h1885e7d2ce4be516E
00000000         *UND*	00000000 _ZN6mynewt3sys7console10printfloat17hee7bbe9075bdc4a2E
00000000         *UND*	00000000 _ZN6mynewt3sys7console11printdouble17hd1281c9ee5c89250E
00000000         *UND*	00000000 _ZN6mynewt3sys7console5flush17h498d792c115b7281E
00000000         *UND*	00000000 _ZN6mynewt3sys7console5print17h0f65bc3b0e739871E
00000000         *UND*	00000000 _ZN73_$LT$core..result..Result$LT$T$C$E$GT$$u20$as$u20$core..ops..try..Try$GT$10from_error17h6d3955e1a79eef94E
00000000         *UND*	00000000 _ZN73_$LT$core..result..Result$LT$T$C$E$GT$$u20$as$u20$core..ops..try..Try$GT$11into_result17h00bf1b57699326cfE
00000000         *UND*	00000000 _ZN73_$LT$core..result..Result$LT$T$C$E$GT$$u20$as$u20$core..ops..try..Try$GT$11into_result17h2548a31748257156E
00000000         *UND*	00000000 __aeabi_d2f
00000000         *UND*	00000000 __aeabi_memcpy
00000000         *UND*	00000000 __aeabi_memcpy8
00000000         *UND*	00000000 get_geolocation_data



Disassembly of section .text._ZN3app10gps_sensor18start_gps_listener17h506d2223cd840063E:

00000000 <_ZN3app10gps_sensor18start_gps_listener17h506d2223cd840063E>:
_ZN3app10gps_sensor18start_gps_listener17h506d2223cd840063E():
/Users/Luppy/mynewt/stm32bluepill-mynewt-sensor/rust/app/src/gps_sensor.rs:48
///  Type of sensor: Geolocation (latitude, longitude, altitude)
const GPS_SENSOR_TYPE: sensor_type_t = sensor::SENSOR_TYPE_GEOLOCATION;

///  Ask Mynewt to poll the GPS sensor and call `handle_gps_data()`
///  Return `Ok()` if successful, else return `Err()` with `MynewtError` error code inside.
pub fn start_gps_listener() -> MynewtResult<()>  {  //  Returns an error code upon error.
   0:	b5f0      	push	{r4, r5, r6, r7, lr}
   2:	b0b5      	sub	sp, #212	; 0xd4
/Users/Luppy/mynewt/stm32bluepill-mynewt-sensor/rust/app/src/gps_sensor.rs:49
    console::print("Rust GPS poll\n");
   4:	f240 0000 	movw	r0, #0
   8:	f2c0 0000 	movt	r0, #0
   c:	210e      	movs	r1, #14
   e:	f7ff fffe 	bl	0 <_ZN6mynewt3sys7console5print17h0f65bc3b0e739871E>
  12:	e7ff      	b.n	2 <_ZN4core3ptr8null_mut17h77c2d0fe6651650cE+0x2>
/Users/Luppy/mynewt/stm32bluepill-mynewt-sensor/rust/app/src/gps_sensor.rs:52

    //  Fetch the sensor by name, without locking the driver for exclusive access.
    let sensor = sensor::mgr_find_next_bydevname(&GPS_DEVICE, core::ptr::null_mut()) ? ;
  14:	f7ff fffe 	bl	0 <_ZN4core3ptr8null_mut17h77c2d0fe6651650cE>
  18:	900c      	str	r0, [sp, #48]	; 0x30
  1a:	e7ff      	b.n	1c <_ZN3app10gps_sensor18start_gps_listener17h506d2223cd840063E+0x1c>
  1c:	f240 0100 	movw	r1, #0
  20:	f2c0 0100 	movt	r1, #0
  24:	a811      	add	r0, sp, #68	; 0x44
  26:	9a0c      	ldr	r2, [sp, #48]	; 0x30
  28:	f7ff fffe 	bl	0 <_ZN6mynewt2hw6sensor8bindings23mgr_find_next_bydevname17h1885e7d2ce4be516E>
  2c:	e7ff      	b.n	2e <_ZN3app10gps_sensor18start_gps_listener17h506d2223cd840063E+0x2e>
  2e:	a80f      	add	r0, sp, #60	; 0x3c
  30:	a911      	add	r1, sp, #68	; 0x44
  32:	f7ff fffe 	bl	0 <_ZN73_$LT$core..result..Result$LT$T$C$E$GT$$u20$as$u20$core..ops..try..Try$GT$11into_result17h2548a31748257156E>
  36:	e7ff      	b.n	38 <_ZN3app10gps_sensor18start_gps_listener17h506d2223cd840063E+0x38>
  38:	980f      	ldr	r0, [sp, #60]	; 0x3c
  3a:	2800      	cmp	r0, #0
  3c:	900b      	str	r0, [sp, #44]	; 0x2c
  3e:	d016      	beq.n	6e <_ZN3app10gps_sensor18start_gps_listener17h506d2223cd840063E+0x6e>
  40:	e7ff      	b.n	42 <_ZN3app10gps_sensor18start_gps_listener17h506d2223cd840063E+0x42>
  42:	980b      	ldr	r0, [sp, #44]	; 0x2c
  44:	2801      	cmp	r0, #1
  46:	d001      	beq.n	4c <_ZN3app10gps_sensor18start_gps_listener17h506d2223cd840063E+0x4c>
  48:	e7ff      	b.n	4a <_ZN3app10gps_sensor18start_gps_listener17h506d2223cd840063E+0x4a>
/Users/Luppy/mynewt/stm32bluepill-mynewt-sensor/rust/app/src/gps_sensor.rs:70
    //  Register the Listener Function to be called with the polled sensor data.
    sensor::register_listener(sensor, listener) ? ;  //  `?` means in case of error, return error now.

    //  Return `Ok()` to indicate success.  This line should not end with a semicolon (;).
    Ok(())
}
  4a:	defe      	udf	#254	; 0xfe
/Users/Luppy/mynewt/stm32bluepill-mynewt-sensor/rust/app/src/gps_sensor.rs:52
    let sensor = sensor::mgr_find_next_bydevname(&GPS_DEVICE, core::ptr::null_mut()) ? ;
  4c:	9810      	ldr	r0, [sp, #64]	; 0x40
  4e:	9013      	str	r0, [sp, #76]	; 0x4c
  50:	9813      	ldr	r0, [sp, #76]	; 0x4c
  52:	f7ff fffe 	bl	0 <_ZN50_$LT$T$u20$as$u20$core..convert..From$LT$T$GT$$GT$4from17h4bfa181a78946fa0E>
  56:	900a      	str	r0, [sp, #40]	; 0x28
  58:	e7ff      	b.n	5a <_ZN3app10gps_sensor18start_gps_listener17h506d2223cd840063E+0x5a>
  5a:	980a      	ldr	r0, [sp, #40]	; 0x28
  5c:	f7ff fffe 	bl	0 <_ZN73_$LT$core..result..Result$LT$T$C$E$GT$$u20$as$u20$core..ops..try..Try$GT$10from_error17h6d3955e1a79eef94E>
  60:	900d      	str	r0, [sp, #52]	; 0x34
  62:	e7ff      	b.n	64 <_ZN3app10gps_sensor18start_gps_listener17h506d2223cd840063E+0x64>
  64:	e002      	b.n	6c <_ZN3app10gps_sensor18start_gps_listener17h506d2223cd840063E+0x6c>
/Users/Luppy/mynewt/stm32bluepill-mynewt-sensor/rust/app/src/gps_sensor.rs:70
}
  66:	980d      	ldr	r0, [sp, #52]	; 0x34
  68:	b035      	add	sp, #212	; 0xd4
  6a:	bdf0      	pop	{r4, r5, r6, r7, pc}
/Users/Luppy/mynewt/stm32bluepill-mynewt-sensor/rust/app/src/gps_sensor.rs:52
    let sensor = sensor::mgr_find_next_bydevname(&GPS_DEVICE, core::ptr::null_mut()) ? ;
  6c:	e7fb      	b.n	66 <_ZN3app10gps_sensor18start_gps_listener17h506d2223cd840063E+0x66>
  6e:	9810      	ldr	r0, [sp, #64]	; 0x40
  70:	9014      	str	r0, [sp, #80]	; 0x50
  72:	9814      	ldr	r0, [sp, #80]	; 0x50
  74:	900e      	str	r0, [sp, #56]	; 0x38
/Users/Luppy/mynewt/stm32bluepill-mynewt-sensor/rust/app/src/gps_sensor.rs:53
    assert!(!sensor.is_null(), "no gps");
  76:	980e      	ldr	r0, [sp, #56]	; 0x38
  78:	f7ff fffe 	bl	0 <_ZN4core3ptr31_$LT$impl$u20$$BP$mut$u20$T$GT$7is_null17h80b6c30939e62171E>
  7c:	9009      	str	r0, [sp, #36]	; 0x24
  7e:	e7ff      	b.n	80 <_ZN3app10gps_sensor18start_gps_listener17h506d2223cd840063E+0x80>
  80:	9809      	ldr	r0, [sp, #36]	; 0x24
  82:	07c1      	lsls	r1, r0, #31
  84:	2900      	cmp	r1, #0
  86:	d007      	beq.n	98 <_ZN3app10gps_sensor18start_gps_listener17h506d2223cd840063E+0x98>
  88:	e7ff      	b.n	8a <_ZN3app10gps_sensor18start_gps_listener17h506d2223cd840063E+0x8a>
  8a:	f240 0000 	movw	r0, #0
  8e:	f2c0 0000 	movt	r0, #0
  92:	f7ff fffe 	bl	0 <_ZN4core9panicking5panic17h53ca63c6ac6312f8E>
  96:	defe      	udf	#254	; 0xfe
/Users/Luppy/mynewt/stm32bluepill-mynewt-sensor/rust/app/src/gps_sensor.rs:56
    sensor::set_poll_rate_ms(&GPS_DEVICE, GPS_POLL_TIME) ? ;
  98:	f240 0000 	movw	r0, #0
  9c:	f2c0 0000 	movt	r0, #0
  a0:	f242 7110 	movw	r1, #10000	; 0x2710
  a4:	f7ff fffe 	bl	0 <_ZN6mynewt2hw6sensor8bindings16set_poll_rate_ms17h554be26f45a098a1E>
  a8:	9008      	str	r0, [sp, #32]
  aa:	e7ff      	b.n	ac <_ZN3app10gps_sensor18start_gps_listener17h506d2223cd840063E+0xac>
  ac:	9808      	ldr	r0, [sp, #32]
  ae:	f7ff fffe 	bl	0 <_ZN73_$LT$core..result..Result$LT$T$C$E$GT$$u20$as$u20$core..ops..try..Try$GT$11into_result17h00bf1b57699326cfE>
  b2:	9015      	str	r0, [sp, #84]	; 0x54
  b4:	e7ff      	b.n	b6 <_ZN3app10gps_sensor18start_gps_listener17h506d2223cd840063E+0xb6>
  b6:	9815      	ldr	r0, [sp, #84]	; 0x54
  b8:	1e41      	subs	r1, r0, #1
  ba:	bf18      	it	ne
  bc:	2101      	movne	r1, #1
  be:	2801      	cmp	r0, #1
  c0:	9107      	str	r1, [sp, #28]
  c2:	d011      	beq.n	e8 <_ZN3app10gps_sensor18start_gps_listener17h506d2223cd840063E+0xe8>
  c4:	e7ff      	b.n	c6 <_ZN3app10gps_sensor18start_gps_listener17h506d2223cd840063E+0xc6>
  c6:	9807      	ldr	r0, [sp, #28]
  c8:	2801      	cmp	r0, #1
  ca:	d1be      	bne.n	4a <_ZN3app10gps_sensor18start_gps_listener17h506d2223cd840063E+0x4a>
  cc:	e7ff      	b.n	ce <_ZN3app10gps_sensor18start_gps_listener17h506d2223cd840063E+0xce>
  ce:	9815      	ldr	r0, [sp, #84]	; 0x54
  d0:	9016      	str	r0, [sp, #88]	; 0x58
  d2:	9816      	ldr	r0, [sp, #88]	; 0x58
  d4:	f7ff fffe 	bl	0 <_ZN50_$LT$T$u20$as$u20$core..convert..From$LT$T$GT$$GT$4from17h4bfa181a78946fa0E>
  d8:	9006      	str	r0, [sp, #24]
  da:	e7ff      	b.n	dc <_ZN3app10gps_sensor18start_gps_listener17h506d2223cd840063E+0xdc>
  dc:	9806      	ldr	r0, [sp, #24]
  de:	f7ff fffe 	bl	0 <_ZN73_$LT$core..result..Result$LT$T$C$E$GT$$u20$as$u20$core..ops..try..Try$GT$10from_error17h6d3955e1a79eef94E>
  e2:	900d      	str	r0, [sp, #52]	; 0x34
  e4:	e7ff      	b.n	e6 <_ZN3app10gps_sensor18start_gps_listener17h506d2223cd840063E+0xe6>
  e6:	e7c1      	b.n	6c <_ZN3app10gps_sensor18start_gps_listener17h506d2223cd840063E+0x6c>
/Users/Luppy/mynewt/stm32bluepill-mynewt-sensor/rust/app/src/gps_sensor.rs:61
        sl_func       : sensor::as_untyped(handle_gps_data),  //  Listener function
  e8:	f240 0000 	movw	r0, #0
  ec:	f2c0 0000 	movt	r0, #0
  f0:	f7ff fffe 	bl	0 <_ZN6mynewt2hw6sensor10as_untyped17h2092c0ad7af74b6bE>
  f4:	9005      	str	r0, [sp, #20]
  f6:	e7ff      	b.n	f8 <_ZN3app10gps_sensor18start_gps_listener17h506d2223cd840063E+0xf8>
  f8:	2000      	movs	r0, #0
/Users/Luppy/mynewt/stm32bluepill-mynewt-sensor/rust/app/src/gps_sensor.rs:62
        ..fill_zero!(sensor_listener)     //  Set other fields to 0
  fa:	902a      	str	r0, [sp, #168]	; 0xa8
  fc:	9029      	str	r0, [sp, #164]	; 0xa4
  fe:	9028      	str	r0, [sp, #160]	; 0xa0
 100:	9027      	str	r0, [sp, #156]	; 0x9c
 102:	9026      	str	r0, [sp, #152]	; 0x98
 104:	9025      	str	r0, [sp, #148]	; 0x94
 106:	a81e      	add	r0, sp, #120	; 0x78
 108:	a925      	add	r1, sp, #148	; 0x94
 10a:	2218      	movs	r2, #24
 10c:	f7ff fffe 	bl	0 <__aeabi_memcpy>
 110:	9004      	str	r0, [sp, #16]
 112:	e7ff      	b.n	114 <_ZN3app10gps_sensor18start_gps_listener17h506d2223cd840063E+0x114>
 114:	2000      	movs	r0, #0
/Users/Luppy/mynewt/stm32bluepill-mynewt-sensor/rust/app/src/gps_sensor.rs:59
    let listener = sensor_listener {
 116:	9019      	str	r0, [sp, #100]	; 0x64
 118:	f04f 6000 	mov.w	r0, #134217728	; 0x8000000
 11c:	9018      	str	r0, [sp, #96]	; 0x60
 11e:	9805      	ldr	r0, [sp, #20]
 120:	901a      	str	r0, [sp, #104]	; 0x68
 122:	9921      	ldr	r1, [sp, #132]	; 0x84
 124:	911b      	str	r1, [sp, #108]	; 0x6c
 126:	9922      	ldr	r1, [sp, #136]	; 0x88
 128:	911c      	str	r1, [sp, #112]	; 0x70
/Users/Luppy/mynewt/stm32bluepill-mynewt-sensor/rust/app/src/gps_sensor.rs:66
    sensor::register_listener(sensor, listener) ? ;  //  `?` means in case of error, return error now.
 12a:	980e      	ldr	r0, [sp, #56]	; 0x38
 12c:	a918      	add	r1, sp, #96	; 0x60
 12e:	aa2c      	add	r2, sp, #176	; 0xb0
 130:	4613      	mov	r3, r2
 132:	e891 50f0 	ldmia.w	r1, {r4, r5, r6, r7, ip, lr}
 136:	e883 50f0 	stmia.w	r3, {r4, r5, r6, r7, ip, lr}
 13a:	4611      	mov	r1, r2
 13c:	f7ff fffe 	bl	0 <_ZN6mynewt2hw6sensor17register_listener17h17ebbfb47266c768E>
 140:	9003      	str	r0, [sp, #12]
 142:	e7ff      	b.n	144 <_ZN3app10gps_sensor18start_gps_listener17h506d2223cd840063E+0x144>
 144:	9803      	ldr	r0, [sp, #12]
 146:	f7ff fffe 	bl	0 <_ZN73_$LT$core..result..Result$LT$T$C$E$GT$$u20$as$u20$core..ops..try..Try$GT$11into_result17h00bf1b57699326cfE>
 14a:	902b      	str	r0, [sp, #172]	; 0xac
 14c:	e7ff      	b.n	14e <_ZN3app10gps_sensor18start_gps_listener17h506d2223cd840063E+0x14e>
 14e:	982b      	ldr	r0, [sp, #172]	; 0xac
 150:	1e41      	subs	r1, r0, #1
 152:	bf18      	it	ne
 154:	2101      	movne	r1, #1
 156:	2801      	cmp	r0, #1
 158:	9102      	str	r1, [sp, #8]
 15a:	d012      	beq.n	182 <_ZN3app10gps_sensor18start_gps_listener17h506d2223cd840063E+0x182>
 15c:	e7ff      	b.n	15e <_ZN3app10gps_sensor18start_gps_listener17h506d2223cd840063E+0x15e>
 15e:	9802      	ldr	r0, [sp, #8]
 160:	2801      	cmp	r0, #1
 162:	f47f af72 	bne.w	4a <_ZN3app10gps_sensor18start_gps_listener17h506d2223cd840063E+0x4a>
 166:	e7ff      	b.n	168 <_ZN3app10gps_sensor18start_gps_listener17h506d2223cd840063E+0x168>
 168:	982b      	ldr	r0, [sp, #172]	; 0xac
 16a:	9032      	str	r0, [sp, #200]	; 0xc8
 16c:	9832      	ldr	r0, [sp, #200]	; 0xc8
 16e:	f7ff fffe 	bl	0 <_ZN50_$LT$T$u20$as$u20$core..convert..From$LT$T$GT$$GT$4from17h4bfa181a78946fa0E>
 172:	9001      	str	r0, [sp, #4]
 174:	e7ff      	b.n	176 <_ZN3app10gps_sensor18start_gps_listener17h506d2223cd840063E+0x176>
 176:	9801      	ldr	r0, [sp, #4]
 178:	f7ff fffe 	bl	0 <_ZN73_$LT$core..result..Result$LT$T$C$E$GT$$u20$as$u20$core..ops..try..Try$GT$10from_error17h6d3955e1a79eef94E>
 17c:	900d      	str	r0, [sp, #52]	; 0x34
 17e:	e7ff      	b.n	180 <_ZN3app10gps_sensor18start_gps_listener17h506d2223cd840063E+0x180>
 180:	e774      	b.n	6c <_ZN3app10gps_sensor18start_gps_listener17h506d2223cd840063E+0x6c>
 182:	2000      	movs	r0, #0
/Users/Luppy/mynewt/stm32bluepill-mynewt-sensor/rust/app/src/gps_sensor.rs:69
    Ok(())
 184:	900d      	str	r0, [sp, #52]	; 0x34
 186:	2001      	movs	r0, #1
 188:	900d      	str	r0, [sp, #52]	; 0x34
/Users/Luppy/mynewt/stm32bluepill-mynewt-sensor/rust/app/src/gps_sensor.rs:70
}
 18a:	e76c      	b.n	66 <_ZN3app10gps_sensor18start_gps_listener17h506d2223cd840063E+0x66>

Disassembly of section .text._ZN3app10gps_sensor15handle_gps_data17hd01302e5f121f8abE:

00000000 <_ZN3app10gps_sensor15handle_gps_data17hd01302e5f121f8abE>:
_ZN3app10gps_sensor15handle_gps_data17hd01302e5f121f8abE():
/Users/Luppy/mynewt/stm32bluepill-mynewt-sensor/rust/app/src/gps_sensor.rs:74

///  This listener function is called every 10 seconds by Mynewt to handle the polled GPS data.
///  Return 0 if we have handled the GPS data successfully.
extern fn handle_gps_data(sensor: sensor_ptr, _arg: sensor_arg, 
   0:	b5b0      	push	{r4, r5, r7, lr}
   2:	b0b8      	sub	sp, #224	; 0xe0
   4:	9b3d      	ldr	r3, [sp, #244]	; 0xf4
   6:	f8dd c0f0 	ldr.w	ip, [sp, #240]	; 0xf0
   a:	4696      	mov	lr, r2
   c:	460c      	mov	r4, r1
   e:	4605      	mov	r5, r0
  10:	9007      	str	r0, [sp, #28]
  12:	9108      	str	r1, [sp, #32]
  14:	9209      	str	r2, [sp, #36]	; 0x24
  16:	930b      	str	r3, [sp, #44]	; 0x2c
  18:	f8cd c028 	str.w	ip, [sp, #40]	; 0x28
/Users/Luppy/mynewt/stm32bluepill-mynewt-sensor/rust/app/src/gps_sensor.rs:76
    sensor_data: sensor_data_ptr, sensor_type: sensor_type_t) -> MynewtError {
    console::print("\nInfo: Rust handle_gps_data\n");
  1c:	f240 0000 	movw	r0, #0
  20:	f2c0 0000 	movt	r0, #0
  24:	211c      	movs	r1, #28
  26:	f8cd e018 	str.w	lr, [sp, #24]
  2a:	9405      	str	r4, [sp, #20]
  2c:	9504      	str	r5, [sp, #16]
  2e:	f7ff fffe 	bl	0 <_ZN6mynewt3sys7console5print17h0f65bc3b0e739871E>
  32:	e7ff      	b.n	34 <_ZN3app10gps_sensor15handle_gps_data17hd01302e5f121f8abE+0x34>
/Users/Luppy/mynewt/stm32bluepill-mynewt-sensor/rust/app/src/gps_sensor.rs:79

    //  Check that the GPS geolocation data is available.
    if sensor_data.is_null() { return MynewtError::SYS_EINVAL; }  //  Exit if GPS is not ready
  34:	9809      	ldr	r0, [sp, #36]	; 0x24
  36:	f7ff fffe 	bl	0 <_ZN4core3ptr31_$LT$impl$u20$$BP$mut$u20$T$GT$7is_null17hcb61da1d9a7f9d5bE>
  3a:	9003      	str	r0, [sp, #12]
  3c:	e7ff      	b.n	3e <_ZN3app10gps_sensor15handle_gps_data17hd01302e5f121f8abE+0x3e>
  3e:	9803      	ldr	r0, [sp, #12]
  40:	07c1      	lsls	r1, r0, #31
  42:	2900      	cmp	r1, #0
  44:	d007      	beq.n	56 <_ZN3app10gps_sensor15handle_gps_data17hd01302e5f121f8abE+0x56>
  46:	e7ff      	b.n	48 <_ZN3app10gps_sensor15handle_gps_data17hd01302e5f121f8abE+0x48>
  48:	f06f 0001 	mvn.w	r0, #1
  4c:	900d      	str	r0, [sp, #52]	; 0x34
  4e:	e7ff      	b.n	50 <_ZN3app10gps_sensor15handle_gps_data17hd01302e5f121f8abE+0x50>
/Users/Luppy/mynewt/stm32bluepill-mynewt-sensor/rust/app/src/gps_sensor.rs:102
    //  Aggregate the GPS geolocation with other sensor data before transmitting to server.
    aggregate_sensor_data(sensor_value);

    //  Return 0 to Mynewt to indicate no error.  Should not end with a semicolon (;).
    MynewtError::SYS_EOK
}
  50:	980d      	ldr	r0, [sp, #52]	; 0x34
  52:	b038      	add	sp, #224	; 0xe0
  54:	bdb0      	pop	{r4, r5, r7, pc}
/Users/Luppy/mynewt/stm32bluepill-mynewt-sensor/rust/app/src/gps_sensor.rs:80
    assert!(!sensor.is_null(), "null sensor");
  56:	9807      	ldr	r0, [sp, #28]
  58:	f7ff fffe 	bl	0 <_ZN4core3ptr31_$LT$impl$u20$$BP$mut$u20$T$GT$7is_null17h80b6c30939e62171E>
  5c:	9002      	str	r0, [sp, #8]
  5e:	e7ff      	b.n	60 <_ZN3app10gps_sensor15handle_gps_data17hd01302e5f121f8abE+0x60>
  60:	9802      	ldr	r0, [sp, #8]
  62:	07c1      	lsls	r1, r0, #31
  64:	2900      	cmp	r1, #0
  66:	d007      	beq.n	78 <_ZN3app10gps_sensor15handle_gps_data17hd01302e5f121f8abE+0x78>
  68:	e7ff      	b.n	6a <_ZN3app10gps_sensor15handle_gps_data17hd01302e5f121f8abE+0x6a>
  6a:	f240 0000 	movw	r0, #0
  6e:	f2c0 0000 	movt	r0, #0
  72:	f7ff fffe 	bl	0 <_ZN4core9panicking5panic17h53ca63c6ac6312f8E>
  76:	defe      	udf	#254	; 0xfe
/Users/Luppy/mynewt/stm32bluepill-mynewt-sensor/rust/app/src/gps_sensor.rs:83
    let sensor_value = convert_gps_data(sensor_data, sensor_type);
  78:	9909      	ldr	r1, [sp, #36]	; 0x24
  7a:	9a0a      	ldr	r2, [sp, #40]	; 0x28
  7c:	9b0b      	ldr	r3, [sp, #44]	; 0x2c
  7e:	a80e      	add	r0, sp, #56	; 0x38
  80:	f7ff fffe 	bl	0 <_ZN3app10gps_sensor15handle_gps_data17hd01302e5f121f8abE>
  84:	e7ff      	b.n	86 <_ZN3app10gps_sensor15handle_gps_data17hd01302e5f121f8abE+0x86>
/Users/Luppy/mynewt/stm32bluepill-mynewt-sensor/rust/app/src/gps_sensor.rs:84
    if let SensorValueType::None = sensor_value.value {
  86:	980e      	ldr	r0, [sp, #56]	; 0x38
  88:	2800      	cmp	r0, #0
  8a:	d10c      	bne.n	a6 <_ZN3app10gps_sensor15handle_gps_data17hd01302e5f121f8abE+0xa6>
  8c:	e7ff      	b.n	8e <_ZN3app10gps_sensor15handle_gps_data17hd01302e5f121f8abE+0x8e>
/Users/Luppy/mynewt/stm32bluepill-mynewt-sensor/rust/app/src/gps_sensor.rs:85
        console::print("Warn: GPS not ready\n");
  8e:	f240 0000 	movw	r0, #0
  92:	f2c0 0000 	movt	r0, #0
  96:	2114      	movs	r1, #20
  98:	f7ff fffe 	bl	0 <_ZN6mynewt3sys7console5print17h0f65bc3b0e739871E>
  9c:	e7ff      	b.n	9e <_ZN3app10gps_sensor15handle_gps_data17hd01302e5f121f8abE+0x9e>
  9e:	f06f 0001 	mvn.w	r0, #1
/Users/Luppy/mynewt/stm32bluepill-mynewt-sensor/rust/app/src/gps_sensor.rs:86
        return MynewtError::SYS_EINVAL;   //  Exit if GPS is not ready
  a2:	900d      	str	r0, [sp, #52]	; 0x34
  a4:	e7d4      	b.n	50 <_ZN3app10gps_sensor15handle_gps_data17hd01302e5f121f8abE+0x50>
/Users/Luppy/mynewt/stm32bluepill-mynewt-sensor/rust/app/src/gps_sensor.rs:90
    if let SensorValueType::Geolocation { latitude, longitude, altitude } = sensor_value.value {
  a6:	980e      	ldr	r0, [sp, #56]	; 0x38
  a8:	2803      	cmp	r0, #3
  aa:	d144      	bne.n	136 <_ZN3app10gps_sensor15handle_gps_data17hd01302e5f121f8abE+0x136>
  ac:	e7ff      	b.n	ae <_ZN3app10gps_sensor15handle_gps_data17hd01302e5f121f8abE+0xae>
  ae:	ed9d 0b10 	vldr	d0, [sp, #64]	; 0x40
  b2:	ed8d 0b20 	vstr	d0, [sp, #128]	; 0x80
  b6:	ed9d 0b12 	vldr	d0, [sp, #72]	; 0x48
  ba:	ed8d 0b22 	vstr	d0, [sp, #136]	; 0x88
  be:	ed9d 0b14 	vldr	d0, [sp, #80]	; 0x50
  c2:	ed8d 0b24 	vstr	d0, [sp, #144]	; 0x90
/Users/Luppy/mynewt/stm32bluepill-mynewt-sensor/rust/app/src/gps_sensor.rs:91
        console::print("Info: GPS lat: ");   console::printdouble(latitude);
  c6:	f240 0000 	movw	r0, #0
  ca:	f2c0 0000 	movt	r0, #0
  ce:	210f      	movs	r1, #15
  d0:	f7ff fffe 	bl	0 <_ZN6mynewt3sys7console5print17h0f65bc3b0e739871E>
  d4:	e7ff      	b.n	d6 <_ZN3app10gps_sensor15handle_gps_data17hd01302e5f121f8abE+0xd6>
  d6:	ed9d 0b20 	vldr	d0, [sp, #128]	; 0x80
  da:	f7ff fffe 	bl	0 <_ZN6mynewt3sys7console11printdouble17hd1281c9ee5c89250E>
  de:	e7ff      	b.n	2 <_ZN3app10gps_sensor15handle_gps_data17hd01302e5f121f8abE+0x2>
/Users/Luppy/mynewt/stm32bluepill-mynewt-sensor/rust/app/src/gps_sensor.rs:92
        console::print(", lng: "); console::printdouble(longitude);
  e0:	f240 0000 	movw	r0, #0
  e4:	f2c0 0000 	movt	r0, #0
  e8:	2107      	movs	r1, #7
  ea:	f7ff fffe 	bl	0 <_ZN6mynewt3sys7console5print17h0f65bc3b0e739871E>
  ee:	e7ff      	b.n	f0 <_ZN3app10gps_sensor15handle_gps_data17hd01302e5f121f8abE+0xf0>
  f0:	ed9d 0b22 	vldr	d0, [sp, #136]	; 0x88
  f4:	f7ff fffe 	bl	0 <_ZN6mynewt3sys7console11printdouble17hd1281c9ee5c89250E>
  f8:	e7ff      	b.n	2 <_ZN3app10gps_sensor15handle_gps_data17hd01302e5f121f8abE+0x2>
/Users/Luppy/mynewt/stm32bluepill-mynewt-sensor/rust/app/src/gps_sensor.rs:93
        console::print(", alt: "); console::printfloat(altitude as f32);
  fa:	f240 0000 	movw	r0, #0
  fe:	f2c0 0000 	movt	r0, #0
 102:	2107      	movs	r1, #7
 104:	f7ff fffe 	bl	0 <_ZN6mynewt3sys7console5print17h0f65bc3b0e739871E>
 108:	e7ff      	b.n	10a <_ZN3app10gps_sensor15handle_gps_data17hd01302e5f121f8abE+0x10a>
 10a:	ed9d 0b24 	vldr	d0, [sp, #144]	; 0x90
 10e:	ec51 0b10 	vmov	r0, r1, d0
 112:	f7ff fffe 	bl	0 <__aeabi_d2f>
 116:	ee00 0a10 	vmov	s0, r0
 11a:	f7ff fffe 	bl	0 <_ZN6mynewt3sys7console10printfloat17hee7bbe9075bdc4a2E>
 11e:	e7ff      	b.n	2 <_ZN3app10gps_sensor15handle_gps_data17hd01302e5f121f8abE+0x2>
/Users/Luppy/mynewt/stm32bluepill-mynewt-sensor/rust/app/src/gps_sensor.rs:94
        console::print("\n"); console::flush();
 120:	f240 0000 	movw	r0, #0
 124:	f2c0 0000 	movt	r0, #0
 128:	2101      	movs	r1, #1
 12a:	f7ff fffe 	bl	0 <_ZN6mynewt3sys7console5print17h0f65bc3b0e739871E>
 12e:	e7ff      	b.n	2 <_ZN6mynewt3sys7console5flush17h498d792c115b7281E+0x2>
 130:	f7ff fffe 	bl	0 <_ZN6mynewt3sys7console5flush17h498d792c115b7281E>
 134:	e7ff      	b.n	136 <_ZN3app10gps_sensor15handle_gps_data17hd01302e5f121f8abE+0x136>
 136:	a826      	add	r0, sp, #152	; 0x98
 138:	a90e      	add	r1, sp, #56	; 0x38
 13a:	2248      	movs	r2, #72	; 0x48
/Users/Luppy/mynewt/stm32bluepill-mynewt-sensor/rust/app/src/gps_sensor.rs:98
    aggregate_sensor_data(sensor_value);
 13c:	9001      	str	r0, [sp, #4]
 13e:	f7ff fffe 	bl	0 <__aeabi_memcpy8>
 142:	9801      	ldr	r0, [sp, #4]
 144:	f7ff fffe 	bl	0 <_ZN3app10gps_sensor15handle_gps_data17hd01302e5f121f8abE>
 148:	e7ff      	b.n	14a <_ZN3app10gps_sensor15handle_gps_data17hd01302e5f121f8abE+0x14a>
 14a:	2000      	movs	r0, #0
/Users/Luppy/mynewt/stm32bluepill-mynewt-sensor/rust/app/src/gps_sensor.rs:101
    MynewtError::SYS_EOK
 14c:	900d      	str	r0, [sp, #52]	; 0x34
/Users/Luppy/mynewt/stm32bluepill-mynewt-sensor/rust/app/src/gps_sensor.rs:102
}
 14e:	e77f      	b.n	50 <_ZN3app10gps_sensor15handle_gps_data17hd01302e5f121f8abE+0x50>

Disassembly of section .text._ZN3app10gps_sensor16convert_gps_data17hf450a47ae78a3fb6E:

00000000 <_ZN3app10gps_sensor16convert_gps_data17hf450a47ae78a3fb6E>:
_ZN3app10gps_sensor16convert_gps_data17hf450a47ae78a3fb6E():
/Users/Luppy/mynewt/stm32bluepill-mynewt-sensor/rust/app/src/gps_sensor.rs:107

///  Convert the geolocation value received from Mynewt into a Geolocation `SensorValue` for transmission. 
///  `sensor_type` indicates the type of data in `sensor_data`.
#[allow(non_snake_case, unused_variables)]
fn convert_gps_data(sensor_data: sensor_data_ptr, sensor_type: sensor_type_t) -> SensorValue {
   0:	b5b0      	push	{r4, r5, r7, lr}
   2:	b0d6      	sub	sp, #344	; 0x158
   4:	469c      	mov	ip, r3
   6:	4696      	mov	lr, r2
   8:	460c      	mov	r4, r1
   a:	9113      	str	r1, [sp, #76]	; 0x4c
   c:	9315      	str	r3, [sp, #84]	; 0x54
   e:	9214      	str	r2, [sp, #80]	; 0x50
/Users/Luppy/mynewt/stm32bluepill-mynewt-sensor/rust/app/src/gps_sensor.rs:108
    console::print("Info: GPS listener converting geolocation\n");
  10:	f240 0100 	movw	r1, #0
  14:	f2c0 0100 	movt	r1, #0
  18:	222a      	movs	r2, #42	; 0x2a
  1a:	900b      	str	r0, [sp, #44]	; 0x2c
  1c:	4608      	mov	r0, r1
  1e:	4611      	mov	r1, r2
  20:	f8cd c028 	str.w	ip, [sp, #40]	; 0x28
  24:	f8cd e024 	str.w	lr, [sp, #36]	; 0x24
  28:	9408      	str	r4, [sp, #32]
  2a:	f7ff fffe 	bl	0 <_ZN6mynewt3sys7console5print17h0f65bc3b0e739871E>
  2e:	e7ff      	b.n	30 <_ZN3app10gps_sensor16convert_gps_data17hf450a47ae78a3fb6E+0x30>
  30:	2000      	movs	r0, #0
/Users/Luppy/mynewt/stm32bluepill-mynewt-sensor/rust/app/src/gps_sensor.rs:112
    //  Construct and return a new `SensorValue` (without semicolon)
    SensorValue {
        key: &GPS_SENSOR_KEY,  //  Sensor data key is `geolocation`
        geo: SensorValueType::None,
  32:	9016      	str	r0, [sp, #88]	; 0x58
/Users/Luppy/mynewt/stm32bluepill-mynewt-sensor/rust/app/src/gps_sensor.rs:114
        value: match sensor_type {
            SENSOR_TYPE_GEOLOCATION => {  //  If sensor data is GPS geolocation...
  34:	9914      	ldr	r1, [sp, #80]	; 0x50
  36:	9a15      	ldr	r2, [sp, #84]	; 0x54
  38:	9227      	str	r2, [sp, #156]	; 0x9c
  3a:	9126      	str	r1, [sp, #152]	; 0x98
/Users/Luppy/mynewt/stm32bluepill-mynewt-sensor/rust/app/src/gps_sensor.rs:116
                //  Interpret the sensor data as a `sensor_geolocation_data` struct that contains GPS geolocation.
                let mut geolocation = fill_zero!(sensor_geolocation_data);
  3c:	f8cd 00d3 	str.w	r0, [sp, #211]	; 0xd3
  40:	9034      	str	r0, [sp, #208]	; 0xd0
  42:	9033      	str	r0, [sp, #204]	; 0xcc
  44:	9032      	str	r0, [sp, #200]	; 0xc8
  46:	9031      	str	r0, [sp, #196]	; 0xc4
  48:	9030      	str	r0, [sp, #192]	; 0xc0
  4a:	902f      	str	r0, [sp, #188]	; 0xbc
  4c:	a828      	add	r0, sp, #160	; 0xa0
  4e:	a92f      	add	r1, sp, #188	; 0xbc
  50:	221b      	movs	r2, #27
  52:	f7ff fffe 	bl	0 <__aeabi_memcpy>
  56:	9007      	str	r0, [sp, #28]
  58:	e7ff      	b.n	5a <_ZN3app10gps_sensor16convert_gps_data17hf450a47ae78a3fb6E+0x5a>
/Users/Luppy/mynewt/stm32bluepill-mynewt-sensor/rust/app/src/gps_sensor.rs:117
                let rc = unsafe { sensor::get_geolocation_data(sensor_data, &mut geolocation) };
  5a:	9813      	ldr	r0, [sp, #76]	; 0x4c
  5c:	a928      	add	r1, sp, #160	; 0xa0
  5e:	f7ff fffe 	bl	0 <get_geolocation_data>
  62:	9036      	str	r0, [sp, #216]	; 0xd8
  64:	e7ff      	b.n	66 <_ZN3app10gps_sensor16convert_gps_data17hf450a47ae78a3fb6E+0x66>
  66:	a836      	add	r0, sp, #216	; 0xd8
/Users/Luppy/mynewt/stm32bluepill-mynewt-sensor/rust/app/src/gps_sensor.rs:118
                assert_eq!(rc, 0, "geodata fail");
  68:	9037      	str	r0, [sp, #220]	; 0xdc
  6a:	f240 0000 	movw	r0, #0
  6e:	f2c0 0000 	movt	r0, #0
  72:	9038      	str	r0, [sp, #224]	; 0xe0
  74:	9837      	ldr	r0, [sp, #220]	; 0xdc
  76:	9039      	str	r0, [sp, #228]	; 0xe4
  78:	9838      	ldr	r0, [sp, #224]	; 0xe0
  7a:	903a      	str	r0, [sp, #232]	; 0xe8
  7c:	9839      	ldr	r0, [sp, #228]	; 0xe4
  7e:	6800      	ldr	r0, [r0, #0]
  80:	993a      	ldr	r1, [sp, #232]	; 0xe8
  82:	6809      	ldr	r1, [r1, #0]
  84:	4288      	cmp	r0, r1
  86:	d014      	beq.n	b2 <_ZN3app10gps_sensor16convert_gps_data17hf450a47ae78a3fb6E+0xb2>
  88:	e7ff      	b.n	8a <_ZN3app10gps_sensor16convert_gps_data17hf450a47ae78a3fb6E+0x8a>
  8a:	9839      	ldr	r0, [sp, #228]	; 0xe4
  8c:	904a      	str	r0, [sp, #296]	; 0x128
  8e:	983a      	ldr	r0, [sp, #232]	; 0xe8
  90:	904b      	str	r0, [sp, #300]	; 0x12c
  92:	4668      	mov	r0, sp
  94:	2100      	movs	r1, #0
  96:	6001      	str	r1, [r0, #0]
  98:	f240 0100 	movw	r1, #0
  9c:	f2c0 0100 	movt	r1, #0
  a0:	f240 0300 	movw	r3, #0
  a4:	f2c0 0300 	movt	r3, #0
  a8:	a84c      	add	r0, sp, #304	; 0x130
  aa:	2201      	movs	r2, #1
  ac:	f7ff fffe 	bl	0 <_ZN4core3fmt9Arguments6new_v117hc2d8281224709357E>
  b0:	e004      	b.n	bc <_ZN3app10gps_sensor16convert_gps_data17hf450a47ae78a3fb6E+0xbc>
/Users/Luppy/mynewt/stm32bluepill-mynewt-sensor/rust/app/src/gps_sensor.rs:120
                //  Check that the geolocation data is valid.
                if  geolocation.sgd_latitude_is_valid  != 0 &&
  b2:	f89d 00b8 	ldrb.w	r0, [sp, #184]	; 0xb8
  b6:	2800      	cmp	r0, #0
  b8:	d165      	bne.n	186 <_ZN3app10gps_sensor16convert_gps_data17hf450a47ae78a3fb6E+0x186>
  ba:	e060      	b.n	17e <_ZN3app10gps_sensor16convert_gps_data17hf450a47ae78a3fb6E+0x17e>
  bc:	a84a      	add	r0, sp, #296	; 0x128
/Users/Luppy/mynewt/stm32bluepill-mynewt-sensor/rust/app/src/gps_sensor.rs:118
                assert_eq!(rc, 0, "geodata fail");
  be:	9047      	str	r0, [sp, #284]	; 0x11c
  c0:	a84b      	add	r0, sp, #300	; 0x12c
  c2:	9048      	str	r0, [sp, #288]	; 0x120
  c4:	a84c      	add	r0, sp, #304	; 0x130
  c6:	9049      	str	r0, [sp, #292]	; 0x124
  c8:	9847      	ldr	r0, [sp, #284]	; 0x11c
  ca:	9052      	str	r0, [sp, #328]	; 0x148
  cc:	9848      	ldr	r0, [sp, #288]	; 0x120
  ce:	9053      	str	r0, [sp, #332]	; 0x14c
  d0:	9849      	ldr	r0, [sp, #292]	; 0x124
  d2:	9054      	str	r0, [sp, #336]	; 0x150
  d4:	9852      	ldr	r0, [sp, #328]	; 0x148
  d6:	f240 0100 	movw	r1, #0
  da:	f2c0 0100 	movt	r1, #0
  de:	f7ff fffe 	bl	0 <_ZN4core3fmt10ArgumentV13new17ha911407dafd615aaE>
  e2:	9006      	str	r0, [sp, #24]
  e4:	9105      	str	r1, [sp, #20]
  e6:	e7ff      	b.n	e8 <_ZN3app10gps_sensor16convert_gps_data17hf450a47ae78a3fb6E+0xe8>
  e8:	9853      	ldr	r0, [sp, #332]	; 0x14c
  ea:	f240 0100 	movw	r1, #0
  ee:	f2c0 0100 	movt	r1, #0
  f2:	f7ff fffe 	bl	0 <_ZN4core3fmt10ArgumentV13new17ha911407dafd615aaE>
  f6:	9004      	str	r0, [sp, #16]
  f8:	9103      	str	r1, [sp, #12]
  fa:	e7ff      	b.n	fc <_ZN3app10gps_sensor16convert_gps_data17hf450a47ae78a3fb6E+0xfc>
  fc:	9854      	ldr	r0, [sp, #336]	; 0x150
  fe:	f240 0100 	movw	r1, #0
 102:	f2c0 0100 	movt	r1, #0
 106:	f7ff fffe 	bl	0 <_ZN4core3fmt10ArgumentV13new17h77e41a362c8b7a28E>
 10a:	9002      	str	r0, [sp, #8]
 10c:	9101      	str	r1, [sp, #4]
 10e:	e7ff      	b.n	110 <_ZN3app10gps_sensor16convert_gps_data17hf450a47ae78a3fb6E+0x110>
 110:	9806      	ldr	r0, [sp, #24]
 112:	9041      	str	r0, [sp, #260]	; 0x104
 114:	9905      	ldr	r1, [sp, #20]
 116:	9142      	str	r1, [sp, #264]	; 0x108
 118:	9a04      	ldr	r2, [sp, #16]
 11a:	9243      	str	r2, [sp, #268]	; 0x10c
 11c:	9b03      	ldr	r3, [sp, #12]
 11e:	9344      	str	r3, [sp, #272]	; 0x110
 120:	f8dd c008 	ldr.w	ip, [sp, #8]
 124:	f8cd c114 	str.w	ip, [sp, #276]	; 0x114
 128:	f8dd e004 	ldr.w	lr, [sp, #4]
 12c:	f8cd e118 	str.w	lr, [sp, #280]	; 0x118
 130:	466c      	mov	r4, sp
 132:	2503      	movs	r5, #3
 134:	6025      	str	r5, [r4, #0]
 136:	f240 0100 	movw	r1, #0
 13a:	f2c0 0100 	movt	r1, #0
 13e:	a83b      	add	r0, sp, #236	; 0xec
 140:	ab41      	add	r3, sp, #260	; 0x104
 142:	462a      	mov	r2, r5
 144:	f7ff fffe 	bl	0 <_ZN4core3fmt9Arguments6new_v117hc2d8281224709357E>
 148:	e7ff      	b.n	2 <_ZN3app10gps_sensor16convert_gps_data17hf450a47ae78a3fb6E+0x2>
 14a:	f240 0100 	movw	r1, #0
 14e:	f2c0 0100 	movt	r1, #0
 152:	a83b      	add	r0, sp, #236	; 0xec
 154:	f7ff fffe 	bl	0 <_ZN4core9panicking9panic_fmt17h6b4d8e87b0965449E>
 158:	defe      	udf	#254	; 0xfe
 15a:	2000      	movs	r0, #0
/Users/Luppy/mynewt/stm32bluepill-mynewt-sensor/rust/app/src/gps_sensor.rs:120
                if  geolocation.sgd_latitude_is_valid  != 0 &&
 15c:	f88d 0156 	strb.w	r0, [sp, #342]	; 0x156
 160:	e007      	b.n	172 <_ZN3app10gps_sensor16convert_gps_data17hf450a47ae78a3fb6E+0x172>
/Users/Luppy/mynewt/stm32bluepill-mynewt-sensor/rust/app/src/gps_sensor.rs:122
                    geolocation.sgd_longitude_is_valid != 0 &&
                    geolocation.sgd_altitude_is_valid  != 0 {
 162:	f89d 00ba 	ldrb.w	r0, [sp, #186]	; 0xba
 166:	2800      	cmp	r0, #0
 168:	bf18      	it	ne
 16a:	2001      	movne	r0, #1
/Users/Luppy/mynewt/stm32bluepill-mynewt-sensor/rust/app/src/gps_sensor.rs:120
                if  geolocation.sgd_latitude_is_valid  != 0 &&
 16c:	f88d 0156 	strb.w	r0, [sp, #342]	; 0x156
 170:	e7ff      	b.n	172 <_ZN3app10gps_sensor16convert_gps_data17hf450a47ae78a3fb6E+0x172>
 172:	f89d 0156 	ldrb.w	r0, [sp, #342]	; 0x156
 176:	07c0      	lsls	r0, r0, #31
 178:	2800      	cmp	r0, #0
 17a:	d112      	bne.n	1a2 <_ZN3app10gps_sensor16convert_gps_data17hf450a47ae78a3fb6E+0x1a2>
 17c:	e02c      	b.n	1d8 <_ZN3app10gps_sensor16convert_gps_data17hf450a47ae78a3fb6E+0x1d8>
 17e:	2000      	movs	r0, #0
 180:	f88d 0157 	strb.w	r0, [sp, #343]	; 0x157
 184:	e007      	b.n	196 <_ZN3app10gps_sensor16convert_gps_data17hf450a47ae78a3fb6E+0x196>
/Users/Luppy/mynewt/stm32bluepill-mynewt-sensor/rust/app/src/gps_sensor.rs:121
                    geolocation.sgd_longitude_is_valid != 0 &&
 186:	f89d 00b9 	ldrb.w	r0, [sp, #185]	; 0xb9
 18a:	2800      	cmp	r0, #0
 18c:	bf18      	it	ne
 18e:	2001      	movne	r0, #1
/Users/Luppy/mynewt/stm32bluepill-mynewt-sensor/rust/app/src/gps_sensor.rs:120
                if  geolocation.sgd_latitude_is_valid  != 0 &&
 190:	f88d 0157 	strb.w	r0, [sp, #343]	; 0x157
 194:	e7ff      	b.n	196 <_ZN3app10gps_sensor16convert_gps_data17hf450a47ae78a3fb6E+0x196>
 196:	f89d 0157 	ldrb.w	r0, [sp, #343]	; 0x157
 19a:	07c0      	lsls	r0, r0, #31
 19c:	2800      	cmp	r0, #0
 19e:	d1e0      	bne.n	162 <_ZN3app10gps_sensor16convert_gps_data17hf450a47ae78a3fb6E+0x162>
 1a0:	e7db      	b.n	15a <_ZN3app10gps_sensor16convert_gps_data17hf450a47ae78a3fb6E+0x15a>
/Users/Luppy/mynewt/stm32bluepill-mynewt-sensor/rust/app/src/gps_sensor.rs:125
                    //  Geolocation data is valid.  Return it.
                    SensorValueType::Geolocation {
                        latitude:  geolocation.sgd_latitude,
 1a2:	9828      	ldr	r0, [sp, #160]	; 0xa0
 1a4:	9929      	ldr	r1, [sp, #164]	; 0xa4
/Users/Luppy/mynewt/stm32bluepill-mynewt-sensor/rust/app/src/gps_sensor.rs:126
                        longitude: geolocation.sgd_longitude,
 1a6:	9a2a      	ldr	r2, [sp, #168]	; 0xa8
 1a8:	9b2b      	ldr	r3, [sp, #172]	; 0xac
/Users/Luppy/mynewt/stm32bluepill-mynewt-sensor/rust/app/src/gps_sensor.rs:125
                        latitude:  geolocation.sgd_latitude,
 1aa:	910d      	str	r1, [sp, #52]	; 0x34
 1ac:	900c      	str	r0, [sp, #48]	; 0x30
 1ae:	ed9d 0b0c 	vldr	d0, [sp, #48]	; 0x30
/Users/Luppy/mynewt/stm32bluepill-mynewt-sensor/rust/app/src/gps_sensor.rs:126
                        longitude: geolocation.sgd_longitude,
 1b2:	930f      	str	r3, [sp, #60]	; 0x3c
 1b4:	920e      	str	r2, [sp, #56]	; 0x38
 1b6:	ed9d 1b0e 	vldr	d1, [sp, #56]	; 0x38
/Users/Luppy/mynewt/stm32bluepill-mynewt-sensor/rust/app/src/gps_sensor.rs:127
                        altitude:  geolocation.sgd_altitude,
 1ba:	982d      	ldr	r0, [sp, #180]	; 0xb4
 1bc:	9011      	str	r0, [sp, #68]	; 0x44
 1be:	982c      	ldr	r0, [sp, #176]	; 0xb0
 1c0:	9010      	str	r0, [sp, #64]	; 0x40
 1c2:	ed9d 2b10 	vldr	d2, [sp, #64]	; 0x40
/Users/Luppy/mynewt/stm32bluepill-mynewt-sensor/rust/app/src/gps_sensor.rs:124
                    SensorValueType::Geolocation {
 1c6:	ed8d 0b20 	vstr	d0, [sp, #128]	; 0x80
 1ca:	ed8d 1b22 	vstr	d1, [sp, #136]	; 0x88
 1ce:	ed8d 2b24 	vstr	d2, [sp, #144]	; 0x90
 1d2:	2003      	movs	r0, #3
 1d4:	901e      	str	r0, [sp, #120]	; 0x78
/Users/Luppy/mynewt/stm32bluepill-mynewt-sensor/rust/app/src/gps_sensor.rs:120
                if  geolocation.sgd_latitude_is_valid  != 0 &&
 1d6:	e002      	b.n	1de <_ZN3app10gps_sensor16convert_gps_data17hf450a47ae78a3fb6E+0x1de>
 1d8:	2000      	movs	r0, #0
/Users/Luppy/mynewt/stm32bluepill-mynewt-sensor/rust/app/src/gps_sensor.rs:129
                    }
                } else { SensorValueType::None }  //  Geolocation data is invalid.  Maybe GPS is not ready.                 
 1da:	901e      	str	r0, [sp, #120]	; 0x78
/Users/Luppy/mynewt/stm32bluepill-mynewt-sensor/rust/app/src/gps_sensor.rs:120
                if  geolocation.sgd_latitude_is_valid  != 0 &&
 1dc:	e7ff      	b.n	1de <_ZN3app10gps_sensor16convert_gps_data17hf450a47ae78a3fb6E+0x1de>
/Users/Luppy/mynewt/stm32bluepill-mynewt-sensor/rust/app/src/gps_sensor.rs:110
    SensorValue {
 1de:	f240 0000 	movw	r0, #0
 1e2:	f2c0 0000 	movt	r0, #0
 1e6:	990b      	ldr	r1, [sp, #44]	; 0x2c
 1e8:	6408      	str	r0, [r1, #64]	; 0x40
 1ea:	a81e      	add	r0, sp, #120	; 0x78
 1ec:	e8b0 500c 	ldmia.w	r0!, {r2, r3, ip, lr}
 1f0:	e8a1 500c 	stmia.w	r1!, {r2, r3, ip, lr}
 1f4:	e890 500c 	ldmia.w	r0, {r2, r3, ip, lr}
 1f8:	e881 500c 	stmia.w	r1, {r2, r3, ip, lr}
 1fc:	980b      	ldr	r0, [sp, #44]	; 0x2c
 1fe:	f100 0120 	add.w	r1, r0, #32
 202:	aa16      	add	r2, sp, #88	; 0x58
 204:	e8b2 5018 	ldmia.w	r2!, {r3, r4, ip, lr}
 208:	e8a1 5018 	stmia.w	r1!, {r3, r4, ip, lr}
 20c:	e892 5018 	ldmia.w	r2, {r3, r4, ip, lr}
 210:	e881 5018 	stmia.w	r1, {r3, r4, ip, lr}
/Users/Luppy/mynewt/stm32bluepill-mynewt-sensor/rust/app/src/gps_sensor.rs:135
            }
            //  Unknown type of sensor value
            //  _ => { assert!(false, "sensor type"); SensorValueType::None }
        }
    }
}
 214:	b056      	add	sp, #344	; 0x158
 216:	bdb0      	pop	{r4, r5, r7, pc}

Disassembly of section .text._ZN3app10gps_sensor21aggregate_sensor_data17h256211044f7d4fb3E:

00000000 <_ZN3app10gps_sensor21aggregate_sensor_data17h256211044f7d4fb3E>:
_ZN3app10gps_sensor21aggregate_sensor_data17h256211044f7d4fb3E():
/Users/Luppy/mynewt/stm32bluepill-mynewt-sensor/rust/app/src/gps_sensor.rs:140

static mut current_geolocation: SensorValueType = SensorValueType::None;

///  Aggregate the sensor value with other sensor data before transmitting to server.
fn aggregate_sensor_data(sensor_value: SensorValue) {
   0:	b570      	push	{r4, r5, r6, lr}
   2:	b0ac      	sub	sp, #176	; 0xb0
   4:	4601      	mov	r1, r0
/Users/Luppy/mynewt/stm32bluepill-mynewt-sensor/rust/app/src/gps_sensor.rs:141
    if let SensorValueType::Geolocation {..} = sensor_value.value {
   6:	6800      	ldr	r0, [r0, #0]
   8:	2803      	cmp	r0, #3
   a:	9101      	str	r1, [sp, #4]
   c:	d118      	bne.n	40 <_ZN3app10gps_sensor21aggregate_sensor_data17h256211044f7d4fb3E+0x40>
   e:	e7ff      	b.n	10 <_ZN3app10gps_sensor21aggregate_sensor_data17h256211044f7d4fb3E+0x10>
  10:	a802      	add	r0, sp, #8
/Users/Luppy/mynewt/stm32bluepill-mynewt-sensor/rust/app/src/gps_sensor.rs:143
        //  Save the geolocation for later transmission.
        unsafe { current_geolocation = sensor_value.value };
  12:	4601      	mov	r1, r0
  14:	9a01      	ldr	r2, [sp, #4]
  16:	e8b2 5018 	ldmia.w	r2!, {r3, r4, ip, lr}
  1a:	e8a1 5018 	stmia.w	r1!, {r3, r4, ip, lr}
  1e:	e892 5018 	ldmia.w	r2, {r3, r4, ip, lr}
  22:	e881 5018 	stmia.w	r1, {r3, r4, ip, lr}
  26:	f240 0100 	movw	r1, #0
  2a:	f2c0 0100 	movt	r1, #0
  2e:	e8b0 500c 	ldmia.w	r0!, {r2, r3, ip, lr}
  32:	e8a1 500c 	stmia.w	r1!, {r2, r3, ip, lr}
  36:	e890 500c 	ldmia.w	r0, {r2, r3, ip, lr}
  3a:	e881 500c 	stmia.w	r1, {r2, r3, ip, lr}
/Users/Luppy/mynewt/stm32bluepill-mynewt-sensor/rust/app/src/gps_sensor.rs:141
    if let SensorValueType::Geolocation {..} = sensor_value.value {
  3e:	e02e      	b.n	9e <_ZN3app10gps_sensor21aggregate_sensor_data17h256211044f7d4fb3E+0x9e>
/Users/Luppy/mynewt/stm32bluepill-mynewt-sensor/rust/app/src/gps_sensor.rs:147
    } else {
        //  Attach the current geolocation to the sensor data for transmission.
        let transmit_value = SensorValue {
            key:    sensor_value.key,
  40:	9801      	ldr	r0, [sp, #4]
  42:	6c01      	ldr	r1, [r0, #64]	; 0x40
  44:	aa1c      	add	r2, sp, #112	; 0x70
/Users/Luppy/mynewt/stm32bluepill-mynewt-sensor/rust/app/src/gps_sensor.rs:148
            value:  sensor_value.value,
  46:	4613      	mov	r3, r2
  48:	e8b0 5030 	ldmia.w	r0!, {r4, r5, ip, lr}
  4c:	e8a3 5030 	stmia.w	r3!, {r4, r5, ip, lr}
  50:	e890 5030 	ldmia.w	r0, {r4, r5, ip, lr}
  54:	e883 5030 	stmia.w	r3, {r4, r5, ip, lr}
/Users/Luppy/mynewt/stm32bluepill-mynewt-sensor/rust/app/src/gps_sensor.rs:149
            geo:    unsafe { current_geolocation }
  58:	f240 0000 	movw	r0, #0
  5c:	f2c0 0000 	movt	r0, #0
  60:	ab24      	add	r3, sp, #144	; 0x90
  62:	469c      	mov	ip, r3
  64:	e8b0 4070 	ldmia.w	r0!, {r4, r5, r6, lr}
  68:	e8ac 4070 	stmia.w	ip!, {r4, r5, r6, lr}
  6c:	e890 4070 	ldmia.w	r0, {r4, r5, r6, lr}
  70:	e88c 4070 	stmia.w	ip, {r4, r5, r6, lr}
/Users/Luppy/mynewt/stm32bluepill-mynewt-sensor/rust/app/src/gps_sensor.rs:146
        let transmit_value = SensorValue {
  74:	911a      	str	r1, [sp, #104]	; 0x68
  76:	a80a      	add	r0, sp, #40	; 0x28
  78:	4601      	mov	r1, r0
  7a:	e8b2 5030 	ldmia.w	r2!, {r4, r5, ip, lr}
  7e:	e8a1 5030 	stmia.w	r1!, {r4, r5, ip, lr}
  82:	e892 5030 	ldmia.w	r2, {r4, r5, ip, lr}
  86:	e881 5030 	stmia.w	r1, {r4, r5, ip, lr}
  8a:	3020      	adds	r0, #32
  8c:	e8b3 5006 	ldmia.w	r3!, {r1, r2, ip, lr}
  90:	e8a0 5006 	stmia.w	r0!, {r1, r2, ip, lr}
  94:	e893 5006 	ldmia.w	r3, {r1, r2, ip, lr}
  98:	e880 5006 	stmia.w	r0, {r1, r2, ip, lr}
/Users/Luppy/mynewt/stm32bluepill-mynewt-sensor/rust/app/src/gps_sensor.rs:141
    if let SensorValueType::Geolocation {..} = sensor_value.value {
  9c:	e7ff      	b.n	9e <_ZN3app10gps_sensor21aggregate_sensor_data17h256211044f7d4fb3E+0x9e>
/Users/Luppy/mynewt/stm32bluepill-mynewt-sensor/rust/app/src/gps_sensor.rs:153
        };
        //  TODO: Transmit sensor value with geolocation.
    }
  9e:	b02c      	add	sp, #176	; 0xb0
  a0:	bd70      	pop	{r4, r5, r6, pc}

app-b90ce02d7e477c3f.4q9qovk8rqwaqec4.rcgu.o:     file format elf32-littlearm

SYMBOL TABLE:
00000000 l    df *ABS*	00000000 4q9qovk8rqwaqec4
00000340 l       .debug_str	00000000 
000003d1 l       .debug_str	00000000 
000003db l       .debug_str	00000000 
000003f5 l       .debug_str	00000000 
00000453 l       .debug_str	00000000 
0000045e l       .debug_str	00000000 
0000047b l       .debug_str	00000000 
00000494 l       .debug_str	00000000 
0000049e l       .debug_str	00000000 
000004b4 l       .debug_str	00000000 
000004d2 l       .debug_str	00000000 
000004db l       .debug_str	00000000 
000004e0 l       .debug_str	00000000 
000004e5 l       .debug_str	00000000 
000004e9 l       .debug_str	00000000 
000004f2 l       .debug_str	00000000 
000004fc l       .debug_str	00000000 
00000514 l       .debug_str	00000000 
00000000 l       .debug_str	00000000 
00000041 l       .debug_str	00000000 
00000055 l       .debug_str	00000000 
00000085 l       .debug_str	00000000 
0000008a l       .debug_str	00000000 
0000008e l       .debug_str	00000000 
00000091 l       .debug_str	00000000 
00000094 l       .debug_str	00000000 
00000097 l       .debug_str	00000000 
0000009c l       .debug_str	00000000 
000000a2 l       .debug_str	00000000 
000000a9 l       .debug_str	00000000 
000000b1 l       .debug_str	00000000 
000000bb l       .debug_str	00000000 
000000c2 l       .debug_str	00000000 
000000c5 l       .debug_str	00000000 
000000c9 l       .debug_str	00000000 
000000d0 l       .debug_str	00000000 
000000d4 l       .debug_str	00000000 
000000dd l       .debug_str	00000000 
000000e1 l       .debug_str	00000000 
0000010b l       .debug_str	00000000 
00000110 l       .debug_str	00000000 
00000115 l       .debug_str	00000000 
00000117 l       .debug_str	00000000 
00000129 l       .debug_str	00000000 
0000012f l       .debug_str	00000000 
00000134 l       .debug_str	00000000 
0000013c l       .debug_str	00000000 
00000140 l       .debug_str	00000000 
00000148 l       .debug_str	00000000 
00000150 l       .debug_str	00000000 
00000157 l       .debug_str	00000000 
0000015d l       .debug_str	00000000 
00000171 l       .debug_str	00000000 
0000017d l       .debug_str	00000000 
00000182 l       .debug_str	00000000 
0000018a l       .debug_str	00000000 
00000191 l       .debug_str	00000000 
00000195 l       .debug_str	00000000 
0000019a l       .debug_str	00000000 
000001a1 l       .debug_str	00000000 
000001aa l       .debug_str	00000000 
000001b4 l       .debug_str	00000000 
000001bb l       .debug_str	00000000 
000001c0 l       .debug_str	00000000 
000001cc l       .debug_str	00000000 
000001d4 l       .debug_str	00000000 
000001dd l       .debug_str	00000000 
000001e2 l       .debug_str	00000000 
000001e5 l       .debug_str	00000000 
000001e9 l       .debug_str	00000000 
000001f2 l       .debug_str	00000000 
000001f9 l       .debug_str	00000000 
000001fe l       .debug_str	00000000 
00000203 l       .debug_str	00000000 
00000209 l       .debug_str	00000000 
0000020f l       .debug_str	00000000 
00000219 l       .debug_str	00000000 
0000021c l       .debug_str	00000000 
00000222 l       .debug_str	00000000 
0000022c l       .debug_str	00000000 
00000234 l       .debug_str	00000000 
0000023a l       .debug_str	00000000 
00000240 l       .debug_str	00000000 
0000024b l       .debug_str	00000000 
00000254 l       .debug_str	00000000 
00000277 l       .debug_str	00000000 
00000296 l       .debug_str	00000000 
00000298 l       .debug_str	00000000 
0000029d l       .debug_str	00000000 
000002c4 l       .debug_str	00000000 
000002c9 l       .debug_str	00000000 
000002cf l       .debug_str	00000000 
000002d5 l       .debug_str	00000000 
000002d8 l       .debug_str	00000000 
000002e7 l       .debug_str	00000000 
000002ee l       .debug_str	00000000 
000002f2 l       .debug_str	00000000 
000002fb l       .debug_str	00000000 
00000307 l       .debug_str	00000000 
00000320 l       .debug_str	00000000 
00000325 l       .debug_str	00000000 
00000336 l       .debug_str	00000000 
0000034e l       .debug_str	00000000 
00000352 l       .debug_str	00000000 
0000035d l       .debug_str	00000000 
00000364 l       .debug_str	00000000 
0000036a l       .debug_str	00000000 
0000036e l       .debug_str	00000000 
00000372 l       .debug_str	00000000 
0000037a l       .debug_str	00000000 
00000391 l       .debug_str	00000000 
000003b5 l       .debug_str	00000000 
00000000 l     O .rodata.cst8	00000008 .Lanon.3ed011473997af99b525cde47c9eaaac.0
00000008 l     O .rodata.cst8	00000008 .Lanon.3ed011473997af99b525cde47c9eaaac.1
00000010 l     O .rodata.cst8	00000008 .Lanon.3ed011473997af99b525cde47c9eaaac.2
00000000 l     O .rodata..Lanon.3ed011473997af99b525cde47c9eaaac.3	00000006 .Lanon.3ed011473997af99b525cde47c9eaaac.3
00000000 l     O .rodata..Lanon.3ed011473997af99b525cde47c9eaaac.4	00000007 .Lanon.3ed011473997af99b525cde47c9eaaac.4
00000000 l     O .rodata..Lanon.3ed011473997af99b525cde47c9eaaac.5	00000003 .Lanon.3ed011473997af99b525cde47c9eaaac.5
00000018 l     O .rodata.cst8	00000008 .Lanon.3ed011473997af99b525cde47c9eaaac.6
00000000 l     O .rodata..Lanon.3ed011473997af99b525cde47c9eaaac.7	00000001 .Lanon.3ed011473997af99b525cde47c9eaaac.7
00000000 l    d  .text.main	00000000 .text.main
00000000 l    d  .text.rust_begin_unwind	00000000 .text.rust_begin_unwind
00000000 l    d  .debug_abbrev	00000000 .debug_abbrev
00000000 l    d  .debug_info	00000000 .debug_info
00000000 l    d  .debug_ranges	00000000 .debug_ranges
00000000 l    d  .debug_frame	00000000 .debug_frame
00000000 l    d  .debug_line	00000000 .debug_line
00000000         *UND*	00000000 .hidden _ZN3app10gps_sensor18start_gps_listener17h506d2223cd840063E
00000000         *UND*	00000000 _ZN4core5panic8Location4file17h94cc6af18de736c4E
00000000         *UND*	00000000 _ZN4core5panic8Location4line17h3ffc63f14d0a6636E
00000000         *UND*	00000000 _ZN4core5panic9PanicInfo8location17h5226165d8771f8a2E
00000000         *UND*	00000000 _ZN4core6result19Result$LT$T$C$E$GT$6expect17h3575f9da53226836E
00000000         *UND*	00000000 _ZN4core6result19Result$LT$T$C$E$GT$6expect17h971a4fb20f73df2aE
00000000         *UND*	00000000 _ZN6mynewt3sys7console5flush17h498d792c115b7281E
00000000         *UND*	00000000 _ZN6mynewt3sys7console5print17h0f65bc3b0e739871E
00000000         *UND*	00000000 _ZN6mynewt3sys7console6buffer17h937c567b6e383806E
00000000         *UND*	00000000 _ZN6mynewt3sys7console8printhex17hd3f3435631f42d4dE
00000000         *UND*	00000000 _ZN6mynewt6kernel2os10eventq_run17h35180d98e8e522beE
00000000         *UND*	00000000 _ZN6mynewt6kernel2os15eventq_dflt_get17hfdc26cb533694dccE
00000000         *UND*	00000000 _ZN6mynewt7sysinit17hfbb6001f0140a448E
00000000         *UND*	00000000 gps_l70r_start
00000000 g     F .text.main	00000066 main
00000000 g     F .text.rust_begin_unwind	000000ac rust_begin_unwind



Disassembly of section .text.main:

00000000 <main>:
main():
/Users/Luppy/mynewt/stm32bluepill-mynewt-sensor/rust/app/src/lib.rs:50
};

///  Main program that initialises the sensor, network driver and starts reading and sending sensor data in the background.
///  main() will be called at Mynewt startup. It replaces the C version of the main() function.
#[no_mangle]                 //  Don't mangle the name "main"
extern "C" fn main() -> ! {  //  Declare extern "C" because it will be called by Mynewt
   0:	b086      	sub	sp, #24
/Users/Luppy/mynewt/stm32bluepill-mynewt-sensor/rust/app/src/lib.rs:56
    //  Initialise the Mynewt packages and Blue Pill internal temperature sensor driver.
    //  Start the CoAP / OIC Background Task to transmit CoAP messages.  Any startup
    //  functions defined in pkg.yml of our custom drivers and libraries will be called by 
    //  sysinit().  Here are the startup functions consolidated by Mynewt:
    //  bin/targets/bluepill_my_sensor/generated/src/bluepill_my_sensor-sysinit-app.c
    mynewt::sysinit();
   2:	f7ff fffe 	bl	0 <_ZN6mynewt7sysinit17hfbb6001f0140a448E>
   6:	e7ff      	b.n	2 <gps_l70r_start+0x2>
/Users/Luppy/mynewt/stm32bluepill-mynewt-sensor/rust/app/src/lib.rs:71
        .expect("TMP fail");
*/

    //  Start the GPS.
    extern { fn gps_l70r_start() -> i32; }
    unsafe { gps_l70r_start() };
   8:	f7ff fffe 	bl	0 <gps_l70r_start>
   c:	9003      	str	r0, [sp, #12]
   e:	e7ff      	b.n	10 <main+0x10>
/Users/Luppy/mynewt/stm32bluepill-mynewt-sensor/rust/app/src/lib.rs:76

    //  Start polling the GPS.
    //  extern { fn start_gps_listener(); }
    //  unsafe { start_gps_listener() };
    gps_sensor::start_gps_listener()
  10:	f7ff fffe 	bl	0 <_ZN3app10gps_sensor18start_gps_listener17h506d2223cd840063E>
  14:	9002      	str	r0, [sp, #8]
  16:	e7ff      	b.n	18 <main+0x18>
  18:	f240 0100 	movw	r1, #0
  1c:	f2c0 0100 	movt	r1, #0
  20:	2208      	movs	r2, #8
  22:	9802      	ldr	r0, [sp, #8]
  24:	f7ff fffe 	bl	0 <_ZN4core6result19Result$LT$T$C$E$GT$6expect17h3575f9da53226836E>
  28:	e7ff      	b.n	2a <main+0x2a>
/Users/Luppy/mynewt/stm32bluepill-mynewt-sensor/rust/app/src/lib.rs:80
        .expect("GPS fail");

    //  Main event loop
    loop {                            //  Loop forever...
  2a:	e7ff      	b.n	2c <main+0x2c>
  2c:	a804      	add	r0, sp, #16
/Users/Luppy/mynewt/stm32bluepill-mynewt-sensor/rust/app/src/lib.rs:82
        os::eventq_run(               //  Processing events...
            os::eventq_dflt_get()     //  From default event queue.
  2e:	f7ff fffe 	bl	0 <_ZN6mynewt6kernel2os15eventq_dflt_get17hfdc26cb533694dccE>
  32:	e7ff      	b.n	a <main+0xa>
  34:	f240 0100 	movw	r1, #0
  38:	f2c0 0100 	movt	r1, #0
  3c:	a804      	add	r0, sp, #16
  3e:	2208      	movs	r2, #8
  40:	f7ff fffe 	bl	0 <_ZN4core6result19Result$LT$T$C$E$GT$6expect17h971a4fb20f73df2aE>
  44:	9001      	str	r0, [sp, #4]
  46:	e7ff      	b.n	48 <main+0x48>
/Users/Luppy/mynewt/stm32bluepill-mynewt-sensor/rust/app/src/lib.rs:81
        os::eventq_run(               //  Processing events...
  48:	9801      	ldr	r0, [sp, #4]
  4a:	f7ff fffe 	bl	0 <_ZN6mynewt6kernel2os10eventq_run17h35180d98e8e522beE>
  4e:	9000      	str	r0, [sp, #0]
  50:	e7ff      	b.n	52 <main+0x52>
  52:	f240 0100 	movw	r1, #0
  56:	f2c0 0100 	movt	r1, #0
  5a:	2208      	movs	r2, #8
  5c:	9800      	ldr	r0, [sp, #0]
  5e:	f7ff fffe 	bl	0 <_ZN4core6result19Result$LT$T$C$E$GT$6expect17h3575f9da53226836E>
  62:	e7ff      	b.n	64 <main+0x64>
/Users/Luppy/mynewt/stm32bluepill-mynewt-sensor/rust/app/src/lib.rs:80
    loop {                            //  Loop forever...
  64:	e7e2      	b.n	2c <main+0x2c>

Disassembly of section .text.rust_begin_unwind:

00000000 <rust_begin_unwind>:
rust_begin_unwind():
/Users/Luppy/mynewt/stm32bluepill-mynewt-sensor/rust/app/src/lib.rs:91
    //  Never comes here
}

///  This function is called on panic, like an assertion failure. We display the filename and line number and pause in the debugger. From https://os.phil-opp.com/freestanding-rust-binary/
#[panic_handler]
fn panic(info: &PanicInfo) -> ! {
   0:	b088      	sub	sp, #32
   2:	4601      	mov	r1, r0
   4:	9002      	str	r0, [sp, #8]
/Users/Luppy/mynewt/stm32bluepill-mynewt-sensor/rust/app/src/lib.rs:93
    //  Display the filename and line number to the Semihosting Console.
    console::print("panic ");
   6:	f240 0000 	movw	r0, #0
   a:	f2c0 0000 	movt	r0, #0
   e:	2206      	movs	r2, #6
  10:	9101      	str	r1, [sp, #4]
  12:	4611      	mov	r1, r2
  14:	f7ff fffe 	bl	0 <_ZN6mynewt3sys7console5print17h0f65bc3b0e739871E>
  18:	e7ff      	b.n	1a <rust_begin_unwind+0x1a>
/Users/Luppy/mynewt/stm32bluepill-mynewt-sensor/rust/app/src/lib.rs:94
    if let Some(location) = info.location() {
  1a:	9802      	ldr	r0, [sp, #8]
  1c:	f7ff fffe 	bl	0 <_ZN4core5panic9PanicInfo8location17h5226165d8771f8a2E>
  20:	9003      	str	r0, [sp, #12]
  22:	e7ff      	b.n	24 <rust_begin_unwind+0x24>
  24:	9803      	ldr	r0, [sp, #12]
  26:	2800      	cmp	r0, #0
  28:	d032      	beq.n	90 <rust_begin_unwind+0x90>
  2a:	e7ff      	b.n	2c <rust_begin_unwind+0x2c>
  2c:	9803      	ldr	r0, [sp, #12]
  2e:	9004      	str	r0, [sp, #16]
/Users/Luppy/mynewt/stm32bluepill-mynewt-sensor/rust/app/src/lib.rs:95
        let file = location.file();
  30:	9804      	ldr	r0, [sp, #16]
  32:	f7ff fffe 	bl	0 <_ZN4core5panic8Location4file17h94cc6af18de736c4E>
  36:	9106      	str	r1, [sp, #24]
  38:	9005      	str	r0, [sp, #20]
  3a:	e7ff      	b.n	3c <rust_begin_unwind+0x3c>
/Users/Luppy/mynewt/stm32bluepill-mynewt-sensor/rust/app/src/lib.rs:96
        let line = location.line();
  3c:	9804      	ldr	r0, [sp, #16]
  3e:	f7ff fffe 	bl	0 <_ZN4core5panic8Location4line17h3ffc63f14d0a6636E>
  42:	9007      	str	r0, [sp, #28]
  44:	e7ff      	b.n	46 <rust_begin_unwind+0x46>
/Users/Luppy/mynewt/stm32bluepill-mynewt-sensor/rust/app/src/lib.rs:97
        console::print("at ");        console::buffer(&file);
  46:	f240 0000 	movw	r0, #0
  4a:	f2c0 0000 	movt	r0, #0
  4e:	2103      	movs	r1, #3
  50:	f7ff fffe 	bl	0 <_ZN6mynewt3sys7console5print17h0f65bc3b0e739871E>
  54:	e7ff      	b.n	56 <rust_begin_unwind+0x56>
  56:	9805      	ldr	r0, [sp, #20]
  58:	9906      	ldr	r1, [sp, #24]
  5a:	f7ff fffe 	bl	0 <_ZN6mynewt3sys7console6buffer17h937c567b6e383806E>
  5e:	e7ff      	b.n	1a <rust_begin_unwind+0x1a>
/Users/Luppy/mynewt/stm32bluepill-mynewt-sensor/rust/app/src/lib.rs:98
        console::print(" line 0x");   console::printhex(line as u8);  //  TODO: Print in decimal not hex. Allow more than 255 lines.
  60:	f240 0000 	movw	r0, #0
  64:	f2c0 0000 	movt	r0, #0
  68:	2108      	movs	r1, #8
  6a:	f7ff fffe 	bl	0 <_ZN6mynewt3sys7console5print17h0f65bc3b0e739871E>
  6e:	e7ff      	b.n	70 <rust_begin_unwind+0x70>
  70:	9807      	ldr	r0, [sp, #28]
  72:	f7ff fffe 	bl	0 <_ZN6mynewt3sys7console8printhex17hd3f3435631f42d4dE>
  76:	e7ff      	b.n	2 <rust_begin_unwind+0x2>
/Users/Luppy/mynewt/stm32bluepill-mynewt-sensor/rust/app/src/lib.rs:99
        console::print("\n");         console::flush();
  78:	f240 0000 	movw	r0, #0
  7c:	f2c0 0000 	movt	r0, #0
  80:	2101      	movs	r1, #1
  82:	f7ff fffe 	bl	0 <_ZN6mynewt3sys7console5print17h0f65bc3b0e739871E>
  86:	e7ff      	b.n	2 <_ZN6mynewt3sys7console5flush17h498d792c115b7281E+0x2>
  88:	f7ff fffe 	bl	0 <_ZN6mynewt3sys7console5flush17h498d792c115b7281E>
  8c:	e7ff      	b.n	8e <rust_begin_unwind+0x8e>
/Users/Luppy/mynewt/stm32bluepill-mynewt-sensor/rust/app/src/lib.rs:94
    if let Some(location) = info.location() {
  8e:	e00a      	b.n	a6 <rust_begin_unwind+0xa6>
/Users/Luppy/mynewt/stm32bluepill-mynewt-sensor/rust/app/src/lib.rs:101
    } else {
        console::print("no loc\n");   console::flush();
  90:	f240 0000 	movw	r0, #0
  94:	f2c0 0000 	movt	r0, #0
  98:	2107      	movs	r1, #7
  9a:	f7ff fffe 	bl	0 <_ZN6mynewt3sys7console5print17h0f65bc3b0e739871E>
  9e:	e7ff      	b.n	2 <_ZN6mynewt3sys7console5flush17h498d792c115b7281E+0x2>
  a0:	f7ff fffe 	bl	0 <_ZN6mynewt3sys7console5flush17h498d792c115b7281E>
  a4:	e7ff      	b.n	a6 <rust_begin_unwind+0xa6>
_ZN8cortex_m3asm4bkpt17h5534896ca3f3f8ebE():
/Users/Luppy/.cargo/registry/src/github.com-1ecc6299db9ec823/cortex-m-0.6.1/src/asm.rs:11
/// exception.
#[inline(always)]
pub fn bkpt() {
    match () {
        #[cfg(all(cortex_m, feature = "inline-asm"))]
        () => unsafe { asm!("bkpt" :::: "volatile") },
  a6:	be00      	bkpt	0x0000
rust_begin_unwind():
/Users/Luppy/mynewt/stm32bluepill-mynewt-sensor/rust/app/src/lib.rs:104
    }
    //  Pause in the debugger.
    bkpt();
  a8:	e7ff      	b.n	aa <rust_begin_unwind+0xaa>
/Users/Luppy/mynewt/stm32bluepill-mynewt-sensor/rust/app/src/lib.rs:106
    //  Loop forever so that device won't restart.
    loop {}
  aa:	e7fe      	b.n	aa <rust_begin_unwind+0xaa>

app-b90ce02d7e477c3f.d6w4n297npb5pfx.rcgu.o:     file format elf32-littlearm

SYMBOL TABLE:
00000000 l    df *ABS*	00000000 d6w4n297npb5pfx
00001d5b l       .debug_str	00000000 
0000267a l       .debug_str	00000000 
0000268f l       .debug_str	00000000 
000026b9 l       .debug_str	00000000 
00002729 l       .debug_str	00000000 
0000277c l       .debug_str	00000000 
000027cb l       .debug_str	00000000 
000027cf l       .debug_str	00000000 
000027d8 l       .debug_str	00000000 
000027df l       .debug_str	00000000 
000027e5 l       .debug_str	00000000 
000027ea l       .debug_str	00000000 
000027ec l       .debug_str	00000000 
000027ee l       .debug_str	00000000 
000027f3 l       .debug_str	00000000 
00000000 l       .debug_str	00000000 
00000041 l       .debug_str	00000000 
00000055 l       .debug_str	00000000 
00000085 l       .debug_str	00000000 
0000008a l       .debug_str	00000000 
0000008e l       .debug_str	00000000 
00000091 l       .debug_str	00000000 
0000009c l       .debug_str	00000000 
000000a7 l       .debug_str	00000000 
000000ae l       .debug_str	00000000 
000000b5 l       .debug_str	00000000 
000000bc l       .debug_str	00000000 
000000c0 l       .debug_str	00000000 
000000c8 l       .debug_str	00000000 
000000d3 l       .debug_str	00000000 
000000de l       .debug_str	00000000 
000000eb l       .debug_str	00000000 
000000f6 l       .debug_str	00000000 
000000fe l       .debug_str	00000000 
00000109 l       .debug_str	00000000 
00000114 l       .debug_str	00000000 
0000011e l       .debug_str	00000000 
00000129 l       .debug_str	00000000 
00000134 l       .debug_str	00000000 
00000141 l       .debug_str	00000000 
0000014d l       .debug_str	00000000 
0000015a l       .debug_str	00000000 
00000168 l       .debug_str	00000000 
00000172 l       .debug_str	00000000 
0000017f l       .debug_str	00000000 
0000018b l       .debug_str	00000000 
0000018f l       .debug_str	00000000 
00000192 l       .debug_str	00000000 
00000196 l       .debug_str	00000000 
0000019d l       .debug_str	00000000 
000001a0 l       .debug_str	00000000 
000001aa l       .debug_str	00000000 
000001b5 l       .debug_str	00000000 
000001be l       .debug_str	00000000 
000001c9 l       .debug_str	00000000 
000001d5 l       .debug_str	00000000 
000001d9 l       .debug_str	00000000 
000001e2 l       .debug_str	00000000 
000001e9 l       .debug_str	00000000 
000001f1 l       .debug_str	00000000 
000001f9 l       .debug_str	00000000 
00000203 l       .debug_str	00000000 
00000209 l       .debug_str	00000000 
00000210 l       .debug_str	00000000 
0000021a l       .debug_str	00000000 
00000221 l       .debug_str	00000000 
00000228 l       .debug_str	00000000 
0000022d l       .debug_str	00000000 
00000244 l       .debug_str	00000000 
00000271 l       .debug_str	00000000 
00000273 l       .debug_str	00000000 
00000278 l       .debug_str	00000000 
000002ad l       .debug_str	00000000 
000002b3 l       .debug_str	00000000 
000002b9 l       .debug_str	00000000 
000002c8 l       .debug_str	00000000 
000002d8 l       .debug_str	00000000 
000002e8 l       .debug_str	00000000 
000002f0 l       .debug_str	00000000 
00000319 l       .debug_str	00000000 
00000377 l       .debug_str	00000000 
000003dd l       .debug_str	00000000 
000003e4 l       .debug_str	00000000 
000003ec l       .debug_str	00000000 
000003f5 l       .debug_str	00000000 
00000413 l       .debug_str	00000000 
00000423 l       .debug_str	00000000 
00000431 l       .debug_str	00000000 
0000043c l       .debug_str	00000000 
00000449 l       .debug_str	00000000 
00000458 l       .debug_str	00000000 
00000462 l       .debug_str	00000000 
00000478 l       .debug_str	00000000 
00000482 l       .debug_str	00000000 
0000048b l       .debug_str	00000000 
00000494 l       .debug_str	00000000 
000004ba l       .debug_str	00000000 
000004d0 l       .debug_str	00000000 
000004db l       .debug_str	00000000 
000004f1 l       .debug_str	00000000 
000004f9 l       .debug_str	00000000 
0000051a l       .debug_str	00000000 
00000523 l       .debug_str	00000000 
0000052c l       .debug_str	00000000 
00000537 l       .debug_str	00000000 
00000541 l       .debug_str	00000000 
00000547 l       .debug_str	00000000 
0000057f l       .debug_str	00000000 
000005bf l       .debug_str	00000000 
000005c6 l       .debug_str	00000000 
000005ce l       .debug_str	00000000 
000005e5 l       .debug_str	00000000 
000005ee l       .debug_str	00000000 
00000610 l       .debug_str	00000000 
0000061a l       .debug_str	00000000 
00000641 l       .debug_str	00000000 
00000659 l       .debug_str	00000000 
00000663 l       .debug_str	00000000 
00000686 l       .debug_str	00000000 
00000688 l       .debug_str	00000000 
0000068c l       .debug_str	00000000 
000006d4 l       .debug_str	00000000 
000006dd l       .debug_str	00000000 
0000071d l       .debug_str	00000000 
00000764 l       .debug_str	00000000 
00000767 l       .debug_str	00000000 
000007d6 l       .debug_str	00000000 
00000801 l       .debug_str	00000000 
00000829 l       .debug_str	00000000 
00000899 l       .debug_str	00000000 
000008c5 l       .debug_str	00000000 
000008c8 l       .debug_str	00000000 
000008cf l       .debug_str	00000000 
000008d8 l       .debug_str	00000000 
000008de l       .debug_str	00000000 
000008ea l       .debug_str	00000000 
000008f2 l       .debug_str	00000000 
0000094c l       .debug_str	00000000 
000009ae l       .debug_str	00000000 
000009b9 l       .debug_str	00000000 
00000a00 l       .debug_str	00000000 
00000a4f l       .debug_str	00000000 
00000a59 l       .debug_str	00000000 
00000a96 l       .debug_str	00000000 
00000adb l       .debug_str	00000000 
00000ae4 l       .debug_str	00000000 
00000af4 l       .debug_str	00000000 
00000afc l       .debug_str	00000000 
00000b51 l       .debug_str	00000000 
00000bae l       .debug_str	00000000 
00000bba l       .debug_str	00000000 
00000bc3 l       .debug_str	00000000 
00000bcf l       .debug_str	00000000 
00000bdb l       .debug_str	00000000 
00000be4 l       .debug_str	00000000 
00000bec l       .debug_str	00000000 
00000bf4 l       .debug_str	00000000 
00000c09 l       .debug_str	00000000 
00000c10 l       .debug_str	00000000 
00000c30 l       .debug_str	00000000 
00000c37 l       .debug_str	00000000 
00000c3f l       .debug_str	00000000 
00000c49 l       .debug_str	00000000 
00000c60 l       .debug_str	00000000 
00000c65 l       .debug_str	00000000 
00000c6d l       .debug_str	00000000 
00000c76 l       .debug_str	00000000 
00000c7f l       .debug_str	00000000 
00000c88 l       .debug_str	00000000 
00000c90 l       .debug_str	00000000 
00000c94 l       .debug_str	00000000 
00000c9b l       .debug_str	00000000 
00000ca7 l       .debug_str	00000000 
00000cb2 l       .debug_str	00000000 
00000cba l       .debug_str	00000000 
00000cc2 l       .debug_str	00000000 
00000d3e l       .debug_str	00000000 
00000dc2 l       .debug_str	00000000 
00000ebe l       .debug_str	00000000 
00000fc2 l       .debug_str	00000000 
00000fd0 l       .debug_str	00000000 
00000fdb l       .debug_str	00000000 
00000fe5 l       .debug_str	00000000 
00000ff9 l       .debug_str	00000000 
00001004 l       .debug_str	00000000 
00001032 l       .debug_str	00000000 
000010ad l       .debug_str	00000000 
00001130 l       .debug_str	00000000 
0000113e l       .debug_str	00000000 
0000119d l       .debug_str	00000000 
00001204 l       .debug_str	00000000 
0000121a l       .debug_str	00000000 
0000122a l       .debug_str	00000000 
00001239 l       .debug_str	00000000 
0000123d l       .debug_str	00000000 
00001244 l       .debug_str	00000000 
0000124a l       .debug_str	00000000 
0000124e l       .debug_str	00000000 
00001254 l       .debug_str	00000000 
0000125a l       .debug_str	00000000 
00001266 l       .debug_str	00000000 
0000126e l       .debug_str	00000000 
00001274 l       .debug_str	00000000 
0000127c l       .debug_str	00000000 
00001282 l       .debug_str	00000000 
000012a5 l       .debug_str	00000000 
000012b5 l       .debug_str	00000000 
000012e8 l       .debug_str	00000000 
00001328 l       .debug_str	00000000 
00001370 l       .debug_str	00000000 
00001374 l       .debug_str	00000000 
0000137a l       .debug_str	00000000 
00001380 l       .debug_str	00000000 
00001386 l       .debug_str	00000000 
00001398 l       .debug_str	00000000 
000013cd l       .debug_str	00000000 
0000140f l       .debug_str	00000000 
00001459 l       .debug_str	00000000 
0000145d l       .debug_str	00000000 
00001463 l       .debug_str	00000000 
00001469 l       .debug_str	00000000 
0000146f l       .debug_str	00000000 
00001481 l       .debug_str	00000000 
000014b6 l       .debug_str	00000000 
000014f8 l       .debug_str	00000000 
00001542 l       .debug_str	00000000 
00001546 l       .debug_str	00000000 
0000154c l       .debug_str	00000000 
00001552 l       .debug_str	00000000 
00001558 l       .debug_str	00000000 
0000155e l       .debug_str	00000000 
0000156f l       .debug_str	00000000 
000015a3 l       .debug_str	00000000 
000015e4 l       .debug_str	00000000 
0000162d l       .debug_str	00000000 
00001632 l       .debug_str	00000000 
00001637 l       .debug_str	00000000 
0000163b l       .debug_str	00000000 
00001641 l       .debug_str	00000000 
00001647 l       .debug_str	00000000 
0000164d l       .debug_str	00000000 
0000165e l       .debug_str	00000000 
00001692 l       .debug_str	00000000 
000016d3 l       .debug_str	00000000 
0000171c l       .debug_str	00000000 
00001720 l       .debug_str	00000000 
00001729 l       .debug_str	00000000 
0000173a l       .debug_str	00000000 
0000176e l       .debug_str	00000000 
000017af l       .debug_str	00000000 
000017f8 l       .debug_str	00000000 
000017fd l       .debug_str	00000000 
00001801 l       .debug_str	00000000 
0000180a l       .debug_str	00000000 
00001811 l       .debug_str	00000000 
00001819 l       .debug_str	00000000 
0000182b l       .debug_str	00000000 
00001860 l       .debug_str	00000000 
000018a2 l       .debug_str	00000000 
000018ec l       .debug_str	00000000 
000018f0 l       .debug_str	00000000 
000018f6 l       .debug_str	00000000 
000018fc l       .debug_str	00000000 
00001902 l       .debug_str	00000000 
00001908 l       .debug_str	00000000 
00001910 l       .debug_str	00000000 
0000191e l       .debug_str	00000000 
0000192d l       .debug_str	00000000 
0000193e l       .debug_str	00000000 
00001949 l       .debug_str	00000000 
00001954 l       .debug_str	00000000 
0000195f l       .debug_str	00000000 
00001966 l       .debug_str	00000000 
00001989 l       .debug_str	00000000 
0000199b l       .debug_str	00000000 
000019d0 l       .debug_str	00000000 
00001a12 l       .debug_str	00000000 
00001a5c l       .debug_str	00000000 
00001a60 l       .debug_str	00000000 
00001a6a l       .debug_str	00000000 
00001a7c l       .debug_str	00000000 
00001ab1 l       .debug_str	00000000 
00001af3 l       .debug_str	00000000 
00001b3d l       .debug_str	00000000 
00001b42 l       .debug_str	00000000 
00001b4c l       .debug_str	00000000 
00001b5e l       .debug_str	00000000 
00001b93 l       .debug_str	00000000 
00001bd5 l       .debug_str	00000000 
00001c1f l       .debug_str	00000000 
00001c33 l       .debug_str	00000000 
00001c37 l       .debug_str	00000000 
00001c45 l       .debug_str	00000000 
00001c55 l       .debug_str	00000000 
00001c5e l       .debug_str	00000000 
00001c69 l       .debug_str	00000000 
00001c78 l       .debug_str	00000000 
00001c8d l       .debug_str	00000000 
00001cbe l       .debug_str	00000000 
00001e00 l       .debug_str	00000000 
00001e0b l       .debug_str	00000000 
00001e14 l       .debug_str	00000000 
00001e35 l       .debug_str	00000000 
00001e48 l       .debug_str	00000000 
00001e7e l       .debug_str	00000000 
00001f01 l       .debug_str	00000000 
00001f8c l       .debug_str	00000000 
00001fa8 l       .debug_str	00000000 
00001ff4 l       .debug_str	00000000 
00002048 l       .debug_str	00000000 
00002065 l       .debug_str	00000000 
00002079 l       .debug_str	00000000 
000020c5 l       .debug_str	00000000 
00002119 l       .debug_str	00000000 
0000212f l       .debug_str	00000000 
00002143 l       .debug_str	00000000 
0000218a l       .debug_str	00000000 
000021d9 l       .debug_str	00000000 
000021e2 l       .debug_str	00000000 
000021f0 l       .debug_str	00000000 
00002221 l       .debug_str	00000000 
00002227 l       .debug_str	00000000 
0000222f l       .debug_str	00000000 
00002236 l       .debug_str	00000000 
0000223e l       .debug_str	00000000 
00002249 l       .debug_str	00000000 
00002251 l       .debug_str	00000000 
00002260 l       .debug_str	00000000 
00002264 l       .debug_str	00000000 
0000226f l       .debug_str	00000000 
0000227b l       .debug_str	00000000 
00002286 l       .debug_str	00000000 
00002297 l       .debug_str	00000000 
0000229d l       .debug_str	00000000 
000022a5 l       .debug_str	00000000 
000022ac l       .debug_str	00000000 
000022b6 l       .debug_str	00000000 
000022be l       .debug_str	00000000 
000022c6 l       .debug_str	00000000 
000022e8 l       .debug_str	00000000 
000022f3 l       .debug_str	00000000 
000022ff l       .debug_str	00000000 
00002307 l       .debug_str	00000000 
00002310 l       .debug_str	00000000 
0000231b l       .debug_str	00000000 
00002322 l       .debug_str	00000000 
0000232d l       .debug_str	00000000 
00002338 l       .debug_str	00000000 
00002348 l       .debug_str	00000000 
00002358 l       .debug_str	00000000 
00002367 l       .debug_str	00000000 
0000236f l       .debug_str	00000000 
00002376 l       .debug_str	00000000 
0000237e l       .debug_str	00000000 
0000239c l       .debug_str	00000000 
000023ac l       .debug_str	00000000 
000023df l       .debug_str	00000000 
000023f4 l       .debug_str	00000000 
000023fd l       .debug_str	00000000 
0000245a l       .debug_str	00000000 
000024bf l       .debug_str	00000000 
000024c9 l       .debug_str	00000000 
000024d9 l       .debug_str	00000000 
000024ee l       .debug_str	00000000 
000024f6 l       .debug_str	00000000 
0000255a l       .debug_str	00000000 
000025c6 l       .debug_str	00000000 
000025cd l       .debug_str	00000000 
000025d5 l       .debug_str	00000000 
000025f3 l       .debug_str	00000000 
00002603 l       .debug_str	00000000 
00002636 l       .debug_str	00000000 
0000264b l       .debug_str	00000000 
0000265e l       .debug_str	00000000 
00002673 l       .debug_str	00000000 
00000000 l    d  .text._ZN4core6result19Result$LT$T$C$E$GT$6expect17h971a4fb20f73df2aE	00000000 .text._ZN4core6result19Result$LT$T$C$E$GT$6expect17h971a4fb20f73df2aE
00000000 l    d  .text._ZN73_$LT$core..result..Result$LT$T$C$E$GT$$u20$as$u20$core..ops..try..Try$GT$10from_error17h6d3955e1a79eef94E	00000000 .text._ZN73_$LT$core..result..Result$LT$T$C$E$GT$$u20$as$u20$core..ops..try..Try$GT$10from_error17h6d3955e1a79eef94E
00000000 l    d  .text._ZN73_$LT$core..result..Result$LT$T$C$E$GT$$u20$as$u20$core..ops..try..Try$GT$11into_result17h00bf1b57699326cfE	00000000 .text._ZN73_$LT$core..result..Result$LT$T$C$E$GT$$u20$as$u20$core..ops..try..Try$GT$11into_result17h00bf1b57699326cfE
00000000 l    d  .text._ZN73_$LT$core..result..Result$LT$T$C$E$GT$$u20$as$u20$core..ops..try..Try$GT$11into_result17h2548a31748257156E	00000000 .text._ZN73_$LT$core..result..Result$LT$T$C$E$GT$$u20$as$u20$core..ops..try..Try$GT$11into_result17h2548a31748257156E
00000000 l    d  .debug_loc	00000000 .debug_loc
00000000 l    d  .debug_abbrev	00000000 .debug_abbrev
00000000 l    d  .debug_info	00000000 .debug_info
00000000 l    d  .debug_ranges	00000000 .debug_ranges
00000000 l    d  .debug_frame	00000000 .debug_frame
00000000 l    d  .debug_line	00000000 .debug_line
00000000         *UND*	00000000 _ZN4core6result13unwrap_failed17hcd10af70e9ab946bE
00000000 g     F .text._ZN4core6result19Result$LT$T$C$E$GT$6expect17h971a4fb20f73df2aE	0000005a _ZN4core6result19Result$LT$T$C$E$GT$6expect17h971a4fb20f73df2aE
00000000 g     F .text._ZN73_$LT$core..result..Result$LT$T$C$E$GT$$u20$as$u20$core..ops..try..Try$GT$10from_error17h6d3955e1a79eef94E	00000012 _ZN73_$LT$core..result..Result$LT$T$C$E$GT$$u20$as$u20$core..ops..try..Try$GT$10from_error17h6d3955e1a79eef94E
00000000 g     F .text._ZN73_$LT$core..result..Result$LT$T$C$E$GT$$u20$as$u20$core..ops..try..Try$GT$11into_result17h00bf1b57699326cfE	0000000e _ZN73_$LT$core..result..Result$LT$T$C$E$GT$$u20$as$u20$core..ops..try..Try$GT$11into_result17h00bf1b57699326cfE
00000000 g     F .text._ZN73_$LT$core..result..Result$LT$T$C$E$GT$$u20$as$u20$core..ops..try..Try$GT$11into_result17h2548a31748257156E	0000001a _ZN73_$LT$core..result..Result$LT$T$C$E$GT$$u20$as$u20$core..ops..try..Try$GT$11into_result17h2548a31748257156E



Disassembly of section .text._ZN4core6result19Result$LT$T$C$E$GT$6expect17h971a4fb20f73df2aE:

00000000 <_ZN4core6result19Result$LT$T$C$E$GT$6expect17h971a4fb20f73df2aE>:
_ZN4core6result19Result$LT$T$C$E$GT$6expect17h971a4fb20f73df2aE():
/rustc/50a0defd5a93523067ef239936cc2e0755220904/src/libcore/result.rs:824
   0:	b580      	push	{r7, lr}
   2:	b08a      	sub	sp, #40	; 0x28
   4:	4613      	mov	r3, r2
   6:	468c      	mov	ip, r1
   8:	4686      	mov	lr, r0
   a:	9106      	str	r1, [sp, #24]
   c:	9207      	str	r2, [sp, #28]
/rustc/50a0defd5a93523067ef239936cc2e0755220904/src/libcore/result.rs:826
   e:	6800      	ldr	r0, [r0, #0]
  10:	2800      	cmp	r0, #0
  12:	9305      	str	r3, [sp, #20]
  14:	f8cd c010 	str.w	ip, [sp, #16]
  18:	f8cd e00c 	str.w	lr, [sp, #12]
  1c:	9002      	str	r0, [sp, #8]
  1e:	d005      	beq.n	2c <_ZN4core6result19Result$LT$T$C$E$GT$6expect17h971a4fb20f73df2aE+0x2c>
  20:	e7ff      	b.n	22 <_ZN4core6result19Result$LT$T$C$E$GT$6expect17h971a4fb20f73df2aE+0x22>
  22:	9802      	ldr	r0, [sp, #8]
  24:	2801      	cmp	r0, #1
  26:	d00b      	beq.n	40 <_ZN4core6result19Result$LT$T$C$E$GT$6expect17h971a4fb20f73df2aE+0x40>
  28:	e7ff      	b.n	2a <_ZN4core6result19Result$LT$T$C$E$GT$6expect17h971a4fb20f73df2aE+0x2a>
/rustc/50a0defd5a93523067ef239936cc2e0755220904/src/libcore/result.rs:829
  2a:	defe      	udf	#254	; 0xfe
/rustc/50a0defd5a93523067ef239936cc2e0755220904/src/libcore/result.rs:826
  2c:	9803      	ldr	r0, [sp, #12]
  2e:	6841      	ldr	r1, [r0, #4]
  30:	9108      	str	r1, [sp, #32]
  32:	9808      	ldr	r0, [sp, #32]
/rustc/50a0defd5a93523067ef239936cc2e0755220904/src/libcore/result.rs:829
  34:	9903      	ldr	r1, [sp, #12]
  36:	680a      	ldr	r2, [r1, #0]
  38:	2a00      	cmp	r2, #0
  3a:	9001      	str	r0, [sp, #4]
  3c:	d009      	beq.n	52 <_ZN4core6result19Result$LT$T$C$E$GT$6expect17h971a4fb20f73df2aE+0x52>
  3e:	e00b      	b.n	58 <_ZN4core6result19Result$LT$T$C$E$GT$6expect17h971a4fb20f73df2aE+0x58>
/rustc/50a0defd5a93523067ef239936cc2e0755220904/src/libcore/result.rs:827
  40:	9803      	ldr	r0, [sp, #12]
  42:	6841      	ldr	r1, [r0, #4]
  44:	9109      	str	r1, [sp, #36]	; 0x24
  46:	9806      	ldr	r0, [sp, #24]
  48:	9907      	ldr	r1, [sp, #28]
  4a:	9a09      	ldr	r2, [sp, #36]	; 0x24
  4c:	f7ff fffe 	bl	0 <_ZN4core6result13unwrap_failed17hcd10af70e9ab946bE>
  50:	defe      	udf	#254	; 0xfe
/rustc/50a0defd5a93523067ef239936cc2e0755220904/src/libcore/result.rs:829
  52:	9801      	ldr	r0, [sp, #4]
  54:	b00a      	add	sp, #40	; 0x28
  56:	bd80      	pop	{r7, pc}
  58:	e7fb      	b.n	52 <_ZN4core6result19Result$LT$T$C$E$GT$6expect17h971a4fb20f73df2aE+0x52>

Disassembly of section .text._ZN73_$LT$core..result..Result$LT$T$C$E$GT$$u20$as$u20$core..ops..try..Try$GT$10from_error17h6d3955e1a79eef94E:

00000000 <_ZN73_$LT$core..result..Result$LT$T$C$E$GT$$u20$as$u20$core..ops..try..Try$GT$10from_error17h6d3955e1a79eef94E>:
_ZN73_$LT$core..result..Result$LT$T$C$E$GT$$u20$as$u20$core..ops..try..Try$GT$10from_error17h6d3955e1a79eef94E():
/rustc/50a0defd5a93523067ef239936cc2e0755220904/src/libcore/result.rs:1292
   0:	b083      	sub	sp, #12
   2:	4601      	mov	r1, r0
   4:	9001      	str	r0, [sp, #4]
/rustc/50a0defd5a93523067ef239936cc2e0755220904/src/libcore/result.rs:1293
   6:	9801      	ldr	r0, [sp, #4]
   8:	9002      	str	r0, [sp, #8]
/rustc/50a0defd5a93523067ef239936cc2e0755220904/src/libcore/result.rs:1294
   a:	9802      	ldr	r0, [sp, #8]
   c:	9100      	str	r1, [sp, #0]
   e:	b003      	add	sp, #12
  10:	4770      	bx	lr

Disassembly of section .text._ZN73_$LT$core..result..Result$LT$T$C$E$GT$$u20$as$u20$core..ops..try..Try$GT$11into_result17h00bf1b57699326cfE:

00000000 <_ZN73_$LT$core..result..Result$LT$T$C$E$GT$$u20$as$u20$core..ops..try..Try$GT$11into_result17h00bf1b57699326cfE>:
_ZN73_$LT$core..result..Result$LT$T$C$E$GT$$u20$as$u20$core..ops..try..Try$GT$11into_result17h00bf1b57699326cfE():
/rustc/50a0defd5a93523067ef239936cc2e0755220904/src/libcore/result.rs:1282
   0:	b082      	sub	sp, #8
   2:	4601      	mov	r1, r0
   4:	9001      	str	r0, [sp, #4]
/rustc/50a0defd5a93523067ef239936cc2e0755220904/src/libcore/result.rs:1283
   6:	9801      	ldr	r0, [sp, #4]
/rustc/50a0defd5a93523067ef239936cc2e0755220904/src/libcore/result.rs:1284
   8:	9100      	str	r1, [sp, #0]
   a:	b002      	add	sp, #8
   c:	4770      	bx	lr

Disassembly of section .text._ZN73_$LT$core..result..Result$LT$T$C$E$GT$$u20$as$u20$core..ops..try..Try$GT$11into_result17h2548a31748257156E:

00000000 <_ZN73_$LT$core..result..Result$LT$T$C$E$GT$$u20$as$u20$core..ops..try..Try$GT$11into_result17h2548a31748257156E>:
_ZN73_$LT$core..result..Result$LT$T$C$E$GT$$u20$as$u20$core..ops..try..Try$GT$11into_result17h2548a31748257156E():
/rustc/50a0defd5a93523067ef239936cc2e0755220904/src/libcore/result.rs:1282
   0:	b082      	sub	sp, #8
   2:	460a      	mov	r2, r1
   4:	4603      	mov	r3, r0
/rustc/50a0defd5a93523067ef239936cc2e0755220904/src/libcore/result.rs:1283
   6:	f8d1 c000 	ldr.w	ip, [r1]
   a:	6849      	ldr	r1, [r1, #4]
   c:	6041      	str	r1, [r0, #4]
   e:	f8c0 c000 	str.w	ip, [r0]
/rustc/50a0defd5a93523067ef239936cc2e0755220904/src/libcore/result.rs:1284
  12:	9201      	str	r2, [sp, #4]
  14:	9300      	str	r3, [sp, #0]
  16:	b002      	add	sp, #8
  18:	4770      	bx	lr
arm-none-eabi-objdump: rust.metadata.bin: File format not recognized
arm-none-eabi-objdump: app-b90ce02d7e477c3f.1865e6mu8o34enxf.rcgu.bc.z: File format not recognized
arm-none-eabi-objdump: app-b90ce02d7e477c3f.1av89fbqeepl6rg1.rcgu.bc.z: File format not recognized
arm-none-eabi-objdump: app-b90ce02d7e477c3f.29cfty5pwckdmq5t.rcgu.bc.z: File format not recognized
arm-none-eabi-objdump: app-b90ce02d7e477c3f.387fyplfnkxh0j64.rcgu.bc.z: File format not recognized
arm-none-eabi-objdump: app-b90ce02d7e477c3f.4dkwsijwq614g9b5.rcgu.bc.z: File format not recognized
arm-none-eabi-objdump: app-b90ce02d7e477c3f.4q9qovk8rqwaqec4.rcgu.bc.z: File format not recognized
arm-none-eabi-objdump: app-b90ce02d7e477c3f.d6w4n297npb5pfx.rcgu.bc.z: File format not recognized
