In archive target\thumbv7em-none-eabihf\release\libapp.rlib:

app-8021505c7b91905c.app.5t6t232x-cgu.0.rcgu.o:     file format elf32-littlearm

SYMBOL TABLE:
00000000 l    df *ABS*	00000000 app.5t6t232x-cgu.0
00005fd1 l       .debug_str	00000000 
00011412 l       .debug_str	00000000 
000113d8 l       .debug_str	00000000 
00011393 l       .debug_str	00000000 
00011345 l       .debug_str	00000000 
00011305 l       .debug_str	00000000 
000112bc l       .debug_str	00000000 
000112a6 l       .debug_str	00000000 
0001126e l       .debug_str	00000000 
0001125e l       .debug_str	00000000 
00011250 l       .debug_str	00000000 
00011201 l       .debug_str	00000000 
000111ee l       .debug_str	00000000 
00011199 l       .debug_str	00000000 
0001118a l       .debug_str	00000000 
00011139 l       .debug_str	00000000 
0001112b l       .debug_str	00000000 
00014d81 l       .debug_str	00000000 
000110db l       .debug_str	00000000 
00014d77 l       .debug_str	00000000 
0001108e l       .debug_str	00000000 
00011083 l       .debug_str	00000000 
00014d60 l       .debug_str	00000000 
0001103f l       .debug_str	00000000 
00011024 l       .debug_str	00000000 
00014d57 l       .debug_str	00000000 
00010fcf l       .debug_str	00000000 
00014d52 l       .debug_str	00000000 
00010fc6 l       .debug_str	00000000 
00014d49 l       .debug_str	00000000 
00010f85 l       .debug_str	00000000 
00010f57 l       .debug_str	00000000 
00014d2b l       .debug_str	00000000 
00010efe l       .debug_str	00000000 
00014d23 l       .debug_str	00000000 
00010efa l       .debug_str	00000000 
00014d1e l       .debug_str	00000000 
00010ef6 l       .debug_str	00000000 
00010e92 l       .debug_str	00000000 
00014d1a l       .debug_str	00000000 
00010e3e l       .debug_str	00000000 
00014d12 l       .debug_str	00000000 
00010e04 l       .debug_str	00000000 
00010db3 l       .debug_str	00000000 
00014d0d l       .debug_str	00000000 
00010d5e l       .debug_str	00000000 
00010d0d l       .debug_str	00000000 
00014d09 l       .debug_str	00000000 
00010cea l       .debug_str	00000000 
00014d02 l       .debug_str	00000000 
00010c99 l       .debug_str	00000000 
00014cfc l       .debug_str	00000000 
00010c73 l       .debug_str	00000000 
00010c22 l       .debug_str	00000000 
00014cf8 l       .debug_str	00000000 
00010bf8 l       .debug_str	00000000 
00014ceb l       .debug_str	00000000 
00010ba7 l       .debug_str	00000000 
00014bdf l       .debug_str	00000000 
00010b82 l       .debug_str	00000000 
00010b31 l       .debug_str	00000000 
00010b19 l       .debug_str	00000000 
00014acf l       .debug_str	00000000 
00010ac8 l       .debug_str	00000000 
00010aa8 l       .debug_str	00000000 
00014aca l       .debug_str	00000000 
00010a57 l       .debug_str	00000000 
0001095a l       .debug_str	00000000 
00014a9c l       .debug_str	00000000 
00010904 l       .debug_str	00000000 
000108ae l       .debug_str	00000000 
00014a8f l       .debug_str	00000000 
000107b0 l       .debug_str	00000000 
00010758 l       .debug_str	00000000 
0001074a l       .debug_str	00000000 
00014a86 l       .debug_str	00000000 
0001070a l       .debug_str	00000000 
000106e3 l       .debug_str	00000000 
00014a7a l       .debug_str	00000000 
000106a3 l       .debug_str	00000000 
0001065c l       .debug_str	00000000 
0001061c l       .debug_str	00000000 
00014a74 l       .debug_str	00000000 
000105eb l       .debug_str	00000000 
00014a6a l       .debug_str	00000000 
00010565 l       .debug_str	00000000 
0001052e l       .debug_str	00000000 
00014a64 l       .debug_str	00000000 
000104a8 l       .debug_str	00000000 
00010451 l       .debug_str	00000000 
00014a5b l       .debug_str	00000000 
0001041d l       .debug_str	00000000 
000103d5 l       .debug_str	00000000 
00014a51 l       .debug_str	00000000 
00010394 l       .debug_str	00000000 
00010354 l       .debug_str	00000000 
00014a45 l       .debug_str	00000000 
0001031f l       .debug_str	00000000 
00014a3a l       .debug_str	00000000 
000102e6 l       .debug_str	00000000 
000102b1 l       .debug_str	00000000 
00014a31 l       .debug_str	00000000 
00010277 l       .debug_str	00000000 
00010242 l       .debug_str	00000000 
00014a2b l       .debug_str	00000000 
0001021d l       .debug_str	00000000 
000101e8 l       .debug_str	00000000 
00014a1c l       .debug_str	00000000 
000101ba l       .debug_str	00000000 
00010185 l       .debug_str	00000000 
00014a10 l       .debug_str	00000000 
0001016b l       .debug_str	00000000 
00010136 l       .debug_str	00000000 
00014a0b l       .debug_str	00000000 
0001011f l       .debug_str	00000000 
000100ea l       .debug_str	00000000 
00014a09 l       .debug_str	00000000 
000100b5 l       .debug_str	00000000 
00010080 l       .debug_str	00000000 
000149ff l       .debug_str	00000000 
00010030 l       .debug_str	00000000 
000149e2 l       .debug_str	00000000 
0000fffb l       .debug_str	00000000 
000149d7 l       .debug_str	00000000 
0000ffd4 l       .debug_str	00000000 
000149cb l       .debug_str	00000000 
0000ff9f l       .debug_str	00000000 
000149c6 l       .debug_str	00000000 
0000fe94 l       .debug_str	00000000 
000149bc l       .debug_str	00000000 
0000fe5f l       .debug_str	00000000 
0000fe15 l       .debug_str	00000000 
0000fde0 l       .debug_str	00000000 
0000fd12 l       .debug_str	00000000 
000149b2 l       .debug_str	00000000 
0000fcdd l       .debug_str	00000000 
0000fca8 l       .debug_str	00000000 
0000fc73 l       .debug_str	00000000 
000149ad l       .debug_str	00000000 
0000fc43 l       .debug_str	00000000 
0000fc0e l       .debug_str	00000000 
0000fbc3 l       .debug_str	00000000 
000149a4 l       .debug_str	00000000 
0000fb8e l       .debug_str	00000000 
00014998 l       .debug_str	00000000 
0000fb60 l       .debug_str	00000000 
0001495b l       .debug_str	00000000 
0000fb25 l       .debug_str	00000000 
00014953 l       .debug_str	00000000 
0000fb0c l       .debug_str	00000000 
00014945 l       .debug_str	00000000 
0000fabf l       .debug_str	00000000 
00014930 l       .debug_str	00000000 
0000fa84 l       .debug_str	00000000 
00014926 l       .debug_str	00000000 
0000fa4c l       .debug_str	00000000 
0001491b l       .debug_str	00000000 
0000fa48 l       .debug_str	00000000 
00014910 l       .debug_str	00000000 
0000f94b l       .debug_str	00000000 
00014909 l       .debug_str	00000000 
0000f91a l       .debug_str	00000000 
00014900 l       .debug_str	00000000 
0000f8cf l       .debug_str	00000000 
000148f8 l       .debug_str	00000000 
0000f8a6 l       .debug_str	00000000 
000148c7 l       .debug_str	00000000 
0000f85e l       .debug_str	00000000 
0001489d l       .debug_str	00000000 
0000f7ca l       .debug_str	00000000 
0000f71e l       .debug_str	00000000 
00014887 l       .debug_str	00000000 
0000f71a l       .debug_str	00000000 
0000f717 l       .debug_str	00000000 
00014868 l       .debug_str	00000000 
0000f713 l       .debug_str	00000000 
0001485d l       .debug_str	00000000 
0000f70c l       .debug_str	00000000 
0000f704 l       .debug_str	00000000 
0000f6a1 l       .debug_str	00000000 
00014855 l       .debug_str	00000000 
0000f640 l       .debug_str	00000000 
0001482f l       .debug_str	00000000 
0000f5df l       .debug_str	00000000 
000147ee l       .debug_str	00000000 
0000f58b l       .debug_str	00000000 
000147d6 l       .debug_str	00000000 
0000f55e l       .debug_str	00000000 
000146da l       .debug_str	00000000 
0000f50d l       .debug_str	00000000 
0001469f l       .debug_str	00000000 
0000f4e2 l       .debug_str	00000000 
00014679 l       .debug_str	00000000 
0000f493 l       .debug_str	00000000 
00014658 l       .debug_str	00000000 
0000f43b l       .debug_str	00000000 
0001461c l       .debug_str	00000000 
0000f3e1 l       .debug_str	00000000 
0000f3ac l       .debug_str	00000000 
00014618 l       .debug_str	00000000 
0000f39e l       .debug_str	00000000 
000145f2 l       .debug_str	00000000 
0000f386 l       .debug_str	00000000 
0000f378 l       .debug_str	00000000 
000145e6 l       .debug_str	00000000 
0000f36f l       .debug_str	00000000 
00014596 l       .debug_str	00000000 
0000f33b l       .debug_str	00000000 
00014557 l       .debug_str	00000000 
0000f2a6 l       .debug_str	00000000 
00014554 l       .debug_str	00000000 
0000f20d l       .debug_str	00000000 
00014551 l       .debug_str	00000000 
0000f1d1 l       .debug_str	00000000 
00014548 l       .debug_str	00000000 
0000f135 l       .debug_str	00000000 
0000f103 l       .debug_str	00000000 
00014544 l       .debug_str	00000000 
0000f073 l       .debug_str	00000000 
00014540 l       .debug_str	00000000 
0000f037 l       .debug_str	00000000 
0001453d l       .debug_str	00000000 
0000efaa l       .debug_str	00000000 
00014539 l       .debug_str	00000000 
0000ef70 l       .debug_str	00000000 
0001452f l       .debug_str	00000000 
0000eee5 l       .debug_str	00000000 
00014504 l       .debug_str	00000000 
0000eed0 l       .debug_str	00000000 
0000eec5 l       .debug_str	00000000 
000144a6 l       .debug_str	00000000 
0000ede3 l       .debug_str	00000000 
00014457 l       .debug_str	00000000 
0000ed55 l       .debug_str	00000000 
0000ed50 l       .debug_str	00000000 
0001444d l       .debug_str	00000000 
0000ed26 l       .debug_str	00000000 
00014442 l       .debug_str	00000000 
0000ed22 l       .debug_str	00000000 
000143dc l       .debug_str	00000000 
0000ed19 l       .debug_str	00000000 
0000ecf4 l       .debug_str	00000000 
00014382 l       .debug_str	00000000 
0000ecb4 l       .debug_str	00000000 
00014313 l       .debug_str	00000000 
0000eca8 l       .debug_str	00000000 
0000eca1 l       .debug_str	00000000 
0001430e l       .debug_str	00000000 
0000ec78 l       .debug_str	00000000 
0000ec39 l       .debug_str	00000000 
000142ce l       .debug_str	00000000 
0000ec23 l       .debug_str	00000000 
000142c0 l       .debug_str	00000000 
0000ec1d l       .debug_str	00000000 
0000ec13 l       .debug_str	00000000 
000142b6 l       .debug_str	00000000 
0000ec0a l       .debug_str	00000000 
0000ebf7 l       .debug_str	00000000 
000142b0 l       .debug_str	00000000 
0000ebb9 l       .debug_str	00000000 
0000eb66 l       .debug_str	00000000 
000142a3 l       .debug_str	00000000 
0000eb0f l       .debug_str	00000000 
0001429d l       .debug_str	00000000 
0000ea9f l       .debug_str	00000000 
0000ea6d l       .debug_str	00000000 
0000ea31 l       .debug_str	00000000 
00014299 l       .debug_str	00000000 
0000e9ff l       .debug_str	00000000 
0000e9f6 l       .debug_str	00000000 
0001426a l       .debug_str	00000000 
0000e9cc l       .debug_str	00000000 
00014266 l       .debug_str	00000000 
0000e9b7 l       .debug_str	00000000 
00014262 l       .debug_str	00000000 
0000e9b0 l       .debug_str	00000000 
00014259 l       .debug_str	00000000 
0000e99b l       .debug_str	00000000 
00014250 l       .debug_str	00000000 
0000e988 l       .debug_str	00000000 
0000e973 l       .debug_str	00000000 
0000e940 l       .debug_str	00000000 
00014248 l       .debug_str	00000000 
0000e930 l       .debug_str	00000000 
0000e912 l       .debug_str	00000000 
0000e90a l       .debug_str	00000000 
0000e903 l       .debug_str	00000000 
0001423d l       .debug_str	00000000 
0000e897 l       .debug_str	00000000 
0001423a l       .debug_str	00000000 
0000e833 l       .debug_str	00000000 
00014237 l       .debug_str	00000000 
0000e82b l       .debug_str	00000000 
00014234 l       .debug_str	00000000 
0000e816 l       .debug_str	00000000 
0001422d l       .debug_str	00000000 
0000e806 l       .debug_str	00000000 
0000e7fc l       .debug_str	00000000 
00014223 l       .debug_str	00000000 
0000e797 l       .debug_str	00000000 
0001421b l       .debug_str	00000000 
0000e73a l       .debug_str	00000000 
00014214 l       .debug_str	00000000 
0000e731 l       .debug_str	00000000 
0001420d l       .debug_str	00000000 
0000e71c l       .debug_str	00000000 
00014206 l       .debug_str	00000000 
0000e6e9 l       .debug_str	00000000 
000141fe l       .debug_str	00000000 
0000e6d9 l       .debug_str	00000000 
000141f9 l       .debug_str	00000000 
0000e6bb l       .debug_str	00000000 
000141c0 l       .debug_str	00000000 
0000e6b3 l       .debug_str	00000000 
000141b3 l       .debug_str	00000000 
0000e6ac l       .debug_str	00000000 
000141aa l       .debug_str	00000000 
0000e6a4 l       .debug_str	00000000 
000141a0 l       .debug_str	00000000 
0000e695 l       .debug_str	00000000 
00014196 l       .debug_str	00000000 
0000e685 l       .debug_str	00000000 
0001418d l       .debug_str	00000000 
0000e675 l       .debug_str	00000000 
00014187 l       .debug_str	00000000 
0000e66a l       .debug_str	00000000 
0000e65f l       .debug_str	00000000 
0000e658 l       .debug_str	00000000 
0000e64d l       .debug_str	00000000 
0000e644 l       .debug_str	00000000 
00014181 l       .debug_str	00000000 
0000e63c l       .debug_str	00000000 
0001416f l       .debug_str	00000000 
0000e630 l       .debug_str	00000000 
0001416a l       .debug_str	00000000 
0000e625 l       .debug_str	00000000 
0001413c l       .debug_str	00000000 
0000e603 l       .debug_str	00000000 
0000e5fb l       .debug_str	00000000 
0000e5f3 l       .debug_str	00000000 
00014127 l       .debug_str	00000000 
0000e5e9 l       .debug_str	00000000 
000140e7 l       .debug_str	00000000 
0000e5e2 l       .debug_str	00000000 
0000e5da l       .debug_str	00000000 
000140cf l       .debug_str	00000000 
0000e5d4 l       .debug_str	00000000 
0001408c l       .debug_str	00000000 
0000e5c3 l       .debug_str	00000000 
00014076 l       .debug_str	00000000 
0000e5b8 l       .debug_str	00000000 
00014036 l       .debug_str	00000000 
0000e5ac l       .debug_str	00000000 
00013fd1 l       .debug_str	00000000 
0000e5a1 l       .debug_str	00000000 
00013f51 l       .debug_str	00000000 
0000e59d l       .debug_str	00000000 
0000e58e l       .debug_str	00000000 
00013f4f l       .debug_str	00000000 
0000e586 l       .debug_str	00000000 
0000e57b l       .debug_str	00000000 
00013f0b l       .debug_str	00000000 
0000e573 l       .debug_str	00000000 
0000e56c l       .debug_str	00000000 
00013e66 l       .debug_str	00000000 
0000e564 l       .debug_str	00000000 
00013de8 l       .debug_str	00000000 
0000e55e l       .debug_str	00000000 
0000e52d l       .debug_str	00000000 
00013d6a l       .debug_str	00000000 
0000e51f l       .debug_str	00000000 
0000e516 l       .debug_str	00000000 
00013cc0 l       .debug_str	00000000 
0000e4c7 l       .debug_str	00000000 
00013c3f l       .debug_str	00000000 
0000e480 l       .debug_str	00000000 
00013bc2 l       .debug_str	00000000 
0000e46c l       .debug_str	00000000 
00013b19 l       .debug_str	00000000 
0000e456 l       .debug_str	00000000 
00013a97 l       .debug_str	00000000 
0000e402 l       .debug_str	00000000 
000139fe l       .debug_str	00000000 
0000e3b6 l       .debug_str	00000000 
0001397c l       .debug_str	00000000 
0000e3a2 l       .debug_str	00000000 
0001389b l       .debug_str	00000000 
0000e385 l       .debug_str	00000000 
00013819 l       .debug_str	00000000 
0000e331 l       .debug_str	00000000 
0001379a l       .debug_str	00000000 
0000e2e5 l       .debug_str	00000000 
000136b8 l       .debug_str	00000000 
0000e2c9 l       .debug_str	00000000 
00013639 l       .debug_str	00000000 
0000e23e l       .debug_str	00000000 
000135ba l       .debug_str	00000000 
0000e1bb l       .debug_str	00000000 
0001353c l       .debug_str	00000000 
0000e185 l       .debug_str	00000000 
000134be l       .debug_str	00000000 
0000e172 l       .debug_str	00000000 
00013440 l       .debug_str	00000000 
0000e151 l       .debug_str	00000000 
00013431 l       .debug_str	00000000 
0000e148 l       .debug_str	00000000 
00013350 l       .debug_str	00000000 
0000e13d l       .debug_str	00000000 
000132d2 l       .debug_str	00000000 
0000e098 l       .debug_str	00000000 
000131e8 l       .debug_str	00000000 
0000dffb l       .debug_str	00000000 
0001315c l       .debug_str	00000000 
0000dfca l       .debug_str	00000000 
000130ba l       .debug_str	00000000 
0000dfb5 l       .debug_str	00000000 
0001302e l       .debug_str	00000000 
0000dfa6 l       .debug_str	00000000 
00012f6c l       .debug_str	00000000 
0000df9b l       .debug_str	00000000 
00012f16 l       .debug_str	00000000 
0000df92 l       .debug_str	00000000 
00012e81 l       .debug_str	00000000 
0000df82 l       .debug_str	00000000 
00012e45 l       .debug_str	00000000 
0000df74 l       .debug_str	00000000 
00012da0 l       .debug_str	00000000 
0000df60 l       .debug_str	00000000 
00012d64 l       .debug_str	00000000 
0000df16 l       .debug_str	00000000 
0000ded4 l       .debug_str	00000000 
00012c87 l       .debug_str	00000000 
0000de9f l       .debug_str	00000000 
00012c4b l       .debug_str	00000000 
0000de8d l       .debug_str	00000000 
0000de83 l       .debug_str	00000000 
00012b6f l       .debug_str	00000000 
0000de7e l       .debug_str	00000000 
00012b34 l       .debug_str	00000000 
0000de34 l       .debug_str	00000000 
00012aa0 l       .debug_str	00000000 
0000ddf2 l       .debug_str	00000000 
0000ddbd l       .debug_str	00000000 
0000ddab l       .debug_str	00000000 
0000dda1 l       .debug_str	00000000 
0000dd9d l       .debug_str	00000000 
0000dd53 l       .debug_str	00000000 
00012a65 l       .debug_str	00000000 
0000dd11 l       .debug_str	00000000 
0000dcdc l       .debug_str	00000000 
0000dcca l       .debug_str	00000000 
0000dca7 l       .debug_str	00000000 
000129ed l       .debug_str	00000000 
0000dca0 l       .debug_str	00000000 
0000dc95 l       .debug_str	00000000 
0000dc8a l       .debug_str	00000000 
0000dc7f l       .debug_str	00000000 
0000dc6e l       .debug_str	00000000 
00012976 l       .debug_str	00000000 
0000dc5f l       .debug_str	00000000 
0000dc51 l       .debug_str	00000000 
0000dc49 l       .debug_str	00000000 
00012902 l       .debug_str	00000000 
0000dc43 l       .debug_str	00000000 
0000dc3d l       .debug_str	00000000 
0000dc37 l       .debug_str	00000000 
0000dc31 l       .debug_str	00000000 
0000dc2d l       .debug_str	00000000 
0000dbe3 l       .debug_str	00000000 
0000dba1 l       .debug_str	00000000 
0000db6c l       .debug_str	00000000 
0000db5a l       .debug_str	00000000 
00012824 l       .debug_str	00000000 
0000db52 l       .debug_str	00000000 
0000db4b l       .debug_str	00000000 
000127b1 l       .debug_str	00000000 
0001273f l       .debug_str	00000000 
000126ce l       .debug_str	00000000 
00012659 l       .debug_str	00000000 
0001264f l       .debug_str	00000000 
0001263f l       .debug_str	00000000 
00012639 l       .debug_str	00000000 
00012632 l       .debug_str	00000000 
00012625 l       .debug_str	00000000 
000125b4 l       .debug_str	00000000 
00012544 l       .debug_str	00000000 
00012538 l       .debug_str	00000000 
000124c8 l       .debug_str	00000000 
00012459 l       .debug_str	00000000 
000123ec l       .debug_str	00000000 
00012380 l       .debug_str	00000000 
00012312 l       .debug_str	00000000 
000122a5 l       .debug_str	00000000 
0001229c l       .debug_str	00000000 
00012232 l       .debug_str	00000000 
0001218d l       .debug_str	00000000 
00012125 l       .debug_str	00000000 
000120bc l       .debug_str	00000000 
00012094 l       .debug_str	00000000 
0001202e l       .debug_str	00000000 
00011f4a l       .debug_str	00000000 
00011ede l       .debug_str	00000000 
00011eb6 l       .debug_str	00000000 
00011e52 l       .debug_str	00000000 
00011d59 l       .debug_str	00000000 
00011cf5 l       .debug_str	00000000 
00011cc1 l       .debug_str	00000000 
00011c5e l       .debug_str	00000000 
00011c4a l       .debug_str	00000000 
00011c3c l       .debug_str	00000000 
00011c35 l       .debug_str	00000000 
00011c2a l       .debug_str	00000000 
00011c22 l       .debug_str	00000000 
00011c17 l       .debug_str	00000000 
00011c11 l       .debug_str	00000000 
00011c0a l       .debug_str	00000000 
00011c06 l       .debug_str	00000000 
00011c01 l       .debug_str	00000000 
00011bf4 l       .debug_str	00000000 
00011bf1 l       .debug_str	00000000 
00011bed l       .debug_str	00000000 
00011bc0 l       .debug_str	00000000 
00011b88 l       .debug_str	00000000 
00011b4e l       .debug_str	00000000 
00011b42 l       .debug_str	00000000 
00011aff l       .debug_str	00000000 
00011abd l       .debug_str	00000000 
00011a86 l       .debug_str	00000000 
00011a41 l       .debug_str	00000000 
00011a15 l       .debug_str	00000000 
000119de l       .debug_str	00000000 
000119c3 l       .debug_str	00000000 
000119b1 l       .debug_str	00000000 
000119ab l       .debug_str	00000000 
00011961 l       .debug_str	00000000 
0001194f l       .debug_str	00000000 
0001190e l       .debug_str	00000000 
000118ce l       .debug_str	00000000 
000118a4 l       .debug_str	00000000 
0001185d l       .debug_str	00000000 
0001184f l       .debug_str	00000000 
0001180e l       .debug_str	00000000 
000117fc l       .debug_str	00000000 
000117af l       .debug_str	00000000 
0001179d l       .debug_str	00000000 
0001175a l       .debug_str	00000000 
0001174a l       .debug_str	00000000 
00011703 l       .debug_str	00000000 
000116d3 l       .debug_str	00000000 
00011690 l       .debug_str	00000000 
00011665 l       .debug_str	00000000 
00011622 l       .debug_str	00000000 
000115ec l       .debug_str	00000000 
0001159d l       .debug_str	00000000 
0001156d l       .debug_str	00000000 
00011524 l       .debug_str	00000000 
000114f3 l       .debug_str	00000000 
000114aa l       .debug_str	00000000 
00011480 l       .debug_str	00000000 
00000000 l       .debug_str	00000000 
00000041 l       .debug_str	00000000 
00000055 l       .debug_str	00000000 
00000074 l       .debug_str	00000000 
0000007b l       .debug_str	00000000 
00000087 l       .debug_str	00000000 
00000090 l       .debug_str	00000000 
00000099 l       .debug_str	00000000 
000000a0 l       .debug_str	00000000 
000000ad l       .debug_str	00000000 
000000b6 l       .debug_str	00000000 
000000bd l       .debug_str	00000000 
000000c1 l       .debug_str	00000000 
000000c3 l       .debug_str	00000000 
000000c7 l       .debug_str	00000000 
000000ce l       .debug_str	00000000 
000000d3 l       .debug_str	00000000 
000000d7 l       .debug_str	00000000 
000000e4 l       .debug_str	00000000 
000000eb l       .debug_str	00000000 
000000ee l       .debug_str	00000000 
000000f4 l       .debug_str	00000000 
00000102 l       .debug_str	00000000 
00000110 l       .debug_str	00000000 
00000115 l       .debug_str	00000000 
0000011d l       .debug_str	00000000 
00000125 l       .debug_str	00000000 
00000128 l       .debug_str	00000000 
0000012a l       .debug_str	00000000 
0000012c l       .debug_str	00000000 
00000148 l       .debug_str	00000000 
00000150 l       .debug_str	00000000 
00000157 l       .debug_str	00000000 
00000167 l       .debug_str	00000000 
000001ac l       .debug_str	00000000 
00000219 l       .debug_str	00000000 
000002af l       .debug_str	00000000 
0000036e l       .debug_str	00000000 
00000376 l       .debug_str	00000000 
0000037b l       .debug_str	00000000 
00000381 l       .debug_str	00000000 
00000385 l       .debug_str	00000000 
00000389 l       .debug_str	00000000 
0000038c l       .debug_str	00000000 
000003b5 l       .debug_str	00000000 
000003eb l       .debug_str	00000000 
000003ed l       .debug_str	00000000 
0000041a l       .debug_str	00000000 
0000041d l       .debug_str	00000000 
0000046d l       .debug_str	00000000 
000004ca l       .debug_str	00000000 
0000051e l       .debug_str	00000000 
00000595 l       .debug_str	00000000 
00000619 l       .debug_str	00000000 
00000694 l       .debug_str	00000000 
00000732 l       .debug_str	00000000 
000007dd l       .debug_str	00000000 
0000087f l       .debug_str	00000000 
00000944 l       .debug_str	00000000 
00000a16 l       .debug_str	00000000 
00000adf l       .debug_str	00000000 
00000bc9 l       .debug_str	00000000 
00000cd0 l       .debug_str	00000000 
00000dd6 l       .debug_str	00000000 
00000dda l       .debug_str	00000000 
00000de0 l       .debug_str	00000000 
00000de2 l       .debug_str	00000000 
00000ee0 l       .debug_str	00000000 
00000fe1 l       .debug_str	00000000 
00000fe3 l       .debug_str	00000000 
000010c3 l       .debug_str	00000000 
000011ba l       .debug_str	00000000 
000011c1 l       .debug_str	00000000 
000011c8 l       .debug_str	00000000 
000011cc l       .debug_str	00000000 
000011d4 l       .debug_str	00000000 
000011df l       .debug_str	00000000 
000011ea l       .debug_str	00000000 
000011f7 l       .debug_str	00000000 
00001202 l       .debug_str	00000000 
0000120a l       .debug_str	00000000 
00001215 l       .debug_str	00000000 
00001220 l       .debug_str	00000000 
0000122a l       .debug_str	00000000 
00001235 l       .debug_str	00000000 
00001240 l       .debug_str	00000000 
0000124d l       .debug_str	00000000 
00001259 l       .debug_str	00000000 
00001266 l       .debug_str	00000000 
00001274 l       .debug_str	00000000 
0000127e l       .debug_str	00000000 
0000128b l       .debug_str	00000000 
00001297 l       .debug_str	00000000 
0000129d l       .debug_str	00000000 
000012a1 l       .debug_str	00000000 
000012ae l       .debug_str	00000000 
000012b5 l       .debug_str	00000000 
000012ba l       .debug_str	00000000 
000012bd l       .debug_str	00000000 
000012c1 l       .debug_str	00000000 
000012cb l       .debug_str	00000000 
000012d6 l       .debug_str	00000000 
000012df l       .debug_str	00000000 
000012e4 l       .debug_str	00000000 
000012ed l       .debug_str	00000000 
000012f3 l       .debug_str	00000000 
000012ff l       .debug_str	00000000 
00001305 l       .debug_str	00000000 
0000130a l       .debug_str	00000000 
0000130d l       .debug_str	00000000 
00001311 l       .debug_str	00000000 
00001314 l       .debug_str	00000000 
00001317 l       .debug_str	00000000 
0000131a l       .debug_str	00000000 
0000131f l       .debug_str	00000000 
0000132b l       .debug_str	00000000 
00001330 l       .debug_str	00000000 
00001337 l       .debug_str	00000000 
00001341 l       .debug_str	00000000 
0000134c l       .debug_str	00000000 
00001359 l       .debug_str	00000000 
00001367 l       .debug_str	00000000 
00001371 l       .debug_str	00000000 
0000137f l       .debug_str	00000000 
00001389 l       .debug_str	00000000 
00001392 l       .debug_str	00000000 
00001399 l       .debug_str	00000000 
0000139e l       .debug_str	00000000 
000013a3 l       .debug_str	00000000 
000013af l       .debug_str	00000000 
000013b3 l       .debug_str	00000000 
000013ba l       .debug_str	00000000 
000013c0 l       .debug_str	00000000 
000013ca l       .debug_str	00000000 
000013db l       .debug_str	00000000 
000013dd l       .debug_str	00000000 
000013ec l       .debug_str	00000000 
000013ee l       .debug_str	00000000 
00001427 l       .debug_str	00000000 
0000142e l       .debug_str	00000000 
00001435 l       .debug_str	00000000 
00001446 l       .debug_str	00000000 
00001485 l       .debug_str	00000000 
000014b8 l       .debug_str	00000000 
00001543 l       .debug_str	00000000 
0000161a l       .debug_str	00000000 
0000173d l       .debug_str	00000000 
000017b4 l       .debug_str	00000000 
00001838 l       .debug_str	00000000 
000018b3 l       .debug_str	00000000 
00001951 l       .debug_str	00000000 
000019fc l       .debug_str	00000000 
00001a9e l       .debug_str	00000000 
00001b84 l       .debug_str	00000000 
00001c87 l       .debug_str	00000000 
00001d89 l       .debug_str	00000000 
00001e83 l       .debug_str	00000000 
00001f60 l       .debug_str	00000000 
00001f6a l       .debug_str	00000000 
00001f91 l       .debug_str	00000000 
00001f96 l       .debug_str	00000000 
00001f9a l       .debug_str	00000000 
00001fa0 l       .debug_str	00000000 
00001fa7 l       .debug_str	00000000 
00001fac l       .debug_str	00000000 
00001fc6 l       .debug_str	00000000 
00001fcf l       .debug_str	00000000 
00001fdc l       .debug_str	00000000 
0000200c l       .debug_str	00000000 
00002015 l       .debug_str	00000000 
0000201f l       .debug_str	00000000 
00002026 l       .debug_str	00000000 
0000202b l       .debug_str	00000000 
00002038 l       .debug_str	00000000 
0000203d l       .debug_str	00000000 
00002041 l       .debug_str	00000000 
00002052 l       .debug_str	00000000 
00002162 l       .debug_str	00000000 
00002171 l       .debug_str	00000000 
0000219d l       .debug_str	00000000 
000021a3 l       .debug_str	00000000 
000021a9 l       .debug_str	00000000 
000021b2 l       .debug_str	00000000 
000021b8 l       .debug_str	00000000 
000021bd l       .debug_str	00000000 
000021c1 l       .debug_str	00000000 
000021c3 l       .debug_str	00000000 
000021c9 l       .debug_str	00000000 
000021ee l       .debug_str	00000000 
000021f9 l       .debug_str	00000000 
00002207 l       .debug_str	00000000 
0000220b l       .debug_str	00000000 
00002213 l       .debug_str	00000000 
00002219 l       .debug_str	00000000 
0000221e l       .debug_str	00000000 
00002226 l       .debug_str	00000000 
0000222b l       .debug_str	00000000 
00002262 l       .debug_str	00000000 
0000226f l       .debug_str	00000000 
0000227b l       .debug_str	00000000 
0000227f l       .debug_str	00000000 
00002283 l       .debug_str	00000000 
00002288 l       .debug_str	00000000 
000022bf l       .debug_str	00000000 
000022cb l       .debug_str	00000000 
000022d1 l       .debug_str	00000000 
00002308 l       .debug_str	00000000 
00002313 l       .debug_str	00000000 
0000231b l       .debug_str	00000000 
0000231d l       .debug_str	00000000 
00002321 l       .debug_str	00000000 
00002323 l       .debug_str	00000000 
0000232a l       .debug_str	00000000 
00002331 l       .debug_str	00000000 
0000233a l       .debug_str	00000000 
0000233f l       .debug_str	00000000 
00002349 l       .debug_str	00000000 
0000235d l       .debug_str	00000000 
00002363 l       .debug_str	00000000 
0000236d l       .debug_str	00000000 
0000237c l       .debug_str	00000000 
000023b2 l       .debug_str	00000000 
000023b6 l       .debug_str	00000000 
000023e4 l       .debug_str	00000000 
000023f0 l       .debug_str	00000000 
000023f7 l       .debug_str	00000000 
000023fa l       .debug_str	00000000 
00002404 l       .debug_str	00000000 
0000240a l       .debug_str	00000000 
0000242c l       .debug_str	00000000 
00002464 l       .debug_str	00000000 
000024a4 l       .debug_str	00000000 
000024ab l       .debug_str	00000000 
000024af l       .debug_str	00000000 
000024ba l       .debug_str	00000000 
000024c5 l       .debug_str	00000000 
000024cc l       .debug_str	00000000 
000024e3 l       .debug_str	00000000 
000024eb l       .debug_str	00000000 
000024f5 l       .debug_str	00000000 
0000250c l       .debug_str	00000000 
00002515 l       .debug_str	00000000 
0000254c l       .debug_str	00000000 
00002555 l       .debug_str	00000000 
00002558 l       .debug_str	00000000 
00002560 l       .debug_str	00000000 
00002568 l       .debug_str	00000000 
0000257c l       .debug_str	00000000 
000025af l       .debug_str	00000000 
000025ba l       .debug_str	00000000 
000025f0 l       .debug_str	00000000 
000025f3 l       .debug_str	00000000 
000025f7 l       .debug_str	00000000 
000025fe l       .debug_str	00000000 
00002601 l       .debug_str	00000000 
00002604 l       .debug_str	00000000 
00002609 l       .debug_str	00000000 
0000260f l       .debug_str	00000000 
00002616 l       .debug_str	00000000 
0000261e l       .debug_str	00000000 
00002628 l       .debug_str	00000000 
0000262e l       .debug_str	00000000 
00002637 l       .debug_str	00000000 
00002682 l       .debug_str	00000000 
000026b2 l       .debug_str	00000000 
000026b6 l       .debug_str	00000000 
000026e1 l       .debug_str	00000000 
000026e5 l       .debug_str	00000000 
00002710 l       .debug_str	00000000 
00002748 l       .debug_str	00000000 
00002777 l       .debug_str	00000000 
0000277c l       .debug_str	00000000 
000027a9 l       .debug_str	00000000 
000027d6 l       .debug_str	00000000 
000027e5 l       .debug_str	00000000 
000027fc l       .debug_str	00000000 
00002804 l       .debug_str	00000000 
00002817 l       .debug_str	00000000 
00002819 l       .debug_str	00000000 
0000281e l       .debug_str	00000000 
0000282b l       .debug_str	00000000 
00002832 l       .debug_str	00000000 
0000283e l       .debug_str	00000000 
00002860 l       .debug_str	00000000 
0000286a l       .debug_str	00000000 
00002880 l       .debug_str	00000000 
000028f5 l       .debug_str	00000000 
0000293f l       .debug_str	00000000 
00002945 l       .debug_str	00000000 
0000294b l       .debug_str	00000000 
00002951 l       .debug_str	00000000 
00002957 l       .debug_str	00000000 
0000295e l       .debug_str	00000000 
00002964 l       .debug_str	00000000 
00002978 l       .debug_str	00000000 
000029b1 l       .debug_str	00000000 
000029b7 l       .debug_str	00000000 
000029e3 l       .debug_str	00000000 
000029e7 l       .debug_str	00000000 
000029fa l       .debug_str	00000000 
00002a5b l       .debug_str	00000000 
00002a68 l       .debug_str	00000000 
00002ad8 l       .debug_str	00000000 
00002b14 l       .debug_str	00000000 
00002b18 l       .debug_str	00000000 
00002b1e l       .debug_str	00000000 
00002b5a l       .debug_str	00000000 
00002b5e l       .debug_str	00000000 
00002b65 l       .debug_str	00000000 
00002bda l       .debug_str	00000000 
00002bec l       .debug_str	00000000 
00002bf7 l       .debug_str	00000000 
00002bfc l       .debug_str	00000000 
00002c02 l       .debug_str	00000000 
00002c08 l       .debug_str	00000000 
00002c17 l       .debug_str	00000000 
00002c1d l       .debug_str	00000000 
00002c23 l       .debug_str	00000000 
00002c2e l       .debug_str	00000000 
00002c39 l       .debug_str	00000000 
00002c40 l       .debug_str	00000000 
00002c47 l       .debug_str	00000000 
00002c7d l       .debug_str	00000000 
00002c8a l       .debug_str	00000000 
00002c97 l       .debug_str	00000000 
00002ccc l       .debug_str	00000000 
00002cce l       .debug_str	00000000 
00002d02 l       .debug_str	00000000 
00002d51 l       .debug_str	00000000 
00002d84 l       .debug_str	00000000 
00002e19 l       .debug_str	00000000 
00002e4f l       .debug_str	00000000 
00002ec4 l       .debug_str	00000000 
00002ec7 l       .debug_str	00000000 
00002ef8 l       .debug_str	00000000 
00002f03 l       .debug_str	00000000 
00002f08 l       .debug_str	00000000 
00002f13 l       .debug_str	00000000 
00002f1e l       .debug_str	00000000 
00002f29 l       .debug_str	00000000 
00002f65 l       .debug_str	00000000 
00002f9b l       .debug_str	00000000 
00002f9f l       .debug_str	00000000 
00002fa7 l       .debug_str	00000000 
00002fb3 l       .debug_str	00000000 
00002fbd l       .debug_str	00000000 
00002fc9 l       .debug_str	00000000 
00002fdb l       .debug_str	00000000 
00002fe4 l       .debug_str	00000000 
00003017 l       .debug_str	00000000 
0000304b l       .debug_str	00000000 
00003079 l       .debug_str	00000000 
000030ae l       .debug_str	00000000 
00003118 l       .debug_str	00000000 
0000314b l       .debug_str	00000000 
000031ae l       .debug_str	00000000 
000031b0 l       .debug_str	00000000 
00003230 l       .debug_str	00000000 
000032dd l       .debug_str	00000000 
000032df l       .debug_str	00000000 
0000331c l       .debug_str	00000000 
0000348e l       .debug_str	00000000 
000034fa l       .debug_str	00000000 
000034fd l       .debug_str	00000000 
000034ff l       .debug_str	00000000 
00003501 l       .debug_str	00000000 
0000353c l       .debug_str	00000000 
0000353e l       .debug_str	00000000 
0000357f l       .debug_str	00000000 
00003640 l       .debug_str	00000000 
000036a6 l       .debug_str	00000000 
000036d6 l       .debug_str	00000000 
00003734 l       .debug_str	00000000 
0000373a l       .debug_str	00000000 
00003753 l       .debug_str	00000000 
000037c3 l       .debug_str	00000000 
000037ce l       .debug_str	00000000 
000037f5 l       .debug_str	00000000 
00003815 l       .debug_str	00000000 
000038a1 l       .debug_str	00000000 
000038ce l       .debug_str	00000000 
0000392b l       .debug_str	00000000 
00003967 l       .debug_str	00000000 
00003995 l       .debug_str	00000000 
00003999 l       .debug_str	00000000 
0000399f l       .debug_str	00000000 
00003a34 l       .debug_str	00000000 
00003a6d l       .debug_str	00000000 
00003a73 l       .debug_str	00000000 
00003a77 l       .debug_str	00000000 
00003a7c l       .debug_str	00000000 
00003ab8 l       .debug_str	00000000 
00003af8 l       .debug_str	00000000 
00003b06 l       .debug_str	00000000 
00003b11 l       .debug_str	00000000 
00003b17 l       .debug_str	00000000 
00003b1d l       .debug_str	00000000 
00003b28 l       .debug_str	00000000 
00003b74 l       .debug_str	00000000 
00003b80 l       .debug_str	00000000 
00003b8a l       .debug_str	00000000 
00003b95 l       .debug_str	00000000 
00003b9a l       .debug_str	00000000 
00003ba2 l       .debug_str	00000000 
00003baa l       .debug_str	00000000 
00003bb6 l       .debug_str	00000000 
00003bc2 l       .debug_str	00000000 
00003c0c l       .debug_str	00000000 
00003c17 l       .debug_str	00000000 
00003c2d l       .debug_str	00000000 
00003c38 l       .debug_str	00000000 
00003c43 l       .debug_str	00000000 
00003c4b l       .debug_str	00000000 
00003c59 l       .debug_str	00000000 
00003c73 l       .debug_str	00000000 
00003c7c l       .debug_str	00000000 
00003c81 l       .debug_str	00000000 
00003c85 l       .debug_str	00000000 
00003c8e l       .debug_str	00000000 
00003c95 l       .debug_str	00000000 
00003ce1 l       .debug_str	00000000 
00003cec l       .debug_str	00000000 
00003cf4 l       .debug_str	00000000 
00003d45 l       .debug_str	00000000 
00003e41 l       .debug_str	00000000 
00003e4b l       .debug_str	00000000 
00003e4f l       .debug_str	00000000 
00003e5b l       .debug_str	00000000 
00003f55 l       .debug_str	00000000 
00003f5a l       .debug_str	00000000 
00003f9f l       .debug_str	00000000 
00003fd8 l       .debug_str	00000000 
0000406f l       .debug_str	00000000 
0000410d l       .debug_str	00000000 
000041c8 l       .debug_str	00000000 
00004282 l       .debug_str	00000000 
00004334 l       .debug_str	00000000 
000043c9 l       .debug_str	00000000 
00004475 l       .debug_str	00000000 
0000447e l       .debug_str	00000000 
00004493 l       .debug_str	00000000 
0000449c l       .debug_str	00000000 
000044ab l       .debug_str	00000000 
000044e0 l       .debug_str	00000000 
00004519 l       .debug_str	00000000 
00004543 l       .debug_str	00000000 
00004578 l       .debug_str	00000000 
000045b6 l       .debug_str	00000000 
000045e5 l       .debug_str	00000000 
0000461a l       .debug_str	00000000 
000046d2 l       .debug_str	00000000 
0000477b l       .debug_str	00000000 
00004785 l       .debug_str	00000000 
0000478a l       .debug_str	00000000 
0000478f l       .debug_str	00000000 
000047be l       .debug_str	00000000 
000047ea l       .debug_str	00000000 
000047fa l       .debug_str	00000000 
0000482f l       .debug_str	00000000 
00004865 l       .debug_str	00000000 
0000488c l       .debug_str	00000000 
000048c1 l       .debug_str	00000000 
0000490b l       .debug_str	00000000 
00004946 l       .debug_str	00000000 
0000497b l       .debug_str	00000000 
000049ca l       .debug_str	00000000 
00004a0a l       .debug_str	00000000 
00004a3f l       .debug_str	00000000 
00004b3f l       .debug_str	00000000 
00004c30 l       .debug_str	00000000 
00004c65 l       .debug_str	00000000 
00004c98 l       .debug_str	00000000 
00004cbc l       .debug_str	00000000 
00004cc1 l       .debug_str	00000000 
00004cc8 l       .debug_str	00000000 
00004cd1 l       .debug_str	00000000 
00004cda l       .debug_str	00000000 
00004ce3 l       .debug_str	00000000 
00004d0a l       .debug_str	00000000 
00004d3e l       .debug_str	00000000 
00004d6a l       .debug_str	00000000 
00004d6c l       .debug_str	00000000 
00004d73 l       .debug_str	00000000 
00004d75 l       .debug_str	00000000 
00004dbe l       .debug_str	00000000 
00004e05 l       .debug_str	00000000 
00004e37 l       .debug_str	00000000 
00004e6a l       .debug_str	00000000 
00004e97 l       .debug_str	00000000 
00004ed1 l       .debug_str	00000000 
00004f03 l       .debug_str	00000000 
00004f32 l       .debug_str	00000000 
00004f79 l       .debug_str	00000000 
00004fa5 l       .debug_str	00000000 
00004fce l       .debug_str	00000000 
00004fd8 l       .debug_str	00000000 
00004fe3 l       .debug_str	00000000 
00004fec l       .debug_str	00000000 
00004ff7 l       .debug_str	00000000 
00005003 l       .debug_str	00000000 
0000500c l       .debug_str	00000000 
00005013 l       .debug_str	00000000 
0000501b l       .debug_str	00000000 
00005023 l       .debug_str	00000000 
0000502d l       .debug_str	00000000 
00005033 l       .debug_str	00000000 
0000503a l       .debug_str	00000000 
00005041 l       .debug_str	00000000 
0000506e l       .debug_str	00000000 
000050a3 l       .debug_str	00000000 
000050a9 l       .debug_str	00000000 
000050af l       .debug_str	00000000 
000050be l       .debug_str	00000000 
000050ce l       .debug_str	00000000 
000050de l       .debug_str	00000000 
000050e6 l       .debug_str	00000000 
0000510f l       .debug_str	00000000 
0000516d l       .debug_str	00000000 
000051d3 l       .debug_str	00000000 
000051da l       .debug_str	00000000 
000051e2 l       .debug_str	00000000 
000051eb l       .debug_str	00000000 
00005209 l       .debug_str	00000000 
00005219 l       .debug_str	00000000 
00005227 l       .debug_str	00000000 
00005232 l       .debug_str	00000000 
0000523f l       .debug_str	00000000 
0000524e l       .debug_str	00000000 
00005264 l       .debug_str	00000000 
0000526e l       .debug_str	00000000 
00005277 l       .debug_str	00000000 
00005280 l       .debug_str	00000000 
000052a6 l       .debug_str	00000000 
000052bc l       .debug_str	00000000 
000052c7 l       .debug_str	00000000 
000052dd l       .debug_str	00000000 
000052e5 l       .debug_str	00000000 
00005306 l       .debug_str	00000000 
0000530f l       .debug_str	00000000 
00005318 l       .debug_str	00000000 
00005323 l       .debug_str	00000000 
0000532d l       .debug_str	00000000 
00005354 l       .debug_str	00000000 
0000536c l       .debug_str	00000000 
00005376 l       .debug_str	00000000 
00005399 l       .debug_str	00000000 
000053e1 l       .debug_str	00000000 
00005409 l       .debug_str	00000000 
0000544b l       .debug_str	00000000 
0000552d l       .debug_str	00000000 
00005597 l       .debug_str	00000000 
0000567a l       .debug_str	00000000 
0000567c l       .debug_str	00000000 
00005721 l       .debug_str	00000000 
0000572b l       .debug_str	00000000 
0000572f l       .debug_str	00000000 
00005735 l       .debug_str	00000000 
0000573d l       .debug_str	00000000 
0000574c l       .debug_str	00000000 
00005775 l       .debug_str	00000000 
0000577c l       .debug_str	00000000 
0000578d l       .debug_str	00000000 
000057ba l       .debug_str	00000000 
000057c7 l       .debug_str	00000000 
0000582b l       .debug_str	00000000 
00005857 l       .debug_str	00000000 
00005893 l       .debug_str	00000000 
000058b9 l       .debug_str	00000000 
000058f5 l       .debug_str	00000000 
00005922 l       .debug_str	00000000 
0000595e l       .debug_str	00000000 
00005987 l       .debug_str	00000000 
000059c8 l       .debug_str	00000000 
000059d1 l       .debug_str	00000000 
000059f7 l       .debug_str	00000000 
00005a05 l       .debug_str	00000000 
00005a76 l       .debug_str	00000000 
00005a83 l       .debug_str	00000000 
00005a9a l       .debug_str	00000000 
00005acd l       .debug_str	00000000 
00005ad3 l       .debug_str	00000000 
00005b11 l       .debug_str	00000000 
00005b22 l       .debug_str	00000000 
00005b5b l       .debug_str	00000000 
00005b9a l       .debug_str	00000000 
00005ba7 l       .debug_str	00000000 
00005c09 l       .debug_str	00000000 
00005c1a l       .debug_str	00000000 
00005c1e l       .debug_str	00000000 
00005c22 l       .debug_str	00000000 
00005c57 l       .debug_str	00000000 
00005c96 l       .debug_str	00000000 
00005cc6 l       .debug_str	00000000 
00005cfb l       .debug_str	00000000 
00005d30 l       .debug_str	00000000 
00005d65 l       .debug_str	00000000 
00005d9b l       .debug_str	00000000 
00005dc2 l       .debug_str	00000000 
00005e06 l       .debug_str	00000000 
00005eb9 l       .debug_str	00000000 
00005f78 l       .debug_str	00000000 
00005f7a l       .debug_str	00000000 
00005f88 l       .debug_str	00000000 
0000db42 l       .debug_str	00000000 
00006093 l       .debug_str	00000000 
000060c8 l       .debug_str	00000000 
000060e6 l       .debug_str	00000000 
000060f5 l       .debug_str	00000000 
0000612d l       .debug_str	00000000 
0000616d l       .debug_str	00000000 
000061a4 l       .debug_str	00000000 
000061b3 l       .debug_str	00000000 
000061e5 l       .debug_str	00000000 
000061ef l       .debug_str	00000000 
000061f6 l       .debug_str	00000000 
00006227 l       .debug_str	00000000 
00006232 l       .debug_str	00000000 
00006241 l       .debug_str	00000000 
0000626f l       .debug_str	00000000 
0000629c l       .debug_str	00000000 
000062cb l       .debug_str	00000000 
000062fa l       .debug_str	00000000 
00006301 l       .debug_str	00000000 
00006307 l       .debug_str	00000000 
0000630d l       .debug_str	00000000 
00006314 l       .debug_str	00000000 
0000631b l       .debug_str	00000000 
00006320 l       .debug_str	00000000 
00006325 l       .debug_str	00000000 
00006327 l       .debug_str	00000000 
0000635d l       .debug_str	00000000 
0000637a l       .debug_str	00000000 
0000637c l       .debug_str	00000000 
000063ee l       .debug_str	00000000 
000063f2 l       .debug_str	00000000 
0000644f l       .debug_str	00000000 
00006457 l       .debug_str	00000000 
000064c2 l       .debug_str	00000000 
000064e4 l       .debug_str	00000000 
0000651c l       .debug_str	00000000 
00006588 l       .debug_str	00000000 
000065ab l       .debug_str	00000000 
000065b6 l       .debug_str	00000000 
00006604 l       .debug_str	00000000 
00006614 l       .debug_str	00000000 
00006622 l       .debug_str	00000000 
0000665c l       .debug_str	00000000 
00006684 l       .debug_str	00000000 
000066c2 l       .debug_str	00000000 
00006735 l       .debug_str	00000000 
00006745 l       .debug_str	00000000 
00006750 l       .debug_str	00000000 
0000679a l       .debug_str	00000000 
000067aa l       .debug_str	00000000 
000067ff l       .debug_str	00000000 
00006848 l       .debug_str	00000000 
000068ff l       .debug_str	00000000 
000069ad l       .debug_str	00000000 
00006a78 l       .debug_str	00000000 
00006b42 l       .debug_str	00000000 
00006c04 l       .debug_str	00000000 
00006ca9 l       .debug_str	00000000 
00006ce4 l       .debug_str	00000000 
00006d88 l       .debug_str	00000000 
00006dd0 l       .debug_str	00000000 
00006e10 l       .debug_str	00000000 
00006e57 l       .debug_str	00000000 
00006e88 l       .debug_str	00000000 
00006eca l       .debug_str	00000000 
00006ed3 l       .debug_str	00000000 
00006f43 l       .debug_str	00000000 
00006fb3 l       .debug_str	00000000 
00007002 l       .debug_str	00000000 
0000702e l       .debug_str	00000000 
00007033 l       .debug_str	00000000 
000070dd l       .debug_str	00000000 
00007112 l       .debug_str	00000000 
000071df l       .debug_str	00000000 
0000729d l       .debug_str	00000000 
0000730c l       .debug_str	00000000 
00007335 l       .debug_str	00000000 
0000735b l       .debug_str	00000000 
0000738d l       .debug_str	00000000 
000073cd l       .debug_str	00000000 
000073fe l       .debug_str	00000000 
00007405 l       .debug_str	00000000 
0000740a l       .debug_str	00000000 
00007414 l       .debug_str	00000000 
00007454 l       .debug_str	00000000 
00007497 l       .debug_str	00000000 
000074a7 l       .debug_str	00000000 
000074f1 l       .debug_str	00000000 
00007531 l       .debug_str	00000000 
0000757a l       .debug_str	00000000 
00007580 l       .debug_str	00000000 
00007589 l       .debug_str	00000000 
0000758b l       .debug_str	00000000 
00007595 l       .debug_str	00000000 
000075a0 l       .debug_str	00000000 
000075f1 l       .debug_str	00000000 
00007621 l       .debug_str	00000000 
00007661 l       .debug_str	00000000 
00007741 l       .debug_str	00000000 
00007834 l       .debug_str	00000000 
0000783b l       .debug_str	00000000 
00007875 l       .debug_str	00000000 
00007881 l       .debug_str	00000000 
00007887 l       .debug_str	00000000 
000078ec l       .debug_str	00000000 
00007957 l       .debug_str	00000000 
00007979 l       .debug_str	00000000 
00007994 l       .debug_str	00000000 
000079ba l       .debug_str	00000000 
00007a29 l       .debug_str	00000000 
00007a32 l       .debug_str	00000000 
00007a5d l       .debug_str	00000000 
00007ac5 l       .debug_str	00000000 
00007ba4 l       .debug_str	00000000 
00007c18 l       .debug_str	00000000 
00007cd3 l       .debug_str	00000000 
00007ddc l       .debug_str	00000000 
00007de7 l       .debug_str	00000000 
00007dea l       .debug_str	00000000 
00007e51 l       .debug_str	00000000 
00007e5c l       .debug_str	00000000 
00007ec0 l       .debug_str	00000000 
00007f6b l       .debug_str	00000000 
00008010 l       .debug_str	00000000 
00008076 l       .debug_str	00000000 
0000810c l       .debug_str	00000000 
0000816c l       .debug_str	00000000 
000081a9 l       .debug_str	00000000 
000081d4 l       .debug_str	00000000 
000081df l       .debug_str	00000000 
000081ec l       .debug_str	00000000 
000081f6 l       .debug_str	00000000 
00008223 l       .debug_str	00000000 
0000822d l       .debug_str	00000000 
00008243 l       .debug_str	00000000 
00008246 l       .debug_str	00000000 
0000825d l       .debug_str	00000000 
000082a4 l       .debug_str	00000000 
000082d8 l       .debug_str	00000000 
000082ef l       .debug_str	00000000 
0000835b l       .debug_str	00000000 
00008395 l       .debug_str	00000000 
000083a0 l       .debug_str	00000000 
000083a7 l       .debug_str	00000000 
000083b0 l       .debug_str	00000000 
000083c5 l       .debug_str	00000000 
0000840a l       .debug_str	00000000 
00008468 l       .debug_str	00000000 
00008498 l       .debug_str	00000000 
000084a9 l       .debug_str	00000000 
000084de l       .debug_str	00000000 
00008513 l       .debug_str	00000000 
00008516 l       .debug_str	00000000 
00008519 l       .debug_str	00000000 
00008521 l       .debug_str	00000000 
0000858d l       .debug_str	00000000 
000085b0 l       .debug_str	00000000 
000085ec l       .debug_str	00000000 
00008657 l       .debug_str	00000000 
00008679 l       .debug_str	00000000 
000086d0 l       .debug_str	00000000 
000086e2 l       .debug_str	00000000 
00008746 l       .debug_str	00000000 
00008770 l       .debug_str	00000000 
000087a7 l       .debug_str	00000000 
000087c7 l       .debug_str	00000000 
000087ee l       .debug_str	00000000 
00008809 l       .debug_str	00000000 
00008872 l       .debug_str	00000000 
00008885 l       .debug_str	00000000 
000088e9 l       .debug_str	00000000 
0000894f l       .debug_str	00000000 
00008a2d l       .debug_str	00000000 
00008b1a l       .debug_str	00000000 
00008b83 l       .debug_str	00000000 
00008b9e l       .debug_str	00000000 
00008c02 l       .debug_str	00000000 
00008c19 l       .debug_str	00000000 
00008c79 l       .debug_str	00000000 
00008cd1 l       .debug_str	00000000 
00008cd6 l       .debug_str	00000000 
00008cde l       .debug_str	00000000 
00008d29 l       .debug_str	00000000 
00008d32 l       .debug_str	00000000 
00008d37 l       .debug_str	00000000 
00008d75 l       .debug_str	00000000 
00008e53 l       .debug_str	00000000 
00008e55 l       .debug_str	00000000 
00008ea4 l       .debug_str	00000000 
00008eb0 l       .debug_str	00000000 
00008eb9 l       .debug_str	00000000 
00008ebd l       .debug_str	00000000 
00008ec7 l       .debug_str	00000000 
00008ecc l       .debug_str	00000000 
00008ed3 l       .debug_str	00000000 
00008ed8 l       .debug_str	00000000 
00008edd l       .debug_str	00000000 
00008f5f l       .debug_str	00000000 
00009040 l       .debug_str	00000000 
00009148 l       .debug_str	00000000 
000091ca l       .debug_str	00000000 
00009273 l       .debug_str	00000000 
000092b6 l       .debug_str	00000000 
000092f5 l       .debug_str	00000000 
000093c5 l       .debug_str	00000000 
0000943c l       .debug_str	00000000 
00009468 l       .debug_str	00000000 
0000949b l       .debug_str	00000000 
000094dc l       .debug_str	00000000 
00009525 l       .debug_str	00000000 
00009553 l       .debug_str	00000000 
00009559 l       .debug_str	00000000 
0000959e l       .debug_str	00000000 
000095d4 l       .debug_str	00000000 
000095db l       .debug_str	00000000 
000095df l       .debug_str	00000000 
0000961c l       .debug_str	00000000 
00009651 l       .debug_str	00000000 
00009698 l       .debug_str	00000000 
000096d6 l       .debug_str	00000000 
00009741 l       .debug_str	00000000 
0000981f l       .debug_str	00000000 
00009824 l       .debug_str	00000000 
00009826 l       .debug_str	00000000 
00009865 l       .debug_str	00000000 
000098cd l       .debug_str	00000000 
00009912 l       .debug_str	00000000 
0000991e l       .debug_str	00000000 
00009963 l       .debug_str	00000000 
0000996f l       .debug_str	00000000 
000099b6 l       .debug_str	00000000 
000099f4 l       .debug_str	00000000 
00009a35 l       .debug_str	00000000 
00009a6a l       .debug_str	00000000 
00009a8b l       .debug_str	00000000 
00009b12 l       .debug_str	00000000 
00009bbf l       .debug_str	00000000 
00009c02 l       .debug_str	00000000 
00009cd6 l       .debug_str	00000000 
00009d48 l       .debug_str	00000000 
00009df2 l       .debug_str	00000000 
00009eab l       .debug_str	00000000 
00009f32 l       .debug_str	00000000 
00009f79 l       .debug_str	00000000 
00009f7f l       .debug_str	00000000 
00009f83 l       .debug_str	00000000 
00009f90 l       .debug_str	00000000 
0000a01c l       .debug_str	00000000 
0000a02d l       .debug_str	00000000 
0000a0a9 l       .debug_str	00000000 
0000a113 l       .debug_str	00000000 
0000a119 l       .debug_str	00000000 
0000a164 l       .debug_str	00000000 
0000a175 l       .debug_str	00000000 
0000a1b8 l       .debug_str	00000000 
0000a1c2 l       .debug_str	00000000 
0000a1ff l       .debug_str	00000000 
0000a203 l       .debug_str	00000000 
0000a249 l       .debug_str	00000000 
0000a255 l       .debug_str	00000000 
0000a292 l       .debug_str	00000000 
0000a36f l       .debug_str	00000000 
0000a376 l       .debug_str	00000000 
0000a382 l       .debug_str	00000000 
0000a38a l       .debug_str	00000000 
0000a393 l       .debug_str	00000000 
0000a398 l       .debug_str	00000000 
0000a39b l       .debug_str	00000000 
0000a3a4 l       .debug_str	00000000 
0000a3ab l       .debug_str	00000000 
0000a3b1 l       .debug_str	00000000 
0000a3bb l       .debug_str	00000000 
0000a3be l       .debug_str	00000000 
0000a3c4 l       .debug_str	00000000 
0000a3ce l       .debug_str	00000000 
0000a3d6 l       .debug_str	00000000 
0000a3dc l       .debug_str	00000000 
0000a3e7 l       .debug_str	00000000 
0000a3f0 l       .debug_str	00000000 
0000a413 l       .debug_str	00000000 
0000a432 l       .debug_str	00000000 
0000a459 l       .debug_str	00000000 
0000a45f l       .debug_str	00000000 
0000a46e l       .debug_str	00000000 
0000a47a l       .debug_str	00000000 
0000a493 l       .debug_str	00000000 
0000a498 l       .debug_str	00000000 
0000a4a9 l       .debug_str	00000000 
0000a4b3 l       .debug_str	00000000 
0000a4c1 l       .debug_str	00000000 
0000a4cc l       .debug_str	00000000 
0000a4d3 l       .debug_str	00000000 
0000a4ea l       .debug_str	00000000 
0000a50e l       .debug_str	00000000 
0000a52a l       .debug_str	00000000 
0000a534 l       .debug_str	00000000 
0000a54e l       .debug_str	00000000 
0000a5ac l       .debug_str	00000000 
0000a5b7 l       .debug_str	00000000 
0000a5d4 l       .debug_str	00000000 
0000a5ed l       .debug_str	00000000 
0000a5f7 l       .debug_str	00000000 
0000a629 l       .debug_str	00000000 
0000a630 l       .debug_str	00000000 
0000a670 l       .debug_str	00000000 
0000a68c l       .debug_str	00000000 
0000a6b3 l       .debug_str	00000000 
0000a6e0 l       .debug_str	00000000 
0000a728 l       .debug_str	00000000 
0000a76e l       .debug_str	00000000 
0000a799 l       .debug_str	00000000 
0000a7c0 l       .debug_str	00000000 
0000a803 l       .debug_str	00000000 
0000a844 l       .debug_str	00000000 
0000a88c l       .debug_str	00000000 
0000a8b3 l       .debug_str	00000000 
0000a8e6 l       .debug_str	00000000 
0000a917 l       .debug_str	00000000 
0000a95f l       .debug_str	00000000 
0000a9a8 l       .debug_str	00000000 
0000a9dc l       .debug_str	00000000 
0000aa22 l       .debug_str	00000000 
0000aa53 l       .debug_str	00000000 
0000aac7 l       .debug_str	00000000 
0000aaf9 l       .debug_str	00000000 
0000ab2e l       .debug_str	00000000 
0000ab72 l       .debug_str	00000000 
0000abfb l       .debug_str	00000000 
0000ac9a l       .debug_str	00000000 
0000ad5e l       .debug_str	00000000 
0000ad63 l       .debug_str	00000000 
0000ad69 l       .debug_str	00000000 
0000ad98 l       .debug_str	00000000 
0000adcb l       .debug_str	00000000 
0000ae16 l       .debug_str	00000000 
0000ae58 l       .debug_str	00000000 
0000ae94 l       .debug_str	00000000 
0000af08 l       .debug_str	00000000 
0000af37 l       .debug_str	00000000 
0000af75 l       .debug_str	00000000 
0000affe l       .debug_str	00000000 
0000b0e5 l       .debug_str	00000000 
0000b1f1 l       .debug_str	00000000 
0000b255 l       .debug_str	00000000 
0000b289 l       .debug_str	00000000 
0000b2b3 l       .debug_str	00000000 
0000b323 l       .debug_str	00000000 
0000b340 l       .debug_str	00000000 
0000b3b3 l       .debug_str	00000000 
0000b415 l       .debug_str	00000000 
0000b460 l       .debug_str	00000000 
0000b4a2 l       .debug_str	00000000 
0000b52b l       .debug_str	00000000 
0000b5da l       .debug_str	00000000 
0000b65c l       .debug_str	00000000 
0000b6f5 l       .debug_str	00000000 
0000b7b5 l       .debug_str	00000000 
0000b80b l       .debug_str	00000000 
0000b8bd l       .debug_str	00000000 
0000b913 l       .debug_str	00000000 
0000ba0d l       .debug_str	00000000 
0000bb0b l       .debug_str	00000000 
0000bb4b l       .debug_str	00000000 
0000bc48 l       .debug_str	00000000 
0000bcb3 l       .debug_str	00000000 
0000bd59 l       .debug_str	00000000 
0000be0e l       .debug_str	00000000 
0000be19 l       .debug_str	00000000 
0000be57 l       .debug_str	00000000 
0000bea8 l       .debug_str	00000000 
0000bece l       .debug_str	00000000 
0000bf10 l       .debug_str	00000000 
0000bf14 l       .debug_str	00000000 
0000bf5e l       .debug_str	00000000 
0000bfa7 l       .debug_str	00000000 
0000bff0 l       .debug_str	00000000 
0000bff5 l       .debug_str	00000000 
0000bff8 l       .debug_str	00000000 
0000c001 l       .debug_str	00000000 
0000c015 l       .debug_str	00000000 
0000c024 l       .debug_str	00000000 
0000c026 l       .debug_str	00000000 
0000c06a l       .debug_str	00000000 
0000c0d8 l       .debug_str	00000000 
0000c0dd l       .debug_str	00000000 
0000c11d l       .debug_str	00000000 
0000c16a l       .debug_str	00000000 
0000c170 l       .debug_str	00000000 
0000c1bb l       .debug_str	00000000 
0000c1bf l       .debug_str	00000000 
0000c1c5 l       .debug_str	00000000 
0000c1d0 l       .debug_str	00000000 
0000c1d5 l       .debug_str	00000000 
0000c20e l       .debug_str	00000000 
0000c237 l       .debug_str	00000000 
0000c250 l       .debug_str	00000000 
0000c254 l       .debug_str	00000000 
0000c267 l       .debug_str	00000000 
0000c281 l       .debug_str	00000000 
0000c2d3 l       .debug_str	00000000 
0000c32d l       .debug_str	00000000 
0000c331 l       .debug_str	00000000 
0000c335 l       .debug_str	00000000 
0000c337 l       .debug_str	00000000 
0000c34d l       .debug_str	00000000 
0000c3ae l       .debug_str	00000000 
0000c3f0 l       .debug_str	00000000 
0000c47c l       .debug_str	00000000 
0000c482 l       .debug_str	00000000 
0000c48e l       .debug_str	00000000 
0000c4c9 l       .debug_str	00000000 
0000c4da l       .debug_str	00000000 
0000c4e1 l       .debug_str	00000000 
0000c4ef l       .debug_str	00000000 
0000c4f4 l       .debug_str	00000000 
0000c504 l       .debug_str	00000000 
0000c508 l       .debug_str	00000000 
0000c514 l       .debug_str	00000000 
0000c535 l       .debug_str	00000000 
0000c53f l       .debug_str	00000000 
0000c542 l       .debug_str	00000000 
0000c550 l       .debug_str	00000000 
0000c562 l       .debug_str	00000000 
0000c576 l       .debug_str	00000000 
0000c57f l       .debug_str	00000000 
0000c58a l       .debug_str	00000000 
0000c593 l       .debug_str	00000000 
0000c603 l       .debug_str	00000000 
0000c639 l       .debug_str	00000000 
0000c66b l       .debug_str	00000000 
0000c6db l       .debug_str	00000000 
0000c709 l       .debug_str	00000000 
0000c733 l       .debug_str	00000000 
0000c772 l       .debug_str	00000000 
0000c786 l       .debug_str	00000000 
0000c78b l       .debug_str	00000000 
0000c79a l       .debug_str	00000000 
0000c7a8 l       .debug_str	00000000 
0000c7ad l       .debug_str	00000000 
0000c7b1 l       .debug_str	00000000 
0000c7eb l       .debug_str	00000000 
0000c7fa l       .debug_str	00000000 
0000c821 l       .debug_str	00000000 
0000c828 l       .debug_str	00000000 
0000c830 l       .debug_str	00000000 
0000c837 l       .debug_str	00000000 
0000c83d l       .debug_str	00000000 
0000c844 l       .debug_str	00000000 
0000c84a l       .debug_str	00000000 
0000c8df l       .debug_str	00000000 
0000c8eb l       .debug_str	00000000 
0000c90f l       .debug_str	00000000 
0000c911 l       .debug_str	00000000 
0000c966 l       .debug_str	00000000 
0000c970 l       .debug_str	00000000 
0000c977 l       .debug_str	00000000 
0000c97b l       .debug_str	00000000 
0000c9c6 l       .debug_str	00000000 
0000c9d6 l       .debug_str	00000000 
0000c9e4 l       .debug_str	00000000 
0000c9e8 l       .debug_str	00000000 
0000c9ea l       .debug_str	00000000 
0000c9ec l       .debug_str	00000000 
0000ca33 l       .debug_str	00000000 
0000ca3f l       .debug_str	00000000 
0000ca89 l       .debug_str	00000000 
0000caa1 l       .debug_str	00000000 
0000cae0 l       .debug_str	00000000 
0000cb13 l       .debug_str	00000000 
0000cb48 l       .debug_str	00000000 
0000cb7d l       .debug_str	00000000 
0000cbb4 l       .debug_str	00000000 
0000cbdc l       .debug_str	00000000 
0000cc1b l       .debug_str	00000000 
0000cc31 l       .debug_str	00000000 
0000cc3a l       .debug_str	00000000 
0000cc40 l       .debug_str	00000000 
0000cc4c l       .debug_str	00000000 
0000cc54 l       .debug_str	00000000 
0000ccae l       .debug_str	00000000 
0000cd10 l       .debug_str	00000000 
0000cd1b l       .debug_str	00000000 
0000cd62 l       .debug_str	00000000 
0000cdb1 l       .debug_str	00000000 
0000cdbb l       .debug_str	00000000 
0000cdf8 l       .debug_str	00000000 
0000ce3d l       .debug_str	00000000 
0000ce46 l       .debug_str	00000000 
0000ce56 l       .debug_str	00000000 
0000ce5e l       .debug_str	00000000 
0000ceb3 l       .debug_str	00000000 
0000cf10 l       .debug_str	00000000 
0000cf1c l       .debug_str	00000000 
0000cf25 l       .debug_str	00000000 
0000cf31 l       .debug_str	00000000 
0000cf3d l       .debug_str	00000000 
0000cf46 l       .debug_str	00000000 
0000cf4e l       .debug_str	00000000 
0000cf56 l       .debug_str	00000000 
0000cf6b l       .debug_str	00000000 
0000cf72 l       .debug_str	00000000 
0000cf92 l       .debug_str	00000000 
0000cf99 l       .debug_str	00000000 
0000cfa1 l       .debug_str	00000000 
0000cfab l       .debug_str	00000000 
0000cfc2 l       .debug_str	00000000 
0000cfc7 l       .debug_str	00000000 
0000cfcf l       .debug_str	00000000 
0000cfd8 l       .debug_str	00000000 
0000cfe1 l       .debug_str	00000000 
0000cfea l       .debug_str	00000000 
0000cff2 l       .debug_str	00000000 
0000cff6 l       .debug_str	00000000 
0000cffd l       .debug_str	00000000 
0000d009 l       .debug_str	00000000 
0000d014 l       .debug_str	00000000 
0000d01c l       .debug_str	00000000 
0000d024 l       .debug_str	00000000 
0000d0a0 l       .debug_str	00000000 
0000d124 l       .debug_str	00000000 
0000d220 l       .debug_str	00000000 
0000d324 l       .debug_str	00000000 
0000d332 l       .debug_str	00000000 
0000d33d l       .debug_str	00000000 
0000d347 l       .debug_str	00000000 
0000d352 l       .debug_str	00000000 
0000d380 l       .debug_str	00000000 
0000d3fb l       .debug_str	00000000 
0000d47e l       .debug_str	00000000 
0000d48c l       .debug_str	00000000 
0000d4eb l       .debug_str	00000000 
0000d552 l       .debug_str	00000000 
0000d568 l       .debug_str	00000000 
0000d578 l       .debug_str	00000000 
0000d587 l       .debug_str	00000000 
0000d58b l       .debug_str	00000000 
0000d591 l       .debug_str	00000000 
0000d595 l       .debug_str	00000000 
0000d59b l       .debug_str	00000000 
0000d5a1 l       .debug_str	00000000 
0000d5ad l       .debug_str	00000000 
0000d5b5 l       .debug_str	00000000 
0000d5bd l       .debug_str	00000000 
0000d5c3 l       .debug_str	00000000 
0000d5e6 l       .debug_str	00000000 
0000d5f6 l       .debug_str	00000000 
0000d629 l       .debug_str	00000000 
0000d669 l       .debug_str	00000000 
0000d6b1 l       .debug_str	00000000 
0000d6b5 l       .debug_str	00000000 
0000d6bb l       .debug_str	00000000 
0000d6c1 l       .debug_str	00000000 
0000d6c7 l       .debug_str	00000000 
0000d6d9 l       .debug_str	00000000 
0000d70e l       .debug_str	00000000 
0000d750 l       .debug_str	00000000 
0000d79a l       .debug_str	00000000 
0000d79e l       .debug_str	00000000 
0000d7a4 l       .debug_str	00000000 
0000d7aa l       .debug_str	00000000 
0000d7b0 l       .debug_str	00000000 
0000d7c2 l       .debug_str	00000000 
0000d7f7 l       .debug_str	00000000 
0000d839 l       .debug_str	00000000 
0000d883 l       .debug_str	00000000 
0000d887 l       .debug_str	00000000 
0000d88d l       .debug_str	00000000 
0000d893 l       .debug_str	00000000 
0000d899 l       .debug_str	00000000 
0000d89f l       .debug_str	00000000 
0000d8b0 l       .debug_str	00000000 
0000d8e4 l       .debug_str	00000000 
0000d925 l       .debug_str	00000000 
0000d96e l       .debug_str	00000000 
0000d973 l       .debug_str	00000000 
0000d978 l       .debug_str	00000000 
0000d97c l       .debug_str	00000000 
0000d982 l       .debug_str	00000000 
0000d988 l       .debug_str	00000000 
0000d98e l       .debug_str	00000000 
0000d99f l       .debug_str	00000000 
0000d9d3 l       .debug_str	00000000 
0000da14 l       .debug_str	00000000 
0000da5d l       .debug_str	00000000 
0000da61 l       .debug_str	00000000 
0000da6a l       .debug_str	00000000 
0000da7b l       .debug_str	00000000 
0000daaf l       .debug_str	00000000 
0000daf0 l       .debug_str	00000000 
0000db39 l       .debug_str	00000000 
0000db3e l       .debug_str	00000000 
00011444 l       .debug_str	00000000 
00000000 l     O .rodata.cst4	00000004 .Lanon.198329b7968f6971950ed35b54bc5eea.30
00000004 l     O .rodata.cst4	00000004 .Lanon.198329b7968f6971950ed35b54bc5eea.31
00000008 l     O .rodata.cst4	00000004 .Lanon.198329b7968f6971950ed35b54bc5eea.46
0000000c l     O .rodata.cst4	00000004 .Lanon.198329b7968f6971950ed35b54bc5eea.47
00000010 l     O .rodata.cst4	00000004 .Lanon.198329b7968f6971950ed35b54bc5eea.49
00000014 l     O .rodata.cst4	00000004 .Lanon.198329b7968f6971950ed35b54bc5eea.59
00000000 l     O .rodata.cst8	00000008 .Lanon.198329b7968f6971950ed35b54bc5eea.68
00000008 l     O .rodata.cst8	00000008 .Lanon.198329b7968f6971950ed35b54bc5eea.76
00000010 l     O .rodata.cst8	00000008 .Lanon.198329b7968f6971950ed35b54bc5eea.82
00000018 l     O .rodata.cst8	00000008 .Lanon.198329b7968f6971950ed35b54bc5eea.83
00000020 l     O .rodata.cst8	00000008 .Lanon.198329b7968f6971950ed35b54bc5eea.86
00000028 l     O .rodata.cst8	00000008 .Lanon.198329b7968f6971950ed35b54bc5eea.87
00000030 l     O .rodata.cst8	00000008 .Lanon.198329b7968f6971950ed35b54bc5eea.88
00000000 l     O .rodata._ZN3app10app_sensor13SENSOR_DEVICE17hf94d1eee8faa6b51E	0000000c app::app_sensor::SENSOR_DEVICE
00000000 l     F .text._ZN3app11app_network21aggregate_sensor_data17h9ee79c2b33ea7248E	00000270 app::app_network::aggregate_sensor_data
00000000 l     O .bss..L_MergedGlobals	00000001 app::touch_sensor::I2C_BUFFER
00000000 l     O .bss._ZN3app12touch_sensor10TOUCH_DATA17hbf06035db5bfe863E	00000052 app::touch_sensor::TOUCH_DATA
00000000 l     O .bss..L_MergedGlobals	00000000 app::touch_sensor::TOUCH_DELAY
00000000 l     O .bss._ZN3app12touch_sensor11TOUCH_EVENT17h9d3b26e52eb58479E	00000010 app::touch_sensor::TOUCH_EVENT
00000004 l     O .bss..L_MergedGlobals	00000004 app::touch_sensor::TOUCH_RESET
00000000 l     F .text._ZN3app12touch_sensor20touch_event_callback17h6c25c08948192f4fE	00000194 app::touch_sensor::touch_event_callback
00000000 l     F .text._ZN3app12touch_sensor23touch_interrupt_handler17h8ab5f25d51710e90E	00000024 app::touch_sensor::touch_interrupt_handler
00000010 l     O .bss..L_MergedGlobals	0000003f app::touch_sensor::buf
00000008 l     O .bss..L_MergedGlobals	00000008 app::touch_sensor::I2C_DATA
00000000 l     F .text._ZN3app5hello10ui_builder17hcdb181e2a2155df9E	000000b8 app::hello::ui_builder
00000000 l     F .text._ZN45_$LT$$LP$$RP$$u20$as$u20$core..fmt..Debug$GT$3fmt17h1ca253239ac72e38E	00000010 <() as core::fmt::Debug>::fmt
00000000 l     F .text._ZN4core3ops8function6FnOnce9call_once17h1715647495146ca0E	00000008 core::ops::function::FnOnce::call_once
00000000 l     F .text._ZN4core3ops8function6FnOnce9call_once17h7b5f477111092f4fE	0000000a core::ops::function::FnOnce::call_once
00000000 l     F .text._ZN4core3ptr18real_drop_in_place17h0223cadfa3f57f68E	0000000e core::ptr::real_drop_in_place
00000000 l     F .text._ZN4core3ptr18real_drop_in_place17h0d2a489e7f51267eE	00000002 core::ptr::real_drop_in_place
00000000 l     F .text._ZN4core3ptr18real_drop_in_place17h0ee23310814d2b66E	0000000c core::ptr::real_drop_in_place
00000000 l     F .text._ZN4core3ptr18real_drop_in_place17h202c7158d55d218eE	0000000c core::ptr::real_drop_in_place
00000000 l     F .text._ZN4core3ptr18real_drop_in_place17h210e853128e89bfeE	00000002 core::ptr::real_drop_in_place
00000000 l     F .text._ZN4core3ptr18real_drop_in_place17h263fa97bda99e2f4E	00000002 core::ptr::real_drop_in_place
00000000 l     F .text._ZN4core3ptr18real_drop_in_place17h3555a72667080463E	00000002 core::ptr::real_drop_in_place
00000000 l     F .text._ZN4core3ptr18real_drop_in_place17h41362d811e14e220E	00000002 core::ptr::real_drop_in_place
00000000 l     F .text._ZN4core3ptr18real_drop_in_place17h570de06e078de779E	00000010 core::ptr::real_drop_in_place
00000000 l     F .text._ZN4core3ptr18real_drop_in_place17h5a416687eac1ae34E	00000002 core::ptr::real_drop_in_place
00000000 l     F .text._ZN4core3ptr18real_drop_in_place17h61b6eeb8a6c5a096E	00000002 core::ptr::real_drop_in_place
00000000 l     F .text._ZN4core3ptr18real_drop_in_place17h62cfe80b0a97dcebE	00000002 core::ptr::real_drop_in_place
00000000 l     F .text._ZN4core3ptr18real_drop_in_place17hc192e8431039dd4dE	00000002 core::ptr::real_drop_in_place
00000000 l     F .text._ZN4core3ptr18real_drop_in_place17he3a0a606a9769187E	00000002 core::ptr::real_drop_in_place
00000000 l     F .text._ZN4core3ptr18real_drop_in_place17hebea082f77da6eedE	00000002 core::ptr::real_drop_in_place
00000000 l     F .text._ZN4core3ptr18real_drop_in_place17hfecf567a6a306612E	00000002 core::ptr::real_drop_in_place
00000000 l     F .text._ZN4core6result19Result$LT$T$C$E$GT$6expect17h065735530cb6a3f9E	00000028 core::result::Result<T,E>::expect
00000000 l     F .text._ZN4core6result19Result$LT$T$C$E$GT$6expect17h82e8feca3981cc41E	00000020 core::result::Result<T,E>::expect
00000000 l     F .text._ZN4core6result19Result$LT$T$C$E$GT$6unwrap17hfecf9a43f8803639E	0000001c core::result::Result<T,E>::unwrap
00000000 l     F .text._ZN5kurbo4rect4Rect16from_origin_size17hd1df0195bb515251E	0000011c kurbo::rect::Rect::from_origin_size
00000000 l     F .text._ZN5kurbo4rect4Rect4size17h4499126d71cec979E	00000030 kurbo::rect::Rect::size
00000000 l     F .text._ZN5kurbo4rect4Rect5width17hf30f34ce82591df7E	0000001c kurbo::rect::Rect::width
00000000 l     F .text._ZN5kurbo4rect4Rect6height17h0d3b3e567dbe6d86E	0000001c kurbo::rect::Rect::height
00000000 l     F .text._ZN68_$LT$core..option..Option$LT$T$GT$$u20$as$u20$core..clone..Clone$GT$5clone17h1461aaf17a7d8a3dE	00000032 <core::option::Option<T> as core::clone::Clone>::clone
00000000 l     F .text._ZN68_$LT$core..option..Option$LT$T$GT$$u20$as$u20$core..clone..Clone$GT$5clone17h49a548aec7bb2c09E	000000f0 <core::option::Option<T> as core::clone::Clone>::clone
00000000 l     F .text._ZN86_$LT$kurbo..point..Point$u20$as$u20$core..ops..arith..Add$LT$kurbo..vec2..Vec2$GT$$GT$3add17ha4fffca49caa2c0aE	00000044 <kurbo::point::Point as core::ops::arith::Add<kurbo::vec2::Vec2>>::add
00000000 l    d  .text._ZN105_$LT$$RF$mut$u20$heapless..vec..Vec$LT$T$C$N$GT$$u20$as$u20$core..iter..traits..collect..IntoIterator$GT$9into_iter17h19c47cdd155918faE	00000000 .text._ZN105_$LT$$RF$mut$u20$heapless..vec..Vec$LT$T$C$N$GT$$u20$as$u20$core..iter..traits..collect..IntoIterator$GT$9into_iter17h19c47cdd155918faE
00000000 l    d  .text._ZN107_$LT$piet_embedded_graphics..context..EmbedRenderContext$u20$as$u20$piet..render_context..RenderContext$GT$4fill17ha3fdd11278ca53ceE	00000000 .text._ZN107_$LT$piet_embedded_graphics..context..EmbedRenderContext$u20$as$u20$piet..render_context..RenderContext$GT$4fill17ha3fdd11278ca53ceE
00000000 l    d  .text._ZN107_$LT$piet_embedded_graphics..context..EmbedRenderContext$u20$as$u20$piet..render_context..RenderContext$GT$6stroke17he362bf955985f021E	00000000 .text._ZN107_$LT$piet_embedded_graphics..context..EmbedRenderContext$u20$as$u20$piet..render_context..RenderContext$GT$6stroke17he362bf955985f021E
00000000 l    d  .text._ZN107_$LT$piet_embedded_graphics..context..EmbedRenderContext$u20$as$u20$piet..render_context..RenderContext$GT$9draw_text17h99e439e6e0d1b1d5E	00000000 .text._ZN107_$LT$piet_embedded_graphics..context..EmbedRenderContext$u20$as$u20$piet..render_context..RenderContext$GT$9draw_text17h99e439e6e0d1b1d5E
00000000 l    d  .text._ZN112_$LT$embedded_graphics..primitives..line..Line$LT$C$GT$$u20$as$u20$core..iter..traits..collect..IntoIterator$GT$9into_iter17h5c7aa4987d028b6fE	00000000 .text._ZN112_$LT$embedded_graphics..primitives..line..Line$LT$C$GT$$u20$as$u20$core..iter..traits..collect..IntoIterator$GT$9into_iter17h5c7aa4987d028b6fE
00000000 l    d  .text._ZN115_$LT$embedded_graphics..primitives..line..Line$LT$C$GT$$u20$as$u20$embedded_graphics..style..WithStyle$LT$C$GT$$GT$12stroke_width17h12b44aa4ec6be4f3E	00000000 .text._ZN115_$LT$embedded_graphics..primitives..line..Line$LT$C$GT$$u20$as$u20$embedded_graphics..style..WithStyle$LT$C$GT$$GT$12stroke_width17h12b44aa4ec6be4f3E
00000000 l    d  .text._ZN115_$LT$embedded_graphics..primitives..line..Line$LT$C$GT$$u20$as$u20$embedded_graphics..style..WithStyle$LT$C$GT$$GT$6stroke17he2ee6f01753e4908E	00000000 .text._ZN115_$LT$embedded_graphics..primitives..line..Line$LT$C$GT$$u20$as$u20$embedded_graphics..style..WithStyle$LT$C$GT$$GT$6stroke17he2ee6f01753e4908E
00000000 l    d  .text._ZN116_$LT$$RF$embedded_graphics..primitives..line..Line$LT$C$GT$$u20$as$u20$core..iter..traits..collect..IntoIterator$GT$9into_iter17h471c1dbc9fca74ffE	00000000 .text._ZN116_$LT$$RF$embedded_graphics..primitives..line..Line$LT$C$GT$$u20$as$u20$core..iter..traits..collect..IntoIterator$GT$9into_iter17h471c1dbc9fca74ffE
00000000 l    d  .text._ZN117_$LT$embedded_graphics..primitives..line..LineIterator$LT$C$GT$$u20$as$u20$core..iter..traits..iterator..Iterator$GT$4next17ha10fb269365cbbe8E	00000000 .text._ZN117_$LT$embedded_graphics..primitives..line..LineIterator$LT$C$GT$$u20$as$u20$core..iter..traits..iterator..Iterator$GT$4next17ha10fb269365cbbe8E
00000000 l    d  .text._ZN11druid_shell6window28WindowHandle$LT$THandler$GT$4show17hd37565557e6d5a60E	00000000 .text._ZN11druid_shell6window28WindowHandle$LT$THandler$GT$4show17hd37565557e6d5a60E
00000000 l    d  .text._ZN11druid_shell6window29WindowBuilder$LT$THandler$GT$11set_handler17h503f062dce43d243E	00000000 .text._ZN11druid_shell6window29WindowBuilder$LT$THandler$GT$11set_handler17h503f062dce43d243E
00000000 l    d  .text._ZN11druid_shell6window29WindowBuilder$LT$THandler$GT$3new17h27e968d065b61b40E	00000000 .text._ZN11druid_shell6window29WindowBuilder$LT$THandler$GT$3new17h27e968d065b61b40E
00000000 l    d  .text._ZN11druid_shell6window29WindowBuilder$LT$THandler$GT$5build17he3242aa91a4cda98E	00000000 .text._ZN11druid_shell6window29WindowBuilder$LT$THandler$GT$5build17he3242aa91a4cda98E
00000000 l    d  .text._ZN11druid_shell6window29WindowBuilder$LT$THandler$GT$8set_size17hc3235e20780b6a40E	00000000 .text._ZN11druid_shell6window29WindowBuilder$LT$THandler$GT$8set_size17hc3235e20780b6a40E
00000000 l    d  .text._ZN11druid_shell8platform8embedded6window28WindowHandle$LT$THandler$GT$4show17hd1f266ba72d20d97E	00000000 .text._ZN11druid_shell8platform8embedded6window28WindowHandle$LT$THandler$GT$4show17hd1f266ba72d20d97E
00000000 l    d  .text._ZN11druid_shell8platform8embedded6window29WindowBuilder$LT$THandler$GT$11set_handler17hd189576dc2c2466cE	00000000 .text._ZN11druid_shell8platform8embedded6window29WindowBuilder$LT$THandler$GT$11set_handler17hd189576dc2c2466cE
00000000 l    d  .text._ZN11druid_shell8platform8embedded6window29WindowBuilder$LT$THandler$GT$3new17ha6f6064f3c0ded92E	00000000 .text._ZN11druid_shell8platform8embedded6window29WindowBuilder$LT$THandler$GT$3new17ha6f6064f3c0ded92E
00000000 l    d  .text._ZN11druid_shell8platform8embedded6window29WindowBuilder$LT$THandler$GT$5build17ha5316f701ea2e6a1E	00000000 .text._ZN11druid_shell8platform8embedded6window29WindowBuilder$LT$THandler$GT$5build17ha5316f701ea2e6a1E
00000000 l    d  .text._ZN11druid_shell8platform8embedded6window29WindowBuilder$LT$THandler$GT$8set_size17hc74b01c72f43aab9E	00000000 .text._ZN11druid_shell8platform8embedded6window29WindowBuilder$LT$THandler$GT$8set_size17hc74b01c72f43aab9E
00000000 l    d  .text._ZN133_$LT$druid..widget..label..LabelText$LT$T$GT$$u20$as$u20$core..convert..From$LT$druid..localization..LocalizedString$LT$T$GT$$GT$$GT$4from17hf1e382c2f245e3e9E	00000000 .text._ZN133_$LT$druid..widget..label..LabelText$LT$T$GT$$u20$as$u20$core..convert..From$LT$druid..localization..LocalizedString$LT$T$GT$$GT$$GT$4from17hf1e382c2f245e3e9E
00000000 l    d  .text._ZN140_$LT$st7735_lcd..ST7735$LT$SPI$C$DC$C$RST$GT$$u20$as$u20$embedded_graphics..Drawing$LT$embedded_graphics..pixelcolor..rgb565..Rgb565$GT$$GT$4draw17h9d9764dd82e224c7E	00000000 .text._ZN140_$LT$st7735_lcd..ST7735$LT$SPI$C$DC$C$RST$GT$$u20$as$u20$embedded_graphics..Drawing$LT$embedded_graphics..pixelcolor..rgb565..Rgb565$GT$$GT$4draw17h9d9764dd82e224c7E
00000000 l    d  .text._ZN17embedded_graphics10primitives4line13Line$LT$C$GT$3new17h1cf03c853f1f61a0E	00000000 .text._ZN17embedded_graphics10primitives4line13Line$LT$C$GT$3new17h1cf03c853f1f61a0E
00000000 l    d  .text._ZN42_$LT$$RF$T$u20$as$u20$core..fmt..Debug$GT$3fmt17h7ab5bba83a46be05E	00000000 .text._ZN42_$LT$$RF$T$u20$as$u20$core..fmt..Debug$GT$3fmt17h7ab5bba83a46be05E
00000000 l    d  .text._ZN45_$LT$$LP$$RP$$u20$as$u20$core..fmt..Debug$GT$3fmt17h1ca253239ac72e38E	00000000 .text._ZN45_$LT$$LP$$RP$$u20$as$u20$core..fmt..Debug$GT$3fmt17h1ca253239ac72e38E
00000000 l    d  .text._ZN4core3fmt5Write9write_fmt17hb8dea399774939cbE	00000000 .text._ZN4core3fmt5Write9write_fmt17hb8dea399774939cbE
00000000 l    d  .text._ZN4core3ops8function6FnOnce9call_once17h1715647495146ca0E	00000000 .text._ZN4core3ops8function6FnOnce9call_once17h1715647495146ca0E
00000000 l    d  .text._ZN4core3ops8function6FnOnce9call_once17h7b5f477111092f4fE	00000000 .text._ZN4core3ops8function6FnOnce9call_once17h7b5f477111092f4fE
00000000 l    d  .text._ZN4core3ptr18real_drop_in_place17h0223cadfa3f57f68E	00000000 .text._ZN4core3ptr18real_drop_in_place17h0223cadfa3f57f68E
00000000 l    d  .text._ZN4core3ptr18real_drop_in_place17h0d2a489e7f51267eE	00000000 .text._ZN4core3ptr18real_drop_in_place17h0d2a489e7f51267eE
00000000 l    d  .text._ZN4core3ptr18real_drop_in_place17h0ee23310814d2b66E	00000000 .text._ZN4core3ptr18real_drop_in_place17h0ee23310814d2b66E
00000000 l    d  .text._ZN4core3ptr18real_drop_in_place17h202c7158d55d218eE	00000000 .text._ZN4core3ptr18real_drop_in_place17h202c7158d55d218eE
00000000 l    d  .text._ZN4core3ptr18real_drop_in_place17h210e853128e89bfeE	00000000 .text._ZN4core3ptr18real_drop_in_place17h210e853128e89bfeE
00000000 l    d  .text._ZN4core3ptr18real_drop_in_place17h263fa97bda99e2f4E	00000000 .text._ZN4core3ptr18real_drop_in_place17h263fa97bda99e2f4E
00000000 l    d  .text._ZN4core3ptr18real_drop_in_place17h3555a72667080463E	00000000 .text._ZN4core3ptr18real_drop_in_place17h3555a72667080463E
00000000 l    d  .text._ZN4core3ptr18real_drop_in_place17h41362d811e14e220E	00000000 .text._ZN4core3ptr18real_drop_in_place17h41362d811e14e220E
00000000 l    d  .text._ZN4core3ptr18real_drop_in_place17h570de06e078de779E	00000000 .text._ZN4core3ptr18real_drop_in_place17h570de06e078de779E
00000000 l    d  .text._ZN4core3ptr18real_drop_in_place17h5a416687eac1ae34E	00000000 .text._ZN4core3ptr18real_drop_in_place17h5a416687eac1ae34E
00000000 l    d  .text._ZN4core3ptr18real_drop_in_place17h61b6eeb8a6c5a096E	00000000 .text._ZN4core3ptr18real_drop_in_place17h61b6eeb8a6c5a096E
00000000 l    d  .text._ZN4core3ptr18real_drop_in_place17h62cfe80b0a97dcebE	00000000 .text._ZN4core3ptr18real_drop_in_place17h62cfe80b0a97dcebE
00000000 l    d  .text._ZN4core3ptr18real_drop_in_place17hc192e8431039dd4dE	00000000 .text._ZN4core3ptr18real_drop_in_place17hc192e8431039dd4dE
00000000 l    d  .text._ZN4core3ptr18real_drop_in_place17he3a0a606a9769187E	00000000 .text._ZN4core3ptr18real_drop_in_place17he3a0a606a9769187E
00000000 l    d  .text._ZN4core3ptr18real_drop_in_place17hebea082f77da6eedE	00000000 .text._ZN4core3ptr18real_drop_in_place17hebea082f77da6eedE
00000000 l    d  .text._ZN4core3ptr18real_drop_in_place17hfecf567a6a306612E	00000000 .text._ZN4core3ptr18real_drop_in_place17hfecf567a6a306612E
00000000 l    d  .text._ZN4core4iter6traits8iterator8Iterator3sum17h51974ad5f1074750E	00000000 .text._ZN4core4iter6traits8iterator8Iterator3sum17h51974ad5f1074750E
00000000 l    d  .text._ZN4core4iter8adapters16Map$LT$I$C$F$GT$3new17h30e4c1f0d420d908E	00000000 .text._ZN4core4iter8adapters16Map$LT$I$C$F$GT$3new17h30e4c1f0d420d908E
00000000 l    d  .text._ZN4core4iter8adapters8map_fold17h89b4408d9f98adecE	00000000 .text._ZN4core4iter8adapters8map_fold17h89b4408d9f98adecE
00000000 l    d  .text._ZN4core5slice87_$LT$impl$u20$core..iter..traits..collect..IntoIterator$u20$for$u20$$RF$$u5b$T$u5d$$GT$9into_iter17h2527c4ff98c5e68eE	00000000 .text._ZN4core5slice87_$LT$impl$u20$core..iter..traits..collect..IntoIterator$u20$for$u20$$RF$$u5b$T$u5d$$GT$9into_iter17h2527c4ff98c5e68eE
00000000 l    d  .text._ZN4core5slice87_$LT$impl$u20$core..iter..traits..collect..IntoIterator$u20$for$u20$$RF$$u5b$T$u5d$$GT$9into_iter17h76538937414cd890E	00000000 .text._ZN4core5slice87_$LT$impl$u20$core..iter..traits..collect..IntoIterator$u20$for$u20$$RF$$u5b$T$u5d$$GT$9into_iter17h76538937414cd890E
00000000 l    d  .text._ZN4core6result19Result$LT$T$C$E$GT$6expect17h065735530cb6a3f9E	00000000 .text._ZN4core6result19Result$LT$T$C$E$GT$6expect17h065735530cb6a3f9E
00000000 l    d  .text._ZN4core6result19Result$LT$T$C$E$GT$6expect17h82e8feca3981cc41E	00000000 .text._ZN4core6result19Result$LT$T$C$E$GT$6expect17h82e8feca3981cc41E
00000000 l    d  .text._ZN4core6result19Result$LT$T$C$E$GT$6unwrap17hfecf9a43f8803639E	00000000 .text._ZN4core6result19Result$LT$T$C$E$GT$6unwrap17hfecf9a43f8803639E
00000000 l    d  .text._ZN50_$LT$$RF$mut$u20$W$u20$as$u20$core..fmt..Write$GT$10write_char17h75662850cd2103c5E	00000000 .text._ZN50_$LT$$RF$mut$u20$W$u20$as$u20$core..fmt..Write$GT$10write_char17h75662850cd2103c5E
00000000 l    d  .text._ZN50_$LT$$RF$mut$u20$W$u20$as$u20$core..fmt..Write$GT$9write_fmt17h8b309f61526767cfE	00000000 .text._ZN50_$LT$$RF$mut$u20$W$u20$as$u20$core..fmt..Write$GT$9write_fmt17h8b309f61526767cfE
00000000 l    d  .text._ZN50_$LT$$RF$mut$u20$W$u20$as$u20$core..fmt..Write$GT$9write_str17hc98569f5e041bf67E	00000000 .text._ZN50_$LT$$RF$mut$u20$W$u20$as$u20$core..fmt..Write$GT$9write_str17hc98569f5e041bf67E
00000000 l    d  .text._ZN50_$LT$T$u20$as$u20$core..convert..From$LT$T$GT$$GT$4from17h72a03c5c655c1b81E	00000000 .text._ZN50_$LT$T$u20$as$u20$core..convert..From$LT$T$GT$$GT$4from17h72a03c5c655c1b81E
00000000 l    d  .text._ZN50_$LT$T$u20$as$u20$core..convert..From$LT$T$GT$$GT$4from17ha528600cafe70a54E	00000000 .text._ZN50_$LT$T$u20$as$u20$core..convert..From$LT$T$GT$$GT$4from17ha528600cafe70a54E
00000000 l    d  .text._ZN50_$LT$T$u20$as$u20$core..convert..Into$LT$U$GT$$GT$4into17h1f3dd639bafef216E	00000000 .text._ZN50_$LT$T$u20$as$u20$core..convert..Into$LT$U$GT$$GT$4into17h1f3dd639bafef216E
00000000 l    d  .text._ZN50_$LT$T$u20$as$u20$core..convert..Into$LT$U$GT$$GT$4into17h3af41b9a6781eef1E	00000000 .text._ZN50_$LT$T$u20$as$u20$core..convert..Into$LT$U$GT$$GT$4into17h3af41b9a6781eef1E
00000000 l    d  .text._ZN50_$LT$T$u20$as$u20$core..convert..Into$LT$U$GT$$GT$4into17h6ec456640f6940dfE	00000000 .text._ZN50_$LT$T$u20$as$u20$core..convert..Into$LT$U$GT$$GT$4into17h6ec456640f6940dfE
00000000 l    d  .text._ZN50_$LT$T$u20$as$u20$core..convert..Into$LT$U$GT$$GT$4into17h85185d13e6afc34dE	00000000 .text._ZN50_$LT$T$u20$as$u20$core..convert..Into$LT$U$GT$$GT$4into17h85185d13e6afc34dE
00000000 l    d  .text._ZN50_$LT$T$u20$as$u20$core..convert..Into$LT$U$GT$$GT$4into17ha6c30cf29a2e5f10E	00000000 .text._ZN50_$LT$T$u20$as$u20$core..convert..Into$LT$U$GT$$GT$4into17ha6c30cf29a2e5f10E
00000000 l    d  .text._ZN50_$LT$T$u20$as$u20$core..convert..Into$LT$U$GT$$GT$4into17hbf12dae1a674e292E	00000000 .text._ZN50_$LT$T$u20$as$u20$core..convert..Into$LT$U$GT$$GT$4into17hbf12dae1a674e292E
00000000 l    d  .text._ZN50_$LT$T$u20$as$u20$core..convert..Into$LT$U$GT$$GT$4into17hd105448d2582fa00E	00000000 .text._ZN50_$LT$T$u20$as$u20$core..convert..Into$LT$U$GT$$GT$4into17hd105448d2582fa00E
00000000 l    d  .text._ZN50_$LT$T$u20$as$u20$core..convert..Into$LT$U$GT$$GT$4into17hf1d8d50a6f5f7b0fE	00000000 .text._ZN50_$LT$T$u20$as$u20$core..convert..Into$LT$U$GT$$GT$4into17hf1d8d50a6f5f7b0fE
00000000 l    d  .text._ZN54_$LT$f64$u20$as$u20$core..iter..traits..accum..Sum$GT$3sum17had7373165c8fa8fdE	00000000 .text._ZN54_$LT$f64$u20$as$u20$core..iter..traits..accum..Sum$GT$3sum17had7373165c8fa8fdE
00000000 l    d  .text._ZN59_$LT$$LP$T10$C$$u20$T11$RP$$u20$as$u20$core..fmt..Debug$GT$3fmt17h69687c9e4aa1a06eE	00000000 .text._ZN59_$LT$$LP$T10$C$$u20$T11$RP$$u20$as$u20$core..fmt..Debug$GT$3fmt17h69687c9e4aa1a06eE
00000000 l    d  .text._ZN5druid11win_handler16Windows$LT$T$GT$3add17had17412f00d5a178E	00000000 .text._ZN5druid11win_handler16Windows$LT$T$GT$3add17had17412f00d5a178E
00000000 l    d  .text._ZN5druid11win_handler16Windows$LT$T$GT$3get17h352816ef234e24b4E	00000000 .text._ZN5druid11win_handler16Windows$LT$T$GT$3get17h352816ef234e24b4E
00000000 l    d  .text._ZN5druid11win_handler17AppState$LT$T$GT$10add_window17h3b4ad0c0f2ec51e6E	00000000 .text._ZN5druid11win_handler17AppState$LT$T$GT$10add_window17h3b4ad0c0f2ec51e6E
00000000 l    d  .text._ZN5druid11win_handler17AppState$LT$T$GT$21assemble_window_state17hd87bfcd62adde00dE	00000000 .text._ZN5druid11win_handler17AppState$LT$T$GT$21assemble_window_state17hd87bfcd62adde00dE
00000000 l    d  .text._ZN5druid11win_handler17AppState$LT$T$GT$3new17h54e565012aca0f6fE	00000000 .text._ZN5druid11win_handler17AppState$LT$T$GT$3new17h54e565012aca0f6fE
00000000 l    d  .text._ZN5druid11win_handler17AppState$LT$T$GT$5paint17h89525d7aa4b8caccE	00000000 .text._ZN5druid11win_handler17AppState$LT$T$GT$5paint17h89525d7aa4b8caccE
00000000 l    d  .text._ZN5druid11win_handler21DruidHandler$LT$T$GT$10new_shared17h629442530d426482E	00000000 .text._ZN5druid11win_handler21DruidHandler$LT$T$GT$10new_shared17h629442530d426482E
00000000 l    d  .text._ZN5druid11win_handler26SingleWindowState$LT$T$GT$5paint17h6c4f6c027d2de84aE	00000000 .text._ZN5druid11win_handler26SingleWindowState$LT$T$GT$5paint17h6c4f6c027d2de84aE
00000000 l    d  .text._ZN5druid11win_handler26SingleWindowState$LT$T$GT$8do_paint17he0743a66625b931eE	00000000 .text._ZN5druid11win_handler26SingleWindowState$LT$T$GT$8do_paint17he0743a66625b931eE
00000000 l    d  .text._ZN5druid11win_handler26SingleWindowState$LT$T$GT$9do_layout17hf8c458dcbd70ca9eE	00000000 .text._ZN5druid11win_handler26SingleWindowState$LT$T$GT$9do_layout17hf8c458dcbd70ca9eE
00000000 l    d  .text._ZN5druid12localization24LocalizedString$LT$T$GT$13localized_str17he921e45cc84c645eE	00000000 .text._ZN5druid12localization24LocalizedString$LT$T$GT$13localized_str17he921e45cc84c645eE
00000000 l    d  .text._ZN5druid12localization24LocalizedString$LT$T$GT$3new17ha19310d7ec3a1866E	00000000 .text._ZN5druid12localization24LocalizedString$LT$T$GT$3new17ha19310d7ec3a1866E
00000000 l    d  .text._ZN5druid12localization24LocalizedString$LT$T$GT$8with_arg17he0df709482b7a10aE	00000000 .text._ZN5druid12localization24LocalizedString$LT$T$GT$8with_arg17he0df709482b7a10aE
00000000 l    d  .text._ZN5druid14BoxConstraints9constrain17h7b6e4befaaf780f2E	00000000 .text._ZN5druid14BoxConstraints9constrain17h7b6e4befaaf780f2E
00000000 l    d  .text._ZN5druid22WidgetPod$LT$T$C$W$GT$15get_layout_rect17h49d8e3e38286913fE	00000000 .text._ZN5druid22WidgetPod$LT$T$C$W$GT$15get_layout_rect17h49d8e3e38286913fE
00000000 l    d  .text._ZN5druid22WidgetPod$LT$T$C$W$GT$15set_layout_rect17h04aa8a7d10b06596E	00000000 .text._ZN5druid22WidgetPod$LT$T$C$W$GT$15set_layout_rect17h04aa8a7d10b06596E
00000000 l    d  .text._ZN5druid22WidgetPod$LT$T$C$W$GT$15set_layout_rect17h826544f924c4136dE	00000000 .text._ZN5druid22WidgetPod$LT$T$C$W$GT$15set_layout_rect17h826544f924c4136dE
00000000 l    d  .text._ZN5druid22WidgetPod$LT$T$C$W$GT$17paint_with_offset17hee7a39b5cd9c3dbcE	00000000 .text._ZN5druid22WidgetPod$LT$T$C$W$GT$17paint_with_offset17hee7a39b5cd9c3dbcE
00000000 l    d  .text._ZN5druid22WidgetPod$LT$T$C$W$GT$22paint_with_offset_impl17h94e3f126403ec82eE	00000000 .text._ZN5druid22WidgetPod$LT$T$C$W$GT$22paint_with_offset_impl17h94e3f126403ec82eE
00000000 l    d  .text._ZN5druid22WidgetPod$LT$T$C$W$GT$3new17h0f3a67c3de684a1bE	00000000 .text._ZN5druid22WidgetPod$LT$T$C$W$GT$3new17h0f3a67c3de684a1bE
00000000 l    d  .text._ZN5druid22WidgetPod$LT$T$C$W$GT$3new17h3f32c3f331228985E	00000000 .text._ZN5druid22WidgetPod$LT$T$C$W$GT$3new17h3f32c3f331228985E
00000000 l    d  .text._ZN5druid22WidgetPod$LT$T$C$W$GT$5paint17hd38edd6447537b14E	00000000 .text._ZN5druid22WidgetPod$LT$T$C$W$GT$5paint17hd38edd6447537b14E
00000000 l    d  .text._ZN5druid22WidgetPod$LT$T$C$W$GT$6layout17h4c399d3bed77871fE	00000000 .text._ZN5druid22WidgetPod$LT$T$C$W$GT$6layout17h4c399d3bed77871fE
00000000 l    d  .text._ZN5druid22WidgetPod$LT$T$C$W$GT$6layout17h6a3b3fed5c19e5ebE	00000000 .text._ZN5druid22WidgetPod$LT$T$C$W$GT$6layout17h6a3b3fed5c19e5ebE
00000000 l    d  .text._ZN5druid3app23WindowDesc$LT$T$C$W$GT$12build_native17h544235b468a7d23dE	00000000 .text._ZN5druid3app23WindowDesc$LT$T$C$W$GT$12build_native17h544235b468a7d23dE
00000000 l    d  .text._ZN5druid3app23WindowDesc$LT$T$C$W$GT$3new17h150ebc7945401b41E	00000000 .text._ZN5druid3app23WindowDesc$LT$T$C$W$GT$3new17h150ebc7945401b41E
00000000 l    d  .text._ZN5druid3app24AppLauncher$LT$T$C$W$GT$11with_window17h6256f0cf6f972544E	00000000 .text._ZN5druid3app24AppLauncher$LT$T$C$W$GT$11with_window17h6256f0cf6f972544E
00000000 l    d  .text._ZN5druid3app24AppLauncher$LT$T$C$W$GT$17use_simple_logger17hb4258055174eaa84E	00000000 .text._ZN5druid3app24AppLauncher$LT$T$C$W$GT$17use_simple_logger17hb4258055174eaa84E
00000000 l    d  .text._ZN5druid3app24AppLauncher$LT$T$C$W$GT$6launch17hf936f0cad0047a36E	00000000 .text._ZN5druid3app24AppLauncher$LT$T$C$W$GT$6launch17hf936f0cad0047a36E
00000000 l    d  .text._ZN5druid6widget4flex13Flex$LT$T$GT$9add_child17h3afcae7ae03333a7E	00000000 .text._ZN5druid6widget4flex13Flex$LT$T$GT$9add_child17h3afcae7ae03333a7E
00000000 l    d  .text._ZN5druid6widget4flex6Column3new17heedd836087618e6aE	00000000 .text._ZN5druid6widget4flex6Column3new17heedd836087618e6aE
00000000 l    d  .text._ZN5druid6widget5label14Label$LT$T$GT$10get_layout17he6d2bfcb03a10e6eE	00000000 .text._ZN5druid6widget5label14Label$LT$T$GT$10get_layout17he6d2bfcb03a10e6eE
00000000 l    d  .text._ZN5druid6widget5label14Label$LT$T$GT$3new17h62cdb1d8498f524dE	00000000 .text._ZN5druid6widget5label14Label$LT$T$GT$3new17h62cdb1d8498f524dE
00000000 l    d  .text._ZN5druid6widget5label14Label$LT$T$GT$7aligned17hcef61efd31e9d224E	00000000 .text._ZN5druid6widget5label14Label$LT$T$GT$7aligned17hcef61efd31e9d224E
00000000 l    d  .text._ZN5druid6widget5label18LabelText$LT$T$GT$12display_text17ha4b0e965c00acfdeE	00000000 .text._ZN5druid6widget5label18LabelText$LT$T$GT$12display_text17ha4b0e965c00acfdeE
00000000 l    d  .text._ZN5druid6widget6button15Button$LT$T$GT$3new17hafa2d8e7779b7ca8E	00000000 .text._ZN5druid6widget6button15Button$LT$T$GT$3new17hafa2d8e7779b7ca8E
00000000 l    d  .text._ZN5druid6widget9widgetbox18WidgetBox$LT$D$GT$3new17heb7f9c4d1268c6aaE	00000000 .text._ZN5druid6widget9widgetbox18WidgetBox$LT$D$GT$3new17heb7f9c4d1268c6aaE
00000000 l    d  .text._ZN5druid6window19Window$LT$T$C$W$GT$3new17hf7d7b8d59899146bE	00000000 .text._ZN5druid6window19Window$LT$T$C$W$GT$3new17hf7d7b8d59899146bE
00000000 l    d  .text._ZN5druid6window19Window$LT$T$C$W$GT$5paint17h13a297898b1a2b20E	00000000 .text._ZN5druid6window19Window$LT$T$C$W$GT$5paint17h13a297898b1a2b20E
00000000 l    d  .text._ZN5druid6window19Window$LT$T$C$W$GT$6layout17he31f1a560fa58a43E	00000000 .text._ZN5druid6window19Window$LT$T$C$W$GT$6layout17he31f1a560fa58a43E
00000000 l    d  .text._ZN5druid8PaintCtx14with_child_ctx17h2046ff1dfce20444E	00000000 .text._ZN5druid8PaintCtx14with_child_ctx17h2046ff1dfce20444E
00000000 l    d  .text._ZN5druid8PaintCtx14with_child_ctx17he257ff298816f675E	00000000 .text._ZN5druid8PaintCtx14with_child_ctx17he257ff298816f675E
00000000 l    d  .text._ZN5druid9windowbox18WindowBox$LT$D$GT$5paint17h20933d02fe19fc93E	00000000 .text._ZN5druid9windowbox18WindowBox$LT$D$GT$5paint17h20933d02fe19fc93E
00000000 l    d  .text._ZN5druid9windowbox18WindowBox$LT$D$GT$6layout17h3e1bb48e02444a18E	00000000 .text._ZN5druid9windowbox18WindowBox$LT$D$GT$6layout17h3e1bb48e02444a18E
00000000 l    d  .text._ZN5kurbo4rect4Rect16from_origin_size17hd1df0195bb515251E	00000000 .text._ZN5kurbo4rect4Rect16from_origin_size17hd1df0195bb515251E
00000000 l    d  .text._ZN5kurbo4rect4Rect4size17h4499126d71cec979E	00000000 .text._ZN5kurbo4rect4Rect4size17h4499126d71cec979E
00000000 l    d  .text._ZN5kurbo4rect4Rect5width17hf30f34ce82591df7E	00000000 .text._ZN5kurbo4rect4Rect5width17hf30f34ce82591df7E
00000000 l    d  .text._ZN5kurbo4rect4Rect6height17h0d3b3e567dbe6d86E	00000000 .text._ZN5kurbo4rect4Rect6height17h0d3b3e567dbe6d86E
00000000 l    d  .text._ZN63_$LT$I$u20$as$u20$core..iter..traits..collect..IntoIterator$GT$9into_iter17hb1021b4f795be03eE	00000000 .text._ZN63_$LT$I$u20$as$u20$core..iter..traits..collect..IntoIterator$GT$9into_iter17hb1021b4f795be03eE
00000000 l    d  .text._ZN68_$LT$core..option..Option$LT$T$GT$$u20$as$u20$core..clone..Clone$GT$5clone17h1461aaf17a7d8a3dE	00000000 .text._ZN68_$LT$core..option..Option$LT$T$GT$$u20$as$u20$core..clone..Clone$GT$5clone17h1461aaf17a7d8a3dE
00000000 l    d  .text._ZN68_$LT$core..option..Option$LT$T$GT$$u20$as$u20$core..clone..Clone$GT$5clone17h49a548aec7bb2c09E	00000000 .text._ZN68_$LT$core..option..Option$LT$T$GT$$u20$as$u20$core..clone..Clone$GT$5clone17h49a548aec7bb2c09E
00000000 l    d  .text._ZN70_$LT$heapless..string..String$LT$N$GT$$u20$as$u20$core..fmt..Write$GT$10write_char17ha1a224a159d1ea80E	00000000 .text._ZN70_$LT$heapless..string..String$LT$N$GT$$u20$as$u20$core..fmt..Write$GT$10write_char17ha1a224a159d1ea80E
00000000 l    d  .text._ZN70_$LT$heapless..string..String$LT$N$GT$$u20$as$u20$core..fmt..Write$GT$9write_str17hce754f37aee83c9aE	00000000 .text._ZN70_$LT$heapless..string..String$LT$N$GT$$u20$as$u20$core..fmt..Write$GT$9write_str17hce754f37aee83c9aE
00000000 l    d  .text._ZN70_$LT$heapless..vec..Vec$LT$T$C$N$GT$$u20$as$u20$core..clone..Clone$GT$5clone17h2f4c22b1dabfeb3cE	00000000 .text._ZN70_$LT$heapless..vec..Vec$LT$T$C$N$GT$$u20$as$u20$core..clone..Clone$GT$5clone17h2f4c22b1dabfeb3cE
00000000 l    d  .text._ZN70_$LT$heapless..vec..Vec$LT$T$C$N$GT$$u20$as$u20$core..clone..Clone$GT$5clone17he292310c4617be80E	00000000 .text._ZN70_$LT$heapless..vec..Vec$LT$T$C$N$GT$$u20$as$u20$core..clone..Clone$GT$5clone17he292310c4617be80E
00000000 l    d  .text._ZN72_$LT$druid..app..WindowDesc$LT$T$C$W$GT$$u20$as$u20$core..fmt..Debug$GT$3fmt17hc37e21074add1a7cE	00000000 .text._ZN72_$LT$druid..app..WindowDesc$LT$T$C$W$GT$$u20$as$u20$core..fmt..Debug$GT$3fmt17hc37e21074add1a7cE
00000000 l    d  .text._ZN72_$LT$heapless..string..String$LT$N$GT$$u20$as$u20$core..clone..Clone$GT$5clone17h4336b8396010dc57E	00000000 .text._ZN72_$LT$heapless..string..String$LT$N$GT$$u20$as$u20$core..clone..Clone$GT$5clone17h4336b8396010dc57E
00000000 l    d  .text._ZN73_$LT$core..marker..PhantomData$LT$T$GT$$u20$as$u20$core..clone..Clone$GT$5clone17h7c38b97043cee8adE	00000000 .text._ZN73_$LT$core..marker..PhantomData$LT$T$GT$$u20$as$u20$core..clone..Clone$GT$5clone17h7c38b97043cee8adE
00000000 l    d  .text._ZN73_$LT$heapless..vec..Vec$LT$T$C$N$GT$$u20$as$u20$core..ops..drop..Drop$GT$4drop17h626c12c2e1de9f37E	00000000 .text._ZN73_$LT$heapless..vec..Vec$LT$T$C$N$GT$$u20$as$u20$core..ops..drop..Drop$GT$4drop17h626c12c2e1de9f37E
00000000 l    d  .text._ZN75_$LT$heapless..vec..Vec$LT$T$C$N$GT$$u20$as$u20$core..ops..deref..Deref$GT$5deref17h6e6b692c0b67cfdaE	00000000 .text._ZN75_$LT$heapless..vec..Vec$LT$T$C$N$GT$$u20$as$u20$core..ops..deref..Deref$GT$5deref17h6e6b692c0b67cfdaE
00000000 l    d  .text._ZN75_$LT$heapless..vec..Vec$LT$T$C$N$GT$$u20$as$u20$core..ops..deref..Deref$GT$5deref17hd446ae5c01d9c88cE	00000000 .text._ZN75_$LT$heapless..vec..Vec$LT$T$C$N$GT$$u20$as$u20$core..ops..deref..Deref$GT$5deref17hd446ae5c01d9c88cE
00000000 l    d  .text._ZN76_$LT$druid..localization..ArgSource$LT$T$GT$$u20$as$u20$core..fmt..Debug$GT$3fmt17h8acdd459e0015266E	00000000 .text._ZN76_$LT$druid..localization..ArgSource$LT$T$GT$$u20$as$u20$core..fmt..Debug$GT$3fmt17h8acdd459e0015266E
00000000 l    d  .text._ZN77_$LT$druid..widget..flex..Flex$LT$T$GT$$u20$as$u20$druid..Widget$LT$T$GT$$GT$10new_window17h108acb148ae9f529E	00000000 .text._ZN77_$LT$druid..widget..flex..Flex$LT$T$GT$$u20$as$u20$druid..Widget$LT$T$GT$$GT$10new_window17h108acb148ae9f529E
00000000 l    d  .text._ZN77_$LT$druid..widget..flex..Flex$LT$T$GT$$u20$as$u20$druid..Widget$LT$T$GT$$GT$5paint17h66b3cd5a9a592d37E	00000000 .text._ZN77_$LT$druid..widget..flex..Flex$LT$T$GT$$u20$as$u20$druid..Widget$LT$T$GT$$GT$5paint17h66b3cd5a9a592d37E
00000000 l    d  .text._ZN77_$LT$druid..widget..flex..Flex$LT$T$GT$$u20$as$u20$druid..Widget$LT$T$GT$$GT$6layout17hbbca014b1d75272aE	00000000 .text._ZN77_$LT$druid..widget..flex..Flex$LT$T$GT$$u20$as$u20$druid..Widget$LT$T$GT$$GT$6layout17hbbca014b1d75272aE
00000000 l    d  .text._ZN78_$LT$druid..widget..flex..ChildWidget$LT$T$GT$$u20$as$u20$core..fmt..Debug$GT$3fmt17h1d700328e80ae2edE	00000000 .text._ZN78_$LT$druid..widget..flex..ChildWidget$LT$T$GT$$u20$as$u20$core..fmt..Debug$GT$3fmt17h1d700328e80ae2edE
00000000 l    d  .text._ZN78_$LT$heapless..vec..IntoIter$LT$T$C$N$GT$$u20$as$u20$core..ops..drop..Drop$GT$4drop17h43ac5427cb77f636E	00000000 .text._ZN78_$LT$heapless..vec..IntoIter$LT$T$C$N$GT$$u20$as$u20$core..ops..drop..Drop$GT$4drop17h43ac5427cb77f636E
00000000 l    d  .text._ZN78_$LT$heapless..vec..Vec$LT$T$C$N$GT$$u20$as$u20$core..ops..deref..DerefMut$GT$9deref_mut17h34dd722b021d70a8E	00000000 .text._ZN78_$LT$heapless..vec..Vec$LT$T$C$N$GT$$u20$as$u20$core..ops..deref..DerefMut$GT$9deref_mut17h34dd722b021d70a8E
00000000 l    d  .text._ZN79_$LT$druid..widget..label..Label$LT$T$GT$$u20$as$u20$druid..Widget$LT$T$GT$$GT$5paint17h28f1149fd6235dbcE	00000000 .text._ZN79_$LT$druid..widget..label..Label$LT$T$GT$$u20$as$u20$druid..Widget$LT$T$GT$$GT$5paint17h28f1149fd6235dbcE
00000000 l    d  .text._ZN79_$LT$druid..widget..label..Label$LT$T$GT$$u20$as$u20$druid..Widget$LT$T$GT$$GT$6get_id17hddd8588b8fab593bE	00000000 .text._ZN79_$LT$druid..widget..label..Label$LT$T$GT$$u20$as$u20$druid..Widget$LT$T$GT$$GT$6get_id17hddd8588b8fab593bE
00000000 l    d  .text._ZN79_$LT$druid..widget..label..Label$LT$T$GT$$u20$as$u20$druid..Widget$LT$T$GT$$GT$6layout17h6668ee6bf2b888b3E	00000000 .text._ZN79_$LT$druid..widget..label..Label$LT$T$GT$$u20$as$u20$druid..Widget$LT$T$GT$$GT$6layout17h6668ee6bf2b888b3E
00000000 l    d  .text._ZN79_$LT$druid..widget..label..Label$LT$T$GT$$u20$as$u20$druid..Widget$LT$T$GT$$GT$7to_type17h47d644b7af5bccb3E	00000000 .text._ZN79_$LT$druid..widget..label..Label$LT$T$GT$$u20$as$u20$druid..Widget$LT$T$GT$$GT$7to_type17h47d644b7af5bccb3E
00000000 l    d  .text._ZN79_$LT$druid..win_handler..Windows$LT$T$GT$$u20$as$u20$core..default..Default$GT$7default17h0aa0e645e40f75fdE	00000000 .text._ZN79_$LT$druid..win_handler..Windows$LT$T$GT$$u20$as$u20$core..default..Default$GT$7default17h0aa0e645e40f75fdE
00000000 l    d  .text._ZN79_$LT$piet..color..Color$u20$as$u20$piet..render_context..IntoBrush$LT$P$GT$$GT$10make_brush17h0798e6d81abd5c56E	00000000 .text._ZN79_$LT$piet..color..Color$u20$as$u20$piet..render_context..IntoBrush$LT$P$GT$$GT$10make_brush17h0798e6d81abd5c56E
00000000 l    d  .text._ZN79_$LT$piet..color..Color$u20$as$u20$piet..render_context..IntoBrush$LT$P$GT$$GT$10make_brush17h52bbfb3e034ce340E	00000000 .text._ZN79_$LT$piet..color..Color$u20$as$u20$piet..render_context..IntoBrush$LT$P$GT$$GT$10make_brush17h52bbfb3e034ce340E
00000000 l    d  .text._ZN79_$LT$piet..color..Color$u20$as$u20$piet..render_context..IntoBrush$LT$P$GT$$GT$10make_brush17h8ad706cafce2b625E	00000000 .text._ZN79_$LT$piet..color..Color$u20$as$u20$piet..render_context..IntoBrush$LT$P$GT$$GT$10make_brush17h8ad706cafce2b625E
00000000 l    d  .text._ZN81_$LT$druid..widget..button..Button$LT$T$GT$$u20$as$u20$druid..Widget$LT$T$GT$$GT$5paint17he676e4a4ca621cf1E	00000000 .text._ZN81_$LT$druid..widget..button..Button$LT$T$GT$$u20$as$u20$druid..Widget$LT$T$GT$$GT$5paint17he676e4a4ca621cf1E
00000000 l    d  .text._ZN81_$LT$druid..widget..button..Button$LT$T$GT$$u20$as$u20$druid..Widget$LT$T$GT$$GT$6layout17h23fa154eef003d31E	00000000 .text._ZN81_$LT$druid..widget..button..Button$LT$T$GT$$u20$as$u20$druid..Widget$LT$T$GT$$GT$6layout17h23fa154eef003d31E
00000000 l    d  .text._ZN84_$LT$heapless..string..String$LT$N$GT$$u20$as$u20$core..convert..From$LT$u32$GT$$GT$4from17h705661ace971056dE	00000000 .text._ZN84_$LT$heapless..string..String$LT$N$GT$$u20$as$u20$core..convert..From$LT$u32$GT$$GT$4from17h705661ace971056dE
00000000 l    d  .text._ZN86_$LT$kurbo..point..Point$u20$as$u20$core..ops..arith..Add$LT$kurbo..vec2..Vec2$GT$$GT$3add17ha4fffca49caa2c0aE	00000000 .text._ZN86_$LT$kurbo..point..Point$u20$as$u20$core..ops..arith..Add$LT$kurbo..vec2..Vec2$GT$$GT$3add17ha4fffca49caa2c0aE
00000000 l    d  .text._ZN87_$LT$druid..widget..widgetbox..WidgetBox$LT$D$GT$$u20$as$u20$druid..Widget$LT$D$GT$$GT$5paint17h7c77e7539b625734E	00000000 .text._ZN87_$LT$druid..widget..widgetbox..WidgetBox$LT$D$GT$$u20$as$u20$druid..Widget$LT$D$GT$$GT$5paint17h7c77e7539b625734E
00000000 l    d  .text._ZN87_$LT$druid..widget..widgetbox..WidgetBox$LT$D$GT$$u20$as$u20$druid..Widget$LT$D$GT$$GT$6layout17h75f4133fa8eda883E	00000000 .text._ZN87_$LT$druid..widget..widgetbox..WidgetBox$LT$D$GT$$u20$as$u20$druid..Widget$LT$D$GT$$GT$6layout17h75f4133fa8eda883E
00000000 l    d  .text._ZN8heapless3vec16Vec$LT$T$C$N$GT$3new17h70be266e91cab5a9E	00000000 .text._ZN8heapless3vec16Vec$LT$T$C$N$GT$3new17h70be266e91cab5a9E
00000000 l    d  .text._ZN8heapless3vec16Vec$LT$T$C$N$GT$3new17h7e68e35b6e053c46E	00000000 .text._ZN8heapless3vec16Vec$LT$T$C$N$GT$3new17h7e68e35b6e053c46E
00000000 l    d  .text._ZN8heapless3vec16Vec$LT$T$C$N$GT$3new17h96547738abdb4f4fE	00000000 .text._ZN8heapless3vec16Vec$LT$T$C$N$GT$3new17h96547738abdb4f4fE
00000000 l    d  .text._ZN8heapless3vec16Vec$LT$T$C$N$GT$4push17h073f1e9f956e4558E	00000000 .text._ZN8heapless3vec16Vec$LT$T$C$N$GT$4push17h073f1e9f956e4558E
00000000 l    d  .text._ZN8heapless3vec16Vec$LT$T$C$N$GT$4push17h35fc21874e03b06aE	00000000 .text._ZN8heapless3vec16Vec$LT$T$C$N$GT$4push17h35fc21874e03b06aE
00000000 l    d  .text._ZN8heapless3vec16Vec$LT$T$C$N$GT$4push17h44ad27314ae0760eE	00000000 .text._ZN8heapless3vec16Vec$LT$T$C$N$GT$4push17h44ad27314ae0760eE
00000000 l    d  .text._ZN8heapless3vec43_$LT$impl$u20$heapless..i..Vec$LT$A$GT$$GT$3new17h43117aa5b5eaefffE	00000000 .text._ZN8heapless3vec43_$LT$impl$u20$heapless..i..Vec$LT$A$GT$$GT$3new17h43117aa5b5eaefffE
00000000 l    d  .text._ZN8heapless3vec43_$LT$impl$u20$heapless..i..Vec$LT$A$GT$$GT$3new17h68307bf614855794E	00000000 .text._ZN8heapless3vec43_$LT$impl$u20$heapless..i..Vec$LT$A$GT$$GT$3new17h68307bf614855794E
00000000 l    d  .text._ZN8heapless3vec43_$LT$impl$u20$heapless..i..Vec$LT$A$GT$$GT$3new17hc0244dedd83cd7eaE	00000000 .text._ZN8heapless3vec43_$LT$impl$u20$heapless..i..Vec$LT$A$GT$$GT$3new17hc0244dedd83cd7eaE
00000000 l    d  .text._ZN8heapless3vec82_$LT$impl$u20$heapless..i..Vec$LT$generic_array..GenericArray$LT$T$C$N$GT$$GT$$GT$12as_mut_slice17he418a0cb67ddf181E	00000000 .text._ZN8heapless3vec82_$LT$impl$u20$heapless..i..Vec$LT$generic_array..GenericArray$LT$T$C$N$GT$$GT$$GT$12as_mut_slice17he418a0cb67ddf181E
00000000 l    d  .text._ZN8heapless3vec82_$LT$impl$u20$heapless..i..Vec$LT$generic_array..GenericArray$LT$T$C$N$GT$$GT$$GT$14push_unchecked17h06d1b54dc6348413E	00000000 .text._ZN8heapless3vec82_$LT$impl$u20$heapless..i..Vec$LT$generic_array..GenericArray$LT$T$C$N$GT$$GT$$GT$14push_unchecked17h06d1b54dc6348413E
00000000 l    d  .text._ZN8heapless3vec82_$LT$impl$u20$heapless..i..Vec$LT$generic_array..GenericArray$LT$T$C$N$GT$$GT$$GT$14push_unchecked17h8cdac320fab79a8aE	00000000 .text._ZN8heapless3vec82_$LT$impl$u20$heapless..i..Vec$LT$generic_array..GenericArray$LT$T$C$N$GT$$GT$$GT$14push_unchecked17h8cdac320fab79a8aE
00000000 l    d  .text._ZN8heapless3vec82_$LT$impl$u20$heapless..i..Vec$LT$generic_array..GenericArray$LT$T$C$N$GT$$GT$$GT$14push_unchecked17hc5a4f5cb90ccf251E	00000000 .text._ZN8heapless3vec82_$LT$impl$u20$heapless..i..Vec$LT$generic_array..GenericArray$LT$T$C$N$GT$$GT$$GT$14push_unchecked17hc5a4f5cb90ccf251E
00000000 l    d  .text._ZN8heapless3vec82_$LT$impl$u20$heapless..i..Vec$LT$generic_array..GenericArray$LT$T$C$N$GT$$GT$$GT$17extend_from_slice17hc77b7f8a25a25a66E	00000000 .text._ZN8heapless3vec82_$LT$impl$u20$heapless..i..Vec$LT$generic_array..GenericArray$LT$T$C$N$GT$$GT$$GT$17extend_from_slice17hc77b7f8a25a25a66E
00000000 l    d  .text._ZN8heapless3vec82_$LT$impl$u20$heapless..i..Vec$LT$generic_array..GenericArray$LT$T$C$N$GT$$GT$$GT$17extend_from_slice17hff368e2a30d1cee6E	00000000 .text._ZN8heapless3vec82_$LT$impl$u20$heapless..i..Vec$LT$generic_array..GenericArray$LT$T$C$N$GT$$GT$$GT$17extend_from_slice17hff368e2a30d1cee6E
00000000 l    d  .text._ZN8heapless3vec82_$LT$impl$u20$heapless..i..Vec$LT$generic_array..GenericArray$LT$T$C$N$GT$$GT$$GT$4push17h3c7e0f33cf24bfcdE	00000000 .text._ZN8heapless3vec82_$LT$impl$u20$heapless..i..Vec$LT$generic_array..GenericArray$LT$T$C$N$GT$$GT$$GT$4push17h3c7e0f33cf24bfcdE
00000000 l    d  .text._ZN8heapless3vec82_$LT$impl$u20$heapless..i..Vec$LT$generic_array..GenericArray$LT$T$C$N$GT$$GT$$GT$4push17h40447eacb31b5d87E	00000000 .text._ZN8heapless3vec82_$LT$impl$u20$heapless..i..Vec$LT$generic_array..GenericArray$LT$T$C$N$GT$$GT$$GT$4push17h40447eacb31b5d87E
00000000 l    d  .text._ZN8heapless3vec82_$LT$impl$u20$heapless..i..Vec$LT$generic_array..GenericArray$LT$T$C$N$GT$$GT$$GT$4push17hbe0b705e0e70b27cE	00000000 .text._ZN8heapless3vec82_$LT$impl$u20$heapless..i..Vec$LT$generic_array..GenericArray$LT$T$C$N$GT$$GT$$GT$4push17hbe0b705e0e70b27cE
00000000 l    d  .text._ZN8heapless3vec82_$LT$impl$u20$heapless..i..Vec$LT$generic_array..GenericArray$LT$T$C$N$GT$$GT$$GT$4push17hcb5ca1b144bc970eE	00000000 .text._ZN8heapless3vec82_$LT$impl$u20$heapless..i..Vec$LT$generic_array..GenericArray$LT$T$C$N$GT$$GT$$GT$4push17hcb5ca1b144bc970eE
00000000 l    d  .text._ZN8heapless3vec82_$LT$impl$u20$heapless..i..Vec$LT$generic_array..GenericArray$LT$T$C$N$GT$$GT$$GT$5clone17h142295f4a8a600ecE	00000000 .text._ZN8heapless3vec82_$LT$impl$u20$heapless..i..Vec$LT$generic_array..GenericArray$LT$T$C$N$GT$$GT$$GT$5clone17h142295f4a8a600ecE
00000000 l    d  .text._ZN8heapless3vec82_$LT$impl$u20$heapless..i..Vec$LT$generic_array..GenericArray$LT$T$C$N$GT$$GT$$GT$5clone17h2c893a19450f56ccE	00000000 .text._ZN8heapless3vec82_$LT$impl$u20$heapless..i..Vec$LT$generic_array..GenericArray$LT$T$C$N$GT$$GT$$GT$5clone17h2c893a19450f56ccE
00000000 l    d  .text._ZN8heapless3vec82_$LT$impl$u20$heapless..i..Vec$LT$generic_array..GenericArray$LT$T$C$N$GT$$GT$$GT$5clone17h2ea2522287257ea1E	00000000 .text._ZN8heapless3vec82_$LT$impl$u20$heapless..i..Vec$LT$generic_array..GenericArray$LT$T$C$N$GT$$GT$$GT$5clone17h2ea2522287257ea1E
00000000 l    d  .text._ZN8heapless3vec82_$LT$impl$u20$heapless..i..Vec$LT$generic_array..GenericArray$LT$T$C$N$GT$$GT$$GT$8as_slice17h3a41d83500fb4118E	00000000 .text._ZN8heapless3vec82_$LT$impl$u20$heapless..i..Vec$LT$generic_array..GenericArray$LT$T$C$N$GT$$GT$$GT$8as_slice17h3a41d83500fb4118E
00000000 l    d  .text._ZN8heapless3vec82_$LT$impl$u20$heapless..i..Vec$LT$generic_array..GenericArray$LT$T$C$N$GT$$GT$$GT$8as_slice17h7b92b1e8fee4afe2E	00000000 .text._ZN8heapless3vec82_$LT$impl$u20$heapless..i..Vec$LT$generic_array..GenericArray$LT$T$C$N$GT$$GT$$GT$8as_slice17h7b92b1e8fee4afe2E
00000000 l    d  .text._ZN8heapless3vec82_$LT$impl$u20$heapless..i..Vec$LT$generic_array..GenericArray$LT$T$C$N$GT$$GT$$GT$8as_slice17he57974370e0ec6c6E	00000000 .text._ZN8heapless3vec82_$LT$impl$u20$heapless..i..Vec$LT$generic_array..GenericArray$LT$T$C$N$GT$$GT$$GT$8as_slice17he57974370e0ec6c6E
00000000 l    d  .text._ZN8heapless3vec82_$LT$impl$u20$heapless..i..Vec$LT$generic_array..GenericArray$LT$T$C$N$GT$$GT$$GT$8capacity17h2b06b85689482f7fE	00000000 .text._ZN8heapless3vec82_$LT$impl$u20$heapless..i..Vec$LT$generic_array..GenericArray$LT$T$C$N$GT$$GT$$GT$8capacity17h2b06b85689482f7fE
00000000 l    d  .text._ZN8heapless3vec82_$LT$impl$u20$heapless..i..Vec$LT$generic_array..GenericArray$LT$T$C$N$GT$$GT$$GT$8capacity17haf35531c528a0eafE	00000000 .text._ZN8heapless3vec82_$LT$impl$u20$heapless..i..Vec$LT$generic_array..GenericArray$LT$T$C$N$GT$$GT$$GT$8capacity17haf35531c528a0eafE
00000000 l    d  .text._ZN8heapless3vec82_$LT$impl$u20$heapless..i..Vec$LT$generic_array..GenericArray$LT$T$C$N$GT$$GT$$GT$8capacity17hd58769a41454fce1E	00000000 .text._ZN8heapless3vec82_$LT$impl$u20$heapless..i..Vec$LT$generic_array..GenericArray$LT$T$C$N$GT$$GT$$GT$8capacity17hd58769a41454fce1E
00000000 l    d  .text._ZN93_$LT$druid..win_handler..DruidHandler$LT$T$GT$$u20$as$u20$druid_shell..window..WinHandler$GT$5paint17ha518f7a42c3d8711E	00000000 .text._ZN93_$LT$druid..win_handler..DruidHandler$LT$T$GT$$u20$as$u20$druid_shell..window..WinHandler$GT$5paint17ha518f7a42c3d8711E
00000000 l    d  .text._ZN93_$LT$heapless..vec..Vec$LT$T$C$N$GT$$u20$as$u20$core..iter..traits..collect..IntoIterator$GT$9into_iter17hee8926cd20b4fbfbE	00000000 .text._ZN93_$LT$heapless..vec..Vec$LT$T$C$N$GT$$u20$as$u20$core..iter..traits..collect..IntoIterator$GT$9into_iter17hee8926cd20b4fbfbE
00000000 l    d  .text._ZN95_$LT$druid..widget..label..LabelText$LT$T$GT$$u20$as$u20$core..convert..From$LT$$RF$str$GT$$GT$4from17hd7142237419afc4fE	00000000 .text._ZN95_$LT$druid..widget..label..LabelText$LT$T$GT$$u20$as$u20$core..convert..From$LT$$RF$str$GT$$GT$4from17hd7142237419afc4fE
00000000 l    d  .text._ZN95_$LT$heapless..vec..IntoIter$LT$T$C$N$GT$$u20$as$u20$core..iter..traits..iterator..Iterator$GT$4next17hb897ae2a8c76f5bcE	00000000 .text._ZN95_$LT$heapless..vec..IntoIter$LT$T$C$N$GT$$u20$as$u20$core..iter..traits..iterator..Iterator$GT$4next17hb897ae2a8c76f5bcE
00000000 l    d  .text._ZN97_$LT$core..iter..adapters..Map$LT$I$C$F$GT$$u20$as$u20$core..iter..traits..iterator..Iterator$GT$4fold17hbd3dc5733aeae539E	00000000 .text._ZN97_$LT$core..iter..adapters..Map$LT$I$C$F$GT$$u20$as$u20$core..iter..traits..iterator..Iterator$GT$4fold17hbd3dc5733aeae539E
00000000 l    d  .text._ZN3app11app_network21aggregate_sensor_data17h9ee79c2b33ea7248E	00000000 .text._ZN3app11app_network21aggregate_sensor_data17h9ee79c2b33ea7248E
00000000 l    d  .text._ZN3app12touch_sensor23touch_interrupt_handler17h8ab5f25d51710e90E	00000000 .text._ZN3app12touch_sensor23touch_interrupt_handler17h8ab5f25d51710e90E
00000000 l    d  .text._ZN3app12touch_sensor20touch_event_callback17h6c25c08948192f4fE	00000000 .text._ZN3app12touch_sensor20touch_event_callback17h6c25c08948192f4fE
00000000 l    d  .text._ZN3app5hello10ui_builder17hcdb181e2a2155df9E	00000000 .text._ZN3app5hello10ui_builder17hcdb181e2a2155df9E
00000000 l    d  .text.main	00000000 .text.main
00000000 l    d  .text.rust_begin_unwind	00000000 .text.rust_begin_unwind
00000000 l    d  .rodata..Lanon.198329b7968f6971950ed35b54bc5eea.0	00000000 .rodata..Lanon.198329b7968f6971950ed35b54bc5eea.0
00000000 l    d  .rodata..Lanon.198329b7968f6971950ed35b54bc5eea.1	00000000 .rodata..Lanon.198329b7968f6971950ed35b54bc5eea.1
00000000 l    d  .rodata..Lanon.198329b7968f6971950ed35b54bc5eea.2	00000000 .rodata..Lanon.198329b7968f6971950ed35b54bc5eea.2
00000000 l    d  .rodata..Lanon.198329b7968f6971950ed35b54bc5eea.3	00000000 .rodata..Lanon.198329b7968f6971950ed35b54bc5eea.3
00000000 l    d  .rodata..Lanon.198329b7968f6971950ed35b54bc5eea.4	00000000 .rodata..Lanon.198329b7968f6971950ed35b54bc5eea.4
00000000 l    d  .rodata..Lanon.198329b7968f6971950ed35b54bc5eea.5	00000000 .rodata..Lanon.198329b7968f6971950ed35b54bc5eea.5
00000000 l    d  .rodata..Lanon.198329b7968f6971950ed35b54bc5eea.6	00000000 .rodata..Lanon.198329b7968f6971950ed35b54bc5eea.6
00000000 l    d  .rodata..Lanon.198329b7968f6971950ed35b54bc5eea.7	00000000 .rodata..Lanon.198329b7968f6971950ed35b54bc5eea.7
00000000 l    d  .rodata..Lanon.198329b7968f6971950ed35b54bc5eea.8	00000000 .rodata..Lanon.198329b7968f6971950ed35b54bc5eea.8
00000000 l    d  .rodata..Lanon.198329b7968f6971950ed35b54bc5eea.9	00000000 .rodata..Lanon.198329b7968f6971950ed35b54bc5eea.9
00000000 l    d  .rodata..Lanon.198329b7968f6971950ed35b54bc5eea.10	00000000 .rodata..Lanon.198329b7968f6971950ed35b54bc5eea.10
00000000 l    d  .rodata..Lanon.198329b7968f6971950ed35b54bc5eea.11	00000000 .rodata..Lanon.198329b7968f6971950ed35b54bc5eea.11
00000000 l    d  .rodata..Lanon.198329b7968f6971950ed35b54bc5eea.12	00000000 .rodata..Lanon.198329b7968f6971950ed35b54bc5eea.12
00000000 l    d  .rodata..Lanon.198329b7968f6971950ed35b54bc5eea.13	00000000 .rodata..Lanon.198329b7968f6971950ed35b54bc5eea.13
00000000 l    d  .rodata..Lanon.198329b7968f6971950ed35b54bc5eea.14	00000000 .rodata..Lanon.198329b7968f6971950ed35b54bc5eea.14
00000000 l    d  .rodata..Lanon.198329b7968f6971950ed35b54bc5eea.15	00000000 .rodata..Lanon.198329b7968f6971950ed35b54bc5eea.15
00000000 l    d  .rodata..Lanon.198329b7968f6971950ed35b54bc5eea.16	00000000 .rodata..Lanon.198329b7968f6971950ed35b54bc5eea.16
00000000 l    d  .rodata..Lanon.198329b7968f6971950ed35b54bc5eea.17	00000000 .rodata..Lanon.198329b7968f6971950ed35b54bc5eea.17
00000000 l    d  .rodata..Lanon.198329b7968f6971950ed35b54bc5eea.18	00000000 .rodata..Lanon.198329b7968f6971950ed35b54bc5eea.18
00000000 l    d  .rodata..Lanon.198329b7968f6971950ed35b54bc5eea.19	00000000 .rodata..Lanon.198329b7968f6971950ed35b54bc5eea.19
00000000 l    d  .rodata..Lanon.198329b7968f6971950ed35b54bc5eea.20	00000000 .rodata..Lanon.198329b7968f6971950ed35b54bc5eea.20
00000000 l    d  .rodata..Lanon.198329b7968f6971950ed35b54bc5eea.21	00000000 .rodata..Lanon.198329b7968f6971950ed35b54bc5eea.21
00000000 l    d  .rodata..Lanon.198329b7968f6971950ed35b54bc5eea.22	00000000 .rodata..Lanon.198329b7968f6971950ed35b54bc5eea.22
00000000 l    d  .rodata..Lanon.198329b7968f6971950ed35b54bc5eea.23	00000000 .rodata..Lanon.198329b7968f6971950ed35b54bc5eea.23
00000000 l    d  .rodata..Lanon.198329b7968f6971950ed35b54bc5eea.24	00000000 .rodata..Lanon.198329b7968f6971950ed35b54bc5eea.24
00000000 l    d  .rodata..Lanon.198329b7968f6971950ed35b54bc5eea.25	00000000 .rodata..Lanon.198329b7968f6971950ed35b54bc5eea.25
00000000 l    d  .rodata..Lanon.198329b7968f6971950ed35b54bc5eea.26	00000000 .rodata..Lanon.198329b7968f6971950ed35b54bc5eea.26
00000000 l    d  .rodata..Lanon.198329b7968f6971950ed35b54bc5eea.27	00000000 .rodata..Lanon.198329b7968f6971950ed35b54bc5eea.27
00000000 l    d  .rodata..Lanon.198329b7968f6971950ed35b54bc5eea.28	00000000 .rodata..Lanon.198329b7968f6971950ed35b54bc5eea.28
00000000 l    d  .rodata..Lanon.198329b7968f6971950ed35b54bc5eea.29	00000000 .rodata..Lanon.198329b7968f6971950ed35b54bc5eea.29
00000000 l    d  .rodata..Lanon.198329b7968f6971950ed35b54bc5eea.32	00000000 .rodata..Lanon.198329b7968f6971950ed35b54bc5eea.32
00000000 l    d  .rodata..Lanon.198329b7968f6971950ed35b54bc5eea.33	00000000 .rodata..Lanon.198329b7968f6971950ed35b54bc5eea.33
00000000 l    d  .rodata..Lanon.198329b7968f6971950ed35b54bc5eea.34	00000000 .rodata..Lanon.198329b7968f6971950ed35b54bc5eea.34
00000000 l    d  .rodata..Lanon.198329b7968f6971950ed35b54bc5eea.35	00000000 .rodata..Lanon.198329b7968f6971950ed35b54bc5eea.35
00000000 l    d  .rodata..Lanon.198329b7968f6971950ed35b54bc5eea.36	00000000 .rodata..Lanon.198329b7968f6971950ed35b54bc5eea.36
00000000 l    d  .rodata..Lanon.198329b7968f6971950ed35b54bc5eea.37	00000000 .rodata..Lanon.198329b7968f6971950ed35b54bc5eea.37
00000000 l    d  .rodata..Lanon.198329b7968f6971950ed35b54bc5eea.38	00000000 .rodata..Lanon.198329b7968f6971950ed35b54bc5eea.38
00000000 l    d  .rodata..Lanon.198329b7968f6971950ed35b54bc5eea.39	00000000 .rodata..Lanon.198329b7968f6971950ed35b54bc5eea.39
00000000 l    d  .rodata..Lanon.198329b7968f6971950ed35b54bc5eea.40	00000000 .rodata..Lanon.198329b7968f6971950ed35b54bc5eea.40
00000000 l    d  .rodata..Lanon.198329b7968f6971950ed35b54bc5eea.41	00000000 .rodata..Lanon.198329b7968f6971950ed35b54bc5eea.41
00000000 l    d  .rodata..Lanon.198329b7968f6971950ed35b54bc5eea.42	00000000 .rodata..Lanon.198329b7968f6971950ed35b54bc5eea.42
00000000 l    d  .rodata..Lanon.198329b7968f6971950ed35b54bc5eea.43	00000000 .rodata..Lanon.198329b7968f6971950ed35b54bc5eea.43
00000000 l    d  .rodata..Lanon.198329b7968f6971950ed35b54bc5eea.44	00000000 .rodata..Lanon.198329b7968f6971950ed35b54bc5eea.44
00000000 l    d  .rodata..Lanon.198329b7968f6971950ed35b54bc5eea.45	00000000 .rodata..Lanon.198329b7968f6971950ed35b54bc5eea.45
00000000 l    d  .rodata..Lanon.198329b7968f6971950ed35b54bc5eea.48	00000000 .rodata..Lanon.198329b7968f6971950ed35b54bc5eea.48
00000000 l    d  .rodata..Lanon.198329b7968f6971950ed35b54bc5eea.50	00000000 .rodata..Lanon.198329b7968f6971950ed35b54bc5eea.50
00000000 l    d  .rodata..Lanon.198329b7968f6971950ed35b54bc5eea.51	00000000 .rodata..Lanon.198329b7968f6971950ed35b54bc5eea.51
00000000 l    d  .rodata..Lanon.198329b7968f6971950ed35b54bc5eea.52	00000000 .rodata..Lanon.198329b7968f6971950ed35b54bc5eea.52
00000000 l    d  .rodata..Lanon.198329b7968f6971950ed35b54bc5eea.53	00000000 .rodata..Lanon.198329b7968f6971950ed35b54bc5eea.53
00000000 l    d  .rodata._ZN3app10app_sensor13SENSOR_DEVICE17hf94d1eee8faa6b51E	00000000 .rodata._ZN3app10app_sensor13SENSOR_DEVICE17hf94d1eee8faa6b51E
00000000 l    d  .rodata..Lanon.198329b7968f6971950ed35b54bc5eea.54	00000000 .rodata..Lanon.198329b7968f6971950ed35b54bc5eea.54
00000000 l    d  .rodata..Lanon.198329b7968f6971950ed35b54bc5eea.55	00000000 .rodata..Lanon.198329b7968f6971950ed35b54bc5eea.55
00000000 l    d  .rodata..Lanon.198329b7968f6971950ed35b54bc5eea.56	00000000 .rodata..Lanon.198329b7968f6971950ed35b54bc5eea.56
00000000 l    d  .rodata..Lanon.198329b7968f6971950ed35b54bc5eea.57	00000000 .rodata..Lanon.198329b7968f6971950ed35b54bc5eea.57
00000000 l    d  .rodata..Lanon.198329b7968f6971950ed35b54bc5eea.58	00000000 .rodata..Lanon.198329b7968f6971950ed35b54bc5eea.58
00000000 l    d  .rodata..Lanon.198329b7968f6971950ed35b54bc5eea.60	00000000 .rodata..Lanon.198329b7968f6971950ed35b54bc5eea.60
00000000 l    d  .rodata..Lanon.198329b7968f6971950ed35b54bc5eea.61	00000000 .rodata..Lanon.198329b7968f6971950ed35b54bc5eea.61
00000000 l    d  .rodata..Lanon.198329b7968f6971950ed35b54bc5eea.62	00000000 .rodata..Lanon.198329b7968f6971950ed35b54bc5eea.62
00000000 l    d  .rodata..Lanon.198329b7968f6971950ed35b54bc5eea.63	00000000 .rodata..Lanon.198329b7968f6971950ed35b54bc5eea.63
00000000 l    d  .rodata..Lanon.198329b7968f6971950ed35b54bc5eea.64	00000000 .rodata..Lanon.198329b7968f6971950ed35b54bc5eea.64
00000000 l    d  .rodata..Lanon.198329b7968f6971950ed35b54bc5eea.65	00000000 .rodata..Lanon.198329b7968f6971950ed35b54bc5eea.65
00000000 l    d  .rodata..Lanon.198329b7968f6971950ed35b54bc5eea.66	00000000 .rodata..Lanon.198329b7968f6971950ed35b54bc5eea.66
00000000 l    d  .rodata..Lanon.198329b7968f6971950ed35b54bc5eea.67	00000000 .rodata..Lanon.198329b7968f6971950ed35b54bc5eea.67
00000000 l    d  .rodata..Lanon.198329b7968f6971950ed35b54bc5eea.69	00000000 .rodata..Lanon.198329b7968f6971950ed35b54bc5eea.69
00000000 l    d  .bss._ZN3app12touch_sensor10TOUCH_DATA17hbf06035db5bfe863E	00000000 .bss._ZN3app12touch_sensor10TOUCH_DATA17hbf06035db5bfe863E
00000000 l    d  .rodata..Lanon.198329b7968f6971950ed35b54bc5eea.70	00000000 .rodata..Lanon.198329b7968f6971950ed35b54bc5eea.70
00000000 l    d  .rodata..Lanon.198329b7968f6971950ed35b54bc5eea.71	00000000 .rodata..Lanon.198329b7968f6971950ed35b54bc5eea.71
00000000 l    d  .rodata..Lanon.198329b7968f6971950ed35b54bc5eea.72	00000000 .rodata..Lanon.198329b7968f6971950ed35b54bc5eea.72
00000000 l    d  .rodata..Lanon.198329b7968f6971950ed35b54bc5eea.73	00000000 .rodata..Lanon.198329b7968f6971950ed35b54bc5eea.73
00000000 l    d  .rodata..Lanon.198329b7968f6971950ed35b54bc5eea.74	00000000 .rodata..Lanon.198329b7968f6971950ed35b54bc5eea.74
00000000 l    d  .rodata..Lanon.198329b7968f6971950ed35b54bc5eea.75	00000000 .rodata..Lanon.198329b7968f6971950ed35b54bc5eea.75
00000000 l    d  .bss._ZN3app12touch_sensor11TOUCH_EVENT17h9d3b26e52eb58479E	00000000 .bss._ZN3app12touch_sensor11TOUCH_EVENT17h9d3b26e52eb58479E
00000000 l    d  .rodata..Lanon.198329b7968f6971950ed35b54bc5eea.77	00000000 .rodata..Lanon.198329b7968f6971950ed35b54bc5eea.77
00000000 l    d  .rodata..Lanon.198329b7968f6971950ed35b54bc5eea.78	00000000 .rodata..Lanon.198329b7968f6971950ed35b54bc5eea.78
00000000 l    d  .rodata..Lanon.198329b7968f6971950ed35b54bc5eea.79	00000000 .rodata..Lanon.198329b7968f6971950ed35b54bc5eea.79
00000000 l    d  .rodata..Lanon.198329b7968f6971950ed35b54bc5eea.80	00000000 .rodata..Lanon.198329b7968f6971950ed35b54bc5eea.80
00000000 l    d  .rodata..Lanon.198329b7968f6971950ed35b54bc5eea.81	00000000 .rodata..Lanon.198329b7968f6971950ed35b54bc5eea.81
00000000 l    d  .rodata..Lanon.198329b7968f6971950ed35b54bc5eea.84	00000000 .rodata..Lanon.198329b7968f6971950ed35b54bc5eea.84
00000000 l    d  .rodata..Lanon.198329b7968f6971950ed35b54bc5eea.85	00000000 .rodata..Lanon.198329b7968f6971950ed35b54bc5eea.85
00000000 l    d  .rodata..Lanon.198329b7968f6971950ed35b54bc5eea.89	00000000 .rodata..Lanon.198329b7968f6971950ed35b54bc5eea.89
00000000 l    d  .rodata..Lanon.198329b7968f6971950ed35b54bc5eea.90	00000000 .rodata..Lanon.198329b7968f6971950ed35b54bc5eea.90
00000000 l    d  .rodata..Lanon.198329b7968f6971950ed35b54bc5eea.91	00000000 .rodata..Lanon.198329b7968f6971950ed35b54bc5eea.91
00000000 l    d  .rodata..Lanon.198329b7968f6971950ed35b54bc5eea.92	00000000 .rodata..Lanon.198329b7968f6971950ed35b54bc5eea.92
00000000 l    d  .bss..L_MergedGlobals	00000000 .bss..L_MergedGlobals
00000000 l    d  .debug_loc	00000000 .debug_loc
00000000 l    d  .debug_abbrev	00000000 .debug_abbrev
00000000 l    d  .debug_info	00000000 .debug_info
00000000 l    d  .debug_ranges	00000000 .debug_ranges
00000000 l    d  .debug_frame	00000000 .debug_frame
00000000 l    d  .debug_line	00000000 .debug_line
00000000         *UND*	00000000 <druid_shell::platform::embedded::window::DruidContext as druid_shell::window::WinCtx>::invalidate
00000000         *UND*	00000000 <druid_shell::platform::embedded::window::DruidContext as druid_shell::window::WinCtx>::set_cursor
00000000         *UND*	00000000 <druid_shell::platform::embedded::window::DruidContext as druid_shell::window::WinCtx>::text_factory
00000000         *UND*	00000000 <piet_embedded_graphics::text::EmbedTextLayoutBuilder as piet::text::TextLayoutBuilder>::build
00000000         *UND*	00000000 <embedded_graphics::coord::internal_coord::Coord as core::ops::index::Index<usize>>::index
00000000         *UND*	00000000 <embedded_graphics::coord::internal_coord::Coord as embedded_graphics::coord::ToUnsigned>::to_unsigned
00000000 g     F .text._ZN105_$LT$$RF$mut$u20$heapless..vec..Vec$LT$T$C$N$GT$$u20$as$u20$core..iter..traits..collect..IntoIterator$GT$9into_iter17h19c47cdd155918faE	0000000c <&mut heapless::vec::Vec<T,N> as core::iter::traits::collect::IntoIterator>::into_iter
00000000         *UND*	00000000 <piet_embedded_graphics::context::EmbedRenderContext as piet::render_context::RenderContext>::solid_brush
00000000 g     F .text._ZN107_$LT$piet_embedded_graphics..context..EmbedRenderContext$u20$as$u20$piet..render_context..RenderContext$GT$4fill17ha3fdd11278ca53ceE	00000110 <piet_embedded_graphics::context::EmbedRenderContext as piet::render_context::RenderContext>::fill
00000000         *UND*	00000000 <piet_embedded_graphics::context::EmbedRenderContext as piet::render_context::RenderContext>::save
00000000         *UND*	00000000 <piet_embedded_graphics::context::EmbedRenderContext as piet::render_context::RenderContext>::text
00000000         *UND*	00000000 <piet_embedded_graphics::context::EmbedRenderContext as piet::render_context::RenderContext>::clear
00000000         *UND*	00000000 <piet_embedded_graphics::context::EmbedRenderContext as piet::render_context::RenderContext>::finish
00000000 g     F .text._ZN107_$LT$piet_embedded_graphics..context..EmbedRenderContext$u20$as$u20$piet..render_context..RenderContext$GT$6stroke17he362bf955985f021E	0000027c <piet_embedded_graphics::context::EmbedRenderContext as piet::render_context::RenderContext>::stroke
00000000         *UND*	00000000 <piet_embedded_graphics::context::EmbedRenderContext as piet::render_context::RenderContext>::restore
00000000 g     F .text._ZN107_$LT$piet_embedded_graphics..context..EmbedRenderContext$u20$as$u20$piet..render_context..RenderContext$GT$9draw_text17h99e439e6e0d1b1d5E	000000c0 <piet_embedded_graphics::context::EmbedRenderContext as piet::render_context::RenderContext>::draw_text
00000000         *UND*	00000000 <piet_embedded_graphics::context::EmbedRenderContext as piet::render_context::RenderContext>::transform
00000000         *UND*	00000000 st7735_lcd::ST7735<SPI,DC,RST>::set_pixel
00000000 g     F .text._ZN112_$LT$embedded_graphics..primitives..line..Line$LT$C$GT$$u20$as$u20$core..iter..traits..collect..IntoIterator$GT$9into_iter17h5c7aa4987d028b6fE	00000008 <embedded_graphics::primitives::line::Line<C> as core::iter::traits::collect::IntoIterator>::into_iter
00000000         *UND*	00000000 <druid::widget::widgetbox::WidgetBox<u32> as druid::widget::widgetbox::GlobalState<u32>>::add_widget
00000000         *UND*	00000000 <druid::widget::widgetbox::WidgetBox<u32> as druid::widget::widgetbox::GlobalState<u32>>::get_global_state
00000000 g     F .text._ZN115_$LT$embedded_graphics..primitives..line..Line$LT$C$GT$$u20$as$u20$embedded_graphics..style..WithStyle$LT$C$GT$$GT$12stroke_width17h12b44aa4ec6be4f3E	0000000c <embedded_graphics::primitives::line::Line<C> as embedded_graphics::style::WithStyle<C>>::stroke_width
00000000 g     F .text._ZN115_$LT$embedded_graphics..primitives..line..Line$LT$C$GT$$u20$as$u20$embedded_graphics..style..WithStyle$LT$C$GT$$GT$6stroke17he2ee6f01753e4908E	0000000e <embedded_graphics::primitives::line::Line<C> as embedded_graphics::style::WithStyle<C>>::stroke
00000000 g     F .text._ZN116_$LT$$RF$embedded_graphics..primitives..line..Line$LT$C$GT$$u20$as$u20$core..iter..traits..collect..IntoIterator$GT$9into_iter17h471c1dbc9fca74ffE	00000164 <&embedded_graphics::primitives::line::Line<C> as core::iter::traits::collect::IntoIterator>::into_iter
00000000 g     F .text._ZN117_$LT$embedded_graphics..primitives..line..LineIterator$LT$C$GT$$u20$as$u20$core..iter..traits..iterator..Iterator$GT$4next17ha10fb269365cbbe8E	0000011c <embedded_graphics::primitives::line::LineIterator<C> as core::iter::traits::iterator::Iterator>::next
00000000         *UND*	00000000 druid_shell::application::Application::init
00000000 g     F .text._ZN11druid_shell6window28WindowHandle$LT$THandler$GT$4show17hd37565557e6d5a60E	00000004 druid_shell::window::WindowHandle<THandler>::show
00000000 g     F .text._ZN11druid_shell6window29WindowBuilder$LT$THandler$GT$11set_handler17h503f062dce43d243E	00000008 druid_shell::window::WindowBuilder<THandler>::set_handler
00000000 g     F .text._ZN11druid_shell6window29WindowBuilder$LT$THandler$GT$3new17h27e968d065b61b40E	00000014 druid_shell::window::WindowBuilder<THandler>::new
00000000 g     F .text._ZN11druid_shell6window29WindowBuilder$LT$THandler$GT$5build17he3242aa91a4cda98E	0000003a druid_shell::window::WindowBuilder<THandler>::build
00000000 g     F .text._ZN11druid_shell6window29WindowBuilder$LT$THandler$GT$8set_size17hc3235e20780b6a40E	00000006 druid_shell::window::WindowBuilder<THandler>::set_size
00000000         *UND*	00000000 druid_shell::platform::embedded::window::PIET_CONTEXT
00000000         *UND*	00000000 druid_shell::platform::embedded::window::DRUID_CONTEXT
00000000 g     F .text._ZN11druid_shell8platform8embedded6window28WindowHandle$LT$THandler$GT$4show17hd1f266ba72d20d97E	00000040 druid_shell::platform::embedded::window::WindowHandle<THandler>::show
00000000 g     F .text._ZN11druid_shell8platform8embedded6window29WindowBuilder$LT$THandler$GT$11set_handler17hd189576dc2c2466cE	00000008 druid_shell::platform::embedded::window::WindowBuilder<THandler>::set_handler
00000000 g     F .text._ZN11druid_shell8platform8embedded6window29WindowBuilder$LT$THandler$GT$3new17ha6f6064f3c0ded92E	00000014 druid_shell::platform::embedded::window::WindowBuilder<THandler>::new
00000000 g     F .text._ZN11druid_shell8platform8embedded6window29WindowBuilder$LT$THandler$GT$5build17ha5316f701ea2e6a1E	0000001c druid_shell::platform::embedded::window::WindowBuilder<THandler>::build
00000000 g     F .text._ZN11druid_shell8platform8embedded6window29WindowBuilder$LT$THandler$GT$8set_size17hc74b01c72f43aab9E	00000006 druid_shell::platform::embedded::window::WindowBuilder<THandler>::set_size
00000000         *UND*	00000000 <embedded_graphics::primitives::rectangle::Rectangle<C> as embedded_graphics::style::WithStyle<C>>::fill
00000000         *UND*	00000000 <embedded_graphics::fonts::font_builder::FontBuilder<C,Conf> as embedded_graphics::fonts::Font<C>>::render_str
00000000         *UND*	00000000 <embedded_graphics::fonts::font_builder::FontBuilder<C,Conf> as embedded_graphics::transform::Transform>::translate
00000000         *UND*	00000000 <embedded_graphics::fonts::font_builder::FontBuilder<C,Conf> as embedded_graphics::style::WithStyle<C>>::stroke
00000000 g     F .text._ZN133_$LT$druid..widget..label..LabelText$LT$T$GT$$u20$as$u20$core..convert..From$LT$druid..localization..LocalizedString$LT$T$GT$$GT$$GT$4from17hf1e382c2f245e3e9E	00000012 <druid::widget::label::LabelText<T> as core::convert::From<druid::localization::LocalizedString<T>>>::from
00000000         *UND*	00000000 <st7735_lcd::ST7735<SPI,DC,RST> as embedded_graphics::Drawing<embedded_graphics::pixelcolor::rgb565::Rgb565>>::draw
00000000         *UND*	00000000 <st7735_lcd::ST7735<SPI,DC,RST> as embedded_graphics::Drawing<embedded_graphics::pixelcolor::rgb565::Rgb565>>::draw
00000000 g     F .text._ZN140_$LT$st7735_lcd..ST7735$LT$SPI$C$DC$C$RST$GT$$u20$as$u20$embedded_graphics..Drawing$LT$embedded_graphics..pixelcolor..rgb565..Rgb565$GT$$GT$4draw17h9d9764dd82e224c7E	00000060 <st7735_lcd::ST7735<SPI,DC,RST> as embedded_graphics::Drawing<embedded_graphics::pixelcolor::rgb565::Rgb565>>::draw
00000000 g     F .text._ZN17embedded_graphics10primitives4line13Line$LT$C$GT$3new17h1cf03c853f1f61a0E	0000002e embedded_graphics::primitives::line::Line<C>::new
00000000         *UND*	00000000 embedded_graphics::primitives::rectangle::Rectangle<C>::new
00000000         *UND*	00000000 embedded_graphics::coord::internal_coord::Coord::new
00000000         *UND*	00000000 piet_embedded_graphics::context::EmbedRenderContext::convert_brush
00000000         *UND*	00000000 piet_embedded_graphics::display::show_touch
00000000         *UND*	00000000 piet_embedded_graphics::display::start_display
00000000         *UND*	00000000 piet_embedded_graphics::display::DISPLAY
00000000         *UND*	00000000 <&T as core::fmt::Debug>::fmt
00000000         *UND*	00000000 <&T as core::fmt::Debug>::fmt
00000000 g     F .text._ZN42_$LT$$RF$T$u20$as$u20$core..fmt..Debug$GT$3fmt17h7ab5bba83a46be05E	00000004 <&T as core::fmt::Debug>::fmt
00000000         *UND*	00000000 core::fmt::ArgumentV1::new
00000000         *UND*	00000000 core::fmt::ArgumentV1::new
00000000         *UND*	00000000 core::fmt::ArgumentV1::new
00000000         *UND*	00000000 core::fmt::num::imp::<impl core::fmt::Display for u32>::fmt
00000000 g     F .text._ZN4core3fmt5Write9write_fmt17hb8dea399774939cbE	00000024 core::fmt::Write::write_fmt
00000000         *UND*	00000000 core::fmt::write
00000000         *UND*	00000000 core::fmt::builders::DebugTuple::field
00000000         *UND*	00000000 core::fmt::builders::DebugTuple::finish
00000000         *UND*	00000000 core::fmt::Formatter::debug_tuple
00000000         *UND*	00000000 core::fmt::Formatter::pad
00000000 g     F .text._ZN4core4iter6traits8iterator8Iterator3sum17h51974ad5f1074750E	00000004 core::iter::traits::iterator::Iterator::sum
00000000 g     F .text._ZN4core4iter8adapters16Map$LT$I$C$F$GT$3new17h30e4c1f0d420d908E	00000002 core::iter::adapters::Map<I,F>::new
00000000 g     F .text._ZN4core4iter8adapters8map_fold17h89b4408d9f98adecE	00000002 core::iter::adapters::map_fold
00000000         *UND*	00000000 core::panic::Location::file
00000000         *UND*	00000000 core::panic::Location::line
00000000         *UND*	00000000 core::panic::PanicInfo::location
00000000         *UND*	00000000 core::slice::slice_index_order_fail
00000000 g     F .text._ZN4core5slice87_$LT$impl$u20$core..iter..traits..collect..IntoIterator$u20$for$u20$$RF$$u5b$T$u5d$$GT$9into_iter17h2527c4ff98c5e68eE	0000000a core::slice::<impl core::iter::traits::collect::IntoIterator for &[T]>::into_iter
00000000 g     F .text._ZN4core5slice87_$LT$impl$u20$core..iter..traits..collect..IntoIterator$u20$for$u20$$RF$$u5b$T$u5d$$GT$9into_iter17h76538937414cd890E	00000006 core::slice::<impl core::iter::traits::collect::IntoIterator for &[T]>::into_iter
00000000         *UND*	00000000 core::option::expect_failed
00000000         *UND*	00000000 core::result::unwrap_failed
00000000         *UND*	00000000 core::panicking::panic_bounds_check
00000000         *UND*	00000000 core::panicking::panic
00000000         *UND*	00000000 core::panicking::panic_fmt
00000000         *UND*	00000000 libm::math::fabs::fabs
00000000         *UND*	00000000 piet::gradient::UnitPoint::resolve
00000000 g     F .text._ZN50_$LT$$RF$mut$u20$W$u20$as$u20$core..fmt..Write$GT$10write_char17h75662850cd2103c5E	00000006 <&mut W as core::fmt::Write>::write_char
00000000 g     F .text._ZN50_$LT$$RF$mut$u20$W$u20$as$u20$core..fmt..Write$GT$9write_fmt17h8b309f61526767cfE	0000001e <&mut W as core::fmt::Write>::write_fmt
00000000 g     F .text._ZN50_$LT$$RF$mut$u20$W$u20$as$u20$core..fmt..Write$GT$9write_str17hc98569f5e041bf67E	00000006 <&mut W as core::fmt::Write>::write_str
00000000         *UND*	00000000 <T as core::convert::From<T>>::from
00000000         *UND*	00000000 <T as core::convert::From<T>>::from
00000000 g     F .text._ZN50_$LT$T$u20$as$u20$core..convert..From$LT$T$GT$$GT$4from17h72a03c5c655c1b81E	00000002 <T as core::convert::From<T>>::from
00000000 g     F .text._ZN50_$LT$T$u20$as$u20$core..convert..From$LT$T$GT$$GT$4from17ha528600cafe70a54E	00000002 <T as core::convert::From<T>>::from
00000000         *UND*	00000000 <T as core::convert::Into<U>>::into
00000000 g     F .text._ZN50_$LT$T$u20$as$u20$core..convert..Into$LT$U$GT$$GT$4into17h1f3dd639bafef216E	00000002 <T as core::convert::Into<U>>::into
00000000 g     F .text._ZN50_$LT$T$u20$as$u20$core..convert..Into$LT$U$GT$$GT$4into17h3af41b9a6781eef1E	00000002 <T as core::convert::Into<U>>::into
00000000 g     F .text._ZN50_$LT$T$u20$as$u20$core..convert..Into$LT$U$GT$$GT$4into17h6ec456640f6940dfE	0000001c <T as core::convert::Into<U>>::into
00000000         *UND*	00000000 <T as core::convert::Into<U>>::into
00000000 g     F .text._ZN50_$LT$T$u20$as$u20$core..convert..Into$LT$U$GT$$GT$4into17h85185d13e6afc34dE	00000002 <T as core::convert::Into<U>>::into
00000000 g     F .text._ZN50_$LT$T$u20$as$u20$core..convert..Into$LT$U$GT$$GT$4into17ha6c30cf29a2e5f10E	00000012 <T as core::convert::Into<U>>::into
00000000 g     F .text._ZN50_$LT$T$u20$as$u20$core..convert..Into$LT$U$GT$$GT$4into17hbf12dae1a674e292E	00000002 <T as core::convert::Into<U>>::into
00000000 g     F .text._ZN50_$LT$T$u20$as$u20$core..convert..Into$LT$U$GT$$GT$4into17hd105448d2582fa00E	00000008 <T as core::convert::Into<U>>::into
00000000 g     F .text._ZN50_$LT$T$u20$as$u20$core..convert..Into$LT$U$GT$$GT$4into17hf1d8d50a6f5f7b0fE	00000008 <T as core::convert::Into<U>>::into
00000000         *UND*	00000000 <T as core::convert::TryFrom<U>>::try_from
00000000         *UND*	00000000 <core::fmt::Error as core::fmt::Debug>::fmt
00000000 g     F .text._ZN54_$LT$f64$u20$as$u20$core..iter..traits..accum..Sum$GT$3sum17had7373165c8fa8fdE	00000010 <f64 as core::iter::traits::accum::Sum>::sum
00000000         *UND*	00000000 <piet::error::Error as core::fmt::Debug>::fmt
00000000 g     F .text._ZN59_$LT$$LP$T10$C$$u20$T11$RP$$u20$as$u20$core..fmt..Debug$GT$3fmt17h69687c9e4aa1a06eE	00000044 <(T10, T11) as core::fmt::Debug>::fmt
00000000         *UND*	00000000 <core::fmt::Arguments as core::fmt::Display>::fmt
00000000         *UND*	00000000 druid::win_handler::APP_STATE_U32
00000000 g     F .text._ZN5druid11win_handler16Windows$LT$T$GT$3add17had17412f00d5a178E	00000018 druid::win_handler::Windows<T>::add
00000000 g     F .text._ZN5druid11win_handler16Windows$LT$T$GT$3get17h352816ef234e24b4E	00000058 druid::win_handler::Windows<T>::get
00000000 g     F .text._ZN5druid11win_handler17AppState$LT$T$GT$10add_window17h3b4ad0c0f2ec51e6E	00000018 druid::win_handler::AppState<T>::add_window
00000000 g     F .text._ZN5druid11win_handler17AppState$LT$T$GT$21assemble_window_state17hd87bfcd62adde00dE	0000000e druid::win_handler::AppState<T>::assemble_window_state
00000000 g     F .text._ZN5druid11win_handler17AppState$LT$T$GT$3new17h54e565012aca0f6fE	00000024 druid::win_handler::AppState<T>::new
00000000 g     F .text._ZN5druid11win_handler17AppState$LT$T$GT$5paint17h89525d7aa4b8caccE	0000003c druid::win_handler::AppState<T>::paint
00000000 g     F .text._ZN5druid11win_handler21DruidHandler$LT$T$GT$10new_shared17h629442530d426482E	0000000c druid::win_handler::DruidHandler<T>::new_shared
00000000 g     F .text._ZN5druid11win_handler26SingleWindowState$LT$T$GT$5paint17h6c4f6c027d2de84aE	0000001e druid::win_handler::SingleWindowState<T>::paint
00000000 g     F .text._ZN5druid11win_handler26SingleWindowState$LT$T$GT$8do_paint17he0743a66625b931eE	00000038 druid::win_handler::SingleWindowState<T>::do_paint
00000000 g     F .text._ZN5druid11win_handler26SingleWindowState$LT$T$GT$9do_layout17hf8c458dcbd70ca9eE	00000020 druid::win_handler::SingleWindowState<T>::do_layout
00000000 g     F .text._ZN5druid12localization24LocalizedString$LT$T$GT$13localized_str17he921e45cc84c645eE	0000000c druid::localization::LocalizedString<T>::localized_str
00000000 g     F .text._ZN5druid12localization24LocalizedString$LT$T$GT$3new17ha19310d7ec3a1866E	0000000a druid::localization::LocalizedString<T>::new
00000000 g     F .text._ZN5druid12localization24LocalizedString$LT$T$GT$8with_arg17he0df709482b7a10aE	00000084 druid::localization::LocalizedString<T>::with_arg
00000000         *UND*	00000000 druid::BoxConstraints::debug_check
00000000         *UND*	00000000 druid::BoxConstraints::max
00000000         *UND*	00000000 druid::BoxConstraints::min
00000000         *UND*	00000000 druid::BoxConstraints::new
00000000         *UND*	00000000 druid::BoxConstraints::tight
00000000 g     F .text._ZN5druid14BoxConstraints9constrain17h7b6e4befaaf780f2E	00000008 druid::BoxConstraints::constrain
00000000 g     F .text._ZN5druid22WidgetPod$LT$T$C$W$GT$15get_layout_rect17h49d8e3e38286913fE	0000000a druid::WidgetPod<T,W>::get_layout_rect
00000000 g     F .text._ZN5druid22WidgetPod$LT$T$C$W$GT$15set_layout_rect17h04aa8a7d10b06596E	0000000a druid::WidgetPod<T,W>::set_layout_rect
00000000 g     F .text._ZN5druid22WidgetPod$LT$T$C$W$GT$15set_layout_rect17h826544f924c4136dE	0000000a druid::WidgetPod<T,W>::set_layout_rect
00000000 g     F .text._ZN5druid22WidgetPod$LT$T$C$W$GT$17paint_with_offset17hee7a39b5cd9c3dbcE	0000000c druid::WidgetPod<T,W>::paint_with_offset
00000000 g     F .text._ZN5druid22WidgetPod$LT$T$C$W$GT$22paint_with_offset_impl17h94e3f126403ec82eE	000001d8 druid::WidgetPod<T,W>::paint_with_offset_impl
00000000 g     F .text._ZN5druid22WidgetPod$LT$T$C$W$GT$3new17h0f3a67c3de684a1bE	00000018 druid::WidgetPod<T,W>::new
00000000 g     F .text._ZN5druid22WidgetPod$LT$T$C$W$GT$3new17h3f32c3f331228985E	00000026 druid::WidgetPod<T,W>::new
00000000 g     F .text._ZN5druid22WidgetPod$LT$T$C$W$GT$5paint17hd38edd6447537b14E	0000000e druid::WidgetPod<T,W>::paint
00000000 g     F .text._ZN5druid22WidgetPod$LT$T$C$W$GT$6layout17h4c399d3bed77871fE	00000006 druid::WidgetPod<T,W>::layout
00000000 g     F .text._ZN5druid22WidgetPod$LT$T$C$W$GT$6layout17h6a3b3fed5c19e5ebE	0000000c druid::WidgetPod<T,W>::layout
00000000 g     F .text._ZN5druid3app23WindowDesc$LT$T$C$W$GT$12build_native17h544235b468a7d23dE	00000118 druid::app::WindowDesc<T,W>::build_native
00000000 g     F .text._ZN5druid3app23WindowDesc$LT$T$C$W$GT$3new17h150ebc7945401b41E	00000016 druid::app::WindowDesc<T,W>::new
00000000 g     F .text._ZN5druid3app24AppLauncher$LT$T$C$W$GT$11with_window17h6256f0cf6f972544E	0000005c druid::app::AppLauncher<T,W>::with_window
00000000 g     F .text._ZN5druid3app24AppLauncher$LT$T$C$W$GT$17use_simple_logger17hb4258055174eaa84E	0000000a druid::app::AppLauncher<T,W>::use_simple_logger
00000000 g     F .text._ZN5druid3app24AppLauncher$LT$T$C$W$GT$6launch17hf936f0cad0047a36E	000000ba druid::app::AppLauncher<T,W>::launch
00000000         *UND*	00000000 druid::Region::to_rect
00000000         *UND*	00000000 druid::widget::get_widget_id
00000000 g     F .text._ZN5druid6widget4flex13Flex$LT$T$GT$9add_child17h3afcae7ae03333a7E	00000074 druid::widget::flex::Flex<T>::add_child
00000000         *UND*	00000000 druid::widget::flex::Axis::pack
00000000         *UND*	00000000 druid::widget::flex::Axis::major
00000000         *UND*	00000000 druid::widget::flex::Axis::minor
00000000 g     F .text._ZN5druid6widget4flex6Column3new17heedd836087618e6aE	0000001a druid::widget::flex::Column::new
00000000 g     F .text._ZN5druid6widget5label14Label$LT$T$GT$10get_layout17he6d2bfcb03a10e6eE	0000007c druid::widget::label::Label<T>::get_layout
00000000 g     F .text._ZN5druid6widget5label14Label$LT$T$GT$3new17h62cdb1d8498f524dE	0000002c druid::widget::label::Label<T>::new
00000000 g     F .text._ZN5druid6widget5label14Label$LT$T$GT$7aligned17hcef61efd31e9d224E	00000054 druid::widget::label::Label<T>::aligned
00000000 g     F .text._ZN5druid6widget5label18LabelText$LT$T$GT$12display_text17ha4b0e965c00acfdeE	0000001c druid::widget::label::LabelText<T>::display_text
00000000 g     F .text._ZN5druid6widget6button15Button$LT$T$GT$3new17hafa2d8e7779b7ca8E	00000038 druid::widget::button::Button<T>::new
00000000 g     F .text._ZN5druid6widget9widgetbox18WidgetBox$LT$D$GT$3new17heb7f9c4d1268c6aaE	000000ea druid::widget::widgetbox::WidgetBox<D>::new
00000000 g     F .text._ZN5druid6window19Window$LT$T$C$W$GT$3new17hf7d7b8d59899146bE	00000046 druid::window::Window<T,W>::new
00000000 g     F .text._ZN5druid6window19Window$LT$T$C$W$GT$5paint17h13a297898b1a2b20E	00000058 druid::window::Window<T,W>::paint
00000000 g     F .text._ZN5druid6window19Window$LT$T$C$W$GT$6layout17he31f1a560fa58a43E	00000070 druid::window::Window<T,W>::layout
00000000         *UND*	00000000 druid::window::WindowId::next
00000000 g     F .text._ZN5druid8PaintCtx14with_child_ctx17h2046ff1dfce20444E	0000003a druid::PaintCtx::with_child_ctx
00000000 g     F .text._ZN5druid8PaintCtx14with_child_ctx17he257ff298816f675E	00000038 druid::PaintCtx::with_child_ctx
00000000         *UND*	00000000 druid::BaseState::size
00000000         *UND*	00000000 druid::BaseState::is_hot
00000000         *UND*	00000000 druid::BaseState::is_active
00000000         *UND*	00000000 druid::LayoutCtx::text
00000000 g     F .text._ZN5druid9windowbox18WindowBox$LT$D$GT$5paint17h20933d02fe19fc93E	00000014 druid::windowbox::WindowBox<D>::paint
00000000 g     F .text._ZN5druid9windowbox18WindowBox$LT$D$GT$6layout17h3e1bb48e02444a18E	00000014 druid::windowbox::WindowBox<D>::layout
00000000         *UND*	00000000 kurbo::size::Size::clamp
00000000         *UND*	00000000 <druid_shell::error::Error as core::fmt::Debug>::fmt
00000000         *UND*	00000000 <I as core::iter::traits::collect::IntoIterator>::into_iter
00000000 g     F .text._ZN63_$LT$I$u20$as$u20$core..iter..traits..collect..IntoIterator$GT$9into_iter17hb1021b4f795be03eE	0000000c <I as core::iter::traits::collect::IntoIterator>::into_iter
00000000         *UND*	00000000 <mynewt::result::MynewtError as core::fmt::Debug>::fmt
00000000         *UND*	00000000 mynewt::hw::sensor_mgr::find_bydevname
00000000         *UND*	00000000 mynewt::hw::sensor::register_listener
00000000         *UND*	00000000 mynewt::hw::sensor::new_sensor_listener
00000000         *UND*	00000000 mynewt::hw::sensor::bindings::set_poll_rate_ms
00000000         *UND*	00000000 mynewt::hal::GPIO::init
00000000         *UND*	00000000 mynewt::sys::console::print_strn
00000000         *UND*	00000000 mynewt::sys::console::flush
00000000         *UND*	00000000 mynewt::sys::console::print
00000000         *UND*	00000000 mynewt::sys::console::buffer
00000000         *UND*	00000000 mynewt::sys::console::printint
00000000         *UND*	00000000 mynewt::Strn::new
00000000         *UND*	00000000 mynewt::libs::sensor_network::prepare_post
00000000         *UND*	00000000 mynewt::libs::sensor_network::get_device_id
00000000         *UND*	00000000 mynewt::libs::sensor_network::do_server_post
00000000         *UND*	00000000 mynewt::libs::sensor_network::init_server_post
00000000         *UND*	00000000 mynewt::kernel::os::eventq_run
00000000         *UND*	00000000 mynewt::kernel::os::eventq_dflt_get
00000000         *UND*	00000000 mynewt::sysinit
00000000         *UND*	00000000 mynewt::encoding::coap_context::CoapContext::key_to_cstr
00000000         *UND*	00000000 mynewt::encoding::coap_context::CoapContext::to_void_ptr
00000000         *UND*	00000000 mynewt::encoding::coap_context::CoapContext::value_to_cstr
00000000         *UND*	00000000 mynewt::encoding::coap_context::CoapContext::json_set_geolocation
00000000         *UND*	00000000 mynewt::encoding::coap_context::CoapContext::json_set_text_string
00000000         *UND*	00000000 mynewt::encoding::coap_context::CoapContext::fail
00000000         *UND*	00000000 mynewt::encoding::coap_context::COAP_CONTEXT
00000000 g     F .text._ZN70_$LT$heapless..string..String$LT$N$GT$$u20$as$u20$core..fmt..Write$GT$10write_char17ha1a224a159d1ea80E	0000008c <heapless::string::String<N> as core::fmt::Write>::write_char
00000000 g     F .text._ZN70_$LT$heapless..string..String$LT$N$GT$$u20$as$u20$core..fmt..Write$GT$9write_str17hce754f37aee83c9aE	00000004 <heapless::string::String<N> as core::fmt::Write>::write_str
00000000 g     F .text._ZN70_$LT$heapless..vec..Vec$LT$T$C$N$GT$$u20$as$u20$core..clone..Clone$GT$5clone17h2f4c22b1dabfeb3cE	00000008 <heapless::vec::Vec<T,N> as core::clone::Clone>::clone
00000000 g     F .text._ZN70_$LT$heapless..vec..Vec$LT$T$C$N$GT$$u20$as$u20$core..clone..Clone$GT$5clone17he292310c4617be80E	00000008 <heapless::vec::Vec<T,N> as core::clone::Clone>::clone
00000000 g     F .text._ZN72_$LT$druid..app..WindowDesc$LT$T$C$W$GT$$u20$as$u20$core..fmt..Debug$GT$3fmt17hc37e21074add1a7cE	00000004 <druid::app::WindowDesc<T,W> as core::fmt::Debug>::fmt
00000000 g     F .text._ZN72_$LT$heapless..string..String$LT$N$GT$$u20$as$u20$core..clone..Clone$GT$5clone17h4336b8396010dc57E	00000008 <heapless::string::String<N> as core::clone::Clone>::clone
00000000         *UND*	00000000 <heapless::string::String<N> as core::str::FromStr>::from_str
00000000         *UND*	00000000 <kurbo::rounded_rect::RoundedRect as kurbo::shape::Shape>::to_bez_path
00000000 g     F .text._ZN73_$LT$core..marker..PhantomData$LT$T$GT$$u20$as$u20$core..clone..Clone$GT$5clone17h7c38b97043cee8adE	00000002 <core::marker::PhantomData<T> as core::clone::Clone>::clone
00000000         *UND*	00000000 <heapless::vec::Vec<T,N> as core::ops::drop::Drop>::drop
00000000 g     F .text._ZN73_$LT$heapless..vec..Vec$LT$T$C$N$GT$$u20$as$u20$core..ops..drop..Drop$GT$4drop17h626c12c2e1de9f37E	00000002 <heapless::vec::Vec<T,N> as core::ops::drop::Drop>::drop
00000000         *UND*	00000000 <heapless::vec::Vec<T,N> as core::ops::drop::Drop>::drop
00000000         *UND*	00000000 <mynewt::hal::GPIO as embedded_hal::digital::v2::OutputPin>::set_low
00000000         *UND*	00000000 <mynewt::hal::GPIO as embedded_hal::digital::v2::OutputPin>::set_high
00000000 g     F .text._ZN75_$LT$heapless..vec..Vec$LT$T$C$N$GT$$u20$as$u20$core..ops..deref..Deref$GT$5deref17h6e6b692c0b67cfdaE	00000006 <heapless::vec::Vec<T,N> as core::ops::deref::Deref>::deref
00000000 g     F .text._ZN75_$LT$heapless..vec..Vec$LT$T$C$N$GT$$u20$as$u20$core..ops..deref..Deref$GT$5deref17hd446ae5c01d9c88cE	00000004 <heapless::vec::Vec<T,N> as core::ops::deref::Deref>::deref
00000000         *UND*	00000000 <str as mynewt::encoding::coap_context::ToBytesOptionalNull>::to_bytes_optional_nul
00000000 g     F .text._ZN76_$LT$druid..localization..ArgSource$LT$T$GT$$u20$as$u20$core..fmt..Debug$GT$3fmt17h8acdd459e0015266E	00000004 <druid::localization::ArgSource<T> as core::fmt::Debug>::fmt
00000000         *UND*	00000000 <piet_embedded_graphics::text::EmbedText as piet::text::Text>::new_text_layout
00000000         *UND*	00000000 <piet_embedded_graphics::text::EmbedText as piet::text::Text>::new_font_by_name
00000000 g     F .text._ZN77_$LT$druid..widget..flex..Flex$LT$T$GT$$u20$as$u20$druid..Widget$LT$T$GT$$GT$10new_window17h108acb148ae9f529E	0000005a <druid::widget::flex::Flex<T> as druid::Widget<T>>::new_window
00000000 g     F .text._ZN77_$LT$druid..widget..flex..Flex$LT$T$GT$$u20$as$u20$druid..Widget$LT$T$GT$$GT$5paint17h66b3cd5a9a592d37E	00000030 <druid::widget::flex::Flex<T> as druid::Widget<T>>::paint
00000000 g     F .text._ZN77_$LT$druid..widget..flex..Flex$LT$T$GT$$u20$as$u20$druid..Widget$LT$T$GT$$GT$6layout17hbbca014b1d75272aE	00000464 <druid::widget::flex::Flex<T> as druid::Widget<T>>::layout
00000000         *UND*	00000000 <heapless::string::String<N> as core::ops::deref::Deref>::deref
00000000         *UND*	00000000 <druid::Region as core::convert::From<kurbo::rect::Rect>>::from
00000000 g     F .text._ZN78_$LT$druid..widget..flex..ChildWidget$LT$T$GT$$u20$as$u20$core..fmt..Debug$GT$3fmt17h1d700328e80ae2edE	00000004 <druid::widget::flex::ChildWidget<T> as core::fmt::Debug>::fmt
00000000 g     F .text._ZN78_$LT$heapless..vec..IntoIter$LT$T$C$N$GT$$u20$as$u20$core..ops..drop..Drop$GT$4drop17h43ac5427cb77f636E	00000016 <heapless::vec::IntoIter<T,N> as core::ops::drop::Drop>::drop
00000000 g     F .text._ZN78_$LT$heapless..vec..Vec$LT$T$C$N$GT$$u20$as$u20$core..ops..deref..DerefMut$GT$9deref_mut17h34dd722b021d70a8E	00000004 <heapless::vec::Vec<T,N> as core::ops::deref::DerefMut>::deref_mut
00000000         *UND*	00000000 <heapless::vec::Vec<T,N> as core::ops::deref::DerefMut>::deref_mut
00000000 g     F .text._ZN79_$LT$druid..widget..label..Label$LT$T$GT$$u20$as$u20$druid..Widget$LT$T$GT$$GT$5paint17h28f1149fd6235dbcE	00000100 <druid::widget::label::Label<T> as druid::Widget<T>>::paint
00000000 g     F .text._ZN79_$LT$druid..widget..label..Label$LT$T$GT$$u20$as$u20$druid..Widget$LT$T$GT$$GT$6get_id17hddd8588b8fab593bE	0000000c <druid::widget::label::Label<T> as druid::Widget<T>>::get_id
00000000 g     F .text._ZN79_$LT$druid..widget..label..Label$LT$T$GT$$u20$as$u20$druid..Widget$LT$T$GT$$GT$6layout17h6668ee6bf2b888b3E	0000004c <druid::widget::label::Label<T> as druid::Widget<T>>::layout
00000000 g     F .text._ZN79_$LT$druid..widget..label..Label$LT$T$GT$$u20$as$u20$druid..Widget$LT$T$GT$$GT$7to_type17h47d644b7af5bccb3E	00000016 <druid::widget::label::Label<T> as druid::Widget<T>>::to_type
00000000 g     F .text._ZN79_$LT$druid..win_handler..Windows$LT$T$GT$$u20$as$u20$core..default..Default$GT$7default17h0aa0e645e40f75fdE	0000001e <druid::win_handler::Windows<T> as core::default::Default>::default
00000000 g     F .text._ZN79_$LT$piet..color..Color$u20$as$u20$piet..render_context..IntoBrush$LT$P$GT$$GT$10make_brush17h0798e6d81abd5c56E	0000000a <piet::color::Color as piet::render_context::IntoBrush<P>>::make_brush
00000000 g     F .text._ZN79_$LT$piet..color..Color$u20$as$u20$piet..render_context..IntoBrush$LT$P$GT$$GT$10make_brush17h52bbfb3e034ce340E	0000000a <piet::color::Color as piet::render_context::IntoBrush<P>>::make_brush
00000000 g     F .text._ZN79_$LT$piet..color..Color$u20$as$u20$piet..render_context..IntoBrush$LT$P$GT$$GT$10make_brush17h8ad706cafce2b625E	0000000a <piet::color::Color as piet::render_context::IntoBrush<P>>::make_brush
00000000 g     F .text._ZN81_$LT$druid..widget..button..Button$LT$T$GT$$u20$as$u20$druid..Widget$LT$T$GT$$GT$5paint17he676e4a4ca621cf1E	000001b8 <druid::widget::button::Button<T> as druid::Widget<T>>::paint
00000000 g     F .text._ZN81_$LT$druid..widget..button..Button$LT$T$GT$$u20$as$u20$druid..Widget$LT$T$GT$$GT$6layout17h23fa154eef003d31E	00000024 <druid::widget::button::Button<T> as druid::Widget<T>>::layout
00000000         *UND*	00000000 <embedded_graphics::style::Style<P> as core::default::Default>::default
00000000 g     F .text._ZN84_$LT$heapless..string..String$LT$N$GT$$u20$as$u20$core..convert..From$LT$u32$GT$$GT$4from17h705661ace971056dE	00000064 <heapless::string::String<N> as core::convert::From<u32>>::from
00000000         *UND*	00000000 <mynewt::Strn as mynewt::encoding::coap_context::ToBytesOptionalNull>::to_bytes_optional_nul
00000000 g     F .text._ZN87_$LT$druid..widget..widgetbox..WidgetBox$LT$D$GT$$u20$as$u20$druid..Widget$LT$D$GT$$GT$5paint17h7c77e7539b625734E	00000048 <druid::widget::widgetbox::WidgetBox<D> as druid::Widget<D>>::paint
00000000 g     F .text._ZN87_$LT$druid..widget..widgetbox..WidgetBox$LT$D$GT$$u20$as$u20$druid..Widget$LT$D$GT$$GT$6layout17h75f4133fa8eda883E	00000064 <druid::widget::widgetbox::WidgetBox<D> as druid::Widget<D>>::layout
00000000         *UND*	00000000 <mynewt::hal::Delay as embedded_hal::blocking::delay::DelayMs<u8>>::delay_ms
00000000         *UND*	00000000 <piet_embedded_graphics::text::EmbedTextLayout as piet::text::TextLayout>::width
00000000         *UND*	00000000 <embedded_graphics::coord::internal_coord::Coord as core::ops::arith::Sub>::sub
00000000 g     F .text._ZN8heapless3vec16Vec$LT$T$C$N$GT$3new17h70be266e91cab5a9E	00000006 heapless::vec::Vec<T,N>::new
00000000 g     F .text._ZN8heapless3vec16Vec$LT$T$C$N$GT$3new17h7e68e35b6e053c46E	00000008 heapless::vec::Vec<T,N>::new
00000000 g     F .text._ZN8heapless3vec16Vec$LT$T$C$N$GT$3new17h96547738abdb4f4fE	00000006 heapless::vec::Vec<T,N>::new
00000000 g     F .text._ZN8heapless3vec16Vec$LT$T$C$N$GT$4push17h073f1e9f956e4558E	00000022 heapless::vec::Vec<T,N>::push
00000000 g     F .text._ZN8heapless3vec16Vec$LT$T$C$N$GT$4push17h35fc21874e03b06aE	00000022 heapless::vec::Vec<T,N>::push
00000000 g     F .text._ZN8heapless3vec16Vec$LT$T$C$N$GT$4push17h44ad27314ae0760eE	00000014 heapless::vec::Vec<T,N>::push
00000000 g     F .text._ZN8heapless3vec43_$LT$impl$u20$heapless..i..Vec$LT$A$GT$$GT$3new17h43117aa5b5eaefffE	00000006 heapless::vec::<impl heapless::i::Vec<A>>::new
00000000 g     F .text._ZN8heapless3vec43_$LT$impl$u20$heapless..i..Vec$LT$A$GT$$GT$3new17h68307bf614855794E	00000006 heapless::vec::<impl heapless::i::Vec<A>>::new
00000000         *UND*	00000000 heapless::vec::<impl heapless::i::Vec<A>>::new
00000000 g     F .text._ZN8heapless3vec43_$LT$impl$u20$heapless..i..Vec$LT$A$GT$$GT$3new17hc0244dedd83cd7eaE	00000008 heapless::vec::<impl heapless::i::Vec<A>>::new
00000000 g     F .text._ZN8heapless3vec82_$LT$impl$u20$heapless..i..Vec$LT$generic_array..GenericArray$LT$T$C$N$GT$$GT$$GT$12as_mut_slice17he418a0cb67ddf181E	00000004 heapless::vec::<impl heapless::i::Vec<generic_array::GenericArray<T,N>>>::as_mut_slice
00000000 g     F .text._ZN8heapless3vec82_$LT$impl$u20$heapless..i..Vec$LT$generic_array..GenericArray$LT$T$C$N$GT$$GT$$GT$14push_unchecked17h06d1b54dc6348413E	0000001e heapless::vec::<impl heapless::i::Vec<generic_array::GenericArray<T,N>>>::push_unchecked
00000000         *UND*	00000000 heapless::vec::<impl heapless::i::Vec<generic_array::GenericArray<T,N>>>::push_unchecked
00000000 g     F .text._ZN8heapless3vec82_$LT$impl$u20$heapless..i..Vec$LT$generic_array..GenericArray$LT$T$C$N$GT$$GT$$GT$14push_unchecked17h8cdac320fab79a8aE	00000018 heapless::vec::<impl heapless::i::Vec<generic_array::GenericArray<T,N>>>::push_unchecked
00000000 g     F .text._ZN8heapless3vec82_$LT$impl$u20$heapless..i..Vec$LT$generic_array..GenericArray$LT$T$C$N$GT$$GT$$GT$14push_unchecked17hc5a4f5cb90ccf251E	0000001a heapless::vec::<impl heapless::i::Vec<generic_array::GenericArray<T,N>>>::push_unchecked
00000000         *UND*	00000000 heapless::vec::<impl heapless::i::Vec<generic_array::GenericArray<T,N>>>::extend_from_slice
00000000 g     F .text._ZN8heapless3vec82_$LT$impl$u20$heapless..i..Vec$LT$generic_array..GenericArray$LT$T$C$N$GT$$GT$$GT$17extend_from_slice17hc77b7f8a25a25a66E	0000003a heapless::vec::<impl heapless::i::Vec<generic_array::GenericArray<T,N>>>::extend_from_slice
00000000 g     F .text._ZN8heapless3vec82_$LT$impl$u20$heapless..i..Vec$LT$generic_array..GenericArray$LT$T$C$N$GT$$GT$$GT$17extend_from_slice17hff368e2a30d1cee6E	00000070 heapless::vec::<impl heapless::i::Vec<generic_array::GenericArray<T,N>>>::extend_from_slice
00000000 g     F .text._ZN8heapless3vec82_$LT$impl$u20$heapless..i..Vec$LT$generic_array..GenericArray$LT$T$C$N$GT$$GT$$GT$4push17h3c7e0f33cf24bfcdE	00000022 heapless::vec::<impl heapless::i::Vec<generic_array::GenericArray<T,N>>>::push
00000000 g     F .text._ZN8heapless3vec82_$LT$impl$u20$heapless..i..Vec$LT$generic_array..GenericArray$LT$T$C$N$GT$$GT$$GT$4push17h40447eacb31b5d87E	0000003e heapless::vec::<impl heapless::i::Vec<generic_array::GenericArray<T,N>>>::push
00000000 g     F .text._ZN8heapless3vec82_$LT$impl$u20$heapless..i..Vec$LT$generic_array..GenericArray$LT$T$C$N$GT$$GT$$GT$4push17hbe0b705e0e70b27cE	0000003e heapless::vec::<impl heapless::i::Vec<generic_array::GenericArray<T,N>>>::push
00000000 g     F .text._ZN8heapless3vec82_$LT$impl$u20$heapless..i..Vec$LT$generic_array..GenericArray$LT$T$C$N$GT$$GT$$GT$4push17hcb5ca1b144bc970eE	0000002e heapless::vec::<impl heapless::i::Vec<generic_array::GenericArray<T,N>>>::push
00000000 g     F .text._ZN8heapless3vec82_$LT$impl$u20$heapless..i..Vec$LT$generic_array..GenericArray$LT$T$C$N$GT$$GT$$GT$5clone17h142295f4a8a600ecE	00000026 heapless::vec::<impl heapless::i::Vec<generic_array::GenericArray<T,N>>>::clone
00000000 g     F .text._ZN8heapless3vec82_$LT$impl$u20$heapless..i..Vec$LT$generic_array..GenericArray$LT$T$C$N$GT$$GT$$GT$5clone17h2c893a19450f56ccE	00000032 heapless::vec::<impl heapless::i::Vec<generic_array::GenericArray<T,N>>>::clone
00000000 g     F .text._ZN8heapless3vec82_$LT$impl$u20$heapless..i..Vec$LT$generic_array..GenericArray$LT$T$C$N$GT$$GT$$GT$5clone17h2ea2522287257ea1E	0000002e heapless::vec::<impl heapless::i::Vec<generic_array::GenericArray<T,N>>>::clone
00000000 g     F .text._ZN8heapless3vec82_$LT$impl$u20$heapless..i..Vec$LT$generic_array..GenericArray$LT$T$C$N$GT$$GT$$GT$8as_slice17h3a41d83500fb4118E	00000004 heapless::vec::<impl heapless::i::Vec<generic_array::GenericArray<T,N>>>::as_slice
00000000         *UND*	00000000 heapless::vec::<impl heapless::i::Vec<generic_array::GenericArray<T,N>>>::as_slice
00000000 g     F .text._ZN8heapless3vec82_$LT$impl$u20$heapless..i..Vec$LT$generic_array..GenericArray$LT$T$C$N$GT$$GT$$GT$8as_slice17h7b92b1e8fee4afe2E	00000004 heapless::vec::<impl heapless::i::Vec<generic_array::GenericArray<T,N>>>::as_slice
00000000 g     F .text._ZN8heapless3vec82_$LT$impl$u20$heapless..i..Vec$LT$generic_array..GenericArray$LT$T$C$N$GT$$GT$$GT$8as_slice17he57974370e0ec6c6E	00000006 heapless::vec::<impl heapless::i::Vec<generic_array::GenericArray<T,N>>>::as_slice
00000000 g     F .text._ZN8heapless3vec82_$LT$impl$u20$heapless..i..Vec$LT$generic_array..GenericArray$LT$T$C$N$GT$$GT$$GT$8capacity17h2b06b85689482f7fE	00000004 heapless::vec::<impl heapless::i::Vec<generic_array::GenericArray<T,N>>>::capacity
00000000         *UND*	00000000 heapless::vec::<impl heapless::i::Vec<generic_array::GenericArray<T,N>>>::capacity
00000000 g     F .text._ZN8heapless3vec82_$LT$impl$u20$heapless..i..Vec$LT$generic_array..GenericArray$LT$T$C$N$GT$$GT$$GT$8capacity17haf35531c528a0eafE	00000004 heapless::vec::<impl heapless::i::Vec<generic_array::GenericArray<T,N>>>::capacity
00000000 g     F .text._ZN8heapless3vec82_$LT$impl$u20$heapless..i..Vec$LT$generic_array..GenericArray$LT$T$C$N$GT$$GT$$GT$8capacity17hd58769a41454fce1E	00000004 heapless::vec::<impl heapless::i::Vec<generic_array::GenericArray<T,N>>>::capacity
00000000         *UND*	00000000 heapless::string::<impl heapless::i::String<A>>::new
00000000         *UND*	00000000 <piet_embedded_graphics::text::EmbedFontBuilder as piet::text::FontBuilder>::build
00000000 g     F .text._ZN93_$LT$druid..win_handler..DruidHandler$LT$T$GT$$u20$as$u20$druid_shell..window..WinHandler$GT$5paint17ha518f7a42c3d8711E	0000001c <druid::win_handler::DruidHandler<T> as druid_shell::window::WinHandler>::paint
00000000 g     F .text._ZN93_$LT$heapless..vec..Vec$LT$T$C$N$GT$$u20$as$u20$core..iter..traits..collect..IntoIterator$GT$9into_iter17hee8926cd20b4fbfbE	00000010 <heapless::vec::Vec<T,N> as core::iter::traits::collect::IntoIterator>::into_iter
00000000 g     F .text._ZN95_$LT$druid..widget..label..LabelText$LT$T$GT$$u20$as$u20$core..convert..From$LT$$RF$str$GT$$GT$4from17hd7142237419afc4fE	00000058 <druid::widget::label::LabelText<T> as core::convert::From<&str>>::from
00000000         *UND*	00000000 <embedded_graphics::coord::internal_coord::Coord as core::ops::arith::AddAssign>::add_assign
00000000 g     F .text._ZN95_$LT$heapless..vec..IntoIter$LT$T$C$N$GT$$u20$as$u20$core..iter..traits..iterator..Iterator$GT$4next17hb897ae2a8c76f5bcE	00000034 <heapless::vec::IntoIter<T,N> as core::iter::traits::iterator::Iterator>::next
00000000 g     F .text._ZN97_$LT$core..iter..adapters..Map$LT$I$C$F$GT$$u20$as$u20$core..iter..traits..iterator..Iterator$GT$4fold17hbd3dc5733aeae539E	00000024 <core::iter::adapters::Map<I,F> as core::iter::traits::iterator::Iterator>::fold
00000000         *UND*	00000000 <kurbo::rounded_rect::RoundedRectPathIter as core::iter::traits::iterator::Iterator>::next
00000000         *UND*	00000000 <mynewt::hw::sensor_mgr::SensorsByDevname as core::iter::traits::iterator::Iterator>::next
00000000         *UND*	00000000 __aeabi_d2iz
00000000         *UND*	00000000 __aeabi_dadd
00000000         *UND*	00000000 __aeabi_dcmpeq
00000000         *UND*	00000000 __aeabi_dcmpgt
00000000         *UND*	00000000 __aeabi_ddiv
00000000         *UND*	00000000 __aeabi_dmul
00000000         *UND*	00000000 __aeabi_dsub
00000000         *UND*	00000000 __aeabi_memclr4
00000000         *UND*	00000000 __aeabi_memclr8
00000000         *UND*	00000000 __aeabi_memcpy
00000000         *UND*	00000000 __aeabi_memcpy4
00000000         *UND*	00000000 __aeabi_memcpy8
00000000         *UND*	00000000 __aeabi_memmove8
00000000         *UND*	00000000 fmax
00000000         *UND*	00000000 fmin
00000000         *UND*	00000000 hal_gpio_irq_enable
00000000         *UND*	00000000 hal_gpio_irq_init
00000000         *UND*	00000000 hal_i2c_master_read
00000000         *UND*	00000000 hal_i2c_master_write
00000000         *UND*	00000000 json_helper_close_array
00000000         *UND*	00000000 json_helper_object_array_end_item
00000000         *UND*	00000000 json_helper_object_array_start_item
00000000         *UND*	00000000 json_helper_set_array
00000000         *UND*	00000000 json_helper_set_int
00000000         *UND*	00000000 json_helper_set_text_string
00000000         *UND*	00000000 json_rep_end_root_object
00000000         *UND*	00000000 json_rep_start_root_object
00000000 g     F .text.main	0000025c main
00000000         *UND*	00000000 os_eventq_put
00000000 g     F .text.rust_begin_unwind	00000070 rust_begin_unwind
00000000         *UND*	00000000 start_ble



Disassembly of section .text._ZN105_$LT$$RF$mut$u20$heapless..vec..Vec$LT$T$C$N$GT$$u20$as$u20$core..iter..traits..collect..IntoIterator$GT$9into_iter17h19c47cdd155918faE:

00000000 <<&mut heapless::vec::Vec<T,N> as core::iter::traits::collect::IntoIterator>::into_iter>:
_ZN105_$LT$$RF$mut$u20$heapless..vec..Vec$LT$T$C$N$GT$$u20$as$u20$core..iter..traits..collect..IntoIterator$GT$9into_iter17h19c47cdd155918faE():
C:\Users\guppy\.cargo\registry\src\github.com-1ecc6299db9ec823\heapless-0.5.1\src/vec.rs:441
    N: ArrayLength<T>,
{
    type Item = &'a mut T;
    type IntoIter = slice::IterMut<'a, T>;

    fn into_iter(self) -> Self::IntoIter {
   0:	b580      	push	{r7, lr}
C:\Users\guppy\.cargo\registry\src\github.com-1ecc6299db9ec823\heapless-0.5.1\src/vec.rs:442
        self.iter_mut()
   2:	f7ff fffe 	bl	0 <<heapless::vec::Vec<T,N> as core::ops::deref::DerefMut>::deref_mut>
_ZN4core5slice29_$LT$impl$u20$$u5b$T$u5d$$GT$8iter_mut17hbceb0f1c5000d42bE():
/rustc/412f43ac5b4ae8c3599e71c6972112e9be4758fa/src/libcore/slice/mod.rs:653
   6:	eb00 1181 	add.w	r1, r0, r1, lsl #6
_ZN105_$LT$$RF$mut$u20$heapless..vec..Vec$LT$T$C$N$GT$$u20$as$u20$core..iter..traits..collect..IntoIterator$GT$9into_iter17h19c47cdd155918faE():
C:\Users\guppy\.cargo\registry\src\github.com-1ecc6299db9ec823\heapless-0.5.1\src/vec.rs:443
    }
   a:	bd80      	pop	{r7, pc}

Disassembly of section .text._ZN107_$LT$piet_embedded_graphics..context..EmbedRenderContext$u20$as$u20$piet..render_context..RenderContext$GT$4fill17ha3fdd11278ca53ceE:

00000000 <<piet_embedded_graphics::context::EmbedRenderContext as piet::render_context::RenderContext>::fill>:
_ZN107_$LT$piet_embedded_graphics..context..EmbedRenderContext$u20$as$u20$piet..render_context..RenderContext$GT$4fill17ha3fdd11278ca53ceE():
C:\piet-embedded\piet-embedded-graphics\src/context.rs:120
                }
            }
        }
    */ ////

    fn fill(&mut self, shape: impl Shape, brush: &impl IntoBrush<Self>) {
   0:	e92d 43f8 	stmdb	sp!, {r3, r4, r5, r6, r7, r8, r9, lr}
   4:	ed2d 0b1c 	vpush	{d0-d13}
   8:	460d      	mov	r5, r1
_ZN79_$LT$piet..color..Color$u20$as$u20$piet..render_context..IntoBrush$LT$P$GT$$GT$10make_brush17h52bbfb3e034ce340E():
C:\piet-embedded\piet\src/render_context.rs:209
}

impl<P: RenderContext> IntoBrush<P> for Color {
    fn make_brush<'a>(&'a self, piet: &mut P, _bbox: impl FnOnce() -> Rect) -> P::Brush { ////
    ////fn make_brush<'a>(&'a self, piet: &mut P, _bbox: impl FnOnce() -> Rect) -> Bow<'a, P::Brush> {
        piet.solid_brush(*self) ////
   a:	6811      	ldr	r1, [r2, #0]
   c:	4680      	mov	r8, r0
   e:	f7ff fffe 	bl	0 <<piet_embedded_graphics::context::EmbedRenderContext as piet::render_context::RenderContext>::solid_brush>
_ZN5kurbo4rect4Rect3abs17h220df1aff3366bfeE():
C:\kurbo-embedded\src/rect.rs:168
    ///
    /// The resulting rect has the same extents as the original, but is
    /// guaranteed to have non-negative width and height.
    #[inline]
    pub fn abs(&self) -> Rect {
        let Rect { x0, y0, x1, y1 } = *self;
  12:	ecb5 8b08 	vldmia	r5!, {d8-d11}
_ZN4core3f6421_$LT$impl$u20$f64$GT$3min17h41c142ec947da4e4E():
/rustc/412f43ac5b4ae8c3599e71c6972112e9be4758fa/src/libcore/num/f64.rs:407
  16:	eeb0 1a4a 	vmov.f32	s2, s20
  1a:	eef0 1a6a 	vmov.f32	s3, s21
_ZN107_$LT$piet_embedded_graphics..context..EmbedRenderContext$u20$as$u20$piet..render_context..RenderContext$GT$4fill17ha3fdd11278ca53ceE():
C:\piet-embedded\piet-embedded-graphics\src/context.rs:121
        let brush = brush.make_brush(self, || shape.bounding_box());
  1e:	9001      	str	r0, [sp, #4]
_ZN4core3f6421_$LT$impl$u20$f64$GT$3min17h41c142ec947da4e4E():
/rustc/412f43ac5b4ae8c3599e71c6972112e9be4758fa/src/libcore/num/f64.rs:407
  20:	eeb0 0a48 	vmov.f32	s0, s16
  24:	eef0 0a68 	vmov.f32	s1, s17
  28:	f7ff fffe 	bl	0 <fmin>
  2c:	eeb0 ca40 	vmov.f32	s24, s0
  30:	eeb0 1a4b 	vmov.f32	s2, s22
  34:	eeb0 0a49 	vmov.f32	s0, s18
  38:	eef0 ca60 	vmov.f32	s25, s1
  3c:	eef0 0a69 	vmov.f32	s1, s19
  40:	eef0 1a6b 	vmov.f32	s3, s23
  44:	f7ff fffe 	bl	0 <fmin>
  48:	eeb0 da40 	vmov.f32	s26, s0
_ZN4core3f6421_$LT$impl$u20$f64$GT$3max17h59360c18f4d72aa4E():
/rustc/412f43ac5b4ae8c3599e71c6972112e9be4758fa/src/libcore/num/f64.rs:391
  4c:	eeb0 1a4a 	vmov.f32	s2, s20
  50:	eeb0 0a48 	vmov.f32	s0, s16
_ZN4core3f6421_$LT$impl$u20$f64$GT$3min17h41c142ec947da4e4E():
/rustc/412f43ac5b4ae8c3599e71c6972112e9be4758fa/src/libcore/num/f64.rs:407
  54:	eef0 da60 	vmov.f32	s27, s1
_ZN4core3f6421_$LT$impl$u20$f64$GT$3max17h59360c18f4d72aa4E():
/rustc/412f43ac5b4ae8c3599e71c6972112e9be4758fa/src/libcore/num/f64.rs:391
  58:	eef0 0a68 	vmov.f32	s1, s17
  5c:	eef0 1a6a 	vmov.f32	s3, s21
  60:	f7ff fffe 	bl	0 <fmax>
  64:	eeb0 8a40 	vmov.f32	s16, s0
  68:	eeb0 1a4b 	vmov.f32	s2, s22
  6c:	eeb0 0a49 	vmov.f32	s0, s18
  70:	eef0 8a60 	vmov.f32	s17, s1
  74:	eef0 0a69 	vmov.f32	s1, s19
  78:	eef0 1a6b 	vmov.f32	s3, s23
  7c:	f7ff fffe 	bl	0 <fmax>
_ZN107_$LT$piet_embedded_graphics..context..EmbedRenderContext$u20$as$u20$piet..render_context..RenderContext$GT$4fill17ha3fdd11278ca53ceE():
C:\piet-embedded\piet-embedded-graphics\src/context.rs:127
        //  TODO: Handle Bezier path
        //  self.set_path(shape);

        //  TODO: For now we fill the bounding box
        let bounding_box = shape.bounding_box();
        let left_top = Coord::new(bounding_box.x0 as i32, bounding_box.y0 as i32);
  80:	ec51 0b1c 	vmov	r0, r1, d12
_ZN4core3f6421_$LT$impl$u20$f64$GT$3max17h59360c18f4d72aa4E():
/rustc/412f43ac5b4ae8c3599e71c6972112e9be4758fa/src/libcore/num/f64.rs:391
  84:	eeb0 9a40 	vmov.f32	s18, s0
  88:	eef0 9a60 	vmov.f32	s19, s1
_ZN107_$LT$piet_embedded_graphics..context..EmbedRenderContext$u20$as$u20$piet..render_context..RenderContext$GT$4fill17ha3fdd11278ca53ceE():
C:\piet-embedded\piet-embedded-graphics\src/context.rs:127
  8c:	f7ff fffe 	bl	0 <__aeabi_d2iz>
  90:	4605      	mov	r5, r0
  92:	ec51 0b1d 	vmov	r0, r1, d13
  96:	f7ff fffe 	bl	0 <__aeabi_d2iz>
  9a:	4601      	mov	r1, r0
  9c:	4628      	mov	r0, r5
  9e:	f7ff fffe 	bl	0 <embedded_graphics::coord::internal_coord::Coord::new>
  a2:	4681      	mov	r9, r0
  a4:	460e      	mov	r6, r1
C:\piet-embedded\piet-embedded-graphics\src/context.rs:128
        let right_btm = Coord::new(bounding_box.x1 as i32, bounding_box.y1 as i32);
  a6:	ec51 0b18 	vmov	r0, r1, d8
  aa:	f7ff fffe 	bl	0 <__aeabi_d2iz>
  ae:	4607      	mov	r7, r0
  b0:	ec51 0b19 	vmov	r0, r1, d9
  b4:	f7ff fffe 	bl	0 <__aeabi_d2iz>
  b8:	4601      	mov	r1, r0
  ba:	4638      	mov	r0, r7
  bc:	f7ff fffe 	bl	0 <embedded_graphics::coord::internal_coord::Coord::new>
  c0:	460c      	mov	r4, r1
  c2:	a901      	add	r1, sp, #4
  c4:	4607      	mov	r7, r0
C:\piet-embedded\piet-embedded-graphics\src/context.rs:131

        //  Get fill color
        let fill = self.convert_brush(&brush);
  c6:	4640      	mov	r0, r8
  c8:	f7ff fffe 	bl	0 <piet_embedded_graphics::context::EmbedRenderContext::convert_brush>
C:\piet-embedded\piet-embedded-graphics\src/context.rs:134

        //  Create rectangle with fill
        let rect = Rectangle::<Rgb565>
  cc:	9400      	str	r4, [sp, #0]
  ce:	ac09      	add	r4, sp, #36	; 0x24
C:\piet-embedded\piet-embedded-graphics\src/context.rs:131
        let fill = self.convert_brush(&brush);
  d0:	4605      	mov	r5, r0
C:\piet-embedded\piet-embedded-graphics\src/context.rs:134
        let rect = Rectangle::<Rgb565>
  d2:	4649      	mov	r1, r9
  d4:	4620      	mov	r0, r4
  d6:	4632      	mov	r2, r6
  d8:	463b      	mov	r3, r7
  da:	f7ff fffe 	bl	0 <embedded_graphics::primitives::rectangle::Rectangle<C>::new>
  de:	ae02      	add	r6, sp, #8
  e0:	4621      	mov	r1, r4
  e2:	2201      	movs	r2, #1
  e4:	462b      	mov	r3, r5
  e6:	4630      	mov	r0, r6
  e8:	f7ff fffe 	bl	0 <<embedded_graphics::primitives::rectangle::Rectangle<C> as embedded_graphics::style::WithStyle<C>>::fill>
  ec:	ac09      	add	r4, sp, #36	; 0x24
C:\piet-embedded\piet-embedded-graphics\src/context.rs:137
            ::new(left_top, right_btm)
            .fill(Some(fill));
        unsafe { display::DISPLAY.draw(rect); }
  ee:	4631      	mov	r1, r6
  f0:	221c      	movs	r2, #28
  f2:	4620      	mov	r0, r4
  f4:	f7ff fffe 	bl	0 <__aeabi_memcpy>
  f8:	4804      	ldr	r0, [pc, #16]	; (10c <<piet_embedded_graphics::context::EmbedRenderContext as piet::render_context::RenderContext>::fill+0x10c>)
  fa:	4621      	mov	r1, r4
  fc:	f7ff fffe 	bl	0 <<st7735_lcd::ST7735<SPI,DC,RST> as embedded_graphics::Drawing<embedded_graphics::pixelcolor::rgb565::Rgb565>>::draw>
C:\piet-embedded\piet-embedded-graphics\src/context.rs:141

        ////self.ctx.set_fill_rule(embedded_graphics::FillRule::Winding);
        ////self.ctx.fill();
    }
 100:	ecbd 0b1c 	vpop	{d0-d13}
 104:	b001      	add	sp, #4
 106:	e8bd 83f0 	ldmia.w	sp!, {r4, r5, r6, r7, r8, r9, pc}
 10a:	bf00      	nop
 10c:	00000000 	.word	0x00000000

Disassembly of section .text._ZN107_$LT$piet_embedded_graphics..context..EmbedRenderContext$u20$as$u20$piet..render_context..RenderContext$GT$6stroke17he362bf955985f021E:

00000000 <<piet_embedded_graphics::context::EmbedRenderContext as piet::render_context::RenderContext>::stroke>:
_ZN107_$LT$piet_embedded_graphics..context..EmbedRenderContext$u20$as$u20$piet..render_context..RenderContext$GT$6stroke17he362bf955985f021E():
C:\piet-embedded\piet-embedded-graphics\src/context.rs:163
        self.ctx.set_fill_rule(embedded_graphics::FillRule::Winding);
        self.ctx.clip();
        */
    }

    fn stroke(&mut self, shape: impl Shape, brush: &impl IntoBrush<Self>, width: f64) {
   0:	e92d 4ff8 	stmdb	sp!, {r3, r4, r5, r6, r7, r8, r9, sl, fp, lr}
   4:	ed2d 8b10 	vpush	{d8-d15}
   8:	f5ad 7d5e 	sub.w	sp, sp, #888	; 0x378
   c:	460c      	mov	r4, r1
_ZN79_$LT$piet..color..Color$u20$as$u20$piet..render_context..IntoBrush$LT$P$GT$$GT$10make_brush17h8ad706cafce2b625E():
C:\piet-embedded\piet\src/render_context.rs:209
   e:	6811      	ldr	r1, [r2, #0]
  10:	eeb0 8a40 	vmov.f32	s16, s0
  14:	4605      	mov	r5, r0
  16:	eef0 8a60 	vmov.f32	s17, s1
  1a:	f7ff fffe 	bl	0 <<piet_embedded_graphics::context::EmbedRenderContext as piet::render_context::RenderContext>::solid_brush>
  1e:	a901      	add	r1, sp, #4
_ZN107_$LT$piet_embedded_graphics..context..EmbedRenderContext$u20$as$u20$piet..render_context..RenderContext$GT$6stroke17he362bf955985f021E():
C:\piet-embedded\piet-embedded-graphics\src/context.rs:164
        let brush = brush.make_brush(self, || shape.bounding_box());
  20:	9001      	str	r0, [sp, #4]
C:\piet-embedded\piet-embedded-graphics\src/context.rs:167

        //  Get stroke color
        let stroke = self.convert_brush(&brush);
  22:	4628      	mov	r0, r5
  24:	f7ff fffe 	bl	0 <piet_embedded_graphics::context::EmbedRenderContext::convert_brush>
  28:	ad02      	add	r5, sp, #8
  2a:	ed9f 0b8f 	vldr	d0, [pc, #572]	; 268 <<piet_embedded_graphics::context::EmbedRenderContext as piet::render_context::RenderContext>::stroke+0x268>
  2e:	9000      	str	r0, [sp, #0]
C:\piet-embedded\piet-embedded-graphics\src/context.rs:171

        //  Draw a line for each segment of the Bezier path
        let mut last = Point::ZERO;
        for el in shape.to_bez_path(0.1) {  //  Previously 1e-3
  30:	4621      	mov	r1, r4
  32:	4628      	mov	r0, r5
  34:	f7ff fffe 	bl	0 <<kurbo::rounded_rect::RoundedRect as kurbo::shape::Shape>::to_bez_path>
  38:	f50d 78d0 	add.w	r8, sp, #416	; 0x1a0
  3c:	4629      	mov	r1, r5
  3e:	f44f 72cc 	mov.w	r2, #408	; 0x198
  42:	4640      	mov	r0, r8
  44:	f7ff fffe 	bl	0 <__aeabi_memcpy8>
  48:	ec51 0b18 	vmov	r0, r1, d8
  4c:	f7ff fffe 	bl	0 <__aeabi_d2iz>
  50:	ed9f fb87 	vldr	d15, [pc, #540]	; 270 <<piet_embedded_graphics::context::EmbedRenderContext as piet::render_context::RenderContext>::stroke+0x270>
  54:	f50d 794e 	add.w	r9, sp, #824	; 0x338
  58:	f109 0a19 	add.w	sl, r9, #25
  5c:	4683      	mov	fp, r0
  5e:	eeb0 ea4f 	vmov.f32	s28, s30
  62:	eef0 ea6f 	vmov.f32	s29, s31
  66:	4648      	mov	r0, r9
  68:	4641      	mov	r1, r8
  6a:	f7ff fffe 	bl	0 <<kurbo::rounded_rect::RoundedRectPathIter as core::iter::traits::iterator::Iterator>::next>
  6e:	e9dd 01ce 	ldrd	r0, r1, [sp, #824]	; 0x338
  72:	f080 0205 	eor.w	r2, r0, #5
  76:	4311      	orrs	r1, r2
  78:	f000 80ef 	beq.w	25a <<piet_embedded_graphics::context::EmbedRenderContext as piet::render_context::RenderContext>::stroke+0x25a>
  7c:	ed9d 8bda 	vldr	d8, [sp, #872]	; 0x368
  80:	ed9d bbd8 	vldr	d11, [sp, #864]	; 0x360
  84:	ed9d abd0 	vldr	d10, [sp, #832]	; 0x340
  88:	ed9d 9bd2 	vldr	d9, [sp, #840]	; 0x348
  8c:	ed9d cbd4 	vldr	d12, [sp, #848]	; 0x350
  90:	ed9d dbd6 	vldr	d13, [sp, #856]	; 0x358
  94:	e8df f000 	tbb	[pc, r0]
  98:	93520d04 	.word	0x93520d04
  9c:	0003      	.short	0x0003
  9e:	e7e2      	b.n	66 <<piet_embedded_graphics::context::EmbedRenderContext as piet::render_context::RenderContext>::stroke+0x66>
  a0:	eeb0 fa4a 	vmov.f32	s30, s20
  a4:	eeb0 ea49 	vmov.f32	s28, s18
  a8:	eef0 fa6a 	vmov.f32	s31, s21
  ac:	eef0 ea69 	vmov.f32	s29, s19
  b0:	e7d9      	b.n	66 <<piet_embedded_graphics::context::EmbedRenderContext as piet::render_context::RenderContext>::stroke+0x66>
C:\piet-embedded\piet-embedded-graphics\src/context.rs:179
                    ////self.ctx.move_to(p.x, p.y);
                    last = p;
                }
                PathEl::LineTo(p) => {
                    //  Draw line from last to p with styled stroke
                    let last_coord = Coord::new(last.x as i32, last.y as i32);
  b2:	ec51 0b1f 	vmov	r0, r1, d15
  b6:	f7ff fffe 	bl	0 <__aeabi_d2iz>
  ba:	4604      	mov	r4, r0
  bc:	ec51 0b1e 	vmov	r0, r1, d14
  c0:	f7ff fffe 	bl	0 <__aeabi_d2iz>
  c4:	4601      	mov	r1, r0
  c6:	4620      	mov	r0, r4
  c8:	f7ff fffe 	bl	0 <embedded_graphics::coord::internal_coord::Coord::new>
  cc:	4605      	mov	r5, r0
  ce:	460c      	mov	r4, r1
C:\piet-embedded\piet-embedded-graphics\src/context.rs:180
                    let p_coord = Coord::new(p.x as i32, p.y as i32);
  d0:	ec51 0b1a 	vmov	r0, r1, d10
  d4:	f7ff fffe 	bl	0 <__aeabi_d2iz>
  d8:	4606      	mov	r6, r0
  da:	ec51 0b19 	vmov	r0, r1, d9
  de:	f7ff fffe 	bl	0 <__aeabi_d2iz>
  e2:	4601      	mov	r1, r0
  e4:	4630      	mov	r0, r6
  e6:	f7ff fffe 	bl	0 <embedded_graphics::coord::internal_coord::Coord::new>
  ea:	4606      	mov	r6, r0
_ZN17embedded_graphics10primitives4line13Line$LT$C$GT$3new17h1cf03c853f1f61a0E():
C:\Users\guppy\.cargo\registry\src\github.com-1ecc6299db9ec823\embedded-graphics-0.5.2\src\primitives/line.rs:84
    /// Create a new line
    pub fn new(start: Coord, end: Coord) -> Self {
        Line {
            start,
            end,
            style: Style::default(),
  ec:	4648      	mov	r0, r9
  ee:	4647      	mov	r7, r8
_ZN107_$LT$piet_embedded_graphics..context..EmbedRenderContext$u20$as$u20$piet..render_context..RenderContext$GT$6stroke17he362bf955985f021E():
C:\piet-embedded\piet-embedded-graphics\src/context.rs:180
  f0:	4688      	mov	r8, r1
_ZN17embedded_graphics10primitives4line13Line$LT$C$GT$3new17h1cf03c853f1f61a0E():
C:\Users\guppy\.cargo\registry\src\github.com-1ecc6299db9ec823\embedded-graphics-0.5.2\src\primitives/line.rs:84
  f2:	f7ff fffe 	bl	0 <<embedded_graphics::style::Style<P> as core::default::Default>::default>
C:\Users\guppy\.cargo\registry\src\github.com-1ecc6299db9ec823\embedded-graphics-0.5.2\src\primitives/line.rs:81
        Line {
  f6:	f89d 0341 	ldrb.w	r0, [sp, #833]	; 0x341
  fa:	eeb0 fa4a 	vmov.f32	s30, s20
  fe:	f88d 0375 	strb.w	r0, [sp, #885]	; 0x375
 102:	eeb0 ea49 	vmov.f32	s28, s18
_ZN115_$LT$embedded_graphics..primitives..line..Line$LT$C$GT$$u20$as$u20$embedded_graphics..style..WithStyle$LT$C$GT$$GT$6stroke17he2ee6f01753e4908E():
C:\Users\guppy\.cargo\registry\src\github.com-1ecc6299db9ec823\embedded-graphics-0.5.2\src\primitives/line.rs:102
    }

    fn stroke(mut self, color: Option<C>) -> Self {
        self.style.stroke_color = color;

        self
 106:	f89d 0377 	ldrb.w	r0, [sp, #887]	; 0x377
 10a:	eef0 fa6a 	vmov.f32	s31, s21
_ZN17embedded_graphics10primitives4line13Line$LT$C$GT$3new17h1cf03c853f1f61a0E():
C:\Users\guppy\.cargo\registry\src\github.com-1ecc6299db9ec823\embedded-graphics-0.5.2\src\primitives/line.rs:81
        Line {
 10e:	99ce      	ldr	r1, [sp, #824]	; 0x338
 110:	eef0 ea69 	vmov.f32	s29, s19
_ZN115_$LT$embedded_graphics..primitives..line..Line$LT$C$GT$$u20$as$u20$embedded_graphics..style..WithStyle$LT$C$GT$$GT$6stroke17he2ee6f01753e4908E():
C:\Users\guppy\.cargo\registry\src\github.com-1ecc6299db9ec823\embedded-graphics-0.5.2\src\primitives/line.rs:102
        self
 114:	f88d 0374 	strb.w	r0, [sp, #884]	; 0x374
 118:	f8bd 0375 	ldrh.w	r0, [sp, #885]	; 0x375
_ZN107_$LT$piet_embedded_graphics..context..EmbedRenderContext$u20$as$u20$piet..render_context..RenderContext$GT$6stroke17he362bf955985f021E():
C:\piet-embedded\piet-embedded-graphics\src/context.rs:185
                    let line = Line::<Rgb565>
                        ::new(last_coord, p_coord)
                        .stroke(Some(stroke))
                        .stroke_width(width as u8);
                    unsafe { display::DISPLAY.draw(line); }
 11c:	9a00      	ldr	r2, [sp, #0]
 11e:	f88d b350 	strb.w	fp, [sp, #848]	; 0x350
 122:	f8ad 234e 	strh.w	r2, [sp, #846]	; 0x34e
 126:	2201      	movs	r2, #1
_ZN115_$LT$embedded_graphics..primitives..line..Line$LT$C$GT$$u20$as$u20$embedded_graphics..style..WithStyle$LT$C$GT$$GT$6stroke17he2ee6f01753e4908E():
C:\Users\guppy\.cargo\registry\src\github.com-1ecc6299db9ec823\embedded-graphics-0.5.2\src\primitives/line.rs:102
 128:	f8ad 0372 	strh.w	r0, [sp, #882]	; 0x372
_ZN107_$LT$piet_embedded_graphics..context..EmbedRenderContext$u20$as$u20$piet..render_context..RenderContext$GT$6stroke17he362bf955985f021E():
C:\piet-embedded\piet-embedded-graphics\src/context.rs:185
 12c:	f8ad 234c 	strh.w	r2, [sp, #844]	; 0x34c
 130:	e9cd 81d1 	strd	r8, r1, [sp, #836]	; 0x344
 134:	46b8      	mov	r8, r7
 136:	96d0      	str	r6, [sp, #832]	; 0x340
 138:	a9ce      	add	r1, sp, #824	; 0x338
 13a:	e082      	b.n	242 <<piet_embedded_graphics::context::EmbedRenderContext as piet::render_context::RenderContext>::stroke+0x242>
C:\piet-embedded\piet-embedded-graphics\src/context.rs:192
                    last = p;
                }
                PathEl::QuadTo(_p1, p2) => {
                    //  TODO: Handle quad
                    //  Draw line from last to p2 with styled stroke
                    let last_coord = Coord::new(last.x as i32, last.y as i32);
 13c:	ec51 0b1f 	vmov	r0, r1, d15
 140:	f7ff fffe 	bl	0 <__aeabi_d2iz>
 144:	4604      	mov	r4, r0
 146:	ec51 0b1e 	vmov	r0, r1, d14
 14a:	f7ff fffe 	bl	0 <__aeabi_d2iz>
 14e:	4601      	mov	r1, r0
 150:	4620      	mov	r0, r4
 152:	f7ff fffe 	bl	0 <embedded_graphics::coord::internal_coord::Coord::new>
 156:	4605      	mov	r5, r0
 158:	460c      	mov	r4, r1
C:\piet-embedded\piet-embedded-graphics\src/context.rs:193
                    let p2_coord = Coord::new(p2.x as i32, p2.y as i32);
 15a:	ec51 0b1c 	vmov	r0, r1, d12
 15e:	f7ff fffe 	bl	0 <__aeabi_d2iz>
 162:	4606      	mov	r6, r0
 164:	ec51 0b1d 	vmov	r0, r1, d13
 168:	f7ff fffe 	bl	0 <__aeabi_d2iz>
 16c:	4601      	mov	r1, r0
 16e:	4630      	mov	r0, r6
 170:	f7ff fffe 	bl	0 <embedded_graphics::coord::internal_coord::Coord::new>
 174:	4606      	mov	r6, r0
_ZN17embedded_graphics10primitives4line13Line$LT$C$GT$3new17h1cf03c853f1f61a0E():
C:\Users\guppy\.cargo\registry\src\github.com-1ecc6299db9ec823\embedded-graphics-0.5.2\src\primitives/line.rs:84
            style: Style::default(),
 176:	4648      	mov	r0, r9
_ZN107_$LT$piet_embedded_graphics..context..EmbedRenderContext$u20$as$u20$piet..render_context..RenderContext$GT$6stroke17he362bf955985f021E():
C:\piet-embedded\piet-embedded-graphics\src/context.rs:193
 178:	460f      	mov	r7, r1
_ZN17embedded_graphics10primitives4line13Line$LT$C$GT$3new17h1cf03c853f1f61a0E():
C:\Users\guppy\.cargo\registry\src\github.com-1ecc6299db9ec823\embedded-graphics-0.5.2\src\primitives/line.rs:84
 17a:	f7ff fffe 	bl	0 <<embedded_graphics::style::Style<P> as core::default::Default>::default>
C:\Users\guppy\.cargo\registry\src\github.com-1ecc6299db9ec823\embedded-graphics-0.5.2\src\primitives/line.rs:81
        Line {
 17e:	f89d 0341 	ldrb.w	r0, [sp, #833]	; 0x341
 182:	eeb0 fa4c 	vmov.f32	s30, s24
 186:	f88d 0375 	strb.w	r0, [sp, #885]	; 0x375
 18a:	eeb0 ea4d 	vmov.f32	s28, s26
_ZN115_$LT$embedded_graphics..primitives..line..Line$LT$C$GT$$u20$as$u20$embedded_graphics..style..WithStyle$LT$C$GT$$GT$6stroke17he2ee6f01753e4908E():
C:\Users\guppy\.cargo\registry\src\github.com-1ecc6299db9ec823\embedded-graphics-0.5.2\src\primitives/line.rs:102
        self
 18e:	f89d 0377 	ldrb.w	r0, [sp, #887]	; 0x377
 192:	eef0 fa6c 	vmov.f32	s31, s25
 196:	f88d 0374 	strb.w	r0, [sp, #884]	; 0x374
 19a:	eef0 ea6d 	vmov.f32	s29, s27
 19e:	f8bd 0375 	ldrh.w	r0, [sp, #885]	; 0x375
_ZN107_$LT$piet_embedded_graphics..context..EmbedRenderContext$u20$as$u20$piet..render_context..RenderContext$GT$6stroke17he362bf955985f021E():
C:\piet-embedded\piet-embedded-graphics\src/context.rs:198
                    let line = Line::<Rgb565>
                        ::new(last_coord, p2_coord)
                        .stroke(Some(stroke))
                        .stroke_width(width as u8);
                    unsafe { display::DISPLAY.draw(line); }
 1a2:	9a00      	ldr	r2, [sp, #0]
_ZN17embedded_graphics10primitives4line13Line$LT$C$GT$3new17h1cf03c853f1f61a0E():
C:\Users\guppy\.cargo\registry\src\github.com-1ecc6299db9ec823\embedded-graphics-0.5.2\src\primitives/line.rs:81
        Line {
 1a4:	99ce      	ldr	r1, [sp, #824]	; 0x338
_ZN107_$LT$piet_embedded_graphics..context..EmbedRenderContext$u20$as$u20$piet..render_context..RenderContext$GT$6stroke17he362bf955985f021E():
C:\piet-embedded\piet-embedded-graphics\src/context.rs:198
 1a6:	f88d b350 	strb.w	fp, [sp, #848]	; 0x350
 1aa:	f8ad 234e 	strh.w	r2, [sp, #846]	; 0x34e
 1ae:	2201      	movs	r2, #1
_ZN115_$LT$embedded_graphics..primitives..line..Line$LT$C$GT$$u20$as$u20$embedded_graphics..style..WithStyle$LT$C$GT$$GT$6stroke17he2ee6f01753e4908E():
C:\Users\guppy\.cargo\registry\src\github.com-1ecc6299db9ec823\embedded-graphics-0.5.2\src\primitives/line.rs:102
        self
 1b0:	f8ad 0372 	strh.w	r0, [sp, #882]	; 0x372
_ZN107_$LT$piet_embedded_graphics..context..EmbedRenderContext$u20$as$u20$piet..render_context..RenderContext$GT$6stroke17he362bf955985f021E():
C:\piet-embedded\piet-embedded-graphics\src/context.rs:198
 1b4:	f8ad 234c 	strh.w	r2, [sp, #844]	; 0x34c
 1b8:	91d2      	str	r1, [sp, #840]	; 0x348
 1ba:	a9ce      	add	r1, sp, #824	; 0x338
 1bc:	e03f      	b.n	23e <<piet_embedded_graphics::context::EmbedRenderContext as piet::render_context::RenderContext>::stroke+0x23e>
C:\piet-embedded\piet-embedded-graphics\src/context.rs:208
                    last = p2;
                }
                PathEl::CurveTo(_p1, _p2, p3) => {
                    //  TODO: Handle curve
                    //  Draw line from last to p3 with styled stroke
                    let last_coord = Coord::new(last.x as i32, last.y as i32);
 1be:	ec51 0b1f 	vmov	r0, r1, d15
 1c2:	f7ff fffe 	bl	0 <__aeabi_d2iz>
 1c6:	4604      	mov	r4, r0
 1c8:	ec51 0b1e 	vmov	r0, r1, d14
 1cc:	f7ff fffe 	bl	0 <__aeabi_d2iz>
 1d0:	4601      	mov	r1, r0
 1d2:	4620      	mov	r0, r4
 1d4:	f7ff fffe 	bl	0 <embedded_graphics::coord::internal_coord::Coord::new>
 1d8:	4605      	mov	r5, r0
 1da:	460c      	mov	r4, r1
C:\piet-embedded\piet-embedded-graphics\src/context.rs:209
                    let p3_coord = Coord::new(p3.x as i32, p3.y as i32);
 1dc:	ec51 0b1b 	vmov	r0, r1, d11
 1e0:	f7ff fffe 	bl	0 <__aeabi_d2iz>
 1e4:	4606      	mov	r6, r0
 1e6:	ec51 0b18 	vmov	r0, r1, d8
 1ea:	f7ff fffe 	bl	0 <__aeabi_d2iz>
 1ee:	4601      	mov	r1, r0
 1f0:	4630      	mov	r0, r6
 1f2:	f7ff fffe 	bl	0 <embedded_graphics::coord::internal_coord::Coord::new>
 1f6:	4606      	mov	r6, r0
_ZN17embedded_graphics10primitives4line13Line$LT$C$GT$3new17h1cf03c853f1f61a0E():
C:\Users\guppy\.cargo\registry\src\github.com-1ecc6299db9ec823\embedded-graphics-0.5.2\src\primitives/line.rs:84
            style: Style::default(),
 1f8:	4648      	mov	r0, r9
_ZN107_$LT$piet_embedded_graphics..context..EmbedRenderContext$u20$as$u20$piet..render_context..RenderContext$GT$6stroke17he362bf955985f021E():
C:\piet-embedded\piet-embedded-graphics\src/context.rs:209
 1fa:	460f      	mov	r7, r1
_ZN17embedded_graphics10primitives4line13Line$LT$C$GT$3new17h1cf03c853f1f61a0E():
C:\Users\guppy\.cargo\registry\src\github.com-1ecc6299db9ec823\embedded-graphics-0.5.2\src\primitives/line.rs:84
 1fc:	f7ff fffe 	bl	0 <<embedded_graphics::style::Style<P> as core::default::Default>::default>
 200:	eeb0 fa4b 	vmov.f32	s30, s22
C:\Users\guppy\.cargo\registry\src\github.com-1ecc6299db9ec823\embedded-graphics-0.5.2\src\primitives/line.rs:81
        Line {
 204:	f89d 0341 	ldrb.w	r0, [sp, #833]	; 0x341
 208:	eeb0 ea48 	vmov.f32	s28, s16
 20c:	f88d 0375 	strb.w	r0, [sp, #885]	; 0x375
 210:	eef0 fa6b 	vmov.f32	s31, s23
_ZN115_$LT$embedded_graphics..primitives..line..Line$LT$C$GT$$u20$as$u20$embedded_graphics..style..WithStyle$LT$C$GT$$GT$6stroke17he2ee6f01753e4908E():
C:\Users\guppy\.cargo\registry\src\github.com-1ecc6299db9ec823\embedded-graphics-0.5.2\src\primitives/line.rs:102
        self
 214:	f89d 0377 	ldrb.w	r0, [sp, #887]	; 0x377
 218:	eef0 ea68 	vmov.f32	s29, s17
_ZN107_$LT$piet_embedded_graphics..context..EmbedRenderContext$u20$as$u20$piet..render_context..RenderContext$GT$6stroke17he362bf955985f021E():
C:\piet-embedded\piet-embedded-graphics\src/context.rs:214
                    let line = Line::<Rgb565>
                        ::new(last_coord, p3_coord)
                        .stroke(Some(stroke))
                        .stroke_width(width as u8);
                    unsafe { display::DISPLAY.draw(line); }
 21c:	9a00      	ldr	r2, [sp, #0]
_ZN115_$LT$embedded_graphics..primitives..line..Line$LT$C$GT$$u20$as$u20$embedded_graphics..style..WithStyle$LT$C$GT$$GT$6stroke17he2ee6f01753e4908E():
C:\Users\guppy\.cargo\registry\src\github.com-1ecc6299db9ec823\embedded-graphics-0.5.2\src\primitives/line.rs:102
 21e:	f88d 0374 	strb.w	r0, [sp, #884]	; 0x374
 222:	f8bd 0375 	ldrh.w	r0, [sp, #885]	; 0x375
_ZN17embedded_graphics10primitives4line13Line$LT$C$GT$3new17h1cf03c853f1f61a0E():
C:\Users\guppy\.cargo\registry\src\github.com-1ecc6299db9ec823\embedded-graphics-0.5.2\src\primitives/line.rs:81
        Line {
 226:	99ce      	ldr	r1, [sp, #824]	; 0x338
_ZN107_$LT$piet_embedded_graphics..context..EmbedRenderContext$u20$as$u20$piet..render_context..RenderContext$GT$6stroke17he362bf955985f021E():
C:\piet-embedded\piet-embedded-graphics\src/context.rs:214
 228:	f88d b350 	strb.w	fp, [sp, #848]	; 0x350
 22c:	f8ad 234e 	strh.w	r2, [sp, #846]	; 0x34e
 230:	2201      	movs	r2, #1
 232:	f8ad 234c 	strh.w	r2, [sp, #844]	; 0x34c
 236:	91d2      	str	r1, [sp, #840]	; 0x348
 238:	a9ce      	add	r1, sp, #824	; 0x338
_ZN115_$LT$embedded_graphics..primitives..line..Line$LT$C$GT$$u20$as$u20$embedded_graphics..style..WithStyle$LT$C$GT$$GT$6stroke17he2ee6f01753e4908E():
C:\Users\guppy\.cargo\registry\src\github.com-1ecc6299db9ec823\embedded-graphics-0.5.2\src\primitives/line.rs:102
        self
 23a:	f8ad 0372 	strh.w	r0, [sp, #882]	; 0x372
_ZN107_$LT$piet_embedded_graphics..context..EmbedRenderContext$u20$as$u20$piet..render_context..RenderContext$GT$6stroke17he362bf955985f021E():
 23e:	e9cd 67d0 	strd	r6, r7, [sp, #832]	; 0x340
 242:	e9cd 54ce 	strd	r5, r4, [sp, #824]	; 0x338
 246:	f8aa 0000 	strh.w	r0, [sl]
 24a:	f89d 0374 	ldrb.w	r0, [sp, #884]	; 0x374
 24e:	f88a 0002 	strb.w	r0, [sl, #2]
 252:	4809      	ldr	r0, [pc, #36]	; (28 <<piet_embedded_graphics::context::EmbedRenderContext as piet::render_context::RenderContext>::stroke+0x28>)
 254:	f7ff fffe 	bl	0 <<piet_embedded_graphics::context::EmbedRenderContext as piet::render_context::RenderContext>::stroke>
 258:	e705      	b.n	66 <<piet_embedded_graphics::context::EmbedRenderContext as piet::render_context::RenderContext>::stroke+0x66>
C:\piet-embedded\piet-embedded-graphics\src/context.rs:225
                }
            }
        }

        ////self.ctx.stroke();
    }
 25a:	f50d 7d5e 	add.w	sp, sp, #888	; 0x378
 25e:	ecbd 8b10 	vpop	{d8-d15}
 262:	b001      	add	sp, #4
 264:	e8bd 8ff0 	ldmia.w	sp!, {r4, r5, r6, r7, r8, r9, sl, fp, pc}
 268:	9999999a 	.word	0x9999999a
 26c:	3fb99999 	.word	0x3fb99999
	...

Disassembly of section .text._ZN107_$LT$piet_embedded_graphics..context..EmbedRenderContext$u20$as$u20$piet..render_context..RenderContext$GT$9draw_text17h99e439e6e0d1b1d5E:

00000000 <<piet_embedded_graphics::context::EmbedRenderContext as piet::render_context::RenderContext>::draw_text>:
_ZN107_$LT$piet_embedded_graphics..context..EmbedRenderContext$u20$as$u20$piet..render_context..RenderContext$GT$9draw_text17h99e439e6e0d1b1d5E():
C:\piet-embedded\piet-embedded-graphics\src/context.rs:248

    fn text(&mut self) -> &mut Self::Text {
        unsafe { &mut EMBED_TEXT }
    }

    fn draw_text(
   0:	b570      	push	{r4, r5, r6, lr}
   2:	ed2d 8b04 	vpush	{d8-d9}
   6:	b096      	sub	sp, #88	; 0x58
   8:	4605      	mov	r5, r0
   a:	eeb0 8a41 	vmov.f32	s16, s2
   e:	eeb0 9a40 	vmov.f32	s18, s0
  12:	460c      	mov	r4, r1
C:\piet-embedded\piet-embedded-graphics\src/context.rs:254
        &mut self,
        layout: &Self::TextLayout,
        pos: impl Into<Point>,
        brush: &impl IntoBrush<Self>,
    ) {
        let brush = brush.make_brush(self, || Rect::ZERO);
  14:	4610      	mov	r0, r2
  16:	4629      	mov	r1, r5
  18:	eef0 8a61 	vmov.f32	s17, s3
  1c:	eef0 9a60 	vmov.f32	s19, s1
  20:	f7ff fffe 	bl	0 <<piet_embedded_graphics::context::EmbedRenderContext as piet::render_context::RenderContext>::draw_text>
C:\piet-embedded\piet-embedded-graphics\src/context.rs:255
        let pos = pos.into();
  24:	eeb0 0a49 	vmov.f32	s0, s18
C:\piet-embedded\piet-embedded-graphics\src/context.rs:254
        let brush = brush.make_brush(self, || Rect::ZERO);
  28:	9000      	str	r0, [sp, #0]
C:\piet-embedded\piet-embedded-graphics\src/context.rs:255
        let pos = pos.into();
  2a:	eeb0 1a48 	vmov.f32	s2, s16
  2e:	eef0 0a69 	vmov.f32	s1, s19
  32:	eef0 1a68 	vmov.f32	s3, s17
  36:	f7ff fffe 	bl	0 <<T as core::convert::Into<U>>::into>
  3a:	eeb0 8a40 	vmov.f32	s16, s0
  3e:	4669      	mov	r1, sp
  40:	eeb0 9a41 	vmov.f32	s18, s2
C:\piet-embedded\piet-embedded-graphics\src/context.rs:258

        //  Get stroke color
        let stroke = self.convert_brush(&brush);
  44:	4628      	mov	r0, r5
C:\piet-embedded\piet-embedded-graphics\src/context.rs:255
        let pos = pos.into();
  46:	eef0 8a60 	vmov.f32	s17, s1
  4a:	eef0 9a61 	vmov.f32	s19, s3
C:\piet-embedded\piet-embedded-graphics\src/context.rs:258
        let stroke = self.convert_brush(&brush);
  4e:	f7ff fffe 	bl	0 <piet_embedded_graphics::context::EmbedRenderContext::convert_brush>
  52:	4605      	mov	r5, r0
C:\piet-embedded\piet-embedded-graphics\src/context.rs:262

        //  Create text
        let text = embedded_graphics::fonts::Font12x16::<Rgb565>
            ::render_str(&layout.text)
  54:	4620      	mov	r0, r4
  56:	f7ff fffe 	bl	0 <<heapless::string::String<N> as core::ops::deref::Deref>::deref>
  5a:	ae0f      	add	r6, sp, #60	; 0x3c
  5c:	4602      	mov	r2, r0
  5e:	460b      	mov	r3, r1
C:\piet-embedded\piet-embedded-graphics\src/context.rs:261
        let text = embedded_graphics::fonts::Font12x16::<Rgb565>
  60:	4611      	mov	r1, r2
  62:	4630      	mov	r0, r6
  64:	461a      	mov	r2, r3
  66:	f7ff fffe 	bl	0 <<embedded_graphics::fonts::font_builder::FontBuilder<C,Conf> as embedded_graphics::fonts::Font<C>>::render_str>
  6a:	ac08      	add	r4, sp, #32
  6c:	4631      	mov	r1, r6
  6e:	2201      	movs	r2, #1
  70:	462b      	mov	r3, r5
  72:	4620      	mov	r0, r4
  74:	f7ff fffe 	bl	0 <<embedded_graphics::fonts::font_builder::FontBuilder<C,Conf> as embedded_graphics::style::WithStyle<C>>::stroke>
C:\piet-embedded\piet-embedded-graphics\src/context.rs:264
            .stroke(Some(stroke))
            .translate(Coord::new(pos.x as i32, pos.y as i32));
  78:	ec51 0b18 	vmov	r0, r1, d8
  7c:	f7ff fffe 	bl	0 <__aeabi_d2iz>
  80:	4605      	mov	r5, r0
  82:	ec51 0b19 	vmov	r0, r1, d9
  86:	f7ff fffe 	bl	0 <__aeabi_d2iz>
  8a:	4601      	mov	r1, r0
  8c:	4628      	mov	r0, r5
  8e:	f7ff fffe 	bl	0 <embedded_graphics::coord::internal_coord::Coord::new>
  92:	ad01      	add	r5, sp, #4
  94:	4602      	mov	r2, r0
  96:	460b      	mov	r3, r1
C:\piet-embedded\piet-embedded-graphics\src/context.rs:261
        let text = embedded_graphics::fonts::Font12x16::<Rgb565>
  98:	4621      	mov	r1, r4
  9a:	4628      	mov	r0, r5
  9c:	f7ff fffe 	bl	0 <<embedded_graphics::fonts::font_builder::FontBuilder<C,Conf> as embedded_graphics::transform::Transform>::translate>
  a0:	ac0f      	add	r4, sp, #60	; 0x3c
C:\piet-embedded\piet-embedded-graphics\src/context.rs:267
        
        //  Render text to display
        unsafe { display::DISPLAY.draw(text); }
  a2:	4629      	mov	r1, r5
  a4:	221c      	movs	r2, #28
  a6:	4620      	mov	r0, r4
  a8:	f7ff fffe 	bl	0 <__aeabi_memcpy>
  ac:	4803      	ldr	r0, [pc, #12]	; (bc <<piet_embedded_graphics::context::EmbedRenderContext as piet::render_context::RenderContext>::draw_text+0xbc>)
  ae:	4621      	mov	r1, r4
  b0:	f7ff fffe 	bl	0 <<st7735_lcd::ST7735<SPI,DC,RST> as embedded_graphics::Drawing<embedded_graphics::pixelcolor::rgb565::Rgb565>>::draw>
C:\piet-embedded\piet-embedded-graphics\src/context.rs:276
        self.ctx.set_scaled_font(&layout.font);
        self.set_brush(&brush);
        self.ctx.move_to(pos.x, pos.y);
        self.ctx.show_text(&layout.text);
        */
    }
  b4:	b016      	add	sp, #88	; 0x58
  b6:	ecbd 8b04 	vpop	{d8-d9}
  ba:	bd70      	pop	{r4, r5, r6, pc}
  bc:	00000000 	.word	0x00000000

Disassembly of section .text._ZN112_$LT$embedded_graphics..primitives..line..Line$LT$C$GT$$u20$as$u20$core..iter..traits..collect..IntoIterator$GT$9into_iter17h5c7aa4987d028b6fE:

00000000 <<embedded_graphics::primitives::line::Line<C> as core::iter::traits::collect::IntoIterator>::into_iter>:
_ZN112_$LT$embedded_graphics..primitives..line..Line$LT$C$GT$$u20$as$u20$core..iter..traits..collect..IntoIterator$GT$9into_iter17h5c7aa4987d028b6fE():
C:\Users\guppy\.cargo\registry\src\github.com-1ecc6299db9ec823\embedded-graphics-0.5.2\src\primitives/line.rs:125
    C: PixelColor,
{
    type Item = Pixel<C>;
    type IntoIter = LineIterator<C>;

    fn into_iter(self) -> Self::IntoIter {
   0:	b580      	push	{r7, lr}
C:\Users\guppy\.cargo\registry\src\github.com-1ecc6299db9ec823\embedded-graphics-0.5.2\src\primitives/line.rs:126
        (&self).into_iter()
   2:	f7ff fffe 	bl	0 <<embedded_graphics::primitives::line::Line<C> as core::iter::traits::collect::IntoIterator>::into_iter>
C:\Users\guppy\.cargo\registry\src\github.com-1ecc6299db9ec823\embedded-graphics-0.5.2\src\primitives/line.rs:127
    }
   6:	bd80      	pop	{r7, pc}

Disassembly of section .text._ZN115_$LT$embedded_graphics..primitives..line..Line$LT$C$GT$$u20$as$u20$embedded_graphics..style..WithStyle$LT$C$GT$$GT$12stroke_width17h12b44aa4ec6be4f3E:

00000000 <<embedded_graphics::primitives::line::Line<C> as embedded_graphics::style::WithStyle<C>>::stroke_width>:
_ZN115_$LT$embedded_graphics..primitives..line..Line$LT$C$GT$$u20$as$u20$embedded_graphics..style..WithStyle$LT$C$GT$$GT$12stroke_width17h12b44aa4ec6be4f3E():
C:\Users\guppy\.cargo\registry\src\github.com-1ecc6299db9ec823\embedded-graphics-0.5.2\src\primitives/line.rs:105
    fn stroke_width(mut self, width: u8) -> Self {
   0:	b580      	push	{r7, lr}
C:\Users\guppy\.cargo\registry\src\github.com-1ecc6299db9ec823\embedded-graphics-0.5.2\src\primitives/line.rs:106
        self.style.stroke_width = width;
   2:	760a      	strb	r2, [r1, #24]
C:\Users\guppy\.cargo\registry\src\github.com-1ecc6299db9ec823\embedded-graphics-0.5.2\src\primitives/line.rs:108
        self
   4:	221c      	movs	r2, #28
   6:	f7ff fffe 	bl	0 <__aeabi_memcpy>
C:\Users\guppy\.cargo\registry\src\github.com-1ecc6299db9ec823\embedded-graphics-0.5.2\src\primitives/line.rs:109
    }
   a:	bd80      	pop	{r7, pc}

Disassembly of section .text._ZN115_$LT$embedded_graphics..primitives..line..Line$LT$C$GT$$u20$as$u20$embedded_graphics..style..WithStyle$LT$C$GT$$GT$6stroke17he2ee6f01753e4908E:

00000000 <<embedded_graphics::primitives::line::Line<C> as embedded_graphics::style::WithStyle<C>>::stroke>:
_ZN115_$LT$embedded_graphics..primitives..line..Line$LT$C$GT$$u20$as$u20$embedded_graphics..style..WithStyle$LT$C$GT$$GT$6stroke17he2ee6f01753e4908E():
C:\Users\guppy\.cargo\registry\src\github.com-1ecc6299db9ec823\embedded-graphics-0.5.2\src\primitives/line.rs:99
    fn stroke(mut self, color: Option<C>) -> Self {
   0:	b580      	push	{r7, lr}
C:\Users\guppy\.cargo\registry\src\github.com-1ecc6299db9ec823\embedded-graphics-0.5.2\src\primitives/line.rs:100
        self.style.stroke_color = color;
   2:	82cb      	strh	r3, [r1, #22]
   4:	828a      	strh	r2, [r1, #20]
C:\Users\guppy\.cargo\registry\src\github.com-1ecc6299db9ec823\embedded-graphics-0.5.2\src\primitives/line.rs:102
        self
   6:	221c      	movs	r2, #28
   8:	f7ff fffe 	bl	0 <__aeabi_memcpy>
C:\Users\guppy\.cargo\registry\src\github.com-1ecc6299db9ec823\embedded-graphics-0.5.2\src\primitives/line.rs:103
    }
   c:	bd80      	pop	{r7, pc}

Disassembly of section .text._ZN116_$LT$$RF$embedded_graphics..primitives..line..Line$LT$C$GT$$u20$as$u20$core..iter..traits..collect..IntoIterator$GT$9into_iter17h471c1dbc9fca74ffE:

00000000 <<&embedded_graphics::primitives::line::Line<C> as core::iter::traits::collect::IntoIterator>::into_iter>:
_ZN116_$LT$$RF$embedded_graphics..primitives..line..Line$LT$C$GT$$u20$as$u20$core..iter..traits..collect..IntoIterator$GT$9into_iter17h471c1dbc9fca74ffE():
C:\Users\guppy\.cargo\registry\src\github.com-1ecc6299db9ec823\embedded-graphics-0.5.2\src\primitives/line.rs:134

impl<'a, C: PixelColor> IntoIterator for &'a Line<C> {
    type Item = Pixel<C>;
    type IntoIter = LineIterator<C>;

    fn into_iter(self) -> Self::IntoIter {
   0:	e92d 4ff0 	stmdb	sp!, {r4, r5, r6, r7, r8, r9, sl, fp, lr}
   4:	b08b      	sub	sp, #44	; 0x2c
   6:	460d      	mov	r5, r1
C:\Users\guppy\.cargo\registry\src\github.com-1ecc6299db9ec823\embedded-graphics-0.5.2\src\primitives/line.rs:135
        let mut delta = self.end - self.start;
   8:	e9d1 2300 	ldrd	r2, r3, [r1]
   c:	46a9      	mov	r9, r5
   e:	4682      	mov	sl, r0
  10:	68c9      	ldr	r1, [r1, #12]
  12:	f859 0f08 	ldr.w	r0, [r9, #8]!
  16:	f7ff fffe 	bl	0 <<embedded_graphics::coord::internal_coord::Coord as core::ops::arith::Sub>::sub>
  1a:	e9cd 0106 	strd	r0, r1, [sp, #24]
  1e:	a806      	add	r0, sp, #24
C:\Users\guppy\.cargo\registry\src\github.com-1ecc6299db9ec823\embedded-graphics-0.5.2\src\primitives/line.rs:136
        if delta[0] < 0 {
  20:	2100      	movs	r1, #0
  22:	f7ff fffe 	bl	0 <<embedded_graphics::coord::internal_coord::Coord as core::ops::index::Index<usize>>::index>
  26:	6800      	ldr	r0, [r0, #0]
  28:	f1b0 3fff 	cmp.w	r0, #4294967295
  2c:	dc10      	bgt.n	50 <<&embedded_graphics::primitives::line::Line<C> as core::iter::traits::collect::IntoIterator>::into_iter+0x50>
  2e:	f10d 0818 	add.w	r8, sp, #24
C:\Users\guppy\.cargo\registry\src\github.com-1ecc6299db9ec823\embedded-graphics-0.5.2\src\primitives/line.rs:137
            delta = Coord::new(-delta[0], delta[1]);
  32:	2100      	movs	r1, #0
  34:	4640      	mov	r0, r8
  36:	f7ff fffe 	bl	0 <<embedded_graphics::coord::internal_coord::Coord as core::ops::index::Index<usize>>::index>
  3a:	6807      	ldr	r7, [r0, #0]
  3c:	4640      	mov	r0, r8
  3e:	2101      	movs	r1, #1
  40:	f7ff fffe 	bl	0 <<embedded_graphics::coord::internal_coord::Coord as core::ops::index::Index<usize>>::index>
  44:	6801      	ldr	r1, [r0, #0]
  46:	4278      	negs	r0, r7
  48:	f7ff fffe 	bl	0 <embedded_graphics::coord::internal_coord::Coord::new>
  4c:	e9cd 0106 	strd	r0, r1, [sp, #24]
  50:	a806      	add	r0, sp, #24
C:\Users\guppy\.cargo\registry\src\github.com-1ecc6299db9ec823\embedded-graphics-0.5.2\src\primitives/line.rs:139
        }
        if delta[1] > 0 {
  52:	2101      	movs	r1, #1
  54:	f7ff fffe 	bl	0 <<embedded_graphics::coord::internal_coord::Coord as core::ops::index::Index<usize>>::index>
  58:	6800      	ldr	r0, [r0, #0]
  5a:	2801      	cmp	r0, #1
  5c:	db11      	blt.n	82 <<&embedded_graphics::primitives::line::Line<C> as core::iter::traits::collect::IntoIterator>::into_iter+0x82>
  5e:	f10d 0818 	add.w	r8, sp, #24
C:\Users\guppy\.cargo\registry\src\github.com-1ecc6299db9ec823\embedded-graphics-0.5.2\src\primitives/line.rs:140
            delta = Coord::new(delta[0], -delta[1]);
  62:	2100      	movs	r1, #0
  64:	4640      	mov	r0, r8
  66:	f7ff fffe 	bl	0 <<embedded_graphics::coord::internal_coord::Coord as core::ops::index::Index<usize>>::index>
  6a:	6807      	ldr	r7, [r0, #0]
  6c:	4640      	mov	r0, r8
  6e:	2101      	movs	r1, #1
  70:	f7ff fffe 	bl	0 <<embedded_graphics::coord::internal_coord::Coord as core::ops::index::Index<usize>>::index>
  74:	6800      	ldr	r0, [r0, #0]
  76:	4241      	negs	r1, r0
  78:	4638      	mov	r0, r7
  7a:	f7ff fffe 	bl	0 <embedded_graphics::coord::internal_coord::Coord::new>
  7e:	e9cd 0106 	strd	r0, r1, [sp, #24]
C:\Users\guppy\.cargo\registry\src\github.com-1ecc6299db9ec823\embedded-graphics-0.5.2\src\primitives/line.rs:143
        }

        let direction = match (self.start[0] >= self.end[0], self.start[1] >= self.end[1]) {
  82:	4e37      	ldr	r6, [pc, #220]	; (160 <<&embedded_graphics::primitives::line::Line<C> as core::iter::traits::collect::IntoIterator>::into_iter+0x160>)
  84:	4628      	mov	r0, r5
  86:	2100      	movs	r1, #0
  88:	47b0      	blx	r6
  8a:	f8d0 8000 	ldr.w	r8, [r0]
  8e:	4648      	mov	r0, r9
  90:	2100      	movs	r1, #0
  92:	47b0      	blx	r6
  94:	6804      	ldr	r4, [r0, #0]
  96:	4628      	mov	r0, r5
  98:	2101      	movs	r1, #1
  9a:	47b0      	blx	r6
  9c:	6807      	ldr	r7, [r0, #0]
  9e:	4648      	mov	r0, r9
  a0:	2101      	movs	r1, #1
  a2:	47b0      	blx	r6
  a4:	6800      	ldr	r0, [r0, #0]
C:\Users\guppy\.cargo\registry\src\github.com-1ecc6299db9ec823\embedded-graphics-0.5.2\src\primitives/line.rs:144
            (false, false) => Coord::new(1, 1),
  a6:	45a0      	cmp	r8, r4
  a8:	da03      	bge.n	b2 <<&embedded_graphics::primitives::line::Line<C> as core::iter::traits::collect::IntoIterator>::into_iter+0xb2>
  aa:	4287      	cmp	r7, r0
  ac:	db08      	blt.n	c0 <<&embedded_graphics::primitives::line::Line<C> as core::iter::traits::collect::IntoIterator>::into_iter+0xc0>
C:\Users\guppy\.cargo\registry\src\github.com-1ecc6299db9ec823\embedded-graphics-0.5.2\src\primitives/line.rs:145
            (false, true) => Coord::new(1, -1),
  ae:	2001      	movs	r0, #1
  b0:	e003      	b.n	ba <<&embedded_graphics::primitives::line::Line<C> as core::iter::traits::collect::IntoIterator>::into_iter+0xba>
C:\Users\guppy\.cargo\registry\src\github.com-1ecc6299db9ec823\embedded-graphics-0.5.2\src\primitives/line.rs:146
            (true, false) => Coord::new(-1, 1),
  b2:	4287      	cmp	r7, r0
  b4:	db06      	blt.n	c4 <<&embedded_graphics::primitives::line::Line<C> as core::iter::traits::collect::IntoIterator>::into_iter+0xc4>
C:\Users\guppy\.cargo\registry\src\github.com-1ecc6299db9ec823\embedded-graphics-0.5.2\src\primitives/line.rs:147
            (true, true) => Coord::new(-1, -1),
  b6:	f04f 30ff 	mov.w	r0, #4294967295
  ba:	f04f 31ff 	mov.w	r1, #4294967295
  be:	e004      	b.n	ca <<&embedded_graphics::primitives::line::Line<C> as core::iter::traits::collect::IntoIterator>::into_iter+0xca>
C:\Users\guppy\.cargo\registry\src\github.com-1ecc6299db9ec823\embedded-graphics-0.5.2\src\primitives/line.rs:144
            (false, false) => Coord::new(1, 1),
  c0:	2001      	movs	r0, #1
  c2:	e001      	b.n	c8 <<&embedded_graphics::primitives::line::Line<C> as core::iter::traits::collect::IntoIterator>::into_iter+0xc8>
C:\Users\guppy\.cargo\registry\src\github.com-1ecc6299db9ec823\embedded-graphics-0.5.2\src\primitives/line.rs:146
            (true, false) => Coord::new(-1, 1),
  c4:	f04f 30ff 	mov.w	r0, #4294967295
  c8:	2101      	movs	r1, #1
  ca:	f7ff fffe 	bl	0 <embedded_graphics::coord::internal_coord::Coord::new>
  ce:	e9cd 1004 	strd	r1, r0, [sp, #16]
C:\Users\guppy\.cargo\registry\src\github.com-1ecc6299db9ec823\embedded-graphics-0.5.2\src\primitives/line.rs:151
        };

        LineIterator {
            style: self.style,
  d2:	f105 0010 	add.w	r0, r5, #16
  d6:	af08      	add	r7, sp, #32
  d8:	ae06      	add	r6, sp, #24
  da:	c80c      	ldmia	r0!, {r2, r3}
  dc:	4639      	mov	r1, r7
  de:	c10c      	stmia	r1!, {r2, r3}
  e0:	8800      	ldrh	r0, [r0, #0]
  e2:	8008      	strh	r0, [r1, #0]
C:\Users\guppy\.cargo\registry\src\github.com-1ecc6299db9ec823\embedded-graphics-0.5.2\src\primitives/line.rs:157

            start: self.start,
            end: self.end,
            delta,
            direction,
            err: delta[0] + delta[1],
  e4:	2100      	movs	r1, #0
C:\Users\guppy\.cargo\registry\src\github.com-1ecc6299db9ec823\embedded-graphics-0.5.2\src\primitives/line.rs:153
            start: self.start,
  e6:	6828      	ldr	r0, [r5, #0]
  e8:	9003      	str	r0, [sp, #12]
C:\Users\guppy\.cargo\registry\src\github.com-1ecc6299db9ec823\embedded-graphics-0.5.2\src\primitives/line.rs:155
            delta,
  ea:	9806      	ldr	r0, [sp, #24]
  ec:	9002      	str	r0, [sp, #8]
  ee:	9807      	ldr	r0, [sp, #28]
C:\Users\guppy\.cargo\registry\src\github.com-1ecc6299db9ec823\embedded-graphics-0.5.2\src\primitives/line.rs:157
            err: delta[0] + delta[1],
  f0:	9001      	str	r0, [sp, #4]
  f2:	4630      	mov	r0, r6
C:\Users\guppy\.cargo\registry\src\github.com-1ecc6299db9ec823\embedded-graphics-0.5.2\src\primitives/line.rs:153
            start: self.start,
  f4:	e9d5 b801 	ldrd	fp, r8, [r5, #4]
C:\Users\guppy\.cargo\registry\src\github.com-1ecc6299db9ec823\embedded-graphics-0.5.2\src\primitives/line.rs:154
            end: self.end,
  f8:	f8d5 900c 	ldr.w	r9, [r5, #12]
C:\Users\guppy\.cargo\registry\src\github.com-1ecc6299db9ec823\embedded-graphics-0.5.2\src\primitives/line.rs:157
            err: delta[0] + delta[1],
  fc:	f7ff fffe 	bl	0 <<embedded_graphics::coord::internal_coord::Coord as core::ops::index::Index<usize>>::index>
 100:	6804      	ldr	r4, [r0, #0]
 102:	4630      	mov	r0, r6
 104:	2101      	movs	r1, #1
 106:	f7ff fffe 	bl	0 <<embedded_graphics::coord::internal_coord::Coord as core::ops::index::Index<usize>>::index>
 10a:	6800      	ldr	r0, [r0, #0]
_ZN88_$LT$embedded_graphics..coord..internal_coord..Coord$u20$as$u20$core..cmp..PartialEq$GT$2eq17h934629e1cb2323c2E():
C:\Users\guppy\.cargo\registry\src\github.com-1ecc6299db9ec823\embedded-graphics-0.5.2\src/coord.rs:39
    ///
    /// [`UnsignedCoord`]: ../unsignedcoord/struct.UnsignedCoord.html
    /// [`Rect`]: ../primitives/rectangle/struct.Rectangle.html
    /// [`Vector2<i32>`]: https://docs.rs/nalgebra/0.18.0/nalgebra/base/type.Vector2.html
    #[derive(Debug, Copy, Clone, Eq, PartialEq)]
    pub struct Coord(pub CoordPart, pub CoordPart);
 10c:	6829      	ldr	r1, [r5, #0]
 10e:	68aa      	ldr	r2, [r5, #8]
_ZN116_$LT$$RF$embedded_graphics..primitives..line..Line$LT$C$GT$$u20$as$u20$core..iter..traits..collect..IntoIterator$GT$9into_iter17h471c1dbc9fca74ffE():
C:\Users\guppy\.cargo\registry\src\github.com-1ecc6299db9ec823\embedded-graphics-0.5.2\src\primitives/line.rs:157
 110:	4420      	add	r0, r4
_ZN88_$LT$embedded_graphics..coord..internal_coord..Coord$u20$as$u20$core..cmp..PartialEq$GT$2eq17h934629e1cb2323c2E():
C:\Users\guppy\.cargo\registry\src\github.com-1ecc6299db9ec823\embedded-graphics-0.5.2\src/coord.rs:39
 112:	4291      	cmp	r1, r2
 114:	d105      	bne.n	122 <<&embedded_graphics::primitives::line::Line<C> as core::iter::traits::collect::IntoIterator>::into_iter+0x122>
 116:	6869      	ldr	r1, [r5, #4]
 118:	68ea      	ldr	r2, [r5, #12]
 11a:	4291      	cmp	r1, r2
 11c:	d101      	bne.n	122 <<&embedded_graphics::primitives::line::Line<C> as core::iter::traits::collect::IntoIterator>::into_iter+0x122>
_ZN116_$LT$$RF$embedded_graphics..primitives..line..Line$LT$C$GT$$u20$as$u20$core..iter..traits..collect..IntoIterator$GT$9into_iter17h471c1dbc9fca74ffE():
 11e:	2101      	movs	r1, #1
 120:	e000      	b.n	124 <<&embedded_graphics::primitives::line::Line<C> as core::iter::traits::collect::IntoIterator>::into_iter+0x124>
 122:	2100      	movs	r1, #0
C:\Users\guppy\.cargo\registry\src\github.com-1ecc6299db9ec823\embedded-graphics-0.5.2\src\primitives/line.rs:150
        LineIterator {
 124:	cf18      	ldmia	r7!, {r3, r4}
 126:	f10a 0224 	add.w	r2, sl, #36	; 0x24
 12a:	c218      	stmia	r2!, {r3, r4}
 12c:	883b      	ldrh	r3, [r7, #0]
 12e:	8013      	strh	r3, [r2, #0]
 130:	f88a 102e 	strb.w	r1, [sl, #46]	; 0x2e
 134:	f8ca 0020 	str.w	r0, [sl, #32]
 138:	9803      	ldr	r0, [sp, #12]
 13a:	e9ca 0b00 	strd	r0, fp, [sl]
 13e:	9802      	ldr	r0, [sp, #8]
 140:	e9ca 8902 	strd	r8, r9, [sl, #8]
 144:	f8ca 0010 	str.w	r0, [sl, #16]
 148:	9801      	ldr	r0, [sp, #4]
 14a:	f8ca 0014 	str.w	r0, [sl, #20]
 14e:	9805      	ldr	r0, [sp, #20]
 150:	f8ca 0018 	str.w	r0, [sl, #24]
 154:	9804      	ldr	r0, [sp, #16]
 156:	f8ca 001c 	str.w	r0, [sl, #28]
C:\Users\guppy\.cargo\registry\src\github.com-1ecc6299db9ec823\embedded-graphics-0.5.2\src\primitives/line.rs:160
            stop: self.start == self.end, // if line length is zero, draw nothing
        }
    }
 15a:	b00b      	add	sp, #44	; 0x2c
 15c:	e8bd 8ff0 	ldmia.w	sp!, {r4, r5, r6, r7, r8, r9, sl, fp, pc}
 160:	00000000 	.word	0x00000000

Disassembly of section .text._ZN117_$LT$embedded_graphics..primitives..line..LineIterator$LT$C$GT$$u20$as$u20$core..iter..traits..iterator..Iterator$GT$4next17ha10fb269365cbbe8E:

00000000 <<embedded_graphics::primitives::line::LineIterator<C> as core::iter::traits::iterator::Iterator>::next>:
_ZN117_$LT$embedded_graphics..primitives..line..LineIterator$LT$C$GT$$u20$as$u20$core..iter..traits..iterator..Iterator$GT$4next17ha10fb269365cbbe8E():
C:\Users\guppy\.cargo\registry\src\github.com-1ecc6299db9ec823\embedded-graphics-0.5.2\src\primitives/line.rs:184

// [Bresenham's line algorithm](https://en.wikipedia.org/wiki/Bresenham%27s_line_algorithm)
impl<C: PixelColor> Iterator for LineIterator<C> {
    type Item = Pixel<C>;

    fn next(&mut self) -> Option<Self::Item> {
   0:	e92d 4ffe 	stmdb	sp!, {r1, r2, r3, r4, r5, r6, r7, r8, r9, sl, fp, lr}
   4:	4680      	mov	r8, r0
C:\Users\guppy\.cargo\registry\src\github.com-1ecc6299db9ec823\embedded-graphics-0.5.2\src\primitives/line.rs:186
        // return none if stroke color is none
        self.style.stroke_color?;
   6:	8d08      	ldrh	r0, [r1, #40]	; 0x28
   8:	2801      	cmp	r0, #1
   a:	d175      	bne.n	f8 <<embedded_graphics::primitives::line::LineIterator<C> as core::iter::traits::iterator::Iterator>::next+0xf8>
   c:	f101 0b18 	add.w	fp, r1, #24
  10:	f101 0710 	add.w	r7, r1, #16
  14:	f10d 0a04 	add.w	sl, sp, #4
  18:	460d      	mov	r5, r1
  1a:	f04f 0901 	mov.w	r9, #1
C:\Users\guppy\.cargo\registry\src\github.com-1ecc6299db9ec823\embedded-graphics-0.5.2\src\primitives/line.rs:188

        while !self.stop {
  1e:	f895 002e 	ldrb.w	r0, [r5, #46]	; 0x2e
  22:	2800      	cmp	r0, #0
  24:	d16a      	bne.n	fc <<embedded_graphics::primitives::line::LineIterator<C> as core::iter::traits::iterator::Iterator>::next+0xfc>
C:\Users\guppy\.cargo\registry\src\github.com-1ecc6299db9ec823\embedded-graphics-0.5.2\src\primitives/line.rs:189
            let p_coord = self.start;
  26:	e9d5 1000 	ldrd	r1, r0, [r5]
_ZN88_$LT$embedded_graphics..coord..internal_coord..Coord$u20$as$u20$core..cmp..PartialEq$GT$2eq17h934629e1cb2323c2E():
C:\Users\guppy\.cargo\registry\src\github.com-1ecc6299db9ec823\embedded-graphics-0.5.2\src/coord.rs:39
  2a:	68aa      	ldr	r2, [r5, #8]
_ZN117_$LT$embedded_graphics..primitives..line..LineIterator$LT$C$GT$$u20$as$u20$core..iter..traits..iterator..Iterator$GT$4next17ha10fb269365cbbe8E():
C:\Users\guppy\.cargo\registry\src\github.com-1ecc6299db9ec823\embedded-graphics-0.5.2\src\primitives/line.rs:189
  2c:	e9cd 1001 	strd	r1, r0, [sp, #4]
_ZN88_$LT$embedded_graphics..coord..internal_coord..Coord$u20$as$u20$core..cmp..PartialEq$GT$2eq17h934629e1cb2323c2E():
C:\Users\guppy\.cargo\registry\src\github.com-1ecc6299db9ec823\embedded-graphics-0.5.2\src/coord.rs:39
  30:	4291      	cmp	r1, r2
  32:	bf02      	ittt	eq
  34:	68e9      	ldreq	r1, [r5, #12]
  36:	4288      	cmpeq	r0, r1
_ZN117_$LT$embedded_graphics..primitives..line..LineIterator$LT$C$GT$$u20$as$u20$core..iter..traits..iterator..Iterator$GT$4next17ha10fb269365cbbe8E():
C:\Users\guppy\.cargo\registry\src\github.com-1ecc6299db9ec823\embedded-graphics-0.5.2\src\primitives/line.rs:192

            if self.start == self.end {
                self.stop = true;
  38:	f885 902e 	strbeq.w	r9, [r5, #46]	; 0x2e
C:\Users\guppy\.cargo\registry\src\github.com-1ecc6299db9ec823\embedded-graphics-0.5.2\src\primitives/line.rs:195
            }
            let err_double = 2 * self.err;
            if err_double > self.delta[1] {
  3c:	4638      	mov	r0, r7
  3e:	2101      	movs	r1, #1
C:\Users\guppy\.cargo\registry\src\github.com-1ecc6299db9ec823\embedded-graphics-0.5.2\src\primitives/line.rs:194
            let err_double = 2 * self.err;
  40:	6a2e      	ldr	r6, [r5, #32]
C:\Users\guppy\.cargo\registry\src\github.com-1ecc6299db9ec823\embedded-graphics-0.5.2\src\primitives/line.rs:195
            if err_double > self.delta[1] {
  42:	f7ff fffe 	bl	0 <<embedded_graphics::coord::internal_coord::Coord as core::ops::index::Index<usize>>::index>
  46:	6800      	ldr	r0, [r0, #0]
C:\Users\guppy\.cargo\registry\src\github.com-1ecc6299db9ec823\embedded-graphics-0.5.2\src\primitives/line.rs:194
            let err_double = 2 * self.err;
  48:	0074      	lsls	r4, r6, #1
C:\Users\guppy\.cargo\registry\src\github.com-1ecc6299db9ec823\embedded-graphics-0.5.2\src\primitives/line.rs:195
            if err_double > self.delta[1] {
  4a:	ebb0 0f46 	cmp.w	r0, r6, lsl #1
  4e:	da16      	bge.n	7e <<embedded_graphics::primitives::line::LineIterator<C> as core::iter::traits::iterator::Iterator>::next+0x7e>
C:\Users\guppy\.cargo\registry\src\github.com-1ecc6299db9ec823\embedded-graphics-0.5.2\src\primitives/line.rs:196
                self.err += self.delta[1];
  50:	4638      	mov	r0, r7
  52:	2101      	movs	r1, #1
  54:	f7ff fffe 	bl	0 <<embedded_graphics::coord::internal_coord::Coord as core::ops::index::Index<usize>>::index>
  58:	6800      	ldr	r0, [r0, #0]
  5a:	6a29      	ldr	r1, [r5, #32]
  5c:	4408      	add	r0, r1
  5e:	6228      	str	r0, [r5, #32]
C:\Users\guppy\.cargo\registry\src\github.com-1ecc6299db9ec823\embedded-graphics-0.5.2\src\primitives/line.rs:197
                self.start += Coord::new(self.direction[0], 0);
  60:	4658      	mov	r0, fp
  62:	2100      	movs	r1, #0
  64:	f7ff fffe 	bl	0 <<embedded_graphics::coord::internal_coord::Coord as core::ops::index::Index<usize>>::index>
  68:	6800      	ldr	r0, [r0, #0]
  6a:	2100      	movs	r1, #0
  6c:	f7ff fffe 	bl	0 <embedded_graphics::coord::internal_coord::Coord::new>
  70:	4602      	mov	r2, r0
  72:	460b      	mov	r3, r1
  74:	4611      	mov	r1, r2
  76:	4628      	mov	r0, r5
  78:	461a      	mov	r2, r3
  7a:	f7ff fffe 	bl	0 <<embedded_graphics::coord::internal_coord::Coord as core::ops::arith::AddAssign>::add_assign>
C:\Users\guppy\.cargo\registry\src\github.com-1ecc6299db9ec823\embedded-graphics-0.5.2\src\primitives/line.rs:199
            }
            if err_double < self.delta[0] {
  7e:	4638      	mov	r0, r7
  80:	2100      	movs	r1, #0
  82:	f7ff fffe 	bl	0 <<embedded_graphics::coord::internal_coord::Coord as core::ops::index::Index<usize>>::index>
  86:	6800      	ldr	r0, [r0, #0]
  88:	4284      	cmp	r4, r0
  8a:	da16      	bge.n	ba <<embedded_graphics::primitives::line::LineIterator<C> as core::iter::traits::iterator::Iterator>::next+0xba>
C:\Users\guppy\.cargo\registry\src\github.com-1ecc6299db9ec823\embedded-graphics-0.5.2\src\primitives/line.rs:200
                self.err += self.delta[0];
  8c:	4638      	mov	r0, r7
  8e:	2100      	movs	r1, #0
  90:	f7ff fffe 	bl	0 <<embedded_graphics::coord::internal_coord::Coord as core::ops::index::Index<usize>>::index>
  94:	6800      	ldr	r0, [r0, #0]
  96:	6a29      	ldr	r1, [r5, #32]
  98:	4408      	add	r0, r1
  9a:	6228      	str	r0, [r5, #32]
C:\Users\guppy\.cargo\registry\src\github.com-1ecc6299db9ec823\embedded-graphics-0.5.2\src\primitives/line.rs:201
                self.start += Coord::new(0, self.direction[1]);
  9c:	4658      	mov	r0, fp
  9e:	2101      	movs	r1, #1
  a0:	f7ff fffe 	bl	0 <<embedded_graphics::coord::internal_coord::Coord as core::ops::index::Index<usize>>::index>
  a4:	6801      	ldr	r1, [r0, #0]
  a6:	2000      	movs	r0, #0
  a8:	f7ff fffe 	bl	0 <embedded_graphics::coord::internal_coord::Coord::new>
  ac:	4602      	mov	r2, r0
  ae:	460b      	mov	r3, r1
  b0:	4611      	mov	r1, r2
  b2:	4628      	mov	r0, r5
  b4:	461a      	mov	r2, r3
  b6:	f7ff fffe 	bl	0 <<embedded_graphics::coord::internal_coord::Coord as core::ops::arith::AddAssign>::add_assign>
C:\Users\guppy\.cargo\registry\src\github.com-1ecc6299db9ec823\embedded-graphics-0.5.2\src\primitives/line.rs:203
            }
            if p_coord[0] >= 0 && p_coord[1] >= 0 {
  ba:	4650      	mov	r0, sl
  bc:	2100      	movs	r1, #0
  be:	f7ff fffe 	bl	0 <<embedded_graphics::coord::internal_coord::Coord as core::ops::index::Index<usize>>::index>
  c2:	6800      	ldr	r0, [r0, #0]
  c4:	2800      	cmp	r0, #0
  c6:	d4aa      	bmi.n	1e <<embedded_graphics::primitives::line::LineIterator<C> as core::iter::traits::iterator::Iterator>::next+0x1e>
  c8:	4650      	mov	r0, sl
  ca:	2101      	movs	r1, #1
  cc:	f7ff fffe 	bl	0 <<embedded_graphics::coord::internal_coord::Coord as core::ops::index::Index<usize>>::index>
  d0:	6800      	ldr	r0, [r0, #0]
  d2:	f1b0 3fff 	cmp.w	r0, #4294967295
  d6:	dda2      	ble.n	1e <<embedded_graphics::primitives::line::LineIterator<C> as core::iter::traits::iterator::Iterator>::next+0x1e>
C:\Users\guppy\.cargo\registry\src\github.com-1ecc6299db9ec823\embedded-graphics-0.5.2\src\primitives/line.rs:205
                return Some(Pixel(
                    p_coord.to_unsigned(),
  d8:	e9dd 0101 	ldrd	r0, r1, [sp, #4]
  dc:	f7ff fffe 	bl	0 <<embedded_graphics::coord::internal_coord::Coord as embedded_graphics::coord::ToUnsigned>::to_unsigned>
C:\Users\guppy\.cargo\registry\src\github.com-1ecc6299db9ec823\embedded-graphics-0.5.2\src\primitives/line.rs:206
                    self.style.stroke_color.unwrap(),
  e0:	8d2a      	ldrh	r2, [r5, #40]	; 0x28
  e2:	b182      	cbz	r2, 106 <<embedded_graphics::primitives::line::LineIterator<C> as core::iter::traits::iterator::Iterator>::next+0x106>
  e4:	8d6a      	ldrh	r2, [r5, #42]	; 0x2a
C:\Users\guppy\.cargo\registry\src\github.com-1ecc6299db9ec823\embedded-graphics-0.5.2\src\primitives/line.rs:204
                return Some(Pixel(
  e6:	f8a8 200c 	strh.w	r2, [r8, #12]
  ea:	2201      	movs	r2, #1
  ec:	e9c8 2000 	strd	r2, r0, [r8]
  f0:	f8c8 1008 	str.w	r1, [r8, #8]
C:\Users\guppy\.cargo\registry\src\github.com-1ecc6299db9ec823\embedded-graphics-0.5.2\src\primitives/line.rs:211
                ));
            }
        }
        None
    }
  f4:	e8bd 8ffe 	ldmia.w	sp!, {r1, r2, r3, r4, r5, r6, r7, r8, r9, sl, fp, pc}
C:\Users\guppy\.cargo\registry\src\github.com-1ecc6299db9ec823\embedded-graphics-0.5.2\src\primitives/line.rs:186
        self.style.stroke_color?;
  f8:	f7ff fffe 	bl	0 <<T as core::convert::From<T>>::from>
  fc:	2000      	movs	r0, #0
  fe:	f8c8 0000 	str.w	r0, [r8]
C:\Users\guppy\.cargo\registry\src\github.com-1ecc6299db9ec823\embedded-graphics-0.5.2\src\primitives/line.rs:211
    }
 102:	e8bd 8ffe 	ldmia.w	sp!, {r1, r2, r3, r4, r5, r6, r7, r8, r9, sl, fp, pc}
_ZN4core6option15Option$LT$T$GT$6unwrap17h85fe8acd45991a58E():
/rustc/412f43ac5b4ae8c3599e71c6972112e9be4758fa/src/libcore/macros/mod.rs:15
 106:	4803      	ldr	r0, [pc, #12]	; (114 <<embedded_graphics::primitives::line::LineIterator<C> as core::iter::traits::iterator::Iterator>::next+0x114>)
 108:	212b      	movs	r1, #43	; 0x2b
 10a:	4a03      	ldr	r2, [pc, #12]	; (118 <<embedded_graphics::primitives::line::LineIterator<C> as core::iter::traits::iterator::Iterator>::next+0x118>)
 10c:	f7ff fffe 	bl	0 <core::panicking::panic>
 110:	defe      	udf	#254	; 0xfe
_ZN117_$LT$embedded_graphics..primitives..line..LineIterator$LT$C$GT$$u20$as$u20$core..iter..traits..iterator..Iterator$GT$4next17ha10fb269365cbbe8E():
/rustc/412f43ac5b4ae8c3599e71c6972112e9be4758fa/src/libcore/macros/mod.rs:15
 112:	bf00      	nop
	...

Disassembly of section .text._ZN11druid_shell6window28WindowHandle$LT$THandler$GT$4show17hd37565557e6d5a60E:

00000000 <druid_shell::window::WindowHandle<THandler>::show>:
_ZN11druid_shell6window28WindowHandle$LT$THandler$GT$4show17hd37565557e6d5a60E():
C:\druid-embedded\druid-shell\src/window.rs:89
    /// Make this window visible.
    ///
    /// This is part of the initialization process; it should only be called
    /// once, when a window is first created.
    pub fn show(&self) {
        self.0.show()
   0:	f7ff bffe 	b.w	0 <druid_shell::window::WindowHandle<THandler>::show>

Disassembly of section .text._ZN11druid_shell6window29WindowBuilder$LT$THandler$GT$11set_handler17h503f062dce43d243E:

00000000 <druid_shell::window::WindowBuilder<THandler>::set_handler>:
_ZN11druid_shell6window29WindowBuilder$LT$THandler$GT$11set_handler17h503f062dce43d243E():
C:\druid-embedded\druid-shell\src/window.rs:159

    /// Set the [`WinHandler`]. This is the object that will receive
    /// callbacks from this window.
    ///
    /// [`WinHandler`]: trait.WinHandler.html
    pub fn set_handler(&mut self, handler: THandler) { ////
   0:	2201      	movs	r2, #1
_ZN11druid_shell8platform8embedded6window29WindowBuilder$LT$THandler$GT$11set_handler17hd189576dc2c2466cE():
C:\druid-embedded\druid-shell\src\platform\embedded/window.rs:153
        }
    }

    pub fn set_handler(&mut self, handler: THandler) { ////
    ////pub fn set_handler(&mut self, handler: Box<dyn WinHandler>) {
        self.handler = Some(handler);
   2:	e9c0 2104 	strd	r2, r1, [r0, #16]
_ZN11druid_shell6window29WindowBuilder$LT$THandler$GT$11set_handler17h503f062dce43d243E():
C:\druid-embedded\druid-shell\src/window.rs:162
    ////pub fn set_handler(&mut self, handler: Box<dyn WinHandler>) {
        self.0.set_handler(handler)
    }
   6:	4770      	bx	lr

Disassembly of section .text._ZN11druid_shell6window29WindowBuilder$LT$THandler$GT$3new17h27e968d065b61b40E:

00000000 <druid_shell::window::WindowBuilder<THandler>::new>:
_ZN11druid_shell6window29WindowBuilder$LT$THandler$GT$3new17h27e968d065b61b40E():
C:\druid-embedded\druid-shell\src/window.rs:150
    pub fn new() -> Self { ////
   0:	4903      	ldr	r1, [pc, #12]	; (10 <druid_shell::window::WindowBuilder<THandler>::new+0x10>)
   2:	2200      	movs	r2, #0
C:\druid-embedded\druid-shell\src/window.rs:152
        WindowBuilder(platform::WindowBuilder::new())
   4:	e9c0 2100 	strd	r2, r1, [r0]
   8:	e9c0 2102 	strd	r2, r1, [r0, #8]
   c:	6102      	str	r2, [r0, #16]
C:\druid-embedded\druid-shell\src/window.rs:153
    }
   e:	4770      	bx	lr
  10:	406e0000 	.word	0x406e0000

Disassembly of section .text._ZN11druid_shell6window29WindowBuilder$LT$THandler$GT$5build17he3242aa91a4cda98E:

00000000 <druid_shell::window::WindowBuilder<THandler>::build>:
_ZN11druid_shell6window29WindowBuilder$LT$THandler$GT$5build17he3242aa91a4cda98E():
C:\druid-embedded\druid-shell\src/window.rs:184
    */ ////

    /// Attempt to construct the platform window.
    ///
    /// If this fails, your application should exit.
    pub fn build(self) -> Result<WindowHandle<THandler>, Error> { ////
   0:	e92d 41f0 	stmdb	sp!, {r4, r5, r6, r7, r8, lr}
   4:	b08a      	sub	sp, #40	; 0x28
   6:	f10d 0c10 	add.w	ip, sp, #16
C:\druid-embedded\druid-shell\src/window.rs:186
    ////pub fn build(self) -> Result<WindowHandle, Error> {
        self.0.build().map(WindowHandle).map_err(Into::into)
   a:	e891 00fc 	ldmia.w	r1, {r2, r3, r4, r5, r6, r7}
   e:	4680      	mov	r8, r0
  10:	4660      	mov	r0, ip
  12:	4661      	mov	r1, ip
  14:	c0fc      	stmia	r0!, {r2, r3, r4, r5, r6, r7}
  16:	a801      	add	r0, sp, #4
  18:	f7ff fffe 	bl	0 <druid_shell::window::WindowBuilder<THandler>::build>
_ZN4core6result19Result$LT$T$C$E$GT$3map17h674e1d4daddb616eE():
/rustc/412f43ac5b4ae8c3599e71c6972112e9be4758fa/src/libcore/result.rs:512
  1c:	e9dd 1001 	ldrd	r1, r0, [sp, #4]
  20:	2901      	cmp	r1, #1
  22:	d104      	bne.n	2e <druid_shell::window::WindowBuilder<THandler>::build+0x2e>
/rustc/412f43ac5b4ae8c3599e71c6972112e9be4758fa/src/libcore/result.rs:513
  24:	9903      	ldr	r1, [sp, #12]
_ZN4core6result19Result$LT$T$C$E$GT$7map_err17h8f9e31e7e0790d95E():
/rustc/412f43ac5b4ae8c3599e71c6972112e9be4758fa/src/libcore/result.rs:598
  26:	f8c8 1008 	str.w	r1, [r8, #8]
  2a:	2101      	movs	r1, #1
  2c:	e000      	b.n	30 <druid_shell::window::WindowBuilder<THandler>::build+0x30>
  2e:	2100      	movs	r1, #0
  30:	e9c8 1000 	strd	r1, r0, [r8]
_ZN11druid_shell6window29WindowBuilder$LT$THandler$GT$5build17he3242aa91a4cda98E():
C:\druid-embedded\druid-shell\src/window.rs:187
    }
  34:	b00a      	add	sp, #40	; 0x28
  36:	e8bd 81f0 	ldmia.w	sp!, {r4, r5, r6, r7, r8, pc}

Disassembly of section .text._ZN11druid_shell6window29WindowBuilder$LT$THandler$GT$8set_size17hc3235e20780b6a40E:

00000000 <druid_shell::window::WindowBuilder<THandler>::set_size>:
_ZN11druid_shell8platform8embedded6window29WindowBuilder$LT$THandler$GT$8set_size17hc74b01c72f43aab9E():
C:\druid-embedded\druid-shell\src\platform\embedded/window.rs:157
    }

    pub fn set_size(&mut self, size: Size) {
        self.size = size;
   0:	eca0 0b04 	vstmia	r0!, {d0-d1}
_ZN11druid_shell6window29WindowBuilder$LT$THandler$GT$8set_size17hc3235e20780b6a40E():
C:\druid-embedded\druid-shell\src/window.rs:167
    }
   4:	4770      	bx	lr

Disassembly of section .text._ZN11druid_shell8platform8embedded6window28WindowHandle$LT$THandler$GT$4show17hd1f266ba72d20d97E:

00000000 <druid_shell::platform::embedded::window::WindowHandle<THandler>::show>:
_ZN11druid_shell8platform8embedded6window28WindowHandle$LT$THandler$GT$4show17hd1f266ba72d20d97E():
C:\druid-embedded\druid-shell\src\platform\embedded/window.rs:355
    }
}

impl<THandler: WinHandler + Clone> WindowHandle<THandler> { ////
////impl WindowHandle {
    pub fn show(&self) {
   0:	b51c      	push	{r2, r3, r4, lr}
C:\druid-embedded\druid-shell\src\platform\embedded/window.rs:357
        let handler = &mut self.state.clone().handler;
        unsafe { handler.paint(&mut PIET_CONTEXT, &mut DRUID_CONTEXT); }
   2:	4c0a      	ldr	r4, [pc, #40]	; (2c <druid_shell::platform::embedded::window::WindowHandle<THandler>::show+0x2c>)
_ZN62_$LT$druid..window..WindowId$u20$as$u20$core..clone..Clone$GT$5clone17h4baf5eb870d1a4a9E():
C:\druid-embedded\druid\src/window.rs:30
    PaintCtx, UpdateCtx, Widget, WidgetPod,
    widget::WidgetBox, WindowBox, WindowType, ////
};

/// A unique identifier for a window.
#[derive(Clone, Copy, Debug, Default, PartialEq, Eq, Hash, PartialOrd, Ord)] ////
   4:	6800      	ldr	r0, [r0, #0]
_ZN11druid_shell8platform8embedded6window28WindowHandle$LT$THandler$GT$4show17hd1f266ba72d20d97E():
C:\druid-embedded\druid-shell\src\platform\embedded/window.rs:357
   6:	4a0a      	ldr	r2, [pc, #40]	; (30 <druid_shell::platform::embedded::window::WindowHandle<THandler>::show+0x30>)
   8:	4b0a      	ldr	r3, [pc, #40]	; (34 <druid_shell::platform::embedded::window::WindowHandle<THandler>::show+0x34>)
   a:	4621      	mov	r1, r4
C:\druid-embedded\druid-shell\src\platform\embedded/window.rs:356
        let handler = &mut self.state.clone().handler;
   c:	9001      	str	r0, [sp, #4]
   e:	a801      	add	r0, sp, #4
C:\druid-embedded\druid-shell\src\platform\embedded/window.rs:357
        unsafe { handler.paint(&mut PIET_CONTEXT, &mut DRUID_CONTEXT); }
  10:	f7ff fffe 	bl	0 <druid_shell::platform::embedded::window::WindowHandle<THandler>::show>
C:\druid-embedded\druid-shell\src\platform\embedded/window.rs:358
        if let Err(_) = unsafe { PIET_CONTEXT.finish() } {
  14:	4620      	mov	r0, r4
  16:	f7ff fffe 	bl	0 <<piet_embedded_graphics::context::EmbedRenderContext as piet::render_context::RenderContext>::finish>
  1a:	b900      	cbnz	r0, 1e <druid_shell::platform::embedded::window::WindowHandle<THandler>::show+0x1e>
C:\druid-embedded\druid-shell\src\platform\embedded/window.rs:361
            panic!("piet error on render");
        }
    }
  1c:	bd1c      	pop	{r2, r3, r4, pc}
<::core::macros::/panic macros>:2
  1e:	4806      	ldr	r0, [pc, #24]	; (38 <druid_shell::platform::embedded::window::WindowHandle<THandler>::show+0x38>)
  20:	2114      	movs	r1, #20
  22:	4a06      	ldr	r2, [pc, #24]	; (3c <druid_shell::platform::embedded::window::WindowHandle<THandler>::show+0x3c>)
  24:	f7ff fffe 	bl	0 <core::panicking::panic>
  28:	defe      	udf	#254	; 0xfe
  2a:	bf00      	nop
	...

Disassembly of section .text._ZN11druid_shell8platform8embedded6window29WindowBuilder$LT$THandler$GT$11set_handler17hd189576dc2c2466cE:

00000000 <druid_shell::platform::embedded::window::WindowBuilder<THandler>::set_handler>:
_ZN11druid_shell8platform8embedded6window29WindowBuilder$LT$THandler$GT$11set_handler17hd189576dc2c2466cE():
C:\druid-embedded\druid-shell\src\platform\embedded/window.rs:151
    pub fn set_handler(&mut self, handler: THandler) { ////
   0:	2201      	movs	r2, #1
C:\druid-embedded\druid-shell\src\platform\embedded/window.rs:153
        self.handler = Some(handler);
   2:	e9c0 2104 	strd	r2, r1, [r0, #16]
C:\druid-embedded\druid-shell\src\platform\embedded/window.rs:154
    }
   6:	4770      	bx	lr

Disassembly of section .text._ZN11druid_shell8platform8embedded6window29WindowBuilder$LT$THandler$GT$3new17ha6f6064f3c0ded92E:

00000000 <druid_shell::platform::embedded::window::WindowBuilder<THandler>::new>:
_ZN11druid_shell8platform8embedded6window29WindowBuilder$LT$THandler$GT$3new17ha6f6064f3c0ded92E():
C:\druid-embedded\druid-shell\src\platform\embedded/window.rs:137
    pub fn new() -> Self { ////
   0:	4903      	ldr	r1, [pc, #12]	; (10 <druid_shell::platform::embedded::window::WindowBuilder<THandler>::new+0x10>)
   2:	2200      	movs	r2, #0
C:\druid-embedded\druid-shell\src\platform\embedded/window.rs:139
        WindowBuilder  {
   4:	e9c0 2100 	strd	r2, r1, [r0]
   8:	e9c0 2102 	strd	r2, r1, [r0, #8]
   c:	6102      	str	r2, [r0, #16]
C:\druid-embedded\druid-shell\src\platform\embedded/window.rs:149
    }
   e:	4770      	bx	lr
  10:	406e0000 	.word	0x406e0000

Disassembly of section .text._ZN11druid_shell8platform8embedded6window29WindowBuilder$LT$THandler$GT$5build17ha5316f701ea2e6a1E:

00000000 <druid_shell::platform::embedded::window::WindowBuilder<THandler>::build>:
_ZN11druid_shell8platform8embedded6window29WindowBuilder$LT$THandler$GT$5build17ha5316f701ea2e6a1E():
C:\druid-embedded\druid-shell\src\platform\embedded/window.rs:162
        let handler = self
   0:	690a      	ldr	r2, [r1, #16]
_ZN4core6option15Option$LT$T$GT$6expect17hc1f4f5430aed7ca4E():
/rustc/412f43ac5b4ae8c3599e71c6972112e9be4758fa/src/libcore/option.rs:346
   2:	b122      	cbz	r2, e <druid_shell::platform::embedded::window::WindowBuilder<THandler>::build+0xe>
_ZN11druid_shell8platform8embedded6window29WindowBuilder$LT$THandler$GT$5build17ha5316f701ea2e6a1E():
C:\druid-embedded\druid-shell\src\platform\embedded/window.rs:162
   4:	6949      	ldr	r1, [r1, #20]
   6:	2200      	movs	r2, #0
C:\druid-embedded\druid-shell\src\platform\embedded/window.rs:349
        Ok(handle)
   8:	e9c0 2100 	strd	r2, r1, [r0]
C:\druid-embedded\druid-shell\src\platform\embedded/window.rs:350
    }
   c:	4770      	bx	lr
_ZN4core6option15Option$LT$T$GT$6expect17hc1f4f5430aed7ca4E():
/rustc/412f43ac5b4ae8c3599e71c6972112e9be4758fa/src/libcore/option.rs:347
   e:	4802      	ldr	r0, [pc, #8]	; (18 <druid_shell::platform::embedded::window::WindowBuilder<THandler>::build+0x18>)
  10:	2133      	movs	r1, #51	; 0x33
  12:	f7ff fffe 	bl	0 <core::option::expect_failed>
  16:	defe      	udf	#254	; 0xfe
_ZN11druid_shell8platform8embedded6window29WindowBuilder$LT$THandler$GT$5build17ha5316f701ea2e6a1E():
  18:	00000000 	.word	0x00000000

Disassembly of section .text._ZN11druid_shell8platform8embedded6window29WindowBuilder$LT$THandler$GT$8set_size17hc74b01c72f43aab9E:

00000000 <druid_shell::platform::embedded::window::WindowBuilder<THandler>::set_size>:
_ZN11druid_shell8platform8embedded6window29WindowBuilder$LT$THandler$GT$8set_size17hc74b01c72f43aab9E():
C:\druid-embedded\druid-shell\src\platform\embedded/window.rs:157
        self.size = size;
   0:	eca0 0b04 	vstmia	r0!, {d0-d1}
C:\druid-embedded\druid-shell\src\platform\embedded/window.rs:158
    }
   4:	4770      	bx	lr

Disassembly of section .text._ZN133_$LT$druid..widget..label..LabelText$LT$T$GT$$u20$as$u20$core..convert..From$LT$druid..localization..LocalizedString$LT$T$GT$$GT$$GT$4from17hf1e382c2f245e3e9E:

00000000 <<druid::widget::label::LabelText<T> as core::convert::From<druid::localization::LocalizedString<T>>>::from>:
_ZN133_$LT$druid..widget..label..LabelText$LT$T$GT$$u20$as$u20$core..convert..From$LT$druid..localization..LocalizedString$LT$T$GT$$GT$$GT$4from17hf1e382c2f245e3e9E():
C:\druid-embedded\druid\src\widget/label.rs:254
        ////LabelText::Specific(src.to_string())
    }
}

impl<T> From<LocalizedString<T>> for LabelText<T> {
    fn from(src: LocalizedString<T>) -> LabelText<T> {
   0:	b510      	push	{r4, lr}
   2:	4604      	mov	r4, r0
C:\druid-embedded\druid\src\widget/label.rs:255
        LabelText::Localized(src)
   4:	3004      	adds	r0, #4
   6:	2260      	movs	r2, #96	; 0x60
   8:	f7ff fffe 	bl	0 <__aeabi_memcpy4>
   c:	2000      	movs	r0, #0
   e:	6020      	str	r0, [r4, #0]
C:\druid-embedded\druid\src\widget/label.rs:256
    }
  10:	bd10      	pop	{r4, pc}

Disassembly of section .text._ZN140_$LT$st7735_lcd..ST7735$LT$SPI$C$DC$C$RST$GT$$u20$as$u20$embedded_graphics..Drawing$LT$embedded_graphics..pixelcolor..rgb565..Rgb565$GT$$GT$4draw17h9d9764dd82e224c7E:

00000000 <<st7735_lcd::ST7735<SPI,DC,RST> as embedded_graphics::Drawing<embedded_graphics::pixelcolor::rgb565::Rgb565>>::draw>:
_ZN140_$LT$st7735_lcd..ST7735$LT$SPI$C$DC$C$RST$GT$$u20$as$u20$embedded_graphics..Drawing$LT$embedded_graphics..pixelcolor..rgb565..Rgb565$GT$$GT$4draw17h9d9764dd82e224c7E():
C:\Users\guppy\.cargo\registry\src\github.com-1ecc6299db9ec823\st7735-lcd-0.6.1\src/lib.rs:209
where
    SPI: spi::Write<u8>,
    DC: OutputPin,
    RST: OutputPin,
{
    fn draw<T>(&mut self, item_pixels: T)
   0:	b570      	push	{r4, r5, r6, lr}
   2:	b09c      	sub	sp, #112	; 0x70
   4:	ad0c      	add	r5, sp, #48	; 0x30
   6:	4604      	mov	r4, r0
C:\Users\guppy\.cargo\registry\src\github.com-1ecc6299db9ec823\st7735-lcd-0.6.1\src/lib.rs:213
    where
        T: IntoIterator<Item = Pixel<Rgb565>>,
    {
        for Pixel(coord, color) in item_pixels {
   8:	221c      	movs	r2, #28
   a:	4628      	mov	r0, r5
   c:	f7ff fffe 	bl	0 <__aeabi_memcpy>
  10:	466e      	mov	r6, sp
_ZN112_$LT$embedded_graphics..primitives..line..Line$LT$C$GT$$u20$as$u20$core..iter..traits..collect..IntoIterator$GT$9into_iter17h5c7aa4987d028b6fE():
C:\Users\guppy\.cargo\registry\src\github.com-1ecc6299db9ec823\embedded-graphics-0.5.2\src\primitives/line.rs:126
        (&self).into_iter()
  12:	4629      	mov	r1, r5
  14:	4630      	mov	r0, r6
  16:	f7ff fffe 	bl	0 <<st7735_lcd::ST7735<SPI,DC,RST> as embedded_graphics::Drawing<embedded_graphics::pixelcolor::rgb565::Rgb565>>::draw>
  1a:	a80c      	add	r0, sp, #48	; 0x30
_ZN140_$LT$st7735_lcd..ST7735$LT$SPI$C$DC$C$RST$GT$$u20$as$u20$embedded_graphics..Drawing$LT$embedded_graphics..pixelcolor..rgb565..Rgb565$GT$$GT$4draw17h9d9764dd82e224c7E():
C:\Users\guppy\.cargo\registry\src\github.com-1ecc6299db9ec823\st7735-lcd-0.6.1\src/lib.rs:213
  1c:	4631      	mov	r1, r6
  1e:	2230      	movs	r2, #48	; 0x30
  20:	f7ff fffe 	bl	0 <__aeabi_memcpy>
  24:	ae18      	add	r6, sp, #96	; 0x60
  26:	4630      	mov	r0, r6
  28:	4629      	mov	r1, r5
  2a:	f7ff fffe 	bl	0 <<st7735_lcd::ST7735<SPI,DC,RST> as embedded_graphics::Drawing<embedded_graphics::pixelcolor::rgb565::Rgb565>>::draw>
  2e:	9818      	ldr	r0, [sp, #96]	; 0x60
  30:	2801      	cmp	r0, #1
  32:	d10f      	bne.n	54 <<st7735_lcd::ST7735<SPI,DC,RST> as embedded_graphics::Drawing<embedded_graphics::pixelcolor::rgb565::Rgb565>>::draw+0x54>
C:\Users\guppy\.cargo\registry\src\github.com-1ecc6299db9ec823\st7735-lcd-0.6.1\src/lib.rs:214
            self.set_pixel(coord.0 as u16, coord.1 as u16, color.0).expect("pixel write failed");
  34:	f8bd 306c 	ldrh.w	r3, [sp, #108]	; 0x6c
  38:	4620      	mov	r0, r4
C:\Users\guppy\.cargo\registry\src\github.com-1ecc6299db9ec823\st7735-lcd-0.6.1\src/lib.rs:213
        for Pixel(coord, color) in item_pixels {
  3a:	e9dd 1219 	ldrd	r1, r2, [sp, #100]	; 0x64
C:\Users\guppy\.cargo\registry\src\github.com-1ecc6299db9ec823\st7735-lcd-0.6.1\src/lib.rs:214
            self.set_pixel(coord.0 as u16, coord.1 as u16, color.0).expect("pixel write failed");
  3e:	f7ff fffe 	bl	0 <st7735_lcd::ST7735<SPI,DC,RST>::set_pixel>
_ZN4core6result19Result$LT$T$C$E$GT$6expect17h7ce68488bff08470E():
/rustc/412f43ac5b4ae8c3599e71c6972112e9be4758fa/src/libcore/result.rs:983
  42:	2800      	cmp	r0, #0
  44:	d0ef      	beq.n	26 <<st7735_lcd::ST7735<SPI,DC,RST> as embedded_graphics::Drawing<embedded_graphics::pixelcolor::rgb565::Rgb565>>::draw+0x26>
/rustc/412f43ac5b4ae8c3599e71c6972112e9be4758fa/src/libcore/result.rs:984
  46:	4804      	ldr	r0, [pc, #16]	; (58 <<st7735_lcd::ST7735<SPI,DC,RST> as embedded_graphics::Drawing<embedded_graphics::pixelcolor::rgb565::Rgb565>>::draw+0x58>)
  48:	aa18      	add	r2, sp, #96	; 0x60
  4a:	4b04      	ldr	r3, [pc, #16]	; (5c <<st7735_lcd::ST7735<SPI,DC,RST> as embedded_graphics::Drawing<embedded_graphics::pixelcolor::rgb565::Rgb565>>::draw+0x5c>)
  4c:	2112      	movs	r1, #18
  4e:	f7ff fffe 	bl	0 <core::result::unwrap_failed>
  52:	defe      	udf	#254	; 0xfe
_ZN140_$LT$st7735_lcd..ST7735$LT$SPI$C$DC$C$RST$GT$$u20$as$u20$embedded_graphics..Drawing$LT$embedded_graphics..pixelcolor..rgb565..Rgb565$GT$$GT$4draw17h9d9764dd82e224c7E():
C:\Users\guppy\.cargo\registry\src\github.com-1ecc6299db9ec823\st7735-lcd-0.6.1\src/lib.rs:216
        }
    }
  54:	b01c      	add	sp, #112	; 0x70
  56:	bd70      	pop	{r4, r5, r6, pc}
	...

Disassembly of section .text._ZN17embedded_graphics10primitives4line13Line$LT$C$GT$3new17h1cf03c853f1f61a0E:

00000000 <embedded_graphics::primitives::line::Line<C>::new>:
_ZN17embedded_graphics10primitives4line13Line$LT$C$GT$3new17h1cf03c853f1f61a0E():
C:\Users\guppy\.cargo\registry\src\github.com-1ecc6299db9ec823\embedded-graphics-0.5.2\src\primitives/line.rs:80
    pub fn new(start: Coord, end: Coord) -> Self {
   0:	e92d 41ff 	stmdb	sp!, {r0, r1, r2, r3, r4, r5, r6, r7, r8, lr}
   4:	ac01      	add	r4, sp, #4
   6:	4607      	mov	r7, r0
   8:	4698      	mov	r8, r3
   a:	4615      	mov	r5, r2
C:\Users\guppy\.cargo\registry\src\github.com-1ecc6299db9ec823\embedded-graphics-0.5.2\src\primitives/line.rs:84
            style: Style::default(),
   c:	4620      	mov	r0, r4
   e:	460e      	mov	r6, r1
  10:	f7ff fffe 	bl	0 <<embedded_graphics::style::Style<P> as core::default::Default>::default>
  14:	980a      	ldr	r0, [sp, #40]	; 0x28
C:\Users\guppy\.cargo\registry\src\github.com-1ecc6299db9ec823\embedded-graphics-0.5.2\src\primitives/line.rs:81
        Line {
  16:	e9c7 6500 	strd	r6, r5, [r7]
  1a:	e9c7 8002 	strd	r8, r0, [r7, #8]
  1e:	f107 0010 	add.w	r0, r7, #16
  22:	cc06      	ldmia	r4!, {r1, r2}
  24:	c006      	stmia	r0!, {r1, r2}
  26:	8821      	ldrh	r1, [r4, #0]
  28:	8001      	strh	r1, [r0, #0]
C:\Users\guppy\.cargo\registry\src\github.com-1ecc6299db9ec823\embedded-graphics-0.5.2\src\primitives/line.rs:86
    }
  2a:	e8bd 81ff 	ldmia.w	sp!, {r0, r1, r2, r3, r4, r5, r6, r7, r8, pc}

Disassembly of section .text._ZN42_$LT$$RF$T$u20$as$u20$core..fmt..Debug$GT$3fmt17h7ab5bba83a46be05E:

00000000 <<&T as core::fmt::Debug>::fmt>:
_ZN42_$LT$$RF$T$u20$as$u20$core..fmt..Debug$GT$3fmt17h7ab5bba83a46be05E():
/rustc/412f43ac5b4ae8c3599e71c6972112e9be4758fa/src/libcore/fmt/mod.rs:1926
   0:	2000      	movs	r0, #0
   2:	4770      	bx	lr

Disassembly of section .text._ZN45_$LT$$LP$$RP$$u20$as$u20$core..fmt..Debug$GT$3fmt17h1ca253239ac72e38E:

00000000 <<() as core::fmt::Debug>::fmt>:
_ZN45_$LT$$LP$$RP$$u20$as$u20$core..fmt..Debug$GT$3fmt17h1ca253239ac72e38E():
/rustc/412f43ac5b4ae8c3599e71c6972112e9be4758fa/src/libcore/fmt/mod.rs:2118
   0:	4608      	mov	r0, r1
/rustc/412f43ac5b4ae8c3599e71c6972112e9be4758fa/src/libcore/fmt/mod.rs:2119
   2:	4902      	ldr	r1, [pc, #8]	; (c <<() as core::fmt::Debug>::fmt+0xc>)
   4:	2202      	movs	r2, #2
   6:	f7ff bffe 	b.w	0 <core::fmt::Formatter::pad>
   a:	bf00      	nop
   c:	00000000 	.word	0x00000000

Disassembly of section .text._ZN4core3fmt5Write9write_fmt17hb8dea399774939cbE:

00000000 <core::fmt::Write::write_fmt>:
_ZN4core3fmt5Write9write_fmt17hb8dea399774939cbE():
/rustc/412f43ac5b4ae8c3599e71c6972112e9be4758fa/src/libcore/fmt/mod.rs:196
   0:	b5f0      	push	{r4, r5, r6, r7, lr}
   2:	b087      	sub	sp, #28
   4:	9000      	str	r0, [sp, #0]
   6:	aa01      	add	r2, sp, #4
/rustc/412f43ac5b4ae8c3599e71c6972112e9be4758fa/src/libcore/fmt/mod.rs:197
   8:	e891 10f8 	ldmia.w	r1, {r3, r4, r5, r6, r7, ip}
   c:	4610      	mov	r0, r2
   e:	4904      	ldr	r1, [pc, #16]	; (20 <core::fmt::Write::write_fmt+0x20>)
  10:	e880 10f8 	stmia.w	r0, {r3, r4, r5, r6, r7, ip}
  14:	4668      	mov	r0, sp
  16:	f7ff fffe 	bl	0 <core::fmt::write>
/rustc/412f43ac5b4ae8c3599e71c6972112e9be4758fa/src/libcore/fmt/mod.rs:198
  1a:	b007      	add	sp, #28
  1c:	bdf0      	pop	{r4, r5, r6, r7, pc}
  1e:	bf00      	nop
  20:	00000000 	.word	0x00000000

Disassembly of section .text._ZN4core3ops8function6FnOnce9call_once17h1715647495146ca0E:

00000000 <core::ops::function::FnOnce::call_once>:
_ZN3app5hello10ui_builder28_$u7b$$u7b$closure$u7d$$u7d$17hc4525e75923a2eccE():
c:\stm32bluepill-mynewt-sensor/rust\app\src/hello.rs:45
    let label = Label::new(text);
    //  Create a button widget to increment the counter
    let button = Button::<u32>::new( ////
    ////let button = Button::new(
        "increment", 
        |_ctx, data, _env| *data += 1
   0:	6808      	ldr	r0, [r1, #0]
   2:	3001      	adds	r0, #1
   4:	6008      	str	r0, [r1, #0]
_ZN4core3ops8function6FnOnce9call_once17h1715647495146ca0E():
/rustc/412f43ac5b4ae8c3599e71c6972112e9be4758fa/src/libcore/ops/function.rs:223
   6:	4770      	bx	lr

Disassembly of section .text._ZN4core3ops8function6FnOnce9call_once17h7b5f477111092f4fE:

00000000 <core::ops::function::FnOnce::call_once>:
_ZN4core3ops8function6FnOnce9call_once17h7b5f477111092f4fE():
/rustc/412f43ac5b4ae8c3599e71c6972112e9be4758fa/src/libcore/ops/function.rs:223
   0:	b580      	push	{r7, lr}
_ZN3app5hello10ui_builder28_$u7b$$u7b$closure$u7d$$u7d$17h0906522cebdf474cE():
c:\stm32bluepill-mynewt-sensor/rust\app\src/hello.rs:37
            |data: &u32, _env| (*data).into()
   2:	6809      	ldr	r1, [r1, #0]
_ZN50_$LT$T$u20$as$u20$core..convert..Into$LT$U$GT$$GT$4into17hf1d8d50a6f5f7b0fE():
/rustc/412f43ac5b4ae8c3599e71c6972112e9be4758fa/src/libcore/convert.rs:539
   4:	f7ff fffe 	bl	0 <core::ops::function::FnOnce::call_once>
_ZN4core3ops8function6FnOnce9call_once17h7b5f477111092f4fE():
/rustc/412f43ac5b4ae8c3599e71c6972112e9be4758fa/src/libcore/ops/function.rs:223
   8:	bd80      	pop	{r7, pc}

Disassembly of section .text._ZN4core3ptr18real_drop_in_place17h0223cadfa3f57f68E:

00000000 <core::ptr::real_drop_in_place>:
_ZN4core3ptr18real_drop_in_place17h0223cadfa3f57f68E():
/rustc/412f43ac5b4ae8c3599e71c6972112e9be4758fa/src/libcore/ptr/mod.rs:181
   0:	f8d0 1238 	ldr.w	r1, [r0, #568]	; 0x238
   4:	2903      	cmp	r1, #3
   6:	bf18      	it	ne
   8:	f7ff bffe 	bne.w	0 <core::ptr::real_drop_in_place>
   c:	4770      	bx	lr

Disassembly of section .text._ZN4core3ptr18real_drop_in_place17h0d2a489e7f51267eE:

00000000 <core::ptr::real_drop_in_place>:
_ZN4core3ptr18real_drop_in_place17h0d2a489e7f51267eE():
/rustc/412f43ac5b4ae8c3599e71c6972112e9be4758fa/src/libcore/ptr/mod.rs:181
   0:	4770      	bx	lr

Disassembly of section .text._ZN4core3ptr18real_drop_in_place17h0ee23310814d2b66E:

00000000 <core::ptr::real_drop_in_place>:
_ZN4core3ptr18real_drop_in_place17hc32a1ec9ece1786dE():
/rustc/412f43ac5b4ae8c3599e71c6972112e9be4758fa/src/libcore/ptr/mod.rs:181
   0:	6941      	ldr	r1, [r0, #20]
   2:	b101      	cbz	r1, 6 <core::ptr::real_drop_in_place+0x6>
_ZN4core3ptr18real_drop_in_place17h0ee23310814d2b66E():
/rustc/412f43ac5b4ae8c3599e71c6972112e9be4758fa/src/libcore/ptr/mod.rs:181
   4:	4770      	bx	lr
_ZN4core3ptr18real_drop_in_place17h5c1a625ec82f3675E():
/rustc/412f43ac5b4ae8c3599e71c6972112e9be4758fa/src/libcore/ptr/mod.rs:181
   6:	303c      	adds	r0, #60	; 0x3c
   8:	f7ff bffe 	b.w	0 <core::ptr::real_drop_in_place>

Disassembly of section .text._ZN4core3ptr18real_drop_in_place17h202c7158d55d218eE:

00000000 <core::ptr::real_drop_in_place>:
_ZN4core3ptr18real_drop_in_place17h202c7158d55d218eE():
/rustc/412f43ac5b4ae8c3599e71c6972112e9be4758fa/src/libcore/ptr/mod.rs:181
   0:	6801      	ldr	r1, [r0, #0]
   2:	b111      	cbz	r1, a <core::ptr::real_drop_in_place+0xa>
   4:	3004      	adds	r0, #4
_ZN4core3ptr18real_drop_in_place17h1d5a0553894403c9E():
/rustc/412f43ac5b4ae8c3599e71c6972112e9be4758fa/src/libcore/ptr/mod.rs:181
   6:	f7ff bffe 	b.w	0 <<heapless::vec::Vec<T,N> as core::ops::drop::Drop>::drop>
_ZN4core3ptr18real_drop_in_place17h202c7158d55d218eE():
/rustc/412f43ac5b4ae8c3599e71c6972112e9be4758fa/src/libcore/ptr/mod.rs:181
   a:	4770      	bx	lr

Disassembly of section .text._ZN4core3ptr18real_drop_in_place17h210e853128e89bfeE:

00000000 <core::ptr::real_drop_in_place>:
_ZN4core3ptr18real_drop_in_place17h210e853128e89bfeE():
/rustc/412f43ac5b4ae8c3599e71c6972112e9be4758fa/src/libcore/ptr/mod.rs:181
   0:	4770      	bx	lr

Disassembly of section .text._ZN4core3ptr18real_drop_in_place17h263fa97bda99e2f4E:

00000000 <core::ptr::real_drop_in_place>:
_ZN4core3ptr18real_drop_in_place17h263fa97bda99e2f4E():
/rustc/412f43ac5b4ae8c3599e71c6972112e9be4758fa/src/libcore/ptr/mod.rs:181
   0:	4770      	bx	lr

Disassembly of section .text._ZN4core3ptr18real_drop_in_place17h3555a72667080463E:

00000000 <core::ptr::real_drop_in_place>:
_ZN4core3ptr18real_drop_in_place17h3555a72667080463E():
/rustc/412f43ac5b4ae8c3599e71c6972112e9be4758fa/src/libcore/ptr/mod.rs:181
   0:	4770      	bx	lr

Disassembly of section .text._ZN4core3ptr18real_drop_in_place17h41362d811e14e220E:

00000000 <core::ptr::real_drop_in_place>:
_ZN4core3ptr18real_drop_in_place17h41362d811e14e220E():
/rustc/412f43ac5b4ae8c3599e71c6972112e9be4758fa/src/libcore/ptr/mod.rs:181
   0:	4770      	bx	lr

Disassembly of section .text._ZN4core3ptr18real_drop_in_place17h570de06e078de779E:

00000000 <core::ptr::real_drop_in_place>:
_ZN4core3ptr18real_drop_in_place17hdd8d0a91e9964715E():
/rustc/412f43ac5b4ae8c3599e71c6972112e9be4758fa/src/libcore/ptr/mod.rs:181
   0:	f8d0 1238 	ldr.w	r1, [r0, #568]	; 0x238
   4:	2902      	cmp	r1, #2
_ZN4core3ptr18real_drop_in_place17hf8617108944de97aE():
/rustc/412f43ac5b4ae8c3599e71c6972112e9be4758fa/src/libcore/ptr/mod.rs:181
   6:	bf1c      	itt	ne
   8:	3028      	addne	r0, #40	; 0x28
_ZN4core3ptr18real_drop_in_place17h8722bebad5fbf63aE():
/rustc/412f43ac5b4ae8c3599e71c6972112e9be4758fa/src/libcore/ptr/mod.rs:181
   a:	f7ff bffe 	bne.w	0 <<heapless::vec::Vec<T,N> as core::ops::drop::Drop>::drop>
_ZN4core3ptr18real_drop_in_place17h570de06e078de779E():
/rustc/412f43ac5b4ae8c3599e71c6972112e9be4758fa/src/libcore/ptr/mod.rs:181
   e:	4770      	bx	lr

Disassembly of section .text._ZN4core3ptr18real_drop_in_place17h5a416687eac1ae34E:

00000000 <core::ptr::real_drop_in_place>:
_ZN4core3ptr18real_drop_in_place17h5a416687eac1ae34E():
/rustc/412f43ac5b4ae8c3599e71c6972112e9be4758fa/src/libcore/ptr/mod.rs:181
   0:	4770      	bx	lr

Disassembly of section .text._ZN4core3ptr18real_drop_in_place17h61b6eeb8a6c5a096E:

00000000 <core::ptr::real_drop_in_place>:
_ZN4core3ptr18real_drop_in_place17h61b6eeb8a6c5a096E():
/rustc/412f43ac5b4ae8c3599e71c6972112e9be4758fa/src/libcore/ptr/mod.rs:181
   0:	4770      	bx	lr

Disassembly of section .text._ZN4core3ptr18real_drop_in_place17h62cfe80b0a97dcebE:

00000000 <core::ptr::real_drop_in_place>:
_ZN4core3ptr18real_drop_in_place17h62cfe80b0a97dcebE():
/rustc/412f43ac5b4ae8c3599e71c6972112e9be4758fa/src/libcore/ptr/mod.rs:181
   0:	4770      	bx	lr

Disassembly of section .text._ZN4core3ptr18real_drop_in_place17hc192e8431039dd4dE:

00000000 <core::ptr::real_drop_in_place>:
_ZN4core3ptr18real_drop_in_place17hc192e8431039dd4dE():
/rustc/412f43ac5b4ae8c3599e71c6972112e9be4758fa/src/libcore/ptr/mod.rs:181
   0:	4770      	bx	lr

Disassembly of section .text._ZN4core3ptr18real_drop_in_place17he3a0a606a9769187E:

00000000 <core::ptr::real_drop_in_place>:
_ZN4core3ptr18real_drop_in_place17he3a0a606a9769187E():
/rustc/412f43ac5b4ae8c3599e71c6972112e9be4758fa/src/libcore/ptr/mod.rs:181
   0:	4770      	bx	lr

Disassembly of section .text._ZN4core3ptr18real_drop_in_place17hebea082f77da6eedE:

00000000 <core::ptr::real_drop_in_place>:
_ZN4core3ptr18real_drop_in_place17hebea082f77da6eedE():
/rustc/412f43ac5b4ae8c3599e71c6972112e9be4758fa/src/libcore/ptr/mod.rs:181
   0:	4770      	bx	lr

Disassembly of section .text._ZN4core3ptr18real_drop_in_place17hfecf567a6a306612E:

00000000 <core::ptr::real_drop_in_place>:
_ZN4core3ptr18real_drop_in_place17hfecf567a6a306612E():
/rustc/412f43ac5b4ae8c3599e71c6972112e9be4758fa/src/libcore/ptr/mod.rs:181
   0:	4770      	bx	lr

Disassembly of section .text._ZN4core4iter6traits8iterator8Iterator3sum17h51974ad5f1074750E:

00000000 <core::iter::traits::iterator::Iterator::sum>:
_ZN4core4iter6traits8iterator8Iterator3sum17h51974ad5f1074750E():
/rustc/412f43ac5b4ae8c3599e71c6972112e9be4758fa/src/libcore/iter/traits/iterator.rs:2529
   0:	f7ff bffe 	b.w	0 <core::iter::traits::iterator::Iterator::sum>

Disassembly of section .text._ZN4core4iter8adapters16Map$LT$I$C$F$GT$3new17h30e4c1f0d420d908E:

00000000 <core::iter::adapters::Map<I,F>::new>:
_ZN4core4iter8adapters16Map$LT$I$C$F$GT$3new17h30e4c1f0d420d908E():
/rustc/412f43ac5b4ae8c3599e71c6972112e9be4758fa/src/libcore/iter/adapters/mod.rs:688
   0:	4770      	bx	lr

Disassembly of section .text._ZN4core4iter8adapters8map_fold17h89b4408d9f98adecE:

00000000 <core::iter::adapters::map_fold>:
_ZN4core4iter8adapters8map_fold17h89b4408d9f98adecE():
/rustc/412f43ac5b4ae8c3599e71c6972112e9be4758fa/src/libcore/iter/adapters/mod.rs:705
   0:	4770      	bx	lr

Disassembly of section .text._ZN4core5slice87_$LT$impl$u20$core..iter..traits..collect..IntoIterator$u20$for$u20$$RF$$u5b$T$u5d$$GT$9into_iter17h2527c4ff98c5e68eE:

00000000 <core::slice::<impl core::iter::traits::collect::IntoIterator for &[T]>::into_iter>:
_ZN4core5slice29_$LT$impl$u20$$u5b$T$u5d$$GT$4iter17hb9455f6998b57121E():
/rustc/412f43ac5b4ae8c3599e71c6972112e9be4758fa/src/libcore/slice/mod.rs:621
   0:	eb01 0141 	add.w	r1, r1, r1, lsl #1
   4:	eb00 0181 	add.w	r1, r0, r1, lsl #2
_ZN4core5slice87_$LT$impl$u20$core..iter..traits..collect..IntoIterator$u20$for$u20$$RF$$u5b$T$u5d$$GT$9into_iter17h2527c4ff98c5e68eE():
/rustc/412f43ac5b4ae8c3599e71c6972112e9be4758fa/src/libcore/slice/mod.rs:3075
   8:	4770      	bx	lr

Disassembly of section .text._ZN4core5slice87_$LT$impl$u20$core..iter..traits..collect..IntoIterator$u20$for$u20$$RF$$u5b$T$u5d$$GT$9into_iter17h76538937414cd890E:

00000000 <core::slice::<impl core::iter::traits::collect::IntoIterator for &[T]>::into_iter>:
_ZN4core5slice29_$LT$impl$u20$$u5b$T$u5d$$GT$4iter17hafb60d3504f3790dE():
/rustc/412f43ac5b4ae8c3599e71c6972112e9be4758fa/src/libcore/slice/mod.rs:621
   0:	eb00 1181 	add.w	r1, r0, r1, lsl #6
_ZN4core5slice87_$LT$impl$u20$core..iter..traits..collect..IntoIterator$u20$for$u20$$RF$$u5b$T$u5d$$GT$9into_iter17h76538937414cd890E():
/rustc/412f43ac5b4ae8c3599e71c6972112e9be4758fa/src/libcore/slice/mod.rs:3075
   4:	4770      	bx	lr

Disassembly of section .text._ZN4core6result19Result$LT$T$C$E$GT$6expect17h065735530cb6a3f9E:

00000000 <core::result::Result<T,E>::expect>:
_ZN4core6result19Result$LT$T$C$E$GT$6expect17h065735530cb6a3f9E():
/rustc/412f43ac5b4ae8c3599e71c6972112e9be4758fa/src/libcore/result.rs:981
   0:	b082      	sub	sp, #8
/rustc/412f43ac5b4ae8c3599e71c6972112e9be4758fa/src/libcore/result.rs:983
   2:	6801      	ldr	r1, [r0, #0]
   4:	2901      	cmp	r1, #1
   6:	bf1e      	ittt	ne
   8:	6840      	ldrne	r0, [r0, #4]
/rustc/412f43ac5b4ae8c3599e71c6972112e9be4758fa/src/libcore/result.rs:986
   a:	b002      	addne	sp, #8
   c:	4770      	bxne	lr
/rustc/412f43ac5b4ae8c3599e71c6972112e9be4758fa/src/libcore/result.rs:984
   e:	6840      	ldr	r0, [r0, #4]
  10:	aa01      	add	r2, sp, #4
  12:	9001      	str	r0, [sp, #4]
  14:	2108      	movs	r1, #8
  16:	4802      	ldr	r0, [pc, #8]	; (20 <core::result::Result<T,E>::expect+0x20>)
  18:	4b02      	ldr	r3, [pc, #8]	; (24 <core::result::Result<T,E>::expect+0x24>)
  1a:	f7ff fffe 	bl	0 <core::result::unwrap_failed>
  1e:	defe      	udf	#254	; 0xfe
	...

Disassembly of section .text._ZN4core6result19Result$LT$T$C$E$GT$6expect17h82e8feca3981cc41E:

00000000 <core::result::Result<T,E>::expect>:
_ZN4core6result19Result$LT$T$C$E$GT$6expect17h82e8feca3981cc41E():
/rustc/412f43ac5b4ae8c3599e71c6972112e9be4758fa/src/libcore/result.rs:983
   0:	2801      	cmp	r0, #1
/rustc/412f43ac5b4ae8c3599e71c6972112e9be4758fa/src/libcore/result.rs:986
   2:	bf08      	it	eq
   4:	4770      	bxeq	lr
   6:	b51c      	push	{r2, r3, r4, lr}
   8:	ac01      	add	r4, sp, #4
/rustc/412f43ac5b4ae8c3599e71c6972112e9be4758fa/src/libcore/result.rs:984
   a:	4b04      	ldr	r3, [pc, #16]	; (1c <core::result::Result<T,E>::expect+0x1c>)
   c:	9001      	str	r0, [sp, #4]
   e:	4608      	mov	r0, r1
  10:	4611      	mov	r1, r2
  12:	4622      	mov	r2, r4
  14:	f7ff fffe 	bl	0 <core::result::unwrap_failed>
  18:	defe      	udf	#254	; 0xfe
  1a:	bf00      	nop
  1c:	00000000 	.word	0x00000000

Disassembly of section .text._ZN4core6result19Result$LT$T$C$E$GT$6unwrap17hfecf9a43f8803639E:

00000000 <core::result::Result<T,E>::unwrap>:
_ZN4core6result19Result$LT$T$C$E$GT$6unwrap17hfecf9a43f8803639E():
/rustc/412f43ac5b4ae8c3599e71c6972112e9be4758fa/src/libcore/result.rs:956
   0:	b900      	cbnz	r0, 4 <core::result::Result<T,E>::unwrap+0x4>
/rustc/412f43ac5b4ae8c3599e71c6972112e9be4758fa/src/libcore/result.rs:959
   2:	4770      	bx	lr
   4:	b082      	sub	sp, #8
/rustc/412f43ac5b4ae8c3599e71c6972112e9be4758fa/src/libcore/result.rs:957
   6:	4803      	ldr	r0, [pc, #12]	; (14 <core::result::Result<T,E>::unwrap+0x14>)
   8:	aa01      	add	r2, sp, #4
   a:	4b03      	ldr	r3, [pc, #12]	; (18 <core::result::Result<T,E>::unwrap+0x18>)
   c:	212b      	movs	r1, #43	; 0x2b
   e:	f7ff fffe 	bl	0 <core::result::unwrap_failed>
  12:	defe      	udf	#254	; 0xfe
	...

Disassembly of section .text._ZN50_$LT$$RF$mut$u20$W$u20$as$u20$core..fmt..Write$GT$10write_char17h75662850cd2103c5E:

00000000 <<&mut W as core::fmt::Write>::write_char>:
_ZN50_$LT$$RF$mut$u20$W$u20$as$u20$core..fmt..Write$GT$10write_char17h75662850cd2103c5E():
/rustc/412f43ac5b4ae8c3599e71c6972112e9be4758fa/src/libcore/fmt/mod.rs:208
   0:	6800      	ldr	r0, [r0, #0]
   2:	f7ff bffe 	b.w	0 <<&mut W as core::fmt::Write>::write_char>

Disassembly of section .text._ZN50_$LT$$RF$mut$u20$W$u20$as$u20$core..fmt..Write$GT$9write_fmt17h8b309f61526767cfE:

00000000 <<&mut W as core::fmt::Write>::write_fmt>:
_ZN50_$LT$$RF$mut$u20$W$u20$as$u20$core..fmt..Write$GT$9write_fmt17h8b309f61526767cfE():
/rustc/412f43ac5b4ae8c3599e71c6972112e9be4758fa/src/libcore/fmt/mod.rs:211
   0:	b5f0      	push	{r4, r5, r6, r7, lr}
   2:	b087      	sub	sp, #28
/rustc/412f43ac5b4ae8c3599e71c6972112e9be4758fa/src/libcore/fmt/mod.rs:212
   4:	6800      	ldr	r0, [r0, #0]
   6:	f10d 0c04 	add.w	ip, sp, #4
   a:	e891 40f4 	ldmia.w	r1, {r2, r4, r5, r6, r7, lr}
   e:	4663      	mov	r3, ip
  10:	4661      	mov	r1, ip
  12:	e883 40f4 	stmia.w	r3, {r2, r4, r5, r6, r7, lr}
  16:	f7ff fffe 	bl	0 <<&mut W as core::fmt::Write>::write_fmt>
/rustc/412f43ac5b4ae8c3599e71c6972112e9be4758fa/src/libcore/fmt/mod.rs:213
  1a:	b007      	add	sp, #28
  1c:	bdf0      	pop	{r4, r5, r6, r7, pc}

Disassembly of section .text._ZN50_$LT$$RF$mut$u20$W$u20$as$u20$core..fmt..Write$GT$9write_str17hc98569f5e041bf67E:

00000000 <<&mut W as core::fmt::Write>::write_str>:
_ZN50_$LT$$RF$mut$u20$W$u20$as$u20$core..fmt..Write$GT$9write_str17hc98569f5e041bf67E():
/rustc/412f43ac5b4ae8c3599e71c6972112e9be4758fa/src/libcore/fmt/mod.rs:204
   0:	6800      	ldr	r0, [r0, #0]
_ZN8heapless6string15String$LT$N$GT$8push_str17h21a8a82c1417a427E():
C:\Users\guppy\.cargo\registry\src\github.com-1ecc6299db9ec823\heapless-0.5.1\src/string.rs:201
    ///
    /// assert!(s.push_str("tender").is_err());
    /// ```
    #[inline]
    pub fn push_str(&mut self, string: &str) -> Result<(), ()> {
        self.0.vec.extend_from_slice(string.as_bytes())
   2:	f7ff bffe 	b.w	0 <heapless::vec::<impl heapless::i::Vec<generic_array::GenericArray<T,N>>>::extend_from_slice>

Disassembly of section .text._ZN50_$LT$T$u20$as$u20$core..convert..From$LT$T$GT$$GT$4from17h72a03c5c655c1b81E:

00000000 <<T as core::convert::From<T>>::from>:
_ZN50_$LT$T$u20$as$u20$core..convert..From$LT$T$GT$$GT$4from17h72a03c5c655c1b81E():
/rustc/412f43ac5b4ae8c3599e71c6972112e9be4758fa/src/libcore/convert.rs:546
   0:	4770      	bx	lr

Disassembly of section .text._ZN50_$LT$T$u20$as$u20$core..convert..From$LT$T$GT$$GT$4from17ha528600cafe70a54E:

00000000 <<T as core::convert::From<T>>::from>:
_ZN50_$LT$T$u20$as$u20$core..convert..From$LT$T$GT$$GT$4from17ha528600cafe70a54E():
/rustc/412f43ac5b4ae8c3599e71c6972112e9be4758fa/src/libcore/convert.rs:546
   0:	4770      	bx	lr

Disassembly of section .text._ZN50_$LT$T$u20$as$u20$core..convert..Into$LT$U$GT$$GT$4into17h1f3dd639bafef216E:

00000000 <<T as core::convert::Into<U>>::into>:
_ZN50_$LT$T$u20$as$u20$core..convert..Into$LT$U$GT$$GT$4into17h1f3dd639bafef216E():
/rustc/412f43ac5b4ae8c3599e71c6972112e9be4758fa/src/libcore/convert.rs:540
   0:	4770      	bx	lr

Disassembly of section .text._ZN50_$LT$T$u20$as$u20$core..convert..Into$LT$U$GT$$GT$4into17h3af41b9a6781eef1E:

00000000 <<T as core::convert::Into<U>>::into>:
_ZN50_$LT$T$u20$as$u20$core..convert..Into$LT$U$GT$$GT$4into17h3af41b9a6781eef1E():
/rustc/412f43ac5b4ae8c3599e71c6972112e9be4758fa/src/libcore/convert.rs:540
   0:	4770      	bx	lr

Disassembly of section .text._ZN50_$LT$T$u20$as$u20$core..convert..Into$LT$U$GT$$GT$4into17h6ec456640f6940dfE:

00000000 <<T as core::convert::Into<U>>::into>:
_ZN50_$LT$T$u20$as$u20$core..convert..Into$LT$U$GT$$GT$4into17h6ec456640f6940dfE():
/rustc/412f43ac5b4ae8c3599e71c6972112e9be4758fa/src/libcore/convert.rs:538
   0:	b5b0      	push	{r4, r5, r7, lr}
   2:	b088      	sub	sp, #32
   4:	466d      	mov	r5, sp
   6:	4604      	mov	r4, r0
/rustc/412f43ac5b4ae8c3599e71c6972112e9be4758fa/src/libcore/convert.rs:539
   8:	4628      	mov	r0, r5
   a:	2220      	movs	r2, #32
   c:	f7ff fffe 	bl	0 <__aeabi_memcpy>
  10:	4620      	mov	r0, r4
  12:	4629      	mov	r1, r5
  14:	f7ff fffe 	bl	0 <<druid::Region as core::convert::From<kurbo::rect::Rect>>::from>
/rustc/412f43ac5b4ae8c3599e71c6972112e9be4758fa/src/libcore/convert.rs:540
  18:	b008      	add	sp, #32
  1a:	bdb0      	pop	{r4, r5, r7, pc}

Disassembly of section .text._ZN50_$LT$T$u20$as$u20$core..convert..Into$LT$U$GT$$GT$4into17h85185d13e6afc34dE:

00000000 <<T as core::convert::Into<U>>::into>:
_ZN50_$LT$T$u20$as$u20$core..convert..Into$LT$U$GT$$GT$4into17h85185d13e6afc34dE():
/rustc/412f43ac5b4ae8c3599e71c6972112e9be4758fa/src/libcore/convert.rs:540
   0:	4770      	bx	lr

Disassembly of section .text._ZN50_$LT$T$u20$as$u20$core..convert..Into$LT$U$GT$$GT$4into17ha6c30cf29a2e5f10E:

00000000 <<T as core::convert::Into<U>>::into>:
_ZN50_$LT$T$u20$as$u20$core..convert..Into$LT$U$GT$$GT$4into17ha6c30cf29a2e5f10E():
/rustc/412f43ac5b4ae8c3599e71c6972112e9be4758fa/src/libcore/convert.rs:538
   0:	b510      	push	{r4, lr}
   2:	4604      	mov	r4, r0
_ZN133_$LT$druid..widget..label..LabelText$LT$T$GT$$u20$as$u20$core..convert..From$LT$druid..localization..LocalizedString$LT$T$GT$$GT$$GT$4from17hf1e382c2f245e3e9E():
C:\druid-embedded\druid\src\widget/label.rs:255
        LabelText::Localized(src)
   4:	3004      	adds	r0, #4
   6:	2260      	movs	r2, #96	; 0x60
   8:	f7ff fffe 	bl	0 <__aeabi_memcpy4>
   c:	2000      	movs	r0, #0
   e:	6020      	str	r0, [r4, #0]
_ZN50_$LT$T$u20$as$u20$core..convert..Into$LT$U$GT$$GT$4into17ha6c30cf29a2e5f10E():
/rustc/412f43ac5b4ae8c3599e71c6972112e9be4758fa/src/libcore/convert.rs:540
  10:	bd10      	pop	{r4, pc}

Disassembly of section .text._ZN50_$LT$T$u20$as$u20$core..convert..Into$LT$U$GT$$GT$4into17hbf12dae1a674e292E:

00000000 <<T as core::convert::Into<U>>::into>:
_ZN50_$LT$T$u20$as$u20$core..convert..Into$LT$U$GT$$GT$4into17hbf12dae1a674e292E():
/rustc/412f43ac5b4ae8c3599e71c6972112e9be4758fa/src/libcore/convert.rs:540
   0:	4770      	bx	lr

Disassembly of section .text._ZN50_$LT$T$u20$as$u20$core..convert..Into$LT$U$GT$$GT$4into17hd105448d2582fa00E:

00000000 <<T as core::convert::Into<U>>::into>:
_ZN50_$LT$T$u20$as$u20$core..convert..Into$LT$U$GT$$GT$4into17hd105448d2582fa00E():
/rustc/412f43ac5b4ae8c3599e71c6972112e9be4758fa/src/libcore/convert.rs:538
   0:	b580      	push	{r7, lr}
/rustc/412f43ac5b4ae8c3599e71c6972112e9be4758fa/src/libcore/convert.rs:539
   2:	f7ff fffe 	bl	0 <<T as core::convert::Into<U>>::into>
/rustc/412f43ac5b4ae8c3599e71c6972112e9be4758fa/src/libcore/convert.rs:540
   6:	bd80      	pop	{r7, pc}

Disassembly of section .text._ZN50_$LT$T$u20$as$u20$core..convert..Into$LT$U$GT$$GT$4into17hf1d8d50a6f5f7b0fE:

00000000 <<T as core::convert::Into<U>>::into>:
_ZN50_$LT$T$u20$as$u20$core..convert..Into$LT$U$GT$$GT$4into17hf1d8d50a6f5f7b0fE():
/rustc/412f43ac5b4ae8c3599e71c6972112e9be4758fa/src/libcore/convert.rs:538
   0:	b580      	push	{r7, lr}
/rustc/412f43ac5b4ae8c3599e71c6972112e9be4758fa/src/libcore/convert.rs:539
   2:	f7ff fffe 	bl	0 <<T as core::convert::Into<U>>::into>
/rustc/412f43ac5b4ae8c3599e71c6972112e9be4758fa/src/libcore/convert.rs:540
   6:	bd80      	pop	{r7, pc}

Disassembly of section .text._ZN54_$LT$f64$u20$as$u20$core..iter..traits..accum..Sum$GT$3sum17had7373165c8fa8fdE:

00000000 <<f64 as core::iter::traits::accum::Sum>::sum>:
_ZN54_$LT$f64$u20$as$u20$core..iter..traits..accum..Sum$GT$3sum17had7373165c8fa8fdE():
/rustc/412f43ac5b4ae8c3599e71c6972112e9be4758fa/src/libcore/iter/traits/accum.rs:87
   0:	ed9f 0b01 	vldr	d0, [pc, #4]	; 8 <<f64 as core::iter::traits::accum::Sum>::sum+0x8>
/rustc/412f43ac5b4ae8c3599e71c6972112e9be4758fa/src/libcore/iter/traits/accum.rs:88
   4:	f7ff bffe 	b.w	0 <<f64 as core::iter::traits::accum::Sum>::sum>
	...

Disassembly of section .text._ZN59_$LT$$LP$T10$C$$u20$T11$RP$$u20$as$u20$core..fmt..Debug$GT$3fmt17h69687c9e4aa1a06eE:

00000000 <<(T10, T11) as core::fmt::Debug>::fmt>:
_ZN59_$LT$$LP$T10$C$$u20$T11$RP$$u20$as$u20$core..fmt..Debug$GT$3fmt17h69687c9e4aa1a06eE():
/rustc/412f43ac5b4ae8c3599e71c6972112e9be4758fa/src/libcore/fmt/mod.rs:2087
   0:	b5b0      	push	{r4, r5, r7, lr}
   2:	b086      	sub	sp, #24
   4:	ad01      	add	r5, sp, #4
/rustc/412f43ac5b4ae8c3599e71c6972112e9be4758fa/src/libcore/fmt/mod.rs:2088
   6:	4a0c      	ldr	r2, [pc, #48]	; (38 <<(T10, T11) as core::fmt::Debug>::fmt+0x38>)
   8:	4604      	mov	r4, r0
   a:	2300      	movs	r3, #0
   c:	4628      	mov	r0, r5
   e:	f7ff fffe 	bl	0 <core::fmt::Formatter::debug_tuple>
/rustc/412f43ac5b4ae8c3599e71c6972112e9be4758fa/src/libcore/fmt/mod.rs:2091
  12:	4a0a      	ldr	r2, [pc, #40]	; (3c <<(T10, T11) as core::fmt::Debug>::fmt+0x3c>)
/rustc/412f43ac5b4ae8c3599e71c6972112e9be4758fa/src/libcore/fmt/mod.rs:2089
  14:	f104 0008 	add.w	r0, r4, #8
  18:	a904      	add	r1, sp, #16
  1a:	9005      	str	r0, [sp, #20]
/rustc/412f43ac5b4ae8c3599e71c6972112e9be4758fa/src/libcore/fmt/mod.rs:2091
  1c:	4628      	mov	r0, r5
/rustc/412f43ac5b4ae8c3599e71c6972112e9be4758fa/src/libcore/fmt/mod.rs:2089
  1e:	9404      	str	r4, [sp, #16]
/rustc/412f43ac5b4ae8c3599e71c6972112e9be4758fa/src/libcore/fmt/mod.rs:2091
  20:	f7ff fffe 	bl	0 <core::fmt::builders::DebugTuple::field>
  24:	4a06      	ldr	r2, [pc, #24]	; (40 <<(T10, T11) as core::fmt::Debug>::fmt+0x40>)
  26:	a905      	add	r1, sp, #20
  28:	4628      	mov	r0, r5
  2a:	f7ff fffe 	bl	0 <core::fmt::builders::DebugTuple::field>
/rustc/412f43ac5b4ae8c3599e71c6972112e9be4758fa/src/libcore/fmt/mod.rs:2094
  2e:	4628      	mov	r0, r5
  30:	f7ff fffe 	bl	0 <core::fmt::builders::DebugTuple::finish>
/rustc/412f43ac5b4ae8c3599e71c6972112e9be4758fa/src/libcore/fmt/mod.rs:2095
  34:	b006      	add	sp, #24
  36:	bdb0      	pop	{r4, r5, r7, pc}
	...

Disassembly of section .text._ZN5druid11win_handler16Windows$LT$T$GT$3add17had17412f00d5a178E:

00000000 <druid::win_handler::Windows<T>::add>:
_ZN5druid11win_handler16Windows$LT$T$GT$3add17had17412f00d5a178E():
C:\druid-embedded\druid\src/win_handler.rs:202
        };
        self.state = Some(state); ////
        ////self.state.insert(id, state);
    }

    fn add(&mut self, id: WindowId, window: WindowBox<T>) { ////
   0:	b5b0      	push	{r4, r5, r7, lr}
   2:	4614      	mov	r4, r2
   4:	4605      	mov	r5, r0
C:\druid-embedded\druid\src/win_handler.rs:204
    ////fn add(&mut self, id: WindowId, window: Window<T>) {
        self.windows = Some(window); ////
   6:	f7ff fffe 	bl	0 <druid::win_handler::Windows<T>::add>
   a:	4628      	mov	r0, r5
   c:	4621      	mov	r1, r4
   e:	f44f 7216 	mov.w	r2, #600	; 0x258
  12:	f7ff fffe 	bl	0 <__aeabi_memcpy8>
C:\druid-embedded\druid\src/win_handler.rs:206
        ////self.windows.insert(id, window);
    }
  16:	bdb0      	pop	{r4, r5, r7, pc}

Disassembly of section .text._ZN5druid11win_handler16Windows$LT$T$GT$3get17h352816ef234e24b4E:

00000000 <druid::win_handler::Windows<T>::get>:
_ZN5druid11win_handler16Windows$LT$T$GT$3get17h352816ef234e24b4E():
C:\druid-embedded\druid\src/win_handler.rs:217
        ////Some(self.state[0].handle) ////
        None ////
    }

    //TODO: rename me?
    fn get<'a>( ////
   0:	e92d 41f0 	stmdb	sp!, {r4, r5, r6, r7, r8, lr}
   4:	f5ad 7d16 	sub.w	sp, sp, #600	; 0x258
   8:	4605      	mov	r5, r0
_ZN68_$LT$core..option..Option$LT$T$GT$$u20$as$u20$core..clone..Clone$GT$5clone17h9276d0b77e219ca9E():
/rustc/412f43ac5b4ae8c3599e71c6972112e9be4758fa/src/libcore/option.rs:1206
   a:	f8d1 0258 	ldr.w	r0, [r1, #600]	; 0x258
_ZN4core6option15Option$LT$T$GT$6unwrap17h23a45e8c0b4055d2E():
/rustc/412f43ac5b4ae8c3599e71c6972112e9be4758fa/src/libcore/option.rs:379
   e:	b1c8      	cbz	r0, 44 <druid::win_handler::Windows<T>::get+0x44>
_ZN5druid11win_handler16Windows$LT$T$GT$3get17h352816ef234e24b4E():
  10:	4668      	mov	r0, sp
  12:	461c      	mov	r4, r3
  14:	4616      	mov	r6, r2
  16:	f8d1 725c 	ldr.w	r7, [r1, #604]	; 0x25c
C:\druid-embedded\druid\src/win_handler.rs:227
        env: &'a Env,
    ) -> Option<SingleWindowState<'a, T>> { ////
    ////) -> Option<SingleWindowState<'a, T>> {        
        let state = self.state.clone().unwrap(); ////
        ////let state = self.state.get_mut(&window_id);
        let window = self.windows.clone().unwrap(); ////
  1a:	f7ff fffe 	bl	0 <druid::win_handler::Windows<T>::get>
_ZN4core6option15Option$LT$T$GT$6unwrap17h9fe9a5832183754bE():
/rustc/412f43ac5b4ae8c3599e71c6972112e9be4758fa/src/libcore/option.rs:379
  1e:	988e      	ldr	r0, [sp, #568]	; 0x238
  20:	2803      	cmp	r0, #3
  22:	d00f      	beq.n	44 <druid::win_handler::Windows<T>::get+0x44>
  24:	4669      	mov	r1, sp
  26:	4628      	mov	r0, r5
  28:	f44f 7216 	mov.w	r2, #600	; 0x258
  2c:	f8dd 8270 	ldr.w	r8, [sp, #624]	; 0x270
  30:	f7ff fffe 	bl	0 <__aeabi_memcpy8>
_ZN5druid11win_handler16Windows$LT$T$GT$3get17h352816ef234e24b4E():
C:\druid-embedded\druid\src/win_handler.rs:229
        ////let window = self.windows.get_mut(&window_id);
        Some(SingleWindowState { ////
  34:	e9c5 6796 	strd	r6, r7, [r5, #600]	; 0x258
  38:	e9c5 4898 	strd	r4, r8, [r5, #608]	; 0x260
C:\druid-embedded\druid\src/win_handler.rs:259
            (Some(_), None) => {} ////warn!("missing state for window id {:?}", window_id),
            (None, None) => {} ////warn!("unknown window {:?}", window_id),
        }
        None
        */ ////
    }
  3c:	f50d 7d16 	add.w	sp, sp, #600	; 0x258
  40:	e8bd 81f0 	ldmia.w	sp!, {r4, r5, r6, r7, r8, pc}
  44:	4802      	ldr	r0, [pc, #8]	; (50 <druid::win_handler::Windows<T>::get+0x50>)
  46:	212b      	movs	r1, #43	; 0x2b
  48:	4a02      	ldr	r2, [pc, #8]	; (54 <druid::win_handler::Windows<T>::get+0x54>)
  4a:	f7ff fffe 	bl	0 <core::panicking::panic>
  4e:	defe      	udf	#254	; 0xfe
	...

Disassembly of section .text._ZN5druid11win_handler17AppState$LT$T$GT$10add_window17h3b4ad0c0f2ec51e6E:

00000000 <druid::win_handler::AppState<T>::add_window>:
_ZN5druid11win_handler17AppState$LT$T$GT$10add_window17h3b4ad0c0f2ec51e6E():
C:\druid-embedded\druid\src/win_handler.rs:494
                del.window_added(id, data, env, ctx)
            });
        }
    */ ////

    pub(crate) fn add_window(&mut self, id: WindowId, window: WindowBox<T>) { ////
   0:	b5b0      	push	{r4, r5, r7, lr}
   2:	4614      	mov	r4, r2
   4:	4605      	mov	r5, r0
_ZN5druid11win_handler16Windows$LT$T$GT$3add17had17412f00d5a178E():
C:\druid-embedded\druid\src/win_handler.rs:204
        self.windows = Some(window); ////
   6:	f7ff fffe 	bl	0 <druid::win_handler::AppState<T>::add_window>
   a:	4628      	mov	r0, r5
   c:	4621      	mov	r1, r4
   e:	f44f 7216 	mov.w	r2, #600	; 0x258
  12:	f7ff fffe 	bl	0 <__aeabi_memcpy8>
_ZN5druid11win_handler17AppState$LT$T$GT$10add_window17h3b4ad0c0f2ec51e6E():
C:\druid-embedded\druid\src/win_handler.rs:497
    ////pub(crate) fn add_window(&mut self, id: WindowId, window: Window<T>) {
        self.windows.add(id, window);
    }
  16:	bdb0      	pop	{r4, r5, r7, pc}

Disassembly of section .text._ZN5druid11win_handler17AppState$LT$T$GT$21assemble_window_state17hd87bfcd62adde00dE:

00000000 <druid::win_handler::AppState<T>::assemble_window_state>:
_ZN5druid11win_handler17AppState$LT$T$GT$21assemble_window_state17hd87bfcd62adde00dE():
C:\druid-embedded\druid\src/win_handler.rs:517
        ////if let Some(state) = self.windows.state.get(&id) {
            state.handle.bring_to_front_and_focus();
        ////}
    }

    fn assemble_window_state(&mut self, window_id: WindowId) -> Option<SingleWindowState<'_, T>> { ////
   0:	b5e0      	push	{r5, r6, r7, lr}
C:\druid-embedded\druid\src/win_handler.rs:522
    ////fn assemble_window_state(&mut self, window_id: WindowId) -> Option<SingleWindowState<'_, T>> {
        let AppState {
            ////ref mut command_queue,
            ref mut windows,
            ref mut data,
   2:	f501 7318 	add.w	r3, r1, #608	; 0x260
C:\druid-embedded\druid\src/win_handler.rs:526
            ref env,
            ..
        } = self;
        windows.get(window_id, data, env) ////
   6:	9100      	str	r1, [sp, #0]
   8:	f7ff fffe 	bl	0 <druid::win_handler::AppState<T>::assemble_window_state>
C:\druid-embedded\druid\src/win_handler.rs:528
        ////windows.get(window_id, command_queue, data, env)
    }
   c:	bd8c      	pop	{r2, r3, r7, pc}

Disassembly of section .text._ZN5druid11win_handler17AppState$LT$T$GT$3new17h54e565012aca0f6fE:

00000000 <druid::win_handler::AppState<T>::new>:
_ZN5druid11win_handler17AppState$LT$T$GT$3new17h54e565012aca0f6fE():
C:\druid-embedded\druid\src/win_handler.rs:428
    pub(crate) fn new(
   0:	b5b0      	push	{r4, r5, r7, lr}
   2:	460c      	mov	r4, r1
_ZN79_$LT$druid..win_handler..Windows$LT$T$GT$$u20$as$u20$core..default..Default$GT$7default17h0aa0e645e40f75fdE():
C:\druid-embedded\druid\src/win_handler.rs:859

impl<T: Data + 'static> Default for Windows<T> { ////
////impl<T: Data> Default for Windows<T> {
    fn default() -> Self {
        Windows {
            windows: None, ////
   4:	f44f 710e 	mov.w	r1, #568	; 0x238
   8:	4605      	mov	r5, r0
   a:	f7ff fffe 	bl	0 <__aeabi_memclr8>
   e:	2003      	movs	r0, #3
_ZN5druid11win_handler17AppState$LT$T$GT$3new17h54e565012aca0f6fE():
C:\druid-embedded\druid\src/win_handler.rs:434
        AppState { ////
  10:	2120      	movs	r1, #32
  12:	f8c5 0238 	str.w	r0, [r5, #568]	; 0x238
  16:	f505 700f 	add.w	r0, r5, #572	; 0x23c
  1a:	f7ff fffe 	bl	0 <__aeabi_memclr4>
  1e:	f8c5 4260 	str.w	r4, [r5, #608]	; 0x260
C:\druid-embedded\druid\src/win_handler.rs:442
    }
  22:	bdb0      	pop	{r4, r5, r7, pc}

Disassembly of section .text._ZN5druid11win_handler17AppState$LT$T$GT$5paint17h89525d7aa4b8caccE:

00000000 <druid::win_handler::AppState<T>::paint>:
_ZN5druid11win_handler17AppState$LT$T$GT$5paint17h89525d7aa4b8caccE():
C:\druid-embedded\druid\src/win_handler.rs:530
    fn paint(&mut self, window_id: WindowId, piet: &mut Piet, ctx: &mut dyn WinCtx) -> bool {
   0:	b5b0      	push	{r4, r5, r7, lr}
   2:	f5ad 6d9a 	sub.w	sp, sp, #1232	; 0x4d0
   6:	4614      	mov	r4, r2
   8:	460a      	mov	r2, r1
   a:	4601      	mov	r1, r0
   c:	4668      	mov	r0, sp
C:\druid-embedded\druid\src/win_handler.rs:531
        self.assemble_window_state(window_id)
   e:	f7ff fffe 	bl	0 <druid::win_handler::AppState<T>::paint>
_ZN4core6option15Option$LT$T$GT$3map17h328c2676d15eb779E():
/rustc/412f43ac5b4ae8c3599e71c6972112e9be4758fa/src/libcore/option.rs:449
  12:	988e      	ldr	r0, [sp, #568]	; 0x238
  14:	2803      	cmp	r0, #3
  16:	d00d      	beq.n	34 <druid::win_handler::AppState<T>::paint+0x34>
  18:	ad9a      	add	r5, sp, #616	; 0x268
  1a:	4669      	mov	r1, sp
  1c:	f44f 721a 	mov.w	r2, #616	; 0x268
  20:	4628      	mov	r0, r5
  22:	f7ff fffe 	bl	0 <__aeabi_memcpy8>
_ZN5druid11win_handler17AppState$LT$T$GT$5paint28_$u7b$$u7b$closure$u7d$$u7d$17he83a359c566719fdE():
C:\druid-embedded\druid\src/win_handler.rs:532
            .map(|mut win| win.paint(piet, ctx))
  26:	4628      	mov	r0, r5
  28:	4621      	mov	r1, r4
  2a:	f7ff fffe 	bl	0 <druid::win_handler::AppState<T>::paint>
_ZN4core3ptr18real_drop_in_place17h177b460a9ee5f1b0E():
/rustc/412f43ac5b4ae8c3599e71c6972112e9be4758fa/src/libcore/ptr/mod.rs:181
  2e:	4628      	mov	r0, r5
  30:	f7ff fffe 	bl	0 <druid::win_handler::AppState<T>::paint>
_ZN5druid11win_handler17AppState$LT$T$GT$5paint17h89525d7aa4b8caccE():
C:\druid-embedded\druid\src/win_handler.rs:534
    }
  34:	2000      	movs	r0, #0
  36:	f50d 6d9a 	add.w	sp, sp, #1232	; 0x4d0
  3a:	bdb0      	pop	{r4, r5, r7, pc}

Disassembly of section .text._ZN5druid11win_handler21DruidHandler$LT$T$GT$10new_shared17h629442530d426482E:

00000000 <druid::win_handler::DruidHandler<T>::new_shared>:
_ZN5druid11win_handler21DruidHandler$LT$T$GT$10new_shared17h629442530d426482E():
C:\druid-embedded\druid\src/win_handler.rs:625
    pub(crate) fn new_shared(
   0:	b510      	push	{r4, lr}
   2:	460c      	mov	r4, r1
_ZN4core3ptr18real_drop_in_place17hba43bf81d2539fb0E():
/rustc/412f43ac5b4ae8c3599e71c6972112e9be4758fa/src/libcore/ptr/mod.rs:181
   4:	f7ff fffe 	bl	0 <druid::win_handler::DruidHandler<T>::new_shared>
_ZN5druid11win_handler21DruidHandler$LT$T$GT$10new_shared17h629442530d426482E():
C:\druid-embedded\druid\src/win_handler.rs:638
    }
   8:	4620      	mov	r0, r4
   a:	bd10      	pop	{r4, pc}

Disassembly of section .text._ZN5druid11win_handler26SingleWindowState$LT$T$GT$5paint17h6c4f6c027d2de84aE:

00000000 <druid::win_handler::SingleWindowState<T>::paint>:
_ZN5druid11win_handler26SingleWindowState$LT$T$GT$5paint17h6c4f6c027d2de84aE():
C:\druid-embedded\druid\src/win_handler.rs:263
    fn paint(&mut self, piet: &mut Piet, ctx: &mut dyn WinCtx) -> bool {
   0:	b5b0      	push	{r4, r5, r7, lr}
   2:	460c      	mov	r4, r1
   4:	4605      	mov	r5, r0
C:\druid-embedded\druid\src/win_handler.rs:265
        self.do_layout(piet);
   6:	f7ff fffe 	bl	0 <druid::win_handler::SingleWindowState<T>::paint>
C:\druid-embedded\druid\src/win_handler.rs:266
        piet.clear(crate::env::WINDOW_BACKGROUND_COLOR); ////
   a:	4620      	mov	r0, r4
   c:	21ff      	movs	r1, #255	; 0xff
   e:	f7ff fffe 	bl	0 <<piet_embedded_graphics::context::EmbedRenderContext as piet::render_context::RenderContext>::clear>
C:\druid-embedded\druid\src/win_handler.rs:268
        self.do_paint(piet);
  12:	4628      	mov	r0, r5
  14:	4621      	mov	r1, r4
  16:	f7ff fffe 	bl	0 <druid::win_handler::SingleWindowState<T>::paint>
C:\druid-embedded\druid\src/win_handler.rs:271
    }
  1a:	2000      	movs	r0, #0
  1c:	bdb0      	pop	{r4, r5, r7, pc}

Disassembly of section .text._ZN5druid11win_handler26SingleWindowState$LT$T$GT$8do_paint17he0743a66625b931eE:

00000000 <druid::win_handler::SingleWindowState<T>::do_paint>:
_ZN5druid11win_handler26SingleWindowState$LT$T$GT$8do_paint17he0743a66625b931eE():
C:\druid-embedded\druid\src/win_handler.rs:307
    fn do_paint(&mut self, piet: &mut Piet) {
   0:	e92d 41f0 	stmdb	sp!, {r4, r5, r6, r7, r8, lr}
   4:	b092      	sub	sp, #72	; 0x48
   6:	ae0a      	add	r6, sp, #40	; 0x28
   8:	460c      	mov	r4, r1
   a:	4605      	mov	r5, r0
C:\druid-embedded\druid\src/win_handler.rs:310
            window_id: self.window_id,
   c:	f8d0 7258 	ldr.w	r7, [r0, #600]	; 0x258
C:\druid-embedded\druid\src/win_handler.rs:311
            region: Rect::ZERO.into(),
  10:	4630      	mov	r0, r6
  12:	2120      	movs	r1, #32
  14:	f7ff fffe 	bl	0 <__aeabi_memclr8>
  18:	46e8      	mov	r8, sp
  1a:	4631      	mov	r1, r6
  1c:	4640      	mov	r0, r8
  1e:	f7ff fffe 	bl	0 <druid::win_handler::SingleWindowState<T>::do_paint>
C:\druid-embedded\druid\src/win_handler.rs:308
        let mut paint_ctx = PaintCtx {
  22:	e9cd 4708 	strd	r4, r7, [sp, #32]
C:\druid-embedded\druid\src/win_handler.rs:313
        self.window.paint(&mut paint_ctx, self.data, self.env);
  26:	4628      	mov	r0, r5
  28:	e9d5 2398 	ldrd	r2, r3, [r5, #608]	; 0x260
  2c:	4641      	mov	r1, r8
  2e:	f7ff fffe 	bl	0 <druid::win_handler::SingleWindowState<T>::do_paint>
C:\druid-embedded\druid\src/win_handler.rs:314
    }
  32:	b012      	add	sp, #72	; 0x48
  34:	e8bd 81f0 	ldmia.w	sp!, {r4, r5, r6, r7, r8, pc}

Disassembly of section .text._ZN5druid11win_handler26SingleWindowState$LT$T$GT$9do_layout17hf8c458dcbd70ca9eE:

00000000 <druid::win_handler::SingleWindowState<T>::do_layout>:
_ZN5druid11win_handler26SingleWindowState$LT$T$GT$9do_layout17hf8c458dcbd70ca9eE():
C:\druid-embedded\druid\src/win_handler.rs:299
    fn do_layout(&mut self, piet: &mut Piet) {
   0:	b51c      	push	{r2, r3, r4, lr}
   2:	4604      	mov	r4, r0
C:\druid-embedded\druid\src/win_handler.rs:301
            text_factory: piet.text(),
   4:	4608      	mov	r0, r1
   6:	f7ff fffe 	bl	0 <<piet_embedded_graphics::context::EmbedRenderContext as piet::render_context::RenderContext>::text>
C:\druid-embedded\druid\src/win_handler.rs:302
            window_id: self.window_id,
   a:	f8d4 1258 	ldr.w	r1, [r4, #600]	; 0x258
C:\druid-embedded\druid\src/win_handler.rs:300
        let mut layout_ctx = LayoutCtx {
   e:	e9cd 0100 	strd	r0, r1, [sp]
  12:	4669      	mov	r1, sp
C:\druid-embedded\druid\src/win_handler.rs:304
        self.window.layout(&mut layout_ctx, self.data, self.env);
  14:	e9d4 2398 	ldrd	r2, r3, [r4, #608]	; 0x260
  18:	4620      	mov	r0, r4
  1a:	f7ff fffe 	bl	0 <druid::win_handler::SingleWindowState<T>::do_layout>
C:\druid-embedded\druid\src/win_handler.rs:305
    }
  1e:	bd1c      	pop	{r2, r3, r4, pc}

Disassembly of section .text._ZN5druid12localization24LocalizedString$LT$T$GT$13localized_str17he921e45cc84c645eE:

00000000 <druid::localization::LocalizedString<T>::localized_str>:
_ZN5druid12localization24LocalizedString$LT$T$GT$13localized_str17he921e45cc84c645eE():
C:\druid-embedded\druid\src/localization.rs:343
                .as_ref()
                .map(|s| s.as_str())
                .or_else(|| self.placeholder.as_ref().map(String::as_ref))
                .unwrap_or(self.key)
            */ ////
        }
   0:	4801      	ldr	r0, [pc, #4]	; (8 <druid::localization::LocalizedString<T>::localized_str+0x8>)
   2:	2112      	movs	r1, #18
   4:	4770      	bx	lr
   6:	bf00      	nop
   8:	00000000 	.word	0x00000000

Disassembly of section .text._ZN5druid12localization24LocalizedString$LT$T$GT$3new17ha19310d7ec3a1866E:

00000000 <druid::localization::LocalizedString<T>::new>:
_ZN5druid12localization24LocalizedString$LT$T$GT$3new17ha19310d7ec3a1866E():
C:\druid-embedded\druid\src/localization.rs:312
    pub const fn new(key: &'static str) -> Self {
   0:	2300      	movs	r3, #0
C:\druid-embedded\druid\src/localization.rs:313
        LocalizedString {
   2:	6443      	str	r3, [r0, #68]	; 0x44
   4:	6243      	str	r3, [r0, #36]	; 0x24
   6:	c00e      	stmia	r0!, {r1, r2, r3}
C:\druid-embedded\druid\src/localization.rs:320
    }
   8:	4770      	bx	lr

Disassembly of section .text._ZN5druid12localization24LocalizedString$LT$T$GT$8with_arg17he0df709482b7a10aE:

00000000 <druid::localization::LocalizedString<T>::with_arg>:
_ZN5druid12localization24LocalizedString$LT$T$GT$8with_arg17he0df709482b7a10aE():
C:\druid-embedded\druid\src/localization.rs:352
    /// Add a named argument and a corresponding [`ArgClosure`]. This closure
    /// is a function that will return a value for the given key from the current
    /// environment and data.
    ///
    /// [`ArgClosure`]: type.ArgClosure.html
    pub fn with_arg(
   0:	e92d 41f0 	stmdb	sp!, {r4, r5, r6, r7, r8, lr}
   4:	b08a      	sub	sp, #40	; 0x28
   6:	4605      	mov	r5, r0
   8:	2000      	movs	r0, #0
_ZN4core6option15Option$LT$T$GT$13get_or_insert17hac0a6e4b0f7a001cE():
/rustc/412f43ac5b4ae8c3599e71c6972112e9be4758fa/src/libcore/option.rs:817
   a:	9009      	str	r0, [sp, #36]	; 0x24
_ZN4core6option15Option$LT$T$GT$18get_or_insert_with17h702334fe6cabec0dE():
/rustc/412f43ac5b4ae8c3599e71c6972112e9be4758fa/src/libcore/option.rs:842
   c:	4608      	mov	r0, r1
   e:	460c      	mov	r4, r1
  10:	f850 1f24 	ldr.w	r1, [r0, #36]!
  14:	f8dd 8040 	ldr.w	r8, [sp, #64]	; 0x40
  18:	461f      	mov	r7, r3
  1a:	4616      	mov	r6, r2
  1c:	b119      	cbz	r1, 26 <druid::localization::LocalizedString<T>::with_arg+0x26>
  1e:	a803      	add	r0, sp, #12
_ZN4core3ptr18real_drop_in_place17h1d5a0553894403c9E():
/rustc/412f43ac5b4ae8c3599e71c6972112e9be4758fa/src/libcore/ptr/mod.rs:181
  20:	f7ff fffe 	bl	0 <<heapless::vec::Vec<T,N> as core::ops::drop::Drop>::drop>
  24:	e009      	b.n	16 <druid::localization::LocalizedString<T>::with_arg+0x16>
_ZN4core6option15Option$LT$T$GT$18get_or_insert_with17h702334fe6cabec0dE():
/rustc/412f43ac5b4ae8c3599e71c6972112e9be4758fa/src/libcore/option.rs:843
  26:	f7ff fffe 	bl	0 <druid::localization::LocalizedString<T>::with_arg>
  2a:	2001      	movs	r0, #1
  2c:	a903      	add	r1, sp, #12
  2e:	6260      	str	r0, [r4, #36]	; 0x24
  30:	f104 0028 	add.w	r0, r4, #40	; 0x28
  34:	221c      	movs	r2, #28
  36:	f7ff fffe 	bl	0 <__aeabi_memcpy>
_ZN5druid12localization24LocalizedString$LT$T$GT$8with_arg17he0df709482b7a10aE():
C:\druid-embedded\druid\src/localization.rs:360
        f: fn(&T, &Env) -> String, ////
        ////f: impl Fn(&T, &Env) -> FluentValue<'static> + 'static,
    ) -> Self {
        self.args
            .get_or_insert(Vec::new())
            .push((key, ArgSource(f)))
  3a:	a803      	add	r0, sp, #12
_ZN4core6option15Option$LT$T$GT$18get_or_insert_with17h702334fe6cabec0dE():
/rustc/412f43ac5b4ae8c3599e71c6972112e9be4758fa/src/libcore/option.rs:847
  3c:	f104 0128 	add.w	r1, r4, #40	; 0x28
_ZN5druid12localization24LocalizedString$LT$T$GT$8with_arg17he0df709482b7a10aE():
C:\druid-embedded\druid\src/localization.rs:360
  40:	e880 01c0 	stmia.w	r0, {r6, r7, r8}
  44:	ae03      	add	r6, sp, #12
  46:	466f      	mov	r7, sp
C:\druid-embedded\druid\src/localization.rs:358
        self.args
  48:	4638      	mov	r0, r7
  4a:	4632      	mov	r2, r6
  4c:	f7ff fffe 	bl	0 <druid::localization::LocalizedString<T>::with_arg>
_ZN4core6result19Result$LT$T$C$E$GT$6expect17hc6f945c9bd1a98aeE():
/rustc/412f43ac5b4ae8c3599e71c6972112e9be4758fa/src/libcore/result.rs:983
  50:	9800      	ldr	r0, [sp, #0]
  52:	b938      	cbnz	r0, 64 <druid::localization::LocalizedString<T>::with_arg+0x64>
_ZN5druid12localization24LocalizedString$LT$T$GT$8with_arg17he0df709482b7a10aE():
C:\druid-embedded\druid\src/localization.rs:363
            .expect("with arg failed"); ////
            ////.push((key, ArgSource(Arc::new(f))));
        self
  54:	4628      	mov	r0, r5
  56:	4621      	mov	r1, r4
  58:	2260      	movs	r2, #96	; 0x60
  5a:	f7ff fffe 	bl	0 <__aeabi_memcpy4>
C:\druid-embedded\druid\src/localization.rs:364
    }
  5e:	b00a      	add	sp, #40	; 0x28
  60:	e8bd 81f0 	ldmia.w	sp!, {r4, r5, r6, r7, r8, pc}
_ZN4core6result19Result$LT$T$C$E$GT$6expect17hc6f945c9bd1a98aeE():
/rustc/412f43ac5b4ae8c3599e71c6972112e9be4758fa/src/libcore/result.rs:984
  64:	e897 000e 	ldmia.w	r7, {r1, r2, r3}
  68:	4630      	mov	r0, r6
  6a:	c00e      	stmia	r0!, {r1, r2, r3}
  6c:	210f      	movs	r1, #15
  6e:	4632      	mov	r2, r6
  70:	4802      	ldr	r0, [pc, #8]	; (7c <druid::localization::LocalizedString<T>::with_arg+0x7c>)
  72:	4b03      	ldr	r3, [pc, #12]	; (80 <druid::localization::LocalizedString<T>::with_arg+0x80>)
  74:	f7ff fffe 	bl	0 <core::result::unwrap_failed>
  78:	defe      	udf	#254	; 0xfe
_ZN5druid12localization24LocalizedString$LT$T$GT$8with_arg17he0df709482b7a10aE():
/rustc/412f43ac5b4ae8c3599e71c6972112e9be4758fa/src/libcore/result.rs:984
  7a:	bf00      	nop
	...

Disassembly of section .text._ZN5druid14BoxConstraints9constrain17h7b6e4befaaf780f2E:

00000000 <druid::BoxConstraints::constrain>:
_ZN5druid14BoxConstraints9constrain17h7b6e4befaaf780f2E():
C:\druid-embedded\druid\src/lib.rs:835
        }
    }

    /// Clamp a given size so that fits within the constraints.
    pub fn constrain(&self, size: impl Into<Size>) -> Size {
        size.into().clamp(self.min, self.max)
   0:	ecb0 2b08 	vldmia	r0!, {d2-d5}
   4:	f7ff bffe 	b.w	0 <kurbo::size::Size::clamp>

Disassembly of section .text._ZN5druid22WidgetPod$LT$T$C$W$GT$15get_layout_rect17h49d8e3e38286913fE:

00000000 <druid::WidgetPod<T,W>::get_layout_rect>:
_ZN5druid22WidgetPod$LT$T$C$W$GT$15get_layout_rect17h49d8e3e38286913fE():
C:\druid-embedded\druid\src/lib.rs:482
    pub fn get_layout_rect(&self) -> Rect {
   0:	b580      	push	{r7, lr}
C:\druid-embedded\druid\src/lib.rs:483
        self.state.layout_rect
   2:	2220      	movs	r2, #32
   4:	f7ff fffe 	bl	0 <__aeabi_memcpy>
C:\druid-embedded\druid\src/lib.rs:484
    }
   8:	bd80      	pop	{r7, pc}

Disassembly of section .text._ZN5druid22WidgetPod$LT$T$C$W$GT$15set_layout_rect17h04aa8a7d10b06596E:

00000000 <druid::WidgetPod<T,W>::set_layout_rect>:
_ZN5druid22WidgetPod$LT$T$C$W$GT$15set_layout_rect17h04aa8a7d10b06596E():
C:\druid-embedded\druid\src/lib.rs:475
    pub fn set_layout_rect(&mut self, layout_rect: Rect) {
   0:	b580      	push	{r7, lr}
C:\druid-embedded\druid\src/lib.rs:476
        self.state.layout_rect = layout_rect;
   2:	2220      	movs	r2, #32
   4:	f7ff fffe 	bl	0 <__aeabi_memcpy>
C:\druid-embedded\druid\src/lib.rs:477
    }
   8:	bd80      	pop	{r7, pc}

Disassembly of section .text._ZN5druid22WidgetPod$LT$T$C$W$GT$15set_layout_rect17h826544f924c4136dE:

00000000 <druid::WidgetPod<T,W>::set_layout_rect>:
_ZN5druid22WidgetPod$LT$T$C$W$GT$15set_layout_rect17h826544f924c4136dE():
C:\druid-embedded\druid\src/lib.rs:475
    pub fn set_layout_rect(&mut self, layout_rect: Rect) {
   0:	b580      	push	{r7, lr}
C:\druid-embedded\druid\src/lib.rs:476
        self.state.layout_rect = layout_rect;
   2:	2220      	movs	r2, #32
   4:	f7ff fffe 	bl	0 <__aeabi_memcpy>
C:\druid-embedded\druid\src/lib.rs:477
    }
   8:	bd80      	pop	{r7, pc}

Disassembly of section .text._ZN5druid22WidgetPod$LT$T$C$W$GT$17paint_with_offset17hee7a39b5cd9c3dbcE:

00000000 <druid::WidgetPod<T,W>::paint_with_offset>:
_ZN5druid22WidgetPod$LT$T$C$W$GT$17paint_with_offset17hee7a39b5cd9c3dbcE():
C:\druid-embedded\druid\src/lib.rs:506
    pub fn paint_with_offset(&mut self, paint_ctx: &mut PaintCtx, data: &T, env: &Env) {
   0:	b51c      	push	{r2, r3, r4, lr}
   2:	2400      	movs	r4, #0
C:\druid-embedded\druid\src/lib.rs:507
        self.paint_with_offset_impl(paint_ctx, data, env, false)
   4:	9400      	str	r4, [sp, #0]
   6:	f7ff fffe 	bl	0 <druid::WidgetPod<T,W>::paint_with_offset>
C:\druid-embedded\druid\src/lib.rs:508
    }
   a:	bd1c      	pop	{r2, r3, r4, pc}

Disassembly of section .text._ZN5druid22WidgetPod$LT$T$C$W$GT$22paint_with_offset_impl17h94e3f126403ec82eE:

00000000 <druid::WidgetPod<T,W>::paint_with_offset_impl>:
_ZN5druid22WidgetPod$LT$T$C$W$GT$22paint_with_offset_impl17h94e3f126403ec82eE():
C:\druid-embedded\druid\src/lib.rs:517
    fn paint_with_offset_impl(
   0:	e92d 41f0 	stmdb	sp!, {r4, r5, r6, r7, r8, lr}
   4:	ed2d 8b0e 	vpush	{d8-d14}
   8:	b094      	sub	sp, #80	; 0x50
   a:	4688      	mov	r8, r1
   c:	a901      	add	r1, sp, #4
   e:	4605      	mov	r5, r0
  10:	c10d      	stmia	r1!, {r0, r2, r3}
  12:	9828      	ldr	r0, [sp, #160]	; 0xa0
C:\druid-embedded\druid\src/lib.rs:524
        if !paint_if_not_visible && !paint_ctx.region().intersects(self.state.layout_rect) {
  14:	2800      	cmp	r0, #0
  16:	d163      	bne.n	e0 <druid::WidgetPod<T,W>::paint_with_offset_impl+0xe0>
_ZN5kurbo4rect4Rect9intersect17h69622135266e88f0E():
C:\kurbo-embedded\src/rect.rs:213
    /// The result is zero-area if either input has negative width or
    /// height. The result always has non-negative width and height.
    #[inline]
    pub fn intersect(&self, other: Rect) -> Rect {
        let x0 = self.x0.max(other.x0);
        let y0 = self.y0.max(other.y0);
  18:	f108 0008 	add.w	r0, r8, #8
C:\kurbo-embedded\src/rect.rs:212
        let x0 = self.x0.max(other.x0);
  1c:	ed98 0b00 	vldr	d0, [r8]
_ZN5druid22WidgetPod$LT$T$C$W$GT$22paint_with_offset_impl17h94e3f126403ec82eE():
C:\druid-embedded\druid\src/lib.rs:524
  20:	ed95 1b00 	vldr	d1, [r5]
_ZN5kurbo4rect4Rect9intersect17h69622135266e88f0E():
C:\kurbo-embedded\src/rect.rs:213
        let y0 = self.y0.max(other.y0);
  24:	ecb0 8b06 	vldmia	r0!, {d8-d10}
_ZN5druid22WidgetPod$LT$T$C$W$GT$22paint_with_offset_impl17h94e3f126403ec82eE():
C:\druid-embedded\druid\src/lib.rs:524
  28:	f105 0008 	add.w	r0, r5, #8
  2c:	ecb0 bb06 	vldmia	r0!, {d11-d13}
_ZN4core3f6421_$LT$impl$u20$f64$GT$3max17h59360c18f4d72aa4E():
/rustc/412f43ac5b4ae8c3599e71c6972112e9be4758fa/src/libcore/num/f64.rs:391
  30:	f7ff fffe 	bl	0 <fmax>
  34:	eeb0 ea40 	vmov.f32	s28, s0
_ZN4core3f6421_$LT$impl$u20$f64$GT$3min17h41c142ec947da4e4E():
/rustc/412f43ac5b4ae8c3599e71c6972112e9be4758fa/src/libcore/num/f64.rs:407
  38:	eeb0 1a4c 	vmov.f32	s2, s24
  3c:	eeb0 0a49 	vmov.f32	s0, s18
_ZN4core3f6421_$LT$impl$u20$f64$GT$3max17h59360c18f4d72aa4E():
/rustc/412f43ac5b4ae8c3599e71c6972112e9be4758fa/src/libcore/num/f64.rs:391
  40:	eef0 ea60 	vmov.f32	s29, s1
_ZN4core3f6421_$LT$impl$u20$f64$GT$3min17h41c142ec947da4e4E():
/rustc/412f43ac5b4ae8c3599e71c6972112e9be4758fa/src/libcore/num/f64.rs:407
  44:	eef0 0a69 	vmov.f32	s1, s19
  48:	eef0 1a6c 	vmov.f32	s3, s25
  4c:	f7ff fffe 	bl	0 <fmin>
_ZN4core3f6421_$LT$impl$u20$f64$GT$3max17h59360c18f4d72aa4E():
/rustc/412f43ac5b4ae8c3599e71c6972112e9be4758fa/src/libcore/num/f64.rs:391
  50:	eeb0 1a4e 	vmov.f32	s2, s28
  54:	eef0 1a6e 	vmov.f32	s3, s29
  58:	f7ff fffe 	bl	0 <fmax>
  5c:	eeb0 9a40 	vmov.f32	s18, s0
  60:	eeb0 1a4b 	vmov.f32	s2, s22
  64:	eeb0 0a48 	vmov.f32	s0, s16
  68:	eef0 9a60 	vmov.f32	s19, s1
  6c:	eef0 0a68 	vmov.f32	s1, s17
  70:	eef0 1a6b 	vmov.f32	s3, s23
  74:	f7ff fffe 	bl	0 <fmax>
  78:	eeb0 8a40 	vmov.f32	s16, s0
_ZN4core3f6421_$LT$impl$u20$f64$GT$3min17h41c142ec947da4e4E():
/rustc/412f43ac5b4ae8c3599e71c6972112e9be4758fa/src/libcore/num/f64.rs:407
  7c:	eeb0 1a4d 	vmov.f32	s2, s26
  80:	eeb0 0a4a 	vmov.f32	s0, s20
_ZN4core3f6421_$LT$impl$u20$f64$GT$3max17h59360c18f4d72aa4E():
/rustc/412f43ac5b4ae8c3599e71c6972112e9be4758fa/src/libcore/num/f64.rs:391
  84:	eef0 8a60 	vmov.f32	s17, s1
_ZN4core3f6421_$LT$impl$u20$f64$GT$3min17h41c142ec947da4e4E():
/rustc/412f43ac5b4ae8c3599e71c6972112e9be4758fa/src/libcore/num/f64.rs:407
  88:	eef0 0a6a 	vmov.f32	s1, s21
  8c:	eef0 1a6d 	vmov.f32	s3, s27
  90:	f7ff fffe 	bl	0 <fmin>
_ZN4core3f6421_$LT$impl$u20$f64$GT$3max17h59360c18f4d72aa4E():
/rustc/412f43ac5b4ae8c3599e71c6972112e9be4758fa/src/libcore/num/f64.rs:391
  94:	eeb0 1a48 	vmov.f32	s2, s16
  98:	eef0 1a68 	vmov.f32	s3, s17
  9c:	f7ff fffe 	bl	0 <fmax>
_ZN5kurbo4rect4Rect5width17hf30f34ce82591df7E():
C:\kurbo-embedded\src/rect.rs:94
        self.x1 - self.x0
  a0:	ec51 0b19 	vmov	r0, r1, d9
  a4:	ec53 2b1e 	vmov	r2, r3, d14
_ZN4core3f6421_$LT$impl$u20$f64$GT$3max17h59360c18f4d72aa4E():
/rustc/412f43ac5b4ae8c3599e71c6972112e9be4758fa/src/libcore/num/f64.rs:391
  a8:	eeb0 aa40 	vmov.f32	s20, s0
  ac:	eef0 aa60 	vmov.f32	s21, s1
_ZN5kurbo4rect4Rect5width17hf30f34ce82591df7E():
C:\kurbo-embedded\src/rect.rs:94
  b0:	f7ff fffe 	bl	0 <__aeabi_dsub>
  b4:	4606      	mov	r6, r0
  b6:	460f      	mov	r7, r1
_ZN5kurbo4rect4Rect6height17h0d3b3e567dbe6d86E():
C:\kurbo-embedded\src/rect.rs:102
        self.y1 - self.y0
  b8:	ec51 0b1a 	vmov	r0, r1, d10
  bc:	ec53 2b18 	vmov	r2, r3, d8
  c0:	f7ff fffe 	bl	0 <__aeabi_dsub>
  c4:	4602      	mov	r2, r0
  c6:	460b      	mov	r3, r1
_ZN5kurbo4rect4Rect4area17h3340dbb28494fadaE():
C:\kurbo-embedded\src/rect.rs:147
        self.width() * self.height()
  c8:	4630      	mov	r0, r6
  ca:	4639      	mov	r1, r7
  cc:	f7ff fffe 	bl	0 <__aeabi_dmul>
  d0:	ed9f 0b3b 	vldr	d0, [pc, #236]	; 1c0 <druid::WidgetPod<T,W>::paint_with_offset_impl+0x1c0>
_ZN5druid22WidgetPod$LT$T$C$W$GT$22paint_with_offset_impl17h94e3f126403ec82eE():
C:\druid-embedded\druid\src/lib.rs:524
  d4:	ec53 2b10 	vmov	r2, r3, d0
  d8:	f7ff fffe 	bl	0 <__aeabi_dcmpgt>
  dc:	2800      	cmp	r0, #0
  de:	d05f      	beq.n	1a0 <druid::WidgetPod<T,W>::paint_with_offset_impl+0x1a0>
C:\druid-embedded\druid\src/lib.rs:528
        if let Err(e) = paint_ctx.render_ctx.save() { ////
  e0:	f8d8 0020 	ldr.w	r0, [r8, #32]
  e4:	f7ff fffe 	bl	0 <<piet_embedded_graphics::context::EmbedRenderContext as piet::render_context::RenderContext>::save>
  e8:	2800      	cmp	r0, #0
  ea:	d15e      	bne.n	1aa <druid::WidgetPod<T,W>::paint_with_offset_impl+0x1aa>
  ec:	4936      	ldr	r1, [pc, #216]	; (1c8 <druid::WidgetPod<T,W>::paint_with_offset_impl+0x1c8>)
  ee:	2200      	movs	r2, #0
C:\druid-embedded\druid\src/lib.rs:536
        paint_ctx.render_ctx.transform(Affine::translate(layout_origin)); ////
  f0:	f8d8 0020 	ldr.w	r0, [r8, #32]
_ZN5kurbo4rect4Rect6origin17h5537a1950cf625e8E():
C:\kurbo-embedded\src/rect.rs:135
        Point::new(self.x0, self.y0)
  f4:	ecb5 8b04 	vldmia	r5!, {d8-d9}
_ZN5kurbo6affine6Affine9translate17he2f186873d971393E():
C:\kurbo-embedded\src/affine.rs:70

    /// An affine transform representing translation.
    #[inline]
    pub fn translate<V: Into<Vec2>>(p: V) -> Affine {
        let p = p.into();
        Affine([1.0, 0.0, 0.0, 1.0, p.x, p.y])
  f8:	9105      	str	r1, [sp, #20]
  fa:	9204      	str	r2, [sp, #16]
  fc:	e9cd 2206 	strd	r2, r2, [sp, #24]
 100:	e9cd 2208 	strd	r2, r2, [sp, #32]
 104:	e9cd 210a 	strd	r2, r1, [sp, #40]	; 0x28
 108:	a904      	add	r1, sp, #16
 10a:	ed8d 9b0e 	vstr	d9, [sp, #56]	; 0x38
 10e:	ed8d 8b0c 	vstr	d8, [sp, #48]	; 0x30
_ZN5druid22WidgetPod$LT$T$C$W$GT$22paint_with_offset_impl17h94e3f126403ec82eE():
C:\druid-embedded\druid\src/lib.rs:536
 112:	f7ff fffe 	bl	0 <<piet_embedded_graphics::context::EmbedRenderContext as piet::render_context::RenderContext>::transform>
 116:	a804      	add	r0, sp, #16
C:\druid-embedded\druid\src/lib.rs:539
        let visible = paint_ctx.region().to_rect() - layout_origin;
 118:	4641      	mov	r1, r8
 11a:	f7ff fffe 	bl	0 <druid::Region::to_rect>
_ZN84_$LT$kurbo..rect..Rect$u20$as$u20$core..ops..arith..Sub$LT$kurbo..vec2..Vec2$GT$$GT$3sub17h58703fa7b264c346E():
C:\kurbo-embedded\src/rect.rs:290
    type Output = Rect;

    #[inline]
    fn sub(self, v: Vec2) -> Rect {
        Rect {
            x0: self.x0 - v.x,
 11e:	a804      	add	r0, sp, #16
C:\kurbo-embedded\src/rect.rs:293
            y0: self.y0 - v.y,
            x1: self.x1 - v.x,
            y1: self.y1 - v.y,
 120:	ed9d 0b0a 	vldr	d0, [sp, #40]	; 0x28
C:\kurbo-embedded\src/rect.rs:291
            y0: self.y0 - v.y,
 124:	ec55 6b19 	vmov	r6, r5, d9
C:\kurbo-embedded\src/rect.rs:290
            x0: self.x0 - v.x,
 128:	ecb0 9b06 	vldmia	r0!, {d9-d11}
C:\kurbo-embedded\src/rect.rs:293
            y1: self.y1 - v.y,
 12c:	ec51 0b10 	vmov	r0, r1, d0
 130:	4632      	mov	r2, r6
 132:	462b      	mov	r3, r5
 134:	f7ff fffe 	bl	0 <__aeabi_dsub>
C:\kurbo-embedded\src/rect.rs:290
            x0: self.x0 - v.x,
 138:	ec54 7b18 	vmov	r7, r4, d8
C:\kurbo-embedded\src/rect.rs:293
            y1: self.y1 - v.y,
 13c:	ec41 0b10 	vmov	d0, r0, r1
C:\kurbo-embedded\src/rect.rs:292
            x1: self.x1 - v.x,
 140:	ec51 0b1b 	vmov	r0, r1, d11
_ZN5druid22WidgetPod$LT$T$C$W$GT$22paint_with_offset_impl17h94e3f126403ec82eE():
C:\druid-embedded\druid\src/lib.rs:541
        paint_ctx.with_child_ctx(visible, |ctx| {
 144:	ed8d 0b0a 	vstr	d0, [sp, #40]	; 0x28
_ZN84_$LT$kurbo..rect..Rect$u20$as$u20$core..ops..arith..Sub$LT$kurbo..vec2..Vec2$GT$$GT$3sub17h58703fa7b264c346E():
C:\kurbo-embedded\src/rect.rs:292
 148:	463a      	mov	r2, r7
 14a:	4623      	mov	r3, r4
 14c:	f7ff fffe 	bl	0 <__aeabi_dsub>
 150:	ec41 0b10 	vmov	d0, r0, r1
C:\kurbo-embedded\src/rect.rs:291
            y0: self.y0 - v.y,
 154:	4632      	mov	r2, r6
 156:	ec51 0b1a 	vmov	r0, r1, d10
 15a:	462b      	mov	r3, r5
_ZN5druid22WidgetPod$LT$T$C$W$GT$22paint_with_offset_impl17h94e3f126403ec82eE():
C:\druid-embedded\druid\src/lib.rs:541
 15c:	ed8d 0b08 	vstr	d0, [sp, #32]
_ZN84_$LT$kurbo..rect..Rect$u20$as$u20$core..ops..arith..Sub$LT$kurbo..vec2..Vec2$GT$$GT$3sub17h58703fa7b264c346E():
C:\kurbo-embedded\src/rect.rs:291
 160:	f7ff fffe 	bl	0 <__aeabi_dsub>
 164:	ec41 0b10 	vmov	d0, r0, r1
C:\kurbo-embedded\src/rect.rs:290
            x0: self.x0 - v.x,
 168:	463a      	mov	r2, r7
 16a:	ec51 0b19 	vmov	r0, r1, d9
 16e:	4623      	mov	r3, r4
_ZN5druid22WidgetPod$LT$T$C$W$GT$22paint_with_offset_impl17h94e3f126403ec82eE():
C:\druid-embedded\druid\src/lib.rs:541
 170:	ed8d 0b06 	vstr	d0, [sp, #24]
_ZN84_$LT$kurbo..rect..Rect$u20$as$u20$core..ops..arith..Sub$LT$kurbo..vec2..Vec2$GT$$GT$3sub17h58703fa7b264c346E():
C:\kurbo-embedded\src/rect.rs:290
 174:	f7ff fffe 	bl	0 <__aeabi_dsub>
 178:	ec41 0b10 	vmov	d0, r0, r1
 17c:	a803      	add	r0, sp, #12
_ZN5druid22WidgetPod$LT$T$C$W$GT$22paint_with_offset_impl17h94e3f126403ec82eE():
C:\druid-embedded\druid\src/lib.rs:541
 17e:	9013      	str	r0, [sp, #76]	; 0x4c
 180:	a802      	add	r0, sp, #8
 182:	9012      	str	r0, [sp, #72]	; 0x48
 184:	a801      	add	r0, sp, #4
 186:	a904      	add	r1, sp, #16
 188:	aa11      	add	r2, sp, #68	; 0x44
 18a:	9011      	str	r0, [sp, #68]	; 0x44
 18c:	4640      	mov	r0, r8
 18e:	ed8d 0b04 	vstr	d0, [sp, #16]
 192:	f7ff fffe 	bl	0 <druid::WidgetPod<T,W>::paint_with_offset_impl>
C:\druid-embedded\druid\src/lib.rs:545
        if let Err(e) = paint_ctx.render_ctx.restore() { ////
 196:	f8d8 0020 	ldr.w	r0, [r8, #32]
 19a:	f7ff fffe 	bl	0 <<piet_embedded_graphics::context::EmbedRenderContext as piet::render_context::RenderContext>::restore>
 19e:	b938      	cbnz	r0, 1b0 <druid::WidgetPod<T,W>::paint_with_offset_impl+0x1b0>
C:\druid-embedded\druid\src/lib.rs:550
    }
 1a0:	b014      	add	sp, #80	; 0x50
 1a2:	ecbd 8b0e 	vpop	{d8-d14}
 1a6:	e8bd 81f0 	ldmia.w	sp!, {r4, r5, r6, r7, r8, pc}
<::core::macros::/panic macros>:2
 1aa:	480a      	ldr	r0, [pc, #40]	; (1d4 <druid::WidgetPod<T,W>::paint_with_offset_impl+0x1d4>)
 1ac:	2111      	movs	r1, #17
 1ae:	e001      	b.n	1b4 <druid::WidgetPod<T,W>::paint_with_offset_impl+0x1b4>
 1b0:	4806      	ldr	r0, [pc, #24]	; (1cc <druid::WidgetPod<T,W>::paint_with_offset_impl+0x1cc>)
 1b2:	2114      	movs	r1, #20
 1b4:	4a06      	ldr	r2, [pc, #24]	; (1d0 <druid::WidgetPod<T,W>::paint_with_offset_impl+0x1d0>)
 1b6:	f7ff fffe 	bl	0 <core::panicking::panic>
 1ba:	defe      	udf	#254	; 0xfe
 1bc:	bf00      	nop
 1be:	bf00      	nop
	...
 1c8:	3ff00000 	.word	0x3ff00000
	...

Disassembly of section .text._ZN5druid22WidgetPod$LT$T$C$W$GT$3new17h0f3a67c3de684a1bE:

00000000 <druid::WidgetPod<T,W>::new>:
_ZN5druid22WidgetPod$LT$T$C$W$GT$3new17h0f3a67c3de684a1bE():
C:\druid-embedded\druid\src/lib.rs:452
    pub fn new(inner: W) -> WidgetPod<T, W> {
   0:	b5b0      	push	{r4, r5, r7, lr}
   2:	4605      	mov	r5, r0
   4:	2000      	movs	r0, #0
   6:	460c      	mov	r4, r1
C:\druid-embedded\druid\src/lib.rs:453
        WidgetPod {
   8:	f885 0034 	strb.w	r0, [r5, #52]	; 0x34
   c:	4628      	mov	r0, r5
   e:	212c      	movs	r1, #44	; 0x2c
  10:	f7ff fffe 	bl	0 <__aeabi_memclr8>
  14:	632c      	str	r4, [r5, #48]	; 0x30
C:\druid-embedded\druid\src/lib.rs:459
    }
  16:	bdb0      	pop	{r4, r5, r7, pc}

Disassembly of section .text._ZN5druid22WidgetPod$LT$T$C$W$GT$3new17h3f32c3f331228985E:

00000000 <druid::WidgetPod<T,W>::new>:
_ZN5druid22WidgetPod$LT$T$C$W$GT$3new17h3f32c3f331228985E():
C:\druid-embedded\druid\src/lib.rs:452
    pub fn new(inner: W) -> WidgetPod<T, W> {
   0:	b5b0      	push	{r4, r5, r7, lr}
   2:	460c      	mov	r4, r1
_ZN59_$LT$druid..BaseState$u20$as$u20$core..default..Default$GT$7default17h16974eb2ea878527E():
C:\druid-embedded\druid\src/lib.rs:119
#[derive(Clone, Copy, Default)] ////
   4:	2128      	movs	r1, #40	; 0x28
   6:	4605      	mov	r5, r0
   8:	f7ff fffe 	bl	0 <__aeabi_memclr8>
   c:	2000      	movs	r0, #0
_ZN5druid22WidgetPod$LT$T$C$W$GT$3new17h3f32c3f331228985E():
C:\druid-embedded\druid\src/lib.rs:453
        WidgetPod {
   e:	4621      	mov	r1, r4
  10:	f885 0240 	strb.w	r0, [r5, #576]	; 0x240
  14:	f44f 7204 	mov.w	r2, #528	; 0x210
  18:	f8c5 0238 	str.w	r0, [r5, #568]	; 0x238
  1c:	f105 0028 	add.w	r0, r5, #40	; 0x28
  20:	f7ff fffe 	bl	0 <__aeabi_memcpy8>
C:\druid-embedded\druid\src/lib.rs:459
    }
  24:	bdb0      	pop	{r4, r5, r7, pc}

Disassembly of section .text._ZN5druid22WidgetPod$LT$T$C$W$GT$5paint17hd38edd6447537b14E:

00000000 <druid::WidgetPod<T,W>::paint>:
_ZN5druid22WidgetPod$LT$T$C$W$GT$5paint17hd38edd6447537b14E():
C:\druid-embedded\druid\src/lib.rs:497
    pub fn paint(&mut self, paint_ctx: &mut PaintCtx, data: &T, env: &Env) {
   0:	b5e0      	push	{r5, r6, r7, lr}
C:\druid-embedded\druid\src/lib.rs:498
        self.inner.paint(paint_ctx, &self.state, data, &env);
   2:	3028      	adds	r0, #40	; 0x28
   4:	9300      	str	r3, [sp, #0]
   6:	4613      	mov	r3, r2
   8:	f7ff fffe 	bl	0 <druid::WidgetPod<T,W>::paint>
C:\druid-embedded\druid\src/lib.rs:499
    }
   c:	bd8c      	pop	{r2, r3, r7, pc}

Disassembly of section .text._ZN5druid22WidgetPod$LT$T$C$W$GT$6layout17h4c399d3bed77871fE:

00000000 <druid::WidgetPod<T,W>::layout>:
_ZN5druid22WidgetPod$LT$T$C$W$GT$6layout17h4c399d3bed77871fE():
C:\druid-embedded\druid\src/lib.rs:565
        self.inner.layout(layout_ctx, bc, data, &env)
   0:	3028      	adds	r0, #40	; 0x28
   2:	f7ff bffe 	b.w	0 <druid::WidgetPod<T,W>::layout>

Disassembly of section .text._ZN5druid22WidgetPod$LT$T$C$W$GT$6layout17h6a3b3fed5c19e5ebE:

00000000 <druid::WidgetPod<T,W>::layout>:
_ZN5druid22WidgetPod$LT$T$C$W$GT$6layout17h6a3b3fed5c19e5ebE():
C:\druid-embedded\druid\src/lib.rs:558
    pub fn layout(
   0:	b5e0      	push	{r5, r6, r7, lr}
C:\druid-embedded\druid\src/lib.rs:565
        self.inner.layout(layout_ctx, bc, data, &env)
   2:	3030      	adds	r0, #48	; 0x30
   4:	f7ff fffe 	bl	0 <druid::WidgetPod<T,W>::layout>
C:\druid-embedded\druid\src/lib.rs:566
    }
   8:	b002      	add	sp, #8
   a:	bd80      	pop	{r7, pc}

Disassembly of section .text._ZN5druid3app23WindowDesc$LT$T$C$W$GT$12build_native17h544235b468a7d23dE:

00000000 <druid::app::WindowDesc<T,W>::build_native>:
_ZN5druid3app23WindowDesc$LT$T$C$W$GT$12build_native17h544235b468a7d23dE():
C:\druid-embedded\druid\src/app.rs:196
        self.size = Some(size.into());
        self
    }

    /// Attempt to create a platform window from this `WindowDesc`.
    pub(crate) fn build_native(
   0:	e92d 4ff8 	stmdb	sp!, {r3, r4, r5, r6, r7, r8, r9, sl, fp, lr}
   4:	ed2d 8b04 	vpush	{d8-d9}
   8:	f5ad 6de2 	sub.w	sp, sp, #1808	; 0x710
   c:	f50d 6493 	add.w	r4, sp, #1176	; 0x498
  10:	460f      	mov	r7, r1
  12:	9001      	str	r0, [sp, #4]
_ZN75_$LT$druid..win_handler..Windows$LT$T$GT$$u20$as$u20$core..clone..Clone$GT$5clone17h9256dc4137bb4f6aE():
C:\druid-embedded\druid\src/win_handler.rs:162
    windows: Option<WindowBox<T>>, //// Only 1 window supported
  14:	4611      	mov	r1, r2
  16:	4620      	mov	r0, r4
  18:	4615      	mov	r5, r2
  1a:	f7ff fffe 	bl	0 <druid::app::WindowDesc<T,W>::build_native>
_ZN68_$LT$core..option..Option$LT$T$GT$$u20$as$u20$core..clone..Clone$GT$5clone17h9276d0b77e219ca9E():
/rustc/412f43ac5b4ae8c3599e71c6972112e9be4758fa/src/libcore/option.rs:1206
  1e:	f505 7616 	add.w	r6, r5, #600	; 0x258
  22:	f10d 0a08 	add.w	sl, sp, #8
_ZN76_$LT$druid..win_handler..AppState$LT$T$GT$$u20$as$u20$core..clone..Clone$GT$5clone17hddf08c008c4c5770E():
C:\druid-embedded\druid\src/win_handler.rs:147
#[derive(Clone)] ////
  26:	f44f 7218 	mov.w	r2, #608	; 0x260
_ZN68_$LT$core..option..Option$LT$T$GT$$u20$as$u20$core..clone..Clone$GT$5clone17h9276d0b77e219ca9E():
/rustc/412f43ac5b4ae8c3599e71c6972112e9be4758fa/src/libcore/option.rs:1206
  2a:	ce43      	ldmia	r6, {r0, r1, r6}
_ZN75_$LT$druid..win_handler..Windows$LT$T$GT$$u20$as$u20$core..clone..Clone$GT$5clone17h9256dc4137bb4f6aE():
C:\druid-embedded\druid\src/win_handler.rs:159
#[derive(Clone)] ////
  2c:	f8cd 16f4 	str.w	r1, [sp, #1780]	; 0x6f4
_ZN76_$LT$druid..win_handler..AppState$LT$T$GT$$u20$as$u20$core..clone..Clone$GT$5clone17hddf08c008c4c5770E():
C:\druid-embedded\druid\src/win_handler.rs:147
#[derive(Clone)] ////
  30:	4621      	mov	r1, r4
_ZN75_$LT$druid..win_handler..Windows$LT$T$GT$$u20$as$u20$core..clone..Clone$GT$5clone17h9256dc4137bb4f6aE():
C:\druid-embedded\druid\src/win_handler.rs:159
#[derive(Clone)] ////
  32:	f8cd 06f0 	str.w	r0, [sp, #1776]	; 0x6f0
_ZN76_$LT$druid..win_handler..AppState$LT$T$GT$$u20$as$u20$core..clone..Clone$GT$5clone17hddf08c008c4c5770E():
C:\druid-embedded\druid\src/win_handler.rs:147
#[derive(Clone)] ////
  36:	4650      	mov	r0, sl
  38:	f7ff fffe 	bl	0 <__aeabi_memcpy8>
_ZN4core3ptr18real_drop_in_place17hba43bf81d2539fb0E():
/rustc/412f43ac5b4ae8c3599e71c6972112e9be4758fa/src/libcore/ptr/mod.rs:181
  3c:	4650      	mov	r0, sl
_ZN76_$LT$druid..win_handler..AppState$LT$T$GT$$u20$as$u20$core..clone..Clone$GT$5clone17hddf08c008c4c5770E():
C:\druid-embedded\druid\src/win_handler.rs:147
  3e:	969a      	str	r6, [sp, #616]	; 0x268
_ZN5druid3app23WindowDesc$LT$T$C$W$GT$12build_native17h544235b468a7d23dE():
C:\druid-embedded\druid\src/app.rs:214
        let platform_menu = menu
            .as_mut()
            .map(|m| m.build_window_menu(&state.borrow().data, &state.borrow().env));
        */ ////

        let mut handler: DruidHandler<T> = DruidHandler::new_shared(state.clone(), self.id); ////
  40:	f8d7 901c 	ldr.w	r9, [r7, #28]
_ZN4core3ptr18real_drop_in_place17hba43bf81d2539fb0E():
/rustc/412f43ac5b4ae8c3599e71c6972112e9be4758fa/src/libcore/ptr/mod.rs:181
  44:	f7ff fffe 	bl	0 <druid::app::WindowDesc<T,W>::build_native>
_ZN5druid3app23WindowDesc$LT$T$C$W$GT$12build_native17h544235b468a7d23dE():
C:\druid-embedded\druid\src/app.rs:220
        ////let handler = DruidHandler::new_shared(state.clone(), self.id);

        let mut builder: WindowBuilder<DruidHandler<T>> = WindowBuilder::new();
        builder.set_handler(handler); ////
        ////builder.set_handler(Box::new(handler));
        if let Some(size) = self.size {
  48:	e9d7 0100 	ldrd	r0, r1, [r7]
  4c:	f080 0001 	eor.w	r0, r0, #1
  50:	4308      	orrs	r0, r1
  52:	d104      	bne.n	5e <druid::app::WindowDesc<T,W>::build_native+0x5e>
  54:	ed97 9b02 	vldr	d9, [r7, #8]
  58:	ed97 8b04 	vldr	d8, [r7, #16]
  5c:	e005      	b.n	6a <druid::app::WindowDesc<T,W>::build_native+0x6a>
  5e:	ed9f 8b2c 	vldr	d8, [pc, #176]	; 110 <druid::app::WindowDesc<T,W>::build_native+0x110>
  62:	eeb0 9a48 	vmov.f32	s18, s16
  66:	eef0 9a68 	vmov.f32	s19, s17
  6a:	ac9c      	add	r4, sp, #624	; 0x270
C:\druid-embedded\druid\src/app.rs:230
        if let Some(menu) = platform_menu {
            builder.set_menu(menu);
        }
        */ ////

        let root_widget = (self.root_builder)(); ////
  6c:	69b9      	ldr	r1, [r7, #24]
  6e:	4620      	mov	r0, r4
  70:	4788      	blx	r1
_ZN59_$LT$druid..BaseState$u20$as$u20$core..default..Default$GT$7default17h16974eb2ea878527E():
C:\druid-embedded\druid\src/lib.rs:119
#[derive(Clone, Copy, Default)] ////
  72:	4650      	mov	r0, sl
  74:	2128      	movs	r1, #40	; 0x28
  76:	f7ff fffe 	bl	0 <__aeabi_memclr8>
_ZN5druid22WidgetPod$LT$T$C$W$GT$3new17h3f32c3f331228985E():
C:\druid-embedded\druid\src/lib.rs:453
        WidgetPod {
  7a:	f10a 0028 	add.w	r0, sl, #40	; 0x28
  7e:	4621      	mov	r1, r4
  80:	f44f 7204 	mov.w	r2, #528	; 0x210
  84:	f7ff fffe 	bl	0 <__aeabi_memcpy8>
  88:	f50d 6b93 	add.w	fp, sp, #1176	; 0x498
_ZN5druid6window19Window$LT$T$C$W$GT$3new17hf7d7b8d59899146bE():
C:\druid-embedded\druid\src/window.rs:59
        root: W,
        ////root: &dyn Widget<T>,
        ////title: LocalizedString<T>,
        ////menu: Option<MenuDesc<T>>,
    ) -> Self {
        Window {
  8c:	4651      	mov	r1, sl
  8e:	f44f 720e 	mov.w	r2, #568	; 0x238
  92:	4658      	mov	r0, fp
  94:	f7ff fffe 	bl	0 <__aeabi_memcpy8>
  98:	f04f 0800 	mov.w	r8, #0
  9c:	f50d 60df 	add.w	r0, sp, #1784	; 0x6f8
  a0:	f8cd 870b 	str.w	r8, [sp, #1803]	; 0x70b
  a4:	f50d 6a90 	add.w	sl, sp, #1152	; 0x480
  a8:	f8cd 8707 	str.w	r8, [sp, #1799]	; 0x707
  ac:	f8cd 8703 	str.w	r8, [sp, #1795]	; 0x703
_ZN77_$LT$druid..widget..flex..Flex$LT$T$GT$$u20$as$u20$druid..Widget$LT$T$GT$$GT$10new_window17h108acb148ae9f529E():
C:\druid-embedded\druid\src\widget/flex.rs:273
        let window = Window::new(self);
        let window_box = WindowBox(
            WindowType::Flex(window),
            PhantomData,
        );
        window_box
  b0:	4651      	mov	r1, sl
_ZN5druid6window19Window$LT$T$C$W$GT$3new17hf7d7b8d59899146bE():
C:\druid-embedded\druid\src/window.rs:59
  b2:	f8cd 86ff 	str.w	r8, [sp, #1791]	; 0x6ff
_ZN77_$LT$druid..widget..flex..Flex$LT$T$GT$$u20$as$u20$druid..Widget$LT$T$GT$$GT$10new_window17h108acb148ae9f529E():
C:\druid-embedded\druid\src\widget/flex.rs:273
  b6:	c8dc      	ldmia	r0!, {r2, r3, r4, r6, r7}
  b8:	c1dc      	stmia	r1!, {r2, r3, r4, r6, r7}
  ba:	8802      	ldrh	r2, [r0, #0]
  bc:	7880      	ldrb	r0, [r0, #2]
  be:	7088      	strb	r0, [r1, #2]
_ZN5druid11win_handler16Windows$LT$T$GT$3add17had17412f00d5a178E():
C:\druid-embedded\druid\src/win_handler.rs:204
        self.windows = Some(window); ////
  c0:	4628      	mov	r0, r5
_ZN77_$LT$druid..widget..flex..Flex$LT$T$GT$$u20$as$u20$druid..Widget$LT$T$GT$$GT$10new_window17h108acb148ae9f529E():
C:\druid-embedded\druid\src\widget/flex.rs:273
  c2:	800a      	strh	r2, [r1, #0]
_ZN5druid11win_handler16Windows$LT$T$GT$3add17had17412f00d5a178E():
C:\druid-embedded\druid\src/win_handler.rs:204
  c4:	f7ff fffe 	bl	0 <druid::app::WindowDesc<T,W>::build_native>
  c8:	4628      	mov	r0, r5
  ca:	4659      	mov	r1, fp
  cc:	f44f 720e 	mov.w	r2, #568	; 0x238
  d0:	f7ff fffe 	bl	0 <__aeabi_memcpy8>
  d4:	f205 2041 	addw	r0, r5, #577	; 0x241
  d8:	4651      	mov	r1, sl
  da:	2217      	movs	r2, #23
  dc:	f885 8240 	strb.w	r8, [r5, #576]	; 0x240
  e0:	f8c5 8238 	str.w	r8, [r5, #568]	; 0x238
  e4:	f7ff fffe 	bl	0 <__aeabi_memcpy>
  e8:	2001      	movs	r0, #1
_ZN5druid3app23WindowDesc$LT$T$C$W$GT$12build_native17h544235b468a7d23dE():
C:\druid-embedded\druid\src/app.rs:240
        state
            ////.borrow_mut()
            .add_window(self.id, root_box); ////
            ////.add_window(self.id, Window::new(root, title, menu));

        builder.build()
  ea:	f8cd 901c 	str.w	r9, [sp, #28]
  ee:	9006      	str	r0, [sp, #24]
  f0:	a902      	add	r1, sp, #8
  f2:	9801      	ldr	r0, [sp, #4]
  f4:	ed8d 8b04 	vstr	d8, [sp, #16]
  f8:	ed8d 9b02 	vstr	d9, [sp, #8]
  fc:	f7ff fffe 	bl	0 <druid::app::WindowDesc<T,W>::build_native>
C:\druid-embedded\druid\src/app.rs:241
    }
 100:	f50d 6de2 	add.w	sp, sp, #1808	; 0x710
 104:	ecbd 8b04 	vpop	{d8-d9}
 108:	b001      	add	sp, #4
 10a:	e8bd 8ff0 	ldmia.w	sp!, {r4, r5, r6, r7, r8, r9, sl, fp, pc}
 10e:	bf00      	nop
 110:	00000000 	.word	0x00000000
 114:	406e0000 	.word	0x406e0000

Disassembly of section .text._ZN5druid3app23WindowDesc$LT$T$C$W$GT$3new17h150ebc7945401b41E:

00000000 <druid::app::WindowDesc<T,W>::new>:
_ZN5druid3app23WindowDesc$LT$T$C$W$GT$3new17h150ebc7945401b41E():
C:\druid-embedded\druid\src/app.rs:151
    pub fn new(root: fn() -> W) -> WindowDesc<T, W> ////
   0:	b5b0      	push	{r4, r5, r7, lr}
   2:	460c      	mov	r4, r1
   4:	4605      	mov	r5, r0
C:\druid-embedded\druid\src/app.rs:168
            id: WindowId::next(),
   6:	f7ff fffe 	bl	0 <druid::window::WindowId::next>
   a:	2100      	movs	r1, #0
C:\druid-embedded\druid\src/app.rs:161
        WindowDesc {
   c:	e9c5 1100 	strd	r1, r1, [r5]
  10:	e9c5 4006 	strd	r4, r0, [r5, #24]
C:\druid-embedded\druid\src/app.rs:171
    }
  14:	bdb0      	pop	{r4, r5, r7, pc}

Disassembly of section .text._ZN5druid3app24AppLauncher$LT$T$C$W$GT$11with_window17h6256f0cf6f972544E:

00000000 <druid::app::AppLauncher<T,W>::with_window>:
_ZN5druid3app24AppLauncher$LT$T$C$W$GT$11with_window17h6256f0cf6f972544E():
C:\druid-embedded\druid\src/app.rs:74
    pub fn with_window(window: WindowDesc<T, W>) -> Self { ////
   0:	b5b0      	push	{r4, r5, r7, lr}
   2:	b0a2      	sub	sp, #136	; 0x88
   4:	ad1a      	add	r5, sp, #104	; 0x68
   6:	4604      	mov	r4, r0
   8:	2000      	movs	r0, #0
C:\druid-embedded\druid\src/app.rs:77
        windows.push(window)
   a:	2220      	movs	r2, #32
_ZN8heapless3vec16Vec$LT$T$C$N$GT$3new17h96547738abdb4f4fE():
C:\Users\guppy\.cargo\registry\src\github.com-1ecc6299db9ec823\heapless-0.5.1\src/vec.rs:197
        Vec(crate::i::Vec::new())
   c:	9010      	str	r0, [sp, #64]	; 0x40
_ZN5druid3app24AppLauncher$LT$T$C$W$GT$11with_window17h6256f0cf6f972544E():
C:\druid-embedded\druid\src/app.rs:77
   e:	4628      	mov	r0, r5
  10:	f7ff fffe 	bl	0 <__aeabi_memcpy>
  14:	a812      	add	r0, sp, #72	; 0x48
  16:	4669      	mov	r1, sp
  18:	462a      	mov	r2, r5
  1a:	f7ff fffe 	bl	0 <druid::app::AppLauncher<T,W>::with_window>
_ZN4core6result19Result$LT$T$C$E$GT$6expect17h259c198dc4a86ad1E():
/rustc/412f43ac5b4ae8c3599e71c6972112e9be4758fa/src/libcore/result.rs:983
  1e:	e9dd 0112 	ldrd	r0, r1, [sp, #72]	; 0x48
  22:	f080 0002 	eor.w	r0, r0, #2
  26:	4308      	orrs	r0, r1
  28:	d106      	bne.n	38 <druid::app::AppLauncher<T,W>::with_window+0x38>
_ZN5druid3app24AppLauncher$LT$T$C$W$GT$11with_window17h6256f0cf6f972544E():
  2a:	4669      	mov	r1, sp
C:\druid-embedded\druid\src/app.rs:80
            windows, ////
  2c:	4620      	mov	r0, r4
  2e:	2248      	movs	r2, #72	; 0x48
  30:	f7ff fffe 	bl	0 <__aeabi_memcpy8>
C:\druid-embedded\druid\src/app.rs:88
    }
  34:	b022      	add	sp, #136	; 0x88
  36:	bdb0      	pop	{r4, r5, r7, pc}
  38:	ac1a      	add	r4, sp, #104	; 0x68
  3a:	a912      	add	r1, sp, #72	; 0x48
_ZN4core6result19Result$LT$T$C$E$GT$6expect17h259c198dc4a86ad1E():
/rustc/412f43ac5b4ae8c3599e71c6972112e9be4758fa/src/libcore/result.rs:984
  3c:	2220      	movs	r2, #32
  3e:	4620      	mov	r0, r4
  40:	f7ff fffe 	bl	0 <__aeabi_memcpy>
  44:	4803      	ldr	r0, [pc, #12]	; (54 <druid::app::AppLauncher<T,W>::with_window+0x54>)
  46:	2112      	movs	r1, #18
  48:	4b03      	ldr	r3, [pc, #12]	; (58 <druid::app::AppLauncher<T,W>::with_window+0x58>)
  4a:	4622      	mov	r2, r4
  4c:	f7ff fffe 	bl	0 <core::result::unwrap_failed>
  50:	defe      	udf	#254	; 0xfe
_ZN5druid3app24AppLauncher$LT$T$C$W$GT$11with_window17h6256f0cf6f972544E():
/rustc/412f43ac5b4ae8c3599e71c6972112e9be4758fa/src/libcore/result.rs:984
  52:	bf00      	nop
	...

Disassembly of section .text._ZN5druid3app24AppLauncher$LT$T$C$W$GT$17use_simple_logger17hb4258055174eaa84E:

00000000 <druid::app::AppLauncher<T,W>::use_simple_logger>:
_ZN5druid3app24AppLauncher$LT$T$C$W$GT$17use_simple_logger17hb4258055174eaa84E():
C:\druid-embedded\druid\src/app.rs:112
    pub fn use_simple_logger(self) -> Self {
   0:	b580      	push	{r7, lr}
C:\druid-embedded\druid\src/app.rs:114
        self
   2:	2248      	movs	r2, #72	; 0x48
   4:	f7ff fffe 	bl	0 <__aeabi_memcpy8>
C:\druid-embedded\druid\src/app.rs:115
    }
   8:	bd80      	pop	{r7, pc}

Disassembly of section .text._ZN5druid3app24AppLauncher$LT$T$C$W$GT$6launch17hf936f0cad0047a36E:

00000000 <druid::app::AppLauncher<T,W>::launch>:
_ZN5druid3app24AppLauncher$LT$T$C$W$GT$6launch17hf936f0cad0047a36E():
C:\druid-embedded\druid\src/app.rs:121
    pub fn launch(mut self, data: T) -> Result<(), PlatformError> {
   0:	e92d 47f0 	stmdb	sp!, {r4, r5, r6, r7, r8, r9, sl, lr}
   4:	f5ad 7d42 	sub.w	sp, sp, #776	; 0x308
   8:	4614      	mov	r4, r2
   a:	460d      	mov	r5, r1
   c:	4680      	mov	r8, r0
C:\druid-embedded\druid\src/app.rs:122
        Application::init();
   e:	f7ff fffe 	bl	0 <druid_shell::application::Application::init>
  12:	46e9      	mov	r9, sp
_ZN79_$LT$druid..win_handler..Windows$LT$T$GT$$u20$as$u20$core..default..Default$GT$7default17h0aa0e645e40f75fdE():
C:\druid-embedded\druid\src/win_handler.rs:859
            windows: None, ////
  14:	f44f 710e 	mov.w	r1, #568	; 0x238
  18:	4648      	mov	r0, r9
  1a:	f7ff fffe 	bl	0 <__aeabi_memclr8>
  1e:	2003      	movs	r0, #3
_ZN5druid11win_handler17AppState$LT$T$GT$3new17h54e565012aca0f6fE():
C:\druid-embedded\druid\src/win_handler.rs:434
        AppState { ////
  20:	2120      	movs	r1, #32
  22:	908e      	str	r0, [sp, #568]	; 0x238
  24:	f509 700f 	add.w	r0, r9, #572	; 0x23c
  28:	f7ff fffe 	bl	0 <__aeabi_memclr4>
  2c:	f50d 7a1a 	add.w	sl, sp, #616	; 0x268
_ZN5druid3app24AppLauncher$LT$T$C$W$GT$6launch17hf936f0cad0047a36E():
C:\druid-embedded\druid\src/app.rs:134
        for desc in self.windows {
  30:	4629      	mov	r1, r5
  32:	2248      	movs	r2, #72	; 0x48
_ZN5druid11win_handler17AppState$LT$T$GT$3new17h54e565012aca0f6fE():
C:\druid-embedded\druid\src/win_handler.rs:434
  34:	9498      	str	r4, [sp, #608]	; 0x260
_ZN5druid3app24AppLauncher$LT$T$C$W$GT$6launch17hf936f0cad0047a36E():
C:\druid-embedded\druid\src/app.rs:134
  36:	4650      	mov	r0, sl
  38:	f7ff fffe 	bl	0 <__aeabi_memcpy8>
  3c:	afb6      	add	r7, sp, #728	; 0x2d8
  3e:	acae      	add	r4, sp, #696	; 0x2b8
  40:	adbf      	add	r5, sp, #764	; 0x2fc
  42:	aebe      	add	r6, sp, #760	; 0x2f8
  44:	2000      	movs	r0, #0
  46:	90ac      	str	r0, [sp, #688]	; 0x2b0
  48:	4638      	mov	r0, r7
  4a:	4651      	mov	r1, sl
  4c:	f7ff fffe 	bl	0 <druid::app::AppLauncher<T,W>::launch>
  50:	e9dd 01b6 	ldrd	r0, r1, [sp, #728]	; 0x2d8
  54:	f080 0002 	eor.w	r0, r0, #2
  58:	4308      	orrs	r0, r1
  5a:	d017      	beq.n	8c <druid::app::AppLauncher<T,W>::launch+0x8c>
  5c:	4620      	mov	r0, r4
  5e:	4639      	mov	r1, r7
  60:	2220      	movs	r2, #32
  62:	f7ff fffe 	bl	0 <__aeabi_memcpy>
  66:	4638      	mov	r0, r7
  68:	4621      	mov	r1, r4
  6a:	2220      	movs	r2, #32
  6c:	f7ff fffe 	bl	0 <__aeabi_memcpy>
C:\druid-embedded\druid\src/app.rs:135
            let window = desc.build_native(&mut state)?;
  70:	4628      	mov	r0, r5
  72:	4639      	mov	r1, r7
  74:	464a      	mov	r2, r9
  76:	f7ff fffe 	bl	0 <druid::app::AppLauncher<T,W>::launch>
_ZN73_$LT$core..result..Result$LT$T$C$E$GT$$u20$as$u20$core..ops..try..Try$GT$11into_result17h51598fd880b0f696E():
/rustc/412f43ac5b4ae8c3599e71c6972112e9be4758fa/src/libcore/result.rs:1462
  7a:	e9dd 10bf 	ldrd	r1, r0, [sp, #764]	; 0x2fc
_ZN5druid3app24AppLauncher$LT$T$C$W$GT$6launch17hf936f0cad0047a36E():
C:\druid-embedded\druid\src/app.rs:135
  7e:	2901      	cmp	r1, #1
  80:	d00b      	beq.n	9a <druid::app::AppLauncher<T,W>::launch+0x9a>
  82:	90be      	str	r0, [sp, #760]	; 0x2f8
_ZN11druid_shell6window28WindowHandle$LT$THandler$GT$4show17hd37565557e6d5a60E():
C:\druid-embedded\druid-shell\src/window.rs:89
        self.0.show()
  84:	4630      	mov	r0, r6
  86:	f7ff fffe 	bl	0 <druid::app::AppLauncher<T,W>::launch>
  8a:	e7dd      	b.n	48 <druid::app::AppLauncher<T,W>::launch+0x48>
_ZN5druid3app24AppLauncher$LT$T$C$W$GT$6launch17hf936f0cad0047a36E():
  8c:	a89a      	add	r0, sp, #616	; 0x268
_ZN4core3ptr18real_drop_in_place17h655d4c47a6535f65E():
/rustc/412f43ac5b4ae8c3599e71c6972112e9be4758fa/src/libcore/ptr/mod.rs:181
  8e:	f7ff fffe 	bl	0 <druid::app::AppLauncher<T,W>::launch>
  92:	2000      	movs	r0, #0
_ZN5druid3app24AppLauncher$LT$T$C$W$GT$6launch17hf936f0cad0047a36E():
C:\druid-embedded\druid\src/app.rs:140
        Ok(())
  94:	f8c8 0000 	str.w	r0, [r8]
  98:	e008      	b.n	ac <druid::app::AppLauncher<T,W>::launch+0xac>
  9a:	2201      	movs	r2, #1
  9c:	99c1      	ldr	r1, [sp, #772]	; 0x304
_ZN73_$LT$core..result..Result$LT$T$C$E$GT$$u20$as$u20$core..ops..try..Try$GT$10from_error17hd4ff4118e74a9a20E():
/rustc/412f43ac5b4ae8c3599e71c6972112e9be4758fa/src/libcore/result.rs:1472
  9e:	e9c8 2000 	strd	r2, r0, [r8]
  a2:	a89a      	add	r0, sp, #616	; 0x268
  a4:	f8c8 1008 	str.w	r1, [r8, #8]
_ZN4core3ptr18real_drop_in_place17h655d4c47a6535f65E():
/rustc/412f43ac5b4ae8c3599e71c6972112e9be4758fa/src/libcore/ptr/mod.rs:181
  a8:	f7ff fffe 	bl	0 <druid::app::AppLauncher<T,W>::launch>
_ZN5druid3app24AppLauncher$LT$T$C$W$GT$6launch17hf936f0cad0047a36E():
  ac:	4668      	mov	r0, sp
  ae:	f7ff fffe 	bl	0 <druid::app::AppLauncher<T,W>::launch>
C:\druid-embedded\druid\src/app.rs:141
    }
  b2:	f50d 7d42 	add.w	sp, sp, #776	; 0x308
  b6:	e8bd 87f0 	ldmia.w	sp!, {r4, r5, r6, r7, r8, r9, sl, pc}

Disassembly of section .text._ZN5druid6widget4flex13Flex$LT$T$GT$9add_child17h3afcae7ae03333a7E:

00000000 <druid::widget::flex::Flex<T>::add_child>:
_ZN5druid6widget4flex13Flex$LT$T$GT$9add_child17h3afcae7ae03333a7E():
C:\druid-embedded\druid\src\widget/flex.rs:137
    pub fn add_child<W: Widget<T> + Clone>(&mut self, child: W, flex: f64) { ////
   0:	b570      	push	{r4, r5, r6, lr}
   2:	ed2d 8b02 	vpush	{d8}
   6:	b0ae      	sub	sp, #184	; 0xb8
   8:	466d      	mov	r5, sp
   a:	eeb0 8a40 	vmov.f32	s16, s0
   e:	4604      	mov	r4, r0
C:\druid-embedded\druid\src\widget/flex.rs:142
                WidgetBox::<T>::new(child)
  10:	4628      	mov	r0, r5
  12:	2278      	movs	r2, #120	; 0x78
  14:	eef0 8a60 	vmov.f32	s17, s1
  18:	f7ff fffe 	bl	0 <__aeabi_memcpy8>
  1c:	4628      	mov	r0, r5
  1e:	f7ff fffe 	bl	0 <druid::widget::flex::Flex<T>::add_child>
  22:	466e      	mov	r6, sp
  24:	4605      	mov	r5, r0
C:\druid-embedded\druid\src\widget/flex.rs:147
        self.children.push(child)
  26:	4630      	mov	r0, r6
  28:	212c      	movs	r1, #44	; 0x2c
  2a:	f7ff fffe 	bl	0 <__aeabi_memclr8>
  2e:	2000      	movs	r0, #0
  30:	ed8d 8b0e 	vstr	d8, [sp, #56]	; 0x38
  34:	f88d 0034 	strb.w	r0, [sp, #52]	; 0x34
  38:	a81e      	add	r0, sp, #120	; 0x78
  3a:	4621      	mov	r1, r4
  3c:	4632      	mov	r2, r6
  3e:	950c      	str	r5, [sp, #48]	; 0x30
  40:	f7ff fffe 	bl	0 <druid::widget::flex::Flex<T>::add_child>
_ZN4core6result19Result$LT$T$C$E$GT$6expect17had6b36f1a429f299E():
/rustc/412f43ac5b4ae8c3599e71c6972112e9be4758fa/src/libcore/result.rs:983
  44:	9828      	ldr	r0, [sp, #160]	; 0xa0
  46:	2802      	cmp	r0, #2
_ZN5druid6widget4flex13Flex$LT$T$GT$9add_child17h3afcae7ae03333a7E():
C:\druid-embedded\druid\src\widget/flex.rs:150
    }
  48:	bf02      	ittt	eq
  4a:	b02e      	addeq	sp, #184	; 0xb8
  4c:	ecbd 8b02 	vpopeq	{d8}
  50:	bd70      	popeq	{r4, r5, r6, pc}
  52:	466c      	mov	r4, sp
  54:	a91e      	add	r1, sp, #120	; 0x78
_ZN4core6result19Result$LT$T$C$E$GT$6expect17had6b36f1a429f299E():
/rustc/412f43ac5b4ae8c3599e71c6972112e9be4758fa/src/libcore/result.rs:984
  56:	4620      	mov	r0, r4
  58:	2240      	movs	r2, #64	; 0x40
  5a:	f7ff fffe 	bl	0 <__aeabi_memcpy>
  5e:	4803      	ldr	r0, [pc, #12]	; (6c <druid::widget::flex::Flex<T>::add_child+0x6c>)
  60:	210e      	movs	r1, #14
  62:	4b03      	ldr	r3, [pc, #12]	; (70 <druid::widget::flex::Flex<T>::add_child+0x70>)
  64:	4622      	mov	r2, r4
  66:	f7ff fffe 	bl	0 <core::result::unwrap_failed>
  6a:	defe      	udf	#254	; 0xfe
	...

Disassembly of section .text._ZN5druid6widget4flex6Column3new17heedd836087618e6aE:

00000000 <druid::widget::flex::Column::new>:
_ZN5druid6widget4flex6Column3new17heedd836087618e6aE():
C:\druid-embedded\druid\src\widget/flex.rs:115
    pub fn new<T: Data + 'static + Default>() -> Flex<T> { ////
   0:	b510      	push	{r4, lr}
   2:	4604      	mov	r4, r0
C:\druid-embedded\druid\src\widget/flex.rs:118
            id: super::get_widget_id(), ////
   4:	f7ff fffe 	bl	0 <druid::widget::get_widget_id>
   8:	2101      	movs	r1, #1
C:\druid-embedded\druid\src\widget/flex.rs:117
        Flex {
   a:	f884 120c 	strb.w	r1, [r4, #524]	; 0x20c
   e:	f8c4 0208 	str.w	r0, [r4, #520]	; 0x208
  12:	2000      	movs	r0, #0
  14:	f8c4 0200 	str.w	r0, [r4, #512]	; 0x200
C:\druid-embedded\druid\src\widget/flex.rs:123
    }
  18:	bd10      	pop	{r4, pc}

Disassembly of section .text._ZN5druid6widget5label14Label$LT$T$GT$10get_layout17he6d2bfcb03a10e6eE:

00000000 <druid::widget::label::Label<T>::get_layout>:
_ZN5druid6widget5label14Label$LT$T$GT$10get_layout17he6d2bfcb03a10e6eE():
C:\druid-embedded\druid\src\widget/label.rs:84
    fn get_layout(&self, t: &mut PietText, env: &Env) -> PietTextLayout {
   0:	b5f0      	push	{r4, r5, r6, r7, lr}
   2:	b08f      	sub	sp, #60	; 0x3c
   4:	4604      	mov	r4, r0
C:\druid-embedded\druid\src\widget/label.rs:87
        let text = self.text.display_text();
   6:	f101 0014 	add.w	r0, r1, #20
   a:	4615      	mov	r5, r2
   c:	f7ff fffe 	bl	0 <druid::widget::label::Label<T>::get_layout>
  10:	460f      	mov	r7, r1
C:\druid-embedded\druid\src\widget/label.rs:89
        let font = t.new_font_by_name(font_name, font_size).build().unwrap();
  12:	4917      	ldr	r1, [pc, #92]	; (70 <druid::widget::label::Label<T>::get_layout+0x70>)
  14:	ed9f 0b14 	vldr	d0, [pc, #80]	; 68 <druid::widget::label::Label<T>::get_layout+0x68>
C:\druid-embedded\druid\src\widget/label.rs:87
        let text = self.text.display_text();
  18:	4606      	mov	r6, r0
C:\druid-embedded\druid\src\widget/label.rs:89
        let font = t.new_font_by_name(font_name, font_size).build().unwrap();
  1a:	4628      	mov	r0, r5
  1c:	2209      	movs	r2, #9
  1e:	f7ff fffe 	bl	0 <<piet_embedded_graphics::text::EmbedText as piet::text::Text>::new_font_by_name>
  22:	f7ff fffe 	bl	0 <<piet_embedded_graphics::text::EmbedFontBuilder as piet::text::FontBuilder>::build>
_ZN4core6result19Result$LT$T$C$E$GT$6unwrap17h03bb5f140f8ed693E():
/rustc/412f43ac5b4ae8c3599e71c6972112e9be4758fa/src/libcore/result.rs:956
  26:	b9b0      	cbnz	r0, 56 <druid::widget::label::Label<T>::get_layout+0x56>
_ZN5druid6widget5label14Label$LT$T$GT$10get_layout17he6d2bfcb03a10e6eE():
C:\druid-embedded\druid\src\widget/label.rs:90
        t.new_text_layout(&font, text).build().unwrap()
  28:	9700      	str	r7, [sp, #0]
  2a:	af09      	add	r7, sp, #36	; 0x24
  2c:	aa09      	add	r2, sp, #36	; 0x24
  2e:	4629      	mov	r1, r5
  30:	4638      	mov	r0, r7
  32:	4633      	mov	r3, r6
  34:	f7ff fffe 	bl	0 <<piet_embedded_graphics::text::EmbedText as piet::text::Text>::new_text_layout>
  38:	ad02      	add	r5, sp, #8
  3a:	4639      	mov	r1, r7
  3c:	4628      	mov	r0, r5
  3e:	f7ff fffe 	bl	0 <<piet_embedded_graphics::text::EmbedTextLayoutBuilder as piet::text::TextLayoutBuilder>::build>
_ZN4core6result19Result$LT$T$C$E$GT$6unwrap17h939d7974fa84c133E():
/rustc/412f43ac5b4ae8c3599e71c6972112e9be4758fa/src/libcore/result.rs:956
  42:	9802      	ldr	r0, [sp, #8]
  44:	2801      	cmp	r0, #1
  46:	bf1f      	itttt	ne
  48:	1d28      	addne	r0, r5, #4
  4a:	e890 00ee 	ldmiane.w	r0, {r1, r2, r3, r5, r6, r7}
  4e:	c4ee      	stmiane	r4!, {r1, r2, r3, r5, r6, r7}
_ZN5druid6widget5label14Label$LT$T$GT$10get_layout17he6d2bfcb03a10e6eE():
C:\druid-embedded\druid\src\widget/label.rs:91
    }
  50:	b00f      	addne	sp, #60	; 0x3c
  52:	bf18      	it	ne
  54:	bdf0      	popne	{r4, r5, r6, r7, pc}
  56:	4807      	ldr	r0, [pc, #28]	; (74 <druid::widget::label::Label<T>::get_layout+0x74>)
  58:	aa09      	add	r2, sp, #36	; 0x24
  5a:	4b07      	ldr	r3, [pc, #28]	; (78 <druid::widget::label::Label<T>::get_layout+0x78>)
  5c:	212b      	movs	r1, #43	; 0x2b
  5e:	f7ff fffe 	bl	0 <core::result::unwrap_failed>
  62:	defe      	udf	#254	; 0xfe
  64:	bf00      	nop
  66:	bf00      	nop
  68:	00000000 	.word	0x00000000
  6c:	40300000 	.word	0x40300000
	...

Disassembly of section .text._ZN5druid6widget5label14Label$LT$T$GT$3new17h62cdb1d8498f524dE:

00000000 <druid::widget::label::Label<T>::new>:
_ZN5druid6widget5label14Label$LT$T$GT$3new17h62cdb1d8498f524dE():
C:\druid-embedded\druid\src\widget/label.rs:68
    pub fn new(text: impl Into<LabelText<T>>) -> Self {
   0:	b570      	push	{r4, r5, r6, lr}
   2:	460c      	mov	r4, r1
   4:	4605      	mov	r5, r0
C:\druid-embedded\druid\src\widget/label.rs:70
            id: super::get_widget_id(), ////
   6:	f7ff fffe 	bl	0 <druid::widget::get_widget_id>
   a:	2600      	movs	r6, #0
C:\druid-embedded\druid\src\widget/label.rs:69
        Label {
   c:	4621      	mov	r1, r4
   e:	e9c5 0604 	strd	r0, r6, [r5, #16]
  12:	f105 0018 	add.w	r0, r5, #24
  16:	2260      	movs	r2, #96	; 0x60
  18:	f7ff fffe 	bl	0 <__aeabi_memcpy4>
  1c:	4802      	ldr	r0, [pc, #8]	; (28 <druid::widget::label::Label<T>::new+0x28>)
  1e:	e9c5 6600 	strd	r6, r6, [r5]
  22:	e9c5 6002 	strd	r6, r0, [r5, #8]
C:\druid-embedded\druid\src\widget/label.rs:74
    }
  26:	bd70      	pop	{r4, r5, r6, pc}
  28:	3fe00000 	.word	0x3fe00000

Disassembly of section .text._ZN5druid6widget5label14Label$LT$T$GT$7aligned17hcef61efd31e9d224E:

00000000 <druid::widget::label::Label<T>::aligned>:
_ZN5druid6widget5label14Label$LT$T$GT$7aligned17hcef61efd31e9d224E():
C:\druid-embedded\druid\src\widget/label.rs:76
    pub fn aligned(text: impl Into<LabelText<T>>, align: UnitPoint) -> Self {
   0:	e92d 41f0 	stmdb	sp!, {r4, r5, r6, r7, r8, lr}
   4:	ed2d 8b04 	vpush	{d8-d9}
   8:	b09a      	sub	sp, #104	; 0x68
   a:	eeb0 8a41 	vmov.f32	s16, s2
   e:	4614      	mov	r4, r2
  10:	eeb0 9a40 	vmov.f32	s18, s0
  14:	460d      	mov	r5, r1
  16:	eef0 8a61 	vmov.f32	s17, s3
  1a:	4606      	mov	r6, r0
  1c:	eef0 9a60 	vmov.f32	s19, s1
C:\druid-embedded\druid\src\widget/label.rs:78
            id: super::get_widget_id(), ////
  20:	f7ff fffe 	bl	0 <druid::widget::get_widget_id>
  24:	f10d 0804 	add.w	r8, sp, #4
  28:	4607      	mov	r7, r0
_ZN50_$LT$T$u20$as$u20$core..convert..Into$LT$U$GT$$GT$4into17hd105448d2582fa00E():
/rustc/412f43ac5b4ae8c3599e71c6972112e9be4758fa/src/libcore/convert.rs:539
  2a:	4629      	mov	r1, r5
  2c:	4622      	mov	r2, r4
  2e:	4640      	mov	r0, r8
  30:	f7ff fffe 	bl	0 <druid::widget::label::Label<T>::aligned>
_ZN5druid6widget5label14Label$LT$T$GT$7aligned17hcef61efd31e9d224E():
C:\druid-embedded\druid\src\widget/label.rs:77
        Label {
  34:	f106 0014 	add.w	r0, r6, #20
  38:	4641      	mov	r1, r8
  3a:	2264      	movs	r2, #100	; 0x64
  3c:	6137      	str	r7, [r6, #16]
  3e:	f7ff fffe 	bl	0 <__aeabi_memcpy4>
  42:	ed86 9b00 	vstr	d9, [r6]
  46:	ed86 8b02 	vstr	d8, [r6, #8]
C:\druid-embedded\druid\src\widget/label.rs:82
    }
  4a:	b01a      	add	sp, #104	; 0x68
  4c:	ecbd 8b04 	vpop	{d8-d9}
  50:	e8bd 81f0 	ldmia.w	sp!, {r4, r5, r6, r7, r8, pc}

Disassembly of section .text._ZN5druid6widget5label18LabelText$LT$T$GT$12display_text17ha4b0e965c00acfdeE:

00000000 <druid::widget::label::LabelText<T>::display_text>:
_ZN5druid6widget5label18LabelText$LT$T$GT$12display_text17ha4b0e965c00acfdeE():
C:\druid-embedded\druid\src\widget/label.rs:161
    pub fn display_text(&self) -> &str {
   0:	b580      	push	{r7, lr}
C:\druid-embedded\druid\src\widget/label.rs:163
            LabelText::Specific(s) => s.as_str(),
   2:	6801      	ldr	r1, [r0, #0]
   4:	2901      	cmp	r1, #1
   6:	d103      	bne.n	10 <druid::widget::label::LabelText<T>::display_text+0x10>
   8:	3004      	adds	r0, #4
_ZN8heapless6string15String$LT$N$GT$6as_str17h03e24319182bd860E():
C:\Users\guppy\.cargo\registry\src\github.com-1ecc6299db9ec823\heapless-0.5.1\src/string.rs:159
        unsafe { str::from_utf8_unchecked(self.0.vec.as_slice()) }
   a:	f7ff fffe 	bl	0 <heapless::vec::<impl heapless::i::Vec<generic_array::GenericArray<T,N>>>::as_slice>
_ZN5druid6widget5label18LabelText$LT$T$GT$12display_text17ha4b0e965c00acfdeE():
C:\druid-embedded\druid\src\widget/label.rs:166
    }
   e:	bd80      	pop	{r7, pc}
  10:	4801      	ldr	r0, [pc, #4]	; (18 <druid::widget::label::LabelText<T>::display_text+0x18>)
  12:	2112      	movs	r1, #18
  14:	bd80      	pop	{r7, pc}
  16:	bf00      	nop
  18:	00000000 	.word	0x00000000

Disassembly of section .text._ZN5druid6widget6button15Button$LT$T$GT$3new17hafa2d8e7779b7ca8E:

00000000 <druid::widget::button::Button<T>::new>:
_ZN5druid6widget6button15Button$LT$T$GT$3new17hafa2d8e7779b7ca8E():
C:\druid-embedded\druid\src\widget/button.rs:44

impl<T: Data + 'static> Button<T> { ////
////impl<T: Data + 'static> Button<T> {
    /// Create a new button. The closure provided will be called when the button
    /// is clicked.
    pub fn new(
   0:	e92d 41f0 	stmdb	sp!, {r4, r5, r6, r7, r8, lr}
   4:	4698      	mov	r8, r3
   6:	4615      	mov	r5, r2
   8:	460e      	mov	r6, r1
   a:	4607      	mov	r7, r0
C:\druid-embedded\druid\src\widget/button.rs:50
        text: impl Into<LabelText<T>>,
        action: fn(&mut EventCtx<T>, &mut T, &Env), ////
        ////action: impl Fn(&mut EventCtx, &mut T, &Env) + 'static,
    ) -> Button<T> {
        Button {
            id: super::get_widget_id(), ////
   c:	f7ff fffe 	bl	0 <druid::widget::get_widget_id>
  10:	ed9f 0b07 	vldr	d0, [pc, #28]	; 30 <druid::widget::button::Button<T>::new+0x30>
  14:	4604      	mov	r4, r0
C:\druid-embedded\druid\src\widget/button.rs:51
            label: Label::aligned(text, UnitPoint::CENTER),
  16:	4638      	mov	r0, r7
  18:	4631      	mov	r1, r6
  1a:	eeb0 1a40 	vmov.f32	s2, s0
  1e:	462a      	mov	r2, r5
  20:	eef0 1a60 	vmov.f32	s3, s1
  24:	f7ff fffe 	bl	0 <druid::widget::button::Button<T>::new>
C:\druid-embedded\druid\src\widget/button.rs:49
        Button {
  28:	e9c7 481e 	strd	r4, r8, [r7, #120]	; 0x78
C:\druid-embedded\druid\src\widget/button.rs:55
            action, ////
            ////action: Box::new(action),
        }
    }
  2c:	e8bd 81f0 	ldmia.w	sp!, {r4, r5, r6, r7, r8, pc}
  30:	00000000 	.word	0x00000000
  34:	3fe00000 	.word	0x3fe00000

Disassembly of section .text._ZN5druid6widget9widgetbox18WidgetBox$LT$D$GT$3new17heb7f9c4d1268c6aaE:

00000000 <druid::widget::widgetbox::WidgetBox<D>::new>:
_ZN5druid6widget9widgetbox18WidgetBox$LT$D$GT$3new17heb7f9c4d1268c6aaE():
C:\druid-embedded\druid\src\widget/widgetbox.rs:65
}

/// Generic implementation of `WidgetBox`
impl<D: Data + 'static> WidgetBox<D> {
    /// Create a new box for the `Widget`
    pub fn new<W: Widget<D> + Clone>(widget: W) -> Self {
   0:	e92d 47f0 	stmdb	sp!, {r4, r5, r6, r7, r8, r9, sl, lr}
   4:	ed2d 8b04 	vpush	{d8-d9}
   8:	b0be      	sub	sp, #248	; 0xf8
   a:	4604      	mov	r4, r0
_ZN4core5clone5impls52_$LT$impl$u20$core..clone..Clone$u20$for$u20$u32$GT$5clone17h2b0a7c5ae4cba5d8E():
/rustc/412f43ac5b4ae8c3599e71c6972112e9be4758fa/src/libcore/clone.rs:174
   c:	e9d0 8004 	ldrd	r8, r0, [r0, #16]
_ZN79_$LT$druid..widget..label..LabelText$LT$T$GT$$u20$as$u20$core..clone..Clone$GT$5clone17h1332cefbbfaba929E():
C:\druid-embedded\druid\src\widget/label.rs:39
#[derive(Clone)] ////
  10:	2801      	cmp	r0, #1
  12:	d10f      	bne.n	34 <druid::widget::widgetbox::WidgetBox<D>::new+0x34>
  14:	466d      	mov	r5, sp
  16:	f104 0118 	add.w	r1, r4, #24
_ZN72_$LT$heapless..string..String$LT$N$GT$$u20$as$u20$core..clone..Clone$GT$5clone17h4336b8396010dc57E():
C:\Users\guppy\.cargo\registry\src\github.com-1ecc6299db9ec823\heapless-0.5.1\src/string.rs:392
where
    N: ArrayLength<u8>,
{
    fn clone(&self) -> Self {
        Self(crate::i::String {
            vec: self.0.vec.clone(),
  1a:	4628      	mov	r0, r5
  1c:	f7ff fffe 	bl	0 <druid::widget::widgetbox::WidgetBox<D>::new>
_ZN79_$LT$druid..widget..label..LabelText$LT$T$GT$$u20$as$u20$core..clone..Clone$GT$5clone17h1332cefbbfaba929E():
C:\druid-embedded\druid\src\widget/label.rs:39
  20:	f105 0008 	add.w	r0, r5, #8
  24:	e9dd a600 	ldrd	sl, r6, [sp]
  28:	a930      	add	r1, sp, #192	; 0xc0
  2a:	e890 00ac 	ldmia.w	r0, {r2, r3, r5, r7}
  2e:	2001      	movs	r0, #1
  30:	c1ac      	stmia	r1!, {r2, r3, r5, r7}
  32:	e024      	b.n	7e <druid::widget::widgetbox::WidgetBox<D>::new+0x7e>
_ZN84_$LT$druid..localization..LocalizedString$LT$T$GT$$u20$as$u20$core..clone..Clone$GT$5clone17hbffd40623eaf87f4E():
C:\druid-embedded\druid\src/localization.rs:109
    placeholder: Option<String>,
  34:	f104 0120 	add.w	r1, r4, #32
  38:	a837      	add	r0, sp, #220	; 0xdc
_ZN4core5clone5impls54_$LT$impl$u20$core..clone..Clone$u20$for$u20$$RF$T$GT$5clone17hf8d1210e99e360a4E():
/rustc/412f43ac5b4ae8c3599e71c6972112e9be4758fa/src/libcore/clone.rs:217
  3a:	e9d4 a606 	ldrd	sl, r6, [r4, #24]
_ZN84_$LT$druid..localization..LocalizedString$LT$T$GT$$u20$as$u20$core..clone..Clone$GT$5clone17hbffd40623eaf87f4E():
C:\druid-embedded\druid\src/localization.rs:109
  3e:	f7ff fffe 	bl	0 <druid::widget::widgetbox::WidgetBox<D>::new>
_ZN68_$LT$core..option..Option$LT$T$GT$$u20$as$u20$core..clone..Clone$GT$5clone17h9ea21ff4e91fb1e9E():
/rustc/412f43ac5b4ae8c3599e71c6972112e9be4758fa/src/libcore/option.rs:1206
  42:	6be0      	ldr	r0, [r4, #60]	; 0x3c
_ZN84_$LT$druid..localization..LocalizedString$LT$T$GT$$u20$as$u20$core..clone..Clone$GT$5clone17hbffd40623eaf87f4E():
C:\druid-embedded\druid\src/localization.rs:111
    resolved: Option<String>,
  44:	f104 055c 	add.w	r5, r4, #92	; 0x5c
_ZN68_$LT$core..option..Option$LT$T$GT$$u20$as$u20$core..clone..Clone$GT$5clone17h9ea21ff4e91fb1e9E():
/rustc/412f43ac5b4ae8c3599e71c6972112e9be4758fa/src/libcore/option.rs:1206
  48:	2801      	cmp	r0, #1
  4a:	d107      	bne.n	5c <druid::widget::widgetbox::WidgetBox<D>::new+0x5c>
  4c:	f104 0140 	add.w	r1, r4, #64	; 0x40
  50:	4668      	mov	r0, sp
_ZN70_$LT$heapless..vec..Vec$LT$T$C$N$GT$$u20$as$u20$core..clone..Clone$GT$5clone17h2f4c22b1dabfeb3cE():
C:\Users\guppy\.cargo\registry\src\github.com-1ecc6299db9ec823\heapless-0.5.1\src/vec.rs:173
        Vec(self.0.clone())
  52:	f7ff fffe 	bl	0 <druid::widget::widgetbox::WidgetBox<D>::new>
  56:	f04f 0901 	mov.w	r9, #1
  5a:	e001      	b.n	60 <druid::widget::widgetbox::WidgetBox<D>::new+0x60>
_ZN84_$LT$druid..localization..LocalizedString$LT$T$GT$$u20$as$u20$core..clone..Clone$GT$5clone17hbffd40623eaf87f4E():
  5c:	f04f 0900 	mov.w	r9, #0
  60:	a822      	add	r0, sp, #136	; 0x88
C:\druid-embedded\druid\src/localization.rs:111
  62:	4629      	mov	r1, r5
  64:	f7ff fffe 	bl	0 <druid::widget::widgetbox::WidgetBox<D>::new>
  68:	a830      	add	r0, sp, #192	; 0xc0
  6a:	a937      	add	r1, sp, #220	; 0xdc
C:\druid-embedded\druid\src/localization.rs:105
#[derive(Clone)]////
  6c:	221c      	movs	r2, #28
  6e:	f7ff fffe 	bl	0 <__aeabi_memcpy>
  72:	a829      	add	r0, sp, #164	; 0xa4
  74:	4669      	mov	r1, sp
  76:	221c      	movs	r2, #28
  78:	f7ff fffe 	bl	0 <__aeabi_memcpy>
  7c:	2000      	movs	r0, #0
_ZN75_$LT$druid..widget..label..Label$LT$T$GT$$u20$as$u20$core..clone..Clone$GT$5clone17hf4786494670a93f4E():
C:\druid-embedded\druid\src\widget/label.rs:46
#[derive(Clone)] ////
  7e:	e9cd a606 	strd	sl, r6, [sp, #24]
  82:	466d      	mov	r5, sp
  84:	e9cd 8004 	strd	r8, r0, [sp, #16]
  88:	f105 0020 	add.w	r0, r5, #32
  8c:	a930      	add	r1, sp, #192	; 0xc0
_ZN64_$LT$piet..gradient..UnitPoint$u20$as$u20$core..clone..Clone$GT$5clone17hff31b0ee4d21ddb1E():
C:\piet-embedded\piet\src/gradient.rs:188
    /// values on the other axis may extend outside the target rectangle.
    Fill,
}

/// A representation of a point relative to a unit rectangle.
#[derive(Debug, Clone, Copy)]
  8e:	ec94 8b04 	vldmia	r4, {d8-d9}
_ZN75_$LT$druid..widget..label..Label$LT$T$GT$$u20$as$u20$core..clone..Clone$GT$5clone17hf4786494670a93f4E():
C:\druid-embedded\druid\src\widget/label.rs:46
  92:	221c      	movs	r2, #28
  94:	f7ff fffe 	bl	0 <__aeabi_memcpy>
  98:	f105 0040 	add.w	r0, r5, #64	; 0x40
  9c:	a929      	add	r1, sp, #164	; 0xa4
  9e:	221c      	movs	r2, #28
  a0:	f8cd 903c 	str.w	r9, [sp, #60]	; 0x3c
  a4:	f7ff fffe 	bl	0 <__aeabi_memcpy>
  a8:	f105 005c 	add.w	r0, r5, #92	; 0x5c
  ac:	a922      	add	r1, sp, #136	; 0x88
  ae:	221c      	movs	r2, #28
  b0:	f7ff fffe 	bl	0 <__aeabi_memcpy>
_ZN5druid6widget9widgetbox18WidgetBox$LT$D$GT$3new17heb7f9c4d1268c6aaE():
C:\druid-embedded\druid\src\widget/widgetbox.rs:66
        let id = widget.clone().get_id();
  b4:	4628      	mov	r0, r5
_ZN75_$LT$druid..widget..label..Label$LT$T$GT$$u20$as$u20$core..clone..Clone$GT$5clone17hf4786494670a93f4E():
C:\druid-embedded\druid\src\widget/label.rs:46
  b6:	ec8d 8b04 	vstmia	sp, {d8-d9}
_ZN5druid6widget9widgetbox18WidgetBox$LT$D$GT$3new17heb7f9c4d1268c6aaE():
C:\druid-embedded\druid\src\widget/widgetbox.rs:66
  ba:	f7ff fffe 	bl	0 <druid::widget::widgetbox::WidgetBox<D>::new>
  be:	4606      	mov	r6, r0
C:\druid-embedded\druid\src\widget/widgetbox.rs:72
        let widget_type: WidgetType<D> = widget.to_type();
        let widget_box: WidgetBox<D> = WidgetBox(
            id,
            PhantomData,
        );
        widget_box.clone().add_widget(widget_type);
  c0:	9037      	str	r0, [sp, #220]	; 0xdc
  c2:	2000      	movs	r0, #0
  c4:	4621      	mov	r1, r4
  c6:	9001      	str	r0, [sp, #4]
  c8:	2002      	movs	r0, #2
  ca:	9000      	str	r0, [sp, #0]
  cc:	f105 0008 	add.w	r0, r5, #8
  d0:	2278      	movs	r2, #120	; 0x78
  d2:	f7ff fffe 	bl	0 <__aeabi_memcpy8>
  d6:	a837      	add	r0, sp, #220	; 0xdc
  d8:	4629      	mov	r1, r5
  da:	f7ff fffe 	bl	0 <<druid::widget::widgetbox::WidgetBox<u32> as druid::widget::widgetbox::GlobalState<u32>>::add_widget>
C:\druid-embedded\druid\src\widget/widgetbox.rs:74
        widget_box
    }
  de:	4630      	mov	r0, r6
  e0:	b03e      	add	sp, #248	; 0xf8
  e2:	ecbd 8b04 	vpop	{d8-d9}
  e6:	e8bd 87f0 	ldmia.w	sp!, {r4, r5, r6, r7, r8, r9, sl, pc}

Disassembly of section .text._ZN5druid6window19Window$LT$T$C$W$GT$3new17hf7d7b8d59899146bE:

00000000 <druid::window::Window<T,W>::new>:
_ZN5druid6window19Window$LT$T$C$W$GT$3new17hf7d7b8d59899146bE():
C:\druid-embedded\druid\src/window.rs:53
    pub fn new(
   0:	b570      	push	{r4, r5, r6, lr}
   2:	f5ad 7d0e 	sub.w	sp, sp, #568	; 0x238
   6:	466e      	mov	r6, sp
   8:	460c      	mov	r4, r1
   a:	4605      	mov	r5, r0
_ZN59_$LT$druid..BaseState$u20$as$u20$core..default..Default$GT$7default17h16974eb2ea878527E():
C:\druid-embedded\druid\src/lib.rs:119
#[derive(Clone, Copy, Default)] ////
   c:	4630      	mov	r0, r6
   e:	2128      	movs	r1, #40	; 0x28
  10:	f7ff fffe 	bl	0 <__aeabi_memclr8>
_ZN5druid22WidgetPod$LT$T$C$W$GT$3new17h3f32c3f331228985E():
C:\druid-embedded\druid\src/lib.rs:453
        WidgetPod {
  14:	f106 0028 	add.w	r0, r6, #40	; 0x28
  18:	4621      	mov	r1, r4
  1a:	f44f 7204 	mov.w	r2, #528	; 0x210
  1e:	f7ff fffe 	bl	0 <__aeabi_memcpy8>
_ZN5druid6window19Window$LT$T$C$W$GT$3new17hf7d7b8d59899146bE():
C:\druid-embedded\druid\src/window.rs:59
        Window {
  22:	4628      	mov	r0, r5
  24:	4631      	mov	r1, r6
  26:	f44f 720e 	mov.w	r2, #568	; 0x238
  2a:	f7ff fffe 	bl	0 <__aeabi_memcpy8>
  2e:	2000      	movs	r0, #0
  30:	f885 0240 	strb.w	r0, [r5, #576]	; 0x240
  34:	f8c5 0238 	str.w	r0, [r5, #568]	; 0x238
  38:	e9c5 0092 	strd	r0, r0, [r5, #584]	; 0x248
  3c:	e9c5 0094 	strd	r0, r0, [r5, #592]	; 0x250
C:\druid-embedded\druid\src/window.rs:69
            ////title,
            ////menu,
            ////context_menu: None,
            phantom_data: PhantomData, ////
        }
    }
  40:	f50d 7d0e 	add.w	sp, sp, #568	; 0x238
  44:	bd70      	pop	{r4, r5, r6, pc}

Disassembly of section .text._ZN5druid6window19Window$LT$T$C$W$GT$5paint17h13a297898b1a2b20E:

00000000 <druid::window::Window<T,W>::paint>:
_ZN5druid6window19Window$LT$T$C$W$GT$5paint17h13a297898b1a2b20E():
C:\druid-embedded\druid\src/window.rs:98
        let size = self.root.layout(layout_ctx, &bc, data, env);
        self.root
            .set_layout_rect(Rect::from_origin_size(Point::ORIGIN, size));
    }

    pub fn paint(&mut self, paint_ctx: &mut PaintCtx, data: &T, env: &Env) {
   0:	b570      	push	{r4, r5, r6, lr}
   2:	b098      	sub	sp, #96	; 0x60
   4:	ed9f 0b12 	vldr	d0, [pc, #72]	; 50 <druid::window::Window<T,W>::paint+0x50>
   8:	460c      	mov	r4, r1
   a:	a901      	add	r1, sp, #4
   c:	ad04      	add	r5, sp, #16
C:\druid-embedded\druid\src/window.rs:99
        let visible = Rect::from_origin_size(Point::ZERO, self.size);
   e:	eeb0 1a40 	vmov.f32	s2, s0
  12:	c10d      	stmia	r1!, {r0, r2, r3}
  14:	eef0 1a60 	vmov.f32	s3, s1
  18:	ed90 2b92 	vldr	d2, [r0, #584]	; 0x248
  1c:	ed90 3b94 	vldr	d3, [r0, #592]	; 0x250
  20:	4628      	mov	r0, r5
  22:	f7ff fffe 	bl	0 <druid::window::Window<T,W>::paint>
  26:	ae0c      	add	r6, sp, #48	; 0x30
C:\druid-embedded\druid\src/window.rs:100
        paint_ctx.with_child_ctx(visible, |ctx| self.root.paint(ctx, data, env));
  28:	4629      	mov	r1, r5
  2a:	2220      	movs	r2, #32
  2c:	4630      	mov	r0, r6
  2e:	f7ff fffe 	bl	0 <__aeabi_memcpy>
  32:	a803      	add	r0, sp, #12
  34:	9017      	str	r0, [sp, #92]	; 0x5c
  36:	a802      	add	r0, sp, #8
  38:	9016      	str	r0, [sp, #88]	; 0x58
  3a:	a801      	add	r0, sp, #4
  3c:	aa15      	add	r2, sp, #84	; 0x54
  3e:	9015      	str	r0, [sp, #84]	; 0x54
  40:	4620      	mov	r0, r4
  42:	4631      	mov	r1, r6
  44:	f7ff fffe 	bl	0 <druid::window::Window<T,W>::paint>
C:\druid-embedded\druid\src/window.rs:101
    }
  48:	b018      	add	sp, #96	; 0x60
  4a:	bd70      	pop	{r4, r5, r6, pc}
  4c:	bf00      	nop
  4e:	bf00      	nop
	...

Disassembly of section .text._ZN5druid6window19Window$LT$T$C$W$GT$6layout17he31f1a560fa58a43E:

00000000 <druid::window::Window<T,W>::layout>:
_ZN5druid6window19Window$LT$T$C$W$GT$6layout17he31f1a560fa58a43E():
C:\druid-embedded\druid\src/window.rs:91
    pub fn layout(&mut self, layout_ctx: &mut LayoutCtx, data: &T, env: &Env) {
   0:	e92d 41f0 	stmdb	sp!, {r4, r5, r6, r7, r8, lr}
   4:	b092      	sub	sp, #72	; 0x48
   6:	f10d 0808 	add.w	r8, sp, #8
C:\druid-embedded\druid\src/window.rs:92
        let bc = BoxConstraints::tight(self.size);
   a:	ed90 0b92 	vldr	d0, [r0, #584]	; 0x248
   e:	ed90 1b94 	vldr	d1, [r0, #592]	; 0x250
  12:	4604      	mov	r4, r0
  14:	4640      	mov	r0, r8
  16:	461d      	mov	r5, r3
  18:	4616      	mov	r6, r2
  1a:	460f      	mov	r7, r1
  1c:	f7ff fffe 	bl	0 <druid::BoxConstraints::tight>
_ZN5druid22WidgetPod$LT$T$C$W$GT$6layout17h4c399d3bed77871fE():
C:\druid-embedded\druid\src/lib.rs:565
        self.inner.layout(layout_ctx, bc, data, &env)
  20:	f104 0028 	add.w	r0, r4, #40	; 0x28
  24:	4639      	mov	r1, r7
  26:	4642      	mov	r2, r8
  28:	4633      	mov	r3, r6
  2a:	9500      	str	r5, [sp, #0]
  2c:	f7ff fffe 	bl	0 <druid::window::Window<T,W>::layout>
  30:	eeb0 2a40 	vmov.f32	s4, s0
  34:	ad0a      	add	r5, sp, #40	; 0x28
  36:	eef0 2a60 	vmov.f32	s5, s1
  3a:	ed9f 0b0b 	vldr	d0, [pc, #44]	; 68 <druid::window::Window<T,W>::layout+0x68>
  3e:	eeb0 3a41 	vmov.f32	s6, s2
_ZN5druid6window19Window$LT$T$C$W$GT$6layout17he31f1a560fa58a43E():
C:\druid-embedded\druid\src/window.rs:95
            .set_layout_rect(Rect::from_origin_size(Point::ORIGIN, size));
  42:	4628      	mov	r0, r5
  44:	eeb0 1a40 	vmov.f32	s2, s0
_ZN5druid22WidgetPod$LT$T$C$W$GT$6layout17h4c399d3bed77871fE():
C:\druid-embedded\druid\src/lib.rs:565
  48:	eef0 3a61 	vmov.f32	s7, s3
_ZN5druid6window19Window$LT$T$C$W$GT$6layout17he31f1a560fa58a43E():
C:\druid-embedded\druid\src/window.rs:95
  4c:	eef0 1a60 	vmov.f32	s3, s1
  50:	f7ff fffe 	bl	0 <druid::window::Window<T,W>::layout>
_ZN5druid22WidgetPod$LT$T$C$W$GT$15set_layout_rect17h826544f924c4136dE():
C:\druid-embedded\druid\src/lib.rs:476
        self.state.layout_rect = layout_rect;
  54:	4620      	mov	r0, r4
  56:	4629      	mov	r1, r5
  58:	2220      	movs	r2, #32
  5a:	f7ff fffe 	bl	0 <__aeabi_memcpy>
_ZN5druid6window19Window$LT$T$C$W$GT$6layout17he31f1a560fa58a43E():
C:\druid-embedded\druid\src/window.rs:96
    }
  5e:	b012      	add	sp, #72	; 0x48
  60:	e8bd 81f0 	ldmia.w	sp!, {r4, r5, r6, r7, r8, pc}
  64:	bf00      	nop
  66:	bf00      	nop
	...

Disassembly of section .text._ZN5druid8PaintCtx14with_child_ctx17h2046ff1dfce20444E:

00000000 <druid::PaintCtx::with_child_ctx>:
_ZN5druid8PaintCtx14with_child_ctx17h2046ff1dfce20444E():
C:\druid-embedded\druid\src/lib.rs:357
    pub fn with_child_ctx(&mut self, region: impl Into<Region>, f: impl FnOnce(&mut PaintCtx)) {
   0:	e92d 41f0 	stmdb	sp!, {r4, r5, r6, r7, r8, lr}
   4:	b094      	sub	sp, #80	; 0x50
   6:	ad0c      	add	r5, sp, #48	; 0x30
   8:	4614      	mov	r4, r2
C:\druid-embedded\druid\src/lib.rs:364
            render_ctx,
   a:	e9d0 7608 	ldrd	r7, r6, [r0, #32]
C:\druid-embedded\druid\src/lib.rs:366
            region: region.into(),
   e:	2220      	movs	r2, #32
  10:	4628      	mov	r0, r5
  12:	f7ff fffe 	bl	0 <__aeabi_memcpy>
  16:	f10d 0808 	add.w	r8, sp, #8
  1a:	4629      	mov	r1, r5
  1c:	4640      	mov	r0, r8
  1e:	f7ff fffe 	bl	0 <druid::PaintCtx::with_child_ctx>
C:\druid-embedded\druid\src/lib.rs:368
        f(&mut child_ctx)
  22:	6820      	ldr	r0, [r4, #0]
_ZN5druid22WidgetPod$LT$T$C$W$GT$22paint_with_offset_impl28_$u7b$$u7b$closure$u7d$$u7d$17h590f4e4d4d178a43E():
C:\druid-embedded\druid\src/lib.rs:542
            self.inner.paint(ctx, &self.state, data, &env)
  24:	4641      	mov	r1, r8
_ZN5druid8PaintCtx14with_child_ctx17h2046ff1dfce20444E():
C:\druid-embedded\druid\src/lib.rs:363
        let mut child_ctx = PaintCtx {
  26:	e9cd 760a 	strd	r7, r6, [sp, #40]	; 0x28
_ZN5druid22WidgetPod$LT$T$C$W$GT$22paint_with_offset_impl28_$u7b$$u7b$closure$u7d$$u7d$17h590f4e4d4d178a43E():
C:\druid-embedded\druid\src/lib.rs:542
            self.inner.paint(ctx, &self.state, data, &env)
  2a:	6802      	ldr	r2, [r0, #0]
  2c:	f102 0030 	add.w	r0, r2, #48	; 0x30
  30:	f7ff fffe 	bl	0 <druid::PaintCtx::with_child_ctx>
_ZN5druid8PaintCtx14with_child_ctx17h2046ff1dfce20444E():
C:\druid-embedded\druid\src/lib.rs:369
    }
  34:	b014      	add	sp, #80	; 0x50
  36:	e8bd 81f0 	ldmia.w	sp!, {r4, r5, r6, r7, r8, pc}

Disassembly of section .text._ZN5druid8PaintCtx14with_child_ctx17he257ff298816f675E:

00000000 <druid::PaintCtx::with_child_ctx>:
_ZN5druid8PaintCtx14with_child_ctx17he257ff298816f675E():
C:\druid-embedded\druid\src/lib.rs:357
    pub fn with_child_ctx(&mut self, region: impl Into<Region>, f: impl FnOnce(&mut PaintCtx)) {
   0:	e92d 41f0 	stmdb	sp!, {r4, r5, r6, r7, r8, lr}
   4:	b092      	sub	sp, #72	; 0x48
   6:	ad0a      	add	r5, sp, #40	; 0x28
   8:	4614      	mov	r4, r2
C:\druid-embedded\druid\src/lib.rs:364
            render_ctx,
   a:	e9d0 7608 	ldrd	r7, r6, [r0, #32]
C:\druid-embedded\druid\src/lib.rs:366
            region: region.into(),
   e:	2220      	movs	r2, #32
  10:	4628      	mov	r0, r5
  12:	f7ff fffe 	bl	0 <__aeabi_memcpy>
  16:	46e8      	mov	r8, sp
  18:	4629      	mov	r1, r5
  1a:	4640      	mov	r0, r8
  1c:	f7ff fffe 	bl	0 <druid::PaintCtx::with_child_ctx>
C:\druid-embedded\druid\src/lib.rs:368
        f(&mut child_ctx)
  20:	cc07      	ldmia	r4!, {r0, r1, r2}
C:\druid-embedded\druid\src/lib.rs:363
        let mut child_ctx = PaintCtx {
  22:	e9cd 7608 	strd	r7, r6, [sp, #32]
_ZN5druid6window19Window$LT$T$C$W$GT$5paint28_$u7b$$u7b$closure$u7d$$u7d$17hf7113203d79d5c55E():
C:\druid-embedded\druid\src/window.rs:100
        paint_ctx.with_child_ctx(visible, |ctx| self.root.paint(ctx, data, env));
  26:	6813      	ldr	r3, [r2, #0]
  28:	680a      	ldr	r2, [r1, #0]
  2a:	4641      	mov	r1, r8
  2c:	6800      	ldr	r0, [r0, #0]
  2e:	f7ff fffe 	bl	0 <druid::PaintCtx::with_child_ctx>
_ZN5druid8PaintCtx14with_child_ctx17he257ff298816f675E():
C:\druid-embedded\druid\src/lib.rs:369
    }
  32:	b012      	add	sp, #72	; 0x48
  34:	e8bd 81f0 	ldmia.w	sp!, {r4, r5, r6, r7, r8, pc}

Disassembly of section .text._ZN5druid9windowbox18WindowBox$LT$D$GT$5paint17h20933d02fe19fc93E:

00000000 <druid::windowbox::WindowBox<D>::paint>:
_ZN5druid9windowbox18WindowBox$LT$D$GT$5paint17h20933d02fe19fc93E():
C:\druid-embedded\druid\src/windowbox.rs:78
            WindowType::Flex(w)   => w.layout(layout_ctx, data, env),
            WindowType::None => {}
        };
    }

    pub fn paint(
   0:	b510      	push	{r4, lr}
C:\druid-embedded\druid\src/windowbox.rs:85
        paint_ctx: &mut PaintCtx, 
        data: &D, 
        env: &Env
    ) {
        match &mut self.0 {
            WindowType::Flex(w)   => w.paint(paint_ctx, data, env),
   2:	f8d0 4238 	ldr.w	r4, [r0, #568]	; 0x238
   6:	2c02      	cmp	r4, #2
C:\druid-embedded\druid\src/windowbox.rs:88
            WindowType::None => {}
        };
    }
   8:	bf08      	it	eq
   a:	bd10      	popeq	{r4, pc}
C:\druid-embedded\druid\src/windowbox.rs:85
            WindowType::Flex(w)   => w.paint(paint_ctx, data, env),
   c:	e8bd 4010 	ldmia.w	sp!, {r4, lr}
  10:	f7ff bffe 	b.w	0 <druid::windowbox::WindowBox<D>::paint>

Disassembly of section .text._ZN5druid9windowbox18WindowBox$LT$D$GT$6layout17h3e1bb48e02444a18E:

00000000 <druid::windowbox::WindowBox<D>::layout>:
_ZN5druid9windowbox18WindowBox$LT$D$GT$6layout17h3e1bb48e02444a18E():
C:\druid-embedded\druid\src/windowbox.rs:66
    pub fn layout(
   0:	b510      	push	{r4, lr}
C:\druid-embedded\druid\src/windowbox.rs:73
            WindowType::Flex(w)   => w.layout(layout_ctx, data, env),
   2:	f8d0 4238 	ldr.w	r4, [r0, #568]	; 0x238
   6:	2c02      	cmp	r4, #2
C:\druid-embedded\druid\src/windowbox.rs:76
    }
   8:	bf08      	it	eq
   a:	bd10      	popeq	{r4, pc}
C:\druid-embedded\druid\src/windowbox.rs:73
            WindowType::Flex(w)   => w.layout(layout_ctx, data, env),
   c:	e8bd 4010 	ldmia.w	sp!, {r4, lr}
  10:	f7ff bffe 	b.w	0 <druid::windowbox::WindowBox<D>::layout>

Disassembly of section .text._ZN5kurbo4rect4Rect16from_origin_size17hd1df0195bb515251E:

00000000 <kurbo::rect::Rect::from_origin_size>:
_ZN5kurbo4rect4Rect16from_origin_size17hd1df0195bb515251E():
C:\kurbo-embedded\src/rect.rs:52
    pub fn from_origin_size(origin: impl Into<Point>, size: impl Into<Size>) -> Rect {
   0:	b5b0      	push	{r4, r5, r7, lr}
   2:	ed2d 8b08 	vpush	{d8-d11}
C:\kurbo-embedded\src/rect.rs:53
        let origin = origin.into();
   6:	4d44      	ldr	r5, [pc, #272]	; (118 <kurbo::rect::Rect::from_origin_size+0x118>)
   8:	eeb0 8a43 	vmov.f32	s16, s6
   c:	eeb0 9a42 	vmov.f32	s18, s4
  10:	4604      	mov	r4, r0
  12:	eef0 8a63 	vmov.f32	s17, s7
  16:	eef0 9a62 	vmov.f32	s19, s5
  1a:	47a8      	blx	r5
  1c:	eeb0 aa40 	vmov.f32	s20, s0
  20:	eeb0 ba41 	vmov.f32	s22, s2
C:\kurbo-embedded\src/rect.rs:54
        Rect::from_points(origin, origin + size.into().to_vec2())
  24:	eeb0 0a49 	vmov.f32	s0, s18
  28:	eeb0 1a48 	vmov.f32	s2, s16
C:\kurbo-embedded\src/rect.rs:53
        let origin = origin.into();
  2c:	eef0 aa60 	vmov.f32	s21, s1
  30:	eef0 ba61 	vmov.f32	s23, s3
C:\kurbo-embedded\src/rect.rs:54
        Rect::from_points(origin, origin + size.into().to_vec2())
  34:	eef0 0a69 	vmov.f32	s1, s19
  38:	eef0 1a68 	vmov.f32	s3, s17
  3c:	f7ff fffe 	bl	0 <<T as core::convert::Into<U>>::into>
  40:	eeb0 2a40 	vmov.f32	s4, s0
  44:	eeb0 3a41 	vmov.f32	s6, s2
  48:	eeb0 0a4a 	vmov.f32	s0, s20
  4c:	eeb0 1a4b 	vmov.f32	s2, s22
  50:	eef0 2a60 	vmov.f32	s5, s1
  54:	eef0 3a61 	vmov.f32	s7, s3
  58:	eef0 0a6a 	vmov.f32	s1, s21
  5c:	eef0 1a6b 	vmov.f32	s3, s23
  60:	f7ff fffe 	bl	0 <kurbo::rect::Rect::from_origin_size>
  64:	eeb0 8a40 	vmov.f32	s16, s0
  68:	eeb0 9a41 	vmov.f32	s18, s2
_ZN5kurbo4rect4Rect11from_points17hffce9aba71a4d050E():
C:\kurbo-embedded\src/rect.rs:37
        let p0 = p0.into();
  6c:	eeb0 0a4a 	vmov.f32	s0, s20
  70:	eeb0 1a4b 	vmov.f32	s2, s22
_ZN5kurbo4rect4Rect16from_origin_size17hd1df0195bb515251E():
C:\kurbo-embedded\src/rect.rs:54
        Rect::from_points(origin, origin + size.into().to_vec2())
  74:	eef0 8a60 	vmov.f32	s17, s1
  78:	eef0 9a61 	vmov.f32	s19, s3
_ZN5kurbo4rect4Rect11from_points17hffce9aba71a4d050E():
C:\kurbo-embedded\src/rect.rs:37
        let p0 = p0.into();
  7c:	eef0 0a6a 	vmov.f32	s1, s21
  80:	eef0 1a6b 	vmov.f32	s3, s23
  84:	47a8      	blx	r5
  86:	eeb0 aa40 	vmov.f32	s20, s0
  8a:	eeb0 ba41 	vmov.f32	s22, s2
C:\kurbo-embedded\src/rect.rs:38
        let p1 = p1.into();
  8e:	eeb0 0a48 	vmov.f32	s0, s16
  92:	eeb0 1a49 	vmov.f32	s2, s18
C:\kurbo-embedded\src/rect.rs:37
        let p0 = p0.into();
  96:	eef0 aa60 	vmov.f32	s21, s1
  9a:	eef0 ba61 	vmov.f32	s23, s3
C:\kurbo-embedded\src/rect.rs:38
        let p1 = p1.into();
  9e:	eef0 0a68 	vmov.f32	s1, s17
  a2:	eef0 1a69 	vmov.f32	s3, s19
  a6:	47a8      	blx	r5
  a8:	eeb0 8a40 	vmov.f32	s16, s0
_ZN4core3f6421_$LT$impl$u20$f64$GT$3max17h59360c18f4d72aa4E():
/rustc/412f43ac5b4ae8c3599e71c6972112e9be4758fa/src/libcore/num/f64.rs:391
  ac:	eeb0 0a4b 	vmov.f32	s0, s22
_ZN5kurbo4rect4Rect11from_points17hffce9aba71a4d050E():
C:\kurbo-embedded\src/rect.rs:38
  b0:	eef0 8a60 	vmov.f32	s17, s1
_ZN4core3f6421_$LT$impl$u20$f64$GT$3max17h59360c18f4d72aa4E():
/rustc/412f43ac5b4ae8c3599e71c6972112e9be4758fa/src/libcore/num/f64.rs:391
  b4:	eef0 0a6b 	vmov.f32	s1, s23
_ZN5kurbo4rect4Rect11from_points17hffce9aba71a4d050E():
C:\kurbo-embedded\src/rect.rs:38
  b8:	eeb0 9a41 	vmov.f32	s18, s2
  bc:	eef0 9a61 	vmov.f32	s19, s3
_ZN4core3f6421_$LT$impl$u20$f64$GT$3max17h59360c18f4d72aa4E():
/rustc/412f43ac5b4ae8c3599e71c6972112e9be4758fa/src/libcore/num/f64.rs:391
  c0:	f7ff fffe 	bl	0 <fmax>
_ZN5kurbo4rect4Rect3abs17h220df1aff3366bfeE():
C:\kurbo-embedded\src/rect.rs:169
        Rect {
  c4:	ed84 0b06 	vstr	d0, [r4, #24]
_ZN4core3f6421_$LT$impl$u20$f64$GT$3max17h59360c18f4d72aa4E():
/rustc/412f43ac5b4ae8c3599e71c6972112e9be4758fa/src/libcore/num/f64.rs:391
  c8:	eeb0 0a4a 	vmov.f32	s0, s20
  cc:	eeb0 1a48 	vmov.f32	s2, s16
  d0:	eef0 0a6a 	vmov.f32	s1, s21
  d4:	eef0 1a68 	vmov.f32	s3, s17
  d8:	f7ff fffe 	bl	0 <fmax>
_ZN5kurbo4rect4Rect3abs17h220df1aff3366bfeE():
C:\kurbo-embedded\src/rect.rs:169
  dc:	ed84 0b04 	vstr	d0, [r4, #16]
_ZN4core3f6421_$LT$impl$u20$f64$GT$3min17h41c142ec947da4e4E():
/rustc/412f43ac5b4ae8c3599e71c6972112e9be4758fa/src/libcore/num/f64.rs:407
  e0:	eeb0 0a4b 	vmov.f32	s0, s22
  e4:	eeb0 1a49 	vmov.f32	s2, s18
  e8:	eef0 0a6b 	vmov.f32	s1, s23
  ec:	eef0 1a69 	vmov.f32	s3, s19
  f0:	f7ff fffe 	bl	0 <fmin>
_ZN5kurbo4rect4Rect3abs17h220df1aff3366bfeE():
C:\kurbo-embedded\src/rect.rs:169
  f4:	ed84 0b02 	vstr	d0, [r4, #8]
_ZN4core3f6421_$LT$impl$u20$f64$GT$3min17h41c142ec947da4e4E():
/rustc/412f43ac5b4ae8c3599e71c6972112e9be4758fa/src/libcore/num/f64.rs:407
  f8:	eeb0 0a4a 	vmov.f32	s0, s20
  fc:	eeb0 1a48 	vmov.f32	s2, s16
 100:	eef0 0a6a 	vmov.f32	s1, s21
 104:	eef0 1a68 	vmov.f32	s3, s17
 108:	f7ff fffe 	bl	0 <fmin>
_ZN5kurbo4rect4Rect3abs17h220df1aff3366bfeE():
C:\kurbo-embedded\src/rect.rs:169
 10c:	ed84 0b00 	vstr	d0, [r4]
_ZN5kurbo4rect4Rect16from_origin_size17hd1df0195bb515251E():
C:\kurbo-embedded\src/rect.rs:55
    }
 110:	ecbd 8b08 	vpop	{d8-d11}
 114:	bdb0      	pop	{r4, r5, r7, pc}
 116:	bf00      	nop
 118:	00000000 	.word	0x00000000

Disassembly of section .text._ZN5kurbo4rect4Rect4size17h4499126d71cec979E:

00000000 <kurbo::rect::Rect::size>:
_ZN5kurbo4rect4Rect4size17h4499126d71cec979E():
C:\kurbo-embedded\src/rect.rs:140
    pub fn size(&self) -> Size {
   0:	b510      	push	{r4, lr}
   2:	ed2d 8b02 	vpush	{d8}
   6:	4604      	mov	r4, r0
C:\kurbo-embedded\src/rect.rs:141
        Size::new(self.width(), self.height())
   8:	f7ff fffe 	bl	0 <kurbo::rect::Rect::size>
   c:	eeb0 8a40 	vmov.f32	s16, s0
  10:	4620      	mov	r0, r4
  12:	eef0 8a60 	vmov.f32	s17, s1
  16:	f7ff fffe 	bl	0 <kurbo::rect::Rect::size>
  1a:	eeb0 1a40 	vmov.f32	s2, s0
C:\kurbo-embedded\src/rect.rs:142
    }
  1e:	eeb0 0a48 	vmov.f32	s0, s16
C:\kurbo-embedded\src/rect.rs:141
        Size::new(self.width(), self.height())
  22:	eef0 1a60 	vmov.f32	s3, s1
C:\kurbo-embedded\src/rect.rs:142
    }
  26:	eef0 0a68 	vmov.f32	s1, s17
  2a:	ecbd 8b02 	vpop	{d8}
  2e:	bd10      	pop	{r4, pc}

Disassembly of section .text._ZN5kurbo4rect4Rect5width17hf30f34ce82591df7E:

00000000 <kurbo::rect::Rect::width>:
_ZN5kurbo4rect4Rect5width17hf30f34ce82591df7E():
C:\kurbo-embedded\src/rect.rs:93
    pub fn width(&self) -> f64 {
   0:	b580      	push	{r7, lr}
C:\kurbo-embedded\src/rect.rs:94
        self.x1 - self.x0
   2:	ed90 0b00 	vldr	d0, [r0]
   6:	ed90 1b04 	vldr	d1, [r0, #16]
   a:	ec53 2b10 	vmov	r2, r3, d0
   e:	ec51 0b11 	vmov	r0, r1, d1
  12:	f7ff fffe 	bl	0 <__aeabi_dsub>
  16:	ec41 0b10 	vmov	d0, r0, r1
C:\kurbo-embedded\src/rect.rs:95
    }
  1a:	bd80      	pop	{r7, pc}

Disassembly of section .text._ZN5kurbo4rect4Rect6height17h0d3b3e567dbe6d86E:

00000000 <kurbo::rect::Rect::height>:
_ZN5kurbo4rect4Rect6height17h0d3b3e567dbe6d86E():
C:\kurbo-embedded\src/rect.rs:101
    pub fn height(&self) -> f64 {
   0:	b580      	push	{r7, lr}
C:\kurbo-embedded\src/rect.rs:102
        self.y1 - self.y0
   2:	ed90 0b02 	vldr	d0, [r0, #8]
   6:	ed90 1b06 	vldr	d1, [r0, #24]
   a:	ec53 2b10 	vmov	r2, r3, d0
   e:	ec51 0b11 	vmov	r0, r1, d1
  12:	f7ff fffe 	bl	0 <__aeabi_dsub>
  16:	ec41 0b10 	vmov	d0, r0, r1
C:\kurbo-embedded\src/rect.rs:103
    }
  1a:	bd80      	pop	{r7, pc}

Disassembly of section .text._ZN63_$LT$I$u20$as$u20$core..iter..traits..collect..IntoIterator$GT$9into_iter17hb1021b4f795be03eE:

00000000 <<I as core::iter::traits::collect::IntoIterator>::into_iter>:
_ZN63_$LT$I$u20$as$u20$core..iter..traits..collect..IntoIterator$GT$9into_iter17hb1021b4f795be03eE():
/rustc/412f43ac5b4ae8c3599e71c6972112e9be4758fa/src/libcore/iter/traits/collect.rs:247
   0:	b580      	push	{r7, lr}
/rustc/412f43ac5b4ae8c3599e71c6972112e9be4758fa/src/libcore/iter/traits/collect.rs:248
   2:	f44f 72cc 	mov.w	r2, #408	; 0x198
   6:	f7ff fffe 	bl	0 <__aeabi_memcpy8>
/rustc/412f43ac5b4ae8c3599e71c6972112e9be4758fa/src/libcore/iter/traits/collect.rs:249
   a:	bd80      	pop	{r7, pc}

Disassembly of section .text._ZN68_$LT$core..option..Option$LT$T$GT$$u20$as$u20$core..clone..Clone$GT$5clone17h1461aaf17a7d8a3dE:

00000000 <<core::option::Option<T> as core::clone::Clone>::clone>:
_ZN68_$LT$core..option..Option$LT$T$GT$$u20$as$u20$core..clone..Clone$GT$5clone17h1461aaf17a7d8a3dE():
/rustc/412f43ac5b4ae8c3599e71c6972112e9be4758fa/src/libcore/option.rs:1204
   0:	e92d 41f0 	stmdb	sp!, {r4, r5, r6, r7, r8, lr}
   4:	b086      	sub	sp, #24
   6:	4680      	mov	r8, r0
/rustc/412f43ac5b4ae8c3599e71c6972112e9be4758fa/src/libcore/option.rs:1206
   8:	6808      	ldr	r0, [r1, #0]
   a:	2801      	cmp	r0, #1
   c:	d10b      	bne.n	26 <<core::option::Option<T> as core::clone::Clone>::clone+0x26>
   e:	466d      	mov	r5, sp
  10:	3104      	adds	r1, #4
_ZN72_$LT$heapless..string..String$LT$N$GT$$u20$as$u20$core..clone..Clone$GT$5clone17h4336b8396010dc57E():
C:\Users\guppy\.cargo\registry\src\github.com-1ecc6299db9ec823\heapless-0.5.1\src/string.rs:392
  12:	4628      	mov	r0, r5
  14:	f7ff fffe 	bl	0 <<core::option::Option<T> as core::clone::Clone>::clone>
_ZN68_$LT$core..option..Option$LT$T$GT$$u20$as$u20$core..clone..Clone$GT$5clone17h1461aaf17a7d8a3dE():
/rustc/412f43ac5b4ae8c3599e71c6972112e9be4758fa/src/libcore/option.rs:1206
  18:	e895 00de 	ldmia.w	r5, {r1, r2, r3, r4, r6, r7}
  1c:	f108 0004 	add.w	r0, r8, #4
  20:	c0de      	stmia	r0!, {r1, r2, r3, r4, r6, r7}
  22:	2001      	movs	r0, #1
  24:	e000      	b.n	28 <<core::option::Option<T> as core::clone::Clone>::clone+0x28>
  26:	2000      	movs	r0, #0
/rustc/412f43ac5b4ae8c3599e71c6972112e9be4758fa/src/libcore/option.rs:1207
  28:	f8c8 0000 	str.w	r0, [r8]
/rustc/412f43ac5b4ae8c3599e71c6972112e9be4758fa/src/libcore/option.rs:1209
  2c:	b006      	add	sp, #24
  2e:	e8bd 81f0 	ldmia.w	sp!, {r4, r5, r6, r7, r8, pc}

Disassembly of section .text._ZN68_$LT$core..option..Option$LT$T$GT$$u20$as$u20$core..clone..Clone$GT$5clone17h49a548aec7bb2c09E:

00000000 <<core::option::Option<T> as core::clone::Clone>::clone>:
_ZN68_$LT$core..option..Option$LT$T$GT$$u20$as$u20$core..clone..Clone$GT$5clone17h49a548aec7bb2c09E():
/rustc/412f43ac5b4ae8c3599e71c6972112e9be4758fa/src/libcore/option.rs:1204
   0:	e92d 4ff8 	stmdb	sp!, {r3, r4, r5, r6, r7, r8, r9, sl, fp, lr}
   4:	ed2d 8b04 	vpush	{d8-d9}
   8:	f5ad 6d8f 	sub.w	sp, sp, #1144	; 0x478
/rustc/412f43ac5b4ae8c3599e71c6972112e9be4758fa/src/libcore/option.rs:1206
   c:	f8d1 6238 	ldr.w	r6, [r1, #568]	; 0x238
  10:	4604      	mov	r4, r0
  12:	2e03      	cmp	r6, #3
  14:	d108      	bne.n	28 <<core::option::Option<T> as core::clone::Clone>::clone+0x28>
/rustc/412f43ac5b4ae8c3599e71c6972112e9be4758fa/src/libcore/option.rs:1207
  16:	4620      	mov	r0, r4
  18:	f44f 7116 	mov.w	r1, #600	; 0x258
  1c:	f7ff fffe 	bl	0 <__aeabi_memclr8>
  20:	2003      	movs	r0, #3
  22:	f8c4 0238 	str.w	r0, [r4, #568]	; 0x238
  26:	e057      	b.n	d8 <<core::option::Option<T> as core::clone::Clone>::clone+0xd8>
_ZN76_$LT$druid..windowbox..WindowType$LT$D$GT$$u20$as$u20$core..clone..Clone$GT$5clone17h2602f7889bab57dcE():
C:\druid-embedded\druid\src/windowbox.rs:18
#[derive(Clone)]
  28:	2e02      	cmp	r6, #2
  2a:	d111      	bne.n	50 <<core::option::Option<T> as core::clone::Clone>::clone+0x50>
  2c:	a802      	add	r0, sp, #8
  2e:	f44f 710e 	mov.w	r1, #568	; 0x238
  32:	f7ff fffe 	bl	0 <__aeabi_memclr8>
  36:	ed9f 8b2c 	vldr	d8, [pc, #176]	; e8 <<core::option::Option<T> as core::clone::Clone>::clone+0xe8>
  3a:	2700      	movs	r7, #0
  3c:	f8cd 7243 	str.w	r7, [sp, #579]	; 0x243
  40:	f04f 0a00 	mov.w	sl, #0
  44:	eeb0 9a48 	vmov.f32	s18, s16
  48:	9790      	str	r7, [sp, #576]	; 0x240
  4a:	eef0 9a68 	vmov.f32	s19, s17
  4e:	e028      	b.n	a2 <<core::option::Option<T> as core::clone::Clone>::clone+0xa2>
  50:	a890      	add	r0, sp, #576	; 0x240
_ZN55_$LT$druid..BaseState$u20$as$u20$core..clone..Clone$GT$5clone17hbbb00ffee8c06116E():
C:\druid-embedded\druid\src/lib.rs:119
#[derive(Clone, Copy, Default)] ////
  52:	2228      	movs	r2, #40	; 0x28
  54:	460d      	mov	r5, r1
  56:	f7ff fffe 	bl	0 <__aeabi_memcpy>
  5a:	f10d 0908 	add.w	r9, sp, #8
_ZN68_$LT$druid..WidgetPod$LT$T$C$W$GT$$u20$as$u20$core..clone..Clone$GT$5clone17he5828319a66f03b3E():
C:\druid-embedded\druid\src/lib.rs:96
    inner: W,
  5e:	f105 0128 	add.w	r1, r5, #40	; 0x28
_ZN68_$LT$core..option..Option$LT$T$GT$$u20$as$u20$core..clone..Clone$GT$5clone17h2e769cf8014f86ceE():
/rustc/412f43ac5b4ae8c3599e71c6972112e9be4758fa/src/libcore/option.rs:1206
  62:	f8d5 723c 	ldr.w	r7, [r5, #572]	; 0x23c
_ZN70_$LT$heapless..vec..Vec$LT$T$C$N$GT$$u20$as$u20$core..clone..Clone$GT$5clone17he292310c4617be80E():
C:\Users\guppy\.cargo\registry\src\github.com-1ecc6299db9ec823\heapless-0.5.1\src/vec.rs:173
  66:	4648      	mov	r0, r9
_ZN68_$LT$core..option..Option$LT$T$GT$$u20$as$u20$core..clone..Clone$GT$5clone17h50faf15800270c4cE():
/rustc/412f43ac5b4ae8c3599e71c6972112e9be4758fa/src/libcore/option.rs:1206
  68:	f895 a240 	ldrb.w	sl, [r5, #576]	; 0x240
_ZN4core5clone5impls52_$LT$impl$u20$core..clone..Clone$u20$for$u20$u32$GT$5clone17h2b0a7c5ae4cba5d8E():
/rustc/412f43ac5b4ae8c3599e71c6972112e9be4758fa/src/libcore/clone.rs:174
  6c:	f8d5 b230 	ldr.w	fp, [r5, #560]	; 0x230
_ZN64_$LT$druid..widget..flex..Axis$u20$as$u20$core..clone..Clone$GT$5clone17h6ba3c2e3a3c6de53E():
C:\druid-embedded\druid\src\widget/flex.rs:62
#[derive(Clone, Copy)] ////
  70:	f895 8234 	ldrb.w	r8, [r5, #564]	; 0x234
_ZN70_$LT$heapless..vec..Vec$LT$T$C$N$GT$$u20$as$u20$core..clone..Clone$GT$5clone17he292310c4617be80E():
C:\Users\guppy\.cargo\registry\src\github.com-1ecc6299db9ec823\heapless-0.5.1\src/vec.rs:173
  74:	f7ff fffe 	bl	0 <<core::option::Option<T> as core::clone::Clone>::clone>
_ZN68_$LT$druid..WidgetPod$LT$T$C$W$GT$$u20$as$u20$core..clone..Clone$GT$5clone17he5828319a66f03b3E():
C:\druid-embedded\druid\src/lib.rs:90
#[derive(Clone, Copy, Default)] ////
  78:	a890      	add	r0, sp, #576	; 0x240
  7a:	4649      	mov	r1, r9
  7c:	3028      	adds	r0, #40	; 0x28
  7e:	f44f 7204 	mov.w	r2, #528	; 0x210
_ZN73_$LT$druid..widget..flex..Flex$LT$T$GT$$u20$as$u20$core..clone..Clone$GT$5clone17h72c1e37923ece860E():
C:\druid-embedded\druid\src\widget/flex.rs:45
#[derive(Clone)] ////
  82:	f88d 8214 	strb.w	r8, [sp, #532]	; 0x214
  86:	f8cd b210 	str.w	fp, [sp, #528]	; 0x210
_ZN68_$LT$druid..WidgetPod$LT$T$C$W$GT$$u20$as$u20$core..clone..Clone$GT$5clone17he5828319a66f03b3E():
C:\druid-embedded\druid\src/lib.rs:90
  8a:	f7ff fffe 	bl	0 <__aeabi_memcpy8>
  8e:	a802      	add	r0, sp, #8
_ZN73_$LT$druid..window..Window$LT$T$C$W$GT$$u20$as$u20$core..clone..Clone$GT$5clone17h84cad15f057d5995E():
C:\druid-embedded\druid\src/window.rs:38
#[derive(Clone)] ////
  90:	a990      	add	r1, sp, #576	; 0x240
  92:	f44f 720e 	mov.w	r2, #568	; 0x238
_ZN56_$LT$kurbo..size..Size$u20$as$u20$core..clone..Clone$GT$5clone17hc0945e40bb174dbeE():
C:\kurbo-embedded\src/size.rs:10
use core::fmt; ////
////use std::fmt;
use core::ops::{Mul, MulAssign};

/// A 2d size.
#[derive(Clone, Copy, Default, PartialEq)]
  96:	ed95 8b92 	vldr	d8, [r5, #584]	; 0x248
  9a:	ed95 9b94 	vldr	d9, [r5, #592]	; 0x250
_ZN73_$LT$druid..window..Window$LT$T$C$W$GT$$u20$as$u20$core..clone..Clone$GT$5clone17h84cad15f057d5995E():
C:\druid-embedded\druid\src/window.rs:38
  9e:	f7ff fffe 	bl	0 <__aeabi_memcpy8>
_ZN75_$LT$druid..windowbox..WindowBox$LT$D$GT$$u20$as$u20$core..clone..Clone$GT$5clone17hbbebf49da836d71fE():
  a2:	a902      	add	r1, sp, #8
C:\druid-embedded\druid\src/windowbox.rs:11
#[derive(Clone, Default)]
  a4:	4620      	mov	r0, r4
  a6:	f44f 720e 	mov.w	r2, #568	; 0x238
  aa:	f7ff fffe 	bl	0 <__aeabi_memcpy8>
  ae:	f8dd 1243 	ldr.w	r1, [sp, #579]	; 0x243
  b2:	9890      	ldr	r0, [sp, #576]	; 0x240
  b4:	f8cd 1003 	str.w	r1, [sp, #3]
  b8:	9000      	str	r0, [sp, #0]
_ZN68_$LT$core..option..Option$LT$T$GT$$u20$as$u20$core..clone..Clone$GT$5clone17h49a548aec7bb2c09E():
/rustc/412f43ac5b4ae8c3599e71c6972112e9be4758fa/src/libcore/option.rs:1206
  ba:	9800      	ldr	r0, [sp, #0]
  bc:	f8dd 1003 	ldr.w	r1, [sp, #3]
  c0:	f884 a240 	strb.w	sl, [r4, #576]	; 0x240
  c4:	e9c4 678e 	strd	r6, r7, [r4, #568]	; 0x238
  c8:	f8c4 0241 	str.w	r0, [r4, #577]	; 0x241
  cc:	f8c4 1244 	str.w	r1, [r4, #580]	; 0x244
  d0:	ed84 8b92 	vstr	d8, [r4, #584]	; 0x248
  d4:	ed84 9b94 	vstr	d9, [r4, #592]	; 0x250
/rustc/412f43ac5b4ae8c3599e71c6972112e9be4758fa/src/libcore/option.rs:1209
  d8:	f50d 6d8f 	add.w	sp, sp, #1144	; 0x478
  dc:	ecbd 8b04 	vpop	{d8-d9}
  e0:	b001      	add	sp, #4
  e2:	e8bd 8ff0 	ldmia.w	sp!, {r4, r5, r6, r7, r8, r9, sl, fp, pc}
  e6:	bf00      	nop
	...

Disassembly of section .text._ZN70_$LT$heapless..string..String$LT$N$GT$$u20$as$u20$core..fmt..Write$GT$10write_char17ha1a224a159d1ea80E:

00000000 <<heapless::string::String<N> as core::fmt::Write>::write_char>:
_ZN70_$LT$heapless..string..String$LT$N$GT$$u20$as$u20$core..fmt..Write$GT$10write_char17ha1a224a159d1ea80E():
C:\Users\guppy\.cargo\registry\src\github.com-1ecc6299db9ec823\heapless-0.5.1\src/string.rs:443
{
    fn write_str(&mut self, s: &str) -> Result<(), fmt::Error> {
        self.push_str(s).map_err(|_| fmt::Error)
    }

    fn write_char(&mut self, c: char) -> Result<(), fmt::Error> {
   0:	b5e0      	push	{r5, r6, r7, lr}
_ZN4core4char7methods22_$LT$impl$u20$char$GT$8len_utf817ha6b7a6f50892c804E():
/rustc/412f43ac5b4ae8c3599e71c6972112e9be4758fa/src/libcore/char/methods.rs:364
   2:	2980      	cmp	r1, #128	; 0x80
   4:	d204      	bcs.n	10 <<heapless::string::String<N> as core::fmt::Write>::write_char+0x10>
_ZN8heapless6string15String$LT$N$GT$4push17he51c7886a29f4d2aE():
C:\Users\guppy\.cargo\registry\src\github.com-1ecc6299db9ec823\heapless-0.5.1\src/string.rs:247
            1 => self.0.vec.push(c as u8).map_err(|_| {}),
   6:	f7ff fffe 	bl	0 <<heapless::string::String<N> as core::fmt::Write>::write_char>
   a:	f000 0001 	and.w	r0, r0, #1
   e:	e03b      	b.n	88 <<heapless::string::String<N> as core::fmt::Write>::write_char+0x88>
  10:	2200      	movs	r2, #0
_ZN4core4char7methods22_$LT$impl$u20$char$GT$8len_utf817ha6b7a6f50892c804E():
/rustc/412f43ac5b4ae8c3599e71c6972112e9be4758fa/src/libcore/char/methods.rs:366
  12:	f5b1 6f00 	cmp.w	r1, #2048	; 0x800
_ZN8heapless6string15String$LT$N$GT$4push17he51c7886a29f4d2aE():
C:\Users\guppy\.cargo\registry\src\github.com-1ecc6299db9ec823\heapless-0.5.1\src/string.rs:251
                .extend_from_slice(c.encode_utf8(&mut [0; 4]).as_bytes()),
  16:	9201      	str	r2, [sp, #4]
  18:	f04f 0202 	mov.w	r2, #2
_ZN4core4char7methods22_$LT$impl$u20$char$GT$8len_utf817ha6b7a6f50892c804E():
/rustc/412f43ac5b4ae8c3599e71c6972112e9be4758fa/src/libcore/char/methods.rs:366
  1c:	d20a      	bcs.n	34 <<heapless::string::String<N> as core::fmt::Write>::write_char+0x34>
_ZN4core4char7methods22_$LT$impl$u20$char$GT$11encode_utf817h6c28573dc2e35ebfE():
/rustc/412f43ac5b4ae8c3599e71c6972112e9be4758fa/src/libcore/char/methods.rs:447
  1e:	098b      	lsrs	r3, r1, #6
/rustc/412f43ac5b4ae8c3599e71c6972112e9be4758fa/src/libcore/char/methods.rs:448
  20:	f362 119f 	bfi	r1, r2, #6, #26
  24:	f88d 1005 	strb.w	r1, [sp, #5]
  28:	2106      	movs	r1, #6
/rustc/412f43ac5b4ae8c3599e71c6972112e9be4758fa/src/libcore/char/methods.rs:447
  2a:	f361 135f 	bfi	r3, r1, #5, #27
  2e:	f88d 3004 	strb.w	r3, [sp, #4]
  32:	e026      	b.n	82 <<heapless::string::String<N> as core::fmt::Write>::write_char+0x82>
/rustc/412f43ac5b4ae8c3599e71c6972112e9be4758fa/src/libcore/char/methods.rs:459
  34:	460b      	mov	r3, r1
/rustc/412f43ac5b4ae8c3599e71c6972112e9be4758fa/src/libcore/char/methods.rs:450
  36:	f5b1 3f80 	cmp.w	r1, #65536	; 0x10000
/rustc/412f43ac5b4ae8c3599e71c6972112e9be4758fa/src/libcore/char/methods.rs:459
  3a:	f362 139f 	bfi	r3, r2, #6, #26
/rustc/412f43ac5b4ae8c3599e71c6972112e9be4758fa/src/libcore/char/methods.rs:450
  3e:	d20e      	bcs.n	5e <<heapless::string::String<N> as core::fmt::Write>::write_char+0x5e>
/rustc/412f43ac5b4ae8c3599e71c6972112e9be4758fa/src/libcore/char/methods.rs:453
  40:	f88d 3006 	strb.w	r3, [sp, #6]
/rustc/412f43ac5b4ae8c3599e71c6972112e9be4758fa/src/libcore/char/methods.rs:452
  44:	098b      	lsrs	r3, r1, #6
  46:	f362 139f 	bfi	r3, r2, #6, #26
/rustc/412f43ac5b4ae8c3599e71c6972112e9be4758fa/src/libcore/char/methods.rs:451
  4a:	0b09      	lsrs	r1, r1, #12
  4c:	220e      	movs	r2, #14
/rustc/412f43ac5b4ae8c3599e71c6972112e9be4758fa/src/libcore/char/methods.rs:452
  4e:	f88d 3005 	strb.w	r3, [sp, #5]
/rustc/412f43ac5b4ae8c3599e71c6972112e9be4758fa/src/libcore/char/methods.rs:451
  52:	f362 111f 	bfi	r1, r2, #4, #28
  56:	f88d 1004 	strb.w	r1, [sp, #4]
  5a:	2203      	movs	r2, #3
  5c:	e011      	b.n	82 <<heapless::string::String<N> as core::fmt::Write>::write_char+0x82>
/rustc/412f43ac5b4ae8c3599e71c6972112e9be4758fa/src/libcore/char/methods.rs:459
  5e:	f88d 3007 	strb.w	r3, [sp, #7]
  62:	23f0      	movs	r3, #240	; 0xf0
/rustc/412f43ac5b4ae8c3599e71c6972112e9be4758fa/src/libcore/char/methods.rs:456
  64:	ea43 4391 	orr.w	r3, r3, r1, lsr #18
  68:	f88d 3004 	strb.w	r3, [sp, #4]
/rustc/412f43ac5b4ae8c3599e71c6972112e9be4758fa/src/libcore/char/methods.rs:458
  6c:	098b      	lsrs	r3, r1, #6
/rustc/412f43ac5b4ae8c3599e71c6972112e9be4758fa/src/libcore/char/methods.rs:457
  6e:	0b09      	lsrs	r1, r1, #12
/rustc/412f43ac5b4ae8c3599e71c6972112e9be4758fa/src/libcore/char/methods.rs:458
  70:	f362 139f 	bfi	r3, r2, #6, #26
/rustc/412f43ac5b4ae8c3599e71c6972112e9be4758fa/src/libcore/char/methods.rs:457
  74:	f362 119f 	bfi	r1, r2, #6, #26
  78:	2204      	movs	r2, #4
/rustc/412f43ac5b4ae8c3599e71c6972112e9be4758fa/src/libcore/char/methods.rs:458
  7a:	f88d 3006 	strb.w	r3, [sp, #6]
/rustc/412f43ac5b4ae8c3599e71c6972112e9be4758fa/src/libcore/char/methods.rs:457
  7e:	f88d 1005 	strb.w	r1, [sp, #5]
_ZN8heapless6string15String$LT$N$GT$4push17he51c7886a29f4d2aE():
  82:	a901      	add	r1, sp, #4
C:\Users\guppy\.cargo\registry\src\github.com-1ecc6299db9ec823\heapless-0.5.1\src/string.rs:248
            _ => self
  84:	f7ff fffe 	bl	0 <heapless::vec::<impl heapless::i::Vec<generic_array::GenericArray<T,N>>>::extend_from_slice>
_ZN70_$LT$heapless..string..String$LT$N$GT$$u20$as$u20$core..fmt..Write$GT$10write_char17ha1a224a159d1ea80E():
C:\Users\guppy\.cargo\registry\src\github.com-1ecc6299db9ec823\heapless-0.5.1\src/string.rs:445
        self.push(c).map_err(|_| fmt::Error)
    }
  88:	b002      	add	sp, #8
  8a:	bd80      	pop	{r7, pc}

Disassembly of section .text._ZN70_$LT$heapless..string..String$LT$N$GT$$u20$as$u20$core..fmt..Write$GT$9write_str17hce754f37aee83c9aE:

00000000 <<heapless::string::String<N> as core::fmt::Write>::write_str>:
_ZN8heapless6string15String$LT$N$GT$8push_str17h21a8a82c1417a427E():
C:\Users\guppy\.cargo\registry\src\github.com-1ecc6299db9ec823\heapless-0.5.1\src/string.rs:201
        self.0.vec.extend_from_slice(string.as_bytes())
   0:	f7ff bffe 	b.w	0 <heapless::vec::<impl heapless::i::Vec<generic_array::GenericArray<T,N>>>::extend_from_slice>

Disassembly of section .text._ZN70_$LT$heapless..vec..Vec$LT$T$C$N$GT$$u20$as$u20$core..clone..Clone$GT$5clone17h2f4c22b1dabfeb3cE:

00000000 <<heapless::vec::Vec<T,N> as core::clone::Clone>::clone>:
_ZN70_$LT$heapless..vec..Vec$LT$T$C$N$GT$$u20$as$u20$core..clone..Clone$GT$5clone17h2f4c22b1dabfeb3cE():
C:\Users\guppy\.cargo\registry\src\github.com-1ecc6299db9ec823\heapless-0.5.1\src/vec.rs:172
    fn clone(&self) -> Self {
   0:	b580      	push	{r7, lr}
C:\Users\guppy\.cargo\registry\src\github.com-1ecc6299db9ec823\heapless-0.5.1\src/vec.rs:173
        Vec(self.0.clone())
   2:	f7ff fffe 	bl	0 <<heapless::vec::Vec<T,N> as core::clone::Clone>::clone>
C:\Users\guppy\.cargo\registry\src\github.com-1ecc6299db9ec823\heapless-0.5.1\src/vec.rs:174
    }
   6:	bd80      	pop	{r7, pc}

Disassembly of section .text._ZN70_$LT$heapless..vec..Vec$LT$T$C$N$GT$$u20$as$u20$core..clone..Clone$GT$5clone17he292310c4617be80E:

00000000 <<heapless::vec::Vec<T,N> as core::clone::Clone>::clone>:
_ZN70_$LT$heapless..vec..Vec$LT$T$C$N$GT$$u20$as$u20$core..clone..Clone$GT$5clone17he292310c4617be80E():
C:\Users\guppy\.cargo\registry\src\github.com-1ecc6299db9ec823\heapless-0.5.1\src/vec.rs:172
    fn clone(&self) -> Self {
   0:	b580      	push	{r7, lr}
C:\Users\guppy\.cargo\registry\src\github.com-1ecc6299db9ec823\heapless-0.5.1\src/vec.rs:173
        Vec(self.0.clone())
   2:	f7ff fffe 	bl	0 <<heapless::vec::Vec<T,N> as core::clone::Clone>::clone>
C:\Users\guppy\.cargo\registry\src\github.com-1ecc6299db9ec823\heapless-0.5.1\src/vec.rs:174
    }
   6:	bd80      	pop	{r7, pc}

Disassembly of section .text._ZN72_$LT$druid..app..WindowDesc$LT$T$C$W$GT$$u20$as$u20$core..fmt..Debug$GT$3fmt17hc37e21074add1a7cE:

00000000 <<druid::app::WindowDesc<T,W> as core::fmt::Debug>::fmt>:
_ZN72_$LT$druid..app..WindowDesc$LT$T$C$W$GT$$u20$as$u20$core..fmt..Debug$GT$3fmt17hc37e21074add1a7cE():
C:\druid-embedded\druid\src/app.rs:257
/// Implement formatted output for WindowDesc
impl<T: Data + Default, W: Widget<T>> core::fmt::Debug for WindowDesc<T, W> { ////
    fn fmt(&self, _fmt: &mut ::core::fmt::Formatter<'_>) -> ::core::fmt::Result {
        //  TODO
        Ok(())
    }
   0:	2000      	movs	r0, #0
   2:	4770      	bx	lr

Disassembly of section .text._ZN72_$LT$heapless..string..String$LT$N$GT$$u20$as$u20$core..clone..Clone$GT$5clone17h4336b8396010dc57E:

00000000 <<heapless::string::String<N> as core::clone::Clone>::clone>:
_ZN72_$LT$heapless..string..String$LT$N$GT$$u20$as$u20$core..clone..Clone$GT$5clone17h4336b8396010dc57E():
C:\Users\guppy\.cargo\registry\src\github.com-1ecc6299db9ec823\heapless-0.5.1\src/string.rs:390
    fn clone(&self) -> Self {
   0:	b580      	push	{r7, lr}
C:\Users\guppy\.cargo\registry\src\github.com-1ecc6299db9ec823\heapless-0.5.1\src/string.rs:392
            vec: self.0.vec.clone(),
   2:	f7ff fffe 	bl	0 <<heapless::string::String<N> as core::clone::Clone>::clone>
C:\Users\guppy\.cargo\registry\src\github.com-1ecc6299db9ec823\heapless-0.5.1\src/string.rs:394
    }
   6:	bd80      	pop	{r7, pc}

Disassembly of section .text._ZN73_$LT$core..marker..PhantomData$LT$T$GT$$u20$as$u20$core..clone..Clone$GT$5clone17h7c38b97043cee8adE:

00000000 <<core::marker::PhantomData<T> as core::clone::Clone>::clone>:
_ZN73_$LT$core..marker..PhantomData$LT$T$GT$$u20$as$u20$core..clone..Clone$GT$5clone17h7c38b97043cee8adE():
/rustc/412f43ac5b4ae8c3599e71c6972112e9be4758fa/src/libcore/marker.rs:508
   0:	4770      	bx	lr

Disassembly of section .text._ZN73_$LT$heapless..vec..Vec$LT$T$C$N$GT$$u20$as$u20$core..ops..drop..Drop$GT$4drop17h626c12c2e1de9f37E:

00000000 <<heapless::vec::Vec<T,N> as core::ops::drop::Drop>::drop>:
_ZN73_$LT$heapless..vec..Vec$LT$T$C$N$GT$$u20$as$u20$core..ops..drop..Drop$GT$4drop17h626c12c2e1de9f37E():
C:\Users\guppy\.cargo\registry\src\github.com-1ecc6299db9ec823\heapless-0.5.1\src/vec.rs:374
    }
   0:	4770      	bx	lr

Disassembly of section .text._ZN75_$LT$heapless..vec..Vec$LT$T$C$N$GT$$u20$as$u20$core..ops..deref..Deref$GT$5deref17h6e6b692c0b67cfdaE:

00000000 <<heapless::vec::Vec<T,N> as core::ops::deref::Deref>::deref>:
_ZN8heapless3vec82_$LT$impl$u20$heapless..i..Vec$LT$generic_array..GenericArray$LT$T$C$N$GT$$GT$$GT$8as_slice17he57974370e0ec6c6E():
C:\Users\guppy\.cargo\registry\src\github.com-1ecc6299db9ec823\heapless-0.5.1\src/vec.rs:23
        unsafe { slice::from_raw_parts(self.buffer.as_ptr() as *const T, self.len) }
   0:	f8d0 1200 	ldr.w	r1, [r0, #512]	; 0x200
_ZN75_$LT$heapless..vec..Vec$LT$T$C$N$GT$$u20$as$u20$core..ops..deref..Deref$GT$5deref17h6e6b692c0b67cfdaE():
C:\Users\guppy\.cargo\registry\src\github.com-1ecc6299db9ec823\heapless-0.5.1\src/vec.rs:593
{
    type Target = [T];

    fn deref(&self) -> &[T] {
        self.0.as_slice()
    }
   4:	4770      	bx	lr

Disassembly of section .text._ZN75_$LT$heapless..vec..Vec$LT$T$C$N$GT$$u20$as$u20$core..ops..deref..Deref$GT$5deref17hd446ae5c01d9c88cE:

00000000 <<heapless::vec::Vec<T,N> as core::ops::deref::Deref>::deref>:
_ZN8heapless3vec82_$LT$impl$u20$heapless..i..Vec$LT$generic_array..GenericArray$LT$T$C$N$GT$$GT$$GT$8as_slice17h7b92b1e8fee4afe2E():
C:\Users\guppy\.cargo\registry\src\github.com-1ecc6299db9ec823\heapless-0.5.1\src/vec.rs:23
        unsafe { slice::from_raw_parts(self.buffer.as_ptr() as *const T, self.len) }
   0:	6c01      	ldr	r1, [r0, #64]	; 0x40
_ZN75_$LT$heapless..vec..Vec$LT$T$C$N$GT$$u20$as$u20$core..ops..deref..Deref$GT$5deref17hd446ae5c01d9c88cE():
C:\Users\guppy\.cargo\registry\src\github.com-1ecc6299db9ec823\heapless-0.5.1\src/vec.rs:593
    }
   2:	4770      	bx	lr

Disassembly of section .text._ZN76_$LT$druid..localization..ArgSource$LT$T$GT$$u20$as$u20$core..fmt..Debug$GT$3fmt17h8acdd459e0015266E:

00000000 <<druid::localization::ArgSource<T> as core::fmt::Debug>::fmt>:
_ZN76_$LT$druid..localization..ArgSource$LT$T$GT$$u20$as$u20$core..fmt..Debug$GT$3fmt17h8acdd459e0015266E():
C:\druid-embedded\druid\src/localization.rs:471
/// Implement formatted output for ArgSource
impl<T> core::fmt::Debug for ArgSource<T> { ////
    fn fmt(&self, _fmt: &mut ::core::fmt::Formatter<'_>) -> ::core::fmt::Result {
        //  TODO
        Ok(())
    }
   0:	2000      	movs	r0, #0
   2:	4770      	bx	lr

Disassembly of section .text._ZN77_$LT$druid..widget..flex..Flex$LT$T$GT$$u20$as$u20$druid..Widget$LT$T$GT$$GT$10new_window17h108acb148ae9f529E:

00000000 <<druid::widget::flex::Flex<T> as druid::Widget<T>>::new_window>:
_ZN77_$LT$druid..widget..flex..Flex$LT$T$GT$$u20$as$u20$druid..Widget$LT$T$GT$$GT$10new_window17h108acb148ae9f529E():
C:\druid-embedded\druid\src\widget/flex.rs:267
    fn new_window(self) -> WindowBox<T> { ////
   0:	b570      	push	{r4, r5, r6, lr}
   2:	f5ad 7d14 	sub.w	sp, sp, #592	; 0x250
   6:	ae06      	add	r6, sp, #24
   8:	460c      	mov	r4, r1
   a:	4605      	mov	r5, r0
_ZN59_$LT$druid..BaseState$u20$as$u20$core..default..Default$GT$7default17h16974eb2ea878527E():
C:\druid-embedded\druid\src/lib.rs:119
#[derive(Clone, Copy, Default)] ////
   c:	2128      	movs	r1, #40	; 0x28
   e:	4630      	mov	r0, r6
  10:	f7ff fffe 	bl	0 <__aeabi_memclr8>
_ZN5druid22WidgetPod$LT$T$C$W$GT$3new17h3f32c3f331228985E():
C:\druid-embedded\druid\src/lib.rs:453
        WidgetPod {
  14:	f106 0028 	add.w	r0, r6, #40	; 0x28
  18:	4621      	mov	r1, r4
  1a:	f44f 7204 	mov.w	r2, #528	; 0x210
  1e:	f7ff fffe 	bl	0 <__aeabi_memcpy8>
_ZN5druid6window19Window$LT$T$C$W$GT$3new17hf7d7b8d59899146bE():
C:\druid-embedded\druid\src/window.rs:59
        Window {
  22:	4628      	mov	r0, r5
  24:	4631      	mov	r1, r6
  26:	f44f 720e 	mov.w	r2, #568	; 0x238
  2a:	f7ff fffe 	bl	0 <__aeabi_memcpy8>
  2e:	2000      	movs	r0, #0
  30:	4669      	mov	r1, sp
_ZN77_$LT$druid..widget..flex..Flex$LT$T$GT$$u20$as$u20$druid..Widget$LT$T$GT$$GT$10new_window17h108acb148ae9f529E():
C:\druid-embedded\druid\src\widget/flex.rs:273
        window_box
  32:	f885 0240 	strb.w	r0, [r5, #576]	; 0x240
  36:	2217      	movs	r2, #23
_ZN5druid6window19Window$LT$T$C$W$GT$3new17hf7d7b8d59899146bE():
C:\druid-embedded\druid\src/window.rs:59
  38:	f8cd 0013 	str.w	r0, [sp, #19]
  3c:	f8cd 000f 	str.w	r0, [sp, #15]
  40:	f8cd 000b 	str.w	r0, [sp, #11]
  44:	f8cd 0007 	str.w	r0, [sp, #7]
_ZN77_$LT$druid..widget..flex..Flex$LT$T$GT$$u20$as$u20$druid..Widget$LT$T$GT$$GT$10new_window17h108acb148ae9f529E():
C:\druid-embedded\druid\src\widget/flex.rs:273
  48:	f8c5 0238 	str.w	r0, [r5, #568]	; 0x238
  4c:	f205 2041 	addw	r0, r5, #577	; 0x241
  50:	f7ff fffe 	bl	0 <__aeabi_memcpy>
C:\druid-embedded\druid\src\widget/flex.rs:274
    }
  54:	f50d 7d14 	add.w	sp, sp, #592	; 0x250
  58:	bd70      	pop	{r4, r5, r6, pc}

Disassembly of section .text._ZN77_$LT$druid..widget..flex..Flex$LT$T$GT$$u20$as$u20$druid..Widget$LT$T$GT$$GT$5paint17h66b3cd5a9a592d37E:

00000000 <<druid::widget::flex::Flex<T> as druid::Widget<T>>::paint>:
_ZN77_$LT$druid..widget..flex..Flex$LT$T$GT$$u20$as$u20$druid..Widget$LT$T$GT$$GT$5paint17h66b3cd5a9a592d37E():
C:\druid-embedded\druid\src\widget/flex.rs:155
    fn paint(&mut self, paint_ctx: &mut PaintCtx, _base_state: &BaseState, data: &T, env: &Env) {
   0:	e92d 41f0 	stmdb	sp!, {r4, r5, r6, r7, r8, lr}
   4:	461c      	mov	r4, r3
   6:	460d      	mov	r5, r1
C:\druid-embedded\druid\src\widget/flex.rs:156
        for child in &mut self.children {
   8:	f7ff fffe 	bl	0 <<druid::widget::flex::Flex<T> as druid::Widget<T>>::paint>
   c:	f8dd 8018 	ldr.w	r8, [sp, #24]
  10:	4606      	mov	r6, r0
  12:	460f      	mov	r7, r1
_ZN88_$LT$core..slice..IterMut$LT$T$GT$$u20$as$u20$core..iter..traits..iterator..Iterator$GT$4next17hf890bba7acef45c7E():
/rustc/412f43ac5b4ae8c3599e71c6972112e9be4758fa/src/libcore/slice/mod.rs:3221
  14:	42b7      	cmp	r7, r6
  16:	bf18      	it	ne
  18:	2e00      	cmpne	r6, #0
  1a:	d007      	beq.n	2c <<druid::widget::flex::Flex<T> as druid::Widget<T>>::paint+0x2c>
_ZN77_$LT$druid..widget..flex..Flex$LT$T$GT$$u20$as$u20$druid..Widget$LT$T$GT$$GT$5paint17h66b3cd5a9a592d37E():
C:\druid-embedded\druid\src\widget/flex.rs:157
            child.widget.paint_with_offset(paint_ctx, data, env);
  1c:	4630      	mov	r0, r6
  1e:	4629      	mov	r1, r5
  20:	4622      	mov	r2, r4
  22:	4643      	mov	r3, r8
  24:	f7ff fffe 	bl	0 <<druid::widget::flex::Flex<T> as druid::Widget<T>>::paint>
_ZN4core3ptr31_$LT$impl$u20$$BP$mut$u20$T$GT$6offset17hb3688ff3fa7236a1E():
/rustc/412f43ac5b4ae8c3599e71c6972112e9be4758fa/src/libcore/ptr/mod.rs:1864
  28:	3640      	adds	r6, #64	; 0x40
  2a:	e7f3      	b.n	14 <<druid::widget::flex::Flex<T> as druid::Widget<T>>::paint+0x14>
_ZN77_$LT$druid..widget..flex..Flex$LT$T$GT$$u20$as$u20$druid..Widget$LT$T$GT$$GT$5paint17h66b3cd5a9a592d37E():
C:\druid-embedded\druid\src\widget/flex.rs:159
    }
  2c:	e8bd 81f0 	ldmia.w	sp!, {r4, r5, r6, r7, r8, pc}

Disassembly of section .text._ZN77_$LT$druid..widget..flex..Flex$LT$T$GT$$u20$as$u20$druid..Widget$LT$T$GT$$GT$6layout17hbbca014b1d75272aE:

00000000 <<druid::widget::flex::Flex<T> as druid::Widget<T>>::layout>:
_ZN77_$LT$druid..widget..flex..Flex$LT$T$GT$$u20$as$u20$druid..Widget$LT$T$GT$$GT$6layout17hbbca014b1d75272aE():
C:\druid-embedded\druid\src\widget/flex.rs:161
    fn layout(
   0:	e92d 4ff8 	stmdb	sp!, {r3, r4, r5, r6, r7, r8, r9, sl, fp, lr}
   4:	ed2d 8b10 	vpush	{d8-d15}
   8:	b0a4      	sub	sp, #144	; 0x90
   a:	9109      	str	r1, [sp, #36]	; 0x24
   c:	4604      	mov	r4, r0
C:\druid-embedded\druid\src\widget/flex.rs:168
        bc.debug_check("Flex");
   e:	f8df 1450 	ldr.w	r1, [pc, #1104]	; 460 <<druid::widget::flex::Flex<T> as druid::Widget<T>>::layout+0x460>
  12:	4615      	mov	r5, r2
  14:	4610      	mov	r0, r2
  16:	2204      	movs	r2, #4
  18:	f7ff fffe 	bl	0 <druid::BoxConstraints::debug_check>
C:\druid-embedded\druid\src\widget/flex.rs:172
        let mut minor = self.direction.minor(bc.min());
  1c:	4628      	mov	r0, r5
  1e:	950b      	str	r5, [sp, #44]	; 0x2c
  20:	f7ff fffe 	bl	0 <druid::BoxConstraints::min>
  24:	f504 7b03 	add.w	fp, r4, #524	; 0x20c
  28:	4658      	mov	r0, fp
  2a:	f7ff fffe 	bl	0 <druid::widget::flex::Axis::minor>
  2e:	eeb0 8a40 	vmov.f32	s16, s0
C:\druid-embedded\druid\src\widget/flex.rs:173
        for child in &mut self.children {
  32:	4620      	mov	r0, r4
C:\druid-embedded\druid\src\widget/flex.rs:172
        let mut minor = self.direction.minor(bc.min());
  34:	eef0 8a60 	vmov.f32	s17, s1
  38:	9404      	str	r4, [sp, #16]
C:\druid-embedded\druid\src\widget/flex.rs:173
        for child in &mut self.children {
  3a:	f7ff fffe 	bl	0 <<druid::widget::flex::Flex<T> as druid::Widget<T>>::layout>
  3e:	ed9f 9bf2 	vldr	d9, [pc, #968]	; 408 <<druid::widget::flex::Flex<T> as druid::Widget<T>>::layout+0x408>
  42:	f10d 0950 	add.w	r9, sp, #80	; 0x50
  46:	ed9f abf2 	vldr	d10, [pc, #968]	; 410 <<druid::widget::flex::Flex<T> as druid::Widget<T>>::layout+0x410>
  4a:	4607      	mov	r7, r0
  4c:	ec54 5b19 	vmov	r5, r4, d9
  50:	460e      	mov	r6, r1
  52:	eeb0 fa49 	vmov.f32	s30, s18
  56:	eef0 fa69 	vmov.f32	s31, s19
_ZN88_$LT$core..slice..IterMut$LT$T$GT$$u20$as$u20$core..iter..traits..iterator..Iterator$GT$4next17hf890bba7acef45c7E():
/rustc/412f43ac5b4ae8c3599e71c6972112e9be4758fa/src/libcore/slice/mod.rs:3221
  5a:	42b7      	cmp	r7, r6
  5c:	f000 8094 	beq.w	188 <<druid::widget::flex::Flex<T> as druid::Widget<T>>::layout+0x188>
_ZN77_$LT$druid..widget..flex..Flex$LT$T$GT$$u20$as$u20$druid..Widget$LT$T$GT$$GT$6layout17hbbca014b1d75272aE():
C:\druid-embedded\druid\src\widget/flex.rs:174
            if child.params.flex == 0.0 {
  60:	ed97 0b0e 	vldr	d0, [r7, #56]	; 0x38
  64:	462a      	mov	r2, r5
  66:	4623      	mov	r3, r4
  68:	ec51 0b10 	vmov	r0, r1, d0
  6c:	f7ff fffe 	bl	0 <__aeabi_dcmpeq>
_ZN4core3ptr31_$LT$impl$u20$$BP$mut$u20$T$GT$6offset17hb3688ff3fa7236a1E():
/rustc/412f43ac5b4ae8c3599e71c6972112e9be4758fa/src/libcore/ptr/mod.rs:1864
  70:	3740      	adds	r7, #64	; 0x40
_ZN77_$LT$druid..widget..flex..Flex$LT$T$GT$$u20$as$u20$druid..Widget$LT$T$GT$$GT$6layout17hbbca014b1d75272aE():
C:\druid-embedded\druid\src\widget/flex.rs:174
  72:	2800      	cmp	r0, #0
  74:	d0f1      	beq.n	5a <<druid::widget::flex::Flex<T> as druid::Widget<T>>::layout+0x5a>
  76:	46c8      	mov	r8, r9
  78:	f8dd 902c 	ldr.w	r9, [sp, #44]	; 0x2c
C:\druid-embedded\druid\src\widget/flex.rs:176
                    Axis::Horizontal => BoxConstraints::new(
  7c:	f89b a000 	ldrb.w	sl, [fp]
  80:	4648      	mov	r0, r9
  82:	f7ff fffe 	bl	0 <druid::BoxConstraints::min>
  86:	f1ba 0f01 	cmp.w	sl, #1
  8a:	d119      	bne.n	c0 <<druid::widget::flex::Flex<T> as druid::Widget<T>>::layout+0xc0>
  8c:	eeb0 ba40 	vmov.f32	s22, s0
C:\druid-embedded\druid\src\widget/flex.rs:183
                        Size::new(bc.max().width, core::f64::INFINITY), ////
  90:	4648      	mov	r0, r9
  92:	eef0 ba60 	vmov.f32	s23, s1
  96:	f7ff fffe 	bl	0 <druid::BoxConstraints::max>
  9a:	eeb0 2a40 	vmov.f32	s4, s0
  9e:	46c1      	mov	r9, r8
C:\druid-embedded\druid\src\widget/flex.rs:181
                    Axis::Vertical => BoxConstraints::new(
  a0:	eeb0 1a49 	vmov.f32	s2, s18
  a4:	4640      	mov	r0, r8
  a6:	eeb0 3a4a 	vmov.f32	s6, s20
  aa:	eeb0 0a4b 	vmov.f32	s0, s22
C:\druid-embedded\druid\src\widget/flex.rs:183
                        Size::new(bc.max().width, core::f64::INFINITY), ////
  ae:	eef0 2a60 	vmov.f32	s5, s1
C:\druid-embedded\druid\src\widget/flex.rs:181
                    Axis::Vertical => BoxConstraints::new(
  b2:	eef0 0a6b 	vmov.f32	s1, s23
  b6:	eef0 1a69 	vmov.f32	s3, s19
  ba:	eef0 3a6a 	vmov.f32	s7, s21
  be:	e00b      	b.n	d8 <<druid::widget::flex::Flex<T> as druid::Widget<T>>::layout+0xd8>
C:\druid-embedded\druid\src\widget/flex.rs:176
                    Axis::Horizontal => BoxConstraints::new(
  c0:	eeb0 0a49 	vmov.f32	s0, s18
C:\druid-embedded\druid\src\widget/flex.rs:178
                        Size::new(core::f64::INFINITY, bc.max.height), ////
  c4:	ed99 3b06 	vldr	d3, [r9, #24]
C:\druid-embedded\druid\src\widget/flex.rs:176
                    Axis::Horizontal => BoxConstraints::new(
  c8:	eeb0 2a4a 	vmov.f32	s4, s20
  cc:	46c1      	mov	r9, r8
  ce:	4640      	mov	r0, r8
  d0:	eef0 0a69 	vmov.f32	s1, s19
  d4:	eef0 2a6a 	vmov.f32	s5, s21
  d8:	f7ff fffe 	bl	0 <druid::BoxConstraints::new>
_ZN5druid22WidgetPod$LT$T$C$W$GT$6layout17h6a3b3fed5c19e5ebE():
C:\druid-embedded\druid\src/lib.rs:565
        self.inner.layout(layout_ctx, bc, data, &env)
  dc:	9909      	ldr	r1, [sp, #36]	; 0x24
  de:	f1a7 0010 	sub.w	r0, r7, #16
  e2:	464a      	mov	r2, r9
  e4:	f7ff fffe 	bl	0 <<druid::widget::flex::Flex<T> as druid::Widget<T>>::layout>
  e8:	eeb0 ba40 	vmov.f32	s22, s0
_ZN77_$LT$druid..widget..flex..Flex$LT$T$GT$$u20$as$u20$druid..Widget$LT$T$GT$$GT$6layout17hbbca014b1d75272aE():
C:\druid-embedded\druid\src\widget/flex.rs:188
                minor = minor.max(self.direction.minor(child_size));
  ec:	4658      	mov	r0, fp
_ZN5druid22WidgetPod$LT$T$C$W$GT$6layout17h6a3b3fed5c19e5ebE():
C:\druid-embedded\druid\src/lib.rs:565
  ee:	eeb0 ca41 	vmov.f32	s24, s2
  f2:	eef0 ba60 	vmov.f32	s23, s1
  f6:	eef0 ca61 	vmov.f32	s25, s3
_ZN77_$LT$druid..widget..flex..Flex$LT$T$GT$$u20$as$u20$druid..Widget$LT$T$GT$$GT$6layout17hbbca014b1d75272aE():
C:\druid-embedded\druid\src\widget/flex.rs:188
  fa:	f7ff fffe 	bl	0 <druid::widget::flex::Axis::minor>
  fe:	eeb0 da40 	vmov.f32	s26, s0
C:\druid-embedded\druid\src\widget/flex.rs:189
                total_non_flex += self.direction.major(child_size);
 102:	4658      	mov	r0, fp
 104:	eeb0 1a4c 	vmov.f32	s2, s24
 108:	eeb0 0a4b 	vmov.f32	s0, s22
C:\druid-embedded\druid\src\widget/flex.rs:188
                minor = minor.max(self.direction.minor(child_size));
 10c:	eef0 da60 	vmov.f32	s27, s1
C:\druid-embedded\druid\src\widget/flex.rs:189
                total_non_flex += self.direction.major(child_size);
 110:	eef0 0a6b 	vmov.f32	s1, s23
 114:	eef0 1a6c 	vmov.f32	s3, s25
 118:	f7ff fffe 	bl	0 <druid::widget::flex::Axis::major>
 11c:	eeb0 ea40 	vmov.f32	s28, s0
 120:	f10d 0870 	add.w	r8, sp, #112	; 0x70
C:\druid-embedded\druid\src\widget/flex.rs:191
                let rect = Rect::from_origin_size(Point::ORIGIN, child_size);
 124:	eeb0 1a49 	vmov.f32	s2, s18
 128:	eeb0 2a4b 	vmov.f32	s4, s22
 12c:	4640      	mov	r0, r8
 12e:	eeb0 3a4c 	vmov.f32	s6, s24
 132:	eeb0 0a49 	vmov.f32	s0, s18
C:\druid-embedded\druid\src\widget/flex.rs:189
                total_non_flex += self.direction.major(child_size);
 136:	eef0 ea60 	vmov.f32	s29, s1
C:\druid-embedded\druid\src\widget/flex.rs:191
                let rect = Rect::from_origin_size(Point::ORIGIN, child_size);
 13a:	eef0 0a69 	vmov.f32	s1, s19
 13e:	eef0 1a69 	vmov.f32	s3, s19
 142:	eef0 2a6b 	vmov.f32	s5, s23
 146:	eef0 3a6c 	vmov.f32	s7, s25
 14a:	f7ff fffe 	bl	0 <<druid::widget::flex::Flex<T> as druid::Widget<T>>::layout>
_ZN5druid22WidgetPod$LT$T$C$W$GT$15set_layout_rect17h04aa8a7d10b06596E():
C:\druid-embedded\druid\src/lib.rs:476
        self.state.layout_rect = layout_rect;
 14e:	f1a7 0040 	sub.w	r0, r7, #64	; 0x40
 152:	4641      	mov	r1, r8
 154:	2220      	movs	r2, #32
 156:	f7ff fffe 	bl	0 <__aeabi_memmove8>
_ZN4core3f6421_$LT$impl$u20$f64$GT$3max17h59360c18f4d72aa4E():
/rustc/412f43ac5b4ae8c3599e71c6972112e9be4758fa/src/libcore/num/f64.rs:391
 15a:	eeb0 0a48 	vmov.f32	s0, s16
 15e:	eeb0 1a4d 	vmov.f32	s2, s26
 162:	eef0 0a68 	vmov.f32	s1, s17
 166:	eef0 1a6d 	vmov.f32	s3, s27
 16a:	f7ff fffe 	bl	0 <fmax>
_ZN77_$LT$druid..widget..flex..Flex$LT$T$GT$$u20$as$u20$druid..Widget$LT$T$GT$$GT$6layout17hbbca014b1d75272aE():
C:\druid-embedded\druid\src\widget/flex.rs:189
                total_non_flex += self.direction.major(child_size);
 16e:	ec53 2b1e 	vmov	r2, r3, d14
 172:	ec51 0b1f 	vmov	r0, r1, d15
_ZN4core3f6421_$LT$impl$u20$f64$GT$3max17h59360c18f4d72aa4E():
/rustc/412f43ac5b4ae8c3599e71c6972112e9be4758fa/src/libcore/num/f64.rs:391
 176:	eeb0 8a40 	vmov.f32	s16, s0
 17a:	eef0 8a60 	vmov.f32	s17, s1
_ZN77_$LT$druid..widget..flex..Flex$LT$T$GT$$u20$as$u20$druid..Widget$LT$T$GT$$GT$6layout17hbbca014b1d75272aE():
C:\druid-embedded\druid\src\widget/flex.rs:189
 17e:	f7ff fffe 	bl	0 <__aeabi_dadd>
 182:	ec41 0b1f 	vmov	d15, r0, r1
 186:	e768      	b.n	5a <<druid::widget::flex::Flex<T> as druid::Widget<T>>::layout+0x5a>
C:\druid-embedded\druid\src\widget/flex.rs:196
        let total_major = self.direction.major(bc.max());
 188:	980b      	ldr	r0, [sp, #44]	; 0x2c
 18a:	f7ff fffe 	bl	0 <druid::BoxConstraints::max>
 18e:	4658      	mov	r0, fp
 190:	f8cd b028 	str.w	fp, [sp, #40]	; 0x28
 194:	f7ff fffe 	bl	0 <druid::widget::flex::Axis::major>
C:\druid-embedded\druid\src\widget/flex.rs:197
        let remaining = (total_major - total_non_flex).max(0.0);
 198:	ec54 0b10 	vmov	r0, r4, d0
 19c:	ec53 2b1f 	vmov	r2, r3, d15
 1a0:	9006      	str	r0, [sp, #24]
 1a2:	9405      	str	r4, [sp, #20]
 1a4:	4621      	mov	r1, r4
 1a6:	f7ff fffe 	bl	0 <__aeabi_dsub>
 1aa:	ed9f 9bab 	vldr	d9, [pc, #684]	; 458 <<druid::widget::flex::Flex<T> as druid::Widget<T>>::layout+0x458>
 1ae:	ec41 0b10 	vmov	d0, r0, r1
_ZN4core3f6421_$LT$impl$u20$f64$GT$3max17h59360c18f4d72aa4E():
/rustc/412f43ac5b4ae8c3599e71c6972112e9be4758fa/src/libcore/num/f64.rs:391
 1b2:	eeb0 1a49 	vmov.f32	s2, s18
 1b6:	eef0 1a69 	vmov.f32	s3, s19
 1ba:	f7ff fffe 	bl	0 <fmax>
 1be:	9e04      	ldr	r6, [sp, #16]
 1c0:	eeb0 ba40 	vmov.f32	s22, s0
 1c4:	eef0 ba60 	vmov.f32	s23, s1
_ZN8heapless3vec82_$LT$impl$u20$heapless..i..Vec$LT$generic_array..GenericArray$LT$T$C$N$GT$$GT$$GT$8as_slice17he57974370e0ec6c6E():
C:\Users\guppy\.cargo\registry\src\github.com-1ecc6299db9ec823\heapless-0.5.1\src/vec.rs:23
        unsafe { slice::from_raw_parts(self.buffer.as_ptr() as *const T, self.len) }
 1c8:	f8d6 0200 	ldr.w	r0, [r6, #512]	; 0x200
_ZN4core5slice29_$LT$impl$u20$$u5b$T$u5d$$GT$4iter17hafb60d3504f3790dE():
/rustc/412f43ac5b4ae8c3599e71c6972112e9be4758fa/src/libcore/slice/mod.rs:621
 1cc:	eb06 1180 	add.w	r1, r6, r0, lsl #6
_ZN4core4iter6traits8iterator8Iterator3sum17h51974ad5f1074750E():
/rustc/412f43ac5b4ae8c3599e71c6972112e9be4758fa/src/libcore/iter/traits/iterator.rs:2529
 1d0:	4630      	mov	r0, r6
 1d2:	f7ff fffe 	bl	0 <<druid::widget::flex::Flex<T> as druid::Widget<T>>::layout>
 1d6:	eeb0 ca40 	vmov.f32	s24, s0
_ZN77_$LT$druid..widget..flex..Flex$LT$T$GT$$u20$as$u20$druid..Widget$LT$T$GT$$GT$6layout17hbbca014b1d75272aE():
C:\druid-embedded\druid\src\widget/flex.rs:201
        for child in &mut self.children {
 1da:	4630      	mov	r0, r6
_ZN4core4iter6traits8iterator8Iterator3sum17h51974ad5f1074750E():
/rustc/412f43ac5b4ae8c3599e71c6972112e9be4758fa/src/libcore/iter/traits/iterator.rs:2529
 1dc:	eef0 ca60 	vmov.f32	s25, s1
_ZN77_$LT$druid..widget..flex..Flex$LT$T$GT$$u20$as$u20$druid..Widget$LT$T$GT$$GT$6layout17hbbca014b1d75272aE():
C:\druid-embedded\druid\src\widget/flex.rs:201
 1e0:	f7ff fffe 	bl	0 <<druid::widget::flex::Flex<T> as druid::Widget<T>>::layout>
 1e4:	4680      	mov	r8, r0
 1e6:	4689      	mov	r9, r1
 1e8:	ec51 0b1b 	vmov	r0, r1, d11
 1ec:	ec5b ab19 	vmov	sl, fp, d9
 1f0:	e9cd 1002 	strd	r1, r0, [sp, #8]
 1f4:	ec50 1b1c 	vmov	r1, r0, d12
 1f8:	e9cd 1007 	strd	r1, r0, [sp, #28]
 1fc:	ec50 7b1a 	vmov	r7, r0, d10
 200:	9001      	str	r0, [sp, #4]
_ZN88_$LT$core..slice..IterMut$LT$T$GT$$u20$as$u20$core..iter..traits..iterator..Iterator$GT$4next17hf890bba7acef45c7E():
/rustc/412f43ac5b4ae8c3599e71c6972112e9be4758fa/src/libcore/slice/mod.rs:3221
 202:	45c8      	cmp	r8, r9
 204:	f000 80a2 	beq.w	34c <<druid::widget::flex::Flex<T> as druid::Widget<T>>::layout+0x34c>
_ZN77_$LT$druid..widget..flex..Flex$LT$T$GT$$u20$as$u20$druid..Widget$LT$T$GT$$GT$6layout17hbbca014b1d75272aE():
C:\druid-embedded\druid\src\widget/flex.rs:202
            if child.params.flex != 0.0 {
 208:	ed98 0b0e 	vldr	d0, [r8, #56]	; 0x38
 20c:	4652      	mov	r2, sl
 20e:	465b      	mov	r3, fp
 210:	ec54 5b10 	vmov	r5, r4, d0
 214:	4628      	mov	r0, r5
 216:	4621      	mov	r1, r4
 218:	f7ff fffe 	bl	0 <__aeabi_dcmpeq>
_ZN4core3ptr31_$LT$impl$u20$$BP$mut$u20$T$GT$6offset17hb3688ff3fa7236a1E():
/rustc/412f43ac5b4ae8c3599e71c6972112e9be4758fa/src/libcore/ptr/mod.rs:1864
 21c:	f108 0840 	add.w	r8, r8, #64	; 0x40
_ZN77_$LT$druid..widget..flex..Flex$LT$T$GT$$u20$as$u20$druid..Widget$LT$T$GT$$GT$6layout17hbbca014b1d75272aE():
C:\druid-embedded\druid\src\widget/flex.rs:202
 220:	2800      	cmp	r0, #0
 222:	d1ee      	bne.n	202 <<druid::widget::flex::Flex<T> as druid::Widget<T>>::layout+0x202>
C:\druid-embedded\druid\src\widget/flex.rs:203
                let major = remaining * child.params.flex / flex_sum;
 224:	e9dd 1002 	ldrd	r1, r0, [sp, #8]
 228:	462a      	mov	r2, r5
 22a:	4623      	mov	r3, r4
 22c:	f7ff fffe 	bl	0 <__aeabi_dmul>
 230:	e9dd 2307 	ldrd	r2, r3, [sp, #28]
 234:	f7ff fffe 	bl	0 <__aeabi_ddiv>
C:\druid-embedded\druid\src\widget/flex.rs:205
                let min_major = if major.is_infinite() { 0.0 } else { major };
 238:	9b01      	ldr	r3, [sp, #4]
C:\druid-embedded\druid\src\widget/flex.rs:203
                let major = remaining * child.params.flex / flex_sum;
 23a:	460d      	mov	r5, r1
 23c:	ec41 0b1a 	vmov	d10, r0, r1
_ZN4core3f6421_$LT$impl$u20$f64$GT$11abs_private17hcf685641f3caca95E():
/rustc/412f43ac5b4ae8c3599e71c6972112e9be4758fa/src/libcore/num/f64.rs:172
 240:	f021 4100 	bic.w	r1, r1, #2147483648	; 0x80000000
_ZN77_$LT$druid..widget..flex..Flex$LT$T$GT$$u20$as$u20$druid..Widget$LT$T$GT$$GT$6layout17hbbca014b1d75272aE():
C:\druid-embedded\druid\src\widget/flex.rs:205
                let min_major = if major.is_infinite() { 0.0 } else { major };
 244:	463a      	mov	r2, r7
C:\druid-embedded\druid\src\widget/flex.rs:203
                let major = remaining * child.params.flex / flex_sum;
 246:	4604      	mov	r4, r0
C:\druid-embedded\druid\src\widget/flex.rs:205
                let min_major = if major.is_infinite() { 0.0 } else { major };
 248:	f7ff fffe 	bl	0 <__aeabi_dcmpeq>
 24c:	2800      	cmp	r0, #0
 24e:	bf1c      	itt	ne
 250:	465d      	movne	r5, fp
 252:	4654      	movne	r4, sl
 254:	ec45 4b1b 	vmov	d11, r4, r5
C:\druid-embedded\druid\src\widget/flex.rs:208
                    Axis::Horizontal => BoxConstraints::new(
 258:	980a      	ldr	r0, [sp, #40]	; 0x28
 25a:	9d0b      	ldr	r5, [sp, #44]	; 0x2c
 25c:	7804      	ldrb	r4, [r0, #0]
 25e:	4628      	mov	r0, r5
 260:	f7ff fffe 	bl	0 <druid::BoxConstraints::min>
 264:	2c01      	cmp	r4, #1
 266:	ac14      	add	r4, sp, #80	; 0x50
 268:	d118      	bne.n	29c <<druid::widget::flex::Flex<T> as druid::Widget<T>>::layout+0x29c>
 26a:	eeb0 ca40 	vmov.f32	s24, s0
C:\druid-embedded\druid\src\widget/flex.rs:214
                        Size::new(bc.max().width, major),
 26e:	4628      	mov	r0, r5
 270:	eef0 ca60 	vmov.f32	s25, s1
 274:	f7ff fffe 	bl	0 <druid::BoxConstraints::max>
 278:	eeb0 2a40 	vmov.f32	s4, s0
C:\druid-embedded\druid\src\widget/flex.rs:212
                    Axis::Vertical => BoxConstraints::new(
 27c:	4620      	mov	r0, r4
 27e:	eeb0 1a4b 	vmov.f32	s2, s22
 282:	eeb0 3a4a 	vmov.f32	s6, s20
 286:	eeb0 0a4c 	vmov.f32	s0, s24
C:\druid-embedded\druid\src\widget/flex.rs:214
                        Size::new(bc.max().width, major),
 28a:	eef0 2a60 	vmov.f32	s5, s1
C:\druid-embedded\druid\src\widget/flex.rs:212
                    Axis::Vertical => BoxConstraints::new(
 28e:	eef0 0a6c 	vmov.f32	s1, s25
 292:	eef0 1a6b 	vmov.f32	s3, s23
 296:	eef0 3a6a 	vmov.f32	s7, s21
 29a:	e017      	b.n	2cc <<druid::widget::flex::Flex<T> as druid::Widget<T>>::layout+0x2cc>
 29c:	eeb0 da41 	vmov.f32	s26, s2
C:\druid-embedded\druid\src\widget/flex.rs:210
                        Size::new(major, bc.max().height),
 2a0:	4628      	mov	r0, r5
 2a2:	eef0 da61 	vmov.f32	s27, s3
 2a6:	f7ff fffe 	bl	0 <druid::BoxConstraints::max>
 2aa:	eeb0 3a41 	vmov.f32	s6, s2
C:\druid-embedded\druid\src\widget/flex.rs:208
                    Axis::Horizontal => BoxConstraints::new(
 2ae:	4620      	mov	r0, r4
 2b0:	eeb0 0a4b 	vmov.f32	s0, s22
 2b4:	eeb0 2a4a 	vmov.f32	s4, s20
 2b8:	eeb0 1a4d 	vmov.f32	s2, s26
C:\druid-embedded\druid\src\widget/flex.rs:210
                        Size::new(major, bc.max().height),
 2bc:	eef0 3a61 	vmov.f32	s7, s3
C:\druid-embedded\druid\src\widget/flex.rs:208
                    Axis::Horizontal => BoxConstraints::new(
 2c0:	eef0 0a6b 	vmov.f32	s1, s23
 2c4:	eef0 1a6d 	vmov.f32	s3, s27
 2c8:	eef0 2a6a 	vmov.f32	s5, s21
 2cc:	f7ff fffe 	bl	0 <druid::BoxConstraints::new>
_ZN5druid22WidgetPod$LT$T$C$W$GT$6layout17h6a3b3fed5c19e5ebE():
C:\druid-embedded\druid\src/lib.rs:565
        self.inner.layout(layout_ctx, bc, data, &env)
 2d0:	9909      	ldr	r1, [sp, #36]	; 0x24
 2d2:	f1a8 0010 	sub.w	r0, r8, #16
 2d6:	4622      	mov	r2, r4
 2d8:	f7ff fffe 	bl	0 <<druid::widget::flex::Flex<T> as druid::Widget<T>>::layout>
_ZN77_$LT$druid..widget..flex..Flex$LT$T$GT$$u20$as$u20$druid..Widget$LT$T$GT$$GT$6layout17hbbca014b1d75272aE():
C:\druid-embedded\druid\src\widget/flex.rs:218
                minor = minor.max(self.direction.minor(child_size));
 2dc:	980a      	ldr	r0, [sp, #40]	; 0x28
_ZN5druid22WidgetPod$LT$T$C$W$GT$6layout17h6a3b3fed5c19e5ebE():
C:\druid-embedded\druid\src/lib.rs:565
 2de:	eeb0 aa40 	vmov.f32	s20, s0
 2e2:	eeb0 ba41 	vmov.f32	s22, s2
 2e6:	eef0 aa60 	vmov.f32	s21, s1
 2ea:	eef0 ba61 	vmov.f32	s23, s3
_ZN77_$LT$druid..widget..flex..Flex$LT$T$GT$$u20$as$u20$druid..Widget$LT$T$GT$$GT$6layout17hbbca014b1d75272aE():
C:\druid-embedded\druid\src\widget/flex.rs:218
 2ee:	f7ff fffe 	bl	0 <druid::widget::flex::Axis::minor>
 2f2:	eeb0 ca40 	vmov.f32	s24, s0
 2f6:	ac1c      	add	r4, sp, #112	; 0x70
C:\druid-embedded\druid\src\widget/flex.rs:220
                let rect = Rect::from_origin_size(Point::ORIGIN, child_size);
 2f8:	eeb0 1a49 	vmov.f32	s2, s18
 2fc:	eeb0 2a4a 	vmov.f32	s4, s20
 300:	4620      	mov	r0, r4
 302:	eeb0 3a4b 	vmov.f32	s6, s22
 306:	eeb0 0a49 	vmov.f32	s0, s18
C:\druid-embedded\druid\src\widget/flex.rs:218
                minor = minor.max(self.direction.minor(child_size));
 30a:	eef0 ca60 	vmov.f32	s25, s1
C:\druid-embedded\druid\src\widget/flex.rs:220
                let rect = Rect::from_origin_size(Point::ORIGIN, child_size);
 30e:	eef0 0a69 	vmov.f32	s1, s19
 312:	eef0 1a69 	vmov.f32	s3, s19
 316:	eef0 2a6a 	vmov.f32	s5, s21
 31a:	eef0 3a6b 	vmov.f32	s7, s23
 31e:	f7ff fffe 	bl	0 <<druid::widget::flex::Flex<T> as druid::Widget<T>>::layout>
_ZN5druid22WidgetPod$LT$T$C$W$GT$15set_layout_rect17h04aa8a7d10b06596E():
C:\druid-embedded\druid\src/lib.rs:476
        self.state.layout_rect = layout_rect;
 322:	f1a8 0040 	sub.w	r0, r8, #64	; 0x40
 326:	4621      	mov	r1, r4
 328:	2220      	movs	r2, #32
 32a:	f7ff fffe 	bl	0 <__aeabi_memmove8>
_ZN4core3f6421_$LT$impl$u20$f64$GT$3max17h59360c18f4d72aa4E():
/rustc/412f43ac5b4ae8c3599e71c6972112e9be4758fa/src/libcore/num/f64.rs:391
 32e:	eeb0 0a48 	vmov.f32	s0, s16
 332:	eeb0 1a4c 	vmov.f32	s2, s24
 336:	eef0 0a68 	vmov.f32	s1, s17
 33a:	eef0 1a6c 	vmov.f32	s3, s25
 33e:	f7ff fffe 	bl	0 <fmax>
 342:	eeb0 8a40 	vmov.f32	s16, s0
 346:	eef0 8a60 	vmov.f32	s17, s1
 34a:	e75a      	b.n	202 <<druid::widget::flex::Flex<T> as druid::Widget<T>>::layout+0x202>
_ZN77_$LT$druid..widget..flex..Flex$LT$T$GT$$u20$as$u20$druid..Widget$LT$T$GT$$GT$6layout17hbbca014b1d75272aE():
C:\druid-embedded\druid\src\widget/flex.rs:227
        for child in &mut self.children {
 34c:	4630      	mov	r0, r6
 34e:	f7ff fffe 	bl	0 <<druid::widget::flex::Flex<T> as druid::Widget<T>>::layout>
 352:	eeb0 aa49 	vmov.f32	s20, s18
 356:	9f0a      	ldr	r7, [sp, #40]	; 0x28
 358:	eef0 aa69 	vmov.f32	s21, s19
 35c:	ae0c      	add	r6, sp, #48	; 0x30
 35e:	f10d 0870 	add.w	r8, sp, #112	; 0x70
 362:	f10d 0950 	add.w	r9, sp, #80	; 0x50
 366:	4604      	mov	r4, r0
 368:	460d      	mov	r5, r1
_ZN88_$LT$core..slice..IterMut$LT$T$GT$$u20$as$u20$core..iter..traits..iterator..Iterator$GT$4next17hf890bba7acef45c7E():
/rustc/412f43ac5b4ae8c3599e71c6972112e9be4758fa/src/libcore/slice/mod.rs:3221
 36a:	42a5      	cmp	r5, r4
 36c:	bf18      	it	ne
 36e:	2c00      	cmpne	r4, #0
 370:	d052      	beq.n	418 <<druid::widget::flex::Flex<T> as druid::Widget<T>>::layout+0x418>
_ZN5druid22WidgetPod$LT$T$C$W$GT$15get_layout_rect17h49d8e3e38286913fE():
C:\druid-embedded\druid\src/lib.rs:483
        self.state.layout_rect
 372:	4630      	mov	r0, r6
 374:	4621      	mov	r1, r4
 376:	2220      	movs	r2, #32
 378:	f7ff fffe 	bl	0 <__aeabi_memcpy>
_ZN77_$LT$druid..widget..flex..Flex$LT$T$GT$$u20$as$u20$druid..Widget$LT$T$GT$$GT$6layout17hbbca014b1d75272aE():
C:\druid-embedded\druid\src\widget/flex.rs:230
            let pos: Point = self.direction.pack(major, 0.0).into();
 37c:	eeb0 0a4a 	vmov.f32	s0, s20
 380:	4638      	mov	r0, r7
 382:	eeb0 1a49 	vmov.f32	s2, s18
 386:	eef0 0a6a 	vmov.f32	s1, s21
 38a:	eef0 1a69 	vmov.f32	s3, s19
 38e:	f7ff fffe 	bl	0 <druid::widget::flex::Axis::pack>
 392:	eeb0 ba40 	vmov.f32	s22, s0
C:\druid-embedded\druid\src\widget/flex.rs:231
            child.widget.set_layout_rect(rect.with_origin(pos));
 396:	4640      	mov	r0, r8
C:\druid-embedded\druid\src\widget/flex.rs:230
            let pos: Point = self.direction.pack(major, 0.0).into();
 398:	eeb0 ca41 	vmov.f32	s24, s2
C:\druid-embedded\druid\src\widget/flex.rs:231
            child.widget.set_layout_rect(rect.with_origin(pos));
 39c:	4631      	mov	r1, r6
 39e:	2220      	movs	r2, #32
C:\druid-embedded\druid\src\widget/flex.rs:230
            let pos: Point = self.direction.pack(major, 0.0).into();
 3a0:	eef0 ba60 	vmov.f32	s23, s1
 3a4:	eef0 ca61 	vmov.f32	s25, s3
C:\druid-embedded\druid\src\widget/flex.rs:231
            child.widget.set_layout_rect(rect.with_origin(pos));
 3a8:	f7ff fffe 	bl	0 <__aeabi_memcpy>
_ZN5kurbo4rect4Rect11with_origin17h3b78f3c0c614cbcaE():
C:\kurbo-embedded\src/rect.rs:60
        Rect::from_origin_size(origin, self.size())
 3ac:	4640      	mov	r0, r8
 3ae:	f7ff fffe 	bl	0 <<druid::widget::flex::Flex<T> as druid::Widget<T>>::layout>
 3b2:	eeb0 2a40 	vmov.f32	s4, s0
 3b6:	4648      	mov	r0, r9
 3b8:	eeb0 3a41 	vmov.f32	s6, s2
 3bc:	eeb0 0a4b 	vmov.f32	s0, s22
 3c0:	eeb0 1a4c 	vmov.f32	s2, s24
 3c4:	eef0 2a60 	vmov.f32	s5, s1
 3c8:	eef0 3a61 	vmov.f32	s7, s3
 3cc:	eef0 0a6b 	vmov.f32	s1, s23
 3d0:	eef0 1a6c 	vmov.f32	s3, s25
 3d4:	f7ff fffe 	bl	0 <<druid::widget::flex::Flex<T> as druid::Widget<T>>::layout>
_ZN5druid22WidgetPod$LT$T$C$W$GT$15set_layout_rect17h04aa8a7d10b06596E():
C:\druid-embedded\druid\src/lib.rs:476
        self.state.layout_rect = layout_rect;
 3d8:	4620      	mov	r0, r4
 3da:	4649      	mov	r1, r9
 3dc:	2220      	movs	r2, #32
 3de:	f7ff fffe 	bl	0 <__aeabi_memcpy>
_ZN77_$LT$druid..widget..flex..Flex$LT$T$GT$$u20$as$u20$druid..Widget$LT$T$GT$$GT$6layout17hbbca014b1d75272aE():
C:\druid-embedded\druid\src\widget/flex.rs:232
            major += self.direction.major(rect.size());
 3e2:	4630      	mov	r0, r6
 3e4:	f7ff fffe 	bl	0 <<druid::widget::flex::Flex<T> as druid::Widget<T>>::layout>
 3e8:	4638      	mov	r0, r7
 3ea:	f7ff fffe 	bl	0 <druid::widget::flex::Axis::major>
 3ee:	ec53 2b10 	vmov	r2, r3, d0
 3f2:	ec51 0b1a 	vmov	r0, r1, d10
 3f6:	f7ff fffe 	bl	0 <__aeabi_dadd>
 3fa:	ec41 0b1a 	vmov	d10, r0, r1
_ZN4core3ptr31_$LT$impl$u20$$BP$mut$u20$T$GT$6offset17hb3688ff3fa7236a1E():
/rustc/412f43ac5b4ae8c3599e71c6972112e9be4758fa/src/libcore/ptr/mod.rs:1864
 3fe:	3440      	adds	r4, #64	; 0x40
 400:	e7b3      	b.n	36a <<druid::widget::flex::Flex<T> as druid::Widget<T>>::layout+0x36a>
_ZN77_$LT$druid..widget..flex..Flex$LT$T$GT$$u20$as$u20$druid..Widget$LT$T$GT$$GT$6layout17hbbca014b1d75272aE():
 402:	bf00      	nop
 404:	bf00      	nop
 406:	bf00      	nop
	...
 414:	7ff00000 	.word	0x7ff00000
 418:	ed9f 0b0f 	vldr	d0, [pc, #60]	; 458 <<druid::widget::flex::Flex<T> as druid::Widget<T>>::layout+0x458>
C:\druid-embedded\druid\src\widget/flex.rs:235
        if flex_sum > 0.0 && total_major.is_infinite() {
 41c:	e9dd 0107 	ldrd	r0, r1, [sp, #28]
 420:	ec53 2b10 	vmov	r2, r3, d0
 424:	f7ff fffe 	bl	0 <__aeabi_dcmpgt>
C:\druid-embedded\druid\src\widget/flex.rs:244
        let (width, height) = self.direction.pack(major, minor);
 428:	eeb0 1a48 	vmov.f32	s2, s16
C:\druid-embedded\druid\src\widget/flex.rs:235
        if flex_sum > 0.0 && total_major.is_infinite() {
 42c:	2800      	cmp	r0, #0
C:\druid-embedded\druid\src\widget/flex.rs:244
        let (width, height) = self.direction.pack(major, minor);
 42e:	eef0 1a68 	vmov.f32	s3, s17
C:\druid-embedded\druid\src\widget/flex.rs:235
        if flex_sum > 0.0 && total_major.is_infinite() {
 432:	9805      	ldr	r0, [sp, #20]
 434:	ec51 2b1a 	vmov	r2, r1, d10
 438:	bf18      	it	ne
 43a:	4601      	movne	r1, r0
 43c:	9806      	ldr	r0, [sp, #24]
 43e:	bf18      	it	ne
 440:	4602      	movne	r2, r0
 442:	ec41 2b10 	vmov	d0, r2, r1
C:\druid-embedded\druid\src\widget/flex.rs:244
        let (width, height) = self.direction.pack(major, minor);
 446:	4638      	mov	r0, r7
 448:	f7ff fffe 	bl	0 <druid::widget::flex::Axis::pack>
C:\druid-embedded\druid\src\widget/flex.rs:246
    }
 44c:	b024      	add	sp, #144	; 0x90
 44e:	ecbd 8b10 	vpop	{d8-d15}
 452:	b001      	add	sp, #4
 454:	e8bd 8ff0 	ldmia.w	sp!, {r4, r5, r6, r7, r8, r9, sl, fp, pc}
	...

Disassembly of section .text._ZN78_$LT$druid..widget..flex..ChildWidget$LT$T$GT$$u20$as$u20$core..fmt..Debug$GT$3fmt17h1d700328e80ae2edE:

00000000 <<druid::widget::flex::ChildWidget<T> as core::fmt::Debug>::fmt>:
_ZN78_$LT$druid..widget..flex..ChildWidget$LT$T$GT$$u20$as$u20$core..fmt..Debug$GT$3fmt17h1d700328e80ae2edE():
C:\druid-embedded\druid\src\widget/flex.rs:286
/// Implement formatted output for ChildWidget
impl<T: Data> core::fmt::Debug for ChildWidget<T> { ////
    fn fmt(&self, _fmt: &mut ::core::fmt::Formatter<'_>) -> ::core::fmt::Result {
        //  TODO
        Ok(())
    }
   0:	2000      	movs	r0, #0
   2:	4770      	bx	lr

Disassembly of section .text._ZN78_$LT$heapless..vec..IntoIter$LT$T$C$N$GT$$u20$as$u20$core..ops..drop..Drop$GT$4drop17h43ac5427cb77f636E:

00000000 <<heapless::vec::IntoIter<T,N> as core::ops::drop::Drop>::drop>:
_ZN8heapless3vec82_$LT$impl$u20$heapless..i..Vec$LT$generic_array..GenericArray$LT$T$C$N$GT$$GT$$GT$12as_mut_slice17he418a0cb67ddf181E():
C:\Users\guppy\.cargo\registry\src\github.com-1ecc6299db9ec823\heapless-0.5.1\src/vec.rs:29
        unsafe { slice::from_raw_parts_mut(self.buffer.as_mut_ptr() as *mut T, self.len) }
   0:	6c01      	ldr	r1, [r0, #64]	; 0x40
_ZN78_$LT$heapless..vec..IntoIter$LT$T$C$N$GT$$u20$as$u20$core..ops..drop..Drop$GT$4drop17h43ac5427cb77f636E():
C:\Users\guppy\.cargo\registry\src\github.com-1ecc6299db9ec823\heapless-0.5.1\src/vec.rs:516
            ptr::drop_in_place(&mut self.vec[self.next..]);
   2:	6c82      	ldr	r2, [r0, #72]	; 0x48
_ZN99_$LT$core..ops..range..Range$LT$usize$GT$$u20$as$u20$core..slice..SliceIndex$LT$$u5b$T$u5d$$GT$$GT$9index_mut17h8488087f45de3072E():
/rustc/412f43ac5b4ae8c3599e71c6972112e9be4758fa/src/libcore/slice/mod.rs:2857
   4:	428a      	cmp	r2, r1
   6:	bf9e      	ittt	ls
   8:	2100      	movls	r1, #0
_ZN78_$LT$heapless..vec..IntoIter$LT$T$C$N$GT$$u20$as$u20$core..ops..drop..Drop$GT$4drop17h43ac5427cb77f636E():
C:\Users\guppy\.cargo\registry\src\github.com-1ecc6299db9ec823\heapless-0.5.1\src/vec.rs:518
            self.vec.0.len = 0;
   a:	6401      	strls	r1, [r0, #64]	; 0x40
C:\Users\guppy\.cargo\registry\src\github.com-1ecc6299db9ec823\heapless-0.5.1\src/vec.rs:520
    }
   c:	4770      	bxls	lr
_ZN99_$LT$core..ops..range..Range$LT$usize$GT$$u20$as$u20$core..slice..SliceIndex$LT$$u5b$T$u5d$$GT$$GT$9index_mut17h8488087f45de3072E():
/rustc/412f43ac5b4ae8c3599e71c6972112e9be4758fa/src/libcore/slice/mod.rs:2858
   e:	4610      	mov	r0, r2
  10:	f7ff fffe 	bl	0 <core::slice::slice_index_order_fail>
  14:	defe      	udf	#254	; 0xfe

Disassembly of section .text._ZN78_$LT$heapless..vec..Vec$LT$T$C$N$GT$$u20$as$u20$core..ops..deref..DerefMut$GT$9deref_mut17h34dd722b021d70a8E:

00000000 <<heapless::vec::Vec<T,N> as core::ops::deref::DerefMut>::deref_mut>:
_ZN8heapless3vec82_$LT$impl$u20$heapless..i..Vec$LT$generic_array..GenericArray$LT$T$C$N$GT$$GT$$GT$12as_mut_slice17he418a0cb67ddf181E():
C:\Users\guppy\.cargo\registry\src\github.com-1ecc6299db9ec823\heapless-0.5.1\src/vec.rs:29
        unsafe { slice::from_raw_parts_mut(self.buffer.as_mut_ptr() as *mut T, self.len) }
   0:	6c01      	ldr	r1, [r0, #64]	; 0x40
_ZN78_$LT$heapless..vec..Vec$LT$T$C$N$GT$$u20$as$u20$core..ops..deref..DerefMut$GT$9deref_mut17h34dd722b021d70a8E():
C:\Users\guppy\.cargo\registry\src\github.com-1ecc6299db9ec823\heapless-0.5.1\src/vec.rs:602
where
    N: ArrayLength<T>,
{
    fn deref_mut(&mut self) -> &mut [T] {
        self.0.as_mut_slice()
    }
   2:	4770      	bx	lr

Disassembly of section .text._ZN79_$LT$druid..widget..label..Label$LT$T$GT$$u20$as$u20$druid..Widget$LT$T$GT$$GT$5paint17h28f1149fd6235dbcE:

00000000 <<druid::widget::label::Label<T> as druid::Widget<T>>::paint>:
_ZN79_$LT$druid..widget..label..Label$LT$T$GT$$u20$as$u20$druid..Widget$LT$T$GT$$GT$5paint17h28f1149fd6235dbcE():
C:\druid-embedded\druid\src\widget/label.rs:96
    fn paint(&mut self, paint_ctx: &mut PaintCtx, base_state: &BaseState, _data: &T, env: &Env) {
   0:	e92d 4ff8 	stmdb	sp!, {r3, r4, r5, r6, r7, r8, r9, sl, fp, lr}
   4:	ed2d 1b12 	vpush	{d1-d9}
   8:	4682      	mov	sl, r0
C:\druid-embedded\druid\src\widget/label.rs:99
        let text_layout = self.get_layout(paint_ctx.render_ctx.text(), env); ////
   a:	6a08      	ldr	r0, [r1, #32]
   c:	4693      	mov	fp, r2
   e:	4689      	mov	r9, r1
  10:	f7ff fffe 	bl	0 <<piet_embedded_graphics::context::EmbedRenderContext as piet::render_context::RenderContext>::text>
  14:	466c      	mov	r4, sp
  16:	4602      	mov	r2, r0
  18:	4620      	mov	r0, r4
  1a:	4651      	mov	r1, sl
  1c:	f7ff fffe 	bl	0 <<druid::widget::label::Label<T> as druid::Widget<T>>::paint>
C:\druid-embedded\druid\src\widget/label.rs:106
                (base_state.size().width - text_layout.width()).max(0.0),
  20:	f8df 80d4 	ldr.w	r8, [pc, #212]	; f8 <<druid::widget::label::Label<T> as druid::Widget<T>>::paint+0xf8>
  24:	4658      	mov	r0, fp
  26:	47c0      	blx	r8
  28:	eeb0 8a40 	vmov.f32	s16, s0
  2c:	4620      	mov	r0, r4
  2e:	eef0 8a60 	vmov.f32	s17, s1
  32:	f7ff fffe 	bl	0 <<piet_embedded_graphics::text::EmbedTextLayout as piet::text::TextLayout>::width>
  36:	ec51 0b18 	vmov	r0, r1, d8
  3a:	ec53 2b10 	vmov	r2, r3, d0
  3e:	f7ff fffe 	bl	0 <__aeabi_dsub>
  42:	4605      	mov	r5, r0
C:\druid-embedded\druid\src\widget/label.rs:107
                base_state.size().height + (font_size * 1.2) / 2.,
  44:	4658      	mov	r0, fp
C:\druid-embedded\druid\src\widget/label.rs:106
                (base_state.size().width - text_layout.width()).max(0.0),
  46:	460c      	mov	r4, r1
C:\druid-embedded\druid\src\widget/label.rs:107
                base_state.size().height + (font_size * 1.2) / 2.,
  48:	47c0      	blx	r8
  4a:	ed9f 0b27 	vldr	d0, [pc, #156]	; e8 <<druid::widget::label::Label<T> as druid::Widget<T>>::paint+0xe8>
  4e:	ec51 0b11 	vmov	r0, r1, d1
  52:	ec53 2b10 	vmov	r2, r3, d0
  56:	f7ff fffe 	bl	0 <__aeabi_dadd>
  5a:	ed9f 8b25 	vldr	d8, [pc, #148]	; f0 <<druid::widget::label::Label<T> as druid::Widget<T>>::paint+0xf0>
C:\druid-embedded\druid\src\widget/label.rs:106
                (base_state.size().width - text_layout.width()).max(0.0),
  5e:	ec44 5b10 	vmov	d0, r5, r4
C:\druid-embedded\druid\src\widget/label.rs:107
                base_state.size().height + (font_size * 1.2) / 2.,
  62:	4607      	mov	r7, r0
  64:	460e      	mov	r6, r1
_ZN4core3f6421_$LT$impl$u20$f64$GT$3max17h59360c18f4d72aa4E():
/rustc/412f43ac5b4ae8c3599e71c6972112e9be4758fa/src/libcore/num/f64.rs:391
  66:	eeb0 1a48 	vmov.f32	s2, s16
  6a:	eef0 1a68 	vmov.f32	s3, s17
  6e:	f7ff fffe 	bl	0 <fmax>
  72:	eeb0 2a40 	vmov.f32	s4, s0
  76:	ac06      	add	r4, sp, #24
_ZN79_$LT$druid..widget..label..Label$LT$T$GT$$u20$as$u20$druid..Widget$LT$T$GT$$GT$5paint17h28f1149fd6235dbcE():
C:\druid-embedded\druid\src\widget/label.rs:103
        let mut origin = self.align.resolve(Rect::from_origin_size(
  78:	eeb0 1a48 	vmov.f32	s2, s16
  7c:	eeb0 0a48 	vmov.f32	s0, s16
  80:	4620      	mov	r0, r4
_ZN4core3f6421_$LT$impl$u20$f64$GT$3max17h59360c18f4d72aa4E():
/rustc/412f43ac5b4ae8c3599e71c6972112e9be4758fa/src/libcore/num/f64.rs:391
  82:	eef0 2a60 	vmov.f32	s5, s1
_ZN79_$LT$druid..widget..label..Label$LT$T$GT$$u20$as$u20$druid..Widget$LT$T$GT$$GT$5paint17h28f1149fd6235dbcE():
C:\druid-embedded\druid\src\widget/label.rs:103
  86:	eef0 0a68 	vmov.f32	s1, s17
  8a:	eef0 1a68 	vmov.f32	s3, s17
C:\druid-embedded\druid\src\widget/label.rs:107
                base_state.size().height + (font_size * 1.2) / 2.,
  8e:	ec46 7b13 	vmov	d3, r7, r6
C:\druid-embedded\druid\src\widget/label.rs:103
        let mut origin = self.align.resolve(Rect::from_origin_size(
  92:	f7ff fffe 	bl	0 <<druid::widget::label::Label<T> as druid::Widget<T>>::paint>
  96:	4650      	mov	r0, sl
  98:	4621      	mov	r1, r4
  9a:	f7ff fffe 	bl	0 <piet::gradient::UnitPoint::resolve>
  9e:	eeb0 8a40 	vmov.f32	s16, s0
C:\druid-embedded\druid\src\widget/label.rs:112
        origin.y = origin.y.min(base_state.size().height);
  a2:	4658      	mov	r0, fp
C:\druid-embedded\druid\src\widget/label.rs:103
        let mut origin = self.align.resolve(Rect::from_origin_size(
  a4:	eeb0 9a41 	vmov.f32	s18, s2
  a8:	eef0 8a60 	vmov.f32	s17, s1
  ac:	eef0 9a61 	vmov.f32	s19, s3
C:\druid-embedded\druid\src\widget/label.rs:112
        origin.y = origin.y.min(base_state.size().height);
  b0:	47c0      	blx	r8
_ZN4core3f6421_$LT$impl$u20$f64$GT$3min17h41c142ec947da4e4E():
/rustc/412f43ac5b4ae8c3599e71c6972112e9be4758fa/src/libcore/num/f64.rs:407
  b2:	eeb0 0a49 	vmov.f32	s0, s18
  b6:	eef0 0a69 	vmov.f32	s1, s19
  ba:	f7ff fffe 	bl	0 <fmin>
  be:	eeb0 1a40 	vmov.f32	s2, s0
_ZN79_$LT$druid..widget..label..Label$LT$T$GT$$u20$as$u20$druid..Widget$LT$T$GT$$GT$5paint17h28f1149fd6235dbcE():
C:\druid-embedded\druid\src\widget/label.rs:114
        paint_ctx.render_ctx.draw_text(&text_layout, origin, &crate::env::LABEL_COLOR); ////
  c2:	f8d9 0020 	ldr.w	r0, [r9, #32]
  c6:	eeb0 0a48 	vmov.f32	s0, s16
  ca:	4a0c      	ldr	r2, [pc, #48]	; (fc <<druid::widget::label::Label<T> as druid::Widget<T>>::paint+0xfc>)
_ZN4core3f6421_$LT$impl$u20$f64$GT$3min17h41c142ec947da4e4E():
/rustc/412f43ac5b4ae8c3599e71c6972112e9be4758fa/src/libcore/num/f64.rs:407
  cc:	eef0 1a60 	vmov.f32	s3, s1
_ZN79_$LT$druid..widget..label..Label$LT$T$GT$$u20$as$u20$druid..Widget$LT$T$GT$$GT$5paint17h28f1149fd6235dbcE():
C:\druid-embedded\druid\src\widget/label.rs:114
  d0:	4669      	mov	r1, sp
  d2:	eef0 0a68 	vmov.f32	s1, s17
  d6:	f7ff fffe 	bl	0 <<druid::widget::label::Label<T> as druid::Widget<T>>::paint>
C:\druid-embedded\druid\src\widget/label.rs:116
    }
  da:	ecbd 1b12 	vpop	{d1-d9}
  de:	b001      	add	sp, #4
  e0:	e8bd 8ff0 	ldmia.w	sp!, {r4, r5, r6, r7, r8, r9, sl, fp, pc}
  e4:	bf00      	nop
  e6:	bf00      	nop
  e8:	33333333 	.word	0x33333333
  ec:	40233333 	.word	0x40233333
	...

Disassembly of section .text._ZN79_$LT$druid..widget..label..Label$LT$T$GT$$u20$as$u20$druid..Widget$LT$T$GT$$GT$6get_id17hddd8588b8fab593bE:

00000000 <<druid::widget::label::Label<T> as druid::Widget<T>>::get_id>:
_ZN79_$LT$druid..widget..label..Label$LT$T$GT$$u20$as$u20$druid..Widget$LT$T$GT$$GT$6get_id17hddd8588b8fab593bE():
C:\druid-embedded\druid\src\widget/label.rs:152
    fn get_id(self) -> u32 { ////
   0:	b510      	push	{r4, lr}
C:\druid-embedded\druid\src\widget/label.rs:153
        self.id
   2:	6904      	ldr	r4, [r0, #16]
C:\druid-embedded\druid\src\widget/label.rs:154
    }
   4:	f7ff fffe 	bl	0 <<druid::widget::label::Label<T> as druid::Widget<T>>::get_id>
   8:	4620      	mov	r0, r4
   a:	bd10      	pop	{r4, pc}

Disassembly of section .text._ZN79_$LT$druid..widget..label..Label$LT$T$GT$$u20$as$u20$druid..Widget$LT$T$GT$$GT$6layout17h6668ee6bf2b888b3E:

00000000 <<druid::widget::label::Label<T> as druid::Widget<T>>::layout>:
_ZN79_$LT$druid..widget..label..Label$LT$T$GT$$u20$as$u20$druid..Widget$LT$T$GT$$GT$6layout17h6668ee6bf2b888b3E():
C:\druid-embedded\druid\src\widget/label.rs:118
    fn layout(
   0:	b570      	push	{r4, r5, r6, lr}
   2:	b086      	sub	sp, #24
   4:	460d      	mov	r5, r1
C:\druid-embedded\druid\src\widget/label.rs:125
        bc.debug_check("Label");
   6:	4910      	ldr	r1, [pc, #64]	; (48 <<druid::widget::label::Label<T> as druid::Widget<T>>::layout+0x48>)
   8:	4606      	mov	r6, r0
   a:	4614      	mov	r4, r2
   c:	4610      	mov	r0, r2
   e:	2205      	movs	r2, #5
  10:	f7ff fffe 	bl	0 <druid::BoxConstraints::debug_check>
C:\druid-embedded\druid\src\widget/label.rs:129
        let text_layout = self.get_layout(layout_ctx.text(), env);
  14:	4628      	mov	r0, r5
  16:	f7ff fffe 	bl	0 <druid::LayoutCtx::text>
  1a:	466d      	mov	r5, sp
  1c:	4602      	mov	r2, r0
  1e:	4628      	mov	r0, r5
  20:	4631      	mov	r1, r6
  22:	f7ff fffe 	bl	0 <<druid::widget::label::Label<T> as druid::Widget<T>>::layout>
C:\druid-embedded\druid\src\widget/label.rs:131
        bc.constrain((text_layout.width(), font_size * 1.2))
  26:	4628      	mov	r0, r5
  28:	f7ff fffe 	bl	0 <<piet_embedded_graphics::text::EmbedTextLayout as piet::text::TextLayout>::width>
  2c:	ed9f 1b04 	vldr	d1, [pc, #16]	; 40 <<druid::widget::label::Label<T> as druid::Widget<T>>::layout+0x40>
  30:	4620      	mov	r0, r4
  32:	f7ff fffe 	bl	0 <<druid::widget::label::Label<T> as druid::Widget<T>>::layout>
C:\druid-embedded\druid\src\widget/label.rs:132
    }
  36:	b006      	add	sp, #24
  38:	bd70      	pop	{r4, r5, r6, pc}
  3a:	bf00      	nop
  3c:	bf00      	nop
  3e:	bf00      	nop
  40:	33333333 	.word	0x33333333
  44:	40333333 	.word	0x40333333
  48:	00000000 	.word	0x00000000

Disassembly of section .text._ZN79_$LT$druid..widget..label..Label$LT$T$GT$$u20$as$u20$druid..Widget$LT$T$GT$$GT$7to_type17h47d644b7af5bccb3E:

00000000 <<druid::widget::label::Label<T> as druid::Widget<T>>::to_type>:
_ZN79_$LT$druid..widget..label..Label$LT$T$GT$$u20$as$u20$druid..Widget$LT$T$GT$$GT$7to_type17h47d644b7af5bccb3E():
C:\druid-embedded\druid\src\widget/label.rs:144
    fn to_type(self) -> WidgetType<T> { ////
   0:	b510      	push	{r4, lr}
   2:	4604      	mov	r4, r0
C:\druid-embedded\druid\src\widget/label.rs:145
        WidgetType::Label(self)
   4:	3008      	adds	r0, #8
   6:	2278      	movs	r2, #120	; 0x78
   8:	f7ff fffe 	bl	0 <__aeabi_memcpy8>
   c:	2000      	movs	r0, #0
   e:	2102      	movs	r1, #2
  10:	e9c4 1000 	strd	r1, r0, [r4]
C:\druid-embedded\druid\src\widget/label.rs:146
    }
  14:	bd10      	pop	{r4, pc}

Disassembly of section .text._ZN79_$LT$druid..win_handler..Windows$LT$T$GT$$u20$as$u20$core..default..Default$GT$7default17h0aa0e645e40f75fdE:

00000000 <<druid::win_handler::Windows<T> as core::default::Default>::default>:
_ZN79_$LT$druid..win_handler..Windows$LT$T$GT$$u20$as$u20$core..default..Default$GT$7default17h0aa0e645e40f75fdE():
C:\druid-embedded\druid\src/win_handler.rs:857
    fn default() -> Self {
   0:	b510      	push	{r4, lr}
C:\druid-embedded\druid\src/win_handler.rs:859
            windows: None, ////
   2:	f44f 710e 	mov.w	r1, #568	; 0x238
   6:	4604      	mov	r4, r0
   8:	f7ff fffe 	bl	0 <__aeabi_memclr8>
   c:	2003      	movs	r0, #3
C:\druid-embedded\druid\src/win_handler.rs:858
        Windows {
   e:	2120      	movs	r1, #32
  10:	f8c4 0238 	str.w	r0, [r4, #568]	; 0x238
  14:	f504 700f 	add.w	r0, r4, #572	; 0x23c
  18:	f7ff fffe 	bl	0 <__aeabi_memclr4>
C:\druid-embedded\druid\src/win_handler.rs:864
            ////windows: HashMap::new(),
            state: None, ////
            ////state: HashMap::new(),
        }
    }
  1c:	bd10      	pop	{r4, pc}

Disassembly of section .text._ZN79_$LT$piet..color..Color$u20$as$u20$piet..render_context..IntoBrush$LT$P$GT$$GT$10make_brush17h0798e6d81abd5c56E:

00000000 <<piet::color::Color as piet::render_context::IntoBrush<P>>::make_brush>:
_ZN79_$LT$piet..color..Color$u20$as$u20$piet..render_context..IntoBrush$LT$P$GT$$GT$10make_brush17h0798e6d81abd5c56E():
C:\piet-embedded\piet\src/render_context.rs:207
    fn make_brush<'a>(&'a self, piet: &mut P, _bbox: impl FnOnce() -> Rect) -> P::Brush { ////
   0:	460a      	mov	r2, r1
C:\piet-embedded\piet\src/render_context.rs:209
        piet.solid_brush(*self) ////
   2:	6801      	ldr	r1, [r0, #0]
   4:	4610      	mov	r0, r2
   6:	f7ff bffe 	b.w	0 <<piet_embedded_graphics::context::EmbedRenderContext as piet::render_context::RenderContext>::solid_brush>

Disassembly of section .text._ZN79_$LT$piet..color..Color$u20$as$u20$piet..render_context..IntoBrush$LT$P$GT$$GT$10make_brush17h52bbfb3e034ce340E:

00000000 <<piet::color::Color as piet::render_context::IntoBrush<P>>::make_brush>:
_ZN79_$LT$piet..color..Color$u20$as$u20$piet..render_context..IntoBrush$LT$P$GT$$GT$10make_brush17h52bbfb3e034ce340E():
C:\piet-embedded\piet\src/render_context.rs:207
    fn make_brush<'a>(&'a self, piet: &mut P, _bbox: impl FnOnce() -> Rect) -> P::Brush { ////
   0:	460a      	mov	r2, r1
C:\piet-embedded\piet\src/render_context.rs:209
        piet.solid_brush(*self) ////
   2:	6801      	ldr	r1, [r0, #0]
   4:	4610      	mov	r0, r2
   6:	f7ff bffe 	b.w	0 <<piet_embedded_graphics::context::EmbedRenderContext as piet::render_context::RenderContext>::solid_brush>

Disassembly of section .text._ZN79_$LT$piet..color..Color$u20$as$u20$piet..render_context..IntoBrush$LT$P$GT$$GT$10make_brush17h8ad706cafce2b625E:

00000000 <<piet::color::Color as piet::render_context::IntoBrush<P>>::make_brush>:
_ZN79_$LT$piet..color..Color$u20$as$u20$piet..render_context..IntoBrush$LT$P$GT$$GT$10make_brush17h8ad706cafce2b625E():
C:\piet-embedded\piet\src/render_context.rs:207
    fn make_brush<'a>(&'a self, piet: &mut P, _bbox: impl FnOnce() -> Rect) -> P::Brush { ////
   0:	460a      	mov	r2, r1
C:\piet-embedded\piet\src/render_context.rs:209
        piet.solid_brush(*self) ////
   2:	6801      	ldr	r1, [r0, #0]
   4:	4610      	mov	r0, r2
   6:	f7ff bffe 	b.w	0 <<piet_embedded_graphics::context::EmbedRenderContext as piet::render_context::RenderContext>::solid_brush>

Disassembly of section .text._ZN81_$LT$druid..widget..button..Button$LT$T$GT$$u20$as$u20$druid..Widget$LT$T$GT$$GT$5paint17he676e4a4ca621cf1E:

00000000 <<druid::widget::button::Button<T> as druid::Widget<T>>::paint>:
_ZN81_$LT$druid..widget..button..Button$LT$T$GT$$u20$as$u20$druid..Widget$LT$T$GT$$GT$5paint17he676e4a4ca621cf1E():
C:\druid-embedded\druid\src\widget/button.rs:92
}


impl<T: Data + 'static> Widget<T> for Button<T> { ////
////impl<T: Data> Widget<T> for Button<T> {
    fn paint(&mut self, paint_ctx: &mut PaintCtx, base_state: &BaseState, data: &T, env: &Env) {
   0:	e92d 4ff8 	stmdb	sp!, {r3, r4, r5, r6, r7, r8, r9, sl, fp, lr}
   4:	ed2d 1b1a 	vpush	{d1-d13}
   8:	4680      	mov	r8, r0
C:\druid-embedded\druid\src\widget/button.rs:93
        let is_active = base_state.is_active();
   a:	4610      	mov	r0, r2
   c:	4693      	mov	fp, r2
   e:	468a      	mov	sl, r1
  10:	f7ff fffe 	bl	0 <druid::BaseState::is_active>
C:\druid-embedded\druid\src\widget/button.rs:94
        let is_hot = base_state.is_hot();
  14:	4658      	mov	r0, fp
  16:	f7ff fffe 	bl	0 <druid::BaseState::is_hot>
C:\druid-embedded\druid\src\widget/button.rs:97

        let rounded_rect =
            RoundedRect::from_origin_size(Point::ORIGIN, base_state.size().to_vec2(), 4.);
  1a:	4658      	mov	r0, fp
  1c:	f7ff fffe 	bl	0 <druid::BaseState::size>
  20:	ed9f cb5d 	vldr	d12, [pc, #372]	; 198 <<druid::widget::button::Button<T> as druid::Widget<T>>::paint+0x198>
  24:	eeb0 2a40 	vmov.f32	s4, s0
  28:	eeb0 3a41 	vmov.f32	s6, s2
_ZN5kurbo12rounded_rect11RoundedRect16from_origin_size17hdf97845348023b31E():
C:\kurbo-embedded\src/rounded_rect.rs:62
    /// A new rectangle from origin and size.
    ///
    /// The result will have non-negative width, height and radius.
    #[inline]
    pub fn from_origin_size(origin: Point, size: Vec2, radius: f64) -> RoundedRect {
        RoundedRect::from_points(origin, origin + size, radius)
  2c:	eeb0 0a4c 	vmov.f32	s0, s24
  30:	eeb0 1a4c 	vmov.f32	s2, s24
_ZN81_$LT$druid..widget..button..Button$LT$T$GT$$u20$as$u20$druid..Widget$LT$T$GT$$GT$5paint17he676e4a4ca621cf1E():
C:\druid-embedded\druid\src\widget/button.rs:97
  34:	eef0 2a60 	vmov.f32	s5, s1
  38:	eef0 3a61 	vmov.f32	s7, s3
_ZN5kurbo12rounded_rect11RoundedRect16from_origin_size17hdf97845348023b31E():
C:\kurbo-embedded\src/rounded_rect.rs:62
  3c:	eef0 0a6c 	vmov.f32	s1, s25
  40:	eef0 1a6c 	vmov.f32	s3, s25
  44:	f7ff fffe 	bl	0 <<druid::widget::button::Button<T> as druid::Widget<T>>::paint>
  48:	eeb0 da40 	vmov.f32	s26, s0
  4c:	eef0 da60 	vmov.f32	s27, s1
  50:	ed9f 0b53 	vldr	d0, [pc, #332]	; 1a0 <<druid::widget::button::Button<T> as druid::Widget<T>>::paint+0x1a0>
  54:	eeb0 aa41 	vmov.f32	s20, s2
  58:	eef0 aa61 	vmov.f32	s21, s3
_ZN5kurbo12rounded_rect11RoundedRect9from_rect17h9a39921a3aa96d98E():
C:\kurbo-embedded\src/rounded_rect.rs:36
            libm::fabs(radius)
  5c:	f7ff fffe 	bl	0 <libm::math::fabs::fabs>
  60:	eeb0 ba40 	vmov.f32	s22, s0
  64:	20ff      	movs	r0, #255	; 0xff
_ZN4core3f6421_$LT$impl$u20$f64$GT$3max17h59360c18f4d72aa4E():
/rustc/412f43ac5b4ae8c3599e71c6972112e9be4758fa/src/libcore/num/f64.rs:391
  66:	eeb0 1a4c 	vmov.f32	s2, s24
_ZN81_$LT$druid..widget..button..Button$LT$T$GT$$u20$as$u20$druid..Widget$LT$T$GT$$GT$5paint17he676e4a4ca621cf1E():
C:\druid-embedded\druid\src\widget/button.rs:98
        let bg_color = crate::env::BUTTON_DARK; ////
  6a:	9002      	str	r0, [sp, #8]
_ZN4core3f6421_$LT$impl$u20$f64$GT$3max17h59360c18f4d72aa4E():
/rustc/412f43ac5b4ae8c3599e71c6972112e9be4758fa/src/libcore/num/f64.rs:391
  6c:	eeb0 0a4a 	vmov.f32	s0, s20
  70:	f04f 30ff 	mov.w	r0, #4294967295
_ZN5kurbo12rounded_rect11RoundedRect9from_rect17h9a39921a3aa96d98E():
C:\kurbo-embedded\src/rounded_rect.rs:36
  74:	eef0 ba60 	vmov.f32	s23, s1
_ZN81_$LT$druid..widget..button..Button$LT$T$GT$$u20$as$u20$druid..Widget$LT$T$GT$$GT$5paint17he676e4a4ca621cf1E():
C:\druid-embedded\druid\src\widget/button.rs:115
                    (env.get(theme::BUTTON_DARK), env.get(theme::BUTTON_LIGHT)),
                )
            };
        */ ////

        let border_color = crate::env::BORDER; ////
  78:	9003      	str	r0, [sp, #12]
_ZN4core3f6421_$LT$impl$u20$f64$GT$3max17h59360c18f4d72aa4E():
/rustc/412f43ac5b4ae8c3599e71c6972112e9be4758fa/src/libcore/num/f64.rs:391
  7a:	eef0 0a6a 	vmov.f32	s1, s21
  7e:	eef0 1a6c 	vmov.f32	s3, s25
  82:	f7ff fffe 	bl	0 <fmax>
  86:	eeb0 8a40 	vmov.f32	s16, s0
_ZN81_$LT$druid..widget..button..Button$LT$T$GT$$u20$as$u20$druid..Widget$LT$T$GT$$GT$5paint17he676e4a4ca621cf1E():
C:\druid-embedded\druid\src\widget/button.rs:124
            } else {
                env.get(theme::BORDER)
            };
        */ ////

        paint_ctx.render_ctx.stroke(rounded_rect, &border_color, 2.0); ////
  8a:	f8da 9020 	ldr.w	r9, [sl, #32]
  8e:	ed8d 0b0a 	vstr	d0, [sp, #40]	; 0x28
_ZN4core3f6421_$LT$impl$u20$f64$GT$3max17h59360c18f4d72aa4E():
/rustc/412f43ac5b4ae8c3599e71c6972112e9be4758fa/src/libcore/num/f64.rs:391
  92:	eeb0 1a4c 	vmov.f32	s2, s24
  96:	eeb0 0a4d 	vmov.f32	s0, s26
  9a:	eef0 8a60 	vmov.f32	s17, s1
  9e:	eef0 0a6d 	vmov.f32	s1, s27
  a2:	eef0 1a6c 	vmov.f32	s3, s25
  a6:	f7ff fffe 	bl	0 <fmax>
  aa:	eeb0 9a40 	vmov.f32	s18, s0
_ZN81_$LT$druid..widget..button..Button$LT$T$GT$$u20$as$u20$druid..Widget$LT$T$GT$$GT$5paint17he676e4a4ca621cf1E():
C:\druid-embedded\druid\src\widget/button.rs:124
  ae:	ed8d 0b08 	vstr	d0, [sp, #32]
_ZN4core3f6421_$LT$impl$u20$f64$GT$3min17h41c142ec947da4e4E():
/rustc/412f43ac5b4ae8c3599e71c6972112e9be4758fa/src/libcore/num/f64.rs:407
  b2:	eeb0 1a4c 	vmov.f32	s2, s24
  b6:	eeb0 0a4a 	vmov.f32	s0, s20
_ZN4core3f6421_$LT$impl$u20$f64$GT$3max17h59360c18f4d72aa4E():
/rustc/412f43ac5b4ae8c3599e71c6972112e9be4758fa/src/libcore/num/f64.rs:391
  ba:	eef0 9a60 	vmov.f32	s19, s1
_ZN4core3f6421_$LT$impl$u20$f64$GT$3min17h41c142ec947da4e4E():
/rustc/412f43ac5b4ae8c3599e71c6972112e9be4758fa/src/libcore/num/f64.rs:407
  be:	eef0 0a6a 	vmov.f32	s1, s21
  c2:	eef0 1a6c 	vmov.f32	s3, s25
  c6:	f7ff fffe 	bl	0 <fmin>
  ca:	eeb0 aa40 	vmov.f32	s20, s0
_ZN81_$LT$druid..widget..button..Button$LT$T$GT$$u20$as$u20$druid..Widget$LT$T$GT$$GT$5paint17he676e4a4ca621cf1E():
C:\druid-embedded\druid\src\widget/button.rs:124
  ce:	ed8d 0b06 	vstr	d0, [sp, #24]
_ZN4core3f6421_$LT$impl$u20$f64$GT$3min17h41c142ec947da4e4E():
/rustc/412f43ac5b4ae8c3599e71c6972112e9be4758fa/src/libcore/num/f64.rs:407
  d2:	eeb0 1a4c 	vmov.f32	s2, s24
  d6:	eeb0 0a4d 	vmov.f32	s0, s26
  da:	eef0 aa60 	vmov.f32	s21, s1
  de:	eef0 0a6d 	vmov.f32	s1, s27
  e2:	eef0 1a6c 	vmov.f32	s3, s25
  e6:	f7ff fffe 	bl	0 <fmin>
_ZN5kurbo4rect4Rect5width17hf30f34ce82591df7E():
C:\kurbo-embedded\src/rect.rs:94
        self.x1 - self.x0
  ea:	ec51 0b19 	vmov	r0, r1, d9
_ZN81_$LT$druid..widget..button..Button$LT$T$GT$$u20$as$u20$druid..Widget$LT$T$GT$$GT$5paint17he676e4a4ca621cf1E():
C:\druid-embedded\druid\src\widget/button.rs:124
  ee:	ed8d 0b04 	vstr	d0, [sp, #16]
_ZN5kurbo4rect4Rect5width17hf30f34ce82591df7E():
C:\kurbo-embedded\src/rect.rs:94
  f2:	ec53 2b10 	vmov	r2, r3, d0
_ZN4core3f6421_$LT$impl$u20$f64$GT$3min17h41c142ec947da4e4E():
/rustc/412f43ac5b4ae8c3599e71c6972112e9be4758fa/src/libcore/num/f64.rs:407
  f6:	eeb0 ca40 	vmov.f32	s24, s0
  fa:	eef0 ca60 	vmov.f32	s25, s1
_ZN5kurbo4rect4Rect5width17hf30f34ce82591df7E():
C:\kurbo-embedded\src/rect.rs:94
  fe:	f7ff fffe 	bl	0 <__aeabi_dsub>
 102:	ed9f 0b29 	vldr	d0, [pc, #164]	; 1a8 <<druid::widget::button::Button<T> as druid::Widget<T>>::paint+0x1a8>
_ZN5kurbo12rounded_rect11RoundedRect9from_rect17h9a39921a3aa96d98E():
C:\kurbo-embedded\src/rounded_rect.rs:37
            .min(rect.width() / 2.0)
 106:	ec57 6b10 	vmov	r6, r7, d0
 10a:	4632      	mov	r2, r6
 10c:	463b      	mov	r3, r7
 10e:	f7ff fffe 	bl	0 <__aeabi_dmul>
 112:	4605      	mov	r5, r0
 114:	460c      	mov	r4, r1
_ZN5kurbo4rect4Rect6height17h0d3b3e567dbe6d86E():
C:\kurbo-embedded\src/rect.rs:102
        self.y1 - self.y0
 116:	ec51 0b18 	vmov	r0, r1, d8
 11a:	ec53 2b1a 	vmov	r2, r3, d10
 11e:	f7ff fffe 	bl	0 <__aeabi_dsub>
_ZN5kurbo12rounded_rect11RoundedRect9from_rect17h9a39921a3aa96d98E():
C:\kurbo-embedded\src/rounded_rect.rs:38
            .min(rect.height() / 2.0); ////
 122:	4632      	mov	r2, r6
 124:	463b      	mov	r3, r7
 126:	f7ff fffe 	bl	0 <__aeabi_dmul>
_ZN4core3f6421_$LT$impl$u20$f64$GT$3min17h41c142ec947da4e4E():
/rustc/412f43ac5b4ae8c3599e71c6972112e9be4758fa/src/libcore/num/f64.rs:407
 12a:	eeb0 0a4b 	vmov.f32	s0, s22
_ZN5kurbo12rounded_rect11RoundedRect9from_rect17h9a39921a3aa96d98E():
C:\kurbo-embedded\src/rounded_rect.rs:38
 12e:	4606      	mov	r6, r0
_ZN4core3f6421_$LT$impl$u20$f64$GT$3min17h41c142ec947da4e4E():
/rustc/412f43ac5b4ae8c3599e71c6972112e9be4758fa/src/libcore/num/f64.rs:407
 130:	eef0 0a6b 	vmov.f32	s1, s23
_ZN5kurbo12rounded_rect11RoundedRect9from_rect17h9a39921a3aa96d98E():
C:\kurbo-embedded\src/rounded_rect.rs:38
 134:	460f      	mov	r7, r1
C:\kurbo-embedded\src/rounded_rect.rs:37
            .min(rect.width() / 2.0)
 136:	ec44 5b11 	vmov	d1, r5, r4
_ZN4core3f6421_$LT$impl$u20$f64$GT$3min17h41c142ec947da4e4E():
/rustc/412f43ac5b4ae8c3599e71c6972112e9be4758fa/src/libcore/num/f64.rs:407
 13a:	f7ff fffe 	bl	0 <fmin>
_ZN5kurbo12rounded_rect11RoundedRect9from_rect17h9a39921a3aa96d98E():
C:\kurbo-embedded\src/rounded_rect.rs:38
            .min(rect.height() / 2.0); ////
 13e:	ec47 6b11 	vmov	d1, r6, r7
_ZN4core3f6421_$LT$impl$u20$f64$GT$3min17h41c142ec947da4e4E():
/rustc/412f43ac5b4ae8c3599e71c6972112e9be4758fa/src/libcore/num/f64.rs:407
 142:	f7ff fffe 	bl	0 <fmin>
 146:	eeb0 ba40 	vmov.f32	s22, s0
_ZN81_$LT$druid..widget..button..Button$LT$T$GT$$u20$as$u20$druid..Widget$LT$T$GT$$GT$5paint17he676e4a4ca621cf1E():
C:\druid-embedded\druid\src\widget/button.rs:124
 14a:	ed8d 0b0c 	vstr	d0, [sp, #48]	; 0x30
_ZN4core3f6421_$LT$impl$u20$f64$GT$3min17h41c142ec947da4e4E():
/rustc/412f43ac5b4ae8c3599e71c6972112e9be4758fa/src/libcore/num/f64.rs:407
 14e:	eef0 ba60 	vmov.f32	s23, s1
 152:	a904      	add	r1, sp, #16
 154:	aa03      	add	r2, sp, #12
 156:	ed9f 0b16 	vldr	d0, [pc, #88]	; 1b0 <<druid::widget::button::Button<T> as druid::Widget<T>>::paint+0x1b0>
_ZN81_$LT$druid..widget..button..Button$LT$T$GT$$u20$as$u20$druid..Widget$LT$T$GT$$GT$5paint17he676e4a4ca621cf1E():
C:\druid-embedded\druid\src\widget/button.rs:124
 15a:	4648      	mov	r0, r9
 15c:	f7ff fffe 	bl	0 <<druid::widget::button::Button<T> as druid::Widget<T>>::paint>
C:\druid-embedded\druid\src\widget/button.rs:127
        ////paint_ctx.stroke(rounded_rect, &border_color, 2.0);

        paint_ctx.render_ctx.fill(rounded_rect, &bg_color); ////
 160:	f8da 0020 	ldr.w	r0, [sl, #32]
 164:	a904      	add	r1, sp, #16
 166:	aa02      	add	r2, sp, #8
 168:	ed8d bb0c 	vstr	d11, [sp, #48]	; 0x30
 16c:	ed8d 8b0a 	vstr	d8, [sp, #40]	; 0x28
 170:	ed8d 9b08 	vstr	d9, [sp, #32]
 174:	ed8d ab06 	vstr	d10, [sp, #24]
 178:	ed8d cb04 	vstr	d12, [sp, #16]
 17c:	f7ff fffe 	bl	0 <<druid::widget::button::Button<T> as druid::Widget<T>>::paint>
C:\druid-embedded\druid\src\widget/button.rs:131
        ////paint_ctx.render_ctx.fill(rounded_rect, &bg_gradient); ////
        ////paint_ctx.fill(rounded_rect, &bg_gradient);

        self.label.paint(paint_ctx, base_state, data, env);
 180:	4640      	mov	r0, r8
 182:	4651      	mov	r1, sl
 184:	465a      	mov	r2, fp
 186:	f7ff fffe 	bl	0 <<druid::widget::button::Button<T> as druid::Widget<T>>::paint>
C:\druid-embedded\druid\src\widget/button.rs:132
    }
 18a:	ecbd 1b1a 	vpop	{d1-d13}
 18e:	b001      	add	sp, #4
 190:	e8bd 8ff0 	ldmia.w	sp!, {r4, r5, r6, r7, r8, r9, sl, fp, pc}
 194:	bf00      	nop
 196:	bf00      	nop
	...
 1a4:	40100000 	.word	0x40100000
 1a8:	00000000 	.word	0x00000000
 1ac:	3fe00000 	.word	0x3fe00000
 1b0:	00000000 	.word	0x00000000
 1b4:	40000000 	.word	0x40000000

Disassembly of section .text._ZN81_$LT$druid..widget..button..Button$LT$T$GT$$u20$as$u20$druid..Widget$LT$T$GT$$GT$6layout17h23fa154eef003d31E:

00000000 <<druid::widget::button::Button<T> as druid::Widget<T>>::layout>:
_ZN81_$LT$druid..widget..button..Button$LT$T$GT$$u20$as$u20$druid..Widget$LT$T$GT$$GT$6layout17h23fa154eef003d31E():
C:\druid-embedded\druid\src\widget/button.rs:134

    fn layout(
   0:	b57c      	push	{r2, r3, r4, r5, r6, lr}
   2:	460d      	mov	r5, r1
C:\druid-embedded\druid\src\widget/button.rs:141
        layout_ctx: &mut LayoutCtx,
        bc: &BoxConstraints,
        data: &T,
        env: &Env,
    ) -> Size {
        bc.debug_check("Button");
   4:	4906      	ldr	r1, [pc, #24]	; (20 <<druid::widget::button::Button<T> as druid::Widget<T>>::layout+0x20>)
   6:	4606      	mov	r6, r0
   8:	4614      	mov	r4, r2
   a:	4610      	mov	r0, r2
   c:	2206      	movs	r2, #6
   e:	f7ff fffe 	bl	0 <druid::BoxConstraints::debug_check>
C:\druid-embedded\druid\src\widget/button.rs:143

        self.label.layout(layout_ctx, bc, data, env)
  12:	4630      	mov	r0, r6
  14:	4629      	mov	r1, r5
  16:	4622      	mov	r2, r4
  18:	f7ff fffe 	bl	0 <<druid::widget::button::Button<T> as druid::Widget<T>>::layout>
C:\druid-embedded\druid\src\widget/button.rs:144
    }
  1c:	b002      	add	sp, #8
  1e:	bd70      	pop	{r4, r5, r6, pc}
  20:	00000000 	.word	0x00000000

Disassembly of section .text._ZN84_$LT$heapless..string..String$LT$N$GT$$u20$as$u20$core..convert..From$LT$u32$GT$$GT$4from17h705661ace971056dE:

00000000 <<heapless::string::String<N> as core::convert::From<u32>>::from>:
_ZN84_$LT$heapless..string..String$LT$N$GT$$u20$as$u20$core..convert..From$LT$u32$GT$$GT$4from17h705661ace971056dE():
C:\Users\guppy\.cargo\registry\src\github.com-1ecc6299db9ec823\heapless-0.5.1\src/string.rs:545
    ($num:ty, $size:ty) => {
        impl<N> From<$num> for String<N>
        where
            N: ArrayLength<u8> + IsGreaterOrEqual<$size, Output = True>,
        {
            fn from(s: $num) -> Self {
   0:	b5f0      	push	{r4, r5, r6, r7, lr}
   2:	b08f      	sub	sp, #60	; 0x3c
   4:	ad01      	add	r5, sp, #4
   6:	4604      	mov	r4, r0
   8:	9100      	str	r1, [sp, #0]
_ZN8heapless6string15String$LT$N$GT$3new17he7236616755dbabdE():
C:\Users\guppy\.cargo\registry\src\github.com-1ecc6299db9ec823\heapless-0.5.1\src/string.rs:54
        String(crate::i::String::new())
   a:	4628      	mov	r0, r5
   c:	f7ff fffe 	bl	0 <heapless::string::<impl heapless::i::String<A>>::new>
_ZN84_$LT$heapless..string..String$LT$N$GT$$u20$as$u20$core..convert..From$LT$u32$GT$$GT$4from17h705661ace971056dE():
<::core::macros::/write macros>:2
  10:	4910      	ldr	r1, [pc, #64]	; (54 <<heapless::string::String<N> as core::convert::From<u32>>::from+0x54>)
  12:	4668      	mov	r0, sp
  14:	f7ff fffe 	bl	0 <core::fmt::ArgumentV1::new>
  18:	e9cd 010d 	strd	r0, r1, [sp, #52]	; 0x34
  1c:	2001      	movs	r0, #1
  1e:	a90d      	add	r1, sp, #52	; 0x34
_ZN4core3fmt9Arguments6new_v117hfb10dfe2e46e80c7E():
/rustc/412f43ac5b4ae8c3599e71c6972112e9be4758fa/src/libcore/fmt/mod.rs:318
  20:	900c      	str	r0, [sp, #48]	; 0x30
  22:	910b      	str	r1, [sp, #44]	; 0x2c
  24:	2100      	movs	r1, #0
  26:	910a      	str	r1, [sp, #40]	; 0x28
  28:	e9cd 0108 	strd	r0, r1, [sp, #32]
  2c:	a907      	add	r1, sp, #28
  2e:	480a      	ldr	r0, [pc, #40]	; (58 <<heapless::string::String<N> as core::convert::From<u32>>::from+0x58>)
  30:	9007      	str	r0, [sp, #28]
_ZN84_$LT$heapless..string..String$LT$N$GT$$u20$as$u20$core..convert..From$LT$u32$GT$$GT$4from17h705661ace971056dE():
<::core::macros::/write macros>:2
  32:	4628      	mov	r0, r5
  34:	f7ff fffe 	bl	0 <<heapless::string::String<N> as core::convert::From<u32>>::from>
_ZN4core6result19Result$LT$T$C$E$GT$6unwrap17h94648cf43788e84cE():
/rustc/412f43ac5b4ae8c3599e71c6972112e9be4758fa/src/libcore/result.rs:956
  38:	b920      	cbnz	r0, 44 <<heapless::string::String<N> as core::convert::From<u32>>::from+0x44>
_ZN84_$LT$heapless..string..String$LT$N$GT$$u20$as$u20$core..convert..From$LT$u32$GT$$GT$4from17h705661ace971056dE():
C:\Users\guppy\.cargo\registry\src\github.com-1ecc6299db9ec823\heapless-0.5.1\src/string.rs:548
                let mut new = String::new();
                write!(&mut new, "{}", s).unwrap();
                new
  3a:	e895 00cf 	ldmia.w	r5, {r0, r1, r2, r3, r6, r7}
  3e:	c4cf      	stmia	r4!, {r0, r1, r2, r3, r6, r7}
C:\Users\guppy\.cargo\registry\src\github.com-1ecc6299db9ec823\heapless-0.5.1\src/string.rs:549
            }
  40:	b00f      	add	sp, #60	; 0x3c
  42:	bdf0      	pop	{r4, r5, r6, r7, pc}
_ZN4core6result19Result$LT$T$C$E$GT$6unwrap17h94648cf43788e84cE():
/rustc/412f43ac5b4ae8c3599e71c6972112e9be4758fa/src/libcore/result.rs:957
  44:	4805      	ldr	r0, [pc, #20]	; (5c <<heapless::string::String<N> as core::convert::From<u32>>::from+0x5c>)
  46:	aa07      	add	r2, sp, #28
  48:	4b05      	ldr	r3, [pc, #20]	; (60 <<heapless::string::String<N> as core::convert::From<u32>>::from+0x60>)
  4a:	212b      	movs	r1, #43	; 0x2b
  4c:	f7ff fffe 	bl	0 <core::result::unwrap_failed>
  50:	defe      	udf	#254	; 0xfe
_ZN84_$LT$heapless..string..String$LT$N$GT$$u20$as$u20$core..convert..From$LT$u32$GT$$GT$4from17h705661ace971056dE():
/rustc/412f43ac5b4ae8c3599e71c6972112e9be4758fa/src/libcore/result.rs:957
  52:	bf00      	nop
	...

Disassembly of section .text._ZN86_$LT$kurbo..point..Point$u20$as$u20$core..ops..arith..Add$LT$kurbo..vec2..Vec2$GT$$GT$3add17ha4fffca49caa2c0aE:

00000000 <<kurbo::point::Point as core::ops::arith::Add<kurbo::vec2::Vec2>>::add>:
_ZN86_$LT$kurbo..point..Point$u20$as$u20$core..ops..arith..Add$LT$kurbo..vec2..Vec2$GT$$GT$3add17ha4fffca49caa2c0aE():
C:\kurbo-embedded\src/point.rs:82

impl Add<Vec2> for Point {
    type Output = Point;

    #[inline]
    fn add(self, other: Vec2) -> Self {
   0:	b580      	push	{r7, lr}
   2:	ed2d 8b06 	vpush	{d8-d10}
C:\kurbo-embedded\src/point.rs:83
        Point::new(self.x + other.x, self.y + other.y)
   6:	ec51 0b10 	vmov	r0, r1, d0
   a:	ec53 2b12 	vmov	r2, r3, d2
   e:	eeb0 8a43 	vmov.f32	s16, s6
  12:	eeb0 9a41 	vmov.f32	s18, s2
  16:	eef0 8a63 	vmov.f32	s17, s7
  1a:	eef0 9a61 	vmov.f32	s19, s3
  1e:	f7ff fffe 	bl	0 <__aeabi_dadd>
  22:	ec41 0b1a 	vmov	d10, r0, r1
  26:	ec51 0b19 	vmov	r0, r1, d9
  2a:	ec53 2b18 	vmov	r2, r3, d8
  2e:	f7ff fffe 	bl	0 <__aeabi_dadd>
C:\kurbo-embedded\src/point.rs:84
    }
  32:	eeb0 0a4a 	vmov.f32	s0, s20
C:\kurbo-embedded\src/point.rs:83
        Point::new(self.x + other.x, self.y + other.y)
  36:	ec41 0b11 	vmov	d1, r0, r1
C:\kurbo-embedded\src/point.rs:84
    }
  3a:	eef0 0a6a 	vmov.f32	s1, s21
  3e:	ecbd 8b06 	vpop	{d8-d10}
  42:	bd80      	pop	{r7, pc}

Disassembly of section .text._ZN87_$LT$druid..widget..widgetbox..WidgetBox$LT$D$GT$$u20$as$u20$druid..Widget$LT$D$GT$$GT$5paint17h7c77e7539b625734E:

00000000 <<druid::widget::widgetbox::WidgetBox<D> as druid::Widget<D>>::paint>:
_ZN87_$LT$druid..widget..widgetbox..WidgetBox$LT$D$GT$$u20$as$u20$druid..Widget$LT$D$GT$$GT$5paint17h7c77e7539b625734E():
C:\druid-embedded\druid\src\widget/widgetbox.rs:79
}

/// Implementation of `Widget` trait for `WidgetBox`. We just forward to the inner `Widget`.
impl<D: Data + 'static> Widget<D> for WidgetBox<D> {
    fn paint(
   0:	b57c      	push	{r2, r3, r4, r5, r6, lr}
   2:	4614      	mov	r4, r2
   4:	460d      	mov	r5, r1
   6:	4606      	mov	r6, r0
C:\druid-embedded\druid\src\widget/widgetbox.rs:86
        paint_ctx: &mut PaintCtx, 
        base_state: &BaseState, 
        data: &D, 
        env: &Env
    ) {
        match &mut self.get_global_state()[self.0 as usize] {
   8:	f7ff fffe 	bl	0 <<druid::widget::widgetbox::WidgetBox<u32> as druid::widget::widgetbox::GlobalState<u32>>::get_global_state>
   c:	460a      	mov	r2, r1
   e:	6831      	ldr	r1, [r6, #0]
  10:	4291      	cmp	r1, r2
  12:	d212      	bcs.n	3a <<druid::widget::widgetbox::WidgetBox<D> as druid::Widget<D>>::paint+0x3a>
  14:	eb01 1101 	add.w	r1, r1, r1, lsl #4
C:\druid-embedded\druid\src\widget/widgetbox.rs:87
            WidgetType::Button(w) => w.paint(paint_ctx, base_state, data, env),
  18:	f850 2031 	ldr.w	r2, [r0, r1, lsl #3]
  1c:	b142      	cbz	r2, 30 <<druid::widget::widgetbox::WidgetBox<D> as druid::Widget<D>>::paint+0x30>
  1e:	eb00 00c1 	add.w	r0, r0, r1, lsl #3
  22:	4629      	mov	r1, r5
  24:	3008      	adds	r0, #8
  26:	2a01      	cmp	r2, #1
  28:	d003      	beq.n	32 <<druid::widget::widgetbox::WidgetBox<D> as druid::Widget<D>>::paint+0x32>
C:\druid-embedded\druid\src\widget/widgetbox.rs:89
            ////WidgetType::Flex(w)   => w.paint(paint_ctx, base_state, data, env),
            WidgetType::Label(w)  => w.paint(paint_ctx, base_state, data, env),
  2a:	4622      	mov	r2, r4
  2c:	f7ff fffe 	bl	0 <<druid::widget::widgetbox::WidgetBox<D> as druid::Widget<D>>::paint>
C:\druid-embedded\druid\src\widget/widgetbox.rs:92
            WidgetType::None => {}
        };
    }
  30:	bd7c      	pop	{r2, r3, r4, r5, r6, pc}
C:\druid-embedded\druid\src\widget/widgetbox.rs:87
            WidgetType::Button(w) => w.paint(paint_ctx, base_state, data, env),
  32:	4622      	mov	r2, r4
  34:	f7ff fffe 	bl	0 <<druid::widget::widgetbox::WidgetBox<D> as druid::Widget<D>>::paint>
C:\druid-embedded\druid\src\widget/widgetbox.rs:92
    }
  38:	bd7c      	pop	{r2, r3, r4, r5, r6, pc}
C:\druid-embedded\druid\src\widget/widgetbox.rs:86
        match &mut self.get_global_state()[self.0 as usize] {
  3a:	4802      	ldr	r0, [pc, #8]	; (44 <<druid::widget::widgetbox::WidgetBox<D> as druid::Widget<D>>::paint+0x44>)
  3c:	f7ff fffe 	bl	0 <core::panicking::panic_bounds_check>
  40:	defe      	udf	#254	; 0xfe
  42:	bf00      	nop
  44:	00000000 	.word	0x00000000

Disassembly of section .text._ZN87_$LT$druid..widget..widgetbox..WidgetBox$LT$D$GT$$u20$as$u20$druid..Widget$LT$D$GT$$GT$6layout17h75f4133fa8eda883E:

00000000 <<druid::widget::widgetbox::WidgetBox<D> as druid::Widget<D>>::layout>:
_ZN87_$LT$druid..widget..widgetbox..WidgetBox$LT$D$GT$$u20$as$u20$druid..Widget$LT$D$GT$$GT$6layout17h75f4133fa8eda883E():
C:\druid-embedded\druid\src\widget/widgetbox.rs:94

    fn layout(
   0:	b57c      	push	{r2, r3, r4, r5, r6, lr}
   2:	4614      	mov	r4, r2
   4:	460d      	mov	r5, r1
   6:	4606      	mov	r6, r0
C:\druid-embedded\druid\src\widget/widgetbox.rs:101
        layout_ctx: &mut LayoutCtx,
        bc: &BoxConstraints,
        data: &D,
        env: &Env,
    ) -> Size {
        match &mut self.get_global_state()[self.0 as usize] {
   8:	f7ff fffe 	bl	0 <<druid::widget::widgetbox::WidgetBox<u32> as druid::widget::widgetbox::GlobalState<u32>>::get_global_state>
   c:	460a      	mov	r2, r1
   e:	6831      	ldr	r1, [r6, #0]
  10:	4291      	cmp	r1, r2
  12:	d21a      	bcs.n	4a <<druid::widget::widgetbox::WidgetBox<D> as druid::Widget<D>>::layout+0x4a>
  14:	eb01 1101 	add.w	r1, r1, r1, lsl #4
C:\druid-embedded\druid\src\widget/widgetbox.rs:102
            WidgetType::Button(w) => w.layout(layout_ctx, bc, data, env),
  18:	f850 2031 	ldr.w	r2, [r0, r1, lsl #3]
  1c:	b16a      	cbz	r2, 3a <<druid::widget::widgetbox::WidgetBox<D> as druid::Widget<D>>::layout+0x3a>
C:\druid-embedded\druid\src\widget/widgetbox.rs:104
            ////WidgetType::Flex(w)   => w.layout(layout_ctx, bc, data, env),
            WidgetType::Label(w)  => w.layout(layout_ctx, bc, data, env),
  1e:	eb00 00c1 	add.w	r0, r0, r1, lsl #3
  22:	4629      	mov	r1, r5
  24:	3008      	adds	r0, #8
C:\druid-embedded\druid\src\widget/widgetbox.rs:102
            WidgetType::Button(w) => w.layout(layout_ctx, bc, data, env),
  26:	2a01      	cmp	r2, #1
  28:	d003      	beq.n	32 <<druid::widget::widgetbox::WidgetBox<D> as druid::Widget<D>>::layout+0x32>
C:\druid-embedded\druid\src\widget/widgetbox.rs:104
            WidgetType::Label(w)  => w.layout(layout_ctx, bc, data, env),
  2a:	4622      	mov	r2, r4
  2c:	f7ff fffe 	bl	0 <<druid::widget::widgetbox::WidgetBox<D> as druid::Widget<D>>::layout>
  30:	e009      	b.n	46 <<druid::widget::widgetbox::WidgetBox<D> as druid::Widget<D>>::layout+0x46>
C:\druid-embedded\druid\src\widget/widgetbox.rs:102
            WidgetType::Button(w) => w.layout(layout_ctx, bc, data, env),
  32:	4622      	mov	r2, r4
  34:	f7ff fffe 	bl	0 <<druid::widget::widgetbox::WidgetBox<D> as druid::Widget<D>>::layout>
  38:	e005      	b.n	46 <<druid::widget::widgetbox::WidgetBox<D> as druid::Widget<D>>::layout+0x46>
  3a:	ed9f 0b07 	vldr	d0, [pc, #28]	; 58 <<druid::widget::widgetbox::WidgetBox<D> as druid::Widget<D>>::layout+0x58>
  3e:	eeb0 1a40 	vmov.f32	s2, s0
  42:	eef0 1a60 	vmov.f32	s3, s1
C:\druid-embedded\druid\src\widget/widgetbox.rs:107
            WidgetType::None => Size::ZERO,
        }
    }
  46:	b002      	add	sp, #8
  48:	bd70      	pop	{r4, r5, r6, pc}
C:\druid-embedded\druid\src\widget/widgetbox.rs:101
        match &mut self.get_global_state()[self.0 as usize] {
  4a:	4805      	ldr	r0, [pc, #20]	; (60 <<druid::widget::widgetbox::WidgetBox<D> as druid::Widget<D>>::layout+0x60>)
  4c:	f7ff fffe 	bl	0 <core::panicking::panic_bounds_check>
  50:	defe      	udf	#254	; 0xfe
  52:	bf00      	nop
  54:	bf00      	nop
  56:	bf00      	nop
	...

Disassembly of section .text._ZN8heapless3vec16Vec$LT$T$C$N$GT$3new17h70be266e91cab5a9E:

00000000 <heapless::vec::Vec<T,N>::new>:
_ZN8heapless3vec16Vec$LT$T$C$N$GT$3new17h70be266e91cab5a9E():
C:\Users\guppy\.cargo\registry\src\github.com-1ecc6299db9ec823\heapless-0.5.1\src/vec.rs:196
    pub fn new() -> Self {
   0:	2100      	movs	r1, #0
C:\Users\guppy\.cargo\registry\src\github.com-1ecc6299db9ec823\heapless-0.5.1\src/vec.rs:197
        Vec(crate::i::Vec::new())
   2:	6181      	str	r1, [r0, #24]
C:\Users\guppy\.cargo\registry\src\github.com-1ecc6299db9ec823\heapless-0.5.1\src/vec.rs:198
    }
   4:	4770      	bx	lr

Disassembly of section .text._ZN8heapless3vec16Vec$LT$T$C$N$GT$3new17h7e68e35b6e053c46E:

00000000 <heapless::vec::Vec<T,N>::new>:
_ZN8heapless3vec16Vec$LT$T$C$N$GT$3new17h7e68e35b6e053c46E():
C:\Users\guppy\.cargo\registry\src\github.com-1ecc6299db9ec823\heapless-0.5.1\src/vec.rs:196
    pub fn new() -> Self {
   0:	2100      	movs	r1, #0
C:\Users\guppy\.cargo\registry\src\github.com-1ecc6299db9ec823\heapless-0.5.1\src/vec.rs:197
        Vec(crate::i::Vec::new())
   2:	f8c0 1200 	str.w	r1, [r0, #512]	; 0x200
C:\Users\guppy\.cargo\registry\src\github.com-1ecc6299db9ec823\heapless-0.5.1\src/vec.rs:198
    }
   6:	4770      	bx	lr

Disassembly of section .text._ZN8heapless3vec16Vec$LT$T$C$N$GT$3new17h96547738abdb4f4fE:

00000000 <heapless::vec::Vec<T,N>::new>:
_ZN8heapless3vec16Vec$LT$T$C$N$GT$3new17h96547738abdb4f4fE():
C:\Users\guppy\.cargo\registry\src\github.com-1ecc6299db9ec823\heapless-0.5.1\src/vec.rs:196
    pub fn new() -> Self {
   0:	2100      	movs	r1, #0
C:\Users\guppy\.cargo\registry\src\github.com-1ecc6299db9ec823\heapless-0.5.1\src/vec.rs:197
        Vec(crate::i::Vec::new())
   2:	6401      	str	r1, [r0, #64]	; 0x40
C:\Users\guppy\.cargo\registry\src\github.com-1ecc6299db9ec823\heapless-0.5.1\src/vec.rs:198
    }
   4:	4770      	bx	lr

Disassembly of section .text._ZN8heapless3vec16Vec$LT$T$C$N$GT$4push17h073f1e9f956e4558E:

00000000 <heapless::vec::Vec<T,N>::push>:
_ZN8heapless3vec16Vec$LT$T$C$N$GT$4push17h073f1e9f956e4558E():
C:\Users\guppy\.cargo\registry\src\github.com-1ecc6299db9ec823\heapless-0.5.1\src/vec.rs:246
    pub fn push(&mut self, item: T) -> Result<(), T> {
   0:	b570      	push	{r4, r5, r6, lr}
   2:	b090      	sub	sp, #64	; 0x40
   4:	466e      	mov	r6, sp
   6:	460c      	mov	r4, r1
   8:	4605      	mov	r5, r0
C:\Users\guppy\.cargo\registry\src\github.com-1ecc6299db9ec823\heapless-0.5.1\src/vec.rs:247
        self.0.push(item)
   a:	4611      	mov	r1, r2
   c:	4630      	mov	r0, r6
   e:	2240      	movs	r2, #64	; 0x40
  10:	f7ff fffe 	bl	0 <__aeabi_memcpy>
  14:	4628      	mov	r0, r5
  16:	4621      	mov	r1, r4
  18:	4632      	mov	r2, r6
  1a:	f7ff fffe 	bl	0 <heapless::vec::Vec<T,N>::push>
C:\Users\guppy\.cargo\registry\src\github.com-1ecc6299db9ec823\heapless-0.5.1\src/vec.rs:248
    }
  1e:	b010      	add	sp, #64	; 0x40
  20:	bd70      	pop	{r4, r5, r6, pc}

Disassembly of section .text._ZN8heapless3vec16Vec$LT$T$C$N$GT$4push17h35fc21874e03b06aE:

00000000 <heapless::vec::Vec<T,N>::push>:
_ZN8heapless3vec16Vec$LT$T$C$N$GT$4push17h35fc21874e03b06aE():
C:\Users\guppy\.cargo\registry\src\github.com-1ecc6299db9ec823\heapless-0.5.1\src/vec.rs:246
    pub fn push(&mut self, item: T) -> Result<(), T> {
   0:	b570      	push	{r4, r5, r6, lr}
   2:	b088      	sub	sp, #32
   4:	466e      	mov	r6, sp
   6:	460c      	mov	r4, r1
   8:	4605      	mov	r5, r0
C:\Users\guppy\.cargo\registry\src\github.com-1ecc6299db9ec823\heapless-0.5.1\src/vec.rs:247
        self.0.push(item)
   a:	4611      	mov	r1, r2
   c:	4630      	mov	r0, r6
   e:	2220      	movs	r2, #32
  10:	f7ff fffe 	bl	0 <__aeabi_memcpy>
  14:	4628      	mov	r0, r5
  16:	4621      	mov	r1, r4
  18:	4632      	mov	r2, r6
  1a:	f7ff fffe 	bl	0 <heapless::vec::Vec<T,N>::push>
C:\Users\guppy\.cargo\registry\src\github.com-1ecc6299db9ec823\heapless-0.5.1\src/vec.rs:248
    }
  1e:	b008      	add	sp, #32
  20:	bd70      	pop	{r4, r5, r6, pc}

Disassembly of section .text._ZN8heapless3vec16Vec$LT$T$C$N$GT$4push17h44ad27314ae0760eE:

00000000 <heapless::vec::Vec<T,N>::push>:
_ZN8heapless3vec16Vec$LT$T$C$N$GT$4push17h44ad27314ae0760eE():
C:\Users\guppy\.cargo\registry\src\github.com-1ecc6299db9ec823\heapless-0.5.1\src/vec.rs:246
    pub fn push(&mut self, item: T) -> Result<(), T> {
   0:	b5fe      	push	{r1, r2, r3, r4, r5, r6, r7, lr}
C:\Users\guppy\.cargo\registry\src\github.com-1ecc6299db9ec823\heapless-0.5.1\src/vec.rs:247
        self.0.push(item)
   2:	e892 00e0 	ldmia.w	r2, {r5, r6, r7}
   6:	466b      	mov	r3, sp
   8:	461c      	mov	r4, r3
   a:	461a      	mov	r2, r3
   c:	c4e0      	stmia	r4!, {r5, r6, r7}
   e:	f7ff fffe 	bl	0 <heapless::vec::Vec<T,N>::push>
C:\Users\guppy\.cargo\registry\src\github.com-1ecc6299db9ec823\heapless-0.5.1\src/vec.rs:248
    }
  12:	bdfe      	pop	{r1, r2, r3, r4, r5, r6, r7, pc}

Disassembly of section .text._ZN8heapless3vec43_$LT$impl$u20$heapless..i..Vec$LT$A$GT$$GT$3new17h43117aa5b5eaefffE:

00000000 <heapless::vec::<impl heapless::i::Vec<A>>::new>:
_ZN8heapless3vec43_$LT$impl$u20$heapless..i..Vec$LT$A$GT$$GT$3new17h43117aa5b5eaefffE():
C:\Users\guppy\.cargo\registry\src\github.com-1ecc6299db9ec823\heapless-0.5.1\src/vec.rs:8
    pub const fn new() -> Self {
   0:	2100      	movs	r1, #0
C:\Users\guppy\.cargo\registry\src\github.com-1ecc6299db9ec823\heapless-0.5.1\src/vec.rs:9
        Self {
   2:	6181      	str	r1, [r0, #24]
C:\Users\guppy\.cargo\registry\src\github.com-1ecc6299db9ec823\heapless-0.5.1\src/vec.rs:13
    }
   4:	4770      	bx	lr

Disassembly of section .text._ZN8heapless3vec43_$LT$impl$u20$heapless..i..Vec$LT$A$GT$$GT$3new17h68307bf614855794E:

00000000 <heapless::vec::<impl heapless::i::Vec<A>>::new>:
_ZN8heapless3vec43_$LT$impl$u20$heapless..i..Vec$LT$A$GT$$GT$3new17h68307bf614855794E():
C:\Users\guppy\.cargo\registry\src\github.com-1ecc6299db9ec823\heapless-0.5.1\src/vec.rs:8
    pub const fn new() -> Self {
   0:	2100      	movs	r1, #0
C:\Users\guppy\.cargo\registry\src\github.com-1ecc6299db9ec823\heapless-0.5.1\src/vec.rs:9
        Self {
   2:	6401      	str	r1, [r0, #64]	; 0x40
C:\Users\guppy\.cargo\registry\src\github.com-1ecc6299db9ec823\heapless-0.5.1\src/vec.rs:13
    }
   4:	4770      	bx	lr

Disassembly of section .text._ZN8heapless3vec43_$LT$impl$u20$heapless..i..Vec$LT$A$GT$$GT$3new17hc0244dedd83cd7eaE:

00000000 <heapless::vec::<impl heapless::i::Vec<A>>::new>:
_ZN8heapless3vec43_$LT$impl$u20$heapless..i..Vec$LT$A$GT$$GT$3new17hc0244dedd83cd7eaE():
C:\Users\guppy\.cargo\registry\src\github.com-1ecc6299db9ec823\heapless-0.5.1\src/vec.rs:8
    pub const fn new() -> Self {
   0:	2100      	movs	r1, #0
C:\Users\guppy\.cargo\registry\src\github.com-1ecc6299db9ec823\heapless-0.5.1\src/vec.rs:9
        Self {
   2:	f8c0 1200 	str.w	r1, [r0, #512]	; 0x200
C:\Users\guppy\.cargo\registry\src\github.com-1ecc6299db9ec823\heapless-0.5.1\src/vec.rs:13
    }
   6:	4770      	bx	lr

Disassembly of section .text._ZN8heapless3vec82_$LT$impl$u20$heapless..i..Vec$LT$generic_array..GenericArray$LT$T$C$N$GT$$GT$$GT$12as_mut_slice17he418a0cb67ddf181E:

00000000 <heapless::vec::<impl heapless::i::Vec<generic_array::GenericArray<T,N>>>::as_mut_slice>:
_ZN8heapless3vec82_$LT$impl$u20$heapless..i..Vec$LT$generic_array..GenericArray$LT$T$C$N$GT$$GT$$GT$12as_mut_slice17he418a0cb67ddf181E():
C:\Users\guppy\.cargo\registry\src\github.com-1ecc6299db9ec823\heapless-0.5.1\src/vec.rs:29
        unsafe { slice::from_raw_parts_mut(self.buffer.as_mut_ptr() as *mut T, self.len) }
   0:	6c01      	ldr	r1, [r0, #64]	; 0x40
C:\Users\guppy\.cargo\registry\src\github.com-1ecc6299db9ec823\heapless-0.5.1\src/vec.rs:30
    }
   2:	4770      	bx	lr

Disassembly of section .text._ZN8heapless3vec82_$LT$impl$u20$heapless..i..Vec$LT$generic_array..GenericArray$LT$T$C$N$GT$$GT$$GT$14push_unchecked17h06d1b54dc6348413E:

00000000 <heapless::vec::<impl heapless::i::Vec<generic_array::GenericArray<T,N>>>::push_unchecked>:
_ZN8heapless3vec82_$LT$impl$u20$heapless..i..Vec$LT$generic_array..GenericArray$LT$T$C$N$GT$$GT$$GT$14push_unchecked17h06d1b54dc6348413E():
C:\Users\guppy\.cargo\registry\src\github.com-1ecc6299db9ec823\heapless-0.5.1\src/vec.rs:95
    pub(crate) unsafe fn push_unchecked(&mut self, item: T) {
   0:	b510      	push	{r4, lr}
   2:	4604      	mov	r4, r0
C:\Users\guppy\.cargo\registry\src\github.com-1ecc6299db9ec823\heapless-0.5.1\src/vec.rs:99
            .add(self.len)
   4:	f8d0 0200 	ldr.w	r0, [r0, #512]	; 0x200
_ZN4core3ptr5write17h8b972500ecaeba4dE():
/rustc/412f43ac5b4ae8c3599e71c6972112e9be4758fa/src/libcore/ptr/mod.rs:800
   8:	2240      	movs	r2, #64	; 0x40
_ZN4core3ptr31_$LT$impl$u20$$BP$mut$u20$T$GT$6offset17hb3688ff3fa7236a1E():
/rustc/412f43ac5b4ae8c3599e71c6972112e9be4758fa/src/libcore/ptr/mod.rs:1864
   a:	eb04 1080 	add.w	r0, r4, r0, lsl #6
_ZN4core3ptr5write17h8b972500ecaeba4dE():
/rustc/412f43ac5b4ae8c3599e71c6972112e9be4758fa/src/libcore/ptr/mod.rs:800
   e:	f7ff fffe 	bl	0 <__aeabi_memcpy>
_ZN8heapless3vec82_$LT$impl$u20$heapless..i..Vec$LT$generic_array..GenericArray$LT$T$C$N$GT$$GT$$GT$14push_unchecked17h06d1b54dc6348413E():
C:\Users\guppy\.cargo\registry\src\github.com-1ecc6299db9ec823\heapless-0.5.1\src/vec.rs:102
        self.len += 1;
  12:	f8d4 0200 	ldr.w	r0, [r4, #512]	; 0x200
  16:	3001      	adds	r0, #1
  18:	f8c4 0200 	str.w	r0, [r4, #512]	; 0x200
C:\Users\guppy\.cargo\registry\src\github.com-1ecc6299db9ec823\heapless-0.5.1\src/vec.rs:103
    }
  1c:	bd10      	pop	{r4, pc}

Disassembly of section .text._ZN8heapless3vec82_$LT$impl$u20$heapless..i..Vec$LT$generic_array..GenericArray$LT$T$C$N$GT$$GT$$GT$14push_unchecked17h8cdac320fab79a8aE:

00000000 <heapless::vec::<impl heapless::i::Vec<generic_array::GenericArray<T,N>>>::push_unchecked>:
_ZN8heapless3vec82_$LT$impl$u20$heapless..i..Vec$LT$generic_array..GenericArray$LT$T$C$N$GT$$GT$$GT$14push_unchecked17h8cdac320fab79a8aE():
C:\Users\guppy\.cargo\registry\src\github.com-1ecc6299db9ec823\heapless-0.5.1\src/vec.rs:95
    pub(crate) unsafe fn push_unchecked(&mut self, item: T) {
   0:	b510      	push	{r4, lr}
   2:	4604      	mov	r4, r0
C:\Users\guppy\.cargo\registry\src\github.com-1ecc6299db9ec823\heapless-0.5.1\src/vec.rs:99
            .add(self.len)
   4:	6c00      	ldr	r0, [r0, #64]	; 0x40
_ZN4core3ptr5write17h27e3e233ee0158e9E():
/rustc/412f43ac5b4ae8c3599e71c6972112e9be4758fa/src/libcore/ptr/mod.rs:800
   6:	2220      	movs	r2, #32
   8:	eb04 1040 	add.w	r0, r4, r0, lsl #5
   c:	f7ff fffe 	bl	0 <__aeabi_memcpy>
_ZN8heapless3vec82_$LT$impl$u20$heapless..i..Vec$LT$generic_array..GenericArray$LT$T$C$N$GT$$GT$$GT$14push_unchecked17h8cdac320fab79a8aE():
C:\Users\guppy\.cargo\registry\src\github.com-1ecc6299db9ec823\heapless-0.5.1\src/vec.rs:102
        self.len += 1;
  10:	6c20      	ldr	r0, [r4, #64]	; 0x40
  12:	3001      	adds	r0, #1
  14:	6420      	str	r0, [r4, #64]	; 0x40
C:\Users\guppy\.cargo\registry\src\github.com-1ecc6299db9ec823\heapless-0.5.1\src/vec.rs:103
    }
  16:	bd10      	pop	{r4, pc}

Disassembly of section .text._ZN8heapless3vec82_$LT$impl$u20$heapless..i..Vec$LT$generic_array..GenericArray$LT$T$C$N$GT$$GT$$GT$14push_unchecked17hc5a4f5cb90ccf251E:

00000000 <heapless::vec::<impl heapless::i::Vec<generic_array::GenericArray<T,N>>>::push_unchecked>:
_ZN8heapless3vec82_$LT$impl$u20$heapless..i..Vec$LT$generic_array..GenericArray$LT$T$C$N$GT$$GT$$GT$14push_unchecked17hc5a4f5cb90ccf251E():
C:\Users\guppy\.cargo\registry\src\github.com-1ecc6299db9ec823\heapless-0.5.1\src/vec.rs:95
    pub(crate) unsafe fn push_unchecked(&mut self, item: T) {
   0:	b5b0      	push	{r4, r5, r7, lr}
C:\Users\guppy\.cargo\registry\src\github.com-1ecc6299db9ec823\heapless-0.5.1\src/vec.rs:99
            .add(self.len)
   2:	6982      	ldr	r2, [r0, #24]
_ZN4core3ptr5write17hd00207468cb8cb00E():
/rustc/412f43ac5b4ae8c3599e71c6972112e9be4758fa/src/libcore/ptr/mod.rs:800
   4:	e891 0038 	ldmia.w	r1, {r3, r4, r5}
_ZN4core3ptr31_$LT$impl$u20$$BP$mut$u20$T$GT$6offset17h96990ffe76f9e492E():
/rustc/412f43ac5b4ae8c3599e71c6972112e9be4758fa/src/libcore/ptr/mod.rs:1864
   8:	eb02 0242 	add.w	r2, r2, r2, lsl #1
   c:	eb00 0282 	add.w	r2, r0, r2, lsl #2
_ZN4core3ptr5write17hd00207468cb8cb00E():
/rustc/412f43ac5b4ae8c3599e71c6972112e9be4758fa/src/libcore/ptr/mod.rs:800
  10:	c238      	stmia	r2!, {r3, r4, r5}
_ZN8heapless3vec82_$LT$impl$u20$heapless..i..Vec$LT$generic_array..GenericArray$LT$T$C$N$GT$$GT$$GT$14push_unchecked17hc5a4f5cb90ccf251E():
C:\Users\guppy\.cargo\registry\src\github.com-1ecc6299db9ec823\heapless-0.5.1\src/vec.rs:102
        self.len += 1;
  12:	6981      	ldr	r1, [r0, #24]
  14:	3101      	adds	r1, #1
  16:	6181      	str	r1, [r0, #24]
C:\Users\guppy\.cargo\registry\src\github.com-1ecc6299db9ec823\heapless-0.5.1\src/vec.rs:103
    }
  18:	bdb0      	pop	{r4, r5, r7, pc}

Disassembly of section .text._ZN8heapless3vec82_$LT$impl$u20$heapless..i..Vec$LT$generic_array..GenericArray$LT$T$C$N$GT$$GT$$GT$17extend_from_slice17hc77b7f8a25a25a66E:

00000000 <heapless::vec::<impl heapless::i::Vec<generic_array::GenericArray<T,N>>>::extend_from_slice>:
_ZN8heapless3vec82_$LT$impl$u20$heapless..i..Vec$LT$generic_array..GenericArray$LT$T$C$N$GT$$GT$$GT$17extend_from_slice17hc77b7f8a25a25a66E():
C:\Users\guppy\.cargo\registry\src\github.com-1ecc6299db9ec823\heapless-0.5.1\src/vec.rs:58
    pub(crate) fn extend_from_slice(&mut self, other: &[T]) -> Result<(), ()>
   0:	b570      	push	{r4, r5, r6, lr}
C:\Users\guppy\.cargo\registry\src\github.com-1ecc6299db9ec823\heapless-0.5.1\src/vec.rs:62
        if self.len + other.len() > self.capacity() {
   2:	6983      	ldr	r3, [r0, #24]
   4:	189c      	adds	r4, r3, r2
   6:	2c02      	cmp	r4, #2
   8:	d901      	bls.n	e <heapless::vec::<impl heapless::i::Vec<generic_array::GenericArray<T,N>>>::extend_from_slice+0xe>
   a:	2001      	movs	r0, #1
C:\Users\guppy\.cargo\registry\src\github.com-1ecc6299db9ec823\heapless-0.5.1\src/vec.rs:73
    }
   c:	bd70      	pop	{r4, r5, r6, pc}
C:\Users\guppy\.cargo\registry\src\github.com-1ecc6299db9ec823\heapless-0.5.1\src/vec.rs:66
            for elem in other {
   e:	eb02 0242 	add.w	r2, r2, r2, lsl #1
  12:	0092      	lsls	r2, r2, #2
_ZN85_$LT$core..slice..Iter$LT$T$GT$$u20$as$u20$core..iter..traits..iterator..Iterator$GT$4next17h6c0bfbaaf3f44377E():
/rustc/412f43ac5b4ae8c3599e71c6972112e9be4758fa/src/libcore/slice/mod.rs:3221
  14:	b17a      	cbz	r2, 36 <heapless::vec::<impl heapless::i::Vec<generic_array::GenericArray<T,N>>>::extend_from_slice+0x36>
_ZN4core3ptr5write17hd00207468cb8cb00E():
/rustc/412f43ac5b4ae8c3599e71c6972112e9be4758fa/src/libcore/ptr/mod.rs:800
  16:	eb03 0343 	add.w	r3, r3, r3, lsl #1
_ZN4core5clone5impls54_$LT$impl$u20$core..clone..Clone$u20$for$u20$$RF$T$GT$5clone17hf8d1210e99e360a4E():
/rustc/412f43ac5b4ae8c3599e71c6972112e9be4758fa/src/libcore/clone.rs:217
  1a:	e891 0070 	ldmia.w	r1, {r4, r5, r6}
_ZN8heapless3vec82_$LT$impl$u20$heapless..i..Vec$LT$generic_array..GenericArray$LT$T$C$N$GT$$GT$$GT$17extend_from_slice17hc77b7f8a25a25a66E():
C:\Users\guppy\.cargo\registry\src\github.com-1ecc6299db9ec823\heapless-0.5.1\src/vec.rs:66
  1e:	3a0c      	subs	r2, #12
_ZN4core3ptr5write17hd00207468cb8cb00E():
/rustc/412f43ac5b4ae8c3599e71c6972112e9be4758fa/src/libcore/ptr/mod.rs:800
  20:	f840 4023 	str.w	r4, [r0, r3, lsl #2]
  24:	eb00 0383 	add.w	r3, r0, r3, lsl #2
_ZN4core3ptr33_$LT$impl$u20$$BP$const$u20$T$GT$6offset17h350dd25192e61c7dE():
/rustc/412f43ac5b4ae8c3599e71c6972112e9be4758fa/src/libcore/ptr/mod.rs:1181
  28:	310c      	adds	r1, #12
_ZN4core3ptr5write17hd00207468cb8cb00E():
/rustc/412f43ac5b4ae8c3599e71c6972112e9be4758fa/src/libcore/ptr/mod.rs:800
  2a:	e9c3 5601 	strd	r5, r6, [r3, #4]
_ZN8heapless3vec82_$LT$impl$u20$heapless..i..Vec$LT$generic_array..GenericArray$LT$T$C$N$GT$$GT$$GT$14push_unchecked17hc5a4f5cb90ccf251E():
C:\Users\guppy\.cargo\registry\src\github.com-1ecc6299db9ec823\heapless-0.5.1\src/vec.rs:102
        self.len += 1;
  2e:	6983      	ldr	r3, [r0, #24]
  30:	3301      	adds	r3, #1
  32:	6183      	str	r3, [r0, #24]
  34:	e7ee      	b.n	14 <heapless::vec::<impl heapless::i::Vec<generic_array::GenericArray<T,N>>>::extend_from_slice+0x14>
_ZN8heapless3vec82_$LT$impl$u20$heapless..i..Vec$LT$generic_array..GenericArray$LT$T$C$N$GT$$GT$$GT$17extend_from_slice17hc77b7f8a25a25a66E():
  36:	2000      	movs	r0, #0
C:\Users\guppy\.cargo\registry\src\github.com-1ecc6299db9ec823\heapless-0.5.1\src/vec.rs:73
    }
  38:	bd70      	pop	{r4, r5, r6, pc}

Disassembly of section .text._ZN8heapless3vec82_$LT$impl$u20$heapless..i..Vec$LT$generic_array..GenericArray$LT$T$C$N$GT$$GT$$GT$17extend_from_slice17hff368e2a30d1cee6E:

00000000 <heapless::vec::<impl heapless::i::Vec<generic_array::GenericArray<T,N>>>::extend_from_slice>:
_ZN8heapless3vec82_$LT$impl$u20$heapless..i..Vec$LT$generic_array..GenericArray$LT$T$C$N$GT$$GT$$GT$17extend_from_slice17hff368e2a30d1cee6E():
C:\Users\guppy\.cargo\registry\src\github.com-1ecc6299db9ec823\heapless-0.5.1\src/vec.rs:58
    pub(crate) fn extend_from_slice(&mut self, other: &[T]) -> Result<(), ()>
   0:	e92d 4ff8 	stmdb	sp!, {r3, r4, r5, r6, r7, r8, r9, sl, fp, lr}
   4:	ed2d 8b02 	vpush	{d8}
   8:	4680      	mov	r8, r0
C:\Users\guppy\.cargo\registry\src\github.com-1ecc6299db9ec823\heapless-0.5.1\src/vec.rs:62
        if self.len + other.len() > self.capacity() {
   a:	f8d0 0200 	ldr.w	r0, [r0, #512]	; 0x200
   e:	460c      	mov	r4, r1
  10:	1881      	adds	r1, r0, r2
  12:	2908      	cmp	r1, #8
  14:	d901      	bls.n	1a <heapless::vec::<impl heapless::i::Vec<generic_array::GenericArray<T,N>>>::extend_from_slice+0x1a>
  16:	2001      	movs	r0, #1
  18:	e025      	b.n	66 <heapless::vec::<impl heapless::i::Vec<generic_array::GenericArray<T,N>>>::extend_from_slice+0x66>
C:\Users\guppy\.cargo\registry\src\github.com-1ecc6299db9ec823\heapless-0.5.1\src/vec.rs:66
            for elem in other {
  1a:	ea4f 1982 	mov.w	r9, r2, lsl #6
_ZN85_$LT$core..slice..Iter$LT$T$GT$$u20$as$u20$core..iter..traits..iterator..Iterator$GT$4next17hb230da6fc0408bc2E():
/rustc/412f43ac5b4ae8c3599e71c6972112e9be4758fa/src/libcore/slice/mod.rs:3221
  1e:	f1b9 0f00 	cmp.w	r9, #0
  22:	d01f      	beq.n	64 <heapless::vec::<impl heapless::i::Vec<generic_array::GenericArray<T,N>>>::extend_from_slice+0x64>
_ZN4core3ptr31_$LT$impl$u20$$BP$mut$u20$T$GT$6offset17hb3688ff3fa7236a1E():
/rustc/412f43ac5b4ae8c3599e71c6972112e9be4758fa/src/libcore/ptr/mod.rs:1864
  24:	eb08 1680 	add.w	r6, r8, r0, lsl #6
_ZN4core3ptr5write17h8b972500ecaeba4dE():
/rustc/412f43ac5b4ae8c3599e71c6972112e9be4758fa/src/libcore/ptr/mod.rs:800
  28:	4621      	mov	r1, r4
  2a:	2228      	movs	r2, #40	; 0x28
_ZN68_$LT$core..option..Option$LT$T$GT$$u20$as$u20$core..clone..Clone$GT$5clone17h2e769cf8014f86ceE():
/rustc/412f43ac5b4ae8c3599e71c6972112e9be4758fa/src/libcore/option.rs:1206
  2c:	e9d4 b70a 	ldrd	fp, r7, [r4, #40]	; 0x28
_ZN4core3ptr5write17h8b972500ecaeba4dE():
/rustc/412f43ac5b4ae8c3599e71c6972112e9be4758fa/src/libcore/ptr/mod.rs:800
  30:	4630      	mov	r0, r6
_ZN4core5clone5impls52_$LT$impl$u20$core..clone..Clone$u20$for$u20$u32$GT$5clone17h2b0a7c5ae4cba5d8E():
/rustc/412f43ac5b4ae8c3599e71c6972112e9be4758fa/src/libcore/clone.rs:174
  32:	f8d4 a030 	ldr.w	sl, [r4, #48]	; 0x30
_ZN68_$LT$core..option..Option$LT$T$GT$$u20$as$u20$core..clone..Clone$GT$5clone17h50faf15800270c4cE():
/rustc/412f43ac5b4ae8c3599e71c6972112e9be4758fa/src/libcore/option.rs:1206
  36:	f894 5034 	ldrb.w	r5, [r4, #52]	; 0x34
_ZN66_$LT$druid..widget..flex..Params$u20$as$u20$core..clone..Clone$GT$5clone17h27963563fb9ec1f6E():
C:\druid-embedded\druid\src\widget/flex.rs:68
#[derive(Copy, Clone, Default)]
  3a:	ed94 8b0e 	vldr	d8, [r4, #56]	; 0x38
_ZN4core3ptr5write17h8b972500ecaeba4dE():
/rustc/412f43ac5b4ae8c3599e71c6972112e9be4758fa/src/libcore/ptr/mod.rs:800
  3e:	f7ff fffe 	bl	0 <__aeabi_memmove8>
  42:	ed86 8b0e 	vstr	d8, [r6, #56]	; 0x38
_ZN8heapless3vec82_$LT$impl$u20$heapless..i..Vec$LT$generic_array..GenericArray$LT$T$C$N$GT$$GT$$GT$17extend_from_slice17hff368e2a30d1cee6E():
C:\Users\guppy\.cargo\registry\src\github.com-1ecc6299db9ec823\heapless-0.5.1\src/vec.rs:66
  46:	f1a9 0940 	sub.w	r9, r9, #64	; 0x40
_ZN4core3ptr5write17h8b972500ecaeba4dE():
/rustc/412f43ac5b4ae8c3599e71c6972112e9be4758fa/src/libcore/ptr/mod.rs:800
  4a:	f886 5034 	strb.w	r5, [r6, #52]	; 0x34
_ZN4core3ptr33_$LT$impl$u20$$BP$const$u20$T$GT$6offset17hff6bbb558ff16382E():
/rustc/412f43ac5b4ae8c3599e71c6972112e9be4758fa/src/libcore/ptr/mod.rs:1181
  4e:	3440      	adds	r4, #64	; 0x40
_ZN4core3ptr5write17h8b972500ecaeba4dE():
/rustc/412f43ac5b4ae8c3599e71c6972112e9be4758fa/src/libcore/ptr/mod.rs:800
  50:	e9c6 b70a 	strd	fp, r7, [r6, #40]	; 0x28
  54:	f8c6 a030 	str.w	sl, [r6, #48]	; 0x30
_ZN8heapless3vec82_$LT$impl$u20$heapless..i..Vec$LT$generic_array..GenericArray$LT$T$C$N$GT$$GT$$GT$14push_unchecked17h06d1b54dc6348413E():
C:\Users\guppy\.cargo\registry\src\github.com-1ecc6299db9ec823\heapless-0.5.1\src/vec.rs:102
        self.len += 1;
  58:	f8d8 0200 	ldr.w	r0, [r8, #512]	; 0x200
  5c:	3001      	adds	r0, #1
  5e:	f8c8 0200 	str.w	r0, [r8, #512]	; 0x200
  62:	e7dc      	b.n	1e <heapless::vec::<impl heapless::i::Vec<generic_array::GenericArray<T,N>>>::extend_from_slice+0x1e>
_ZN8heapless3vec82_$LT$impl$u20$heapless..i..Vec$LT$generic_array..GenericArray$LT$T$C$N$GT$$GT$$GT$17extend_from_slice17hff368e2a30d1cee6E():
  64:	2000      	movs	r0, #0
C:\Users\guppy\.cargo\registry\src\github.com-1ecc6299db9ec823\heapless-0.5.1\src/vec.rs:73
    }
  66:	ecbd 8b02 	vpop	{d8}
  6a:	b001      	add	sp, #4
  6c:	e8bd 8ff0 	ldmia.w	sp!, {r4, r5, r6, r7, r8, r9, sl, fp, pc}

Disassembly of section .text._ZN8heapless3vec82_$LT$impl$u20$heapless..i..Vec$LT$generic_array..GenericArray$LT$T$C$N$GT$$GT$$GT$4push17h3c7e0f33cf24bfcdE:

00000000 <heapless::vec::<impl heapless::i::Vec<generic_array::GenericArray<T,N>>>::push>:
_ZN8heapless3vec82_$LT$impl$u20$heapless..i..Vec$LT$generic_array..GenericArray$LT$T$C$N$GT$$GT$$GT$4push17h3c7e0f33cf24bfcdE():
C:\Users\guppy\.cargo\registry\src\github.com-1ecc6299db9ec823\heapless-0.5.1\src/vec.rs:86
    pub(crate) fn push(&mut self, item: T) -> Result<(), T> {
   0:	b570      	push	{r4, r5, r6, lr}
   2:	460c      	mov	r4, r1
   4:	4605      	mov	r5, r0
C:\Users\guppy\.cargo\registry\src\github.com-1ecc6299db9ec823\heapless-0.5.1\src/vec.rs:87
        if self.len < self.capacity() {
   6:	6806      	ldr	r6, [r0, #0]
   8:	f7ff fffe 	bl	0 <heapless::vec::<impl heapless::i::Vec<generic_array::GenericArray<T,N>>>::capacity>
   c:	4286      	cmp	r6, r0
   e:	d205      	bcs.n	1c <heapless::vec::<impl heapless::i::Vec<generic_array::GenericArray<T,N>>>::push+0x1c>
C:\Users\guppy\.cargo\registry\src\github.com-1ecc6299db9ec823\heapless-0.5.1\src/vec.rs:88
            unsafe { self.push_unchecked(item) }
  10:	4628      	mov	r0, r5
  12:	4621      	mov	r1, r4
  14:	f7ff fffe 	bl	0 <heapless::vec::<impl heapless::i::Vec<generic_array::GenericArray<T,N>>>::push_unchecked>
  18:	2000      	movs	r0, #0
  1a:	e000      	b.n	1e <heapless::vec::<impl heapless::i::Vec<generic_array::GenericArray<T,N>>>::push+0x1e>
  1c:	2001      	movs	r0, #1
C:\Users\guppy\.cargo\registry\src\github.com-1ecc6299db9ec823\heapless-0.5.1\src/vec.rs:93
    }
  1e:	4621      	mov	r1, r4
  20:	bd70      	pop	{r4, r5, r6, pc}

Disassembly of section .text._ZN8heapless3vec82_$LT$impl$u20$heapless..i..Vec$LT$generic_array..GenericArray$LT$T$C$N$GT$$GT$$GT$4push17h40447eacb31b5d87E:

00000000 <heapless::vec::<impl heapless::i::Vec<generic_array::GenericArray<T,N>>>::push>:
_ZN8heapless3vec82_$LT$impl$u20$heapless..i..Vec$LT$generic_array..GenericArray$LT$T$C$N$GT$$GT$$GT$4push17h40447eacb31b5d87E():
C:\Users\guppy\.cargo\registry\src\github.com-1ecc6299db9ec823\heapless-0.5.1\src/vec.rs:86
    pub(crate) fn push(&mut self, item: T) -> Result<(), T> {
   0:	b5b0      	push	{r4, r5, r7, lr}
   2:	4604      	mov	r4, r0
C:\Users\guppy\.cargo\registry\src\github.com-1ecc6299db9ec823\heapless-0.5.1\src/vec.rs:87
        if self.len < self.capacity() {
   4:	f8d1 0200 	ldr.w	r0, [r1, #512]	; 0x200
   8:	2808      	cmp	r0, #8
   a:	d212      	bcs.n	32 <heapless::vec::<impl heapless::i::Vec<generic_array::GenericArray<T,N>>>::push+0x32>
_ZN4core3ptr31_$LT$impl$u20$$BP$mut$u20$T$GT$6offset17hb3688ff3fa7236a1E():
/rustc/412f43ac5b4ae8c3599e71c6972112e9be4758fa/src/libcore/ptr/mod.rs:1864
   c:	eb01 1080 	add.w	r0, r1, r0, lsl #6
  10:	460d      	mov	r5, r1
_ZN4core3ptr5write17h8b972500ecaeba4dE():
/rustc/412f43ac5b4ae8c3599e71c6972112e9be4758fa/src/libcore/ptr/mod.rs:800
  12:	4611      	mov	r1, r2
  14:	2240      	movs	r2, #64	; 0x40
  16:	f7ff fffe 	bl	0 <__aeabi_memcpy>
_ZN8heapless3vec82_$LT$impl$u20$heapless..i..Vec$LT$generic_array..GenericArray$LT$T$C$N$GT$$GT$$GT$14push_unchecked17h06d1b54dc6348413E():
C:\Users\guppy\.cargo\registry\src\github.com-1ecc6299db9ec823\heapless-0.5.1\src/vec.rs:102
        self.len += 1;
  1a:	f8d5 0200 	ldr.w	r0, [r5, #512]	; 0x200
_ZN8heapless3vec82_$LT$impl$u20$heapless..i..Vec$LT$generic_array..GenericArray$LT$T$C$N$GT$$GT$$GT$4push17h40447eacb31b5d87E():
C:\Users\guppy\.cargo\registry\src\github.com-1ecc6299db9ec823\heapless-0.5.1\src/vec.rs:89
            Ok(())
  1e:	2140      	movs	r1, #64	; 0x40
_ZN8heapless3vec82_$LT$impl$u20$heapless..i..Vec$LT$generic_array..GenericArray$LT$T$C$N$GT$$GT$$GT$14push_unchecked17h06d1b54dc6348413E():
C:\Users\guppy\.cargo\registry\src\github.com-1ecc6299db9ec823\heapless-0.5.1\src/vec.rs:102
        self.len += 1;
  20:	3001      	adds	r0, #1
  22:	f8c5 0200 	str.w	r0, [r5, #512]	; 0x200
_ZN8heapless3vec82_$LT$impl$u20$heapless..i..Vec$LT$generic_array..GenericArray$LT$T$C$N$GT$$GT$$GT$4push17h40447eacb31b5d87E():
C:\Users\guppy\.cargo\registry\src\github.com-1ecc6299db9ec823\heapless-0.5.1\src/vec.rs:89
            Ok(())
  26:	4620      	mov	r0, r4
  28:	f7ff fffe 	bl	0 <__aeabi_memclr8>
  2c:	2002      	movs	r0, #2
  2e:	62a0      	str	r0, [r4, #40]	; 0x28
C:\Users\guppy\.cargo\registry\src\github.com-1ecc6299db9ec823\heapless-0.5.1\src/vec.rs:93
    }
  30:	bdb0      	pop	{r4, r5, r7, pc}
C:\Users\guppy\.cargo\registry\src\github.com-1ecc6299db9ec823\heapless-0.5.1\src/vec.rs:91
            Err(item)
  32:	4611      	mov	r1, r2
  34:	4620      	mov	r0, r4
  36:	2240      	movs	r2, #64	; 0x40
  38:	f7ff fffe 	bl	0 <__aeabi_memcpy>
C:\Users\guppy\.cargo\registry\src\github.com-1ecc6299db9ec823\heapless-0.5.1\src/vec.rs:93
    }
  3c:	bdb0      	pop	{r4, r5, r7, pc}

Disassembly of section .text._ZN8heapless3vec82_$LT$impl$u20$heapless..i..Vec$LT$generic_array..GenericArray$LT$T$C$N$GT$$GT$$GT$4push17hbe0b705e0e70b27cE:

00000000 <heapless::vec::<impl heapless::i::Vec<generic_array::GenericArray<T,N>>>::push>:
_ZN8heapless3vec82_$LT$impl$u20$heapless..i..Vec$LT$generic_array..GenericArray$LT$T$C$N$GT$$GT$$GT$4push17hbe0b705e0e70b27cE():
C:\Users\guppy\.cargo\registry\src\github.com-1ecc6299db9ec823\heapless-0.5.1\src/vec.rs:86
    pub(crate) fn push(&mut self, item: T) -> Result<(), T> {
   0:	b5b0      	push	{r4, r5, r7, lr}
   2:	4604      	mov	r4, r0
C:\Users\guppy\.cargo\registry\src\github.com-1ecc6299db9ec823\heapless-0.5.1\src/vec.rs:87
        if self.len < self.capacity() {
   4:	6c08      	ldr	r0, [r1, #64]	; 0x40
   6:	2802      	cmp	r0, #2
   8:	d213      	bcs.n	32 <heapless::vec::<impl heapless::i::Vec<generic_array::GenericArray<T,N>>>::push+0x32>
_ZN4core3ptr5write17h27e3e233ee0158e9E():
/rustc/412f43ac5b4ae8c3599e71c6972112e9be4758fa/src/libcore/ptr/mod.rs:800
   a:	eb01 1040 	add.w	r0, r1, r0, lsl #5
   e:	460d      	mov	r5, r1
  10:	4611      	mov	r1, r2
  12:	2220      	movs	r2, #32
  14:	f7ff fffe 	bl	0 <__aeabi_memcpy>
_ZN8heapless3vec82_$LT$impl$u20$heapless..i..Vec$LT$generic_array..GenericArray$LT$T$C$N$GT$$GT$$GT$14push_unchecked17h8cdac320fab79a8aE():
C:\Users\guppy\.cargo\registry\src\github.com-1ecc6299db9ec823\heapless-0.5.1\src/vec.rs:102
        self.len += 1;
  18:	6c28      	ldr	r0, [r5, #64]	; 0x40
_ZN8heapless3vec82_$LT$impl$u20$heapless..i..Vec$LT$generic_array..GenericArray$LT$T$C$N$GT$$GT$$GT$4push17hbe0b705e0e70b27cE():
C:\Users\guppy\.cargo\registry\src\github.com-1ecc6299db9ec823\heapless-0.5.1\src/vec.rs:89
            Ok(())
  1a:	2118      	movs	r1, #24
_ZN8heapless3vec82_$LT$impl$u20$heapless..i..Vec$LT$generic_array..GenericArray$LT$T$C$N$GT$$GT$$GT$14push_unchecked17h8cdac320fab79a8aE():
C:\Users\guppy\.cargo\registry\src\github.com-1ecc6299db9ec823\heapless-0.5.1\src/vec.rs:102
        self.len += 1;
  1c:	3001      	adds	r0, #1
  1e:	6428      	str	r0, [r5, #64]	; 0x40
_ZN8heapless3vec82_$LT$impl$u20$heapless..i..Vec$LT$generic_array..GenericArray$LT$T$C$N$GT$$GT$$GT$4push17hbe0b705e0e70b27cE():
C:\Users\guppy\.cargo\registry\src\github.com-1ecc6299db9ec823\heapless-0.5.1\src/vec.rs:89
            Ok(())
  20:	f104 0008 	add.w	r0, r4, #8
  24:	f7ff fffe 	bl	0 <__aeabi_memclr8>
  28:	2000      	movs	r0, #0
  2a:	2102      	movs	r1, #2
  2c:	e9c4 1000 	strd	r1, r0, [r4]
C:\Users\guppy\.cargo\registry\src\github.com-1ecc6299db9ec823\heapless-0.5.1\src/vec.rs:93
    }
  30:	bdb0      	pop	{r4, r5, r7, pc}
C:\Users\guppy\.cargo\registry\src\github.com-1ecc6299db9ec823\heapless-0.5.1\src/vec.rs:91
            Err(item)
  32:	4611      	mov	r1, r2
  34:	4620      	mov	r0, r4
  36:	2220      	movs	r2, #32
  38:	f7ff fffe 	bl	0 <__aeabi_memcpy>
C:\Users\guppy\.cargo\registry\src\github.com-1ecc6299db9ec823\heapless-0.5.1\src/vec.rs:93
    }
  3c:	bdb0      	pop	{r4, r5, r7, pc}

Disassembly of section .text._ZN8heapless3vec82_$LT$impl$u20$heapless..i..Vec$LT$generic_array..GenericArray$LT$T$C$N$GT$$GT$$GT$4push17hcb5ca1b144bc970eE:

00000000 <heapless::vec::<impl heapless::i::Vec<generic_array::GenericArray<T,N>>>::push>:
_ZN8heapless3vec82_$LT$impl$u20$heapless..i..Vec$LT$generic_array..GenericArray$LT$T$C$N$GT$$GT$$GT$4push17hcb5ca1b144bc970eE():
C:\Users\guppy\.cargo\registry\src\github.com-1ecc6299db9ec823\heapless-0.5.1\src/vec.rs:86
    pub(crate) fn push(&mut self, item: T) -> Result<(), T> {
   0:	b570      	push	{r4, r5, r6, lr}
C:\Users\guppy\.cargo\registry\src\github.com-1ecc6299db9ec823\heapless-0.5.1\src/vec.rs:87
        if self.len < self.capacity() {
   2:	698b      	ldr	r3, [r1, #24]
   4:	2b02      	cmp	r3, #2
   6:	d20e      	bcs.n	26 <heapless::vec::<impl heapless::i::Vec<generic_array::GenericArray<T,N>>>::push+0x26>
_ZN4core3ptr31_$LT$impl$u20$$BP$mut$u20$T$GT$6offset17h96990ffe76f9e492E():
/rustc/412f43ac5b4ae8c3599e71c6972112e9be4758fa/src/libcore/ptr/mod.rs:1864
   8:	eb03 0343 	add.w	r3, r3, r3, lsl #1
_ZN4core3ptr5write17hd00207468cb8cb00E():
/rustc/412f43ac5b4ae8c3599e71c6972112e9be4758fa/src/libcore/ptr/mod.rs:800
   c:	e892 0070 	ldmia.w	r2, {r4, r5, r6}
_ZN4core3ptr31_$LT$impl$u20$$BP$mut$u20$T$GT$6offset17h96990ffe76f9e492E():
/rustc/412f43ac5b4ae8c3599e71c6972112e9be4758fa/src/libcore/ptr/mod.rs:1864
  10:	eb01 0383 	add.w	r3, r1, r3, lsl #2
_ZN4core3ptr5write17hd00207468cb8cb00E():
/rustc/412f43ac5b4ae8c3599e71c6972112e9be4758fa/src/libcore/ptr/mod.rs:800
  14:	c370      	stmia	r3!, {r4, r5, r6}
_ZN8heapless3vec82_$LT$impl$u20$heapless..i..Vec$LT$generic_array..GenericArray$LT$T$C$N$GT$$GT$$GT$14push_unchecked17hc5a4f5cb90ccf251E():
C:\Users\guppy\.cargo\registry\src\github.com-1ecc6299db9ec823\heapless-0.5.1\src/vec.rs:102
        self.len += 1;
  16:	698a      	ldr	r2, [r1, #24]
  18:	3201      	adds	r2, #1
  1a:	618a      	str	r2, [r1, #24]
  1c:	2100      	movs	r1, #0
_ZN8heapless3vec82_$LT$impl$u20$heapless..i..Vec$LT$generic_array..GenericArray$LT$T$C$N$GT$$GT$$GT$4push17hcb5ca1b144bc970eE():
C:\Users\guppy\.cargo\registry\src\github.com-1ecc6299db9ec823\heapless-0.5.1\src/vec.rs:89
            Ok(())
  1e:	e9c0 1100 	strd	r1, r1, [r0]
  22:	6081      	str	r1, [r0, #8]
C:\Users\guppy\.cargo\registry\src\github.com-1ecc6299db9ec823\heapless-0.5.1\src/vec.rs:93
    }
  24:	bd70      	pop	{r4, r5, r6, pc}
C:\Users\guppy\.cargo\registry\src\github.com-1ecc6299db9ec823\heapless-0.5.1\src/vec.rs:91
            Err(item)
  26:	e892 001a 	ldmia.w	r2, {r1, r3, r4}
  2a:	c01a      	stmia	r0!, {r1, r3, r4}
C:\Users\guppy\.cargo\registry\src\github.com-1ecc6299db9ec823\heapless-0.5.1\src/vec.rs:93
    }
  2c:	bd70      	pop	{r4, r5, r6, pc}

Disassembly of section .text._ZN8heapless3vec82_$LT$impl$u20$heapless..i..Vec$LT$generic_array..GenericArray$LT$T$C$N$GT$$GT$$GT$5clone17h142295f4a8a600ecE:

00000000 <heapless::vec::<impl heapless::i::Vec<generic_array::GenericArray<T,N>>>::clone>:
_ZN8heapless3vec82_$LT$impl$u20$heapless..i..Vec$LT$generic_array..GenericArray$LT$T$C$N$GT$$GT$$GT$5clone17h142295f4a8a600ecE():
C:\Users\guppy\.cargo\registry\src\github.com-1ecc6299db9ec823\heapless-0.5.1\src/vec.rs:40
    pub(crate) fn clone(&self) -> Self
   0:	b5b0      	push	{r4, r5, r7, lr}
   2:	b088      	sub	sp, #32
_ZN8heapless3vec82_$LT$impl$u20$heapless..i..Vec$LT$generic_array..GenericArray$LT$T$C$N$GT$$GT$$GT$8as_slice17h3a41d83500fb4118E():
C:\Users\guppy\.cargo\registry\src\github.com-1ecc6299db9ec823\heapless-0.5.1\src/vec.rs:23
        unsafe { slice::from_raw_parts(self.buffer.as_ptr() as *const T, self.len) }
   4:	698a      	ldr	r2, [r1, #24]
   6:	ad01      	add	r5, sp, #4
   8:	4604      	mov	r4, r0
   a:	2000      	movs	r0, #0
_ZN8heapless3vec43_$LT$impl$u20$heapless..i..Vec$LT$A$GT$$GT$3new17h43117aa5b5eaefffE():
C:\Users\guppy\.cargo\registry\src\github.com-1ecc6299db9ec823\heapless-0.5.1\src/vec.rs:9
        Self {
   c:	9007      	str	r0, [sp, #28]
_ZN8heapless3vec82_$LT$impl$u20$heapless..i..Vec$LT$generic_array..GenericArray$LT$T$C$N$GT$$GT$$GT$5clone17h142295f4a8a600ecE():
C:\Users\guppy\.cargo\registry\src\github.com-1ecc6299db9ec823\heapless-0.5.1\src/vec.rs:45
        new.extend_from_slice(self.as_slice()).unwrap();
   e:	4628      	mov	r0, r5
  10:	f7ff fffe 	bl	0 <heapless::vec::<impl heapless::i::Vec<generic_array::GenericArray<T,N>>>::clone>
  14:	f7ff fffe 	bl	0 <heapless::vec::<impl heapless::i::Vec<generic_array::GenericArray<T,N>>>::clone>
C:\Users\guppy\.cargo\registry\src\github.com-1ecc6299db9ec823\heapless-0.5.1\src/vec.rs:46
        new
  18:	4620      	mov	r0, r4
  1a:	4629      	mov	r1, r5
  1c:	221c      	movs	r2, #28
  1e:	f7ff fffe 	bl	0 <__aeabi_memcpy>
C:\Users\guppy\.cargo\registry\src\github.com-1ecc6299db9ec823\heapless-0.5.1\src/vec.rs:47
    }
  22:	b008      	add	sp, #32
  24:	bdb0      	pop	{r4, r5, r7, pc}

Disassembly of section .text._ZN8heapless3vec82_$LT$impl$u20$heapless..i..Vec$LT$generic_array..GenericArray$LT$T$C$N$GT$$GT$$GT$5clone17h2c893a19450f56ccE:

00000000 <heapless::vec::<impl heapless::i::Vec<generic_array::GenericArray<T,N>>>::clone>:
_ZN8heapless3vec82_$LT$impl$u20$heapless..i..Vec$LT$generic_array..GenericArray$LT$T$C$N$GT$$GT$$GT$5clone17h2c893a19450f56ccE():
C:\Users\guppy\.cargo\registry\src\github.com-1ecc6299db9ec823\heapless-0.5.1\src/vec.rs:40
    pub(crate) fn clone(&self) -> Self
   0:	b5f0      	push	{r4, r5, r6, r7, lr}
   2:	b087      	sub	sp, #28
   4:	ae01      	add	r6, sp, #4
   6:	4605      	mov	r5, r0
   8:	460c      	mov	r4, r1
C:\Users\guppy\.cargo\registry\src\github.com-1ecc6299db9ec823\heapless-0.5.1\src/vec.rs:44
        let mut new = Self::new();
   a:	4630      	mov	r0, r6
   c:	f7ff fffe 	bl	0 <heapless::vec::<impl heapless::i::Vec<A>>::new>
C:\Users\guppy\.cargo\registry\src\github.com-1ecc6299db9ec823\heapless-0.5.1\src/vec.rs:45
        new.extend_from_slice(self.as_slice()).unwrap();
  10:	4620      	mov	r0, r4
  12:	f7ff fffe 	bl	0 <heapless::vec::<impl heapless::i::Vec<generic_array::GenericArray<T,N>>>::as_slice>
  16:	4602      	mov	r2, r0
  18:	460b      	mov	r3, r1
  1a:	4611      	mov	r1, r2
  1c:	4630      	mov	r0, r6
  1e:	461a      	mov	r2, r3
  20:	f7ff fffe 	bl	0 <heapless::vec::<impl heapless::i::Vec<generic_array::GenericArray<T,N>>>::extend_from_slice>
  24:	f7ff fffe 	bl	0 <heapless::vec::<impl heapless::i::Vec<generic_array::GenericArray<T,N>>>::clone>
C:\Users\guppy\.cargo\registry\src\github.com-1ecc6299db9ec823\heapless-0.5.1\src/vec.rs:46
        new
  28:	e896 009f 	ldmia.w	r6, {r0, r1, r2, r3, r4, r7}
  2c:	c59f      	stmia	r5!, {r0, r1, r2, r3, r4, r7}
C:\Users\guppy\.cargo\registry\src\github.com-1ecc6299db9ec823\heapless-0.5.1\src/vec.rs:47
    }
  2e:	b007      	add	sp, #28
  30:	bdf0      	pop	{r4, r5, r6, r7, pc}

Disassembly of section .text._ZN8heapless3vec82_$LT$impl$u20$heapless..i..Vec$LT$generic_array..GenericArray$LT$T$C$N$GT$$GT$$GT$5clone17h2ea2522287257ea1E:

00000000 <heapless::vec::<impl heapless::i::Vec<generic_array::GenericArray<T,N>>>::clone>:
_ZN8heapless3vec82_$LT$impl$u20$heapless..i..Vec$LT$generic_array..GenericArray$LT$T$C$N$GT$$GT$$GT$5clone17h2ea2522287257ea1E():
C:\Users\guppy\.cargo\registry\src\github.com-1ecc6299db9ec823\heapless-0.5.1\src/vec.rs:40
    pub(crate) fn clone(&self) -> Self
   0:	b5b0      	push	{r4, r5, r7, lr}
   2:	f5ad 7d02 	sub.w	sp, sp, #520	; 0x208
_ZN8heapless3vec82_$LT$impl$u20$heapless..i..Vec$LT$generic_array..GenericArray$LT$T$C$N$GT$$GT$$GT$8as_slice17he57974370e0ec6c6E():
C:\Users\guppy\.cargo\registry\src\github.com-1ecc6299db9ec823\heapless-0.5.1\src/vec.rs:23
        unsafe { slice::from_raw_parts(self.buffer.as_ptr() as *const T, self.len) }
   6:	f8d1 2200 	ldr.w	r2, [r1, #512]	; 0x200
   a:	4604      	mov	r4, r0
   c:	2000      	movs	r0, #0
   e:	466d      	mov	r5, sp
_ZN8heapless3vec43_$LT$impl$u20$heapless..i..Vec$LT$A$GT$$GT$3new17hc0244dedd83cd7eaE():
C:\Users\guppy\.cargo\registry\src\github.com-1ecc6299db9ec823\heapless-0.5.1\src/vec.rs:9
        Self {
  10:	9080      	str	r0, [sp, #512]	; 0x200
_ZN8heapless3vec82_$LT$impl$u20$heapless..i..Vec$LT$generic_array..GenericArray$LT$T$C$N$GT$$GT$$GT$5clone17h2ea2522287257ea1E():
C:\Users\guppy\.cargo\registry\src\github.com-1ecc6299db9ec823\heapless-0.5.1\src/vec.rs:45
        new.extend_from_slice(self.as_slice()).unwrap();
  12:	4628      	mov	r0, r5
  14:	f7ff fffe 	bl	0 <heapless::vec::<impl heapless::i::Vec<generic_array::GenericArray<T,N>>>::clone>
  18:	f7ff fffe 	bl	0 <heapless::vec::<impl heapless::i::Vec<generic_array::GenericArray<T,N>>>::clone>
C:\Users\guppy\.cargo\registry\src\github.com-1ecc6299db9ec823\heapless-0.5.1\src/vec.rs:46
        new
  1c:	4620      	mov	r0, r4
  1e:	4629      	mov	r1, r5
  20:	f44f 7202 	mov.w	r2, #520	; 0x208
  24:	f7ff fffe 	bl	0 <__aeabi_memcpy8>
C:\Users\guppy\.cargo\registry\src\github.com-1ecc6299db9ec823\heapless-0.5.1\src/vec.rs:47
    }
  28:	f50d 7d02 	add.w	sp, sp, #520	; 0x208
  2c:	bdb0      	pop	{r4, r5, r7, pc}

Disassembly of section .text._ZN8heapless3vec82_$LT$impl$u20$heapless..i..Vec$LT$generic_array..GenericArray$LT$T$C$N$GT$$GT$$GT$8as_slice17h3a41d83500fb4118E:

00000000 <heapless::vec::<impl heapless::i::Vec<generic_array::GenericArray<T,N>>>::as_slice>:
_ZN8heapless3vec82_$LT$impl$u20$heapless..i..Vec$LT$generic_array..GenericArray$LT$T$C$N$GT$$GT$$GT$8as_slice17h3a41d83500fb4118E():
C:\Users\guppy\.cargo\registry\src\github.com-1ecc6299db9ec823\heapless-0.5.1\src/vec.rs:23
        unsafe { slice::from_raw_parts(self.buffer.as_ptr() as *const T, self.len) }
   0:	6981      	ldr	r1, [r0, #24]
C:\Users\guppy\.cargo\registry\src\github.com-1ecc6299db9ec823\heapless-0.5.1\src/vec.rs:24
    }
   2:	4770      	bx	lr

Disassembly of section .text._ZN8heapless3vec82_$LT$impl$u20$heapless..i..Vec$LT$generic_array..GenericArray$LT$T$C$N$GT$$GT$$GT$8as_slice17h7b92b1e8fee4afe2E:

00000000 <heapless::vec::<impl heapless::i::Vec<generic_array::GenericArray<T,N>>>::as_slice>:
_ZN8heapless3vec82_$LT$impl$u20$heapless..i..Vec$LT$generic_array..GenericArray$LT$T$C$N$GT$$GT$$GT$8as_slice17h7b92b1e8fee4afe2E():
C:\Users\guppy\.cargo\registry\src\github.com-1ecc6299db9ec823\heapless-0.5.1\src/vec.rs:23
        unsafe { slice::from_raw_parts(self.buffer.as_ptr() as *const T, self.len) }
   0:	6c01      	ldr	r1, [r0, #64]	; 0x40
C:\Users\guppy\.cargo\registry\src\github.com-1ecc6299db9ec823\heapless-0.5.1\src/vec.rs:24
    }
   2:	4770      	bx	lr

Disassembly of section .text._ZN8heapless3vec82_$LT$impl$u20$heapless..i..Vec$LT$generic_array..GenericArray$LT$T$C$N$GT$$GT$$GT$8as_slice17he57974370e0ec6c6E:

00000000 <heapless::vec::<impl heapless::i::Vec<generic_array::GenericArray<T,N>>>::as_slice>:
_ZN8heapless3vec82_$LT$impl$u20$heapless..i..Vec$LT$generic_array..GenericArray$LT$T$C$N$GT$$GT$$GT$8as_slice17he57974370e0ec6c6E():
C:\Users\guppy\.cargo\registry\src\github.com-1ecc6299db9ec823\heapless-0.5.1\src/vec.rs:23
        unsafe { slice::from_raw_parts(self.buffer.as_ptr() as *const T, self.len) }
   0:	f8d0 1200 	ldr.w	r1, [r0, #512]	; 0x200
C:\Users\guppy\.cargo\registry\src\github.com-1ecc6299db9ec823\heapless-0.5.1\src/vec.rs:24
    }
   4:	4770      	bx	lr

Disassembly of section .text._ZN8heapless3vec82_$LT$impl$u20$heapless..i..Vec$LT$generic_array..GenericArray$LT$T$C$N$GT$$GT$$GT$8capacity17h2b06b85689482f7fE:

00000000 <heapless::vec::<impl heapless::i::Vec<generic_array::GenericArray<T,N>>>::capacity>:
_ZN8heapless3vec82_$LT$impl$u20$heapless..i..Vec$LT$generic_array..GenericArray$LT$T$C$N$GT$$GT$$GT$8capacity17h2b06b85689482f7fE():
C:\Users\guppy\.cargo\registry\src\github.com-1ecc6299db9ec823\heapless-0.5.1\src/vec.rs:34
    }
   0:	2008      	movs	r0, #8
   2:	4770      	bx	lr

Disassembly of section .text._ZN8heapless3vec82_$LT$impl$u20$heapless..i..Vec$LT$generic_array..GenericArray$LT$T$C$N$GT$$GT$$GT$8capacity17haf35531c528a0eafE:

00000000 <heapless::vec::<impl heapless::i::Vec<generic_array::GenericArray<T,N>>>::capacity>:
_ZN8heapless3vec82_$LT$impl$u20$heapless..i..Vec$LT$generic_array..GenericArray$LT$T$C$N$GT$$GT$$GT$8capacity17haf35531c528a0eafE():
C:\Users\guppy\.cargo\registry\src\github.com-1ecc6299db9ec823\heapless-0.5.1\src/vec.rs:34
   0:	2002      	movs	r0, #2
   2:	4770      	bx	lr

Disassembly of section .text._ZN8heapless3vec82_$LT$impl$u20$heapless..i..Vec$LT$generic_array..GenericArray$LT$T$C$N$GT$$GT$$GT$8capacity17hd58769a41454fce1E:

00000000 <heapless::vec::<impl heapless::i::Vec<generic_array::GenericArray<T,N>>>::capacity>:
_ZN8heapless3vec82_$LT$impl$u20$heapless..i..Vec$LT$generic_array..GenericArray$LT$T$C$N$GT$$GT$$GT$8capacity17hd58769a41454fce1E():
C:\Users\guppy\.cargo\registry\src\github.com-1ecc6299db9ec823\heapless-0.5.1\src/vec.rs:34
   0:	2002      	movs	r0, #2
   2:	4770      	bx	lr

Disassembly of section .text._ZN93_$LT$druid..win_handler..DruidHandler$LT$T$GT$$u20$as$u20$druid_shell..window..WinHandler$GT$5paint17ha518f7a42c3d8711E:

00000000 <<druid::win_handler::DruidHandler<T> as druid_shell::window::WinHandler>::paint>:
_ZN93_$LT$druid..win_handler..DruidHandler$LT$T$GT$$u20$as$u20$druid_shell..window..WinHandler$GT$5paint17ha518f7a42c3d8711E():
C:\druid-embedded\druid\src/win_handler.rs:786
    fn paint(&mut self, piet: &mut Piet, ctx: &mut dyn WinCtx) -> bool {
   0:	b51c      	push	{r2, r3, r4, lr}
   2:	4614      	mov	r4, r2
   4:	460a      	mov	r2, r1
C:\druid-embedded\druid\src/win_handler.rs:787
        unsafe { APP_STATE_U32.paint(self.window_id, piet, ctx) } ////
   6:	6801      	ldr	r1, [r0, #0]
   8:	4803      	ldr	r0, [pc, #12]	; (18 <<druid::win_handler::DruidHandler<T> as druid_shell::window::WinHandler>::paint+0x18>)
   a:	9300      	str	r3, [sp, #0]
   c:	4623      	mov	r3, r4
   e:	f7ff fffe 	bl	0 <<druid::win_handler::DruidHandler<T> as druid_shell::window::WinHandler>::paint>
C:\druid-embedded\druid\src/win_handler.rs:789
    }
  12:	b002      	add	sp, #8
  14:	bd10      	pop	{r4, pc}
  16:	bf00      	nop
  18:	00000000 	.word	0x00000000

Disassembly of section .text._ZN93_$LT$heapless..vec..Vec$LT$T$C$N$GT$$u20$as$u20$core..iter..traits..collect..IntoIterator$GT$9into_iter17hee8926cd20b4fbfbE:

00000000 <<heapless::vec::Vec<T,N> as core::iter::traits::collect::IntoIterator>::into_iter>:
_ZN93_$LT$heapless..vec..Vec$LT$T$C$N$GT$$u20$as$u20$core..iter..traits..collect..IntoIterator$GT$9into_iter17hee8926cd20b4fbfbE():
C:\Users\guppy\.cargo\registry\src\github.com-1ecc6299db9ec823\heapless-0.5.1\src/vec.rs:530
    fn into_iter(self) -> Self::IntoIter {
   0:	b510      	push	{r4, lr}
C:\Users\guppy\.cargo\registry\src\github.com-1ecc6299db9ec823\heapless-0.5.1\src/vec.rs:531
        IntoIter { vec: self, next: 0 }
   2:	2248      	movs	r2, #72	; 0x48
   4:	4604      	mov	r4, r0
   6:	f7ff fffe 	bl	0 <__aeabi_memcpy8>
   a:	2000      	movs	r0, #0
   c:	64a0      	str	r0, [r4, #72]	; 0x48
C:\Users\guppy\.cargo\registry\src\github.com-1ecc6299db9ec823\heapless-0.5.1\src/vec.rs:532
    }
   e:	bd10      	pop	{r4, pc}

Disassembly of section .text._ZN95_$LT$druid..widget..label..LabelText$LT$T$GT$$u20$as$u20$core..convert..From$LT$$RF$str$GT$$GT$4from17hd7142237419afc4fE:

00000000 <<druid::widget::label::LabelText<T> as core::convert::From<&str>>::from>:
_ZN95_$LT$druid..widget..label..LabelText$LT$T$GT$$u20$as$u20$core..convert..From$LT$$RF$str$GT$$GT$4from17hd7142237419afc4fE():
C:\druid-embedded\druid\src\widget/label.rs:247
    fn from(src: &str) -> LabelText<T> {
   0:	e92d 41f0 	stmdb	sp!, {r4, r5, r6, r7, r8, lr}
   4:	b08e      	sub	sp, #56	; 0x38
   6:	ad07      	add	r5, sp, #28
   8:	4680      	mov	r8, r0
C:\druid-embedded\druid\src\widget/label.rs:248
        LabelText::Specific(String::from_str(src).unwrap()) ////
   a:	4628      	mov	r0, r5
   c:	f7ff fffe 	bl	0 <<heapless::string::String<N> as core::str::FromStr>::from_str>
_ZN4core6result19Result$LT$T$C$E$GT$6unwrap17hdbbcb676823f80e0E():
/rustc/412f43ac5b4ae8c3599e71c6972112e9be4758fa/src/libcore/result.rs:956
  10:	9807      	ldr	r0, [sp, #28]
  12:	2801      	cmp	r0, #1
  14:	bf1f      	itttt	ne
  16:	f105 0c04 	addne.w	ip, r5, #4
  1a:	f10d 0104 	addne.w	r1, sp, #4
  1e:	460a      	movne	r2, r1
  20:	e89c 00f9 	ldmiane.w	ip, {r0, r3, r4, r5, r6, r7}
  24:	bf1f      	itttt	ne
  26:	c2f9      	stmiane	r2!, {r0, r3, r4, r5, r6, r7}
_ZN95_$LT$druid..widget..label..LabelText$LT$T$GT$$u20$as$u20$core..convert..From$LT$$RF$str$GT$$GT$4from17hd7142237419afc4fE():
C:\druid-embedded\druid\src\widget/label.rs:248
  28:	f108 0004 	addne.w	r0, r8, #4
  2c:	e891 00fc 	ldmiane.w	r1, {r2, r3, r4, r5, r6, r7}
  30:	c0fc      	stmiane	r0!, {r2, r3, r4, r5, r6, r7}
  32:	bf1f      	itttt	ne
  34:	2001      	movne	r0, #1
  36:	f8c8 0000 	strne.w	r0, [r8]
C:\druid-embedded\druid\src\widget/label.rs:250
    }
  3a:	b00e      	addne	sp, #56	; 0x38
  3c:	e8bd 81f0 	ldmiane.w	sp!, {r4, r5, r6, r7, r8, pc}
_ZN4core6result19Result$LT$T$C$E$GT$6unwrap17hdbbcb676823f80e0E():
/rustc/412f43ac5b4ae8c3599e71c6972112e9be4758fa/src/libcore/result.rs:957
  40:	4803      	ldr	r0, [pc, #12]	; (50 <<druid::widget::label::LabelText<T> as core::convert::From<&str>>::from+0x50>)
  42:	aa01      	add	r2, sp, #4
  44:	4b03      	ldr	r3, [pc, #12]	; (54 <<druid::widget::label::LabelText<T> as core::convert::From<&str>>::from+0x54>)
  46:	212b      	movs	r1, #43	; 0x2b
  48:	f7ff fffe 	bl	0 <core::result::unwrap_failed>
  4c:	defe      	udf	#254	; 0xfe
_ZN95_$LT$druid..widget..label..LabelText$LT$T$GT$$u20$as$u20$core..convert..From$LT$$RF$str$GT$$GT$4from17hd7142237419afc4fE():
/rustc/412f43ac5b4ae8c3599e71c6972112e9be4758fa/src/libcore/result.rs:957
  4e:	bf00      	nop
	...

Disassembly of section .text._ZN95_$LT$heapless..vec..IntoIter$LT$T$C$N$GT$$u20$as$u20$core..iter..traits..iterator..Iterator$GT$4next17hb897ae2a8c76f5bcE:

00000000 <<heapless::vec::IntoIter<T,N> as core::iter::traits::iterator::Iterator>::next>:
_ZN95_$LT$heapless..vec..IntoIter$LT$T$C$N$GT$$u20$as$u20$core..iter..traits..iterator..Iterator$GT$4next17hb897ae2a8c76f5bcE():
C:\Users\guppy\.cargo\registry\src\github.com-1ecc6299db9ec823\heapless-0.5.1\src/vec.rs:481
    fn next(&mut self) -> Option<Self::Item> {
   0:	b570      	push	{r4, r5, r6, lr}
   2:	4604      	mov	r4, r0
_ZN8heapless3vec82_$LT$impl$u20$heapless..i..Vec$LT$generic_array..GenericArray$LT$T$C$N$GT$$GT$$GT$8as_slice17h7b92b1e8fee4afe2E():
C:\Users\guppy\.cargo\registry\src\github.com-1ecc6299db9ec823\heapless-0.5.1\src/vec.rs:23
        unsafe { slice::from_raw_parts(self.buffer.as_ptr() as *const T, self.len) }
   4:	6c08      	ldr	r0, [r1, #64]	; 0x40
_ZN95_$LT$heapless..vec..IntoIter$LT$T$C$N$GT$$u20$as$u20$core..iter..traits..iterator..Iterator$GT$4next17hb897ae2a8c76f5bcE():
C:\Users\guppy\.cargo\registry\src\github.com-1ecc6299db9ec823\heapless-0.5.1\src/vec.rs:482
        if self.next < self.vec.len() {
   6:	6c8e      	ldr	r6, [r1, #72]	; 0x48
   8:	4286      	cmp	r6, r0
   a:	d209      	bcs.n	20 <<heapless::vec::IntoIter<T,N> as core::iter::traits::iterator::Iterator>::next+0x20>
   c:	460d      	mov	r5, r1
_ZN4core10intrinsics19copy_nonoverlapping17ha83b81129ee2fb84E():
/rustc/412f43ac5b4ae8c3599e71c6972112e9be4758fa/src/libcore/intrinsics.rs:1474
   e:	eb01 1146 	add.w	r1, r1, r6, lsl #5
_ZN4core3ptr4read17hb56d1298869586b4E():
/rustc/412f43ac5b4ae8c3599e71c6972112e9be4758fa/src/libcore/ptr/mod.rs:617
  12:	4620      	mov	r0, r4
  14:	2220      	movs	r2, #32
  16:	f7ff fffe 	bl	0 <__aeabi_memcpy>
_ZN95_$LT$heapless..vec..IntoIter$LT$T$C$N$GT$$u20$as$u20$core..iter..traits..iterator..Iterator$GT$4next17hb897ae2a8c76f5bcE():
C:\Users\guppy\.cargo\registry\src\github.com-1ecc6299db9ec823\heapless-0.5.1\src/vec.rs:488
            self.next += 1;
  1a:	1c70      	adds	r0, r6, #1
  1c:	64a8      	str	r0, [r5, #72]	; 0x48
C:\Users\guppy\.cargo\registry\src\github.com-1ecc6299db9ec823\heapless-0.5.1\src/vec.rs:493
    }
  1e:	bd70      	pop	{r4, r5, r6, pc}
C:\Users\guppy\.cargo\registry\src\github.com-1ecc6299db9ec823\heapless-0.5.1\src/vec.rs:491
            None
  20:	f104 0008 	add.w	r0, r4, #8
  24:	2118      	movs	r1, #24
  26:	f7ff fffe 	bl	0 <__aeabi_memclr8>
  2a:	2000      	movs	r0, #0
  2c:	2102      	movs	r1, #2
  2e:	e9c4 1000 	strd	r1, r0, [r4]
C:\Users\guppy\.cargo\registry\src\github.com-1ecc6299db9ec823\heapless-0.5.1\src/vec.rs:493
    }
  32:	bd70      	pop	{r4, r5, r6, pc}

Disassembly of section .text._ZN97_$LT$core..iter..adapters..Map$LT$I$C$F$GT$$u20$as$u20$core..iter..traits..iterator..Iterator$GT$4fold17hbd3dc5733aeae539E:

00000000 <<core::iter::adapters::Map<I,F> as core::iter::traits::iterator::Iterator>::fold>:
_ZN97_$LT$core..iter..adapters..Map$LT$I$C$F$GT$$u20$as$u20$core..iter..traits..iterator..Iterator$GT$4fold17hbd3dc5733aeae539E():
/rustc/412f43ac5b4ae8c3599e71c6972112e9be4758fa/src/libcore/iter/adapters/mod.rs:734
   0:	b5b0      	push	{r4, r5, r7, lr}
_ZN4core4iter6traits8iterator8Iterator8try_fold17heb4049a0f96ffbf8E():
/rustc/412f43ac5b4ae8c3599e71c6972112e9be4758fa/src/libcore/iter/traits/iterator.rs:1709
   2:	1a0d      	subs	r5, r1, r0
   4:	4604      	mov	r4, r0
_ZN85_$LT$core..slice..Iter$LT$T$GT$$u20$as$u20$core..iter..traits..iterator..Iterator$GT$4next17hb230da6fc0408bc2E():
/rustc/412f43ac5b4ae8c3599e71c6972112e9be4758fa/src/libcore/slice/mod.rs:3221
   6:	b165      	cbz	r5, 22 <<core::iter::adapters::Map<I,F> as core::iter::traits::iterator::Iterator>::fold+0x22>
_ZN45_$LT$f64$u20$as$u20$core..ops..arith..Add$GT$3add17h76f87a95334c5feeE():
/rustc/412f43ac5b4ae8c3599e71c6972112e9be4758fa/src/libcore/ops/arith.rs:100
   8:	ec51 0b10 	vmov	r0, r1, d0
_ZN77_$LT$druid..widget..flex..Flex$LT$T$GT$$u20$as$u20$druid..Widget$LT$T$GT$$GT$6layout28_$u7b$$u7b$closure$u7d$$u7d$17h535a3a3a43579558E():
C:\druid-embedded\druid\src\widget/flex.rs:198
        let flex_sum: f64 = self.children.iter().map(|child| child.params.flex).sum();
   c:	ed94 0b0e 	vldr	d0, [r4, #56]	; 0x38
_ZN45_$LT$f64$u20$as$u20$core..ops..arith..Add$GT$3add17h76f87a95334c5feeE():
/rustc/412f43ac5b4ae8c3599e71c6972112e9be4758fa/src/libcore/ops/arith.rs:100
  10:	ec53 2b10 	vmov	r2, r3, d0
  14:	f7ff fffe 	bl	0 <__aeabi_dadd>
  18:	ec41 0b10 	vmov	d0, r0, r1
_ZN4core4iter6traits8iterator8Iterator8try_fold17heb4049a0f96ffbf8E():
/rustc/412f43ac5b4ae8c3599e71c6972112e9be4758fa/src/libcore/iter/traits/iterator.rs:1709
  1c:	3d40      	subs	r5, #64	; 0x40
_ZN4core3ptr33_$LT$impl$u20$$BP$const$u20$T$GT$6offset17hff6bbb558ff16382E():
/rustc/412f43ac5b4ae8c3599e71c6972112e9be4758fa/src/libcore/ptr/mod.rs:1181
  1e:	3440      	adds	r4, #64	; 0x40
  20:	e7f1      	b.n	6 <<core::iter::adapters::Map<I,F> as core::iter::traits::iterator::Iterator>::fold+0x6>
_ZN97_$LT$core..iter..adapters..Map$LT$I$C$F$GT$$u20$as$u20$core..iter..traits..iterator..Iterator$GT$4fold17hbd3dc5733aeae539E():
/rustc/412f43ac5b4ae8c3599e71c6972112e9be4758fa/src/libcore/iter/adapters/mod.rs:738
  22:	bdb0      	pop	{r4, r5, r7, pc}

Disassembly of section .text._ZN3app11app_network21aggregate_sensor_data17h9ee79c2b33ea7248E:

00000000 <app::app_network::aggregate_sensor_data>:
_ZN3app11app_network21aggregate_sensor_data17h9ee79c2b33ea7248E():
c:\stm32bluepill-mynewt-sensor/rust\app\src/app_network.rs:59
        send_sensor_data(&transmit_value)
    }
}

#[cfg(not(feature = "use_float"))]  //  If floating-point and geolocation are disabled, send sensor data without geolocation
pub fn aggregate_sensor_data(sensor_value: &SensorValue) -> MynewtResult<()>  {  //  Returns an error code upon error.
   0:	e92d 4ff0 	stmdb	sp!, {r4, r5, r6, r7, r8, r9, sl, fp, lr}
   4:	b093      	sub	sp, #76	; 0x4c
   6:	4604      	mov	r4, r0
_ZN3app11app_network16send_sensor_data17h54249d52daa36f80E():
c:\stm32bluepill-mynewt-sensor/rust\app\src/app_network.rs:76
///   {"key":"t",      "value":1715, "geo": { "lat": ..., "long": ... }},
///   {"key":"device", "value":"0102030405060708090a0b0c0d0e0f10"}
/// ]}
/// ```
fn send_sensor_data(val: &SensorValue) -> MynewtResult<()>  {  //  Returns an error code upon error.
    console::print("Rust send_sensor_data: ");
   8:	4887      	ldr	r0, [pc, #540]	; (228 <app::app_network::aggregate_sensor_data+0x228>)
   a:	2117      	movs	r1, #23
   c:	f7ff fffe 	bl	0 <mynewt::sys::console::print>
c:\stm32bluepill-mynewt-sensor/rust\app\src/app_network.rs:77
    if let SensorValueType::Uint(i) = val.value {
  10:	6867      	ldr	r7, [r4, #4]
  12:	2f01      	cmp	r7, #1
  14:	d10a      	bne.n	2c <app::app_network::aggregate_sensor_data+0x2c>
c:\stm32bluepill-mynewt-sensor/rust\app\src/app_network.rs:78
        console::print_strn(val.key);
  16:	6820      	ldr	r0, [r4, #0]
c:\stm32bluepill-mynewt-sensor/rust\app\src/app_network.rs:77
    if let SensorValueType::Uint(i) = val.value {
  18:	68a5      	ldr	r5, [r4, #8]
c:\stm32bluepill-mynewt-sensor/rust\app\src/app_network.rs:78
        console::print_strn(val.key);
  1a:	f7ff fffe 	bl	0 <mynewt::sys::console::print_strn>
c:\stm32bluepill-mynewt-sensor/rust\app\src/app_network.rs:79
        console::print("=");
  1e:	4883      	ldr	r0, [pc, #524]	; (22c <app::app_network::aggregate_sensor_data+0x22c>)
  20:	2101      	movs	r1, #1
  22:	f7ff fffe 	bl	0 <mynewt::sys::console::print>
c:\stm32bluepill-mynewt-sensor/rust\app\src/app_network.rs:80
        console::printint(i as i32);
  26:	4628      	mov	r0, r5
  28:	f7ff fffe 	bl	0 <mynewt::sys::console::printint>
c:\stm32bluepill-mynewt-sensor/rust\app\src/app_network.rs:82
    }
    console::print("\n");
  2c:	4880      	ldr	r0, [pc, #512]	; (230 <app::app_network::aggregate_sensor_data+0x230>)
  2e:	2101      	movs	r1, #1
  30:	f7ff fffe 	bl	0 <mynewt::sys::console::print>
c:\stm32bluepill-mynewt-sensor/rust\app\src/app_network.rs:83
    console::flush(); ////
  34:	f7ff fffe 	bl	0 <mynewt::sys::console::flush>
  38:	a808      	add	r0, sp, #32
c:\stm32bluepill-mynewt-sensor/rust\app\src/app_network.rs:86

    //  Get a randomly-generated device ID that changes each time we restart the device.
    let device_id = sensor_network::get_device_id() ? ;
  3a:	f7ff fffe 	bl	0 <mynewt::libs::sensor_network::get_device_id>
_ZN73_$LT$core..result..Result$LT$T$C$E$GT$$u20$as$u20$core..ops..try..Try$GT$11into_result17hd8ab28294f82d0b6E():
/rustc/412f43ac5b4ae8c3599e71c6972112e9be4758fa/src/libcore/result.rs:1462
  3e:	e9dd 1008 	ldrd	r1, r0, [sp, #32]
_ZN3app11app_network16send_sensor_data17h54249d52daa36f80E():
c:\stm32bluepill-mynewt-sensor/rust\app\src/app_network.rs:86
  42:	2901      	cmp	r1, #1
  44:	f000 80dc 	beq.w	200 <app::app_network::aggregate_sensor_data+0x200>
  48:	e9dd 120a 	ldrd	r1, r2, [sp, #40]	; 0x28
  4c:	ab05      	add	r3, sp, #20
  4e:	c307      	stmia	r3!, {r0, r1, r2}
  50:	ad08      	add	r5, sp, #32
c:\stm32bluepill-mynewt-sensor/rust\app\src/app_network.rs:91

    //  Start composing the CoAP Server message with the sensor data in the payload.  This will 
    //  block other tasks from composing and posting CoAP messages (through a semaphore).
    //  We only have 1 memory buffer for composing CoAP messages so it needs to be locked.
    let rc = sensor_network::init_server_post( strn!(()) ) ? ;  //  `strn!(())` means use default CoAP URI in `syscfg.yml`
  52:	2201      	movs	r2, #1
  54:	4977      	ldr	r1, [pc, #476]	; (234 <app::app_network::aggregate_sensor_data+0x234>)
  56:	4628      	mov	r0, r5
  58:	f7ff fffe 	bl	0 <mynewt::Strn::new>
  5c:	a810      	add	r0, sp, #64	; 0x40
  5e:	4629      	mov	r1, r5
  60:	f7ff fffe 	bl	0 <mynewt::libs::sensor_network::init_server_post>
_ZN73_$LT$core..result..Result$LT$T$C$E$GT$$u20$as$u20$core..ops..try..Try$GT$11into_result17h555dd03ce9529b3cE():
/rustc/412f43ac5b4ae8c3599e71c6972112e9be4758fa/src/libcore/result.rs:1462
  64:	9810      	ldr	r0, [sp, #64]	; 0x40
  66:	b2c1      	uxtb	r1, r0
_ZN3app11app_network16send_sensor_data17h54249d52daa36f80E():
c:\stm32bluepill-mynewt-sensor/rust\app\src/app_network.rs:91
  68:	2901      	cmp	r1, #1
  6a:	d101      	bne.n	70 <app::app_network::aggregate_sensor_data+0x70>
  6c:	9811      	ldr	r0, [sp, #68]	; 0x44
  6e:	e0c7      	b.n	200 <app::app_network::aggregate_sensor_data+0x200>
c:\stm32bluepill-mynewt-sensor/rust\app\src/app_network.rs:94

    //  If network transport not ready, tell caller (Sensor Listener) to try again later.
    if !rc { return Err(MynewtError::SYS_EAGAIN); }
  70:	f410 4f7f 	tst.w	r0, #65280	; 0xff00
  74:	d07c      	beq.n	170 <app::app_network::aggregate_sensor_data+0x170>
  76:	a808      	add	r0, sp, #32
c:\stm32bluepill-mynewt-sensor/rust\app\src/app_network.rs:98

    //  Compose the CoAP Payload using the coap!() macro.
    //  Select @json or @cbor To encode CoAP Payload in JSON or CBOR format.
    let _payload = coap!( @json {        
  78:	2132      	movs	r1, #50	; 0x32
  7a:	f7ff fffe 	bl	0 <mynewt::libs::sensor_network::prepare_post>
_ZN73_$LT$core..result..Result$LT$T$C$E$GT$$u20$as$u20$core..ops..try..Try$GT$11into_result17h555dd03ce9529b3cE():
/rustc/412f43ac5b4ae8c3599e71c6972112e9be4758fa/src/libcore/result.rs:1462
  7e:	9808      	ldr	r0, [sp, #32]
  80:	b2c0      	uxtb	r0, r0
_ZN3app11app_network16send_sensor_data17h54249d52daa36f80E():
c:\stm32bluepill-mynewt-sensor/rust\app\src/app_network.rs:98
  82:	2801      	cmp	r0, #1
  84:	f000 80bb 	beq.w	1fe <app::app_network::aggregate_sensor_data+0x1fe>
  88:	f7ff fffe 	bl	0 <json_rep_start_root_object>
  8c:	4d6a      	ldr	r5, [pc, #424]	; (238 <app::app_network::aggregate_sensor_data+0x238>)
  8e:	4628      	mov	r0, r5
  90:	f7ff fffe 	bl	0 <mynewt::encoding::coap_context::CoapContext::to_void_ptr>
  94:	4969      	ldr	r1, [pc, #420]	; (23c <app::app_network::aggregate_sensor_data+0x23c>)
  96:	4606      	mov	r6, r0
  98:	4628      	mov	r0, r5
  9a:	2207      	movs	r2, #7
  9c:	f7ff fffe 	bl	0 <mynewt::encoding::coap_context::CoapContext::key_to_cstr>
  a0:	4601      	mov	r1, r0
  a2:	4630      	mov	r0, r6
  a4:	f7ff fffe 	bl	0 <json_helper_set_array>
  a8:	2f00      	cmp	r7, #0
  aa:	d064      	beq.n	176 <app::app_network::aggregate_sensor_data+0x176>
  ac:	e9d4 9002 	ldrd	r9, r0, [r4, #8]
  b0:	220d      	movs	r2, #13
  b2:	f8df a184 	ldr.w	sl, [pc, #388]	; 238 <app::app_network::aggregate_sensor_data+0x238>
  b6:	4962      	ldr	r1, [pc, #392]	; (240 <app::app_network::aggregate_sensor_data+0x240>)
  b8:	f8df 8188 	ldr.w	r8, [pc, #392]	; 244 <app::app_network::aggregate_sensor_data+0x244>
  bc:	9004      	str	r0, [sp, #16]
  be:	6920      	ldr	r0, [r4, #16]
  c0:	9003      	str	r0, [sp, #12]
  c2:	4650      	mov	r0, sl
  c4:	47c0      	blx	r8
  c6:	f7ff fffe 	bl	0 <json_helper_object_array_start_item>
  ca:	485f      	ldr	r0, [pc, #380]	; (248 <app::app_network::aggregate_sensor_data+0x248>)
  cc:	2103      	movs	r1, #3
  ce:	f7ff fffe 	bl	0 <<str as mynewt::encoding::coap_context::ToBytesOptionalNull>::to_bytes_optional_nul>
  d2:	4606      	mov	r6, r0
  d4:	6820      	ldr	r0, [r4, #0]
  d6:	460f      	mov	r7, r1
  d8:	f7ff fffe 	bl	0 <<mynewt::Strn as mynewt::encoding::coap_context::ToBytesOptionalNull>::to_bytes_optional_nul>
  dc:	4604      	mov	r4, r0
  de:	4650      	mov	r0, sl
  e0:	460d      	mov	r5, r1
  e2:	f7ff fffe 	bl	0 <mynewt::encoding::coap_context::CoapContext::to_void_ptr>
  e6:	4683      	mov	fp, r0
  e8:	4650      	mov	r0, sl
  ea:	4631      	mov	r1, r6
  ec:	463a      	mov	r2, r7
  ee:	47c0      	blx	r8
  f0:	4606      	mov	r6, r0
  f2:	4650      	mov	r0, sl
  f4:	4621      	mov	r1, r4
  f6:	462a      	mov	r2, r5
  f8:	f7ff fffe 	bl	0 <mynewt::encoding::coap_context::CoapContext::value_to_cstr>
  fc:	4602      	mov	r2, r0
  fe:	4658      	mov	r0, fp
 100:	4631      	mov	r1, r6
 102:	f7ff fffe 	bl	0 <json_helper_set_text_string>
 106:	4851      	ldr	r0, [pc, #324]	; (24c <app::app_network::aggregate_sensor_data+0x24c>)
 108:	2105      	movs	r1, #5
 10a:	f7ff fffe 	bl	0 <<str as mynewt::encoding::coap_context::ToBytesOptionalNull>::to_bytes_optional_nul>
 10e:	4604      	mov	r4, r0
 110:	4650      	mov	r0, sl
 112:	460d      	mov	r5, r1
 114:	f7ff fffe 	bl	0 <mynewt::encoding::coap_context::CoapContext::to_void_ptr>
 118:	4606      	mov	r6, r0
 11a:	4650      	mov	r0, sl
 11c:	4621      	mov	r1, r4
 11e:	462a      	mov	r2, r5
 120:	47c0      	blx	r8
 122:	4601      	mov	r1, r0
 124:	4630      	mov	r0, r6
 126:	464a      	mov	r2, r9
 128:	2300      	movs	r3, #0
 12a:	f7ff fffe 	bl	0 <json_helper_set_int>
 12e:	ac0d      	add	r4, sp, #52	; 0x34
 130:	4947      	ldr	r1, [pc, #284]	; (250 <app::app_network::aggregate_sensor_data+0x250>)
 132:	4f48      	ldr	r7, [pc, #288]	; (254 <app::app_network::aggregate_sensor_data+0x254>)
 134:	2204      	movs	r2, #4
 136:	4620      	mov	r0, r4
 138:	47b8      	blx	r7
 13a:	ad10      	add	r5, sp, #64	; 0x40
 13c:	4946      	ldr	r1, [pc, #280]	; (258 <app::app_network::aggregate_sensor_data+0x258>)
 13e:	2204      	movs	r2, #4
 140:	4628      	mov	r0, r5
 142:	47b8      	blx	r7
 144:	ae08      	add	r6, sp, #32
 146:	4945      	ldr	r1, [pc, #276]	; (25c <app::app_network::aggregate_sensor_data+0x25c>)
 148:	2205      	movs	r2, #5
 14a:	4630      	mov	r0, r6
 14c:	47b8      	blx	r7
 14e:	9804      	ldr	r0, [sp, #16]
 150:	4621      	mov	r1, r4
 152:	9000      	str	r0, [sp, #0]
 154:	462a      	mov	r2, r5
 156:	9803      	ldr	r0, [sp, #12]
 158:	4633      	mov	r3, r6
 15a:	9001      	str	r0, [sp, #4]
 15c:	4650      	mov	r0, sl
 15e:	f7ff fffe 	bl	0 <mynewt::encoding::coap_context::CoapContext::json_set_geolocation>
 162:	4937      	ldr	r1, [pc, #220]	; (240 <app::app_network::aggregate_sensor_data+0x240>)
 164:	4650      	mov	r0, sl
 166:	220d      	movs	r2, #13
 168:	47c0      	blx	r8
 16a:	f7ff fffe 	bl	0 <json_helper_object_array_end_item>
 16e:	e006      	b.n	17e <app::app_network::aggregate_sensor_data+0x17e>
 170:	f06f 0405 	mvn.w	r4, #5
 174:	e047      	b.n	206 <app::app_network::aggregate_sensor_data+0x206>
 176:	4830      	ldr	r0, [pc, #192]	; (238 <app::app_network::aggregate_sensor_data+0x238>)
 178:	2101      	movs	r1, #1
 17a:	f7ff fffe 	bl	0 <mynewt::encoding::coap_context::CoapContext::fail>
 17e:	4c2e      	ldr	r4, [pc, #184]	; (238 <app::app_network::aggregate_sensor_data+0x238>)
 180:	220d      	movs	r2, #13
 182:	f8df 90bc 	ldr.w	r9, [pc, #188]	; 240 <app::app_network::aggregate_sensor_data+0x240>
 186:	f8df 80bc 	ldr.w	r8, [pc, #188]	; 244 <app::app_network::aggregate_sensor_data+0x244>
 18a:	4620      	mov	r0, r4
 18c:	4649      	mov	r1, r9
 18e:	47c0      	blx	r8
 190:	f7ff fffe 	bl	0 <json_helper_object_array_start_item>
 194:	ae10      	add	r6, sp, #64	; 0x40
 196:	4932      	ldr	r1, [pc, #200]	; (260 <app::app_network::aggregate_sensor_data+0x260>)
 198:	4d2e      	ldr	r5, [pc, #184]	; (254 <app::app_network::aggregate_sensor_data+0x254>)
 19a:	2204      	movs	r2, #4
 19c:	4630      	mov	r0, r6
 19e:	47a8      	blx	r5
 1a0:	af08      	add	r7, sp, #32
 1a2:	4930      	ldr	r1, [pc, #192]	; (264 <app::app_network::aggregate_sensor_data+0x264>)
 1a4:	2207      	movs	r2, #7
 1a6:	4638      	mov	r0, r7
 1a8:	47a8      	blx	r5
 1aa:	4620      	mov	r0, r4
 1ac:	4631      	mov	r1, r6
 1ae:	463a      	mov	r2, r7
 1b0:	f7ff fffe 	bl	0 <mynewt::encoding::coap_context::CoapContext::json_set_text_string>
 1b4:	ae08      	add	r6, sp, #32
 1b6:	492c      	ldr	r1, [pc, #176]	; (268 <app::app_network::aggregate_sensor_data+0x268>)
 1b8:	2206      	movs	r2, #6
 1ba:	4630      	mov	r0, r6
 1bc:	47a8      	blx	r5
 1be:	aa05      	add	r2, sp, #20
 1c0:	4620      	mov	r0, r4
 1c2:	4631      	mov	r1, r6
 1c4:	f7ff fffe 	bl	0 <mynewt::encoding::coap_context::CoapContext::json_set_text_string>
 1c8:	4620      	mov	r0, r4
 1ca:	4649      	mov	r1, r9
 1cc:	220d      	movs	r2, #13
 1ce:	47c0      	blx	r8
 1d0:	f7ff fffe 	bl	0 <json_helper_object_array_end_item>
 1d4:	4620      	mov	r0, r4
 1d6:	f7ff fffe 	bl	0 <mynewt::encoding::coap_context::CoapContext::to_void_ptr>
 1da:	4918      	ldr	r1, [pc, #96]	; (23c <app::app_network::aggregate_sensor_data+0x23c>)
 1dc:	4605      	mov	r5, r0
 1de:	4620      	mov	r0, r4
 1e0:	2207      	movs	r2, #7
 1e2:	47c0      	blx	r8
 1e4:	4601      	mov	r1, r0
 1e6:	4628      	mov	r0, r5
 1e8:	f7ff fffe 	bl	0 <json_helper_close_array>
 1ec:	f7ff fffe 	bl	0 <json_rep_end_root_object>
 1f0:	a808      	add	r0, sp, #32
c:\stm32bluepill-mynewt-sensor/rust\app\src/app_network.rs:113
    });

    //  Post the CoAP Server message to the CoAP Background Task for transmission.  After posting the
    //  message to the background task, we release a semaphore that unblocks other requests
    //  to compose and post CoAP messages.
    sensor_network::do_server_post() ? ;
 1f2:	f7ff fffe 	bl	0 <mynewt::libs::sensor_network::do_server_post>
_ZN73_$LT$core..result..Result$LT$T$C$E$GT$$u20$as$u20$core..ops..try..Try$GT$11into_result17h555dd03ce9529b3cE():
/rustc/412f43ac5b4ae8c3599e71c6972112e9be4758fa/src/libcore/result.rs:1462
 1f6:	9808      	ldr	r0, [sp, #32]
 1f8:	b2c0      	uxtb	r0, r0
_ZN3app11app_network16send_sensor_data17h54249d52daa36f80E():
c:\stm32bluepill-mynewt-sensor/rust\app\src/app_network.rs:113
 1fa:	2801      	cmp	r0, #1
 1fc:	d107      	bne.n	20e <app::app_network::aggregate_sensor_data+0x20e>
 1fe:	9809      	ldr	r0, [sp, #36]	; 0x24
 200:	f7ff fffe 	bl	0 <<T as core::convert::From<T>>::from>
 204:	4604      	mov	r4, r0
_ZN3app11app_network21aggregate_sensor_data17h9ee79c2b33ea7248E():
c:\stm32bluepill-mynewt-sensor/rust\app\src/app_network.rs:62
}
 206:	4620      	mov	r0, r4
 208:	b013      	add	sp, #76	; 0x4c
 20a:	e8bd 8ff0 	ldmia.w	sp!, {r4, r5, r6, r7, r8, r9, sl, fp, pc}
_ZN3app11app_network16send_sensor_data17h54249d52daa36f80E():
c:\stm32bluepill-mynewt-sensor/rust\app\src/app_network.rs:116

    //  Display the URL with the random device ID for viewing the sensor data.
    console::print("NET view your sensor at \nhttps://blue-pill-geolocate.appspot.com?device=");
 20e:	4817      	ldr	r0, [pc, #92]	; (26c <app::app_network::aggregate_sensor_data+0x26c>)
 210:	2148      	movs	r1, #72	; 0x48
 212:	f7ff fffe 	bl	0 <mynewt::sys::console::print>
 216:	a805      	add	r0, sp, #20
c:\stm32bluepill-mynewt-sensor/rust\app\src/app_network.rs:117
    console::print_strn(&device_id); console::print("\n");
 218:	f7ff fffe 	bl	0 <mynewt::sys::console::print_strn>
 21c:	4804      	ldr	r0, [pc, #16]	; (230 <app::app_network::aggregate_sensor_data+0x230>)
 21e:	2101      	movs	r1, #1
 220:	2401      	movs	r4, #1
 222:	f7ff fffe 	bl	0 <mynewt::sys::console::print>
 226:	e7ee      	b.n	ffffffe0 <.Lanon.198329b7968f6971950ed35b54bc5eea.88+0xffffffb0>
	...

Disassembly of section .text._ZN3app12touch_sensor23touch_interrupt_handler17h8ab5f25d51710e90E:

00000000 <app::touch_sensor::touch_interrupt_handler>:
_ZN3app12touch_sensor23touch_interrupt_handler17h8ab5f25d51710e90E():
c:\stm32bluepill-mynewt-sensor/rust\app\src/touch_sensor.rs:71
    unsafe { hal::hal_gpio_irq_enable(TOUCH_INTERRUPT_PIN) };
    Ok(())
}

/// Interrupt handler for the touch controller, triggered when a touch is detected
extern "C" fn touch_interrupt_handler(arg: *mut core::ffi::c_void) {
   0:	b5bc      	push	{r2, r3, r4, r5, r7, lr}
c:\stm32bluepill-mynewt-sensor/rust\app\src/touch_sensor.rs:73
    //  We forward a touch event to the Default Event Queue for deferred processing.  Don't do any processing here.
    unsafe { TOUCH_EVENT.ev_arg = arg };
   2:	4c07      	ldr	r4, [pc, #28]	; (20 <app::touch_sensor::touch_interrupt_handler+0x20>)
   4:	466d      	mov	r5, sp
   6:	60a0      	str	r0, [r4, #8]
c:\stm32bluepill-mynewt-sensor/rust\app\src/touch_sensor.rs:75
    //  Fetch the Default Event Queue. TODO: Use dedicated Event Queue for higher priority processing.
    let queue = os::eventq_dflt_get()
   8:	4628      	mov	r0, r5
   a:	f7ff fffe 	bl	0 <mynewt::kernel::os::eventq_dflt_get>
   e:	4628      	mov	r0, r5
  10:	f7ff fffe 	bl	0 <app::touch_sensor::touch_interrupt_handler>
c:\stm32bluepill-mynewt-sensor/rust\app\src/touch_sensor.rs:77
        .expect("GET fail");
	unsafe { os::os_eventq_put(queue, &mut TOUCH_EVENT) };  //  Trigger the callback function `touch_event_callback()`
  14:	4621      	mov	r1, r4
  16:	e8bd 40bc 	ldmia.w	sp!, {r2, r3, r4, r5, r7, lr}
  1a:	f7ff bffe 	b.w	0 <os_eventq_put>
  1e:	bf00      	nop
  20:	00000000 	.word	0x00000000

Disassembly of section .text._ZN3app12touch_sensor20touch_event_callback17h6c25c08948192f4fE:

00000000 <app::touch_sensor::touch_event_callback>:
_ZN3app12touch_sensor20touch_event_callback17h6c25c08948192f4fE():
c:\stm32bluepill-mynewt-sensor/rust\app\src/touch_sensor.rs:81
}

/// Callback for the touch event that is triggered when a touch is detected
extern "C" fn touch_event_callback(_event: *mut os_event) {
   0:	e92d 4ff8 	stmdb	sp!, {r3, r4, r5, r6, r7, r8, r9, sl, fp, lr}
_ZN3app12touch_sensor19read_register_range17hc4f75fdd78524821E():
c:\stm32bluepill-mynewt-sensor/rust\app\src/touch_sensor.rs:219
    //    Send the Start Condition (High to Low SDA Transition)...
    //    Followed by I2C Address (7 bits)...
    //    Followed by Write Mode (1 bit, value 0)...
    //    Followed by starting Register Number (8 bits)
    unsafe { 
        I2C_BUFFER[0] = start_register;  //  I2C Packet buffer contains starting Register Number (1 byte)
   4:	f8df b160 	ldr.w	fp, [pc, #352]	; 168 <app::touch_sensor::touch_event_callback+0x168>
   8:	2001      	movs	r0, #1
   a:	2600      	movs	r6, #0
   c:	2515      	movs	r5, #21
c:\stm32bluepill-mynewt-sensor/rust\app\src/touch_sensor.rs:224
        I2C_DATA.address = addr;         //  I2C Packet address (7 bits)
        I2C_DATA.len = I2C_BUFFER.len() as u16;     //  I2C Packet data size is 1 byte
        I2C_DATA.buffer = I2C_BUFFER.as_mut_ptr();  //  I2C Packet data points to packet buffer
    };
    let _rc1 = unsafe { hal::hal_i2c_master_write(1, &mut I2C_DATA, 1000, 0) };  //  No stop yet, must continue even if we hit an error
   e:	f44f 727a 	mov.w	r2, #1000	; 0x3e8
  12:	2300      	movs	r3, #0
c:\stm32bluepill-mynewt-sensor/rust\app\src/touch_sensor.rs:220
        I2C_DATA.address = addr;         //  I2C Packet address (7 bits)
  14:	465c      	mov	r4, fp
c:\stm32bluepill-mynewt-sensor/rust\app\src/touch_sensor.rs:221
        I2C_DATA.len = I2C_BUFFER.len() as u16;     //  I2C Packet data size is 1 byte
  16:	f8ab 000a 	strh.w	r0, [fp, #10]
c:\stm32bluepill-mynewt-sensor/rust\app\src/touch_sensor.rs:219
        I2C_BUFFER[0] = start_register;  //  I2C Packet buffer contains starting Register Number (1 byte)
  1a:	f88b 6000 	strb.w	r6, [fp]
c:\stm32bluepill-mynewt-sensor/rust\app\src/touch_sensor.rs:224
    let _rc1 = unsafe { hal::hal_i2c_master_write(1, &mut I2C_DATA, 1000, 0) };  //  No stop yet, must continue even if we hit an error
  1e:	2001      	movs	r0, #1
c:\stm32bluepill-mynewt-sensor/rust\app\src/touch_sensor.rs:222
        I2C_DATA.buffer = I2C_BUFFER.as_mut_ptr();  //  I2C Packet data points to packet buffer
  20:	f8cb b00c 	str.w	fp, [fp, #12]
c:\stm32bluepill-mynewt-sensor/rust\app\src/touch_sensor.rs:220
        I2C_DATA.address = addr;         //  I2C Packet address (7 bits)
  24:	f804 5f08 	strb.w	r5, [r4, #8]!
c:\stm32bluepill-mynewt-sensor/rust\app\src/touch_sensor.rs:224
    let _rc1 = unsafe { hal::hal_i2c_master_write(1, &mut I2C_DATA, 1000, 0) };  //  No stop yet, must continue even if we hit an error
  28:	4621      	mov	r1, r4
  2a:	f7ff fffe 	bl	0 <hal_i2c_master_write>
  2e:	203f      	movs	r0, #63	; 0x3f
c:\stm32bluepill-mynewt-sensor/rust\app\src/touch_sensor.rs:233
    //    Followed by Read Mode (1 bit, value 1)
    unsafe { 
        I2C_BUFFER[0] = 0x00;     //  I2C Packet buffer should be empty (provided by caller)
        I2C_DATA.address = addr;  //  I2C Packet address (7 bits)
        I2C_DATA.len = num_registers as u16;    //  I2C Packet data size is number of Registers to read
        I2C_DATA.buffer = buffer.as_mut_ptr();  //  I2C Packet data points to packet buffer
  30:	f10b 0a10 	add.w	sl, fp, #16
  34:	f8cb a00c 	str.w	sl, [fp, #12]
c:\stm32bluepill-mynewt-sensor/rust\app\src/touch_sensor.rs:237
    };
    //  Step 4: Receive the requested number of Register values from I2C Device (1 byte per register)
    //  Step 5: Send the Stop Condition (Low to High SDA Transition)
    let rc2 = unsafe { hal::hal_i2c_master_read(1, &mut I2C_DATA, 1000, 1) };
  38:	4621      	mov	r1, r4
c:\stm32bluepill-mynewt-sensor/rust\app\src/touch_sensor.rs:232
        I2C_DATA.len = num_registers as u16;    //  I2C Packet data size is number of Registers to read
  3a:	f8ab 000a 	strh.w	r0, [fp, #10]
c:\stm32bluepill-mynewt-sensor/rust\app\src/touch_sensor.rs:237
    let rc2 = unsafe { hal::hal_i2c_master_read(1, &mut I2C_DATA, 1000, 1) };
  3e:	2001      	movs	r0, #1
  40:	f44f 727a 	mov.w	r2, #1000	; 0x3e8
  44:	2301      	movs	r3, #1
c:\stm32bluepill-mynewt-sensor/rust\app\src/touch_sensor.rs:231
        I2C_DATA.address = addr;  //  I2C Packet address (7 bits)
  46:	7025      	strb	r5, [r4, #0]
c:\stm32bluepill-mynewt-sensor/rust\app\src/touch_sensor.rs:230
        I2C_BUFFER[0] = 0x00;     //  I2C Packet buffer should be empty (provided by caller)
  48:	f88b 6000 	strb.w	r6, [fp]
c:\stm32bluepill-mynewt-sensor/rust\app\src/touch_sensor.rs:237
    let rc2 = unsafe { hal::hal_i2c_master_read(1, &mut I2C_DATA, 1000, 1) };
  4c:	f7ff fffe 	bl	0 <hal_i2c_master_read>
c:\stm32bluepill-mynewt-sensor/rust\app\src/touch_sensor.rs:238
    if rc2 == hal::HAL_I2C_ERR_ADDR_NACK as i32 {
  50:	2804      	cmp	r0, #4
  52:	f000 8083 	beq.w	15c <app::touch_sensor::touch_event_callback+0x15c>
_ZN3app12touch_sensor14read_touchdata17h280c2e52b8949768E():
c:\stm32bluepill-mynewt-sensor/rust\app\src/touch_sensor.rs:111
    *data = fill_zero!(TouchEventInfo);
  56:	4c45      	ldr	r4, [pc, #276]	; (16c <app::touch_sensor::touch_event_callback+0x16c>)
  58:	2150      	movs	r1, #80	; 0x50
  5a:	4620      	mov	r0, r4
  5c:	f7ff fffe 	bl	0 <__aeabi_memclr4>
c:\stm32bluepill-mynewt-sensor/rust\app\src/touch_sensor.rs:112
    data.point_num = unsafe { buf[FT_TOUCH_POINT_NUM] & 0x0F };
  60:	f89b 0012 	ldrb.w	r0, [fp, #18]
c:\stm32bluepill-mynewt-sensor/rust\app\src/touch_sensor.rs:116
    for i in 0..CFG_MAX_TOUCH_POINTS {
  64:	2105      	movs	r1, #5
c:\stm32bluepill-mynewt-sensor/rust\app\src/touch_sensor.rs:113
    data.count     = 0;
  66:	f884 6050 	strb.w	r6, [r4, #80]	; 0x50
  6a:	f04f 0905 	mov.w	r9, #5
c:\stm32bluepill-mynewt-sensor/rust\app\src/touch_sensor.rs:112
    data.point_num = unsafe { buf[FT_TOUCH_POINT_NUM] & 0x0F };
  6e:	f000 000f 	and.w	r0, r0, #15
  72:	f884 0051 	strb.w	r0, [r4, #81]	; 0x51
c:\stm32bluepill-mynewt-sensor/rust\app\src/touch_sensor.rs:116
    for i in 0..CFG_MAX_TOUCH_POINTS {
  76:	2000      	movs	r0, #0
  78:	f7ff fffe 	bl	0 <<I as core::iter::traits::collect::IntoIterator>::into_iter>
  7c:	4606      	mov	r6, r0
  7e:	4688      	mov	r8, r1
_ZN4core4iter5range101_$LT$impl$u20$core..iter..traits..iterator..Iterator$u20$for$u20$core..ops..range..Range$LT$A$GT$$GT$4next17h10fe0157bab53b62E():
/rustc/412f43ac5b4ae8c3599e71c6972112e9be4758fa/src/libcore/iter/range.rs:210
  80:	4546      	cmp	r6, r8
  82:	d250      	bcs.n	126 <app::touch_sensor::touch_event_callback+0x126>
_ZN49_$LT$usize$u20$as$u20$core..iter..range..Step$GT$9add_usize17he729227240badbfbE():
/rustc/412f43ac5b4ae8c3599e71c6972112e9be4758fa/src/libcore/iter/range.rs:93
  84:	2001      	movs	r0, #1
  86:	f7ff fffe 	bl	0 <<T as core::convert::TryFrom<U>>::try_from>
_ZN4core3num23_$LT$impl$u20$usize$GT$15overflowing_add17hb6cb2773734e33b8E():
/rustc/412f43ac5b4ae8c3599e71c6972112e9be4758fa/src/libcore/num/mod.rs:3365
  8a:	1980      	adds	r0, r0, r6
_ZN4core4iter5range101_$LT$impl$u20$core..iter..traits..iterator..Iterator$u20$for$u20$core..ops..range..Range$LT$A$GT$$GT$4next17h10fe0157bab53b62E():
/rustc/412f43ac5b4ae8c3599e71c6972112e9be4758fa/src/libcore/iter/range.rs:215
  8c:	d24b      	bcs.n	126 <app::touch_sensor::touch_event_callback+0x126>
_ZN3app12touch_sensor14read_touchdata17h280c2e52b8949768E():
c:\stm32bluepill-mynewt-sensor/rust\app\src/touch_sensor.rs:117
        let pointid = unsafe { buf[HYN_TOUCH_ID_POS + HYN_TOUCH_STEP * i] } >> 4;
  8e:	eb06 0246 	add.w	r2, r6, r6, lsl #1
  92:	eb09 0142 	add.w	r1, r9, r2, lsl #1
  96:	293e      	cmp	r1, #62	; 0x3e
  98:	d84f      	bhi.n	13a <app::touch_sensor::touch_event_callback+0x13a>
  9a:	4459      	add	r1, fp
  9c:	7c0b      	ldrb	r3, [r1, #16]
c:\stm32bluepill-mynewt-sensor/rust\app\src/touch_sensor.rs:118
        if pointid >= HYN_MAX_ID { break; }
  9e:	2bef      	cmp	r3, #239	; 0xef
  a0:	d841      	bhi.n	126 <app::touch_sensor::touch_event_callback+0x126>
c:\stm32bluepill-mynewt-sensor/rust\app\src/touch_sensor.rs:121
        data.count += 1;
  a2:	f894 1050 	ldrb.w	r1, [r4, #80]	; 0x50
  a6:	0052      	lsls	r2, r2, #1
  a8:	3101      	adds	r1, #1
  aa:	f884 1050 	strb.w	r1, [r4, #80]	; 0x50
c:\stm32bluepill-mynewt-sensor/rust\app\src/touch_sensor.rs:122
        let x_high = unsafe { buf[HYN_TOUCH_X_H_POS + HYN_TOUCH_STEP * i] & 0x0F } as u16;
  ae:	1cd1      	adds	r1, r2, #3
  b0:	293e      	cmp	r1, #62	; 0x3e
  b2:	d844      	bhi.n	13e <app::touch_sensor::touch_event_callback+0x13e>
c:\stm32bluepill-mynewt-sensor/rust\app\src/touch_sensor.rs:124
        data.touches[i].x  = (x_high << 8) | x_low;
  b4:	2e09      	cmp	r6, #9
  b6:	d844      	bhi.n	142 <app::touch_sensor::touch_event_callback+0x142>
c:\stm32bluepill-mynewt-sensor/rust\app\src/touch_sensor.rs:122
        let x_high = unsafe { buf[HYN_TOUCH_X_H_POS + HYN_TOUCH_STEP * i] & 0x0F } as u16;
  b8:	f81a 7001 	ldrb.w	r7, [sl, r1]
c:\stm32bluepill-mynewt-sensor/rust\app\src/touch_sensor.rs:123
        let x_low  = unsafe { buf[HYN_TOUCH_X_L_POS + HYN_TOUCH_STEP * i] } as u16;
  bc:	eb02 050a 	add.w	r5, r2, sl
  c0:	792d      	ldrb	r5, [r5, #4]
c:\stm32bluepill-mynewt-sensor/rust\app\src/touch_sensor.rs:122
        let x_high = unsafe { buf[HYN_TOUCH_X_H_POS + HYN_TOUCH_STEP * i] & 0x0F } as u16;
  c2:	f007 010f 	and.w	r1, r7, #15
c:\stm32bluepill-mynewt-sensor/rust\app\src/touch_sensor.rs:124
        data.touches[i].x  = (x_high << 8) | x_low;
  c6:	ea45 2101 	orr.w	r1, r5, r1, lsl #8
  ca:	f824 1036 	strh.w	r1, [r4, r6, lsl #3]
c:\stm32bluepill-mynewt-sensor/rust\app\src/touch_sensor.rs:127
        let y_low  = unsafe { buf[HYN_TOUCH_Y_L_POS + HYN_TOUCH_STEP * i] } as u16;
  ce:	1d91      	adds	r1, r2, #6
  d0:	293e      	cmp	r1, #62	; 0x3e
  d2:	d83a      	bhi.n	14a <app::touch_sensor::touch_event_callback+0x14a>
  d4:	4459      	add	r1, fp
c:\stm32bluepill-mynewt-sensor/rust\app\src/touch_sensor.rs:128
        data.touches[i].y  = (y_high << 8) | y_low;
  d6:	eb04 05c6 	add.w	r5, r4, r6, lsl #3
c:\stm32bluepill-mynewt-sensor/rust\app\src/touch_sensor.rs:133
        data.touches[i].finger =
  da:	091e      	lsrs	r6, r3, #4
c:\stm32bluepill-mynewt-sensor/rust\app\src/touch_sensor.rs:126
        let y_high = unsafe { buf[HYN_TOUCH_Y_H_POS + HYN_TOUCH_STEP * i] & 0x0F } as u16;
  dc:	f003 030f 	and.w	r3, r3, #15
c:\stm32bluepill-mynewt-sensor/rust\app\src/touch_sensor.rs:127
        let y_low  = unsafe { buf[HYN_TOUCH_Y_L_POS + HYN_TOUCH_STEP * i] } as u16;
  e0:	7c09      	ldrb	r1, [r1, #16]
c:\stm32bluepill-mynewt-sensor/rust\app\src/touch_sensor.rs:131
        data.touches[i].action =
  e2:	09bf      	lsrs	r7, r7, #6
c:\stm32bluepill-mynewt-sensor/rust\app\src/touch_sensor.rs:133
        data.touches[i].finger =
  e4:	716e      	strb	r6, [r5, #5]
c:\stm32bluepill-mynewt-sensor/rust\app\src/touch_sensor.rs:128
        data.touches[i].y  = (y_high << 8) | y_low;
  e6:	ea41 2103 	orr.w	r1, r1, r3, lsl #8
c:\stm32bluepill-mynewt-sensor/rust\app\src/touch_sensor.rs:131
        data.touches[i].action =
  ea:	712f      	strb	r7, [r5, #4]
c:\stm32bluepill-mynewt-sensor/rust\app\src/touch_sensor.rs:128
        data.touches[i].y  = (y_high << 8) | y_low;
  ec:	8069      	strh	r1, [r5, #2]
c:\stm32bluepill-mynewt-sensor/rust\app\src/touch_sensor.rs:138
            unsafe { buf[HYN_TOUCH_XY_POS + HYN_TOUCH_STEP * i] };  //  Can't be constant value
  ee:	1dd1      	adds	r1, r2, #7
  f0:	293e      	cmp	r1, #62	; 0x3e
  f2:	d82c      	bhi.n	14e <app::touch_sensor::touch_event_callback+0x14e>
  f4:	4459      	add	r1, fp
  f6:	7c09      	ldrb	r1, [r1, #16]
c:\stm32bluepill-mynewt-sensor/rust\app\src/touch_sensor.rs:137
        data.touches[i].pressure =
  f8:	71a9      	strb	r1, [r5, #6]
c:\stm32bluepill-mynewt-sensor/rust\app\src/touch_sensor.rs:140
            unsafe { buf[HYN_TOUCH_MISC   + HYN_TOUCH_STEP * i] } >> 4;
  fa:	f102 0108 	add.w	r1, r2, #8
  fe:	293e      	cmp	r1, #62	; 0x3e
 100:	d827      	bhi.n	152 <app::touch_sensor::touch_event_callback+0x152>
 102:	4606      	mov	r6, r0
 104:	eb0b 0001 	add.w	r0, fp, r1
 108:	7c00      	ldrb	r0, [r0, #16]
c:\stm32bluepill-mynewt-sensor/rust\app\src/touch_sensor.rs:139
        data.touches[i].area =
 10a:	0900      	lsrs	r0, r0, #4
 10c:	71e8      	strb	r0, [r5, #7]
c:\stm32bluepill-mynewt-sensor/rust\app\src/touch_sensor.rs:143
        if (data.touches[i].action == 0 || data.touches[i].action == 2)  //  If touch is down or contact
 10e:	f047 0002 	orr.w	r0, r7, #2
 112:	2802      	cmp	r0, #2
 114:	bf14      	ite	ne
 116:	2000      	movne	r0, #0
 118:	2001      	moveq	r0, #1
 11a:	2800      	cmp	r0, #0
 11c:	d0b0      	beq.n	80 <app::touch_sensor::touch_event_callback+0x80>
 11e:	f894 0051 	ldrb.w	r0, [r4, #81]	; 0x51
 122:	2800      	cmp	r0, #0
 124:	d1ac      	bne.n	80 <app::touch_sensor::touch_event_callback+0x80>
_ZN3app12touch_sensor20touch_event_callback17h6c25c08948192f4fE():
c:\stm32bluepill-mynewt-sensor/rust\app\src/touch_sensor.rs:88
        druid::show_touch(
 126:	8861      	ldrh	r1, [r4, #2]
 128:	8820      	ldrh	r0, [r4, #0]
 12a:	f7ff fffe 	bl	0 <piet_embedded_graphics::display::show_touch>
 12e:	4916      	ldr	r1, [pc, #88]	; (188 <app::touch_sensor::touch_event_callback+0x188>)
 130:	220f      	movs	r2, #15
 132:	e8bd 4ff8 	ldmia.w	sp!, {r3, r4, r5, r6, r7, r8, r9, sl, fp, lr}
 136:	f7ff bffe 	b.w	0 <app::touch_sensor::touch_event_callback>
_ZN3app12touch_sensor14read_touchdata17h280c2e52b8949768E():
c:\stm32bluepill-mynewt-sensor/rust\app\src/touch_sensor.rs:117
        let pointid = unsafe { buf[HYN_TOUCH_ID_POS + HYN_TOUCH_STEP * i] } >> 4;
 13a:	480d      	ldr	r0, [pc, #52]	; (170 <app::touch_sensor::touch_event_callback+0x170>)
 13c:	e00a      	b.n	154 <app::touch_sensor::touch_event_callback+0x154>
c:\stm32bluepill-mynewt-sensor/rust\app\src/touch_sensor.rs:122
        let x_high = unsafe { buf[HYN_TOUCH_X_H_POS + HYN_TOUCH_STEP * i] & 0x0F } as u16;
 13e:	480d      	ldr	r0, [pc, #52]	; (174 <app::touch_sensor::touch_event_callback+0x174>)
 140:	e008      	b.n	154 <app::touch_sensor::touch_event_callback+0x154>
c:\stm32bluepill-mynewt-sensor/rust\app\src/touch_sensor.rs:124
        data.touches[i].x  = (x_high << 8) | x_low;
 142:	480d      	ldr	r0, [pc, #52]	; (178 <app::touch_sensor::touch_event_callback+0x178>)
 144:	4631      	mov	r1, r6
 146:	220a      	movs	r2, #10
 148:	e005      	b.n	156 <app::touch_sensor::touch_event_callback+0x156>
c:\stm32bluepill-mynewt-sensor/rust\app\src/touch_sensor.rs:127
        let y_low  = unsafe { buf[HYN_TOUCH_Y_L_POS + HYN_TOUCH_STEP * i] } as u16;
 14a:	480c      	ldr	r0, [pc, #48]	; (17c <app::touch_sensor::touch_event_callback+0x17c>)
 14c:	e002      	b.n	154 <app::touch_sensor::touch_event_callback+0x154>
c:\stm32bluepill-mynewt-sensor/rust\app\src/touch_sensor.rs:138
            unsafe { buf[HYN_TOUCH_XY_POS + HYN_TOUCH_STEP * i] };  //  Can't be constant value
 14e:	480c      	ldr	r0, [pc, #48]	; (180 <app::touch_sensor::touch_event_callback+0x180>)
 150:	e000      	b.n	154 <app::touch_sensor::touch_event_callback+0x154>
c:\stm32bluepill-mynewt-sensor/rust\app\src/touch_sensor.rs:140
            unsafe { buf[HYN_TOUCH_MISC   + HYN_TOUCH_STEP * i] } >> 4;
 152:	480c      	ldr	r0, [pc, #48]	; (184 <app::touch_sensor::touch_event_callback+0x184>)
 154:	223f      	movs	r2, #63	; 0x3f
 156:	f7ff fffe 	bl	0 <core::panicking::panic_bounds_check>
 15a:	defe      	udf	#254	; 0xfe
_ZN3app12touch_sensor19read_register_range17hc4f75fdd78524821E():
c:\stm32bluepill-mynewt-sensor/rust\app\src/touch_sensor.rs:239
        assert!(false, "i2c fail");  //  I2C read failed
 15c:	480b      	ldr	r0, [pc, #44]	; (18c <app::touch_sensor::touch_event_callback+0x18c>)
 15e:	2108      	movs	r1, #8
 160:	4a0b      	ldr	r2, [pc, #44]	; (190 <app::touch_sensor::touch_event_callback+0x190>)
 162:	f7ff fffe 	bl	0 <core::panicking::panic>
 166:	defe      	udf	#254	; 0xfe
	...

Disassembly of section .text._ZN3app5hello10ui_builder17hcdb181e2a2155df9E:

00000000 <app::hello::ui_builder>:
_ZN3app5hello10ui_builder17hcdb181e2a2155df9E():
c:\stm32bluepill-mynewt-sensor/rust\app\src/hello.rs:31
fn ui_builder() -> impl Widget<u32> {  //  `u32` is the window state
   0:	e92d 41f0 	stmdb	sp!, {r4, r5, r6, r7, r8, lr}
   4:	f5ad 7d5c 	sub.w	sp, sp, #880	; 0x370
   8:	4604      	mov	r4, r0
   a:	2500      	movs	r5, #0
   c:	200d      	movs	r0, #13
_ZN5druid12localization24LocalizedString$LT$T$GT$3new17ha19310d7ec3a1866E():
C:\druid-embedded\druid\src/localization.rs:313
        LocalizedString {
   e:	954b      	str	r5, [sp, #300]	; 0x12c
  10:	9543      	str	r5, [sp, #268]	; 0x10c
  12:	ae02      	add	r6, sp, #8
  14:	953c      	str	r5, [sp, #240]	; 0xf0
  16:	a93a      	add	r1, sp, #232	; 0xe8
  18:	903b      	str	r0, [sp, #236]	; 0xec
_ZN3app5hello10ui_builder17hcdb181e2a2155df9E():
c:\stm32bluepill-mynewt-sensor/rust\app\src/hello.rs:34
        LocalizedString::new("hello-counter")
  1a:	2305      	movs	r3, #5
_ZN5druid12localization24LocalizedString$LT$T$GT$3new17ha19310d7ec3a1866E():
C:\druid-embedded\druid\src/localization.rs:313
  1c:	4820      	ldr	r0, [pc, #128]	; (a0 <app::hello::ui_builder+0xa0>)
_ZN3app5hello10ui_builder17hcdb181e2a2155df9E():
c:\stm32bluepill-mynewt-sensor/rust\app\src/hello.rs:34
  1e:	4a22      	ldr	r2, [pc, #136]	; (a8 <app::hello::ui_builder+0xa8>)
_ZN5druid12localization24LocalizedString$LT$T$GT$3new17ha19310d7ec3a1866E():
C:\druid-embedded\druid\src/localization.rs:313
  20:	903a      	str	r0, [sp, #232]	; 0xe8
_ZN3app5hello10ui_builder17hcdb181e2a2155df9E():
c:\stm32bluepill-mynewt-sensor/rust\app\src/hello.rs:34
  22:	4820      	ldr	r0, [pc, #128]	; (a4 <app::hello::ui_builder+0xa4>)
  24:	9000      	str	r0, [sp, #0]
  26:	4630      	mov	r0, r6
  28:	f7ff fffe 	bl	0 <app::hello::ui_builder>
_ZN5druid6widget5label14Label$LT$T$GT$3new17h62cdb1d8498f524dE():
C:\druid-embedded\druid\src\widget/label.rs:70
            id: super::get_widget_id(), ////
  2c:	f7ff fffe 	bl	0 <druid::widget::get_widget_id>
  30:	f10d 0868 	add.w	r8, sp, #104	; 0x68
_ZN3app5hello10ui_builder17hcdb181e2a2155df9E():
c:\stm32bluepill-mynewt-sensor/rust\app\src/hello.rs:42
    let button = Button::<u32>::new( ////
  34:	491d      	ldr	r1, [pc, #116]	; (ac <app::hello::ui_builder+0xac>)
  36:	4b1e      	ldr	r3, [pc, #120]	; (b0 <app::hello::ui_builder+0xb0>)
_ZN5druid6widget5label14Label$LT$T$GT$3new17h62cdb1d8498f524dE():
C:\druid-embedded\druid\src\widget/label.rs:70
  38:	4607      	mov	r7, r0
_ZN3app5hello10ui_builder17hcdb181e2a2155df9E():
c:\stm32bluepill-mynewt-sensor/rust\app\src/hello.rs:42
  3a:	4640      	mov	r0, r8
  3c:	2209      	movs	r2, #9
  3e:	f7ff fffe 	bl	0 <app::hello::ui_builder>
_ZN5druid6widget4flex6Column3new17heedd836087618e6aE():
C:\druid-embedded\druid\src\widget/flex.rs:118
            id: super::get_widget_id(), ////
  42:	f7ff fffe 	bl	0 <druid::widget::get_widget_id>
  46:	2101      	movs	r1, #1
_ZN3app5hello10ui_builder17hcdb181e2a2155df9E():
c:\stm32bluepill-mynewt-sensor/rust\app\src/hello.rs:51
    );

    //  Create a column for the UI
    let mut col = Column::new();
    //  Add the label and button widgets to the column
    col.add_child(label, 1.0); ////
  48:	e9cd 55be 	strd	r5, r5, [sp, #760]	; 0x2f8
_ZN5druid6widget4flex6Column3new17heedd836087618e6aE():
C:\druid-embedded\druid\src\widget/flex.rs:117
        Flex {
  4c:	f88d 12f4 	strb.w	r1, [sp, #756]	; 0x2f4
_ZN3app5hello10ui_builder17hcdb181e2a2155df9E():
c:\stm32bluepill-mynewt-sensor/rust\app\src/hello.rs:51
  50:	4631      	mov	r1, r6
_ZN5druid6widget4flex6Column3new17heedd836087618e6aE():
C:\druid-embedded\druid\src\widget/flex.rs:117
  52:	90bc      	str	r0, [sp, #752]	; 0x2f0
_ZN3app5hello10ui_builder17hcdb181e2a2155df9E():
c:\stm32bluepill-mynewt-sensor/rust\app\src/hello.rs:51
  54:	2260      	movs	r2, #96	; 0x60
  56:	4817      	ldr	r0, [pc, #92]	; (b4 <app::hello::ui_builder+0xb4>)
_ZN5druid6widget4flex6Column3new17heedd836087618e6aE():
C:\druid-embedded\druid\src\widget/flex.rs:117
  58:	95ba      	str	r5, [sp, #744]	; 0x2e8
_ZN3app5hello10ui_builder17hcdb181e2a2155df9E():
c:\stm32bluepill-mynewt-sensor/rust\app\src/hello.rs:51
  5a:	e9cd 50c0 	strd	r5, r0, [sp, #768]	; 0x300
  5e:	e9cd 75c2 	strd	r7, r5, [sp, #776]	; 0x308
  62:	afbe      	add	r7, sp, #760	; 0x2f8
  64:	f107 0018 	add.w	r0, r7, #24
  68:	f7ff fffe 	bl	0 <__aeabi_memcpy4>
  6c:	ae3a      	add	r6, sp, #232	; 0xe8
  6e:	ed9f 0b0a 	vldr	d0, [pc, #40]	; 98 <app::hello::ui_builder+0x98>
  72:	4639      	mov	r1, r7
  74:	4630      	mov	r0, r6
  76:	f7ff fffe 	bl	0 <app::hello::ui_builder>
c:\stm32bluepill-mynewt-sensor/rust\app\src/hello.rs:64
    col.add_child(
        Padding::new(5.0, button), 
        1.0
    );
    */
    col
  7a:	4620      	mov	r0, r4
  7c:	4631      	mov	r1, r6
  7e:	f44f 7204 	mov.w	r2, #528	; 0x210
  82:	f7ff fffe 	bl	0 <__aeabi_memcpy8>
_ZN4core3ptr18real_drop_in_place17h17726eba63f6c747E():
/rustc/412f43ac5b4ae8c3599e71c6972112e9be4758fa/src/libcore/ptr/mod.rs:181
  86:	4640      	mov	r0, r8
  88:	f7ff fffe 	bl	0 <app::hello::ui_builder>
_ZN3app5hello10ui_builder17hcdb181e2a2155df9E():
c:\stm32bluepill-mynewt-sensor/rust\app\src/hello.rs:65
}
  8c:	f50d 7d5c 	add.w	sp, sp, #880	; 0x370
  90:	e8bd 81f0 	ldmia.w	sp!, {r4, r5, r6, r7, r8, pc}
  94:	bf00      	nop
  96:	bf00      	nop
  98:	00000000 	.word	0x00000000
  9c:	3ff00000 	.word	0x3ff00000
	...
  b4:	3fe00000 	.word	0x3fe00000

Disassembly of section .text.main:

00000000 <main>:
main():
c:\stm32bluepill-mynewt-sensor/rust\app\src/lib.rs:53
};

///  Main program that initialises the sensor, network driver and starts reading and sending sensor data in the background.
///  main() will be called at Mynewt startup. It replaces the C version of the main() function.
#[no_mangle]                 //  Don't mangle the name "main"
extern "C" fn main() -> ! {  //  Declare extern "C" because it will be called by Mynewt
   0:	b0a4      	sub	sp, #144	; 0x90
c:\stm32bluepill-mynewt-sensor/rust\app\src/lib.rs:58
    //  Initialise the Mynewt packages and internal temperature sensor driver. Any startup
    //  functions defined in pkg.yml of our custom drivers and libraries will be called by 
    //  sysinit().  Here are the startup functions consolidated by Mynewt:
    //  bin/targets/nrf52_my_sensor/generated/src/nrf52_my_sensor-sysinit-app.c
    mynewt::sysinit();
   2:	f7ff fffe 	bl	0 <mynewt::sysinit>
_ZN3app10app_sensor21start_sensor_listener17hff7c72bbde1cd2b7E():
c:\stm32bluepill-mynewt-sensor/rust\app\src/app_sensor.rs:47
const TEMP_SENSOR_TYPE: sensor_type_t = sensor::SENSOR_TYPE_AMBIENT_TEMPERATURE_RAW;

///  Ask Mynewt to poll or read the temperature sensor and call `aggregate_sensor_data()`
///  Return `Ok()` if successful, else return `Err()` with `MynewtError` error code inside.
pub fn start_sensor_listener() -> MynewtResult<()>  {  //  Returns an error code upon error.
    console::print("Rust TMP poll\n");
   6:	487c      	ldr	r0, [pc, #496]	; (1f8 <main+0x1f8>)
   8:	210e      	movs	r1, #14
   a:	f7ff fffe 	bl	0 <mynewt::sys::console::print>
   e:	f10d 0928 	add.w	r9, sp, #40	; 0x28
c:\stm32bluepill-mynewt-sensor/rust\app\src/app_sensor.rs:50

    //  Fetch the sensor by name.
    let sensor = sensor_mgr::find_bydevname(&SENSOR_DEVICE)
  12:	497a      	ldr	r1, [pc, #488]	; (1fc <main+0x1fc>)
  14:	4648      	mov	r0, r9
  16:	f7ff fffe 	bl	0 <mynewt::hw::sensor_mgr::find_bydevname>
  1a:	4648      	mov	r0, r9
  1c:	f7ff fffe 	bl	0 <<mynewt::hw::sensor_mgr::SensorsByDevname as core::iter::traits::iterator::Iterator>::next>
_ZN4core6option15Option$LT$T$GT$6expect17heda65c7c355f1c89E():
/rustc/412f43ac5b4ae8c3599e71c6972112e9be4758fa/src/libcore/option.rs:346
  20:	2800      	cmp	r0, #0
  22:	f000 80a1 	beq.w	168 <main+0x168>
_ZN3app10app_sensor21start_sensor_listener17hff7c72bbde1cd2b7E():
c:\stm32bluepill-mynewt-sensor/rust\app\src/app_sensor.rs:55
        .next()             //  Fetch the first sensor that matches
        .expect("no TMP");  //  Stop if no sensor found

    //  At power on, we ask Mynewt to poll our temperature sensor every 10 seconds.
    sensor::set_poll_rate_ms(&SENSOR_DEVICE, SENSOR_POLL_TIME) ? ;
  26:	4875      	ldr	r0, [pc, #468]	; (1fc <main+0x1fc>)
  28:	4688      	mov	r8, r1
  2a:	f247 5130 	movw	r1, #30000	; 0x7530
  2e:	f7ff fffe 	bl	0 <mynewt::hw::sensor::bindings::set_poll_rate_ms>
  32:	2801      	cmp	r0, #1
  34:	d127      	bne.n	86 <main+0x86>
c:\stm32bluepill-mynewt-sensor/rust\app\src/app_sensor.rs:58

    // Create a sensor listener that will call function `aggregate_sensor_data` after polling the sensor data
    let listener = sensor::new_sensor_listener(
  36:	4973      	ldr	r1, [pc, #460]	; (204 <main+0x204>)
  38:	f04f 6280 	mov.w	r2, #67108864	; 0x4000000
  3c:	4870      	ldr	r0, [pc, #448]	; (200 <main+0x200>)
  3e:	2300      	movs	r3, #0
  40:	9000      	str	r0, [sp, #0]
  42:	4648      	mov	r0, r9
  44:	f7ff fffe 	bl	0 <mynewt::hw::sensor::new_sensor_listener>
_ZN73_$LT$core..result..Result$LT$T$C$E$GT$$u20$as$u20$core..ops..try..Try$GT$11into_result17he082ccb0c820aaa8E():
/rustc/412f43ac5b4ae8c3599e71c6972112e9be4758fa/src/libcore/result.rs:1462
  48:	f109 0a08 	add.w	sl, r9, #8
  4c:	e9dd c00a 	ldrd	ip, r0, [sp, #40]	; 0x28
  50:	f10d 0e70 	add.w	lr, sp, #112	; 0x70
  54:	e89a 00be 	ldmia.w	sl, {r1, r2, r3, r4, r5, r7}
_ZN3app10app_sensor21start_sensor_listener17hff7c72bbde1cd2b7E():
c:\stm32bluepill-mynewt-sensor/rust\app\src/app_sensor.rs:62
        &TEMP_SENSOR_KEY,   //  Transmit as field: `t`
        TEMP_SENSOR_TYPE,   //  Type of sensor data: Raw temperature (integer from 0 to 4095)
        app_network::aggregate_sensor_data  //  Call this function with the polled data: `aggregate_sensor_data`
    ) ? ;
  58:	f1bc 0f01 	cmp.w	ip, #1
_ZN73_$LT$core..result..Result$LT$T$C$E$GT$$u20$as$u20$core..ops..try..Try$GT$11into_result17he082ccb0c820aaa8E():
/rustc/412f43ac5b4ae8c3599e71c6972112e9be4758fa/src/libcore/result.rs:1462
  5c:	4676      	mov	r6, lr
  5e:	e886 00be 	stmia.w	r6, {r1, r2, r3, r4, r5, r7}
_ZN3app10app_sensor21start_sensor_listener17hff7c72bbde1cd2b7E():
c:\stm32bluepill-mynewt-sensor/rust\app\src/app_sensor.rs:62
  62:	d010      	beq.n	86 <main+0x86>
  64:	a802      	add	r0, sp, #8
c:\stm32bluepill-mynewt-sensor/rust\app\src/app_sensor.rs:58
    let listener = sensor::new_sensor_listener(
  66:	e89e 00fc 	ldmia.w	lr, {r2, r3, r4, r5, r6, r7}
  6a:	4601      	mov	r1, r0
  6c:	c1fc      	stmia	r1!, {r2, r3, r4, r5, r6, r7}
c:\stm32bluepill-mynewt-sensor/rust\app\src/app_sensor.rs:65

    //  Register the Listener Function to be called with the polled sensor data.
    sensor::register_listener(sensor, listener) ? ;  //  `?` means in case of error, return error now.
  6e:	4649      	mov	r1, r9
  70:	e890 00fc 	ldmia.w	r0, {r2, r3, r4, r5, r6, r7}
  74:	4640      	mov	r0, r8
  76:	c1fc      	stmia	r1!, {r2, r3, r4, r5, r6, r7}
  78:	4649      	mov	r1, r9
  7a:	f7ff fffe 	bl	0 <mynewt::hw::sensor::register_listener>
  7e:	2801      	cmp	r0, #1
  80:	d101      	bne.n	86 <main+0x86>
  82:	2001      	movs	r0, #1
  84:	e001      	b.n	8a <main+0x8a>
  86:	f7ff fffe 	bl	0 <<T as core::convert::From<T>>::from>
main():
c:\stm32bluepill-mynewt-sensor/rust\app\src/lib.rs:66
    //  sensor_network::start_server_transport()
    //    .expect("NET fail");

    //  Start polling the simulated temperature sensor every 10 seconds in the background.
    //  TODO: Replace by touch handler.
    app_sensor::start_sensor_listener()
  8a:	495f      	ldr	r1, [pc, #380]	; (208 <main+0x208>)
  8c:	2208      	movs	r2, #8
  8e:	f7ff fffe 	bl	0 <main>
c:\stm32bluepill-mynewt-sensor/rust\app\src/lib.rs:71
        .expect("TMP fail");

    //  Start Bluetooth Beacon.  TODO: Create a safe wrapper for starting Bluetooth LE.
    extern { fn start_ble() -> i32; }
    let rc = unsafe { start_ble() };
  92:	f7ff fffe 	bl	0 <start_ble>
c:\stm32bluepill-mynewt-sensor/rust\app\src/lib.rs:72
    assert!(rc == 0, "BLE fail");
  96:	2800      	cmp	r0, #0
  98:	d16b      	bne.n	172 <main+0x172>
c:\stm32bluepill-mynewt-sensor/rust\app\src/lib.rs:75

    //  Start the display
    druid::start_display()
  9a:	f7ff fffe 	bl	0 <piet_embedded_graphics::display::start_display>
  9e:	495d      	ldr	r1, [pc, #372]	; (214 <main+0x214>)
  a0:	2208      	movs	r2, #8
  a2:	f7ff fffe 	bl	0 <main>
_ZN3app12touch_sensor18start_touch_sensor17h3ee8fdd78dd39b4bE():
c:\stm32bluepill-mynewt-sensor/rust\app\src/touch_sensor.rs:39
    console::print("Rust touch sensor\n");
  a6:	485c      	ldr	r0, [pc, #368]	; (218 <main+0x218>)
  a8:	2112      	movs	r1, #18
  aa:	f7ff fffe 	bl	0 <mynewt::sys::console::print>
c:\stm32bluepill-mynewt-sensor/rust\app\src/touch_sensor.rs:42
    unsafe { TOUCH_RESET.init(TOUCH_RESET_PIN) ? };
  ae:	4d5b      	ldr	r5, [pc, #364]	; (21c <main+0x21c>)
  b0:	210a      	movs	r1, #10
  b2:	1d2c      	adds	r4, r5, #4
  b4:	4620      	mov	r0, r4
  b6:	f7ff fffe 	bl	0 <mynewt::hal::GPIO::init>
  ba:	2801      	cmp	r0, #1
  bc:	d12a      	bne.n	114 <main+0x114>
c:\stm32bluepill-mynewt-sensor/rust\app\src/touch_sensor.rs:46
        TOUCH_RESET.set_low() ? ;
  be:	4620      	mov	r0, r4
  c0:	f7ff fffe 	bl	0 <<mynewt::hal::GPIO as embedded_hal::digital::v2::OutputPin>::set_low>
  c4:	2801      	cmp	r0, #1
  c6:	d125      	bne.n	114 <main+0x114>
c:\stm32bluepill-mynewt-sensor/rust\app\src/touch_sensor.rs:47
        TOUCH_DELAY.delay_ms(20);
  c8:	4628      	mov	r0, r5
  ca:	2114      	movs	r1, #20
  cc:	f7ff fffe 	bl	0 <<mynewt::hal::Delay as embedded_hal::blocking::delay::DelayMs<u8>>::delay_ms>
c:\stm32bluepill-mynewt-sensor/rust\app\src/touch_sensor.rs:48
        TOUCH_RESET.set_high() ? ;
  d0:	4620      	mov	r0, r4
  d2:	f7ff fffe 	bl	0 <<mynewt::hal::GPIO as embedded_hal::digital::v2::OutputPin>::set_high>
  d6:	2801      	cmp	r0, #1
  d8:	d11c      	bne.n	114 <main+0x114>
c:\stm32bluepill-mynewt-sensor/rust\app\src/touch_sensor.rs:49
        TOUCH_DELAY.delay_ms(200); TOUCH_DELAY.delay_ms(200);    
  da:	4c50      	ldr	r4, [pc, #320]	; (21c <main+0x21c>)
  dc:	21c8      	movs	r1, #200	; 0xc8
  de:	4620      	mov	r0, r4
  e0:	f7ff fffe 	bl	0 <<mynewt::hal::Delay as embedded_hal::blocking::delay::DelayMs<u8>>::delay_ms>
  e4:	4620      	mov	r0, r4
  e6:	21c8      	movs	r1, #200	; 0xc8
  e8:	f7ff fffe 	bl	0 <<mynewt::hal::Delay as embedded_hal::blocking::delay::DelayMs<u8>>::delay_ms>
c:\stm32bluepill-mynewt-sensor/rust\app\src/touch_sensor.rs:53
    unsafe { TOUCH_EVENT.ev_cb = Some( touch_event_callback ) };
  ec:	484c      	ldr	r0, [pc, #304]	; (220 <main+0x220>)
  ee:	2401      	movs	r4, #1
  f0:	494c      	ldr	r1, [pc, #304]	; (224 <main+0x224>)
c:\stm32bluepill-mynewt-sensor/rust\app\src/touch_sensor.rs:56
    let rc = unsafe { hal::hal_gpio_irq_init(
  f2:	2200      	movs	r2, #0
  f4:	2302      	movs	r3, #2
  f6:	9400      	str	r4, [sp, #0]
c:\stm32bluepill-mynewt-sensor/rust\app\src/touch_sensor.rs:53
    unsafe { TOUCH_EVENT.ev_cb = Some( touch_event_callback ) };
  f8:	6041      	str	r1, [r0, #4]
c:\stm32bluepill-mynewt-sensor/rust\app\src/touch_sensor.rs:56
    let rc = unsafe { hal::hal_gpio_irq_init(
  fa:	201c      	movs	r0, #28
  fc:	494a      	ldr	r1, [pc, #296]	; (228 <main+0x228>)
  fe:	2500      	movs	r5, #0
 100:	f7ff fffe 	bl	0 <hal_gpio_irq_init>
c:\stm32bluepill-mynewt-sensor/rust\app\src/touch_sensor.rs:63
    assert_eq!(rc, 0, "IRQ init fail");
 104:	2800      	cmp	r0, #0
c:\stm32bluepill-mynewt-sensor/rust\app\src/touch_sensor.rs:56
    let rc = unsafe { hal::hal_gpio_irq_init(
 106:	9001      	str	r0, [sp, #4]
c:\stm32bluepill-mynewt-sensor/rust\app\src/touch_sensor.rs:63
    assert_eq!(rc, 0, "IRQ init fail");
 108:	d144      	bne.n	194 <main+0x194>
c:\stm32bluepill-mynewt-sensor/rust\app\src/touch_sensor.rs:66
    unsafe { hal::hal_gpio_irq_enable(TOUCH_INTERRUPT_PIN) };
 10a:	201c      	movs	r0, #28
 10c:	f7ff fffe 	bl	0 <hal_gpio_irq_enable>
 110:	2001      	movs	r0, #1
 112:	e001      	b.n	118 <main+0x118>
 114:	f7ff fffe 	bl	0 <<T as core::convert::From<T>>::from>
main():
c:\stm32bluepill-mynewt-sensor/rust\app\src/lib.rs:83
    //  Test the display
    //  display::test()
    //      .expect("DSP test fail");

    //  Start the touch sensor
    touch_sensor::start_touch_sensor()
 118:	494a      	ldr	r1, [pc, #296]	; (244 <main+0x244>)
 11a:	2208      	movs	r2, #8
 11c:	f7ff fffe 	bl	0 <main>
_ZN5druid3app23WindowDesc$LT$T$C$W$GT$3new17h150ebc7945401b41E():
C:\druid-embedded\druid\src/app.rs:168
            id: WindowId::next(),
 120:	f7ff fffe 	bl	0 <druid::window::WindowId::next>
 124:	2100      	movs	r1, #0
 126:	ac0a      	add	r4, sp, #40	; 0x28
_ZN3app5hello6launch17h9511f1f07e38a04fE():
c:\stm32bluepill-mynewt-sensor/rust\app\src/hello.rs:24
    AppLauncher::with_window(main_window)
 128:	e9cd 111c 	strd	r1, r1, [sp, #112]	; 0x70
 12c:	a91c      	add	r1, sp, #112	; 0x70
 12e:	9023      	str	r0, [sp, #140]	; 0x8c
 130:	4845      	ldr	r0, [pc, #276]	; (248 <main+0x248>)
 132:	9022      	str	r0, [sp, #136]	; 0x88
 134:	4620      	mov	r0, r4
 136:	f7ff fffe 	bl	0 <main>
 13a:	a81c      	add	r0, sp, #112	; 0x70
 13c:	4621      	mov	r1, r4
 13e:	2200      	movs	r2, #0
 140:	f7ff fffe 	bl	0 <main>
_ZN4core6result19Result$LT$T$C$E$GT$6expect17he8983b3602c9da92E():
/rustc/412f43ac5b4ae8c3599e71c6972112e9be4758fa/src/libcore/result.rs:983
 144:	981c      	ldr	r0, [sp, #112]	; 0x70
 146:	2801      	cmp	r0, #1
 148:	d019      	beq.n	17e <main+0x17e>
main():
 14a:	4d40      	ldr	r5, [pc, #256]	; (24c <main+0x24c>)
 14c:	ac0a      	add	r4, sp, #40	; 0x28
c:\stm32bluepill-mynewt-sensor/rust\app\src/lib.rs:96
    hello::launch();

    //  Main event loop
    loop {                            //  Loop forever...
        os::eventq_run(               //  Processing events...
            os::eventq_dflt_get()     //  From default event queue.
 14e:	4620      	mov	r0, r4
 150:	f7ff fffe 	bl	0 <mynewt::kernel::os::eventq_dflt_get>
 154:	4620      	mov	r0, r4
 156:	f7ff fffe 	bl	0 <main>
c:\stm32bluepill-mynewt-sensor/rust\app\src/lib.rs:95
        os::eventq_run(               //  Processing events...
 15a:	f7ff fffe 	bl	0 <mynewt::kernel::os::eventq_run>
 15e:	4629      	mov	r1, r5
 160:	2208      	movs	r2, #8
 162:	f7ff fffe 	bl	0 <main>
c:\stm32bluepill-mynewt-sensor/rust\app\src/lib.rs:94
    loop {                            //  Loop forever...
 166:	e7f2      	b.n	14e <main+0x14e>
_ZN4core6option15Option$LT$T$GT$6expect17heda65c7c355f1c89E():
/rustc/412f43ac5b4ae8c3599e71c6972112e9be4758fa/src/libcore/option.rs:347
 168:	483b      	ldr	r0, [pc, #236]	; (258 <main+0x258>)
 16a:	2106      	movs	r1, #6
 16c:	f7ff fffe 	bl	0 <core::option::expect_failed>
 170:	defe      	udf	#254	; 0xfe
main():
c:\stm32bluepill-mynewt-sensor/rust\app\src/lib.rs:72
    assert!(rc == 0, "BLE fail");
 172:	4826      	ldr	r0, [pc, #152]	; (20c <main+0x20c>)
 174:	2108      	movs	r1, #8
 176:	4a26      	ldr	r2, [pc, #152]	; (210 <main+0x210>)
 178:	f7ff fffe 	bl	0 <core::panicking::panic>
 17c:	defe      	udf	#254	; 0xfe
_ZN4core6result19Result$LT$T$C$E$GT$6expect17he8983b3602c9da92E():
/rustc/412f43ac5b4ae8c3599e71c6972112e9be4758fa/src/libcore/result.rs:984
 17e:	e9dd 011d 	ldrd	r0, r1, [sp, #116]	; 0x74
 182:	aa0a      	add	r2, sp, #40	; 0x28
 184:	e9cd 010a 	strd	r0, r1, [sp, #40]	; 0x28
 188:	210d      	movs	r1, #13
 18a:	4831      	ldr	r0, [pc, #196]	; (250 <main+0x250>)
 18c:	4b31      	ldr	r3, [pc, #196]	; (254 <main+0x254>)
 18e:	f7ff fffe 	bl	0 <core::result::unwrap_failed>
 192:	defe      	udf	#254	; 0xfe
main():
 194:	a801      	add	r0, sp, #4
_ZN3app12touch_sensor18start_touch_sensor17h3ee8fdd78dd39b4bE():
c:\stm32bluepill-mynewt-sensor/rust\app\src/touch_sensor.rs:63
    assert_eq!(rc, 0, "IRQ init fail");
 196:	9008      	str	r0, [sp, #32]
 198:	4824      	ldr	r0, [pc, #144]	; (22c <main+0x22c>)
 19a:	9009      	str	r0, [sp, #36]	; 0x24
 19c:	2004      	movs	r0, #4
_ZN4core3fmt9Arguments6new_v117hfb10dfe2e46e80c7E():
/rustc/412f43ac5b4ae8c3599e71c6972112e9be4758fa/src/libcore/fmt/mod.rs:318
 19e:	950f      	str	r5, [sp, #60]	; 0x3c
 1a0:	e9cd 500d 	strd	r5, r0, [sp, #52]	; 0x34
 1a4:	e9cd 450b 	strd	r4, r5, [sp, #44]	; 0x2c
_ZN3app12touch_sensor18start_touch_sensor17h3ee8fdd78dd39b4bE():
c:\stm32bluepill-mynewt-sensor/rust\app\src/touch_sensor.rs:63
 1a8:	4c22      	ldr	r4, [pc, #136]	; (234 <main+0x234>)
_ZN4core3fmt9Arguments6new_v117hfb10dfe2e46e80c7E():
/rustc/412f43ac5b4ae8c3599e71c6972112e9be4758fa/src/libcore/fmt/mod.rs:318
 1aa:	4821      	ldr	r0, [pc, #132]	; (230 <main+0x230>)
 1ac:	900a      	str	r0, [sp, #40]	; 0x28
 1ae:	a808      	add	r0, sp, #32
_ZN3app12touch_sensor18start_touch_sensor17h3ee8fdd78dd39b4bE():
c:\stm32bluepill-mynewt-sensor/rust\app\src/touch_sensor.rs:63
 1b0:	4621      	mov	r1, r4
 1b2:	f7ff fffe 	bl	0 <core::fmt::ArgumentV1::new>
 1b6:	4680      	mov	r8, r0
 1b8:	a809      	add	r0, sp, #36	; 0x24
 1ba:	460e      	mov	r6, r1
 1bc:	4621      	mov	r1, r4
 1be:	f7ff fffe 	bl	0 <core::fmt::ArgumentV1::new>
 1c2:	460f      	mov	r7, r1
 1c4:	491c      	ldr	r1, [pc, #112]	; (238 <main+0x238>)
 1c6:	4604      	mov	r4, r0
 1c8:	a80a      	add	r0, sp, #40	; 0x28
 1ca:	f7ff fffe 	bl	0 <core::fmt::ArgumentV1::new>
 1ce:	e9cd 0120 	strd	r0, r1, [sp, #128]	; 0x80
 1d2:	a91c      	add	r1, sp, #112	; 0x70
 1d4:	2003      	movs	r0, #3
 1d6:	e9cd 471e 	strd	r4, r7, [sp, #120]	; 0x78
_ZN4core3fmt9Arguments6new_v117hfb10dfe2e46e80c7E():
/rustc/412f43ac5b4ae8c3599e71c6972112e9be4758fa/src/libcore/fmt/mod.rs:318
 1da:	9007      	str	r0, [sp, #28]
 1dc:	e9cd 5105 	strd	r5, r1, [sp, #20]
 1e0:	e9cd 0503 	strd	r0, r5, [sp, #12]
 1e4:	4815      	ldr	r0, [pc, #84]	; (23c <main+0x23c>)
_ZN3app12touch_sensor18start_touch_sensor17h3ee8fdd78dd39b4bE():
c:\stm32bluepill-mynewt-sensor/rust\app\src/touch_sensor.rs:63
 1e6:	4916      	ldr	r1, [pc, #88]	; (240 <main+0x240>)
_ZN4core3fmt9Arguments6new_v117hfb10dfe2e46e80c7E():
/rustc/412f43ac5b4ae8c3599e71c6972112e9be4758fa/src/libcore/fmt/mod.rs:318
 1e8:	9002      	str	r0, [sp, #8]
 1ea:	a802      	add	r0, sp, #8
_ZN3app12touch_sensor18start_touch_sensor17h3ee8fdd78dd39b4bE():
c:\stm32bluepill-mynewt-sensor/rust\app\src/touch_sensor.rs:63
 1ec:	e9cd 861c 	strd	r8, r6, [sp, #112]	; 0x70
 1f0:	f7ff fffe 	bl	0 <core::panicking::panic_fmt>
 1f4:	defe      	udf	#254	; 0xfe
main():
c:\stm32bluepill-mynewt-sensor/rust\app\src/touch_sensor.rs:63
 1f6:	bf00      	nop
	...

Disassembly of section .text.rust_begin_unwind:

00000000 <rust_begin_unwind>:
rust_begin_unwind():
c:\stm32bluepill-mynewt-sensor/rust\app\src/lib.rs:105
    //  Never comes here
}

///  This function is called on panic, like an assertion failure. We display the filename and line number and pause in the debugger. From https://os.phil-opp.com/freestanding-rust-binary/
#[panic_handler]
fn panic(info: &PanicInfo) -> ! {
   0:	4604      	mov	r4, r0
c:\stm32bluepill-mynewt-sensor/rust\app\src/lib.rs:107
    //  Display the filename and line number to the Semihosting Console.
    console::print("panic ");
   2:	4815      	ldr	r0, [pc, #84]	; (58 <rust_begin_unwind+0x58>)
   4:	2106      	movs	r1, #6
   6:	f7ff fffe 	bl	0 <mynewt::sys::console::print>
c:\stm32bluepill-mynewt-sensor/rust\app\src/lib.rs:108
    if let Some(location) = info.location() {
   a:	4620      	mov	r0, r4
   c:	f7ff fffe 	bl	0 <core::panic::PanicInfo::location>
  10:	b1d0      	cbz	r0, 48 <rust_begin_unwind+0x48>
  12:	4604      	mov	r4, r0
c:\stm32bluepill-mynewt-sensor/rust\app\src/lib.rs:109
        let file = location.file();
  14:	f7ff fffe 	bl	0 <core::panic::Location::file>
  18:	4605      	mov	r5, r0
c:\stm32bluepill-mynewt-sensor/rust\app\src/lib.rs:110
        let line = location.line();
  1a:	4620      	mov	r0, r4
c:\stm32bluepill-mynewt-sensor/rust\app\src/lib.rs:109
        let file = location.file();
  1c:	460e      	mov	r6, r1
c:\stm32bluepill-mynewt-sensor/rust\app\src/lib.rs:110
        let line = location.line();
  1e:	f7ff fffe 	bl	0 <core::panic::Location::line>
  22:	4604      	mov	r4, r0
c:\stm32bluepill-mynewt-sensor/rust\app\src/lib.rs:111
        console::print("at ");       console::buffer(&file);
  24:	480d      	ldr	r0, [pc, #52]	; (5c <rust_begin_unwind+0x5c>)
  26:	4f0e      	ldr	r7, [pc, #56]	; (60 <rust_begin_unwind+0x60>)
  28:	2103      	movs	r1, #3
  2a:	47b8      	blx	r7
  2c:	4628      	mov	r0, r5
  2e:	4631      	mov	r1, r6
  30:	f7ff fffe 	bl	0 <mynewt::sys::console::buffer>
c:\stm32bluepill-mynewt-sensor/rust\app\src/lib.rs:112
        console::print(" line ");    console::printint(line as i32);
  34:	480b      	ldr	r0, [pc, #44]	; (64 <rust_begin_unwind+0x64>)
  36:	2106      	movs	r1, #6
  38:	47b8      	blx	r7
  3a:	4620      	mov	r0, r4
  3c:	f7ff fffe 	bl	0 <mynewt::sys::console::printint>
c:\stm32bluepill-mynewt-sensor/rust\app\src/lib.rs:113
        console::print("\n");        console::flush();
  40:	4809      	ldr	r0, [pc, #36]	; (68 <rust_begin_unwind+0x68>)
  42:	2101      	movs	r1, #1
  44:	47b8      	blx	r7
  46:	e003      	b.n	50 <rust_begin_unwind+0x50>
c:\stm32bluepill-mynewt-sensor/rust\app\src/lib.rs:115
    } else {
        console::print("no loc\n");  console::flush();
  48:	4808      	ldr	r0, [pc, #32]	; (6c <rust_begin_unwind+0x6c>)
  4a:	2107      	movs	r1, #7
  4c:	f7ff fffe 	bl	0 <mynewt::sys::console::print>
  50:	f7ff fffe 	bl	0 <mynewt::sys::console::flush>
_ZN8cortex_m3asm4bkpt17h79319209d0fcd225E():
C:\Users\guppy\.cargo\registry\src\github.com-1ecc6299db9ec823\cortex-m-0.6.1\src/asm.rs:11
/// exception.
#[inline(always)]
pub fn bkpt() {
    match () {
        #[cfg(all(cortex_m, feature = "inline-asm"))]
        () => unsafe { asm!("bkpt" :::: "volatile") },
  54:	be00      	bkpt	0x0000
rust_begin_unwind():
c:\stm32bluepill-mynewt-sensor/rust\app\src/lib.rs:120
    }
    //  Pause in the debugger.
    bkpt();
    //  Loop forever so that device won't restart.
    loop {}
  56:	e7fe      	b.n	56 <rust_begin_unwind+0x56>
	...
arm-none-eabi-objdump: lib.rmeta: File format not recognized
arm-none-eabi-objdump: app-8021505c7b91905c.app.5t6t232x-cgu.0.rcgu.bc.z: File format not recognized
