In archive target/thumbv7em-none-eabihf/debug/libapp.rlib:

app-f507768d2039d2a9.16r4af5e5mnzgrdr.rcgu.o:     file format elf32-littlearm

SYMBOL TABLE:
00000000 l    df *ABS*	00000000 16r4af5e5mnzgrdr
000001cb l       .debug_str	00000000 
00000000 l       .debug_str	00000000 
00000041 l       .debug_str	00000000 
00000055 l       .debug_str	00000000 
00000085 l       .debug_str	00000000 
0000008c l       .debug_str	00000000 
00000093 l       .debug_str	00000000 
00000097 l       .debug_str	00000000 
0000009f l       .debug_str	00000000 
000000aa l       .debug_str	00000000 
000000b5 l       .debug_str	00000000 
000000c2 l       .debug_str	00000000 
000001ed l       .debug_str	00000000 
000000cd l       .debug_str	00000000 
000000d5 l       .debug_str	00000000 
000000e0 l       .debug_str	00000000 
000000eb l       .debug_str	00000000 
000000f5 l       .debug_str	00000000 
00000100 l       .debug_str	00000000 
0000010b l       .debug_str	00000000 
00000118 l       .debug_str	00000000 
00000124 l       .debug_str	00000000 
00000131 l       .debug_str	00000000 
0000013f l       .debug_str	00000000 
00000149 l       .debug_str	00000000 
00000156 l       .debug_str	00000000 
00000162 l       .debug_str	00000000 
00000167 l       .debug_str	00000000 
0000016f l       .debug_str	00000000 
00000178 l       .debug_str	00000000 
0000017a l       .debug_str	00000000 
00000000 l    d  .text._ZN50_$LT$T$u20$as$u20$core..convert..From$LT$T$GT$$GT$4from17h1d2680fd6b19266bE	00000000 .text._ZN50_$LT$T$u20$as$u20$core..convert..From$LT$T$GT$$GT$4from17h1d2680fd6b19266bE
00000000 l    d  .debug_abbrev	00000000 .debug_abbrev
00000000 l    d  .debug_info	00000000 .debug_info
00000000 l    d  .debug_frame	00000000 .debug_frame
00000000 l    d  .debug_line	00000000 .debug_line
00000000 g     F .text._ZN50_$LT$T$u20$as$u20$core..convert..From$LT$T$GT$$GT$4from17h1d2680fd6b19266bE	0000000e _ZN50_$LT$T$u20$as$u20$core..convert..From$LT$T$GT$$GT$4from17h1d2680fd6b19266bE



Disassembly of section .text._ZN50_$LT$T$u20$as$u20$core..convert..From$LT$T$GT$$GT$4from17h1d2680fd6b19266bE:

00000000 <_ZN50_$LT$T$u20$as$u20$core..convert..From$LT$T$GT$$GT$4from17h1d2680fd6b19266bE>:
_ZN50_$LT$T$u20$as$u20$core..convert..From$LT$T$GT$$GT$4from17h1d2680fd6b19266bE():
/rustc/50a0defd5a93523067ef239936cc2e0755220904/src/libcore/convert.rs:547
   0:	b082      	sub	sp, #8
   2:	4601      	mov	r1, r0
   4:	9001      	str	r0, [sp, #4]
   6:	9801      	ldr	r0, [sp, #4]
   8:	9100      	str	r1, [sp, #0]
   a:	b002      	add	sp, #8
   c:	4770      	bx	lr

app-f507768d2039d2a9.2aefsotrwcx6g09x.rcgu.o:     file format elf32-littlearm

SYMBOL TABLE:
00000000 l    df *ABS*	00000000 2aefsotrwcx6g09x
00001b5f l       .debug_str	00000000 
000023fe l       .debug_str	00000000 
00002405 l       .debug_str	00000000 
0000240d l       .debug_str	00000000 
0000242b l       .debug_str	00000000 
0000243b l       .debug_str	00000000 
0000246e l       .debug_str	00000000 
00002483 l       .debug_str	00000000 
00002496 l       .debug_str	00000000 
000024ab l       .debug_str	00000000 
000024b2 l       .debug_str	00000000 
000024c7 l       .debug_str	00000000 
000024f1 l       .debug_str	00000000 
000024f5 l       .debug_str	00000000 
000024fe l       .debug_str	00000000 
00000000 l       .debug_str	00000000 
00000041 l       .debug_str	00000000 
00000055 l       .debug_str	00000000 
00000085 l       .debug_str	00000000 
00000089 l       .debug_str	00000000 
00000094 l       .debug_str	00000000 
000000a2 l       .debug_str	00000000 
000000a9 l       .debug_str	00000000 
000000ad l       .debug_str	00000000 
000000b0 l       .debug_str	00000000 
000000b8 l       .debug_str	00000000 
000000bc l       .debug_str	00000000 
000000c5 l       .debug_str	00000000 
000000cf l       .debug_str	00000000 
000000d6 l       .debug_str	00000000 
000000dc l       .debug_str	00000000 
000000e2 l       .debug_str	00000000 
000000e7 l       .debug_str	00000000 
000000ef l       .debug_str	00000000 
000000f4 l       .debug_str	00000000 
0000012b l       .debug_str	00000000 
00000132 l       .debug_str	00000000 
00000136 l       .debug_str	00000000 
0000013e l       .debug_str	00000000 
00000149 l       .debug_str	00000000 
00000154 l       .debug_str	00000000 
00000161 l       .debug_str	00000000 
0000016c l       .debug_str	00000000 
00000174 l       .debug_str	00000000 
0000017f l       .debug_str	00000000 
0000018a l       .debug_str	00000000 
00000194 l       .debug_str	00000000 
0000019f l       .debug_str	00000000 
000001aa l       .debug_str	00000000 
000001b7 l       .debug_str	00000000 
000001c3 l       .debug_str	00000000 
000001d0 l       .debug_str	00000000 
000001de l       .debug_str	00000000 
000001e8 l       .debug_str	00000000 
000001f5 l       .debug_str	00000000 
00000201 l       .debug_str	00000000 
00000206 l       .debug_str	00000000 
0000020a l       .debug_str	00000000 
00000215 l       .debug_str	00000000 
00000220 l       .debug_str	00000000 
00000227 l       .debug_str	00000000 
00000266 l       .debug_str	00000000 
0000027c l       .debug_str	00000000 
00000280 l       .debug_str	00000000 
00000283 l       .debug_str	00000000 
00000286 l       .debug_str	00000000 
00000288 l       .debug_str	00000000 
0000028a l       .debug_str	00000000 
0000028e l       .debug_str	00000000 
000002b6 l       .debug_str	00000000 
000002bd l       .debug_str	00000000 
000002c0 l       .debug_str	00000000 
000002c9 l       .debug_str	00000000 
000002cf l       .debug_str	00000000 
000002d6 l       .debug_str	00000000 
000002d9 l       .debug_str	00000000 
000002e5 l       .debug_str	00000000 
000002ed l       .debug_str	00000000 
000002f4 l       .debug_str	00000000 
000002f9 l       .debug_str	00000000 
00000310 l       .debug_str	00000000 
0000036a l       .debug_str	00000000 
0000036f l       .debug_str	00000000 
000003d1 l       .debug_str	00000000 
000003dc l       .debug_str	00000000 
00000423 l       .debug_str	00000000 
00000472 l       .debug_str	00000000 
0000047c l       .debug_str	00000000 
000004b9 l       .debug_str	00000000 
000004fe l       .debug_str	00000000 
00000507 l       .debug_str	00000000 
00000517 l       .debug_str	00000000 
0000051f l       .debug_str	00000000 
00000574 l       .debug_str	00000000 
000005d1 l       .debug_str	00000000 
000005dd l       .debug_str	00000000 
000005e6 l       .debug_str	00000000 
000005f2 l       .debug_str	00000000 
000005fe l       .debug_str	00000000 
00000607 l       .debug_str	00000000 
0000060f l       .debug_str	00000000 
00000617 l       .debug_str	00000000 
00000621 l       .debug_str	00000000 
00000636 l       .debug_str	00000000 
0000063d l       .debug_str	00000000 
0000065d l       .debug_str	00000000 
00000664 l       .debug_str	00000000 
0000066c l       .debug_str	00000000 
00000676 l       .debug_str	00000000 
00000681 l       .debug_str	00000000 
0000068a l       .debug_str	00000000 
00000695 l       .debug_str	00000000 
000006a1 l       .debug_str	00000000 
000006a5 l       .debug_str	00000000 
000006ae l       .debug_str	00000000 
000006b5 l       .debug_str	00000000 
000006bd l       .debug_str	00000000 
000006c5 l       .debug_str	00000000 
000006cf l       .debug_str	00000000 
000006d5 l       .debug_str	00000000 
000006dc l       .debug_str	00000000 
000006e3 l       .debug_str	00000000 
00000710 l       .debug_str	00000000 
00000745 l       .debug_str	00000000 
0000074b l       .debug_str	00000000 
00000751 l       .debug_str	00000000 
00000760 l       .debug_str	00000000 
00000770 l       .debug_str	00000000 
00000780 l       .debug_str	00000000 
00000788 l       .debug_str	00000000 
000007b1 l       .debug_str	00000000 
0000080f l       .debug_str	00000000 
00000875 l       .debug_str	00000000 
0000087c l       .debug_str	00000000 
00000884 l       .debug_str	00000000 
0000088d l       .debug_str	00000000 
000008ab l       .debug_str	00000000 
000008bb l       .debug_str	00000000 
000008c9 l       .debug_str	00000000 
000008d4 l       .debug_str	00000000 
000008e1 l       .debug_str	00000000 
000008f0 l       .debug_str	00000000 
00000906 l       .debug_str	00000000 
00000910 l       .debug_str	00000000 
00000919 l       .debug_str	00000000 
00000922 l       .debug_str	00000000 
00000948 l       .debug_str	00000000 
0000095e l       .debug_str	00000000 
00000969 l       .debug_str	00000000 
0000097f l       .debug_str	00000000 
00000987 l       .debug_str	00000000 
000009a8 l       .debug_str	00000000 
000009bf l       .debug_str	00000000 
000009c4 l       .debug_str	00000000 
000009cc l       .debug_str	00000000 
000009d5 l       .debug_str	00000000 
000009de l       .debug_str	00000000 
000009e7 l       .debug_str	00000000 
000009ef l       .debug_str	00000000 
000009f3 l       .debug_str	00000000 
000009fa l       .debug_str	00000000 
00000a06 l       .debug_str	00000000 
00000a11 l       .debug_str	00000000 
00000a19 l       .debug_str	00000000 
00000a21 l       .debug_str	00000000 
00000a9d l       .debug_str	00000000 
00000b21 l       .debug_str	00000000 
00000c1d l       .debug_str	00000000 
00000d21 l       .debug_str	00000000 
00000d2f l       .debug_str	00000000 
00000d3a l       .debug_str	00000000 
00000d44 l       .debug_str	00000000 
00000d58 l       .debug_str	00000000 
00000d63 l       .debug_str	00000000 
00000d91 l       .debug_str	00000000 
00000e0c l       .debug_str	00000000 
00000e8f l       .debug_str	00000000 
00000e9d l       .debug_str	00000000 
00000efc l       .debug_str	00000000 
00000f63 l       .debug_str	00000000 
00000f79 l       .debug_str	00000000 
00000f89 l       .debug_str	00000000 
00000f98 l       .debug_str	00000000 
00000f9c l       .debug_str	00000000 
00000fa3 l       .debug_str	00000000 
00000fa9 l       .debug_str	00000000 
00000fad l       .debug_str	00000000 
00000fb3 l       .debug_str	00000000 
00000fb9 l       .debug_str	00000000 
00000fc5 l       .debug_str	00000000 
00000fcd l       .debug_str	00000000 
00000fd3 l       .debug_str	00000000 
00000fdb l       .debug_str	00000000 
00000fe1 l       .debug_str	00000000 
00001004 l       .debug_str	00000000 
00001014 l       .debug_str	00000000 
00001047 l       .debug_str	00000000 
00001087 l       .debug_str	00000000 
000010cf l       .debug_str	00000000 
000010d3 l       .debug_str	00000000 
000010d9 l       .debug_str	00000000 
000010df l       .debug_str	00000000 
000010e5 l       .debug_str	00000000 
000010f7 l       .debug_str	00000000 
0000112c l       .debug_str	00000000 
0000116e l       .debug_str	00000000 
000011b8 l       .debug_str	00000000 
000011bc l       .debug_str	00000000 
000011c2 l       .debug_str	00000000 
000011c8 l       .debug_str	00000000 
000011ce l       .debug_str	00000000 
000011e0 l       .debug_str	00000000 
00001215 l       .debug_str	00000000 
00001257 l       .debug_str	00000000 
000012a1 l       .debug_str	00000000 
000012a5 l       .debug_str	00000000 
000012ab l       .debug_str	00000000 
000012b1 l       .debug_str	00000000 
000012b7 l       .debug_str	00000000 
000012bd l       .debug_str	00000000 
000012ce l       .debug_str	00000000 
00001302 l       .debug_str	00000000 
00001343 l       .debug_str	00000000 
0000138c l       .debug_str	00000000 
00001391 l       .debug_str	00000000 
00001396 l       .debug_str	00000000 
0000139a l       .debug_str	00000000 
000013a0 l       .debug_str	00000000 
000013a6 l       .debug_str	00000000 
000013ac l       .debug_str	00000000 
000013bd l       .debug_str	00000000 
000013f1 l       .debug_str	00000000 
00001432 l       .debug_str	00000000 
0000147b l       .debug_str	00000000 
0000147f l       .debug_str	00000000 
00001488 l       .debug_str	00000000 
00001499 l       .debug_str	00000000 
000014cd l       .debug_str	00000000 
0000150e l       .debug_str	00000000 
00001557 l       .debug_str	00000000 
0000155c l       .debug_str	00000000 
00001560 l       .debug_str	00000000 
00001569 l       .debug_str	00000000 
00001570 l       .debug_str	00000000 
00001578 l       .debug_str	00000000 
0000158a l       .debug_str	00000000 
000015bf l       .debug_str	00000000 
00001601 l       .debug_str	00000000 
0000164b l       .debug_str	00000000 
0000164f l       .debug_str	00000000 
00001655 l       .debug_str	00000000 
0000165b l       .debug_str	00000000 
00001661 l       .debug_str	00000000 
00001667 l       .debug_str	00000000 
0000166f l       .debug_str	00000000 
0000167d l       .debug_str	00000000 
0000168c l       .debug_str	00000000 
0000169d l       .debug_str	00000000 
000016a8 l       .debug_str	00000000 
000016b3 l       .debug_str	00000000 
000016be l       .debug_str	00000000 
000016c5 l       .debug_str	00000000 
000016e8 l       .debug_str	00000000 
000016fa l       .debug_str	00000000 
0000172f l       .debug_str	00000000 
00001771 l       .debug_str	00000000 
000017bb l       .debug_str	00000000 
000017bf l       .debug_str	00000000 
000017c9 l       .debug_str	00000000 
000017db l       .debug_str	00000000 
00001810 l       .debug_str	00000000 
00001852 l       .debug_str	00000000 
0000189c l       .debug_str	00000000 
000018a1 l       .debug_str	00000000 
000018ab l       .debug_str	00000000 
000018bd l       .debug_str	00000000 
000018f2 l       .debug_str	00000000 
00001934 l       .debug_str	00000000 
0000197e l       .debug_str	00000000 
00001992 l       .debug_str	00000000 
00001996 l       .debug_str	00000000 
000019a4 l       .debug_str	00000000 
000019b4 l       .debug_str	00000000 
000019bd l       .debug_str	00000000 
000019c8 l       .debug_str	00000000 
000019d7 l       .debug_str	00000000 
000019ec l       .debug_str	00000000 
00001a1d l       .debug_str	00000000 
00001aba l       .debug_str	00000000 
00001b6a l       .debug_str	00000000 
00001b73 l       .debug_str	00000000 
00001b94 l       .debug_str	00000000 
00001ba7 l       .debug_str	00000000 
00001bdd l       .debug_str	00000000 
00001c60 l       .debug_str	00000000 
00001ceb l       .debug_str	00000000 
00001d07 l       .debug_str	00000000 
00001d53 l       .debug_str	00000000 
00001da7 l       .debug_str	00000000 
00001dc4 l       .debug_str	00000000 
00001dd8 l       .debug_str	00000000 
00001e24 l       .debug_str	00000000 
00001e78 l       .debug_str	00000000 
00001e8e l       .debug_str	00000000 
00001ea2 l       .debug_str	00000000 
00001ee9 l       .debug_str	00000000 
00001f38 l       .debug_str	00000000 
00001f41 l       .debug_str	00000000 
00001f4f l       .debug_str	00000000 
00001f80 l       .debug_str	00000000 
00001f86 l       .debug_str	00000000 
00001f8e l       .debug_str	00000000 
00001f95 l       .debug_str	00000000 
00001f9d l       .debug_str	00000000 
00001fa8 l       .debug_str	00000000 
00001fb0 l       .debug_str	00000000 
00001fbf l       .debug_str	00000000 
00001fc3 l       .debug_str	00000000 
00001fce l       .debug_str	00000000 
00001fda l       .debug_str	00000000 
00001fe5 l       .debug_str	00000000 
00001ff6 l       .debug_str	00000000 
00001ffc l       .debug_str	00000000 
00002004 l       .debug_str	00000000 
0000200b l       .debug_str	00000000 
00002015 l       .debug_str	00000000 
0000201d l       .debug_str	00000000 
00002025 l       .debug_str	00000000 
00002047 l       .debug_str	00000000 
00002052 l       .debug_str	00000000 
0000205e l       .debug_str	00000000 
00002066 l       .debug_str	00000000 
0000206f l       .debug_str	00000000 
0000207a l       .debug_str	00000000 
00002081 l       .debug_str	00000000 
0000208c l       .debug_str	00000000 
00002097 l       .debug_str	00000000 
000020a7 l       .debug_str	00000000 
000020b1 l       .debug_str	00000000 
000020b7 l       .debug_str	00000000 
000020d9 l       .debug_str	00000000 
00002111 l       .debug_str	00000000 
00002151 l       .debug_str	00000000 
00002158 l       .debug_str	00000000 
00002160 l       .debug_str	00000000 
00002177 l       .debug_str	00000000 
00002180 l       .debug_str	00000000 
00002190 l       .debug_str	00000000 
0000219f l       .debug_str	00000000 
000021a7 l       .debug_str	00000000 
000021ae l       .debug_str	00000000 
000021b6 l       .debug_str	00000000 
000021d4 l       .debug_str	00000000 
000021e4 l       .debug_str	00000000 
00002217 l       .debug_str	00000000 
0000222c l       .debug_str	00000000 
00002235 l       .debug_str	00000000 
00002292 l       .debug_str	00000000 
000022f7 l       .debug_str	00000000 
00002301 l       .debug_str	00000000 
00002311 l       .debug_str	00000000 
00002326 l       .debug_str	00000000 
0000232e l       .debug_str	00000000 
00002392 l       .debug_str	00000000 
00000000 l     O .rodata..Lanon.05c50d9eddcb54b44d93cfba73babf6f.1	0000000e .Lanon.05c50d9eddcb54b44d93cfba73babf6f.1
00000000 l     O .rodata..Lanon.05c50d9eddcb54b44d93cfba73babf6f.2	00000006 .Lanon.05c50d9eddcb54b44d93cfba73babf6f.2
00000000 l     O .rodata..Lanon.05c50d9eddcb54b44d93cfba73babf6f.4	0000000c .Lanon.05c50d9eddcb54b44d93cfba73babf6f.4
00000000 l     O .rodata._ZN3app10app_sensor13SENSOR_DEVICE17he25c163292e5053cE	0000000c _ZN3app10app_sensor13SENSOR_DEVICE17he25c163292e5053cE
00000000 l    d  .text._ZN3app10app_sensor21start_sensor_listener17h53861ab2caa45ce6E	00000000 .text._ZN3app10app_sensor21start_sensor_listener17h53861ab2caa45ce6E
00000000 l    d  .rodata..Lanon.05c50d9eddcb54b44d93cfba73babf6f.0	00000000 .rodata..Lanon.05c50d9eddcb54b44d93cfba73babf6f.0
00000000 l    d  .rodata._ZN3app10app_sensor13SENSOR_DEVICE17he25c163292e5053cE	00000000 .rodata._ZN3app10app_sensor13SENSOR_DEVICE17he25c163292e5053cE
00000000 l    d  .rodata..Lanon.05c50d9eddcb54b44d93cfba73babf6f.3	00000000 .rodata..Lanon.05c50d9eddcb54b44d93cfba73babf6f.3
00000000 l    d  .debug_abbrev	00000000 .debug_abbrev
00000000 l    d  .debug_info	00000000 .debug_info
00000000 l    d  .debug_ranges	00000000 .debug_ranges
00000000 l    d  .debug_frame	00000000 .debug_frame
00000000 l    d  .debug_line	00000000 .debug_line
00000000 g     F .text._ZN3app10app_sensor21start_sensor_listener17h53861ab2caa45ce6E	00000176 .hidden _ZN3app10app_sensor21start_sensor_listener17h53861ab2caa45ce6E
00000000         *UND*	00000000 .hidden _ZN3app11app_network21aggregate_sensor_data17h4f533b3edbac1d59E
00000000         *UND*	00000000 _ZN4core6option15Option$LT$T$GT$6expect17h90288a9efafc2a7dE
00000000         *UND*	00000000 _ZN50_$LT$T$u20$as$u20$core..convert..From$LT$T$GT$$GT$4from17h1d2680fd6b19266bE
00000000         *UND*	00000000 _ZN6mynewt2hw10sensor_mgr14find_bydevname17hd8660434417b28fbE
00000000         *UND*	00000000 _ZN6mynewt2hw6sensor17register_listener17hb158e4b467791ecbE
00000000         *UND*	00000000 _ZN6mynewt2hw6sensor19new_sensor_listener17h4f6c6b8707703a7cE
00000000         *UND*	00000000 _ZN6mynewt2hw6sensor8bindings16set_poll_rate_ms17h218bb4ec3f0f45e5E
00000000         *UND*	00000000 _ZN6mynewt3sys7console5print17h1c4aea0ed0a4bc27E
00000000         *UND*	00000000 _ZN73_$LT$core..result..Result$LT$T$C$E$GT$$u20$as$u20$core..ops..try..Try$GT$10from_error17hf8581bda79764f6fE
00000000         *UND*	00000000 _ZN73_$LT$core..result..Result$LT$T$C$E$GT$$u20$as$u20$core..ops..try..Try$GT$11into_result17h0a13f6fd9eb4fba8E
00000000         *UND*	00000000 _ZN73_$LT$core..result..Result$LT$T$C$E$GT$$u20$as$u20$core..ops..try..Try$GT$11into_result17h4a9d9452d98ae4b8E
00000000         *UND*	00000000 _ZN99_$LT$mynewt..hw..sensor_mgr..SensorsByDevname$u20$as$u20$core..iter..traits..iterator..Iterator$GT$4next17h6b7d1c23f823bbe1E



Disassembly of section .text._ZN3app10app_sensor21start_sensor_listener17h53861ab2caa45ce6E:

00000000 <_ZN3app10app_sensor21start_sensor_listener17h53861ab2caa45ce6E>:
_ZN3app10app_sensor21start_sensor_listener17h53861ab2caa45ce6E():
/Users/Luppy/mynewt/stm32bluepill-mynewt-sensor/rust/app/src/app_sensor.rs:46
///  Type of sensor: Raw temperature sensor (integer sensor values 0 to 4095)
const TEMP_SENSOR_TYPE: sensor_type_t = sensor::SENSOR_TYPE_AMBIENT_TEMPERATURE_RAW;

///  Ask Mynewt to poll or read the temperature sensor and call `aggregate_sensor_data()`
///  Return `Ok()` if successful, else return `Err()` with `MynewtError` error code inside.
pub fn start_sensor_listener() -> MynewtResult<()>  {  //  Returns an error code upon error.
   0:	b5f0      	push	{r4, r5, r6, r7, lr}
   2:	b0bd      	sub	sp, #244	; 0xf4
/Users/Luppy/mynewt/stm32bluepill-mynewt-sensor/rust/app/src/app_sensor.rs:47
    console::print("Rust TMP poll\n");
   4:	f240 0000 	movw	r0, #0
   8:	f2c0 0000 	movt	r0, #0
   c:	210e      	movs	r1, #14
   e:	f7ff fffe 	bl	0 <_ZN6mynewt3sys7console5print17h1c4aea0ed0a4bc27E>
  12:	e7ff      	b.n	2 <_ZN3app10app_sensor21start_sensor_listener17h53861ab2caa45ce6E+0x2>
/Users/Luppy/mynewt/stm32bluepill-mynewt-sensor/rust/app/src/app_sensor.rs:50

    //  Fetch the sensor by name.
    let sensor = sensor_mgr::find_bydevname(&SENSOR_DEVICE)
  14:	f240 0100 	movw	r1, #0
  18:	f2c0 0100 	movt	r1, #0
  1c:	a80d      	add	r0, sp, #52	; 0x34
  1e:	f7ff fffe 	bl	0 <_ZN6mynewt2hw10sensor_mgr14find_bydevname17hd8660434417b28fbE>
  22:	e7ff      	b.n	24 <_ZN3app10app_sensor21start_sensor_listener17h53861ab2caa45ce6E+0x24>
  24:	a80d      	add	r0, sp, #52	; 0x34
  26:	f7ff fffe 	bl	0 <_ZN99_$LT$mynewt..hw..sensor_mgr..SensorsByDevname$u20$as$u20$core..iter..traits..iterator..Iterator$GT$4next17h6b7d1c23f823bbe1E>
  2a:	900a      	str	r0, [sp, #40]	; 0x28
  2c:	9109      	str	r1, [sp, #36]	; 0x24
  2e:	e7ff      	b.n	30 <_ZN3app10app_sensor21start_sensor_listener17h53861ab2caa45ce6E+0x30>
  30:	f240 0200 	movw	r2, #0
  34:	f2c0 0200 	movt	r2, #0
  38:	2306      	movs	r3, #6
  3a:	980a      	ldr	r0, [sp, #40]	; 0x28
  3c:	9909      	ldr	r1, [sp, #36]	; 0x24
  3e:	f7ff fffe 	bl	0 <_ZN4core6option15Option$LT$T$GT$6expect17h90288a9efafc2a7dE>
  42:	900c      	str	r0, [sp, #48]	; 0x30
  44:	e7ff      	b.n	46 <_ZN3app10app_sensor21start_sensor_listener17h53861ab2caa45ce6E+0x46>
/Users/Luppy/mynewt/stm32bluepill-mynewt-sensor/rust/app/src/app_sensor.rs:55
        .next()             //  Fetch the first sensor that matches
        .expect("no TMP");  //  Stop if no sensor found

    //  At power on, we ask Mynewt to poll our temperature sensor every 10 seconds.
    sensor::set_poll_rate_ms(&SENSOR_DEVICE, SENSOR_POLL_TIME) ? ;
  46:	f240 0000 	movw	r0, #0
  4a:	f2c0 0000 	movt	r0, #0
  4e:	f242 7110 	movw	r1, #10000	; 0x2710
  52:	f7ff fffe 	bl	0 <_ZN6mynewt2hw6sensor8bindings16set_poll_rate_ms17h218bb4ec3f0f45e5E>
  56:	9008      	str	r0, [sp, #32]
  58:	e7ff      	b.n	5a <_ZN3app10app_sensor21start_sensor_listener17h53861ab2caa45ce6E+0x5a>
  5a:	9808      	ldr	r0, [sp, #32]
  5c:	f7ff fffe 	bl	0 <_ZN73_$LT$core..result..Result$LT$T$C$E$GT$$u20$as$u20$core..ops..try..Try$GT$11into_result17h4a9d9452d98ae4b8E>
  60:	9011      	str	r0, [sp, #68]	; 0x44
  62:	e7ff      	b.n	64 <_ZN3app10app_sensor21start_sensor_listener17h53861ab2caa45ce6E+0x64>
  64:	9811      	ldr	r0, [sp, #68]	; 0x44
  66:	1e41      	subs	r1, r0, #1
  68:	bf18      	it	ne
  6a:	2101      	movne	r1, #1
  6c:	2801      	cmp	r0, #1
  6e:	9107      	str	r1, [sp, #28]
  70:	d016      	beq.n	a0 <_ZN3app10app_sensor21start_sensor_listener17h53861ab2caa45ce6E+0xa0>
  72:	e7ff      	b.n	74 <_ZN3app10app_sensor21start_sensor_listener17h53861ab2caa45ce6E+0x74>
  74:	9807      	ldr	r0, [sp, #28]
  76:	2801      	cmp	r0, #1
  78:	d001      	beq.n	7e <_ZN3app10app_sensor21start_sensor_listener17h53861ab2caa45ce6E+0x7e>
  7a:	e7ff      	b.n	7c <_ZN3app10app_sensor21start_sensor_listener17h53861ab2caa45ce6E+0x7c>
/Users/Luppy/mynewt/stm32bluepill-mynewt-sensor/rust/app/src/app_sensor.rs:69
    //  Register the Listener Function to be called with the polled sensor data.
    sensor::register_listener(sensor, listener) ? ;  //  `?` means in case of error, return error now.

    //  Return `Ok()` to indicate success.  This line should not end with a semicolon (;).
    Ok(())
  7c:	defe      	udf	#254	; 0xfe
/Users/Luppy/mynewt/stm32bluepill-mynewt-sensor/rust/app/src/app_sensor.rs:55
    sensor::set_poll_rate_ms(&SENSOR_DEVICE, SENSOR_POLL_TIME) ? ;
  7e:	9811      	ldr	r0, [sp, #68]	; 0x44
  80:	9012      	str	r0, [sp, #72]	; 0x48
  82:	9812      	ldr	r0, [sp, #72]	; 0x48
  84:	f7ff fffe 	bl	0 <_ZN50_$LT$T$u20$as$u20$core..convert..From$LT$T$GT$$GT$4from17h1d2680fd6b19266bE>
  88:	9006      	str	r0, [sp, #24]
  8a:	e7ff      	b.n	8c <_ZN3app10app_sensor21start_sensor_listener17h53861ab2caa45ce6E+0x8c>
  8c:	9806      	ldr	r0, [sp, #24]
  8e:	f7ff fffe 	bl	0 <_ZN73_$LT$core..result..Result$LT$T$C$E$GT$$u20$as$u20$core..ops..try..Try$GT$10from_error17hf8581bda79764f6fE>
  92:	900b      	str	r0, [sp, #44]	; 0x2c
  94:	e7ff      	b.n	96 <_ZN3app10app_sensor21start_sensor_listener17h53861ab2caa45ce6E+0x96>
  96:	e002      	b.n	9e <_ZN3app10app_sensor21start_sensor_listener17h53861ab2caa45ce6E+0x9e>
/Users/Luppy/mynewt/stm32bluepill-mynewt-sensor/rust/app/src/app_sensor.rs:69
  98:	980b      	ldr	r0, [sp, #44]	; 0x2c
  9a:	b03d      	add	sp, #244	; 0xf4
  9c:	bdf0      	pop	{r4, r5, r6, r7, pc}
/Users/Luppy/mynewt/stm32bluepill-mynewt-sensor/rust/app/src/app_sensor.rs:55
    sensor::set_poll_rate_ms(&SENSOR_DEVICE, SENSOR_POLL_TIME) ? ;
  9e:	e7fb      	b.n	98 <_ZN3app10app_sensor21start_sensor_listener17h53861ab2caa45ce6E+0x98>
/Users/Luppy/mynewt/stm32bluepill-mynewt-sensor/rust/app/src/app_sensor.rs:58
    let listener = sensor::new_sensor_listener(
  a0:	f240 0000 	movw	r0, #0
  a4:	f2c0 0000 	movt	r0, #0
  a8:	4669      	mov	r1, sp
  aa:	6008      	str	r0, [r1, #0]
  ac:	f240 0100 	movw	r1, #0
  b0:	f2c0 0100 	movt	r1, #0
  b4:	a822      	add	r0, sp, #136	; 0x88
  b6:	f04f 6280 	mov.w	r2, #67108864	; 0x4000000
  ba:	2300      	movs	r3, #0
  bc:	f7ff fffe 	bl	0 <_ZN6mynewt2hw6sensor19new_sensor_listener17h4f6c6b8707703a7cE>
  c0:	e7ff      	b.n	c2 <_ZN3app10app_sensor21start_sensor_listener17h53861ab2caa45ce6E+0xc2>
  c2:	a81a      	add	r0, sp, #104	; 0x68
  c4:	a922      	add	r1, sp, #136	; 0x88
  c6:	f7ff fffe 	bl	0 <_ZN73_$LT$core..result..Result$LT$T$C$E$GT$$u20$as$u20$core..ops..try..Try$GT$11into_result17h0a13f6fd9eb4fba8E>
  ca:	e7ff      	b.n	cc <_ZN3app10app_sensor21start_sensor_listener17h53861ab2caa45ce6E+0xcc>
/Users/Luppy/mynewt/stm32bluepill-mynewt-sensor/rust/app/src/app_sensor.rs:62
    ) ? ;
  cc:	981a      	ldr	r0, [sp, #104]	; 0x68
  ce:	2800      	cmp	r0, #0
  d0:	9005      	str	r0, [sp, #20]
  d2:	d012      	beq.n	fa <_ZN3app10app_sensor21start_sensor_listener17h53861ab2caa45ce6E+0xfa>
  d4:	e7ff      	b.n	d6 <_ZN3app10app_sensor21start_sensor_listener17h53861ab2caa45ce6E+0xd6>
  d6:	9805      	ldr	r0, [sp, #20]
  d8:	2801      	cmp	r0, #1
  da:	d1cf      	bne.n	7c <_ZN3app10app_sensor21start_sensor_listener17h53861ab2caa45ce6E+0x7c>
  dc:	e7ff      	b.n	de <_ZN3app10app_sensor21start_sensor_listener17h53861ab2caa45ce6E+0xde>
  de:	981b      	ldr	r0, [sp, #108]	; 0x6c
  e0:	902b      	str	r0, [sp, #172]	; 0xac
  e2:	982b      	ldr	r0, [sp, #172]	; 0xac
  e4:	f7ff fffe 	bl	0 <_ZN50_$LT$T$u20$as$u20$core..convert..From$LT$T$GT$$GT$4from17h1d2680fd6b19266bE>
  e8:	9004      	str	r0, [sp, #16]
  ea:	e7ff      	b.n	ec <_ZN3app10app_sensor21start_sensor_listener17h53861ab2caa45ce6E+0xec>
  ec:	9804      	ldr	r0, [sp, #16]
  ee:	f7ff fffe 	bl	0 <_ZN73_$LT$core..result..Result$LT$T$C$E$GT$$u20$as$u20$core..ops..try..Try$GT$10from_error17hf8581bda79764f6fE>
  f2:	900b      	str	r0, [sp, #44]	; 0x2c
  f4:	e7ff      	b.n	f6 <_ZN3app10app_sensor21start_sensor_listener17h53861ab2caa45ce6E+0xf6>
  f6:	e7ff      	b.n	f8 <_ZN3app10app_sensor21start_sensor_listener17h53861ab2caa45ce6E+0xf8>
  f8:	e7d1      	b.n	9e <_ZN3app10app_sensor21start_sensor_listener17h53861ab2caa45ce6E+0x9e>
  fa:	a81a      	add	r0, sp, #104	; 0x68
/Users/Luppy/mynewt/stm32bluepill-mynewt-sensor/rust/app/src/app_sensor.rs:58
    let listener = sensor::new_sensor_listener(
  fc:	3008      	adds	r0, #8
  fe:	a92c      	add	r1, sp, #176	; 0xb0
 100:	460a      	mov	r2, r1
 102:	e890 5078 	ldmia.w	r0, {r3, r4, r5, r6, ip, lr}
 106:	e882 5078 	stmia.w	r2, {r3, r4, r5, r6, ip, lr}
 10a:	a814      	add	r0, sp, #80	; 0x50
 10c:	4602      	mov	r2, r0
 10e:	e891 5078 	ldmia.w	r1, {r3, r4, r5, r6, ip, lr}
 112:	e882 5078 	stmia.w	r2, {r3, r4, r5, r6, ip, lr}
/Users/Luppy/mynewt/stm32bluepill-mynewt-sensor/rust/app/src/app_sensor.rs:65
    sensor::register_listener(sensor, listener) ? ;  //  `?` means in case of error, return error now.
 116:	990c      	ldr	r1, [sp, #48]	; 0x30
 118:	aa34      	add	r2, sp, #208	; 0xd0
 11a:	4613      	mov	r3, r2
 11c:	e890 50f0 	ldmia.w	r0, {r4, r5, r6, r7, ip, lr}
 120:	e883 50f0 	stmia.w	r3, {r4, r5, r6, r7, ip, lr}
 124:	4608      	mov	r0, r1
 126:	4611      	mov	r1, r2
 128:	f7ff fffe 	bl	0 <_ZN6mynewt2hw6sensor17register_listener17hb158e4b467791ecbE>
 12c:	9003      	str	r0, [sp, #12]
 12e:	e7ff      	b.n	130 <_ZN3app10app_sensor21start_sensor_listener17h53861ab2caa45ce6E+0x130>
 130:	9803      	ldr	r0, [sp, #12]
 132:	f7ff fffe 	bl	0 <_ZN73_$LT$core..result..Result$LT$T$C$E$GT$$u20$as$u20$core..ops..try..Try$GT$11into_result17h4a9d9452d98ae4b8E>
 136:	9033      	str	r0, [sp, #204]	; 0xcc
 138:	e7ff      	b.n	13a <_ZN3app10app_sensor21start_sensor_listener17h53861ab2caa45ce6E+0x13a>
 13a:	9833      	ldr	r0, [sp, #204]	; 0xcc
 13c:	1e41      	subs	r1, r0, #1
 13e:	bf18      	it	ne
 140:	2101      	movne	r1, #1
 142:	2801      	cmp	r0, #1
 144:	9102      	str	r1, [sp, #8]
 146:	d011      	beq.n	16c <_ZN3app10app_sensor21start_sensor_listener17h53861ab2caa45ce6E+0x16c>
 148:	e7ff      	b.n	14a <_ZN3app10app_sensor21start_sensor_listener17h53861ab2caa45ce6E+0x14a>
 14a:	9802      	ldr	r0, [sp, #8]
 14c:	2801      	cmp	r0, #1
 14e:	d195      	bne.n	7c <_ZN3app10app_sensor21start_sensor_listener17h53861ab2caa45ce6E+0x7c>
 150:	e7ff      	b.n	152 <_ZN3app10app_sensor21start_sensor_listener17h53861ab2caa45ce6E+0x152>
 152:	9833      	ldr	r0, [sp, #204]	; 0xcc
 154:	903a      	str	r0, [sp, #232]	; 0xe8
 156:	983a      	ldr	r0, [sp, #232]	; 0xe8
 158:	f7ff fffe 	bl	0 <_ZN50_$LT$T$u20$as$u20$core..convert..From$LT$T$GT$$GT$4from17h1d2680fd6b19266bE>
 15c:	9001      	str	r0, [sp, #4]
 15e:	e7ff      	b.n	160 <_ZN3app10app_sensor21start_sensor_listener17h53861ab2caa45ce6E+0x160>
 160:	9801      	ldr	r0, [sp, #4]
 162:	f7ff fffe 	bl	0 <_ZN73_$LT$core..result..Result$LT$T$C$E$GT$$u20$as$u20$core..ops..try..Try$GT$10from_error17hf8581bda79764f6fE>
 166:	900b      	str	r0, [sp, #44]	; 0x2c
 168:	e7ff      	b.n	16a <_ZN3app10app_sensor21start_sensor_listener17h53861ab2caa45ce6E+0x16a>
 16a:	e7c5      	b.n	f8 <_ZN3app10app_sensor21start_sensor_listener17h53861ab2caa45ce6E+0xf8>
 16c:	2000      	movs	r0, #0
/Users/Luppy/mynewt/stm32bluepill-mynewt-sensor/rust/app/src/app_sensor.rs:68
    Ok(())
 16e:	900b      	str	r0, [sp, #44]	; 0x2c
 170:	2001      	movs	r0, #1
 172:	900b      	str	r0, [sp, #44]	; 0x2c
/Users/Luppy/mynewt/stm32bluepill-mynewt-sensor/rust/app/src/app_sensor.rs:69
 174:	e790      	b.n	98 <_ZN3app10app_sensor21start_sensor_listener17h53861ab2caa45ce6E+0x98>

app-f507768d2039d2a9.2mj7kzbnxll11qnw.rcgu.o:     file format elf32-littlearm

SYMBOL TABLE:
00000000 l    df *ABS*	00000000 2mj7kzbnxll11qnw
00001d00 l       .debug_str	00000000 
000023a8 l       .debug_str	00000000 
000023ad l       .debug_str	00000000 
000023b1 l       .debug_str	00000000 
000023ba l       .debug_str	00000000 
000023c1 l       .debug_str	00000000 
000023c7 l       .debug_str	00000000 
000023cc l       .debug_str	00000000 
00000000 l       .debug_str	00000000 
00000041 l       .debug_str	00000000 
00000055 l       .debug_str	00000000 
00000085 l       .debug_str	00000000 
0000008a l       .debug_str	00000000 
0000008e l       .debug_str	00000000 
00000091 l       .debug_str	00000000 
0000009c l       .debug_str	00000000 
000000a7 l       .debug_str	00000000 
000000ae l       .debug_str	00000000 
000000b5 l       .debug_str	00000000 
000000b9 l       .debug_str	00000000 
000000be l       .debug_str	00000000 
000000c5 l       .debug_str	00000000 
000000c8 l       .debug_str	00000000 
000000cf l       .debug_str	00000000 
000000d8 l       .debug_str	00000000 
000000de l       .debug_str	00000000 
000000e5 l       .debug_str	00000000 
000000e8 l       .debug_str	00000000 
000000f4 l       .debug_str	00000000 
000000fc l       .debug_str	00000000 
00000100 l       .debug_str	00000000 
00000117 l       .debug_str	00000000 
00000171 l       .debug_str	00000000 
00000173 l       .debug_str	00000000 
00000178 l       .debug_str	00000000 
0000017c l       .debug_str	00000000 
000001de l       .debug_str	00000000 
000001e9 l       .debug_str	00000000 
00000230 l       .debug_str	00000000 
0000027f l       .debug_str	00000000 
00000289 l       .debug_str	00000000 
000002c6 l       .debug_str	00000000 
0000030b l       .debug_str	00000000 
00000314 l       .debug_str	00000000 
00000324 l       .debug_str	00000000 
0000032c l       .debug_str	00000000 
00000381 l       .debug_str	00000000 
000003de l       .debug_str	00000000 
000003ea l       .debug_str	00000000 
000003f3 l       .debug_str	00000000 
000003ff l       .debug_str	00000000 
0000040b l       .debug_str	00000000 
00000414 l       .debug_str	00000000 
0000041c l       .debug_str	00000000 
00000426 l       .debug_str	00000000 
0000042e l       .debug_str	00000000 
00000438 l       .debug_str	00000000 
0000044d l       .debug_str	00000000 
00000454 l       .debug_str	00000000 
00000474 l       .debug_str	00000000 
0000047b l       .debug_str	00000000 
00000483 l       .debug_str	00000000 
0000048d l       .debug_str	00000000 
00000498 l       .debug_str	00000000 
000004a1 l       .debug_str	00000000 
000004ac l       .debug_str	00000000 
000004b8 l       .debug_str	00000000 
000004bc l       .debug_str	00000000 
000004c5 l       .debug_str	00000000 
000004cc l       .debug_str	00000000 
000004d4 l       .debug_str	00000000 
000004dc l       .debug_str	00000000 
000004e6 l       .debug_str	00000000 
000004ec l       .debug_str	00000000 
000004f3 l       .debug_str	00000000 
000004fa l       .debug_str	00000000 
00000527 l       .debug_str	00000000 
0000055c l       .debug_str	00000000 
00000562 l       .debug_str	00000000 
00000568 l       .debug_str	00000000 
00000577 l       .debug_str	00000000 
00000587 l       .debug_str	00000000 
00000597 l       .debug_str	00000000 
0000059f l       .debug_str	00000000 
000005c8 l       .debug_str	00000000 
00000626 l       .debug_str	00000000 
0000068c l       .debug_str	00000000 
00000693 l       .debug_str	00000000 
0000069b l       .debug_str	00000000 
000006a4 l       .debug_str	00000000 
000006c2 l       .debug_str	00000000 
000006d2 l       .debug_str	00000000 
000006e0 l       .debug_str	00000000 
000006eb l       .debug_str	00000000 
000006f8 l       .debug_str	00000000 
00000707 l       .debug_str	00000000 
0000071d l       .debug_str	00000000 
00000727 l       .debug_str	00000000 
00000730 l       .debug_str	00000000 
00000739 l       .debug_str	00000000 
0000075f l       .debug_str	00000000 
00000775 l       .debug_str	00000000 
00000780 l       .debug_str	00000000 
00000796 l       .debug_str	00000000 
0000079e l       .debug_str	00000000 
000007bf l       .debug_str	00000000 
000007d6 l       .debug_str	00000000 
000007db l       .debug_str	00000000 
000007e3 l       .debug_str	00000000 
000007ec l       .debug_str	00000000 
000007f5 l       .debug_str	00000000 
000007fe l       .debug_str	00000000 
00000806 l       .debug_str	00000000 
0000080a l       .debug_str	00000000 
00000811 l       .debug_str	00000000 
0000081d l       .debug_str	00000000 
00000828 l       .debug_str	00000000 
00000830 l       .debug_str	00000000 
00000838 l       .debug_str	00000000 
000008b4 l       .debug_str	00000000 
00000938 l       .debug_str	00000000 
00000a34 l       .debug_str	00000000 
00000b38 l       .debug_str	00000000 
00000b46 l       .debug_str	00000000 
00000b51 l       .debug_str	00000000 
00000b5b l       .debug_str	00000000 
00000b6f l       .debug_str	00000000 
00000b7a l       .debug_str	00000000 
00000ba8 l       .debug_str	00000000 
00000c23 l       .debug_str	00000000 
00000ca6 l       .debug_str	00000000 
00000cb4 l       .debug_str	00000000 
00000d13 l       .debug_str	00000000 
00000d7a l       .debug_str	00000000 
00000d90 l       .debug_str	00000000 
00000da0 l       .debug_str	00000000 
00000daf l       .debug_str	00000000 
00000db3 l       .debug_str	00000000 
00000dba l       .debug_str	00000000 
00000dc0 l       .debug_str	00000000 
00000dc4 l       .debug_str	00000000 
00000dca l       .debug_str	00000000 
00000dd0 l       .debug_str	00000000 
00000ddc l       .debug_str	00000000 
00000de4 l       .debug_str	00000000 
00000dea l       .debug_str	00000000 
00000df2 l       .debug_str	00000000 
00000df8 l       .debug_str	00000000 
00000e1b l       .debug_str	00000000 
00000e2b l       .debug_str	00000000 
00000e5e l       .debug_str	00000000 
00000e9e l       .debug_str	00000000 
00000ee6 l       .debug_str	00000000 
00000eea l       .debug_str	00000000 
00000ef0 l       .debug_str	00000000 
00000ef6 l       .debug_str	00000000 
00000efc l       .debug_str	00000000 
00000f0e l       .debug_str	00000000 
00000f43 l       .debug_str	00000000 
00000f85 l       .debug_str	00000000 
00000fcf l       .debug_str	00000000 
00000fd3 l       .debug_str	00000000 
00000fd9 l       .debug_str	00000000 
00000fdf l       .debug_str	00000000 
00000fe5 l       .debug_str	00000000 
00000ff7 l       .debug_str	00000000 
0000102c l       .debug_str	00000000 
0000106e l       .debug_str	00000000 
000010b8 l       .debug_str	00000000 
000010bc l       .debug_str	00000000 
000010c2 l       .debug_str	00000000 
000010c8 l       .debug_str	00000000 
000010ce l       .debug_str	00000000 
000010d4 l       .debug_str	00000000 
000010e5 l       .debug_str	00000000 
00001119 l       .debug_str	00000000 
0000115a l       .debug_str	00000000 
000011a3 l       .debug_str	00000000 
000011a8 l       .debug_str	00000000 
000011ad l       .debug_str	00000000 
000011b1 l       .debug_str	00000000 
000011b7 l       .debug_str	00000000 
000011bd l       .debug_str	00000000 
000011c3 l       .debug_str	00000000 
000011d4 l       .debug_str	00000000 
00001208 l       .debug_str	00000000 
00001249 l       .debug_str	00000000 
00001292 l       .debug_str	00000000 
00001296 l       .debug_str	00000000 
0000129f l       .debug_str	00000000 
000012b0 l       .debug_str	00000000 
000012e4 l       .debug_str	00000000 
00001325 l       .debug_str	00000000 
0000136e l       .debug_str	00000000 
00001373 l       .debug_str	00000000 
00001377 l       .debug_str	00000000 
00001380 l       .debug_str	00000000 
00001387 l       .debug_str	00000000 
0000138f l       .debug_str	00000000 
000013a1 l       .debug_str	00000000 
000013d6 l       .debug_str	00000000 
00001418 l       .debug_str	00000000 
00001462 l       .debug_str	00000000 
00001466 l       .debug_str	00000000 
0000146c l       .debug_str	00000000 
00001472 l       .debug_str	00000000 
00001478 l       .debug_str	00000000 
0000147e l       .debug_str	00000000 
00001486 l       .debug_str	00000000 
00001494 l       .debug_str	00000000 
000014a3 l       .debug_str	00000000 
000014b4 l       .debug_str	00000000 
000014bf l       .debug_str	00000000 
000014ca l       .debug_str	00000000 
000014d5 l       .debug_str	00000000 
000014dc l       .debug_str	00000000 
000014ff l       .debug_str	00000000 
00001511 l       .debug_str	00000000 
00001546 l       .debug_str	00000000 
00001588 l       .debug_str	00000000 
000015d2 l       .debug_str	00000000 
000015d6 l       .debug_str	00000000 
000015e0 l       .debug_str	00000000 
000015f2 l       .debug_str	00000000 
00001627 l       .debug_str	00000000 
00001669 l       .debug_str	00000000 
000016b3 l       .debug_str	00000000 
000016b8 l       .debug_str	00000000 
000016c2 l       .debug_str	00000000 
000016d4 l       .debug_str	00000000 
00001709 l       .debug_str	00000000 
0000174b l       .debug_str	00000000 
00001795 l       .debug_str	00000000 
000017a9 l       .debug_str	00000000 
000017ad l       .debug_str	00000000 
000017bb l       .debug_str	00000000 
000017cb l       .debug_str	00000000 
000017d4 l       .debug_str	00000000 
000017df l       .debug_str	00000000 
000017ee l       .debug_str	00000000 
00001803 l       .debug_str	00000000 
00001834 l       .debug_str	00000000 
000018d1 l       .debug_str	00000000 
00001976 l       .debug_str	00000000 
00001981 l       .debug_str	00000000 
0000198a l       .debug_str	00000000 
000019ab l       .debug_str	00000000 
000019be l       .debug_str	00000000 
000019f4 l       .debug_str	00000000 
00001a77 l       .debug_str	00000000 
00001b02 l       .debug_str	00000000 
00001b1e l       .debug_str	00000000 
00001b6a l       .debug_str	00000000 
00001bbe l       .debug_str	00000000 
00001bdb l       .debug_str	00000000 
00001bef l       .debug_str	00000000 
00001c3b l       .debug_str	00000000 
00001c8f l       .debug_str	00000000 
00001ca5 l       .debug_str	00000000 
00001cb9 l       .debug_str	00000000 
00001d4f l       .debug_str	00000000 
00001d58 l       .debug_str	00000000 
00001d66 l       .debug_str	00000000 
00001d97 l       .debug_str	00000000 
00001d9d l       .debug_str	00000000 
00001da5 l       .debug_str	00000000 
00001dac l       .debug_str	00000000 
00001db4 l       .debug_str	00000000 
00001dbf l       .debug_str	00000000 
00001dc7 l       .debug_str	00000000 
00001dd6 l       .debug_str	00000000 
00001dda l       .debug_str	00000000 
00001de5 l       .debug_str	00000000 
00001df1 l       .debug_str	00000000 
00001dfc l       .debug_str	00000000 
00001e0d l       .debug_str	00000000 
00001e13 l       .debug_str	00000000 
00001e1b l       .debug_str	00000000 
00001e22 l       .debug_str	00000000 
00001e2c l       .debug_str	00000000 
00001e34 l       .debug_str	00000000 
00001e3c l       .debug_str	00000000 
00001e5e l       .debug_str	00000000 
00001e69 l       .debug_str	00000000 
00001e75 l       .debug_str	00000000 
00001e7d l       .debug_str	00000000 
00001e86 l       .debug_str	00000000 
00001e91 l       .debug_str	00000000 
00001e98 l       .debug_str	00000000 
00001ea3 l       .debug_str	00000000 
00001eae l       .debug_str	00000000 
00001ebe l       .debug_str	00000000 
00001ec8 l       .debug_str	00000000 
00001ece l       .debug_str	00000000 
00001ef0 l       .debug_str	00000000 
00001f28 l       .debug_str	00000000 
00001f68 l       .debug_str	00000000 
00001f6f l       .debug_str	00000000 
00001f77 l       .debug_str	00000000 
00001f8e l       .debug_str	00000000 
00001f97 l       .debug_str	00000000 
00001fa7 l       .debug_str	00000000 
00001fb6 l       .debug_str	00000000 
00001fbe l       .debug_str	00000000 
00001fc5 l       .debug_str	00000000 
00001fcd l       .debug_str	00000000 
00001feb l       .debug_str	00000000 
00001ffb l       .debug_str	00000000 
0000202e l       .debug_str	00000000 
00002043 l       .debug_str	00000000 
0000204c l       .debug_str	00000000 
000020a9 l       .debug_str	00000000 
0000210e l       .debug_str	00000000 
00002118 l       .debug_str	00000000 
00002128 l       .debug_str	00000000 
0000213d l       .debug_str	00000000 
00002145 l       .debug_str	00000000 
000021a9 l       .debug_str	00000000 
00002215 l       .debug_str	00000000 
0000221c l       .debug_str	00000000 
00002224 l       .debug_str	00000000 
00002242 l       .debug_str	00000000 
00002252 l       .debug_str	00000000 
00002285 l       .debug_str	00000000 
0000229a l       .debug_str	00000000 
000022ad l       .debug_str	00000000 
000022c2 l       .debug_str	00000000 
000022c9 l       .debug_str	00000000 
000022de l       .debug_str	00000000 
00002308 l       .debug_str	00000000 
0000233a l       .debug_str	00000000 
00002376 l       .debug_str	00000000 
00000000 l    d  .text._ZN4core6option15Option$LT$T$GT$6expect17h90288a9efafc2a7dE	00000000 .text._ZN4core6option15Option$LT$T$GT$6expect17h90288a9efafc2a7dE
00000000 l    d  .debug_abbrev	00000000 .debug_abbrev
00000000 l    d  .debug_info	00000000 .debug_info
00000000 l    d  .debug_ranges	00000000 .debug_ranges
00000000 l    d  .debug_frame	00000000 .debug_frame
00000000 l    d  .debug_line	00000000 .debug_line
00000000         *UND*	00000000 _ZN4core6option13expect_failed17h3eeb96a257d935a1E
00000000 g     F .text._ZN4core6option15Option$LT$T$GT$6expect17h90288a9efafc2a7dE	00000056 _ZN4core6option15Option$LT$T$GT$6expect17h90288a9efafc2a7dE



Disassembly of section .text._ZN4core6option15Option$LT$T$GT$6expect17h90288a9efafc2a7dE:

00000000 <_ZN4core6option15Option$LT$T$GT$6expect17h90288a9efafc2a7dE>:
_ZN4core6option15Option$LT$T$GT$6expect17h90288a9efafc2a7dE():
/rustc/50a0defd5a93523067ef239936cc2e0755220904/src/libcore/option.rs:311
   0:	b5b0      	push	{r4, r5, r7, lr}
   2:	b08c      	sub	sp, #48	; 0x30
   4:	469c      	mov	ip, r3
   6:	4696      	mov	lr, r2
   8:	460c      	mov	r4, r1
   a:	4605      	mov	r5, r0
   c:	9007      	str	r0, [sp, #28]
   e:	9108      	str	r1, [sp, #32]
  10:	9209      	str	r2, [sp, #36]	; 0x24
  12:	930a      	str	r3, [sp, #40]	; 0x28
/rustc/50a0defd5a93523067ef239936cc2e0755220904/src/libcore/option.rs:313
  14:	9807      	ldr	r0, [sp, #28]
  16:	2800      	cmp	r0, #0
  18:	f8cd c018 	str.w	ip, [sp, #24]
  1c:	f8cd e014 	str.w	lr, [sp, #20]
  20:	9404      	str	r4, [sp, #16]
  22:	9503      	str	r5, [sp, #12]
  24:	9002      	str	r0, [sp, #8]
  26:	d00d      	beq.n	44 <_ZN4core6option15Option$LT$T$GT$6expect17h90288a9efafc2a7dE+0x44>
  28:	e7ff      	b.n	2a <_ZN4core6option15Option$LT$T$GT$6expect17h90288a9efafc2a7dE+0x2a>
  2a:	9802      	ldr	r0, [sp, #8]
  2c:	2801      	cmp	r0, #1
  2e:	d001      	beq.n	34 <_ZN4core6option15Option$LT$T$GT$6expect17h90288a9efafc2a7dE+0x34>
  30:	e7ff      	b.n	32 <_ZN4core6option15Option$LT$T$GT$6expect17h90288a9efafc2a7dE+0x32>
/rustc/50a0defd5a93523067ef239936cc2e0755220904/src/libcore/option.rs:316
  32:	defe      	udf	#254	; 0xfe
/rustc/50a0defd5a93523067ef239936cc2e0755220904/src/libcore/option.rs:313
  34:	9808      	ldr	r0, [sp, #32]
  36:	900b      	str	r0, [sp, #44]	; 0x2c
  38:	980b      	ldr	r0, [sp, #44]	; 0x2c
/rustc/50a0defd5a93523067ef239936cc2e0755220904/src/libcore/option.rs:316
  3a:	9907      	ldr	r1, [sp, #28]
  3c:	2901      	cmp	r1, #1
  3e:	9001      	str	r0, [sp, #4]
  40:	d005      	beq.n	4e <_ZN4core6option15Option$LT$T$GT$6expect17h90288a9efafc2a7dE+0x4e>
  42:	e007      	b.n	54 <_ZN4core6option15Option$LT$T$GT$6expect17h90288a9efafc2a7dE+0x54>
/rustc/50a0defd5a93523067ef239936cc2e0755220904/src/libcore/option.rs:314
  44:	9809      	ldr	r0, [sp, #36]	; 0x24
  46:	990a      	ldr	r1, [sp, #40]	; 0x28
  48:	f7ff fffe 	bl	0 <_ZN4core6option13expect_failed17h3eeb96a257d935a1E>
  4c:	defe      	udf	#254	; 0xfe
/rustc/50a0defd5a93523067ef239936cc2e0755220904/src/libcore/option.rs:316
  4e:	9801      	ldr	r0, [sp, #4]
  50:	b00c      	add	sp, #48	; 0x30
  52:	bdb0      	pop	{r4, r5, r7, pc}
  54:	e7fb      	b.n	4e <_ZN4core6option15Option$LT$T$GT$6expect17h90288a9efafc2a7dE+0x4e>

app-f507768d2039d2a9.7yx59emea0ie87s.rcgu.o:     file format elf32-littlearm

SYMBOL TABLE:
00000000 l    df *ABS*	00000000 7yx59emea0ie87s
00001e8a l       .debug_str	00000000 
00002846 l       .debug_str	00000000 
0000284f l       .debug_str	00000000 
00002856 l       .debug_str	00000000 
0000285c l       .debug_str	00000000 
00002862 l       .debug_str	00000000 
00002867 l       .debug_str	00000000 
0000286f l       .debug_str	00000000 
00002874 l       .debug_str	00000000 
000028e4 l       .debug_str	00000000 
0000291a l       .debug_str	00000000 
0000294c l       .debug_str	00000000 
00002951 l       .debug_str	00000000 
000029c1 l       .debug_str	00000000 
000029ef l       .debug_str	00000000 
00002a19 l       .debug_str	00000000 
00002a1d l       .debug_str	00000000 
00002a22 l       .debug_str	00000000 
00002a24 l       .debug_str	00000000 
00002a26 l       .debug_str	00000000 
00002a2b l       .debug_str	00000000 
00000000 l       .debug_str	00000000 
00000041 l       .debug_str	00000000 
00000055 l       .debug_str	00000000 
00000085 l       .debug_str	00000000 
0000008a l       .debug_str	00000000 
0000008e l       .debug_str	00000000 
00000091 l       .debug_str	00000000 
0000009c l       .debug_str	00000000 
000000a7 l       .debug_str	00000000 
000000ae l       .debug_str	00000000 
000000b5 l       .debug_str	00000000 
000000bc l       .debug_str	00000000 
000000c0 l       .debug_str	00000000 
000000c8 l       .debug_str	00000000 
000000d3 l       .debug_str	00000000 
000000de l       .debug_str	00000000 
000000eb l       .debug_str	00000000 
000000f6 l       .debug_str	00000000 
000000fe l       .debug_str	00000000 
00000109 l       .debug_str	00000000 
00000114 l       .debug_str	00000000 
0000011e l       .debug_str	00000000 
00000129 l       .debug_str	00000000 
00000134 l       .debug_str	00000000 
00000141 l       .debug_str	00000000 
0000014d l       .debug_str	00000000 
0000015a l       .debug_str	00000000 
00000168 l       .debug_str	00000000 
00000172 l       .debug_str	00000000 
0000017f l       .debug_str	00000000 
0000018b l       .debug_str	00000000 
0000018f l       .debug_str	00000000 
00000192 l       .debug_str	00000000 
00000196 l       .debug_str	00000000 
0000019d l       .debug_str	00000000 
000001a0 l       .debug_str	00000000 
000001aa l       .debug_str	00000000 
000001b5 l       .debug_str	00000000 
000001be l       .debug_str	00000000 
000001c9 l       .debug_str	00000000 
000001d5 l       .debug_str	00000000 
000001d9 l       .debug_str	00000000 
000001e2 l       .debug_str	00000000 
000001e9 l       .debug_str	00000000 
000001f1 l       .debug_str	00000000 
000001f9 l       .debug_str	00000000 
00000203 l       .debug_str	00000000 
00000209 l       .debug_str	00000000 
00000210 l       .debug_str	00000000 
0000021a l       .debug_str	00000000 
00000221 l       .debug_str	00000000 
00000228 l       .debug_str	00000000 
0000022d l       .debug_str	00000000 
00000244 l       .debug_str	00000000 
00000271 l       .debug_str	00000000 
00000273 l       .debug_str	00000000 
00000278 l       .debug_str	00000000 
000002ad l       .debug_str	00000000 
000002b3 l       .debug_str	00000000 
000002b9 l       .debug_str	00000000 
000002c8 l       .debug_str	00000000 
000002d8 l       .debug_str	00000000 
000002e8 l       .debug_str	00000000 
000002f0 l       .debug_str	00000000 
00000319 l       .debug_str	00000000 
00000377 l       .debug_str	00000000 
000003dd l       .debug_str	00000000 
000003e4 l       .debug_str	00000000 
000003ec l       .debug_str	00000000 
000003f5 l       .debug_str	00000000 
00000413 l       .debug_str	00000000 
00000423 l       .debug_str	00000000 
00000431 l       .debug_str	00000000 
0000043c l       .debug_str	00000000 
00000449 l       .debug_str	00000000 
00000458 l       .debug_str	00000000 
00000462 l       .debug_str	00000000 
00000478 l       .debug_str	00000000 
00000482 l       .debug_str	00000000 
0000048b l       .debug_str	00000000 
00000494 l       .debug_str	00000000 
000004ba l       .debug_str	00000000 
000004d0 l       .debug_str	00000000 
000004db l       .debug_str	00000000 
000004f1 l       .debug_str	00000000 
000004f9 l       .debug_str	00000000 
0000051a l       .debug_str	00000000 
00000523 l       .debug_str	00000000 
0000052c l       .debug_str	00000000 
00000537 l       .debug_str	00000000 
00000541 l       .debug_str	00000000 
00000547 l       .debug_str	00000000 
0000057f l       .debug_str	00000000 
000005bf l       .debug_str	00000000 
000005c6 l       .debug_str	00000000 
000005ce l       .debug_str	00000000 
000005e5 l       .debug_str	00000000 
000005ee l       .debug_str	00000000 
00000610 l       .debug_str	00000000 
0000061a l       .debug_str	00000000 
00000641 l       .debug_str	00000000 
00000659 l       .debug_str	00000000 
00000663 l       .debug_str	00000000 
00000686 l       .debug_str	00000000 
00000688 l       .debug_str	00000000 
0000068c l       .debug_str	00000000 
000006d4 l       .debug_str	00000000 
000006d7 l       .debug_str	00000000 
000006ff l       .debug_str	00000000 
00000708 l       .debug_str	00000000 
00000748 l       .debug_str	00000000 
0000078f l       .debug_str	00000000 
000007cf l       .debug_str	00000000 
000007f6 l       .debug_str	00000000 
00000865 l       .debug_str	00000000 
00000890 l       .debug_str	00000000 
00000893 l       .debug_str	00000000 
0000089a l       .debug_str	00000000 
000008a3 l       .debug_str	00000000 
000008b2 l       .debug_str	00000000 
000008b6 l       .debug_str	00000000 
000008be l       .debug_str	00000000 
000008c4 l       .debug_str	00000000 
000008d0 l       .debug_str	00000000 
000008d8 l       .debug_str	00000000 
00000932 l       .debug_str	00000000 
00000994 l       .debug_str	00000000 
0000099f l       .debug_str	00000000 
000009e6 l       .debug_str	00000000 
00000a35 l       .debug_str	00000000 
00000a3f l       .debug_str	00000000 
00000a7c l       .debug_str	00000000 
00000ac1 l       .debug_str	00000000 
00000aca l       .debug_str	00000000 
00000ada l       .debug_str	00000000 
00000ae2 l       .debug_str	00000000 
00000b37 l       .debug_str	00000000 
00000b94 l       .debug_str	00000000 
00000ba0 l       .debug_str	00000000 
00000ba9 l       .debug_str	00000000 
00000bb5 l       .debug_str	00000000 
00000bc1 l       .debug_str	00000000 
00000bca l       .debug_str	00000000 
00000bd2 l       .debug_str	00000000 
00000bda l       .debug_str	00000000 
00000bef l       .debug_str	00000000 
00000bf6 l       .debug_str	00000000 
00000c16 l       .debug_str	00000000 
00000c1d l       .debug_str	00000000 
00000c25 l       .debug_str	00000000 
00000c2f l       .debug_str	00000000 
00000c46 l       .debug_str	00000000 
00000c4b l       .debug_str	00000000 
00000c53 l       .debug_str	00000000 
00000c5c l       .debug_str	00000000 
00000c65 l       .debug_str	00000000 
00000c6e l       .debug_str	00000000 
00000c76 l       .debug_str	00000000 
00000c7d l       .debug_str	00000000 
00000c89 l       .debug_str	00000000 
00000c94 l       .debug_str	00000000 
00000c9c l       .debug_str	00000000 
00000ca4 l       .debug_str	00000000 
00000da0 l       .debug_str	00000000 
00000ea4 l       .debug_str	00000000 
00000eb2 l       .debug_str	00000000 
00000ebd l       .debug_str	00000000 
00000ec7 l       .debug_str	00000000 
00000edb l       .debug_str	00000000 
00000ee6 l       .debug_str	00000000 
00000f14 l       .debug_str	00000000 
00000f8f l       .debug_str	00000000 
00001012 l       .debug_str	00000000 
00001020 l       .debug_str	00000000 
0000107f l       .debug_str	00000000 
000010e6 l       .debug_str	00000000 
000010fc l       .debug_str	00000000 
0000110c l       .debug_str	00000000 
0000111b l       .debug_str	00000000 
0000111f l       .debug_str	00000000 
00001126 l       .debug_str	00000000 
0000112c l       .debug_str	00000000 
00001130 l       .debug_str	00000000 
00001136 l       .debug_str	00000000 
0000113c l       .debug_str	00000000 
00001148 l       .debug_str	00000000 
00001150 l       .debug_str	00000000 
00001156 l       .debug_str	00000000 
0000115e l       .debug_str	00000000 
00001164 l       .debug_str	00000000 
00001187 l       .debug_str	00000000 
00001197 l       .debug_str	00000000 
000011ca l       .debug_str	00000000 
0000120a l       .debug_str	00000000 
00001252 l       .debug_str	00000000 
00001256 l       .debug_str	00000000 
0000125c l       .debug_str	00000000 
00001262 l       .debug_str	00000000 
00001268 l       .debug_str	00000000 
0000127a l       .debug_str	00000000 
000012af l       .debug_str	00000000 
000012f1 l       .debug_str	00000000 
0000133b l       .debug_str	00000000 
0000133f l       .debug_str	00000000 
00001345 l       .debug_str	00000000 
0000134b l       .debug_str	00000000 
00001351 l       .debug_str	00000000 
00001363 l       .debug_str	00000000 
00001398 l       .debug_str	00000000 
000013da l       .debug_str	00000000 
00001424 l       .debug_str	00000000 
00001428 l       .debug_str	00000000 
0000142e l       .debug_str	00000000 
00001434 l       .debug_str	00000000 
0000143a l       .debug_str	00000000 
00001440 l       .debug_str	00000000 
00001451 l       .debug_str	00000000 
00001485 l       .debug_str	00000000 
000014c6 l       .debug_str	00000000 
0000150f l       .debug_str	00000000 
00001514 l       .debug_str	00000000 
00001519 l       .debug_str	00000000 
0000151d l       .debug_str	00000000 
00001523 l       .debug_str	00000000 
00001529 l       .debug_str	00000000 
0000152f l       .debug_str	00000000 
00001540 l       .debug_str	00000000 
00001574 l       .debug_str	00000000 
000015b5 l       .debug_str	00000000 
000015fe l       .debug_str	00000000 
00001602 l       .debug_str	00000000 
0000160b l       .debug_str	00000000 
0000161c l       .debug_str	00000000 
00001650 l       .debug_str	00000000 
00001691 l       .debug_str	00000000 
000016da l       .debug_str	00000000 
000016df l       .debug_str	00000000 
000016e3 l       .debug_str	00000000 
000016ec l       .debug_str	00000000 
000016f3 l       .debug_str	00000000 
000016fb l       .debug_str	00000000 
0000170d l       .debug_str	00000000 
00001742 l       .debug_str	00000000 
00001784 l       .debug_str	00000000 
000017ce l       .debug_str	00000000 
000017d2 l       .debug_str	00000000 
000017d8 l       .debug_str	00000000 
000017de l       .debug_str	00000000 
000017e4 l       .debug_str	00000000 
000017ea l       .debug_str	00000000 
000017f2 l       .debug_str	00000000 
00001800 l       .debug_str	00000000 
0000180f l       .debug_str	00000000 
00001820 l       .debug_str	00000000 
0000182b l       .debug_str	00000000 
00001836 l       .debug_str	00000000 
00001841 l       .debug_str	00000000 
00001848 l       .debug_str	00000000 
0000186b l       .debug_str	00000000 
0000187d l       .debug_str	00000000 
000018b2 l       .debug_str	00000000 
000018f4 l       .debug_str	00000000 
0000193e l       .debug_str	00000000 
00001942 l       .debug_str	00000000 
0000194c l       .debug_str	00000000 
0000195e l       .debug_str	00000000 
00001993 l       .debug_str	00000000 
000019d5 l       .debug_str	00000000 
00001a1f l       .debug_str	00000000 
00001a24 l       .debug_str	00000000 
00001a2e l       .debug_str	00000000 
00001a40 l       .debug_str	00000000 
00001a75 l       .debug_str	00000000 
00001ab7 l       .debug_str	00000000 
00001b01 l       .debug_str	00000000 
00001b15 l       .debug_str	00000000 
00001b19 l       .debug_str	00000000 
00001b27 l       .debug_str	00000000 
00001b37 l       .debug_str	00000000 
00001b40 l       .debug_str	00000000 
00001b4b l       .debug_str	00000000 
00001b5a l       .debug_str	00000000 
00001b6f l       .debug_str	00000000 
00001ba0 l       .debug_str	00000000 
00001c3d l       .debug_str	00000000 
00001ce2 l       .debug_str	00000000 
00001ced l       .debug_str	00000000 
00001cf6 l       .debug_str	00000000 
00001d17 l       .debug_str	00000000 
00001d2a l       .debug_str	00000000 
00001d60 l       .debug_str	00000000 
00001de3 l       .debug_str	00000000 
00001e6e l       .debug_str	00000000 
00001ed6 l       .debug_str	00000000 
00001f2a l       .debug_str	00000000 
00001f47 l       .debug_str	00000000 
00001f5b l       .debug_str	00000000 
00001fa7 l       .debug_str	00000000 
00001ffb l       .debug_str	00000000 
00002011 l       .debug_str	00000000 
00002025 l       .debug_str	00000000 
0000206c l       .debug_str	00000000 
000020bb l       .debug_str	00000000 
000020c4 l       .debug_str	00000000 
000020d2 l       .debug_str	00000000 
00002103 l       .debug_str	00000000 
00002109 l       .debug_str	00000000 
00002111 l       .debug_str	00000000 
00002118 l       .debug_str	00000000 
00002120 l       .debug_str	00000000 
0000212b l       .debug_str	00000000 
00002133 l       .debug_str	00000000 
00002142 l       .debug_str	00000000 
00002146 l       .debug_str	00000000 
00002151 l       .debug_str	00000000 
0000215d l       .debug_str	00000000 
00002168 l       .debug_str	00000000 
00002179 l       .debug_str	00000000 
0000217f l       .debug_str	00000000 
00002187 l       .debug_str	00000000 
0000218e l       .debug_str	00000000 
00002198 l       .debug_str	00000000 
000021a0 l       .debug_str	00000000 
000021a8 l       .debug_str	00000000 
000021ca l       .debug_str	00000000 
000021d5 l       .debug_str	00000000 
000021e1 l       .debug_str	00000000 
000021e9 l       .debug_str	00000000 
000021f2 l       .debug_str	00000000 
000021fd l       .debug_str	00000000 
00002204 l       .debug_str	00000000 
0000220f l       .debug_str	00000000 
0000221a l       .debug_str	00000000 
0000222a l       .debug_str	00000000 
0000223a l       .debug_str	00000000 
0000226d l       .debug_str	00000000 
00002282 l       .debug_str	00000000 
0000228b l       .debug_str	00000000 
000022e8 l       .debug_str	00000000 
0000234d l       .debug_str	00000000 
00002357 l       .debug_str	00000000 
00002367 l       .debug_str	00000000 
0000237c l       .debug_str	00000000 
00002384 l       .debug_str	00000000 
000023e8 l       .debug_str	00000000 
00002454 l       .debug_str	00000000 
0000245b l       .debug_str	00000000 
00002463 l       .debug_str	00000000 
00002481 l       .debug_str	00000000 
00002491 l       .debug_str	00000000 
000024c4 l       .debug_str	00000000 
000024d9 l       .debug_str	00000000 
000024ec l       .debug_str	00000000 
00002501 l       .debug_str	00000000 
00002508 l       .debug_str	00000000 
0000251d l       .debug_str	00000000 
00002547 l       .debug_str	00000000 
000025c3 l       .debug_str	00000000 
00002647 l       .debug_str	00000000 
0000264e l       .debug_str	00000000 
00002656 l       .debug_str	00000000 
00002674 l       .debug_str	00000000 
00002684 l       .debug_str	00000000 
000026f4 l       .debug_str	00000000 
0000274b l       .debug_str	00000000 
0000279e l       .debug_str	00000000 
0000280e l       .debug_str	00000000 
0000283a l       .debug_str	00000000 
0000283e l       .debug_str	00000000 
00000000 l    d  .text._ZN4core6result19Result$LT$T$C$E$GT$6expect17h38715a24a8044c22E	00000000 .text._ZN4core6result19Result$LT$T$C$E$GT$6expect17h38715a24a8044c22E
00000000 l    d  .text._ZN4core6result19Result$LT$T$C$E$GT$6expect17hdaead1da309d4baeE	00000000 .text._ZN4core6result19Result$LT$T$C$E$GT$6expect17hdaead1da309d4baeE
00000000 l    d  .text._ZN73_$LT$core..result..Result$LT$T$C$E$GT$$u20$as$u20$core..ops..try..Try$GT$10from_error17hf8581bda79764f6fE	00000000 .text._ZN73_$LT$core..result..Result$LT$T$C$E$GT$$u20$as$u20$core..ops..try..Try$GT$10from_error17hf8581bda79764f6fE
00000000 l    d  .text._ZN73_$LT$core..result..Result$LT$T$C$E$GT$$u20$as$u20$core..ops..try..Try$GT$11into_result17h0a13f6fd9eb4fba8E	00000000 .text._ZN73_$LT$core..result..Result$LT$T$C$E$GT$$u20$as$u20$core..ops..try..Try$GT$11into_result17h0a13f6fd9eb4fba8E
00000000 l    d  .text._ZN73_$LT$core..result..Result$LT$T$C$E$GT$$u20$as$u20$core..ops..try..Try$GT$11into_result17h4a9d9452d98ae4b8E	00000000 .text._ZN73_$LT$core..result..Result$LT$T$C$E$GT$$u20$as$u20$core..ops..try..Try$GT$11into_result17h4a9d9452d98ae4b8E
00000000 l    d  .text._ZN73_$LT$core..result..Result$LT$T$C$E$GT$$u20$as$u20$core..ops..try..Try$GT$11into_result17h78e74af31eebe684E	00000000 .text._ZN73_$LT$core..result..Result$LT$T$C$E$GT$$u20$as$u20$core..ops..try..Try$GT$11into_result17h78e74af31eebe684E
00000000 l    d  .text._ZN73_$LT$core..result..Result$LT$T$C$E$GT$$u20$as$u20$core..ops..try..Try$GT$11into_result17h8bf795b417a940bbE	00000000 .text._ZN73_$LT$core..result..Result$LT$T$C$E$GT$$u20$as$u20$core..ops..try..Try$GT$11into_result17h8bf795b417a940bbE
00000000 l    d  .debug_loc	00000000 .debug_loc
00000000 l    d  .debug_abbrev	00000000 .debug_abbrev
00000000 l    d  .debug_info	00000000 .debug_info
00000000 l    d  .debug_ranges	00000000 .debug_ranges
00000000 l    d  .debug_frame	00000000 .debug_frame
00000000 l    d  .debug_line	00000000 .debug_line
00000000         *UND*	00000000 _ZN4core6result13unwrap_failed17hf097ea744d3f86a3E
00000000 g     F .text._ZN4core6result19Result$LT$T$C$E$GT$6expect17h38715a24a8044c22E	0000005a _ZN4core6result19Result$LT$T$C$E$GT$6expect17h38715a24a8044c22E
00000000 g     F .text._ZN4core6result19Result$LT$T$C$E$GT$6expect17hdaead1da309d4baeE	00000052 _ZN4core6result19Result$LT$T$C$E$GT$6expect17hdaead1da309d4baeE
00000000 g     F .text._ZN73_$LT$core..result..Result$LT$T$C$E$GT$$u20$as$u20$core..ops..try..Try$GT$10from_error17hf8581bda79764f6fE	00000012 _ZN73_$LT$core..result..Result$LT$T$C$E$GT$$u20$as$u20$core..ops..try..Try$GT$10from_error17hf8581bda79764f6fE
00000000 g     F .text._ZN73_$LT$core..result..Result$LT$T$C$E$GT$$u20$as$u20$core..ops..try..Try$GT$11into_result17h0a13f6fd9eb4fba8E	00000020 _ZN73_$LT$core..result..Result$LT$T$C$E$GT$$u20$as$u20$core..ops..try..Try$GT$11into_result17h0a13f6fd9eb4fba8E
00000000 g     F .text._ZN73_$LT$core..result..Result$LT$T$C$E$GT$$u20$as$u20$core..ops..try..Try$GT$11into_result17h4a9d9452d98ae4b8E	0000000e _ZN73_$LT$core..result..Result$LT$T$C$E$GT$$u20$as$u20$core..ops..try..Try$GT$11into_result17h4a9d9452d98ae4b8E
00000000 g     F .text._ZN73_$LT$core..result..Result$LT$T$C$E$GT$$u20$as$u20$core..ops..try..Try$GT$11into_result17h78e74af31eebe684E	00000028 _ZN73_$LT$core..result..Result$LT$T$C$E$GT$$u20$as$u20$core..ops..try..Try$GT$11into_result17h78e74af31eebe684E
00000000 g     F .text._ZN73_$LT$core..result..Result$LT$T$C$E$GT$$u20$as$u20$core..ops..try..Try$GT$11into_result17h8bf795b417a940bbE	0000001a _ZN73_$LT$core..result..Result$LT$T$C$E$GT$$u20$as$u20$core..ops..try..Try$GT$11into_result17h8bf795b417a940bbE



Disassembly of section .text._ZN4core6result19Result$LT$T$C$E$GT$6expect17h38715a24a8044c22E:

00000000 <_ZN4core6result19Result$LT$T$C$E$GT$6expect17h38715a24a8044c22E>:
_ZN4core6result19Result$LT$T$C$E$GT$6expect17h38715a24a8044c22E():
/rustc/50a0defd5a93523067ef239936cc2e0755220904/src/libcore/result.rs:824
   0:	b580      	push	{r7, lr}
   2:	b08a      	sub	sp, #40	; 0x28
   4:	4613      	mov	r3, r2
   6:	468c      	mov	ip, r1
   8:	4686      	mov	lr, r0
   a:	9106      	str	r1, [sp, #24]
   c:	9207      	str	r2, [sp, #28]
/rustc/50a0defd5a93523067ef239936cc2e0755220904/src/libcore/result.rs:826
   e:	6800      	ldr	r0, [r0, #0]
  10:	2800      	cmp	r0, #0
  12:	9305      	str	r3, [sp, #20]
  14:	f8cd c010 	str.w	ip, [sp, #16]
  18:	f8cd e00c 	str.w	lr, [sp, #12]
  1c:	9002      	str	r0, [sp, #8]
  1e:	d005      	beq.n	2c <_ZN4core6result19Result$LT$T$C$E$GT$6expect17h38715a24a8044c22E+0x2c>
  20:	e7ff      	b.n	22 <_ZN4core6result19Result$LT$T$C$E$GT$6expect17h38715a24a8044c22E+0x22>
  22:	9802      	ldr	r0, [sp, #8]
  24:	2801      	cmp	r0, #1
  26:	d00b      	beq.n	40 <_ZN4core6result19Result$LT$T$C$E$GT$6expect17h38715a24a8044c22E+0x40>
  28:	e7ff      	b.n	2a <_ZN4core6result19Result$LT$T$C$E$GT$6expect17h38715a24a8044c22E+0x2a>
/rustc/50a0defd5a93523067ef239936cc2e0755220904/src/libcore/result.rs:829
  2a:	defe      	udf	#254	; 0xfe
/rustc/50a0defd5a93523067ef239936cc2e0755220904/src/libcore/result.rs:826
  2c:	9803      	ldr	r0, [sp, #12]
  2e:	6841      	ldr	r1, [r0, #4]
  30:	9108      	str	r1, [sp, #32]
  32:	9808      	ldr	r0, [sp, #32]
/rustc/50a0defd5a93523067ef239936cc2e0755220904/src/libcore/result.rs:829
  34:	9903      	ldr	r1, [sp, #12]
  36:	680a      	ldr	r2, [r1, #0]
  38:	2a00      	cmp	r2, #0
  3a:	9001      	str	r0, [sp, #4]
  3c:	d009      	beq.n	52 <_ZN4core6result19Result$LT$T$C$E$GT$6expect17h38715a24a8044c22E+0x52>
  3e:	e00b      	b.n	58 <_ZN4core6result19Result$LT$T$C$E$GT$6expect17h38715a24a8044c22E+0x58>
/rustc/50a0defd5a93523067ef239936cc2e0755220904/src/libcore/result.rs:827
  40:	9803      	ldr	r0, [sp, #12]
  42:	6841      	ldr	r1, [r0, #4]
  44:	9109      	str	r1, [sp, #36]	; 0x24
  46:	9806      	ldr	r0, [sp, #24]
  48:	9907      	ldr	r1, [sp, #28]
  4a:	9a09      	ldr	r2, [sp, #36]	; 0x24
  4c:	f7ff fffe 	bl	0 <_ZN4core6result13unwrap_failed17hf097ea744d3f86a3E>
  50:	defe      	udf	#254	; 0xfe
/rustc/50a0defd5a93523067ef239936cc2e0755220904/src/libcore/result.rs:829
  52:	9801      	ldr	r0, [sp, #4]
  54:	b00a      	add	sp, #40	; 0x28
  56:	bd80      	pop	{r7, pc}
  58:	e7fb      	b.n	52 <_ZN4core6result19Result$LT$T$C$E$GT$6expect17h38715a24a8044c22E+0x52>

Disassembly of section .text._ZN4core6result19Result$LT$T$C$E$GT$6expect17hdaead1da309d4baeE:

00000000 <_ZN4core6result19Result$LT$T$C$E$GT$6expect17hdaead1da309d4baeE>:
_ZN4core6result19Result$LT$T$C$E$GT$6expect17hdaead1da309d4baeE():
/rustc/50a0defd5a93523067ef239936cc2e0755220904/src/libcore/result.rs:824
   0:	b580      	push	{r7, lr}
   2:	b08a      	sub	sp, #40	; 0x28
   4:	4613      	mov	r3, r2
   6:	468c      	mov	ip, r1
   8:	4686      	mov	lr, r0
   a:	9005      	str	r0, [sp, #20]
   c:	9106      	str	r1, [sp, #24]
   e:	9207      	str	r2, [sp, #28]
/rustc/50a0defd5a93523067ef239936cc2e0755220904/src/libcore/result.rs:826
  10:	9805      	ldr	r0, [sp, #20]
  12:	1e41      	subs	r1, r0, #1
  14:	bf18      	it	ne
  16:	2101      	movne	r1, #1
  18:	2801      	cmp	r0, #1
  1a:	9304      	str	r3, [sp, #16]
  1c:	f8cd c00c 	str.w	ip, [sp, #12]
  20:	f8cd e008 	str.w	lr, [sp, #8]
  24:	9101      	str	r1, [sp, #4]
  26:	d005      	beq.n	34 <_ZN4core6result19Result$LT$T$C$E$GT$6expect17hdaead1da309d4baeE+0x34>
  28:	e7ff      	b.n	2a <_ZN4core6result19Result$LT$T$C$E$GT$6expect17hdaead1da309d4baeE+0x2a>
  2a:	9801      	ldr	r0, [sp, #4]
  2c:	2801      	cmp	r0, #1
  2e:	d005      	beq.n	3c <_ZN4core6result19Result$LT$T$C$E$GT$6expect17hdaead1da309d4baeE+0x3c>
  30:	e7ff      	b.n	32 <_ZN4core6result19Result$LT$T$C$E$GT$6expect17hdaead1da309d4baeE+0x32>
/rustc/50a0defd5a93523067ef239936cc2e0755220904/src/libcore/result.rs:829
  32:	defe      	udf	#254	; 0xfe
  34:	9805      	ldr	r0, [sp, #20]
  36:	2801      	cmp	r0, #1
  38:	d008      	beq.n	4c <_ZN4core6result19Result$LT$T$C$E$GT$6expect17hdaead1da309d4baeE+0x4c>
  3a:	e009      	b.n	50 <_ZN4core6result19Result$LT$T$C$E$GT$6expect17hdaead1da309d4baeE+0x50>
/rustc/50a0defd5a93523067ef239936cc2e0755220904/src/libcore/result.rs:827
  3c:	9805      	ldr	r0, [sp, #20]
  3e:	9009      	str	r0, [sp, #36]	; 0x24
  40:	9806      	ldr	r0, [sp, #24]
  42:	9907      	ldr	r1, [sp, #28]
  44:	9a09      	ldr	r2, [sp, #36]	; 0x24
  46:	f7ff fffe 	bl	0 <_ZN4core6result13unwrap_failed17hf097ea744d3f86a3E>
  4a:	defe      	udf	#254	; 0xfe
/rustc/50a0defd5a93523067ef239936cc2e0755220904/src/libcore/result.rs:829
  4c:	b00a      	add	sp, #40	; 0x28
  4e:	bd80      	pop	{r7, pc}
  50:	e7fc      	b.n	4c <_ZN4core6result19Result$LT$T$C$E$GT$6expect17hdaead1da309d4baeE+0x4c>

Disassembly of section .text._ZN73_$LT$core..result..Result$LT$T$C$E$GT$$u20$as$u20$core..ops..try..Try$GT$10from_error17hf8581bda79764f6fE:

00000000 <_ZN73_$LT$core..result..Result$LT$T$C$E$GT$$u20$as$u20$core..ops..try..Try$GT$10from_error17hf8581bda79764f6fE>:
_ZN73_$LT$core..result..Result$LT$T$C$E$GT$$u20$as$u20$core..ops..try..Try$GT$10from_error17hf8581bda79764f6fE():
/rustc/50a0defd5a93523067ef239936cc2e0755220904/src/libcore/result.rs:1292
   0:	b083      	sub	sp, #12
   2:	4601      	mov	r1, r0
   4:	9001      	str	r0, [sp, #4]
/rustc/50a0defd5a93523067ef239936cc2e0755220904/src/libcore/result.rs:1293
   6:	9801      	ldr	r0, [sp, #4]
   8:	9002      	str	r0, [sp, #8]
/rustc/50a0defd5a93523067ef239936cc2e0755220904/src/libcore/result.rs:1294
   a:	9802      	ldr	r0, [sp, #8]
   c:	9100      	str	r1, [sp, #0]
   e:	b003      	add	sp, #12
  10:	4770      	bx	lr

Disassembly of section .text._ZN73_$LT$core..result..Result$LT$T$C$E$GT$$u20$as$u20$core..ops..try..Try$GT$11into_result17h0a13f6fd9eb4fba8E:

00000000 <_ZN73_$LT$core..result..Result$LT$T$C$E$GT$$u20$as$u20$core..ops..try..Try$GT$11into_result17h0a13f6fd9eb4fba8E>:
_ZN73_$LT$core..result..Result$LT$T$C$E$GT$$u20$as$u20$core..ops..try..Try$GT$11into_result17h0a13f6fd9eb4fba8E():
/rustc/50a0defd5a93523067ef239936cc2e0755220904/src/libcore/result.rs:1282
   0:	b5b0      	push	{r4, r5, r7, lr}
   2:	b082      	sub	sp, #8
   4:	460a      	mov	r2, r1
   6:	4603      	mov	r3, r0
/rustc/50a0defd5a93523067ef239936cc2e0755220904/src/libcore/result.rs:1283
   8:	e8b1 5030 	ldmia.w	r1!, {r4, r5, ip, lr}
   c:	e8a0 5030 	stmia.w	r0!, {r4, r5, ip, lr}
  10:	e891 5030 	ldmia.w	r1, {r4, r5, ip, lr}
  14:	e880 5030 	stmia.w	r0, {r4, r5, ip, lr}
/rustc/50a0defd5a93523067ef239936cc2e0755220904/src/libcore/result.rs:1284
  18:	9201      	str	r2, [sp, #4]
  1a:	9300      	str	r3, [sp, #0]
  1c:	b002      	add	sp, #8
  1e:	bdb0      	pop	{r4, r5, r7, pc}

Disassembly of section .text._ZN73_$LT$core..result..Result$LT$T$C$E$GT$$u20$as$u20$core..ops..try..Try$GT$11into_result17h4a9d9452d98ae4b8E:

00000000 <_ZN73_$LT$core..result..Result$LT$T$C$E$GT$$u20$as$u20$core..ops..try..Try$GT$11into_result17h4a9d9452d98ae4b8E>:
_ZN73_$LT$core..result..Result$LT$T$C$E$GT$$u20$as$u20$core..ops..try..Try$GT$11into_result17h4a9d9452d98ae4b8E():
/rustc/50a0defd5a93523067ef239936cc2e0755220904/src/libcore/result.rs:1282
   0:	b082      	sub	sp, #8
   2:	4601      	mov	r1, r0
   4:	9001      	str	r0, [sp, #4]
/rustc/50a0defd5a93523067ef239936cc2e0755220904/src/libcore/result.rs:1283
   6:	9801      	ldr	r0, [sp, #4]
/rustc/50a0defd5a93523067ef239936cc2e0755220904/src/libcore/result.rs:1284
   8:	9100      	str	r1, [sp, #0]
   a:	b002      	add	sp, #8
   c:	4770      	bx	lr

Disassembly of section .text._ZN73_$LT$core..result..Result$LT$T$C$E$GT$$u20$as$u20$core..ops..try..Try$GT$11into_result17h78e74af31eebe684E:

00000000 <_ZN73_$LT$core..result..Result$LT$T$C$E$GT$$u20$as$u20$core..ops..try..Try$GT$11into_result17h78e74af31eebe684E>:
_ZN73_$LT$core..result..Result$LT$T$C$E$GT$$u20$as$u20$core..ops..try..Try$GT$11into_result17h78e74af31eebe684E():
/rustc/50a0defd5a93523067ef239936cc2e0755220904/src/libcore/result.rs:1282
   0:	b510      	push	{r4, lr}
   2:	b082      	sub	sp, #8
   4:	460a      	mov	r2, r1
   6:	4603      	mov	r3, r0
/rustc/50a0defd5a93523067ef239936cc2e0755220904/src/libcore/result.rs:1283
   8:	f8d1 c000 	ldr.w	ip, [r1]
   c:	f8d1 e004 	ldr.w	lr, [r1, #4]
  10:	688c      	ldr	r4, [r1, #8]
  12:	68c9      	ldr	r1, [r1, #12]
  14:	60c1      	str	r1, [r0, #12]
  16:	6084      	str	r4, [r0, #8]
  18:	f8c0 e004 	str.w	lr, [r0, #4]
  1c:	f8c0 c000 	str.w	ip, [r0]
/rustc/50a0defd5a93523067ef239936cc2e0755220904/src/libcore/result.rs:1284
  20:	9201      	str	r2, [sp, #4]
  22:	9300      	str	r3, [sp, #0]
  24:	b002      	add	sp, #8
  26:	bd10      	pop	{r4, pc}

Disassembly of section .text._ZN73_$LT$core..result..Result$LT$T$C$E$GT$$u20$as$u20$core..ops..try..Try$GT$11into_result17h8bf795b417a940bbE:

00000000 <_ZN73_$LT$core..result..Result$LT$T$C$E$GT$$u20$as$u20$core..ops..try..Try$GT$11into_result17h8bf795b417a940bbE>:
_ZN73_$LT$core..result..Result$LT$T$C$E$GT$$u20$as$u20$core..ops..try..Try$GT$11into_result17h8bf795b417a940bbE():
/rustc/50a0defd5a93523067ef239936cc2e0755220904/src/libcore/result.rs:1282
   0:	b082      	sub	sp, #8
   2:	460a      	mov	r2, r1
   4:	4603      	mov	r3, r0
/rustc/50a0defd5a93523067ef239936cc2e0755220904/src/libcore/result.rs:1283
   6:	f8d1 c000 	ldr.w	ip, [r1]
   a:	6849      	ldr	r1, [r1, #4]
   c:	6041      	str	r1, [r0, #4]
   e:	f8c0 c000 	str.w	ip, [r0]
/rustc/50a0defd5a93523067ef239936cc2e0755220904/src/libcore/result.rs:1284
  12:	9201      	str	r2, [sp, #4]
  14:	9300      	str	r3, [sp, #0]
  16:	b002      	add	sp, #8
  18:	4770      	bx	lr

app-f507768d2039d2a9.8yamf5q8uidmc93.rcgu.o:     file format elf32-littlearm

SYMBOL TABLE:
00000000 l    df *ABS*	00000000 8yamf5q8uidmc93
00000315 l       .debug_str	00000000 
000002fc l       .debug_str	00000000 
00000300 l       .debug_str	00000000 
00000308 l       .debug_str	00000000 
0000030d l       .debug_str	00000000 
0000031a l       .debug_str	00000000 
00000328 l       .debug_str	00000000 
0000032e l       .debug_str	00000000 
00000333 l       .debug_str	00000000 
00000338 l       .debug_str	00000000 
00000348 l       .debug_str	00000000 
0000034c l       .debug_str	00000000 
00000358 l       .debug_str	00000000 
00000379 l       .debug_str	00000000 
0000037d l       .debug_str	00000000 
0000037f l       .debug_str	00000000 
00000389 l       .debug_str	00000000 
0000038d l       .debug_str	00000000 
00000390 l       .debug_str	00000000 
00000395 l       .debug_str	00000000 
0000039e l       .debug_str	00000000 
000003ac l       .debug_str	00000000 
000003be l       .debug_str	00000000 
000003d2 l       .debug_str	00000000 
000003d6 l       .debug_str	00000000 
000003df l       .debug_str	00000000 
00000000 l       .debug_str	00000000 
00000041 l       .debug_str	00000000 
00000055 l       .debug_str	00000000 
00000085 l       .debug_str	00000000 
0000008c l       .debug_str	00000000 
00000093 l       .debug_str	00000000 
00000097 l       .debug_str	00000000 
0000009f l       .debug_str	00000000 
000000aa l       .debug_str	00000000 
000000b5 l       .debug_str	00000000 
000000c2 l       .debug_str	00000000 
000000cd l       .debug_str	00000000 
000000d5 l       .debug_str	00000000 
000000e0 l       .debug_str	00000000 
000000eb l       .debug_str	00000000 
000000f5 l       .debug_str	00000000 
00000100 l       .debug_str	00000000 
0000010b l       .debug_str	00000000 
00000118 l       .debug_str	00000000 
00000124 l       .debug_str	00000000 
00000131 l       .debug_str	00000000 
0000013f l       .debug_str	00000000 
00000149 l       .debug_str	00000000 
00000156 l       .debug_str	00000000 
00000162 l       .debug_str	00000000 
00000166 l       .debug_str	00000000 
00000172 l       .debug_str	00000000 
00000177 l       .debug_str	00000000 
0000017b l       .debug_str	00000000 
00000184 l       .debug_str	00000000 
000001c5 l       .debug_str	00000000 
000001ce l       .debug_str	00000000 
000001d7 l       .debug_str	00000000 
000001da l       .debug_str	00000000 
000001e4 l       .debug_str	00000000 
000001eb l       .debug_str	00000000 
000001f1 l       .debug_str	00000000 
000001f7 l       .debug_str	00000000 
000001fc l       .debug_str	00000000 
00000201 l       .debug_str	00000000 
00000241 l       .debug_str	00000000 
00000257 l       .debug_str	00000000 
0000025b l       .debug_str	00000000 
0000025e l       .debug_str	00000000 
00000262 l       .debug_str	00000000 
00000265 l       .debug_str	00000000 
00000267 l       .debug_str	00000000 
00000269 l       .debug_str	00000000 
0000026d l       .debug_str	00000000 
00000295 l       .debug_str	00000000 
000002d0 l       .debug_str	00000000 
000002e1 l       .debug_str	00000000 
000002ee l       .debug_str	00000000 
000002f1 l       .debug_str	00000000 
000002f8 l       .debug_str	00000000 
00000000 l     O .rodata..Lanon.6a26afe5de224081bdebc751e0a27a06.0	00000017 .Lanon.6a26afe5de224081bdebc751e0a27a06.0
00000000 l     O .rodata..Lanon.6a26afe5de224081bdebc751e0a27a06.1	00000001 .Lanon.6a26afe5de224081bdebc751e0a27a06.1
00000000 l     O .rodata..Lanon.6a26afe5de224081bdebc751e0a27a06.15	0000000d .Lanon.6a26afe5de224081bdebc751e0a27a06.15
00000000 l     O .rodata..Lanon.6a26afe5de224081bdebc751e0a27a06.17	00000003 .Lanon.6a26afe5de224081bdebc751e0a27a06.17
00000000 l     O .rodata..Lanon.6a26afe5de224081bdebc751e0a27a06.19	00000005 .Lanon.6a26afe5de224081bdebc751e0a27a06.19
00000000 l     O .rodata..Lanon.6a26afe5de224081bdebc751e0a27a06.2	00000001 .Lanon.6a26afe5de224081bdebc751e0a27a06.2
00000000 l     O .rodata.cst4	00000004 .Lanon.6a26afe5de224081bdebc751e0a27a06.20
00000004 l     O .rodata.cst4	00000004 .Lanon.6a26afe5de224081bdebc751e0a27a06.21
00000000 l     O .rodata..Lanon.6a26afe5de224081bdebc751e0a27a06.22	00000005 .Lanon.6a26afe5de224081bdebc751e0a27a06.22
00000000 l     O .rodata..Lanon.6a26afe5de224081bdebc751e0a27a06.3	00000001 .Lanon.6a26afe5de224081bdebc751e0a27a06.3
00000008 l     O .rodata.cst4	00000004 .Lanon.6a26afe5de224081bdebc751e0a27a06.31
00000000 l     O .rodata..Lanon.6a26afe5de224081bdebc751e0a27a06.32	00000007 .Lanon.6a26afe5de224081bdebc751e0a27a06.32
00000000 l     O .rodata..Lanon.6a26afe5de224081bdebc751e0a27a06.34	00000006 .Lanon.6a26afe5de224081bdebc751e0a27a06.34
00000000 l     O .rodata..Lanon.6a26afe5de224081bdebc751e0a27a06.39	00000048 .Lanon.6a26afe5de224081bdebc751e0a27a06.39
00000000 l     O .rodata..Lanon.6a26afe5de224081bdebc751e0a27a06.8	00000007 .Lanon.6a26afe5de224081bdebc751e0a27a06.8
00000000 l     F .text._ZN3app11app_network16send_sensor_data17h9421f654a5686f0bE	000005a2 _ZN3app11app_network16send_sensor_data17h9421f654a5686f0bE
00000000 l    d  .text._ZN3app11app_network21aggregate_sensor_data17h4f533b3edbac1d59E	00000000 .text._ZN3app11app_network21aggregate_sensor_data17h4f533b3edbac1d59E
00000000 l    d  .text._ZN3app11app_network16send_sensor_data17h9421f654a5686f0bE	00000000 .text._ZN3app11app_network16send_sensor_data17h9421f654a5686f0bE
00000000 l    d  .debug_abbrev	00000000 .debug_abbrev
00000000 l    d  .debug_info	00000000 .debug_info
00000000 l    d  .debug_ranges	00000000 .debug_ranges
00000000 l    d  .debug_frame	00000000 .debug_frame
00000000 l    d  .debug_line	00000000 .debug_line
00000000 g     F .text._ZN3app11app_network21aggregate_sensor_data17h4f533b3edbac1d59E	0000001a .hidden _ZN3app11app_network21aggregate_sensor_data17h4f533b3edbac1d59E
00000000         *UND*	00000000 _ZN50_$LT$T$u20$as$u20$core..convert..From$LT$T$GT$$GT$4from17h1d2680fd6b19266bE
00000000         *UND*	00000000 _ZN6mynewt3sys7console10print_strn17h52df8dc4b4436ca7E
00000000         *UND*	00000000 _ZN6mynewt3sys7console5flush17hdebac7a23ce4130cE
00000000         *UND*	00000000 _ZN6mynewt3sys7console5print17h1c4aea0ed0a4bc27E
00000000         *UND*	00000000 _ZN6mynewt3sys7console8printint17hbd22b2ad2f6089beE
00000000         *UND*	00000000 _ZN6mynewt4Strn3new17hd901d76bc9adf979E
00000000         *UND*	00000000 _ZN6mynewt4libs14sensor_network12prepare_post17hcfdf24ed9aa1b2aeE
00000000         *UND*	00000000 _ZN6mynewt4libs14sensor_network13get_device_id17h58ad72a2060ba9caE
00000000         *UND*	00000000 _ZN6mynewt4libs14sensor_network14do_server_post17h55e64e051ff798a5E
00000000         *UND*	00000000 _ZN6mynewt4libs14sensor_network16init_server_post17ha0e568e892169aabE
00000000         *UND*	00000000 _ZN6mynewt8encoding12coap_context11CoapContext11key_to_cstr17hd5dad031a98727d5E
00000000         *UND*	00000000 _ZN6mynewt8encoding12coap_context11CoapContext11to_void_ptr17h98bcbe68e32c8e9bE
00000000         *UND*	00000000 _ZN6mynewt8encoding12coap_context11CoapContext13value_to_cstr17h95d6a19dc9f83f2eE
00000000         *UND*	00000000 _ZN6mynewt8encoding12coap_context11CoapContext20json_set_geolocation17h8f5878e390533adeE
00000000         *UND*	00000000 _ZN6mynewt8encoding12coap_context11CoapContext20json_set_text_string17hfd98675bd0ca5bc6E
00000000         *UND*	00000000 _ZN6mynewt8encoding12coap_context11CoapContext4fail17h01f028d733987b86E
00000000         *UND*	00000000 _ZN6mynewt8encoding12coap_context12COAP_CONTEXT17hbabc3206fc364dc4E
00000000         *UND*	00000000 _ZN73_$LT$core..result..Result$LT$T$C$E$GT$$u20$as$u20$core..ops..try..Try$GT$10from_error17hf8581bda79764f6fE
00000000         *UND*	00000000 _ZN73_$LT$core..result..Result$LT$T$C$E$GT$$u20$as$u20$core..ops..try..Try$GT$11into_result17h78e74af31eebe684E
00000000         *UND*	00000000 _ZN73_$LT$core..result..Result$LT$T$C$E$GT$$u20$as$u20$core..ops..try..Try$GT$11into_result17h8bf795b417a940bbE
00000000         *UND*	00000000 _ZN75_$LT$str$u20$as$u20$mynewt..encoding..coap_context..ToBytesOptionalNull$GT$21to_bytes_optional_nul17h0c42bfd52dfd758bE
00000000         *UND*	00000000 _ZN84_$LT$mynewt..Strn$u20$as$u20$mynewt..encoding..coap_context..ToBytesOptionalNull$GT$21to_bytes_optional_nul17hf65942f12ee00348E
00000000         *UND*	00000000 json_helper_close_array
00000000         *UND*	00000000 json_helper_object_array_end_item
00000000         *UND*	00000000 json_helper_object_array_start_item
00000000         *UND*	00000000 json_helper_set_array
00000000         *UND*	00000000 json_helper_set_int
00000000         *UND*	00000000 json_helper_set_text_string
00000000         *UND*	00000000 json_rep_end_root_object
00000000         *UND*	00000000 json_rep_start_root_object



Disassembly of section .text._ZN3app11app_network21aggregate_sensor_data17h4f533b3edbac1d59E:

00000000 <_ZN3app11app_network21aggregate_sensor_data17h4f533b3edbac1d59E>:
_ZN3app11app_network21aggregate_sensor_data17h4f533b3edbac1d59E():
/Users/Luppy/mynewt/stm32bluepill-mynewt-sensor/rust/app/src/app_network.rs:59
        send_sensor_data(&transmit_value)
    }
}

#[cfg(not(feature = "use_float"))]  //  If floating-point and geolocation are disabled, send sensor data without geolocation
pub fn aggregate_sensor_data(sensor_value: &SensorValue) -> MynewtResult<()>  {  //  Returns an error code upon error.
   0:	b580      	push	{r7, lr}
   2:	b084      	sub	sp, #16
   4:	4601      	mov	r1, r0
   6:	9003      	str	r0, [sp, #12]
/Users/Luppy/mynewt/stm32bluepill-mynewt-sensor/rust/app/src/app_network.rs:61
    //  Transmit sensor value without geolocation and return the result
    send_sensor_data(sensor_value)
   8:	9803      	ldr	r0, [sp, #12]
   a:	9102      	str	r1, [sp, #8]
   c:	f7ff fffe 	bl	0 <_ZN3app11app_network21aggregate_sensor_data17h4f533b3edbac1d59E>
  10:	9001      	str	r0, [sp, #4]
  12:	e7ff      	b.n	14 <_ZN3app11app_network21aggregate_sensor_data17h4f533b3edbac1d59E+0x14>
/Users/Luppy/mynewt/stm32bluepill-mynewt-sensor/rust/app/src/app_network.rs:62
}
  14:	9801      	ldr	r0, [sp, #4]
  16:	b004      	add	sp, #16
  18:	bd80      	pop	{r7, pc}

Disassembly of section .text._ZN3app11app_network16send_sensor_data17h9421f654a5686f0bE:

00000000 <_ZN3app11app_network16send_sensor_data17h9421f654a5686f0bE>:
_ZN3app11app_network16send_sensor_data17h9421f654a5686f0bE():
/Users/Luppy/mynewt/stm32bluepill-mynewt-sensor/rust/app/src/app_network.rs:75
/// {"values":[
///   {"key":"t",      "value":1715, "geo": { "lat": ..., "long": ... }},
///   {"key":"device", "value":"0102030405060708090a0b0c0d0e0f10"}
/// ]}
/// ```
fn send_sensor_data(val: &SensorValue) -> MynewtResult<()>  {  //  Returns an error code upon error.
   0:	b580      	push	{r7, lr}
   2:	f5ad 7d1c 	sub.w	sp, sp, #624	; 0x270
   6:	4601      	mov	r1, r0
   8:	902b      	str	r0, [sp, #172]	; 0xac
/Users/Luppy/mynewt/stm32bluepill-mynewt-sensor/rust/app/src/app_network.rs:76
    console::print("Rust send_sensor_data: ");
   a:	f240 0000 	movw	r0, #0
   e:	f2c0 0000 	movt	r0, #0
  12:	2217      	movs	r2, #23
  14:	912a      	str	r1, [sp, #168]	; 0xa8
  16:	4611      	mov	r1, r2
  18:	f7ff fffe 	bl	0 <_ZN6mynewt3sys7console5print17h1c4aea0ed0a4bc27E>
  1c:	e7ff      	b.n	1e <_ZN3app11app_network16send_sensor_data17h9421f654a5686f0bE+0x1e>
/Users/Luppy/mynewt/stm32bluepill-mynewt-sensor/rust/app/src/app_network.rs:77
    if let SensorValueType::Uint(i) = val.value {
  1e:	982b      	ldr	r0, [sp, #172]	; 0xac
  20:	6840      	ldr	r0, [r0, #4]
  22:	2801      	cmp	r0, #1
  24:	d115      	bne.n	52 <_ZN3app11app_network16send_sensor_data17h9421f654a5686f0bE+0x52>
  26:	e7ff      	b.n	28 <_ZN3app11app_network16send_sensor_data17h9421f654a5686f0bE+0x28>
  28:	982b      	ldr	r0, [sp, #172]	; 0xac
  2a:	6880      	ldr	r0, [r0, #8]
  2c:	902d      	str	r0, [sp, #180]	; 0xb4
/Users/Luppy/mynewt/stm32bluepill-mynewt-sensor/rust/app/src/app_network.rs:78
        console::print_strn(val.key);
  2e:	982b      	ldr	r0, [sp, #172]	; 0xac
  30:	6800      	ldr	r0, [r0, #0]
  32:	f7ff fffe 	bl	0 <_ZN6mynewt3sys7console10print_strn17h52df8dc4b4436ca7E>
  36:	e7ff      	b.n	2 <_ZN3app11app_network16send_sensor_data17h9421f654a5686f0bE+0x2>
/Users/Luppy/mynewt/stm32bluepill-mynewt-sensor/rust/app/src/app_network.rs:79
        console::print("=");
  38:	f240 0000 	movw	r0, #0
  3c:	f2c0 0000 	movt	r0, #0
  40:	2101      	movs	r1, #1
  42:	f7ff fffe 	bl	0 <_ZN6mynewt3sys7console5print17h1c4aea0ed0a4bc27E>
  46:	e7ff      	b.n	48 <_ZN3app11app_network16send_sensor_data17h9421f654a5686f0bE+0x48>
/Users/Luppy/mynewt/stm32bluepill-mynewt-sensor/rust/app/src/app_network.rs:80
        console::printint(i as i32);
  48:	982d      	ldr	r0, [sp, #180]	; 0xb4
  4a:	f7ff fffe 	bl	0 <_ZN6mynewt3sys7console8printint17hbd22b2ad2f6089beE>
  4e:	e7ff      	b.n	50 <_ZN3app11app_network16send_sensor_data17h9421f654a5686f0bE+0x50>
/Users/Luppy/mynewt/stm32bluepill-mynewt-sensor/rust/app/src/app_network.rs:77
    if let SensorValueType::Uint(i) = val.value {
  50:	e7ff      	b.n	52 <_ZN3app11app_network16send_sensor_data17h9421f654a5686f0bE+0x52>
/Users/Luppy/mynewt/stm32bluepill-mynewt-sensor/rust/app/src/app_network.rs:82
    }
    console::print("\n");
  52:	f240 0000 	movw	r0, #0
  56:	f2c0 0000 	movt	r0, #0
  5a:	2101      	movs	r1, #1
  5c:	f7ff fffe 	bl	0 <_ZN6mynewt3sys7console5print17h1c4aea0ed0a4bc27E>
  60:	e7ff      	b.n	2 <_ZN6mynewt3sys7console5flush17hdebac7a23ce4130cE+0x2>
/Users/Luppy/mynewt/stm32bluepill-mynewt-sensor/rust/app/src/app_network.rs:83
    console::flush(); ////
  62:	f7ff fffe 	bl	0 <_ZN6mynewt3sys7console5flush17hdebac7a23ce4130cE>
  66:	e7ff      	b.n	68 <_ZN3app11app_network16send_sensor_data17h9421f654a5686f0bE+0x68>
  68:	a835      	add	r0, sp, #212	; 0xd4
/Users/Luppy/mynewt/stm32bluepill-mynewt-sensor/rust/app/src/app_network.rs:86

    //  Get a randomly-generated device ID that changes each time we restart the device.
    let device_id = sensor_network::get_device_id() ? ;
  6a:	f7ff fffe 	bl	0 <_ZN6mynewt4libs14sensor_network13get_device_id17h58ad72a2060ba9caE>
  6e:	e7ff      	b.n	70 <_ZN3app11app_network16send_sensor_data17h9421f654a5686f0bE+0x70>
  70:	a831      	add	r0, sp, #196	; 0xc4
  72:	a935      	add	r1, sp, #212	; 0xd4
  74:	f7ff fffe 	bl	0 <_ZN73_$LT$core..result..Result$LT$T$C$E$GT$$u20$as$u20$core..ops..try..Try$GT$11into_result17h78e74af31eebe684E>
  78:	e7ff      	b.n	7a <_ZN3app11app_network16send_sensor_data17h9421f654a5686f0bE+0x7a>
  7a:	9831      	ldr	r0, [sp, #196]	; 0xc4
  7c:	2800      	cmp	r0, #0
  7e:	9029      	str	r0, [sp, #164]	; 0xa4
  80:	d017      	beq.n	b2 <_ZN3app11app_network16send_sensor_data17h9421f654a5686f0bE+0xb2>
  82:	e7ff      	b.n	84 <_ZN3app11app_network16send_sensor_data17h9421f654a5686f0bE+0x84>
  84:	9829      	ldr	r0, [sp, #164]	; 0xa4
  86:	2801      	cmp	r0, #1
  88:	d001      	beq.n	8e <_ZN3app11app_network16send_sensor_data17h9421f654a5686f0bE+0x8e>
  8a:	e7ff      	b.n	8c <_ZN3app11app_network16send_sensor_data17h9421f654a5686f0bE+0x8c>
/Users/Luppy/mynewt/stm32bluepill-mynewt-sensor/rust/app/src/app_network.rs:121
    console::print("NET view your sensor at \nhttps://blue-pill-geolocate.appspot.com?device=");
    console::print_strn(&device_id); console::print("\n");

    //  The CoAP Background Task will transmit the message in the background.
    Ok(())
}
  8c:	defe      	udf	#254	; 0xfe
/Users/Luppy/mynewt/stm32bluepill-mynewt-sensor/rust/app/src/app_network.rs:86
    let device_id = sensor_network::get_device_id() ? ;
  8e:	9832      	ldr	r0, [sp, #200]	; 0xc8
  90:	9039      	str	r0, [sp, #228]	; 0xe4
  92:	9839      	ldr	r0, [sp, #228]	; 0xe4
  94:	f7ff fffe 	bl	0 <_ZN50_$LT$T$u20$as$u20$core..convert..From$LT$T$GT$$GT$4from17h1d2680fd6b19266bE>
  98:	9028      	str	r0, [sp, #160]	; 0xa0
  9a:	e7ff      	b.n	9c <_ZN3app11app_network16send_sensor_data17h9421f654a5686f0bE+0x9c>
  9c:	9828      	ldr	r0, [sp, #160]	; 0xa0
  9e:	f7ff fffe 	bl	0 <_ZN73_$LT$core..result..Result$LT$T$C$E$GT$$u20$as$u20$core..ops..try..Try$GT$10from_error17hf8581bda79764f6fE>
  a2:	902c      	str	r0, [sp, #176]	; 0xb0
  a4:	e7ff      	b.n	a6 <_ZN3app11app_network16send_sensor_data17h9421f654a5686f0bE+0xa6>
  a6:	e003      	b.n	b0 <_ZN3app11app_network16send_sensor_data17h9421f654a5686f0bE+0xb0>
/Users/Luppy/mynewt/stm32bluepill-mynewt-sensor/rust/app/src/app_network.rs:121
}
  a8:	982c      	ldr	r0, [sp, #176]	; 0xb0
  aa:	f50d 7d1c 	add.w	sp, sp, #624	; 0x270
  ae:	bd80      	pop	{r7, pc}
/Users/Luppy/mynewt/stm32bluepill-mynewt-sensor/rust/app/src/app_network.rs:86
    let device_id = sensor_network::get_device_id() ? ;
  b0:	e7fa      	b.n	a8 <_ZN3app11app_network16send_sensor_data17h9421f654a5686f0bE+0xa8>
  b2:	9832      	ldr	r0, [sp, #200]	; 0xc8
  b4:	9933      	ldr	r1, [sp, #204]	; 0xcc
  b6:	9a34      	ldr	r2, [sp, #208]	; 0xd0
  b8:	923c      	str	r2, [sp, #240]	; 0xf0
  ba:	913b      	str	r1, [sp, #236]	; 0xec
  bc:	903a      	str	r0, [sp, #232]	; 0xe8
  be:	983a      	ldr	r0, [sp, #232]	; 0xe8
  c0:	993b      	ldr	r1, [sp, #236]	; 0xec
  c2:	9a3c      	ldr	r2, [sp, #240]	; 0xf0
  c4:	9230      	str	r2, [sp, #192]	; 0xc0
  c6:	912f      	str	r1, [sp, #188]	; 0xbc
  c8:	902e      	str	r0, [sp, #184]	; 0xb8
/Users/Luppy/mynewt/stm32bluepill-mynewt-sensor/rust/app/src/app_network.rs:91
    let rc = sensor_network::init_server_post( strn!(()) ) ? ;  //  `strn!(())` means use default CoAP URI in `syscfg.yml`
  ca:	f240 0100 	movw	r1, #0
  ce:	f2c0 0100 	movt	r1, #0
  d2:	a842      	add	r0, sp, #264	; 0x108
  d4:	2201      	movs	r2, #1
  d6:	f7ff fffe 	bl	0 <_ZN6mynewt4Strn3new17hd901d76bc9adf979E>
  da:	e7ff      	b.n	dc <_ZN3app11app_network16send_sensor_data17h9421f654a5686f0bE+0xdc>
  dc:	a840      	add	r0, sp, #256	; 0x100
  de:	a942      	add	r1, sp, #264	; 0x108
  e0:	f7ff fffe 	bl	0 <_ZN6mynewt4libs14sensor_network16init_server_post17ha0e568e892169aabE>
  e4:	e7ff      	b.n	e6 <_ZN3app11app_network16send_sensor_data17h9421f654a5686f0bE+0xe6>
  e6:	a83e      	add	r0, sp, #248	; 0xf8
  e8:	a940      	add	r1, sp, #256	; 0x100
  ea:	f7ff fffe 	bl	0 <_ZN73_$LT$core..result..Result$LT$T$C$E$GT$$u20$as$u20$core..ops..try..Try$GT$11into_result17h8bf795b417a940bbE>
  ee:	e7ff      	b.n	f0 <_ZN3app11app_network16send_sensor_data17h9421f654a5686f0bE+0xf0>
  f0:	f89d 00f8 	ldrb.w	r0, [sp, #248]	; 0xf8
  f4:	07c1      	lsls	r1, r0, #31
  f6:	2900      	cmp	r1, #0
  f8:	9027      	str	r0, [sp, #156]	; 0x9c
  fa:	d012      	beq.n	122 <_ZN3app11app_network16send_sensor_data17h9421f654a5686f0bE+0x122>
  fc:	e7ff      	b.n	fe <_ZN3app11app_network16send_sensor_data17h9421f654a5686f0bE+0xfe>
  fe:	9827      	ldr	r0, [sp, #156]	; 0x9c
 100:	2801      	cmp	r0, #1
 102:	d1c3      	bne.n	8c <_ZN3app11app_network16send_sensor_data17h9421f654a5686f0bE+0x8c>
 104:	e7ff      	b.n	106 <_ZN3app11app_network16send_sensor_data17h9421f654a5686f0bE+0x106>
 106:	983f      	ldr	r0, [sp, #252]	; 0xfc
 108:	9045      	str	r0, [sp, #276]	; 0x114
 10a:	9845      	ldr	r0, [sp, #276]	; 0x114
 10c:	f7ff fffe 	bl	0 <_ZN50_$LT$T$u20$as$u20$core..convert..From$LT$T$GT$$GT$4from17h1d2680fd6b19266bE>
 110:	9026      	str	r0, [sp, #152]	; 0x98
 112:	e7ff      	b.n	114 <_ZN3app11app_network16send_sensor_data17h9421f654a5686f0bE+0x114>
 114:	9826      	ldr	r0, [sp, #152]	; 0x98
 116:	f7ff fffe 	bl	0 <_ZN73_$LT$core..result..Result$LT$T$C$E$GT$$u20$as$u20$core..ops..try..Try$GT$10from_error17hf8581bda79764f6fE>
 11a:	902c      	str	r0, [sp, #176]	; 0xb0
 11c:	e7ff      	b.n	11e <_ZN3app11app_network16send_sensor_data17h9421f654a5686f0bE+0x11e>
 11e:	e7ff      	b.n	120 <_ZN3app11app_network16send_sensor_data17h9421f654a5686f0bE+0x120>
 120:	e7c6      	b.n	b0 <_ZN3app11app_network16send_sensor_data17h9421f654a5686f0bE+0xb0>
 122:	f89d 00f9 	ldrb.w	r0, [sp, #249]	; 0xf9
 126:	f88d 011b 	strb.w	r0, [sp, #283]	; 0x11b
 12a:	f89d 011b 	ldrb.w	r0, [sp, #283]	; 0x11b
 12e:	f88d 00f7 	strb.w	r0, [sp, #247]	; 0xf7
/Users/Luppy/mynewt/stm32bluepill-mynewt-sensor/rust/app/src/app_network.rs:94
    if !rc { return Err(MynewtError::SYS_EAGAIN); }
 132:	f89d 00f7 	ldrb.w	r0, [sp, #247]	; 0xf7
 136:	07c0      	lsls	r0, r0, #31
 138:	2800      	cmp	r0, #0
 13a:	d106      	bne.n	14a <_ZN3app11app_network16send_sensor_data17h9421f654a5686f0bE+0x14a>
 13c:	e7ff      	b.n	13e <_ZN3app11app_network16send_sensor_data17h9421f654a5686f0bE+0x13e>
 13e:	f06f 0005 	mvn.w	r0, #5
 142:	9047      	str	r0, [sp, #284]	; 0x11c
 144:	9847      	ldr	r0, [sp, #284]	; 0x11c
 146:	902c      	str	r0, [sp, #176]	; 0xb0
 148:	e7ea      	b.n	120 <_ZN3app11app_network16send_sensor_data17h9421f654a5686f0bE+0x120>
 14a:	a84b      	add	r0, sp, #300	; 0x12c
 14c:	2132      	movs	r1, #50	; 0x32
/Users/Luppy/mynewt/stm32bluepill-mynewt-sensor/rust/app/src/app_network.rs:98
    let _payload = coap!( @json {        
 14e:	f7ff fffe 	bl	0 <_ZN6mynewt4libs14sensor_network12prepare_post17hcfdf24ed9aa1b2aeE>
 152:	e7ff      	b.n	154 <_ZN3app11app_network16send_sensor_data17h9421f654a5686f0bE+0x154>
 154:	a849      	add	r0, sp, #292	; 0x124
 156:	a94b      	add	r1, sp, #300	; 0x12c
 158:	f7ff fffe 	bl	0 <_ZN73_$LT$core..result..Result$LT$T$C$E$GT$$u20$as$u20$core..ops..try..Try$GT$11into_result17h8bf795b417a940bbE>
 15c:	e7ff      	b.n	15e <_ZN3app11app_network16send_sensor_data17h9421f654a5686f0bE+0x15e>
 15e:	f89d 0124 	ldrb.w	r0, [sp, #292]	; 0x124
 162:	07c1      	lsls	r1, r0, #31
 164:	2900      	cmp	r1, #0
 166:	9025      	str	r0, [sp, #148]	; 0x94
 168:	d013      	beq.n	192 <_ZN3app11app_network16send_sensor_data17h9421f654a5686f0bE+0x192>
 16a:	e7ff      	b.n	16c <_ZN3app11app_network16send_sensor_data17h9421f654a5686f0bE+0x16c>
 16c:	9825      	ldr	r0, [sp, #148]	; 0x94
 16e:	2801      	cmp	r0, #1
 170:	f47f af8c 	bne.w	8c <_ZN3app11app_network16send_sensor_data17h9421f654a5686f0bE+0x8c>
 174:	e7ff      	b.n	176 <_ZN3app11app_network16send_sensor_data17h9421f654a5686f0bE+0x176>
 176:	984a      	ldr	r0, [sp, #296]	; 0x128
 178:	904d      	str	r0, [sp, #308]	; 0x134
 17a:	984d      	ldr	r0, [sp, #308]	; 0x134
 17c:	f7ff fffe 	bl	0 <_ZN50_$LT$T$u20$as$u20$core..convert..From$LT$T$GT$$GT$4from17h1d2680fd6b19266bE>
 180:	9024      	str	r0, [sp, #144]	; 0x90
 182:	e7ff      	b.n	184 <_ZN3app11app_network16send_sensor_data17h9421f654a5686f0bE+0x184>
 184:	9824      	ldr	r0, [sp, #144]	; 0x90
 186:	f7ff fffe 	bl	0 <_ZN73_$LT$core..result..Result$LT$T$C$E$GT$$u20$as$u20$core..ops..try..Try$GT$10from_error17hf8581bda79764f6fE>
 18a:	902c      	str	r0, [sp, #176]	; 0xb0
 18c:	e7ff      	b.n	18e <_ZN3app11app_network16send_sensor_data17h9421f654a5686f0bE+0x18e>
 18e:	e7ff      	b.n	190 <_ZN3app11app_network16send_sensor_data17h9421f654a5686f0bE+0x190>
 190:	e7c6      	b.n	120 <_ZN3app11app_network16send_sensor_data17h9421f654a5686f0bE+0x120>
 192:	f89d 0125 	ldrb.w	r0, [sp, #293]	; 0x125
 196:	f88d 013b 	strb.w	r0, [sp, #315]	; 0x13b
 19a:	f7ff fffe 	bl	0 <json_rep_start_root_object>
 19e:	e7ff      	b.n	2 <_ZN3app11app_network16send_sensor_data17h9421f654a5686f0bE+0x2>
 1a0:	f240 0000 	movw	r0, #0
 1a4:	f2c0 0000 	movt	r0, #0
 1a8:	904f      	str	r0, [sp, #316]	; 0x13c
 1aa:	2007      	movs	r0, #7
 1ac:	9050      	str	r0, [sp, #320]	; 0x140
 1ae:	f240 0000 	movw	r0, #0
 1b2:	f2c0 0000 	movt	r0, #0
 1b6:	f7ff fffe 	bl	0 <_ZN6mynewt8encoding12coap_context11CoapContext11to_void_ptr17h98bcbe68e32c8e9bE>
 1ba:	9023      	str	r0, [sp, #140]	; 0x8c
 1bc:	e7ff      	b.n	1be <_ZN3app11app_network16send_sensor_data17h9421f654a5686f0bE+0x1be>
 1be:	984f      	ldr	r0, [sp, #316]	; 0x13c
 1c0:	9950      	ldr	r1, [sp, #320]	; 0x140
 1c2:	9084      	str	r0, [sp, #528]	; 0x210
 1c4:	9185      	str	r1, [sp, #532]	; 0x214
_ZN4core3str21_$LT$impl$u20$str$GT$8as_bytes17hbca31947ef6ad219E():
/rustc/50a0defd5a93523067ef239936cc2e0755220904/src/libcore/str/mod.rs:2153
 1c6:	9884      	ldr	r0, [sp, #528]	; 0x210
 1c8:	9985      	ldr	r1, [sp, #532]	; 0x214
 1ca:	9086      	str	r0, [sp, #536]	; 0x218
 1cc:	9187      	str	r1, [sp, #540]	; 0x21c
 1ce:	9986      	ldr	r1, [sp, #536]	; 0x218
 1d0:	9a87      	ldr	r2, [sp, #540]	; 0x21c
_ZN3app11app_network16send_sensor_data17h9421f654a5686f0bE():
/Users/Luppy/mynewt/stm32bluepill-mynewt-sensor/rust/app/src/app_network.rs:98
 1d2:	9122      	str	r1, [sp, #136]	; 0x88
 1d4:	9221      	str	r2, [sp, #132]	; 0x84
 1d6:	e7ff      	b.n	1d8 <_ZN3app11app_network16send_sensor_data17h9421f654a5686f0bE+0x1d8>
 1d8:	f240 0000 	movw	r0, #0
 1dc:	f2c0 0000 	movt	r0, #0
 1e0:	9922      	ldr	r1, [sp, #136]	; 0x88
 1e2:	9a21      	ldr	r2, [sp, #132]	; 0x84
 1e4:	f7ff fffe 	bl	0 <_ZN6mynewt8encoding12coap_context11CoapContext11key_to_cstr17hd5dad031a98727d5E>
 1e8:	9020      	str	r0, [sp, #128]	; 0x80
 1ea:	e7ff      	b.n	1ec <_ZN3app11app_network16send_sensor_data17h9421f654a5686f0bE+0x1ec>
 1ec:	9823      	ldr	r0, [sp, #140]	; 0x8c
 1ee:	9920      	ldr	r1, [sp, #128]	; 0x80
 1f0:	f7ff fffe 	bl	0 <json_helper_set_array>
 1f4:	e7ff      	b.n	1f6 <_ZN3app11app_network16send_sensor_data17h9421f654a5686f0bE+0x1f6>
 1f6:	982b      	ldr	r0, [sp, #172]	; 0xac
 1f8:	68c1      	ldr	r1, [r0, #12]
 1fa:	6900      	ldr	r0, [r0, #16]
 1fc:	9151      	str	r1, [sp, #324]	; 0x144
 1fe:	9052      	str	r0, [sp, #328]	; 0x148
 200:	982b      	ldr	r0, [sp, #172]	; 0xac
 202:	6840      	ldr	r0, [r0, #4]
 204:	2801      	cmp	r0, #1
 206:	f040 80d9 	bne.w	3bc <_ZN3app11app_network16send_sensor_data17h9421f654a5686f0bE+0x3bc>
 20a:	e7ff      	b.n	20c <_ZN3app11app_network16send_sensor_data17h9421f654a5686f0bE+0x20c>
 20c:	982b      	ldr	r0, [sp, #172]	; 0xac
 20e:	6880      	ldr	r0, [r0, #8]
 210:	9053      	str	r0, [sp, #332]	; 0x14c
 212:	f240 0000 	movw	r0, #0
 216:	f2c0 0000 	movt	r0, #0
 21a:	9054      	str	r0, [sp, #336]	; 0x150
 21c:	200d      	movs	r0, #13
 21e:	9055      	str	r0, [sp, #340]	; 0x154
 220:	9854      	ldr	r0, [sp, #336]	; 0x150
 222:	9955      	ldr	r1, [sp, #340]	; 0x154
 224:	9098      	str	r0, [sp, #608]	; 0x260
 226:	9199      	str	r1, [sp, #612]	; 0x264
_ZN4core3str21_$LT$impl$u20$str$GT$8as_bytes17hbca31947ef6ad219E():
/rustc/50a0defd5a93523067ef239936cc2e0755220904/src/libcore/str/mod.rs:2153
 228:	9898      	ldr	r0, [sp, #608]	; 0x260
 22a:	9999      	ldr	r1, [sp, #612]	; 0x264
 22c:	909a      	str	r0, [sp, #616]	; 0x268
 22e:	919b      	str	r1, [sp, #620]	; 0x26c
 230:	999a      	ldr	r1, [sp, #616]	; 0x268
 232:	9a9b      	ldr	r2, [sp, #620]	; 0x26c
_ZN3app11app_network16send_sensor_data17h9421f654a5686f0bE():
/Users/Luppy/mynewt/stm32bluepill-mynewt-sensor/rust/app/src/app_network.rs:98
 234:	911f      	str	r1, [sp, #124]	; 0x7c
 236:	921e      	str	r2, [sp, #120]	; 0x78
 238:	e7ff      	b.n	23a <_ZN3app11app_network16send_sensor_data17h9421f654a5686f0bE+0x23a>
 23a:	f240 0000 	movw	r0, #0
 23e:	f2c0 0000 	movt	r0, #0
 242:	991f      	ldr	r1, [sp, #124]	; 0x7c
 244:	9a1e      	ldr	r2, [sp, #120]	; 0x78
 246:	f7ff fffe 	bl	0 <_ZN6mynewt8encoding12coap_context11CoapContext11key_to_cstr17hd5dad031a98727d5E>
 24a:	901d      	str	r0, [sp, #116]	; 0x74
 24c:	e7ff      	b.n	24e <_ZN3app11app_network16send_sensor_data17h9421f654a5686f0bE+0x24e>
 24e:	981d      	ldr	r0, [sp, #116]	; 0x74
 250:	f7ff fffe 	bl	0 <json_helper_object_array_start_item>
 254:	e7ff      	b.n	2 <_ZN3app11app_network16send_sensor_data17h9421f654a5686f0bE+0x2>
 256:	f240 0000 	movw	r0, #0
 25a:	f2c0 0000 	movt	r0, #0
 25e:	2103      	movs	r1, #3
 260:	f7ff fffe 	bl	0 <_ZN75_$LT$str$u20$as$u20$mynewt..encoding..coap_context..ToBytesOptionalNull$GT$21to_bytes_optional_nul17h0c42bfd52dfd758bE>
 264:	901c      	str	r0, [sp, #112]	; 0x70
 266:	911b      	str	r1, [sp, #108]	; 0x6c
 268:	e7ff      	b.n	26a <_ZN3app11app_network16send_sensor_data17h9421f654a5686f0bE+0x26a>
 26a:	981c      	ldr	r0, [sp, #112]	; 0x70
 26c:	9056      	str	r0, [sp, #344]	; 0x158
 26e:	991b      	ldr	r1, [sp, #108]	; 0x6c
 270:	9157      	str	r1, [sp, #348]	; 0x15c
 272:	9a2b      	ldr	r2, [sp, #172]	; 0xac
 274:	6810      	ldr	r0, [r2, #0]
 276:	f7ff fffe 	bl	0 <_ZN84_$LT$mynewt..Strn$u20$as$u20$mynewt..encoding..coap_context..ToBytesOptionalNull$GT$21to_bytes_optional_nul17hf65942f12ee00348E>
 27a:	901a      	str	r0, [sp, #104]	; 0x68
 27c:	9119      	str	r1, [sp, #100]	; 0x64
 27e:	e7ff      	b.n	280 <_ZN3app11app_network16send_sensor_data17h9421f654a5686f0bE+0x280>
 280:	981a      	ldr	r0, [sp, #104]	; 0x68
 282:	9058      	str	r0, [sp, #352]	; 0x160
 284:	9919      	ldr	r1, [sp, #100]	; 0x64
 286:	9159      	str	r1, [sp, #356]	; 0x164
 288:	f240 0000 	movw	r0, #0
 28c:	f2c0 0000 	movt	r0, #0
 290:	f7ff fffe 	bl	0 <_ZN6mynewt8encoding12coap_context11CoapContext11to_void_ptr17h98bcbe68e32c8e9bE>
 294:	9018      	str	r0, [sp, #96]	; 0x60
 296:	e7ff      	b.n	298 <_ZN3app11app_network16send_sensor_data17h9421f654a5686f0bE+0x298>
 298:	9956      	ldr	r1, [sp, #344]	; 0x158
 29a:	9a57      	ldr	r2, [sp, #348]	; 0x15c
 29c:	f240 0000 	movw	r0, #0
 2a0:	f2c0 0000 	movt	r0, #0
 2a4:	f7ff fffe 	bl	0 <_ZN6mynewt8encoding12coap_context11CoapContext11key_to_cstr17hd5dad031a98727d5E>
 2a8:	9017      	str	r0, [sp, #92]	; 0x5c
 2aa:	e7ff      	b.n	2ac <_ZN3app11app_network16send_sensor_data17h9421f654a5686f0bE+0x2ac>
 2ac:	9958      	ldr	r1, [sp, #352]	; 0x160
 2ae:	9a59      	ldr	r2, [sp, #356]	; 0x164
 2b0:	f240 0000 	movw	r0, #0
 2b4:	f2c0 0000 	movt	r0, #0
 2b8:	f7ff fffe 	bl	0 <_ZN6mynewt8encoding12coap_context11CoapContext13value_to_cstr17h95d6a19dc9f83f2eE>
 2bc:	9016      	str	r0, [sp, #88]	; 0x58
 2be:	e7ff      	b.n	2c0 <_ZN3app11app_network16send_sensor_data17h9421f654a5686f0bE+0x2c0>
 2c0:	9818      	ldr	r0, [sp, #96]	; 0x60
 2c2:	9917      	ldr	r1, [sp, #92]	; 0x5c
 2c4:	9a16      	ldr	r2, [sp, #88]	; 0x58
 2c6:	f7ff fffe 	bl	0 <json_helper_set_text_string>
 2ca:	e7ff      	b.n	2 <_ZN3app11app_network16send_sensor_data17h9421f654a5686f0bE+0x2>
 2cc:	f240 0000 	movw	r0, #0
 2d0:	f2c0 0000 	movt	r0, #0
 2d4:	2105      	movs	r1, #5
 2d6:	f7ff fffe 	bl	0 <_ZN75_$LT$str$u20$as$u20$mynewt..encoding..coap_context..ToBytesOptionalNull$GT$21to_bytes_optional_nul17h0c42bfd52dfd758bE>
 2da:	9015      	str	r0, [sp, #84]	; 0x54
 2dc:	9114      	str	r1, [sp, #80]	; 0x50
 2de:	e7ff      	b.n	2e0 <_ZN3app11app_network16send_sensor_data17h9421f654a5686f0bE+0x2e0>
 2e0:	9815      	ldr	r0, [sp, #84]	; 0x54
 2e2:	905a      	str	r0, [sp, #360]	; 0x168
 2e4:	9914      	ldr	r1, [sp, #80]	; 0x50
 2e6:	915b      	str	r1, [sp, #364]	; 0x16c
 2e8:	9a53      	ldr	r2, [sp, #332]	; 0x14c
 2ea:	2300      	movs	r3, #0
 2ec:	935d      	str	r3, [sp, #372]	; 0x174
 2ee:	925c      	str	r2, [sp, #368]	; 0x170
 2f0:	f240 0000 	movw	r0, #0
 2f4:	f2c0 0000 	movt	r0, #0
 2f8:	f7ff fffe 	bl	0 <_ZN6mynewt8encoding12coap_context11CoapContext11to_void_ptr17h98bcbe68e32c8e9bE>
 2fc:	9013      	str	r0, [sp, #76]	; 0x4c
 2fe:	e7ff      	b.n	300 <_ZN3app11app_network16send_sensor_data17h9421f654a5686f0bE+0x300>
 300:	995a      	ldr	r1, [sp, #360]	; 0x168
 302:	9a5b      	ldr	r2, [sp, #364]	; 0x16c
 304:	f240 0000 	movw	r0, #0
 308:	f2c0 0000 	movt	r0, #0
 30c:	f7ff fffe 	bl	0 <_ZN6mynewt8encoding12coap_context11CoapContext11key_to_cstr17hd5dad031a98727d5E>
 310:	9012      	str	r0, [sp, #72]	; 0x48
 312:	e7ff      	b.n	314 <_ZN3app11app_network16send_sensor_data17h9421f654a5686f0bE+0x314>
 314:	9a5c      	ldr	r2, [sp, #368]	; 0x170
 316:	9b5d      	ldr	r3, [sp, #372]	; 0x174
 318:	9813      	ldr	r0, [sp, #76]	; 0x4c
 31a:	9912      	ldr	r1, [sp, #72]	; 0x48
 31c:	f7ff fffe 	bl	0 <json_helper_set_int>
 320:	e7ff      	b.n	2 <_ZN3app11app_network16send_sensor_data17h9421f654a5686f0bE+0x2>
 322:	f240 0100 	movw	r1, #0
 326:	f2c0 0100 	movt	r1, #0
 32a:	a85e      	add	r0, sp, #376	; 0x178
 32c:	2204      	movs	r2, #4
 32e:	f7ff fffe 	bl	0 <_ZN6mynewt4Strn3new17hd901d76bc9adf979E>
 332:	e7ff      	b.n	6 <_ZN3app11app_network16send_sensor_data17h9421f654a5686f0bE+0x6>
 334:	f240 0100 	movw	r1, #0
 338:	f2c0 0100 	movt	r1, #0
 33c:	a861      	add	r0, sp, #388	; 0x184
 33e:	2204      	movs	r2, #4
 340:	f7ff fffe 	bl	0 <_ZN6mynewt4Strn3new17hd901d76bc9adf979E>
 344:	e7ff      	b.n	2 <_ZN3app11app_network16send_sensor_data17h9421f654a5686f0bE+0x2>
 346:	f240 0100 	movw	r1, #0
 34a:	f2c0 0100 	movt	r1, #0
 34e:	a864      	add	r0, sp, #400	; 0x190
 350:	2205      	movs	r2, #5
 352:	f7ff fffe 	bl	0 <_ZN6mynewt4Strn3new17hd901d76bc9adf979E>
 356:	e7ff      	b.n	358 <_ZN3app11app_network16send_sensor_data17h9421f654a5686f0bE+0x358>
 358:	9851      	ldr	r0, [sp, #324]	; 0x144
 35a:	9952      	ldr	r1, [sp, #328]	; 0x148
 35c:	466a      	mov	r2, sp
 35e:	6051      	str	r1, [r2, #4]
 360:	6010      	str	r0, [r2, #0]
 362:	f240 0000 	movw	r0, #0
 366:	f2c0 0000 	movt	r0, #0
 36a:	a95e      	add	r1, sp, #376	; 0x178
 36c:	aa61      	add	r2, sp, #388	; 0x184
 36e:	ab64      	add	r3, sp, #400	; 0x190
 370:	f7ff fffe 	bl	0 <_ZN6mynewt8encoding12coap_context11CoapContext20json_set_geolocation17h8f5878e390533adeE>
 374:	e7ff      	b.n	2 <_ZN3app11app_network16send_sensor_data17h9421f654a5686f0bE+0x2>
 376:	f240 0000 	movw	r0, #0
 37a:	f2c0 0000 	movt	r0, #0
 37e:	9067      	str	r0, [sp, #412]	; 0x19c
 380:	200d      	movs	r0, #13
 382:	9068      	str	r0, [sp, #416]	; 0x1a0
 384:	9867      	ldr	r0, [sp, #412]	; 0x19c
 386:	9968      	ldr	r1, [sp, #416]	; 0x1a0
 388:	9094      	str	r0, [sp, #592]	; 0x250
 38a:	9195      	str	r1, [sp, #596]	; 0x254
_ZN4core3str21_$LT$impl$u20$str$GT$8as_bytes17hbca31947ef6ad219E():
/rustc/50a0defd5a93523067ef239936cc2e0755220904/src/libcore/str/mod.rs:2153
 38c:	9894      	ldr	r0, [sp, #592]	; 0x250
 38e:	9995      	ldr	r1, [sp, #596]	; 0x254
 390:	9096      	str	r0, [sp, #600]	; 0x258
 392:	9197      	str	r1, [sp, #604]	; 0x25c
 394:	9996      	ldr	r1, [sp, #600]	; 0x258
 396:	9a97      	ldr	r2, [sp, #604]	; 0x25c
_ZN3app11app_network16send_sensor_data17h9421f654a5686f0bE():
/Users/Luppy/mynewt/stm32bluepill-mynewt-sensor/rust/app/src/app_network.rs:98
 398:	9111      	str	r1, [sp, #68]	; 0x44
 39a:	9210      	str	r2, [sp, #64]	; 0x40
 39c:	e7ff      	b.n	39e <_ZN3app11app_network16send_sensor_data17h9421f654a5686f0bE+0x39e>
 39e:	f240 0000 	movw	r0, #0
 3a2:	f2c0 0000 	movt	r0, #0
 3a6:	9911      	ldr	r1, [sp, #68]	; 0x44
 3a8:	9a10      	ldr	r2, [sp, #64]	; 0x40
 3aa:	f7ff fffe 	bl	0 <_ZN6mynewt8encoding12coap_context11CoapContext11key_to_cstr17hd5dad031a98727d5E>
 3ae:	900f      	str	r0, [sp, #60]	; 0x3c
 3b0:	e7ff      	b.n	3b2 <_ZN3app11app_network16send_sensor_data17h9421f654a5686f0bE+0x3b2>
 3b2:	980f      	ldr	r0, [sp, #60]	; 0x3c
 3b4:	f7ff fffe 	bl	0 <json_helper_object_array_end_item>
 3b8:	e7ff      	b.n	3ba <_ZN3app11app_network16send_sensor_data17h9421f654a5686f0bE+0x3ba>
 3ba:	e00c      	b.n	3d6 <_ZN3app11app_network16send_sensor_data17h9421f654a5686f0bE+0x3d6>
 3bc:	2001      	movs	r0, #1
 3be:	f88d 01a7 	strb.w	r0, [sp, #423]	; 0x1a7
 3c2:	f89d 11a7 	ldrb.w	r1, [sp, #423]	; 0x1a7
 3c6:	f240 0000 	movw	r0, #0
 3ca:	f2c0 0000 	movt	r0, #0
 3ce:	f7ff fffe 	bl	0 <_ZN6mynewt8encoding12coap_context11CoapContext4fail17h01f028d733987b86E>
 3d2:	e7ff      	b.n	3d4 <_ZN3app11app_network16send_sensor_data17h9421f654a5686f0bE+0x3d4>
 3d4:	e7ff      	b.n	3d6 <_ZN3app11app_network16send_sensor_data17h9421f654a5686f0bE+0x3d6>
 3d6:	f240 0000 	movw	r0, #0
 3da:	f2c0 0000 	movt	r0, #0
 3de:	906a      	str	r0, [sp, #424]	; 0x1a8
 3e0:	200d      	movs	r0, #13
 3e2:	906b      	str	r0, [sp, #428]	; 0x1ac
 3e4:	986a      	ldr	r0, [sp, #424]	; 0x1a8
 3e6:	996b      	ldr	r1, [sp, #428]	; 0x1ac
 3e8:	9090      	str	r0, [sp, #576]	; 0x240
 3ea:	9191      	str	r1, [sp, #580]	; 0x244
_ZN4core3str21_$LT$impl$u20$str$GT$8as_bytes17hbca31947ef6ad219E():
/rustc/50a0defd5a93523067ef239936cc2e0755220904/src/libcore/str/mod.rs:2153
 3ec:	9890      	ldr	r0, [sp, #576]	; 0x240
 3ee:	9991      	ldr	r1, [sp, #580]	; 0x244
 3f0:	9092      	str	r0, [sp, #584]	; 0x248
 3f2:	9193      	str	r1, [sp, #588]	; 0x24c
 3f4:	9992      	ldr	r1, [sp, #584]	; 0x248
 3f6:	9a93      	ldr	r2, [sp, #588]	; 0x24c
_ZN3app11app_network16send_sensor_data17h9421f654a5686f0bE():
/Users/Luppy/mynewt/stm32bluepill-mynewt-sensor/rust/app/src/app_network.rs:98
 3f8:	910e      	str	r1, [sp, #56]	; 0x38
 3fa:	920d      	str	r2, [sp, #52]	; 0x34
 3fc:	e7ff      	b.n	3fe <_ZN3app11app_network16send_sensor_data17h9421f654a5686f0bE+0x3fe>
 3fe:	f240 0000 	movw	r0, #0
 402:	f2c0 0000 	movt	r0, #0
 406:	990e      	ldr	r1, [sp, #56]	; 0x38
 408:	9a0d      	ldr	r2, [sp, #52]	; 0x34
 40a:	f7ff fffe 	bl	0 <_ZN6mynewt8encoding12coap_context11CoapContext11key_to_cstr17hd5dad031a98727d5E>
 40e:	900c      	str	r0, [sp, #48]	; 0x30
 410:	e7ff      	b.n	412 <_ZN3app11app_network16send_sensor_data17h9421f654a5686f0bE+0x412>
 412:	980c      	ldr	r0, [sp, #48]	; 0x30
 414:	f7ff fffe 	bl	0 <json_helper_object_array_start_item>
 418:	e7ff      	b.n	a <_ZN3app11app_network16send_sensor_data17h9421f654a5686f0bE+0xa>
 41a:	f240 0100 	movw	r1, #0
 41e:	f2c0 0100 	movt	r1, #0
 422:	a86d      	add	r0, sp, #436	; 0x1b4
 424:	2204      	movs	r2, #4
 426:	f7ff fffe 	bl	0 <_ZN6mynewt4Strn3new17hd901d76bc9adf979E>
 42a:	e7ff      	b.n	42c <_ZN3app11app_network16send_sensor_data17h9421f654a5686f0bE+0x42c>
 42c:	a86d      	add	r0, sp, #436	; 0x1b4
 42e:	906c      	str	r0, [sp, #432]	; 0x1b0
 430:	f240 0100 	movw	r1, #0
 434:	f2c0 0100 	movt	r1, #0
 438:	a871      	add	r0, sp, #452	; 0x1c4
 43a:	2207      	movs	r2, #7
 43c:	f7ff fffe 	bl	0 <_ZN6mynewt4Strn3new17hd901d76bc9adf979E>
 440:	e7ff      	b.n	442 <_ZN3app11app_network16send_sensor_data17h9421f654a5686f0bE+0x442>
 442:	a871      	add	r0, sp, #452	; 0x1c4
 444:	9070      	str	r0, [sp, #448]	; 0x1c0
 446:	996c      	ldr	r1, [sp, #432]	; 0x1b0
 448:	9a70      	ldr	r2, [sp, #448]	; 0x1c0
 44a:	f240 0000 	movw	r0, #0
 44e:	f2c0 0000 	movt	r0, #0
 452:	f7ff fffe 	bl	0 <_ZN6mynewt8encoding12coap_context11CoapContext20json_set_text_string17hfd98675bd0ca5bc6E>
 456:	e7ff      	b.n	2 <_ZN3app11app_network16send_sensor_data17h9421f654a5686f0bE+0x2>
 458:	f240 0100 	movw	r1, #0
 45c:	f2c0 0100 	movt	r1, #0
 460:	a875      	add	r0, sp, #468	; 0x1d4
 462:	2206      	movs	r2, #6
 464:	f7ff fffe 	bl	0 <_ZN6mynewt4Strn3new17hd901d76bc9adf979E>
 468:	e7ff      	b.n	46a <_ZN3app11app_network16send_sensor_data17h9421f654a5686f0bE+0x46a>
 46a:	a875      	add	r0, sp, #468	; 0x1d4
 46c:	9074      	str	r0, [sp, #464]	; 0x1d0
 46e:	a82e      	add	r0, sp, #184	; 0xb8
/Users/Luppy/mynewt/stm32bluepill-mynewt-sensor/rust/app/src/app_network.rs:107
        "device": &device_id,
 470:	9078      	str	r0, [sp, #480]	; 0x1e0
/Users/Luppy/mynewt/stm32bluepill-mynewt-sensor/rust/app/src/app_network.rs:98
    let _payload = coap!( @json {        
 472:	9974      	ldr	r1, [sp, #464]	; 0x1d0
 474:	9a78      	ldr	r2, [sp, #480]	; 0x1e0
 476:	f240 0000 	movw	r0, #0
 47a:	f2c0 0000 	movt	r0, #0
 47e:	f7ff fffe 	bl	0 <_ZN6mynewt8encoding12coap_context11CoapContext20json_set_text_string17hfd98675bd0ca5bc6E>
 482:	e7ff      	b.n	2 <_ZN3app11app_network16send_sensor_data17h9421f654a5686f0bE+0x2>
 484:	f240 0000 	movw	r0, #0
 488:	f2c0 0000 	movt	r0, #0
 48c:	9079      	str	r0, [sp, #484]	; 0x1e4
 48e:	200d      	movs	r0, #13
 490:	907a      	str	r0, [sp, #488]	; 0x1e8
 492:	9879      	ldr	r0, [sp, #484]	; 0x1e4
 494:	997a      	ldr	r1, [sp, #488]	; 0x1e8
 496:	908c      	str	r0, [sp, #560]	; 0x230
 498:	918d      	str	r1, [sp, #564]	; 0x234
_ZN4core3str21_$LT$impl$u20$str$GT$8as_bytes17hbca31947ef6ad219E():
/rustc/50a0defd5a93523067ef239936cc2e0755220904/src/libcore/str/mod.rs:2153
 49a:	988c      	ldr	r0, [sp, #560]	; 0x230
 49c:	998d      	ldr	r1, [sp, #564]	; 0x234
 49e:	908e      	str	r0, [sp, #568]	; 0x238
 4a0:	918f      	str	r1, [sp, #572]	; 0x23c
 4a2:	998e      	ldr	r1, [sp, #568]	; 0x238
 4a4:	9a8f      	ldr	r2, [sp, #572]	; 0x23c
_ZN3app11app_network16send_sensor_data17h9421f654a5686f0bE():
/Users/Luppy/mynewt/stm32bluepill-mynewt-sensor/rust/app/src/app_network.rs:98
 4a6:	910b      	str	r1, [sp, #44]	; 0x2c
 4a8:	920a      	str	r2, [sp, #40]	; 0x28
 4aa:	e7ff      	b.n	4ac <_ZN3app11app_network16send_sensor_data17h9421f654a5686f0bE+0x4ac>
 4ac:	f240 0000 	movw	r0, #0
 4b0:	f2c0 0000 	movt	r0, #0
 4b4:	990b      	ldr	r1, [sp, #44]	; 0x2c
 4b6:	9a0a      	ldr	r2, [sp, #40]	; 0x28
 4b8:	f7ff fffe 	bl	0 <_ZN6mynewt8encoding12coap_context11CoapContext11key_to_cstr17hd5dad031a98727d5E>
 4bc:	9009      	str	r0, [sp, #36]	; 0x24
 4be:	e7ff      	b.n	4c0 <_ZN3app11app_network16send_sensor_data17h9421f654a5686f0bE+0x4c0>
 4c0:	9809      	ldr	r0, [sp, #36]	; 0x24
 4c2:	f7ff fffe 	bl	0 <json_helper_object_array_end_item>
 4c6:	e7ff      	b.n	2 <_ZN3app11app_network16send_sensor_data17h9421f654a5686f0bE+0x2>
 4c8:	f240 0000 	movw	r0, #0
 4cc:	f2c0 0000 	movt	r0, #0
 4d0:	907b      	str	r0, [sp, #492]	; 0x1ec
 4d2:	2007      	movs	r0, #7
 4d4:	907c      	str	r0, [sp, #496]	; 0x1f0
 4d6:	f240 0000 	movw	r0, #0
 4da:	f2c0 0000 	movt	r0, #0
 4de:	f7ff fffe 	bl	0 <_ZN6mynewt8encoding12coap_context11CoapContext11to_void_ptr17h98bcbe68e32c8e9bE>
 4e2:	9008      	str	r0, [sp, #32]
 4e4:	e7ff      	b.n	4e6 <_ZN3app11app_network16send_sensor_data17h9421f654a5686f0bE+0x4e6>
 4e6:	987b      	ldr	r0, [sp, #492]	; 0x1ec
 4e8:	997c      	ldr	r1, [sp, #496]	; 0x1f0
 4ea:	9088      	str	r0, [sp, #544]	; 0x220
 4ec:	9189      	str	r1, [sp, #548]	; 0x224
_ZN4core3str21_$LT$impl$u20$str$GT$8as_bytes17hbca31947ef6ad219E():
/rustc/50a0defd5a93523067ef239936cc2e0755220904/src/libcore/str/mod.rs:2153
 4ee:	9888      	ldr	r0, [sp, #544]	; 0x220
 4f0:	9989      	ldr	r1, [sp, #548]	; 0x224
 4f2:	908a      	str	r0, [sp, #552]	; 0x228
 4f4:	918b      	str	r1, [sp, #556]	; 0x22c
 4f6:	998a      	ldr	r1, [sp, #552]	; 0x228
 4f8:	9a8b      	ldr	r2, [sp, #556]	; 0x22c
_ZN3app11app_network16send_sensor_data17h9421f654a5686f0bE():
/Users/Luppy/mynewt/stm32bluepill-mynewt-sensor/rust/app/src/app_network.rs:98
 4fa:	9107      	str	r1, [sp, #28]
 4fc:	9206      	str	r2, [sp, #24]
 4fe:	e7ff      	b.n	500 <_ZN3app11app_network16send_sensor_data17h9421f654a5686f0bE+0x500>
 500:	f240 0000 	movw	r0, #0
 504:	f2c0 0000 	movt	r0, #0
 508:	9907      	ldr	r1, [sp, #28]
 50a:	9a06      	ldr	r2, [sp, #24]
 50c:	f7ff fffe 	bl	0 <_ZN6mynewt8encoding12coap_context11CoapContext11key_to_cstr17hd5dad031a98727d5E>
 510:	9005      	str	r0, [sp, #20]
 512:	e7ff      	b.n	514 <_ZN3app11app_network16send_sensor_data17h9421f654a5686f0bE+0x514>
 514:	9808      	ldr	r0, [sp, #32]
 516:	9905      	ldr	r1, [sp, #20]
 518:	f7ff fffe 	bl	0 <json_helper_close_array>
 51c:	e7ff      	b.n	2 <json_rep_end_root_object+0x2>
 51e:	f7ff fffe 	bl	0 <json_rep_end_root_object>
 522:	e7ff      	b.n	524 <_ZN3app11app_network16send_sensor_data17h9421f654a5686f0bE+0x524>
 524:	a87f      	add	r0, sp, #508	; 0x1fc
/Users/Luppy/mynewt/stm32bluepill-mynewt-sensor/rust/app/src/app_network.rs:113
    sensor_network::do_server_post() ? ;
 526:	f7ff fffe 	bl	0 <_ZN6mynewt4libs14sensor_network14do_server_post17h55e64e051ff798a5E>
 52a:	e7ff      	b.n	52c <_ZN3app11app_network16send_sensor_data17h9421f654a5686f0bE+0x52c>
 52c:	a87d      	add	r0, sp, #500	; 0x1f4
 52e:	a97f      	add	r1, sp, #508	; 0x1fc
 530:	f7ff fffe 	bl	0 <_ZN73_$LT$core..result..Result$LT$T$C$E$GT$$u20$as$u20$core..ops..try..Try$GT$11into_result17h8bf795b417a940bbE>
 534:	e7ff      	b.n	536 <_ZN3app11app_network16send_sensor_data17h9421f654a5686f0bE+0x536>
 536:	f89d 01f4 	ldrb.w	r0, [sp, #500]	; 0x1f4
 53a:	07c1      	lsls	r1, r0, #31
 53c:	2900      	cmp	r1, #0
 53e:	9004      	str	r0, [sp, #16]
 540:	d012      	beq.n	568 <_ZN3app11app_network16send_sensor_data17h9421f654a5686f0bE+0x568>
 542:	e7ff      	b.n	544 <_ZN3app11app_network16send_sensor_data17h9421f654a5686f0bE+0x544>
 544:	9804      	ldr	r0, [sp, #16]
 546:	2801      	cmp	r0, #1
 548:	f47f ada0 	bne.w	8c <_ZN3app11app_network16send_sensor_data17h9421f654a5686f0bE+0x8c>
 54c:	e7ff      	b.n	54e <_ZN3app11app_network16send_sensor_data17h9421f654a5686f0bE+0x54e>
 54e:	987e      	ldr	r0, [sp, #504]	; 0x1f8
 550:	9081      	str	r0, [sp, #516]	; 0x204
 552:	9881      	ldr	r0, [sp, #516]	; 0x204
 554:	f7ff fffe 	bl	0 <_ZN50_$LT$T$u20$as$u20$core..convert..From$LT$T$GT$$GT$4from17h1d2680fd6b19266bE>
 558:	9003      	str	r0, [sp, #12]
 55a:	e7ff      	b.n	55c <_ZN3app11app_network16send_sensor_data17h9421f654a5686f0bE+0x55c>
 55c:	9803      	ldr	r0, [sp, #12]
 55e:	f7ff fffe 	bl	0 <_ZN73_$LT$core..result..Result$LT$T$C$E$GT$$u20$as$u20$core..ops..try..Try$GT$10from_error17hf8581bda79764f6fE>
 562:	902c      	str	r0, [sp, #176]	; 0xb0
 564:	e7ff      	b.n	566 <_ZN3app11app_network16send_sensor_data17h9421f654a5686f0bE+0x566>
 566:	e613      	b.n	190 <_ZN3app11app_network16send_sensor_data17h9421f654a5686f0bE+0x190>
 568:	f89d 01f5 	ldrb.w	r0, [sp, #501]	; 0x1f5
 56c:	f88d 020b 	strb.w	r0, [sp, #523]	; 0x20b
/Users/Luppy/mynewt/stm32bluepill-mynewt-sensor/rust/app/src/app_network.rs:116
    console::print("NET view your sensor at \nhttps://blue-pill-geolocate.appspot.com?device=");
 570:	f240 0000 	movw	r0, #0
 574:	f2c0 0000 	movt	r0, #0
 578:	2148      	movs	r1, #72	; 0x48
 57a:	f7ff fffe 	bl	0 <_ZN6mynewt3sys7console5print17h1c4aea0ed0a4bc27E>
 57e:	e7ff      	b.n	580 <_ZN3app11app_network16send_sensor_data17h9421f654a5686f0bE+0x580>
 580:	a82e      	add	r0, sp, #184	; 0xb8
/Users/Luppy/mynewt/stm32bluepill-mynewt-sensor/rust/app/src/app_network.rs:117
    console::print_strn(&device_id); console::print("\n");
 582:	f7ff fffe 	bl	0 <_ZN6mynewt3sys7console10print_strn17h52df8dc4b4436ca7E>
 586:	e7ff      	b.n	2 <_ZN3app11app_network16send_sensor_data17h9421f654a5686f0bE+0x2>
 588:	f240 0000 	movw	r0, #0
 58c:	f2c0 0000 	movt	r0, #0
 590:	2101      	movs	r1, #1
 592:	f7ff fffe 	bl	0 <_ZN6mynewt3sys7console5print17h1c4aea0ed0a4bc27E>
 596:	e7ff      	b.n	598 <_ZN3app11app_network16send_sensor_data17h9421f654a5686f0bE+0x598>
 598:	2000      	movs	r0, #0
/Users/Luppy/mynewt/stm32bluepill-mynewt-sensor/rust/app/src/app_network.rs:120
    Ok(())
 59a:	902c      	str	r0, [sp, #176]	; 0xb0
 59c:	2001      	movs	r0, #1
 59e:	902c      	str	r0, [sp, #176]	; 0xb0
/Users/Luppy/mynewt/stm32bluepill-mynewt-sensor/rust/app/src/app_network.rs:121
}
 5a0:	e582      	b.n	a8 <_ZN3app11app_network16send_sensor_data17h9421f654a5686f0bE+0xa8>

app-f507768d2039d2a9.r0jywrn9sqx3yg4.rcgu.o:     file format elf32-littlearm

SYMBOL TABLE:
00000000 l    df *ABS*	00000000 r0jywrn9sqx3yg4
00000347 l       .debug_str	00000000 
00000381 l       .debug_str	00000000 
00000398 l       .debug_str	00000000 
000003bc l       .debug_str	00000000 
000003d8 l       .debug_str	00000000 
000003e2 l       .debug_str	00000000 
000003fc l       .debug_str	00000000 
0000045a l       .debug_str	00000000 
00000465 l       .debug_str	00000000 
00000482 l       .debug_str	00000000 
0000049b l       .debug_str	00000000 
000004a5 l       .debug_str	00000000 
000004bb l       .debug_str	00000000 
000004d9 l       .debug_str	00000000 
000004e2 l       .debug_str	00000000 
000004e7 l       .debug_str	00000000 
000004ec l       .debug_str	00000000 
000004f0 l       .debug_str	00000000 
000004f9 l       .debug_str	00000000 
00000503 l       .debug_str	00000000 
0000051b l       .debug_str	00000000 
00000000 l       .debug_str	00000000 
00000041 l       .debug_str	00000000 
00000055 l       .debug_str	00000000 
00000085 l       .debug_str	00000000 
0000008a l       .debug_str	00000000 
0000008e l       .debug_str	00000000 
00000091 l       .debug_str	00000000 
00000094 l       .debug_str	00000000 
00000097 l       .debug_str	00000000 
0000009c l       .debug_str	00000000 
000000a2 l       .debug_str	00000000 
000000a9 l       .debug_str	00000000 
000000b1 l       .debug_str	00000000 
000000bb l       .debug_str	00000000 
000000c2 l       .debug_str	00000000 
000000c5 l       .debug_str	00000000 
000000c9 l       .debug_str	00000000 
000000d0 l       .debug_str	00000000 
000000d4 l       .debug_str	00000000 
000000dd l       .debug_str	00000000 
000000e1 l       .debug_str	00000000 
0000010b l       .debug_str	00000000 
00000110 l       .debug_str	00000000 
00000115 l       .debug_str	00000000 
00000117 l       .debug_str	00000000 
00000129 l       .debug_str	00000000 
0000012f l       .debug_str	00000000 
00000132 l       .debug_str	00000000 
00000136 l       .debug_str	00000000 
0000013b l       .debug_str	00000000 
00000143 l       .debug_str	00000000 
00000147 l       .debug_str	00000000 
0000014f l       .debug_str	00000000 
00000157 l       .debug_str	00000000 
0000015e l       .debug_str	00000000 
00000164 l       .debug_str	00000000 
00000178 l       .debug_str	00000000 
00000184 l       .debug_str	00000000 
00000189 l       .debug_str	00000000 
00000191 l       .debug_str	00000000 
00000198 l       .debug_str	00000000 
0000019c l       .debug_str	00000000 
000001a1 l       .debug_str	00000000 
000001a8 l       .debug_str	00000000 
000001b1 l       .debug_str	00000000 
000001bb l       .debug_str	00000000 
000001c2 l       .debug_str	00000000 
000001c7 l       .debug_str	00000000 
000001d3 l       .debug_str	00000000 
000001db l       .debug_str	00000000 
000001e4 l       .debug_str	00000000 
000001e9 l       .debug_str	00000000 
000001ec l       .debug_str	00000000 
000001f0 l       .debug_str	00000000 
000001f9 l       .debug_str	00000000 
00000200 l       .debug_str	00000000 
00000205 l       .debug_str	00000000 
0000020a l       .debug_str	00000000 
00000210 l       .debug_str	00000000 
00000216 l       .debug_str	00000000 
00000220 l       .debug_str	00000000 
00000223 l       .debug_str	00000000 
00000229 l       .debug_str	00000000 
00000233 l       .debug_str	00000000 
0000023b l       .debug_str	00000000 
00000241 l       .debug_str	00000000 
00000247 l       .debug_str	00000000 
00000252 l       .debug_str	00000000 
0000025b l       .debug_str	00000000 
0000027e l       .debug_str	00000000 
0000029d l       .debug_str	00000000 
0000029f l       .debug_str	00000000 
000002a4 l       .debug_str	00000000 
000002cb l       .debug_str	00000000 
000002d0 l       .debug_str	00000000 
000002d6 l       .debug_str	00000000 
000002dc l       .debug_str	00000000 
000002df l       .debug_str	00000000 
000002ee l       .debug_str	00000000 
000002f5 l       .debug_str	00000000 
000002f9 l       .debug_str	00000000 
00000302 l       .debug_str	00000000 
0000030e l       .debug_str	00000000 
00000327 l       .debug_str	00000000 
0000032c l       .debug_str	00000000 
0000033d l       .debug_str	00000000 
00000355 l       .debug_str	00000000 
00000359 l       .debug_str	00000000 
00000364 l       .debug_str	00000000 
0000036b l       .debug_str	00000000 
00000371 l       .debug_str	00000000 
00000375 l       .debug_str	00000000 
00000379 l       .debug_str	00000000 
00000000 l     O .rodata.cst8	00000008 .Lanon.3ed011473997af99b525cde47c9eaaac.0
00000008 l     O .rodata.cst8	00000008 .Lanon.3ed011473997af99b525cde47c9eaaac.1
00000000 l     O .rodata..Lanon.3ed011473997af99b525cde47c9eaaac.10	00000001 .Lanon.3ed011473997af99b525cde47c9eaaac.10
00000000 l     O .rodata..Lanon.3ed011473997af99b525cde47c9eaaac.3	00000018 .Lanon.3ed011473997af99b525cde47c9eaaac.3
00000010 l     O .rodata.cst8	00000008 .Lanon.3ed011473997af99b525cde47c9eaaac.4
00000018 l     O .rodata.cst8	00000008 .Lanon.3ed011473997af99b525cde47c9eaaac.5
00000000 l     O .rodata..Lanon.3ed011473997af99b525cde47c9eaaac.6	00000006 .Lanon.3ed011473997af99b525cde47c9eaaac.6
00000000 l     O .rodata..Lanon.3ed011473997af99b525cde47c9eaaac.7	00000007 .Lanon.3ed011473997af99b525cde47c9eaaac.7
00000000 l     O .rodata..Lanon.3ed011473997af99b525cde47c9eaaac.8	00000003 .Lanon.3ed011473997af99b525cde47c9eaaac.8
00000000 l     O .rodata..Lanon.3ed011473997af99b525cde47c9eaaac.9	00000006 .Lanon.3ed011473997af99b525cde47c9eaaac.9
00000000 l    d  .text.main	00000000 .text.main
00000000 l    d  .text.rust_begin_unwind	00000000 .text.rust_begin_unwind
00000000 l    d  .rodata..Lanon.3ed011473997af99b525cde47c9eaaac.2	00000000 .rodata..Lanon.3ed011473997af99b525cde47c9eaaac.2
00000000 l    d  .debug_abbrev	00000000 .debug_abbrev
00000000 l    d  .debug_info	00000000 .debug_info
00000000 l    d  .debug_ranges	00000000 .debug_ranges
00000000 l    d  .debug_frame	00000000 .debug_frame
00000000 l    d  .debug_line	00000000 .debug_line
00000000         *UND*	00000000 .hidden _ZN3app10app_sensor21start_sensor_listener17h53861ab2caa45ce6E
00000000         *UND*	00000000 _ZN4core5panic8Location4file17h94cc6af18de736c4E
00000000         *UND*	00000000 _ZN4core5panic8Location4line17h3ffc63f14d0a6636E
00000000         *UND*	00000000 _ZN4core5panic9PanicInfo8location17h5226165d8771f8a2E
00000000         *UND*	00000000 _ZN4core6result19Result$LT$T$C$E$GT$6expect17h38715a24a8044c22E
00000000         *UND*	00000000 _ZN4core6result19Result$LT$T$C$E$GT$6expect17hdaead1da309d4baeE
00000000         *UND*	00000000 _ZN4core9panicking5panic17h53ca63c6ac6312f8E
00000000         *UND*	00000000 _ZN6mynewt3sys7console5flush17hdebac7a23ce4130cE
00000000         *UND*	00000000 _ZN6mynewt3sys7console5print17h1c4aea0ed0a4bc27E
00000000         *UND*	00000000 _ZN6mynewt3sys7console6buffer17hf49389ff246303d6E
00000000         *UND*	00000000 _ZN6mynewt3sys7console8printint17hbd22b2ad2f6089beE
00000000         *UND*	00000000 _ZN6mynewt6kernel2os10eventq_run17h02998220fee0e9b3E
00000000         *UND*	00000000 _ZN6mynewt6kernel2os15eventq_dflt_get17h1e9f1e095a2cf595E
00000000         *UND*	00000000 _ZN6mynewt7sysinit17hc166be3fcc964254E
00000000 g     F .text.main	0000007c main
00000000 g     F .text.rust_begin_unwind	000000ac rust_begin_unwind
00000000         *UND*	00000000 start_ble



Disassembly of section .text.main:

00000000 <main>:
main():
/Users/Luppy/mynewt/stm32bluepill-mynewt-sensor/rust/app/src/lib.rs:53
};

///  Main program that initialises the sensor, network driver and starts reading and sending sensor data in the background.
///  main() will be called at Mynewt startup. It replaces the C version of the main() function.
#[no_mangle]                 //  Don't mangle the name "main"
extern "C" fn main() -> ! {  //  Declare extern "C" because it will be called by Mynewt
   0:	b086      	sub	sp, #24
/Users/Luppy/mynewt/stm32bluepill-mynewt-sensor/rust/app/src/lib.rs:58
    //  Initialise the Mynewt packages and internal temperature sensor driver. Any startup
    //  functions defined in pkg.yml of our custom drivers and libraries will be called by 
    //  sysinit().  Here are the startup functions consolidated by Mynewt:
    //  bin/targets/nrf52_my_sensor/generated/src/nrf52_my_sensor-sysinit-app.c
    mynewt::sysinit();
   2:	f7ff fffe 	bl	0 <_ZN6mynewt7sysinit17hc166be3fcc964254E>
   6:	e7ff      	b.n	2 <_ZN3app10app_sensor21start_sensor_listener17h53861ab2caa45ce6E+0x2>
/Users/Luppy/mynewt/stm32bluepill-mynewt-sensor/rust/app/src/lib.rs:65
    //  Start the Server Transport for sending sensor data to CoAP Server over NB-IoT.
    //sensor_network::start_server_transport()
        //.expect("NET fail");

    //  Start polling the temperature sensor every 10 seconds in the background.
    app_sensor::start_sensor_listener()
   8:	f7ff fffe 	bl	0 <_ZN3app10app_sensor21start_sensor_listener17h53861ab2caa45ce6E>
   c:	9002      	str	r0, [sp, #8]
   e:	e7ff      	b.n	10 <main+0x10>
  10:	f240 0100 	movw	r1, #0
  14:	f2c0 0100 	movt	r1, #0
  18:	2208      	movs	r2, #8
  1a:	9802      	ldr	r0, [sp, #8]
  1c:	f7ff fffe 	bl	0 <_ZN4core6result19Result$LT$T$C$E$GT$6expect17hdaead1da309d4baeE>
  20:	e7ff      	b.n	2 <start_ble+0x2>
/Users/Luppy/mynewt/stm32bluepill-mynewt-sensor/rust/app/src/lib.rs:74
    //gps_sensor::start_gps_listener()
        //.expect("GPS fail");

    //  Start Bluetooth LE.  TODO: Create a safe wrapper for starting Bluetooth LE.
    extern { fn start_ble() -> i32; }
    let rc = unsafe { start_ble() };
  22:	f7ff fffe 	bl	0 <start_ble>
  26:	9003      	str	r0, [sp, #12]
  28:	e7ff      	b.n	2a <main+0x2a>
/Users/Luppy/mynewt/stm32bluepill-mynewt-sensor/rust/app/src/lib.rs:75
    assert!(rc == 0, "BLE fail");
  2a:	9803      	ldr	r0, [sp, #12]
  2c:	2800      	cmp	r0, #0
  2e:	d007      	beq.n	40 <main+0x40>
  30:	e7ff      	b.n	32 <main+0x32>
  32:	f240 0000 	movw	r0, #0
  36:	f2c0 0000 	movt	r0, #0
  3a:	f7ff fffe 	bl	0 <_ZN4core9panicking5panic17h53ca63c6ac6312f8E>
  3e:	defe      	udf	#254	; 0xfe
/Users/Luppy/mynewt/stm32bluepill-mynewt-sensor/rust/app/src/lib.rs:78

    //  Main event loop
    loop {                            //  Loop forever...
  40:	e7ff      	b.n	42 <main+0x42>
  42:	a804      	add	r0, sp, #16
/Users/Luppy/mynewt/stm32bluepill-mynewt-sensor/rust/app/src/lib.rs:80
        os::eventq_run(               //  Processing events...
            os::eventq_dflt_get()     //  From default event queue.
  44:	f7ff fffe 	bl	0 <_ZN6mynewt6kernel2os15eventq_dflt_get17h1e9f1e095a2cf595E>
  48:	e7ff      	b.n	12 <main+0x12>
  4a:	f240 0100 	movw	r1, #0
  4e:	f2c0 0100 	movt	r1, #0
  52:	a804      	add	r0, sp, #16
  54:	2208      	movs	r2, #8
  56:	f7ff fffe 	bl	0 <_ZN4core6result19Result$LT$T$C$E$GT$6expect17h38715a24a8044c22E>
  5a:	9001      	str	r0, [sp, #4]
  5c:	e7ff      	b.n	5e <main+0x5e>
/Users/Luppy/mynewt/stm32bluepill-mynewt-sensor/rust/app/src/lib.rs:79
        os::eventq_run(               //  Processing events...
  5e:	9801      	ldr	r0, [sp, #4]
  60:	f7ff fffe 	bl	0 <_ZN6mynewt6kernel2os10eventq_run17h02998220fee0e9b3E>
  64:	9000      	str	r0, [sp, #0]
  66:	e7ff      	b.n	68 <main+0x68>
  68:	f240 0100 	movw	r1, #0
  6c:	f2c0 0100 	movt	r1, #0
  70:	2208      	movs	r2, #8
  72:	9800      	ldr	r0, [sp, #0]
  74:	f7ff fffe 	bl	0 <_ZN4core6result19Result$LT$T$C$E$GT$6expect17hdaead1da309d4baeE>
  78:	e7ff      	b.n	7a <main+0x7a>
/Users/Luppy/mynewt/stm32bluepill-mynewt-sensor/rust/app/src/lib.rs:78
    loop {                            //  Loop forever...
  7a:	e7e2      	b.n	42 <main+0x42>

Disassembly of section .text.rust_begin_unwind:

00000000 <rust_begin_unwind>:
rust_begin_unwind():
/Users/Luppy/mynewt/stm32bluepill-mynewt-sensor/rust/app/src/lib.rs:89
    //  Never comes here
}

///  This function is called on panic, like an assertion failure. We display the filename and line number and pause in the debugger. From https://os.phil-opp.com/freestanding-rust-binary/
#[panic_handler]
fn panic(info: &PanicInfo) -> ! {
   0:	b088      	sub	sp, #32
   2:	4601      	mov	r1, r0
   4:	9002      	str	r0, [sp, #8]
/Users/Luppy/mynewt/stm32bluepill-mynewt-sensor/rust/app/src/lib.rs:91
    //  Display the filename and line number to the Semihosting Console.
    console::print("panic ");
   6:	f240 0000 	movw	r0, #0
   a:	f2c0 0000 	movt	r0, #0
   e:	2206      	movs	r2, #6
  10:	9101      	str	r1, [sp, #4]
  12:	4611      	mov	r1, r2
  14:	f7ff fffe 	bl	0 <_ZN6mynewt3sys7console5print17h1c4aea0ed0a4bc27E>
  18:	e7ff      	b.n	1a <rust_begin_unwind+0x1a>
/Users/Luppy/mynewt/stm32bluepill-mynewt-sensor/rust/app/src/lib.rs:92
    if let Some(location) = info.location() {
  1a:	9802      	ldr	r0, [sp, #8]
  1c:	f7ff fffe 	bl	0 <_ZN4core5panic9PanicInfo8location17h5226165d8771f8a2E>
  20:	9003      	str	r0, [sp, #12]
  22:	e7ff      	b.n	24 <rust_begin_unwind+0x24>
  24:	9803      	ldr	r0, [sp, #12]
  26:	2800      	cmp	r0, #0
  28:	d032      	beq.n	90 <rust_begin_unwind+0x90>
  2a:	e7ff      	b.n	2c <rust_begin_unwind+0x2c>
  2c:	9803      	ldr	r0, [sp, #12]
  2e:	9004      	str	r0, [sp, #16]
/Users/Luppy/mynewt/stm32bluepill-mynewt-sensor/rust/app/src/lib.rs:93
        let file = location.file();
  30:	9804      	ldr	r0, [sp, #16]
  32:	f7ff fffe 	bl	0 <_ZN4core5panic8Location4file17h94cc6af18de736c4E>
  36:	9106      	str	r1, [sp, #24]
  38:	9005      	str	r0, [sp, #20]
  3a:	e7ff      	b.n	3c <rust_begin_unwind+0x3c>
/Users/Luppy/mynewt/stm32bluepill-mynewt-sensor/rust/app/src/lib.rs:94
        let line = location.line();
  3c:	9804      	ldr	r0, [sp, #16]
  3e:	f7ff fffe 	bl	0 <_ZN4core5panic8Location4line17h3ffc63f14d0a6636E>
  42:	9007      	str	r0, [sp, #28]
  44:	e7ff      	b.n	46 <rust_begin_unwind+0x46>
/Users/Luppy/mynewt/stm32bluepill-mynewt-sensor/rust/app/src/lib.rs:95
        console::print("at ");       console::buffer(&file);
  46:	f240 0000 	movw	r0, #0
  4a:	f2c0 0000 	movt	r0, #0
  4e:	2103      	movs	r1, #3
  50:	f7ff fffe 	bl	0 <_ZN6mynewt3sys7console5print17h1c4aea0ed0a4bc27E>
  54:	e7ff      	b.n	56 <rust_begin_unwind+0x56>
  56:	9805      	ldr	r0, [sp, #20]
  58:	9906      	ldr	r1, [sp, #24]
  5a:	f7ff fffe 	bl	0 <_ZN6mynewt3sys7console6buffer17hf49389ff246303d6E>
  5e:	e7ff      	b.n	2 <rust_begin_unwind+0x2>
/Users/Luppy/mynewt/stm32bluepill-mynewt-sensor/rust/app/src/lib.rs:96
        console::print(" line ");    console::printint(line as i32);
  60:	f240 0000 	movw	r0, #0
  64:	f2c0 0000 	movt	r0, #0
  68:	2106      	movs	r1, #6
  6a:	f7ff fffe 	bl	0 <_ZN6mynewt3sys7console5print17h1c4aea0ed0a4bc27E>
  6e:	e7ff      	b.n	70 <rust_begin_unwind+0x70>
  70:	9807      	ldr	r0, [sp, #28]
  72:	f7ff fffe 	bl	0 <_ZN6mynewt3sys7console8printint17hbd22b2ad2f6089beE>
  76:	e7ff      	b.n	2 <rust_begin_unwind+0x2>
/Users/Luppy/mynewt/stm32bluepill-mynewt-sensor/rust/app/src/lib.rs:97
        console::print("\n");        console::flush();
  78:	f240 0000 	movw	r0, #0
  7c:	f2c0 0000 	movt	r0, #0
  80:	2101      	movs	r1, #1
  82:	f7ff fffe 	bl	0 <_ZN6mynewt3sys7console5print17h1c4aea0ed0a4bc27E>
  86:	e7ff      	b.n	2 <_ZN6mynewt3sys7console5flush17hdebac7a23ce4130cE+0x2>
  88:	f7ff fffe 	bl	0 <_ZN6mynewt3sys7console5flush17hdebac7a23ce4130cE>
  8c:	e7ff      	b.n	8e <rust_begin_unwind+0x8e>
/Users/Luppy/mynewt/stm32bluepill-mynewt-sensor/rust/app/src/lib.rs:92
    if let Some(location) = info.location() {
  8e:	e00a      	b.n	a6 <rust_begin_unwind+0xa6>
/Users/Luppy/mynewt/stm32bluepill-mynewt-sensor/rust/app/src/lib.rs:99
    } else {
        console::print("no loc\n");  console::flush();
  90:	f240 0000 	movw	r0, #0
  94:	f2c0 0000 	movt	r0, #0
  98:	2107      	movs	r1, #7
  9a:	f7ff fffe 	bl	0 <_ZN6mynewt3sys7console5print17h1c4aea0ed0a4bc27E>
  9e:	e7ff      	b.n	2 <_ZN6mynewt3sys7console5flush17hdebac7a23ce4130cE+0x2>
  a0:	f7ff fffe 	bl	0 <_ZN6mynewt3sys7console5flush17hdebac7a23ce4130cE>
  a4:	e7ff      	b.n	a6 <rust_begin_unwind+0xa6>
_ZN8cortex_m3asm4bkpt17h15d676c3288af66bE():
/Users/Luppy/.cargo/registry/src/github.com-1ecc6299db9ec823/cortex-m-0.6.1/src/asm.rs:11
/// exception.
#[inline(always)]
pub fn bkpt() {
    match () {
        #[cfg(all(cortex_m, feature = "inline-asm"))]
        () => unsafe { asm!("bkpt" :::: "volatile") },
  a6:	be00      	bkpt	0x0000
rust_begin_unwind():
/Users/Luppy/mynewt/stm32bluepill-mynewt-sensor/rust/app/src/lib.rs:102
    }
    //  Pause in the debugger.
    bkpt();
  a8:	e7ff      	b.n	aa <rust_begin_unwind+0xaa>
/Users/Luppy/mynewt/stm32bluepill-mynewt-sensor/rust/app/src/lib.rs:104
    //  Loop forever so that device won't restart.
    loop {}
  aa:	e7fe      	b.n	aa <rust_begin_unwind+0xaa>
arm-none-eabi-objdump: rust.metadata.bin: File format not recognized
arm-none-eabi-objdump: app-f507768d2039d2a9.16r4af5e5mnzgrdr.rcgu.bc.z: File format not recognized
arm-none-eabi-objdump: app-f507768d2039d2a9.2aefsotrwcx6g09x.rcgu.bc.z: File format not recognized
arm-none-eabi-objdump: app-f507768d2039d2a9.2mj7kzbnxll11qnw.rcgu.bc.z: File format not recognized
arm-none-eabi-objdump: app-f507768d2039d2a9.7yx59emea0ie87s.rcgu.bc.z: File format not recognized
arm-none-eabi-objdump: app-f507768d2039d2a9.8yamf5q8uidmc93.rcgu.bc.z: File format not recognized
arm-none-eabi-objdump: app-f507768d2039d2a9.r0jywrn9sqx3yg4.rcgu.bc.z: File format not recognized
