In archive target/thumbv7em-none-eabihf/debug/libapp.rlib:

app-b8434b356de0ea5d.1f1w1qpphj6y4xva.rcgu.o:     file format elf32-littlearm

SYMBOL TABLE:
00000000 l    df *ABS*	00000000 1f1w1qpphj6y4xva
00001b5f l       .debug_str	00000000 
000023fe l       .debug_str	00000000 
00002405 l       .debug_str	00000000 
0000240d l       .debug_str	00000000 
0000242b l       .debug_str	00000000 
0000243b l       .debug_str	00000000 
0000246e l       .debug_str	00000000 
00002483 l       .debug_str	00000000 
00002496 l       .debug_str	00000000 
000024ab l       .debug_str	00000000 
000024b2 l       .debug_str	00000000 
000024c7 l       .debug_str	00000000 
000024f1 l       .debug_str	00000000 
000024f5 l       .debug_str	00000000 
000024fe l       .debug_str	00000000 
00000000 l       .debug_str	00000000 
00000041 l       .debug_str	00000000 
00000055 l       .debug_str	00000000 
00000085 l       .debug_str	00000000 
00000089 l       .debug_str	00000000 
00000094 l       .debug_str	00000000 
000000a2 l       .debug_str	00000000 
000000a9 l       .debug_str	00000000 
000000ad l       .debug_str	00000000 
000000b0 l       .debug_str	00000000 
000000b8 l       .debug_str	00000000 
000000bc l       .debug_str	00000000 
000000c5 l       .debug_str	00000000 
000000cf l       .debug_str	00000000 
000000d6 l       .debug_str	00000000 
000000dc l       .debug_str	00000000 
000000e2 l       .debug_str	00000000 
000000e7 l       .debug_str	00000000 
000000ef l       .debug_str	00000000 
000000f4 l       .debug_str	00000000 
0000012b l       .debug_str	00000000 
00000132 l       .debug_str	00000000 
00000136 l       .debug_str	00000000 
0000013e l       .debug_str	00000000 
00000149 l       .debug_str	00000000 
00000154 l       .debug_str	00000000 
00000161 l       .debug_str	00000000 
0000016c l       .debug_str	00000000 
00000174 l       .debug_str	00000000 
0000017f l       .debug_str	00000000 
0000018a l       .debug_str	00000000 
00000194 l       .debug_str	00000000 
0000019f l       .debug_str	00000000 
000001aa l       .debug_str	00000000 
000001b7 l       .debug_str	00000000 
000001c3 l       .debug_str	00000000 
000001d0 l       .debug_str	00000000 
000001de l       .debug_str	00000000 
000001e8 l       .debug_str	00000000 
000001f5 l       .debug_str	00000000 
00000201 l       .debug_str	00000000 
00000206 l       .debug_str	00000000 
0000020a l       .debug_str	00000000 
00000215 l       .debug_str	00000000 
00000220 l       .debug_str	00000000 
00000227 l       .debug_str	00000000 
00000266 l       .debug_str	00000000 
0000027c l       .debug_str	00000000 
00000280 l       .debug_str	00000000 
00000283 l       .debug_str	00000000 
00000286 l       .debug_str	00000000 
00000288 l       .debug_str	00000000 
0000028a l       .debug_str	00000000 
0000028e l       .debug_str	00000000 
000002b6 l       .debug_str	00000000 
000002bd l       .debug_str	00000000 
000002c0 l       .debug_str	00000000 
000002c9 l       .debug_str	00000000 
000002cf l       .debug_str	00000000 
000002d6 l       .debug_str	00000000 
000002d9 l       .debug_str	00000000 
000002e5 l       .debug_str	00000000 
000002ed l       .debug_str	00000000 
000002f4 l       .debug_str	00000000 
000002f9 l       .debug_str	00000000 
00000310 l       .debug_str	00000000 
0000036a l       .debug_str	00000000 
0000036f l       .debug_str	00000000 
000003d1 l       .debug_str	00000000 
000003dc l       .debug_str	00000000 
00000423 l       .debug_str	00000000 
00000472 l       .debug_str	00000000 
0000047c l       .debug_str	00000000 
000004b9 l       .debug_str	00000000 
000004fe l       .debug_str	00000000 
00000507 l       .debug_str	00000000 
00000517 l       .debug_str	00000000 
0000051f l       .debug_str	00000000 
00000574 l       .debug_str	00000000 
000005d1 l       .debug_str	00000000 
000005dd l       .debug_str	00000000 
000005e6 l       .debug_str	00000000 
000005f2 l       .debug_str	00000000 
000005fe l       .debug_str	00000000 
00000607 l       .debug_str	00000000 
0000060f l       .debug_str	00000000 
00000617 l       .debug_str	00000000 
00000621 l       .debug_str	00000000 
00000636 l       .debug_str	00000000 
0000063d l       .debug_str	00000000 
0000065d l       .debug_str	00000000 
00000664 l       .debug_str	00000000 
0000066c l       .debug_str	00000000 
00000676 l       .debug_str	00000000 
00000681 l       .debug_str	00000000 
0000068a l       .debug_str	00000000 
00000695 l       .debug_str	00000000 
000006a1 l       .debug_str	00000000 
000006a5 l       .debug_str	00000000 
000006ae l       .debug_str	00000000 
000006b5 l       .debug_str	00000000 
000006bd l       .debug_str	00000000 
000006c5 l       .debug_str	00000000 
000006cf l       .debug_str	00000000 
000006d5 l       .debug_str	00000000 
000006dc l       .debug_str	00000000 
000006e3 l       .debug_str	00000000 
00000710 l       .debug_str	00000000 
00000745 l       .debug_str	00000000 
0000074b l       .debug_str	00000000 
00000751 l       .debug_str	00000000 
00000760 l       .debug_str	00000000 
00000770 l       .debug_str	00000000 
00000780 l       .debug_str	00000000 
00000788 l       .debug_str	00000000 
000007b1 l       .debug_str	00000000 
0000080f l       .debug_str	00000000 
00000875 l       .debug_str	00000000 
0000087c l       .debug_str	00000000 
00000884 l       .debug_str	00000000 
0000088d l       .debug_str	00000000 
000008ab l       .debug_str	00000000 
000008bb l       .debug_str	00000000 
000008c9 l       .debug_str	00000000 
000008d4 l       .debug_str	00000000 
000008e1 l       .debug_str	00000000 
000008f0 l       .debug_str	00000000 
00000906 l       .debug_str	00000000 
00000910 l       .debug_str	00000000 
00000919 l       .debug_str	00000000 
00000922 l       .debug_str	00000000 
00000948 l       .debug_str	00000000 
0000095e l       .debug_str	00000000 
00000969 l       .debug_str	00000000 
0000097f l       .debug_str	00000000 
00000987 l       .debug_str	00000000 
000009a8 l       .debug_str	00000000 
000009bf l       .debug_str	00000000 
000009c4 l       .debug_str	00000000 
000009cc l       .debug_str	00000000 
000009d5 l       .debug_str	00000000 
000009de l       .debug_str	00000000 
000009e7 l       .debug_str	00000000 
000009ef l       .debug_str	00000000 
000009f3 l       .debug_str	00000000 
000009fa l       .debug_str	00000000 
00000a06 l       .debug_str	00000000 
00000a11 l       .debug_str	00000000 
00000a19 l       .debug_str	00000000 
00000a21 l       .debug_str	00000000 
00000a9d l       .debug_str	00000000 
00000b21 l       .debug_str	00000000 
00000c1d l       .debug_str	00000000 
00000d21 l       .debug_str	00000000 
00000d2f l       .debug_str	00000000 
00000d3a l       .debug_str	00000000 
00000d44 l       .debug_str	00000000 
00000d58 l       .debug_str	00000000 
00000d63 l       .debug_str	00000000 
00000d91 l       .debug_str	00000000 
00000e0c l       .debug_str	00000000 
00000e8f l       .debug_str	00000000 
00000e9d l       .debug_str	00000000 
00000efc l       .debug_str	00000000 
00000f63 l       .debug_str	00000000 
00000f79 l       .debug_str	00000000 
00000f89 l       .debug_str	00000000 
00000f98 l       .debug_str	00000000 
00000f9c l       .debug_str	00000000 
00000fa3 l       .debug_str	00000000 
00000fa9 l       .debug_str	00000000 
00000fad l       .debug_str	00000000 
00000fb3 l       .debug_str	00000000 
00000fb9 l       .debug_str	00000000 
00000fc5 l       .debug_str	00000000 
00000fcd l       .debug_str	00000000 
00000fd3 l       .debug_str	00000000 
00000fdb l       .debug_str	00000000 
00000fe1 l       .debug_str	00000000 
00001004 l       .debug_str	00000000 
00001014 l       .debug_str	00000000 
00001047 l       .debug_str	00000000 
00001087 l       .debug_str	00000000 
000010cf l       .debug_str	00000000 
000010d3 l       .debug_str	00000000 
000010d9 l       .debug_str	00000000 
000010df l       .debug_str	00000000 
000010e5 l       .debug_str	00000000 
000010f7 l       .debug_str	00000000 
0000112c l       .debug_str	00000000 
0000116e l       .debug_str	00000000 
000011b8 l       .debug_str	00000000 
000011bc l       .debug_str	00000000 
000011c2 l       .debug_str	00000000 
000011c8 l       .debug_str	00000000 
000011ce l       .debug_str	00000000 
000011e0 l       .debug_str	00000000 
00001215 l       .debug_str	00000000 
00001257 l       .debug_str	00000000 
000012a1 l       .debug_str	00000000 
000012a5 l       .debug_str	00000000 
000012ab l       .debug_str	00000000 
000012b1 l       .debug_str	00000000 
000012b7 l       .debug_str	00000000 
000012bd l       .debug_str	00000000 
000012ce l       .debug_str	00000000 
00001302 l       .debug_str	00000000 
00001343 l       .debug_str	00000000 
0000138c l       .debug_str	00000000 
00001391 l       .debug_str	00000000 
00001396 l       .debug_str	00000000 
0000139a l       .debug_str	00000000 
000013a0 l       .debug_str	00000000 
000013a6 l       .debug_str	00000000 
000013ac l       .debug_str	00000000 
000013bd l       .debug_str	00000000 
000013f1 l       .debug_str	00000000 
00001432 l       .debug_str	00000000 
0000147b l       .debug_str	00000000 
0000147f l       .debug_str	00000000 
00001488 l       .debug_str	00000000 
00001499 l       .debug_str	00000000 
000014cd l       .debug_str	00000000 
0000150e l       .debug_str	00000000 
00001557 l       .debug_str	00000000 
0000155c l       .debug_str	00000000 
00001560 l       .debug_str	00000000 
00001569 l       .debug_str	00000000 
00001570 l       .debug_str	00000000 
00001578 l       .debug_str	00000000 
0000158a l       .debug_str	00000000 
000015bf l       .debug_str	00000000 
00001601 l       .debug_str	00000000 
0000164b l       .debug_str	00000000 
0000164f l       .debug_str	00000000 
00001655 l       .debug_str	00000000 
0000165b l       .debug_str	00000000 
00001661 l       .debug_str	00000000 
00001667 l       .debug_str	00000000 
0000166f l       .debug_str	00000000 
0000167d l       .debug_str	00000000 
0000168c l       .debug_str	00000000 
0000169d l       .debug_str	00000000 
000016a8 l       .debug_str	00000000 
000016b3 l       .debug_str	00000000 
000016be l       .debug_str	00000000 
000016c5 l       .debug_str	00000000 
000016e8 l       .debug_str	00000000 
000016fa l       .debug_str	00000000 
0000172f l       .debug_str	00000000 
00001771 l       .debug_str	00000000 
000017bb l       .debug_str	00000000 
000017bf l       .debug_str	00000000 
000017c9 l       .debug_str	00000000 
000017db l       .debug_str	00000000 
00001810 l       .debug_str	00000000 
00001852 l       .debug_str	00000000 
0000189c l       .debug_str	00000000 
000018a1 l       .debug_str	00000000 
000018ab l       .debug_str	00000000 
000018bd l       .debug_str	00000000 
000018f2 l       .debug_str	00000000 
00001934 l       .debug_str	00000000 
0000197e l       .debug_str	00000000 
00001992 l       .debug_str	00000000 
00001996 l       .debug_str	00000000 
000019a4 l       .debug_str	00000000 
000019b4 l       .debug_str	00000000 
000019bd l       .debug_str	00000000 
000019c8 l       .debug_str	00000000 
000019d7 l       .debug_str	00000000 
000019ec l       .debug_str	00000000 
00001a1d l       .debug_str	00000000 
00001aba l       .debug_str	00000000 
00001b6a l       .debug_str	00000000 
00001b73 l       .debug_str	00000000 
00001b94 l       .debug_str	00000000 
00001ba7 l       .debug_str	00000000 
00001bdd l       .debug_str	00000000 
00001c60 l       .debug_str	00000000 
00001ceb l       .debug_str	00000000 
00001d07 l       .debug_str	00000000 
00001d53 l       .debug_str	00000000 
00001da7 l       .debug_str	00000000 
00001dc4 l       .debug_str	00000000 
00001dd8 l       .debug_str	00000000 
00001e24 l       .debug_str	00000000 
00001e78 l       .debug_str	00000000 
00001e8e l       .debug_str	00000000 
00001ea2 l       .debug_str	00000000 
00001ee9 l       .debug_str	00000000 
00001f38 l       .debug_str	00000000 
00001f41 l       .debug_str	00000000 
00001f4f l       .debug_str	00000000 
00001f80 l       .debug_str	00000000 
00001f86 l       .debug_str	00000000 
00001f8e l       .debug_str	00000000 
00001f95 l       .debug_str	00000000 
00001f9d l       .debug_str	00000000 
00001fa8 l       .debug_str	00000000 
00001fb0 l       .debug_str	00000000 
00001fbf l       .debug_str	00000000 
00001fc3 l       .debug_str	00000000 
00001fce l       .debug_str	00000000 
00001fda l       .debug_str	00000000 
00001fe5 l       .debug_str	00000000 
00001ff6 l       .debug_str	00000000 
00001ffc l       .debug_str	00000000 
00002004 l       .debug_str	00000000 
0000200b l       .debug_str	00000000 
00002015 l       .debug_str	00000000 
0000201d l       .debug_str	00000000 
00002025 l       .debug_str	00000000 
00002047 l       .debug_str	00000000 
00002052 l       .debug_str	00000000 
0000205e l       .debug_str	00000000 
00002066 l       .debug_str	00000000 
0000206f l       .debug_str	00000000 
0000207a l       .debug_str	00000000 
00002081 l       .debug_str	00000000 
0000208c l       .debug_str	00000000 
00002097 l       .debug_str	00000000 
000020a7 l       .debug_str	00000000 
000020b1 l       .debug_str	00000000 
000020b7 l       .debug_str	00000000 
000020d9 l       .debug_str	00000000 
00002111 l       .debug_str	00000000 
00002151 l       .debug_str	00000000 
00002158 l       .debug_str	00000000 
00002160 l       .debug_str	00000000 
00002177 l       .debug_str	00000000 
00002180 l       .debug_str	00000000 
00002190 l       .debug_str	00000000 
0000219f l       .debug_str	00000000 
000021a7 l       .debug_str	00000000 
000021ae l       .debug_str	00000000 
000021b6 l       .debug_str	00000000 
000021d4 l       .debug_str	00000000 
000021e4 l       .debug_str	00000000 
00002217 l       .debug_str	00000000 
0000222c l       .debug_str	00000000 
00002235 l       .debug_str	00000000 
00002292 l       .debug_str	00000000 
000022f7 l       .debug_str	00000000 
00002301 l       .debug_str	00000000 
00002311 l       .debug_str	00000000 
00002326 l       .debug_str	00000000 
0000232e l       .debug_str	00000000 
00002392 l       .debug_str	00000000 
00000000 l     O .rodata..Lanon.df8f2465e5afaff2b36ae3eeeb67fdcb.1	0000000e .Lanon.df8f2465e5afaff2b36ae3eeeb67fdcb.1
00000000 l     O .rodata..Lanon.df8f2465e5afaff2b36ae3eeeb67fdcb.2	00000006 .Lanon.df8f2465e5afaff2b36ae3eeeb67fdcb.2
00000000 l     O .rodata..Lanon.df8f2465e5afaff2b36ae3eeeb67fdcb.4	0000000c .Lanon.df8f2465e5afaff2b36ae3eeeb67fdcb.4
00000000 l     O .rodata._ZN3app10app_sensor13SENSOR_DEVICE17h180f59dea1c4be56E	0000000c app::app_sensor::SENSOR_DEVICE
00000000 l    d  .text._ZN3app10app_sensor21start_sensor_listener17hb5202e60c123db83E	00000000 .text._ZN3app10app_sensor21start_sensor_listener17hb5202e60c123db83E
00000000 l    d  .rodata..Lanon.df8f2465e5afaff2b36ae3eeeb67fdcb.0	00000000 .rodata..Lanon.df8f2465e5afaff2b36ae3eeeb67fdcb.0
00000000 l    d  .rodata._ZN3app10app_sensor13SENSOR_DEVICE17h180f59dea1c4be56E	00000000 .rodata._ZN3app10app_sensor13SENSOR_DEVICE17h180f59dea1c4be56E
00000000 l    d  .rodata..Lanon.df8f2465e5afaff2b36ae3eeeb67fdcb.3	00000000 .rodata..Lanon.df8f2465e5afaff2b36ae3eeeb67fdcb.3
00000000 l    d  .debug_abbrev	00000000 .debug_abbrev
00000000 l    d  .debug_info	00000000 .debug_info
00000000 l    d  .debug_ranges	00000000 .debug_ranges
00000000 l    d  .debug_frame	00000000 .debug_frame
00000000 l    d  .debug_line	00000000 .debug_line
00000000 g     F .text._ZN3app10app_sensor21start_sensor_listener17hb5202e60c123db83E	00000176 .hidden app::app_sensor::start_sensor_listener
00000000         *UND*	00000000 .hidden app::app_network::aggregate_sensor_data
00000000         *UND*	00000000 core::option::Option<T>::expect
00000000         *UND*	00000000 <T as core::convert::From<T>>::from
00000000         *UND*	00000000 mynewt::hw::sensor_mgr::find_bydevname
00000000         *UND*	00000000 mynewt::hw::sensor::register_listener
00000000         *UND*	00000000 mynewt::hw::sensor::new_sensor_listener
00000000         *UND*	00000000 mynewt::hw::sensor::bindings::set_poll_rate_ms
00000000         *UND*	00000000 mynewt::sys::console::print
00000000         *UND*	00000000 <core::result::Result<T,E> as core::ops::try::Try>::from_error
00000000         *UND*	00000000 <core::result::Result<T,E> as core::ops::try::Try>::into_result
00000000         *UND*	00000000 <core::result::Result<T,E> as core::ops::try::Try>::into_result
00000000         *UND*	00000000 <mynewt::hw::sensor_mgr::SensorsByDevname as core::iter::traits::iterator::Iterator>::next



Disassembly of section .text._ZN3app10app_sensor21start_sensor_listener17hb5202e60c123db83E:

00000000 <app::app_sensor::start_sensor_listener>:
_ZN3app10app_sensor21start_sensor_listener17hb5202e60c123db83E():
/Users/Luppy/mynewt/stm32bluepill-mynewt-sensor/rust/app/src/app_sensor.rs:46
///  Type of sensor: Raw temperature sensor (integer sensor values 0 to 4095)
const TEMP_SENSOR_TYPE: sensor_type_t = sensor::SENSOR_TYPE_AMBIENT_TEMPERATURE_RAW;

///  Ask Mynewt to poll or read the temperature sensor and call `aggregate_sensor_data()`
///  Return `Ok()` if successful, else return `Err()` with `MynewtError` error code inside.
pub fn start_sensor_listener() -> MynewtResult<()>  {  //  Returns an error code upon error.
   0:	b5f0      	push	{r4, r5, r6, r7, lr}
   2:	b0bd      	sub	sp, #244	; 0xf4
/Users/Luppy/mynewt/stm32bluepill-mynewt-sensor/rust/app/src/app_sensor.rs:47
    console::print("Rust TMP poll\n");
   4:	f240 0000 	movw	r0, #0
   8:	f2c0 0000 	movt	r0, #0
   c:	210e      	movs	r1, #14
   e:	f7ff fffe 	bl	0 <mynewt::sys::console::print>
  12:	e7ff      	b.n	2 <app::app_sensor::start_sensor_listener+0x2>
/Users/Luppy/mynewt/stm32bluepill-mynewt-sensor/rust/app/src/app_sensor.rs:50

    //  Fetch the sensor by name.
    let sensor = sensor_mgr::find_bydevname(&SENSOR_DEVICE)
  14:	f240 0100 	movw	r1, #0
  18:	f2c0 0100 	movt	r1, #0
  1c:	a80d      	add	r0, sp, #52	; 0x34
  1e:	f7ff fffe 	bl	0 <mynewt::hw::sensor_mgr::find_bydevname>
  22:	e7ff      	b.n	24 <app::app_sensor::start_sensor_listener+0x24>
  24:	a80d      	add	r0, sp, #52	; 0x34
  26:	f7ff fffe 	bl	0 <<mynewt::hw::sensor_mgr::SensorsByDevname as core::iter::traits::iterator::Iterator>::next>
  2a:	900a      	str	r0, [sp, #40]	; 0x28
  2c:	9109      	str	r1, [sp, #36]	; 0x24
  2e:	e7ff      	b.n	30 <app::app_sensor::start_sensor_listener+0x30>
  30:	f240 0200 	movw	r2, #0
  34:	f2c0 0200 	movt	r2, #0
  38:	2306      	movs	r3, #6
  3a:	980a      	ldr	r0, [sp, #40]	; 0x28
  3c:	9909      	ldr	r1, [sp, #36]	; 0x24
  3e:	f7ff fffe 	bl	0 <core::option::Option<T>::expect>
  42:	900c      	str	r0, [sp, #48]	; 0x30
  44:	e7ff      	b.n	46 <app::app_sensor::start_sensor_listener+0x46>
/Users/Luppy/mynewt/stm32bluepill-mynewt-sensor/rust/app/src/app_sensor.rs:55
        .next()             //  Fetch the first sensor that matches
        .expect("no TMP");  //  Stop if no sensor found

    //  At power on, we ask Mynewt to poll our temperature sensor every 10 seconds.
    sensor::set_poll_rate_ms(&SENSOR_DEVICE, SENSOR_POLL_TIME) ? ;
  46:	f240 0000 	movw	r0, #0
  4a:	f2c0 0000 	movt	r0, #0
  4e:	f242 7110 	movw	r1, #10000	; 0x2710
  52:	f7ff fffe 	bl	0 <mynewt::hw::sensor::bindings::set_poll_rate_ms>
  56:	9008      	str	r0, [sp, #32]
  58:	e7ff      	b.n	5a <app::app_sensor::start_sensor_listener+0x5a>
  5a:	9808      	ldr	r0, [sp, #32]
  5c:	f7ff fffe 	bl	0 <<core::result::Result<T,E> as core::ops::try::Try>::into_result>
  60:	9011      	str	r0, [sp, #68]	; 0x44
  62:	e7ff      	b.n	64 <app::app_sensor::start_sensor_listener+0x64>
  64:	9811      	ldr	r0, [sp, #68]	; 0x44
  66:	1e41      	subs	r1, r0, #1
  68:	bf18      	it	ne
  6a:	2101      	movne	r1, #1
  6c:	2801      	cmp	r0, #1
  6e:	9107      	str	r1, [sp, #28]
  70:	d016      	beq.n	a0 <app::app_sensor::start_sensor_listener+0xa0>
  72:	e7ff      	b.n	74 <app::app_sensor::start_sensor_listener+0x74>
  74:	9807      	ldr	r0, [sp, #28]
  76:	2801      	cmp	r0, #1
  78:	d001      	beq.n	7e <app::app_sensor::start_sensor_listener+0x7e>
  7a:	e7ff      	b.n	7c <app::app_sensor::start_sensor_listener+0x7c>
/Users/Luppy/mynewt/stm32bluepill-mynewt-sensor/rust/app/src/lib.rs:1
/*
  7c:	defe      	udf	#254	; 0xfe
/Users/Luppy/mynewt/stm32bluepill-mynewt-sensor/rust/app/src/app_sensor.rs:55
  7e:	9811      	ldr	r0, [sp, #68]	; 0x44
  80:	9012      	str	r0, [sp, #72]	; 0x48
  82:	9812      	ldr	r0, [sp, #72]	; 0x48
  84:	f7ff fffe 	bl	0 <<T as core::convert::From<T>>::from>
  88:	9006      	str	r0, [sp, #24]
  8a:	e7ff      	b.n	8c <app::app_sensor::start_sensor_listener+0x8c>
  8c:	9806      	ldr	r0, [sp, #24]
  8e:	f7ff fffe 	bl	0 <<core::result::Result<T,E> as core::ops::try::Try>::from_error>
  92:	900b      	str	r0, [sp, #44]	; 0x2c
  94:	e7ff      	b.n	96 <app::app_sensor::start_sensor_listener+0x96>
  96:	e002      	b.n	9e <app::app_sensor::start_sensor_listener+0x9e>
/Users/Luppy/mynewt/stm32bluepill-mynewt-sensor/rust/app/src/lib.rs:1
  98:	980b      	ldr	r0, [sp, #44]	; 0x2c
  9a:	b03d      	add	sp, #244	; 0xf4
  9c:	bdf0      	pop	{r4, r5, r6, r7, pc}
/Users/Luppy/mynewt/stm32bluepill-mynewt-sensor/rust/app/src/app_sensor.rs:55
  9e:	e7fb      	b.n	98 <app::app_sensor::start_sensor_listener+0x98>
/Users/Luppy/mynewt/stm32bluepill-mynewt-sensor/rust/app/src/app_sensor.rs:58

    // Create a sensor listener that will call function `aggregate_sensor_data` after polling the sensor data
    let listener = sensor::new_sensor_listener(
  a0:	f240 0000 	movw	r0, #0
  a4:	f2c0 0000 	movt	r0, #0
  a8:	4669      	mov	r1, sp
  aa:	6008      	str	r0, [r1, #0]
  ac:	f240 0100 	movw	r1, #0
  b0:	f2c0 0100 	movt	r1, #0
  b4:	a822      	add	r0, sp, #136	; 0x88
  b6:	f04f 6280 	mov.w	r2, #67108864	; 0x4000000
  ba:	2300      	movs	r3, #0
  bc:	f7ff fffe 	bl	0 <mynewt::hw::sensor::new_sensor_listener>
  c0:	e7ff      	b.n	c2 <app::app_sensor::start_sensor_listener+0xc2>
  c2:	a81a      	add	r0, sp, #104	; 0x68
  c4:	a922      	add	r1, sp, #136	; 0x88
  c6:	f7ff fffe 	bl	0 <<core::result::Result<T,E> as core::ops::try::Try>::into_result>
  ca:	e7ff      	b.n	cc <app::app_sensor::start_sensor_listener+0xcc>
/Users/Luppy/mynewt/stm32bluepill-mynewt-sensor/rust/app/src/app_sensor.rs:62
        &TEMP_SENSOR_KEY,   //  Transmit as field: `t`
        TEMP_SENSOR_TYPE,   //  Type of sensor data: Raw temperature (integer from 0 to 4095)
        app_network::aggregate_sensor_data  //  Call this function with the polled data: `aggregate_sensor_data`
    ) ? ;
  cc:	981a      	ldr	r0, [sp, #104]	; 0x68
  ce:	2800      	cmp	r0, #0
  d0:	9005      	str	r0, [sp, #20]
  d2:	d012      	beq.n	fa <app::app_sensor::start_sensor_listener+0xfa>
  d4:	e7ff      	b.n	d6 <app::app_sensor::start_sensor_listener+0xd6>
  d6:	9805      	ldr	r0, [sp, #20]
  d8:	2801      	cmp	r0, #1
  da:	d1cf      	bne.n	7c <app::app_sensor::start_sensor_listener+0x7c>
  dc:	e7ff      	b.n	de <app::app_sensor::start_sensor_listener+0xde>
  de:	981b      	ldr	r0, [sp, #108]	; 0x6c
  e0:	902b      	str	r0, [sp, #172]	; 0xac
  e2:	982b      	ldr	r0, [sp, #172]	; 0xac
  e4:	f7ff fffe 	bl	0 <<T as core::convert::From<T>>::from>
  e8:	9004      	str	r0, [sp, #16]
  ea:	e7ff      	b.n	ec <app::app_sensor::start_sensor_listener+0xec>
  ec:	9804      	ldr	r0, [sp, #16]
  ee:	f7ff fffe 	bl	0 <<core::result::Result<T,E> as core::ops::try::Try>::from_error>
  f2:	900b      	str	r0, [sp, #44]	; 0x2c
  f4:	e7ff      	b.n	f6 <app::app_sensor::start_sensor_listener+0xf6>
  f6:	e7ff      	b.n	f8 <app::app_sensor::start_sensor_listener+0xf8>
  f8:	e7d1      	b.n	9e <app::app_sensor::start_sensor_listener+0x9e>
  fa:	a81a      	add	r0, sp, #104	; 0x68
/Users/Luppy/mynewt/stm32bluepill-mynewt-sensor/rust/app/src/app_sensor.rs:58
    let listener = sensor::new_sensor_listener(
  fc:	3008      	adds	r0, #8
  fe:	a92c      	add	r1, sp, #176	; 0xb0
 100:	460a      	mov	r2, r1
 102:	e890 5078 	ldmia.w	r0, {r3, r4, r5, r6, ip, lr}
 106:	e882 5078 	stmia.w	r2, {r3, r4, r5, r6, ip, lr}
 10a:	a814      	add	r0, sp, #80	; 0x50
 10c:	4602      	mov	r2, r0
 10e:	e891 5078 	ldmia.w	r1, {r3, r4, r5, r6, ip, lr}
 112:	e882 5078 	stmia.w	r2, {r3, r4, r5, r6, ip, lr}
/Users/Luppy/mynewt/stm32bluepill-mynewt-sensor/rust/app/src/app_sensor.rs:65

    //  Register the Listener Function to be called with the polled sensor data.
    sensor::register_listener(sensor, listener) ? ;  //  `?` means in case of error, return error now.
 116:	990c      	ldr	r1, [sp, #48]	; 0x30
 118:	aa34      	add	r2, sp, #208	; 0xd0
 11a:	4613      	mov	r3, r2
 11c:	e890 50f0 	ldmia.w	r0, {r4, r5, r6, r7, ip, lr}
 120:	e883 50f0 	stmia.w	r3, {r4, r5, r6, r7, ip, lr}
 124:	4608      	mov	r0, r1
 126:	4611      	mov	r1, r2
 128:	f7ff fffe 	bl	0 <mynewt::hw::sensor::register_listener>
 12c:	9003      	str	r0, [sp, #12]
 12e:	e7ff      	b.n	130 <app::app_sensor::start_sensor_listener+0x130>
 130:	9803      	ldr	r0, [sp, #12]
 132:	f7ff fffe 	bl	0 <<core::result::Result<T,E> as core::ops::try::Try>::into_result>
 136:	9033      	str	r0, [sp, #204]	; 0xcc
 138:	e7ff      	b.n	13a <app::app_sensor::start_sensor_listener+0x13a>
 13a:	9833      	ldr	r0, [sp, #204]	; 0xcc
 13c:	1e41      	subs	r1, r0, #1
 13e:	bf18      	it	ne
 140:	2101      	movne	r1, #1
 142:	2801      	cmp	r0, #1
 144:	9102      	str	r1, [sp, #8]
 146:	d011      	beq.n	16c <app::app_sensor::start_sensor_listener+0x16c>
 148:	e7ff      	b.n	14a <app::app_sensor::start_sensor_listener+0x14a>
 14a:	9802      	ldr	r0, [sp, #8]
 14c:	2801      	cmp	r0, #1
 14e:	d195      	bne.n	7c <app::app_sensor::start_sensor_listener+0x7c>
 150:	e7ff      	b.n	152 <app::app_sensor::start_sensor_listener+0x152>
 152:	9833      	ldr	r0, [sp, #204]	; 0xcc
 154:	903a      	str	r0, [sp, #232]	; 0xe8
 156:	983a      	ldr	r0, [sp, #232]	; 0xe8
 158:	f7ff fffe 	bl	0 <<T as core::convert::From<T>>::from>
 15c:	9001      	str	r0, [sp, #4]
 15e:	e7ff      	b.n	160 <app::app_sensor::start_sensor_listener+0x160>
 160:	9801      	ldr	r0, [sp, #4]
 162:	f7ff fffe 	bl	0 <<core::result::Result<T,E> as core::ops::try::Try>::from_error>
 166:	900b      	str	r0, [sp, #44]	; 0x2c
 168:	e7ff      	b.n	16a <app::app_sensor::start_sensor_listener+0x16a>
 16a:	e7c5      	b.n	f8 <app::app_sensor::start_sensor_listener+0xf8>
 16c:	2000      	movs	r0, #0
/Users/Luppy/mynewt/stm32bluepill-mynewt-sensor/rust/app/src/app_sensor.rs:68

    //  Return `Ok()` to indicate success.  This line should not end with a semicolon (;).
    Ok(())
 16e:	900b      	str	r0, [sp, #44]	; 0x2c
 170:	2001      	movs	r0, #1
 172:	900b      	str	r0, [sp, #44]	; 0x2c
/Users/Luppy/mynewt/stm32bluepill-mynewt-sensor/rust/app/src/lib.rs:1
 174:	e790      	b.n	98 <app::app_sensor::start_sensor_listener+0x98>

app-b8434b356de0ea5d.1fcjl9upb6k0e3ni.rcgu.o:     file format elf32-littlearm

SYMBOL TABLE:
00000000 l    df *ABS*	00000000 1fcjl9upb6k0e3ni
00001f89 l       .debug_str	00000000 
000026ab l       .debug_str	00000000 
000026e1 l       .debug_str	00000000 
0000271d l       .debug_str	00000000 
0000274f l       .debug_str	00000000 
0000278b l       .debug_str	00000000 
00002796 l       .debug_str	00000000 
000027d2 l       .debug_str	00000000 
000027e0 l       .debug_str	00000000 
0000281d l       .debug_str	00000000 
00002854 l       .debug_str	00000000 
00002859 l       .debug_str	00000000 
00002896 l       .debug_str	00000000 
000028a5 l       .debug_str	00000000 
000028e2 l       .debug_str	00000000 
00002919 l       .debug_str	00000000 
0000293e l       .debug_str	00000000 
0000297c l       .debug_str	00000000 
000029b3 l       .debug_str	00000000 
000029f2 l       .debug_str	00000000 
00002a2b l       .debug_str	00000000 
00002a8f l       .debug_str	00000000 
00002ac4 l       .debug_str	00000000 
00002ac6 l       .debug_str	00000000 
00002ac8 l       .debug_str	00000000 
00002acd l       .debug_str	00000000 
00002ae8 l       .debug_str	00000000 
00002aec l       .debug_str	00000000 
00002af1 l       .debug_str	00000000 
00002af5 l       .debug_str	00000000 
00002b3a l       .debug_str	00000000 
00002b57 l       .debug_str	00000000 
00002b5b l       .debug_str	00000000 
00002b64 l       .debug_str	00000000 
00000000 l       .debug_str	00000000 
00000041 l       .debug_str	00000000 
00000055 l       .debug_str	00000000 
00000085 l       .debug_str	00000000 
0000008a l       .debug_str	00000000 
0000008e l       .debug_str	00000000 
00000091 l       .debug_str	00000000 
0000009c l       .debug_str	00000000 
000000a7 l       .debug_str	00000000 
000000ae l       .debug_str	00000000 
000000b5 l       .debug_str	00000000 
000000b9 l       .debug_str	00000000 
000000be l       .debug_str	00000000 
000000c2 l       .debug_str	00000000 
000000c6 l       .debug_str	00000000 
000000ca l       .debug_str	00000000 
000000ce l       .debug_str	00000000 
000000e0 l       .debug_str	00000000 
000000eb l       .debug_str	00000000 
000000f2 l       .debug_str	00000000 
000000f6 l       .debug_str	00000000 
000000fd l       .debug_str	00000000 
00000137 l       .debug_str	00000000 
00000139 l       .debug_str	00000000 
0000013e l       .debug_str	00000000 
00000180 l       .debug_str	00000000 
00000184 l       .debug_str	00000000 
00000190 l       .debug_str	00000000 
000001c6 l       .debug_str	00000000 
000001cd l       .debug_str	00000000 
000001d0 l       .debug_str	00000000 
000001d7 l       .debug_str	00000000 
000001e0 l       .debug_str	00000000 
000001e6 l       .debug_str	00000000 
000001ed l       .debug_str	00000000 
000001f0 l       .debug_str	00000000 
000001fc l       .debug_str	00000000 
00000204 l       .debug_str	00000000 
0000021b l       .debug_str	00000000 
00000275 l       .debug_str	00000000 
000002d7 l       .debug_str	00000000 
000002e2 l       .debug_str	00000000 
00000329 l       .debug_str	00000000 
00000378 l       .debug_str	00000000 
00000382 l       .debug_str	00000000 
000003bf l       .debug_str	00000000 
00000404 l       .debug_str	00000000 
0000040d l       .debug_str	00000000 
0000041d l       .debug_str	00000000 
00000425 l       .debug_str	00000000 
0000047a l       .debug_str	00000000 
000004d7 l       .debug_str	00000000 
000004e3 l       .debug_str	00000000 
000004ec l       .debug_str	00000000 
000004f8 l       .debug_str	00000000 
00000504 l       .debug_str	00000000 
0000050d l       .debug_str	00000000 
00000515 l       .debug_str	00000000 
0000051f l       .debug_str	00000000 
00000527 l       .debug_str	00000000 
00000531 l       .debug_str	00000000 
00000546 l       .debug_str	00000000 
0000054d l       .debug_str	00000000 
0000056d l       .debug_str	00000000 
00000574 l       .debug_str	00000000 
0000057c l       .debug_str	00000000 
00000586 l       .debug_str	00000000 
00000591 l       .debug_str	00000000 
0000059a l       .debug_str	00000000 
000005a5 l       .debug_str	00000000 
000005b1 l       .debug_str	00000000 
000005ba l       .debug_str	00000000 
000005c1 l       .debug_str	00000000 
000005c9 l       .debug_str	00000000 
000005d1 l       .debug_str	00000000 
000005db l       .debug_str	00000000 
000005e1 l       .debug_str	00000000 
000005e8 l       .debug_str	00000000 
000005ef l       .debug_str	00000000 
0000061c l       .debug_str	00000000 
00000651 l       .debug_str	00000000 
00000657 l       .debug_str	00000000 
0000065d l       .debug_str	00000000 
0000066c l       .debug_str	00000000 
0000067c l       .debug_str	00000000 
0000068c l       .debug_str	00000000 
00000694 l       .debug_str	00000000 
000006bd l       .debug_str	00000000 
0000071b l       .debug_str	00000000 
00000781 l       .debug_str	00000000 
00000788 l       .debug_str	00000000 
00000790 l       .debug_str	00000000 
00000799 l       .debug_str	00000000 
000007b7 l       .debug_str	00000000 
000007c7 l       .debug_str	00000000 
000007d5 l       .debug_str	00000000 
000007e0 l       .debug_str	00000000 
000007ed l       .debug_str	00000000 
000007fc l       .debug_str	00000000 
00000812 l       .debug_str	00000000 
0000081c l       .debug_str	00000000 
00000825 l       .debug_str	00000000 
0000082e l       .debug_str	00000000 
00000854 l       .debug_str	00000000 
0000086a l       .debug_str	00000000 
00000875 l       .debug_str	00000000 
0000088b l       .debug_str	00000000 
00000893 l       .debug_str	00000000 
000008b4 l       .debug_str	00000000 
000008cb l       .debug_str	00000000 
000008d0 l       .debug_str	00000000 
000008d8 l       .debug_str	00000000 
000008e1 l       .debug_str	00000000 
000008ea l       .debug_str	00000000 
000008f3 l       .debug_str	00000000 
000008fb l       .debug_str	00000000 
000008ff l       .debug_str	00000000 
00000906 l       .debug_str	00000000 
00000912 l       .debug_str	00000000 
0000091d l       .debug_str	00000000 
00000925 l       .debug_str	00000000 
0000092d l       .debug_str	00000000 
000009a9 l       .debug_str	00000000 
00000a2d l       .debug_str	00000000 
00000b29 l       .debug_str	00000000 
00000c2d l       .debug_str	00000000 
00000c3b l       .debug_str	00000000 
00000c46 l       .debug_str	00000000 
00000c50 l       .debug_str	00000000 
00000c64 l       .debug_str	00000000 
00000c6f l       .debug_str	00000000 
00000c9d l       .debug_str	00000000 
00000d18 l       .debug_str	00000000 
00000d9b l       .debug_str	00000000 
00000da9 l       .debug_str	00000000 
00000e08 l       .debug_str	00000000 
00000e6f l       .debug_str	00000000 
00000e85 l       .debug_str	00000000 
00000e95 l       .debug_str	00000000 
00000ea4 l       .debug_str	00000000 
00000ea8 l       .debug_str	00000000 
00000eaf l       .debug_str	00000000 
00000eb5 l       .debug_str	00000000 
00000eb9 l       .debug_str	00000000 
00000ebf l       .debug_str	00000000 
00000ec5 l       .debug_str	00000000 
00000ed1 l       .debug_str	00000000 
00000ed9 l       .debug_str	00000000 
00000edf l       .debug_str	00000000 
00000ee7 l       .debug_str	00000000 
00000eed l       .debug_str	00000000 
00000f10 l       .debug_str	00000000 
00000f20 l       .debug_str	00000000 
00000f53 l       .debug_str	00000000 
00000f93 l       .debug_str	00000000 
00000fdb l       .debug_str	00000000 
00000fdf l       .debug_str	00000000 
00000fe5 l       .debug_str	00000000 
00000feb l       .debug_str	00000000 
00000ff1 l       .debug_str	00000000 
00001003 l       .debug_str	00000000 
00001038 l       .debug_str	00000000 
0000107a l       .debug_str	00000000 
000010c4 l       .debug_str	00000000 
000010c8 l       .debug_str	00000000 
000010ce l       .debug_str	00000000 
000010d4 l       .debug_str	00000000 
000010da l       .debug_str	00000000 
000010ec l       .debug_str	00000000 
00001121 l       .debug_str	00000000 
00001163 l       .debug_str	00000000 
000011ad l       .debug_str	00000000 
000011b1 l       .debug_str	00000000 
000011b7 l       .debug_str	00000000 
000011bd l       .debug_str	00000000 
000011c3 l       .debug_str	00000000 
000011c9 l       .debug_str	00000000 
000011da l       .debug_str	00000000 
0000120e l       .debug_str	00000000 
0000124f l       .debug_str	00000000 
00001298 l       .debug_str	00000000 
0000129d l       .debug_str	00000000 
000012a2 l       .debug_str	00000000 
000012a6 l       .debug_str	00000000 
000012ac l       .debug_str	00000000 
000012b2 l       .debug_str	00000000 
000012b8 l       .debug_str	00000000 
000012c9 l       .debug_str	00000000 
000012fd l       .debug_str	00000000 
0000133e l       .debug_str	00000000 
00001387 l       .debug_str	00000000 
0000138b l       .debug_str	00000000 
00001394 l       .debug_str	00000000 
000013a5 l       .debug_str	00000000 
000013d9 l       .debug_str	00000000 
0000141a l       .debug_str	00000000 
00001463 l       .debug_str	00000000 
00001468 l       .debug_str	00000000 
0000146c l       .debug_str	00000000 
00001475 l       .debug_str	00000000 
0000147c l       .debug_str	00000000 
00001484 l       .debug_str	00000000 
00001496 l       .debug_str	00000000 
000014cb l       .debug_str	00000000 
0000150d l       .debug_str	00000000 
00001557 l       .debug_str	00000000 
0000155b l       .debug_str	00000000 
00001561 l       .debug_str	00000000 
00001567 l       .debug_str	00000000 
0000156d l       .debug_str	00000000 
00001573 l       .debug_str	00000000 
0000157b l       .debug_str	00000000 
00001589 l       .debug_str	00000000 
00001598 l       .debug_str	00000000 
000015a9 l       .debug_str	00000000 
000015b4 l       .debug_str	00000000 
000015bf l       .debug_str	00000000 
000015ca l       .debug_str	00000000 
000015d1 l       .debug_str	00000000 
000015f4 l       .debug_str	00000000 
00001606 l       .debug_str	00000000 
0000163b l       .debug_str	00000000 
0000167d l       .debug_str	00000000 
000016c7 l       .debug_str	00000000 
000016cb l       .debug_str	00000000 
000016d5 l       .debug_str	00000000 
000016e7 l       .debug_str	00000000 
0000171c l       .debug_str	00000000 
0000175e l       .debug_str	00000000 
000017a8 l       .debug_str	00000000 
000017ad l       .debug_str	00000000 
000017b7 l       .debug_str	00000000 
000017c9 l       .debug_str	00000000 
000017fe l       .debug_str	00000000 
00001840 l       .debug_str	00000000 
0000188a l       .debug_str	00000000 
0000189e l       .debug_str	00000000 
000018ac l       .debug_str	00000000 
000018bc l       .debug_str	00000000 
000018c5 l       .debug_str	00000000 
000018d0 l       .debug_str	00000000 
000018df l       .debug_str	00000000 
000018f4 l       .debug_str	00000000 
00001925 l       .debug_str	00000000 
000019c2 l       .debug_str	00000000 
00001a67 l       .debug_str	00000000 
00001a72 l       .debug_str	00000000 
00001a7b l       .debug_str	00000000 
00001a9c l       .debug_str	00000000 
00001aaf l       .debug_str	00000000 
00001ae5 l       .debug_str	00000000 
00001b68 l       .debug_str	00000000 
00001bf3 l       .debug_str	00000000 
00001c0f l       .debug_str	00000000 
00001c5b l       .debug_str	00000000 
00001caf l       .debug_str	00000000 
00001ccc l       .debug_str	00000000 
00001ce0 l       .debug_str	00000000 
00001d2c l       .debug_str	00000000 
00001d80 l       .debug_str	00000000 
00001d96 l       .debug_str	00000000 
00001daa l       .debug_str	00000000 
00001df1 l       .debug_str	00000000 
00001e40 l       .debug_str	00000000 
00001e49 l       .debug_str	00000000 
00001e57 l       .debug_str	00000000 
00001e88 l       .debug_str	00000000 
00001e8e l       .debug_str	00000000 
00001e96 l       .debug_str	00000000 
00001e9d l       .debug_str	00000000 
00001ea5 l       .debug_str	00000000 
00001eb0 l       .debug_str	00000000 
00001eb8 l       .debug_str	00000000 
00001ec7 l       .debug_str	00000000 
00001ecb l       .debug_str	00000000 
00001ed6 l       .debug_str	00000000 
00001ee2 l       .debug_str	00000000 
00001eed l       .debug_str	00000000 
00001efe l       .debug_str	00000000 
00001f04 l       .debug_str	00000000 
00001f0c l       .debug_str	00000000 
00001f13 l       .debug_str	00000000 
00001f1d l       .debug_str	00000000 
00001f25 l       .debug_str	00000000 
00001f2d l       .debug_str	00000000 
00001f4f l       .debug_str	00000000 
00001f5a l       .debug_str	00000000 
00001f66 l       .debug_str	00000000 
00001f6e l       .debug_str	00000000 
00001f77 l       .debug_str	00000000 
00001f82 l       .debug_str	00000000 
00001f94 l       .debug_str	00000000 
00001f9f l       .debug_str	00000000 
00001faf l       .debug_str	00000000 
00001fb9 l       .debug_str	00000000 
00001fbf l       .debug_str	00000000 
00001fe1 l       .debug_str	00000000 
00002019 l       .debug_str	00000000 
00002059 l       .debug_str	00000000 
00002060 l       .debug_str	00000000 
00002068 l       .debug_str	00000000 
0000207f l       .debug_str	00000000 
00002088 l       .debug_str	00000000 
00002098 l       .debug_str	00000000 
000020a7 l       .debug_str	00000000 
000020af l       .debug_str	00000000 
000020b6 l       .debug_str	00000000 
000020be l       .debug_str	00000000 
000020dc l       .debug_str	00000000 
000020ec l       .debug_str	00000000 
0000211f l       .debug_str	00000000 
00002134 l       .debug_str	00000000 
0000213d l       .debug_str	00000000 
0000219a l       .debug_str	00000000 
000021ff l       .debug_str	00000000 
00002209 l       .debug_str	00000000 
00002219 l       .debug_str	00000000 
0000222e l       .debug_str	00000000 
00002236 l       .debug_str	00000000 
0000229a l       .debug_str	00000000 
00002306 l       .debug_str	00000000 
0000230d l       .debug_str	00000000 
00002315 l       .debug_str	00000000 
00002333 l       .debug_str	00000000 
00002343 l       .debug_str	00000000 
00002376 l       .debug_str	00000000 
0000238b l       .debug_str	00000000 
0000239e l       .debug_str	00000000 
000023b3 l       .debug_str	00000000 
000023ba l       .debug_str	00000000 
000023cf l       .debug_str	00000000 
000023f9 l       .debug_str	00000000 
0000242b l       .debug_str	00000000 
00002436 l       .debug_str	00000000 
0000243f l       .debug_str	00000000 
00002446 l       .debug_str	00000000 
0000244c l       .debug_str	00000000 
00002452 l       .debug_str	00000000 
00002460 l       .debug_str	00000000 
00002465 l       .debug_str	00000000 
00002472 l       .debug_str	00000000 
0000247b l       .debug_str	00000000 
00002484 l       .debug_str	00000000 
00002492 l       .debug_str	00000000 
000024aa l       .debug_str	00000000 
000024b8 l       .debug_str	00000000 
000024ba l       .debug_str	00000000 
000024ef l       .debug_str	00000000 
000024f1 l       .debug_str	00000000 
000024f9 l       .debug_str	00000000 
000024fb l       .debug_str	00000000 
00002534 l       .debug_str	00000000 
000025cd l       .debug_str	00000000 
00002627 l       .debug_str	00000000 
00002663 l       .debug_str	00000000 
0000266f l       .debug_str	00000000 
00000000 l     O .rodata..Lanon.eddfdcd6158d99be7f9ce4462dcbe1fd.2	00000018 .Lanon.eddfdcd6158d99be7f9ce4462dcbe1fd.2
00000000 l    d  .text._ZN4core6option15Option$LT$T$GT$3map17hd528ce1da0b6d191E	00000000 .text._ZN4core6option15Option$LT$T$GT$3map17hd528ce1da0b6d191E
00000000 l    d  .text._ZN4core6option15Option$LT$T$GT$6as_ref17h9727a5993e50ebacE	00000000 .text._ZN4core6option15Option$LT$T$GT$6as_ref17h9727a5993e50ebacE
00000000 l    d  .text._ZN4core6option15Option$LT$T$GT$6expect17h0e830544906200cfE	00000000 .text._ZN4core6option15Option$LT$T$GT$6expect17h0e830544906200cfE
00000000 l    d  .text._ZN4core6option15Option$LT$T$GT$6expect17had368ec5704366e2E	00000000 .text._ZN4core6option15Option$LT$T$GT$6expect17had368ec5704366e2E
00000000 l    d  .text._ZN4core6option15Option$LT$T$GT$6unwrap17h84aea0c976a43651E	00000000 .text._ZN4core6option15Option$LT$T$GT$6unwrap17h84aea0c976a43651E
00000000 l    d  .text._ZN4core6option15Option$LT$T$GT$6unwrap17hdbb770f7e60c3a3aE	00000000 .text._ZN4core6option15Option$LT$T$GT$6unwrap17hdbb770f7e60c3a3aE
00000000 l    d  .text._ZN4core6option15Option$LT$T$GT$7is_none17hd7c1a962a5e52103E	00000000 .text._ZN4core6option15Option$LT$T$GT$7is_none17hd7c1a962a5e52103E
00000000 l    d  .text._ZN4core6option15Option$LT$T$GT$7is_some17h9c577cacfe4fb6c8E	00000000 .text._ZN4core6option15Option$LT$T$GT$7is_some17h9c577cacfe4fb6c8E
00000000 l    d  .text._ZN4core6option15Option$LT$T$GT$7is_some17he27069f3e8d38000E	00000000 .text._ZN4core6option15Option$LT$T$GT$7is_some17he27069f3e8d38000E
00000000 l    d  .text._ZN4core6option15Option$LT$T$GT$8and_then17h20b2525c583626fbE	00000000 .text._ZN4core6option15Option$LT$T$GT$8and_then17h20b2525c583626fbE
00000000 l    d  .text._ZN4core6option15Option$LT$T$GT$9unwrap_or17h67fbe6db9b894f20E	00000000 .text._ZN4core6option15Option$LT$T$GT$9unwrap_or17h67fbe6db9b894f20E
00000000 l    d  .text._ZN68_$LT$core..option..Option$LT$T$GT$$u20$as$u20$core..clone..Clone$GT$5clone17h2ffc5b809720b924E	00000000 .text._ZN68_$LT$core..option..Option$LT$T$GT$$u20$as$u20$core..clone..Clone$GT$5clone17h2ffc5b809720b924E
00000000 l    d  .rodata..Lanon.eddfdcd6158d99be7f9ce4462dcbe1fd.0	00000000 .rodata..Lanon.eddfdcd6158d99be7f9ce4462dcbe1fd.0
00000000 l    d  .rodata..Lanon.eddfdcd6158d99be7f9ce4462dcbe1fd.1	00000000 .rodata..Lanon.eddfdcd6158d99be7f9ce4462dcbe1fd.1
00000000 l    d  .debug_loc	00000000 .debug_loc
00000000 l    d  .debug_abbrev	00000000 .debug_abbrev
00000000 l    d  .debug_info	00000000 .debug_info
00000000 l    d  .debug_ranges	00000000 .debug_ranges
00000000 l    d  .debug_frame	00000000 .debug_frame
00000000 l    d  .debug_line	00000000 .debug_line
00000000         *UND*	00000000 <embedded_graphics::primitives::circle::CircleIterator<C> as core::iter::traits::iterator::Iterator>::next::{{closure}}
00000000         *UND*	00000000 core::ops::function::FnOnce::call_once
00000000         *UND*	00000000 core::option::expect_failed
00000000 g     F .text._ZN4core6option15Option$LT$T$GT$3map17hd528ce1da0b6d191E	000000c4 core::option::Option<T>::map
00000000 g     F .text._ZN4core6option15Option$LT$T$GT$6as_ref17h9727a5993e50ebacE	00000036 core::option::Option<T>::as_ref
00000000 g     F .text._ZN4core6option15Option$LT$T$GT$6expect17h0e830544906200cfE	00000066 core::option::Option<T>::expect
00000000 g     F .text._ZN4core6option15Option$LT$T$GT$6expect17had368ec5704366e2E	00000056 core::option::Option<T>::expect
00000000 g     F .text._ZN4core6option15Option$LT$T$GT$6unwrap17h84aea0c976a43651E	0000005a core::option::Option<T>::unwrap
00000000 g     F .text._ZN4core6option15Option$LT$T$GT$6unwrap17hdbb770f7e60c3a3aE	0000005a core::option::Option<T>::unwrap
00000000 g     F .text._ZN4core6option15Option$LT$T$GT$7is_none17hd7c1a962a5e52103E	0000001e core::option::Option<T>::is_none
00000000 g     F .text._ZN4core6option15Option$LT$T$GT$7is_some17h9c577cacfe4fb6c8E	0000003e core::option::Option<T>::is_some
00000000 g     F .text._ZN4core6option15Option$LT$T$GT$7is_some17he27069f3e8d38000E	00000038 core::option::Option<T>::is_some
00000000 g     F .text._ZN4core6option15Option$LT$T$GT$8and_then17h20b2525c583626fbE	000000a4 core::option::Option<T>::and_then
00000000 g     F .text._ZN4core6option15Option$LT$T$GT$9unwrap_or17h67fbe6db9b894f20E	000000b0 core::option::Option<T>::unwrap_or
00000000         *UND*	00000000 core::panicking::panic
00000000 g     F .text._ZN68_$LT$core..option..Option$LT$T$GT$$u20$as$u20$core..clone..Clone$GT$5clone17h2ffc5b809720b924E	00000058 <core::option::Option<T> as core::clone::Clone>::clone
00000000         *UND*	00000000 .hidden <embedded_graphics::pixelcolor::rgb565::Rgb565 as core::clone::Clone>::clone



Disassembly of section .text._ZN4core6option15Option$LT$T$GT$3map17hd528ce1da0b6d191E:

00000000 <core::option::Option<T>::map>:
_ZN4core6option15Option$LT$T$GT$3map17hd528ce1da0b6d191E():
/rustc/50a0defd5a93523067ef239936cc2e0755220904/src/libcore/option.rs:414
   0:	b580      	push	{r7, lr}
   2:	b092      	sub	sp, #72	; 0x48
   4:	460a      	mov	r2, r1
   6:	2300      	movs	r3, #0
/rustc/50a0defd5a93523067ef239936cc2e0755220904/src/libcore/option.rs:416
   8:	f88d 3046 	strb.w	r3, [sp, #70]	; 0x46
   c:	f88d 3047 	strb.w	r3, [sp, #71]	; 0x47
  10:	2301      	movs	r3, #1
  12:	f88d 3047 	strb.w	r3, [sp, #71]	; 0x47
  16:	f88d 3046 	strb.w	r3, [sp, #70]	; 0x46
  1a:	6809      	ldr	r1, [r1, #0]
  1c:	2900      	cmp	r1, #0
  1e:	9203      	str	r2, [sp, #12]
  20:	9002      	str	r0, [sp, #8]
  22:	9101      	str	r1, [sp, #4]
  24:	d02e      	beq.n	84 <core::option::Option<T>::map+0x84>
  26:	e7ff      	b.n	28 <core::option::Option<T>::map+0x28>
  28:	9801      	ldr	r0, [sp, #4]
  2a:	2801      	cmp	r0, #1
  2c:	d001      	beq.n	32 <core::option::Option<T>::map+0x32>
  2e:	e7ff      	b.n	30 <core::option::Option<T>::map+0x30>
/rustc/50a0defd5a93523067ef239936cc2e0755220904/src/libcore/option.rs:419
  30:	defe      	udf	#254	; 0xfe
  32:	2000      	movs	r0, #0
/rustc/50a0defd5a93523067ef239936cc2e0755220904/src/libcore/option.rs:416
  34:	f88d 0047 	strb.w	r0, [sp, #71]	; 0x47
  38:	9903      	ldr	r1, [sp, #12]
  3a:	684a      	ldr	r2, [r1, #4]
  3c:	688b      	ldr	r3, [r1, #8]
  3e:	f8d1 c00c 	ldr.w	ip, [r1, #12]
  42:	f8cd c01c 	str.w	ip, [sp, #28]
  46:	9306      	str	r3, [sp, #24]
  48:	9205      	str	r2, [sp, #20]
  4a:	f88d 0046 	strb.w	r0, [sp, #70]	; 0x46
  4e:	9805      	ldr	r0, [sp, #20]
  50:	9a06      	ldr	r2, [sp, #24]
  52:	9b07      	ldr	r3, [sp, #28]
  54:	9310      	str	r3, [sp, #64]	; 0x40
  56:	920f      	str	r2, [sp, #60]	; 0x3c
  58:	900e      	str	r0, [sp, #56]	; 0x38
  5a:	980e      	ldr	r0, [sp, #56]	; 0x38
  5c:	9a0f      	ldr	r2, [sp, #60]	; 0x3c
  5e:	9b10      	ldr	r3, [sp, #64]	; 0x40
  60:	930d      	str	r3, [sp, #52]	; 0x34
  62:	920c      	str	r2, [sp, #48]	; 0x30
  64:	900b      	str	r0, [sp, #44]	; 0x2c
  66:	a808      	add	r0, sp, #32
  68:	a90b      	add	r1, sp, #44	; 0x2c
  6a:	f7ff fffe 	bl	0 <<embedded_graphics::primitives::circle::CircleIterator<C> as core::iter::traits::iterator::Iterator>::next::{{closure}}>
  6e:	e7ff      	b.n	70 <core::option::Option<T>::map+0x70>
  70:	9808      	ldr	r0, [sp, #32]
  72:	9909      	ldr	r1, [sp, #36]	; 0x24
  74:	9a0a      	ldr	r2, [sp, #40]	; 0x28
  76:	9b02      	ldr	r3, [sp, #8]
  78:	60da      	str	r2, [r3, #12]
  7a:	6099      	str	r1, [r3, #8]
  7c:	6058      	str	r0, [r3, #4]
  7e:	2001      	movs	r0, #1
  80:	6018      	str	r0, [r3, #0]
/rustc/50a0defd5a93523067ef239936cc2e0755220904/src/libcore/option.rs:415
  82:	e003      	b.n	8c <core::option::Option<T>::map+0x8c>
  84:	2000      	movs	r0, #0
/rustc/50a0defd5a93523067ef239936cc2e0755220904/src/libcore/option.rs:417
  86:	9902      	ldr	r1, [sp, #8]
  88:	6008      	str	r0, [r1, #0]
/rustc/50a0defd5a93523067ef239936cc2e0755220904/src/libcore/option.rs:415
  8a:	e7ff      	b.n	8c <core::option::Option<T>::map+0x8c>
/rustc/50a0defd5a93523067ef239936cc2e0755220904/src/libcore/option.rs:419
  8c:	f89d 0046 	ldrb.w	r0, [sp, #70]	; 0x46
  90:	07c0      	lsls	r0, r0, #31
  92:	2800      	cmp	r0, #0
  94:	d105      	bne.n	a2 <core::option::Option<T>::map+0xa2>
  96:	e7ff      	b.n	98 <core::option::Option<T>::map+0x98>
  98:	9803      	ldr	r0, [sp, #12]
  9a:	6801      	ldr	r1, [r0, #0]
  9c:	2901      	cmp	r1, #1
  9e:	d006      	beq.n	ae <core::option::Option<T>::map+0xae>
  a0:	e00f      	b.n	c2 <core::option::Option<T>::map+0xc2>
  a2:	2000      	movs	r0, #0
  a4:	f88d 0046 	strb.w	r0, [sp, #70]	; 0x46
  a8:	e7f6      	b.n	98 <core::option::Option<T>::map+0x98>
  aa:	b012      	add	sp, #72	; 0x48
  ac:	bd80      	pop	{r7, pc}
  ae:	f89d 0047 	ldrb.w	r0, [sp, #71]	; 0x47
  b2:	07c0      	lsls	r0, r0, #31
  b4:	2800      	cmp	r0, #0
  b6:	d0f8      	beq.n	aa <core::option::Option<T>::map+0xaa>
  b8:	e7ff      	b.n	ba <core::option::Option<T>::map+0xba>
  ba:	2000      	movs	r0, #0
  bc:	f88d 0047 	strb.w	r0, [sp, #71]	; 0x47
  c0:	e7f3      	b.n	aa <core::option::Option<T>::map+0xaa>
  c2:	e7f2      	b.n	aa <core::option::Option<T>::map+0xaa>

Disassembly of section .text._ZN4core6option15Option$LT$T$GT$6as_ref17h9727a5993e50ebacE:

00000000 <core::option::Option<T>::as_ref>:
_ZN4core6option15Option$LT$T$GT$6as_ref17h9727a5993e50ebacE():
/rustc/50a0defd5a93523067ef239936cc2e0755220904/src/libcore/option.rs:237
   0:	b085      	sub	sp, #20
   2:	4601      	mov	r1, r0
   4:	9002      	str	r0, [sp, #8]
/rustc/50a0defd5a93523067ef239936cc2e0755220904/src/libcore/option.rs:239
   6:	9802      	ldr	r0, [sp, #8]
   8:	6800      	ldr	r0, [r0, #0]
   a:	2800      	cmp	r0, #0
   c:	9101      	str	r1, [sp, #4]
   e:	9000      	str	r0, [sp, #0]
  10:	d00b      	beq.n	2a <core::option::Option<T>::as_ref+0x2a>
  12:	e7ff      	b.n	14 <core::option::Option<T>::as_ref+0x14>
  14:	9800      	ldr	r0, [sp, #0]
  16:	2801      	cmp	r0, #1
  18:	d001      	beq.n	1e <core::option::Option<T>::as_ref+0x1e>
  1a:	e7ff      	b.n	1c <core::option::Option<T>::as_ref+0x1c>
/rustc/50a0defd5a93523067ef239936cc2e0755220904/src/libcore/option.rs:242
  1c:	defe      	udf	#254	; 0xfe
/rustc/50a0defd5a93523067ef239936cc2e0755220904/src/libcore/option.rs:239
  1e:	9802      	ldr	r0, [sp, #8]
  20:	3008      	adds	r0, #8
  22:	9004      	str	r0, [sp, #16]
  24:	9804      	ldr	r0, [sp, #16]
  26:	9003      	str	r0, [sp, #12]
/rustc/50a0defd5a93523067ef239936cc2e0755220904/src/libcore/option.rs:238
  28:	e002      	b.n	30 <core::option::Option<T>::as_ref+0x30>
  2a:	2000      	movs	r0, #0
/rustc/50a0defd5a93523067ef239936cc2e0755220904/src/libcore/option.rs:240
  2c:	9003      	str	r0, [sp, #12]
/rustc/50a0defd5a93523067ef239936cc2e0755220904/src/libcore/option.rs:238
  2e:	e7ff      	b.n	30 <core::option::Option<T>::as_ref+0x30>
/rustc/50a0defd5a93523067ef239936cc2e0755220904/src/libcore/option.rs:242
  30:	9803      	ldr	r0, [sp, #12]
  32:	b005      	add	sp, #20
  34:	4770      	bx	lr

Disassembly of section .text._ZN4core6option15Option$LT$T$GT$6expect17h0e830544906200cfE:

00000000 <core::option::Option<T>::expect>:
_ZN4core6option15Option$LT$T$GT$6expect17h0e830544906200cfE():
/rustc/50a0defd5a93523067ef239936cc2e0755220904/src/libcore/option.rs:311
   0:	b5b0      	push	{r4, r5, r7, lr}
   2:	b08a      	sub	sp, #40	; 0x28
   4:	469c      	mov	ip, r3
   6:	4696      	mov	lr, r2
   8:	460c      	mov	r4, r1
   a:	4605      	mov	r5, r0
   c:	f8ad 0018 	strh.w	r0, [sp, #24]
  10:	f8ad 101a 	strh.w	r1, [sp, #26]
  14:	9207      	str	r2, [sp, #28]
  16:	9308      	str	r3, [sp, #32]
/rustc/50a0defd5a93523067ef239936cc2e0755220904/src/libcore/option.rs:313
  18:	f8bd 0018 	ldrh.w	r0, [sp, #24]
  1c:	4601      	mov	r1, r0
  1e:	2800      	cmp	r0, #0
  20:	f8cd c014 	str.w	ip, [sp, #20]
  24:	f8cd e010 	str.w	lr, [sp, #16]
  28:	9403      	str	r4, [sp, #12]
  2a:	9502      	str	r5, [sp, #8]
  2c:	9101      	str	r1, [sp, #4]
  2e:	d011      	beq.n	54 <core::option::Option<T>::expect+0x54>
  30:	e7ff      	b.n	32 <core::option::Option<T>::expect+0x32>
  32:	9801      	ldr	r0, [sp, #4]
  34:	2801      	cmp	r0, #1
  36:	d001      	beq.n	3c <core::option::Option<T>::expect+0x3c>
  38:	e7ff      	b.n	3a <core::option::Option<T>::expect+0x3a>
/rustc/50a0defd5a93523067ef239936cc2e0755220904/src/libcore/option.rs:316
  3a:	defe      	udf	#254	; 0xfe
/rustc/50a0defd5a93523067ef239936cc2e0755220904/src/libcore/option.rs:313
  3c:	f8bd 001a 	ldrh.w	r0, [sp, #26]
  40:	f8ad 0026 	strh.w	r0, [sp, #38]	; 0x26
  44:	f8bd 0026 	ldrh.w	r0, [sp, #38]	; 0x26
/rustc/50a0defd5a93523067ef239936cc2e0755220904/src/libcore/option.rs:316
  48:	f8bd 1018 	ldrh.w	r1, [sp, #24]
  4c:	2901      	cmp	r1, #1
  4e:	9000      	str	r0, [sp, #0]
  50:	d005      	beq.n	5e <core::option::Option<T>::expect+0x5e>
  52:	e007      	b.n	64 <core::option::Option<T>::expect+0x64>
/rustc/50a0defd5a93523067ef239936cc2e0755220904/src/libcore/option.rs:314
  54:	9807      	ldr	r0, [sp, #28]
  56:	9908      	ldr	r1, [sp, #32]
  58:	f7ff fffe 	bl	0 <core::option::expect_failed>
  5c:	defe      	udf	#254	; 0xfe
/rustc/50a0defd5a93523067ef239936cc2e0755220904/src/libcore/option.rs:316
  5e:	9800      	ldr	r0, [sp, #0]
  60:	b00a      	add	sp, #40	; 0x28
  62:	bdb0      	pop	{r4, r5, r7, pc}
  64:	e7fb      	b.n	5e <core::option::Option<T>::expect+0x5e>

Disassembly of section .text._ZN4core6option15Option$LT$T$GT$6expect17had368ec5704366e2E:

00000000 <core::option::Option<T>::expect>:
_ZN4core6option15Option$LT$T$GT$6expect17had368ec5704366e2E():
/rustc/50a0defd5a93523067ef239936cc2e0755220904/src/libcore/option.rs:311
   0:	b5b0      	push	{r4, r5, r7, lr}
   2:	b08c      	sub	sp, #48	; 0x30
   4:	469c      	mov	ip, r3
   6:	4696      	mov	lr, r2
   8:	460c      	mov	r4, r1
   a:	4605      	mov	r5, r0
   c:	9007      	str	r0, [sp, #28]
   e:	9108      	str	r1, [sp, #32]
  10:	9209      	str	r2, [sp, #36]	; 0x24
  12:	930a      	str	r3, [sp, #40]	; 0x28
/rustc/50a0defd5a93523067ef239936cc2e0755220904/src/libcore/option.rs:313
  14:	9807      	ldr	r0, [sp, #28]
  16:	2800      	cmp	r0, #0
  18:	f8cd c018 	str.w	ip, [sp, #24]
  1c:	f8cd e014 	str.w	lr, [sp, #20]
  20:	9404      	str	r4, [sp, #16]
  22:	9503      	str	r5, [sp, #12]
  24:	9002      	str	r0, [sp, #8]
  26:	d00d      	beq.n	44 <core::option::Option<T>::expect+0x44>
  28:	e7ff      	b.n	2a <core::option::Option<T>::expect+0x2a>
  2a:	9802      	ldr	r0, [sp, #8]
  2c:	2801      	cmp	r0, #1
  2e:	d001      	beq.n	34 <core::option::Option<T>::expect+0x34>
  30:	e7ff      	b.n	32 <core::option::Option<T>::expect+0x32>
/rustc/50a0defd5a93523067ef239936cc2e0755220904/src/libcore/option.rs:316
  32:	defe      	udf	#254	; 0xfe
/rustc/50a0defd5a93523067ef239936cc2e0755220904/src/libcore/option.rs:313
  34:	9808      	ldr	r0, [sp, #32]
  36:	900b      	str	r0, [sp, #44]	; 0x2c
  38:	980b      	ldr	r0, [sp, #44]	; 0x2c
/rustc/50a0defd5a93523067ef239936cc2e0755220904/src/libcore/option.rs:316
  3a:	9907      	ldr	r1, [sp, #28]
  3c:	2901      	cmp	r1, #1
  3e:	9001      	str	r0, [sp, #4]
  40:	d005      	beq.n	4e <core::option::Option<T>::expect+0x4e>
  42:	e007      	b.n	54 <core::option::Option<T>::expect+0x54>
/rustc/50a0defd5a93523067ef239936cc2e0755220904/src/libcore/option.rs:314
  44:	9809      	ldr	r0, [sp, #36]	; 0x24
  46:	990a      	ldr	r1, [sp, #40]	; 0x28
  48:	f7ff fffe 	bl	0 <core::option::expect_failed>
  4c:	defe      	udf	#254	; 0xfe
/rustc/50a0defd5a93523067ef239936cc2e0755220904/src/libcore/option.rs:316
  4e:	9801      	ldr	r0, [sp, #4]
  50:	b00c      	add	sp, #48	; 0x30
  52:	bdb0      	pop	{r4, r5, r7, pc}
  54:	e7fb      	b.n	4e <core::option::Option<T>::expect+0x4e>

Disassembly of section .text._ZN4core6option15Option$LT$T$GT$6unwrap17h84aea0c976a43651E:

00000000 <core::option::Option<T>::unwrap>:
_ZN4core6option15Option$LT$T$GT$6unwrap17h84aea0c976a43651E():
/rustc/50a0defd5a93523067ef239936cc2e0755220904/src/libcore/option.rs:344
   0:	b086      	sub	sp, #24
   2:	460a      	mov	r2, r1
   4:	4603      	mov	r3, r0
   6:	f88d 0014 	strb.w	r0, [sp, #20]
   a:	f88d 1015 	strb.w	r1, [sp, #21]
/rustc/50a0defd5a93523067ef239936cc2e0755220904/src/libcore/option.rs:346
   e:	f89d 0014 	ldrb.w	r0, [sp, #20]
  12:	07c1      	lsls	r1, r0, #31
  14:	2900      	cmp	r1, #0
  16:	9204      	str	r2, [sp, #16]
  18:	9303      	str	r3, [sp, #12]
  1a:	9002      	str	r0, [sp, #8]
  1c:	d012      	beq.n	44 <core::option::Option<T>::unwrap+0x44>
  1e:	e7ff      	b.n	20 <core::option::Option<T>::unwrap+0x20>
  20:	9802      	ldr	r0, [sp, #8]
  22:	2801      	cmp	r0, #1
  24:	d001      	beq.n	2a <core::option::Option<T>::unwrap+0x2a>
  26:	e7ff      	b.n	28 <core::option::Option<T>::unwrap+0x28>
/rustc/50a0defd5a93523067ef239936cc2e0755220904/src/libcore/option.rs:349
  28:	defe      	udf	#254	; 0xfe
/rustc/50a0defd5a93523067ef239936cc2e0755220904/src/libcore/option.rs:346
  2a:	f89d 0015 	ldrb.w	r0, [sp, #21]
  2e:	f88d 0017 	strb.w	r0, [sp, #23]
  32:	f89d 0017 	ldrb.w	r0, [sp, #23]
/rustc/50a0defd5a93523067ef239936cc2e0755220904/src/libcore/option.rs:349
  36:	f89d 1014 	ldrb.w	r1, [sp, #20]
  3a:	07c9      	lsls	r1, r1, #31
  3c:	2900      	cmp	r1, #0
  3e:	9001      	str	r0, [sp, #4]
  40:	d107      	bne.n	52 <core::option::Option<T>::unwrap+0x52>
  42:	e009      	b.n	58 <core::option::Option<T>::unwrap+0x58>
/rustc/50a0defd5a93523067ef239936cc2e0755220904/src/libcore/macros.rs:12
  44:	f240 0000 	movw	r0, #0
  48:	f2c0 0000 	movt	r0, #0
  4c:	f7ff fffe 	bl	0 <core::panicking::panic>
  50:	defe      	udf	#254	; 0xfe
/rustc/50a0defd5a93523067ef239936cc2e0755220904/src/libcore/option.rs:349
  52:	9801      	ldr	r0, [sp, #4]
  54:	b006      	add	sp, #24
  56:	4770      	bx	lr
  58:	e7fb      	b.n	52 <core::option::Option<T>::unwrap+0x52>

Disassembly of section .text._ZN4core6option15Option$LT$T$GT$6unwrap17hdbb770f7e60c3a3aE:

00000000 <core::option::Option<T>::unwrap>:
_ZN4core6option15Option$LT$T$GT$6unwrap17hdbb770f7e60c3a3aE():
/rustc/50a0defd5a93523067ef239936cc2e0755220904/src/libcore/option.rs:344
   0:	b08a      	sub	sp, #40	; 0x28
   2:	460a      	mov	r2, r1
   4:	4603      	mov	r3, r0
   6:	9006      	str	r0, [sp, #24]
   8:	9107      	str	r1, [sp, #28]
/rustc/50a0defd5a93523067ef239936cc2e0755220904/src/libcore/option.rs:346
   a:	9806      	ldr	r0, [sp, #24]
   c:	2800      	cmp	r0, #0
   e:	4601      	mov	r1, r0
  10:	bf18      	it	ne
  12:	2101      	movne	r1, #1
  14:	2800      	cmp	r0, #0
  16:	9205      	str	r2, [sp, #20]
  18:	9304      	str	r3, [sp, #16]
  1a:	9103      	str	r1, [sp, #12]
  1c:	d011      	beq.n	42 <core::option::Option<T>::unwrap+0x42>
  1e:	e7ff      	b.n	20 <core::option::Option<T>::unwrap+0x20>
  20:	9803      	ldr	r0, [sp, #12]
  22:	2801      	cmp	r0, #1
  24:	d001      	beq.n	2a <core::option::Option<T>::unwrap+0x2a>
  26:	e7ff      	b.n	28 <core::option::Option<T>::unwrap+0x28>
/rustc/50a0defd5a93523067ef239936cc2e0755220904/src/libcore/option.rs:349
  28:	defe      	udf	#254	; 0xfe
/rustc/50a0defd5a93523067ef239936cc2e0755220904/src/libcore/option.rs:346
  2a:	9806      	ldr	r0, [sp, #24]
  2c:	9907      	ldr	r1, [sp, #28]
  2e:	9008      	str	r0, [sp, #32]
  30:	9109      	str	r1, [sp, #36]	; 0x24
  32:	9808      	ldr	r0, [sp, #32]
  34:	9909      	ldr	r1, [sp, #36]	; 0x24
/rustc/50a0defd5a93523067ef239936cc2e0755220904/src/libcore/option.rs:349
  36:	9a06      	ldr	r2, [sp, #24]
  38:	2a00      	cmp	r2, #0
  3a:	9002      	str	r0, [sp, #8]
  3c:	9101      	str	r1, [sp, #4]
  3e:	d107      	bne.n	50 <core::option::Option<T>::unwrap+0x50>
  40:	e00a      	b.n	58 <core::option::Option<T>::unwrap+0x58>
/rustc/50a0defd5a93523067ef239936cc2e0755220904/src/libcore/macros.rs:12
  42:	f240 0000 	movw	r0, #0
  46:	f2c0 0000 	movt	r0, #0
  4a:	f7ff fffe 	bl	0 <core::panicking::panic>
  4e:	defe      	udf	#254	; 0xfe
/rustc/50a0defd5a93523067ef239936cc2e0755220904/src/libcore/option.rs:349
  50:	9802      	ldr	r0, [sp, #8]
  52:	9901      	ldr	r1, [sp, #4]
  54:	b00a      	add	sp, #40	; 0x28
  56:	4770      	bx	lr
  58:	e7fa      	b.n	50 <core::option::Option<T>::unwrap+0x50>

Disassembly of section .text._ZN4core6option15Option$LT$T$GT$7is_none17hd7c1a962a5e52103E:

00000000 <core::option::Option<T>::is_none>:
_ZN4core6option15Option$LT$T$GT$7is_none17hd7c1a962a5e52103E():
/rustc/50a0defd5a93523067ef239936cc2e0755220904/src/libcore/option.rs:207
   0:	b580      	push	{r7, lr}
   2:	b084      	sub	sp, #16
   4:	4601      	mov	r1, r0
   6:	9003      	str	r0, [sp, #12]
/rustc/50a0defd5a93523067ef239936cc2e0755220904/src/libcore/option.rs:208
   8:	9803      	ldr	r0, [sp, #12]
   a:	9102      	str	r1, [sp, #8]
   c:	f7ff fffe 	bl	0 <core::option::Option<T>::is_none>
  10:	9001      	str	r0, [sp, #4]
  12:	e7ff      	b.n	14 <core::option::Option<T>::is_none+0x14>
  14:	2001      	movs	r0, #1
/rustc/50a0defd5a93523067ef239936cc2e0755220904/src/libcore/option.rs:209
  16:	9901      	ldr	r1, [sp, #4]
  18:	4388      	bics	r0, r1
  1a:	b004      	add	sp, #16
  1c:	bd80      	pop	{r7, pc}

Disassembly of section .text._ZN4core6option15Option$LT$T$GT$7is_some17h9c577cacfe4fb6c8E:

00000000 <core::option::Option<T>::is_some>:
_ZN4core6option15Option$LT$T$GT$7is_some17h9c577cacfe4fb6c8E():
/rustc/50a0defd5a93523067ef239936cc2e0755220904/src/libcore/option.rs:184
   0:	b084      	sub	sp, #16
   2:	4601      	mov	r1, r0
   4:	9002      	str	r0, [sp, #8]
/rustc/50a0defd5a93523067ef239936cc2e0755220904/src/libcore/option.rs:186
   6:	9802      	ldr	r0, [sp, #8]
   8:	6800      	ldr	r0, [r0, #0]
   a:	2800      	cmp	r0, #0
   c:	4602      	mov	r2, r0
   e:	bf18      	it	ne
  10:	2201      	movne	r2, #1
  12:	2800      	cmp	r0, #0
  14:	9101      	str	r1, [sp, #4]
  16:	9200      	str	r2, [sp, #0]
  18:	d009      	beq.n	2e <core::option::Option<T>::is_some+0x2e>
  1a:	e7ff      	b.n	1c <core::option::Option<T>::is_some+0x1c>
  1c:	9800      	ldr	r0, [sp, #0]
  1e:	2801      	cmp	r0, #1
  20:	d001      	beq.n	26 <core::option::Option<T>::is_some+0x26>
  22:	e7ff      	b.n	24 <core::option::Option<T>::is_some+0x24>
/rustc/50a0defd5a93523067ef239936cc2e0755220904/src/libcore/option.rs:189
  24:	defe      	udf	#254	; 0xfe
  26:	2001      	movs	r0, #1
/rustc/50a0defd5a93523067ef239936cc2e0755220904/src/libcore/option.rs:186
  28:	f88d 000f 	strb.w	r0, [sp, #15]
/rustc/50a0defd5a93523067ef239936cc2e0755220904/src/libcore/option.rs:185
  2c:	e003      	b.n	36 <core::option::Option<T>::is_some+0x36>
  2e:	2000      	movs	r0, #0
/rustc/50a0defd5a93523067ef239936cc2e0755220904/src/libcore/option.rs:187
  30:	f88d 000f 	strb.w	r0, [sp, #15]
/rustc/50a0defd5a93523067ef239936cc2e0755220904/src/libcore/option.rs:185
  34:	e7ff      	b.n	36 <core::option::Option<T>::is_some+0x36>
/rustc/50a0defd5a93523067ef239936cc2e0755220904/src/libcore/option.rs:189
  36:	f89d 000f 	ldrb.w	r0, [sp, #15]
  3a:	b004      	add	sp, #16
  3c:	4770      	bx	lr

Disassembly of section .text._ZN4core6option15Option$LT$T$GT$7is_some17he27069f3e8d38000E:

00000000 <core::option::Option<T>::is_some>:
_ZN4core6option15Option$LT$T$GT$7is_some17he27069f3e8d38000E():
/rustc/50a0defd5a93523067ef239936cc2e0755220904/src/libcore/option.rs:184
   0:	b084      	sub	sp, #16
   2:	4601      	mov	r1, r0
   4:	9002      	str	r0, [sp, #8]
/rustc/50a0defd5a93523067ef239936cc2e0755220904/src/libcore/option.rs:186
   6:	9802      	ldr	r0, [sp, #8]
   8:	8800      	ldrh	r0, [r0, #0]
   a:	4602      	mov	r2, r0
   c:	2800      	cmp	r0, #0
   e:	9101      	str	r1, [sp, #4]
  10:	9200      	str	r2, [sp, #0]
  12:	d009      	beq.n	28 <core::option::Option<T>::is_some+0x28>
  14:	e7ff      	b.n	16 <core::option::Option<T>::is_some+0x16>
  16:	9800      	ldr	r0, [sp, #0]
  18:	2801      	cmp	r0, #1
  1a:	d001      	beq.n	20 <core::option::Option<T>::is_some+0x20>
  1c:	e7ff      	b.n	1e <core::option::Option<T>::is_some+0x1e>
/rustc/50a0defd5a93523067ef239936cc2e0755220904/src/libcore/option.rs:189
  1e:	defe      	udf	#254	; 0xfe
  20:	2001      	movs	r0, #1
/rustc/50a0defd5a93523067ef239936cc2e0755220904/src/libcore/option.rs:186
  22:	f88d 000f 	strb.w	r0, [sp, #15]
/rustc/50a0defd5a93523067ef239936cc2e0755220904/src/libcore/option.rs:185
  26:	e003      	b.n	30 <core::option::Option<T>::is_some+0x30>
  28:	2000      	movs	r0, #0
/rustc/50a0defd5a93523067ef239936cc2e0755220904/src/libcore/option.rs:187
  2a:	f88d 000f 	strb.w	r0, [sp, #15]
/rustc/50a0defd5a93523067ef239936cc2e0755220904/src/libcore/option.rs:185
  2e:	e7ff      	b.n	30 <core::option::Option<T>::is_some+0x30>
/rustc/50a0defd5a93523067ef239936cc2e0755220904/src/libcore/option.rs:189
  30:	f89d 000f 	ldrb.w	r0, [sp, #15]
  34:	b004      	add	sp, #16
  36:	4770      	bx	lr

Disassembly of section .text._ZN4core6option15Option$LT$T$GT$8and_then17h20b2525c583626fbE:

00000000 <core::option::Option<T>::and_then>:
_ZN4core6option15Option$LT$T$GT$8and_then17h20b2525c583626fbE():
/rustc/50a0defd5a93523067ef239936cc2e0755220904/src/libcore/option.rs:622
   0:	b580      	push	{r7, lr}
   2:	b088      	sub	sp, #32
   4:	4601      	mov	r1, r0
   6:	9002      	str	r0, [sp, #8]
   8:	2000      	movs	r0, #0
/rustc/50a0defd5a93523067ef239936cc2e0755220904/src/libcore/option.rs:624
   a:	f88d 001f 	strb.w	r0, [sp, #31]
   e:	f88d 001e 	strb.w	r0, [sp, #30]
  12:	2001      	movs	r0, #1
  14:	f88d 001f 	strb.w	r0, [sp, #31]
  18:	f88d 001e 	strb.w	r0, [sp, #30]
  1c:	9802      	ldr	r0, [sp, #8]
  1e:	2800      	cmp	r0, #0
  20:	4602      	mov	r2, r0
  22:	bf18      	it	ne
  24:	2201      	movne	r2, #1
  26:	2800      	cmp	r0, #0
  28:	9101      	str	r1, [sp, #4]
  2a:	9200      	str	r2, [sp, #0]
  2c:	d017      	beq.n	5e <core::option::Option<T>::and_then+0x5e>
  2e:	e7ff      	b.n	30 <core::option::Option<T>::and_then+0x30>
  30:	9800      	ldr	r0, [sp, #0]
  32:	2801      	cmp	r0, #1
  34:	d001      	beq.n	3a <core::option::Option<T>::and_then+0x3a>
  36:	e7ff      	b.n	38 <core::option::Option<T>::and_then+0x38>
/rustc/50a0defd5a93523067ef239936cc2e0755220904/src/libcore/option.rs:627
  38:	defe      	udf	#254	; 0xfe
  3a:	2000      	movs	r0, #0
/rustc/50a0defd5a93523067ef239936cc2e0755220904/src/libcore/option.rs:624
  3c:	f88d 001f 	strb.w	r0, [sp, #31]
  40:	9902      	ldr	r1, [sp, #8]
  42:	9105      	str	r1, [sp, #20]
  44:	f88d 001e 	strb.w	r0, [sp, #30]
  48:	9805      	ldr	r0, [sp, #20]
  4a:	9006      	str	r0, [sp, #24]
  4c:	9806      	ldr	r0, [sp, #24]
  4e:	f7ff fffe 	bl	0 <core::ops::function::FnOnce::call_once>
  52:	f88d 1011 	strb.w	r1, [sp, #17]
  56:	f88d 0010 	strb.w	r0, [sp, #16]
  5a:	e7ff      	b.n	5c <core::option::Option<T>::and_then+0x5c>
/rustc/50a0defd5a93523067ef239936cc2e0755220904/src/libcore/option.rs:623
  5c:	e003      	b.n	66 <core::option::Option<T>::and_then+0x66>
  5e:	2000      	movs	r0, #0
/rustc/50a0defd5a93523067ef239936cc2e0755220904/src/libcore/option.rs:625
  60:	f88d 0010 	strb.w	r0, [sp, #16]
/rustc/50a0defd5a93523067ef239936cc2e0755220904/src/libcore/option.rs:623
  64:	e7ff      	b.n	66 <core::option::Option<T>::and_then+0x66>
/rustc/50a0defd5a93523067ef239936cc2e0755220904/src/libcore/option.rs:627
  66:	f89d 001e 	ldrb.w	r0, [sp, #30]
  6a:	07c0      	lsls	r0, r0, #31
  6c:	2800      	cmp	r0, #0
  6e:	d104      	bne.n	7a <core::option::Option<T>::and_then+0x7a>
  70:	e7ff      	b.n	72 <core::option::Option<T>::and_then+0x72>
  72:	9802      	ldr	r0, [sp, #8]
  74:	2800      	cmp	r0, #0
  76:	d10a      	bne.n	8e <core::option::Option<T>::and_then+0x8e>
  78:	e013      	b.n	a2 <core::option::Option<T>::and_then+0xa2>
  7a:	2000      	movs	r0, #0
  7c:	f88d 001e 	strb.w	r0, [sp, #30]
  80:	e7f7      	b.n	72 <core::option::Option<T>::and_then+0x72>
  82:	f89d 0010 	ldrb.w	r0, [sp, #16]
  86:	f89d 1011 	ldrb.w	r1, [sp, #17]
  8a:	b008      	add	sp, #32
  8c:	bd80      	pop	{r7, pc}
  8e:	f89d 001f 	ldrb.w	r0, [sp, #31]
  92:	07c0      	lsls	r0, r0, #31
  94:	2800      	cmp	r0, #0
  96:	d0f4      	beq.n	82 <core::option::Option<T>::and_then+0x82>
  98:	e7ff      	b.n	9a <core::option::Option<T>::and_then+0x9a>
  9a:	2000      	movs	r0, #0
  9c:	f88d 001f 	strb.w	r0, [sp, #31]
  a0:	e7ef      	b.n	82 <core::option::Option<T>::and_then+0x82>
  a2:	e7ee      	b.n	82 <core::option::Option<T>::and_then+0x82>

Disassembly of section .text._ZN4core6option15Option$LT$T$GT$9unwrap_or17h67fbe6db9b894f20E:

00000000 <core::option::Option<T>::unwrap_or>:
_ZN4core6option15Option$LT$T$GT$9unwrap_or17h67fbe6db9b894f20E():
/rustc/50a0defd5a93523067ef239936cc2e0755220904/src/libcore/option.rs:367
   0:	b580      	push	{r7, lr}
   2:	b087      	sub	sp, #28
   4:	4613      	mov	r3, r2
   6:	468c      	mov	ip, r1
   8:	4686      	mov	lr, r0
   a:	f8ad 0010 	strh.w	r0, [sp, #16]
   e:	f8ad 1012 	strh.w	r1, [sp, #18]
  12:	f8ad 2014 	strh.w	r2, [sp, #20]
  16:	2000      	movs	r0, #0
/rustc/50a0defd5a93523067ef239936cc2e0755220904/src/libcore/option.rs:369
  18:	f88d 001a 	strb.w	r0, [sp, #26]
  1c:	f88d 001b 	strb.w	r0, [sp, #27]
  20:	2001      	movs	r0, #1
  22:	f88d 001b 	strb.w	r0, [sp, #27]
  26:	f88d 001a 	strb.w	r0, [sp, #26]
  2a:	f8bd 0010 	ldrh.w	r0, [sp, #16]
  2e:	4601      	mov	r1, r0
  30:	2800      	cmp	r0, #0
  32:	9303      	str	r3, [sp, #12]
  34:	f8cd c008 	str.w	ip, [sp, #8]
  38:	f8cd e004 	str.w	lr, [sp, #4]
  3c:	9100      	str	r1, [sp, #0]
  3e:	d011      	beq.n	64 <core::option::Option<T>::unwrap_or+0x64>
  40:	e7ff      	b.n	42 <core::option::Option<T>::unwrap_or+0x42>
  42:	9800      	ldr	r0, [sp, #0]
  44:	2801      	cmp	r0, #1
  46:	d001      	beq.n	4c <core::option::Option<T>::unwrap_or+0x4c>
  48:	e7ff      	b.n	4a <core::option::Option<T>::unwrap_or+0x4a>
/rustc/50a0defd5a93523067ef239936cc2e0755220904/src/libcore/option.rs:372
  4a:	defe      	udf	#254	; 0xfe
  4c:	2000      	movs	r0, #0
/rustc/50a0defd5a93523067ef239936cc2e0755220904/src/libcore/option.rs:369
  4e:	f88d 001b 	strb.w	r0, [sp, #27]
  52:	f8bd 0012 	ldrh.w	r0, [sp, #18]
  56:	f8ad 0018 	strh.w	r0, [sp, #24]
  5a:	f8bd 0018 	ldrh.w	r0, [sp, #24]
  5e:	f8ad 0016 	strh.w	r0, [sp, #22]
/rustc/50a0defd5a93523067ef239936cc2e0755220904/src/libcore/option.rs:368
  62:	e007      	b.n	74 <core::option::Option<T>::unwrap_or+0x74>
  64:	2000      	movs	r0, #0
/rustc/50a0defd5a93523067ef239936cc2e0755220904/src/libcore/option.rs:370
  66:	f88d 001a 	strb.w	r0, [sp, #26]
  6a:	f8bd 0014 	ldrh.w	r0, [sp, #20]
  6e:	f8ad 0016 	strh.w	r0, [sp, #22]
/rustc/50a0defd5a93523067ef239936cc2e0755220904/src/libcore/option.rs:368
  72:	e7ff      	b.n	74 <core::option::Option<T>::unwrap_or+0x74>
/rustc/50a0defd5a93523067ef239936cc2e0755220904/src/libcore/option.rs:372
  74:	f89d 001a 	ldrb.w	r0, [sp, #26]
  78:	07c0      	lsls	r0, r0, #31
  7a:	2800      	cmp	r0, #0
  7c:	d105      	bne.n	8a <core::option::Option<T>::unwrap_or+0x8a>
  7e:	e7ff      	b.n	80 <core::option::Option<T>::unwrap_or+0x80>
  80:	f8bd 0010 	ldrh.w	r0, [sp, #16]
  84:	2801      	cmp	r0, #1
  86:	d008      	beq.n	9a <core::option::Option<T>::unwrap_or+0x9a>
  88:	e011      	b.n	ae <core::option::Option<T>::unwrap_or+0xae>
  8a:	2000      	movs	r0, #0
  8c:	f88d 001a 	strb.w	r0, [sp, #26]
  90:	e7f6      	b.n	80 <core::option::Option<T>::unwrap_or+0x80>
  92:	f8bd 0016 	ldrh.w	r0, [sp, #22]
  96:	b007      	add	sp, #28
  98:	bd80      	pop	{r7, pc}
  9a:	f89d 001b 	ldrb.w	r0, [sp, #27]
  9e:	07c0      	lsls	r0, r0, #31
  a0:	2800      	cmp	r0, #0
  a2:	d0f6      	beq.n	92 <core::option::Option<T>::unwrap_or+0x92>
  a4:	e7ff      	b.n	a6 <core::option::Option<T>::unwrap_or+0xa6>
  a6:	2000      	movs	r0, #0
  a8:	f88d 001b 	strb.w	r0, [sp, #27]
  ac:	e7f1      	b.n	92 <core::option::Option<T>::unwrap_or+0x92>
  ae:	e7f0      	b.n	92 <core::option::Option<T>::unwrap_or+0x92>

Disassembly of section .text._ZN68_$LT$core..option..Option$LT$T$GT$$u20$as$u20$core..clone..Clone$GT$5clone17h2ffc5b809720b924E:

00000000 <<core::option::Option<T> as core::clone::Clone>::clone>:
_ZN68_$LT$core..option..Option$LT$T$GT$$u20$as$u20$core..clone..Clone$GT$5clone17h2ffc5b809720b924E():
/rustc/50a0defd5a93523067ef239936cc2e0755220904/src/libcore/option.rs:148
   0:	b580      	push	{r7, lr}
   2:	b088      	sub	sp, #32
   4:	4601      	mov	r1, r0
   6:	9004      	str	r0, [sp, #16]
   8:	9804      	ldr	r0, [sp, #16]
   a:	9006      	str	r0, [sp, #24]
   c:	9806      	ldr	r0, [sp, #24]
   e:	8800      	ldrh	r0, [r0, #0]
  10:	4602      	mov	r2, r0
  12:	2800      	cmp	r0, #0
  14:	9103      	str	r1, [sp, #12]
  16:	9202      	str	r2, [sp, #8]
  18:	d005      	beq.n	26 <<core::option::Option<T> as core::clone::Clone>::clone+0x26>
  1a:	e7ff      	b.n	1c <<core::option::Option<T> as core::clone::Clone>::clone+0x1c>
  1c:	9802      	ldr	r0, [sp, #8]
  1e:	2801      	cmp	r0, #1
  20:	d005      	beq.n	2e <<core::option::Option<T> as core::clone::Clone>::clone+0x2e>
  22:	e7ff      	b.n	24 <<core::option::Option<T> as core::clone::Clone>::clone+0x24>
  24:	defe      	udf	#254	; 0xfe
  26:	2000      	movs	r0, #0
  28:	f8ad 0014 	strh.w	r0, [sp, #20]
  2c:	e00e      	b.n	4c <<core::option::Option<T> as core::clone::Clone>::clone+0x4c>
/rustc/50a0defd5a93523067ef239936cc2e0755220904/src/libcore/option.rs:156
  2e:	9806      	ldr	r0, [sp, #24]
  30:	3002      	adds	r0, #2
  32:	9007      	str	r0, [sp, #28]
  34:	9807      	ldr	r0, [sp, #28]
  36:	f7ff fffe 	bl	0 <<embedded_graphics::pixelcolor::rgb565::Rgb565 as core::clone::Clone>::clone>
  3a:	9001      	str	r0, [sp, #4]
  3c:	e7ff      	b.n	3e <<core::option::Option<T> as core::clone::Clone>::clone+0x3e>
/rustc/50a0defd5a93523067ef239936cc2e0755220904/src/libcore/option.rs:148
  3e:	9801      	ldr	r0, [sp, #4]
  40:	f8ad 0016 	strh.w	r0, [sp, #22]
  44:	2101      	movs	r1, #1
  46:	f8ad 1014 	strh.w	r1, [sp, #20]
  4a:	e7ff      	b.n	4c <<core::option::Option<T> as core::clone::Clone>::clone+0x4c>
  4c:	f8bd 0014 	ldrh.w	r0, [sp, #20]
  50:	f8bd 1016 	ldrh.w	r1, [sp, #22]
  54:	b008      	add	sp, #32
  56:	bd80      	pop	{r7, pc}

app-b8434b356de0ea5d.1maqaaxlahr824al.rcgu.o:     file format elf32-littlearm

SYMBOL TABLE:
00000000 l    df *ABS*	00000000 1maqaaxlahr824al
00000257 l       .debug_str	00000000 
0000032e l       .debug_str	00000000 
0000035f l       .debug_str	00000000 
00000367 l       .debug_str	00000000 
00000369 l       .debug_str	00000000 
0000036d l       .debug_str	00000000 
0000036f l       .debug_str	00000000 
00000000 l       .debug_str	00000000 
00000041 l       .debug_str	00000000 
00000055 l       .debug_str	00000000 
00000085 l       .debug_str	00000000 
0000008a l       .debug_str	00000000 
00000091 l       .debug_str	00000000 
00000094 l       .debug_str	00000000 
00000097 l       .debug_str	00000000 
0000009b l       .debug_str	00000000 
000000a2 l       .debug_str	00000000 
000000a6 l       .debug_str	00000000 
000000a9 l       .debug_str	00000000 
000000ac l       .debug_str	00000000 
000000b1 l       .debug_str	00000000 
000000b7 l       .debug_str	00000000 
000000be l       .debug_str	00000000 
000000c6 l       .debug_str	00000000 
000000d0 l       .debug_str	00000000 
000000d6 l       .debug_str	00000000 
000000dc l       .debug_str	00000000 
000000df l       .debug_str	00000000 
000000ee l       .debug_str	00000000 
000000f5 l       .debug_str	00000000 
000000f9 l       .debug_str	00000000 
00000102 l       .debug_str	00000000 
0000010a l       .debug_str	00000000 
00000112 l       .debug_str	00000000 
00000119 l       .debug_str	00000000 
0000011f l       .debug_str	00000000 
00000133 l       .debug_str	00000000 
0000013f l       .debug_str	00000000 
0000014b l       .debug_str	00000000 
0000014d l       .debug_str	00000000 
00000166 l       .debug_str	00000000 
0000016b l       .debug_str	00000000 
0000017c l       .debug_str	00000000 
00000186 l       .debug_str	00000000 
0000018c l       .debug_str	00000000 
00000190 l       .debug_str	00000000 
00000195 l       .debug_str	00000000 
0000019a l       .debug_str	00000000 
000001a0 l       .debug_str	00000000 
000001a6 l       .debug_str	00000000 
000001ad l       .debug_str	00000000 
000001b2 l       .debug_str	00000000 
000001b7 l       .debug_str	00000000 
000001bb l       .debug_str	00000000 
000001c9 l       .debug_str	00000000 
000001d3 l       .debug_str	00000000 
000001d7 l       .debug_str	00000000 
000001e2 l       .debug_str	00000000 
000001e9 l       .debug_str	00000000 
000001ef l       .debug_str	00000000 
000001f3 l       .debug_str	00000000 
00000210 l       .debug_str	00000000 
00000214 l       .debug_str	00000000 
0000021c l       .debug_str	00000000 
00000233 l       .debug_str	00000000 
00000273 l       .debug_str	00000000 
00000278 l       .debug_str	00000000 
00000281 l       .debug_str	00000000 
00000288 l       .debug_str	00000000 
000002a1 l       .debug_str	00000000 
000002ab l       .debug_str	00000000 
000002c5 l       .debug_str	00000000 
00000323 l       .debug_str	00000000 
00000000 l    d  .text._ZN4core3fmt10ArgumentV13new17hc94179052dca7e4bE	00000000 .text._ZN4core3fmt10ArgumentV13new17hc94179052dca7e4bE
00000000 l    d  .debug_abbrev	00000000 .debug_abbrev
00000000 l    d  .debug_info	00000000 .debug_info
00000000 l    d  .debug_frame	00000000 .debug_frame
00000000 l    d  .debug_line	00000000 .debug_line
00000000 g     F .text._ZN4core3fmt10ArgumentV13new17hc94179052dca7e4bE	00000032 core::fmt::ArgumentV1::new



Disassembly of section .text._ZN4core3fmt10ArgumentV13new17hc94179052dca7e4bE:

00000000 <core::fmt::ArgumentV1::new>:
_ZN4core3fmt10ArgumentV13new17hc94179052dca7e4bE():
/rustc/50a0defd5a93523067ef239936cc2e0755220904/src/libcore/fmt/mod.rs:278
   0:	b08a      	sub	sp, #40	; 0x28
   2:	460a      	mov	r2, r1
   4:	4603      	mov	r3, r0
   6:	9004      	str	r0, [sp, #16]
   8:	9105      	str	r1, [sp, #20]
/rustc/50a0defd5a93523067ef239936cc2e0755220904/src/libcore/fmt/mod.rs:282
   a:	9805      	ldr	r0, [sp, #20]
   c:	9008      	str	r0, [sp, #32]
   e:	9808      	ldr	r0, [sp, #32]
  10:	9203      	str	r2, [sp, #12]
  12:	9302      	str	r3, [sp, #8]
  14:	9001      	str	r0, [sp, #4]
  16:	e7ff      	b.n	18 <core::fmt::ArgumentV1::new+0x18>
/rustc/50a0defd5a93523067ef239936cc2e0755220904/src/libcore/fmt/mod.rs:283
  18:	9804      	ldr	r0, [sp, #16]
  1a:	9009      	str	r0, [sp, #36]	; 0x24
  1c:	9809      	ldr	r0, [sp, #36]	; 0x24
  1e:	9000      	str	r0, [sp, #0]
  20:	e7ff      	b.n	22 <core::fmt::ArgumentV1::new+0x22>
/rustc/50a0defd5a93523067ef239936cc2e0755220904/src/libcore/fmt/mod.rs:281
  22:	9800      	ldr	r0, [sp, #0]
  24:	9006      	str	r0, [sp, #24]
  26:	9901      	ldr	r1, [sp, #4]
  28:	9107      	str	r1, [sp, #28]
/rustc/50a0defd5a93523067ef239936cc2e0755220904/src/libcore/fmt/mod.rs:286
  2a:	9806      	ldr	r0, [sp, #24]
  2c:	9907      	ldr	r1, [sp, #28]
  2e:	b00a      	add	sp, #40	; 0x28
  30:	4770      	bx	lr

app-b8434b356de0ea5d.1s62yn378fy0g079.rcgu.o:     file format elf32-littlearm

SYMBOL TABLE:
00000000 l    df *ABS*	00000000 1s62yn378fy0g079
00001ff6 l       .debug_str	00000000 
00002825 l       .debug_str	00000000 
00002830 l       .debug_str	00000000 
0000283b l       .debug_str	00000000 
0000284b l       .debug_str	00000000 
0000285b l       .debug_str	00000000 
0000288e l       .debug_str	00000000 
000028a3 l       .debug_str	00000000 
000028ac l       .debug_str	00000000 
00002909 l       .debug_str	00000000 
0000296e l       .debug_str	00000000 
00002978 l       .debug_str	00000000 
00002988 l       .debug_str	00000000 
0000299d l       .debug_str	00000000 
000029a5 l       .debug_str	00000000 
00002a09 l       .debug_str	00000000 
00002a75 l       .debug_str	00000000 
00002a7c l       .debug_str	00000000 
00002a84 l       .debug_str	00000000 
00002aa2 l       .debug_str	00000000 
00002ab2 l       .debug_str	00000000 
00002ae5 l       .debug_str	00000000 
00002afa l       .debug_str	00000000 
00002b0d l       .debug_str	00000000 
00002b22 l       .debug_str	00000000 
00002b29 l       .debug_str	00000000 
00002b3e l       .debug_str	00000000 
00002b68 l       .debug_str	00000000 
00002be4 l       .debug_str	00000000 
00002c68 l       .debug_str	00000000 
00002c6f l       .debug_str	00000000 
00002c77 l       .debug_str	00000000 
00002c95 l       .debug_str	00000000 
00002ca5 l       .debug_str	00000000 
00002d15 l       .debug_str	00000000 
00002d6c l       .debug_str	00000000 
00002dbf l       .debug_str	00000000 
00002dc3 l       .debug_str	00000000 
00002dc8 l       .debug_str	00000000 
00002dce l       .debug_str	00000000 
00002dd3 l       .debug_str	00000000 
00002dd9 l       .debug_str	00000000 
00002dde l       .debug_str	00000000 
00002de2 l       .debug_str	00000000 
00002de4 l       .debug_str	00000000 
00002de6 l       .debug_str	00000000 
00002deb l       .debug_str	00000000 
00002dee l       .debug_str	00000000 
00000000 l       .debug_str	00000000 
00000041 l       .debug_str	00000000 
00000055 l       .debug_str	00000000 
00000085 l       .debug_str	00000000 
0000008a l       .debug_str	00000000 
0000008e l       .debug_str	00000000 
00000091 l       .debug_str	00000000 
0000009c l       .debug_str	00000000 
000000a7 l       .debug_str	00000000 
000000ae l       .debug_str	00000000 
000000b5 l       .debug_str	00000000 
000000bc l       .debug_str	00000000 
000000c0 l       .debug_str	00000000 
000000c8 l       .debug_str	00000000 
000000d3 l       .debug_str	00000000 
000000de l       .debug_str	00000000 
000000eb l       .debug_str	00000000 
000000f6 l       .debug_str	00000000 
000000fe l       .debug_str	00000000 
00000109 l       .debug_str	00000000 
00000114 l       .debug_str	00000000 
0000011e l       .debug_str	00000000 
00000129 l       .debug_str	00000000 
00000134 l       .debug_str	00000000 
00000141 l       .debug_str	00000000 
0000014d l       .debug_str	00000000 
0000015a l       .debug_str	00000000 
00000168 l       .debug_str	00000000 
00000172 l       .debug_str	00000000 
0000017f l       .debug_str	00000000 
0000018b l       .debug_str	00000000 
0000018e l       .debug_str	00000000 
00000192 l       .debug_str	00000000 
00000199 l       .debug_str	00000000 
0000019d l       .debug_str	00000000 
000001a1 l       .debug_str	00000000 
000001a8 l       .debug_str	00000000 
000001ab l       .debug_str	00000000 
000001b5 l       .debug_str	00000000 
000001c0 l       .debug_str	00000000 
000001c9 l       .debug_str	00000000 
000001d4 l       .debug_str	00000000 
000001e0 l       .debug_str	00000000 
000001e4 l       .debug_str	00000000 
000001ed l       .debug_str	00000000 
000001f4 l       .debug_str	00000000 
000001fc l       .debug_str	00000000 
00000204 l       .debug_str	00000000 
0000020e l       .debug_str	00000000 
00000214 l       .debug_str	00000000 
0000021b l       .debug_str	00000000 
00000225 l       .debug_str	00000000 
0000022c l       .debug_str	00000000 
00000233 l       .debug_str	00000000 
00000238 l       .debug_str	00000000 
0000024f l       .debug_str	00000000 
0000027c l       .debug_str	00000000 
0000027e l       .debug_str	00000000 
00000283 l       .debug_str	00000000 
000002b8 l       .debug_str	00000000 
000002be l       .debug_str	00000000 
000002c4 l       .debug_str	00000000 
000002d3 l       .debug_str	00000000 
000002e3 l       .debug_str	00000000 
000002f3 l       .debug_str	00000000 
000002fb l       .debug_str	00000000 
00000324 l       .debug_str	00000000 
00000382 l       .debug_str	00000000 
000003e8 l       .debug_str	00000000 
000003ef l       .debug_str	00000000 
000003f7 l       .debug_str	00000000 
00000400 l       .debug_str	00000000 
0000041e l       .debug_str	00000000 
0000042e l       .debug_str	00000000 
0000043c l       .debug_str	00000000 
00000447 l       .debug_str	00000000 
00000454 l       .debug_str	00000000 
00000463 l       .debug_str	00000000 
0000046d l       .debug_str	00000000 
00000483 l       .debug_str	00000000 
0000048d l       .debug_str	00000000 
00000496 l       .debug_str	00000000 
0000049f l       .debug_str	00000000 
000004c5 l       .debug_str	00000000 
000004db l       .debug_str	00000000 
000004e6 l       .debug_str	00000000 
000004fc l       .debug_str	00000000 
00000504 l       .debug_str	00000000 
00000525 l       .debug_str	00000000 
0000052e l       .debug_str	00000000 
00000537 l       .debug_str	00000000 
00000542 l       .debug_str	00000000 
0000054c l       .debug_str	00000000 
00000552 l       .debug_str	00000000 
0000058a l       .debug_str	00000000 
000005ca l       .debug_str	00000000 
000005d1 l       .debug_str	00000000 
000005d9 l       .debug_str	00000000 
000005f0 l       .debug_str	00000000 
000005f9 l       .debug_str	00000000 
0000061b l       .debug_str	00000000 
00000625 l       .debug_str	00000000 
0000064c l       .debug_str	00000000 
00000664 l       .debug_str	00000000 
0000066e l       .debug_str	00000000 
00000691 l       .debug_str	00000000 
00000693 l       .debug_str	00000000 
000006db l       .debug_str	00000000 
000006de l       .debug_str	00000000 
00000706 l       .debug_str	00000000 
0000070f l       .debug_str	00000000 
00000742 l       .debug_str	00000000 
00000754 l       .debug_str	00000000 
00000756 l       .debug_str	00000000 
00000796 l       .debug_str	00000000 
000007dd l       .debug_str	00000000 
0000081d l       .debug_str	00000000 
0000082b l       .debug_str	00000000 
0000086b l       .debug_str	00000000 
00000892 l       .debug_str	00000000 
00000894 l       .debug_str	00000000 
0000089c l       .debug_str	00000000 
0000089e l       .debug_str	00000000 
000008df l       .debug_str	00000000 
00000912 l       .debug_str	00000000 
00000953 l       .debug_str	00000000 
00000994 l       .debug_str	00000000 
000009d5 l       .debug_str	00000000 
00000a16 l       .debug_str	00000000 
00000a57 l       .debug_str	00000000 
00000a98 l       .debug_str	00000000 
00000b07 l       .debug_str	00000000 
00000b32 l       .debug_str	00000000 
00000ba1 l       .debug_str	00000000 
00000bb3 l       .debug_str	00000000 
00000bb7 l       .debug_str	00000000 
00000bbf l       .debug_str	00000000 
00000bc8 l       .debug_str	00000000 
00000bcf l       .debug_str	00000000 
00000bd5 l       .debug_str	00000000 
00000bdb l       .debug_str	00000000 
00000be0 l       .debug_str	00000000 
00000be8 l       .debug_str	00000000 
00000bed l       .debug_str	00000000 
00000c5d l       .debug_str	00000000 
00000c93 l       .debug_str	00000000 
00000cc5 l       .debug_str	00000000 
00000d35 l       .debug_str	00000000 
00000d48 l       .debug_str	00000000 
00000d4d l       .debug_str	00000000 
00000dbd l       .debug_str	00000000 
00000deb l       .debug_str	00000000 
00000e15 l       .debug_str	00000000 
00000e85 l       .debug_str	00000000 
00000eb1 l       .debug_str	00000000 
00000eb4 l       .debug_str	00000000 
00000ebb l       .debug_str	00000000 
00000ec4 l       .debug_str	00000000 
00000ed3 l       .debug_str	00000000 
00000ed7 l       .debug_str	00000000 
00000edf l       .debug_str	00000000 
00000ee5 l       .debug_str	00000000 
00000ef1 l       .debug_str	00000000 
00000ef9 l       .debug_str	00000000 
00000f53 l       .debug_str	00000000 
00000fb5 l       .debug_str	00000000 
00000fc0 l       .debug_str	00000000 
00001007 l       .debug_str	00000000 
00001056 l       .debug_str	00000000 
00001060 l       .debug_str	00000000 
0000109d l       .debug_str	00000000 
000010e2 l       .debug_str	00000000 
000010eb l       .debug_str	00000000 
000010fb l       .debug_str	00000000 
00001103 l       .debug_str	00000000 
00001158 l       .debug_str	00000000 
000011b5 l       .debug_str	00000000 
000011c1 l       .debug_str	00000000 
000011ca l       .debug_str	00000000 
000011d6 l       .debug_str	00000000 
000011e2 l       .debug_str	00000000 
000011eb l       .debug_str	00000000 
000011f3 l       .debug_str	00000000 
000011fb l       .debug_str	00000000 
00001210 l       .debug_str	00000000 
00001217 l       .debug_str	00000000 
00001237 l       .debug_str	00000000 
0000123e l       .debug_str	00000000 
00001246 l       .debug_str	00000000 
00001250 l       .debug_str	00000000 
00001267 l       .debug_str	00000000 
0000126c l       .debug_str	00000000 
00001274 l       .debug_str	00000000 
0000127d l       .debug_str	00000000 
00001286 l       .debug_str	00000000 
0000128f l       .debug_str	00000000 
00001297 l       .debug_str	00000000 
0000129e l       .debug_str	00000000 
000012aa l       .debug_str	00000000 
000012b5 l       .debug_str	00000000 
000012bd l       .debug_str	00000000 
000012c5 l       .debug_str	00000000 
000013c1 l       .debug_str	00000000 
000014c5 l       .debug_str	00000000 
000014d3 l       .debug_str	00000000 
000014de l       .debug_str	00000000 
000014e8 l       .debug_str	00000000 
000014fc l       .debug_str	00000000 
00001507 l       .debug_str	00000000 
00001535 l       .debug_str	00000000 
000015b0 l       .debug_str	00000000 
00001633 l       .debug_str	00000000 
00001641 l       .debug_str	00000000 
000016a0 l       .debug_str	00000000 
00001707 l       .debug_str	00000000 
0000171d l       .debug_str	00000000 
0000172d l       .debug_str	00000000 
0000173c l       .debug_str	00000000 
00001740 l       .debug_str	00000000 
00001747 l       .debug_str	00000000 
0000174d l       .debug_str	00000000 
00001751 l       .debug_str	00000000 
00001757 l       .debug_str	00000000 
0000175d l       .debug_str	00000000 
00001769 l       .debug_str	00000000 
00001771 l       .debug_str	00000000 
00001777 l       .debug_str	00000000 
0000177f l       .debug_str	00000000 
00001785 l       .debug_str	00000000 
000017a8 l       .debug_str	00000000 
000017b8 l       .debug_str	00000000 
000017eb l       .debug_str	00000000 
0000182b l       .debug_str	00000000 
00001873 l       .debug_str	00000000 
00001877 l       .debug_str	00000000 
0000187d l       .debug_str	00000000 
00001883 l       .debug_str	00000000 
00001889 l       .debug_str	00000000 
0000189b l       .debug_str	00000000 
000018d0 l       .debug_str	00000000 
00001912 l       .debug_str	00000000 
0000195c l       .debug_str	00000000 
00001960 l       .debug_str	00000000 
00001966 l       .debug_str	00000000 
0000196c l       .debug_str	00000000 
00001972 l       .debug_str	00000000 
00001984 l       .debug_str	00000000 
000019b9 l       .debug_str	00000000 
000019fb l       .debug_str	00000000 
00001a45 l       .debug_str	00000000 
00001a49 l       .debug_str	00000000 
00001a4f l       .debug_str	00000000 
00001a55 l       .debug_str	00000000 
00001a5b l       .debug_str	00000000 
00001a61 l       .debug_str	00000000 
00001a72 l       .debug_str	00000000 
00001aa6 l       .debug_str	00000000 
00001ae7 l       .debug_str	00000000 
00001b30 l       .debug_str	00000000 
00001b35 l       .debug_str	00000000 
00001b3a l       .debug_str	00000000 
00001b3e l       .debug_str	00000000 
00001b44 l       .debug_str	00000000 
00001b4a l       .debug_str	00000000 
00001b50 l       .debug_str	00000000 
00001b61 l       .debug_str	00000000 
00001b95 l       .debug_str	00000000 
00001bd6 l       .debug_str	00000000 
00001c1f l       .debug_str	00000000 
00001c23 l       .debug_str	00000000 
00001c2c l       .debug_str	00000000 
00001c3d l       .debug_str	00000000 
00001c71 l       .debug_str	00000000 
00001cb2 l       .debug_str	00000000 
00001cfb l       .debug_str	00000000 
00001d00 l       .debug_str	00000000 
00001d04 l       .debug_str	00000000 
00001d0d l       .debug_str	00000000 
00001d14 l       .debug_str	00000000 
00001d1c l       .debug_str	00000000 
00001d2e l       .debug_str	00000000 
00001d63 l       .debug_str	00000000 
00001da5 l       .debug_str	00000000 
00001def l       .debug_str	00000000 
00001df3 l       .debug_str	00000000 
00001df9 l       .debug_str	00000000 
00001dff l       .debug_str	00000000 
00001e05 l       .debug_str	00000000 
00001e0b l       .debug_str	00000000 
00001e13 l       .debug_str	00000000 
00001e21 l       .debug_str	00000000 
00001e30 l       .debug_str	00000000 
00001e41 l       .debug_str	00000000 
00001e4c l       .debug_str	00000000 
00001e57 l       .debug_str	00000000 
00001e62 l       .debug_str	00000000 
00001e69 l       .debug_str	00000000 
00001e8c l       .debug_str	00000000 
00001e9e l       .debug_str	00000000 
00001ed3 l       .debug_str	00000000 
00001f15 l       .debug_str	00000000 
00001f5f l       .debug_str	00000000 
00001f63 l       .debug_str	00000000 
00001f6d l       .debug_str	00000000 
00001f7f l       .debug_str	00000000 
00001fb4 l       .debug_str	00000000 
00002040 l       .debug_str	00000000 
00002045 l       .debug_str	00000000 
0000204f l       .debug_str	00000000 
00002061 l       .debug_str	00000000 
00002096 l       .debug_str	00000000 
000020d8 l       .debug_str	00000000 
00002122 l       .debug_str	00000000 
00002136 l       .debug_str	00000000 
0000213a l       .debug_str	00000000 
00002148 l       .debug_str	00000000 
00002158 l       .debug_str	00000000 
00002161 l       .debug_str	00000000 
0000216c l       .debug_str	00000000 
0000217b l       .debug_str	00000000 
00002190 l       .debug_str	00000000 
000021c1 l       .debug_str	00000000 
0000225e l       .debug_str	00000000 
00002303 l       .debug_str	00000000 
0000230e l       .debug_str	00000000 
00002317 l       .debug_str	00000000 
00002338 l       .debug_str	00000000 
0000234b l       .debug_str	00000000 
00002381 l       .debug_str	00000000 
00002404 l       .debug_str	00000000 
0000248f l       .debug_str	00000000 
000024ab l       .debug_str	00000000 
000024f7 l       .debug_str	00000000 
0000254b l       .debug_str	00000000 
00002568 l       .debug_str	00000000 
0000257c l       .debug_str	00000000 
000025c8 l       .debug_str	00000000 
0000261c l       .debug_str	00000000 
00002632 l       .debug_str	00000000 
00002646 l       .debug_str	00000000 
0000268d l       .debug_str	00000000 
000026dc l       .debug_str	00000000 
000026e5 l       .debug_str	00000000 
000026f3 l       .debug_str	00000000 
00002724 l       .debug_str	00000000 
0000272a l       .debug_str	00000000 
00002732 l       .debug_str	00000000 
00002739 l       .debug_str	00000000 
00002741 l       .debug_str	00000000 
0000274c l       .debug_str	00000000 
00002754 l       .debug_str	00000000 
00002763 l       .debug_str	00000000 
00002767 l       .debug_str	00000000 
00002772 l       .debug_str	00000000 
0000277e l       .debug_str	00000000 
00002789 l       .debug_str	00000000 
0000279a l       .debug_str	00000000 
000027a0 l       .debug_str	00000000 
000027a8 l       .debug_str	00000000 
000027af l       .debug_str	00000000 
000027b9 l       .debug_str	00000000 
000027c1 l       .debug_str	00000000 
000027c9 l       .debug_str	00000000 
000027eb l       .debug_str	00000000 
000027f6 l       .debug_str	00000000 
00002802 l       .debug_str	00000000 
0000280a l       .debug_str	00000000 
00002813 l       .debug_str	00000000 
0000281e l       .debug_str	00000000 
00000000 l     O .rodata..Lanon.0aee0ede91a9d9a909c52263b0dc4a52.2	00000010 .Lanon.0aee0ede91a9d9a909c52263b0dc4a52.2
00000000 l     O .rodata..Lanon.0aee0ede91a9d9a909c52263b0dc4a52.4	00000010 .Lanon.0aee0ede91a9d9a909c52263b0dc4a52.4
00000000 l    d  .text._ZN4core6result13unwrap_failed17h98acc4e3c98f3b49E	00000000 .text._ZN4core6result13unwrap_failed17h98acc4e3c98f3b49E
00000000 l    d  .text._ZN4core6result19Result$LT$T$C$E$GT$6expect17h5ec42800e30ed4b0E	00000000 .text._ZN4core6result19Result$LT$T$C$E$GT$6expect17h5ec42800e30ed4b0E
00000000 l    d  .text._ZN4core6result19Result$LT$T$C$E$GT$6expect17hac1fc70db3fae860E	00000000 .text._ZN4core6result19Result$LT$T$C$E$GT$6expect17hac1fc70db3fae860E
00000000 l    d  .text._ZN4core6result19Result$LT$T$C$E$GT$6expect17hb169fb8edd61be39E	00000000 .text._ZN4core6result19Result$LT$T$C$E$GT$6expect17hb169fb8edd61be39E
00000000 l    d  .text._ZN4core6result19Result$LT$T$C$E$GT$7map_err17h032ac2e0199df231E	00000000 .text._ZN4core6result19Result$LT$T$C$E$GT$7map_err17h032ac2e0199df231E
00000000 l    d  .text._ZN4core6result19Result$LT$T$C$E$GT$7map_err17h406b2108bd6b1012E	00000000 .text._ZN4core6result19Result$LT$T$C$E$GT$7map_err17h406b2108bd6b1012E
00000000 l    d  .text._ZN4core6result19Result$LT$T$C$E$GT$7map_err17h560e3986265fa9f2E	00000000 .text._ZN4core6result19Result$LT$T$C$E$GT$7map_err17h560e3986265fa9f2E
00000000 l    d  .text._ZN4core6result19Result$LT$T$C$E$GT$7map_err17hc0cc433b24fb144cE	00000000 .text._ZN4core6result19Result$LT$T$C$E$GT$7map_err17hc0cc433b24fb144cE
00000000 l    d  .text._ZN4core6result19Result$LT$T$C$E$GT$7map_err17hc21ba015cc2d10c1E	00000000 .text._ZN4core6result19Result$LT$T$C$E$GT$7map_err17hc21ba015cc2d10c1E
00000000 l    d  .text._ZN4core6result19Result$LT$T$C$E$GT$7map_err17hce390063c5fd0c06E	00000000 .text._ZN4core6result19Result$LT$T$C$E$GT$7map_err17hce390063c5fd0c06E
00000000 l    d  .text._ZN4core6result19Result$LT$T$C$E$GT$7map_err17he46d8531291434efE	00000000 .text._ZN4core6result19Result$LT$T$C$E$GT$7map_err17he46d8531291434efE
00000000 l    d  .text._ZN73_$LT$core..result..Result$LT$T$C$E$GT$$u20$as$u20$core..ops..try..Try$GT$10from_error17hacebbf7ef421c603E	00000000 .text._ZN73_$LT$core..result..Result$LT$T$C$E$GT$$u20$as$u20$core..ops..try..Try$GT$10from_error17hacebbf7ef421c603E
00000000 l    d  .text._ZN73_$LT$core..result..Result$LT$T$C$E$GT$$u20$as$u20$core..ops..try..Try$GT$10from_error17he489dc00afef2d26E	00000000 .text._ZN73_$LT$core..result..Result$LT$T$C$E$GT$$u20$as$u20$core..ops..try..Try$GT$10from_error17he489dc00afef2d26E
00000000 l    d  .text._ZN73_$LT$core..result..Result$LT$T$C$E$GT$$u20$as$u20$core..ops..try..Try$GT$11into_result17h1833658db2573647E	00000000 .text._ZN73_$LT$core..result..Result$LT$T$C$E$GT$$u20$as$u20$core..ops..try..Try$GT$11into_result17h1833658db2573647E
00000000 l    d  .text._ZN73_$LT$core..result..Result$LT$T$C$E$GT$$u20$as$u20$core..ops..try..Try$GT$11into_result17h6ae772a48cc87a1eE	00000000 .text._ZN73_$LT$core..result..Result$LT$T$C$E$GT$$u20$as$u20$core..ops..try..Try$GT$11into_result17h6ae772a48cc87a1eE
00000000 l    d  .text._ZN73_$LT$core..result..Result$LT$T$C$E$GT$$u20$as$u20$core..ops..try..Try$GT$11into_result17h6b7478485ecb4c3aE	00000000 .text._ZN73_$LT$core..result..Result$LT$T$C$E$GT$$u20$as$u20$core..ops..try..Try$GT$11into_result17h6b7478485ecb4c3aE
00000000 l    d  .text._ZN73_$LT$core..result..Result$LT$T$C$E$GT$$u20$as$u20$core..ops..try..Try$GT$11into_result17hc4a660f1189e64cdE	00000000 .text._ZN73_$LT$core..result..Result$LT$T$C$E$GT$$u20$as$u20$core..ops..try..Try$GT$11into_result17hc4a660f1189e64cdE
00000000 l    d  .text._ZN73_$LT$core..result..Result$LT$T$C$E$GT$$u20$as$u20$core..ops..try..Try$GT$11into_result17hc82509bdbe1fbaadE	00000000 .text._ZN73_$LT$core..result..Result$LT$T$C$E$GT$$u20$as$u20$core..ops..try..Try$GT$11into_result17hc82509bdbe1fbaadE
00000000 l    d  .rodata..Lanon.0aee0ede91a9d9a909c52263b0dc4a52.0	00000000 .rodata..Lanon.0aee0ede91a9d9a909c52263b0dc4a52.0
00000000 l    d  .rodata..Lanon.0aee0ede91a9d9a909c52263b0dc4a52.1	00000000 .rodata..Lanon.0aee0ede91a9d9a909c52263b0dc4a52.1
00000000 l    d  .rodata..Lanon.0aee0ede91a9d9a909c52263b0dc4a52.3	00000000 .rodata..Lanon.0aee0ede91a9d9a909c52263b0dc4a52.3
00000000 l    d  .debug_loc	00000000 .debug_loc
00000000 l    d  .debug_abbrev	00000000 .debug_abbrev
00000000 l    d  .debug_info	00000000 .debug_info
00000000 l    d  .debug_ranges	00000000 .debug_ranges
00000000 l    d  .debug_frame	00000000 .debug_frame
00000000 l    d  .debug_line	00000000 .debug_line
00000000         *UND*	00000000 st7735_lcd::ST7735<SPI,DC,RST>::hard_reset::{{closure}}
00000000         *UND*	00000000 st7735_lcd::ST7735<SPI,DC,RST>::hard_reset::{{closure}}
00000000         *UND*	00000000 st7735_lcd::ST7735<SPI,DC,RST>::hard_reset::{{closure}}
00000000         *UND*	00000000 st7735_lcd::ST7735<SPI,DC,RST>::write_data::{{closure}}
00000000         *UND*	00000000 st7735_lcd::ST7735<SPI,DC,RST>::write_data::{{closure}}
00000000         *UND*	00000000 st7735_lcd::ST7735<SPI,DC,RST>::write_command::{{closure}}
00000000         *UND*	00000000 st7735_lcd::ST7735<SPI,DC,RST>::write_command::{{closure}}
00000000         *UND*	00000000 <&T as core::fmt::Display>::fmt
00000000         *UND*	00000000 .hidden <() as core::fmt::Debug>::fmt
00000000         *UND*	00000000 core::fmt::ArgumentV1::new
00000000         *UND*	00000000 core::fmt::ArgumentV1::new
00000000         *UND*	00000000 .hidden core::fmt::Arguments::new_v1
00000000 g     F .text._ZN4core6result13unwrap_failed17h98acc4e3c98f3b49E	00000084 core::result::unwrap_failed
00000000         *UND*	00000000 core::result::unwrap_failed
00000000 g     F .text._ZN4core6result19Result$LT$T$C$E$GT$6expect17h5ec42800e30ed4b0E	0000005a core::result::Result<T,E>::expect
00000000 g     F .text._ZN4core6result19Result$LT$T$C$E$GT$6expect17hac1fc70db3fae860E	00000050 core::result::Result<T,E>::expect
00000000 g     F .text._ZN4core6result19Result$LT$T$C$E$GT$6expect17hb169fb8edd61be39E	00000052 core::result::Result<T,E>::expect
00000000 g     F .text._ZN4core6result19Result$LT$T$C$E$GT$7map_err17h032ac2e0199df231E	000000ba core::result::Result<T,E>::map_err
00000000 g     F .text._ZN4core6result19Result$LT$T$C$E$GT$7map_err17h406b2108bd6b1012E	000000ba core::result::Result<T,E>::map_err
00000000 g     F .text._ZN4core6result19Result$LT$T$C$E$GT$7map_err17h560e3986265fa9f2E	000000ba core::result::Result<T,E>::map_err
00000000 g     F .text._ZN4core6result19Result$LT$T$C$E$GT$7map_err17hc0cc433b24fb144cE	000000ba core::result::Result<T,E>::map_err
00000000 g     F .text._ZN4core6result19Result$LT$T$C$E$GT$7map_err17hc21ba015cc2d10c1E	000000ba core::result::Result<T,E>::map_err
00000000 g     F .text._ZN4core6result19Result$LT$T$C$E$GT$7map_err17hce390063c5fd0c06E	000000ba core::result::Result<T,E>::map_err
00000000 g     F .text._ZN4core6result19Result$LT$T$C$E$GT$7map_err17he46d8531291434efE	000000ba core::result::Result<T,E>::map_err
00000000         *UND*	00000000 core::panicking::panic_fmt
00000000 g     F .text._ZN73_$LT$core..result..Result$LT$T$C$E$GT$$u20$as$u20$core..ops..try..Try$GT$10from_error17hacebbf7ef421c603E	00000012 <core::result::Result<T,E> as core::ops::try::Try>::from_error
00000000 g     F .text._ZN73_$LT$core..result..Result$LT$T$C$E$GT$$u20$as$u20$core..ops..try..Try$GT$10from_error17he489dc00afef2d26E	00000010 <core::result::Result<T,E> as core::ops::try::Try>::from_error
00000000 g     F .text._ZN73_$LT$core..result..Result$LT$T$C$E$GT$$u20$as$u20$core..ops..try..Try$GT$11into_result17h1833658db2573647E	00000028 <core::result::Result<T,E> as core::ops::try::Try>::into_result
00000000 g     F .text._ZN73_$LT$core..result..Result$LT$T$C$E$GT$$u20$as$u20$core..ops..try..Try$GT$11into_result17h6ae772a48cc87a1eE	00000012 <core::result::Result<T,E> as core::ops::try::Try>::into_result
00000000 g     F .text._ZN73_$LT$core..result..Result$LT$T$C$E$GT$$u20$as$u20$core..ops..try..Try$GT$11into_result17h6b7478485ecb4c3aE	0000001a <core::result::Result<T,E> as core::ops::try::Try>::into_result
00000000 g     F .text._ZN73_$LT$core..result..Result$LT$T$C$E$GT$$u20$as$u20$core..ops..try..Try$GT$11into_result17hc4a660f1189e64cdE	0000000e <core::result::Result<T,E> as core::ops::try::Try>::into_result
00000000 g     F .text._ZN73_$LT$core..result..Result$LT$T$C$E$GT$$u20$as$u20$core..ops..try..Try$GT$11into_result17hc82509bdbe1fbaadE	00000020 <core::result::Result<T,E> as core::ops::try::Try>::into_result



Disassembly of section .text._ZN4core6result13unwrap_failed17h98acc4e3c98f3b49E:

00000000 <core::result::unwrap_failed>:
_ZN4core6result13unwrap_failed17h98acc4e3c98f3b49E():
/rustc/50a0defd5a93523067ef239936cc2e0755220904/src/libcore/result.rs:998
   0:	b098      	sub	sp, #96	; 0x60
   2:	460a      	mov	r2, r1
   4:	4603      	mov	r3, r0
   6:	9007      	str	r0, [sp, #28]
   8:	9108      	str	r1, [sp, #32]
   a:	a807      	add	r0, sp, #28
/rustc/50a0defd5a93523067ef239936cc2e0755220904/src/libcore/result.rs:999
   c:	9014      	str	r0, [sp, #80]	; 0x50
   e:	a809      	add	r0, sp, #36	; 0x24
  10:	9015      	str	r0, [sp, #84]	; 0x54
/Users/Luppy/mynewt/stm32bluepill-mynewt-sensor/rust/app/src/lib.rs:1
/*
  12:	9814      	ldr	r0, [sp, #80]	; 0x50
  14:	9016      	str	r0, [sp, #88]	; 0x58
  16:	9815      	ldr	r0, [sp, #84]	; 0x54
  18:	9017      	str	r0, [sp, #92]	; 0x5c
/rustc/50a0defd5a93523067ef239936cc2e0755220904/src/libcore/result.rs:999
  1a:	9816      	ldr	r0, [sp, #88]	; 0x58
/rustc/50a0defd5a93523067ef239936cc2e0755220904/src/libcore/macros.rs:18
  1c:	f240 0100 	movw	r1, #0
  20:	f2c0 0100 	movt	r1, #0
  24:	9206      	str	r2, [sp, #24]
  26:	9305      	str	r3, [sp, #20]
  28:	f7ff fffe 	bl	0 <core::fmt::ArgumentV1::new>
  2c:	9004      	str	r0, [sp, #16]
  2e:	9103      	str	r1, [sp, #12]
  30:	e7ff      	b.n	32 <core::result::unwrap_failed+0x32>
/rustc/50a0defd5a93523067ef239936cc2e0755220904/src/libcore/result.rs:999
  32:	9817      	ldr	r0, [sp, #92]	; 0x5c
/rustc/50a0defd5a93523067ef239936cc2e0755220904/src/libcore/macros.rs:18
  34:	f240 0100 	movw	r1, #0
  38:	f2c0 0100 	movt	r1, #0
  3c:	f7ff fffe 	bl	0 <core::fmt::ArgumentV1::new>
  40:	9002      	str	r0, [sp, #8]
  42:	9101      	str	r1, [sp, #4]
  44:	e7ff      	b.n	46 <core::result::unwrap_failed+0x46>
/rustc/50a0defd5a93523067ef239936cc2e0755220904/src/libcore/result.rs:999
  46:	9804      	ldr	r0, [sp, #16]
  48:	9010      	str	r0, [sp, #64]	; 0x40
  4a:	9903      	ldr	r1, [sp, #12]
  4c:	9111      	str	r1, [sp, #68]	; 0x44
  4e:	9a02      	ldr	r2, [sp, #8]
  50:	9212      	str	r2, [sp, #72]	; 0x48
  52:	9b01      	ldr	r3, [sp, #4]
  54:	9313      	str	r3, [sp, #76]	; 0x4c
/rustc/50a0defd5a93523067ef239936cc2e0755220904/src/libcore/macros.rs:18
  56:	46ec      	mov	ip, sp
  58:	f04f 0e02 	mov.w	lr, #2
  5c:	f8cc e000 	str.w	lr, [ip]
  60:	f240 0100 	movw	r1, #0
  64:	f2c0 0100 	movt	r1, #0
  68:	a80a      	add	r0, sp, #40	; 0x28
  6a:	ab10      	add	r3, sp, #64	; 0x40
  6c:	4672      	mov	r2, lr
  6e:	f7ff fffe 	bl	0 <core::fmt::Arguments::new_v1>
  72:	e7ff      	b.n	2 <core::result::unwrap_failed+0x2>
  74:	f240 0100 	movw	r1, #0
  78:	f2c0 0100 	movt	r1, #0
  7c:	a80a      	add	r0, sp, #40	; 0x28
  7e:	f7ff fffe 	bl	0 <core::panicking::panic_fmt>
  82:	defe      	udf	#254	; 0xfe

Disassembly of section .text._ZN4core6result19Result$LT$T$C$E$GT$6expect17h5ec42800e30ed4b0E:

00000000 <core::result::Result<T,E>::expect>:
_ZN4core6result19Result$LT$T$C$E$GT$6expect17h5ec42800e30ed4b0E():
/rustc/50a0defd5a93523067ef239936cc2e0755220904/src/libcore/result.rs:824
   0:	b580      	push	{r7, lr}
   2:	b08a      	sub	sp, #40	; 0x28
   4:	4613      	mov	r3, r2
   6:	468c      	mov	ip, r1
   8:	4686      	mov	lr, r0
   a:	9106      	str	r1, [sp, #24]
   c:	9207      	str	r2, [sp, #28]
/rustc/50a0defd5a93523067ef239936cc2e0755220904/src/libcore/result.rs:826
   e:	6800      	ldr	r0, [r0, #0]
  10:	2800      	cmp	r0, #0
  12:	9305      	str	r3, [sp, #20]
  14:	f8cd c010 	str.w	ip, [sp, #16]
  18:	f8cd e00c 	str.w	lr, [sp, #12]
  1c:	9002      	str	r0, [sp, #8]
  1e:	d005      	beq.n	2c <core::result::Result<T,E>::expect+0x2c>
  20:	e7ff      	b.n	22 <core::result::Result<T,E>::expect+0x22>
  22:	9802      	ldr	r0, [sp, #8]
  24:	2801      	cmp	r0, #1
  26:	d00b      	beq.n	40 <core::result::Result<T,E>::expect+0x40>
  28:	e7ff      	b.n	2a <core::result::Result<T,E>::expect+0x2a>
/rustc/50a0defd5a93523067ef239936cc2e0755220904/src/libcore/result.rs:829
  2a:	defe      	udf	#254	; 0xfe
/rustc/50a0defd5a93523067ef239936cc2e0755220904/src/libcore/result.rs:826
  2c:	9803      	ldr	r0, [sp, #12]
  2e:	6841      	ldr	r1, [r0, #4]
  30:	9108      	str	r1, [sp, #32]
  32:	9808      	ldr	r0, [sp, #32]
/rustc/50a0defd5a93523067ef239936cc2e0755220904/src/libcore/result.rs:829
  34:	9903      	ldr	r1, [sp, #12]
  36:	680a      	ldr	r2, [r1, #0]
  38:	2a00      	cmp	r2, #0
  3a:	9001      	str	r0, [sp, #4]
  3c:	d009      	beq.n	52 <core::result::Result<T,E>::expect+0x52>
  3e:	e00b      	b.n	58 <core::result::Result<T,E>::expect+0x58>
/rustc/50a0defd5a93523067ef239936cc2e0755220904/src/libcore/result.rs:827
  40:	9803      	ldr	r0, [sp, #12]
  42:	6841      	ldr	r1, [r0, #4]
  44:	9109      	str	r1, [sp, #36]	; 0x24
  46:	9806      	ldr	r0, [sp, #24]
  48:	9907      	ldr	r1, [sp, #28]
  4a:	9a09      	ldr	r2, [sp, #36]	; 0x24
  4c:	f7ff fffe 	bl	0 <core::result::unwrap_failed>
  50:	defe      	udf	#254	; 0xfe
/rustc/50a0defd5a93523067ef239936cc2e0755220904/src/libcore/result.rs:829
  52:	9801      	ldr	r0, [sp, #4]
  54:	b00a      	add	sp, #40	; 0x28
  56:	bd80      	pop	{r7, pc}
  58:	e7fb      	b.n	52 <core::result::Result<T,E>::expect+0x52>

Disassembly of section .text._ZN4core6result19Result$LT$T$C$E$GT$6expect17hac1fc70db3fae860E:

00000000 <core::result::Result<T,E>::expect>:
_ZN4core6result19Result$LT$T$C$E$GT$6expect17hac1fc70db3fae860E():
/rustc/50a0defd5a93523067ef239936cc2e0755220904/src/libcore/result.rs:824
   0:	b580      	push	{r7, lr}
   2:	b08a      	sub	sp, #40	; 0x28
   4:	4613      	mov	r3, r2
   6:	468c      	mov	ip, r1
   8:	4686      	mov	lr, r0
   a:	f88d 0017 	strb.w	r0, [sp, #23]
   e:	9106      	str	r1, [sp, #24]
  10:	9207      	str	r2, [sp, #28]
/rustc/50a0defd5a93523067ef239936cc2e0755220904/src/libcore/result.rs:826
  12:	f89d 0017 	ldrb.w	r0, [sp, #23]
  16:	07c1      	lsls	r1, r0, #31
  18:	2900      	cmp	r1, #0
  1a:	9304      	str	r3, [sp, #16]
  1c:	f8cd c00c 	str.w	ip, [sp, #12]
  20:	f8cd e008 	str.w	lr, [sp, #8]
  24:	9001      	str	r0, [sp, #4]
  26:	d005      	beq.n	34 <core::result::Result<T,E>::expect+0x34>
  28:	e7ff      	b.n	2a <core::result::Result<T,E>::expect+0x2a>
  2a:	9801      	ldr	r0, [sp, #4]
  2c:	2801      	cmp	r0, #1
  2e:	d007      	beq.n	40 <core::result::Result<T,E>::expect+0x40>
  30:	e7ff      	b.n	32 <core::result::Result<T,E>::expect+0x32>
/rustc/50a0defd5a93523067ef239936cc2e0755220904/src/libcore/result.rs:829
  32:	defe      	udf	#254	; 0xfe
  34:	f89d 0017 	ldrb.w	r0, [sp, #23]
  38:	07c0      	lsls	r0, r0, #31
  3a:	2800      	cmp	r0, #0
  3c:	d005      	beq.n	4a <core::result::Result<T,E>::expect+0x4a>
  3e:	e006      	b.n	4e <core::result::Result<T,E>::expect+0x4e>
/rustc/50a0defd5a93523067ef239936cc2e0755220904/src/libcore/result.rs:827
  40:	9806      	ldr	r0, [sp, #24]
  42:	9907      	ldr	r1, [sp, #28]
  44:	f7ff fffe 	bl	0 <core::result::Result<T,E>::expect>
  48:	defe      	udf	#254	; 0xfe
/rustc/50a0defd5a93523067ef239936cc2e0755220904/src/libcore/result.rs:829
  4a:	b00a      	add	sp, #40	; 0x28
  4c:	bd80      	pop	{r7, pc}
  4e:	e7fc      	b.n	4a <core::result::Result<T,E>::expect+0x4a>

Disassembly of section .text._ZN4core6result19Result$LT$T$C$E$GT$6expect17hb169fb8edd61be39E:

00000000 <core::result::Result<T,E>::expect>:
_ZN4core6result19Result$LT$T$C$E$GT$6expect17hb169fb8edd61be39E():
/rustc/50a0defd5a93523067ef239936cc2e0755220904/src/libcore/result.rs:824
   0:	b580      	push	{r7, lr}
   2:	b08a      	sub	sp, #40	; 0x28
   4:	4613      	mov	r3, r2
   6:	468c      	mov	ip, r1
   8:	4686      	mov	lr, r0
   a:	9005      	str	r0, [sp, #20]
   c:	9106      	str	r1, [sp, #24]
   e:	9207      	str	r2, [sp, #28]
/rustc/50a0defd5a93523067ef239936cc2e0755220904/src/libcore/result.rs:826
  10:	9805      	ldr	r0, [sp, #20]
  12:	1e41      	subs	r1, r0, #1
  14:	bf18      	it	ne
  16:	2101      	movne	r1, #1
  18:	2801      	cmp	r0, #1
  1a:	9304      	str	r3, [sp, #16]
  1c:	f8cd c00c 	str.w	ip, [sp, #12]
  20:	f8cd e008 	str.w	lr, [sp, #8]
  24:	9101      	str	r1, [sp, #4]
  26:	d005      	beq.n	34 <core::result::Result<T,E>::expect+0x34>
  28:	e7ff      	b.n	2a <core::result::Result<T,E>::expect+0x2a>
  2a:	9801      	ldr	r0, [sp, #4]
  2c:	2801      	cmp	r0, #1
  2e:	d005      	beq.n	3c <core::result::Result<T,E>::expect+0x3c>
  30:	e7ff      	b.n	32 <core::result::Result<T,E>::expect+0x32>
/rustc/50a0defd5a93523067ef239936cc2e0755220904/src/libcore/result.rs:829
  32:	defe      	udf	#254	; 0xfe
  34:	9805      	ldr	r0, [sp, #20]
  36:	2801      	cmp	r0, #1
  38:	d008      	beq.n	4c <core::result::Result<T,E>::expect+0x4c>
  3a:	e009      	b.n	50 <core::result::Result<T,E>::expect+0x50>
/rustc/50a0defd5a93523067ef239936cc2e0755220904/src/libcore/result.rs:827
  3c:	9805      	ldr	r0, [sp, #20]
  3e:	9009      	str	r0, [sp, #36]	; 0x24
  40:	9806      	ldr	r0, [sp, #24]
  42:	9907      	ldr	r1, [sp, #28]
  44:	9a09      	ldr	r2, [sp, #36]	; 0x24
  46:	f7ff fffe 	bl	0 <core::result::unwrap_failed>
  4a:	defe      	udf	#254	; 0xfe
/rustc/50a0defd5a93523067ef239936cc2e0755220904/src/libcore/result.rs:829
  4c:	b00a      	add	sp, #40	; 0x28
  4e:	bd80      	pop	{r7, pc}
  50:	e7fc      	b.n	4c <core::result::Result<T,E>::expect+0x4c>

Disassembly of section .text._ZN4core6result19Result$LT$T$C$E$GT$7map_err17h032ac2e0199df231E:

00000000 <core::result::Result<T,E>::map_err>:
_ZN4core6result19Result$LT$T$C$E$GT$7map_err17h032ac2e0199df231E():
/rustc/50a0defd5a93523067ef239936cc2e0755220904/src/libcore/result.rs:519
   0:	b580      	push	{r7, lr}
   2:	b088      	sub	sp, #32
   4:	4601      	mov	r1, r0
   6:	9002      	str	r0, [sp, #8]
   8:	2000      	movs	r0, #0
/rustc/50a0defd5a93523067ef239936cc2e0755220904/src/libcore/result.rs:521
   a:	f88d 001f 	strb.w	r0, [sp, #31]
   e:	f88d 001d 	strb.w	r0, [sp, #29]
  12:	f88d 001e 	strb.w	r0, [sp, #30]
  16:	2001      	movs	r0, #1
  18:	f88d 001e 	strb.w	r0, [sp, #30]
  1c:	f88d 001f 	strb.w	r0, [sp, #31]
  20:	f88d 001d 	strb.w	r0, [sp, #29]
  24:	9802      	ldr	r0, [sp, #8]
  26:	1e42      	subs	r2, r0, #1
  28:	bf18      	it	ne
  2a:	2201      	movne	r2, #1
  2c:	2801      	cmp	r0, #1
  2e:	9101      	str	r1, [sp, #4]
  30:	9200      	str	r2, [sp, #0]
  32:	d005      	beq.n	40 <core::result::Result<T,E>::map_err+0x40>
  34:	e7ff      	b.n	36 <core::result::Result<T,E>::map_err+0x36>
  36:	9800      	ldr	r0, [sp, #0]
  38:	2801      	cmp	r0, #1
  3a:	d007      	beq.n	4c <core::result::Result<T,E>::map_err+0x4c>
  3c:	e7ff      	b.n	3e <core::result::Result<T,E>::map_err+0x3e>
/rustc/50a0defd5a93523067ef239936cc2e0755220904/src/libcore/result.rs:524
  3e:	defe      	udf	#254	; 0xfe
  40:	2000      	movs	r0, #0
/rustc/50a0defd5a93523067ef239936cc2e0755220904/src/libcore/result.rs:521
  42:	f88d 001f 	strb.w	r0, [sp, #31]
  46:	f88d 000f 	strb.w	r0, [sp, #15]
/rustc/50a0defd5a93523067ef239936cc2e0755220904/src/libcore/result.rs:520
  4a:	e010      	b.n	6e <core::result::Result<T,E>::map_err+0x6e>
  4c:	2000      	movs	r0, #0
/rustc/50a0defd5a93523067ef239936cc2e0755220904/src/libcore/result.rs:522
  4e:	f88d 001e 	strb.w	r0, [sp, #30]
  52:	9902      	ldr	r1, [sp, #8]
  54:	9105      	str	r1, [sp, #20]
  56:	f88d 001d 	strb.w	r0, [sp, #29]
  5a:	9805      	ldr	r0, [sp, #20]
  5c:	9006      	str	r0, [sp, #24]
  5e:	9806      	ldr	r0, [sp, #24]
  60:	f7ff fffe 	bl	0 <st7735_lcd::ST7735<SPI,DC,RST>::write_data::{{closure}}>
  64:	e7ff      	b.n	66 <core::result::Result<T,E>::map_err+0x66>
  66:	2001      	movs	r0, #1
  68:	f88d 000f 	strb.w	r0, [sp, #15]
/rustc/50a0defd5a93523067ef239936cc2e0755220904/src/libcore/result.rs:520
  6c:	e7ff      	b.n	6e <core::result::Result<T,E>::map_err+0x6e>
/rustc/50a0defd5a93523067ef239936cc2e0755220904/src/libcore/result.rs:524
  6e:	f89d 001d 	ldrb.w	r0, [sp, #29]
  72:	07c0      	lsls	r0, r0, #31
  74:	2800      	cmp	r0, #0
  76:	d104      	bne.n	82 <core::result::Result<T,E>::map_err+0x82>
  78:	e7ff      	b.n	7a <core::result::Result<T,E>::map_err+0x7a>
  7a:	9802      	ldr	r0, [sp, #8]
  7c:	2801      	cmp	r0, #1
  7e:	d008      	beq.n	92 <core::result::Result<T,E>::map_err+0x92>
  80:	e011      	b.n	a6 <core::result::Result<T,E>::map_err+0xa6>
  82:	2000      	movs	r0, #0
  84:	f88d 001d 	strb.w	r0, [sp, #29]
  88:	e7f7      	b.n	7a <core::result::Result<T,E>::map_err+0x7a>
  8a:	f89d 000f 	ldrb.w	r0, [sp, #15]
  8e:	b008      	add	sp, #32
  90:	bd80      	pop	{r7, pc}
  92:	f89d 001f 	ldrb.w	r0, [sp, #31]
  96:	07c0      	lsls	r0, r0, #31
  98:	2800      	cmp	r0, #0
  9a:	d0f6      	beq.n	8a <core::result::Result<T,E>::map_err+0x8a>
  9c:	e7ff      	b.n	9e <core::result::Result<T,E>::map_err+0x9e>
  9e:	2000      	movs	r0, #0
  a0:	f88d 001f 	strb.w	r0, [sp, #31]
  a4:	e7f1      	b.n	8a <core::result::Result<T,E>::map_err+0x8a>
  a6:	f89d 001e 	ldrb.w	r0, [sp, #30]
  aa:	07c0      	lsls	r0, r0, #31
  ac:	2800      	cmp	r0, #0
  ae:	d0ec      	beq.n	8a <core::result::Result<T,E>::map_err+0x8a>
  b0:	e7ff      	b.n	b2 <core::result::Result<T,E>::map_err+0xb2>
  b2:	2000      	movs	r0, #0
  b4:	f88d 001e 	strb.w	r0, [sp, #30]
  b8:	e7e7      	b.n	8a <core::result::Result<T,E>::map_err+0x8a>

Disassembly of section .text._ZN4core6result19Result$LT$T$C$E$GT$7map_err17h406b2108bd6b1012E:

00000000 <core::result::Result<T,E>::map_err>:
_ZN4core6result19Result$LT$T$C$E$GT$7map_err17h406b2108bd6b1012E():
/rustc/50a0defd5a93523067ef239936cc2e0755220904/src/libcore/result.rs:519
   0:	b580      	push	{r7, lr}
   2:	b088      	sub	sp, #32
   4:	4601      	mov	r1, r0
   6:	9002      	str	r0, [sp, #8]
   8:	2000      	movs	r0, #0
/rustc/50a0defd5a93523067ef239936cc2e0755220904/src/libcore/result.rs:521
   a:	f88d 001f 	strb.w	r0, [sp, #31]
   e:	f88d 001d 	strb.w	r0, [sp, #29]
  12:	f88d 001e 	strb.w	r0, [sp, #30]
  16:	2001      	movs	r0, #1
  18:	f88d 001e 	strb.w	r0, [sp, #30]
  1c:	f88d 001f 	strb.w	r0, [sp, #31]
  20:	f88d 001d 	strb.w	r0, [sp, #29]
  24:	9802      	ldr	r0, [sp, #8]
  26:	1e42      	subs	r2, r0, #1
  28:	bf18      	it	ne
  2a:	2201      	movne	r2, #1
  2c:	2801      	cmp	r0, #1
  2e:	9101      	str	r1, [sp, #4]
  30:	9200      	str	r2, [sp, #0]
  32:	d005      	beq.n	40 <core::result::Result<T,E>::map_err+0x40>
  34:	e7ff      	b.n	36 <core::result::Result<T,E>::map_err+0x36>
  36:	9800      	ldr	r0, [sp, #0]
  38:	2801      	cmp	r0, #1
  3a:	d007      	beq.n	4c <core::result::Result<T,E>::map_err+0x4c>
  3c:	e7ff      	b.n	3e <core::result::Result<T,E>::map_err+0x3e>
/rustc/50a0defd5a93523067ef239936cc2e0755220904/src/libcore/result.rs:524
  3e:	defe      	udf	#254	; 0xfe
  40:	2000      	movs	r0, #0
/rustc/50a0defd5a93523067ef239936cc2e0755220904/src/libcore/result.rs:521
  42:	f88d 001f 	strb.w	r0, [sp, #31]
  46:	f88d 000f 	strb.w	r0, [sp, #15]
/rustc/50a0defd5a93523067ef239936cc2e0755220904/src/libcore/result.rs:520
  4a:	e010      	b.n	6e <core::result::Result<T,E>::map_err+0x6e>
  4c:	2000      	movs	r0, #0
/rustc/50a0defd5a93523067ef239936cc2e0755220904/src/libcore/result.rs:522
  4e:	f88d 001e 	strb.w	r0, [sp, #30]
  52:	9902      	ldr	r1, [sp, #8]
  54:	9105      	str	r1, [sp, #20]
  56:	f88d 001d 	strb.w	r0, [sp, #29]
  5a:	9805      	ldr	r0, [sp, #20]
  5c:	9006      	str	r0, [sp, #24]
  5e:	9806      	ldr	r0, [sp, #24]
  60:	f7ff fffe 	bl	0 <st7735_lcd::ST7735<SPI,DC,RST>::write_command::{{closure}}>
  64:	e7ff      	b.n	66 <core::result::Result<T,E>::map_err+0x66>
  66:	2001      	movs	r0, #1
  68:	f88d 000f 	strb.w	r0, [sp, #15]
/rustc/50a0defd5a93523067ef239936cc2e0755220904/src/libcore/result.rs:520
  6c:	e7ff      	b.n	6e <core::result::Result<T,E>::map_err+0x6e>
/rustc/50a0defd5a93523067ef239936cc2e0755220904/src/libcore/result.rs:524
  6e:	f89d 001d 	ldrb.w	r0, [sp, #29]
  72:	07c0      	lsls	r0, r0, #31
  74:	2800      	cmp	r0, #0
  76:	d104      	bne.n	82 <core::result::Result<T,E>::map_err+0x82>
  78:	e7ff      	b.n	7a <core::result::Result<T,E>::map_err+0x7a>
  7a:	9802      	ldr	r0, [sp, #8]
  7c:	2801      	cmp	r0, #1
  7e:	d008      	beq.n	92 <core::result::Result<T,E>::map_err+0x92>
  80:	e011      	b.n	a6 <core::result::Result<T,E>::map_err+0xa6>
  82:	2000      	movs	r0, #0
  84:	f88d 001d 	strb.w	r0, [sp, #29]
  88:	e7f7      	b.n	7a <core::result::Result<T,E>::map_err+0x7a>
  8a:	f89d 000f 	ldrb.w	r0, [sp, #15]
  8e:	b008      	add	sp, #32
  90:	bd80      	pop	{r7, pc}
  92:	f89d 001f 	ldrb.w	r0, [sp, #31]
  96:	07c0      	lsls	r0, r0, #31
  98:	2800      	cmp	r0, #0
  9a:	d0f6      	beq.n	8a <core::result::Result<T,E>::map_err+0x8a>
  9c:	e7ff      	b.n	9e <core::result::Result<T,E>::map_err+0x9e>
  9e:	2000      	movs	r0, #0
  a0:	f88d 001f 	strb.w	r0, [sp, #31]
  a4:	e7f1      	b.n	8a <core::result::Result<T,E>::map_err+0x8a>
  a6:	f89d 001e 	ldrb.w	r0, [sp, #30]
  aa:	07c0      	lsls	r0, r0, #31
  ac:	2800      	cmp	r0, #0
  ae:	d0ec      	beq.n	8a <core::result::Result<T,E>::map_err+0x8a>
  b0:	e7ff      	b.n	b2 <core::result::Result<T,E>::map_err+0xb2>
  b2:	2000      	movs	r0, #0
  b4:	f88d 001e 	strb.w	r0, [sp, #30]
  b8:	e7e7      	b.n	8a <core::result::Result<T,E>::map_err+0x8a>

Disassembly of section .text._ZN4core6result19Result$LT$T$C$E$GT$7map_err17h560e3986265fa9f2E:

00000000 <core::result::Result<T,E>::map_err>:
_ZN4core6result19Result$LT$T$C$E$GT$7map_err17h560e3986265fa9f2E():
/rustc/50a0defd5a93523067ef239936cc2e0755220904/src/libcore/result.rs:519
   0:	b580      	push	{r7, lr}
   2:	b088      	sub	sp, #32
   4:	4601      	mov	r1, r0
   6:	9002      	str	r0, [sp, #8]
   8:	2000      	movs	r0, #0
/rustc/50a0defd5a93523067ef239936cc2e0755220904/src/libcore/result.rs:521
   a:	f88d 001f 	strb.w	r0, [sp, #31]
   e:	f88d 001d 	strb.w	r0, [sp, #29]
  12:	f88d 001e 	strb.w	r0, [sp, #30]
  16:	2001      	movs	r0, #1
  18:	f88d 001e 	strb.w	r0, [sp, #30]
  1c:	f88d 001f 	strb.w	r0, [sp, #31]
  20:	f88d 001d 	strb.w	r0, [sp, #29]
  24:	9802      	ldr	r0, [sp, #8]
  26:	1e42      	subs	r2, r0, #1
  28:	bf18      	it	ne
  2a:	2201      	movne	r2, #1
  2c:	2801      	cmp	r0, #1
  2e:	9101      	str	r1, [sp, #4]
  30:	9200      	str	r2, [sp, #0]
  32:	d005      	beq.n	40 <core::result::Result<T,E>::map_err+0x40>
  34:	e7ff      	b.n	36 <core::result::Result<T,E>::map_err+0x36>
  36:	9800      	ldr	r0, [sp, #0]
  38:	2801      	cmp	r0, #1
  3a:	d007      	beq.n	4c <core::result::Result<T,E>::map_err+0x4c>
  3c:	e7ff      	b.n	3e <core::result::Result<T,E>::map_err+0x3e>
/rustc/50a0defd5a93523067ef239936cc2e0755220904/src/libcore/result.rs:524
  3e:	defe      	udf	#254	; 0xfe
  40:	2000      	movs	r0, #0
/rustc/50a0defd5a93523067ef239936cc2e0755220904/src/libcore/result.rs:521
  42:	f88d 001f 	strb.w	r0, [sp, #31]
  46:	f88d 000f 	strb.w	r0, [sp, #15]
/rustc/50a0defd5a93523067ef239936cc2e0755220904/src/libcore/result.rs:520
  4a:	e010      	b.n	6e <core::result::Result<T,E>::map_err+0x6e>
  4c:	2000      	movs	r0, #0
/rustc/50a0defd5a93523067ef239936cc2e0755220904/src/libcore/result.rs:522
  4e:	f88d 001e 	strb.w	r0, [sp, #30]
  52:	9902      	ldr	r1, [sp, #8]
  54:	9105      	str	r1, [sp, #20]
  56:	f88d 001d 	strb.w	r0, [sp, #29]
  5a:	9805      	ldr	r0, [sp, #20]
  5c:	9006      	str	r0, [sp, #24]
  5e:	9806      	ldr	r0, [sp, #24]
  60:	f7ff fffe 	bl	0 <st7735_lcd::ST7735<SPI,DC,RST>::hard_reset::{{closure}}>
  64:	e7ff      	b.n	66 <core::result::Result<T,E>::map_err+0x66>
  66:	2001      	movs	r0, #1
  68:	f88d 000f 	strb.w	r0, [sp, #15]
/rustc/50a0defd5a93523067ef239936cc2e0755220904/src/libcore/result.rs:520
  6c:	e7ff      	b.n	6e <core::result::Result<T,E>::map_err+0x6e>
/rustc/50a0defd5a93523067ef239936cc2e0755220904/src/libcore/result.rs:524
  6e:	f89d 001d 	ldrb.w	r0, [sp, #29]
  72:	07c0      	lsls	r0, r0, #31
  74:	2800      	cmp	r0, #0
  76:	d104      	bne.n	82 <core::result::Result<T,E>::map_err+0x82>
  78:	e7ff      	b.n	7a <core::result::Result<T,E>::map_err+0x7a>
  7a:	9802      	ldr	r0, [sp, #8]
  7c:	2801      	cmp	r0, #1
  7e:	d008      	beq.n	92 <core::result::Result<T,E>::map_err+0x92>
  80:	e011      	b.n	a6 <core::result::Result<T,E>::map_err+0xa6>
  82:	2000      	movs	r0, #0
  84:	f88d 001d 	strb.w	r0, [sp, #29]
  88:	e7f7      	b.n	7a <core::result::Result<T,E>::map_err+0x7a>
  8a:	f89d 000f 	ldrb.w	r0, [sp, #15]
  8e:	b008      	add	sp, #32
  90:	bd80      	pop	{r7, pc}
  92:	f89d 001f 	ldrb.w	r0, [sp, #31]
  96:	07c0      	lsls	r0, r0, #31
  98:	2800      	cmp	r0, #0
  9a:	d0f6      	beq.n	8a <core::result::Result<T,E>::map_err+0x8a>
  9c:	e7ff      	b.n	9e <core::result::Result<T,E>::map_err+0x9e>
  9e:	2000      	movs	r0, #0
  a0:	f88d 001f 	strb.w	r0, [sp, #31]
  a4:	e7f1      	b.n	8a <core::result::Result<T,E>::map_err+0x8a>
  a6:	f89d 001e 	ldrb.w	r0, [sp, #30]
  aa:	07c0      	lsls	r0, r0, #31
  ac:	2800      	cmp	r0, #0
  ae:	d0ec      	beq.n	8a <core::result::Result<T,E>::map_err+0x8a>
  b0:	e7ff      	b.n	b2 <core::result::Result<T,E>::map_err+0xb2>
  b2:	2000      	movs	r0, #0
  b4:	f88d 001e 	strb.w	r0, [sp, #30]
  b8:	e7e7      	b.n	8a <core::result::Result<T,E>::map_err+0x8a>

Disassembly of section .text._ZN4core6result19Result$LT$T$C$E$GT$7map_err17hc0cc433b24fb144cE:

00000000 <core::result::Result<T,E>::map_err>:
_ZN4core6result19Result$LT$T$C$E$GT$7map_err17hc0cc433b24fb144cE():
/rustc/50a0defd5a93523067ef239936cc2e0755220904/src/libcore/result.rs:519
   0:	b580      	push	{r7, lr}
   2:	b088      	sub	sp, #32
   4:	4601      	mov	r1, r0
   6:	9002      	str	r0, [sp, #8]
   8:	2000      	movs	r0, #0
/rustc/50a0defd5a93523067ef239936cc2e0755220904/src/libcore/result.rs:521
   a:	f88d 001f 	strb.w	r0, [sp, #31]
   e:	f88d 001d 	strb.w	r0, [sp, #29]
  12:	f88d 001e 	strb.w	r0, [sp, #30]
  16:	2001      	movs	r0, #1
  18:	f88d 001e 	strb.w	r0, [sp, #30]
  1c:	f88d 001f 	strb.w	r0, [sp, #31]
  20:	f88d 001d 	strb.w	r0, [sp, #29]
  24:	9802      	ldr	r0, [sp, #8]
  26:	1e42      	subs	r2, r0, #1
  28:	bf18      	it	ne
  2a:	2201      	movne	r2, #1
  2c:	2801      	cmp	r0, #1
  2e:	9101      	str	r1, [sp, #4]
  30:	9200      	str	r2, [sp, #0]
  32:	d005      	beq.n	40 <core::result::Result<T,E>::map_err+0x40>
  34:	e7ff      	b.n	36 <core::result::Result<T,E>::map_err+0x36>
  36:	9800      	ldr	r0, [sp, #0]
  38:	2801      	cmp	r0, #1
  3a:	d007      	beq.n	4c <core::result::Result<T,E>::map_err+0x4c>
  3c:	e7ff      	b.n	3e <core::result::Result<T,E>::map_err+0x3e>
/rustc/50a0defd5a93523067ef239936cc2e0755220904/src/libcore/result.rs:524
  3e:	defe      	udf	#254	; 0xfe
  40:	2000      	movs	r0, #0
/rustc/50a0defd5a93523067ef239936cc2e0755220904/src/libcore/result.rs:521
  42:	f88d 001f 	strb.w	r0, [sp, #31]
  46:	f88d 000f 	strb.w	r0, [sp, #15]
/rustc/50a0defd5a93523067ef239936cc2e0755220904/src/libcore/result.rs:520
  4a:	e010      	b.n	6e <core::result::Result<T,E>::map_err+0x6e>
  4c:	2000      	movs	r0, #0
/rustc/50a0defd5a93523067ef239936cc2e0755220904/src/libcore/result.rs:522
  4e:	f88d 001e 	strb.w	r0, [sp, #30]
  52:	9902      	ldr	r1, [sp, #8]
  54:	9105      	str	r1, [sp, #20]
  56:	f88d 001d 	strb.w	r0, [sp, #29]
  5a:	9805      	ldr	r0, [sp, #20]
  5c:	9006      	str	r0, [sp, #24]
  5e:	9806      	ldr	r0, [sp, #24]
  60:	f7ff fffe 	bl	0 <st7735_lcd::ST7735<SPI,DC,RST>::write_data::{{closure}}>
  64:	e7ff      	b.n	66 <core::result::Result<T,E>::map_err+0x66>
  66:	2001      	movs	r0, #1
  68:	f88d 000f 	strb.w	r0, [sp, #15]
/rustc/50a0defd5a93523067ef239936cc2e0755220904/src/libcore/result.rs:520
  6c:	e7ff      	b.n	6e <core::result::Result<T,E>::map_err+0x6e>
/rustc/50a0defd5a93523067ef239936cc2e0755220904/src/libcore/result.rs:524
  6e:	f89d 001d 	ldrb.w	r0, [sp, #29]
  72:	07c0      	lsls	r0, r0, #31
  74:	2800      	cmp	r0, #0
  76:	d104      	bne.n	82 <core::result::Result<T,E>::map_err+0x82>
  78:	e7ff      	b.n	7a <core::result::Result<T,E>::map_err+0x7a>
  7a:	9802      	ldr	r0, [sp, #8]
  7c:	2801      	cmp	r0, #1
  7e:	d008      	beq.n	92 <core::result::Result<T,E>::map_err+0x92>
  80:	e011      	b.n	a6 <core::result::Result<T,E>::map_err+0xa6>
  82:	2000      	movs	r0, #0
  84:	f88d 001d 	strb.w	r0, [sp, #29]
  88:	e7f7      	b.n	7a <core::result::Result<T,E>::map_err+0x7a>
  8a:	f89d 000f 	ldrb.w	r0, [sp, #15]
  8e:	b008      	add	sp, #32
  90:	bd80      	pop	{r7, pc}
  92:	f89d 001f 	ldrb.w	r0, [sp, #31]
  96:	07c0      	lsls	r0, r0, #31
  98:	2800      	cmp	r0, #0
  9a:	d0f6      	beq.n	8a <core::result::Result<T,E>::map_err+0x8a>
  9c:	e7ff      	b.n	9e <core::result::Result<T,E>::map_err+0x9e>
  9e:	2000      	movs	r0, #0
  a0:	f88d 001f 	strb.w	r0, [sp, #31]
  a4:	e7f1      	b.n	8a <core::result::Result<T,E>::map_err+0x8a>
  a6:	f89d 001e 	ldrb.w	r0, [sp, #30]
  aa:	07c0      	lsls	r0, r0, #31
  ac:	2800      	cmp	r0, #0
  ae:	d0ec      	beq.n	8a <core::result::Result<T,E>::map_err+0x8a>
  b0:	e7ff      	b.n	b2 <core::result::Result<T,E>::map_err+0xb2>
  b2:	2000      	movs	r0, #0
  b4:	f88d 001e 	strb.w	r0, [sp, #30]
  b8:	e7e7      	b.n	8a <core::result::Result<T,E>::map_err+0x8a>

Disassembly of section .text._ZN4core6result19Result$LT$T$C$E$GT$7map_err17hc21ba015cc2d10c1E:

00000000 <core::result::Result<T,E>::map_err>:
_ZN4core6result19Result$LT$T$C$E$GT$7map_err17hc21ba015cc2d10c1E():
/rustc/50a0defd5a93523067ef239936cc2e0755220904/src/libcore/result.rs:519
   0:	b580      	push	{r7, lr}
   2:	b088      	sub	sp, #32
   4:	4601      	mov	r1, r0
   6:	9002      	str	r0, [sp, #8]
   8:	2000      	movs	r0, #0
/rustc/50a0defd5a93523067ef239936cc2e0755220904/src/libcore/result.rs:521
   a:	f88d 001f 	strb.w	r0, [sp, #31]
   e:	f88d 001d 	strb.w	r0, [sp, #29]
  12:	f88d 001e 	strb.w	r0, [sp, #30]
  16:	2001      	movs	r0, #1
  18:	f88d 001e 	strb.w	r0, [sp, #30]
  1c:	f88d 001f 	strb.w	r0, [sp, #31]
  20:	f88d 001d 	strb.w	r0, [sp, #29]
  24:	9802      	ldr	r0, [sp, #8]
  26:	1e42      	subs	r2, r0, #1
  28:	bf18      	it	ne
  2a:	2201      	movne	r2, #1
  2c:	2801      	cmp	r0, #1
  2e:	9101      	str	r1, [sp, #4]
  30:	9200      	str	r2, [sp, #0]
  32:	d005      	beq.n	40 <core::result::Result<T,E>::map_err+0x40>
  34:	e7ff      	b.n	36 <core::result::Result<T,E>::map_err+0x36>
  36:	9800      	ldr	r0, [sp, #0]
  38:	2801      	cmp	r0, #1
  3a:	d007      	beq.n	4c <core::result::Result<T,E>::map_err+0x4c>
  3c:	e7ff      	b.n	3e <core::result::Result<T,E>::map_err+0x3e>
/rustc/50a0defd5a93523067ef239936cc2e0755220904/src/libcore/result.rs:524
  3e:	defe      	udf	#254	; 0xfe
  40:	2000      	movs	r0, #0
/rustc/50a0defd5a93523067ef239936cc2e0755220904/src/libcore/result.rs:521
  42:	f88d 001f 	strb.w	r0, [sp, #31]
  46:	f88d 000f 	strb.w	r0, [sp, #15]
/rustc/50a0defd5a93523067ef239936cc2e0755220904/src/libcore/result.rs:520
  4a:	e010      	b.n	6e <core::result::Result<T,E>::map_err+0x6e>
  4c:	2000      	movs	r0, #0
/rustc/50a0defd5a93523067ef239936cc2e0755220904/src/libcore/result.rs:522
  4e:	f88d 001e 	strb.w	r0, [sp, #30]
  52:	9902      	ldr	r1, [sp, #8]
  54:	9105      	str	r1, [sp, #20]
  56:	f88d 001d 	strb.w	r0, [sp, #29]
  5a:	9805      	ldr	r0, [sp, #20]
  5c:	9006      	str	r0, [sp, #24]
  5e:	9806      	ldr	r0, [sp, #24]
  60:	f7ff fffe 	bl	0 <st7735_lcd::ST7735<SPI,DC,RST>::hard_reset::{{closure}}>
  64:	e7ff      	b.n	66 <core::result::Result<T,E>::map_err+0x66>
  66:	2001      	movs	r0, #1
  68:	f88d 000f 	strb.w	r0, [sp, #15]
/rustc/50a0defd5a93523067ef239936cc2e0755220904/src/libcore/result.rs:520
  6c:	e7ff      	b.n	6e <core::result::Result<T,E>::map_err+0x6e>
/rustc/50a0defd5a93523067ef239936cc2e0755220904/src/libcore/result.rs:524
  6e:	f89d 001d 	ldrb.w	r0, [sp, #29]
  72:	07c0      	lsls	r0, r0, #31
  74:	2800      	cmp	r0, #0
  76:	d104      	bne.n	82 <core::result::Result<T,E>::map_err+0x82>
  78:	e7ff      	b.n	7a <core::result::Result<T,E>::map_err+0x7a>
  7a:	9802      	ldr	r0, [sp, #8]
  7c:	2801      	cmp	r0, #1
  7e:	d008      	beq.n	92 <core::result::Result<T,E>::map_err+0x92>
  80:	e011      	b.n	a6 <core::result::Result<T,E>::map_err+0xa6>
  82:	2000      	movs	r0, #0
  84:	f88d 001d 	strb.w	r0, [sp, #29]
  88:	e7f7      	b.n	7a <core::result::Result<T,E>::map_err+0x7a>
  8a:	f89d 000f 	ldrb.w	r0, [sp, #15]
  8e:	b008      	add	sp, #32
  90:	bd80      	pop	{r7, pc}
  92:	f89d 001f 	ldrb.w	r0, [sp, #31]
  96:	07c0      	lsls	r0, r0, #31
  98:	2800      	cmp	r0, #0
  9a:	d0f6      	beq.n	8a <core::result::Result<T,E>::map_err+0x8a>
  9c:	e7ff      	b.n	9e <core::result::Result<T,E>::map_err+0x9e>
  9e:	2000      	movs	r0, #0
  a0:	f88d 001f 	strb.w	r0, [sp, #31]
  a4:	e7f1      	b.n	8a <core::result::Result<T,E>::map_err+0x8a>
  a6:	f89d 001e 	ldrb.w	r0, [sp, #30]
  aa:	07c0      	lsls	r0, r0, #31
  ac:	2800      	cmp	r0, #0
  ae:	d0ec      	beq.n	8a <core::result::Result<T,E>::map_err+0x8a>
  b0:	e7ff      	b.n	b2 <core::result::Result<T,E>::map_err+0xb2>
  b2:	2000      	movs	r0, #0
  b4:	f88d 001e 	strb.w	r0, [sp, #30]
  b8:	e7e7      	b.n	8a <core::result::Result<T,E>::map_err+0x8a>

Disassembly of section .text._ZN4core6result19Result$LT$T$C$E$GT$7map_err17hce390063c5fd0c06E:

00000000 <core::result::Result<T,E>::map_err>:
_ZN4core6result19Result$LT$T$C$E$GT$7map_err17hce390063c5fd0c06E():
/rustc/50a0defd5a93523067ef239936cc2e0755220904/src/libcore/result.rs:519
   0:	b580      	push	{r7, lr}
   2:	b088      	sub	sp, #32
   4:	4601      	mov	r1, r0
   6:	9002      	str	r0, [sp, #8]
   8:	2000      	movs	r0, #0
/rustc/50a0defd5a93523067ef239936cc2e0755220904/src/libcore/result.rs:521
   a:	f88d 001f 	strb.w	r0, [sp, #31]
   e:	f88d 001d 	strb.w	r0, [sp, #29]
  12:	f88d 001e 	strb.w	r0, [sp, #30]
  16:	2001      	movs	r0, #1
  18:	f88d 001e 	strb.w	r0, [sp, #30]
  1c:	f88d 001f 	strb.w	r0, [sp, #31]
  20:	f88d 001d 	strb.w	r0, [sp, #29]
  24:	9802      	ldr	r0, [sp, #8]
  26:	1e42      	subs	r2, r0, #1
  28:	bf18      	it	ne
  2a:	2201      	movne	r2, #1
  2c:	2801      	cmp	r0, #1
  2e:	9101      	str	r1, [sp, #4]
  30:	9200      	str	r2, [sp, #0]
  32:	d005      	beq.n	40 <core::result::Result<T,E>::map_err+0x40>
  34:	e7ff      	b.n	36 <core::result::Result<T,E>::map_err+0x36>
  36:	9800      	ldr	r0, [sp, #0]
  38:	2801      	cmp	r0, #1
  3a:	d007      	beq.n	4c <core::result::Result<T,E>::map_err+0x4c>
  3c:	e7ff      	b.n	3e <core::result::Result<T,E>::map_err+0x3e>
/rustc/50a0defd5a93523067ef239936cc2e0755220904/src/libcore/result.rs:524
  3e:	defe      	udf	#254	; 0xfe
  40:	2000      	movs	r0, #0
/rustc/50a0defd5a93523067ef239936cc2e0755220904/src/libcore/result.rs:521
  42:	f88d 001f 	strb.w	r0, [sp, #31]
  46:	f88d 000f 	strb.w	r0, [sp, #15]
/rustc/50a0defd5a93523067ef239936cc2e0755220904/src/libcore/result.rs:520
  4a:	e010      	b.n	6e <core::result::Result<T,E>::map_err+0x6e>
  4c:	2000      	movs	r0, #0
/rustc/50a0defd5a93523067ef239936cc2e0755220904/src/libcore/result.rs:522
  4e:	f88d 001e 	strb.w	r0, [sp, #30]
  52:	9902      	ldr	r1, [sp, #8]
  54:	9105      	str	r1, [sp, #20]
  56:	f88d 001d 	strb.w	r0, [sp, #29]
  5a:	9805      	ldr	r0, [sp, #20]
  5c:	9006      	str	r0, [sp, #24]
  5e:	9806      	ldr	r0, [sp, #24]
  60:	f7ff fffe 	bl	0 <st7735_lcd::ST7735<SPI,DC,RST>::hard_reset::{{closure}}>
  64:	e7ff      	b.n	66 <core::result::Result<T,E>::map_err+0x66>
  66:	2001      	movs	r0, #1
  68:	f88d 000f 	strb.w	r0, [sp, #15]
/rustc/50a0defd5a93523067ef239936cc2e0755220904/src/libcore/result.rs:520
  6c:	e7ff      	b.n	6e <core::result::Result<T,E>::map_err+0x6e>
/rustc/50a0defd5a93523067ef239936cc2e0755220904/src/libcore/result.rs:524
  6e:	f89d 001d 	ldrb.w	r0, [sp, #29]
  72:	07c0      	lsls	r0, r0, #31
  74:	2800      	cmp	r0, #0
  76:	d104      	bne.n	82 <core::result::Result<T,E>::map_err+0x82>
  78:	e7ff      	b.n	7a <core::result::Result<T,E>::map_err+0x7a>
  7a:	9802      	ldr	r0, [sp, #8]
  7c:	2801      	cmp	r0, #1
  7e:	d008      	beq.n	92 <core::result::Result<T,E>::map_err+0x92>
  80:	e011      	b.n	a6 <core::result::Result<T,E>::map_err+0xa6>
  82:	2000      	movs	r0, #0
  84:	f88d 001d 	strb.w	r0, [sp, #29]
  88:	e7f7      	b.n	7a <core::result::Result<T,E>::map_err+0x7a>
  8a:	f89d 000f 	ldrb.w	r0, [sp, #15]
  8e:	b008      	add	sp, #32
  90:	bd80      	pop	{r7, pc}
  92:	f89d 001f 	ldrb.w	r0, [sp, #31]
  96:	07c0      	lsls	r0, r0, #31
  98:	2800      	cmp	r0, #0
  9a:	d0f6      	beq.n	8a <core::result::Result<T,E>::map_err+0x8a>
  9c:	e7ff      	b.n	9e <core::result::Result<T,E>::map_err+0x9e>
  9e:	2000      	movs	r0, #0
  a0:	f88d 001f 	strb.w	r0, [sp, #31]
  a4:	e7f1      	b.n	8a <core::result::Result<T,E>::map_err+0x8a>
  a6:	f89d 001e 	ldrb.w	r0, [sp, #30]
  aa:	07c0      	lsls	r0, r0, #31
  ac:	2800      	cmp	r0, #0
  ae:	d0ec      	beq.n	8a <core::result::Result<T,E>::map_err+0x8a>
  b0:	e7ff      	b.n	b2 <core::result::Result<T,E>::map_err+0xb2>
  b2:	2000      	movs	r0, #0
  b4:	f88d 001e 	strb.w	r0, [sp, #30]
  b8:	e7e7      	b.n	8a <core::result::Result<T,E>::map_err+0x8a>

Disassembly of section .text._ZN4core6result19Result$LT$T$C$E$GT$7map_err17he46d8531291434efE:

00000000 <core::result::Result<T,E>::map_err>:
_ZN4core6result19Result$LT$T$C$E$GT$7map_err17he46d8531291434efE():
/rustc/50a0defd5a93523067ef239936cc2e0755220904/src/libcore/result.rs:519
   0:	b580      	push	{r7, lr}
   2:	b088      	sub	sp, #32
   4:	4601      	mov	r1, r0
   6:	9002      	str	r0, [sp, #8]
   8:	2000      	movs	r0, #0
/rustc/50a0defd5a93523067ef239936cc2e0755220904/src/libcore/result.rs:521
   a:	f88d 001f 	strb.w	r0, [sp, #31]
   e:	f88d 001d 	strb.w	r0, [sp, #29]
  12:	f88d 001e 	strb.w	r0, [sp, #30]
  16:	2001      	movs	r0, #1
  18:	f88d 001e 	strb.w	r0, [sp, #30]
  1c:	f88d 001f 	strb.w	r0, [sp, #31]
  20:	f88d 001d 	strb.w	r0, [sp, #29]
  24:	9802      	ldr	r0, [sp, #8]
  26:	1e42      	subs	r2, r0, #1
  28:	bf18      	it	ne
  2a:	2201      	movne	r2, #1
  2c:	2801      	cmp	r0, #1
  2e:	9101      	str	r1, [sp, #4]
  30:	9200      	str	r2, [sp, #0]
  32:	d005      	beq.n	40 <core::result::Result<T,E>::map_err+0x40>
  34:	e7ff      	b.n	36 <core::result::Result<T,E>::map_err+0x36>
  36:	9800      	ldr	r0, [sp, #0]
  38:	2801      	cmp	r0, #1
  3a:	d007      	beq.n	4c <core::result::Result<T,E>::map_err+0x4c>
  3c:	e7ff      	b.n	3e <core::result::Result<T,E>::map_err+0x3e>
/rustc/50a0defd5a93523067ef239936cc2e0755220904/src/libcore/result.rs:524
  3e:	defe      	udf	#254	; 0xfe
  40:	2000      	movs	r0, #0
/rustc/50a0defd5a93523067ef239936cc2e0755220904/src/libcore/result.rs:521
  42:	f88d 001f 	strb.w	r0, [sp, #31]
  46:	f88d 000f 	strb.w	r0, [sp, #15]
/rustc/50a0defd5a93523067ef239936cc2e0755220904/src/libcore/result.rs:520
  4a:	e010      	b.n	6e <core::result::Result<T,E>::map_err+0x6e>
  4c:	2000      	movs	r0, #0
/rustc/50a0defd5a93523067ef239936cc2e0755220904/src/libcore/result.rs:522
  4e:	f88d 001e 	strb.w	r0, [sp, #30]
  52:	9902      	ldr	r1, [sp, #8]
  54:	9105      	str	r1, [sp, #20]
  56:	f88d 001d 	strb.w	r0, [sp, #29]
  5a:	9805      	ldr	r0, [sp, #20]
  5c:	9006      	str	r0, [sp, #24]
  5e:	9806      	ldr	r0, [sp, #24]
  60:	f7ff fffe 	bl	0 <st7735_lcd::ST7735<SPI,DC,RST>::write_command::{{closure}}>
  64:	e7ff      	b.n	66 <core::result::Result<T,E>::map_err+0x66>
  66:	2001      	movs	r0, #1
  68:	f88d 000f 	strb.w	r0, [sp, #15]
/rustc/50a0defd5a93523067ef239936cc2e0755220904/src/libcore/result.rs:520
  6c:	e7ff      	b.n	6e <core::result::Result<T,E>::map_err+0x6e>
/rustc/50a0defd5a93523067ef239936cc2e0755220904/src/libcore/result.rs:524
  6e:	f89d 001d 	ldrb.w	r0, [sp, #29]
  72:	07c0      	lsls	r0, r0, #31
  74:	2800      	cmp	r0, #0
  76:	d104      	bne.n	82 <core::result::Result<T,E>::map_err+0x82>
  78:	e7ff      	b.n	7a <core::result::Result<T,E>::map_err+0x7a>
  7a:	9802      	ldr	r0, [sp, #8]
  7c:	2801      	cmp	r0, #1
  7e:	d008      	beq.n	92 <core::result::Result<T,E>::map_err+0x92>
  80:	e011      	b.n	a6 <core::result::Result<T,E>::map_err+0xa6>
  82:	2000      	movs	r0, #0
  84:	f88d 001d 	strb.w	r0, [sp, #29]
  88:	e7f7      	b.n	7a <core::result::Result<T,E>::map_err+0x7a>
  8a:	f89d 000f 	ldrb.w	r0, [sp, #15]
  8e:	b008      	add	sp, #32
  90:	bd80      	pop	{r7, pc}
  92:	f89d 001f 	ldrb.w	r0, [sp, #31]
  96:	07c0      	lsls	r0, r0, #31
  98:	2800      	cmp	r0, #0
  9a:	d0f6      	beq.n	8a <core::result::Result<T,E>::map_err+0x8a>
  9c:	e7ff      	b.n	9e <core::result::Result<T,E>::map_err+0x9e>
  9e:	2000      	movs	r0, #0
  a0:	f88d 001f 	strb.w	r0, [sp, #31]
  a4:	e7f1      	b.n	8a <core::result::Result<T,E>::map_err+0x8a>
  a6:	f89d 001e 	ldrb.w	r0, [sp, #30]
  aa:	07c0      	lsls	r0, r0, #31
  ac:	2800      	cmp	r0, #0
  ae:	d0ec      	beq.n	8a <core::result::Result<T,E>::map_err+0x8a>
  b0:	e7ff      	b.n	b2 <core::result::Result<T,E>::map_err+0xb2>
  b2:	2000      	movs	r0, #0
  b4:	f88d 001e 	strb.w	r0, [sp, #30]
  b8:	e7e7      	b.n	8a <core::result::Result<T,E>::map_err+0x8a>

Disassembly of section .text._ZN73_$LT$core..result..Result$LT$T$C$E$GT$$u20$as$u20$core..ops..try..Try$GT$10from_error17hacebbf7ef421c603E:

00000000 <<core::result::Result<T,E> as core::ops::try::Try>::from_error>:
_ZN73_$LT$core..result..Result$LT$T$C$E$GT$$u20$as$u20$core..ops..try..Try$GT$10from_error17hacebbf7ef421c603E():
/rustc/50a0defd5a93523067ef239936cc2e0755220904/src/libcore/result.rs:1292
   0:	b083      	sub	sp, #12
   2:	4601      	mov	r1, r0
   4:	9001      	str	r0, [sp, #4]
/rustc/50a0defd5a93523067ef239936cc2e0755220904/src/libcore/result.rs:1293
   6:	9801      	ldr	r0, [sp, #4]
   8:	9002      	str	r0, [sp, #8]
/rustc/50a0defd5a93523067ef239936cc2e0755220904/src/libcore/result.rs:1294
   a:	9802      	ldr	r0, [sp, #8]
   c:	9100      	str	r1, [sp, #0]
   e:	b003      	add	sp, #12
  10:	4770      	bx	lr

Disassembly of section .text._ZN73_$LT$core..result..Result$LT$T$C$E$GT$$u20$as$u20$core..ops..try..Try$GT$10from_error17he489dc00afef2d26E:

00000000 <<core::result::Result<T,E> as core::ops::try::Try>::from_error>:
_ZN73_$LT$core..result..Result$LT$T$C$E$GT$$u20$as$u20$core..ops..try..Try$GT$10from_error17he489dc00afef2d26E():
/rustc/50a0defd5a93523067ef239936cc2e0755220904/src/libcore/result.rs:1292
   0:	b081      	sub	sp, #4
   2:	2001      	movs	r0, #1
/rustc/50a0defd5a93523067ef239936cc2e0755220904/src/libcore/result.rs:1293
   4:	f88d 0003 	strb.w	r0, [sp, #3]
/rustc/50a0defd5a93523067ef239936cc2e0755220904/src/libcore/result.rs:1294
   8:	f89d 0003 	ldrb.w	r0, [sp, #3]
   c:	b001      	add	sp, #4
   e:	4770      	bx	lr

Disassembly of section .text._ZN73_$LT$core..result..Result$LT$T$C$E$GT$$u20$as$u20$core..ops..try..Try$GT$11into_result17h1833658db2573647E:

00000000 <<core::result::Result<T,E> as core::ops::try::Try>::into_result>:
_ZN73_$LT$core..result..Result$LT$T$C$E$GT$$u20$as$u20$core..ops..try..Try$GT$11into_result17h1833658db2573647E():
/rustc/50a0defd5a93523067ef239936cc2e0755220904/src/libcore/result.rs:1282
   0:	b510      	push	{r4, lr}
   2:	b082      	sub	sp, #8
   4:	460a      	mov	r2, r1
   6:	4603      	mov	r3, r0
/rustc/50a0defd5a93523067ef239936cc2e0755220904/src/libcore/result.rs:1283
   8:	f8d1 c000 	ldr.w	ip, [r1]
   c:	f8d1 e004 	ldr.w	lr, [r1, #4]
  10:	688c      	ldr	r4, [r1, #8]
  12:	68c9      	ldr	r1, [r1, #12]
  14:	60c1      	str	r1, [r0, #12]
  16:	6084      	str	r4, [r0, #8]
  18:	f8c0 e004 	str.w	lr, [r0, #4]
  1c:	f8c0 c000 	str.w	ip, [r0]
/rustc/50a0defd5a93523067ef239936cc2e0755220904/src/libcore/result.rs:1284
  20:	9201      	str	r2, [sp, #4]
  22:	9300      	str	r3, [sp, #0]
  24:	b002      	add	sp, #8
  26:	bd10      	pop	{r4, pc}

Disassembly of section .text._ZN73_$LT$core..result..Result$LT$T$C$E$GT$$u20$as$u20$core..ops..try..Try$GT$11into_result17h6ae772a48cc87a1eE:

00000000 <<core::result::Result<T,E> as core::ops::try::Try>::into_result>:
_ZN73_$LT$core..result..Result$LT$T$C$E$GT$$u20$as$u20$core..ops..try..Try$GT$11into_result17h6ae772a48cc87a1eE():
/rustc/50a0defd5a93523067ef239936cc2e0755220904/src/libcore/result.rs:1282
   0:	b082      	sub	sp, #8
   2:	4601      	mov	r1, r0
   4:	f88d 0007 	strb.w	r0, [sp, #7]
/rustc/50a0defd5a93523067ef239936cc2e0755220904/src/libcore/result.rs:1283
   8:	f89d 0007 	ldrb.w	r0, [sp, #7]
/rustc/50a0defd5a93523067ef239936cc2e0755220904/src/libcore/result.rs:1284
   c:	9100      	str	r1, [sp, #0]
   e:	b002      	add	sp, #8
  10:	4770      	bx	lr

Disassembly of section .text._ZN73_$LT$core..result..Result$LT$T$C$E$GT$$u20$as$u20$core..ops..try..Try$GT$11into_result17h6b7478485ecb4c3aE:

00000000 <<core::result::Result<T,E> as core::ops::try::Try>::into_result>:
_ZN73_$LT$core..result..Result$LT$T$C$E$GT$$u20$as$u20$core..ops..try..Try$GT$11into_result17h6b7478485ecb4c3aE():
/rustc/50a0defd5a93523067ef239936cc2e0755220904/src/libcore/result.rs:1282
   0:	b082      	sub	sp, #8
   2:	460a      	mov	r2, r1
   4:	4603      	mov	r3, r0
/rustc/50a0defd5a93523067ef239936cc2e0755220904/src/libcore/result.rs:1283
   6:	f8d1 c000 	ldr.w	ip, [r1]
   a:	6849      	ldr	r1, [r1, #4]
   c:	6041      	str	r1, [r0, #4]
   e:	f8c0 c000 	str.w	ip, [r0]
/rustc/50a0defd5a93523067ef239936cc2e0755220904/src/libcore/result.rs:1284
  12:	9201      	str	r2, [sp, #4]
  14:	9300      	str	r3, [sp, #0]
  16:	b002      	add	sp, #8
  18:	4770      	bx	lr

Disassembly of section .text._ZN73_$LT$core..result..Result$LT$T$C$E$GT$$u20$as$u20$core..ops..try..Try$GT$11into_result17hc4a660f1189e64cdE:

00000000 <<core::result::Result<T,E> as core::ops::try::Try>::into_result>:
_ZN73_$LT$core..result..Result$LT$T$C$E$GT$$u20$as$u20$core..ops..try..Try$GT$11into_result17hc4a660f1189e64cdE():
/rustc/50a0defd5a93523067ef239936cc2e0755220904/src/libcore/result.rs:1282
   0:	b082      	sub	sp, #8
   2:	4601      	mov	r1, r0
   4:	9001      	str	r0, [sp, #4]
/rustc/50a0defd5a93523067ef239936cc2e0755220904/src/libcore/result.rs:1283
   6:	9801      	ldr	r0, [sp, #4]
/rustc/50a0defd5a93523067ef239936cc2e0755220904/src/libcore/result.rs:1284
   8:	9100      	str	r1, [sp, #0]
   a:	b002      	add	sp, #8
   c:	4770      	bx	lr

Disassembly of section .text._ZN73_$LT$core..result..Result$LT$T$C$E$GT$$u20$as$u20$core..ops..try..Try$GT$11into_result17hc82509bdbe1fbaadE:

00000000 <<core::result::Result<T,E> as core::ops::try::Try>::into_result>:
_ZN73_$LT$core..result..Result$LT$T$C$E$GT$$u20$as$u20$core..ops..try..Try$GT$11into_result17hc82509bdbe1fbaadE():
/rustc/50a0defd5a93523067ef239936cc2e0755220904/src/libcore/result.rs:1282
   0:	b5b0      	push	{r4, r5, r7, lr}
   2:	b082      	sub	sp, #8
   4:	460a      	mov	r2, r1
   6:	4603      	mov	r3, r0
/rustc/50a0defd5a93523067ef239936cc2e0755220904/src/libcore/result.rs:1283
   8:	e8b1 5030 	ldmia.w	r1!, {r4, r5, ip, lr}
   c:	e8a0 5030 	stmia.w	r0!, {r4, r5, ip, lr}
  10:	e891 5030 	ldmia.w	r1, {r4, r5, ip, lr}
  14:	e880 5030 	stmia.w	r0, {r4, r5, ip, lr}
/rustc/50a0defd5a93523067ef239936cc2e0755220904/src/libcore/result.rs:1284
  18:	9201      	str	r2, [sp, #4]
  1a:	9300      	str	r3, [sp, #0]
  1c:	b002      	add	sp, #8
  1e:	bdb0      	pop	{r4, r5, r7, pc}

app-b8434b356de0ea5d.1sgpzgj4qo12dzez.rcgu.o:     file format elf32-littlearm

SYMBOL TABLE:
00000000 l    df *ABS*	00000000 1sgpzgj4qo12dzez
00000f73 l       .debug_str	00000000 
00000f66 l       .debug_str	00000000 
00000f80 l       .debug_str	00000000 
00000f82 l       .debug_str	00000000 
00000fb7 l       .debug_str	00000000 
00000fb9 l       .debug_str	00000000 
00000fef l       .debug_str	00000000 
0000109b l       .debug_str	00000000 
00001151 l       .debug_str	00000000 
00001157 l       .debug_str	00000000 
00001164 l       .debug_str	00000000 
00001168 l       .debug_str	00000000 
0000116d l       .debug_str	00000000 
00001176 l       .debug_str	00000000 
00001180 l       .debug_str	00000000 
00001187 l       .debug_str	00000000 
0000118d l       .debug_str	00000000 
00001192 l       .debug_str	00000000 
00001198 l       .debug_str	00000000 
0000119f l       .debug_str	00000000 
000011a9 l       .debug_str	00000000 
000011b7 l       .debug_str	00000000 
000011f7 l       .debug_str	00000000 
000011fc l       .debug_str	00000000 
0000126b l       .debug_str	00000000 
00001317 l       .debug_str	00000000 
00001407 l       .debug_str	00000000 
0000140c l       .debug_str	00000000 
00001425 l       .debug_str	00000000 
00001493 l       .debug_str	00000000 
00001497 l       .debug_str	00000000 
0000149a l       .debug_str	00000000 
000014a2 l       .debug_str	00000000 
000014a7 l       .debug_str	00000000 
000014ad l       .debug_str	00000000 
000014b3 l       .debug_str	00000000 
000014b9 l       .debug_str	00000000 
000014cd l       .debug_str	00000000 
000014d5 l       .debug_str	00000000 
000014dc l       .debug_str	00000000 
000014ea l       .debug_str	00000000 
000014f6 l       .debug_str	00000000 
000014f9 l       .debug_str	00000000 
000014fc l       .debug_str	00000000 
000014ff l       .debug_str	00000000 
00001502 l       .debug_str	00000000 
0000150a l       .debug_str	00000000 
00001510 l       .debug_str	00000000 
00001532 l       .debug_str	00000000 
00001534 l       .debug_str	00000000 
00001536 l       .debug_str	00000000 
0000153c l       .debug_str	00000000 
00001541 l       .debug_str	00000000 
0000157f l       .debug_str	00000000 
00001586 l       .debug_str	00000000 
0000158f l       .debug_str	00000000 
0000159d l       .debug_str	00000000 
000015b5 l       .debug_str	00000000 
000015c3 l       .debug_str	00000000 
000015f8 l       .debug_str	00000000 
000015fc l       .debug_str	00000000 
00001608 l       .debug_str	00000000 
00001614 l       .debug_str	00000000 
00001620 l       .debug_str	00000000 
0000162d l       .debug_str	00000000 
00001632 l       .debug_str	00000000 
0000163f l       .debug_str	00000000 
00001643 l       .debug_str	00000000 
00000000 l       .debug_str	00000000 
00000041 l       .debug_str	00000000 
00000055 l       .debug_str	00000000 
00000085 l       .debug_str	00000000 
00000090 l       .debug_str	00000000 
00000093 l       .debug_str	00000000 
0000009c l       .debug_str	00000000 
000000a6 l       .debug_str	00000000 
000000b6 l       .debug_str	00000000 
000000c7 l       .debug_str	00000000 
000000d3 l       .debug_str	00000000 
000000d8 l       .debug_str	00000000 
000000df l       .debug_str	00000000 
000000e2 l       .debug_str	00000000 
000000e6 l       .debug_str	00000000 
000000ed l       .debug_str	00000000 
000000f4 l       .debug_str	00000000 
000000f8 l       .debug_str	00000000 
00000100 l       .debug_str	00000000 
0000010b l       .debug_str	00000000 
00000116 l       .debug_str	00000000 
00000123 l       .debug_str	00000000 
0000012e l       .debug_str	00000000 
00000136 l       .debug_str	00000000 
00000141 l       .debug_str	00000000 
0000014c l       .debug_str	00000000 
00000156 l       .debug_str	00000000 
00000161 l       .debug_str	00000000 
0000016c l       .debug_str	00000000 
00000179 l       .debug_str	00000000 
00000185 l       .debug_str	00000000 
00000192 l       .debug_str	00000000 
000001a0 l       .debug_str	00000000 
000001aa l       .debug_str	00000000 
000001b7 l       .debug_str	00000000 
000001c3 l       .debug_str	00000000 
000001cf l       .debug_str	00000000 
000001d3 l       .debug_str	00000000 
000001db l       .debug_str	00000000 
000001e1 l       .debug_str	00000000 
000001e7 l       .debug_str	00000000 
000001ed l       .debug_str	00000000 
000001f4 l       .debug_str	00000000 
000001fa l       .debug_str	00000000 
00000200 l       .debug_str	00000000 
00000207 l       .debug_str	00000000 
0000020d l       .debug_str	00000000 
00000215 l       .debug_str	00000000 
0000021c l       .debug_str	00000000 
00000222 l       .debug_str	00000000 
00000228 l       .debug_str	00000000 
0000022e l       .debug_str	00000000 
00000234 l       .debug_str	00000000 
0000023a l       .debug_str	00000000 
00000241 l       .debug_str	00000000 
00000248 l       .debug_str	00000000 
00000250 l       .debug_str	00000000 
00000258 l       .debug_str	00000000 
00000260 l       .debug_str	00000000 
00000267 l       .debug_str	00000000 
0000026f l       .debug_str	00000000 
00000276 l       .debug_str	00000000 
0000027d l       .debug_str	00000000 
00000284 l       .debug_str	00000000 
0000028b l       .debug_str	00000000 
00000292 l       .debug_str	00000000 
00000299 l       .debug_str	00000000 
0000029f l       .debug_str	00000000 
000002a5 l       .debug_str	00000000 
000002ab l       .debug_str	00000000 
000002b1 l       .debug_str	00000000 
000002b8 l       .debug_str	00000000 
000002c0 l       .debug_str	00000000 
000002c8 l       .debug_str	00000000 
000002d4 l       .debug_str	00000000 
000002df l       .debug_str	00000000 
000002e4 l       .debug_str	00000000 
000002f0 l       .debug_str	00000000 
000002f4 l       .debug_str	00000000 
000002f8 l       .debug_str	00000000 
00000303 l       .debug_str	00000000 
0000030b l       .debug_str	00000000 
00000312 l       .debug_str	00000000 
0000031c l       .debug_str	00000000 
0000031f l       .debug_str	00000000 
00000323 l       .debug_str	00000000 
0000032e l       .debug_str	00000000 
00000332 l       .debug_str	00000000 
00000336 l       .debug_str	00000000 
0000033b l       .debug_str	00000000 
00000344 l       .debug_str	00000000 
00000347 l       .debug_str	00000000 
0000034b l       .debug_str	00000000 
0000034e l       .debug_str	00000000 
00000352 l       .debug_str	00000000 
00000355 l       .debug_str	00000000 
00000359 l       .debug_str	00000000 
000003b6 l       .debug_str	00000000 
000003bf l       .debug_str	00000000 
000003ca l       .debug_str	00000000 
000003d5 l       .debug_str	00000000 
000003e3 l       .debug_str	00000000 
000003e8 l       .debug_str	00000000 
00000424 l       .debug_str	00000000 
00000443 l       .debug_str	00000000 
0000044a l       .debug_str	00000000 
0000044f l       .debug_str	00000000 
00000451 l       .debug_str	00000000 
00000456 l       .debug_str	00000000 
0000045a l       .debug_str	00000000 
00000465 l       .debug_str	00000000 
000004b3 l       .debug_str	00000000 
00000512 l       .debug_str	00000000 
0000057e l       .debug_str	00000000 
000005de l       .debug_str	00000000 
0000064a l       .debug_str	00000000 
000006b6 l       .debug_str	00000000 
00000704 l       .debug_str	00000000 
00000763 l       .debug_str	00000000 
000007b1 l       .debug_str	00000000 
00000810 l       .debug_str	00000000 
0000087c l       .debug_str	00000000 
000008e8 l       .debug_str	00000000 
00000936 l       .debug_str	00000000 
00000995 l       .debug_str	00000000 
000009e6 l       .debug_str	00000000 
00000a48 l       .debug_str	00000000 
00000ab7 l       .debug_str	00000000 
00000b26 l       .debug_str	00000000 
00000b79 l       .debug_str	00000000 
00000bdd l       .debug_str	00000000 
00000c33 l       .debug_str	00000000 
00000c9a l       .debug_str	00000000 
00000ce0 l       .debug_str	00000000 
00000d38 l       .debug_str	00000000 
00000d44 l       .debug_str	00000000 
00000d4a l       .debug_str	00000000 
00000d91 l       .debug_str	00000000 
00000e07 l       .debug_str	00000000 
00000e53 l       .debug_str	00000000 
00000eb1 l       .debug_str	00000000 
00000ec3 l       .debug_str	00000000 
00000ece l       .debug_str	00000000 
00000ed5 l       .debug_str	00000000 
00000edc l       .debug_str	00000000 
00000ee2 l       .debug_str	00000000 
00000ef1 l       .debug_str	00000000 
00000ef5 l       .debug_str	00000000 
00000efb l       .debug_str	00000000 
00000f02 l       .debug_str	00000000 
00000f06 l       .debug_str	00000000 
00000f0c l       .debug_str	00000000 
00000f17 l       .debug_str	00000000 
00000f22 l       .debug_str	00000000 
00000f29 l       .debug_str	00000000 
00000f30 l       .debug_str	00000000 
00000000 l     O .rodata..Lanon.f3106792272b13f2845605204828f1ef.0	00000018 .Lanon.f3106792272b13f2845605204828f1ef.0
00000000 l     O .rodata..Lanon.f3106792272b13f2845605204828f1ef.1	00000018 .Lanon.f3106792272b13f2845605204828f1ef.1
00000000 l     O .rodata..Lanon.f3106792272b13f2845605204828f1ef.10	00000002 .Lanon.f3106792272b13f2845605204828f1ef.10
00000000 l     O .rodata..Lanon.f3106792272b13f2845605204828f1ef.11	00000002 .Lanon.f3106792272b13f2845605204828f1ef.11
00000000 l     O .rodata..Lanon.f3106792272b13f2845605204828f1ef.12	00000001 .Lanon.f3106792272b13f2845605204828f1ef.12
00000000 l     O .rodata..Lanon.f3106792272b13f2845605204828f1ef.13	00000001 .Lanon.f3106792272b13f2845605204828f1ef.13
00000000 l     O .rodata..Lanon.f3106792272b13f2845605204828f1ef.14	00000001 .Lanon.f3106792272b13f2845605204828f1ef.14
00000000 l     O .rodata..Lanon.f3106792272b13f2845605204828f1ef.15	00000001 .Lanon.f3106792272b13f2845605204828f1ef.15
00000000 l     O .rodata..Lanon.f3106792272b13f2845605204828f1ef.16	00000012 .Lanon.f3106792272b13f2845605204828f1ef.16
00000000 l     O .rodata..Lanon.f3106792272b13f2845605204828f1ef.2	00000018 .Lanon.f3106792272b13f2845605204828f1ef.2
00000000 l     O .rodata..Lanon.f3106792272b13f2845605204828f1ef.3	00000018 .Lanon.f3106792272b13f2845605204828f1ef.3
00000000 l     O .rodata..Lanon.f3106792272b13f2845605204828f1ef.4	00000003 .Lanon.f3106792272b13f2845605204828f1ef.4
00000000 l     O .rodata..Lanon.f3106792272b13f2845605204828f1ef.5	00000006 .Lanon.f3106792272b13f2845605204828f1ef.5
00000000 l     O .rodata..Lanon.f3106792272b13f2845605204828f1ef.6	00000001 .Lanon.f3106792272b13f2845605204828f1ef.6
00000000 l     O .rodata..Lanon.f3106792272b13f2845605204828f1ef.7	00000003 .Lanon.f3106792272b13f2845605204828f1ef.7
00000000 l     O .rodata..Lanon.f3106792272b13f2845605204828f1ef.8	00000001 .Lanon.f3106792272b13f2845605204828f1ef.8
00000000 l     O .rodata..Lanon.f3106792272b13f2845605204828f1ef.9	00000002 .Lanon.f3106792272b13f2845605204828f1ef.9
00000000 l     O .rodata.str.0	00000058 str.0
00000000 l     O .rodata.str.1	0000001c str.1
00000000 l    d  .text._ZN10num_traits4cast11ToPrimitive5to_u817h9a5b951c73eab503E	00000000 .text._ZN10num_traits4cast11ToPrimitive5to_u817h9a5b951c73eab503E
00000000 l    d  .text._ZN10st7735_lcd28ST7735$LT$SPI$C$DC$C$RST$GT$10hard_reset17h0fa1ebb4cf81aa7dE	00000000 .text._ZN10st7735_lcd28ST7735$LT$SPI$C$DC$C$RST$GT$10hard_reset17h0fa1ebb4cf81aa7dE
00000000 l    d  .text._ZN10st7735_lcd28ST7735$LT$SPI$C$DC$C$RST$GT$10hard_reset28_$u7b$$u7b$closure$u7d$$u7d$17hc5664bb9f9414dfbE	00000000 .text._ZN10st7735_lcd28ST7735$LT$SPI$C$DC$C$RST$GT$10hard_reset28_$u7b$$u7b$closure$u7d$$u7d$17hc5664bb9f9414dfbE
00000000 l    d  .text._ZN10st7735_lcd28ST7735$LT$SPI$C$DC$C$RST$GT$10hard_reset28_$u7b$$u7b$closure$u7d$$u7d$17hd46d896a3ef8f1ceE	00000000 .text._ZN10st7735_lcd28ST7735$LT$SPI$C$DC$C$RST$GT$10hard_reset28_$u7b$$u7b$closure$u7d$$u7d$17hd46d896a3ef8f1ceE
00000000 l    d  .text._ZN10st7735_lcd28ST7735$LT$SPI$C$DC$C$RST$GT$10hard_reset28_$u7b$$u7b$closure$u7d$$u7d$17hdd80abbc8bfaee4eE	00000000 .text._ZN10st7735_lcd28ST7735$LT$SPI$C$DC$C$RST$GT$10hard_reset28_$u7b$$u7b$closure$u7d$$u7d$17hdd80abbc8bfaee4eE
00000000 l    d  .text._ZN10st7735_lcd28ST7735$LT$SPI$C$DC$C$RST$GT$10set_offset17h21804224a384e577E	00000000 .text._ZN10st7735_lcd28ST7735$LT$SPI$C$DC$C$RST$GT$10set_offset17h21804224a384e577E
00000000 l    d  .text._ZN10st7735_lcd28ST7735$LT$SPI$C$DC$C$RST$GT$10write_data17h524a6a341663fa8dE	00000000 .text._ZN10st7735_lcd28ST7735$LT$SPI$C$DC$C$RST$GT$10write_data17h524a6a341663fa8dE
00000000 l    d  .text._ZN10st7735_lcd28ST7735$LT$SPI$C$DC$C$RST$GT$10write_data28_$u7b$$u7b$closure$u7d$$u7d$17h650cbcd208fc79f2E	00000000 .text._ZN10st7735_lcd28ST7735$LT$SPI$C$DC$C$RST$GT$10write_data28_$u7b$$u7b$closure$u7d$$u7d$17h650cbcd208fc79f2E
00000000 l    d  .text._ZN10st7735_lcd28ST7735$LT$SPI$C$DC$C$RST$GT$10write_data28_$u7b$$u7b$closure$u7d$$u7d$17hbd6a195e39b11d95E	00000000 .text._ZN10st7735_lcd28ST7735$LT$SPI$C$DC$C$RST$GT$10write_data28_$u7b$$u7b$closure$u7d$$u7d$17hbd6a195e39b11d95E
00000000 l    d  .text._ZN10st7735_lcd28ST7735$LT$SPI$C$DC$C$RST$GT$10write_word17h4a7e693dcef3b8b2E	00000000 .text._ZN10st7735_lcd28ST7735$LT$SPI$C$DC$C$RST$GT$10write_word17h4a7e693dcef3b8b2E
00000000 l    d  .text._ZN10st7735_lcd28ST7735$LT$SPI$C$DC$C$RST$GT$13write_command17h5eb0c63abd3c8024E	00000000 .text._ZN10st7735_lcd28ST7735$LT$SPI$C$DC$C$RST$GT$13write_command17h5eb0c63abd3c8024E
00000000 l    d  .text._ZN10st7735_lcd28ST7735$LT$SPI$C$DC$C$RST$GT$13write_command28_$u7b$$u7b$closure$u7d$$u7d$17h25079c64f48e2241E	00000000 .text._ZN10st7735_lcd28ST7735$LT$SPI$C$DC$C$RST$GT$13write_command28_$u7b$$u7b$closure$u7d$$u7d$17h25079c64f48e2241E
00000000 l    d  .text._ZN10st7735_lcd28ST7735$LT$SPI$C$DC$C$RST$GT$13write_command28_$u7b$$u7b$closure$u7d$$u7d$17h5b3ed9e2fe632613E	00000000 .text._ZN10st7735_lcd28ST7735$LT$SPI$C$DC$C$RST$GT$13write_command28_$u7b$$u7b$closure$u7d$$u7d$17h5b3ed9e2fe632613E
00000000 l    d  .text._ZN10st7735_lcd28ST7735$LT$SPI$C$DC$C$RST$GT$15set_orientation17h633063f4b0b43e09E	00000000 .text._ZN10st7735_lcd28ST7735$LT$SPI$C$DC$C$RST$GT$15set_orientation17h633063f4b0b43e09E
00000000 l    d  .text._ZN10st7735_lcd28ST7735$LT$SPI$C$DC$C$RST$GT$18set_address_window17hd57bf49179ab145cE	00000000 .text._ZN10st7735_lcd28ST7735$LT$SPI$C$DC$C$RST$GT$18set_address_window17hd57bf49179ab145cE
00000000 l    d  .text._ZN10st7735_lcd28ST7735$LT$SPI$C$DC$C$RST$GT$3new17h723b2fb410ea497eE	00000000 .text._ZN10st7735_lcd28ST7735$LT$SPI$C$DC$C$RST$GT$3new17h723b2fb410ea497eE
00000000 l    d  .text._ZN10st7735_lcd28ST7735$LT$SPI$C$DC$C$RST$GT$4init17h3e833340d4f1a02eE	00000000 .text._ZN10st7735_lcd28ST7735$LT$SPI$C$DC$C$RST$GT$4init17h3e833340d4f1a02eE
00000000 l    d  .text._ZN10st7735_lcd28ST7735$LT$SPI$C$DC$C$RST$GT$9set_pixel17he61da7a08d54fe0bE	00000000 .text._ZN10st7735_lcd28ST7735$LT$SPI$C$DC$C$RST$GT$9set_pixel17he61da7a08d54fe0bE
00000000 l    d  .text._ZN140_$LT$st7735_lcd..ST7735$LT$SPI$C$DC$C$RST$GT$$u20$as$u20$embedded_graphics..Drawing$LT$embedded_graphics..pixelcolor..rgb565..Rgb565$GT$$GT$4draw17h216bd8cb9d1347fcE	00000000 .text._ZN140_$LT$st7735_lcd..ST7735$LT$SPI$C$DC$C$RST$GT$$u20$as$u20$embedded_graphics..Drawing$LT$embedded_graphics..pixelcolor..rgb565..Rgb565$GT$$GT$4draw17h216bd8cb9d1347fcE
00000000 l    d  .text._ZN140_$LT$st7735_lcd..ST7735$LT$SPI$C$DC$C$RST$GT$$u20$as$u20$embedded_graphics..Drawing$LT$embedded_graphics..pixelcolor..rgb565..Rgb565$GT$$GT$4draw17h761fce9fc7bb7866E	00000000 .text._ZN140_$LT$st7735_lcd..ST7735$LT$SPI$C$DC$C$RST$GT$$u20$as$u20$embedded_graphics..Drawing$LT$embedded_graphics..pixelcolor..rgb565..Rgb565$GT$$GT$4draw17h761fce9fc7bb7866E
00000000 l    d  .rodata.str.0	00000000 .rodata.str.0
00000000 l    d  .rodata.str.1	00000000 .rodata.str.1
00000000 l    d  .debug_loc	00000000 .debug_loc
00000000 l    d  .debug_abbrev	00000000 .debug_abbrev
00000000 l    d  .debug_info	00000000 .debug_info
00000000 l    d  .debug_ranges	00000000 .debug_ranges
00000000 l    d  .debug_frame	00000000 .debug_frame
00000000 l    d  .debug_line	00000000 .debug_line
00000000         *UND*	00000000 num_traits::cast::ToPrimitive::to_u8
00000000 g     F .text._ZN10num_traits4cast11ToPrimitive5to_u817h9a5b951c73eab503E	0000003c num_traits::cast::ToPrimitive::to_u8
00000000 g     F .text._ZN10st7735_lcd28ST7735$LT$SPI$C$DC$C$RST$GT$10hard_reset17h0fa1ebb4cf81aa7dE	000000ca st7735_lcd::ST7735<SPI,DC,RST>::hard_reset
00000000 g     F .text._ZN10st7735_lcd28ST7735$LT$SPI$C$DC$C$RST$GT$10hard_reset28_$u7b$$u7b$closure$u7d$$u7d$17hc5664bb9f9414dfbE	0000000e st7735_lcd::ST7735<SPI,DC,RST>::hard_reset::{{closure}}
00000000 g     F .text._ZN10st7735_lcd28ST7735$LT$SPI$C$DC$C$RST$GT$10hard_reset28_$u7b$$u7b$closure$u7d$$u7d$17hd46d896a3ef8f1ceE	0000000e st7735_lcd::ST7735<SPI,DC,RST>::hard_reset::{{closure}}
00000000 g     F .text._ZN10st7735_lcd28ST7735$LT$SPI$C$DC$C$RST$GT$10hard_reset28_$u7b$$u7b$closure$u7d$$u7d$17hdd80abbc8bfaee4eE	0000000e st7735_lcd::ST7735<SPI,DC,RST>::hard_reset::{{closure}}
00000000 g     F .text._ZN10st7735_lcd28ST7735$LT$SPI$C$DC$C$RST$GT$10set_offset17h21804224a384e577E	00000032 st7735_lcd::ST7735<SPI,DC,RST>::set_offset
00000000 g     F .text._ZN10st7735_lcd28ST7735$LT$SPI$C$DC$C$RST$GT$10write_data17h524a6a341663fa8dE	0000008e st7735_lcd::ST7735<SPI,DC,RST>::write_data
00000000 g     F .text._ZN10st7735_lcd28ST7735$LT$SPI$C$DC$C$RST$GT$10write_data28_$u7b$$u7b$closure$u7d$$u7d$17h650cbcd208fc79f2E	0000000e st7735_lcd::ST7735<SPI,DC,RST>::write_data::{{closure}}
00000000 g     F .text._ZN10st7735_lcd28ST7735$LT$SPI$C$DC$C$RST$GT$10write_data28_$u7b$$u7b$closure$u7d$$u7d$17hbd6a195e39b11d95E	0000000e st7735_lcd::ST7735<SPI,DC,RST>::write_data::{{closure}}
00000000 g     F .text._ZN10st7735_lcd28ST7735$LT$SPI$C$DC$C$RST$GT$10write_word17h4a7e693dcef3b8b2E	00000040 st7735_lcd::ST7735<SPI,DC,RST>::write_word
00000000 g     F .text._ZN10st7735_lcd28ST7735$LT$SPI$C$DC$C$RST$GT$13write_command17h5eb0c63abd3c8024E	00000172 st7735_lcd::ST7735<SPI,DC,RST>::write_command
00000000 g     F .text._ZN10st7735_lcd28ST7735$LT$SPI$C$DC$C$RST$GT$13write_command28_$u7b$$u7b$closure$u7d$$u7d$17h25079c64f48e2241E	0000000e st7735_lcd::ST7735<SPI,DC,RST>::write_command::{{closure}}
00000000 g     F .text._ZN10st7735_lcd28ST7735$LT$SPI$C$DC$C$RST$GT$13write_command28_$u7b$$u7b$closure$u7d$$u7d$17h5b3ed9e2fe632613E	0000000e st7735_lcd::ST7735<SPI,DC,RST>::write_command::{{closure}}
00000000 g     F .text._ZN10st7735_lcd28ST7735$LT$SPI$C$DC$C$RST$GT$15set_orientation17h633063f4b0b43e09E	0000013c st7735_lcd::ST7735<SPI,DC,RST>::set_orientation
00000000 g     F .text._ZN10st7735_lcd28ST7735$LT$SPI$C$DC$C$RST$GT$18set_address_window17hd57bf49179ab145cE	00000262 st7735_lcd::ST7735<SPI,DC,RST>::set_address_window
00000000 g     F .text._ZN10st7735_lcd28ST7735$LT$SPI$C$DC$C$RST$GT$3new17h723b2fb410ea497eE	00000070 st7735_lcd::ST7735<SPI,DC,RST>::new
00000000 g     F .text._ZN10st7735_lcd28ST7735$LT$SPI$C$DC$C$RST$GT$4init17h3e833340d4f1a02eE	00000748 st7735_lcd::ST7735<SPI,DC,RST>::init
00000000 g     F .text._ZN10st7735_lcd28ST7735$LT$SPI$C$DC$C$RST$GT$9set_pixel17he61da7a08d54fe0bE	000000ec st7735_lcd::ST7735<SPI,DC,RST>::set_pixel
00000000         *UND*	00000000 st7735_lcd::_IMPL_NUM_ToPrimitive_FOR_Orientation::<impl num_traits::cast::ToPrimitive for st7735_lcd::Orientation>::to_u64
00000000         *UND*	00000000 <embedded_graphics::primitives::circle::Circle<C> as core::iter::traits::collect::IntoIterator>::into_iter
00000000         *UND*	00000000 <embedded_graphics::primitives::circle::CircleIterator<C> as core::iter::traits::iterator::Iterator>::next
00000000         *UND*	00000000 <embedded_graphics::fonts::font_builder::FontBuilder<C,Conf> as core::iter::traits::collect::IntoIterator>::into_iter
00000000         *UND*	00000000 <embedded_graphics::fonts::font_builder::FontBuilderIterator<C,Conf> as core::iter::traits::iterator::Iterator>::next
00000000 g     F .text._ZN140_$LT$st7735_lcd..ST7735$LT$SPI$C$DC$C$RST$GT$$u20$as$u20$embedded_graphics..Drawing$LT$embedded_graphics..pixelcolor..rgb565..Rgb565$GT$$GT$4draw17h216bd8cb9d1347fcE	000000c4 <st7735_lcd::ST7735<SPI,DC,RST> as embedded_graphics::Drawing<embedded_graphics::pixelcolor::rgb565::Rgb565>>::draw
00000000 g     F .text._ZN140_$LT$st7735_lcd..ST7735$LT$SPI$C$DC$C$RST$GT$$u20$as$u20$embedded_graphics..Drawing$LT$embedded_graphics..pixelcolor..rgb565..Rgb565$GT$$GT$4draw17h761fce9fc7bb7866E	000000c8 <st7735_lcd::ST7735<SPI,DC,RST> as embedded_graphics::Drawing<embedded_graphics::pixelcolor::rgb565::Rgb565>>::draw
00000000         *UND*	00000000 .hidden core::num::<impl u16>::to_be
00000000         *UND*	00000000 core::option::Option<T>::as_ref
00000000         *UND*	00000000 core::option::Option<T>::unwrap
00000000         *UND*	00000000 core::option::Option<T>::unwrap
00000000         *UND*	00000000 core::option::Option<T>::is_some
00000000         *UND*	00000000 core::option::Option<T>::and_then
00000000         *UND*	00000000 core::result::Result<T,E>::expect
00000000         *UND*	00000000 core::result::Result<T,E>::map_err
00000000         *UND*	00000000 core::result::Result<T,E>::map_err
00000000         *UND*	00000000 core::result::Result<T,E>::map_err
00000000         *UND*	00000000 core::result::Result<T,E>::map_err
00000000         *UND*	00000000 core::result::Result<T,E>::map_err
00000000         *UND*	00000000 core::result::Result<T,E>::map_err
00000000         *UND*	00000000 core::result::Result<T,E>::map_err
00000000         *UND*	00000000 core::panicking::panic
00000000         *UND*	00000000 <T as core::convert::From<T>>::from
00000000         *UND*	00000000 <core::result::Result<T,E> as core::ops::try::Try>::from_error
00000000         *UND*	00000000 <core::result::Result<T,E> as core::ops::try::Try>::into_result
00000000         *UND*	00000000 <app::mynewt_hal::MynewtGPIO as embedded_hal::digital::v2::OutputPin>::set_low
00000000         *UND*	00000000 <app::mynewt_hal::MynewtGPIO as embedded_hal::digital::v2::OutputPin>::set_high
00000000         *UND*	00000000 <app::mynewt_hal::MynewtSPI as embedded_hal::blocking::spi::Write<u8>>::write
00000000         *UND*	00000000 <app::mynewt_hal::MynewtDelay as embedded_hal::blocking::delay::DelayMs<u8>>::delay_ms



Disassembly of section .text._ZN10num_traits4cast11ToPrimitive5to_u817h9a5b951c73eab503E:

00000000 <num_traits::cast::ToPrimitive::to_u8>:
_ZN10num_traits4cast11ToPrimitive5to_u817h9a5b951c73eab503E():
/Users/Luppy/.cargo/registry/src/github.com-1ecc6299db9ec823/num-traits-0.2.8/src/cast.rs:60
        self.to_u64().as_ref().and_then(ToPrimitive::to_usize)
    }

    /// Converts the value of `self` to an `u8`.
    #[inline]
    fn to_u8(&self) -> Option<u8> {
   0:	b580      	push	{r7, lr}
   2:	b08a      	sub	sp, #40	; 0x28
   4:	4601      	mov	r1, r0
   6:	9005      	str	r0, [sp, #20]
/Users/Luppy/.cargo/registry/src/github.com-1ecc6299db9ec823/num-traits-0.2.8/src/cast.rs:61
        self.to_u64().as_ref().and_then(ToPrimitive::to_u8)
   8:	9805      	ldr	r0, [sp, #20]
   a:	9104      	str	r1, [sp, #16]
   c:	f7ff fffe 	bl	0 <st7735_lcd::_IMPL_NUM_ToPrimitive_FOR_Orientation::<impl num_traits::cast::ToPrimitive for st7735_lcd::Orientation>::to_u64>
  10:	9309      	str	r3, [sp, #36]	; 0x24
  12:	9208      	str	r2, [sp, #32]
  14:	9107      	str	r1, [sp, #28]
  16:	9006      	str	r0, [sp, #24]
  18:	e7ff      	b.n	1a <num_traits::cast::ToPrimitive::to_u8+0x1a>
  1a:	a806      	add	r0, sp, #24
  1c:	f7ff fffe 	bl	0 <core::option::Option<T>::as_ref>
  20:	9003      	str	r0, [sp, #12]
  22:	e7ff      	b.n	24 <num_traits::cast::ToPrimitive::to_u8+0x24>
  24:	9803      	ldr	r0, [sp, #12]
  26:	f7ff fffe 	bl	0 <core::option::Option<T>::and_then>
  2a:	9002      	str	r0, [sp, #8]
  2c:	9101      	str	r1, [sp, #4]
  2e:	e7ff      	b.n	30 <num_traits::cast::ToPrimitive::to_u8+0x30>
/Users/Luppy/.cargo/registry/src/github.com-1ecc6299db9ec823/num-traits-0.2.8/src/cast.rs:62
    }
  30:	9802      	ldr	r0, [sp, #8]
  32:	f000 0001 	and.w	r0, r0, #1
  36:	9901      	ldr	r1, [sp, #4]
  38:	b00a      	add	sp, #40	; 0x28
  3a:	bd80      	pop	{r7, pc}

Disassembly of section .text._ZN10st7735_lcd28ST7735$LT$SPI$C$DC$C$RST$GT$10hard_reset17h0fa1ebb4cf81aa7dE:

00000000 <st7735_lcd::ST7735<SPI,DC,RST>::hard_reset>:
_ZN10st7735_lcd28ST7735$LT$SPI$C$DC$C$RST$GT$10hard_reset17h0fa1ebb4cf81aa7dE():
/Users/Luppy/.cargo/registry/src/github.com-1ecc6299db9ec823/st7735-lcd-0.6.1/src/lib.rs:117
        self.write_command(Instruction::DISPON, None)?;
        delay.delay_ms(200);
        Ok(())
    }

    pub fn hard_reset(&mut self) -> Result<(), ()>
   0:	b580      	push	{r7, lr}
   2:	b092      	sub	sp, #72	; 0x48
   4:	4601      	mov	r1, r0
   6:	9009      	str	r0, [sp, #36]	; 0x24
/Users/Luppy/.cargo/registry/src/github.com-1ecc6299db9ec823/st7735-lcd-0.6.1/src/lib.rs:119
    {
        self.rst.set_high().map_err(|_| ())?;
   8:	9809      	ldr	r0, [sp, #36]	; 0x24
   a:	300c      	adds	r0, #12
   c:	9108      	str	r1, [sp, #32]
   e:	f7ff fffe 	bl	0 <<app::mynewt_hal::MynewtGPIO as embedded_hal::digital::v2::OutputPin>::set_high>
  12:	9007      	str	r0, [sp, #28]
  14:	e7ff      	b.n	16 <st7735_lcd::ST7735<SPI,DC,RST>::hard_reset+0x16>
  16:	9807      	ldr	r0, [sp, #28]
  18:	f7ff fffe 	bl	0 <core::result::Result<T,E>::map_err>
  1c:	9006      	str	r0, [sp, #24]
  1e:	e7ff      	b.n	20 <st7735_lcd::ST7735<SPI,DC,RST>::hard_reset+0x20>
  20:	9806      	ldr	r0, [sp, #24]
  22:	f000 0001 	and.w	r0, r0, #1
  26:	f7ff fffe 	bl	0 <<core::result::Result<T,E> as core::ops::try::Try>::into_result>
  2a:	f88d 002b 	strb.w	r0, [sp, #43]	; 0x2b
  2e:	e7ff      	b.n	30 <st7735_lcd::ST7735<SPI,DC,RST>::hard_reset+0x30>
  30:	f89d 002b 	ldrb.w	r0, [sp, #43]	; 0x2b
  34:	07c1      	lsls	r1, r0, #31
  36:	2900      	cmp	r1, #0
  38:	9005      	str	r0, [sp, #20]
  3a:	d012      	beq.n	62 <st7735_lcd::ST7735<SPI,DC,RST>::hard_reset+0x62>
  3c:	e7ff      	b.n	3e <st7735_lcd::ST7735<SPI,DC,RST>::hard_reset+0x3e>
  3e:	9805      	ldr	r0, [sp, #20]
  40:	2801      	cmp	r0, #1
  42:	d001      	beq.n	48 <st7735_lcd::ST7735<SPI,DC,RST>::hard_reset+0x48>
  44:	e7ff      	b.n	46 <st7735_lcd::ST7735<SPI,DC,RST>::hard_reset+0x46>
/Users/Luppy/.cargo/registry/src/github.com-1ecc6299db9ec823/st7735-lcd-0.6.1/src/lib.rs:122
        self.rst.set_low().map_err(|_| ())?;
        self.rst.set_high().map_err(|_| ())
    }
  46:	defe      	udf	#254	; 0xfe
/Users/Luppy/.cargo/registry/src/github.com-1ecc6299db9ec823/st7735-lcd-0.6.1/src/lib.rs:119
        self.rst.set_high().map_err(|_| ())?;
  48:	f7ff fffe 	bl	0 <<T as core::convert::From<T>>::from>
  4c:	e7ff      	b.n	2 <<core::result::Result<T,E> as core::ops::try::Try>::from_error+0x2>
  4e:	f7ff fffe 	bl	0 <<core::result::Result<T,E> as core::ops::try::Try>::from_error>
  52:	f88d 002a 	strb.w	r0, [sp, #42]	; 0x2a
  56:	e7ff      	b.n	58 <st7735_lcd::ST7735<SPI,DC,RST>::hard_reset+0x58>
  58:	e7ff      	b.n	5a <st7735_lcd::ST7735<SPI,DC,RST>::hard_reset+0x5a>
/Users/Luppy/.cargo/registry/src/github.com-1ecc6299db9ec823/st7735-lcd-0.6.1/src/lib.rs:122
    }
  5a:	f89d 002a 	ldrb.w	r0, [sp, #42]	; 0x2a
  5e:	b012      	add	sp, #72	; 0x48
  60:	bd80      	pop	{r7, pc}
/Users/Luppy/.cargo/registry/src/github.com-1ecc6299db9ec823/st7735-lcd-0.6.1/src/lib.rs:120
        self.rst.set_low().map_err(|_| ())?;
  62:	9809      	ldr	r0, [sp, #36]	; 0x24
  64:	300c      	adds	r0, #12
  66:	f7ff fffe 	bl	0 <<app::mynewt_hal::MynewtGPIO as embedded_hal::digital::v2::OutputPin>::set_low>
  6a:	9004      	str	r0, [sp, #16]
  6c:	e7ff      	b.n	6e <st7735_lcd::ST7735<SPI,DC,RST>::hard_reset+0x6e>
  6e:	9804      	ldr	r0, [sp, #16]
  70:	f7ff fffe 	bl	0 <core::result::Result<T,E>::map_err>
  74:	9003      	str	r0, [sp, #12]
  76:	e7ff      	b.n	78 <st7735_lcd::ST7735<SPI,DC,RST>::hard_reset+0x78>
  78:	9803      	ldr	r0, [sp, #12]
  7a:	f000 0001 	and.w	r0, r0, #1
  7e:	f7ff fffe 	bl	0 <<core::result::Result<T,E> as core::ops::try::Try>::into_result>
  82:	f88d 0037 	strb.w	r0, [sp, #55]	; 0x37
  86:	e7ff      	b.n	88 <st7735_lcd::ST7735<SPI,DC,RST>::hard_reset+0x88>
  88:	f89d 0037 	ldrb.w	r0, [sp, #55]	; 0x37
  8c:	07c1      	lsls	r1, r0, #31
  8e:	2900      	cmp	r1, #0
  90:	9002      	str	r0, [sp, #8]
  92:	d00d      	beq.n	b0 <st7735_lcd::ST7735<SPI,DC,RST>::hard_reset+0xb0>
  94:	e7ff      	b.n	96 <st7735_lcd::ST7735<SPI,DC,RST>::hard_reset+0x96>
  96:	9802      	ldr	r0, [sp, #8]
  98:	2801      	cmp	r0, #1
  9a:	d1d4      	bne.n	46 <st7735_lcd::ST7735<SPI,DC,RST>::hard_reset+0x46>
  9c:	e7ff      	b.n	9e <st7735_lcd::ST7735<SPI,DC,RST>::hard_reset+0x9e>
  9e:	f7ff fffe 	bl	0 <<T as core::convert::From<T>>::from>
  a2:	e7ff      	b.n	2 <<core::result::Result<T,E> as core::ops::try::Try>::from_error+0x2>
  a4:	f7ff fffe 	bl	0 <<core::result::Result<T,E> as core::ops::try::Try>::from_error>
  a8:	f88d 002a 	strb.w	r0, [sp, #42]	; 0x2a
  ac:	e7ff      	b.n	ae <st7735_lcd::ST7735<SPI,DC,RST>::hard_reset+0xae>
  ae:	e7d4      	b.n	5a <st7735_lcd::ST7735<SPI,DC,RST>::hard_reset+0x5a>
/Users/Luppy/.cargo/registry/src/github.com-1ecc6299db9ec823/st7735-lcd-0.6.1/src/lib.rs:121
        self.rst.set_high().map_err(|_| ())
  b0:	9809      	ldr	r0, [sp, #36]	; 0x24
  b2:	300c      	adds	r0, #12
  b4:	f7ff fffe 	bl	0 <<app::mynewt_hal::MynewtGPIO as embedded_hal::digital::v2::OutputPin>::set_high>
  b8:	9001      	str	r0, [sp, #4]
  ba:	e7ff      	b.n	bc <st7735_lcd::ST7735<SPI,DC,RST>::hard_reset+0xbc>
  bc:	9801      	ldr	r0, [sp, #4]
  be:	f7ff fffe 	bl	0 <core::result::Result<T,E>::map_err>
  c2:	f88d 002a 	strb.w	r0, [sp, #42]	; 0x2a
  c6:	e7ff      	b.n	c8 <st7735_lcd::ST7735<SPI,DC,RST>::hard_reset+0xc8>
/Users/Luppy/.cargo/registry/src/github.com-1ecc6299db9ec823/st7735-lcd-0.6.1/src/lib.rs:122
    }
  c8:	e7c7      	b.n	5a <st7735_lcd::ST7735<SPI,DC,RST>::hard_reset+0x5a>

Disassembly of section .text._ZN10st7735_lcd28ST7735$LT$SPI$C$DC$C$RST$GT$10hard_reset28_$u7b$$u7b$closure$u7d$$u7d$17hc5664bb9f9414dfbE:

00000000 <st7735_lcd::ST7735<SPI,DC,RST>::hard_reset::{{closure}}>:
_ZN10st7735_lcd28ST7735$LT$SPI$C$DC$C$RST$GT$10hard_reset28_$u7b$$u7b$closure$u7d$$u7d$17hc5664bb9f9414dfbE():
/Users/Luppy/.cargo/registry/src/github.com-1ecc6299db9ec823/st7735-lcd-0.6.1/src/lib.rs:121
        self.rst.set_high().map_err(|_| ())
   0:	b083      	sub	sp, #12
   2:	4601      	mov	r1, r0
   4:	9002      	str	r0, [sp, #8]
   6:	9100      	str	r1, [sp, #0]
   8:	e7ff      	b.n	a <st7735_lcd::ST7735<SPI,DC,RST>::hard_reset::{{closure}}+0xa>
   a:	b003      	add	sp, #12
   c:	4770      	bx	lr

Disassembly of section .text._ZN10st7735_lcd28ST7735$LT$SPI$C$DC$C$RST$GT$10hard_reset28_$u7b$$u7b$closure$u7d$$u7d$17hd46d896a3ef8f1ceE:

00000000 <st7735_lcd::ST7735<SPI,DC,RST>::hard_reset::{{closure}}>:
_ZN10st7735_lcd28ST7735$LT$SPI$C$DC$C$RST$GT$10hard_reset28_$u7b$$u7b$closure$u7d$$u7d$17hd46d896a3ef8f1ceE():
/Users/Luppy/.cargo/registry/src/github.com-1ecc6299db9ec823/st7735-lcd-0.6.1/src/lib.rs:120
        self.rst.set_low().map_err(|_| ())?;
   0:	b083      	sub	sp, #12
   2:	4601      	mov	r1, r0
   4:	9002      	str	r0, [sp, #8]
   6:	9100      	str	r1, [sp, #0]
   8:	e7ff      	b.n	a <st7735_lcd::ST7735<SPI,DC,RST>::hard_reset::{{closure}}+0xa>
   a:	b003      	add	sp, #12
   c:	4770      	bx	lr

Disassembly of section .text._ZN10st7735_lcd28ST7735$LT$SPI$C$DC$C$RST$GT$10hard_reset28_$u7b$$u7b$closure$u7d$$u7d$17hdd80abbc8bfaee4eE:

00000000 <st7735_lcd::ST7735<SPI,DC,RST>::hard_reset::{{closure}}>:
_ZN10st7735_lcd28ST7735$LT$SPI$C$DC$C$RST$GT$10hard_reset28_$u7b$$u7b$closure$u7d$$u7d$17hdd80abbc8bfaee4eE():
/Users/Luppy/.cargo/registry/src/github.com-1ecc6299db9ec823/st7735-lcd-0.6.1/src/lib.rs:119
        self.rst.set_high().map_err(|_| ())?;
   0:	b083      	sub	sp, #12
   2:	4601      	mov	r1, r0
   4:	9002      	str	r0, [sp, #8]
   6:	9100      	str	r1, [sp, #0]
   8:	e7ff      	b.n	a <st7735_lcd::ST7735<SPI,DC,RST>::hard_reset::{{closure}}+0xa>
   a:	b003      	add	sp, #12
   c:	4770      	bx	lr

Disassembly of section .text._ZN10st7735_lcd28ST7735$LT$SPI$C$DC$C$RST$GT$10set_offset17h21804224a384e577E:

00000000 <st7735_lcd::ST7735<SPI,DC,RST>::set_offset>:
_ZN10st7735_lcd28ST7735$LT$SPI$C$DC$C$RST$GT$10set_offset17h21804224a384e577E():
/Users/Luppy/.cargo/registry/src/github.com-1ecc6299db9ec823/st7735-lcd-0.6.1/src/lib.rs:158
        }
        Ok(())
    }

    /// Sets the global offset of the displayed image
    pub fn set_offset(&mut self, dx: u16, dy: u16) {
   0:	b580      	push	{r7, lr}
   2:	b085      	sub	sp, #20
   4:	4613      	mov	r3, r2
   6:	468c      	mov	ip, r1
   8:	4686      	mov	lr, r0
   a:	9003      	str	r0, [sp, #12]
   c:	f8ad 1010 	strh.w	r1, [sp, #16]
  10:	f8ad 2012 	strh.w	r2, [sp, #18]
/Users/Luppy/.cargo/registry/src/github.com-1ecc6299db9ec823/st7735-lcd-0.6.1/src/lib.rs:159
        self.dx = dx;
  14:	f8bd 0010 	ldrh.w	r0, [sp, #16]
  18:	9903      	ldr	r1, [sp, #12]
  1a:	8208      	strh	r0, [r1, #16]
/Users/Luppy/.cargo/registry/src/github.com-1ecc6299db9ec823/st7735-lcd-0.6.1/src/lib.rs:160
        self.dy = dy;
  1c:	f8bd 0012 	ldrh.w	r0, [sp, #18]
  20:	9903      	ldr	r1, [sp, #12]
  22:	8248      	strh	r0, [r1, #18]
/Users/Luppy/.cargo/registry/src/github.com-1ecc6299db9ec823/st7735-lcd-0.6.1/src/lib.rs:161
    }
  24:	9302      	str	r3, [sp, #8]
  26:	f8cd c004 	str.w	ip, [sp, #4]
  2a:	f8cd e000 	str.w	lr, [sp]
  2e:	b005      	add	sp, #20
  30:	bd80      	pop	{r7, pc}

Disassembly of section .text._ZN10st7735_lcd28ST7735$LT$SPI$C$DC$C$RST$GT$10write_data17h524a6a341663fa8dE:

00000000 <st7735_lcd::ST7735<SPI,DC,RST>::write_data>:
_ZN10st7735_lcd28ST7735$LT$SPI$C$DC$C$RST$GT$10write_data17h524a6a341663fa8dE():
/Users/Luppy/.cargo/registry/src/github.com-1ecc6299db9ec823/st7735-lcd-0.6.1/src/lib.rs:133
    fn write_data(&mut self, data: &[u8]) -> Result<(), ()> {
   0:	b580      	push	{r7, lr}
   2:	b090      	sub	sp, #64	; 0x40
   4:	4613      	mov	r3, r2
   6:	468c      	mov	ip, r1
   8:	4686      	mov	lr, r0
   a:	9008      	str	r0, [sp, #32]
   c:	9109      	str	r1, [sp, #36]	; 0x24
   e:	920a      	str	r2, [sp, #40]	; 0x28
/Users/Luppy/.cargo/registry/src/github.com-1ecc6299db9ec823/st7735-lcd-0.6.1/src/lib.rs:134
        self.dc.set_high().map_err(|_| ())?;
  10:	9808      	ldr	r0, [sp, #32]
  12:	3008      	adds	r0, #8
  14:	9307      	str	r3, [sp, #28]
  16:	f8cd c018 	str.w	ip, [sp, #24]
  1a:	f8cd e014 	str.w	lr, [sp, #20]
  1e:	f7ff fffe 	bl	0 <<app::mynewt_hal::MynewtGPIO as embedded_hal::digital::v2::OutputPin>::set_high>
  22:	9004      	str	r0, [sp, #16]
  24:	e7ff      	b.n	26 <st7735_lcd::ST7735<SPI,DC,RST>::write_data+0x26>
  26:	9804      	ldr	r0, [sp, #16]
  28:	f7ff fffe 	bl	0 <core::result::Result<T,E>::map_err>
  2c:	9003      	str	r0, [sp, #12]
  2e:	e7ff      	b.n	30 <st7735_lcd::ST7735<SPI,DC,RST>::write_data+0x30>
  30:	9803      	ldr	r0, [sp, #12]
  32:	f000 0001 	and.w	r0, r0, #1
  36:	f7ff fffe 	bl	0 <<core::result::Result<T,E> as core::ops::try::Try>::into_result>
  3a:	f88d 002f 	strb.w	r0, [sp, #47]	; 0x2f
  3e:	e7ff      	b.n	40 <st7735_lcd::ST7735<SPI,DC,RST>::write_data+0x40>
  40:	f89d 002f 	ldrb.w	r0, [sp, #47]	; 0x2f
  44:	07c1      	lsls	r1, r0, #31
  46:	2900      	cmp	r1, #0
  48:	9002      	str	r0, [sp, #8]
  4a:	d012      	beq.n	72 <st7735_lcd::ST7735<SPI,DC,RST>::write_data+0x72>
  4c:	e7ff      	b.n	4e <st7735_lcd::ST7735<SPI,DC,RST>::write_data+0x4e>
  4e:	9802      	ldr	r0, [sp, #8]
  50:	2801      	cmp	r0, #1
  52:	d001      	beq.n	58 <st7735_lcd::ST7735<SPI,DC,RST>::write_data+0x58>
  54:	e7ff      	b.n	56 <st7735_lcd::ST7735<SPI,DC,RST>::write_data+0x56>
/Users/Luppy/.cargo/registry/src/github.com-1ecc6299db9ec823/st7735-lcd-0.6.1/src/lib.rs:136
    }
  56:	defe      	udf	#254	; 0xfe
/Users/Luppy/.cargo/registry/src/github.com-1ecc6299db9ec823/st7735-lcd-0.6.1/src/lib.rs:134
        self.dc.set_high().map_err(|_| ())?;
  58:	f7ff fffe 	bl	0 <<T as core::convert::From<T>>::from>
  5c:	e7ff      	b.n	2 <<core::result::Result<T,E> as core::ops::try::Try>::from_error+0x2>
  5e:	f7ff fffe 	bl	0 <<core::result::Result<T,E> as core::ops::try::Try>::from_error>
  62:	f88d 002e 	strb.w	r0, [sp, #46]	; 0x2e
  66:	e7ff      	b.n	68 <st7735_lcd::ST7735<SPI,DC,RST>::write_data+0x68>
  68:	e7ff      	b.n	6a <st7735_lcd::ST7735<SPI,DC,RST>::write_data+0x6a>
/Users/Luppy/.cargo/registry/src/github.com-1ecc6299db9ec823/st7735-lcd-0.6.1/src/lib.rs:136
    }
  6a:	f89d 002e 	ldrb.w	r0, [sp, #46]	; 0x2e
  6e:	b010      	add	sp, #64	; 0x40
  70:	bd80      	pop	{r7, pc}
/Users/Luppy/.cargo/registry/src/github.com-1ecc6299db9ec823/st7735-lcd-0.6.1/src/lib.rs:135
        self.spi.write(data).map_err(|_| ())
  72:	9808      	ldr	r0, [sp, #32]
  74:	9909      	ldr	r1, [sp, #36]	; 0x24
  76:	9a0a      	ldr	r2, [sp, #40]	; 0x28
  78:	f7ff fffe 	bl	0 <<app::mynewt_hal::MynewtSPI as embedded_hal::blocking::spi::Write<u8>>::write>
  7c:	9001      	str	r0, [sp, #4]
  7e:	e7ff      	b.n	80 <st7735_lcd::ST7735<SPI,DC,RST>::write_data+0x80>
  80:	9801      	ldr	r0, [sp, #4]
  82:	f7ff fffe 	bl	0 <core::result::Result<T,E>::map_err>
  86:	f88d 002e 	strb.w	r0, [sp, #46]	; 0x2e
  8a:	e7ff      	b.n	8c <st7735_lcd::ST7735<SPI,DC,RST>::write_data+0x8c>
/Users/Luppy/.cargo/registry/src/github.com-1ecc6299db9ec823/st7735-lcd-0.6.1/src/lib.rs:136
    }
  8c:	e7ed      	b.n	6a <st7735_lcd::ST7735<SPI,DC,RST>::write_data+0x6a>

Disassembly of section .text._ZN10st7735_lcd28ST7735$LT$SPI$C$DC$C$RST$GT$10write_data28_$u7b$$u7b$closure$u7d$$u7d$17h650cbcd208fc79f2E:

00000000 <st7735_lcd::ST7735<SPI,DC,RST>::write_data::{{closure}}>:
_ZN10st7735_lcd28ST7735$LT$SPI$C$DC$C$RST$GT$10write_data28_$u7b$$u7b$closure$u7d$$u7d$17h650cbcd208fc79f2E():
/Users/Luppy/.cargo/registry/src/github.com-1ecc6299db9ec823/st7735-lcd-0.6.1/src/lib.rs:135
        self.spi.write(data).map_err(|_| ())
   0:	b083      	sub	sp, #12
   2:	4601      	mov	r1, r0
   4:	9002      	str	r0, [sp, #8]
   6:	9100      	str	r1, [sp, #0]
   8:	e7ff      	b.n	a <st7735_lcd::ST7735<SPI,DC,RST>::write_data::{{closure}}+0xa>
   a:	b003      	add	sp, #12
   c:	4770      	bx	lr

Disassembly of section .text._ZN10st7735_lcd28ST7735$LT$SPI$C$DC$C$RST$GT$10write_data28_$u7b$$u7b$closure$u7d$$u7d$17hbd6a195e39b11d95E:

00000000 <st7735_lcd::ST7735<SPI,DC,RST>::write_data::{{closure}}>:
_ZN10st7735_lcd28ST7735$LT$SPI$C$DC$C$RST$GT$10write_data28_$u7b$$u7b$closure$u7d$$u7d$17hbd6a195e39b11d95E():
/Users/Luppy/.cargo/registry/src/github.com-1ecc6299db9ec823/st7735-lcd-0.6.1/src/lib.rs:134
        self.dc.set_high().map_err(|_| ())?;
   0:	b083      	sub	sp, #12
   2:	4601      	mov	r1, r0
   4:	9002      	str	r0, [sp, #8]
   6:	9100      	str	r1, [sp, #0]
   8:	e7ff      	b.n	a <st7735_lcd::ST7735<SPI,DC,RST>::write_data::{{closure}}+0xa>
   a:	b003      	add	sp, #12
   c:	4770      	bx	lr

Disassembly of section .text._ZN10st7735_lcd28ST7735$LT$SPI$C$DC$C$RST$GT$10write_word17h4a7e693dcef3b8b2E:

00000000 <st7735_lcd::ST7735<SPI,DC,RST>::write_word>:
_ZN10st7735_lcd28ST7735$LT$SPI$C$DC$C$RST$GT$10write_word17h4a7e693dcef3b8b2E():
/Users/Luppy/.cargo/registry/src/github.com-1ecc6299db9ec823/st7735-lcd-0.6.1/src/lib.rs:139
    fn write_word(&mut self, value: u16) -> Result<(), ()> {
   0:	b580      	push	{r7, lr}
   2:	b086      	sub	sp, #24
   4:	460a      	mov	r2, r1
   6:	4603      	mov	r3, r0
   8:	9004      	str	r0, [sp, #16]
   a:	f8ad 1014 	strh.w	r1, [sp, #20]
/Users/Luppy/.cargo/registry/src/github.com-1ecc6299db9ec823/st7735-lcd-0.6.1/src/lib.rs:140
        let bytes: [u8; 2] = unsafe { transmute(value.to_be()) };
   e:	f8bd 0014 	ldrh.w	r0, [sp, #20]
  12:	9203      	str	r2, [sp, #12]
  14:	9302      	str	r3, [sp, #8]
  16:	f7ff fffe 	bl	0 <core::num::<impl u16>::to_be>
  1a:	9001      	str	r0, [sp, #4]
  1c:	e7ff      	b.n	1e <st7735_lcd::ST7735<SPI,DC,RST>::write_word+0x1e>
  1e:	9801      	ldr	r0, [sp, #4]
  20:	f8ad 0016 	strh.w	r0, [sp, #22]
  24:	e7ff      	b.n	26 <st7735_lcd::ST7735<SPI,DC,RST>::write_word+0x26>
/Users/Luppy/.cargo/registry/src/github.com-1ecc6299db9ec823/st7735-lcd-0.6.1/src/lib.rs:141
        self.write_data(&bytes)
  26:	9804      	ldr	r0, [sp, #16]
  28:	f10d 0116 	add.w	r1, sp, #22
  2c:	2202      	movs	r2, #2
  2e:	f7ff fffe 	bl	0 <st7735_lcd::ST7735<SPI,DC,RST>::write_word>
  32:	9000      	str	r0, [sp, #0]
  34:	e7ff      	b.n	36 <st7735_lcd::ST7735<SPI,DC,RST>::write_word+0x36>
/Users/Luppy/.cargo/registry/src/github.com-1ecc6299db9ec823/st7735-lcd-0.6.1/src/lib.rs:142
    }
  36:	9800      	ldr	r0, [sp, #0]
  38:	f000 0001 	and.w	r0, r0, #1
  3c:	b006      	add	sp, #24
  3e:	bd80      	pop	{r7, pc}

Disassembly of section .text._ZN10st7735_lcd28ST7735$LT$SPI$C$DC$C$RST$GT$13write_command17h5eb0c63abd3c8024E:

00000000 <st7735_lcd::ST7735<SPI,DC,RST>::write_command>:
_ZN10st7735_lcd28ST7735$LT$SPI$C$DC$C$RST$GT$13write_command17h5eb0c63abd3c8024E():
/Users/Luppy/.cargo/registry/src/github.com-1ecc6299db9ec823/st7735-lcd-0.6.1/src/lib.rs:124
    fn write_command(&mut self, command: Instruction, params: Option<&[u8]>) -> Result<(), ()> {
   0:	b5b0      	push	{r4, r5, r7, lr}
   2:	b0a2      	sub	sp, #136	; 0x88
   4:	469c      	mov	ip, r3
   6:	4696      	mov	lr, r2
   8:	460c      	mov	r4, r1
   a:	4605      	mov	r5, r0
   c:	9014      	str	r0, [sp, #80]	; 0x50
   e:	f88d 1057 	strb.w	r1, [sp, #87]	; 0x57
  12:	9216      	str	r2, [sp, #88]	; 0x58
  14:	9317      	str	r3, [sp, #92]	; 0x5c
/Users/Luppy/.cargo/registry/src/github.com-1ecc6299db9ec823/st7735-lcd-0.6.1/src/lib.rs:125
        self.dc.set_low().map_err(|_| ())?;
  16:	9814      	ldr	r0, [sp, #80]	; 0x50
  18:	3008      	adds	r0, #8
  1a:	f8cd c04c 	str.w	ip, [sp, #76]	; 0x4c
  1e:	f8cd e048 	str.w	lr, [sp, #72]	; 0x48
  22:	9411      	str	r4, [sp, #68]	; 0x44
  24:	9510      	str	r5, [sp, #64]	; 0x40
  26:	f7ff fffe 	bl	0 <<app::mynewt_hal::MynewtGPIO as embedded_hal::digital::v2::OutputPin>::set_low>
  2a:	900f      	str	r0, [sp, #60]	; 0x3c
  2c:	e7ff      	b.n	2e <st7735_lcd::ST7735<SPI,DC,RST>::write_command+0x2e>
  2e:	980f      	ldr	r0, [sp, #60]	; 0x3c
  30:	f7ff fffe 	bl	0 <core::result::Result<T,E>::map_err>
  34:	900e      	str	r0, [sp, #56]	; 0x38
  36:	e7ff      	b.n	38 <st7735_lcd::ST7735<SPI,DC,RST>::write_command+0x38>
  38:	980e      	ldr	r0, [sp, #56]	; 0x38
  3a:	f000 0001 	and.w	r0, r0, #1
  3e:	f7ff fffe 	bl	0 <<core::result::Result<T,E> as core::ops::try::Try>::into_result>
  42:	f88d 0063 	strb.w	r0, [sp, #99]	; 0x63
  46:	e7ff      	b.n	48 <st7735_lcd::ST7735<SPI,DC,RST>::write_command+0x48>
  48:	f89d 0063 	ldrb.w	r0, [sp, #99]	; 0x63
  4c:	07c1      	lsls	r1, r0, #31
  4e:	2900      	cmp	r1, #0
  50:	900d      	str	r0, [sp, #52]	; 0x34
  52:	d012      	beq.n	7a <st7735_lcd::ST7735<SPI,DC,RST>::write_command+0x7a>
  54:	e7ff      	b.n	56 <st7735_lcd::ST7735<SPI,DC,RST>::write_command+0x56>
  56:	980d      	ldr	r0, [sp, #52]	; 0x34
  58:	2801      	cmp	r0, #1
  5a:	d001      	beq.n	60 <st7735_lcd::ST7735<SPI,DC,RST>::write_command+0x60>
  5c:	e7ff      	b.n	5e <st7735_lcd::ST7735<SPI,DC,RST>::write_command+0x5e>
/Users/Luppy/.cargo/registry/src/github.com-1ecc6299db9ec823/st7735-lcd-0.6.1/src/lib.rs:131
    }
  5e:	defe      	udf	#254	; 0xfe
/Users/Luppy/.cargo/registry/src/github.com-1ecc6299db9ec823/st7735-lcd-0.6.1/src/lib.rs:125
        self.dc.set_low().map_err(|_| ())?;
  60:	f7ff fffe 	bl	0 <<T as core::convert::From<T>>::from>
  64:	e7ff      	b.n	2 <<core::result::Result<T,E> as core::ops::try::Try>::from_error+0x2>
  66:	f7ff fffe 	bl	0 <<core::result::Result<T,E> as core::ops::try::Try>::from_error>
  6a:	f88d 0062 	strb.w	r0, [sp, #98]	; 0x62
  6e:	e7ff      	b.n	70 <st7735_lcd::ST7735<SPI,DC,RST>::write_command+0x70>
  70:	e7ff      	b.n	72 <st7735_lcd::ST7735<SPI,DC,RST>::write_command+0x72>
/Users/Luppy/.cargo/registry/src/github.com-1ecc6299db9ec823/st7735-lcd-0.6.1/src/lib.rs:131
    }
  72:	f89d 0062 	ldrb.w	r0, [sp, #98]	; 0x62
  76:	b022      	add	sp, #136	; 0x88
  78:	bdb0      	pop	{r4, r5, r7, pc}
/Users/Luppy/.cargo/registry/src/github.com-1ecc6299db9ec823/st7735-lcd-0.6.1/src/lib.rs:126
        self.spi.write(&[command.to_u8().unwrap()]).map_err(|_| ())?;
  7a:	9814      	ldr	r0, [sp, #80]	; 0x50
  7c:	f10d 0157 	add.w	r1, sp, #87	; 0x57
  80:	900c      	str	r0, [sp, #48]	; 0x30
  82:	4608      	mov	r0, r1
  84:	f7ff fffe 	bl	0 <num_traits::cast::ToPrimitive::to_u8>
  88:	900b      	str	r0, [sp, #44]	; 0x2c
  8a:	910a      	str	r1, [sp, #40]	; 0x28
  8c:	e7ff      	b.n	8e <st7735_lcd::ST7735<SPI,DC,RST>::write_command+0x8e>
  8e:	980b      	ldr	r0, [sp, #44]	; 0x2c
  90:	f000 0001 	and.w	r0, r0, #1
  94:	990a      	ldr	r1, [sp, #40]	; 0x28
  96:	f7ff fffe 	bl	0 <core::option::Option<T>::unwrap>
  9a:	9009      	str	r0, [sp, #36]	; 0x24
  9c:	e7ff      	b.n	9e <st7735_lcd::ST7735<SPI,DC,RST>::write_command+0x9e>
  9e:	9809      	ldr	r0, [sp, #36]	; 0x24
  a0:	f88d 006f 	strb.w	r0, [sp, #111]	; 0x6f
  a4:	f10d 016f 	add.w	r1, sp, #111	; 0x6f
  a8:	2201      	movs	r2, #1
  aa:	980c      	ldr	r0, [sp, #48]	; 0x30
  ac:	f7ff fffe 	bl	0 <<app::mynewt_hal::MynewtSPI as embedded_hal::blocking::spi::Write<u8>>::write>
  b0:	9008      	str	r0, [sp, #32]
  b2:	e7ff      	b.n	b4 <st7735_lcd::ST7735<SPI,DC,RST>::write_command+0xb4>
  b4:	9808      	ldr	r0, [sp, #32]
  b6:	f7ff fffe 	bl	0 <core::result::Result<T,E>::map_err>
  ba:	9007      	str	r0, [sp, #28]
  bc:	e7ff      	b.n	be <st7735_lcd::ST7735<SPI,DC,RST>::write_command+0xbe>
  be:	9807      	ldr	r0, [sp, #28]
  c0:	f000 0001 	and.w	r0, r0, #1
  c4:	f7ff fffe 	bl	0 <<core::result::Result<T,E> as core::ops::try::Try>::into_result>
  c8:	f88d 006e 	strb.w	r0, [sp, #110]	; 0x6e
  cc:	e7ff      	b.n	ce <st7735_lcd::ST7735<SPI,DC,RST>::write_command+0xce>
  ce:	f89d 006e 	ldrb.w	r0, [sp, #110]	; 0x6e
  d2:	07c1      	lsls	r1, r0, #31
  d4:	2900      	cmp	r1, #0
  d6:	9006      	str	r0, [sp, #24]
  d8:	d00d      	beq.n	f6 <st7735_lcd::ST7735<SPI,DC,RST>::write_command+0xf6>
  da:	e7ff      	b.n	dc <st7735_lcd::ST7735<SPI,DC,RST>::write_command+0xdc>
  dc:	9806      	ldr	r0, [sp, #24]
  de:	2801      	cmp	r0, #1
  e0:	d1bd      	bne.n	5e <st7735_lcd::ST7735<SPI,DC,RST>::write_command+0x5e>
  e2:	e7ff      	b.n	e4 <st7735_lcd::ST7735<SPI,DC,RST>::write_command+0xe4>
  e4:	f7ff fffe 	bl	0 <<T as core::convert::From<T>>::from>
  e8:	e7ff      	b.n	2 <<core::result::Result<T,E> as core::ops::try::Try>::from_error+0x2>
  ea:	f7ff fffe 	bl	0 <<core::result::Result<T,E> as core::ops::try::Try>::from_error>
  ee:	f88d 0062 	strb.w	r0, [sp, #98]	; 0x62
  f2:	e7ff      	b.n	f4 <st7735_lcd::ST7735<SPI,DC,RST>::write_command+0xf4>
  f4:	e7bd      	b.n	72 <st7735_lcd::ST7735<SPI,DC,RST>::write_command+0x72>
  f6:	a816      	add	r0, sp, #88	; 0x58
/Users/Luppy/.cargo/registry/src/github.com-1ecc6299db9ec823/st7735-lcd-0.6.1/src/lib.rs:127
        if params.is_some() {
  f8:	f7ff fffe 	bl	0 <core::option::Option<T>::is_some>
  fc:	9005      	str	r0, [sp, #20]
  fe:	e7ff      	b.n	100 <st7735_lcd::ST7735<SPI,DC,RST>::write_command+0x100>
 100:	9805      	ldr	r0, [sp, #20]
 102:	07c1      	lsls	r1, r0, #31
 104:	2900      	cmp	r1, #0
 106:	d030      	beq.n	16a <st7735_lcd::ST7735<SPI,DC,RST>::write_command+0x16a>
 108:	e7ff      	b.n	10a <st7735_lcd::ST7735<SPI,DC,RST>::write_command+0x10a>
/Users/Luppy/.cargo/registry/src/github.com-1ecc6299db9ec823/st7735-lcd-0.6.1/src/lib.rs:128
            self.write_data(params.unwrap())?;
 10a:	9814      	ldr	r0, [sp, #80]	; 0x50
 10c:	9916      	ldr	r1, [sp, #88]	; 0x58
 10e:	9a17      	ldr	r2, [sp, #92]	; 0x5c
 110:	9004      	str	r0, [sp, #16]
 112:	4608      	mov	r0, r1
 114:	4611      	mov	r1, r2
 116:	f7ff fffe 	bl	0 <core::option::Option<T>::unwrap>
 11a:	9003      	str	r0, [sp, #12]
 11c:	9102      	str	r1, [sp, #8]
 11e:	e7ff      	b.n	120 <st7735_lcd::ST7735<SPI,DC,RST>::write_command+0x120>
 120:	9804      	ldr	r0, [sp, #16]
 122:	9903      	ldr	r1, [sp, #12]
 124:	9a02      	ldr	r2, [sp, #8]
 126:	f7ff fffe 	bl	0 <st7735_lcd::ST7735<SPI,DC,RST>::write_command>
 12a:	9001      	str	r0, [sp, #4]
 12c:	e7ff      	b.n	12e <st7735_lcd::ST7735<SPI,DC,RST>::write_command+0x12e>
 12e:	9801      	ldr	r0, [sp, #4]
 130:	f000 0001 	and.w	r0, r0, #1
 134:	f7ff fffe 	bl	0 <<core::result::Result<T,E> as core::ops::try::Try>::into_result>
 138:	f88d 007b 	strb.w	r0, [sp, #123]	; 0x7b
 13c:	e7ff      	b.n	13e <st7735_lcd::ST7735<SPI,DC,RST>::write_command+0x13e>
 13e:	f89d 007b 	ldrb.w	r0, [sp, #123]	; 0x7b
 142:	07c1      	lsls	r1, r0, #31
 144:	2900      	cmp	r1, #0
 146:	9000      	str	r0, [sp, #0]
 148:	d00e      	beq.n	168 <st7735_lcd::ST7735<SPI,DC,RST>::write_command+0x168>
 14a:	e7ff      	b.n	14c <st7735_lcd::ST7735<SPI,DC,RST>::write_command+0x14c>
 14c:	9800      	ldr	r0, [sp, #0]
 14e:	2801      	cmp	r0, #1
 150:	f47f af85 	bne.w	5e <st7735_lcd::ST7735<SPI,DC,RST>::write_command+0x5e>
 154:	e7ff      	b.n	2 <<T as core::convert::From<T>>::from+0x2>
 156:	f7ff fffe 	bl	0 <<T as core::convert::From<T>>::from>
 15a:	e7ff      	b.n	2 <<core::result::Result<T,E> as core::ops::try::Try>::from_error+0x2>
 15c:	f7ff fffe 	bl	0 <<core::result::Result<T,E> as core::ops::try::Try>::from_error>
 160:	f88d 0062 	strb.w	r0, [sp, #98]	; 0x62
 164:	e7ff      	b.n	166 <st7735_lcd::ST7735<SPI,DC,RST>::write_command+0x166>
 166:	e784      	b.n	72 <st7735_lcd::ST7735<SPI,DC,RST>::write_command+0x72>
/Users/Luppy/.cargo/registry/src/github.com-1ecc6299db9ec823/st7735-lcd-0.6.1/src/lib.rs:127
        if params.is_some() {
 168:	e7ff      	b.n	16a <st7735_lcd::ST7735<SPI,DC,RST>::write_command+0x16a>
 16a:	2000      	movs	r0, #0
/Users/Luppy/.cargo/registry/src/github.com-1ecc6299db9ec823/st7735-lcd-0.6.1/src/lib.rs:130
        Ok(())
 16c:	f88d 0062 	strb.w	r0, [sp, #98]	; 0x62
/Users/Luppy/.cargo/registry/src/github.com-1ecc6299db9ec823/st7735-lcd-0.6.1/src/lib.rs:131
    }
 170:	e77f      	b.n	72 <st7735_lcd::ST7735<SPI,DC,RST>::write_command+0x72>

Disassembly of section .text._ZN10st7735_lcd28ST7735$LT$SPI$C$DC$C$RST$GT$13write_command28_$u7b$$u7b$closure$u7d$$u7d$17h25079c64f48e2241E:

00000000 <st7735_lcd::ST7735<SPI,DC,RST>::write_command::{{closure}}>:
_ZN10st7735_lcd28ST7735$LT$SPI$C$DC$C$RST$GT$13write_command28_$u7b$$u7b$closure$u7d$$u7d$17h25079c64f48e2241E():
/Users/Luppy/.cargo/registry/src/github.com-1ecc6299db9ec823/st7735-lcd-0.6.1/src/lib.rs:126
        self.spi.write(&[command.to_u8().unwrap()]).map_err(|_| ())?;
   0:	b083      	sub	sp, #12
   2:	4601      	mov	r1, r0
   4:	9002      	str	r0, [sp, #8]
   6:	9100      	str	r1, [sp, #0]
   8:	e7ff      	b.n	a <st7735_lcd::ST7735<SPI,DC,RST>::write_command::{{closure}}+0xa>
   a:	b003      	add	sp, #12
   c:	4770      	bx	lr

Disassembly of section .text._ZN10st7735_lcd28ST7735$LT$SPI$C$DC$C$RST$GT$13write_command28_$u7b$$u7b$closure$u7d$$u7d$17h5b3ed9e2fe632613E:

00000000 <st7735_lcd::ST7735<SPI,DC,RST>::write_command::{{closure}}>:
_ZN10st7735_lcd28ST7735$LT$SPI$C$DC$C$RST$GT$13write_command28_$u7b$$u7b$closure$u7d$$u7d$17h5b3ed9e2fe632613E():
/Users/Luppy/.cargo/registry/src/github.com-1ecc6299db9ec823/st7735-lcd-0.6.1/src/lib.rs:125
        self.dc.set_low().map_err(|_| ())?;
   0:	b083      	sub	sp, #12
   2:	4601      	mov	r1, r0
   4:	9002      	str	r0, [sp, #8]
   6:	9100      	str	r1, [sp, #0]
   8:	e7ff      	b.n	a <st7735_lcd::ST7735<SPI,DC,RST>::write_command::{{closure}}+0xa>
   a:	b003      	add	sp, #12
   c:	4770      	bx	lr

Disassembly of section .text._ZN10st7735_lcd28ST7735$LT$SPI$C$DC$C$RST$GT$15set_orientation17h633063f4b0b43e09E:

00000000 <st7735_lcd::ST7735<SPI,DC,RST>::set_orientation>:
_ZN10st7735_lcd28ST7735$LT$SPI$C$DC$C$RST$GT$15set_orientation17h633063f4b0b43e09E():
/Users/Luppy/.cargo/registry/src/github.com-1ecc6299db9ec823/st7735-lcd-0.6.1/src/lib.rs:144
    pub fn set_orientation(&mut self, orientation: &Orientation) -> Result<(), ()> {
   0:	b580      	push	{r7, lr}
   2:	b09c      	sub	sp, #112	; 0x70
   4:	460a      	mov	r2, r1
   6:	4603      	mov	r3, r0
   8:	900e      	str	r0, [sp, #56]	; 0x38
   a:	910f      	str	r1, [sp, #60]	; 0x3c
/Users/Luppy/.cargo/registry/src/github.com-1ecc6299db9ec823/st7735-lcd-0.6.1/src/lib.rs:145
        if self.rgb {
   c:	980e      	ldr	r0, [sp, #56]	; 0x38
   e:	7d00      	ldrb	r0, [r0, #20]
  10:	07c0      	lsls	r0, r0, #31
  12:	2800      	cmp	r0, #0
  14:	920d      	str	r2, [sp, #52]	; 0x34
  16:	930c      	str	r3, [sp, #48]	; 0x30
  18:	d048      	beq.n	ac <st7735_lcd::ST7735<SPI,DC,RST>::set_orientation+0xac>
  1a:	e7ff      	b.n	1c <st7735_lcd::ST7735<SPI,DC,RST>::set_orientation+0x1c>
/Users/Luppy/.cargo/registry/src/github.com-1ecc6299db9ec823/st7735-lcd-0.6.1/src/lib.rs:146
            self.write_command(
  1c:	980e      	ldr	r0, [sp, #56]	; 0x38
  1e:	2136      	movs	r1, #54	; 0x36
/Users/Luppy/.cargo/registry/src/github.com-1ecc6299db9ec823/st7735-lcd-0.6.1/src/lib.rs:147
                Instruction::MADCTL, Some(&[orientation.to_u8().unwrap()]
  20:	f88d 1043 	strb.w	r1, [sp, #67]	; 0x43
  24:	990f      	ldr	r1, [sp, #60]	; 0x3c
  26:	900b      	str	r0, [sp, #44]	; 0x2c
  28:	4608      	mov	r0, r1
  2a:	f7ff fffe 	bl	0 <st7735_lcd::ST7735<SPI,DC,RST>::set_orientation>
  2e:	900a      	str	r0, [sp, #40]	; 0x28
  30:	9109      	str	r1, [sp, #36]	; 0x24
  32:	e7ff      	b.n	34 <st7735_lcd::ST7735<SPI,DC,RST>::set_orientation+0x34>
  34:	980a      	ldr	r0, [sp, #40]	; 0x28
  36:	f000 0001 	and.w	r0, r0, #1
  3a:	9909      	ldr	r1, [sp, #36]	; 0x24
  3c:	f7ff fffe 	bl	0 <core::option::Option<T>::unwrap>
  40:	9008      	str	r0, [sp, #32]
  42:	e7ff      	b.n	44 <st7735_lcd::ST7735<SPI,DC,RST>::set_orientation+0x44>
  44:	9808      	ldr	r0, [sp, #32]
  46:	f88d 004f 	strb.w	r0, [sp, #79]	; 0x4f
  4a:	f10d 014f 	add.w	r1, sp, #79	; 0x4f
  4e:	9111      	str	r1, [sp, #68]	; 0x44
  50:	2101      	movs	r1, #1
  52:	9112      	str	r1, [sp, #72]	; 0x48
/Users/Luppy/.cargo/registry/src/github.com-1ecc6299db9ec823/st7735-lcd-0.6.1/src/lib.rs:146
            self.write_command(
  54:	9a11      	ldr	r2, [sp, #68]	; 0x44
  56:	9b12      	ldr	r3, [sp, #72]	; 0x48
  58:	f89d 1043 	ldrb.w	r1, [sp, #67]	; 0x43
  5c:	980b      	ldr	r0, [sp, #44]	; 0x2c
  5e:	f7ff fffe 	bl	0 <st7735_lcd::ST7735<SPI,DC,RST>::set_orientation>
  62:	9007      	str	r0, [sp, #28]
  64:	e7ff      	b.n	66 <st7735_lcd::ST7735<SPI,DC,RST>::set_orientation+0x66>
  66:	9807      	ldr	r0, [sp, #28]
  68:	f000 0001 	and.w	r0, r0, #1
  6c:	f7ff fffe 	bl	0 <<core::result::Result<T,E> as core::ops::try::Try>::into_result>
  70:	f88d 0042 	strb.w	r0, [sp, #66]	; 0x42
  74:	e7ff      	b.n	76 <st7735_lcd::ST7735<SPI,DC,RST>::set_orientation+0x76>
/Users/Luppy/.cargo/registry/src/github.com-1ecc6299db9ec823/st7735-lcd-0.6.1/src/lib.rs:148
            ))?;
  76:	f89d 0042 	ldrb.w	r0, [sp, #66]	; 0x42
  7a:	07c1      	lsls	r1, r0, #31
  7c:	2900      	cmp	r1, #0
  7e:	9006      	str	r0, [sp, #24]
  80:	d013      	beq.n	aa <st7735_lcd::ST7735<SPI,DC,RST>::set_orientation+0xaa>
  82:	e7ff      	b.n	84 <st7735_lcd::ST7735<SPI,DC,RST>::set_orientation+0x84>
  84:	9806      	ldr	r0, [sp, #24]
  86:	2801      	cmp	r0, #1
  88:	d001      	beq.n	8e <st7735_lcd::ST7735<SPI,DC,RST>::set_orientation+0x8e>
  8a:	e7ff      	b.n	8c <st7735_lcd::ST7735<SPI,DC,RST>::set_orientation+0x8c>
/Users/Luppy/.cargo/registry/src/github.com-1ecc6299db9ec823/st7735-lcd-0.6.1/src/lib.rs:155
    }
  8c:	defe      	udf	#254	; 0xfe
/Users/Luppy/.cargo/registry/src/github.com-1ecc6299db9ec823/st7735-lcd-0.6.1/src/lib.rs:148
            ))?;
  8e:	f7ff fffe 	bl	0 <<T as core::convert::From<T>>::from>
  92:	e7ff      	b.n	2 <<core::result::Result<T,E> as core::ops::try::Try>::from_error+0x2>
  94:	f7ff fffe 	bl	0 <<core::result::Result<T,E> as core::ops::try::Try>::from_error>
  98:	f88d 0041 	strb.w	r0, [sp, #65]	; 0x41
  9c:	e7ff      	b.n	9e <st7735_lcd::ST7735<SPI,DC,RST>::set_orientation+0x9e>
  9e:	e003      	b.n	a8 <st7735_lcd::ST7735<SPI,DC,RST>::set_orientation+0xa8>
/Users/Luppy/.cargo/registry/src/github.com-1ecc6299db9ec823/st7735-lcd-0.6.1/src/lib.rs:155
    }
  a0:	f89d 0041 	ldrb.w	r0, [sp, #65]	; 0x41
  a4:	b01c      	add	sp, #112	; 0x70
  a6:	bd80      	pop	{r7, pc}
/Users/Luppy/.cargo/registry/src/github.com-1ecc6299db9ec823/st7735-lcd-0.6.1/src/lib.rs:148
            ))?;
  a8:	e7fa      	b.n	a0 <st7735_lcd::ST7735<SPI,DC,RST>::set_orientation+0xa0>
/Users/Luppy/.cargo/registry/src/github.com-1ecc6299db9ec823/st7735-lcd-0.6.1/src/lib.rs:145
        if self.rgb {
  aa:	e043      	b.n	134 <st7735_lcd::ST7735<SPI,DC,RST>::set_orientation+0x134>
/Users/Luppy/.cargo/registry/src/github.com-1ecc6299db9ec823/st7735-lcd-0.6.1/src/lib.rs:150
            self.write_command(
  ac:	980e      	ldr	r0, [sp, #56]	; 0x38
  ae:	2136      	movs	r1, #54	; 0x36
/Users/Luppy/.cargo/registry/src/github.com-1ecc6299db9ec823/st7735-lcd-0.6.1/src/lib.rs:151
                Instruction::MADCTL, Some(&[orientation.to_u8().unwrap() | 0x08 ]
  b0:	f88d 1057 	strb.w	r1, [sp, #87]	; 0x57
  b4:	990f      	ldr	r1, [sp, #60]	; 0x3c
  b6:	9005      	str	r0, [sp, #20]
  b8:	4608      	mov	r0, r1
  ba:	f7ff fffe 	bl	0 <st7735_lcd::ST7735<SPI,DC,RST>::set_orientation>
  be:	9004      	str	r0, [sp, #16]
  c0:	9103      	str	r1, [sp, #12]
  c2:	e7ff      	b.n	c4 <st7735_lcd::ST7735<SPI,DC,RST>::set_orientation+0xc4>
  c4:	9804      	ldr	r0, [sp, #16]
  c6:	f000 0001 	and.w	r0, r0, #1
  ca:	9903      	ldr	r1, [sp, #12]
  cc:	f7ff fffe 	bl	0 <core::option::Option<T>::unwrap>
  d0:	9002      	str	r0, [sp, #8]
  d2:	e7ff      	b.n	d4 <st7735_lcd::ST7735<SPI,DC,RST>::set_orientation+0xd4>
  d4:	9802      	ldr	r0, [sp, #8]
  d6:	f040 0108 	orr.w	r1, r0, #8
  da:	f88d 1063 	strb.w	r1, [sp, #99]	; 0x63
  de:	f10d 0163 	add.w	r1, sp, #99	; 0x63
  e2:	9116      	str	r1, [sp, #88]	; 0x58
  e4:	2101      	movs	r1, #1
  e6:	9117      	str	r1, [sp, #92]	; 0x5c
/Users/Luppy/.cargo/registry/src/github.com-1ecc6299db9ec823/st7735-lcd-0.6.1/src/lib.rs:150
            self.write_command(
  e8:	9a16      	ldr	r2, [sp, #88]	; 0x58
  ea:	9b17      	ldr	r3, [sp, #92]	; 0x5c
  ec:	f89d 1057 	ldrb.w	r1, [sp, #87]	; 0x57
  f0:	9805      	ldr	r0, [sp, #20]
  f2:	f7ff fffe 	bl	0 <st7735_lcd::ST7735<SPI,DC,RST>::set_orientation>
  f6:	9001      	str	r0, [sp, #4]
  f8:	e7ff      	b.n	fa <st7735_lcd::ST7735<SPI,DC,RST>::set_orientation+0xfa>
  fa:	9801      	ldr	r0, [sp, #4]
  fc:	f000 0001 	and.w	r0, r0, #1
 100:	f7ff fffe 	bl	0 <<core::result::Result<T,E> as core::ops::try::Try>::into_result>
 104:	f88d 0056 	strb.w	r0, [sp, #86]	; 0x56
 108:	e7ff      	b.n	10a <st7735_lcd::ST7735<SPI,DC,RST>::set_orientation+0x10a>
/Users/Luppy/.cargo/registry/src/github.com-1ecc6299db9ec823/st7735-lcd-0.6.1/src/lib.rs:152
            ))?;
 10a:	f89d 0056 	ldrb.w	r0, [sp, #86]	; 0x56
 10e:	07c1      	lsls	r1, r0, #31
 110:	2900      	cmp	r1, #0
 112:	9000      	str	r0, [sp, #0]
 114:	d00d      	beq.n	132 <st7735_lcd::ST7735<SPI,DC,RST>::set_orientation+0x132>
 116:	e7ff      	b.n	118 <st7735_lcd::ST7735<SPI,DC,RST>::set_orientation+0x118>
 118:	9800      	ldr	r0, [sp, #0]
 11a:	2801      	cmp	r0, #1
 11c:	d1b6      	bne.n	8c <st7735_lcd::ST7735<SPI,DC,RST>::set_orientation+0x8c>
 11e:	e7ff      	b.n	120 <st7735_lcd::ST7735<SPI,DC,RST>::set_orientation+0x120>
 120:	f7ff fffe 	bl	0 <<T as core::convert::From<T>>::from>
 124:	e7ff      	b.n	2 <<core::result::Result<T,E> as core::ops::try::Try>::from_error+0x2>
 126:	f7ff fffe 	bl	0 <<core::result::Result<T,E> as core::ops::try::Try>::from_error>
 12a:	f88d 0041 	strb.w	r0, [sp, #65]	; 0x41
 12e:	e7ff      	b.n	130 <st7735_lcd::ST7735<SPI,DC,RST>::set_orientation+0x130>
 130:	e7ba      	b.n	a8 <st7735_lcd::ST7735<SPI,DC,RST>::set_orientation+0xa8>
/Users/Luppy/.cargo/registry/src/github.com-1ecc6299db9ec823/st7735-lcd-0.6.1/src/lib.rs:145
        if self.rgb {
 132:	e7ff      	b.n	134 <st7735_lcd::ST7735<SPI,DC,RST>::set_orientation+0x134>
 134:	2000      	movs	r0, #0
/Users/Luppy/.cargo/registry/src/github.com-1ecc6299db9ec823/st7735-lcd-0.6.1/src/lib.rs:154
        Ok(())
 136:	f88d 0041 	strb.w	r0, [sp, #65]	; 0x41
/Users/Luppy/.cargo/registry/src/github.com-1ecc6299db9ec823/st7735-lcd-0.6.1/src/lib.rs:155
    }
 13a:	e7b1      	b.n	a0 <st7735_lcd::ST7735<SPI,DC,RST>::set_orientation+0xa0>

Disassembly of section .text._ZN10st7735_lcd28ST7735$LT$SPI$C$DC$C$RST$GT$18set_address_window17hd57bf49179ab145cE:

00000000 <st7735_lcd::ST7735<SPI,DC,RST>::set_address_window>:
_ZN10st7735_lcd28ST7735$LT$SPI$C$DC$C$RST$GT$18set_address_window17hd57bf49179ab145cE():
/Users/Luppy/.cargo/registry/src/github.com-1ecc6299db9ec823/st7735-lcd-0.6.1/src/lib.rs:164

    /// Sets the address window for the display.
    fn set_address_window(&mut self, sx: u16, sy: u16, ex: u16, ey: u16) -> Result<(), ()> {
   0:	b570      	push	{r4, r5, r6, lr}
   2:	b0a8      	sub	sp, #160	; 0xa0
   4:	f8dd c0b0 	ldr.w	ip, [sp, #176]	; 0xb0
   8:	469e      	mov	lr, r3
   a:	4614      	mov	r4, r2
   c:	460d      	mov	r5, r1
   e:	4606      	mov	r6, r0
  10:	9016      	str	r0, [sp, #88]	; 0x58
  12:	f8ad 105c 	strh.w	r1, [sp, #92]	; 0x5c
  16:	f8ad 205e 	strh.w	r2, [sp, #94]	; 0x5e
  1a:	f8ad 3060 	strh.w	r3, [sp, #96]	; 0x60
  1e:	f8ad c062 	strh.w	ip, [sp, #98]	; 0x62
/Users/Luppy/.cargo/registry/src/github.com-1ecc6299db9ec823/st7735-lcd-0.6.1/src/lib.rs:165
        self.write_command(Instruction::CASET, None)?;
  22:	9816      	ldr	r0, [sp, #88]	; 0x58
  24:	212a      	movs	r1, #42	; 0x2a
  26:	f88d 1067 	strb.w	r1, [sp, #103]	; 0x67
  2a:	2100      	movs	r1, #0
  2c:	911b      	str	r1, [sp, #108]	; 0x6c
  2e:	911a      	str	r1, [sp, #104]	; 0x68
  30:	911a      	str	r1, [sp, #104]	; 0x68
  32:	9a1a      	ldr	r2, [sp, #104]	; 0x68
  34:	9b1b      	ldr	r3, [sp, #108]	; 0x6c
  36:	f89d 1067 	ldrb.w	r1, [sp, #103]	; 0x67
  3a:	f8cd e054 	str.w	lr, [sp, #84]	; 0x54
  3e:	9414      	str	r4, [sp, #80]	; 0x50
  40:	9513      	str	r5, [sp, #76]	; 0x4c
  42:	9612      	str	r6, [sp, #72]	; 0x48
  44:	f7ff fffe 	bl	0 <st7735_lcd::ST7735<SPI,DC,RST>::set_address_window>
  48:	9011      	str	r0, [sp, #68]	; 0x44
  4a:	e7ff      	b.n	4c <st7735_lcd::ST7735<SPI,DC,RST>::set_address_window+0x4c>
  4c:	9811      	ldr	r0, [sp, #68]	; 0x44
  4e:	f000 0001 	and.w	r0, r0, #1
  52:	f7ff fffe 	bl	0 <<core::result::Result<T,E> as core::ops::try::Try>::into_result>
  56:	f88d 0066 	strb.w	r0, [sp, #102]	; 0x66
  5a:	e7ff      	b.n	5c <st7735_lcd::ST7735<SPI,DC,RST>::set_address_window+0x5c>
  5c:	f89d 0066 	ldrb.w	r0, [sp, #102]	; 0x66
  60:	07c1      	lsls	r1, r0, #31
  62:	2900      	cmp	r1, #0
  64:	9010      	str	r0, [sp, #64]	; 0x40
  66:	d012      	beq.n	8e <st7735_lcd::ST7735<SPI,DC,RST>::set_address_window+0x8e>
  68:	e7ff      	b.n	6a <st7735_lcd::ST7735<SPI,DC,RST>::set_address_window+0x6a>
  6a:	9810      	ldr	r0, [sp, #64]	; 0x40
  6c:	2801      	cmp	r0, #1
  6e:	d001      	beq.n	74 <st7735_lcd::ST7735<SPI,DC,RST>::set_address_window+0x74>
  70:	e7ff      	b.n	72 <st7735_lcd::ST7735<SPI,DC,RST>::set_address_window+0x72>
/Users/Luppy/.cargo/registry/src/github.com-1ecc6299db9ec823/st7735-lcd-0.6.1/src/lib.rs:171
        self.write_word(sx + self.dx)?;
        self.write_word(ex + self.dx)?;
        self.write_command(Instruction::RASET, None)?;
        self.write_word(sy + self.dy)?;
        self.write_word(ey + self.dy)
    }
  72:	defe      	udf	#254	; 0xfe
/Users/Luppy/.cargo/registry/src/github.com-1ecc6299db9ec823/st7735-lcd-0.6.1/src/lib.rs:165
        self.write_command(Instruction::CASET, None)?;
  74:	f7ff fffe 	bl	0 <<T as core::convert::From<T>>::from>
  78:	e7ff      	b.n	2 <<core::result::Result<T,E> as core::ops::try::Try>::from_error+0x2>
  7a:	f7ff fffe 	bl	0 <<core::result::Result<T,E> as core::ops::try::Try>::from_error>
  7e:	f88d 0065 	strb.w	r0, [sp, #101]	; 0x65
  82:	e7ff      	b.n	84 <st7735_lcd::ST7735<SPI,DC,RST>::set_address_window+0x84>
  84:	e7ff      	b.n	86 <st7735_lcd::ST7735<SPI,DC,RST>::set_address_window+0x86>
/Users/Luppy/.cargo/registry/src/github.com-1ecc6299db9ec823/st7735-lcd-0.6.1/src/lib.rs:171
    }
  86:	f89d 0065 	ldrb.w	r0, [sp, #101]	; 0x65
  8a:	b028      	add	sp, #160	; 0xa0
  8c:	bd70      	pop	{r4, r5, r6, pc}
/Users/Luppy/.cargo/registry/src/github.com-1ecc6299db9ec823/st7735-lcd-0.6.1/src/lib.rs:166
        self.write_word(sx + self.dx)?;
  8e:	9816      	ldr	r0, [sp, #88]	; 0x58
  90:	f8bd 105c 	ldrh.w	r1, [sp, #92]	; 0x5c
  94:	8a02      	ldrh	r2, [r0, #16]
  96:	4411      	add	r1, r2
  98:	b28a      	uxth	r2, r1
  9a:	460b      	mov	r3, r1
  9c:	428a      	cmp	r2, r1
  9e:	900f      	str	r0, [sp, #60]	; 0x3c
  a0:	930e      	str	r3, [sp, #56]	; 0x38
  a2:	f040 80c2 	bne.w	22a <st7735_lcd::ST7735<SPI,DC,RST>::set_address_window+0x22a>
  a6:	e7ff      	b.n	a8 <st7735_lcd::ST7735<SPI,DC,RST>::set_address_window+0xa8>
  a8:	980f      	ldr	r0, [sp, #60]	; 0x3c
  aa:	990e      	ldr	r1, [sp, #56]	; 0x38
  ac:	f7ff fffe 	bl	0 <st7735_lcd::ST7735<SPI,DC,RST>::set_address_window>
  b0:	900d      	str	r0, [sp, #52]	; 0x34
  b2:	e7ff      	b.n	b4 <st7735_lcd::ST7735<SPI,DC,RST>::set_address_window+0xb4>
  b4:	980d      	ldr	r0, [sp, #52]	; 0x34
  b6:	f000 0001 	and.w	r0, r0, #1
  ba:	f7ff fffe 	bl	0 <<core::result::Result<T,E> as core::ops::try::Try>::into_result>
  be:	f88d 0077 	strb.w	r0, [sp, #119]	; 0x77
  c2:	e7ff      	b.n	c4 <st7735_lcd::ST7735<SPI,DC,RST>::set_address_window+0xc4>
  c4:	f89d 0077 	ldrb.w	r0, [sp, #119]	; 0x77
  c8:	07c1      	lsls	r1, r0, #31
  ca:	2900      	cmp	r1, #0
  cc:	900c      	str	r0, [sp, #48]	; 0x30
  ce:	d00d      	beq.n	ec <st7735_lcd::ST7735<SPI,DC,RST>::set_address_window+0xec>
  d0:	e7ff      	b.n	d2 <st7735_lcd::ST7735<SPI,DC,RST>::set_address_window+0xd2>
  d2:	980c      	ldr	r0, [sp, #48]	; 0x30
  d4:	2801      	cmp	r0, #1
  d6:	d1cc      	bne.n	72 <st7735_lcd::ST7735<SPI,DC,RST>::set_address_window+0x72>
  d8:	e7ff      	b.n	da <st7735_lcd::ST7735<SPI,DC,RST>::set_address_window+0xda>
  da:	f7ff fffe 	bl	0 <<T as core::convert::From<T>>::from>
  de:	e7ff      	b.n	2 <<core::result::Result<T,E> as core::ops::try::Try>::from_error+0x2>
  e0:	f7ff fffe 	bl	0 <<core::result::Result<T,E> as core::ops::try::Try>::from_error>
  e4:	f88d 0065 	strb.w	r0, [sp, #101]	; 0x65
  e8:	e7ff      	b.n	ea <st7735_lcd::ST7735<SPI,DC,RST>::set_address_window+0xea>
  ea:	e7cc      	b.n	86 <st7735_lcd::ST7735<SPI,DC,RST>::set_address_window+0x86>
/Users/Luppy/.cargo/registry/src/github.com-1ecc6299db9ec823/st7735-lcd-0.6.1/src/lib.rs:167
        self.write_word(ex + self.dx)?;
  ec:	9816      	ldr	r0, [sp, #88]	; 0x58
  ee:	f8bd 1060 	ldrh.w	r1, [sp, #96]	; 0x60
  f2:	8a02      	ldrh	r2, [r0, #16]
  f4:	4411      	add	r1, r2
  f6:	b28a      	uxth	r2, r1
  f8:	460b      	mov	r3, r1
  fa:	428a      	cmp	r2, r1
  fc:	900b      	str	r0, [sp, #44]	; 0x2c
  fe:	930a      	str	r3, [sp, #40]	; 0x28
 100:	f040 809a 	bne.w	238 <st7735_lcd::ST7735<SPI,DC,RST>::set_address_window+0x238>
 104:	e7ff      	b.n	106 <st7735_lcd::ST7735<SPI,DC,RST>::set_address_window+0x106>
 106:	980b      	ldr	r0, [sp, #44]	; 0x2c
 108:	990a      	ldr	r1, [sp, #40]	; 0x28
 10a:	f7ff fffe 	bl	0 <st7735_lcd::ST7735<SPI,DC,RST>::set_address_window>
 10e:	9009      	str	r0, [sp, #36]	; 0x24
 110:	e7ff      	b.n	112 <st7735_lcd::ST7735<SPI,DC,RST>::set_address_window+0x112>
 112:	9809      	ldr	r0, [sp, #36]	; 0x24
 114:	f000 0001 	and.w	r0, r0, #1
 118:	f7ff fffe 	bl	0 <<core::result::Result<T,E> as core::ops::try::Try>::into_result>
 11c:	f88d 007f 	strb.w	r0, [sp, #127]	; 0x7f
 120:	e7ff      	b.n	122 <st7735_lcd::ST7735<SPI,DC,RST>::set_address_window+0x122>
 122:	f89d 007f 	ldrb.w	r0, [sp, #127]	; 0x7f
 126:	07c1      	lsls	r1, r0, #31
 128:	2900      	cmp	r1, #0
 12a:	9008      	str	r0, [sp, #32]
 12c:	d00d      	beq.n	14a <st7735_lcd::ST7735<SPI,DC,RST>::set_address_window+0x14a>
 12e:	e7ff      	b.n	130 <st7735_lcd::ST7735<SPI,DC,RST>::set_address_window+0x130>
 130:	9808      	ldr	r0, [sp, #32]
 132:	2801      	cmp	r0, #1
 134:	d19d      	bne.n	72 <st7735_lcd::ST7735<SPI,DC,RST>::set_address_window+0x72>
 136:	e7ff      	b.n	138 <st7735_lcd::ST7735<SPI,DC,RST>::set_address_window+0x138>
 138:	f7ff fffe 	bl	0 <<T as core::convert::From<T>>::from>
 13c:	e7ff      	b.n	2 <<core::result::Result<T,E> as core::ops::try::Try>::from_error+0x2>
 13e:	f7ff fffe 	bl	0 <<core::result::Result<T,E> as core::ops::try::Try>::from_error>
 142:	f88d 0065 	strb.w	r0, [sp, #101]	; 0x65
 146:	e7ff      	b.n	148 <st7735_lcd::ST7735<SPI,DC,RST>::set_address_window+0x148>
 148:	e79d      	b.n	86 <st7735_lcd::ST7735<SPI,DC,RST>::set_address_window+0x86>
/Users/Luppy/.cargo/registry/src/github.com-1ecc6299db9ec823/st7735-lcd-0.6.1/src/lib.rs:168
        self.write_command(Instruction::RASET, None)?;
 14a:	9816      	ldr	r0, [sp, #88]	; 0x58
 14c:	212b      	movs	r1, #43	; 0x2b
 14e:	f88d 1087 	strb.w	r1, [sp, #135]	; 0x87
 152:	2100      	movs	r1, #0
 154:	9123      	str	r1, [sp, #140]	; 0x8c
 156:	9122      	str	r1, [sp, #136]	; 0x88
 158:	9122      	str	r1, [sp, #136]	; 0x88
 15a:	9a22      	ldr	r2, [sp, #136]	; 0x88
 15c:	9b23      	ldr	r3, [sp, #140]	; 0x8c
 15e:	f89d 1087 	ldrb.w	r1, [sp, #135]	; 0x87
 162:	f7ff fffe 	bl	0 <st7735_lcd::ST7735<SPI,DC,RST>::set_address_window>
 166:	9007      	str	r0, [sp, #28]
 168:	e7ff      	b.n	16a <st7735_lcd::ST7735<SPI,DC,RST>::set_address_window+0x16a>
 16a:	9807      	ldr	r0, [sp, #28]
 16c:	f000 0001 	and.w	r0, r0, #1
 170:	f7ff fffe 	bl	0 <<core::result::Result<T,E> as core::ops::try::Try>::into_result>
 174:	f88d 0086 	strb.w	r0, [sp, #134]	; 0x86
 178:	e7ff      	b.n	17a <st7735_lcd::ST7735<SPI,DC,RST>::set_address_window+0x17a>
 17a:	f89d 0086 	ldrb.w	r0, [sp, #134]	; 0x86
 17e:	07c1      	lsls	r1, r0, #31
 180:	2900      	cmp	r1, #0
 182:	9006      	str	r0, [sp, #24]
 184:	d00e      	beq.n	1a4 <st7735_lcd::ST7735<SPI,DC,RST>::set_address_window+0x1a4>
 186:	e7ff      	b.n	188 <st7735_lcd::ST7735<SPI,DC,RST>::set_address_window+0x188>
 188:	9806      	ldr	r0, [sp, #24]
 18a:	2801      	cmp	r0, #1
 18c:	f47f af71 	bne.w	72 <st7735_lcd::ST7735<SPI,DC,RST>::set_address_window+0x72>
 190:	e7ff      	b.n	2 <<T as core::convert::From<T>>::from+0x2>
 192:	f7ff fffe 	bl	0 <<T as core::convert::From<T>>::from>
 196:	e7ff      	b.n	2 <<core::result::Result<T,E> as core::ops::try::Try>::from_error+0x2>
 198:	f7ff fffe 	bl	0 <<core::result::Result<T,E> as core::ops::try::Try>::from_error>
 19c:	f88d 0065 	strb.w	r0, [sp, #101]	; 0x65
 1a0:	e7ff      	b.n	1a2 <st7735_lcd::ST7735<SPI,DC,RST>::set_address_window+0x1a2>
 1a2:	e770      	b.n	86 <st7735_lcd::ST7735<SPI,DC,RST>::set_address_window+0x86>
/Users/Luppy/.cargo/registry/src/github.com-1ecc6299db9ec823/st7735-lcd-0.6.1/src/lib.rs:169
        self.write_word(sy + self.dy)?;
 1a4:	9816      	ldr	r0, [sp, #88]	; 0x58
 1a6:	f8bd 105e 	ldrh.w	r1, [sp, #94]	; 0x5e
 1aa:	8a42      	ldrh	r2, [r0, #18]
 1ac:	4411      	add	r1, r2
 1ae:	b28a      	uxth	r2, r1
 1b0:	460b      	mov	r3, r1
 1b2:	428a      	cmp	r2, r1
 1b4:	9005      	str	r0, [sp, #20]
 1b6:	9304      	str	r3, [sp, #16]
 1b8:	d145      	bne.n	246 <st7735_lcd::ST7735<SPI,DC,RST>::set_address_window+0x246>
 1ba:	e7ff      	b.n	1bc <st7735_lcd::ST7735<SPI,DC,RST>::set_address_window+0x1bc>
 1bc:	9805      	ldr	r0, [sp, #20]
 1be:	9904      	ldr	r1, [sp, #16]
 1c0:	f7ff fffe 	bl	0 <st7735_lcd::ST7735<SPI,DC,RST>::set_address_window>
 1c4:	9003      	str	r0, [sp, #12]
 1c6:	e7ff      	b.n	1c8 <st7735_lcd::ST7735<SPI,DC,RST>::set_address_window+0x1c8>
 1c8:	9803      	ldr	r0, [sp, #12]
 1ca:	f000 0001 	and.w	r0, r0, #1
 1ce:	f7ff fffe 	bl	0 <<core::result::Result<T,E> as core::ops::try::Try>::into_result>
 1d2:	f88d 0097 	strb.w	r0, [sp, #151]	; 0x97
 1d6:	e7ff      	b.n	1d8 <st7735_lcd::ST7735<SPI,DC,RST>::set_address_window+0x1d8>
 1d8:	f89d 0097 	ldrb.w	r0, [sp, #151]	; 0x97
 1dc:	07c1      	lsls	r1, r0, #31
 1de:	2900      	cmp	r1, #0
 1e0:	9002      	str	r0, [sp, #8]
 1e2:	d00e      	beq.n	202 <st7735_lcd::ST7735<SPI,DC,RST>::set_address_window+0x202>
 1e4:	e7ff      	b.n	1e6 <st7735_lcd::ST7735<SPI,DC,RST>::set_address_window+0x1e6>
 1e6:	9802      	ldr	r0, [sp, #8]
 1e8:	2801      	cmp	r0, #1
 1ea:	f47f af42 	bne.w	72 <st7735_lcd::ST7735<SPI,DC,RST>::set_address_window+0x72>
 1ee:	e7ff      	b.n	2 <<T as core::convert::From<T>>::from+0x2>
 1f0:	f7ff fffe 	bl	0 <<T as core::convert::From<T>>::from>
 1f4:	e7ff      	b.n	2 <<core::result::Result<T,E> as core::ops::try::Try>::from_error+0x2>
 1f6:	f7ff fffe 	bl	0 <<core::result::Result<T,E> as core::ops::try::Try>::from_error>
 1fa:	f88d 0065 	strb.w	r0, [sp, #101]	; 0x65
 1fe:	e7ff      	b.n	200 <st7735_lcd::ST7735<SPI,DC,RST>::set_address_window+0x200>
 200:	e741      	b.n	86 <st7735_lcd::ST7735<SPI,DC,RST>::set_address_window+0x86>
/Users/Luppy/.cargo/registry/src/github.com-1ecc6299db9ec823/st7735-lcd-0.6.1/src/lib.rs:170
        self.write_word(ey + self.dy)
 202:	9816      	ldr	r0, [sp, #88]	; 0x58
 204:	f8bd 1062 	ldrh.w	r1, [sp, #98]	; 0x62
 208:	8a42      	ldrh	r2, [r0, #18]
 20a:	4411      	add	r1, r2
 20c:	b28a      	uxth	r2, r1
 20e:	460b      	mov	r3, r1
 210:	428a      	cmp	r2, r1
 212:	9001      	str	r0, [sp, #4]
 214:	9300      	str	r3, [sp, #0]
 216:	d11d      	bne.n	254 <st7735_lcd::ST7735<SPI,DC,RST>::set_address_window+0x254>
 218:	e7ff      	b.n	21a <st7735_lcd::ST7735<SPI,DC,RST>::set_address_window+0x21a>
 21a:	9801      	ldr	r0, [sp, #4]
 21c:	9900      	ldr	r1, [sp, #0]
 21e:	f7ff fffe 	bl	0 <st7735_lcd::ST7735<SPI,DC,RST>::set_address_window>
 222:	f88d 0065 	strb.w	r0, [sp, #101]	; 0x65
 226:	e7ff      	b.n	228 <st7735_lcd::ST7735<SPI,DC,RST>::set_address_window+0x228>
/Users/Luppy/.cargo/registry/src/github.com-1ecc6299db9ec823/st7735-lcd-0.6.1/src/lib.rs:171
    }
 228:	e72d      	b.n	86 <st7735_lcd::ST7735<SPI,DC,RST>::set_address_window+0x86>
/Users/Luppy/.cargo/registry/src/github.com-1ecc6299db9ec823/st7735-lcd-0.6.1/src/lib.rs:166
        self.write_word(sx + self.dx)?;
 22a:	f240 0000 	movw	r0, #0
 22e:	f2c0 0000 	movt	r0, #0
 232:	f7ff fffe 	bl	0 <core::panicking::panic>
 236:	defe      	udf	#254	; 0xfe
/Users/Luppy/.cargo/registry/src/github.com-1ecc6299db9ec823/st7735-lcd-0.6.1/src/lib.rs:167
        self.write_word(ex + self.dx)?;
 238:	f240 0000 	movw	r0, #0
 23c:	f2c0 0000 	movt	r0, #0
 240:	f7ff fffe 	bl	0 <core::panicking::panic>
 244:	defe      	udf	#254	; 0xfe
/Users/Luppy/.cargo/registry/src/github.com-1ecc6299db9ec823/st7735-lcd-0.6.1/src/lib.rs:169
        self.write_word(sy + self.dy)?;
 246:	f240 0000 	movw	r0, #0
 24a:	f2c0 0000 	movt	r0, #0
 24e:	f7ff fffe 	bl	0 <core::panicking::panic>
 252:	defe      	udf	#254	; 0xfe
/Users/Luppy/.cargo/registry/src/github.com-1ecc6299db9ec823/st7735-lcd-0.6.1/src/lib.rs:170
        self.write_word(ey + self.dy)
 254:	f240 0000 	movw	r0, #0
 258:	f2c0 0000 	movt	r0, #0
 25c:	f7ff fffe 	bl	0 <core::panicking::panic>
 260:	defe      	udf	#254	; 0xfe

Disassembly of section .text._ZN10st7735_lcd28ST7735$LT$SPI$C$DC$C$RST$GT$3new17h723b2fb410ea497eE:

00000000 <st7735_lcd::ST7735<SPI,DC,RST>::new>:
_ZN10st7735_lcd28ST7735$LT$SPI$C$DC$C$RST$GT$3new17h723b2fb410ea497eE():
/Users/Luppy/.cargo/registry/src/github.com-1ecc6299db9ec823/st7735-lcd-0.6.1/src/lib.rs:60
    pub fn new(
   0:	e92d 47f0 	stmdb	sp!, {r4, r5, r6, r7, r8, r9, sl, lr}
   4:	b08f      	sub	sp, #60	; 0x3c
   6:	f8dd c064 	ldr.w	ip, [sp, #100]	; 0x64
   a:	f8dd e060 	ldr.w	lr, [sp, #96]	; 0x60
   e:	9c17      	ldr	r4, [sp, #92]	; 0x5c
  10:	461d      	mov	r5, r3
  12:	4616      	mov	r6, r2
  14:	460f      	mov	r7, r1
  16:	4680      	mov	r8, r0
  18:	9105      	str	r1, [sp, #20]
  1a:	9206      	str	r2, [sp, #24]
  1c:	9307      	str	r3, [sp, #28]
  1e:	f88d e022 	strb.w	lr, [sp, #34]	; 0x22
  22:	f88d c023 	strb.w	ip, [sp, #35]	; 0x23
/Users/Luppy/.cargo/registry/src/github.com-1ecc6299db9ec823/st7735-lcd-0.6.1/src/lib.rs:69
            spi,
  26:	9905      	ldr	r1, [sp, #20]
  28:	9a06      	ldr	r2, [sp, #24]
/Users/Luppy/.cargo/registry/src/github.com-1ecc6299db9ec823/st7735-lcd-0.6.1/src/lib.rs:70
            dc,
  2a:	9b07      	ldr	r3, [sp, #28]
/Users/Luppy/.cargo/registry/src/github.com-1ecc6299db9ec823/st7735-lcd-0.6.1/src/lib.rs:71
            rst,
  2c:	f8dd c05c 	ldr.w	ip, [sp, #92]	; 0x5c
/Users/Luppy/.cargo/registry/src/github.com-1ecc6299db9ec823/st7735-lcd-0.6.1/src/lib.rs:72
            rgb,
  30:	f89d e022 	ldrb.w	lr, [sp, #34]	; 0x22
/Users/Luppy/.cargo/registry/src/github.com-1ecc6299db9ec823/st7735-lcd-0.6.1/src/lib.rs:73
            inverted,
  34:	f89d 9023 	ldrb.w	r9, [sp, #35]	; 0x23
/Users/Luppy/.cargo/registry/src/github.com-1ecc6299db9ec823/st7735-lcd-0.6.1/src/lib.rs:68
        let display = ST7735 {
  38:	9109      	str	r1, [sp, #36]	; 0x24
  3a:	920a      	str	r2, [sp, #40]	; 0x28
  3c:	930b      	str	r3, [sp, #44]	; 0x2c
  3e:	f8cd c030 	str.w	ip, [sp, #48]	; 0x30
  42:	f88d e038 	strb.w	lr, [sp, #56]	; 0x38
  46:	f88d 9039 	strb.w	r9, [sp, #57]	; 0x39
  4a:	2100      	movs	r1, #0
  4c:	f8ad 1034 	strh.w	r1, [sp, #52]	; 0x34
  50:	f8ad 1036 	strh.w	r1, [sp, #54]	; 0x36
  54:	a909      	add	r1, sp, #36	; 0x24
/Users/Luppy/.cargo/registry/src/github.com-1ecc6299db9ec823/st7735-lcd-0.6.1/src/lib.rs:78
        display
  56:	e891 560c 	ldmia.w	r1, {r2, r3, r9, sl, ip, lr}
  5a:	e880 560c 	stmia.w	r0, {r2, r3, r9, sl, ip, lr}
/Users/Luppy/.cargo/registry/src/github.com-1ecc6299db9ec823/st7735-lcd-0.6.1/src/lib.rs:79
    }
  5e:	9404      	str	r4, [sp, #16]
  60:	9503      	str	r5, [sp, #12]
  62:	9602      	str	r6, [sp, #8]
  64:	9701      	str	r7, [sp, #4]
  66:	f8cd 8000 	str.w	r8, [sp]
  6a:	b00f      	add	sp, #60	; 0x3c
  6c:	e8bd 87f0 	ldmia.w	sp!, {r4, r5, r6, r7, r8, r9, sl, pc}

Disassembly of section .text._ZN10st7735_lcd28ST7735$LT$SPI$C$DC$C$RST$GT$4init17h3e833340d4f1a02eE:

00000000 <st7735_lcd::ST7735<SPI,DC,RST>::init>:
_ZN10st7735_lcd28ST7735$LT$SPI$C$DC$C$RST$GT$4init17h3e833340d4f1a02eE():
/Users/Luppy/.cargo/registry/src/github.com-1ecc6299db9ec823/st7735-lcd-0.6.1/src/lib.rs:82
    pub fn init<DELAY>(&mut self, delay: &mut DELAY) -> Result<(), ()>
   0:	b580      	push	{r7, lr}
   2:	b0f6      	sub	sp, #472	; 0x1d8
   4:	460a      	mov	r2, r1
   6:	4603      	mov	r3, r0
   8:	9028      	str	r0, [sp, #160]	; 0xa0
   a:	9129      	str	r1, [sp, #164]	; 0xa4
/Users/Luppy/.cargo/registry/src/github.com-1ecc6299db9ec823/st7735-lcd-0.6.1/src/lib.rs:85
        self.hard_reset()?;
   c:	9828      	ldr	r0, [sp, #160]	; 0xa0
   e:	9227      	str	r2, [sp, #156]	; 0x9c
  10:	9326      	str	r3, [sp, #152]	; 0x98
  12:	f7ff fffe 	bl	0 <st7735_lcd::ST7735<SPI,DC,RST>::init>
  16:	9025      	str	r0, [sp, #148]	; 0x94
  18:	e7ff      	b.n	1a <st7735_lcd::ST7735<SPI,DC,RST>::init+0x1a>
  1a:	9825      	ldr	r0, [sp, #148]	; 0x94
  1c:	f000 0001 	and.w	r0, r0, #1
  20:	f7ff fffe 	bl	0 <<core::result::Result<T,E> as core::ops::try::Try>::into_result>
  24:	f88d 00ab 	strb.w	r0, [sp, #171]	; 0xab
  28:	e7ff      	b.n	2a <st7735_lcd::ST7735<SPI,DC,RST>::init+0x2a>
  2a:	f89d 00ab 	ldrb.w	r0, [sp, #171]	; 0xab
  2e:	07c1      	lsls	r1, r0, #31
  30:	2900      	cmp	r1, #0
  32:	9024      	str	r0, [sp, #144]	; 0x90
  34:	d012      	beq.n	5c <st7735_lcd::ST7735<SPI,DC,RST>::init+0x5c>
  36:	e7ff      	b.n	38 <st7735_lcd::ST7735<SPI,DC,RST>::init+0x38>
  38:	9824      	ldr	r0, [sp, #144]	; 0x90
  3a:	2801      	cmp	r0, #1
  3c:	d001      	beq.n	42 <st7735_lcd::ST7735<SPI,DC,RST>::init+0x42>
  3e:	e7ff      	b.n	40 <st7735_lcd::ST7735<SPI,DC,RST>::init+0x40>
/Users/Luppy/.cargo/registry/src/github.com-1ecc6299db9ec823/st7735-lcd-0.6.1/src/lib.rs:115
    }
  40:	defe      	udf	#254	; 0xfe
/Users/Luppy/.cargo/registry/src/github.com-1ecc6299db9ec823/st7735-lcd-0.6.1/src/lib.rs:85
        self.hard_reset()?;
  42:	f7ff fffe 	bl	0 <<T as core::convert::From<T>>::from>
  46:	e7ff      	b.n	2 <<core::result::Result<T,E> as core::ops::try::Try>::from_error+0x2>
  48:	f7ff fffe 	bl	0 <<core::result::Result<T,E> as core::ops::try::Try>::from_error>
  4c:	f88d 00aa 	strb.w	r0, [sp, #170]	; 0xaa
  50:	e7ff      	b.n	52 <st7735_lcd::ST7735<SPI,DC,RST>::init+0x52>
  52:	e7ff      	b.n	54 <st7735_lcd::ST7735<SPI,DC,RST>::init+0x54>
/Users/Luppy/.cargo/registry/src/github.com-1ecc6299db9ec823/st7735-lcd-0.6.1/src/lib.rs:115
    }
  54:	f89d 00aa 	ldrb.w	r0, [sp, #170]	; 0xaa
  58:	b076      	add	sp, #472	; 0x1d8
  5a:	bd80      	pop	{r7, pc}
/Users/Luppy/.cargo/registry/src/github.com-1ecc6299db9ec823/st7735-lcd-0.6.1/src/lib.rs:86
        self.write_command(Instruction::SWRESET, None)?;
  5c:	9828      	ldr	r0, [sp, #160]	; 0xa0
  5e:	2101      	movs	r1, #1
  60:	f88d 10b3 	strb.w	r1, [sp, #179]	; 0xb3
  64:	2100      	movs	r1, #0
  66:	912e      	str	r1, [sp, #184]	; 0xb8
  68:	912d      	str	r1, [sp, #180]	; 0xb4
  6a:	912d      	str	r1, [sp, #180]	; 0xb4
  6c:	9a2d      	ldr	r2, [sp, #180]	; 0xb4
  6e:	9b2e      	ldr	r3, [sp, #184]	; 0xb8
  70:	f89d 10b3 	ldrb.w	r1, [sp, #179]	; 0xb3
  74:	f7ff fffe 	bl	0 <st7735_lcd::ST7735<SPI,DC,RST>::init>
  78:	9023      	str	r0, [sp, #140]	; 0x8c
  7a:	e7ff      	b.n	7c <st7735_lcd::ST7735<SPI,DC,RST>::init+0x7c>
  7c:	9823      	ldr	r0, [sp, #140]	; 0x8c
  7e:	f000 0001 	and.w	r0, r0, #1
  82:	f7ff fffe 	bl	0 <<core::result::Result<T,E> as core::ops::try::Try>::into_result>
  86:	f88d 00b2 	strb.w	r0, [sp, #178]	; 0xb2
  8a:	e7ff      	b.n	8c <st7735_lcd::ST7735<SPI,DC,RST>::init+0x8c>
  8c:	f89d 00b2 	ldrb.w	r0, [sp, #178]	; 0xb2
  90:	07c1      	lsls	r1, r0, #31
  92:	2900      	cmp	r1, #0
  94:	9022      	str	r0, [sp, #136]	; 0x88
  96:	d00d      	beq.n	b4 <st7735_lcd::ST7735<SPI,DC,RST>::init+0xb4>
  98:	e7ff      	b.n	9a <st7735_lcd::ST7735<SPI,DC,RST>::init+0x9a>
  9a:	9822      	ldr	r0, [sp, #136]	; 0x88
  9c:	2801      	cmp	r0, #1
  9e:	d1cf      	bne.n	40 <st7735_lcd::ST7735<SPI,DC,RST>::init+0x40>
  a0:	e7ff      	b.n	a2 <st7735_lcd::ST7735<SPI,DC,RST>::init+0xa2>
  a2:	f7ff fffe 	bl	0 <<T as core::convert::From<T>>::from>
  a6:	e7ff      	b.n	2 <<core::result::Result<T,E> as core::ops::try::Try>::from_error+0x2>
  a8:	f7ff fffe 	bl	0 <<core::result::Result<T,E> as core::ops::try::Try>::from_error>
  ac:	f88d 00aa 	strb.w	r0, [sp, #170]	; 0xaa
  b0:	e7ff      	b.n	b2 <st7735_lcd::ST7735<SPI,DC,RST>::init+0xb2>
  b2:	e7cf      	b.n	54 <st7735_lcd::ST7735<SPI,DC,RST>::init+0x54>
/Users/Luppy/.cargo/registry/src/github.com-1ecc6299db9ec823/st7735-lcd-0.6.1/src/lib.rs:87
        delay.delay_ms(200);
  b4:	9829      	ldr	r0, [sp, #164]	; 0xa4
  b6:	21c8      	movs	r1, #200	; 0xc8
  b8:	f7ff fffe 	bl	0 <<app::mynewt_hal::MynewtDelay as embedded_hal::blocking::delay::DelayMs<u8>>::delay_ms>
  bc:	e7ff      	b.n	be <st7735_lcd::ST7735<SPI,DC,RST>::init+0xbe>
/Users/Luppy/.cargo/registry/src/github.com-1ecc6299db9ec823/st7735-lcd-0.6.1/src/lib.rs:88
        self.write_command(Instruction::SLPOUT, None)?;
  be:	9828      	ldr	r0, [sp, #160]	; 0xa0
  c0:	2111      	movs	r1, #17
  c2:	f88d 10c3 	strb.w	r1, [sp, #195]	; 0xc3
  c6:	2100      	movs	r1, #0
  c8:	9132      	str	r1, [sp, #200]	; 0xc8
  ca:	9131      	str	r1, [sp, #196]	; 0xc4
  cc:	9131      	str	r1, [sp, #196]	; 0xc4
  ce:	9a31      	ldr	r2, [sp, #196]	; 0xc4
  d0:	9b32      	ldr	r3, [sp, #200]	; 0xc8
  d2:	f89d 10c3 	ldrb.w	r1, [sp, #195]	; 0xc3
  d6:	f7ff fffe 	bl	0 <st7735_lcd::ST7735<SPI,DC,RST>::init>
  da:	9021      	str	r0, [sp, #132]	; 0x84
  dc:	e7ff      	b.n	de <st7735_lcd::ST7735<SPI,DC,RST>::init+0xde>
  de:	9821      	ldr	r0, [sp, #132]	; 0x84
  e0:	f000 0001 	and.w	r0, r0, #1
  e4:	f7ff fffe 	bl	0 <<core::result::Result<T,E> as core::ops::try::Try>::into_result>
  e8:	f88d 00c2 	strb.w	r0, [sp, #194]	; 0xc2
  ec:	e7ff      	b.n	ee <st7735_lcd::ST7735<SPI,DC,RST>::init+0xee>
  ee:	f89d 00c2 	ldrb.w	r0, [sp, #194]	; 0xc2
  f2:	07c1      	lsls	r1, r0, #31
  f4:	2900      	cmp	r1, #0
  f6:	9020      	str	r0, [sp, #128]	; 0x80
  f8:	d00d      	beq.n	116 <st7735_lcd::ST7735<SPI,DC,RST>::init+0x116>
  fa:	e7ff      	b.n	fc <st7735_lcd::ST7735<SPI,DC,RST>::init+0xfc>
  fc:	9820      	ldr	r0, [sp, #128]	; 0x80
  fe:	2801      	cmp	r0, #1
 100:	d19e      	bne.n	40 <st7735_lcd::ST7735<SPI,DC,RST>::init+0x40>
 102:	e7ff      	b.n	104 <st7735_lcd::ST7735<SPI,DC,RST>::init+0x104>
 104:	f7ff fffe 	bl	0 <<T as core::convert::From<T>>::from>
 108:	e7ff      	b.n	2 <<core::result::Result<T,E> as core::ops::try::Try>::from_error+0x2>
 10a:	f7ff fffe 	bl	0 <<core::result::Result<T,E> as core::ops::try::Try>::from_error>
 10e:	f88d 00aa 	strb.w	r0, [sp, #170]	; 0xaa
 112:	e7ff      	b.n	114 <st7735_lcd::ST7735<SPI,DC,RST>::init+0x114>
 114:	e79e      	b.n	54 <st7735_lcd::ST7735<SPI,DC,RST>::init+0x54>
/Users/Luppy/.cargo/registry/src/github.com-1ecc6299db9ec823/st7735-lcd-0.6.1/src/lib.rs:89
        delay.delay_ms(200);
 116:	9829      	ldr	r0, [sp, #164]	; 0xa4
 118:	21c8      	movs	r1, #200	; 0xc8
 11a:	f7ff fffe 	bl	0 <<app::mynewt_hal::MynewtDelay as embedded_hal::blocking::delay::DelayMs<u8>>::delay_ms>
 11e:	e7ff      	b.n	120 <st7735_lcd::ST7735<SPI,DC,RST>::init+0x120>
/Users/Luppy/.cargo/registry/src/github.com-1ecc6299db9ec823/st7735-lcd-0.6.1/src/lib.rs:90
        self.write_command(Instruction::FRMCTR1, Some(&[0x01, 0x2C, 0x2D]))?;
 120:	9828      	ldr	r0, [sp, #160]	; 0xa0
 122:	21b1      	movs	r1, #177	; 0xb1
 124:	f88d 10d3 	strb.w	r1, [sp, #211]	; 0xd3
 128:	f240 0100 	movw	r1, #0
 12c:	f2c0 0100 	movt	r1, #0
 130:	9135      	str	r1, [sp, #212]	; 0xd4
 132:	2103      	movs	r1, #3
 134:	9136      	str	r1, [sp, #216]	; 0xd8
 136:	9a35      	ldr	r2, [sp, #212]	; 0xd4
 138:	9b36      	ldr	r3, [sp, #216]	; 0xd8
 13a:	f89d 10d3 	ldrb.w	r1, [sp, #211]	; 0xd3
 13e:	f7ff fffe 	bl	0 <st7735_lcd::ST7735<SPI,DC,RST>::init>
 142:	901f      	str	r0, [sp, #124]	; 0x7c
 144:	e7ff      	b.n	146 <st7735_lcd::ST7735<SPI,DC,RST>::init+0x146>
 146:	981f      	ldr	r0, [sp, #124]	; 0x7c
 148:	f000 0001 	and.w	r0, r0, #1
 14c:	f7ff fffe 	bl	0 <<core::result::Result<T,E> as core::ops::try::Try>::into_result>
 150:	f88d 00d2 	strb.w	r0, [sp, #210]	; 0xd2
 154:	e7ff      	b.n	156 <st7735_lcd::ST7735<SPI,DC,RST>::init+0x156>
 156:	f89d 00d2 	ldrb.w	r0, [sp, #210]	; 0xd2
 15a:	07c1      	lsls	r1, r0, #31
 15c:	2900      	cmp	r1, #0
 15e:	901e      	str	r0, [sp, #120]	; 0x78
 160:	d00e      	beq.n	180 <st7735_lcd::ST7735<SPI,DC,RST>::init+0x180>
 162:	e7ff      	b.n	164 <st7735_lcd::ST7735<SPI,DC,RST>::init+0x164>
 164:	981e      	ldr	r0, [sp, #120]	; 0x78
 166:	2801      	cmp	r0, #1
 168:	f47f af6a 	bne.w	40 <st7735_lcd::ST7735<SPI,DC,RST>::init+0x40>
 16c:	e7ff      	b.n	2 <<T as core::convert::From<T>>::from+0x2>
 16e:	f7ff fffe 	bl	0 <<T as core::convert::From<T>>::from>
 172:	e7ff      	b.n	2 <<core::result::Result<T,E> as core::ops::try::Try>::from_error+0x2>
 174:	f7ff fffe 	bl	0 <<core::result::Result<T,E> as core::ops::try::Try>::from_error>
 178:	f88d 00aa 	strb.w	r0, [sp, #170]	; 0xaa
 17c:	e7ff      	b.n	17e <st7735_lcd::ST7735<SPI,DC,RST>::init+0x17e>
 17e:	e769      	b.n	54 <st7735_lcd::ST7735<SPI,DC,RST>::init+0x54>
/Users/Luppy/.cargo/registry/src/github.com-1ecc6299db9ec823/st7735-lcd-0.6.1/src/lib.rs:91
        self.write_command(Instruction::FRMCTR2, Some(&[0x01, 0x2C, 0x2D]))?;
 180:	9828      	ldr	r0, [sp, #160]	; 0xa0
 182:	21b2      	movs	r1, #178	; 0xb2
 184:	f88d 10e3 	strb.w	r1, [sp, #227]	; 0xe3
 188:	f240 0100 	movw	r1, #0
 18c:	f2c0 0100 	movt	r1, #0
 190:	9139      	str	r1, [sp, #228]	; 0xe4
 192:	2103      	movs	r1, #3
 194:	913a      	str	r1, [sp, #232]	; 0xe8
 196:	9a39      	ldr	r2, [sp, #228]	; 0xe4
 198:	9b3a      	ldr	r3, [sp, #232]	; 0xe8
 19a:	f89d 10e3 	ldrb.w	r1, [sp, #227]	; 0xe3
 19e:	f7ff fffe 	bl	0 <st7735_lcd::ST7735<SPI,DC,RST>::init>
 1a2:	901d      	str	r0, [sp, #116]	; 0x74
 1a4:	e7ff      	b.n	1a6 <st7735_lcd::ST7735<SPI,DC,RST>::init+0x1a6>
 1a6:	981d      	ldr	r0, [sp, #116]	; 0x74
 1a8:	f000 0001 	and.w	r0, r0, #1
 1ac:	f7ff fffe 	bl	0 <<core::result::Result<T,E> as core::ops::try::Try>::into_result>
 1b0:	f88d 00e2 	strb.w	r0, [sp, #226]	; 0xe2
 1b4:	e7ff      	b.n	1b6 <st7735_lcd::ST7735<SPI,DC,RST>::init+0x1b6>
 1b6:	f89d 00e2 	ldrb.w	r0, [sp, #226]	; 0xe2
 1ba:	07c1      	lsls	r1, r0, #31
 1bc:	2900      	cmp	r1, #0
 1be:	901c      	str	r0, [sp, #112]	; 0x70
 1c0:	d00e      	beq.n	1e0 <st7735_lcd::ST7735<SPI,DC,RST>::init+0x1e0>
 1c2:	e7ff      	b.n	1c4 <st7735_lcd::ST7735<SPI,DC,RST>::init+0x1c4>
 1c4:	981c      	ldr	r0, [sp, #112]	; 0x70
 1c6:	2801      	cmp	r0, #1
 1c8:	f47f af3a 	bne.w	40 <st7735_lcd::ST7735<SPI,DC,RST>::init+0x40>
 1cc:	e7ff      	b.n	2 <<T as core::convert::From<T>>::from+0x2>
 1ce:	f7ff fffe 	bl	0 <<T as core::convert::From<T>>::from>
 1d2:	e7ff      	b.n	2 <<core::result::Result<T,E> as core::ops::try::Try>::from_error+0x2>
 1d4:	f7ff fffe 	bl	0 <<core::result::Result<T,E> as core::ops::try::Try>::from_error>
 1d8:	f88d 00aa 	strb.w	r0, [sp, #170]	; 0xaa
 1dc:	e7ff      	b.n	1de <st7735_lcd::ST7735<SPI,DC,RST>::init+0x1de>
 1de:	e739      	b.n	54 <st7735_lcd::ST7735<SPI,DC,RST>::init+0x54>
/Users/Luppy/.cargo/registry/src/github.com-1ecc6299db9ec823/st7735-lcd-0.6.1/src/lib.rs:92
        self.write_command(Instruction::FRMCTR3,
 1e0:	9828      	ldr	r0, [sp, #160]	; 0xa0
 1e2:	21b3      	movs	r1, #179	; 0xb3
 1e4:	f88d 10f3 	strb.w	r1, [sp, #243]	; 0xf3
/Users/Luppy/.cargo/registry/src/github.com-1ecc6299db9ec823/st7735-lcd-0.6.1/src/lib.rs:93
            Some(&[0x01, 0x2C, 0x2D, 0x01, 0x2C, 0x2D]))?;
 1e8:	f240 0100 	movw	r1, #0
 1ec:	f2c0 0100 	movt	r1, #0
 1f0:	913d      	str	r1, [sp, #244]	; 0xf4
 1f2:	2106      	movs	r1, #6
 1f4:	913e      	str	r1, [sp, #248]	; 0xf8
/Users/Luppy/.cargo/registry/src/github.com-1ecc6299db9ec823/st7735-lcd-0.6.1/src/lib.rs:92
        self.write_command(Instruction::FRMCTR3,
 1f6:	9a3d      	ldr	r2, [sp, #244]	; 0xf4
 1f8:	9b3e      	ldr	r3, [sp, #248]	; 0xf8
 1fa:	f89d 10f3 	ldrb.w	r1, [sp, #243]	; 0xf3
 1fe:	f7ff fffe 	bl	0 <st7735_lcd::ST7735<SPI,DC,RST>::init>
 202:	901b      	str	r0, [sp, #108]	; 0x6c
 204:	e7ff      	b.n	206 <st7735_lcd::ST7735<SPI,DC,RST>::init+0x206>
 206:	981b      	ldr	r0, [sp, #108]	; 0x6c
 208:	f000 0001 	and.w	r0, r0, #1
 20c:	f7ff fffe 	bl	0 <<core::result::Result<T,E> as core::ops::try::Try>::into_result>
 210:	f88d 00f2 	strb.w	r0, [sp, #242]	; 0xf2
 214:	e7ff      	b.n	216 <st7735_lcd::ST7735<SPI,DC,RST>::init+0x216>
/Users/Luppy/.cargo/registry/src/github.com-1ecc6299db9ec823/st7735-lcd-0.6.1/src/lib.rs:93
            Some(&[0x01, 0x2C, 0x2D, 0x01, 0x2C, 0x2D]))?;
 216:	f89d 00f2 	ldrb.w	r0, [sp, #242]	; 0xf2
 21a:	07c1      	lsls	r1, r0, #31
 21c:	2900      	cmp	r1, #0
 21e:	901a      	str	r0, [sp, #104]	; 0x68
 220:	d00e      	beq.n	240 <st7735_lcd::ST7735<SPI,DC,RST>::init+0x240>
 222:	e7ff      	b.n	224 <st7735_lcd::ST7735<SPI,DC,RST>::init+0x224>
 224:	981a      	ldr	r0, [sp, #104]	; 0x68
 226:	2801      	cmp	r0, #1
 228:	f47f af0a 	bne.w	40 <st7735_lcd::ST7735<SPI,DC,RST>::init+0x40>
 22c:	e7ff      	b.n	2 <<T as core::convert::From<T>>::from+0x2>
 22e:	f7ff fffe 	bl	0 <<T as core::convert::From<T>>::from>
 232:	e7ff      	b.n	2 <<core::result::Result<T,E> as core::ops::try::Try>::from_error+0x2>
 234:	f7ff fffe 	bl	0 <<core::result::Result<T,E> as core::ops::try::Try>::from_error>
 238:	f88d 00aa 	strb.w	r0, [sp, #170]	; 0xaa
 23c:	e7ff      	b.n	23e <st7735_lcd::ST7735<SPI,DC,RST>::init+0x23e>
 23e:	e709      	b.n	54 <st7735_lcd::ST7735<SPI,DC,RST>::init+0x54>
/Users/Luppy/.cargo/registry/src/github.com-1ecc6299db9ec823/st7735-lcd-0.6.1/src/lib.rs:94
        self.write_command(Instruction::INVCTR, Some(&[0x07]))?;
 240:	9828      	ldr	r0, [sp, #160]	; 0xa0
 242:	21b4      	movs	r1, #180	; 0xb4
 244:	f88d 1103 	strb.w	r1, [sp, #259]	; 0x103
 248:	f240 0100 	movw	r1, #0
 24c:	f2c0 0100 	movt	r1, #0
 250:	9141      	str	r1, [sp, #260]	; 0x104
 252:	2101      	movs	r1, #1
 254:	9142      	str	r1, [sp, #264]	; 0x108
 256:	9a41      	ldr	r2, [sp, #260]	; 0x104
 258:	9b42      	ldr	r3, [sp, #264]	; 0x108
 25a:	f89d 1103 	ldrb.w	r1, [sp, #259]	; 0x103
 25e:	f7ff fffe 	bl	0 <st7735_lcd::ST7735<SPI,DC,RST>::init>
 262:	9019      	str	r0, [sp, #100]	; 0x64
 264:	e7ff      	b.n	266 <st7735_lcd::ST7735<SPI,DC,RST>::init+0x266>
 266:	9819      	ldr	r0, [sp, #100]	; 0x64
 268:	f000 0001 	and.w	r0, r0, #1
 26c:	f7ff fffe 	bl	0 <<core::result::Result<T,E> as core::ops::try::Try>::into_result>
 270:	f88d 0102 	strb.w	r0, [sp, #258]	; 0x102
 274:	e7ff      	b.n	276 <st7735_lcd::ST7735<SPI,DC,RST>::init+0x276>
 276:	f89d 0102 	ldrb.w	r0, [sp, #258]	; 0x102
 27a:	07c1      	lsls	r1, r0, #31
 27c:	2900      	cmp	r1, #0
 27e:	9018      	str	r0, [sp, #96]	; 0x60
 280:	d00e      	beq.n	2a0 <st7735_lcd::ST7735<SPI,DC,RST>::init+0x2a0>
 282:	e7ff      	b.n	284 <st7735_lcd::ST7735<SPI,DC,RST>::init+0x284>
 284:	9818      	ldr	r0, [sp, #96]	; 0x60
 286:	2801      	cmp	r0, #1
 288:	f47f aeda 	bne.w	40 <st7735_lcd::ST7735<SPI,DC,RST>::init+0x40>
 28c:	e7ff      	b.n	2 <<T as core::convert::From<T>>::from+0x2>
 28e:	f7ff fffe 	bl	0 <<T as core::convert::From<T>>::from>
 292:	e7ff      	b.n	2 <<core::result::Result<T,E> as core::ops::try::Try>::from_error+0x2>
 294:	f7ff fffe 	bl	0 <<core::result::Result<T,E> as core::ops::try::Try>::from_error>
 298:	f88d 00aa 	strb.w	r0, [sp, #170]	; 0xaa
 29c:	e7ff      	b.n	29e <st7735_lcd::ST7735<SPI,DC,RST>::init+0x29e>
 29e:	e6d9      	b.n	54 <st7735_lcd::ST7735<SPI,DC,RST>::init+0x54>
/Users/Luppy/.cargo/registry/src/github.com-1ecc6299db9ec823/st7735-lcd-0.6.1/src/lib.rs:95
        self.write_command(Instruction::PWCTR1, Some(&[0xA2, 0x02, 0x84]))?;
 2a0:	9828      	ldr	r0, [sp, #160]	; 0xa0
 2a2:	21c0      	movs	r1, #192	; 0xc0
 2a4:	f88d 1113 	strb.w	r1, [sp, #275]	; 0x113
 2a8:	f240 0100 	movw	r1, #0
 2ac:	f2c0 0100 	movt	r1, #0
 2b0:	9145      	str	r1, [sp, #276]	; 0x114
 2b2:	2103      	movs	r1, #3
 2b4:	9146      	str	r1, [sp, #280]	; 0x118
 2b6:	9a45      	ldr	r2, [sp, #276]	; 0x114
 2b8:	9b46      	ldr	r3, [sp, #280]	; 0x118
 2ba:	f89d 1113 	ldrb.w	r1, [sp, #275]	; 0x113
 2be:	f7ff fffe 	bl	0 <st7735_lcd::ST7735<SPI,DC,RST>::init>
 2c2:	9017      	str	r0, [sp, #92]	; 0x5c
 2c4:	e7ff      	b.n	2c6 <st7735_lcd::ST7735<SPI,DC,RST>::init+0x2c6>
 2c6:	9817      	ldr	r0, [sp, #92]	; 0x5c
 2c8:	f000 0001 	and.w	r0, r0, #1
 2cc:	f7ff fffe 	bl	0 <<core::result::Result<T,E> as core::ops::try::Try>::into_result>
 2d0:	f88d 0112 	strb.w	r0, [sp, #274]	; 0x112
 2d4:	e7ff      	b.n	2d6 <st7735_lcd::ST7735<SPI,DC,RST>::init+0x2d6>
 2d6:	f89d 0112 	ldrb.w	r0, [sp, #274]	; 0x112
 2da:	07c1      	lsls	r1, r0, #31
 2dc:	2900      	cmp	r1, #0
 2de:	9016      	str	r0, [sp, #88]	; 0x58
 2e0:	d00e      	beq.n	300 <st7735_lcd::ST7735<SPI,DC,RST>::init+0x300>
 2e2:	e7ff      	b.n	2e4 <st7735_lcd::ST7735<SPI,DC,RST>::init+0x2e4>
 2e4:	9816      	ldr	r0, [sp, #88]	; 0x58
 2e6:	2801      	cmp	r0, #1
 2e8:	f47f aeaa 	bne.w	40 <st7735_lcd::ST7735<SPI,DC,RST>::init+0x40>
 2ec:	e7ff      	b.n	2 <<T as core::convert::From<T>>::from+0x2>
 2ee:	f7ff fffe 	bl	0 <<T as core::convert::From<T>>::from>
 2f2:	e7ff      	b.n	2 <<core::result::Result<T,E> as core::ops::try::Try>::from_error+0x2>
 2f4:	f7ff fffe 	bl	0 <<core::result::Result<T,E> as core::ops::try::Try>::from_error>
 2f8:	f88d 00aa 	strb.w	r0, [sp, #170]	; 0xaa
 2fc:	e7ff      	b.n	2fe <st7735_lcd::ST7735<SPI,DC,RST>::init+0x2fe>
 2fe:	e6a9      	b.n	54 <st7735_lcd::ST7735<SPI,DC,RST>::init+0x54>
/Users/Luppy/.cargo/registry/src/github.com-1ecc6299db9ec823/st7735-lcd-0.6.1/src/lib.rs:96
        self.write_command(Instruction::PWCTR2, Some(&[0xC5]))?;
 300:	9828      	ldr	r0, [sp, #160]	; 0xa0
 302:	21c1      	movs	r1, #193	; 0xc1
 304:	f88d 1123 	strb.w	r1, [sp, #291]	; 0x123
 308:	f240 0100 	movw	r1, #0
 30c:	f2c0 0100 	movt	r1, #0
 310:	9149      	str	r1, [sp, #292]	; 0x124
 312:	2101      	movs	r1, #1
 314:	914a      	str	r1, [sp, #296]	; 0x128
 316:	9a49      	ldr	r2, [sp, #292]	; 0x124
 318:	9b4a      	ldr	r3, [sp, #296]	; 0x128
 31a:	f89d 1123 	ldrb.w	r1, [sp, #291]	; 0x123
 31e:	f7ff fffe 	bl	0 <st7735_lcd::ST7735<SPI,DC,RST>::init>
 322:	9015      	str	r0, [sp, #84]	; 0x54
 324:	e7ff      	b.n	326 <st7735_lcd::ST7735<SPI,DC,RST>::init+0x326>
 326:	9815      	ldr	r0, [sp, #84]	; 0x54
 328:	f000 0001 	and.w	r0, r0, #1
 32c:	f7ff fffe 	bl	0 <<core::result::Result<T,E> as core::ops::try::Try>::into_result>
 330:	f88d 0122 	strb.w	r0, [sp, #290]	; 0x122
 334:	e7ff      	b.n	336 <st7735_lcd::ST7735<SPI,DC,RST>::init+0x336>
 336:	f89d 0122 	ldrb.w	r0, [sp, #290]	; 0x122
 33a:	07c1      	lsls	r1, r0, #31
 33c:	2900      	cmp	r1, #0
 33e:	9014      	str	r0, [sp, #80]	; 0x50
 340:	d00e      	beq.n	360 <st7735_lcd::ST7735<SPI,DC,RST>::init+0x360>
 342:	e7ff      	b.n	344 <st7735_lcd::ST7735<SPI,DC,RST>::init+0x344>
 344:	9814      	ldr	r0, [sp, #80]	; 0x50
 346:	2801      	cmp	r0, #1
 348:	f47f ae7a 	bne.w	40 <st7735_lcd::ST7735<SPI,DC,RST>::init+0x40>
 34c:	e7ff      	b.n	2 <<T as core::convert::From<T>>::from+0x2>
 34e:	f7ff fffe 	bl	0 <<T as core::convert::From<T>>::from>
 352:	e7ff      	b.n	2 <<core::result::Result<T,E> as core::ops::try::Try>::from_error+0x2>
 354:	f7ff fffe 	bl	0 <<core::result::Result<T,E> as core::ops::try::Try>::from_error>
 358:	f88d 00aa 	strb.w	r0, [sp, #170]	; 0xaa
 35c:	e7ff      	b.n	35e <st7735_lcd::ST7735<SPI,DC,RST>::init+0x35e>
 35e:	e679      	b.n	54 <st7735_lcd::ST7735<SPI,DC,RST>::init+0x54>
/Users/Luppy/.cargo/registry/src/github.com-1ecc6299db9ec823/st7735-lcd-0.6.1/src/lib.rs:97
        self.write_command(Instruction::PWCTR3, Some(&[0x0A, 0x00]))?;
 360:	9828      	ldr	r0, [sp, #160]	; 0xa0
 362:	21c2      	movs	r1, #194	; 0xc2
 364:	f88d 1133 	strb.w	r1, [sp, #307]	; 0x133
 368:	f240 0100 	movw	r1, #0
 36c:	f2c0 0100 	movt	r1, #0
 370:	914d      	str	r1, [sp, #308]	; 0x134
 372:	2102      	movs	r1, #2
 374:	914e      	str	r1, [sp, #312]	; 0x138
 376:	9a4d      	ldr	r2, [sp, #308]	; 0x134
 378:	9b4e      	ldr	r3, [sp, #312]	; 0x138
 37a:	f89d 1133 	ldrb.w	r1, [sp, #307]	; 0x133
 37e:	f7ff fffe 	bl	0 <st7735_lcd::ST7735<SPI,DC,RST>::init>
 382:	9013      	str	r0, [sp, #76]	; 0x4c
 384:	e7ff      	b.n	386 <st7735_lcd::ST7735<SPI,DC,RST>::init+0x386>
 386:	9813      	ldr	r0, [sp, #76]	; 0x4c
 388:	f000 0001 	and.w	r0, r0, #1
 38c:	f7ff fffe 	bl	0 <<core::result::Result<T,E> as core::ops::try::Try>::into_result>
 390:	f88d 0132 	strb.w	r0, [sp, #306]	; 0x132
 394:	e7ff      	b.n	396 <st7735_lcd::ST7735<SPI,DC,RST>::init+0x396>
 396:	f89d 0132 	ldrb.w	r0, [sp, #306]	; 0x132
 39a:	07c1      	lsls	r1, r0, #31
 39c:	2900      	cmp	r1, #0
 39e:	9012      	str	r0, [sp, #72]	; 0x48
 3a0:	d00e      	beq.n	3c0 <st7735_lcd::ST7735<SPI,DC,RST>::init+0x3c0>
 3a2:	e7ff      	b.n	3a4 <st7735_lcd::ST7735<SPI,DC,RST>::init+0x3a4>
 3a4:	9812      	ldr	r0, [sp, #72]	; 0x48
 3a6:	2801      	cmp	r0, #1
 3a8:	f47f ae4a 	bne.w	40 <st7735_lcd::ST7735<SPI,DC,RST>::init+0x40>
 3ac:	e7ff      	b.n	2 <<T as core::convert::From<T>>::from+0x2>
 3ae:	f7ff fffe 	bl	0 <<T as core::convert::From<T>>::from>
 3b2:	e7ff      	b.n	2 <<core::result::Result<T,E> as core::ops::try::Try>::from_error+0x2>
 3b4:	f7ff fffe 	bl	0 <<core::result::Result<T,E> as core::ops::try::Try>::from_error>
 3b8:	f88d 00aa 	strb.w	r0, [sp, #170]	; 0xaa
 3bc:	e7ff      	b.n	3be <st7735_lcd::ST7735<SPI,DC,RST>::init+0x3be>
 3be:	e649      	b.n	54 <st7735_lcd::ST7735<SPI,DC,RST>::init+0x54>
/Users/Luppy/.cargo/registry/src/github.com-1ecc6299db9ec823/st7735-lcd-0.6.1/src/lib.rs:98
        self.write_command(Instruction::PWCTR4, Some(&[0x8A, 0x2A]))?;
 3c0:	9828      	ldr	r0, [sp, #160]	; 0xa0
 3c2:	21c3      	movs	r1, #195	; 0xc3
 3c4:	f88d 1143 	strb.w	r1, [sp, #323]	; 0x143
 3c8:	f240 0100 	movw	r1, #0
 3cc:	f2c0 0100 	movt	r1, #0
 3d0:	9151      	str	r1, [sp, #324]	; 0x144
 3d2:	2102      	movs	r1, #2
 3d4:	9152      	str	r1, [sp, #328]	; 0x148
 3d6:	9a51      	ldr	r2, [sp, #324]	; 0x144
 3d8:	9b52      	ldr	r3, [sp, #328]	; 0x148
 3da:	f89d 1143 	ldrb.w	r1, [sp, #323]	; 0x143
 3de:	f7ff fffe 	bl	0 <st7735_lcd::ST7735<SPI,DC,RST>::init>
 3e2:	9011      	str	r0, [sp, #68]	; 0x44
 3e4:	e7ff      	b.n	3e6 <st7735_lcd::ST7735<SPI,DC,RST>::init+0x3e6>
 3e6:	9811      	ldr	r0, [sp, #68]	; 0x44
 3e8:	f000 0001 	and.w	r0, r0, #1
 3ec:	f7ff fffe 	bl	0 <<core::result::Result<T,E> as core::ops::try::Try>::into_result>
 3f0:	f88d 0142 	strb.w	r0, [sp, #322]	; 0x142
 3f4:	e7ff      	b.n	3f6 <st7735_lcd::ST7735<SPI,DC,RST>::init+0x3f6>
 3f6:	f89d 0142 	ldrb.w	r0, [sp, #322]	; 0x142
 3fa:	07c1      	lsls	r1, r0, #31
 3fc:	2900      	cmp	r1, #0
 3fe:	9010      	str	r0, [sp, #64]	; 0x40
 400:	d00e      	beq.n	420 <st7735_lcd::ST7735<SPI,DC,RST>::init+0x420>
 402:	e7ff      	b.n	404 <st7735_lcd::ST7735<SPI,DC,RST>::init+0x404>
 404:	9810      	ldr	r0, [sp, #64]	; 0x40
 406:	2801      	cmp	r0, #1
 408:	f47f ae1a 	bne.w	40 <st7735_lcd::ST7735<SPI,DC,RST>::init+0x40>
 40c:	e7ff      	b.n	2 <<T as core::convert::From<T>>::from+0x2>
 40e:	f7ff fffe 	bl	0 <<T as core::convert::From<T>>::from>
 412:	e7ff      	b.n	2 <<core::result::Result<T,E> as core::ops::try::Try>::from_error+0x2>
 414:	f7ff fffe 	bl	0 <<core::result::Result<T,E> as core::ops::try::Try>::from_error>
 418:	f88d 00aa 	strb.w	r0, [sp, #170]	; 0xaa
 41c:	e7ff      	b.n	41e <st7735_lcd::ST7735<SPI,DC,RST>::init+0x41e>
 41e:	e619      	b.n	54 <st7735_lcd::ST7735<SPI,DC,RST>::init+0x54>
/Users/Luppy/.cargo/registry/src/github.com-1ecc6299db9ec823/st7735-lcd-0.6.1/src/lib.rs:99
        self.write_command(Instruction::PWCTR5, Some(&[0x8A, 0xEE]))?;
 420:	9828      	ldr	r0, [sp, #160]	; 0xa0
 422:	21c4      	movs	r1, #196	; 0xc4
 424:	f88d 1153 	strb.w	r1, [sp, #339]	; 0x153
 428:	f240 0100 	movw	r1, #0
 42c:	f2c0 0100 	movt	r1, #0
 430:	9155      	str	r1, [sp, #340]	; 0x154
 432:	2102      	movs	r1, #2
 434:	9156      	str	r1, [sp, #344]	; 0x158
 436:	9a55      	ldr	r2, [sp, #340]	; 0x154
 438:	9b56      	ldr	r3, [sp, #344]	; 0x158
 43a:	f89d 1153 	ldrb.w	r1, [sp, #339]	; 0x153
 43e:	f7ff fffe 	bl	0 <st7735_lcd::ST7735<SPI,DC,RST>::init>
 442:	900f      	str	r0, [sp, #60]	; 0x3c
 444:	e7ff      	b.n	446 <st7735_lcd::ST7735<SPI,DC,RST>::init+0x446>
 446:	980f      	ldr	r0, [sp, #60]	; 0x3c
 448:	f000 0001 	and.w	r0, r0, #1
 44c:	f7ff fffe 	bl	0 <<core::result::Result<T,E> as core::ops::try::Try>::into_result>
 450:	f88d 0152 	strb.w	r0, [sp, #338]	; 0x152
 454:	e7ff      	b.n	456 <st7735_lcd::ST7735<SPI,DC,RST>::init+0x456>
 456:	f89d 0152 	ldrb.w	r0, [sp, #338]	; 0x152
 45a:	07c1      	lsls	r1, r0, #31
 45c:	2900      	cmp	r1, #0
 45e:	900e      	str	r0, [sp, #56]	; 0x38
 460:	d00e      	beq.n	480 <st7735_lcd::ST7735<SPI,DC,RST>::init+0x480>
 462:	e7ff      	b.n	464 <st7735_lcd::ST7735<SPI,DC,RST>::init+0x464>
 464:	980e      	ldr	r0, [sp, #56]	; 0x38
 466:	2801      	cmp	r0, #1
 468:	f47f adea 	bne.w	40 <st7735_lcd::ST7735<SPI,DC,RST>::init+0x40>
 46c:	e7ff      	b.n	2 <<T as core::convert::From<T>>::from+0x2>
 46e:	f7ff fffe 	bl	0 <<T as core::convert::From<T>>::from>
 472:	e7ff      	b.n	2 <<core::result::Result<T,E> as core::ops::try::Try>::from_error+0x2>
 474:	f7ff fffe 	bl	0 <<core::result::Result<T,E> as core::ops::try::Try>::from_error>
 478:	f88d 00aa 	strb.w	r0, [sp, #170]	; 0xaa
 47c:	e7ff      	b.n	47e <st7735_lcd::ST7735<SPI,DC,RST>::init+0x47e>
 47e:	e5e9      	b.n	54 <st7735_lcd::ST7735<SPI,DC,RST>::init+0x54>
/Users/Luppy/.cargo/registry/src/github.com-1ecc6299db9ec823/st7735-lcd-0.6.1/src/lib.rs:100
        self.write_command(Instruction::VMCTR1, Some(&[0x0E]))?;
 480:	9828      	ldr	r0, [sp, #160]	; 0xa0
 482:	21c5      	movs	r1, #197	; 0xc5
 484:	f88d 1163 	strb.w	r1, [sp, #355]	; 0x163
 488:	f240 0100 	movw	r1, #0
 48c:	f2c0 0100 	movt	r1, #0
 490:	9159      	str	r1, [sp, #356]	; 0x164
 492:	2101      	movs	r1, #1
 494:	915a      	str	r1, [sp, #360]	; 0x168
 496:	9a59      	ldr	r2, [sp, #356]	; 0x164
 498:	9b5a      	ldr	r3, [sp, #360]	; 0x168
 49a:	f89d 1163 	ldrb.w	r1, [sp, #355]	; 0x163
 49e:	f7ff fffe 	bl	0 <st7735_lcd::ST7735<SPI,DC,RST>::init>
 4a2:	900d      	str	r0, [sp, #52]	; 0x34
 4a4:	e7ff      	b.n	4a6 <st7735_lcd::ST7735<SPI,DC,RST>::init+0x4a6>
 4a6:	980d      	ldr	r0, [sp, #52]	; 0x34
 4a8:	f000 0001 	and.w	r0, r0, #1
 4ac:	f7ff fffe 	bl	0 <<core::result::Result<T,E> as core::ops::try::Try>::into_result>
 4b0:	f88d 0162 	strb.w	r0, [sp, #354]	; 0x162
 4b4:	e7ff      	b.n	4b6 <st7735_lcd::ST7735<SPI,DC,RST>::init+0x4b6>
 4b6:	f89d 0162 	ldrb.w	r0, [sp, #354]	; 0x162
 4ba:	07c1      	lsls	r1, r0, #31
 4bc:	2900      	cmp	r1, #0
 4be:	900c      	str	r0, [sp, #48]	; 0x30
 4c0:	d00e      	beq.n	4e0 <st7735_lcd::ST7735<SPI,DC,RST>::init+0x4e0>
 4c2:	e7ff      	b.n	4c4 <st7735_lcd::ST7735<SPI,DC,RST>::init+0x4c4>
 4c4:	980c      	ldr	r0, [sp, #48]	; 0x30
 4c6:	2801      	cmp	r0, #1
 4c8:	f47f adba 	bne.w	40 <st7735_lcd::ST7735<SPI,DC,RST>::init+0x40>
 4cc:	e7ff      	b.n	2 <<T as core::convert::From<T>>::from+0x2>
 4ce:	f7ff fffe 	bl	0 <<T as core::convert::From<T>>::from>
 4d2:	e7ff      	b.n	2 <<core::result::Result<T,E> as core::ops::try::Try>::from_error+0x2>
 4d4:	f7ff fffe 	bl	0 <<core::result::Result<T,E> as core::ops::try::Try>::from_error>
 4d8:	f88d 00aa 	strb.w	r0, [sp, #170]	; 0xaa
 4dc:	e7ff      	b.n	4de <st7735_lcd::ST7735<SPI,DC,RST>::init+0x4de>
 4de:	e5b9      	b.n	54 <st7735_lcd::ST7735<SPI,DC,RST>::init+0x54>
/Users/Luppy/.cargo/registry/src/github.com-1ecc6299db9ec823/st7735-lcd-0.6.1/src/lib.rs:101
        if self.inverted {
 4e0:	9828      	ldr	r0, [sp, #160]	; 0xa0
 4e2:	7d40      	ldrb	r0, [r0, #21]
 4e4:	07c0      	lsls	r0, r0, #31
 4e6:	2800      	cmp	r0, #0
 4e8:	d02f      	beq.n	54a <st7735_lcd::ST7735<SPI,DC,RST>::init+0x54a>
 4ea:	e7ff      	b.n	4ec <st7735_lcd::ST7735<SPI,DC,RST>::init+0x4ec>
/Users/Luppy/.cargo/registry/src/github.com-1ecc6299db9ec823/st7735-lcd-0.6.1/src/lib.rs:102
            self.write_command(Instruction::INVON, None)?;
 4ec:	9828      	ldr	r0, [sp, #160]	; 0xa0
 4ee:	2121      	movs	r1, #33	; 0x21
 4f0:	f88d 1173 	strb.w	r1, [sp, #371]	; 0x173
 4f4:	2100      	movs	r1, #0
 4f6:	915e      	str	r1, [sp, #376]	; 0x178
 4f8:	915d      	str	r1, [sp, #372]	; 0x174
 4fa:	915d      	str	r1, [sp, #372]	; 0x174
 4fc:	9a5d      	ldr	r2, [sp, #372]	; 0x174
 4fe:	9b5e      	ldr	r3, [sp, #376]	; 0x178
 500:	f89d 1173 	ldrb.w	r1, [sp, #371]	; 0x173
 504:	f7ff fffe 	bl	0 <st7735_lcd::ST7735<SPI,DC,RST>::init>
 508:	900b      	str	r0, [sp, #44]	; 0x2c
 50a:	e7ff      	b.n	50c <st7735_lcd::ST7735<SPI,DC,RST>::init+0x50c>
 50c:	980b      	ldr	r0, [sp, #44]	; 0x2c
 50e:	f000 0001 	and.w	r0, r0, #1
 512:	f7ff fffe 	bl	0 <<core::result::Result<T,E> as core::ops::try::Try>::into_result>
 516:	f88d 0172 	strb.w	r0, [sp, #370]	; 0x172
 51a:	e7ff      	b.n	51c <st7735_lcd::ST7735<SPI,DC,RST>::init+0x51c>
 51c:	f89d 0172 	ldrb.w	r0, [sp, #370]	; 0x172
 520:	07c1      	lsls	r1, r0, #31
 522:	2900      	cmp	r1, #0
 524:	900a      	str	r0, [sp, #40]	; 0x28
 526:	d00f      	beq.n	548 <st7735_lcd::ST7735<SPI,DC,RST>::init+0x548>
 528:	e7ff      	b.n	52a <st7735_lcd::ST7735<SPI,DC,RST>::init+0x52a>
 52a:	980a      	ldr	r0, [sp, #40]	; 0x28
 52c:	2801      	cmp	r0, #1
 52e:	f47f ad87 	bne.w	40 <st7735_lcd::ST7735<SPI,DC,RST>::init+0x40>
 532:	e7ff      	b.n	2 <<T as core::convert::From<T>>::from+0x2>
 534:	f7ff fffe 	bl	0 <<T as core::convert::From<T>>::from>
 538:	e7ff      	b.n	2 <<core::result::Result<T,E> as core::ops::try::Try>::from_error+0x2>
 53a:	f7ff fffe 	bl	0 <<core::result::Result<T,E> as core::ops::try::Try>::from_error>
 53e:	f88d 00aa 	strb.w	r0, [sp, #170]	; 0xaa
 542:	e7ff      	b.n	544 <st7735_lcd::ST7735<SPI,DC,RST>::init+0x544>
 544:	e7ff      	b.n	546 <st7735_lcd::ST7735<SPI,DC,RST>::init+0x546>
 546:	e585      	b.n	54 <st7735_lcd::ST7735<SPI,DC,RST>::init+0x54>
/Users/Luppy/.cargo/registry/src/github.com-1ecc6299db9ec823/st7735-lcd-0.6.1/src/lib.rs:101
        if self.inverted {
 548:	e02d      	b.n	5a6 <st7735_lcd::ST7735<SPI,DC,RST>::init+0x5a6>
/Users/Luppy/.cargo/registry/src/github.com-1ecc6299db9ec823/st7735-lcd-0.6.1/src/lib.rs:104
            self.write_command(Instruction::INVOFF, None)?;
 54a:	9828      	ldr	r0, [sp, #160]	; 0xa0
 54c:	2120      	movs	r1, #32
 54e:	f88d 1183 	strb.w	r1, [sp, #387]	; 0x183
 552:	2100      	movs	r1, #0
 554:	9162      	str	r1, [sp, #392]	; 0x188
 556:	9161      	str	r1, [sp, #388]	; 0x184
 558:	9161      	str	r1, [sp, #388]	; 0x184
 55a:	9a61      	ldr	r2, [sp, #388]	; 0x184
 55c:	9b62      	ldr	r3, [sp, #392]	; 0x188
 55e:	f89d 1183 	ldrb.w	r1, [sp, #387]	; 0x183
 562:	f7ff fffe 	bl	0 <st7735_lcd::ST7735<SPI,DC,RST>::init>
 566:	9009      	str	r0, [sp, #36]	; 0x24
 568:	e7ff      	b.n	56a <st7735_lcd::ST7735<SPI,DC,RST>::init+0x56a>
 56a:	9809      	ldr	r0, [sp, #36]	; 0x24
 56c:	f000 0001 	and.w	r0, r0, #1
 570:	f7ff fffe 	bl	0 <<core::result::Result<T,E> as core::ops::try::Try>::into_result>
 574:	f88d 0182 	strb.w	r0, [sp, #386]	; 0x182
 578:	e7ff      	b.n	57a <st7735_lcd::ST7735<SPI,DC,RST>::init+0x57a>
 57a:	f89d 0182 	ldrb.w	r0, [sp, #386]	; 0x182
 57e:	07c1      	lsls	r1, r0, #31
 580:	2900      	cmp	r1, #0
 582:	9008      	str	r0, [sp, #32]
 584:	d00e      	beq.n	5a4 <st7735_lcd::ST7735<SPI,DC,RST>::init+0x5a4>
 586:	e7ff      	b.n	588 <st7735_lcd::ST7735<SPI,DC,RST>::init+0x588>
 588:	9808      	ldr	r0, [sp, #32]
 58a:	2801      	cmp	r0, #1
 58c:	f47f ad58 	bne.w	40 <st7735_lcd::ST7735<SPI,DC,RST>::init+0x40>
 590:	e7ff      	b.n	2 <<T as core::convert::From<T>>::from+0x2>
 592:	f7ff fffe 	bl	0 <<T as core::convert::From<T>>::from>
 596:	e7ff      	b.n	2 <<core::result::Result<T,E> as core::ops::try::Try>::from_error+0x2>
 598:	f7ff fffe 	bl	0 <<core::result::Result<T,E> as core::ops::try::Try>::from_error>
 59c:	f88d 00aa 	strb.w	r0, [sp, #170]	; 0xaa
 5a0:	e7ff      	b.n	5a2 <st7735_lcd::ST7735<SPI,DC,RST>::init+0x5a2>
 5a2:	e7d0      	b.n	546 <st7735_lcd::ST7735<SPI,DC,RST>::init+0x546>
/Users/Luppy/.cargo/registry/src/github.com-1ecc6299db9ec823/st7735-lcd-0.6.1/src/lib.rs:101
        if self.inverted {
 5a4:	e7ff      	b.n	5a6 <st7735_lcd::ST7735<SPI,DC,RST>::init+0x5a6>
/Users/Luppy/.cargo/registry/src/github.com-1ecc6299db9ec823/st7735-lcd-0.6.1/src/lib.rs:106
        if self.rgb {
 5a6:	9828      	ldr	r0, [sp, #160]	; 0xa0
 5a8:	7d00      	ldrb	r0, [r0, #20]
 5aa:	07c0      	lsls	r0, r0, #31
 5ac:	2800      	cmp	r0, #0
 5ae:	d032      	beq.n	616 <st7735_lcd::ST7735<SPI,DC,RST>::init+0x616>
 5b0:	e7ff      	b.n	5b2 <st7735_lcd::ST7735<SPI,DC,RST>::init+0x5b2>
/Users/Luppy/.cargo/registry/src/github.com-1ecc6299db9ec823/st7735-lcd-0.6.1/src/lib.rs:107
            self.write_command(Instruction::MADCTL, Some(&[0x00]))?;
 5b2:	9828      	ldr	r0, [sp, #160]	; 0xa0
 5b4:	2136      	movs	r1, #54	; 0x36
 5b6:	f88d 1193 	strb.w	r1, [sp, #403]	; 0x193
 5ba:	f240 0100 	movw	r1, #0
 5be:	f2c0 0100 	movt	r1, #0
 5c2:	9165      	str	r1, [sp, #404]	; 0x194
 5c4:	2101      	movs	r1, #1
 5c6:	9166      	str	r1, [sp, #408]	; 0x198
 5c8:	9a65      	ldr	r2, [sp, #404]	; 0x194
 5ca:	9b66      	ldr	r3, [sp, #408]	; 0x198
 5cc:	f89d 1193 	ldrb.w	r1, [sp, #403]	; 0x193
 5d0:	f7ff fffe 	bl	0 <st7735_lcd::ST7735<SPI,DC,RST>::init>
 5d4:	9007      	str	r0, [sp, #28]
 5d6:	e7ff      	b.n	5d8 <st7735_lcd::ST7735<SPI,DC,RST>::init+0x5d8>
 5d8:	9807      	ldr	r0, [sp, #28]
 5da:	f000 0001 	and.w	r0, r0, #1
 5de:	f7ff fffe 	bl	0 <<core::result::Result<T,E> as core::ops::try::Try>::into_result>
 5e2:	f88d 0192 	strb.w	r0, [sp, #402]	; 0x192
 5e6:	e7ff      	b.n	5e8 <st7735_lcd::ST7735<SPI,DC,RST>::init+0x5e8>
 5e8:	f89d 0192 	ldrb.w	r0, [sp, #402]	; 0x192
 5ec:	07c1      	lsls	r1, r0, #31
 5ee:	2900      	cmp	r1, #0
 5f0:	9006      	str	r0, [sp, #24]
 5f2:	d00f      	beq.n	614 <st7735_lcd::ST7735<SPI,DC,RST>::init+0x614>
 5f4:	e7ff      	b.n	5f6 <st7735_lcd::ST7735<SPI,DC,RST>::init+0x5f6>
 5f6:	9806      	ldr	r0, [sp, #24]
 5f8:	2801      	cmp	r0, #1
 5fa:	f47f ad21 	bne.w	40 <st7735_lcd::ST7735<SPI,DC,RST>::init+0x40>
 5fe:	e7ff      	b.n	2 <<T as core::convert::From<T>>::from+0x2>
 600:	f7ff fffe 	bl	0 <<T as core::convert::From<T>>::from>
 604:	e7ff      	b.n	2 <<core::result::Result<T,E> as core::ops::try::Try>::from_error+0x2>
 606:	f7ff fffe 	bl	0 <<core::result::Result<T,E> as core::ops::try::Try>::from_error>
 60a:	f88d 00aa 	strb.w	r0, [sp, #170]	; 0xaa
 60e:	e7ff      	b.n	610 <st7735_lcd::ST7735<SPI,DC,RST>::init+0x610>
 610:	e7ff      	b.n	612 <st7735_lcd::ST7735<SPI,DC,RST>::init+0x612>
 612:	e51f      	b.n	54 <st7735_lcd::ST7735<SPI,DC,RST>::init+0x54>
/Users/Luppy/.cargo/registry/src/github.com-1ecc6299db9ec823/st7735-lcd-0.6.1/src/lib.rs:106
        if self.rgb {
 614:	e030      	b.n	678 <st7735_lcd::ST7735<SPI,DC,RST>::init+0x678>
/Users/Luppy/.cargo/registry/src/github.com-1ecc6299db9ec823/st7735-lcd-0.6.1/src/lib.rs:109
            self.write_command(Instruction::MADCTL, Some(&[0x08]))?;
 616:	9828      	ldr	r0, [sp, #160]	; 0xa0
 618:	2136      	movs	r1, #54	; 0x36
 61a:	f88d 11a3 	strb.w	r1, [sp, #419]	; 0x1a3
 61e:	f240 0100 	movw	r1, #0
 622:	f2c0 0100 	movt	r1, #0
 626:	9169      	str	r1, [sp, #420]	; 0x1a4
 628:	2101      	movs	r1, #1
 62a:	916a      	str	r1, [sp, #424]	; 0x1a8
 62c:	9a69      	ldr	r2, [sp, #420]	; 0x1a4
 62e:	9b6a      	ldr	r3, [sp, #424]	; 0x1a8
 630:	f89d 11a3 	ldrb.w	r1, [sp, #419]	; 0x1a3
 634:	f7ff fffe 	bl	0 <st7735_lcd::ST7735<SPI,DC,RST>::init>
 638:	9005      	str	r0, [sp, #20]
 63a:	e7ff      	b.n	63c <st7735_lcd::ST7735<SPI,DC,RST>::init+0x63c>
 63c:	9805      	ldr	r0, [sp, #20]
 63e:	f000 0001 	and.w	r0, r0, #1
 642:	f7ff fffe 	bl	0 <<core::result::Result<T,E> as core::ops::try::Try>::into_result>
 646:	f88d 01a2 	strb.w	r0, [sp, #418]	; 0x1a2
 64a:	e7ff      	b.n	64c <st7735_lcd::ST7735<SPI,DC,RST>::init+0x64c>
 64c:	f89d 01a2 	ldrb.w	r0, [sp, #418]	; 0x1a2
 650:	07c1      	lsls	r1, r0, #31
 652:	2900      	cmp	r1, #0
 654:	9004      	str	r0, [sp, #16]
 656:	d00e      	beq.n	676 <st7735_lcd::ST7735<SPI,DC,RST>::init+0x676>
 658:	e7ff      	b.n	65a <st7735_lcd::ST7735<SPI,DC,RST>::init+0x65a>
 65a:	9804      	ldr	r0, [sp, #16]
 65c:	2801      	cmp	r0, #1
 65e:	f47f acef 	bne.w	40 <st7735_lcd::ST7735<SPI,DC,RST>::init+0x40>
 662:	e7ff      	b.n	2 <<T as core::convert::From<T>>::from+0x2>
 664:	f7ff fffe 	bl	0 <<T as core::convert::From<T>>::from>
 668:	e7ff      	b.n	2 <<core::result::Result<T,E> as core::ops::try::Try>::from_error+0x2>
 66a:	f7ff fffe 	bl	0 <<core::result::Result<T,E> as core::ops::try::Try>::from_error>
 66e:	f88d 00aa 	strb.w	r0, [sp, #170]	; 0xaa
 672:	e7ff      	b.n	674 <st7735_lcd::ST7735<SPI,DC,RST>::init+0x674>
 674:	e7cd      	b.n	612 <st7735_lcd::ST7735<SPI,DC,RST>::init+0x612>
/Users/Luppy/.cargo/registry/src/github.com-1ecc6299db9ec823/st7735-lcd-0.6.1/src/lib.rs:106
        if self.rgb {
 676:	e7ff      	b.n	678 <st7735_lcd::ST7735<SPI,DC,RST>::init+0x678>
/Users/Luppy/.cargo/registry/src/github.com-1ecc6299db9ec823/st7735-lcd-0.6.1/src/lib.rs:111
        self.write_command(Instruction::COLMOD, Some(&[0x05]))?;
 678:	9828      	ldr	r0, [sp, #160]	; 0xa0
 67a:	213a      	movs	r1, #58	; 0x3a
 67c:	f88d 11b3 	strb.w	r1, [sp, #435]	; 0x1b3
 680:	f240 0100 	movw	r1, #0
 684:	f2c0 0100 	movt	r1, #0
 688:	916d      	str	r1, [sp, #436]	; 0x1b4
 68a:	2101      	movs	r1, #1
 68c:	916e      	str	r1, [sp, #440]	; 0x1b8
 68e:	9a6d      	ldr	r2, [sp, #436]	; 0x1b4
 690:	9b6e      	ldr	r3, [sp, #440]	; 0x1b8
 692:	f89d 11b3 	ldrb.w	r1, [sp, #435]	; 0x1b3
 696:	f7ff fffe 	bl	0 <st7735_lcd::ST7735<SPI,DC,RST>::init>
 69a:	9003      	str	r0, [sp, #12]
 69c:	e7ff      	b.n	69e <st7735_lcd::ST7735<SPI,DC,RST>::init+0x69e>
 69e:	9803      	ldr	r0, [sp, #12]
 6a0:	f000 0001 	and.w	r0, r0, #1
 6a4:	f7ff fffe 	bl	0 <<core::result::Result<T,E> as core::ops::try::Try>::into_result>
 6a8:	f88d 01b2 	strb.w	r0, [sp, #434]	; 0x1b2
 6ac:	e7ff      	b.n	6ae <st7735_lcd::ST7735<SPI,DC,RST>::init+0x6ae>
 6ae:	f89d 01b2 	ldrb.w	r0, [sp, #434]	; 0x1b2
 6b2:	07c1      	lsls	r1, r0, #31
 6b4:	2900      	cmp	r1, #0
 6b6:	9002      	str	r0, [sp, #8]
 6b8:	d00e      	beq.n	6d8 <st7735_lcd::ST7735<SPI,DC,RST>::init+0x6d8>
 6ba:	e7ff      	b.n	6bc <st7735_lcd::ST7735<SPI,DC,RST>::init+0x6bc>
 6bc:	9802      	ldr	r0, [sp, #8]
 6be:	2801      	cmp	r0, #1
 6c0:	f47f acbe 	bne.w	40 <st7735_lcd::ST7735<SPI,DC,RST>::init+0x40>
 6c4:	e7ff      	b.n	2 <<T as core::convert::From<T>>::from+0x2>
 6c6:	f7ff fffe 	bl	0 <<T as core::convert::From<T>>::from>
 6ca:	e7ff      	b.n	2 <<core::result::Result<T,E> as core::ops::try::Try>::from_error+0x2>
 6cc:	f7ff fffe 	bl	0 <<core::result::Result<T,E> as core::ops::try::Try>::from_error>
 6d0:	f88d 00aa 	strb.w	r0, [sp, #170]	; 0xaa
 6d4:	e7ff      	b.n	6d6 <st7735_lcd::ST7735<SPI,DC,RST>::init+0x6d6>
 6d6:	e4bd      	b.n	54 <st7735_lcd::ST7735<SPI,DC,RST>::init+0x54>
/Users/Luppy/.cargo/registry/src/github.com-1ecc6299db9ec823/st7735-lcd-0.6.1/src/lib.rs:112
        self.write_command(Instruction::DISPON, None)?;
 6d8:	9828      	ldr	r0, [sp, #160]	; 0xa0
 6da:	2129      	movs	r1, #41	; 0x29
 6dc:	f88d 11c3 	strb.w	r1, [sp, #451]	; 0x1c3
 6e0:	2100      	movs	r1, #0
 6e2:	9172      	str	r1, [sp, #456]	; 0x1c8
 6e4:	9171      	str	r1, [sp, #452]	; 0x1c4
 6e6:	9171      	str	r1, [sp, #452]	; 0x1c4
 6e8:	9a71      	ldr	r2, [sp, #452]	; 0x1c4
 6ea:	9b72      	ldr	r3, [sp, #456]	; 0x1c8
 6ec:	f89d 11c3 	ldrb.w	r1, [sp, #451]	; 0x1c3
 6f0:	f7ff fffe 	bl	0 <st7735_lcd::ST7735<SPI,DC,RST>::init>
 6f4:	9001      	str	r0, [sp, #4]
 6f6:	e7ff      	b.n	6f8 <st7735_lcd::ST7735<SPI,DC,RST>::init+0x6f8>
 6f8:	9801      	ldr	r0, [sp, #4]
 6fa:	f000 0001 	and.w	r0, r0, #1
 6fe:	f7ff fffe 	bl	0 <<core::result::Result<T,E> as core::ops::try::Try>::into_result>
 702:	f88d 01c2 	strb.w	r0, [sp, #450]	; 0x1c2
 706:	e7ff      	b.n	708 <st7735_lcd::ST7735<SPI,DC,RST>::init+0x708>
 708:	f89d 01c2 	ldrb.w	r0, [sp, #450]	; 0x1c2
 70c:	07c1      	lsls	r1, r0, #31
 70e:	2900      	cmp	r1, #0
 710:	9000      	str	r0, [sp, #0]
 712:	d00f      	beq.n	734 <st7735_lcd::ST7735<SPI,DC,RST>::init+0x734>
 714:	e7ff      	b.n	716 <st7735_lcd::ST7735<SPI,DC,RST>::init+0x716>
 716:	9800      	ldr	r0, [sp, #0]
 718:	2801      	cmp	r0, #1
 71a:	f47f ac91 	bne.w	40 <st7735_lcd::ST7735<SPI,DC,RST>::init+0x40>
 71e:	e7ff      	b.n	2 <<T as core::convert::From<T>>::from+0x2>
 720:	f7ff fffe 	bl	0 <<T as core::convert::From<T>>::from>
 724:	e7ff      	b.n	2 <<core::result::Result<T,E> as core::ops::try::Try>::from_error+0x2>
 726:	f7ff fffe 	bl	0 <<core::result::Result<T,E> as core::ops::try::Try>::from_error>
 72a:	f88d 00aa 	strb.w	r0, [sp, #170]	; 0xaa
 72e:	e7ff      	b.n	730 <st7735_lcd::ST7735<SPI,DC,RST>::init+0x730>
 730:	f7ff bc90 	b.w	54 <st7735_lcd::ST7735<SPI,DC,RST>::init+0x54>
/Users/Luppy/.cargo/registry/src/github.com-1ecc6299db9ec823/st7735-lcd-0.6.1/src/lib.rs:113
        delay.delay_ms(200);
 734:	9829      	ldr	r0, [sp, #164]	; 0xa4
 736:	21c8      	movs	r1, #200	; 0xc8
 738:	f7ff fffe 	bl	0 <<app::mynewt_hal::MynewtDelay as embedded_hal::blocking::delay::DelayMs<u8>>::delay_ms>
 73c:	e7ff      	b.n	73e <st7735_lcd::ST7735<SPI,DC,RST>::init+0x73e>
 73e:	2000      	movs	r0, #0
/Users/Luppy/.cargo/registry/src/github.com-1ecc6299db9ec823/st7735-lcd-0.6.1/src/lib.rs:114
        Ok(())
 740:	f88d 00aa 	strb.w	r0, [sp, #170]	; 0xaa
/Users/Luppy/.cargo/registry/src/github.com-1ecc6299db9ec823/st7735-lcd-0.6.1/src/lib.rs:115
    }
 744:	f7ff bc86 	b.w	54 <st7735_lcd::ST7735<SPI,DC,RST>::init+0x54>

Disassembly of section .text._ZN10st7735_lcd28ST7735$LT$SPI$C$DC$C$RST$GT$9set_pixel17he61da7a08d54fe0bE:

00000000 <st7735_lcd::ST7735<SPI,DC,RST>::set_pixel>:
_ZN10st7735_lcd28ST7735$LT$SPI$C$DC$C$RST$GT$9set_pixel17he61da7a08d54fe0bE():
/Users/Luppy/.cargo/registry/src/github.com-1ecc6299db9ec823/st7735-lcd-0.6.1/src/lib.rs:174

    /// Sets a pixel color at the given coords.
    pub fn set_pixel(&mut self, x: u16, y: u16, color: u16) -> Result <(), ()> {
   0:	b5b0      	push	{r4, r5, r7, lr}
   2:	b094      	sub	sp, #80	; 0x50
   4:	469c      	mov	ip, r3
   6:	4696      	mov	lr, r2
   8:	460c      	mov	r4, r1
   a:	4605      	mov	r5, r0
   c:	900b      	str	r0, [sp, #44]	; 0x2c
   e:	f8ad 1030 	strh.w	r1, [sp, #48]	; 0x30
  12:	f8ad 2032 	strh.w	r2, [sp, #50]	; 0x32
  16:	f8ad 3034 	strh.w	r3, [sp, #52]	; 0x34
/Users/Luppy/.cargo/registry/src/github.com-1ecc6299db9ec823/st7735-lcd-0.6.1/src/lib.rs:175
        self.set_address_window(x, y, x, y)?;
  1a:	980b      	ldr	r0, [sp, #44]	; 0x2c
  1c:	f8bd 1030 	ldrh.w	r1, [sp, #48]	; 0x30
  20:	f8bd 2032 	ldrh.w	r2, [sp, #50]	; 0x32
  24:	466b      	mov	r3, sp
  26:	601a      	str	r2, [r3, #0]
  28:	910a      	str	r1, [sp, #40]	; 0x28
  2a:	9b0a      	ldr	r3, [sp, #40]	; 0x28
  2c:	f8cd c024 	str.w	ip, [sp, #36]	; 0x24
  30:	f8cd e020 	str.w	lr, [sp, #32]
  34:	9407      	str	r4, [sp, #28]
  36:	9506      	str	r5, [sp, #24]
  38:	f7ff fffe 	bl	0 <st7735_lcd::ST7735<SPI,DC,RST>::set_pixel>
  3c:	9005      	str	r0, [sp, #20]
  3e:	e7ff      	b.n	40 <st7735_lcd::ST7735<SPI,DC,RST>::set_pixel+0x40>
  40:	9805      	ldr	r0, [sp, #20]
  42:	f000 0001 	and.w	r0, r0, #1
  46:	f7ff fffe 	bl	0 <<core::result::Result<T,E> as core::ops::try::Try>::into_result>
  4a:	f88d 0037 	strb.w	r0, [sp, #55]	; 0x37
  4e:	e7ff      	b.n	50 <st7735_lcd::ST7735<SPI,DC,RST>::set_pixel+0x50>
  50:	f89d 0037 	ldrb.w	r0, [sp, #55]	; 0x37
  54:	07c1      	lsls	r1, r0, #31
  56:	2900      	cmp	r1, #0
  58:	9004      	str	r0, [sp, #16]
  5a:	d012      	beq.n	82 <st7735_lcd::ST7735<SPI,DC,RST>::set_pixel+0x82>
  5c:	e7ff      	b.n	5e <st7735_lcd::ST7735<SPI,DC,RST>::set_pixel+0x5e>
  5e:	9804      	ldr	r0, [sp, #16]
  60:	2801      	cmp	r0, #1
  62:	d001      	beq.n	68 <st7735_lcd::ST7735<SPI,DC,RST>::set_pixel+0x68>
  64:	e7ff      	b.n	66 <st7735_lcd::ST7735<SPI,DC,RST>::set_pixel+0x66>
/Users/Luppy/.cargo/registry/src/github.com-1ecc6299db9ec823/st7735-lcd-0.6.1/src/lib.rs:178
        self.write_command(Instruction::RAMWR, None)?;
        self.write_word(color)
    }
  66:	defe      	udf	#254	; 0xfe
/Users/Luppy/.cargo/registry/src/github.com-1ecc6299db9ec823/st7735-lcd-0.6.1/src/lib.rs:175
        self.set_address_window(x, y, x, y)?;
  68:	f7ff fffe 	bl	0 <<T as core::convert::From<T>>::from>
  6c:	e7ff      	b.n	2 <<core::result::Result<T,E> as core::ops::try::Try>::from_error+0x2>
  6e:	f7ff fffe 	bl	0 <<core::result::Result<T,E> as core::ops::try::Try>::from_error>
  72:	f88d 0036 	strb.w	r0, [sp, #54]	; 0x36
  76:	e7ff      	b.n	78 <st7735_lcd::ST7735<SPI,DC,RST>::set_pixel+0x78>
  78:	e7ff      	b.n	7a <st7735_lcd::ST7735<SPI,DC,RST>::set_pixel+0x7a>
/Users/Luppy/.cargo/registry/src/github.com-1ecc6299db9ec823/st7735-lcd-0.6.1/src/lib.rs:178
    }
  7a:	f89d 0036 	ldrb.w	r0, [sp, #54]	; 0x36
  7e:	b014      	add	sp, #80	; 0x50
  80:	bdb0      	pop	{r4, r5, r7, pc}
/Users/Luppy/.cargo/registry/src/github.com-1ecc6299db9ec823/st7735-lcd-0.6.1/src/lib.rs:176
        self.write_command(Instruction::RAMWR, None)?;
  82:	980b      	ldr	r0, [sp, #44]	; 0x2c
  84:	212c      	movs	r1, #44	; 0x2c
  86:	f88d 103f 	strb.w	r1, [sp, #63]	; 0x3f
  8a:	2100      	movs	r1, #0
  8c:	9111      	str	r1, [sp, #68]	; 0x44
  8e:	9110      	str	r1, [sp, #64]	; 0x40
  90:	9110      	str	r1, [sp, #64]	; 0x40
  92:	9a10      	ldr	r2, [sp, #64]	; 0x40
  94:	9b11      	ldr	r3, [sp, #68]	; 0x44
  96:	f89d 103f 	ldrb.w	r1, [sp, #63]	; 0x3f
  9a:	f7ff fffe 	bl	0 <st7735_lcd::ST7735<SPI,DC,RST>::set_pixel>
  9e:	9003      	str	r0, [sp, #12]
  a0:	e7ff      	b.n	a2 <st7735_lcd::ST7735<SPI,DC,RST>::set_pixel+0xa2>
  a2:	9803      	ldr	r0, [sp, #12]
  a4:	f000 0001 	and.w	r0, r0, #1
  a8:	f7ff fffe 	bl	0 <<core::result::Result<T,E> as core::ops::try::Try>::into_result>
  ac:	f88d 003e 	strb.w	r0, [sp, #62]	; 0x3e
  b0:	e7ff      	b.n	b2 <st7735_lcd::ST7735<SPI,DC,RST>::set_pixel+0xb2>
  b2:	f89d 003e 	ldrb.w	r0, [sp, #62]	; 0x3e
  b6:	07c1      	lsls	r1, r0, #31
  b8:	2900      	cmp	r1, #0
  ba:	9002      	str	r0, [sp, #8]
  bc:	d00d      	beq.n	da <st7735_lcd::ST7735<SPI,DC,RST>::set_pixel+0xda>
  be:	e7ff      	b.n	c0 <st7735_lcd::ST7735<SPI,DC,RST>::set_pixel+0xc0>
  c0:	9802      	ldr	r0, [sp, #8]
  c2:	2801      	cmp	r0, #1
  c4:	d1cf      	bne.n	66 <st7735_lcd::ST7735<SPI,DC,RST>::set_pixel+0x66>
  c6:	e7ff      	b.n	c8 <st7735_lcd::ST7735<SPI,DC,RST>::set_pixel+0xc8>
  c8:	f7ff fffe 	bl	0 <<T as core::convert::From<T>>::from>
  cc:	e7ff      	b.n	2 <<core::result::Result<T,E> as core::ops::try::Try>::from_error+0x2>
  ce:	f7ff fffe 	bl	0 <<core::result::Result<T,E> as core::ops::try::Try>::from_error>
  d2:	f88d 0036 	strb.w	r0, [sp, #54]	; 0x36
  d6:	e7ff      	b.n	d8 <st7735_lcd::ST7735<SPI,DC,RST>::set_pixel+0xd8>
  d8:	e7cf      	b.n	7a <st7735_lcd::ST7735<SPI,DC,RST>::set_pixel+0x7a>
/Users/Luppy/.cargo/registry/src/github.com-1ecc6299db9ec823/st7735-lcd-0.6.1/src/lib.rs:177
        self.write_word(color)
  da:	980b      	ldr	r0, [sp, #44]	; 0x2c
  dc:	f8bd 1034 	ldrh.w	r1, [sp, #52]	; 0x34
  e0:	f7ff fffe 	bl	0 <st7735_lcd::ST7735<SPI,DC,RST>::set_pixel>
  e4:	f88d 0036 	strb.w	r0, [sp, #54]	; 0x36
  e8:	e7ff      	b.n	ea <st7735_lcd::ST7735<SPI,DC,RST>::set_pixel+0xea>
/Users/Luppy/.cargo/registry/src/github.com-1ecc6299db9ec823/st7735-lcd-0.6.1/src/lib.rs:178
    }
  ea:	e7c6      	b.n	7a <st7735_lcd::ST7735<SPI,DC,RST>::set_pixel+0x7a>

Disassembly of section .text._ZN140_$LT$st7735_lcd..ST7735$LT$SPI$C$DC$C$RST$GT$$u20$as$u20$embedded_graphics..Drawing$LT$embedded_graphics..pixelcolor..rgb565..Rgb565$GT$$GT$4draw17h216bd8cb9d1347fcE:

00000000 <<st7735_lcd::ST7735<SPI,DC,RST> as embedded_graphics::Drawing<embedded_graphics::pixelcolor::rgb565::Rgb565>>::draw>:
_ZN140_$LT$st7735_lcd..ST7735$LT$SPI$C$DC$C$RST$GT$$u20$as$u20$embedded_graphics..Drawing$LT$embedded_graphics..pixelcolor..rgb565..Rgb565$GT$$GT$4draw17h216bd8cb9d1347fcE():
/Users/Luppy/.cargo/registry/src/github.com-1ecc6299db9ec823/st7735-lcd-0.6.1/src/lib.rs:209
where
    SPI: spi::Write<u8>,
    DC: OutputPin,
    RST: OutputPin,
{
    fn draw<T>(&mut self, item_pixels: T)
   0:	e92d 41f0 	stmdb	sp!, {r4, r5, r6, r7, r8, lr}
   4:	b0ac      	sub	sp, #176	; 0xb0
   6:	460a      	mov	r2, r1
   8:	4603      	mov	r3, r0
   a:	9005      	str	r0, [sp, #20]
   c:	a80e      	add	r0, sp, #56	; 0x38
/Users/Luppy/.cargo/registry/src/github.com-1ecc6299db9ec823/st7735-lcd-0.6.1/src/lib.rs:213
    where
        T: IntoIterator<Item = Pixel<Rgb565>>,
    {
        for Pixel(coord, color) in item_pixels {
   e:	4684      	mov	ip, r0
  10:	e891 41f0 	ldmia.w	r1, {r4, r5, r6, r7, r8, lr}
  14:	e88c 41f0 	stmia.w	ip, {r4, r5, r6, r7, r8, lr}
  18:	a906      	add	r1, sp, #24
  1a:	9004      	str	r0, [sp, #16]
  1c:	4608      	mov	r0, r1
  1e:	9904      	ldr	r1, [sp, #16]
  20:	9203      	str	r2, [sp, #12]
  22:	9302      	str	r3, [sp, #8]
  24:	f7ff fffe 	bl	0 <<embedded_graphics::primitives::circle::Circle<C> as core::iter::traits::collect::IntoIterator>::into_iter>
  28:	e7ff      	b.n	2a <<st7735_lcd::ST7735<SPI,DC,RST> as embedded_graphics::Drawing<embedded_graphics::pixelcolor::rgb565::Rgb565>>::draw+0x2a>
  2a:	a806      	add	r0, sp, #24
  2c:	a914      	add	r1, sp, #80	; 0x50
  2e:	e8b0 500c 	ldmia.w	r0!, {r2, r3, ip, lr}
  32:	e8a1 500c 	stmia.w	r1!, {r2, r3, ip, lr}
  36:	e890 500c 	ldmia.w	r0, {r2, r3, ip, lr}
  3a:	e881 500c 	stmia.w	r1, {r2, r3, ip, lr}
  3e:	e7ff      	b.n	40 <<st7735_lcd::ST7735<SPI,DC,RST> as embedded_graphics::Drawing<embedded_graphics::pixelcolor::rgb565::Rgb565>>::draw+0x40>
  40:	a81f      	add	r0, sp, #124	; 0x7c
  42:	a914      	add	r1, sp, #80	; 0x50
  44:	f7ff fffe 	bl	0 <<embedded_graphics::primitives::circle::CircleIterator<C> as core::iter::traits::iterator::Iterator>::next>
  48:	e7ff      	b.n	4a <<st7735_lcd::ST7735<SPI,DC,RST> as embedded_graphics::Drawing<embedded_graphics::pixelcolor::rgb565::Rgb565>>::draw+0x4a>
  4a:	981f      	ldr	r0, [sp, #124]	; 0x7c
  4c:	2800      	cmp	r0, #0
  4e:	9001      	str	r0, [sp, #4]
  50:	d028      	beq.n	a4 <<st7735_lcd::ST7735<SPI,DC,RST> as embedded_graphics::Drawing<embedded_graphics::pixelcolor::rgb565::Rgb565>>::draw+0xa4>
  52:	e7ff      	b.n	54 <<st7735_lcd::ST7735<SPI,DC,RST> as embedded_graphics::Drawing<embedded_graphics::pixelcolor::rgb565::Rgb565>>::draw+0x54>
  54:	9801      	ldr	r0, [sp, #4]
  56:	2801      	cmp	r0, #1
  58:	d001      	beq.n	5e <<st7735_lcd::ST7735<SPI,DC,RST> as embedded_graphics::Drawing<embedded_graphics::pixelcolor::rgb565::Rgb565>>::draw+0x5e>
  5a:	e7ff      	b.n	5c <<st7735_lcd::ST7735<SPI,DC,RST> as embedded_graphics::Drawing<embedded_graphics::pixelcolor::rgb565::Rgb565>>::draw+0x5c>
/Users/Luppy/.cargo/registry/src/github.com-1ecc6299db9ec823/st7735-lcd-0.6.1/src/lib.rs:216
            self.set_pixel(coord.0 as u16, coord.1 as u16, color.0).expect("pixel write failed");
        }
    }
  5c:	defe      	udf	#254	; 0xfe
/Users/Luppy/.cargo/registry/src/github.com-1ecc6299db9ec823/st7735-lcd-0.6.1/src/lib.rs:213
        for Pixel(coord, color) in item_pixels {
  5e:	9820      	ldr	r0, [sp, #128]	; 0x80
  60:	9921      	ldr	r1, [sp, #132]	; 0x84
  62:	9a22      	ldr	r2, [sp, #136]	; 0x88
  64:	9225      	str	r2, [sp, #148]	; 0x94
  66:	9124      	str	r1, [sp, #144]	; 0x90
  68:	9023      	str	r0, [sp, #140]	; 0x8c
  6a:	9823      	ldr	r0, [sp, #140]	; 0x8c
  6c:	9924      	ldr	r1, [sp, #144]	; 0x90
  6e:	9a25      	ldr	r2, [sp, #148]	; 0x94
  70:	9228      	str	r2, [sp, #160]	; 0xa0
  72:	9127      	str	r1, [sp, #156]	; 0x9c
  74:	9026      	str	r0, [sp, #152]	; 0x98
  76:	9826      	ldr	r0, [sp, #152]	; 0x98
  78:	9927      	ldr	r1, [sp, #156]	; 0x9c
  7a:	9a28      	ldr	r2, [sp, #160]	; 0xa0
  7c:	921e      	str	r2, [sp, #120]	; 0x78
  7e:	911d      	str	r1, [sp, #116]	; 0x74
  80:	901c      	str	r0, [sp, #112]	; 0x70
  82:	981c      	ldr	r0, [sp, #112]	; 0x70
  84:	991d      	ldr	r1, [sp, #116]	; 0x74
  86:	9029      	str	r0, [sp, #164]	; 0xa4
  88:	912a      	str	r1, [sp, #168]	; 0xa8
  8a:	f8bd 0078 	ldrh.w	r0, [sp, #120]	; 0x78
  8e:	f8ad 00ae 	strh.w	r0, [sp, #174]	; 0xae
/Users/Luppy/.cargo/registry/src/github.com-1ecc6299db9ec823/st7735-lcd-0.6.1/src/lib.rs:214
            self.set_pixel(coord.0 as u16, coord.1 as u16, color.0).expect("pixel write failed");
  92:	9805      	ldr	r0, [sp, #20]
  94:	9929      	ldr	r1, [sp, #164]	; 0xa4
  96:	9a2a      	ldr	r2, [sp, #168]	; 0xa8
  98:	f8bd 30ae 	ldrh.w	r3, [sp, #174]	; 0xae
  9c:	f7ff fffe 	bl	0 <<st7735_lcd::ST7735<SPI,DC,RST> as embedded_graphics::Drawing<embedded_graphics::pixelcolor::rgb565::Rgb565>>::draw>
  a0:	9000      	str	r0, [sp, #0]
  a2:	e000      	b.n	a6 <<st7735_lcd::ST7735<SPI,DC,RST> as embedded_graphics::Drawing<embedded_graphics::pixelcolor::rgb565::Rgb565>>::draw+0xa6>
/Users/Luppy/.cargo/registry/src/github.com-1ecc6299db9ec823/st7735-lcd-0.6.1/src/lib.rs:213
        for Pixel(coord, color) in item_pixels {
  a4:	e00b      	b.n	be <<st7735_lcd::ST7735<SPI,DC,RST> as embedded_graphics::Drawing<embedded_graphics::pixelcolor::rgb565::Rgb565>>::draw+0xbe>
/Users/Luppy/.cargo/registry/src/github.com-1ecc6299db9ec823/st7735-lcd-0.6.1/src/lib.rs:214
            self.set_pixel(coord.0 as u16, coord.1 as u16, color.0).expect("pixel write failed");
  a6:	9800      	ldr	r0, [sp, #0]
  a8:	f000 0001 	and.w	r0, r0, #1
  ac:	f240 0100 	movw	r1, #0
  b0:	f2c0 0100 	movt	r1, #0
  b4:	2212      	movs	r2, #18
  b6:	f7ff fffe 	bl	0 <core::result::Result<T,E>::expect>
  ba:	e7ff      	b.n	bc <<st7735_lcd::ST7735<SPI,DC,RST> as embedded_graphics::Drawing<embedded_graphics::pixelcolor::rgb565::Rgb565>>::draw+0xbc>
/Users/Luppy/.cargo/registry/src/github.com-1ecc6299db9ec823/st7735-lcd-0.6.1/src/lib.rs:213
        for Pixel(coord, color) in item_pixels {
  bc:	e7c0      	b.n	40 <<st7735_lcd::ST7735<SPI,DC,RST> as embedded_graphics::Drawing<embedded_graphics::pixelcolor::rgb565::Rgb565>>::draw+0x40>
/Users/Luppy/.cargo/registry/src/github.com-1ecc6299db9ec823/st7735-lcd-0.6.1/src/lib.rs:216
    }
  be:	b02c      	add	sp, #176	; 0xb0
  c0:	e8bd 81f0 	ldmia.w	sp!, {r4, r5, r6, r7, r8, pc}

Disassembly of section .text._ZN140_$LT$st7735_lcd..ST7735$LT$SPI$C$DC$C$RST$GT$$u20$as$u20$embedded_graphics..Drawing$LT$embedded_graphics..pixelcolor..rgb565..Rgb565$GT$$GT$4draw17h761fce9fc7bb7866E:

00000000 <<st7735_lcd::ST7735<SPI,DC,RST> as embedded_graphics::Drawing<embedded_graphics::pixelcolor::rgb565::Rgb565>>::draw>:
_ZN140_$LT$st7735_lcd..ST7735$LT$SPI$C$DC$C$RST$GT$$u20$as$u20$embedded_graphics..Drawing$LT$embedded_graphics..pixelcolor..rgb565..Rgb565$GT$$GT$4draw17h761fce9fc7bb7866E():
/Users/Luppy/.cargo/registry/src/github.com-1ecc6299db9ec823/st7735-lcd-0.6.1/src/lib.rs:209
    fn draw<T>(&mut self, item_pixels: T)
   0:	b570      	push	{r4, r5, r6, lr}
   2:	b0b4      	sub	sp, #208	; 0xd0
   4:	460a      	mov	r2, r1
   6:	4603      	mov	r3, r0
   8:	9006      	str	r0, [sp, #24]
   a:	a812      	add	r0, sp, #72	; 0x48
/Users/Luppy/.cargo/registry/src/github.com-1ecc6299db9ec823/st7735-lcd-0.6.1/src/lib.rs:213
        for Pixel(coord, color) in item_pixels {
   c:	4684      	mov	ip, r0
   e:	e8b1 4030 	ldmia.w	r1!, {r4, r5, lr}
  12:	e8ac 4030 	stmia.w	ip!, {r4, r5, lr}
  16:	e891 4070 	ldmia.w	r1, {r4, r5, r6, lr}
  1a:	e88c 4070 	stmia.w	ip, {r4, r5, r6, lr}
  1e:	a907      	add	r1, sp, #28
  20:	9005      	str	r0, [sp, #20]
  22:	4608      	mov	r0, r1
  24:	9905      	ldr	r1, [sp, #20]
  26:	9204      	str	r2, [sp, #16]
  28:	9303      	str	r3, [sp, #12]
  2a:	f7ff fffe 	bl	0 <<embedded_graphics::fonts::font_builder::FontBuilder<C,Conf> as core::iter::traits::collect::IntoIterator>::into_iter>
  2e:	e7ff      	b.n	30 <<st7735_lcd::ST7735<SPI,DC,RST> as embedded_graphics::Drawing<embedded_graphics::pixelcolor::rgb565::Rgb565>>::draw+0x30>
  30:	a807      	add	r0, sp, #28
  32:	a919      	add	r1, sp, #100	; 0x64
  34:	e8b0 501c 	ldmia.w	r0!, {r2, r3, r4, ip, lr}
  38:	e8a1 501c 	stmia.w	r1!, {r2, r3, r4, ip, lr}
  3c:	e890 503c 	ldmia.w	r0, {r2, r3, r4, r5, ip, lr}
  40:	e881 503c 	stmia.w	r1, {r2, r3, r4, r5, ip, lr}
  44:	e7ff      	b.n	46 <<st7735_lcd::ST7735<SPI,DC,RST> as embedded_graphics::Drawing<embedded_graphics::pixelcolor::rgb565::Rgb565>>::draw+0x46>
  46:	a827      	add	r0, sp, #156	; 0x9c
  48:	a919      	add	r1, sp, #100	; 0x64
  4a:	f7ff fffe 	bl	0 <<embedded_graphics::fonts::font_builder::FontBuilderIterator<C,Conf> as core::iter::traits::iterator::Iterator>::next>
  4e:	e7ff      	b.n	50 <<st7735_lcd::ST7735<SPI,DC,RST> as embedded_graphics::Drawing<embedded_graphics::pixelcolor::rgb565::Rgb565>>::draw+0x50>
  50:	9827      	ldr	r0, [sp, #156]	; 0x9c
  52:	2800      	cmp	r0, #0
  54:	9002      	str	r0, [sp, #8]
  56:	d028      	beq.n	aa <<st7735_lcd::ST7735<SPI,DC,RST> as embedded_graphics::Drawing<embedded_graphics::pixelcolor::rgb565::Rgb565>>::draw+0xaa>
  58:	e7ff      	b.n	5a <<st7735_lcd::ST7735<SPI,DC,RST> as embedded_graphics::Drawing<embedded_graphics::pixelcolor::rgb565::Rgb565>>::draw+0x5a>
  5a:	9802      	ldr	r0, [sp, #8]
  5c:	2801      	cmp	r0, #1
  5e:	d001      	beq.n	64 <<st7735_lcd::ST7735<SPI,DC,RST> as embedded_graphics::Drawing<embedded_graphics::pixelcolor::rgb565::Rgb565>>::draw+0x64>
  60:	e7ff      	b.n	62 <<st7735_lcd::ST7735<SPI,DC,RST> as embedded_graphics::Drawing<embedded_graphics::pixelcolor::rgb565::Rgb565>>::draw+0x62>
/Users/Luppy/.cargo/registry/src/github.com-1ecc6299db9ec823/st7735-lcd-0.6.1/src/lib.rs:216
    }
  62:	defe      	udf	#254	; 0xfe
/Users/Luppy/.cargo/registry/src/github.com-1ecc6299db9ec823/st7735-lcd-0.6.1/src/lib.rs:213
        for Pixel(coord, color) in item_pixels {
  64:	9828      	ldr	r0, [sp, #160]	; 0xa0
  66:	9929      	ldr	r1, [sp, #164]	; 0xa4
  68:	9a2a      	ldr	r2, [sp, #168]	; 0xa8
  6a:	922d      	str	r2, [sp, #180]	; 0xb4
  6c:	912c      	str	r1, [sp, #176]	; 0xb0
  6e:	902b      	str	r0, [sp, #172]	; 0xac
  70:	982b      	ldr	r0, [sp, #172]	; 0xac
  72:	992c      	ldr	r1, [sp, #176]	; 0xb0
  74:	9a2d      	ldr	r2, [sp, #180]	; 0xb4
  76:	9230      	str	r2, [sp, #192]	; 0xc0
  78:	912f      	str	r1, [sp, #188]	; 0xbc
  7a:	902e      	str	r0, [sp, #184]	; 0xb8
  7c:	982e      	ldr	r0, [sp, #184]	; 0xb8
  7e:	992f      	ldr	r1, [sp, #188]	; 0xbc
  80:	9a30      	ldr	r2, [sp, #192]	; 0xc0
  82:	9226      	str	r2, [sp, #152]	; 0x98
  84:	9125      	str	r1, [sp, #148]	; 0x94
  86:	9024      	str	r0, [sp, #144]	; 0x90
  88:	9824      	ldr	r0, [sp, #144]	; 0x90
  8a:	9925      	ldr	r1, [sp, #148]	; 0x94
  8c:	9031      	str	r0, [sp, #196]	; 0xc4
  8e:	9132      	str	r1, [sp, #200]	; 0xc8
  90:	f8bd 0098 	ldrh.w	r0, [sp, #152]	; 0x98
  94:	f8ad 00ce 	strh.w	r0, [sp, #206]	; 0xce
/Users/Luppy/.cargo/registry/src/github.com-1ecc6299db9ec823/st7735-lcd-0.6.1/src/lib.rs:214
            self.set_pixel(coord.0 as u16, coord.1 as u16, color.0).expect("pixel write failed");
  98:	9806      	ldr	r0, [sp, #24]
  9a:	9931      	ldr	r1, [sp, #196]	; 0xc4
  9c:	9a32      	ldr	r2, [sp, #200]	; 0xc8
  9e:	f8bd 30ce 	ldrh.w	r3, [sp, #206]	; 0xce
  a2:	f7ff fffe 	bl	0 <<st7735_lcd::ST7735<SPI,DC,RST> as embedded_graphics::Drawing<embedded_graphics::pixelcolor::rgb565::Rgb565>>::draw>
  a6:	9001      	str	r0, [sp, #4]
  a8:	e000      	b.n	ac <<st7735_lcd::ST7735<SPI,DC,RST> as embedded_graphics::Drawing<embedded_graphics::pixelcolor::rgb565::Rgb565>>::draw+0xac>
/Users/Luppy/.cargo/registry/src/github.com-1ecc6299db9ec823/st7735-lcd-0.6.1/src/lib.rs:213
        for Pixel(coord, color) in item_pixels {
  aa:	e00b      	b.n	c4 <<st7735_lcd::ST7735<SPI,DC,RST> as embedded_graphics::Drawing<embedded_graphics::pixelcolor::rgb565::Rgb565>>::draw+0xc4>
/Users/Luppy/.cargo/registry/src/github.com-1ecc6299db9ec823/st7735-lcd-0.6.1/src/lib.rs:214
            self.set_pixel(coord.0 as u16, coord.1 as u16, color.0).expect("pixel write failed");
  ac:	9801      	ldr	r0, [sp, #4]
  ae:	f000 0001 	and.w	r0, r0, #1
  b2:	f240 0100 	movw	r1, #0
  b6:	f2c0 0100 	movt	r1, #0
  ba:	2212      	movs	r2, #18
  bc:	f7ff fffe 	bl	0 <core::result::Result<T,E>::expect>
  c0:	e7ff      	b.n	c2 <<st7735_lcd::ST7735<SPI,DC,RST> as embedded_graphics::Drawing<embedded_graphics::pixelcolor::rgb565::Rgb565>>::draw+0xc2>
/Users/Luppy/.cargo/registry/src/github.com-1ecc6299db9ec823/st7735-lcd-0.6.1/src/lib.rs:213
        for Pixel(coord, color) in item_pixels {
  c2:	e7c0      	b.n	46 <<st7735_lcd::ST7735<SPI,DC,RST> as embedded_graphics::Drawing<embedded_graphics::pixelcolor::rgb565::Rgb565>>::draw+0x46>
/Users/Luppy/.cargo/registry/src/github.com-1ecc6299db9ec823/st7735-lcd-0.6.1/src/lib.rs:216
    }
  c4:	b034      	add	sp, #208	; 0xd0
  c6:	bd70      	pop	{r4, r5, r6, pc}

app-b8434b356de0ea5d.1t53zl09lntcc3fr.rcgu.o:     file format elf32-littlearm

SYMBOL TABLE:
00000000 l    df *ABS*	00000000 1t53zl09lntcc3fr
00000213 l       .debug_str	00000000 
000001fe l       .debug_str	00000000 
00000205 l       .debug_str	00000000 
00000209 l       .debug_str	00000000 
0000020e l       .debug_str	00000000 
00000218 l       .debug_str	00000000 
0000021c l       .debug_str	00000000 
00000229 l       .debug_str	00000000 
0000022e l       .debug_str	00000000 
00000260 l       .debug_str	00000000 
00000000 l       .debug_str	00000000 
00000041 l       .debug_str	00000000 
00000055 l       .debug_str	00000000 
00000085 l       .debug_str	00000000 
0000008a l       .debug_str	00000000 
0000008f l       .debug_str	00000000 
00000098 l       .debug_str	00000000 
0000009c l       .debug_str	00000000 
000000a2 l       .debug_str	00000000 
000000a6 l       .debug_str	00000000 
000000a9 l       .debug_str	00000000 
000000b3 l       .debug_str	00000000 
000000b7 l       .debug_str	00000000 
000000bf l       .debug_str	00000000 
000000c6 l       .debug_str	00000000 
000000ca l       .debug_str	00000000 
000000cc l       .debug_str	00000000 
000000dd l       .debug_str	00000000 
000000e6 l       .debug_str	00000000 
000000ec l       .debug_str	00000000 
000000ee l       .debug_str	00000000 
000000f4 l       .debug_str	00000000 
000000f6 l       .debug_str	00000000 
0000010d l       .debug_str	00000000 
00000116 l       .debug_str	00000000 
00000154 l       .debug_str	00000000 
0000016a l       .debug_str	00000000 
000001e7 l       .debug_str	00000000 
00000000 l    d  .text._ZN4core4iter8adapters13Skip$LT$I$GT$3new17h1b7a7a275be228c4E	00000000 .text._ZN4core4iter8adapters13Skip$LT$I$GT$3new17h1b7a7a275be228c4E
00000000 l    d  .text._ZN94_$LT$core..iter..adapters..Skip$LT$I$GT$$u20$as$u20$core..iter..traits..iterator..Iterator$GT$4next17he23953f55245239eE	00000000 .text._ZN94_$LT$core..iter..adapters..Skip$LT$I$GT$$u20$as$u20$core..iter..traits..iterator..Iterator$GT$4next17he23953f55245239eE
00000000 l    d  .debug_abbrev	00000000 .debug_abbrev
00000000 l    d  .debug_info	00000000 .debug_info
00000000 l    d  .debug_ranges	00000000 .debug_ranges
00000000 l    d  .debug_frame	00000000 .debug_frame
00000000 l    d  .debug_line	00000000 .debug_line
00000000         *UND*	00000000 core::iter::traits::iterator::Iterator::nth
00000000 g     F .text._ZN4core4iter8adapters13Skip$LT$I$GT$3new17h1b7a7a275be228c4E	0000002e core::iter::adapters::Skip<I>::new
00000000         *UND*	00000000 .hidden <core::str::Chars as core::iter::traits::iterator::Iterator>::next
00000000 g     F .text._ZN94_$LT$core..iter..adapters..Skip$LT$I$GT$$u20$as$u20$core..iter..traits..iterator..Iterator$GT$4next17he23953f55245239eE	00000040 <core::iter::adapters::Skip<I> as core::iter::traits::iterator::Iterator>::next



Disassembly of section .text._ZN4core4iter8adapters13Skip$LT$I$GT$3new17h1b7a7a275be228c4E:

00000000 <core::iter::adapters::Skip<I>::new>:
_ZN4core4iter8adapters13Skip$LT$I$GT$3new17h1b7a7a275be228c4E():
/rustc/50a0defd5a93523067ef239936cc2e0755220904/src/libcore/iter/adapters/mod.rs:1409
   0:	b5b0      	push	{r4, r5, r7, lr}
   2:	b087      	sub	sp, #28
   4:	469c      	mov	ip, r3
   6:	4696      	mov	lr, r2
   8:	460c      	mov	r4, r1
   a:	4605      	mov	r5, r0
   c:	9104      	str	r1, [sp, #16]
   e:	9205      	str	r2, [sp, #20]
  10:	9306      	str	r3, [sp, #24]
/rustc/50a0defd5a93523067ef239936cc2e0755220904/src/libcore/iter/adapters/mod.rs:1410
  12:	9904      	ldr	r1, [sp, #16]
  14:	9a05      	ldr	r2, [sp, #20]
  16:	9b06      	ldr	r3, [sp, #24]
  18:	6001      	str	r1, [r0, #0]
  1a:	6042      	str	r2, [r0, #4]
  1c:	6083      	str	r3, [r0, #8]
/rustc/50a0defd5a93523067ef239936cc2e0755220904/src/libcore/iter/adapters/mod.rs:1411
  1e:	f8cd c00c 	str.w	ip, [sp, #12]
  22:	f8cd e008 	str.w	lr, [sp, #8]
  26:	9401      	str	r4, [sp, #4]
  28:	9500      	str	r5, [sp, #0]
  2a:	b007      	add	sp, #28
  2c:	bdb0      	pop	{r4, r5, r7, pc}

Disassembly of section .text._ZN94_$LT$core..iter..adapters..Skip$LT$I$GT$$u20$as$u20$core..iter..traits..iterator..Iterator$GT$4next17he23953f55245239eE:

00000000 <<core::iter::adapters::Skip<I> as core::iter::traits::iterator::Iterator>::next>:
_ZN94_$LT$core..iter..adapters..Skip$LT$I$GT$$u20$as$u20$core..iter..traits..iterator..Iterator$GT$4next17he23953f55245239eE():
/rustc/50a0defd5a93523067ef239936cc2e0755220904/src/libcore/iter/adapters/mod.rs:1419
   0:	b580      	push	{r7, lr}
   2:	b084      	sub	sp, #16
   4:	4601      	mov	r1, r0
   6:	9001      	str	r0, [sp, #4]
/rustc/50a0defd5a93523067ef239936cc2e0755220904/src/libcore/iter/adapters/mod.rs:1420
   8:	9801      	ldr	r0, [sp, #4]
   a:	6880      	ldr	r0, [r0, #8]
   c:	2800      	cmp	r0, #0
   e:	9100      	str	r1, [sp, #0]
  10:	d106      	bne.n	20 <<core::iter::adapters::Skip<I> as core::iter::traits::iterator::Iterator>::next+0x20>
  12:	e7ff      	b.n	14 <<core::iter::adapters::Skip<I> as core::iter::traits::iterator::Iterator>::next+0x14>
/rustc/50a0defd5a93523067ef239936cc2e0755220904/src/libcore/iter/adapters/mod.rs:1421
  14:	9801      	ldr	r0, [sp, #4]
  16:	f7ff fffe 	bl	0 <<core::str::Chars as core::iter::traits::iterator::Iterator>::next>
  1a:	9002      	str	r0, [sp, #8]
  1c:	e7ff      	b.n	1e <<core::iter::adapters::Skip<I> as core::iter::traits::iterator::Iterator>::next+0x1e>
/rustc/50a0defd5a93523067ef239936cc2e0755220904/src/libcore/iter/adapters/mod.rs:1420
  1e:	e00c      	b.n	3a <<core::iter::adapters::Skip<I> as core::iter::traits::iterator::Iterator>::next+0x3a>
/rustc/50a0defd5a93523067ef239936cc2e0755220904/src/libcore/iter/adapters/mod.rs:1423
  20:	9801      	ldr	r0, [sp, #4]
  22:	6880      	ldr	r0, [r0, #8]
  24:	9003      	str	r0, [sp, #12]
/rustc/50a0defd5a93523067ef239936cc2e0755220904/src/libcore/iter/adapters/mod.rs:1424
  26:	9801      	ldr	r0, [sp, #4]
  28:	2100      	movs	r1, #0
  2a:	6081      	str	r1, [r0, #8]
/rustc/50a0defd5a93523067ef239936cc2e0755220904/src/libcore/iter/adapters/mod.rs:1425
  2c:	9801      	ldr	r0, [sp, #4]
  2e:	9903      	ldr	r1, [sp, #12]
  30:	f7ff fffe 	bl	0 <core::iter::traits::iterator::Iterator::nth>
  34:	9002      	str	r0, [sp, #8]
  36:	e7ff      	b.n	38 <<core::iter::adapters::Skip<I> as core::iter::traits::iterator::Iterator>::next+0x38>
/rustc/50a0defd5a93523067ef239936cc2e0755220904/src/libcore/iter/adapters/mod.rs:1420
  38:	e7ff      	b.n	3a <<core::iter::adapters::Skip<I> as core::iter::traits::iterator::Iterator>::next+0x3a>
/rustc/50a0defd5a93523067ef239936cc2e0755220904/src/libcore/iter/adapters/mod.rs:1427
  3a:	9802      	ldr	r0, [sp, #8]
  3c:	b004      	add	sp, #16
  3e:	bd80      	pop	{r7, pc}

app-b8434b356de0ea5d.1vw86tl7du08oaio.rcgu.o:     file format elf32-littlearm

SYMBOL TABLE:
00000000 l    df *ABS*	00000000 1vw86tl7du08oaio
000002c9 l       .debug_str	00000000 
000001e3 l       .debug_str	00000000 
00000218 l       .debug_str	00000000 
0000028d l       .debug_str	00000000 
000002c4 l       .debug_str	00000000 
00000319 l       .debug_str	00000000 
00000324 l       .debug_str	00000000 
00000369 l       .debug_str	00000000 
00000374 l       .debug_str	00000000 
0000037f l       .debug_str	00000000 
00000000 l       .debug_str	00000000 
00000041 l       .debug_str	00000000 
00000055 l       .debug_str	00000000 
00000085 l       .debug_str	00000000 
00000097 l       .debug_str	00000000 
0000009d l       .debug_str	00000000 
000000a6 l       .debug_str	00000000 
000000b1 l       .debug_str	00000000 
000000b8 l       .debug_str	00000000 
000000bc l       .debug_str	00000000 
000000c0 l       .debug_str	00000000 
000000c7 l       .debug_str	00000000 
000000c9 l       .debug_str	00000000 
00000138 l       .debug_str	00000000 
0000016d l       .debug_str	00000000 
00000178 l       .debug_str	00000000 
0000017d l       .debug_str	00000000 
00000184 l       .debug_str	00000000 
00000189 l       .debug_str	00000000 
0000018b l       .debug_str	00000000 
00000190 l       .debug_str	00000000 
000001c6 l       .debug_str	00000000 
000001d3 l       .debug_str	00000000 
000001e0 l       .debug_str	00000000 
00000000 l    d  .text._ZN79_$LT$embedded_graphics..style..Style$LT$P$GT$$u20$as$u20$core..clone..Clone$GT$5clone17h2a0d15f09b5f1255E	00000000 .text._ZN79_$LT$embedded_graphics..style..Style$LT$P$GT$$u20$as$u20$core..clone..Clone$GT$5clone17h2a0d15f09b5f1255E
00000000 l    d  .text._ZN83_$LT$embedded_graphics..style..Style$LT$P$GT$$u20$as$u20$core..default..Default$GT$7default17h554df46713ca4be9E	00000000 .text._ZN83_$LT$embedded_graphics..style..Style$LT$P$GT$$u20$as$u20$core..default..Default$GT$7default17h554df46713ca4be9E
00000000 l    d  .debug_abbrev	00000000 .debug_abbrev
00000000 l    d  .debug_info	00000000 .debug_info
00000000 l    d  .debug_ranges	00000000 .debug_ranges
00000000 l    d  .debug_frame	00000000 .debug_frame
00000000 l    d  .debug_line	00000000 .debug_line
00000000         *UND*	00000000 .hidden core::clone::impls::<impl core::clone::Clone for u8>::clone
00000000         *UND*	00000000 <core::option::Option<T> as core::clone::Clone>::clone
00000000 g     F .text._ZN79_$LT$embedded_graphics..style..Style$LT$P$GT$$u20$as$u20$core..clone..Clone$GT$5clone17h2a0d15f09b5f1255E	00000062 <embedded_graphics::style::Style<P> as core::clone::Clone>::clone
00000000 g     F .text._ZN83_$LT$embedded_graphics..style..Style$LT$P$GT$$u20$as$u20$core..default..Default$GT$7default17h554df46713ca4be9E	00000030 <embedded_graphics::style::Style<P> as core::default::Default>::default



Disassembly of section .text._ZN79_$LT$embedded_graphics..style..Style$LT$P$GT$$u20$as$u20$core..clone..Clone$GT$5clone17h2a0d15f09b5f1255E:

00000000 <<embedded_graphics::style::Style<P> as core::clone::Clone>::clone>:
_ZN79_$LT$embedded_graphics..style..Style$LT$P$GT$$u20$as$u20$core..clone..Clone$GT$5clone17h2a0d15f09b5f1255E():
/Users/Luppy/.cargo/registry/src/github.com-1ecc6299db9ec823/embedded-graphics-0.5.2/src/style.rs:6
//! Styling struct to customise the look of objects.

use crate::pixelcolor::PixelColor;

/// Style properties for an object
#[derive(Debug, Copy, Clone)]
   0:	b580      	push	{r7, lr}
   2:	b08c      	sub	sp, #48	; 0x30
   4:	460a      	mov	r2, r1
   6:	9108      	str	r1, [sp, #32]
/Users/Luppy/.cargo/registry/src/github.com-1ecc6299db9ec823/embedded-graphics-0.5.2/src/style.rs:11
pub struct Style<P: PixelColor> {
    /// Fill colour of the object
    ///
    /// For fonts, this is the background colour of the text
    pub fill_color: Option<P>,
   8:	9908      	ldr	r1, [sp, #32]
   a:	9109      	str	r1, [sp, #36]	; 0x24
/Users/Luppy/.cargo/registry/src/github.com-1ecc6299db9ec823/embedded-graphics-0.5.2/src/style.rs:16

    /// Stroke (border/line) color of the object
    ///
    /// For fonts, this is the foreground colour of the text
    pub stroke_color: Option<P>,
   c:	9908      	ldr	r1, [sp, #32]
   e:	3104      	adds	r1, #4
  10:	910a      	str	r1, [sp, #40]	; 0x28
/Users/Luppy/.cargo/registry/src/github.com-1ecc6299db9ec823/embedded-graphics-0.5.2/src/style.rs:21

    /// Stroke width
    ///
    /// Set the stroke width for an object. Has no effect on fonts.
    pub stroke_width: u8,
  12:	9908      	ldr	r1, [sp, #32]
  14:	3108      	adds	r1, #8
  16:	910b      	str	r1, [sp, #44]	; 0x2c
/Users/Luppy/.cargo/registry/src/github.com-1ecc6299db9ec823/embedded-graphics-0.5.2/src/style.rs:11
    pub fill_color: Option<P>,
  18:	9909      	ldr	r1, [sp, #36]	; 0x24
  1a:	9007      	str	r0, [sp, #28]
  1c:	4608      	mov	r0, r1
  1e:	9206      	str	r2, [sp, #24]
  20:	f7ff fffe 	bl	0 <<core::option::Option<T> as core::clone::Clone>::clone>
  24:	9005      	str	r0, [sp, #20]
  26:	9104      	str	r1, [sp, #16]
  28:	e7ff      	b.n	2a <<embedded_graphics::style::Style<P> as core::clone::Clone>::clone+0x2a>
/Users/Luppy/.cargo/registry/src/github.com-1ecc6299db9ec823/embedded-graphics-0.5.2/src/style.rs:16
    pub stroke_color: Option<P>,
  2a:	980a      	ldr	r0, [sp, #40]	; 0x28
  2c:	f7ff fffe 	bl	0 <<core::option::Option<T> as core::clone::Clone>::clone>
  30:	9003      	str	r0, [sp, #12]
  32:	9102      	str	r1, [sp, #8]
  34:	e7ff      	b.n	36 <<embedded_graphics::style::Style<P> as core::clone::Clone>::clone+0x36>
/Users/Luppy/.cargo/registry/src/github.com-1ecc6299db9ec823/embedded-graphics-0.5.2/src/style.rs:21
    pub stroke_width: u8,
  36:	980b      	ldr	r0, [sp, #44]	; 0x2c
  38:	f7ff fffe 	bl	0 <core::clone::impls::<impl core::clone::Clone for u8>::clone>
  3c:	9001      	str	r0, [sp, #4]
  3e:	e7ff      	b.n	40 <<embedded_graphics::style::Style<P> as core::clone::Clone>::clone+0x40>
/Users/Luppy/.cargo/registry/src/github.com-1ecc6299db9ec823/embedded-graphics-0.5.2/src/style.rs:6
#[derive(Debug, Copy, Clone)]
  40:	9805      	ldr	r0, [sp, #20]
  42:	9907      	ldr	r1, [sp, #28]
  44:	8008      	strh	r0, [r1, #0]
  46:	9a04      	ldr	r2, [sp, #16]
  48:	804a      	strh	r2, [r1, #2]
  4a:	9b03      	ldr	r3, [sp, #12]
  4c:	808b      	strh	r3, [r1, #4]
  4e:	f8dd c008 	ldr.w	ip, [sp, #8]
  52:	f8a1 c006 	strh.w	ip, [r1, #6]
  56:	f8dd e004 	ldr.w	lr, [sp, #4]
  5a:	f881 e008 	strb.w	lr, [r1, #8]
  5e:	b00c      	add	sp, #48	; 0x30
  60:	bd80      	pop	{r7, pc}

Disassembly of section .text._ZN83_$LT$embedded_graphics..style..Style$LT$P$GT$$u20$as$u20$core..default..Default$GT$7default17h554df46713ca4be9E:

00000000 <<embedded_graphics::style::Style<P> as core::default::Default>::default>:
_ZN83_$LT$embedded_graphics..style..Style$LT$P$GT$$u20$as$u20$core..default..Default$GT$7default17h554df46713ca4be9E():
/Users/Luppy/.cargo/registry/src/github.com-1ecc6299db9ec823/embedded-graphics-0.5.2/src/style.rs:41

impl<P> Default for Style<P>
where
    P: PixelColor,
{
    fn default() -> Self {
   0:	b083      	sub	sp, #12
   2:	4601      	mov	r1, r0
   4:	2200      	movs	r2, #0
/Users/Luppy/.cargo/registry/src/github.com-1ecc6299db9ec823/embedded-graphics-0.5.2/src/style.rs:43
        Self {
            fill_color: None,
   6:	f8ad 2004 	strh.w	r2, [sp, #4]
/Users/Luppy/.cargo/registry/src/github.com-1ecc6299db9ec823/embedded-graphics-0.5.2/src/style.rs:44
            stroke_color: None,
   a:	f8ad 2008 	strh.w	r2, [sp, #8]
/Users/Luppy/.cargo/registry/src/github.com-1ecc6299db9ec823/embedded-graphics-0.5.2/src/style.rs:42
        Self {
   e:	f8bd 2004 	ldrh.w	r2, [sp, #4]
  12:	f8bd 3006 	ldrh.w	r3, [sp, #6]
  16:	8002      	strh	r2, [r0, #0]
  18:	8043      	strh	r3, [r0, #2]
  1a:	f8bd 2008 	ldrh.w	r2, [sp, #8]
  1e:	f8bd 300a 	ldrh.w	r3, [sp, #10]
  22:	8082      	strh	r2, [r0, #4]
  24:	80c3      	strh	r3, [r0, #6]
  26:	2201      	movs	r2, #1
  28:	7202      	strb	r2, [r0, #8]
/Users/Luppy/.cargo/registry/src/github.com-1ecc6299db9ec823/embedded-graphics-0.5.2/src/style.rs:47
            stroke_width: 1,
        }
    }
  2a:	9100      	str	r1, [sp, #0]
  2c:	b003      	add	sp, #12
  2e:	4770      	bx	lr

app-b8434b356de0ea5d.1wm8s7vqxsndtzsw.rcgu.o:     file format elf32-littlearm

SYMBOL TABLE:
00000000 l    df *ABS*	00000000 1wm8s7vqxsndtzsw
00000709 l       .debug_str	00000000 
00000257 l       .debug_str	00000000 
0000025c l       .debug_str	00000000 
0000025e l       .debug_str	00000000 
00000263 l       .debug_str	00000000 
00000299 l       .debug_str	00000000 
000002a6 l       .debug_str	00000000 
000002b3 l       .debug_str	00000000 
000002b5 l       .debug_str	00000000 
000002ea l       .debug_str	00000000 
000002f0 l       .debug_str	00000000 
000002f7 l       .debug_str	00000000 
00000337 l       .debug_str	00000000 
000003a6 l       .debug_str	00000000 
0000044c l       .debug_str	00000000 
000004b9 l       .debug_str	00000000 
0000055d l       .debug_str	00000000 
000005c9 l       .debug_str	00000000 
0000066f l       .debug_str	00000000 
000006db l       .debug_str	00000000 
000006e7 l       .debug_str	00000000 
000006eb l       .debug_str	00000000 
000006f7 l       .debug_str	00000000 
00000704 l       .debug_str	00000000 
00000716 l       .debug_str	00000000 
0000071a l       .debug_str	00000000 
00000791 l       .debug_str	00000000 
00000835 l       .debug_str	00000000 
0000089c l       .debug_str	00000000 
00000942 l       .debug_str	00000000 
000009a9 l       .debug_str	00000000 
000009b2 l       .debug_str	00000000 
000009c0 l       .debug_str	00000000 
000009d8 l       .debug_str	00000000 
000009e6 l       .debug_str	00000000 
00000a1b l       .debug_str	00000000 
00000a75 l       .debug_str	00000000 
00000a7a l       .debug_str	00000000 
00000b12 l       .debug_str	00000000 
00000b15 l       .debug_str	00000000 
00000b1b l       .debug_str	00000000 
00000bbf l       .debug_str	00000000 
00000bcc l       .debug_str	00000000 
00000bd2 l       .debug_str	00000000 
00000bde l       .debug_str	00000000 
00000be2 l       .debug_str	00000000 
00000be9 l       .debug_str	00000000 
00000bf0 l       .debug_str	00000000 
00000c01 l       .debug_str	00000000 
00000c0d l       .debug_str	00000000 
00000c18 l       .debug_str	00000000 
00000c1a l       .debug_str	00000000 
00000000 l       .debug_str	00000000 
00000041 l       .debug_str	00000000 
00000055 l       .debug_str	00000000 
00000085 l       .debug_str	00000000 
00000097 l       .debug_str	00000000 
0000009d l       .debug_str	00000000 
000000aa l       .debug_str	00000000 
000000b3 l       .debug_str	00000000 
000000be l       .debug_str	00000000 
000000c5 l       .debug_str	00000000 
000000c9 l       .debug_str	00000000 
000000cd l       .debug_str	00000000 
000000d4 l       .debug_str	00000000 
000000d6 l       .debug_str	00000000 
000000e0 l       .debug_str	00000000 
000000ee l       .debug_str	00000000 
000000f3 l       .debug_str	00000000 
0000017e l       .debug_str	00000000 
000001e6 l       .debug_str	00000000 
000001ea l       .debug_str	00000000 
000001f0 l       .debug_str	00000000 
000001ff l       .debug_str	00000000 
00000203 l       .debug_str	00000000 
00000207 l       .debug_str	00000000 
0000020d l       .debug_str	00000000 
00000212 l       .debug_str	00000000 
0000021b l       .debug_str	00000000 
0000021e l       .debug_str	00000000 
00000228 l       .debug_str	00000000 
0000022f l       .debug_str	00000000 
00000235 l       .debug_str	00000000 
0000023a l       .debug_str	00000000 
00000240 l       .debug_str	00000000 
0000024b l       .debug_str	00000000 
00000250 l       .debug_str	00000000 
00000000 l     O .rodata..Lanon.2889c15a2994ff14429cc0eaa1633c88.0	00000018 .Lanon.2889c15a2994ff14429cc0eaa1633c88.0
00000000 l     O .rodata..Lanon.2889c15a2994ff14429cc0eaa1633c88.1	00000018 .Lanon.2889c15a2994ff14429cc0eaa1633c88.1
00000000 l     O .rodata..Lanon.2889c15a2994ff14429cc0eaa1633c88.10	00000018 .Lanon.2889c15a2994ff14429cc0eaa1633c88.10
00000000 l     O .rodata..Lanon.2889c15a2994ff14429cc0eaa1633c88.11	00000018 .Lanon.2889c15a2994ff14429cc0eaa1633c88.11
00000000 l     O .rodata..Lanon.2889c15a2994ff14429cc0eaa1633c88.12	000012c0 .Lanon.2889c15a2994ff14429cc0eaa1633c88.12
00000000 l     O .rodata..Lanon.2889c15a2994ff14429cc0eaa1633c88.13	00000010 .Lanon.2889c15a2994ff14429cc0eaa1633c88.13
00000000 l     O .rodata..Lanon.2889c15a2994ff14429cc0eaa1633c88.14	00000018 .Lanon.2889c15a2994ff14429cc0eaa1633c88.14
00000000 l     O .rodata..Lanon.2889c15a2994ff14429cc0eaa1633c88.15	00000018 .Lanon.2889c15a2994ff14429cc0eaa1633c88.15
00000000 l     O .rodata..Lanon.2889c15a2994ff14429cc0eaa1633c88.16	00000018 .Lanon.2889c15a2994ff14429cc0eaa1633c88.16
00000000 l     O .rodata..Lanon.2889c15a2994ff14429cc0eaa1633c88.17	00000018 .Lanon.2889c15a2994ff14429cc0eaa1633c88.17
00000000 l     O .rodata..Lanon.2889c15a2994ff14429cc0eaa1633c88.18	00000018 .Lanon.2889c15a2994ff14429cc0eaa1633c88.18
00000000 l     O .rodata..Lanon.2889c15a2994ff14429cc0eaa1633c88.19	00000018 .Lanon.2889c15a2994ff14429cc0eaa1633c88.19
00000000 l     O .rodata..Lanon.2889c15a2994ff14429cc0eaa1633c88.2	00000018 .Lanon.2889c15a2994ff14429cc0eaa1633c88.2
00000000 l     O .rodata..Lanon.2889c15a2994ff14429cc0eaa1633c88.20	00000018 .Lanon.2889c15a2994ff14429cc0eaa1633c88.20
00000000 l     O .rodata..Lanon.2889c15a2994ff14429cc0eaa1633c88.3	00000018 .Lanon.2889c15a2994ff14429cc0eaa1633c88.3
00000000 l     O .rodata..Lanon.2889c15a2994ff14429cc0eaa1633c88.4	00000018 .Lanon.2889c15a2994ff14429cc0eaa1633c88.4
00000000 l     O .rodata..Lanon.2889c15a2994ff14429cc0eaa1633c88.5	00000018 .Lanon.2889c15a2994ff14429cc0eaa1633c88.5
00000000 l     O .rodata..Lanon.2889c15a2994ff14429cc0eaa1633c88.6	00000018 .Lanon.2889c15a2994ff14429cc0eaa1633c88.6
00000000 l     O .rodata..Lanon.2889c15a2994ff14429cc0eaa1633c88.7	00000018 .Lanon.2889c15a2994ff14429cc0eaa1633c88.7
00000000 l     O .rodata..Lanon.2889c15a2994ff14429cc0eaa1633c88.8	00000018 .Lanon.2889c15a2994ff14429cc0eaa1633c88.8
00000000 l     O .rodata..Lanon.2889c15a2994ff14429cc0eaa1633c88.9	00000018 .Lanon.2889c15a2994ff14429cc0eaa1633c88.9
00000000 l     O .rodata.str.0	0000006e str.0
00000000 l     O .rodata.str.1	00000021 str.1
00000000 l     O .rodata.str.2	0000001c str.2
00000000 l     O .rodata.str.3	00000019 str.3
00000000 l     O .rodata.str.4	00000021 str.4
00000000 l     O .rodata.str.5	00000023 str.5
00000000 l    d  .text._ZN106_$LT$embedded_graphics..fonts..font_builder..FontBuilder$LT$C$C$Conf$GT$$u20$as$u20$core..clone..Clone$GT$5clone17h27e7a6d286cef229E	00000000 .text._ZN106_$LT$embedded_graphics..fonts..font_builder..FontBuilder$LT$C$C$Conf$GT$$u20$as$u20$core..clone..Clone$GT$5clone17h27e7a6d286cef229E
00000000 l    d  .text._ZN127_$LT$embedded_graphics..fonts..font_builder..FontBuilder$LT$C$C$Conf$GT$$u20$as$u20$embedded_graphics..fonts..Font$LT$C$GT$$GT$10render_str17hacb41e46f9562ddeE	00000000 .text._ZN127_$LT$embedded_graphics..fonts..font_builder..FontBuilder$LT$C$C$Conf$GT$$u20$as$u20$embedded_graphics..fonts..Font$LT$C$GT$$GT$10render_str17hacb41e46f9562ddeE
00000000 l    d  .text._ZN127_$LT$embedded_graphics..fonts..font_builder..FontBuilder$LT$C$C$Conf$GT$$u20$as$u20$embedded_graphics..transform..Transform$GT$9translate17h6a77966259d87ac7E	00000000 .text._ZN127_$LT$embedded_graphics..fonts..font_builder..FontBuilder$LT$C$C$Conf$GT$$u20$as$u20$embedded_graphics..transform..Transform$GT$9translate17h6a77966259d87ac7E
00000000 l    d  .text._ZN129_$LT$embedded_graphics..fonts..font_builder..FontBuilder$LT$C$C$Conf$GT$$u20$as$u20$core..iter..traits..collect..IntoIterator$GT$9into_iter17h1676ae25d4fe1e7bE	00000000 .text._ZN129_$LT$embedded_graphics..fonts..font_builder..FontBuilder$LT$C$C$Conf$GT$$u20$as$u20$core..iter..traits..collect..IntoIterator$GT$9into_iter17h1676ae25d4fe1e7bE
00000000 l    d  .text._ZN132_$LT$embedded_graphics..fonts..font_builder..FontBuilder$LT$C$C$Conf$GT$$u20$as$u20$embedded_graphics..style..WithStyle$LT$C$GT$$GT$4fill17h0a04a2fcc8b3c085E	00000000 .text._ZN132_$LT$embedded_graphics..fonts..font_builder..FontBuilder$LT$C$C$Conf$GT$$u20$as$u20$embedded_graphics..style..WithStyle$LT$C$GT$$GT$4fill17h0a04a2fcc8b3c085E
00000000 l    d  .text._ZN134_$LT$embedded_graphics..fonts..font_builder..FontBuilderIterator$LT$C$C$Conf$GT$$u20$as$u20$core..iter..traits..iterator..Iterator$GT$4next17h84927a60c181f9e6E	00000000 .text._ZN134_$LT$embedded_graphics..fonts..font_builder..FontBuilderIterator$LT$C$C$Conf$GT$$u20$as$u20$core..iter..traits..iterator..Iterator$GT$4next17h84927a60c181f9e6E
00000000 l    d  .rodata.str.0	00000000 .rodata.str.0
00000000 l    d  .rodata.str.1	00000000 .rodata.str.1
00000000 l    d  .rodata.str.2	00000000 .rodata.str.2
00000000 l    d  .rodata.str.3	00000000 .rodata.str.3
00000000 l    d  .rodata.str.4	00000000 .rodata.str.4
00000000 l    d  .rodata.str.5	00000000 .rodata.str.5
00000000 l    d  .debug_loc	00000000 .debug_loc
00000000 l    d  .debug_abbrev	00000000 .debug_abbrev
00000000 l    d  .debug_info	00000000 .debug_info
00000000 l    d  .debug_ranges	00000000 .debug_ranges
00000000 l    d  .debug_frame	00000000 .debug_frame
00000000 l    d  .debug_line	00000000 .debug_line
00000000         *UND*	00000000 <embedded_graphics::coord::internal_coord::Coord as core::ops::index::Index<usize>>::index
00000000         *UND*	00000000 <embedded_graphics::coord::internal_coord::Coord as embedded_graphics::coord::ToUnsigned>::to_unsigned
00000000 g     F .text._ZN106_$LT$embedded_graphics..fonts..font_builder..FontBuilder$LT$C$C$Conf$GT$$u20$as$u20$core..clone..Clone$GT$5clone17h27e7a6d286cef229E	00000066 <embedded_graphics::fonts::font_builder::FontBuilder<C,Conf> as core::clone::Clone>::clone
00000000         *UND*	00000000 <embedded_graphics::fonts::font12x16::Font12x16Conf as embedded_graphics::fonts::font_builder::FontBuilderConf>::char_offset
00000000 g     F .text._ZN127_$LT$embedded_graphics..fonts..font_builder..FontBuilder$LT$C$C$Conf$GT$$u20$as$u20$embedded_graphics..fonts..Font$LT$C$GT$$GT$10render_str17hacb41e46f9562ddeE	00000068 <embedded_graphics::fonts::font_builder::FontBuilder<C,Conf> as embedded_graphics::fonts::Font<C>>::render_str
00000000 g     F .text._ZN127_$LT$embedded_graphics..fonts..font_builder..FontBuilder$LT$C$C$Conf$GT$$u20$as$u20$embedded_graphics..transform..Transform$GT$9translate17h6a77966259d87ac7E	0000006c <embedded_graphics::fonts::font_builder::FontBuilder<C,Conf> as embedded_graphics::transform::Transform>::translate
00000000 g     F .text._ZN129_$LT$embedded_graphics..fonts..font_builder..FontBuilder$LT$C$C$Conf$GT$$u20$as$u20$core..iter..traits..collect..IntoIterator$GT$9into_iter17h1676ae25d4fe1e7bE	0000008c <embedded_graphics::fonts::font_builder::FontBuilder<C,Conf> as core::iter::traits::collect::IntoIterator>::into_iter
00000000 g     F .text._ZN132_$LT$embedded_graphics..fonts..font_builder..FontBuilder$LT$C$C$Conf$GT$$u20$as$u20$embedded_graphics..style..WithStyle$LT$C$GT$$GT$4fill17h0a04a2fcc8b3c085E	0000003c <embedded_graphics::fonts::font_builder::FontBuilder<C,Conf> as embedded_graphics::style::WithStyle<C>>::fill
00000000 g     F .text._ZN134_$LT$embedded_graphics..fonts..font_builder..FontBuilderIterator$LT$C$C$Conf$GT$$u20$as$u20$core..iter..traits..iterator..Iterator$GT$4next17h84927a60c181f9e6E	0000057c <embedded_graphics::fonts::font_builder::FontBuilderIterator<C,Conf> as core::iter::traits::iterator::Iterator>::next
00000000         *UND*	00000000 embedded_graphics::coord::internal_coord::Coord::new
00000000         *UND*	00000000 .hidden core::str::<impl str>::len
00000000         *UND*	00000000 .hidden core::str::<impl str>::chars
00000000         *UND*	00000000 core::iter::traits::iterator::Iterator::skip
00000000         *UND*	00000000 core::option::Option<T>::unwrap_or
00000000         *UND*	00000000 core::panicking::panic_bounds_check
00000000         *UND*	00000000 core::panicking::panic
00000000         *UND*	00000000 <T as core::convert::Into<U>>::into
00000000         *UND*	00000000 .hidden <core::str::Chars as core::iter::traits::iterator::Iterator>::next
00000000         *UND*	00000000 <core::marker::PhantomData<T> as core::default::Default>::default
00000000         *UND*	00000000 <embedded_graphics::style::Style<P> as core::clone::Clone>::clone
00000000         *UND*	00000000 <embedded_graphics::style::Style<P> as core::default::Default>::default
00000000         *UND*	00000000 <embedded_graphics::coord::internal_coord::Coord as core::ops::arith::Add>::add
00000000         *UND*	00000000 <core::iter::adapters::Skip<I> as core::iter::traits::iterator::Iterator>::next



Disassembly of section .text._ZN106_$LT$embedded_graphics..fonts..font_builder..FontBuilder$LT$C$C$Conf$GT$$u20$as$u20$core..clone..Clone$GT$5clone17h27e7a6d286cef229E:

00000000 <<embedded_graphics::fonts::font_builder::FontBuilder<C,Conf> as core::clone::Clone>::clone>:
_ZN106_$LT$embedded_graphics..fonts..font_builder..FontBuilder$LT$C$C$Conf$GT$$u20$as$u20$core..clone..Clone$GT$5clone17h27e7a6d286cef229E():
/Users/Luppy/.cargo/registry/src/github.com-1ecc6299db9ec823/embedded-graphics-0.5.2/src/fonts/font_builder.rs:53
    _conf: PhantomData<Conf>,
}

impl<'a, C: PixelColor + Copy, Conf> Copy for FontBuilder<'a, C, Conf> {}
impl<'a, C: PixelColor + Clone, Conf> Clone for FontBuilder<'a, C, Conf> {
    fn clone(&self) -> Self {
   0:	b5b0      	push	{r4, r5, r7, lr}
   2:	b08a      	sub	sp, #40	; 0x28
   4:	460a      	mov	r2, r1
   6:	9106      	str	r1, [sp, #24]
/Users/Luppy/.cargo/registry/src/github.com-1ecc6299db9ec823/embedded-graphics-0.5.2/src/fonts/font_builder.rs:55
        Self {
            pos: self.pos,
   8:	9906      	ldr	r1, [sp, #24]
   a:	680b      	ldr	r3, [r1, #0]
   c:	f8d1 c004 	ldr.w	ip, [r1, #4]
/Users/Luppy/.cargo/registry/src/github.com-1ecc6299db9ec823/embedded-graphics-0.5.2/src/fonts/font_builder.rs:56
            text: self.text,
  10:	f8d1 e008 	ldr.w	lr, [r1, #8]
  14:	68cc      	ldr	r4, [r1, #12]
/Users/Luppy/.cargo/registry/src/github.com-1ecc6299db9ec823/embedded-graphics-0.5.2/src/fonts/font_builder.rs:57
            style: self.style.clone(),
  16:	3110      	adds	r1, #16
  18:	ad07      	add	r5, sp, #28
  1a:	9005      	str	r0, [sp, #20]
  1c:	4628      	mov	r0, r5
  1e:	9204      	str	r2, [sp, #16]
  20:	9303      	str	r3, [sp, #12]
  22:	f8cd c008 	str.w	ip, [sp, #8]
  26:	f8cd e004 	str.w	lr, [sp, #4]
  2a:	9400      	str	r4, [sp, #0]
  2c:	f7ff fffe 	bl	0 <<embedded_graphics::style::Style<P> as core::clone::Clone>::clone>
  30:	e7ff      	b.n	2 <<core::marker::PhantomData<T> as core::default::Default>::default+0x2>
/Users/Luppy/.cargo/registry/src/github.com-1ecc6299db9ec823/embedded-graphics-0.5.2/src/fonts/font_builder.rs:58
            _conf: Default::default(),
  32:	f7ff fffe 	bl	0 <<core::marker::PhantomData<T> as core::default::Default>::default>
  36:	e7ff      	b.n	38 <<embedded_graphics::fonts::font_builder::FontBuilder<C,Conf> as core::clone::Clone>::clone+0x38>
/Users/Luppy/.cargo/registry/src/github.com-1ecc6299db9ec823/embedded-graphics-0.5.2/src/fonts/font_builder.rs:54
        Self {
  38:	9803      	ldr	r0, [sp, #12]
  3a:	9905      	ldr	r1, [sp, #20]
  3c:	6008      	str	r0, [r1, #0]
  3e:	9a02      	ldr	r2, [sp, #8]
  40:	604a      	str	r2, [r1, #4]
  42:	9b01      	ldr	r3, [sp, #4]
  44:	608b      	str	r3, [r1, #8]
  46:	f8dd c000 	ldr.w	ip, [sp]
  4a:	f8c1 c00c 	str.w	ip, [r1, #12]
  4e:	f8bd e024 	ldrh.w	lr, [sp, #36]	; 0x24
  52:	f8a1 e018 	strh.w	lr, [r1, #24]
  56:	f8dd e01c 	ldr.w	lr, [sp, #28]
  5a:	9c08      	ldr	r4, [sp, #32]
  5c:	614c      	str	r4, [r1, #20]
  5e:	f8c1 e010 	str.w	lr, [r1, #16]
/Users/Luppy/.cargo/registry/src/github.com-1ecc6299db9ec823/embedded-graphics-0.5.2/src/fonts/font_builder.rs:60
        }
    }
  62:	b00a      	add	sp, #40	; 0x28
  64:	bdb0      	pop	{r4, r5, r7, pc}

Disassembly of section .text._ZN127_$LT$embedded_graphics..fonts..font_builder..FontBuilder$LT$C$C$Conf$GT$$u20$as$u20$embedded_graphics..fonts..Font$LT$C$GT$$GT$10render_str17hacb41e46f9562ddeE:

00000000 <<embedded_graphics::fonts::font_builder::FontBuilder<C,Conf> as embedded_graphics::fonts::Font<C>>::render_str>:
_ZN127_$LT$embedded_graphics..fonts..font_builder..FontBuilder$LT$C$C$Conf$GT$$u20$as$u20$embedded_graphics..fonts..Font$LT$C$GT$$GT$10render_str17hacb41e46f9562ddeE():
/Users/Luppy/.cargo/registry/src/github.com-1ecc6299db9ec823/embedded-graphics-0.5.2/src/fonts/font_builder.rs:94
impl<'a, C, Conf> Font<'a, C> for FontBuilder<'a, C, Conf>
where
    C: PixelColor,
    Conf: FontBuilderConf,
{
    fn render_str(text: &'a str) -> Self {
   0:	b510      	push	{r4, lr}
   2:	b08c      	sub	sp, #48	; 0x30
   4:	4613      	mov	r3, r2
   6:	468c      	mov	ip, r1
   8:	9107      	str	r1, [sp, #28]
   a:	9208      	str	r2, [sp, #32]
   c:	2100      	movs	r1, #0
/Users/Luppy/.cargo/registry/src/github.com-1ecc6299db9ec823/embedded-graphics-0.5.2/src/fonts/font_builder.rs:96
        Self {
            pos: Coord::new(0, 0),
   e:	9006      	str	r0, [sp, #24]
  10:	4608      	mov	r0, r1
  12:	9305      	str	r3, [sp, #20]
  14:	f8cd c010 	str.w	ip, [sp, #16]
  18:	f7ff fffe 	bl	0 <embedded_graphics::coord::internal_coord::Coord::new>
  1c:	9003      	str	r0, [sp, #12]
  1e:	9102      	str	r1, [sp, #8]
  20:	e7ff      	b.n	22 <<embedded_graphics::fonts::font_builder::FontBuilder<C,Conf> as embedded_graphics::fonts::Font<C>>::render_str+0x22>
/Users/Luppy/.cargo/registry/src/github.com-1ecc6299db9ec823/embedded-graphics-0.5.2/src/fonts/font_builder.rs:97
            text,
  22:	9807      	ldr	r0, [sp, #28]
  24:	9908      	ldr	r1, [sp, #32]
  26:	aa09      	add	r2, sp, #36	; 0x24
/Users/Luppy/.cargo/registry/src/github.com-1ecc6299db9ec823/embedded-graphics-0.5.2/src/fonts/font_builder.rs:98
            style: Style::default(),
  28:	9001      	str	r0, [sp, #4]
  2a:	4610      	mov	r0, r2
  2c:	9100      	str	r1, [sp, #0]
  2e:	f7ff fffe 	bl	0 <<embedded_graphics::style::Style<P> as core::default::Default>::default>
  32:	e7ff      	b.n	2 <<core::marker::PhantomData<T> as core::default::Default>::default+0x2>
/Users/Luppy/.cargo/registry/src/github.com-1ecc6299db9ec823/embedded-graphics-0.5.2/src/fonts/font_builder.rs:99
            _conf: Default::default(),
  34:	f7ff fffe 	bl	0 <<core::marker::PhantomData<T> as core::default::Default>::default>
  38:	e7ff      	b.n	3a <<embedded_graphics::fonts::font_builder::FontBuilder<C,Conf> as embedded_graphics::fonts::Font<C>>::render_str+0x3a>
/Users/Luppy/.cargo/registry/src/github.com-1ecc6299db9ec823/embedded-graphics-0.5.2/src/fonts/font_builder.rs:95
        Self {
  3a:	9803      	ldr	r0, [sp, #12]
  3c:	9906      	ldr	r1, [sp, #24]
  3e:	6008      	str	r0, [r1, #0]
  40:	9a02      	ldr	r2, [sp, #8]
  42:	604a      	str	r2, [r1, #4]
  44:	9b01      	ldr	r3, [sp, #4]
  46:	608b      	str	r3, [r1, #8]
  48:	f8dd c000 	ldr.w	ip, [sp]
  4c:	f8c1 c00c 	str.w	ip, [r1, #12]
  50:	f8bd e02c 	ldrh.w	lr, [sp, #44]	; 0x2c
  54:	f8a1 e018 	strh.w	lr, [r1, #24]
  58:	f8dd e024 	ldr.w	lr, [sp, #36]	; 0x24
  5c:	9c0a      	ldr	r4, [sp, #40]	; 0x28
  5e:	614c      	str	r4, [r1, #20]
  60:	f8c1 e010 	str.w	lr, [r1, #16]
/Users/Luppy/.cargo/registry/src/github.com-1ecc6299db9ec823/embedded-graphics-0.5.2/src/fonts/font_builder.rs:101
        }
    }
  64:	b00c      	add	sp, #48	; 0x30
  66:	bd10      	pop	{r4, pc}

Disassembly of section .text._ZN127_$LT$embedded_graphics..fonts..font_builder..FontBuilder$LT$C$C$Conf$GT$$u20$as$u20$embedded_graphics..transform..Transform$GT$9translate17h6a77966259d87ac7E:

00000000 <<embedded_graphics::fonts::font_builder::FontBuilder<C,Conf> as embedded_graphics::transform::Transform>::translate>:
_ZN127_$LT$embedded_graphics..fonts..font_builder..FontBuilder$LT$C$C$Conf$GT$$u20$as$u20$embedded_graphics..transform..Transform$GT$9translate17h6a77966259d87ac7E():
/Users/Luppy/.cargo/registry/src/github.com-1ecc6299db9ec823/embedded-graphics-0.5.2/src/fonts/font_builder.rs:301
    /// let moved = text.translate(Coord::new(25, 30));
    ///
    /// assert_eq!(text.pos, Coord::new(0, 0));
    /// assert_eq!(moved.pos, Coord::new(25, 30));
    /// ```
    fn translate(&self, by: Coord) -> Self {
   0:	b5b0      	push	{r4, r5, r7, lr}
   2:	b090      	sub	sp, #64	; 0x40
   4:	469c      	mov	ip, r3
   6:	4696      	mov	lr, r2
   8:	460c      	mov	r4, r1
   a:	9106      	str	r1, [sp, #24]
   c:	9207      	str	r2, [sp, #28]
   e:	9308      	str	r3, [sp, #32]
/Users/Luppy/.cargo/registry/src/github.com-1ecc6299db9ec823/embedded-graphics-0.5.2/src/fonts/font_builder.rs:303
        Self {
            pos: self.pos + by,
  10:	9906      	ldr	r1, [sp, #24]
  12:	680a      	ldr	r2, [r1, #0]
  14:	6849      	ldr	r1, [r1, #4]
  16:	9b07      	ldr	r3, [sp, #28]
  18:	9d08      	ldr	r5, [sp, #32]
  1a:	9005      	str	r0, [sp, #20]
  1c:	4610      	mov	r0, r2
  1e:	461a      	mov	r2, r3
  20:	462b      	mov	r3, r5
  22:	f8cd c010 	str.w	ip, [sp, #16]
  26:	f8cd e00c 	str.w	lr, [sp, #12]
  2a:	9402      	str	r4, [sp, #8]
  2c:	f7ff fffe 	bl	0 <<embedded_graphics::coord::internal_coord::Coord as core::ops::arith::Add>::add>
  30:	9001      	str	r0, [sp, #4]
  32:	9100      	str	r1, [sp, #0]
  34:	e7ff      	b.n	36 <<embedded_graphics::fonts::font_builder::FontBuilder<C,Conf> as embedded_graphics::transform::Transform>::translate+0x36>
/Users/Luppy/.cargo/registry/src/github.com-1ecc6299db9ec823/embedded-graphics-0.5.2/src/fonts/font_builder.rs:304
            ..self.clone()
  36:	9906      	ldr	r1, [sp, #24]
  38:	a809      	add	r0, sp, #36	; 0x24
  3a:	f7ff fffe 	bl	0 <<embedded_graphics::fonts::font_builder::FontBuilder<C,Conf> as embedded_graphics::transform::Transform>::translate>
  3e:	e7ff      	b.n	40 <<embedded_graphics::fonts::font_builder::FontBuilder<C,Conf> as embedded_graphics::transform::Transform>::translate+0x40>
/Users/Luppy/.cargo/registry/src/github.com-1ecc6299db9ec823/embedded-graphics-0.5.2/src/fonts/font_builder.rs:302
        Self {
  40:	9801      	ldr	r0, [sp, #4]
  42:	9905      	ldr	r1, [sp, #20]
  44:	6008      	str	r0, [r1, #0]
  46:	9a00      	ldr	r2, [sp, #0]
  48:	604a      	str	r2, [r1, #4]
  4a:	9b0b      	ldr	r3, [sp, #44]	; 0x2c
  4c:	f8dd c030 	ldr.w	ip, [sp, #48]	; 0x30
  50:	608b      	str	r3, [r1, #8]
  52:	f8c1 c00c 	str.w	ip, [r1, #12]
  56:	f8bd 303c 	ldrh.w	r3, [sp, #60]	; 0x3c
  5a:	830b      	strh	r3, [r1, #24]
  5c:	9b0d      	ldr	r3, [sp, #52]	; 0x34
  5e:	f8dd c038 	ldr.w	ip, [sp, #56]	; 0x38
  62:	f8c1 c014 	str.w	ip, [r1, #20]
  66:	610b      	str	r3, [r1, #16]
/Users/Luppy/.cargo/registry/src/github.com-1ecc6299db9ec823/embedded-graphics-0.5.2/src/fonts/font_builder.rs:306
        }
    }
  68:	b010      	add	sp, #64	; 0x40
  6a:	bdb0      	pop	{r4, r5, r7, pc}

Disassembly of section .text._ZN129_$LT$embedded_graphics..fonts..font_builder..FontBuilder$LT$C$C$Conf$GT$$u20$as$u20$core..iter..traits..collect..IntoIterator$GT$9into_iter17h1676ae25d4fe1e7bE:

00000000 <<embedded_graphics::fonts::font_builder::FontBuilder<C,Conf> as core::iter::traits::collect::IntoIterator>::into_iter>:
_ZN129_$LT$embedded_graphics..fonts..font_builder..FontBuilder$LT$C$C$Conf$GT$$u20$as$u20$core..iter..traits..collect..IntoIterator$GT$9into_iter17h1676ae25d4fe1e7bE():
/Users/Luppy/.cargo/registry/src/github.com-1ecc6299db9ec823/embedded-graphics-0.5.2/src/fonts/font_builder.rs:157
    fn into_iter(self) -> Self::IntoIter {
   0:	b5b0      	push	{r4, r5, r7, lr}
   2:	b08c      	sub	sp, #48	; 0x30
   4:	460a      	mov	r2, r1
/Users/Luppy/.cargo/registry/src/github.com-1ecc6299db9ec823/embedded-graphics-0.5.2/src/fonts/font_builder.rs:159
            current_char: self.text.chars().next(),
   6:	688b      	ldr	r3, [r1, #8]
   8:	68c9      	ldr	r1, [r1, #12]
   a:	9006      	str	r0, [sp, #24]
   c:	4618      	mov	r0, r3
   e:	9205      	str	r2, [sp, #20]
  10:	f7ff fffe 	bl	0 <core::str::<impl str>::chars>
  14:	9108      	str	r1, [sp, #32]
  16:	9007      	str	r0, [sp, #28]
  18:	e7ff      	b.n	1a <<embedded_graphics::fonts::font_builder::FontBuilder<C,Conf> as core::iter::traits::collect::IntoIterator>::into_iter+0x1a>
  1a:	a807      	add	r0, sp, #28
  1c:	f7ff fffe 	bl	0 <<core::str::Chars as core::iter::traits::iterator::Iterator>::next>
  20:	9004      	str	r0, [sp, #16]
  22:	e7ff      	b.n	24 <<embedded_graphics::fonts::font_builder::FontBuilder<C,Conf> as core::iter::traits::collect::IntoIterator>::into_iter+0x24>
/Users/Luppy/.cargo/registry/src/github.com-1ecc6299db9ec823/embedded-graphics-0.5.2/src/fonts/font_builder.rs:164
            pos: self.pos,
  24:	9805      	ldr	r0, [sp, #20]
  26:	6801      	ldr	r1, [r0, #0]
  28:	6842      	ldr	r2, [r0, #4]
/Users/Luppy/.cargo/registry/src/github.com-1ecc6299db9ec823/embedded-graphics-0.5.2/src/fonts/font_builder.rs:161
            text: self.text,
  2a:	6883      	ldr	r3, [r0, #8]
  2c:	f8d0 c00c 	ldr.w	ip, [r0, #12]
/Users/Luppy/.cargo/registry/src/github.com-1ecc6299db9ec823/embedded-graphics-0.5.2/src/fonts/font_builder.rs:165
            style: self.style,
  30:	f8b0 e018 	ldrh.w	lr, [r0, #24]
  34:	f8ad e02c 	strh.w	lr, [sp, #44]	; 0x2c
  38:	f8d0 e010 	ldr.w	lr, [r0, #16]
  3c:	6944      	ldr	r4, [r0, #20]
  3e:	940a      	str	r4, [sp, #40]	; 0x28
  40:	f8cd e024 	str.w	lr, [sp, #36]	; 0x24
/Users/Luppy/.cargo/registry/src/github.com-1ecc6299db9ec823/embedded-graphics-0.5.2/src/fonts/font_builder.rs:166
            _conf: Default::default(),
  44:	9103      	str	r1, [sp, #12]
  46:	9202      	str	r2, [sp, #8]
  48:	9301      	str	r3, [sp, #4]
  4a:	f8cd c000 	str.w	ip, [sp]
  4e:	f7ff fffe 	bl	0 <<core::marker::PhantomData<T> as core::default::Default>::default>
  52:	e7ff      	b.n	54 <<embedded_graphics::fonts::font_builder::FontBuilder<C,Conf> as core::iter::traits::collect::IntoIterator>::into_iter+0x54>
  54:	2000      	movs	r0, #0
/Users/Luppy/.cargo/registry/src/github.com-1ecc6299db9ec823/embedded-graphics-0.5.2/src/fonts/font_builder.rs:158
        Self::IntoIter {
  56:	9906      	ldr	r1, [sp, #24]
  58:	6008      	str	r0, [r1, #0]
  5a:	6048      	str	r0, [r1, #4]
  5c:	9a04      	ldr	r2, [sp, #16]
  5e:	608a      	str	r2, [r1, #8]
  60:	60c8      	str	r0, [r1, #12]
  62:	9803      	ldr	r0, [sp, #12]
  64:	6108      	str	r0, [r1, #16]
  66:	9b02      	ldr	r3, [sp, #8]
  68:	614b      	str	r3, [r1, #20]
  6a:	f8dd c004 	ldr.w	ip, [sp, #4]
  6e:	f8c1 c018 	str.w	ip, [r1, #24]
  72:	f8dd e000 	ldr.w	lr, [sp]
  76:	f8c1 e01c 	str.w	lr, [r1, #28]
  7a:	f8bd 402c 	ldrh.w	r4, [sp, #44]	; 0x2c
  7e:	850c      	strh	r4, [r1, #40]	; 0x28
  80:	9c09      	ldr	r4, [sp, #36]	; 0x24
  82:	9d0a      	ldr	r5, [sp, #40]	; 0x28
  84:	624d      	str	r5, [r1, #36]	; 0x24
  86:	620c      	str	r4, [r1, #32]
/Users/Luppy/.cargo/registry/src/github.com-1ecc6299db9ec823/embedded-graphics-0.5.2/src/fonts/font_builder.rs:168
    }
  88:	b00c      	add	sp, #48	; 0x30
  8a:	bdb0      	pop	{r4, r5, r7, pc}

Disassembly of section .text._ZN132_$LT$embedded_graphics..fonts..font_builder..FontBuilder$LT$C$C$Conf$GT$$u20$as$u20$embedded_graphics..style..WithStyle$LT$C$GT$$GT$4fill17h0a04a2fcc8b3c085E:

00000000 <<embedded_graphics::fonts::font_builder::FontBuilder<C,Conf> as embedded_graphics::style::WithStyle<C>>::fill>:
_ZN132_$LT$embedded_graphics..fonts..font_builder..FontBuilder$LT$C$C$Conf$GT$$u20$as$u20$embedded_graphics..style..WithStyle$LT$C$GT$$GT$4fill17h0a04a2fcc8b3c085E():
/Users/Luppy/.cargo/registry/src/github.com-1ecc6299db9ec823/embedded-graphics-0.5.2/src/fonts/font_builder.rs:126
    fn fill(mut self, color: Option<C>) -> Self {
   0:	b5f0      	push	{r4, r5, r6, r7, lr}
   2:	b085      	sub	sp, #20
   4:	469c      	mov	ip, r3
   6:	4696      	mov	lr, r2
   8:	460c      	mov	r4, r1
   a:	4605      	mov	r5, r0
   c:	f8ad 2010 	strh.w	r2, [sp, #16]
  10:	f8ad 3012 	strh.w	r3, [sp, #18]
/Users/Luppy/.cargo/registry/src/github.com-1ecc6299db9ec823/embedded-graphics-0.5.2/src/fonts/font_builder.rs:127
        self.style.fill_color = color;
  14:	f8bd 2010 	ldrh.w	r2, [sp, #16]
  18:	f8bd 3012 	ldrh.w	r3, [sp, #18]
  1c:	820a      	strh	r2, [r1, #16]
  1e:	824b      	strh	r3, [r1, #18]
/Users/Luppy/.cargo/registry/src/github.com-1ecc6299db9ec823/embedded-graphics-0.5.2/src/fonts/font_builder.rs:129
        self
  20:	c94c      	ldmia	r1!, {r2, r3, r6}
  22:	c04c      	stmia	r0!, {r2, r3, r6}
  24:	e891 00cc 	ldmia.w	r1, {r2, r3, r6, r7}
  28:	e880 00cc 	stmia.w	r0, {r2, r3, r6, r7}
/Users/Luppy/.cargo/registry/src/github.com-1ecc6299db9ec823/embedded-graphics-0.5.2/src/fonts/font_builder.rs:130
    }
  2c:	f8cd c00c 	str.w	ip, [sp, #12]
  30:	f8cd e008 	str.w	lr, [sp, #8]
  34:	9401      	str	r4, [sp, #4]
  36:	9500      	str	r5, [sp, #0]
  38:	b005      	add	sp, #20
  3a:	bdf0      	pop	{r4, r5, r6, r7, pc}

Disassembly of section .text._ZN134_$LT$embedded_graphics..fonts..font_builder..FontBuilderIterator$LT$C$C$Conf$GT$$u20$as$u20$core..iter..traits..iterator..Iterator$GT$4next17h84927a60c181f9e6E:

00000000 <<embedded_graphics::fonts::font_builder::FontBuilderIterator<C,Conf> as core::iter::traits::iterator::Iterator>::next>:
_ZN134_$LT$embedded_graphics..fonts..font_builder..FontBuilderIterator$LT$C$C$Conf$GT$$u20$as$u20$core..iter..traits..iterator..Iterator$GT$4next17h84927a60c181f9e6E():
/Users/Luppy/.cargo/registry/src/github.com-1ecc6299db9ec823/embedded-graphics-0.5.2/src/fonts/font_builder.rs:200
    fn next(&mut self) -> Option<Self::Item> {
   0:	b580      	push	{r7, lr}
   2:	b0ca      	sub	sp, #296	; 0x128
   4:	460a      	mov	r2, r1
   6:	9131      	str	r1, [sp, #196]	; 0xc4
/Users/Luppy/.cargo/registry/src/github.com-1ecc6299db9ec823/embedded-graphics-0.5.2/src/fonts/font_builder.rs:201
        if self.pos[0] + (self.text.len() as i32 * Conf::CHAR_WIDTH as i32) <= 0
   8:	9931      	ldr	r1, [sp, #196]	; 0xc4
   a:	3110      	adds	r1, #16
   c:	2300      	movs	r3, #0
   e:	9030      	str	r0, [sp, #192]	; 0xc0
  10:	4608      	mov	r0, r1
  12:	4619      	mov	r1, r3
  14:	922f      	str	r2, [sp, #188]	; 0xbc
  16:	f7ff fffe 	bl	0 <<embedded_graphics::coord::internal_coord::Coord as core::ops::index::Index<usize>>::index>
  1a:	902e      	str	r0, [sp, #184]	; 0xb8
  1c:	e010      	b.n	40 <<embedded_graphics::fonts::font_builder::FontBuilderIterator<C,Conf> as core::iter::traits::iterator::Iterator>::next+0x40>
  1e:	2001      	movs	r0, #1
  20:	f88d 00cb 	strb.w	r0, [sp, #203]	; 0xcb
  24:	e006      	b.n	34 <<embedded_graphics::fonts::font_builder::FontBuilderIterator<C,Conf> as core::iter::traits::iterator::Iterator>::next+0x34>
/Users/Luppy/.cargo/registry/src/github.com-1ecc6299db9ec823/embedded-graphics-0.5.2/src/fonts/font_builder.rs:202
            || self.pos[1] + (Conf::CHAR_HEIGHT as i32) <= 0
  26:	9831      	ldr	r0, [sp, #196]	; 0xc4
  28:	3010      	adds	r0, #16
  2a:	2101      	movs	r1, #1
  2c:	f7ff fffe 	bl	0 <<embedded_graphics::coord::internal_coord::Coord as core::ops::index::Index<usize>>::index>
  30:	902d      	str	r0, [sp, #180]	; 0xb4
  32:	e02a      	b.n	8a <<embedded_graphics::fonts::font_builder::FontBuilderIterator<C,Conf> as core::iter::traits::iterator::Iterator>::next+0x8a>
/Users/Luppy/.cargo/registry/src/github.com-1ecc6299db9ec823/embedded-graphics-0.5.2/src/fonts/font_builder.rs:201
        if self.pos[0] + (self.text.len() as i32 * Conf::CHAR_WIDTH as i32) <= 0
  34:	f89d 00cb 	ldrb.w	r0, [sp, #203]	; 0xcb
  38:	07c0      	lsls	r0, r0, #31
  3a:	2800      	cmp	r0, #0
  3c:	d137      	bne.n	ae <<embedded_graphics::fonts::font_builder::FontBuilderIterator<C,Conf> as core::iter::traits::iterator::Iterator>::next+0xae>
  3e:	e03c      	b.n	ba <<embedded_graphics::fonts::font_builder::FontBuilderIterator<C,Conf> as core::iter::traits::iterator::Iterator>::next+0xba>
  40:	982e      	ldr	r0, [sp, #184]	; 0xb8
  42:	6801      	ldr	r1, [r0, #0]
  44:	9a31      	ldr	r2, [sp, #196]	; 0xc4
  46:	6990      	ldr	r0, [r2, #24]
  48:	69d2      	ldr	r2, [r2, #28]
  4a:	912c      	str	r1, [sp, #176]	; 0xb0
  4c:	4611      	mov	r1, r2
  4e:	f7ff fffe 	bl	0 <core::str::<impl str>::len>
  52:	902b      	str	r0, [sp, #172]	; 0xac
  54:	e7ff      	b.n	56 <<embedded_graphics::fonts::font_builder::FontBuilderIterator<C,Conf> as core::iter::traits::iterator::Iterator>::next+0x56>
  56:	200c      	movs	r0, #12
  58:	992b      	ldr	r1, [sp, #172]	; 0xac
  5a:	fb81 0200 	smull	r0, r2, r1, r0
  5e:	eb01 0341 	add.w	r3, r1, r1, lsl #1
  62:	009b      	lsls	r3, r3, #2
  64:	ebb2 7fe0 	cmp.w	r2, r0, asr #31
  68:	932a      	str	r3, [sp, #168]	; 0xa8
  6a:	f040 81e3 	bne.w	434 <<embedded_graphics::fonts::font_builder::FontBuilderIterator<C,Conf> as core::iter::traits::iterator::Iterator>::next+0x434>
  6e:	e7ff      	b.n	70 <<embedded_graphics::fonts::font_builder::FontBuilderIterator<C,Conf> as core::iter::traits::iterator::Iterator>::next+0x70>
  70:	982c      	ldr	r0, [sp, #176]	; 0xb0
  72:	992a      	ldr	r1, [sp, #168]	; 0xa8
  74:	1842      	adds	r2, r0, r1
  76:	4613      	mov	r3, r2
  78:	4282      	cmp	r2, r0
  7a:	9329      	str	r3, [sp, #164]	; 0xa4
  7c:	f180 81e1 	bvs.w	442 <<embedded_graphics::fonts::font_builder::FontBuilderIterator<C,Conf> as core::iter::traits::iterator::Iterator>::next+0x442>
  80:	e7ff      	b.n	82 <<embedded_graphics::fonts::font_builder::FontBuilderIterator<C,Conf> as core::iter::traits::iterator::Iterator>::next+0x82>
  82:	9829      	ldr	r0, [sp, #164]	; 0xa4
  84:	2801      	cmp	r0, #1
  86:	dbca      	blt.n	1e <<embedded_graphics::fonts::font_builder::FontBuilderIterator<C,Conf> as core::iter::traits::iterator::Iterator>::next+0x1e>
  88:	e7cd      	b.n	26 <<embedded_graphics::fonts::font_builder::FontBuilderIterator<C,Conf> as core::iter::traits::iterator::Iterator>::next+0x26>
/Users/Luppy/.cargo/registry/src/github.com-1ecc6299db9ec823/embedded-graphics-0.5.2/src/fonts/font_builder.rs:202
            || self.pos[1] + (Conf::CHAR_HEIGHT as i32) <= 0
  8a:	982d      	ldr	r0, [sp, #180]	; 0xb4
  8c:	6801      	ldr	r1, [r0, #0]
  8e:	f101 0210 	add.w	r2, r1, #16
  92:	4613      	mov	r3, r2
  94:	428a      	cmp	r2, r1
  96:	9328      	str	r3, [sp, #160]	; 0xa0
  98:	f180 81da 	bvs.w	450 <<embedded_graphics::fonts::font_builder::FontBuilderIterator<C,Conf> as core::iter::traits::iterator::Iterator>::next+0x450>
  9c:	e7ff      	b.n	9e <<embedded_graphics::fonts::font_builder::FontBuilderIterator<C,Conf> as core::iter::traits::iterator::Iterator>::next+0x9e>
  9e:	2000      	movs	r0, #0
  a0:	9928      	ldr	r1, [sp, #160]	; 0xa0
  a2:	2901      	cmp	r1, #1
  a4:	bfb8      	it	lt
  a6:	2001      	movlt	r0, #1
/Users/Luppy/.cargo/registry/src/github.com-1ecc6299db9ec823/embedded-graphics-0.5.2/src/fonts/font_builder.rs:201
        if self.pos[0] + (self.text.len() as i32 * Conf::CHAR_WIDTH as i32) <= 0
  a8:	f88d 00cb 	strb.w	r0, [sp, #203]	; 0xcb
  ac:	e7c2      	b.n	34 <<embedded_graphics::fonts::font_builder::FontBuilderIterator<C,Conf> as core::iter::traits::iterator::Iterator>::next+0x34>
  ae:	2000      	movs	r0, #0
/Users/Luppy/.cargo/registry/src/github.com-1ecc6299db9ec823/embedded-graphics-0.5.2/src/fonts/font_builder.rs:204
            return None;
  b0:	9930      	ldr	r1, [sp, #192]	; 0xc0
  b2:	6008      	str	r0, [r1, #0]
  b4:	e7ff      	b.n	b6 <<embedded_graphics::fonts::font_builder::FontBuilderIterator<C,Conf> as core::iter::traits::iterator::Iterator>::next+0xb6>
/Users/Luppy/.cargo/registry/src/github.com-1ecc6299db9ec823/embedded-graphics-0.5.2/src/fonts/font_builder.rs:270
    }
  b6:	b04a      	add	sp, #296	; 0x128
  b8:	bd80      	pop	{r7, pc}
/Users/Luppy/.cargo/registry/src/github.com-1ecc6299db9ec823/embedded-graphics-0.5.2/src/fonts/font_builder.rs:207
        let char_per_row = Conf::FONT_IMAGE_WIDTH / Conf::CHAR_WIDTH;
  ba:	e7ff      	b.n	bc <<embedded_graphics::fonts::font_builder::FontBuilderIterator<C,Conf> as core::iter::traits::iterator::Iterator>::next+0xbc>
  bc:	2028      	movs	r0, #40	; 0x28
  be:	9033      	str	r0, [sp, #204]	; 0xcc
/Users/Luppy/.cargo/registry/src/github.com-1ecc6299db9ec823/embedded-graphics-0.5.2/src/fonts/font_builder.rs:209
        let pixel = loop {
  c0:	e7ff      	b.n	c2 <<embedded_graphics::fonts::font_builder::FontBuilderIterator<C,Conf> as core::iter::traits::iterator::Iterator>::next+0xc2>
/Users/Luppy/.cargo/registry/src/github.com-1ecc6299db9ec823/embedded-graphics-0.5.2/src/fonts/font_builder.rs:210
            if let Some(current_char) = self.current_char {
  c2:	9831      	ldr	r0, [sp, #196]	; 0xc4
  c4:	6880      	ldr	r0, [r0, #8]
  c6:	f5b0 1f88 	cmp.w	r0, #1114112	; 0x110000
  ca:	f000 81b0 	beq.w	42e <<embedded_graphics::fonts::font_builder::FontBuilderIterator<C,Conf> as core::iter::traits::iterator::Iterator>::next+0x42e>
  ce:	e7ff      	b.n	d0 <<embedded_graphics::fonts::font_builder::FontBuilderIterator<C,Conf> as core::iter::traits::iterator::Iterator>::next+0xd0>
  d0:	9831      	ldr	r0, [sp, #196]	; 0xc4
  d2:	6880      	ldr	r0, [r0, #8]
  d4:	9038      	str	r0, [sp, #224]	; 0xe0
/Users/Luppy/.cargo/registry/src/github.com-1ecc6299db9ec823/embedded-graphics-0.5.2/src/fonts/font_builder.rs:213
                let char_offset = Conf::char_offset(current_char);
  d6:	9838      	ldr	r0, [sp, #224]	; 0xe0
  d8:	f7ff fffe 	bl	0 <<embedded_graphics::fonts::font12x16::Font12x16Conf as embedded_graphics::fonts::font_builder::FontBuilderConf>::char_offset>
  dc:	9039      	str	r0, [sp, #228]	; 0xe4
  de:	e7ff      	b.n	e0 <<embedded_graphics::fonts::font_builder::FontBuilderIterator<C,Conf> as core::iter::traits::iterator::Iterator>::next+0xe0>
/Users/Luppy/.cargo/registry/src/github.com-1ecc6299db9ec823/embedded-graphics-0.5.2/src/fonts/font_builder.rs:214
                let row = char_offset / char_per_row;
  e0:	9839      	ldr	r0, [sp, #228]	; 0xe4
  e2:	9933      	ldr	r1, [sp, #204]	; 0xcc
  e4:	2900      	cmp	r1, #0
  e6:	9027      	str	r0, [sp, #156]	; 0x9c
  e8:	9126      	str	r1, [sp, #152]	; 0x98
  ea:	f000 81b8 	beq.w	45e <<embedded_graphics::fonts::font_builder::FontBuilderIterator<C,Conf> as core::iter::traits::iterator::Iterator>::next+0x45e>
  ee:	e7ff      	b.n	f0 <<embedded_graphics::fonts::font_builder::FontBuilderIterator<C,Conf> as core::iter::traits::iterator::Iterator>::next+0xf0>
  f0:	9827      	ldr	r0, [sp, #156]	; 0x9c
  f2:	9926      	ldr	r1, [sp, #152]	; 0x98
  f4:	fbb0 f2f1 	udiv	r2, r0, r1
  f8:	923a      	str	r2, [sp, #232]	; 0xe8
/Users/Luppy/.cargo/registry/src/github.com-1ecc6299db9ec823/embedded-graphics-0.5.2/src/fonts/font_builder.rs:217
                let char_x = (char_offset - (row * char_per_row)) * Conf::CHAR_WIDTH;
  fa:	9a39      	ldr	r2, [sp, #228]	; 0xe4
  fc:	9b3a      	ldr	r3, [sp, #232]	; 0xe8
  fe:	f8dd c0cc 	ldr.w	ip, [sp, #204]	; 0xcc
 102:	fba3 3c0c 	umull	r3, ip, r3, ip
 106:	f1bc 0f00 	cmp.w	ip, #0
 10a:	9225      	str	r2, [sp, #148]	; 0x94
 10c:	9324      	str	r3, [sp, #144]	; 0x90
 10e:	f040 81ad 	bne.w	46c <<embedded_graphics::fonts::font_builder::FontBuilderIterator<C,Conf> as core::iter::traits::iterator::Iterator>::next+0x46c>
 112:	e7ff      	b.n	114 <<embedded_graphics::fonts::font_builder::FontBuilderIterator<C,Conf> as core::iter::traits::iterator::Iterator>::next+0x114>
 114:	9825      	ldr	r0, [sp, #148]	; 0x94
 116:	9924      	ldr	r1, [sp, #144]	; 0x90
 118:	1a42      	subs	r2, r0, r1
 11a:	4288      	cmp	r0, r1
 11c:	9223      	str	r2, [sp, #140]	; 0x8c
 11e:	f0c0 81ac 	bcc.w	47a <<embedded_graphics::fonts::font_builder::FontBuilderIterator<C,Conf> as core::iter::traits::iterator::Iterator>::next+0x47a>
 122:	e7ff      	b.n	124 <<embedded_graphics::fonts::font_builder::FontBuilderIterator<C,Conf> as core::iter::traits::iterator::Iterator>::next+0x124>
 124:	200c      	movs	r0, #12
 126:	9923      	ldr	r1, [sp, #140]	; 0x8c
 128:	fba1 0200 	umull	r0, r2, r1, r0
 12c:	2a00      	cmp	r2, #0
 12e:	9022      	str	r0, [sp, #136]	; 0x88
 130:	f040 81aa 	bne.w	488 <<embedded_graphics::fonts::font_builder::FontBuilderIterator<C,Conf> as core::iter::traits::iterator::Iterator>::next+0x488>
 134:	e7ff      	b.n	136 <<embedded_graphics::fonts::font_builder::FontBuilderIterator<C,Conf> as core::iter::traits::iterator::Iterator>::next+0x136>
 136:	9822      	ldr	r0, [sp, #136]	; 0x88
 138:	903b      	str	r0, [sp, #236]	; 0xec
/Users/Luppy/.cargo/registry/src/github.com-1ecc6299db9ec823/embedded-graphics-0.5.2/src/fonts/font_builder.rs:218
                let char_y = row * Conf::CHAR_HEIGHT;
 13a:	993a      	ldr	r1, [sp, #232]	; 0xe8
 13c:	2210      	movs	r2, #16
 13e:	fba1 1202 	umull	r1, r2, r1, r2
 142:	2a00      	cmp	r2, #0
 144:	9121      	str	r1, [sp, #132]	; 0x84
 146:	f040 81a6 	bne.w	496 <<embedded_graphics::fonts::font_builder::FontBuilderIterator<C,Conf> as core::iter::traits::iterator::Iterator>::next+0x496>
 14a:	e7ff      	b.n	14c <<embedded_graphics::fonts::font_builder::FontBuilderIterator<C,Conf> as core::iter::traits::iterator::Iterator>::next+0x14c>
 14c:	9821      	ldr	r0, [sp, #132]	; 0x84
 14e:	903c      	str	r0, [sp, #240]	; 0xf0
/Users/Luppy/.cargo/registry/src/github.com-1ecc6299db9ec823/embedded-graphics-0.5.2/src/fonts/font_builder.rs:225
                let bitmap_bit_index = char_x
 150:	993b      	ldr	r1, [sp, #236]	; 0xec
/Users/Luppy/.cargo/registry/src/github.com-1ecc6299db9ec823/embedded-graphics-0.5.2/src/fonts/font_builder.rs:226
                    + (Conf::FONT_IMAGE_WIDTH * char_y)
 152:	9a3c      	ldr	r2, [sp, #240]	; 0xf0
 154:	f44f 73f0 	mov.w	r3, #480	; 0x1e0
 158:	fba3 2302 	umull	r2, r3, r3, r2
 15c:	2b00      	cmp	r3, #0
 15e:	9120      	str	r1, [sp, #128]	; 0x80
 160:	921f      	str	r2, [sp, #124]	; 0x7c
 162:	f040 819f 	bne.w	4a4 <<embedded_graphics::fonts::font_builder::FontBuilderIterator<C,Conf> as core::iter::traits::iterator::Iterator>::next+0x4a4>
 166:	e7ff      	b.n	168 <<embedded_graphics::fonts::font_builder::FontBuilderIterator<C,Conf> as core::iter::traits::iterator::Iterator>::next+0x168>
/Users/Luppy/.cargo/registry/src/github.com-1ecc6299db9ec823/embedded-graphics-0.5.2/src/fonts/font_builder.rs:225
                let bitmap_bit_index = char_x
 168:	9820      	ldr	r0, [sp, #128]	; 0x80
 16a:	991f      	ldr	r1, [sp, #124]	; 0x7c
 16c:	1842      	adds	r2, r0, r1
 16e:	4613      	mov	r3, r2
 170:	4282      	cmp	r2, r0
 172:	931e      	str	r3, [sp, #120]	; 0x78
 174:	f0c0 819d 	bcc.w	4b2 <<embedded_graphics::fonts::font_builder::FontBuilderIterator<C,Conf> as core::iter::traits::iterator::Iterator>::next+0x4b2>
 178:	e7ff      	b.n	17a <<embedded_graphics::fonts::font_builder::FontBuilderIterator<C,Conf> as core::iter::traits::iterator::Iterator>::next+0x17a>
/Users/Luppy/.cargo/registry/src/github.com-1ecc6299db9ec823/embedded-graphics-0.5.2/src/fonts/font_builder.rs:227
                    + self.char_walk_x
 17a:	9831      	ldr	r0, [sp, #196]	; 0xc4
 17c:	6800      	ldr	r0, [r0, #0]
/Users/Luppy/.cargo/registry/src/github.com-1ecc6299db9ec823/embedded-graphics-0.5.2/src/fonts/font_builder.rs:225
                let bitmap_bit_index = char_x
 17e:	991e      	ldr	r1, [sp, #120]	; 0x78
 180:	4408      	add	r0, r1
 182:	4602      	mov	r2, r0
 184:	4288      	cmp	r0, r1
 186:	921d      	str	r2, [sp, #116]	; 0x74
 188:	f0c0 819a 	bcc.w	4c0 <<embedded_graphics::fonts::font_builder::FontBuilderIterator<C,Conf> as core::iter::traits::iterator::Iterator>::next+0x4c0>
 18c:	e7ff      	b.n	18e <<embedded_graphics::fonts::font_builder::FontBuilderIterator<C,Conf> as core::iter::traits::iterator::Iterator>::next+0x18e>
/Users/Luppy/.cargo/registry/src/github.com-1ecc6299db9ec823/embedded-graphics-0.5.2/src/fonts/font_builder.rs:228
                    + (self.char_walk_y * Conf::FONT_IMAGE_WIDTH);
 18e:	9831      	ldr	r0, [sp, #196]	; 0xc4
 190:	6840      	ldr	r0, [r0, #4]
 192:	f44f 71f0 	mov.w	r1, #480	; 0x1e0
 196:	fba0 0101 	umull	r0, r1, r0, r1
 19a:	2900      	cmp	r1, #0
 19c:	901c      	str	r0, [sp, #112]	; 0x70
 19e:	f040 8196 	bne.w	4ce <<embedded_graphics::fonts::font_builder::FontBuilderIterator<C,Conf> as core::iter::traits::iterator::Iterator>::next+0x4ce>
 1a2:	e7ff      	b.n	1a4 <<embedded_graphics::fonts::font_builder::FontBuilderIterator<C,Conf> as core::iter::traits::iterator::Iterator>::next+0x1a4>
/Users/Luppy/.cargo/registry/src/github.com-1ecc6299db9ec823/embedded-graphics-0.5.2/src/fonts/font_builder.rs:225
                let bitmap_bit_index = char_x
 1a4:	981d      	ldr	r0, [sp, #116]	; 0x74
 1a6:	991c      	ldr	r1, [sp, #112]	; 0x70
 1a8:	1842      	adds	r2, r0, r1
 1aa:	4613      	mov	r3, r2
 1ac:	4282      	cmp	r2, r0
 1ae:	931b      	str	r3, [sp, #108]	; 0x6c
 1b0:	f0c0 8194 	bcc.w	4dc <<embedded_graphics::fonts::font_builder::FontBuilderIterator<C,Conf> as core::iter::traits::iterator::Iterator>::next+0x4dc>
 1b4:	e7ff      	b.n	1b6 <<embedded_graphics::fonts::font_builder::FontBuilderIterator<C,Conf> as core::iter::traits::iterator::Iterator>::next+0x1b6>
 1b6:	981b      	ldr	r0, [sp, #108]	; 0x6c
 1b8:	903d      	str	r0, [sp, #244]	; 0xf4
/Users/Luppy/.cargo/registry/src/github.com-1ecc6299db9ec823/embedded-graphics-0.5.2/src/fonts/font_builder.rs:230
                let bitmap_byte = bitmap_bit_index / 8;
 1ba:	993d      	ldr	r1, [sp, #244]	; 0xf4
 1bc:	911a      	str	r1, [sp, #104]	; 0x68
 1be:	e7ff      	b.n	1c0 <<embedded_graphics::fonts::font_builder::FontBuilderIterator<C,Conf> as core::iter::traits::iterator::Iterator>::next+0x1c0>
 1c0:	981a      	ldr	r0, [sp, #104]	; 0x68
 1c2:	08c1      	lsrs	r1, r0, #3
 1c4:	913e      	str	r1, [sp, #248]	; 0xf8
/Users/Luppy/.cargo/registry/src/github.com-1ecc6299db9ec823/embedded-graphics-0.5.2/src/fonts/font_builder.rs:231
                let bitmap_bit = 7 - (bitmap_bit_index % 8);
 1c6:	993d      	ldr	r1, [sp, #244]	; 0xf4
 1c8:	9119      	str	r1, [sp, #100]	; 0x64
 1ca:	e7ff      	b.n	1cc <<embedded_graphics::fonts::font_builder::FontBuilderIterator<C,Conf> as core::iter::traits::iterator::Iterator>::next+0x1cc>
 1cc:	9819      	ldr	r0, [sp, #100]	; 0x64
 1ce:	f000 0107 	and.w	r1, r0, #7
 1d2:	f1c1 0207 	rsb	r2, r1, #7
 1d6:	2307      	movs	r3, #7
 1d8:	428b      	cmp	r3, r1
 1da:	9218      	str	r2, [sp, #96]	; 0x60
 1dc:	f0c0 8185 	bcc.w	4ea <<embedded_graphics::fonts::font_builder::FontBuilderIterator<C,Conf> as core::iter::traits::iterator::Iterator>::next+0x4ea>
 1e0:	e7ff      	b.n	1e2 <<embedded_graphics::fonts::font_builder::FontBuilderIterator<C,Conf> as core::iter::traits::iterator::Iterator>::next+0x1e2>
 1e2:	9818      	ldr	r0, [sp, #96]	; 0x60
 1e4:	903f      	str	r0, [sp, #252]	; 0xfc
/Users/Luppy/.cargo/registry/src/github.com-1ecc6299db9ec823/embedded-graphics-0.5.2/src/fonts/font_builder.rs:233
                let color = if Conf::FONT_IMAGE[bitmap_byte as usize] & (1 << bitmap_bit) != 0 {
 1e6:	993e      	ldr	r1, [sp, #248]	; 0xf8
 1e8:	098a      	lsrs	r2, r1, #6
 1ea:	2a4a      	cmp	r2, #74	; 0x4a
 1ec:	9117      	str	r1, [sp, #92]	; 0x5c
 1ee:	f200 8183 	bhi.w	4f8 <<embedded_graphics::fonts::font_builder::FontBuilderIterator<C,Conf> as core::iter::traits::iterator::Iterator>::next+0x4f8>
 1f2:	e7ff      	b.n	2 <<embedded_graphics::fonts::font_builder::FontBuilderIterator<C,Conf> as core::iter::traits::iterator::Iterator>::next+0x2>
 1f4:	f240 0000 	movw	r0, #0
 1f8:	f2c0 0000 	movt	r0, #0
 1fc:	9917      	ldr	r1, [sp, #92]	; 0x5c
 1fe:	5c40      	ldrb	r0, [r0, r1]
 200:	9a3f      	ldr	r2, [sp, #252]	; 0xfc
 202:	f002 0307 	and.w	r3, r2, #7
 206:	f04f 0c01 	mov.w	ip, #1
 20a:	fa0c f303 	lsl.w	r3, ip, r3
 20e:	08d2      	lsrs	r2, r2, #3
 210:	2a00      	cmp	r2, #0
 212:	9016      	str	r0, [sp, #88]	; 0x58
 214:	9315      	str	r3, [sp, #84]	; 0x54
 216:	f040 8179 	bne.w	50c <<embedded_graphics::fonts::font_builder::FontBuilderIterator<C,Conf> as core::iter::traits::iterator::Iterator>::next+0x50c>
 21a:	e7ff      	b.n	21c <<embedded_graphics::fonts::font_builder::FontBuilderIterator<C,Conf> as core::iter::traits::iterator::Iterator>::next+0x21c>
 21c:	9816      	ldr	r0, [sp, #88]	; 0x58
 21e:	9915      	ldr	r1, [sp, #84]	; 0x54
 220:	ea00 0201 	and.w	r2, r0, r1
 224:	0612      	lsls	r2, r2, #24
 226:	2a00      	cmp	r2, #0
 228:	d019      	beq.n	25e <<embedded_graphics::fonts::font_builder::FontBuilderIterator<C,Conf> as core::iter::traits::iterator::Iterator>::next+0x25e>
 22a:	e7ff      	b.n	22c <<embedded_graphics::fonts::font_builder::FontBuilderIterator<C,Conf> as core::iter::traits::iterator::Iterator>::next+0x22c>
/Users/Luppy/.cargo/registry/src/github.com-1ecc6299db9ec823/embedded-graphics-0.5.2/src/fonts/font_builder.rs:234
                    Some(self.style.stroke_color.unwrap_or(1.into())) // white
 22c:	9831      	ldr	r0, [sp, #196]	; 0xc4
 22e:	8c81      	ldrh	r1, [r0, #36]	; 0x24
 230:	8cc0      	ldrh	r0, [r0, #38]	; 0x26
 232:	2201      	movs	r2, #1
 234:	9014      	str	r0, [sp, #80]	; 0x50
 236:	4610      	mov	r0, r2
 238:	9113      	str	r1, [sp, #76]	; 0x4c
 23a:	f7ff fffe 	bl	0 <<T as core::convert::Into<U>>::into>
 23e:	9012      	str	r0, [sp, #72]	; 0x48
 240:	e7ff      	b.n	242 <<embedded_graphics::fonts::font_builder::FontBuilderIterator<C,Conf> as core::iter::traits::iterator::Iterator>::next+0x242>
 242:	9813      	ldr	r0, [sp, #76]	; 0x4c
 244:	9914      	ldr	r1, [sp, #80]	; 0x50
 246:	9a12      	ldr	r2, [sp, #72]	; 0x48
 248:	f7ff fffe 	bl	0 <core::option::Option<T>::unwrap_or>
 24c:	9011      	str	r0, [sp, #68]	; 0x44
 24e:	e7ff      	b.n	250 <<embedded_graphics::fonts::font_builder::FontBuilderIterator<C,Conf> as core::iter::traits::iterator::Iterator>::next+0x250>
 250:	9811      	ldr	r0, [sp, #68]	; 0x44
 252:	f8ad 0102 	strh.w	r0, [sp, #258]	; 0x102
 256:	2101      	movs	r1, #1
 258:	f8ad 1100 	strh.w	r1, [sp, #256]	; 0x100
/Users/Luppy/.cargo/registry/src/github.com-1ecc6299db9ec823/embedded-graphics-0.5.2/src/fonts/font_builder.rs:233
                let color = if Conf::FONT_IMAGE[bitmap_byte as usize] & (1 << bitmap_bit) != 0 {
 25c:	e007      	b.n	26e <<embedded_graphics::fonts::font_builder::FontBuilderIterator<C,Conf> as core::iter::traits::iterator::Iterator>::next+0x26e>
/Users/Luppy/.cargo/registry/src/github.com-1ecc6299db9ec823/embedded-graphics-0.5.2/src/fonts/font_builder.rs:236
                    self.style.fill_color
 25e:	9831      	ldr	r0, [sp, #196]	; 0xc4
 260:	8c01      	ldrh	r1, [r0, #32]
 262:	8c40      	ldrh	r0, [r0, #34]	; 0x22
 264:	f8ad 1100 	strh.w	r1, [sp, #256]	; 0x100
 268:	f8ad 0102 	strh.w	r0, [sp, #258]	; 0x102
/Users/Luppy/.cargo/registry/src/github.com-1ecc6299db9ec823/embedded-graphics-0.5.2/src/fonts/font_builder.rs:233
                let color = if Conf::FONT_IMAGE[bitmap_byte as usize] & (1 << bitmap_bit) != 0 {
 26c:	e7ff      	b.n	26e <<embedded_graphics::fonts::font_builder::FontBuilderIterator<C,Conf> as core::iter::traits::iterator::Iterator>::next+0x26e>
/Users/Luppy/.cargo/registry/src/github.com-1ecc6299db9ec823/embedded-graphics-0.5.2/src/fonts/font_builder.rs:239
                let x = self.pos[0]
 26e:	9831      	ldr	r0, [sp, #196]	; 0xc4
 270:	3010      	adds	r0, #16
 272:	2100      	movs	r1, #0
 274:	f7ff fffe 	bl	0 <<embedded_graphics::coord::internal_coord::Coord as core::ops::index::Index<usize>>::index>
 278:	9010      	str	r0, [sp, #64]	; 0x40
 27a:	e7ff      	b.n	27c <<embedded_graphics::fonts::font_builder::FontBuilderIterator<C,Conf> as core::iter::traits::iterator::Iterator>::next+0x27c>
 27c:	9810      	ldr	r0, [sp, #64]	; 0x40
 27e:	6801      	ldr	r1, [r0, #0]
/Users/Luppy/.cargo/registry/src/github.com-1ecc6299db9ec823/embedded-graphics-0.5.2/src/fonts/font_builder.rs:240
                    + (Conf::CHAR_WIDTH * self.idx as u32) as i32
 280:	9a31      	ldr	r2, [sp, #196]	; 0xc4
 282:	68d2      	ldr	r2, [r2, #12]
 284:	230c      	movs	r3, #12
 286:	fba3 2302 	umull	r2, r3, r3, r2
 28a:	2b00      	cmp	r3, #0
 28c:	910f      	str	r1, [sp, #60]	; 0x3c
 28e:	920e      	str	r2, [sp, #56]	; 0x38
 290:	f040 8143 	bne.w	51a <<embedded_graphics::fonts::font_builder::FontBuilderIterator<C,Conf> as core::iter::traits::iterator::Iterator>::next+0x51a>
 294:	e7ff      	b.n	296 <<embedded_graphics::fonts::font_builder::FontBuilderIterator<C,Conf> as core::iter::traits::iterator::Iterator>::next+0x296>
/Users/Luppy/.cargo/registry/src/github.com-1ecc6299db9ec823/embedded-graphics-0.5.2/src/fonts/font_builder.rs:239
                let x = self.pos[0]
 296:	980f      	ldr	r0, [sp, #60]	; 0x3c
 298:	990e      	ldr	r1, [sp, #56]	; 0x38
 29a:	1842      	adds	r2, r0, r1
 29c:	4613      	mov	r3, r2
 29e:	4282      	cmp	r2, r0
 2a0:	930d      	str	r3, [sp, #52]	; 0x34
 2a2:	f180 8141 	bvs.w	528 <<embedded_graphics::fonts::font_builder::FontBuilderIterator<C,Conf> as core::iter::traits::iterator::Iterator>::next+0x528>
 2a6:	e7ff      	b.n	2a8 <<embedded_graphics::fonts::font_builder::FontBuilderIterator<C,Conf> as core::iter::traits::iterator::Iterator>::next+0x2a8>
/Users/Luppy/.cargo/registry/src/github.com-1ecc6299db9ec823/embedded-graphics-0.5.2/src/fonts/font_builder.rs:241
                    + self.char_walk_x as i32;
 2a8:	9831      	ldr	r0, [sp, #196]	; 0xc4
 2aa:	6800      	ldr	r0, [r0, #0]
/Users/Luppy/.cargo/registry/src/github.com-1ecc6299db9ec823/embedded-graphics-0.5.2/src/fonts/font_builder.rs:239
                let x = self.pos[0]
 2ac:	990d      	ldr	r1, [sp, #52]	; 0x34
 2ae:	4408      	add	r0, r1
 2b0:	4602      	mov	r2, r0
 2b2:	4288      	cmp	r0, r1
 2b4:	920c      	str	r2, [sp, #48]	; 0x30
 2b6:	f180 813e 	bvs.w	536 <<embedded_graphics::fonts::font_builder::FontBuilderIterator<C,Conf> as core::iter::traits::iterator::Iterator>::next+0x536>
 2ba:	e7ff      	b.n	2bc <<embedded_graphics::fonts::font_builder::FontBuilderIterator<C,Conf> as core::iter::traits::iterator::Iterator>::next+0x2bc>
 2bc:	980c      	ldr	r0, [sp, #48]	; 0x30
 2be:	9041      	str	r0, [sp, #260]	; 0x104
/Users/Luppy/.cargo/registry/src/github.com-1ecc6299db9ec823/embedded-graphics-0.5.2/src/fonts/font_builder.rs:242
                let y = self.pos[1] + self.char_walk_y as i32;
 2c0:	9931      	ldr	r1, [sp, #196]	; 0xc4
 2c2:	f101 0010 	add.w	r0, r1, #16
 2c6:	2101      	movs	r1, #1
 2c8:	f7ff fffe 	bl	0 <<embedded_graphics::coord::internal_coord::Coord as core::ops::index::Index<usize>>::index>
 2cc:	900b      	str	r0, [sp, #44]	; 0x2c
 2ce:	e7ff      	b.n	2d0 <<embedded_graphics::fonts::font_builder::FontBuilderIterator<C,Conf> as core::iter::traits::iterator::Iterator>::next+0x2d0>
 2d0:	980b      	ldr	r0, [sp, #44]	; 0x2c
 2d2:	6801      	ldr	r1, [r0, #0]
 2d4:	9a31      	ldr	r2, [sp, #196]	; 0xc4
 2d6:	6852      	ldr	r2, [r2, #4]
 2d8:	440a      	add	r2, r1
 2da:	4613      	mov	r3, r2
 2dc:	428a      	cmp	r2, r1
 2de:	930a      	str	r3, [sp, #40]	; 0x28
 2e0:	f180 8130 	bvs.w	544 <<embedded_graphics::fonts::font_builder::FontBuilderIterator<C,Conf> as core::iter::traits::iterator::Iterator>::next+0x544>
 2e4:	e7ff      	b.n	2e6 <<embedded_graphics::fonts::font_builder::FontBuilderIterator<C,Conf> as core::iter::traits::iterator::Iterator>::next+0x2e6>
 2e6:	980a      	ldr	r0, [sp, #40]	; 0x28
 2e8:	9042      	str	r0, [sp, #264]	; 0x108
/Users/Luppy/.cargo/registry/src/github.com-1ecc6299db9ec823/embedded-graphics-0.5.2/src/fonts/font_builder.rs:244
                self.char_walk_x += 1;
 2ea:	9931      	ldr	r1, [sp, #196]	; 0xc4
 2ec:	6809      	ldr	r1, [r1, #0]
 2ee:	1c4a      	adds	r2, r1, #1
 2f0:	4613      	mov	r3, r2
 2f2:	428a      	cmp	r2, r1
 2f4:	9309      	str	r3, [sp, #36]	; 0x24
 2f6:	f0c0 812c 	bcc.w	552 <<embedded_graphics::fonts::font_builder::FontBuilderIterator<C,Conf> as core::iter::traits::iterator::Iterator>::next+0x552>
 2fa:	e7ff      	b.n	2fc <<embedded_graphics::fonts::font_builder::FontBuilderIterator<C,Conf> as core::iter::traits::iterator::Iterator>::next+0x2fc>
 2fc:	9831      	ldr	r0, [sp, #196]	; 0xc4
 2fe:	9909      	ldr	r1, [sp, #36]	; 0x24
 300:	6001      	str	r1, [r0, #0]
/Users/Luppy/.cargo/registry/src/github.com-1ecc6299db9ec823/embedded-graphics-0.5.2/src/fonts/font_builder.rs:246
                if self.char_walk_x >= Conf::CHAR_WIDTH {
 302:	9831      	ldr	r0, [sp, #196]	; 0xc4
 304:	6800      	ldr	r0, [r0, #0]
 306:	280c      	cmp	r0, #12
 308:	d33e      	bcc.n	388 <<embedded_graphics::fonts::font_builder::FontBuilderIterator<C,Conf> as core::iter::traits::iterator::Iterator>::next+0x388>
 30a:	e7ff      	b.n	30c <<embedded_graphics::fonts::font_builder::FontBuilderIterator<C,Conf> as core::iter::traits::iterator::Iterator>::next+0x30c>
/Users/Luppy/.cargo/registry/src/github.com-1ecc6299db9ec823/embedded-graphics-0.5.2/src/fonts/font_builder.rs:247
                    self.char_walk_x = 0;
 30c:	9831      	ldr	r0, [sp, #196]	; 0xc4
 30e:	2100      	movs	r1, #0
 310:	6001      	str	r1, [r0, #0]
/Users/Luppy/.cargo/registry/src/github.com-1ecc6299db9ec823/embedded-graphics-0.5.2/src/fonts/font_builder.rs:248
                    self.char_walk_y += 1;
 312:	9831      	ldr	r0, [sp, #196]	; 0xc4
 314:	6840      	ldr	r0, [r0, #4]
 316:	1c41      	adds	r1, r0, #1
 318:	460a      	mov	r2, r1
 31a:	4281      	cmp	r1, r0
 31c:	9208      	str	r2, [sp, #32]
 31e:	f0c0 811f 	bcc.w	560 <<embedded_graphics::fonts::font_builder::FontBuilderIterator<C,Conf> as core::iter::traits::iterator::Iterator>::next+0x560>
 322:	e7ff      	b.n	324 <<embedded_graphics::fonts::font_builder::FontBuilderIterator<C,Conf> as core::iter::traits::iterator::Iterator>::next+0x324>
 324:	9831      	ldr	r0, [sp, #196]	; 0xc4
 326:	9908      	ldr	r1, [sp, #32]
 328:	6041      	str	r1, [r0, #4]
/Users/Luppy/.cargo/registry/src/github.com-1ecc6299db9ec823/embedded-graphics-0.5.2/src/fonts/font_builder.rs:251
                    if self.char_walk_y >= Conf::CHAR_HEIGHT {
 32a:	9831      	ldr	r0, [sp, #196]	; 0xc4
 32c:	6840      	ldr	r0, [r0, #4]
 32e:	2810      	cmp	r0, #16
 330:	d329      	bcc.n	386 <<embedded_graphics::fonts::font_builder::FontBuilderIterator<C,Conf> as core::iter::traits::iterator::Iterator>::next+0x386>
 332:	e7ff      	b.n	334 <<embedded_graphics::fonts::font_builder::FontBuilderIterator<C,Conf> as core::iter::traits::iterator::Iterator>::next+0x334>
/Users/Luppy/.cargo/registry/src/github.com-1ecc6299db9ec823/embedded-graphics-0.5.2/src/fonts/font_builder.rs:252
                        self.char_walk_y = 0;
 334:	9831      	ldr	r0, [sp, #196]	; 0xc4
 336:	2100      	movs	r1, #0
 338:	6041      	str	r1, [r0, #4]
/Users/Luppy/.cargo/registry/src/github.com-1ecc6299db9ec823/embedded-graphics-0.5.2/src/fonts/font_builder.rs:253
                        self.idx += 1;
 33a:	9831      	ldr	r0, [sp, #196]	; 0xc4
 33c:	68c0      	ldr	r0, [r0, #12]
 33e:	1c41      	adds	r1, r0, #1
 340:	460a      	mov	r2, r1
 342:	4281      	cmp	r1, r0
 344:	9207      	str	r2, [sp, #28]
 346:	f0c0 8112 	bcc.w	56e <<embedded_graphics::fonts::font_builder::FontBuilderIterator<C,Conf> as core::iter::traits::iterator::Iterator>::next+0x56e>
 34a:	e7ff      	b.n	34c <<embedded_graphics::fonts::font_builder::FontBuilderIterator<C,Conf> as core::iter::traits::iterator::Iterator>::next+0x34c>
 34c:	9831      	ldr	r0, [sp, #196]	; 0xc4
 34e:	9907      	ldr	r1, [sp, #28]
 350:	60c1      	str	r1, [r0, #12]
/Users/Luppy/.cargo/registry/src/github.com-1ecc6299db9ec823/embedded-graphics-0.5.2/src/fonts/font_builder.rs:254
                        self.current_char = self.text.chars().skip(self.idx).next();
 352:	9831      	ldr	r0, [sp, #196]	; 0xc4
 354:	6982      	ldr	r2, [r0, #24]
 356:	69c1      	ldr	r1, [r0, #28]
 358:	4610      	mov	r0, r2
 35a:	f7ff fffe 	bl	0 <core::str::<impl str>::chars>
 35e:	9006      	str	r0, [sp, #24]
 360:	9105      	str	r1, [sp, #20]
 362:	e7ff      	b.n	364 <<embedded_graphics::fonts::font_builder::FontBuilderIterator<C,Conf> as core::iter::traits::iterator::Iterator>::next+0x364>
 364:	9831      	ldr	r0, [sp, #196]	; 0xc4
 366:	68c3      	ldr	r3, [r0, #12]
 368:	a843      	add	r0, sp, #268	; 0x10c
 36a:	9906      	ldr	r1, [sp, #24]
 36c:	9a05      	ldr	r2, [sp, #20]
 36e:	f7ff fffe 	bl	0 <core::iter::traits::iterator::Iterator::skip>
 372:	e7ff      	b.n	374 <<embedded_graphics::fonts::font_builder::FontBuilderIterator<C,Conf> as core::iter::traits::iterator::Iterator>::next+0x374>
 374:	a843      	add	r0, sp, #268	; 0x10c
 376:	f7ff fffe 	bl	0 <<core::iter::adapters::Skip<I> as core::iter::traits::iterator::Iterator>::next>
 37a:	9004      	str	r0, [sp, #16]
 37c:	e7ff      	b.n	37e <<embedded_graphics::fonts::font_builder::FontBuilderIterator<C,Conf> as core::iter::traits::iterator::Iterator>::next+0x37e>
 37e:	9831      	ldr	r0, [sp, #196]	; 0xc4
 380:	9904      	ldr	r1, [sp, #16]
 382:	6081      	str	r1, [r0, #8]
/Users/Luppy/.cargo/registry/src/github.com-1ecc6299db9ec823/embedded-graphics-0.5.2/src/fonts/font_builder.rs:251
                    if self.char_walk_y >= Conf::CHAR_HEIGHT {
 384:	e7ff      	b.n	386 <<embedded_graphics::fonts::font_builder::FontBuilderIterator<C,Conf> as core::iter::traits::iterator::Iterator>::next+0x386>
/Users/Luppy/.cargo/registry/src/github.com-1ecc6299db9ec823/embedded-graphics-0.5.2/src/fonts/font_builder.rs:246
                if self.char_walk_x >= Conf::CHAR_WIDTH {
 386:	e7ff      	b.n	388 <<embedded_graphics::fonts::font_builder::FontBuilderIterator<C,Conf> as core::iter::traits::iterator::Iterator>::next+0x388>
/Users/Luppy/.cargo/registry/src/github.com-1ecc6299db9ec823/embedded-graphics-0.5.2/src/fonts/font_builder.rs:259
                if let Some(color) = color {
 388:	f8bd 0100 	ldrh.w	r0, [sp, #256]	; 0x100
 38c:	2801      	cmp	r0, #1
 38e:	d14d      	bne.n	42c <<embedded_graphics::fonts::font_builder::FontBuilderIterator<C,Conf> as core::iter::traits::iterator::Iterator>::next+0x42c>
 390:	e7ff      	b.n	392 <<embedded_graphics::fonts::font_builder::FontBuilderIterator<C,Conf> as core::iter::traits::iterator::Iterator>::next+0x392>
 392:	f8bd 0102 	ldrh.w	r0, [sp, #258]	; 0x102
 396:	f8ad 0118 	strh.w	r0, [sp, #280]	; 0x118
/Users/Luppy/.cargo/registry/src/github.com-1ecc6299db9ec823/embedded-graphics-0.5.2/src/fonts/font_builder.rs:260
                    if x >= 0 && y >= 0 {
 39a:	9841      	ldr	r0, [sp, #260]	; 0x104
 39c:	f1b0 3fff 	cmp.w	r0, #4294967295	; 0xffffffff
 3a0:	dc04      	bgt.n	3ac <<embedded_graphics::fonts::font_builder::FontBuilderIterator<C,Conf> as core::iter::traits::iterator::Iterator>::next+0x3ac>
 3a2:	e7ff      	b.n	3a4 <<embedded_graphics::fonts::font_builder::FontBuilderIterator<C,Conf> as core::iter::traits::iterator::Iterator>::next+0x3a4>
 3a4:	2000      	movs	r0, #0
 3a6:	f88d 011b 	strb.w	r0, [sp, #283]	; 0x11b
 3aa:	e008      	b.n	3be <<embedded_graphics::fonts::font_builder::FontBuilderIterator<C,Conf> as core::iter::traits::iterator::Iterator>::next+0x3be>
 3ac:	9842      	ldr	r0, [sp, #264]	; 0x108
 3ae:	2100      	movs	r1, #0
 3b0:	f1b0 3fff 	cmp.w	r0, #4294967295	; 0xffffffff
 3b4:	bfc8      	it	gt
 3b6:	2101      	movgt	r1, #1
 3b8:	f88d 111b 	strb.w	r1, [sp, #283]	; 0x11b
 3bc:	e7ff      	b.n	3be <<embedded_graphics::fonts::font_builder::FontBuilderIterator<C,Conf> as core::iter::traits::iterator::Iterator>::next+0x3be>
 3be:	f89d 011b 	ldrb.w	r0, [sp, #283]	; 0x11b
 3c2:	07c0      	lsls	r0, r0, #31
 3c4:	2800      	cmp	r0, #0
 3c6:	d030      	beq.n	42a <<embedded_graphics::fonts::font_builder::FontBuilderIterator<C,Conf> as core::iter::traits::iterator::Iterator>::next+0x42a>
 3c8:	e7ff      	b.n	3ca <<embedded_graphics::fonts::font_builder::FontBuilderIterator<C,Conf> as core::iter::traits::iterator::Iterator>::next+0x3ca>
/Users/Luppy/.cargo/registry/src/github.com-1ecc6299db9ec823/embedded-graphics-0.5.2/src/fonts/font_builder.rs:261
                        break Some(Pixel(Coord::new(x, y).to_unsigned(), color));
 3ca:	9841      	ldr	r0, [sp, #260]	; 0x104
 3cc:	9942      	ldr	r1, [sp, #264]	; 0x108
 3ce:	f7ff fffe 	bl	0 <embedded_graphics::coord::internal_coord::Coord::new>
 3d2:	9003      	str	r0, [sp, #12]
 3d4:	9102      	str	r1, [sp, #8]
 3d6:	e7ff      	b.n	3d8 <<embedded_graphics::fonts::font_builder::FontBuilderIterator<C,Conf> as core::iter::traits::iterator::Iterator>::next+0x3d8>
 3d8:	9803      	ldr	r0, [sp, #12]
 3da:	9902      	ldr	r1, [sp, #8]
 3dc:	f7ff fffe 	bl	0 <<embedded_graphics::coord::internal_coord::Coord as embedded_graphics::coord::ToUnsigned>::to_unsigned>
 3e0:	9001      	str	r0, [sp, #4]
 3e2:	9100      	str	r1, [sp, #0]
 3e4:	e7ff      	b.n	3e6 <<embedded_graphics::fonts::font_builder::FontBuilderIterator<C,Conf> as core::iter::traits::iterator::Iterator>::next+0x3e6>
 3e6:	f8bd 0118 	ldrh.w	r0, [sp, #280]	; 0x118
 3ea:	9901      	ldr	r1, [sp, #4]
 3ec:	9147      	str	r1, [sp, #284]	; 0x11c
 3ee:	9a00      	ldr	r2, [sp, #0]
 3f0:	9248      	str	r2, [sp, #288]	; 0x120
 3f2:	f8ad 0124 	strh.w	r0, [sp, #292]	; 0x124
 3f6:	9847      	ldr	r0, [sp, #284]	; 0x11c
 3f8:	9b48      	ldr	r3, [sp, #288]	; 0x120
 3fa:	f8dd c124 	ldr.w	ip, [sp, #292]	; 0x124
 3fe:	f8cd c0dc 	str.w	ip, [sp, #220]	; 0xdc
 402:	9336      	str	r3, [sp, #216]	; 0xd8
 404:	9035      	str	r0, [sp, #212]	; 0xd4
 406:	2001      	movs	r0, #1
 408:	9034      	str	r0, [sp, #208]	; 0xd0
 40a:	e7ff      	b.n	40c <<embedded_graphics::fonts::font_builder::FontBuilderIterator<C,Conf> as core::iter::traits::iterator::Iterator>::next+0x40c>
/Users/Luppy/.cargo/registry/src/github.com-1ecc6299db9ec823/embedded-graphics-0.5.2/src/fonts/font_builder.rs:269
        pixel
 40c:	9834      	ldr	r0, [sp, #208]	; 0xd0
 40e:	9935      	ldr	r1, [sp, #212]	; 0xd4
 410:	9a36      	ldr	r2, [sp, #216]	; 0xd8
 412:	9b37      	ldr	r3, [sp, #220]	; 0xdc
 414:	f8dd c0c0 	ldr.w	ip, [sp, #192]	; 0xc0
 418:	f8cc 300c 	str.w	r3, [ip, #12]
 41c:	f8cc 2008 	str.w	r2, [ip, #8]
 420:	f8cc 1004 	str.w	r1, [ip, #4]
 424:	f8cc 0000 	str.w	r0, [ip]
/Users/Luppy/.cargo/registry/src/github.com-1ecc6299db9ec823/embedded-graphics-0.5.2/src/fonts/font_builder.rs:270
    }
 428:	e645      	b.n	b6 <<embedded_graphics::fonts::font_builder::FontBuilderIterator<C,Conf> as core::iter::traits::iterator::Iterator>::next+0xb6>
/Users/Luppy/.cargo/registry/src/github.com-1ecc6299db9ec823/embedded-graphics-0.5.2/src/fonts/font_builder.rs:259
                if let Some(color) = color {
 42a:	e7ff      	b.n	42c <<embedded_graphics::fonts::font_builder::FontBuilderIterator<C,Conf> as core::iter::traits::iterator::Iterator>::next+0x42c>
/Users/Luppy/.cargo/registry/src/github.com-1ecc6299db9ec823/embedded-graphics-0.5.2/src/fonts/font_builder.rs:209
        let pixel = loop {
 42c:	e649      	b.n	c2 <<embedded_graphics::fonts::font_builder::FontBuilderIterator<C,Conf> as core::iter::traits::iterator::Iterator>::next+0xc2>
 42e:	2000      	movs	r0, #0
/Users/Luppy/.cargo/registry/src/github.com-1ecc6299db9ec823/embedded-graphics-0.5.2/src/fonts/font_builder.rs:265
                break None;
 430:	9034      	str	r0, [sp, #208]	; 0xd0
 432:	e7eb      	b.n	40c <<embedded_graphics::fonts::font_builder::FontBuilderIterator<C,Conf> as core::iter::traits::iterator::Iterator>::next+0x40c>
/Users/Luppy/.cargo/registry/src/github.com-1ecc6299db9ec823/embedded-graphics-0.5.2/src/fonts/font_builder.rs:201
        if self.pos[0] + (self.text.len() as i32 * Conf::CHAR_WIDTH as i32) <= 0
 434:	f240 0000 	movw	r0, #0
 438:	f2c0 0000 	movt	r0, #0
 43c:	f7ff fffe 	bl	0 <core::panicking::panic>
 440:	defe      	udf	#254	; 0xfe
 442:	f240 0000 	movw	r0, #0
 446:	f2c0 0000 	movt	r0, #0
 44a:	f7ff fffe 	bl	0 <core::panicking::panic>
 44e:	defe      	udf	#254	; 0xfe
/Users/Luppy/.cargo/registry/src/github.com-1ecc6299db9ec823/embedded-graphics-0.5.2/src/fonts/font_builder.rs:202
            || self.pos[1] + (Conf::CHAR_HEIGHT as i32) <= 0
 450:	f240 0000 	movw	r0, #0
 454:	f2c0 0000 	movt	r0, #0
 458:	f7ff fffe 	bl	0 <core::panicking::panic>
 45c:	defe      	udf	#254	; 0xfe
/Users/Luppy/.cargo/registry/src/github.com-1ecc6299db9ec823/embedded-graphics-0.5.2/src/fonts/font_builder.rs:214
                let row = char_offset / char_per_row;
 45e:	f240 0000 	movw	r0, #0
 462:	f2c0 0000 	movt	r0, #0
 466:	f7ff fffe 	bl	0 <core::panicking::panic>
 46a:	defe      	udf	#254	; 0xfe
/Users/Luppy/.cargo/registry/src/github.com-1ecc6299db9ec823/embedded-graphics-0.5.2/src/fonts/font_builder.rs:217
                let char_x = (char_offset - (row * char_per_row)) * Conf::CHAR_WIDTH;
 46c:	f240 0000 	movw	r0, #0
 470:	f2c0 0000 	movt	r0, #0
 474:	f7ff fffe 	bl	0 <core::panicking::panic>
 478:	defe      	udf	#254	; 0xfe
 47a:	f240 0000 	movw	r0, #0
 47e:	f2c0 0000 	movt	r0, #0
 482:	f7ff fffe 	bl	0 <core::panicking::panic>
 486:	defe      	udf	#254	; 0xfe
 488:	f240 0000 	movw	r0, #0
 48c:	f2c0 0000 	movt	r0, #0
 490:	f7ff fffe 	bl	0 <core::panicking::panic>
 494:	defe      	udf	#254	; 0xfe
/Users/Luppy/.cargo/registry/src/github.com-1ecc6299db9ec823/embedded-graphics-0.5.2/src/fonts/font_builder.rs:218
                let char_y = row * Conf::CHAR_HEIGHT;
 496:	f240 0000 	movw	r0, #0
 49a:	f2c0 0000 	movt	r0, #0
 49e:	f7ff fffe 	bl	0 <core::panicking::panic>
 4a2:	defe      	udf	#254	; 0xfe
/Users/Luppy/.cargo/registry/src/github.com-1ecc6299db9ec823/embedded-graphics-0.5.2/src/fonts/font_builder.rs:226
                    + (Conf::FONT_IMAGE_WIDTH * char_y)
 4a4:	f240 0000 	movw	r0, #0
 4a8:	f2c0 0000 	movt	r0, #0
 4ac:	f7ff fffe 	bl	0 <core::panicking::panic>
 4b0:	defe      	udf	#254	; 0xfe
/Users/Luppy/.cargo/registry/src/github.com-1ecc6299db9ec823/embedded-graphics-0.5.2/src/fonts/font_builder.rs:225
                let bitmap_bit_index = char_x
 4b2:	f240 0000 	movw	r0, #0
 4b6:	f2c0 0000 	movt	r0, #0
 4ba:	f7ff fffe 	bl	0 <core::panicking::panic>
 4be:	defe      	udf	#254	; 0xfe
 4c0:	f240 0000 	movw	r0, #0
 4c4:	f2c0 0000 	movt	r0, #0
 4c8:	f7ff fffe 	bl	0 <core::panicking::panic>
 4cc:	defe      	udf	#254	; 0xfe
/Users/Luppy/.cargo/registry/src/github.com-1ecc6299db9ec823/embedded-graphics-0.5.2/src/fonts/font_builder.rs:228
                    + (self.char_walk_y * Conf::FONT_IMAGE_WIDTH);
 4ce:	f240 0000 	movw	r0, #0
 4d2:	f2c0 0000 	movt	r0, #0
 4d6:	f7ff fffe 	bl	0 <core::panicking::panic>
 4da:	defe      	udf	#254	; 0xfe
/Users/Luppy/.cargo/registry/src/github.com-1ecc6299db9ec823/embedded-graphics-0.5.2/src/fonts/font_builder.rs:225
                let bitmap_bit_index = char_x
 4dc:	f240 0000 	movw	r0, #0
 4e0:	f2c0 0000 	movt	r0, #0
 4e4:	f7ff fffe 	bl	0 <core::panicking::panic>
 4e8:	defe      	udf	#254	; 0xfe
/Users/Luppy/.cargo/registry/src/github.com-1ecc6299db9ec823/embedded-graphics-0.5.2/src/fonts/font_builder.rs:231
                let bitmap_bit = 7 - (bitmap_bit_index % 8);
 4ea:	f240 0000 	movw	r0, #0
 4ee:	f2c0 0000 	movt	r0, #0
 4f2:	f7ff fffe 	bl	0 <core::panicking::panic>
 4f6:	defe      	udf	#254	; 0xfe
/Users/Luppy/.cargo/registry/src/github.com-1ecc6299db9ec823/embedded-graphics-0.5.2/src/fonts/font_builder.rs:233
                let color = if Conf::FONT_IMAGE[bitmap_byte as usize] & (1 << bitmap_bit) != 0 {
 4f8:	f240 0000 	movw	r0, #0
 4fc:	f2c0 0000 	movt	r0, #0
 500:	f44f 5296 	mov.w	r2, #4800	; 0x12c0
 504:	9917      	ldr	r1, [sp, #92]	; 0x5c
 506:	f7ff fffe 	bl	0 <core::panicking::panic_bounds_check>
 50a:	defe      	udf	#254	; 0xfe
 50c:	f240 0000 	movw	r0, #0
 510:	f2c0 0000 	movt	r0, #0
 514:	f7ff fffe 	bl	0 <core::panicking::panic>
 518:	defe      	udf	#254	; 0xfe
/Users/Luppy/.cargo/registry/src/github.com-1ecc6299db9ec823/embedded-graphics-0.5.2/src/fonts/font_builder.rs:240
                    + (Conf::CHAR_WIDTH * self.idx as u32) as i32
 51a:	f240 0000 	movw	r0, #0
 51e:	f2c0 0000 	movt	r0, #0
 522:	f7ff fffe 	bl	0 <core::panicking::panic>
 526:	defe      	udf	#254	; 0xfe
/Users/Luppy/.cargo/registry/src/github.com-1ecc6299db9ec823/embedded-graphics-0.5.2/src/fonts/font_builder.rs:239
                let x = self.pos[0]
 528:	f240 0000 	movw	r0, #0
 52c:	f2c0 0000 	movt	r0, #0
 530:	f7ff fffe 	bl	0 <core::panicking::panic>
 534:	defe      	udf	#254	; 0xfe
 536:	f240 0000 	movw	r0, #0
 53a:	f2c0 0000 	movt	r0, #0
 53e:	f7ff fffe 	bl	0 <core::panicking::panic>
 542:	defe      	udf	#254	; 0xfe
/Users/Luppy/.cargo/registry/src/github.com-1ecc6299db9ec823/embedded-graphics-0.5.2/src/fonts/font_builder.rs:242
                let y = self.pos[1] + self.char_walk_y as i32;
 544:	f240 0000 	movw	r0, #0
 548:	f2c0 0000 	movt	r0, #0
 54c:	f7ff fffe 	bl	0 <core::panicking::panic>
 550:	defe      	udf	#254	; 0xfe
/Users/Luppy/.cargo/registry/src/github.com-1ecc6299db9ec823/embedded-graphics-0.5.2/src/fonts/font_builder.rs:244
                self.char_walk_x += 1;
 552:	f240 0000 	movw	r0, #0
 556:	f2c0 0000 	movt	r0, #0
 55a:	f7ff fffe 	bl	0 <core::panicking::panic>
 55e:	defe      	udf	#254	; 0xfe
/Users/Luppy/.cargo/registry/src/github.com-1ecc6299db9ec823/embedded-graphics-0.5.2/src/fonts/font_builder.rs:248
                    self.char_walk_y += 1;
 560:	f240 0000 	movw	r0, #0
 564:	f2c0 0000 	movt	r0, #0
 568:	f7ff fffe 	bl	0 <core::panicking::panic>
 56c:	defe      	udf	#254	; 0xfe
/Users/Luppy/.cargo/registry/src/github.com-1ecc6299db9ec823/embedded-graphics-0.5.2/src/fonts/font_builder.rs:253
                        self.idx += 1;
 56e:	f240 0000 	movw	r0, #0
 572:	f2c0 0000 	movt	r0, #0
 576:	f7ff fffe 	bl	0 <core::panicking::panic>
 57a:	defe      	udf	#254	; 0xfe

app-b8434b356de0ea5d.24yo3mxsoqcxh0en.rcgu.o:     file format elf32-littlearm

SYMBOL TABLE:
00000000 l    df *ABS*	00000000 24yo3mxsoqcxh0en
0000012c l       .debug_str	00000000 
00000000 l       .debug_str	00000000 
00000041 l       .debug_str	00000000 
00000055 l       .debug_str	00000000 
00000085 l       .debug_str	00000000 
00000090 l       .debug_str	00000000 
00000095 l       .debug_str	00000000 
0000009e l       .debug_str	00000000 
000000f3 l       .debug_str	00000000 
00000131 l       .debug_str	00000000 
000000f9 l       .debug_str	00000000 
000000fe l       .debug_str	00000000 
00000105 l       .debug_str	00000000 
00000108 l       .debug_str	00000000 
0000010d l       .debug_str	00000000 
0000010f l       .debug_str	00000000 
00000114 l       .debug_str	00000000 
00000118 l       .debug_str	00000000 
00000123 l       .debug_str	00000000 
00000128 l       .debug_str	00000000 
00000000 l    d  .text._ZN53_$LT$u64$u20$as$u20$num_traits..cast..ToPrimitive$GT$5to_u817he2246e5be4fbd8d6E	00000000 .text._ZN53_$LT$u64$u20$as$u20$num_traits..cast..ToPrimitive$GT$5to_u817he2246e5be4fbd8d6E
00000000 l    d  .debug_abbrev	00000000 .debug_abbrev
00000000 l    d  .debug_info	00000000 .debug_info
00000000 l    d  .debug_frame	00000000 .debug_frame
00000000 l    d  .debug_line	00000000 .debug_line
00000000         *UND*	00000000 core::mem::size_of
00000000         *UND*	00000000 core::mem::size_of
00000000 g     F .text._ZN53_$LT$u64$u20$as$u20$num_traits..cast..ToPrimitive$GT$5to_u817he2246e5be4fbd8d6E	00000086 .hidden <u64 as num_traits::cast::ToPrimitive>::to_u8



Disassembly of section .text._ZN53_$LT$u64$u20$as$u20$num_traits..cast..ToPrimitive$GT$5to_u817he2246e5be4fbd8d6E:

00000000 <<u64 as num_traits::cast::ToPrimitive>::to_u8>:
_ZN53_$LT$u64$u20$as$u20$num_traits..cast..ToPrimitive$GT$5to_u817he2246e5be4fbd8d6E():
/Users/Luppy/.cargo/registry/src/github.com-1ecc6299db9ec823/num-traits-0.2.8/src/cast.rs:201

macro_rules! impl_to_primitive_uint_to_uint {
    ($SrcT:ident : $( $(#[$cfg:meta])* fn $method:ident -> $DstT:ident ; )*) => {$(
        #[inline]
        $(#[$cfg])*
        fn $method(&self) -> Option<$DstT> {
   0:	b580      	push	{r7, lr}
   2:	b08c      	sub	sp, #48	; 0x30
   4:	4601      	mov	r1, r0
   6:	9006      	str	r0, [sp, #24]
   8:	2000      	movs	r0, #0
/Users/Luppy/.cargo/registry/src/github.com-1ecc6299db9ec823/num-traits-0.2.8/src/cast.rs:202
            let max = $DstT::MAX as $SrcT;
   a:	9009      	str	r0, [sp, #36]	; 0x24
   c:	20ff      	movs	r0, #255	; 0xff
   e:	9008      	str	r0, [sp, #32]
/Users/Luppy/.cargo/registry/src/github.com-1ecc6299db9ec823/num-traits-0.2.8/src/cast.rs:203
            if size_of::<$SrcT>() <= size_of::<$DstT>() || *self <= max {
  10:	9105      	str	r1, [sp, #20]
  12:	f7ff fffe 	bl	0 <core::mem::size_of>
  16:	9004      	str	r0, [sp, #16]
  18:	e01a      	b.n	50 <<u64 as num_traits::cast::ToPrimitive>::to_u8+0x50>
  1a:	2001      	movs	r0, #1
  1c:	f88d 002f 	strb.w	r0, [sp, #47]	; 0x2f
  20:	e010      	b.n	44 <<u64 as num_traits::cast::ToPrimitive>::to_u8+0x44>
  22:	9806      	ldr	r0, [sp, #24]
  24:	6801      	ldr	r1, [r0, #0]
  26:	6840      	ldr	r0, [r0, #4]
  28:	9a08      	ldr	r2, [sp, #32]
  2a:	9b09      	ldr	r3, [sp, #36]	; 0x24
  2c:	1a51      	subs	r1, r2, r1
  2e:	eb73 0000 	sbcs.w	r0, r3, r0
  32:	f04f 0200 	mov.w	r2, #0
  36:	bf28      	it	cs
  38:	2201      	movcs	r2, #1
  3a:	f88d 202f 	strb.w	r2, [sp, #47]	; 0x2f
  3e:	9103      	str	r1, [sp, #12]
  40:	9002      	str	r0, [sp, #8]
  42:	e7ff      	b.n	44 <<u64 as num_traits::cast::ToPrimitive>::to_u8+0x44>
  44:	f89d 002f 	ldrb.w	r0, [sp, #47]	; 0x2f
  48:	07c0      	lsls	r0, r0, #31
  4a:	2800      	cmp	r0, #0
  4c:	d109      	bne.n	62 <<u64 as num_traits::cast::ToPrimitive>::to_u8+0x62>
  4e:	e010      	b.n	72 <<u64 as num_traits::cast::ToPrimitive>::to_u8+0x72>
  50:	f7ff fffe 	bl	0 <core::mem::size_of>
  54:	9001      	str	r0, [sp, #4]
  56:	e7ff      	b.n	58 <<u64 as num_traits::cast::ToPrimitive>::to_u8+0x58>
  58:	9804      	ldr	r0, [sp, #16]
  5a:	9901      	ldr	r1, [sp, #4]
  5c:	4288      	cmp	r0, r1
  5e:	d9dc      	bls.n	1a <<u64 as num_traits::cast::ToPrimitive>::to_u8+0x1a>
  60:	e7df      	b.n	22 <<u64 as num_traits::cast::ToPrimitive>::to_u8+0x22>
/Users/Luppy/.cargo/registry/src/github.com-1ecc6299db9ec823/num-traits-0.2.8/src/cast.rs:204
                Some(*self as $DstT)
  62:	9806      	ldr	r0, [sp, #24]
  64:	7800      	ldrb	r0, [r0, #0]
  66:	f88d 001d 	strb.w	r0, [sp, #29]
  6a:	2001      	movs	r0, #1
  6c:	f88d 001c 	strb.w	r0, [sp, #28]
/Users/Luppy/.cargo/registry/src/github.com-1ecc6299db9ec823/num-traits-0.2.8/src/cast.rs:203
            if size_of::<$SrcT>() <= size_of::<$DstT>() || *self <= max {
  70:	e003      	b.n	7a <<u64 as num_traits::cast::ToPrimitive>::to_u8+0x7a>
  72:	2000      	movs	r0, #0
/Users/Luppy/.cargo/registry/src/github.com-1ecc6299db9ec823/num-traits-0.2.8/src/cast.rs:206
            } else {
                None
  74:	f88d 001c 	strb.w	r0, [sp, #28]
/Users/Luppy/.cargo/registry/src/github.com-1ecc6299db9ec823/num-traits-0.2.8/src/cast.rs:203
            if size_of::<$SrcT>() <= size_of::<$DstT>() || *self <= max {
  78:	e7ff      	b.n	7a <<u64 as num_traits::cast::ToPrimitive>::to_u8+0x7a>
/Users/Luppy/.cargo/registry/src/github.com-1ecc6299db9ec823/num-traits-0.2.8/src/cast.rs:208
            }
        }
  7a:	f89d 001c 	ldrb.w	r0, [sp, #28]
  7e:	f89d 101d 	ldrb.w	r1, [sp, #29]
  82:	b00c      	add	sp, #48	; 0x30
  84:	bd80      	pop	{r7, pc}

app-b8434b356de0ea5d.266c8m0qnm5ifhmb.rcgu.o:     file format elf32-littlearm

SYMBOL TABLE:
00000000 l    df *ABS*	00000000 266c8m0qnm5ifhmb
00000183 l       .debug_str	00000000 
00000132 l       .debug_str	00000000 
000001ba l       .debug_str	00000000 
000001bc l       .debug_str	00000000 
00000000 l       .debug_str	00000000 
00000041 l       .debug_str	00000000 
00000055 l       .debug_str	00000000 
00000085 l       .debug_str	00000000 
0000008a l       .debug_str	00000000 
00000092 l       .debug_str	00000000 
0000009b l       .debug_str	00000000 
0000009e l       .debug_str	00000000 
000000a0 l       .debug_str	00000000 
000000f1 l       .debug_str	00000000 
000000fa l       .debug_str	00000000 
000000fd l       .debug_str	00000000 
0000010f l       .debug_str	00000000 
0000011a l       .debug_str	00000000 
00000121 l       .debug_str	00000000 
00000125 l       .debug_str	00000000 
00000129 l       .debug_str	00000000 
00000130 l       .debug_str	00000000 
00000000 l    d  .text._ZN50_$LT$T$u20$as$u20$core..convert..From$LT$T$GT$$GT$4from17ha5dabac1114321e8E	00000000 .text._ZN50_$LT$T$u20$as$u20$core..convert..From$LT$T$GT$$GT$4from17ha5dabac1114321e8E
00000000 l    d  .text._ZN50_$LT$T$u20$as$u20$core..convert..Into$LT$U$GT$$GT$4into17h1eb554baff921b54E	00000000 .text._ZN50_$LT$T$u20$as$u20$core..convert..Into$LT$U$GT$$GT$4into17h1eb554baff921b54E
00000000 l    d  .debug_abbrev	00000000 .debug_abbrev
00000000 l    d  .debug_info	00000000 .debug_info
00000000 l    d  .debug_ranges	00000000 .debug_ranges
00000000 l    d  .debug_frame	00000000 .debug_frame
00000000 l    d  .debug_line	00000000 .debug_line
00000000 g     F .text._ZN50_$LT$T$u20$as$u20$core..convert..From$LT$T$GT$$GT$4from17ha5dabac1114321e8E	00000006 <T as core::convert::From<T>>::from
00000000 g     F .text._ZN50_$LT$T$u20$as$u20$core..convert..Into$LT$U$GT$$GT$4into17h1eb554baff921b54E	0000001e <T as core::convert::Into<U>>::into
00000000         *UND*	00000000 <embedded_graphics::pixelcolor::rgb565::Rgb565 as core::convert::From<u8>>::from



Disassembly of section .text._ZN50_$LT$T$u20$as$u20$core..convert..From$LT$T$GT$$GT$4from17ha5dabac1114321e8E:

00000000 <<T as core::convert::From<T>>::from>:
_ZN50_$LT$T$u20$as$u20$core..convert..From$LT$T$GT$$GT$4from17ha5dabac1114321e8E():
/rustc/50a0defd5a93523067ef239936cc2e0755220904/src/libcore/convert.rs:547
   0:	b081      	sub	sp, #4
   2:	b001      	add	sp, #4
   4:	4770      	bx	lr

Disassembly of section .text._ZN50_$LT$T$u20$as$u20$core..convert..Into$LT$U$GT$$GT$4into17h1eb554baff921b54E:

00000000 <<T as core::convert::Into<U>>::into>:
_ZN50_$LT$T$u20$as$u20$core..convert..Into$LT$U$GT$$GT$4into17h1eb554baff921b54E():
/rustc/50a0defd5a93523067ef239936cc2e0755220904/src/libcore/convert.rs:539
   0:	b580      	push	{r7, lr}
   2:	b084      	sub	sp, #16
   4:	4601      	mov	r1, r0
   6:	f88d 000f 	strb.w	r0, [sp, #15]
/rustc/50a0defd5a93523067ef239936cc2e0755220904/src/libcore/convert.rs:540
   a:	f89d 000f 	ldrb.w	r0, [sp, #15]
   e:	9102      	str	r1, [sp, #8]
  10:	f7ff fffe 	bl	0 <<embedded_graphics::pixelcolor::rgb565::Rgb565 as core::convert::From<u8>>::from>
  14:	9001      	str	r0, [sp, #4]
  16:	e7ff      	b.n	18 <<T as core::convert::Into<U>>::into+0x18>
/rustc/50a0defd5a93523067ef239936cc2e0755220904/src/libcore/convert.rs:541
  18:	9801      	ldr	r0, [sp, #4]
  1a:	b004      	add	sp, #16
  1c:	bd80      	pop	{r7, pc}

app-b8434b356de0ea5d.2ock55n7ky3an0la.rcgu.o:     file format elf32-littlearm

SYMBOL TABLE:
00000000 l    df *ABS*	00000000 2ock55n7ky3an0la
0000032c l       .debug_str	00000000 
00000375 l       .debug_str	00000000 
00000379 l       .debug_str	00000000 
00000381 l       .debug_str	00000000 
00000398 l       .debug_str	00000000 
000003bc l       .debug_str	00000000 
000003d8 l       .debug_str	00000000 
000003e2 l       .debug_str	00000000 
000003fc l       .debug_str	00000000 
0000045a l       .debug_str	00000000 
00000465 l       .debug_str	00000000 
00000482 l       .debug_str	00000000 
0000049b l       .debug_str	00000000 
000004a5 l       .debug_str	00000000 
000004bb l       .debug_str	00000000 
000004d9 l       .debug_str	00000000 
000004e2 l       .debug_str	00000000 
000004e7 l       .debug_str	00000000 
000004ec l       .debug_str	00000000 
000004f0 l       .debug_str	00000000 
000004f9 l       .debug_str	00000000 
00000503 l       .debug_str	00000000 
0000051b l       .debug_str	00000000 
00000000 l       .debug_str	00000000 
00000041 l       .debug_str	00000000 
00000055 l       .debug_str	00000000 
00000085 l       .debug_str	00000000 
0000008a l       .debug_str	00000000 
0000008e l       .debug_str	00000000 
00000091 l       .debug_str	00000000 
00000094 l       .debug_str	00000000 
00000097 l       .debug_str	00000000 
0000009c l       .debug_str	00000000 
000000a2 l       .debug_str	00000000 
000000a9 l       .debug_str	00000000 
000000b1 l       .debug_str	00000000 
000000bb l       .debug_str	00000000 
000000c2 l       .debug_str	00000000 
000000c5 l       .debug_str	00000000 
000000c9 l       .debug_str	00000000 
000000d0 l       .debug_str	00000000 
000000d4 l       .debug_str	00000000 
000000dd l       .debug_str	00000000 
000000e1 l       .debug_str	00000000 
0000010b l       .debug_str	00000000 
00000110 l       .debug_str	00000000 
00000115 l       .debug_str	00000000 
00000117 l       .debug_str	00000000 
00000129 l       .debug_str	00000000 
0000012f l       .debug_str	00000000 
00000132 l       .debug_str	00000000 
00000136 l       .debug_str	00000000 
0000013b l       .debug_str	00000000 
00000143 l       .debug_str	00000000 
00000147 l       .debug_str	00000000 
0000014f l       .debug_str	00000000 
00000157 l       .debug_str	00000000 
0000015e l       .debug_str	00000000 
00000164 l       .debug_str	00000000 
00000178 l       .debug_str	00000000 
00000184 l       .debug_str	00000000 
00000189 l       .debug_str	00000000 
00000191 l       .debug_str	00000000 
00000198 l       .debug_str	00000000 
0000019c l       .debug_str	00000000 
000001a1 l       .debug_str	00000000 
000001a8 l       .debug_str	00000000 
000001b1 l       .debug_str	00000000 
000001bb l       .debug_str	00000000 
000001c2 l       .debug_str	00000000 
000001c7 l       .debug_str	00000000 
000001d3 l       .debug_str	00000000 
000001db l       .debug_str	00000000 
000001e4 l       .debug_str	00000000 
000001e9 l       .debug_str	00000000 
000001ec l       .debug_str	00000000 
000001f0 l       .debug_str	00000000 
000001f9 l       .debug_str	00000000 
00000200 l       .debug_str	00000000 
00000205 l       .debug_str	00000000 
0000020a l       .debug_str	00000000 
00000210 l       .debug_str	00000000 
00000216 l       .debug_str	00000000 
00000220 l       .debug_str	00000000 
00000223 l       .debug_str	00000000 
00000229 l       .debug_str	00000000 
00000233 l       .debug_str	00000000 
0000023b l       .debug_str	00000000 
00000241 l       .debug_str	00000000 
00000247 l       .debug_str	00000000 
00000252 l       .debug_str	00000000 
0000025b l       .debug_str	00000000 
0000027e l       .debug_str	00000000 
0000029d l       .debug_str	00000000 
0000029f l       .debug_str	00000000 
000002a4 l       .debug_str	00000000 
000002cb l       .debug_str	00000000 
000002d0 l       .debug_str	00000000 
000002d6 l       .debug_str	00000000 
000002dc l       .debug_str	00000000 
000002df l       .debug_str	00000000 
000002ee l       .debug_str	00000000 
000002f5 l       .debug_str	00000000 
000002f9 l       .debug_str	00000000 
00000302 l       .debug_str	00000000 
0000030e l       .debug_str	00000000 
00000327 l       .debug_str	00000000 
0000033d l       .debug_str	00000000 
00000347 l       .debug_str	00000000 
00000355 l       .debug_str	00000000 
00000359 l       .debug_str	00000000 
00000364 l       .debug_str	00000000 
0000036b l       .debug_str	00000000 
00000371 l       .debug_str	00000000 
00000000 l     O .rodata.cst8	00000008 .Lanon.3ed011473997af99b525cde47c9eaaac.0
00000008 l     O .rodata.cst8	00000008 .Lanon.3ed011473997af99b525cde47c9eaaac.1
00000000 l     O .rodata..Lanon.3ed011473997af99b525cde47c9eaaac.10	00000003 .Lanon.3ed011473997af99b525cde47c9eaaac.10
00000000 l     O .rodata..Lanon.3ed011473997af99b525cde47c9eaaac.11	00000006 .Lanon.3ed011473997af99b525cde47c9eaaac.11
00000000 l     O .rodata..Lanon.3ed011473997af99b525cde47c9eaaac.12	00000001 .Lanon.3ed011473997af99b525cde47c9eaaac.12
00000000 l     O .rodata..Lanon.3ed011473997af99b525cde47c9eaaac.3	00000018 .Lanon.3ed011473997af99b525cde47c9eaaac.3
00000010 l     O .rodata.cst8	00000008 .Lanon.3ed011473997af99b525cde47c9eaaac.4
00000018 l     O .rodata.cst8	00000008 .Lanon.3ed011473997af99b525cde47c9eaaac.5
00000020 l     O .rodata.cst8	00000008 .Lanon.3ed011473997af99b525cde47c9eaaac.6
00000028 l     O .rodata.cst8	00000008 .Lanon.3ed011473997af99b525cde47c9eaaac.7
00000000 l     O .rodata..Lanon.3ed011473997af99b525cde47c9eaaac.8	00000006 .Lanon.3ed011473997af99b525cde47c9eaaac.8
00000000 l     O .rodata..Lanon.3ed011473997af99b525cde47c9eaaac.9	00000007 .Lanon.3ed011473997af99b525cde47c9eaaac.9
00000000 l    d  .text.main	00000000 .text.main
00000000 l    d  .text.rust_begin_unwind	00000000 .text.rust_begin_unwind
00000000 l    d  .rodata..Lanon.3ed011473997af99b525cde47c9eaaac.2	00000000 .rodata..Lanon.3ed011473997af99b525cde47c9eaaac.2
00000000 l    d  .debug_abbrev	00000000 .debug_abbrev
00000000 l    d  .debug_info	00000000 .debug_info
00000000 l    d  .debug_ranges	00000000 .debug_ranges
00000000 l    d  .debug_frame	00000000 .debug_frame
00000000 l    d  .debug_line	00000000 .debug_line
00000000         *UND*	00000000 .hidden app::app_sensor::start_sensor_listener
00000000         *UND*	00000000 .hidden app::touch_sensor::start_touch_sensor
00000000         *UND*	00000000 .hidden app::display::show
00000000         *UND*	00000000 core::panic::Location::file
00000000         *UND*	00000000 core::panic::Location::line
00000000         *UND*	00000000 core::panic::PanicInfo::location
00000000         *UND*	00000000 core::result::Result<T,E>::expect
00000000         *UND*	00000000 core::result::Result<T,E>::expect
00000000         *UND*	00000000 core::panicking::panic
00000000         *UND*	00000000 mynewt::sys::console::flush
00000000         *UND*	00000000 mynewt::sys::console::print
00000000         *UND*	00000000 mynewt::sys::console::buffer
00000000         *UND*	00000000 mynewt::sys::console::printint
00000000         *UND*	00000000 mynewt::kernel::os::eventq_run
00000000         *UND*	00000000 mynewt::kernel::os::eventq_dflt_get
00000000         *UND*	00000000 mynewt::sysinit
00000000 g     F .text.main	000000b0 main
00000000 g     F .text.rust_begin_unwind	000000ac rust_begin_unwind
00000000         *UND*	00000000 start_ble



Disassembly of section .text.main:

00000000 <main>:
main():
/Users/Luppy/mynewt/stm32bluepill-mynewt-sensor/rust/app/src/lib.rs:55
};

///  Main program that initialises the sensor, network driver and starts reading and sending sensor data in the background.
///  main() will be called at Mynewt startup. It replaces the C version of the main() function.
#[no_mangle]                 //  Don't mangle the name "main"
extern "C" fn main() -> ! {  //  Declare extern "C" because it will be called by Mynewt
   0:	b088      	sub	sp, #32
/Users/Luppy/mynewt/stm32bluepill-mynewt-sensor/rust/app/src/lib.rs:60
    //  Initialise the Mynewt packages and internal temperature sensor driver. Any startup
    //  functions defined in pkg.yml of our custom drivers and libraries will be called by 
    //  sysinit().  Here are the startup functions consolidated by Mynewt:
    //  bin/targets/nrf52_my_sensor/generated/src/nrf52_my_sensor-sysinit-app.c
    mynewt::sysinit();
   2:	f7ff fffe 	bl	0 <mynewt::sysinit>
   6:	e7ff      	b.n	2 <app::app_sensor::start_sensor_listener+0x2>
/Users/Luppy/mynewt/stm32bluepill-mynewt-sensor/rust/app/src/lib.rs:68
    //  sensor_network::start_server_transport()
    //    .expect("NET fail");

    //  Start polling the simulated temperature sensor every 10 seconds in the background.
    //  TODO: Replace by touch handler.
    app_sensor::start_sensor_listener()
   8:	f7ff fffe 	bl	0 <app::app_sensor::start_sensor_listener>
   c:	9004      	str	r0, [sp, #16]
   e:	e7ff      	b.n	10 <main+0x10>
  10:	f240 0100 	movw	r1, #0
  14:	f2c0 0100 	movt	r1, #0
  18:	2208      	movs	r2, #8
  1a:	9804      	ldr	r0, [sp, #16]
  1c:	f7ff fffe 	bl	0 <core::result::Result<T,E>::expect>
  20:	e7ff      	b.n	2 <start_ble+0x2>
/Users/Luppy/mynewt/stm32bluepill-mynewt-sensor/rust/app/src/lib.rs:73
        .expect("TMP fail");

    //  Start Bluetooth Beacon.  TODO: Create a safe wrapper for starting Bluetooth LE.
    extern { fn start_ble() -> i32; }
    let rc = unsafe { start_ble() };
  22:	f7ff fffe 	bl	0 <start_ble>
  26:	9005      	str	r0, [sp, #20]
  28:	e7ff      	b.n	2a <main+0x2a>
/Users/Luppy/mynewt/stm32bluepill-mynewt-sensor/rust/app/src/lib.rs:74
    assert!(rc == 0, "BLE fail");
  2a:	9805      	ldr	r0, [sp, #20]
  2c:	2800      	cmp	r0, #0
  2e:	d007      	beq.n	40 <main+0x40>
  30:	e7ff      	b.n	32 <main+0x32>
  32:	f240 0000 	movw	r0, #0
  36:	f2c0 0000 	movt	r0, #0
  3a:	f7ff fffe 	bl	0 <core::panicking::panic>
  3e:	defe      	udf	#254	; 0xfe
/Users/Luppy/mynewt/stm32bluepill-mynewt-sensor/rust/app/src/lib.rs:77

    //  Show the display
    display::show()
  40:	f7ff fffe 	bl	0 <app::display::show>
  44:	9003      	str	r0, [sp, #12]
  46:	e7ff      	b.n	48 <main+0x48>
  48:	f240 0100 	movw	r1, #0
  4c:	f2c0 0100 	movt	r1, #0
  50:	2208      	movs	r2, #8
  52:	9803      	ldr	r0, [sp, #12]
  54:	f7ff fffe 	bl	0 <core::result::Result<T,E>::expect>
  58:	e7ff      	b.n	2 <app::touch_sensor::start_touch_sensor+0x2>
/Users/Luppy/mynewt/stm32bluepill-mynewt-sensor/rust/app/src/lib.rs:81
        .expect("DSP fail");

    //  Start the touch sensor
    touch_sensor::start_touch_sensor()
  5a:	f7ff fffe 	bl	0 <app::touch_sensor::start_touch_sensor>
  5e:	9002      	str	r0, [sp, #8]
  60:	e7ff      	b.n	62 <main+0x62>
  62:	f240 0100 	movw	r1, #0
  66:	f2c0 0100 	movt	r1, #0
  6a:	2208      	movs	r2, #8
  6c:	9802      	ldr	r0, [sp, #8]
  6e:	f7ff fffe 	bl	0 <core::result::Result<T,E>::expect>
  72:	e7ff      	b.n	74 <main+0x74>
/Users/Luppy/mynewt/stm32bluepill-mynewt-sensor/rust/app/src/lib.rs:89
    //  Test the touch sensor
    //  touch_sensor::test()
    //  .expect("TCH test fail");

    //  Main event loop
    loop {                            //  Loop forever...
  74:	e7ff      	b.n	76 <main+0x76>
  76:	a806      	add	r0, sp, #24
/Users/Luppy/mynewt/stm32bluepill-mynewt-sensor/rust/app/src/lib.rs:91
        os::eventq_run(               //  Processing events...
            os::eventq_dflt_get()     //  From default event queue.
  78:	f7ff fffe 	bl	0 <mynewt::kernel::os::eventq_dflt_get>
  7c:	e7ff      	b.n	22 <main+0x22>
  7e:	f240 0100 	movw	r1, #0
  82:	f2c0 0100 	movt	r1, #0
  86:	a806      	add	r0, sp, #24
  88:	2208      	movs	r2, #8
  8a:	f7ff fffe 	bl	0 <core::result::Result<T,E>::expect>
  8e:	9001      	str	r0, [sp, #4]
  90:	e7ff      	b.n	92 <main+0x92>
/Users/Luppy/mynewt/stm32bluepill-mynewt-sensor/rust/app/src/lib.rs:90
        os::eventq_run(               //  Processing events...
  92:	9801      	ldr	r0, [sp, #4]
  94:	f7ff fffe 	bl	0 <mynewt::kernel::os::eventq_run>
  98:	9000      	str	r0, [sp, #0]
  9a:	e7ff      	b.n	9c <main+0x9c>
  9c:	f240 0100 	movw	r1, #0
  a0:	f2c0 0100 	movt	r1, #0
  a4:	2208      	movs	r2, #8
  a6:	9800      	ldr	r0, [sp, #0]
  a8:	f7ff fffe 	bl	0 <core::result::Result<T,E>::expect>
  ac:	e7ff      	b.n	ae <main+0xae>
/Users/Luppy/mynewt/stm32bluepill-mynewt-sensor/rust/app/src/lib.rs:89
    loop {                            //  Loop forever...
  ae:	e7e2      	b.n	76 <main+0x76>

Disassembly of section .text.rust_begin_unwind:

00000000 <rust_begin_unwind>:
rust_begin_unwind():
/Users/Luppy/mynewt/stm32bluepill-mynewt-sensor/rust/app/src/lib.rs:100
    //  Never comes here
}

///  This function is called on panic, like an assertion failure. We display the filename and line number and pause in the debugger. From https://os.phil-opp.com/freestanding-rust-binary/
#[panic_handler]
fn panic(info: &PanicInfo) -> ! {
   0:	b088      	sub	sp, #32
   2:	4601      	mov	r1, r0
   4:	9002      	str	r0, [sp, #8]
/Users/Luppy/mynewt/stm32bluepill-mynewt-sensor/rust/app/src/lib.rs:102
    //  Display the filename and line number to the Semihosting Console.
    console::print("panic ");
   6:	f240 0000 	movw	r0, #0
   a:	f2c0 0000 	movt	r0, #0
   e:	2206      	movs	r2, #6
  10:	9101      	str	r1, [sp, #4]
  12:	4611      	mov	r1, r2
  14:	f7ff fffe 	bl	0 <mynewt::sys::console::print>
  18:	e7ff      	b.n	1a <rust_begin_unwind+0x1a>
/Users/Luppy/mynewt/stm32bluepill-mynewt-sensor/rust/app/src/lib.rs:103
    if let Some(location) = info.location() {
  1a:	9802      	ldr	r0, [sp, #8]
  1c:	f7ff fffe 	bl	0 <core::panic::PanicInfo::location>
  20:	9003      	str	r0, [sp, #12]
  22:	e7ff      	b.n	24 <rust_begin_unwind+0x24>
  24:	9803      	ldr	r0, [sp, #12]
  26:	2800      	cmp	r0, #0
  28:	d032      	beq.n	90 <rust_begin_unwind+0x90>
  2a:	e7ff      	b.n	2c <rust_begin_unwind+0x2c>
  2c:	9803      	ldr	r0, [sp, #12]
  2e:	9004      	str	r0, [sp, #16]
/Users/Luppy/mynewt/stm32bluepill-mynewt-sensor/rust/app/src/lib.rs:104
        let file = location.file();
  30:	9804      	ldr	r0, [sp, #16]
  32:	f7ff fffe 	bl	0 <core::panic::Location::file>
  36:	9106      	str	r1, [sp, #24]
  38:	9005      	str	r0, [sp, #20]
  3a:	e7ff      	b.n	3c <rust_begin_unwind+0x3c>
/Users/Luppy/mynewt/stm32bluepill-mynewt-sensor/rust/app/src/lib.rs:105
        let line = location.line();
  3c:	9804      	ldr	r0, [sp, #16]
  3e:	f7ff fffe 	bl	0 <core::panic::Location::line>
  42:	9007      	str	r0, [sp, #28]
  44:	e7ff      	b.n	46 <rust_begin_unwind+0x46>
/Users/Luppy/mynewt/stm32bluepill-mynewt-sensor/rust/app/src/lib.rs:106
        console::print("at ");       console::buffer(&file);
  46:	f240 0000 	movw	r0, #0
  4a:	f2c0 0000 	movt	r0, #0
  4e:	2103      	movs	r1, #3
  50:	f7ff fffe 	bl	0 <mynewt::sys::console::print>
  54:	e7ff      	b.n	56 <rust_begin_unwind+0x56>
  56:	9805      	ldr	r0, [sp, #20]
  58:	9906      	ldr	r1, [sp, #24]
  5a:	f7ff fffe 	bl	0 <mynewt::sys::console::buffer>
  5e:	e7ff      	b.n	2 <rust_begin_unwind+0x2>
/Users/Luppy/mynewt/stm32bluepill-mynewt-sensor/rust/app/src/lib.rs:107
        console::print(" line ");    console::printint(line as i32);
  60:	f240 0000 	movw	r0, #0
  64:	f2c0 0000 	movt	r0, #0
  68:	2106      	movs	r1, #6
  6a:	f7ff fffe 	bl	0 <mynewt::sys::console::print>
  6e:	e7ff      	b.n	70 <rust_begin_unwind+0x70>
  70:	9807      	ldr	r0, [sp, #28]
  72:	f7ff fffe 	bl	0 <mynewt::sys::console::printint>
  76:	e7ff      	b.n	2 <rust_begin_unwind+0x2>
/Users/Luppy/mynewt/stm32bluepill-mynewt-sensor/rust/app/src/lib.rs:108
        console::print("\n");        console::flush();
  78:	f240 0000 	movw	r0, #0
  7c:	f2c0 0000 	movt	r0, #0
  80:	2101      	movs	r1, #1
  82:	f7ff fffe 	bl	0 <mynewt::sys::console::print>
  86:	e7ff      	b.n	2 <mynewt::sys::console::flush+0x2>
  88:	f7ff fffe 	bl	0 <mynewt::sys::console::flush>
  8c:	e7ff      	b.n	8e <rust_begin_unwind+0x8e>
/Users/Luppy/mynewt/stm32bluepill-mynewt-sensor/rust/app/src/lib.rs:103
    if let Some(location) = info.location() {
  8e:	e00a      	b.n	a6 <rust_begin_unwind+0xa6>
/Users/Luppy/mynewt/stm32bluepill-mynewt-sensor/rust/app/src/lib.rs:110
    } else {
        console::print("no loc\n");  console::flush();
  90:	f240 0000 	movw	r0, #0
  94:	f2c0 0000 	movt	r0, #0
  98:	2107      	movs	r1, #7
  9a:	f7ff fffe 	bl	0 <mynewt::sys::console::print>
  9e:	e7ff      	b.n	2 <mynewt::sys::console::flush+0x2>
  a0:	f7ff fffe 	bl	0 <mynewt::sys::console::flush>
  a4:	e7ff      	b.n	a6 <rust_begin_unwind+0xa6>
_ZN8cortex_m3asm4bkpt17h15d676c3288af66bE():
/Users/Luppy/.cargo/registry/src/github.com-1ecc6299db9ec823/cortex-m-0.6.1/src/asm.rs:11
/// exception.
#[inline(always)]
pub fn bkpt() {
    match () {
        #[cfg(all(cortex_m, feature = "inline-asm"))]
        () => unsafe { asm!("bkpt" :::: "volatile") },
  a6:	be00      	bkpt	0x0000
rust_begin_unwind():
/Users/Luppy/mynewt/stm32bluepill-mynewt-sensor/rust/app/src/lib.rs:113
    }
    //  Pause in the debugger.
    bkpt();
  a8:	e7ff      	b.n	aa <rust_begin_unwind+0xaa>
/Users/Luppy/mynewt/stm32bluepill-mynewt-sensor/rust/app/src/lib.rs:115
    //  Loop forever so that device won't restart.
    loop {}
  aa:	e7fe      	b.n	aa <rust_begin_unwind+0xaa>

app-b8434b356de0ea5d.2waib4qauil557b3.rcgu.o:     file format elf32-littlearm

SYMBOL TABLE:
00000000 l    df *ABS*	00000000 2waib4qauil557b3
000002de l       .debug_str	00000000 
000003df l       .debug_str	00000000 
000003ea l       .debug_str	00000000 
00000407 l       .debug_str	00000000 
00000420 l       .debug_str	00000000 
0000042a l       .debug_str	00000000 
00000475 l       .debug_str	00000000 
000004a7 l       .debug_str	00000000 
000004ae l       .debug_str	00000000 
000004b3 l       .debug_str	00000000 
000004b7 l       .debug_str	00000000 
00000000 l       .debug_str	00000000 
00000041 l       .debug_str	00000000 
00000055 l       .debug_str	00000000 
00000085 l       .debug_str	00000000 
0000008a l       .debug_str	00000000 
00000091 l       .debug_str	00000000 
00000094 l       .debug_str	00000000 
00000097 l       .debug_str	00000000 
0000009b l       .debug_str	00000000 
000000a2 l       .debug_str	00000000 
000000a6 l       .debug_str	00000000 
000000a9 l       .debug_str	00000000 
000000ac l       .debug_str	00000000 
000000b1 l       .debug_str	00000000 
000000b7 l       .debug_str	00000000 
000000be l       .debug_str	00000000 
000000c6 l       .debug_str	00000000 
000000d0 l       .debug_str	00000000 
000000d9 l       .debug_str	00000000 
000000e0 l       .debug_str	00000000 
000000e9 l       .debug_str	00000000 
000000f3 l       .debug_str	00000000 
000000fa l       .debug_str	00000000 
00000100 l       .debug_str	00000000 
00000105 l       .debug_str	00000000 
00000111 l       .debug_str	00000000 
00000119 l       .debug_str	00000000 
00000120 l       .debug_str	00000000 
00000124 l       .debug_str	00000000 
00000129 l       .debug_str	00000000 
00000132 l       .debug_str	00000000 
00000137 l       .debug_str	00000000 
0000013a l       .debug_str	00000000 
0000013e l       .debug_str	00000000 
00000147 l       .debug_str	00000000 
0000014e l       .debug_str	00000000 
00000153 l       .debug_str	00000000 
00000158 l       .debug_str	00000000 
0000015e l       .debug_str	00000000 
00000164 l       .debug_str	00000000 
0000016e l       .debug_str	00000000 
00000171 l       .debug_str	00000000 
00000177 l       .debug_str	00000000 
00000181 l       .debug_str	00000000 
00000189 l       .debug_str	00000000 
0000018f l       .debug_str	00000000 
00000195 l       .debug_str	00000000 
000001a0 l       .debug_str	00000000 
000001a9 l       .debug_str	00000000 
000001cc l       .debug_str	00000000 
000001eb l       .debug_str	00000000 
000001ed l       .debug_str	00000000 
000001f2 l       .debug_str	00000000 
00000219 l       .debug_str	00000000 
0000021e l       .debug_str	00000000 
00000224 l       .debug_str	00000000 
0000022a l       .debug_str	00000000 
0000022d l       .debug_str	00000000 
0000023c l       .debug_str	00000000 
00000243 l       .debug_str	00000000 
00000247 l       .debug_str	00000000 
00000250 l       .debug_str	00000000 
00000258 l       .debug_str	00000000 
00000260 l       .debug_str	00000000 
00000267 l       .debug_str	00000000 
0000027b l       .debug_str	00000000 
00000287 l       .debug_str	00000000 
00000293 l       .debug_str	00000000 
000002ac l       .debug_str	00000000 
000002b1 l       .debug_str	00000000 
000002c2 l       .debug_str	00000000 
000002cc l       .debug_str	00000000 
000002da l       .debug_str	00000000 
000002e9 l       .debug_str	00000000 
000002f0 l       .debug_str	00000000 
000002f6 l       .debug_str	00000000 
000002fa l       .debug_str	00000000 
000002fe l       .debug_str	00000000 
00000306 l       .debug_str	00000000 
0000031d l       .debug_str	00000000 
00000341 l       .debug_str	00000000 
0000035d l       .debug_str	00000000 
00000367 l       .debug_str	00000000 
00000381 l       .debug_str	00000000 
00000000 l     O .rodata..Lanon.0a67b9fa1d44037dc3e06a52c02149c9.0	00000002 .Lanon.0a67b9fa1d44037dc3e06a52c02149c9.0
00000000 l    d  .text._ZN45_$LT$$LP$$RP$$u20$as$u20$core..fmt..Debug$GT$3fmt17h4c6d3aada1921c22E	00000000 .text._ZN45_$LT$$LP$$RP$$u20$as$u20$core..fmt..Debug$GT$3fmt17h4c6d3aada1921c22E
00000000 l    d  .text._ZN4core3fmt9Arguments6new_v117he9fc2510b9da50dfE	00000000 .text._ZN4core3fmt9Arguments6new_v117he9fc2510b9da50dfE
00000000 l    d  .debug_abbrev	00000000 .debug_abbrev
00000000 l    d  .debug_info	00000000 .debug_info
00000000 l    d  .debug_ranges	00000000 .debug_ranges
00000000 l    d  .debug_frame	00000000 .debug_frame
00000000 l    d  .debug_line	00000000 .debug_line
00000000 g     F .text._ZN45_$LT$$LP$$RP$$u20$as$u20$core..fmt..Debug$GT$3fmt17h4c6d3aada1921c22E	00000032 .hidden <() as core::fmt::Debug>::fmt
00000000 g     F .text._ZN4core3fmt9Arguments6new_v117he9fc2510b9da50dfE	0000004c .hidden core::fmt::Arguments::new_v1
00000000         *UND*	00000000 core::fmt::Formatter::pad



Disassembly of section .text._ZN45_$LT$$LP$$RP$$u20$as$u20$core..fmt..Debug$GT$3fmt17h4c6d3aada1921c22E:

00000000 <<() as core::fmt::Debug>::fmt>:
_ZN45_$LT$$LP$$RP$$u20$as$u20$core..fmt..Debug$GT$3fmt17h4c6d3aada1921c22E():
/rustc/50a0defd5a93523067ef239936cc2e0755220904/src/libcore/fmt/mod.rs:2106
   0:	b580      	push	{r7, lr}
   2:	b086      	sub	sp, #24
   4:	460a      	mov	r2, r1
   6:	4603      	mov	r3, r0
   8:	9004      	str	r0, [sp, #16]
   a:	9105      	str	r1, [sp, #20]
/rustc/50a0defd5a93523067ef239936cc2e0755220904/src/libcore/fmt/mod.rs:2107
   c:	9805      	ldr	r0, [sp, #20]
   e:	f240 0100 	movw	r1, #0
  12:	f2c0 0100 	movt	r1, #0
  16:	f04f 0c02 	mov.w	ip, #2
  1a:	9203      	str	r2, [sp, #12]
  1c:	4662      	mov	r2, ip
  1e:	9302      	str	r3, [sp, #8]
  20:	f7ff fffe 	bl	0 <core::fmt::Formatter::pad>
  24:	9001      	str	r0, [sp, #4]
  26:	e7ff      	b.n	28 <<() as core::fmt::Debug>::fmt+0x28>
/rustc/50a0defd5a93523067ef239936cc2e0755220904/src/libcore/fmt/mod.rs:2108
  28:	9801      	ldr	r0, [sp, #4]
  2a:	f000 0001 	and.w	r0, r0, #1
  2e:	b006      	add	sp, #24
  30:	bd80      	pop	{r7, pc}

Disassembly of section .text._ZN4core3fmt9Arguments6new_v117he9fc2510b9da50dfE:

00000000 <core::fmt::Arguments::new_v1>:
_ZN4core3fmt9Arguments6new_v117he9fc2510b9da50dfE():
/rustc/50a0defd5a93523067ef239936cc2e0755220904/src/libcore/fmt/mod.rs:314
   0:	b570      	push	{r4, r5, r6, lr}
   2:	b08a      	sub	sp, #40	; 0x28
   4:	f8dd c038 	ldr.w	ip, [sp, #56]	; 0x38
   8:	469e      	mov	lr, r3
   a:	4614      	mov	r4, r2
   c:	460d      	mov	r5, r1
   e:	4606      	mov	r6, r0
  10:	9104      	str	r1, [sp, #16]
  12:	9205      	str	r2, [sp, #20]
  14:	9306      	str	r3, [sp, #24]
  16:	f8cd c01c 	str.w	ip, [sp, #28]
/rustc/50a0defd5a93523067ef239936cc2e0755220904/src/libcore/fmt/mod.rs:317
  1a:	9904      	ldr	r1, [sp, #16]
  1c:	9a05      	ldr	r2, [sp, #20]
  1e:	2300      	movs	r3, #0
/rustc/50a0defd5a93523067ef239936cc2e0755220904/src/libcore/fmt/mod.rs:318
  20:	9309      	str	r3, [sp, #36]	; 0x24
  22:	9308      	str	r3, [sp, #32]
  24:	9308      	str	r3, [sp, #32]
/rustc/50a0defd5a93523067ef239936cc2e0755220904/src/libcore/fmt/mod.rs:319
  26:	9b06      	ldr	r3, [sp, #24]
  28:	f8dd c01c 	ldr.w	ip, [sp, #28]
/rustc/50a0defd5a93523067ef239936cc2e0755220904/src/libcore/fmt/mod.rs:316
  2c:	6001      	str	r1, [r0, #0]
  2e:	6042      	str	r2, [r0, #4]
  30:	9908      	ldr	r1, [sp, #32]
  32:	9a09      	ldr	r2, [sp, #36]	; 0x24
  34:	6081      	str	r1, [r0, #8]
  36:	60c2      	str	r2, [r0, #12]
  38:	6103      	str	r3, [r0, #16]
  3a:	f8c0 c014 	str.w	ip, [r0, #20]
/rustc/50a0defd5a93523067ef239936cc2e0755220904/src/libcore/fmt/mod.rs:321
  3e:	f8cd e00c 	str.w	lr, [sp, #12]
  42:	9402      	str	r4, [sp, #8]
  44:	9501      	str	r5, [sp, #4]
  46:	9600      	str	r6, [sp, #0]
  48:	b00a      	add	sp, #40	; 0x28
  4a:	bd70      	pop	{r4, r5, r6, pc}

app-b8434b356de0ea5d.2xze5wajftyu9ipr.rcgu.o:     file format elf32-littlearm

SYMBOL TABLE:
00000000 l    df *ABS*	00000000 2xze5wajftyu9ipr
000000ea l       .debug_str	00000000 
000000db l       .debug_str	00000000 
000000e6 l       .debug_str	00000000 
00000128 l       .debug_str	00000000 
0000012e l       .debug_str	00000000 
00000000 l       .debug_str	00000000 
00000041 l       .debug_str	00000000 
00000055 l       .debug_str	00000000 
00000085 l       .debug_str	00000000 
0000008a l       .debug_str	00000000 
0000008e l       .debug_str	00000000 
00000097 l       .debug_str	00000000 
00000000 l     F .text._ZN4core3num21_$LT$impl$u20$u16$GT$10swap_bytes17he5d853e7813d92cbE	00000024 core::num::<impl u16>::swap_bytes
00000000 l    d  .text._ZN4core3num21_$LT$impl$u20$u16$GT$10swap_bytes17he5d853e7813d92cbE	00000000 .text._ZN4core3num21_$LT$impl$u20$u16$GT$10swap_bytes17he5d853e7813d92cbE
00000000 l    d  .text._ZN4core3num21_$LT$impl$u20$u16$GT$5to_be17h761124024c578678E	00000000 .text._ZN4core3num21_$LT$impl$u20$u16$GT$5to_be17h761124024c578678E
00000000 l    d  .debug_abbrev	00000000 .debug_abbrev
00000000 l    d  .debug_info	00000000 .debug_info
00000000 l    d  .debug_ranges	00000000 .debug_ranges
00000000 l    d  .debug_frame	00000000 .debug_frame
00000000 l    d  .debug_line	00000000 .debug_line
00000000 g     F .text._ZN4core3num21_$LT$impl$u20$u16$GT$5to_be17h761124024c578678E	0000001e .hidden core::num::<impl u16>::to_be



Disassembly of section .text._ZN4core3num21_$LT$impl$u20$u16$GT$10swap_bytes17he5d853e7813d92cbE:

00000000 <core::num::<impl u16>::swap_bytes>:
_ZN4core3num21_$LT$impl$u20$u16$GT$10swap_bytes17he5d853e7813d92cbE():
/rustc/50a0defd5a93523067ef239936cc2e0755220904/src/libcore/num/mod.rs:2502
   0:	b083      	sub	sp, #12
   2:	4601      	mov	r1, r0
   4:	f8ad 0008 	strh.w	r0, [sp, #8]
/rustc/50a0defd5a93523067ef239936cc2e0755220904/src/libcore/num/mod.rs:2503
   8:	f8bd 0008 	ldrh.w	r0, [sp, #8]
   c:	ba00      	rev	r0, r0
   e:	0c00      	lsrs	r0, r0, #16
  10:	f8ad 000a 	strh.w	r0, [sp, #10]
  14:	f8bd 000a 	ldrh.w	r0, [sp, #10]
  18:	9101      	str	r1, [sp, #4]
  1a:	9000      	str	r0, [sp, #0]
  1c:	e7ff      	b.n	1e <core::num::<impl u16>::swap_bytes+0x1e>
/rustc/50a0defd5a93523067ef239936cc2e0755220904/src/libcore/num/mod.rs:2504
  1e:	9800      	ldr	r0, [sp, #0]
  20:	b003      	add	sp, #12
  22:	4770      	bx	lr

Disassembly of section .text._ZN4core3num21_$LT$impl$u20$u16$GT$5to_be17h761124024c578678E:

00000000 <core::num::<impl u16>::to_be>:
_ZN4core3num21_$LT$impl$u20$u16$GT$5to_be17h761124024c578678E():
/rustc/50a0defd5a93523067ef239936cc2e0755220904/src/libcore/num/mod.rs:2616
   0:	b580      	push	{r7, lr}
   2:	b084      	sub	sp, #16
   4:	4601      	mov	r1, r0
   6:	f8ad 000e 	strh.w	r0, [sp, #14]
/rustc/50a0defd5a93523067ef239936cc2e0755220904/src/libcore/num/mod.rs:2623
   a:	f8bd 000e 	ldrh.w	r0, [sp, #14]
   e:	9102      	str	r1, [sp, #8]
  10:	f7ff fffe 	bl	0 <core::num::<impl u16>::to_be>
  14:	9001      	str	r0, [sp, #4]
  16:	e7ff      	b.n	18 <core::num::<impl u16>::to_be+0x18>
/rustc/50a0defd5a93523067ef239936cc2e0755220904/src/libcore/num/mod.rs:2625
  18:	9801      	ldr	r0, [sp, #4]
  1a:	b004      	add	sp, #16
  1c:	bd80      	pop	{r7, pc}

app-b8434b356de0ea5d.35b8gycmn554xvz5.rcgu.o:     file format elf32-littlearm

SYMBOL TABLE:
00000000 l    df *ABS*	00000000 35b8gycmn554xvz5
000001b4 l       .debug_str	00000000 
0000023e l       .debug_str	00000000 
00000240 l       .debug_str	00000000 
00000245 l       .debug_str	00000000 
00000249 l       .debug_str	00000000 
00000254 l       .debug_str	00000000 
00000259 l       .debug_str	00000000 
00000000 l       .debug_str	00000000 
00000041 l       .debug_str	00000000 
00000055 l       .debug_str	00000000 
00000085 l       .debug_str	00000000 
00000090 l       .debug_str	00000000 
0000009c l       .debug_str	00000000 
0000009f l       .debug_str	00000000 
000000a3 l       .debug_str	00000000 
000000ab l       .debug_str	00000000 
000000b1 l       .debug_str	00000000 
000000b7 l       .debug_str	00000000 
000000bd l       .debug_str	00000000 
000000c4 l       .debug_str	00000000 
000000ca l       .debug_str	00000000 
000000d0 l       .debug_str	00000000 
000000d7 l       .debug_str	00000000 
000000dd l       .debug_str	00000000 
000000e5 l       .debug_str	00000000 
000000ec l       .debug_str	00000000 
000000f2 l       .debug_str	00000000 
000000f8 l       .debug_str	00000000 
000000fe l       .debug_str	00000000 
00000104 l       .debug_str	00000000 
0000010a l       .debug_str	00000000 
00000111 l       .debug_str	00000000 
00000118 l       .debug_str	00000000 
00000120 l       .debug_str	00000000 
00000128 l       .debug_str	00000000 
00000130 l       .debug_str	00000000 
00000137 l       .debug_str	00000000 
0000013f l       .debug_str	00000000 
00000146 l       .debug_str	00000000 
0000014d l       .debug_str	00000000 
00000154 l       .debug_str	00000000 
0000015b l       .debug_str	00000000 
00000162 l       .debug_str	00000000 
00000169 l       .debug_str	00000000 
0000016f l       .debug_str	00000000 
00000175 l       .debug_str	00000000 
0000017b l       .debug_str	00000000 
00000181 l       .debug_str	00000000 
00000188 l       .debug_str	00000000 
00000190 l       .debug_str	00000000 
00000198 l       .debug_str	00000000 
000001a4 l       .debug_str	00000000 
000001af l       .debug_str	00000000 
000001c0 l       .debug_str	00000000 
000001c5 l       .debug_str	00000000 
00000201 l       .debug_str	00000000 
0000022d l       .debug_str	00000000 
00000232 l       .debug_str	00000000 
00000239 l       .debug_str	00000000 
00000000 l    d  .text._ZN10num_traits4cast11ToPrimitive5to_u817h24769e5d734e2a3eE	00000000 .text._ZN10num_traits4cast11ToPrimitive5to_u817h24769e5d734e2a3eE
00000000 l    d  .debug_abbrev	00000000 .debug_abbrev
00000000 l    d  .debug_info	00000000 .debug_info
00000000 l    d  .debug_frame	00000000 .debug_frame
00000000 l    d  .debug_line	00000000 .debug_line
00000000 g     F .text._ZN10num_traits4cast11ToPrimitive5to_u817h24769e5d734e2a3eE	0000003c num_traits::cast::ToPrimitive::to_u8
00000000         *UND*	00000000 st7735_lcd::instruction::_IMPL_NUM_ToPrimitive_FOR_Instruction::<impl num_traits::cast::ToPrimitive for st7735_lcd::instruction::Instruction>::to_u64
00000000         *UND*	00000000 core::option::Option<T>::as_ref
00000000         *UND*	00000000 core::option::Option<T>::and_then



Disassembly of section .text._ZN10num_traits4cast11ToPrimitive5to_u817h24769e5d734e2a3eE:

00000000 <num_traits::cast::ToPrimitive::to_u8>:
_ZN10num_traits4cast11ToPrimitive5to_u817h24769e5d734e2a3eE():
/Users/Luppy/.cargo/registry/src/github.com-1ecc6299db9ec823/num-traits-0.2.8/src/cast.rs:60
        self.to_u64().as_ref().and_then(ToPrimitive::to_usize)
    }

    /// Converts the value of `self` to an `u8`.
    #[inline]
    fn to_u8(&self) -> Option<u8> {
   0:	b580      	push	{r7, lr}
   2:	b08a      	sub	sp, #40	; 0x28
   4:	4601      	mov	r1, r0
   6:	9005      	str	r0, [sp, #20]
/Users/Luppy/.cargo/registry/src/github.com-1ecc6299db9ec823/num-traits-0.2.8/src/cast.rs:61
        self.to_u64().as_ref().and_then(ToPrimitive::to_u8)
   8:	9805      	ldr	r0, [sp, #20]
   a:	9104      	str	r1, [sp, #16]
   c:	f7ff fffe 	bl	0 <st7735_lcd::instruction::_IMPL_NUM_ToPrimitive_FOR_Instruction::<impl num_traits::cast::ToPrimitive for st7735_lcd::instruction::Instruction>::to_u64>
  10:	9309      	str	r3, [sp, #36]	; 0x24
  12:	9208      	str	r2, [sp, #32]
  14:	9107      	str	r1, [sp, #28]
  16:	9006      	str	r0, [sp, #24]
  18:	e7ff      	b.n	1a <num_traits::cast::ToPrimitive::to_u8+0x1a>
  1a:	a806      	add	r0, sp, #24
  1c:	f7ff fffe 	bl	0 <core::option::Option<T>::as_ref>
  20:	9003      	str	r0, [sp, #12]
  22:	e7ff      	b.n	24 <num_traits::cast::ToPrimitive::to_u8+0x24>
  24:	9803      	ldr	r0, [sp, #12]
  26:	f7ff fffe 	bl	0 <core::option::Option<T>::and_then>
  2a:	9002      	str	r0, [sp, #8]
  2c:	9101      	str	r1, [sp, #4]
  2e:	e7ff      	b.n	30 <num_traits::cast::ToPrimitive::to_u8+0x30>
/Users/Luppy/.cargo/registry/src/github.com-1ecc6299db9ec823/num-traits-0.2.8/src/cast.rs:62
    }
  30:	9802      	ldr	r0, [sp, #8]
  32:	f000 0001 	and.w	r0, r0, #1
  36:	9901      	ldr	r1, [sp, #4]
  38:	b00a      	add	sp, #40	; 0x28
  3a:	bd80      	pop	{r7, pc}

app-b8434b356de0ea5d.3duxu2489k4fs6d1.rcgu.o:     file format elf32-littlearm

SYMBOL TABLE:
00000000 l    df *ABS*	00000000 3duxu2489k4fs6d1
0000024f l       .debug_str	00000000 
000001d1 l       .debug_str	00000000 
000001da l       .debug_str	00000000 
000001e0 l       .debug_str	00000000 
0000024a l       .debug_str	00000000 
00000256 l       .debug_str	00000000 
0000025a l       .debug_str	00000000 
0000025f l       .debug_str	00000000 
00000264 l       .debug_str	00000000 
00000269 l       .debug_str	00000000 
0000026d l       .debug_str	00000000 
0000027a l       .debug_str	00000000 
00000000 l       .debug_str	00000000 
00000041 l       .debug_str	00000000 
00000055 l       .debug_str	00000000 
00000085 l       .debug_str	00000000 
0000008a l       .debug_str	00000000 
0000008e l       .debug_str	00000000 
00000097 l       .debug_str	00000000 
000000d8 l       .debug_str	00000000 
000000e1 l       .debug_str	00000000 
000000ea l       .debug_str	00000000 
000000ed l       .debug_str	00000000 
000000f7 l       .debug_str	00000000 
000000fe l       .debug_str	00000000 
00000104 l       .debug_str	00000000 
0000010a l       .debug_str	00000000 
0000010f l       .debug_str	00000000 
00000114 l       .debug_str	00000000 
00000150 l       .debug_str	00000000 
00000154 l       .debug_str	00000000 
00000192 l       .debug_str	00000000 
00000198 l       .debug_str	00000000 
0000019d l       .debug_str	00000000 
000001a3 l       .debug_str	00000000 
000001a7 l       .debug_str	00000000 
000001ab l       .debug_str	00000000 
000001b3 l       .debug_str	00000000 
000001ba l       .debug_str	00000000 
000001be l       .debug_str	00000000 
000001c0 l       .debug_str	00000000 
00000000 l    d  .text._ZN4core3str21_$LT$impl$u20$str$GT$3len17h41f4fbf078b88dadE	00000000 .text._ZN4core3str21_$LT$impl$u20$str$GT$3len17h41f4fbf078b88dadE
00000000 l    d  .text._ZN4core3str21_$LT$impl$u20$str$GT$5chars17hcff6238f540937e9E	00000000 .text._ZN4core3str21_$LT$impl$u20$str$GT$5chars17hcff6238f540937e9E
00000000 l    d  .text._ZN75_$LT$core..str..Chars$u20$as$u20$core..iter..traits..iterator..Iterator$GT$4next17h1127ebd6518aabcfE	00000000 .text._ZN75_$LT$core..str..Chars$u20$as$u20$core..iter..traits..iterator..Iterator$GT$4next17h1127ebd6518aabcfE
00000000 l    d  .debug_abbrev	00000000 .debug_abbrev
00000000 l    d  .debug_info	00000000 .debug_info
00000000 l    d  .debug_ranges	00000000 .debug_ranges
00000000 l    d  .debug_frame	00000000 .debug_frame
00000000 l    d  .debug_line	00000000 .debug_line
00000000         *UND*	00000000 core::str::next_code_point
00000000 g     F .text._ZN4core3str21_$LT$impl$u20$str$GT$3len17h41f4fbf078b88dadE	0000003c .hidden core::str::<impl str>::len
00000000 g     F .text._ZN4core3str21_$LT$impl$u20$str$GT$5chars17hcff6238f540937e9E	00000048 .hidden core::str::<impl str>::chars
00000000         *UND*	00000000 core::slice::<impl [T]>::len
00000000         *UND*	00000000 core::slice::<impl [T]>::iter
00000000         *UND*	00000000 core::option::Option<T>::map
00000000 g     F .text._ZN75_$LT$core..str..Chars$u20$as$u20$core..iter..traits..iterator..Iterator$GT$4next17h1127ebd6518aabcfE	00000028 .hidden <core::str::Chars as core::iter::traits::iterator::Iterator>::next



Disassembly of section .text._ZN4core3str21_$LT$impl$u20$str$GT$3len17h41f4fbf078b88dadE:

00000000 <core::str::<impl str>::len>:
_ZN4core3str21_$LT$impl$u20$str$GT$3len17h41f4fbf078b88dadE():
/rustc/50a0defd5a93523067ef239936cc2e0755220904/src/libcore/str/mod.rs:2070
   0:	b580      	push	{r7, lr}
   2:	b08c      	sub	sp, #48	; 0x30
   4:	460a      	mov	r2, r1
   6:	4603      	mov	r3, r0
   8:	9006      	str	r0, [sp, #24]
   a:	9107      	str	r1, [sp, #28]
/rustc/50a0defd5a93523067ef239936cc2e0755220904/src/libcore/str/mod.rs:2071
   c:	9806      	ldr	r0, [sp, #24]
   e:	9907      	ldr	r1, [sp, #28]
  10:	9008      	str	r0, [sp, #32]
  12:	9109      	str	r1, [sp, #36]	; 0x24
_ZN4core3str21_$LT$impl$u20$str$GT$8as_bytes17hbca31947ef6ad219E():
/rustc/50a0defd5a93523067ef239936cc2e0755220904/src/libcore/str/mod.rs:2153
  14:	9808      	ldr	r0, [sp, #32]
  16:	9909      	ldr	r1, [sp, #36]	; 0x24
  18:	900a      	str	r0, [sp, #40]	; 0x28
  1a:	910b      	str	r1, [sp, #44]	; 0x2c
  1c:	980a      	ldr	r0, [sp, #40]	; 0x28
  1e:	990b      	ldr	r1, [sp, #44]	; 0x2c
_ZN4core3str21_$LT$impl$u20$str$GT$3len17h41f4fbf078b88dadE():
/rustc/50a0defd5a93523067ef239936cc2e0755220904/src/libcore/str/mod.rs:2071
  20:	9205      	str	r2, [sp, #20]
  22:	9304      	str	r3, [sp, #16]
  24:	9003      	str	r0, [sp, #12]
  26:	9102      	str	r1, [sp, #8]
  28:	e7ff      	b.n	2a <core::str::<impl str>::len+0x2a>
  2a:	9803      	ldr	r0, [sp, #12]
  2c:	9902      	ldr	r1, [sp, #8]
  2e:	f7ff fffe 	bl	0 <core::slice::<impl [T]>::len>
  32:	9001      	str	r0, [sp, #4]
  34:	e7ff      	b.n	36 <core::str::<impl str>::len+0x36>
/rustc/50a0defd5a93523067ef239936cc2e0755220904/src/libcore/str/mod.rs:2072
  36:	9801      	ldr	r0, [sp, #4]
  38:	b00c      	add	sp, #48	; 0x30
  3a:	bd80      	pop	{r7, pc}

Disassembly of section .text._ZN4core3str21_$LT$impl$u20$str$GT$5chars17hcff6238f540937e9E:

00000000 <core::str::<impl str>::chars>:
_ZN4core3str21_$LT$impl$u20$str$GT$5chars17hcff6238f540937e9E():
/rustc/50a0defd5a93523067ef239936cc2e0755220904/src/libcore/str/mod.rs:2583
   0:	b580      	push	{r7, lr}
   2:	b08e      	sub	sp, #56	; 0x38
   4:	460a      	mov	r2, r1
   6:	4603      	mov	r3, r0
   8:	9006      	str	r0, [sp, #24]
   a:	9107      	str	r1, [sp, #28]
/rustc/50a0defd5a93523067ef239936cc2e0755220904/src/libcore/str/mod.rs:2584
   c:	9806      	ldr	r0, [sp, #24]
   e:	9907      	ldr	r1, [sp, #28]
  10:	900a      	str	r0, [sp, #40]	; 0x28
  12:	910b      	str	r1, [sp, #44]	; 0x2c
_ZN4core3str21_$LT$impl$u20$str$GT$8as_bytes17hbca31947ef6ad219E():
/rustc/50a0defd5a93523067ef239936cc2e0755220904/src/libcore/str/mod.rs:2153
  14:	980a      	ldr	r0, [sp, #40]	; 0x28
  16:	990b      	ldr	r1, [sp, #44]	; 0x2c
  18:	900c      	str	r0, [sp, #48]	; 0x30
  1a:	910d      	str	r1, [sp, #52]	; 0x34
  1c:	980c      	ldr	r0, [sp, #48]	; 0x30
  1e:	990d      	ldr	r1, [sp, #52]	; 0x34
_ZN4core3str21_$LT$impl$u20$str$GT$5chars17hcff6238f540937e9E():
/rustc/50a0defd5a93523067ef239936cc2e0755220904/src/libcore/str/mod.rs:2584
  20:	9205      	str	r2, [sp, #20]
  22:	9304      	str	r3, [sp, #16]
  24:	9003      	str	r0, [sp, #12]
  26:	9102      	str	r1, [sp, #8]
  28:	e7ff      	b.n	2a <core::str::<impl str>::chars+0x2a>
  2a:	9803      	ldr	r0, [sp, #12]
  2c:	9902      	ldr	r1, [sp, #8]
  2e:	f7ff fffe 	bl	0 <core::slice::<impl [T]>::iter>
  32:	9001      	str	r0, [sp, #4]
  34:	9100      	str	r1, [sp, #0]
  36:	e7ff      	b.n	38 <core::str::<impl str>::chars+0x38>
  38:	9801      	ldr	r0, [sp, #4]
  3a:	9008      	str	r0, [sp, #32]
  3c:	9900      	ldr	r1, [sp, #0]
  3e:	9109      	str	r1, [sp, #36]	; 0x24
/rustc/50a0defd5a93523067ef239936cc2e0755220904/src/libcore/str/mod.rs:2585
  40:	9808      	ldr	r0, [sp, #32]
  42:	9909      	ldr	r1, [sp, #36]	; 0x24
  44:	b00e      	add	sp, #56	; 0x38
  46:	bd80      	pop	{r7, pc}

Disassembly of section .text._ZN75_$LT$core..str..Chars$u20$as$u20$core..iter..traits..iterator..Iterator$GT$4next17h1127ebd6518aabcfE:

00000000 <<core::str::Chars as core::iter::traits::iterator::Iterator>::next>:
_ZN75_$LT$core..str..Chars$u20$as$u20$core..iter..traits..iterator..Iterator$GT$4next17h1127ebd6518aabcfE():
/rustc/50a0defd5a93523067ef239936cc2e0755220904/src/libcore/str/mod.rs:567
   0:	b580      	push	{r7, lr}
   2:	b086      	sub	sp, #24
   4:	4601      	mov	r1, r0
   6:	9004      	str	r0, [sp, #16]
/rustc/50a0defd5a93523067ef239936cc2e0755220904/src/libcore/str/mod.rs:568
   8:	9804      	ldr	r0, [sp, #16]
   a:	9103      	str	r1, [sp, #12]
   c:	f7ff fffe 	bl	0 <core::str::next_code_point>
  10:	9002      	str	r0, [sp, #8]
  12:	9101      	str	r1, [sp, #4]
  14:	e7ff      	b.n	16 <<core::str::Chars as core::iter::traits::iterator::Iterator>::next+0x16>
  16:	9802      	ldr	r0, [sp, #8]
  18:	9901      	ldr	r1, [sp, #4]
  1a:	f7ff fffe 	bl	0 <core::option::Option<T>::map>
  1e:	9000      	str	r0, [sp, #0]
  20:	e7ff      	b.n	22 <<core::str::Chars as core::iter::traits::iterator::Iterator>::next+0x22>
/rustc/50a0defd5a93523067ef239936cc2e0755220904/src/libcore/str/mod.rs:574
  22:	9800      	ldr	r0, [sp, #0]
  24:	b006      	add	sp, #24
  26:	bd80      	pop	{r7, pc}

app-b8434b356de0ea5d.3j5s3n1ccuhe5j8s.rcgu.o:     file format elf32-littlearm

SYMBOL TABLE:
00000000 l    df *ABS*	00000000 3j5s3n1ccuhe5j8s
0000013b l       .debug_str	00000000 
00000000 l       .debug_str	00000000 
00000041 l       .debug_str	00000000 
00000055 l       .debug_str	00000000 
00000085 l       .debug_str	00000000 
0000008a l       .debug_str	00000000 
00000091 l       .debug_str	00000000 
0000009a l       .debug_str	00000000 
00000177 l       .debug_str	00000000 
000000ac l       .debug_str	00000000 
000000b2 l       .debug_str	00000000 
000000bc l       .debug_str	00000000 
000000ca l       .debug_str	00000000 
000000cc l       .debug_str	00000000 
00000000 l    d  .text._ZN77_$LT$core..marker..PhantomData$LT$T$GT$$u20$as$u20$core..default..Default$GT$7default17hf27e8efeb08536adE	00000000 .text._ZN77_$LT$core..marker..PhantomData$LT$T$GT$$u20$as$u20$core..default..Default$GT$7default17hf27e8efeb08536adE
00000000 l    d  .debug_abbrev	00000000 .debug_abbrev
00000000 l    d  .debug_info	00000000 .debug_info
00000000 l    d  .debug_frame	00000000 .debug_frame
00000000 l    d  .debug_line	00000000 .debug_line
00000000 g     F .text._ZN77_$LT$core..marker..PhantomData$LT$T$GT$$u20$as$u20$core..default..Default$GT$7default17hf27e8efeb08536adE	00000002 <core::marker::PhantomData<T> as core::default::Default>::default



Disassembly of section .text._ZN77_$LT$core..marker..PhantomData$LT$T$GT$$u20$as$u20$core..default..Default$GT$7default17hf27e8efeb08536adE:

00000000 <<core::marker::PhantomData<T> as core::default::Default>::default>:
_ZN77_$LT$core..marker..PhantomData$LT$T$GT$$u20$as$u20$core..default..Default$GT$7default17hf27e8efeb08536adE():
/rustc/50a0defd5a93523067ef239936cc2e0755220904/src/libcore/marker.rs:432
   0:	4770      	bx	lr

app-b8434b356de0ea5d.3jn3ml4cjsgi16hg.rcgu.o:     file format elf32-littlearm

SYMBOL TABLE:
00000000 l    df *ABS*	00000000 3jn3ml4cjsgi16hg
000003ca l       .debug_str	00000000 
000004c1 l       .debug_str	00000000 
000004c7 l       .debug_str	00000000 
000004cc l       .debug_str	00000000 
000004d2 l       .debug_str	00000000 
000004d9 l       .debug_str	00000000 
000004e3 l       .debug_str	00000000 
000004f1 l       .debug_str	00000000 
00000531 l       .debug_str	00000000 
00000536 l       .debug_str	00000000 
000005a5 l       .debug_str	00000000 
000005ab l       .debug_str	00000000 
00000000 l       .debug_str	00000000 
00000041 l       .debug_str	00000000 
00000055 l       .debug_str	00000000 
00000085 l       .debug_str	00000000 
00000089 l       .debug_str	00000000 
00000091 l       .debug_str	00000000 
0000009e l       .debug_str	00000000 
000000a5 l       .debug_str	00000000 
000000a8 l       .debug_str	00000000 
000000ac l       .debug_str	00000000 
000000b6 l       .debug_str	00000000 
000000b9 l       .debug_str	00000000 
000000c4 l       .debug_str	00000000 
000000ce l       .debug_str	00000000 
000000d7 l       .debug_str	00000000 
000000db l       .debug_str	00000000 
000000ec l       .debug_str	00000000 
0000011e l       .debug_str	00000000 
00000125 l       .debug_str	00000000 
00000129 l       .debug_str	00000000 
00000131 l       .debug_str	00000000 
0000013c l       .debug_str	00000000 
00000147 l       .debug_str	00000000 
00000154 l       .debug_str	00000000 
0000015f l       .debug_str	00000000 
00000167 l       .debug_str	00000000 
00000172 l       .debug_str	00000000 
0000017d l       .debug_str	00000000 
00000187 l       .debug_str	00000000 
00000192 l       .debug_str	00000000 
0000019d l       .debug_str	00000000 
000001aa l       .debug_str	00000000 
000001b6 l       .debug_str	00000000 
000001c3 l       .debug_str	00000000 
000001d1 l       .debug_str	00000000 
000001db l       .debug_str	00000000 
000001e8 l       .debug_str	00000000 
000001f4 l       .debug_str	00000000 
0000021d l       .debug_str	00000000 
00000222 l       .debug_str	00000000 
00000227 l       .debug_str	00000000 
0000022a l       .debug_str	00000000 
0000022e l       .debug_str	00000000 
00000231 l       .debug_str	00000000 
00000233 l       .debug_str	00000000 
00000235 l       .debug_str	00000000 
00000239 l       .debug_str	00000000 
00000261 l       .debug_str	00000000 
00000265 l       .debug_str	00000000 
00000270 l       .debug_str	00000000 
00000278 l       .debug_str	00000000 
0000027f l       .debug_str	00000000 
00000289 l       .debug_str	00000000 
0000028c l       .debug_str	00000000 
00000290 l       .debug_str	00000000 
0000029b l       .debug_str	00000000 
0000029f l       .debug_str	00000000 
000002aa l       .debug_str	00000000 
000002ae l       .debug_str	00000000 
000002b3 l       .debug_str	00000000 
000002bc l       .debug_str	00000000 
000002bf l       .debug_str	00000000 
000002c3 l       .debug_str	00000000 
000002c6 l       .debug_str	00000000 
000002ca l       .debug_str	00000000 
000002cd l       .debug_str	00000000 
000002d1 l       .debug_str	00000000 
0000032e l       .debug_str	00000000 
00000338 l       .debug_str	00000000 
0000033c l       .debug_str	00000000 
0000033e l       .debug_str	00000000 
00000350 l       .debug_str	00000000 
0000035b l       .debug_str	00000000 
00000362 l       .debug_str	00000000 
00000369 l       .debug_str	00000000 
0000036f l       .debug_str	00000000 
0000037e l       .debug_str	00000000 
00000382 l       .debug_str	00000000 
00000388 l       .debug_str	00000000 
0000038f l       .debug_str	00000000 
00000395 l       .debug_str	00000000 
000003a0 l       .debug_str	00000000 
000003a7 l       .debug_str	00000000 
000003ac l       .debug_str	00000000 
000003b7 l       .debug_str	00000000 
000003be l       .debug_str	00000000 
000003c5 l       .debug_str	00000000 
00000400 l       .debug_str	00000000 
0000040d l       .debug_str	00000000 
0000041a l       .debug_str	00000000 
0000041c l       .debug_str	00000000 
00000451 l       .debug_str	00000000 
00000453 l       .debug_str	00000000 
00000489 l       .debug_str	00000000 
0000048b l       .debug_str	00000000 
00000491 l       .debug_str	00000000 
0000049e l       .debug_str	00000000 
000004a2 l       .debug_str	00000000 
000004a7 l       .debug_str	00000000 
000004b0 l       .debug_str	00000000 
000004ba l       .debug_str	00000000 
00000000 l     O .rodata..Lanon.2853127beb58ea5154c9cbfbed7b91e2.0	00000011 .Lanon.2853127beb58ea5154c9cbfbed7b91e2.0
00000000 l     O .rodata..Lanon.2853127beb58ea5154c9cbfbed7b91e2.1	00000001 .Lanon.2853127beb58ea5154c9cbfbed7b91e2.1
00000000 l     O .data._ZN3app7display12SPI_SETTINGS17he720d68fcb0f9f1dE	00000008 app::display::SPI_SETTINGS
00000000 l    d  .text._ZN3app7display4show17hff9baa1b984cacacE	00000000 .text._ZN3app7display4show17hff9baa1b984cacacE
00000000 l    d  .data._ZN3app7display12SPI_SETTINGS17he720d68fcb0f9f1dE	00000000 .data._ZN3app7display12SPI_SETTINGS17he720d68fcb0f9f1dE
00000000 l    d  .debug_abbrev	00000000 .debug_abbrev
00000000 l    d  .debug_info	00000000 .debug_info
00000000 l    d  .debug_ranges	00000000 .debug_ranges
00000000 l    d  .debug_frame	00000000 .debug_frame
00000000 l    d  .debug_line	00000000 .debug_line
00000000         *UND*	00000000 st7735_lcd::ST7735<SPI,DC,RST>::set_offset
00000000         *UND*	00000000 st7735_lcd::ST7735<SPI,DC,RST>::set_orientation
00000000         *UND*	00000000 st7735_lcd::ST7735<SPI,DC,RST>::new
00000000         *UND*	00000000 st7735_lcd::ST7735<SPI,DC,RST>::init
00000000         *UND*	00000000 <embedded_graphics::primitives::circle::Circle<C> as embedded_graphics::style::WithStyle<C>>::fill
00000000         *UND*	00000000 <embedded_graphics::fonts::font_builder::FontBuilder<C,Conf> as embedded_graphics::fonts::Font<C>>::render_str
00000000         *UND*	00000000 <embedded_graphics::fonts::font_builder::FontBuilder<C,Conf> as embedded_graphics::transform::Transform>::translate
00000000         *UND*	00000000 <embedded_graphics::fonts::font_builder::FontBuilder<C,Conf> as embedded_graphics::style::WithStyle<C>>::fill
00000000         *UND*	00000000 <st7735_lcd::ST7735<SPI,DC,RST> as embedded_graphics::Drawing<embedded_graphics::pixelcolor::rgb565::Rgb565>>::draw
00000000         *UND*	00000000 <st7735_lcd::ST7735<SPI,DC,RST> as embedded_graphics::Drawing<embedded_graphics::pixelcolor::rgb565::Rgb565>>::draw
00000000         *UND*	00000000 embedded_graphics::primitives::circle::Circle<C>::new
00000000         *UND*	00000000 embedded_graphics::coord::internal_coord::Coord::new
00000000         *UND*	00000000 .hidden app::mynewt_hal::MynewtGPIO::new
00000000         *UND*	00000000 .hidden app::mynewt_hal::MynewtSPI::new
00000000 g     F .text._ZN3app7display4show17hff9baa1b984cacacE	0000022c .hidden app::display::show
00000000         *UND*	00000000 <T as core::convert::From<T>>::from
00000000         *UND*	00000000 <core::result::Result<T,E> as core::ops::try::Try>::from_error
00000000         *UND*	00000000 <core::result::Result<T,E> as core::ops::try::Try>::into_result
00000000         *UND*	00000000 <core::result::Result<T,E> as core::ops::try::Try>::into_result
00000000         *UND*	00000000 <mynewt::result::MynewtError as core::convert::From<()>>::from
00000000         *UND*	00000000 <app::mynewt_hal::MynewtGPIO as embedded_hal::digital::v2::OutputPin>::set_low
00000000         *UND*	00000000 <embedded_graphics::pixelcolor::rgb565::Rgb565 as core::convert::From<u8>>::from



Disassembly of section .text._ZN3app7display4show17hff9baa1b984cacacE:

00000000 <app::display::show>:
_ZN3app7display4show17hff9baa1b984cacacE():
/Users/Luppy/mynewt/stm32bluepill-mynewt-sensor/rust/app/src/display.rs:46
    baudrate:   8000,  //  In kHZ. Use SPI at 8MHz (the fastest clock available on the nRF52832) because otherwise refreshing will be super slow.
    word_size:  hal::HAL_SPI_WORD_SIZE_8BIT as u8,
};

/// Render the ST7789 display connected to SPI port 0
pub fn show() -> MynewtResult<()> {
   0:	b570      	push	{r4, r5, r6, lr}
   2:	b0d8      	sub	sp, #352	; 0x160
/Users/Luppy/mynewt/stm32bluepill-mynewt-sensor/rust/app/src/display.rs:48
    //  Create SPI port and GPIO pins
    let spi = MynewtSPI::new(
   4:	f240 0200 	movw	r2, #0
   8:	f2c0 0200 	movt	r2, #0
   c:	2000      	movs	r0, #0
   e:	2119      	movs	r1, #25
  10:	f7ff fffe 	bl	0 <app::mynewt_hal::MynewtSPI::new>
  14:	9115      	str	r1, [sp, #84]	; 0x54
  16:	9014      	str	r0, [sp, #80]	; 0x50
  18:	e7ff      	b.n	1a <app::display::show+0x1a>
  1a:	2012      	movs	r0, #18
/Users/Luppy/mynewt/stm32bluepill-mynewt-sensor/rust/app/src/display.rs:53
        0,   //  Mynewt SPI port 0
        25,  //  LCD_CS (P0.25): Chip select
        unsafe { &mut SPI_SETTINGS }
    );
    let dc =  MynewtGPIO::new(18);  //  LCD_RS (P0.18): Clock/data pin (CD)
  1c:	f7ff fffe 	bl	0 <app::mynewt_hal::MynewtGPIO::new>
  20:	9016      	str	r0, [sp, #88]	; 0x58
  22:	e7ff      	b.n	24 <app::display::show+0x24>
  24:	201a      	movs	r0, #26
/Users/Luppy/mynewt/stm32bluepill-mynewt-sensor/rust/app/src/display.rs:54
    let rst = MynewtGPIO::new(26);  //  LCD_RESET (P0.26): Display reset
  26:	f7ff fffe 	bl	0 <app::mynewt_hal::MynewtGPIO::new>
  2a:	9017      	str	r0, [sp, #92]	; 0x5c
  2c:	e7ff      	b.n	2e <app::display::show+0x2e>
/Users/Luppy/mynewt/stm32bluepill-mynewt-sensor/rust/app/src/display.rs:58

    //  Create display driver for SPI port 0
    let mut display = st7735_lcd::ST7735::new(
        spi, dc, rst, false, true
  2e:	9914      	ldr	r1, [sp, #80]	; 0x50
  30:	9a15      	ldr	r2, [sp, #84]	; 0x54
  32:	9b16      	ldr	r3, [sp, #88]	; 0x58
  34:	9817      	ldr	r0, [sp, #92]	; 0x5c
/Users/Luppy/mynewt/stm32bluepill-mynewt-sensor/rust/app/src/display.rs:57
    let mut display = st7735_lcd::ST7735::new(
  36:	46ec      	mov	ip, sp
  38:	f04f 0e01 	mov.w	lr, #1
  3c:	f8cc e008 	str.w	lr, [ip, #8]
  40:	f04f 0e00 	mov.w	lr, #0
  44:	f8cc e004 	str.w	lr, [ip, #4]
  48:	f8cc 0000 	str.w	r0, [ip]
  4c:	a818      	add	r0, sp, #96	; 0x60
  4e:	f7ff fffe 	bl	0 <st7735_lcd::ST7735<SPI,DC,RST>::new>
  52:	e7ff      	b.n	54 <app::display::show+0x54>
  54:	2017      	movs	r0, #23
/Users/Luppy/mynewt/stm32bluepill-mynewt-sensor/rust/app/src/display.rs:62
    );

    //  Switch on the backlight
    let mut backlight = MynewtGPIO::new(23);  //  LCD_BACKLIGHT_{LOW,MID,HIGH} (P0.14, 22, 23):	Backlight (active low)
  56:	f7ff fffe 	bl	0 <app::mynewt_hal::MynewtGPIO::new>
  5a:	901e      	str	r0, [sp, #120]	; 0x78
  5c:	e7ff      	b.n	5e <app::display::show+0x5e>
  5e:	a81e      	add	r0, sp, #120	; 0x78
/Users/Luppy/mynewt/stm32bluepill-mynewt-sensor/rust/app/src/display.rs:63
    backlight.set_low() ? ;
  60:	f7ff fffe 	bl	0 <<app::mynewt_hal::MynewtGPIO as embedded_hal::digital::v2::OutputPin>::set_low>
  64:	9012      	str	r0, [sp, #72]	; 0x48
  66:	e7ff      	b.n	68 <app::display::show+0x68>
  68:	9812      	ldr	r0, [sp, #72]	; 0x48
  6a:	f7ff fffe 	bl	0 <<core::result::Result<T,E> as core::ops::try::Try>::into_result>
  6e:	901f      	str	r0, [sp, #124]	; 0x7c
  70:	e7ff      	b.n	72 <app::display::show+0x72>
  72:	981f      	ldr	r0, [sp, #124]	; 0x7c
  74:	1e41      	subs	r1, r0, #1
  76:	bf18      	it	ne
  78:	2101      	movne	r1, #1
  7a:	2801      	cmp	r0, #1
  7c:	9111      	str	r1, [sp, #68]	; 0x44
  7e:	d016      	beq.n	ae <app::display::show+0xae>
  80:	e7ff      	b.n	82 <app::display::show+0x82>
  82:	9811      	ldr	r0, [sp, #68]	; 0x44
  84:	2801      	cmp	r0, #1
  86:	d001      	beq.n	8c <app::display::show+0x8c>
  88:	e7ff      	b.n	8a <app::display::show+0x8a>
/Users/Luppy/mynewt/stm32bluepill-mynewt-sensor/rust/app/src/lib.rs:1
/*
  8a:	defe      	udf	#254	; 0xfe
/Users/Luppy/mynewt/stm32bluepill-mynewt-sensor/rust/app/src/display.rs:63
  8c:	981f      	ldr	r0, [sp, #124]	; 0x7c
  8e:	9020      	str	r0, [sp, #128]	; 0x80
  90:	9820      	ldr	r0, [sp, #128]	; 0x80
  92:	f7ff fffe 	bl	0 <<T as core::convert::From<T>>::from>
  96:	9010      	str	r0, [sp, #64]	; 0x40
  98:	e7ff      	b.n	9a <app::display::show+0x9a>
  9a:	9810      	ldr	r0, [sp, #64]	; 0x40
  9c:	f7ff fffe 	bl	0 <<core::result::Result<T,E> as core::ops::try::Try>::from_error>
  a0:	9013      	str	r0, [sp, #76]	; 0x4c
  a2:	e7ff      	b.n	a4 <app::display::show+0xa4>
  a4:	e002      	b.n	ac <app::display::show+0xac>
/Users/Luppy/mynewt/stm32bluepill-mynewt-sensor/rust/app/src/lib.rs:1
  a6:	9813      	ldr	r0, [sp, #76]	; 0x4c
  a8:	b058      	add	sp, #352	; 0x160
  aa:	bd70      	pop	{r4, r5, r6, pc}
/Users/Luppy/mynewt/stm32bluepill-mynewt-sensor/rust/app/src/display.rs:63
  ac:	e7fb      	b.n	a6 <app::display::show+0xa6>
  ae:	2028      	movs	r0, #40	; 0x28
/Users/Luppy/mynewt/stm32bluepill-mynewt-sensor/rust/app/src/display.rs:66

    //  Create circle
    let c = Circle::<Rgb565>::new(Coord::new(40, 40), 40)
  b0:	900f      	str	r0, [sp, #60]	; 0x3c
  b2:	990f      	ldr	r1, [sp, #60]	; 0x3c
  b4:	f7ff fffe 	bl	0 <embedded_graphics::coord::internal_coord::Coord::new>
  b8:	900e      	str	r0, [sp, #56]	; 0x38
  ba:	910d      	str	r1, [sp, #52]	; 0x34
  bc:	e7ff      	b.n	be <app::display::show+0xbe>
  be:	a828      	add	r0, sp, #160	; 0xa0
  c0:	2328      	movs	r3, #40	; 0x28
  c2:	990e      	ldr	r1, [sp, #56]	; 0x38
  c4:	9a0d      	ldr	r2, [sp, #52]	; 0x34
  c6:	f7ff fffe 	bl	0 <embedded_graphics::primitives::circle::Circle<C>::new>
  ca:	e7ff      	b.n	cc <app::display::show+0xcc>
  cc:	2001      	movs	r0, #1
/Users/Luppy/mynewt/stm32bluepill-mynewt-sensor/rust/app/src/display.rs:67
        .fill(Some(Rgb565::from(1u8)));
  ce:	f7ff fffe 	bl	0 <<embedded_graphics::pixelcolor::rgb565::Rgb565 as core::convert::From<u8>>::from>
  d2:	900c      	str	r0, [sp, #48]	; 0x30
  d4:	e7ff      	b.n	d6 <app::display::show+0xd6>
  d6:	980c      	ldr	r0, [sp, #48]	; 0x30
  d8:	f8ad 00ba 	strh.w	r0, [sp, #186]	; 0xba
  dc:	2101      	movs	r1, #1
  de:	f8ad 10b8 	strh.w	r1, [sp, #184]	; 0xb8
/Users/Luppy/mynewt/stm32bluepill-mynewt-sensor/rust/app/src/display.rs:66
    let c = Circle::<Rgb565>::new(Coord::new(40, 40), 40)
  e2:	f8bd 30ba 	ldrh.w	r3, [sp, #186]	; 0xba
  e6:	f8bd 20b8 	ldrh.w	r2, [sp, #184]	; 0xb8
  ea:	a822      	add	r0, sp, #136	; 0x88
  ec:	a928      	add	r1, sp, #160	; 0xa0
  ee:	f7ff fffe 	bl	0 <<embedded_graphics::primitives::circle::Circle<C> as embedded_graphics::style::WithStyle<C>>::fill>
  f2:	e7ff      	b.n	2 <app::display::show+0x2>
/Users/Luppy/mynewt/stm32bluepill-mynewt-sensor/rust/app/src/display.rs:70

    //  Create text
    let t = fonts::Font12x16::<Rgb565>::render_str("I AM RUSTY BEACON")
  f4:	f240 0100 	movw	r1, #0
  f8:	f2c0 0100 	movt	r1, #0
  fc:	a83d      	add	r0, sp, #244	; 0xf4
  fe:	2211      	movs	r2, #17
 100:	f7ff fffe 	bl	0 <<embedded_graphics::fonts::font_builder::FontBuilder<C,Conf> as embedded_graphics::fonts::Font<C>>::render_str>
 104:	e7ff      	b.n	106 <app::display::show+0x106>
 106:	2014      	movs	r0, #20
/Users/Luppy/mynewt/stm32bluepill-mynewt-sensor/rust/app/src/display.rs:71
        .fill(Some(Rgb565::from(20u8)))
 108:	f7ff fffe 	bl	0 <<embedded_graphics::pixelcolor::rgb565::Rgb565 as core::convert::From<u8>>::from>
 10c:	900b      	str	r0, [sp, #44]	; 0x2c
 10e:	e7ff      	b.n	110 <app::display::show+0x110>
 110:	980b      	ldr	r0, [sp, #44]	; 0x2c
 112:	f8ad 0112 	strh.w	r0, [sp, #274]	; 0x112
 116:	2101      	movs	r1, #1
 118:	f8ad 1110 	strh.w	r1, [sp, #272]	; 0x110
/Users/Luppy/mynewt/stm32bluepill-mynewt-sensor/rust/app/src/display.rs:70
    let t = fonts::Font12x16::<Rgb565>::render_str("I AM RUSTY BEACON")
 11c:	f8bd 3112 	ldrh.w	r3, [sp, #274]	; 0x112
 120:	f8bd 2110 	ldrh.w	r2, [sp, #272]	; 0x110
 124:	a836      	add	r0, sp, #216	; 0xd8
 126:	a93d      	add	r1, sp, #244	; 0xf4
 128:	f7ff fffe 	bl	0 <<embedded_graphics::fonts::font_builder::FontBuilder<C,Conf> as embedded_graphics::style::WithStyle<C>>::fill>
 12c:	e7ff      	b.n	12e <app::display::show+0x12e>
 12e:	2014      	movs	r0, #20
 130:	2110      	movs	r1, #16
/Users/Luppy/mynewt/stm32bluepill-mynewt-sensor/rust/app/src/display.rs:72
        .translate(Coord::new(20, 16));
 132:	f7ff fffe 	bl	0 <embedded_graphics::coord::internal_coord::Coord::new>
 136:	900a      	str	r0, [sp, #40]	; 0x28
 138:	9109      	str	r1, [sp, #36]	; 0x24
 13a:	e7ff      	b.n	13c <app::display::show+0x13c>
 13c:	a82f      	add	r0, sp, #188	; 0xbc
 13e:	a936      	add	r1, sp, #216	; 0xd8
/Users/Luppy/mynewt/stm32bluepill-mynewt-sensor/rust/app/src/display.rs:70
    let t = fonts::Font12x16::<Rgb565>::render_str("I AM RUSTY BEACON")
 140:	9a0a      	ldr	r2, [sp, #40]	; 0x28
 142:	9b09      	ldr	r3, [sp, #36]	; 0x24
 144:	f7ff fffe 	bl	0 <<embedded_graphics::fonts::font_builder::FontBuilder<C,Conf> as embedded_graphics::transform::Transform>::translate>
 148:	e7ff      	b.n	14a <app::display::show+0x14a>
 14a:	a818      	add	r0, sp, #96	; 0x60
 14c:	a945      	add	r1, sp, #276	; 0x114
/Users/Luppy/mynewt/stm32bluepill-mynewt-sensor/rust/app/src/display.rs:76

    //  Init display
    let mut delay = MynewtDelay{};
    display.init(&mut delay) ? ;
 14e:	f7ff fffe 	bl	0 <st7735_lcd::ST7735<SPI,DC,RST>::init>
 152:	9008      	str	r0, [sp, #32]
 154:	e7ff      	b.n	156 <app::display::show+0x156>
 156:	9808      	ldr	r0, [sp, #32]
 158:	f000 0001 	and.w	r0, r0, #1
 15c:	f7ff fffe 	bl	0 <<core::result::Result<T,E> as core::ops::try::Try>::into_result>
 160:	f88d 0117 	strb.w	r0, [sp, #279]	; 0x117
 164:	e7ff      	b.n	166 <app::display::show+0x166>
 166:	f89d 0117 	ldrb.w	r0, [sp, #279]	; 0x117
 16a:	07c1      	lsls	r1, r0, #31
 16c:	2900      	cmp	r1, #0
 16e:	9007      	str	r0, [sp, #28]
 170:	d010      	beq.n	194 <app::display::show+0x194>
 172:	e7ff      	b.n	174 <app::display::show+0x174>
 174:	9807      	ldr	r0, [sp, #28]
 176:	2801      	cmp	r0, #1
 178:	f47f af87 	bne.w	8a <app::display::show+0x8a>
 17c:	e7ff      	b.n	2 <<mynewt::result::MynewtError as core::convert::From<()>>::from+0x2>
 17e:	f7ff fffe 	bl	0 <<mynewt::result::MynewtError as core::convert::From<()>>::from>
 182:	9006      	str	r0, [sp, #24]
 184:	e7ff      	b.n	186 <app::display::show+0x186>
 186:	9806      	ldr	r0, [sp, #24]
 188:	f7ff fffe 	bl	0 <<core::result::Result<T,E> as core::ops::try::Try>::from_error>
 18c:	9013      	str	r0, [sp, #76]	; 0x4c
 18e:	e7ff      	b.n	190 <app::display::show+0x190>
 190:	e7ff      	b.n	192 <app::display::show+0x192>
 192:	e78b      	b.n	ac <app::display::show+0xac>
/Users/Luppy/mynewt/stm32bluepill-mynewt-sensor/rust/app/src/display.rs:77
    display.set_orientation(&Orientation::Landscape) ? ;
 194:	f240 0100 	movw	r1, #0
 198:	f2c0 0100 	movt	r1, #0
 19c:	a818      	add	r0, sp, #96	; 0x60
 19e:	f7ff fffe 	bl	0 <st7735_lcd::ST7735<SPI,DC,RST>::set_orientation>
 1a2:	9005      	str	r0, [sp, #20]
 1a4:	e7ff      	b.n	1a6 <app::display::show+0x1a6>
 1a6:	9805      	ldr	r0, [sp, #20]
 1a8:	f000 0001 	and.w	r0, r0, #1
 1ac:	f7ff fffe 	bl	0 <<core::result::Result<T,E> as core::ops::try::Try>::into_result>
 1b0:	f88d 011f 	strb.w	r0, [sp, #287]	; 0x11f
 1b4:	e7ff      	b.n	1b6 <app::display::show+0x1b6>
 1b6:	f89d 011f 	ldrb.w	r0, [sp, #287]	; 0x11f
 1ba:	07c1      	lsls	r1, r0, #31
 1bc:	2900      	cmp	r1, #0
 1be:	9004      	str	r0, [sp, #16]
 1c0:	d00f      	beq.n	1e2 <app::display::show+0x1e2>
 1c2:	e7ff      	b.n	1c4 <app::display::show+0x1c4>
 1c4:	9804      	ldr	r0, [sp, #16]
 1c6:	2801      	cmp	r0, #1
 1c8:	f47f af5f 	bne.w	8a <app::display::show+0x8a>
 1cc:	e7ff      	b.n	2 <<mynewt::result::MynewtError as core::convert::From<()>>::from+0x2>
 1ce:	f7ff fffe 	bl	0 <<mynewt::result::MynewtError as core::convert::From<()>>::from>
 1d2:	9003      	str	r0, [sp, #12]
 1d4:	e7ff      	b.n	1d6 <app::display::show+0x1d6>
 1d6:	9803      	ldr	r0, [sp, #12]
 1d8:	f7ff fffe 	bl	0 <<core::result::Result<T,E> as core::ops::try::Try>::from_error>
 1dc:	9013      	str	r0, [sp, #76]	; 0x4c
 1de:	e7ff      	b.n	1e0 <app::display::show+0x1e0>
 1e0:	e7d7      	b.n	192 <app::display::show+0x192>
 1e2:	a818      	add	r0, sp, #96	; 0x60
 1e4:	2101      	movs	r1, #1
 1e6:	2219      	movs	r2, #25
/Users/Luppy/mynewt/stm32bluepill-mynewt-sensor/rust/app/src/display.rs:78
    display.set_offset(1, 25);
 1e8:	f7ff fffe 	bl	0 <st7735_lcd::ST7735<SPI,DC,RST>::set_offset>
 1ec:	e7ff      	b.n	1ee <app::display::show+0x1ee>
 1ee:	a822      	add	r0, sp, #136	; 0x88
 1f0:	a94a      	add	r1, sp, #296	; 0x128
/Users/Luppy/mynewt/stm32bluepill-mynewt-sensor/rust/app/src/display.rs:81

    //  Render circle and text to display
    display.draw(c);
 1f2:	460a      	mov	r2, r1
 1f4:	e890 5078 	ldmia.w	r0, {r3, r4, r5, r6, ip, lr}
 1f8:	e882 5078 	stmia.w	r2, {r3, r4, r5, r6, ip, lr}
 1fc:	a818      	add	r0, sp, #96	; 0x60
 1fe:	f7ff fffe 	bl	0 <<st7735_lcd::ST7735<SPI,DC,RST> as embedded_graphics::Drawing<embedded_graphics::pixelcolor::rgb565::Rgb565>>::draw>
 202:	e7ff      	b.n	204 <app::display::show+0x204>
 204:	a82f      	add	r0, sp, #188	; 0xbc
 206:	a950      	add	r1, sp, #320	; 0x140
/Users/Luppy/mynewt/stm32bluepill-mynewt-sensor/rust/app/src/display.rs:82
    display.draw(t);
 208:	460a      	mov	r2, r1
 20a:	e8b0 5008 	ldmia.w	r0!, {r3, ip, lr}
 20e:	e8a2 5008 	stmia.w	r2!, {r3, ip, lr}
 212:	e890 5018 	ldmia.w	r0, {r3, r4, ip, lr}
 216:	e882 5018 	stmia.w	r2, {r3, r4, ip, lr}
 21a:	a818      	add	r0, sp, #96	; 0x60
 21c:	f7ff fffe 	bl	0 <<st7735_lcd::ST7735<SPI,DC,RST> as embedded_graphics::Drawing<embedded_graphics::pixelcolor::rgb565::Rgb565>>::draw>
 220:	e7ff      	b.n	222 <app::display::show+0x222>
 222:	2000      	movs	r0, #0
/Users/Luppy/mynewt/stm32bluepill-mynewt-sensor/rust/app/src/display.rs:83
    Ok(())
 224:	9013      	str	r0, [sp, #76]	; 0x4c
 226:	2001      	movs	r0, #1
 228:	9013      	str	r0, [sp, #76]	; 0x4c
/Users/Luppy/mynewt/stm32bluepill-mynewt-sensor/rust/app/src/lib.rs:1
 22a:	e73c      	b.n	a6 <app::display::show+0xa6>

app-b8434b356de0ea5d.3l4z2ex1n13xskbg.rcgu.o:     file format elf32-littlearm

SYMBOL TABLE:
00000000 l    df *ABS*	00000000 3l4z2ex1n13xskbg
0000089e l       .debug_str	00000000 
000009ee l       .debug_str	00000000 
000009fe l       .debug_str	00000000 
00000a0e l       .debug_str	00000000 
00000a16 l       .debug_str	00000000 
00000a3f l       .debug_str	00000000 
00000a9d l       .debug_str	00000000 
00000b03 l       .debug_str	00000000 
00000b0a l       .debug_str	00000000 
00000b12 l       .debug_str	00000000 
00000b1b l       .debug_str	00000000 
00000b39 l       .debug_str	00000000 
00000b49 l       .debug_str	00000000 
00000b57 l       .debug_str	00000000 
00000b62 l       .debug_str	00000000 
00000b6f l       .debug_str	00000000 
00000b7e l       .debug_str	00000000 
00000b94 l       .debug_str	00000000 
00000b9e l       .debug_str	00000000 
00000ba7 l       .debug_str	00000000 
00000bb0 l       .debug_str	00000000 
00000bd6 l       .debug_str	00000000 
00000bec l       .debug_str	00000000 
00000bf7 l       .debug_str	00000000 
00000c0d l       .debug_str	00000000 
00000c15 l       .debug_str	00000000 
00000c36 l       .debug_str	00000000 
00000c3f l       .debug_str	00000000 
00000c48 l       .debug_str	00000000 
00000c53 l       .debug_str	00000000 
00000c5d l       .debug_str	00000000 
00000c84 l       .debug_str	00000000 
00000c9c l       .debug_str	00000000 
00000ca6 l       .debug_str	00000000 
00000cc9 l       .debug_str	00000000 
00000000 l       .debug_str	00000000 
00000041 l       .debug_str	00000000 
00000055 l       .debug_str	00000000 
00000085 l       .debug_str	00000000 
00000089 l       .debug_str	00000000 
00000096 l       .debug_str	00000000 
0000009a l       .debug_str	00000000 
0000009d l       .debug_str	00000000 
000000b1 l       .debug_str	00000000 
000000df l       .debug_str	00000000 
000000eb l       .debug_str	00000000 
000000f2 l       .debug_str	00000000 
000000f9 l       .debug_str	00000000 
000000fc l       .debug_str	00000000 
00000106 l       .debug_str	00000000 
0000010c l       .debug_str	00000000 
00000111 l       .debug_str	00000000 
00000118 l       .debug_str	00000000 
0000011c l       .debug_str	00000000 
00000121 l       .debug_str	00000000 
00000143 l       .debug_str	00000000 
0000017b l       .debug_str	00000000 
0000017d l       .debug_str	00000000 
00000182 l       .debug_str	00000000 
00000186 l       .debug_str	00000000 
000001c6 l       .debug_str	00000000 
000001cd l       .debug_str	00000000 
000001d1 l       .debug_str	00000000 
000001dc l       .debug_str	00000000 
000001e7 l       .debug_str	00000000 
000001ee l       .debug_str	00000000 
00000205 l       .debug_str	00000000 
0000020d l       .debug_str	00000000 
00000217 l       .debug_str	00000000 
0000022e l       .debug_str	00000000 
00000237 l       .debug_str	00000000 
0000026e l       .debug_str	00000000 
00000277 l       .debug_str	00000000 
0000027a l       .debug_str	00000000 
0000027e l       .debug_str	00000000 
00000286 l       .debug_str	00000000 
0000028a l       .debug_str	00000000 
0000028e l       .debug_str	00000000 
00000295 l       .debug_str	00000000 
0000029d l       .debug_str	00000000 
000002b1 l       .debug_str	00000000 
000002e4 l       .debug_str	00000000 
000002ef l       .debug_str	00000000 
00000325 l       .debug_str	00000000 
0000032c l       .debug_str	00000000 
00000330 l       .debug_str	00000000 
00000338 l       .debug_str	00000000 
00000343 l       .debug_str	00000000 
0000034e l       .debug_str	00000000 
0000035b l       .debug_str	00000000 
00000366 l       .debug_str	00000000 
0000036e l       .debug_str	00000000 
00000379 l       .debug_str	00000000 
00000384 l       .debug_str	00000000 
0000038e l       .debug_str	00000000 
00000399 l       .debug_str	00000000 
000003a4 l       .debug_str	00000000 
000003b1 l       .debug_str	00000000 
000003bd l       .debug_str	00000000 
000003ca l       .debug_str	00000000 
000003d8 l       .debug_str	00000000 
000003e2 l       .debug_str	00000000 
000003ef l       .debug_str	00000000 
000003fb l       .debug_str	00000000 
000003ff l       .debug_str	00000000 
00000402 l       .debug_str	00000000 
00000405 l       .debug_str	00000000 
0000040a l       .debug_str	00000000 
00000410 l       .debug_str	00000000 
00000417 l       .debug_str	00000000 
0000041f l       .debug_str	00000000 
00000429 l       .debug_str	00000000 
0000042c l       .debug_str	00000000 
00000430 l       .debug_str	00000000 
00000437 l       .debug_str	00000000 
00000475 l       .debug_str	00000000 
00000488 l       .debug_str	00000000 
0000048b l       .debug_str	00000000 
0000048d l       .debug_str	00000000 
000004b5 l       .debug_str	00000000 
000004f8 l       .debug_str	00000000 
00000510 l       .debug_str	00000000 
00000550 l       .debug_str	00000000 
00000565 l       .debug_str	00000000 
0000056b l       .debug_str	00000000 
00000576 l       .debug_str	00000000 
0000057a l       .debug_str	00000000 
00000585 l       .debug_str	00000000 
0000058b l       .debug_str	00000000 
00000597 l       .debug_str	00000000 
0000059b l       .debug_str	00000000 
0000059e l       .debug_str	00000000 
000005a7 l       .debug_str	00000000 
000005ac l       .debug_str	00000000 
000005b6 l       .debug_str	00000000 
000005bb l       .debug_str	00000000 
000005c1 l       .debug_str	00000000 
000005c6 l       .debug_str	00000000 
000005cb l       .debug_str	00000000 
000005d2 l       .debug_str	00000000 
000005db l       .debug_str	00000000 
000005e5 l       .debug_str	00000000 
000005ec l       .debug_str	00000000 
000005f2 l       .debug_str	00000000 
000005f7 l       .debug_str	00000000 
00000603 l       .debug_str	00000000 
0000060b l       .debug_str	00000000 
00000614 l       .debug_str	00000000 
00000619 l       .debug_str	00000000 
0000061c l       .debug_str	00000000 
00000625 l       .debug_str	00000000 
0000062c l       .debug_str	00000000 
00000631 l       .debug_str	00000000 
00000636 l       .debug_str	00000000 
0000063c l       .debug_str	00000000 
00000642 l       .debug_str	00000000 
0000064c l       .debug_str	00000000 
0000064f l       .debug_str	00000000 
00000655 l       .debug_str	00000000 
0000065f l       .debug_str	00000000 
00000667 l       .debug_str	00000000 
0000066d l       .debug_str	00000000 
00000673 l       .debug_str	00000000 
0000067e l       .debug_str	00000000 
00000687 l       .debug_str	00000000 
000006aa l       .debug_str	00000000 
000006c9 l       .debug_str	00000000 
000006f0 l       .debug_str	00000000 
000006f5 l       .debug_str	00000000 
000006fb l       .debug_str	00000000 
00000701 l       .debug_str	00000000 
00000710 l       .debug_str	00000000 
00000717 l       .debug_str	00000000 
0000071b l       .debug_str	00000000 
00000724 l       .debug_str	00000000 
0000072c l       .debug_str	00000000 
00000733 l       .debug_str	00000000 
0000073f l       .debug_str	00000000 
0000074b l       .debug_str	00000000 
00000764 l       .debug_str	00000000 
00000769 l       .debug_str	00000000 
0000077a l       .debug_str	00000000 
00000784 l       .debug_str	00000000 
00000792 l       .debug_str	00000000 
0000079d l       .debug_str	00000000 
000007a4 l       .debug_str	00000000 
000007aa l       .debug_str	00000000 
000007ae l       .debug_str	00000000 
000007b2 l       .debug_str	00000000 
000007ba l       .debug_str	00000000 
000007d1 l       .debug_str	00000000 
000007f5 l       .debug_str	00000000 
00000811 l       .debug_str	00000000 
0000081b l       .debug_str	00000000 
00000835 l       .debug_str	00000000 
00000893 l       .debug_str	00000000 
000008bb l       .debug_str	00000000 
000008d4 l       .debug_str	00000000 
000008de l       .debug_str	00000000 
000008f4 l       .debug_str	00000000 
000008f8 l       .debug_str	00000000 
000008fe l       .debug_str	00000000 
00000908 l       .debug_str	00000000 
00000913 l       .debug_str	00000000 
0000091c l       .debug_str	00000000 
00000927 l       .debug_str	00000000 
00000933 l       .debug_str	00000000 
0000093c l       .debug_str	00000000 
00000943 l       .debug_str	00000000 
0000094b l       .debug_str	00000000 
00000953 l       .debug_str	00000000 
0000095d l       .debug_str	00000000 
00000963 l       .debug_str	00000000 
0000096a l       .debug_str	00000000 
00000971 l       .debug_str	00000000 
0000099e l       .debug_str	00000000 
000009d3 l       .debug_str	00000000 
000009d9 l       .debug_str	00000000 
000009df l       .debug_str	00000000 
00000000 l     O .rodata..Lanon.2f40d91cf76d3e43add664e1b0b07c66.0	00000012 .Lanon.2f40d91cf76d3e43add664e1b0b07c66.0
00000000 l     O .rodata.cst4	00000004 .Lanon.2f40d91cf76d3e43add664e1b0b07c66.1
00000000 l     O .rodata..Lanon.2f40d91cf76d3e43add664e1b0b07c66.10	00000010 .Lanon.2f40d91cf76d3e43add664e1b0b07c66.10
00000000 l     O .rodata.cst8	00000008 .Lanon.2f40d91cf76d3e43add664e1b0b07c66.11
00000000 l     O .rodata..Lanon.2f40d91cf76d3e43add664e1b0b07c66.12	00000007 .Lanon.2f40d91cf76d3e43add664e1b0b07c66.12
00000000 l     O .rodata..Lanon.2f40d91cf76d3e43add664e1b0b07c66.5	00000018 .Lanon.2f40d91cf76d3e43add664e1b0b07c66.5
00000000 l     O .rodata..Lanon.2f40d91cf76d3e43add664e1b0b07c66.7	00000008 .Lanon.2f40d91cf76d3e43add664e1b0b07c66.7
00000000 l     O .rodata..Lanon.2f40d91cf76d3e43add664e1b0b07c66.8	00000000 .Lanon.2f40d91cf76d3e43add664e1b0b07c66.8
00000000 l     O .bss._ZN3app12touch_sensor10I2C_BUFFER17h6587d4cecf1aef8dE	00000001 app::touch_sensor::I2C_BUFFER
00000000 l     O .bss._ZN3app12touch_sensor11TOUCH_EVENT17h60e9cad73e6ebeb5E	00000010 app::touch_sensor::TOUCH_EVENT
00000000 l     F .text._ZN3app12touch_sensor20touch_event_callback17h199d1bf89ac9439bE	00000034 app::touch_sensor::touch_event_callback
00000000 l     F .text._ZN3app12touch_sensor23touch_interrupt_handler17h4fa29b976b50a1beE	00000046 app::touch_sensor::touch_interrupt_handler
00000000 l     O .bss._ZN3app12touch_sensor3buf17h3250d7e59de0f5beE	0000003f app::touch_sensor::buf
00000000 l     O .bss._ZN3app12touch_sensor8I2C_DATA17h4d726476aeec469eE	00000008 app::touch_sensor::I2C_DATA
00000000 l    d  .text._ZN3app12touch_sensor18start_touch_sensor17ha0354fb86fd161d9E	00000000 .text._ZN3app12touch_sensor18start_touch_sensor17ha0354fb86fd161d9E
00000000 l    d  .text._ZN3app12touch_sensor23touch_interrupt_handler17h4fa29b976b50a1beE	00000000 .text._ZN3app12touch_sensor23touch_interrupt_handler17h4fa29b976b50a1beE
00000000 l    d  .text._ZN3app12touch_sensor20touch_event_callback17h199d1bf89ac9439bE	00000000 .text._ZN3app12touch_sensor20touch_event_callback17h199d1bf89ac9439bE
00000000 l    d  .rodata..Lanon.2f40d91cf76d3e43add664e1b0b07c66.2	00000000 .rodata..Lanon.2f40d91cf76d3e43add664e1b0b07c66.2
00000000 l    d  .rodata..Lanon.2f40d91cf76d3e43add664e1b0b07c66.3	00000000 .rodata..Lanon.2f40d91cf76d3e43add664e1b0b07c66.3
00000000 l    d  .rodata..Lanon.2f40d91cf76d3e43add664e1b0b07c66.4	00000000 .rodata..Lanon.2f40d91cf76d3e43add664e1b0b07c66.4
00000000 l    d  .rodata..Lanon.2f40d91cf76d3e43add664e1b0b07c66.6	00000000 .rodata..Lanon.2f40d91cf76d3e43add664e1b0b07c66.6
00000000 l    d  .rodata..Lanon.2f40d91cf76d3e43add664e1b0b07c66.9	00000000 .rodata..Lanon.2f40d91cf76d3e43add664e1b0b07c66.9
00000000 l    d  .bss._ZN3app12touch_sensor3buf17h3250d7e59de0f5beE	00000000 .bss._ZN3app12touch_sensor3buf17h3250d7e59de0f5beE
00000000 l    d  .bss._ZN3app12touch_sensor11TOUCH_EVENT17h60e9cad73e6ebeb5E	00000000 .bss._ZN3app12touch_sensor11TOUCH_EVENT17h60e9cad73e6ebeb5E
00000000 l    d  .bss._ZN3app12touch_sensor8I2C_DATA17h4d726476aeec469eE	00000000 .bss._ZN3app12touch_sensor8I2C_DATA17h4d726476aeec469eE
00000000 l    d  .bss._ZN3app12touch_sensor10I2C_BUFFER17h6587d4cecf1aef8dE	00000000 .bss._ZN3app12touch_sensor10I2C_BUFFER17h6587d4cecf1aef8dE
00000000 l    d  .debug_abbrev	00000000 .debug_abbrev
00000000 l    d  .debug_info	00000000 .debug_info
00000000 l    d  .debug_ranges	00000000 .debug_ranges
00000000 l    d  .debug_frame	00000000 .debug_frame
00000000 l    d  .debug_line	00000000 .debug_line
00000000         *UND*	00000000 .hidden app::mynewt_hal::MynewtGPIO::new
00000000 g     F .text._ZN3app12touch_sensor18start_touch_sensor17ha0354fb86fd161d9E	00000208 .hidden app::touch_sensor::start_touch_sensor
00000000         *UND*	00000000 <&T as core::fmt::Debug>::fmt
00000000         *UND*	00000000 core::fmt::ArgumentV1::new
00000000         *UND*	00000000 core::fmt::ArgumentV1::new
00000000         *UND*	00000000 .hidden core::fmt::Arguments::new_v1
00000000         *UND*	00000000 core::ptr::null_mut
00000000         *UND*	00000000 core::result::Result<T,E>::expect
00000000         *UND*	00000000 core::panicking::panic_fmt
00000000         *UND*	00000000 <T as core::convert::From<T>>::from
00000000         *UND*	00000000 <core::fmt::Arguments as core::fmt::Display>::fmt
00000000         *UND*	00000000 mynewt::sys::console::flush
00000000         *UND*	00000000 mynewt::sys::console::print
00000000         *UND*	00000000 mynewt::sys::console::printhex
00000000         *UND*	00000000 mynewt::kernel::os::eventq_dflt_get
00000000         *UND*	00000000 <core::result::Result<T,E> as core::ops::try::Try>::from_error
00000000         *UND*	00000000 <core::result::Result<T,E> as core::ops::try::Try>::into_result
00000000         *UND*	00000000 <app::mynewt_hal::MynewtGPIO as embedded_hal::digital::v2::OutputPin>::set_low
00000000         *UND*	00000000 <app::mynewt_hal::MynewtGPIO as embedded_hal::digital::v2::OutputPin>::set_high
00000000         *UND*	00000000 <app::mynewt_hal::MynewtDelay as embedded_hal::blocking::delay::DelayMs<u8>>::delay_ms
00000000         *UND*	00000000 hal_gpio_irq_enable
00000000         *UND*	00000000 hal_gpio_irq_init
00000000         *UND*	00000000 os_eventq_put
00000000         *UND*	00000000 os_time_get



Disassembly of section .text._ZN3app12touch_sensor18start_touch_sensor17ha0354fb86fd161d9E:

00000000 <app::touch_sensor::start_touch_sensor>:
_ZN3app12touch_sensor18start_touch_sensor17ha0354fb86fd161d9E():
/Users/Luppy/mynewt/stm32bluepill-mynewt-sensor/rust/app/src/touch_sensor.rs:35
/// ```rust
/// let peripherals = nrf52::Peripherals::take().unwrap();
/// let nfcpins = peripherals.UICR.nfcpins.read().bits();
/// console::print("nfcpins = "); console::printhex(nfcpins as u8); console::print("\n");
/// ```
pub fn start_touch_sensor() -> MynewtResult<()> {
   0:	b5b0      	push	{r4, r5, r7, lr}
   2:	b0b8      	sub	sp, #224	; 0xe0
/Users/Luppy/mynewt/stm32bluepill-mynewt-sensor/rust/app/src/touch_sensor.rs:36
    console::print("Rust touch sensor\n");
   4:	f240 0000 	movw	r0, #0
   8:	f2c0 0000 	movt	r0, #0
   c:	2112      	movs	r1, #18
   e:	f7ff fffe 	bl	0 <mynewt::sys::console::print>
  12:	e7ff      	b.n	14 <app::touch_sensor::start_touch_sensor+0x14>
  14:	200a      	movs	r0, #10
/Users/Luppy/mynewt/stm32bluepill-mynewt-sensor/rust/app/src/touch_sensor.rs:39

    //  Create GPIO for the Reset Pin
    let mut reset = MynewtGPIO::new(TOUCH_RESET_PIN);
  16:	f7ff fffe 	bl	0 <app::mynewt_hal::MynewtGPIO::new>
  1a:	900f      	str	r0, [sp, #60]	; 0x3c
  1c:	e7ff      	b.n	1e <app::touch_sensor::start_touch_sensor+0x1e>
  1e:	a80f      	add	r0, sp, #60	; 0x3c
/Users/Luppy/mynewt/stm32bluepill-mynewt-sensor/rust/app/src/touch_sensor.rs:43
    let mut delay = MynewtDelay{};

    //  Reset the touch controller by switching the Reset Pin low then high with pauses. Based on https://github.com/lupyuen/hynitron_i2c_cst0xxse/blob/master/cst0xx_core.c#L1017-L1167
    reset.set_low() ? ;
  20:	f7ff fffe 	bl	0 <<app::mynewt_hal::MynewtGPIO as embedded_hal::digital::v2::OutputPin>::set_low>
  24:	900d      	str	r0, [sp, #52]	; 0x34
  26:	e7ff      	b.n	28 <app::touch_sensor::start_touch_sensor+0x28>
  28:	980d      	ldr	r0, [sp, #52]	; 0x34
  2a:	f7ff fffe 	bl	0 <<core::result::Result<T,E> as core::ops::try::Try>::into_result>
  2e:	9011      	str	r0, [sp, #68]	; 0x44
  30:	e7ff      	b.n	32 <app::touch_sensor::start_touch_sensor+0x32>
  32:	9811      	ldr	r0, [sp, #68]	; 0x44
  34:	1e41      	subs	r1, r0, #1
  36:	bf18      	it	ne
  38:	2101      	movne	r1, #1
  3a:	2801      	cmp	r0, #1
  3c:	910c      	str	r1, [sp, #48]	; 0x30
  3e:	d016      	beq.n	6e <app::touch_sensor::start_touch_sensor+0x6e>
  40:	e7ff      	b.n	42 <app::touch_sensor::start_touch_sensor+0x42>
  42:	980c      	ldr	r0, [sp, #48]	; 0x30
  44:	2801      	cmp	r0, #1
  46:	d001      	beq.n	4c <app::touch_sensor::start_touch_sensor+0x4c>
  48:	e7ff      	b.n	4a <app::touch_sensor::start_touch_sensor+0x4a>
/Users/Luppy/mynewt/stm32bluepill-mynewt-sensor/rust/app/src/touch_sensor.rs:64
    assert_eq!(rc, 0, "IRQ init fail");

    //  Start monitoring for touch controller interrupts
    unsafe { hal::hal_gpio_irq_enable(TOUCH_INTERRUPT_PIN) };
    Ok(())
}
  4a:	defe      	udf	#254	; 0xfe
/Users/Luppy/mynewt/stm32bluepill-mynewt-sensor/rust/app/src/touch_sensor.rs:43
    reset.set_low() ? ;
  4c:	9811      	ldr	r0, [sp, #68]	; 0x44
  4e:	9012      	str	r0, [sp, #72]	; 0x48
  50:	9812      	ldr	r0, [sp, #72]	; 0x48
  52:	f7ff fffe 	bl	0 <<T as core::convert::From<T>>::from>
  56:	900b      	str	r0, [sp, #44]	; 0x2c
  58:	e7ff      	b.n	5a <app::touch_sensor::start_touch_sensor+0x5a>
  5a:	980b      	ldr	r0, [sp, #44]	; 0x2c
  5c:	f7ff fffe 	bl	0 <<core::result::Result<T,E> as core::ops::try::Try>::from_error>
  60:	900e      	str	r0, [sp, #56]	; 0x38
  62:	e7ff      	b.n	64 <app::touch_sensor::start_touch_sensor+0x64>
  64:	e002      	b.n	6c <app::touch_sensor::start_touch_sensor+0x6c>
/Users/Luppy/mynewt/stm32bluepill-mynewt-sensor/rust/app/src/touch_sensor.rs:64
}
  66:	980e      	ldr	r0, [sp, #56]	; 0x38
  68:	b038      	add	sp, #224	; 0xe0
  6a:	bdb0      	pop	{r4, r5, r7, pc}
/Users/Luppy/mynewt/stm32bluepill-mynewt-sensor/rust/app/src/touch_sensor.rs:43
    reset.set_low() ? ;
  6c:	e7fb      	b.n	66 <app::touch_sensor::start_touch_sensor+0x66>
  6e:	a810      	add	r0, sp, #64	; 0x40
  70:	2114      	movs	r1, #20
/Users/Luppy/mynewt/stm32bluepill-mynewt-sensor/rust/app/src/touch_sensor.rs:44
    delay.delay_ms(20);
  72:	f7ff fffe 	bl	0 <<app::mynewt_hal::MynewtDelay as embedded_hal::blocking::delay::DelayMs<u8>>::delay_ms>
  76:	e7ff      	b.n	78 <app::touch_sensor::start_touch_sensor+0x78>
  78:	a80f      	add	r0, sp, #60	; 0x3c
/Users/Luppy/mynewt/stm32bluepill-mynewt-sensor/rust/app/src/touch_sensor.rs:45
    reset.set_high() ? ;
  7a:	f7ff fffe 	bl	0 <<app::mynewt_hal::MynewtGPIO as embedded_hal::digital::v2::OutputPin>::set_high>
  7e:	900a      	str	r0, [sp, #40]	; 0x28
  80:	e7ff      	b.n	82 <app::touch_sensor::start_touch_sensor+0x82>
  82:	980a      	ldr	r0, [sp, #40]	; 0x28
  84:	f7ff fffe 	bl	0 <<core::result::Result<T,E> as core::ops::try::Try>::into_result>
  88:	9014      	str	r0, [sp, #80]	; 0x50
  8a:	e7ff      	b.n	8c <app::touch_sensor::start_touch_sensor+0x8c>
  8c:	9814      	ldr	r0, [sp, #80]	; 0x50
  8e:	1e41      	subs	r1, r0, #1
  90:	bf18      	it	ne
  92:	2101      	movne	r1, #1
  94:	2801      	cmp	r0, #1
  96:	9109      	str	r1, [sp, #36]	; 0x24
  98:	d011      	beq.n	be <app::touch_sensor::start_touch_sensor+0xbe>
  9a:	e7ff      	b.n	9c <app::touch_sensor::start_touch_sensor+0x9c>
  9c:	9809      	ldr	r0, [sp, #36]	; 0x24
  9e:	2801      	cmp	r0, #1
  a0:	d1d3      	bne.n	4a <app::touch_sensor::start_touch_sensor+0x4a>
  a2:	e7ff      	b.n	a4 <app::touch_sensor::start_touch_sensor+0xa4>
  a4:	9814      	ldr	r0, [sp, #80]	; 0x50
  a6:	9015      	str	r0, [sp, #84]	; 0x54
  a8:	9815      	ldr	r0, [sp, #84]	; 0x54
  aa:	f7ff fffe 	bl	0 <<T as core::convert::From<T>>::from>
  ae:	9008      	str	r0, [sp, #32]
  b0:	e7ff      	b.n	b2 <app::touch_sensor::start_touch_sensor+0xb2>
  b2:	9808      	ldr	r0, [sp, #32]
  b4:	f7ff fffe 	bl	0 <<core::result::Result<T,E> as core::ops::try::Try>::from_error>
  b8:	900e      	str	r0, [sp, #56]	; 0x38
  ba:	e7ff      	b.n	bc <app::touch_sensor::start_touch_sensor+0xbc>
  bc:	e7d6      	b.n	6c <app::touch_sensor::start_touch_sensor+0x6c>
  be:	a810      	add	r0, sp, #64	; 0x40
  c0:	21c8      	movs	r1, #200	; 0xc8
/Users/Luppy/mynewt/stm32bluepill-mynewt-sensor/rust/app/src/touch_sensor.rs:46
    delay.delay_ms(200); delay.delay_ms(200);
  c2:	f7ff fffe 	bl	0 <<app::mynewt_hal::MynewtDelay as embedded_hal::blocking::delay::DelayMs<u8>>::delay_ms>
  c6:	e7ff      	b.n	c8 <app::touch_sensor::start_touch_sensor+0xc8>
  c8:	a810      	add	r0, sp, #64	; 0x40
  ca:	21c8      	movs	r1, #200	; 0xc8
  cc:	f7ff fffe 	bl	0 <<app::mynewt_hal::MynewtDelay as embedded_hal::blocking::delay::DelayMs<u8>>::delay_ms>
  d0:	e7ff      	b.n	2 <app::touch_sensor::start_touch_sensor+0x2>
/Users/Luppy/mynewt/stm32bluepill-mynewt-sensor/rust/app/src/touch_sensor.rs:49
    unsafe { TOUCH_EVENT.ev_cb = Some( touch_event_callback ) };
  d2:	f240 0000 	movw	r0, #0
  d6:	f2c0 0000 	movt	r0, #0
  da:	f240 0100 	movw	r1, #0
  de:	f2c0 0100 	movt	r1, #0
  e2:	6041      	str	r1, [r0, #4]
/Users/Luppy/mynewt/stm32bluepill-mynewt-sensor/rust/app/src/touch_sensor.rs:54
        Some( touch_interrupt_handler ),  //  Call `touch_interrupt_handler()` upon detecting interrupt
  e4:	f240 0000 	movw	r0, #0
  e8:	f2c0 0000 	movt	r0, #0
  ec:	9018      	str	r0, [sp, #96]	; 0x60
/Users/Luppy/mynewt/stm32bluepill-mynewt-sensor/rust/app/src/touch_sensor.rs:55
        core::ptr::null_mut(),            //  No arguments for `touch_interrupt_handler()`
  ee:	f7ff fffe 	bl	0 <core::ptr::null_mut>
  f2:	9007      	str	r0, [sp, #28]
  f4:	e7ff      	b.n	f6 <app::touch_sensor::start_touch_sensor+0xf6>
/Users/Luppy/mynewt/stm32bluepill-mynewt-sensor/rust/app/src/touch_sensor.rs:52
    let rc = unsafe { hal::hal_gpio_irq_init(
  f6:	9918      	ldr	r1, [sp, #96]	; 0x60
  f8:	4668      	mov	r0, sp
  fa:	2201      	movs	r2, #1
  fc:	6002      	str	r2, [r0, #0]
  fe:	201c      	movs	r0, #28
 100:	2302      	movs	r3, #2
 102:	9a07      	ldr	r2, [sp, #28]
 104:	f7ff fffe 	bl	0 <hal_gpio_irq_init>
 108:	9017      	str	r0, [sp, #92]	; 0x5c
 10a:	e7ff      	b.n	10c <app::touch_sensor::start_touch_sensor+0x10c>
 10c:	a817      	add	r0, sp, #92	; 0x5c
/Users/Luppy/mynewt/stm32bluepill-mynewt-sensor/rust/app/src/touch_sensor.rs:59
    assert_eq!(rc, 0, "IRQ init fail");
 10e:	9019      	str	r0, [sp, #100]	; 0x64
 110:	f240 0000 	movw	r0, #0
 114:	f2c0 0000 	movt	r0, #0
 118:	901a      	str	r0, [sp, #104]	; 0x68
 11a:	9819      	ldr	r0, [sp, #100]	; 0x64
 11c:	901b      	str	r0, [sp, #108]	; 0x6c
 11e:	981a      	ldr	r0, [sp, #104]	; 0x68
 120:	901c      	str	r0, [sp, #112]	; 0x70
 122:	981b      	ldr	r0, [sp, #108]	; 0x6c
 124:	6800      	ldr	r0, [r0, #0]
 126:	991c      	ldr	r1, [sp, #112]	; 0x70
 128:	6809      	ldr	r1, [r1, #0]
 12a:	4288      	cmp	r0, r1
 12c:	d014      	beq.n	158 <app::touch_sensor::start_touch_sensor+0x158>
 12e:	e7ff      	b.n	130 <app::touch_sensor::start_touch_sensor+0x130>
 130:	981b      	ldr	r0, [sp, #108]	; 0x6c
 132:	902c      	str	r0, [sp, #176]	; 0xb0
 134:	981c      	ldr	r0, [sp, #112]	; 0x70
 136:	902d      	str	r0, [sp, #180]	; 0xb4
 138:	4668      	mov	r0, sp
 13a:	2100      	movs	r1, #0
 13c:	6001      	str	r1, [r0, #0]
 13e:	f240 0100 	movw	r1, #0
 142:	f2c0 0100 	movt	r1, #0
 146:	f240 0300 	movw	r3, #0
 14a:	f2c0 0300 	movt	r3, #0
 14e:	a82e      	add	r0, sp, #184	; 0xb8
 150:	2201      	movs	r2, #1
 152:	f7ff fffe 	bl	0 <core::fmt::Arguments::new_v1>
 156:	e003      	b.n	160 <app::touch_sensor::start_touch_sensor+0x160>
 158:	201c      	movs	r0, #28
/Users/Luppy/mynewt/stm32bluepill-mynewt-sensor/rust/app/src/touch_sensor.rs:62
    unsafe { hal::hal_gpio_irq_enable(TOUCH_INTERRUPT_PIN) };
 15a:	f7ff fffe 	bl	0 <hal_gpio_irq_enable>
 15e:	e04e      	b.n	1fe <app::touch_sensor::start_touch_sensor+0x1fe>
 160:	a82c      	add	r0, sp, #176	; 0xb0
/Users/Luppy/mynewt/stm32bluepill-mynewt-sensor/rust/app/src/touch_sensor.rs:59
    assert_eq!(rc, 0, "IRQ init fail");
 162:	9029      	str	r0, [sp, #164]	; 0xa4
 164:	a82d      	add	r0, sp, #180	; 0xb4
 166:	902a      	str	r0, [sp, #168]	; 0xa8
 168:	a82e      	add	r0, sp, #184	; 0xb8
 16a:	902b      	str	r0, [sp, #172]	; 0xac
 16c:	9829      	ldr	r0, [sp, #164]	; 0xa4
 16e:	9034      	str	r0, [sp, #208]	; 0xd0
 170:	982a      	ldr	r0, [sp, #168]	; 0xa8
 172:	9035      	str	r0, [sp, #212]	; 0xd4
 174:	982b      	ldr	r0, [sp, #172]	; 0xac
 176:	9036      	str	r0, [sp, #216]	; 0xd8
 178:	9834      	ldr	r0, [sp, #208]	; 0xd0
 17a:	f240 0100 	movw	r1, #0
 17e:	f2c0 0100 	movt	r1, #0
 182:	f7ff fffe 	bl	0 <core::fmt::ArgumentV1::new>
 186:	9006      	str	r0, [sp, #24]
 188:	9105      	str	r1, [sp, #20]
 18a:	e7ff      	b.n	18c <app::touch_sensor::start_touch_sensor+0x18c>
 18c:	9835      	ldr	r0, [sp, #212]	; 0xd4
 18e:	f240 0100 	movw	r1, #0
 192:	f2c0 0100 	movt	r1, #0
 196:	f7ff fffe 	bl	0 <core::fmt::ArgumentV1::new>
 19a:	9004      	str	r0, [sp, #16]
 19c:	9103      	str	r1, [sp, #12]
 19e:	e7ff      	b.n	1a0 <app::touch_sensor::start_touch_sensor+0x1a0>
 1a0:	9836      	ldr	r0, [sp, #216]	; 0xd8
 1a2:	f240 0100 	movw	r1, #0
 1a6:	f2c0 0100 	movt	r1, #0
 1aa:	f7ff fffe 	bl	0 <core::fmt::ArgumentV1::new>
 1ae:	9002      	str	r0, [sp, #8]
 1b0:	9101      	str	r1, [sp, #4]
 1b2:	e7ff      	b.n	1b4 <app::touch_sensor::start_touch_sensor+0x1b4>
 1b4:	9806      	ldr	r0, [sp, #24]
 1b6:	9023      	str	r0, [sp, #140]	; 0x8c
 1b8:	9905      	ldr	r1, [sp, #20]
 1ba:	9124      	str	r1, [sp, #144]	; 0x90
 1bc:	9a04      	ldr	r2, [sp, #16]
 1be:	9225      	str	r2, [sp, #148]	; 0x94
 1c0:	9b03      	ldr	r3, [sp, #12]
 1c2:	9326      	str	r3, [sp, #152]	; 0x98
 1c4:	f8dd c008 	ldr.w	ip, [sp, #8]
 1c8:	f8cd c09c 	str.w	ip, [sp, #156]	; 0x9c
 1cc:	f8dd e004 	ldr.w	lr, [sp, #4]
 1d0:	f8cd e0a0 	str.w	lr, [sp, #160]	; 0xa0
 1d4:	466c      	mov	r4, sp
 1d6:	2503      	movs	r5, #3
 1d8:	6025      	str	r5, [r4, #0]
 1da:	f240 0100 	movw	r1, #0
 1de:	f2c0 0100 	movt	r1, #0
 1e2:	a81d      	add	r0, sp, #116	; 0x74
 1e4:	ab23      	add	r3, sp, #140	; 0x8c
 1e6:	462a      	mov	r2, r5
 1e8:	f7ff fffe 	bl	0 <core::fmt::Arguments::new_v1>
 1ec:	e7ff      	b.n	2 <app::touch_sensor::start_touch_sensor+0x2>
 1ee:	f240 0100 	movw	r1, #0
 1f2:	f2c0 0100 	movt	r1, #0
 1f6:	a81d      	add	r0, sp, #116	; 0x74
 1f8:	f7ff fffe 	bl	0 <core::panicking::panic_fmt>
 1fc:	defe      	udf	#254	; 0xfe
 1fe:	2000      	movs	r0, #0
/Users/Luppy/mynewt/stm32bluepill-mynewt-sensor/rust/app/src/touch_sensor.rs:63
    Ok(())
 200:	900e      	str	r0, [sp, #56]	; 0x38
 202:	2001      	movs	r0, #1
 204:	900e      	str	r0, [sp, #56]	; 0x38
/Users/Luppy/mynewt/stm32bluepill-mynewt-sensor/rust/app/src/touch_sensor.rs:64
}
 206:	e72e      	b.n	66 <app::touch_sensor::start_touch_sensor+0x66>

Disassembly of section .text._ZN3app12touch_sensor23touch_interrupt_handler17h4fa29b976b50a1beE:

00000000 <app::touch_sensor::touch_interrupt_handler>:
_ZN3app12touch_sensor23touch_interrupt_handler17h4fa29b976b50a1beE():
/Users/Luppy/mynewt/stm32bluepill-mynewt-sensor/rust/app/src/touch_sensor.rs:67

/// Interrupt handler for the touch controller, triggered when a touch is detected
extern "C" fn touch_interrupt_handler(arg: *mut core::ffi::c_void) {
   0:	b580      	push	{r7, lr}
   2:	b086      	sub	sp, #24
   4:	4601      	mov	r1, r0
   6:	9002      	str	r0, [sp, #8]
/Users/Luppy/mynewt/stm32bluepill-mynewt-sensor/rust/app/src/touch_sensor.rs:69
    //  We forward a touch event to the Default Event Queue for deferred processing.  Don't do any processing here.
    unsafe { TOUCH_EVENT.ev_arg = arg };
   8:	9802      	ldr	r0, [sp, #8]
   a:	f240 0200 	movw	r2, #0
   e:	f2c0 0200 	movt	r2, #0
  12:	6090      	str	r0, [r2, #8]
  14:	a804      	add	r0, sp, #16
/Users/Luppy/mynewt/stm32bluepill-mynewt-sensor/rust/app/src/touch_sensor.rs:71
    //  Fetch the Default Event Queue. TODO: Use dedicated Event Queue for higher priority processing.
    let queue = os::eventq_dflt_get()
  16:	9101      	str	r1, [sp, #4]
  18:	f7ff fffe 	bl	0 <mynewt::kernel::os::eventq_dflt_get>
  1c:	e7ff      	b.n	2 <app::touch_sensor::touch_interrupt_handler+0x2>
  1e:	f240 0100 	movw	r1, #0
  22:	f2c0 0100 	movt	r1, #0
  26:	a804      	add	r0, sp, #16
  28:	2208      	movs	r2, #8
  2a:	f7ff fffe 	bl	0 <core::result::Result<T,E>::expect>
  2e:	9003      	str	r0, [sp, #12]
  30:	e7ff      	b.n	32 <app::touch_sensor::touch_interrupt_handler+0x32>
/Users/Luppy/mynewt/stm32bluepill-mynewt-sensor/rust/app/src/touch_sensor.rs:73
        .expect("GET fail");
	unsafe { os::os_eventq_put(queue, &mut TOUCH_EVENT) };  //  Trigger the callback function `touch_event_callback()`
  32:	9803      	ldr	r0, [sp, #12]
  34:	f240 0100 	movw	r1, #0
  38:	f2c0 0100 	movt	r1, #0
  3c:	f7ff fffe 	bl	0 <os_eventq_put>
  40:	e7ff      	b.n	42 <app::touch_sensor::touch_interrupt_handler+0x42>
/Users/Luppy/mynewt/stm32bluepill-mynewt-sensor/rust/app/src/touch_sensor.rs:74
}
  42:	b006      	add	sp, #24
  44:	bd80      	pop	{r7, pc}

Disassembly of section .text._ZN3app12touch_sensor20touch_event_callback17h199d1bf89ac9439bE:

00000000 <app::touch_sensor::touch_event_callback>:
_ZN3app12touch_sensor20touch_event_callback17h199d1bf89ac9439bE():
/Users/Luppy/mynewt/stm32bluepill-mynewt-sensor/rust/app/src/touch_sensor.rs:77

/// Callback for the touch event that is triggered when a touch is detected
extern "C" fn touch_event_callback(_event: *mut os_event) {
   0:	b580      	push	{r7, lr}
   2:	b084      	sub	sp, #16
   4:	4601      	mov	r1, r0
   6:	9003      	str	r0, [sp, #12]
/Users/Luppy/mynewt/stm32bluepill-mynewt-sensor/rust/app/src/touch_sensor.rs:78
    console::printhex(unsafe { os::os_time_get() } as u8);
   8:	9102      	str	r1, [sp, #8]
   a:	f7ff fffe 	bl	0 <os_time_get>
   e:	9001      	str	r0, [sp, #4]
  10:	e7ff      	b.n	12 <app::touch_sensor::touch_event_callback+0x12>
  12:	9801      	ldr	r0, [sp, #4]
  14:	f7ff fffe 	bl	0 <mynewt::sys::console::printhex>
  18:	e7ff      	b.n	2 <app::touch_sensor::touch_event_callback+0x2>
/Users/Luppy/mynewt/stm32bluepill-mynewt-sensor/rust/app/src/touch_sensor.rs:79
    console::print(" touch\n"); console::flush();   
  1a:	f240 0000 	movw	r0, #0
  1e:	f2c0 0000 	movt	r0, #0
  22:	2107      	movs	r1, #7
  24:	f7ff fffe 	bl	0 <mynewt::sys::console::print>
  28:	e7ff      	b.n	2 <mynewt::sys::console::flush+0x2>
  2a:	f7ff fffe 	bl	0 <mynewt::sys::console::flush>
  2e:	e7ff      	b.n	30 <app::touch_sensor::touch_event_callback+0x30>
/Users/Luppy/mynewt/stm32bluepill-mynewt-sensor/rust/app/src/touch_sensor.rs:80
}
  30:	b004      	add	sp, #16
  32:	bd80      	pop	{r7, pc}

app-b8434b356de0ea5d.3wiwezkuh1kme3qe.rcgu.o:     file format elf32-littlearm

SYMBOL TABLE:
00000000 l    df *ABS*	00000000 3wiwezkuh1kme3qe
000000bd l       .debug_str	00000000 
00000000 l       .debug_str	00000000 
00000041 l       .debug_str	00000000 
00000055 l       .debug_str	00000000 
00000085 l       .debug_str	00000000 
0000008a l       .debug_str	00000000 
0000008e l       .debug_str	00000000 
000000ca l       .debug_str	00000000 
00000092 l       .debug_str	00000000 
00000094 l       .debug_str	00000000 
00000000 l    d  .text._ZN4core3mem7size_of17h85cb648434ab4930E	00000000 .text._ZN4core3mem7size_of17h85cb648434ab4930E
00000000 l    d  .debug_abbrev	00000000 .debug_abbrev
00000000 l    d  .debug_info	00000000 .debug_info
00000000 l    d  .debug_frame	00000000 .debug_frame
00000000 l    d  .debug_line	00000000 .debug_line
00000000 g     F .text._ZN4core3mem7size_of17h85cb648434ab4930E	00000012 core::mem::size_of



Disassembly of section .text._ZN4core3mem7size_of17h85cb648434ab4930E:

00000000 <core::mem::size_of>:
_ZN4core3mem7size_of17h85cb648434ab4930E():
/rustc/50a0defd5a93523067ef239936cc2e0755220904/src/libcore/mem.rs:235
   0:	b082      	sub	sp, #8
   2:	2008      	movs	r0, #8
/rustc/50a0defd5a93523067ef239936cc2e0755220904/src/libcore/mem.rs:236
   4:	9001      	str	r0, [sp, #4]
   6:	9801      	ldr	r0, [sp, #4]
   8:	9000      	str	r0, [sp, #0]
   a:	e7ff      	b.n	c <core::mem::size_of+0xc>
/rustc/50a0defd5a93523067ef239936cc2e0755220904/src/libcore/mem.rs:237
   c:	9800      	ldr	r0, [sp, #0]
   e:	b002      	add	sp, #8
  10:	4770      	bx	lr

app-b8434b356de0ea5d.3xc1yo2rqryg1tsa.rcgu.o:     file format elf32-littlearm

SYMBOL TABLE:
00000000 l    df *ABS*	00000000 3xc1yo2rqryg1tsa
0000067a l       .debug_str	00000000 
00000695 l       .debug_str	00000000 
0000069c l       .debug_str	00000000 
000006a0 l       .debug_str	00000000 
000006a9 l       .debug_str	00000000 
000006b1 l       .debug_str	00000000 
000006b9 l       .debug_str	00000000 
000006c0 l       .debug_str	00000000 
000006d4 l       .debug_str	00000000 
000006e0 l       .debug_str	00000000 
000006ec l       .debug_str	00000000 
00000705 l       .debug_str	00000000 
0000070a l       .debug_str	00000000 
0000071b l       .debug_str	00000000 
00000725 l       .debug_str	00000000 
00000733 l       .debug_str	00000000 
00000737 l       .debug_str	00000000 
00000742 l       .debug_str	00000000 
00000749 l       .debug_str	00000000 
0000074f l       .debug_str	00000000 
00000753 l       .debug_str	00000000 
00000757 l       .debug_str	00000000 
0000075f l       .debug_str	00000000 
00000776 l       .debug_str	00000000 
0000079a l       .debug_str	00000000 
000007b6 l       .debug_str	00000000 
000007c0 l       .debug_str	00000000 
000007da l       .debug_str	00000000 
00000838 l       .debug_str	00000000 
00000843 l       .debug_str	00000000 
00000860 l       .debug_str	00000000 
00000879 l       .debug_str	00000000 
00000883 l       .debug_str	00000000 
00000899 l       .debug_str	00000000 
0000089e l       .debug_str	00000000 
000008be l       .debug_str	00000000 
000008c4 l       .debug_str	00000000 
000008ca l       .debug_str	00000000 
000008eb l       .debug_str	00000000 
000008f7 l       .debug_str	00000000 
00000919 l       .debug_str	00000000 
0000091c l       .debug_str	00000000 
00000000 l       .debug_str	00000000 
00000041 l       .debug_str	00000000 
00000055 l       .debug_str	00000000 
00000085 l       .debug_str	00000000 
0000008a l       .debug_str	00000000 
0000008e l       .debug_str	00000000 
00000091 l       .debug_str	00000000 
00000094 l       .debug_str	00000000 
00000097 l       .debug_str	00000000 
0000009c l       .debug_str	00000000 
000000a2 l       .debug_str	00000000 
000000a9 l       .debug_str	00000000 
000000b1 l       .debug_str	00000000 
000000bb l       .debug_str	00000000 
000000c2 l       .debug_str	00000000 
000000c5 l       .debug_str	00000000 
000000c9 l       .debug_str	00000000 
000000d0 l       .debug_str	00000000 
000000d7 l       .debug_str	00000000 
000000db l       .debug_str	00000000 
000000e3 l       .debug_str	00000000 
000000ee l       .debug_str	00000000 
000000f9 l       .debug_str	00000000 
00000106 l       .debug_str	00000000 
00000111 l       .debug_str	00000000 
00000119 l       .debug_str	00000000 
00000124 l       .debug_str	00000000 
0000012f l       .debug_str	00000000 
00000139 l       .debug_str	00000000 
00000144 l       .debug_str	00000000 
0000014f l       .debug_str	00000000 
0000015c l       .debug_str	00000000 
00000168 l       .debug_str	00000000 
00000175 l       .debug_str	00000000 
00000183 l       .debug_str	00000000 
0000018d l       .debug_str	00000000 
0000019a l       .debug_str	00000000 
000001a6 l       .debug_str	00000000 
000001aa l       .debug_str	00000000 
000001b5 l       .debug_str	00000000 
000001bd l       .debug_str	00000000 
000001c4 l       .debug_str	00000000 
000001ce l       .debug_str	00000000 
000001d7 l       .debug_str	00000000 
000001db l       .debug_str	00000000 
000001e6 l       .debug_str	00000000 
0000021c l       .debug_str	00000000 
00000220 l       .debug_str	00000000 
0000029b l       .debug_str	00000000 
000002a1 l       .debug_str	00000000 
000002a5 l       .debug_str	00000000 
000002a9 l       .debug_str	00000000 
000002ac l       .debug_str	00000000 
000002ae l       .debug_str	00000000 
000002b0 l       .debug_str	00000000 
000002d8 l       .debug_str	00000000 
00000310 l       .debug_str	00000000 
00000386 l       .debug_str	00000000 
0000038e l       .debug_str	00000000 
00000405 l       .debug_str	00000000 
0000040e l       .debug_str	00000000 
00000492 l       .debug_str	00000000 
0000049b l       .debug_str	00000000 
000004a8 l       .debug_str	00000000 
000004ab l       .debug_str	00000000 
000004af l       .debug_str	00000000 
000004b9 l       .debug_str	00000000 
000004c4 l       .debug_str	00000000 
000004ce l       .debug_str	00000000 
000004d7 l       .debug_str	00000000 
000004e8 l       .debug_str	00000000 
0000050f l       .debug_str	00000000 
00000512 l       .debug_str	00000000 
0000051b l       .debug_str	00000000 
00000520 l       .debug_str	00000000 
0000052a l       .debug_str	00000000 
0000052f l       .debug_str	00000000 
00000535 l       .debug_str	00000000 
0000053a l       .debug_str	00000000 
0000053f l       .debug_str	00000000 
00000546 l       .debug_str	00000000 
0000054f l       .debug_str	00000000 
00000559 l       .debug_str	00000000 
00000560 l       .debug_str	00000000 
00000566 l       .debug_str	00000000 
0000056b l       .debug_str	00000000 
00000577 l       .debug_str	00000000 
0000057f l       .debug_str	00000000 
00000586 l       .debug_str	00000000 
0000058b l       .debug_str	00000000 
00000594 l       .debug_str	00000000 
00000599 l       .debug_str	00000000 
0000059c l       .debug_str	00000000 
000005a5 l       .debug_str	00000000 
000005ac l       .debug_str	00000000 
000005b1 l       .debug_str	00000000 
000005b6 l       .debug_str	00000000 
000005bc l       .debug_str	00000000 
000005c2 l       .debug_str	00000000 
000005cc l       .debug_str	00000000 
000005cf l       .debug_str	00000000 
000005d5 l       .debug_str	00000000 
000005df l       .debug_str	00000000 
000005e7 l       .debug_str	00000000 
000005ed l       .debug_str	00000000 
000005f3 l       .debug_str	00000000 
000005fe l       .debug_str	00000000 
00000607 l       .debug_str	00000000 
0000062a l       .debug_str	00000000 
00000649 l       .debug_str	00000000 
0000064e l       .debug_str	00000000 
00000675 l       .debug_str	00000000 
00000680 l       .debug_str	00000000 
00000686 l       .debug_str	00000000 
00000000 l     O .rodata.cst4	00000004 .Lanon.88fa30752ae8462a3955f22a791ff141.0
00000000 l     O .rodata..Lanon.88fa30752ae8462a3955f22a791ff141.11	00000008 .Lanon.88fa30752ae8462a3955f22a791ff141.11
00000000 l     O .rodata..Lanon.88fa30752ae8462a3955f22a791ff141.12	00000010 .Lanon.88fa30752ae8462a3955f22a791ff141.12
00000000 l     O .rodata..Lanon.88fa30752ae8462a3955f22a791ff141.14	00000008 .Lanon.88fa30752ae8462a3955f22a791ff141.14
00000000 l     O .rodata..Lanon.88fa30752ae8462a3955f22a791ff141.15	00000010 .Lanon.88fa30752ae8462a3955f22a791ff141.15
00000000 l     O .rodata..Lanon.88fa30752ae8462a3955f22a791ff141.17	00000008 .Lanon.88fa30752ae8462a3955f22a791ff141.17
00000000 l     O .rodata..Lanon.88fa30752ae8462a3955f22a791ff141.18	00000010 .Lanon.88fa30752ae8462a3955f22a791ff141.18
00000000 l     O .rodata..Lanon.88fa30752ae8462a3955f22a791ff141.19	00000018 .Lanon.88fa30752ae8462a3955f22a791ff141.19
00000000 l     O .rodata..Lanon.88fa30752ae8462a3955f22a791ff141.4	00000018 .Lanon.88fa30752ae8462a3955f22a791ff141.4
00000000 l     O .rodata..Lanon.88fa30752ae8462a3955f22a791ff141.6	00000008 .Lanon.88fa30752ae8462a3955f22a791ff141.6
00000000 l     O .rodata..Lanon.88fa30752ae8462a3955f22a791ff141.7	00000000 .Lanon.88fa30752ae8462a3955f22a791ff141.7
00000000 l     O .rodata..Lanon.88fa30752ae8462a3955f22a791ff141.9	00000010 .Lanon.88fa30752ae8462a3955f22a791ff141.9
00000000 l     O .rodata.str.0	0000001a str.0
00000000 l     O .rodata.str.1	00000021 str.1
00000000 l    d  .text._ZN3app10mynewt_hal9MynewtSPI3new17h6ce3033c8648b4d8E	00000000 .text._ZN3app10mynewt_hal9MynewtSPI3new17h6ce3033c8648b4d8E
00000000 l    d  .text._ZN91_$LT$app..mynewt_hal..MynewtSPI$u20$as$u20$embedded_hal..blocking..spi..Write$LT$u8$GT$$GT$5write17h09ed721f103ba8b3E	00000000 .text._ZN91_$LT$app..mynewt_hal..MynewtSPI$u20$as$u20$embedded_hal..blocking..spi..Write$LT$u8$GT$$GT$5write17h09ed721f103ba8b3E
00000000 l    d  .text._ZN3app10mynewt_hal10MynewtGPIO3new17hea4fbfeaf5935887E	00000000 .text._ZN3app10mynewt_hal10MynewtGPIO3new17hea4fbfeaf5935887E
00000000 l    d  .text._ZN84_$LT$app..mynewt_hal..MynewtGPIO$u20$as$u20$embedded_hal..digital..v2..OutputPin$GT$7set_low17he1f42e2511dbd54dE	00000000 .text._ZN84_$LT$app..mynewt_hal..MynewtGPIO$u20$as$u20$embedded_hal..digital..v2..OutputPin$GT$7set_low17he1f42e2511dbd54dE
00000000 l    d  .text._ZN84_$LT$app..mynewt_hal..MynewtGPIO$u20$as$u20$embedded_hal..digital..v2..OutputPin$GT$8set_high17hbcdddbf62d74eb35E	00000000 .text._ZN84_$LT$app..mynewt_hal..MynewtGPIO$u20$as$u20$embedded_hal..digital..v2..OutputPin$GT$8set_high17hbcdddbf62d74eb35E
00000000 l    d  .text._ZN97_$LT$app..mynewt_hal..MynewtDelay$u20$as$u20$embedded_hal..blocking..delay..DelayMs$LT$u8$GT$$GT$8delay_ms17h8d63445346ca4234E	00000000 .text._ZN97_$LT$app..mynewt_hal..MynewtDelay$u20$as$u20$embedded_hal..blocking..delay..DelayMs$LT$u8$GT$$GT$8delay_ms17h8d63445346ca4234E
00000000 l    d  .rodata..Lanon.88fa30752ae8462a3955f22a791ff141.1	00000000 .rodata..Lanon.88fa30752ae8462a3955f22a791ff141.1
00000000 l    d  .rodata..Lanon.88fa30752ae8462a3955f22a791ff141.2	00000000 .rodata..Lanon.88fa30752ae8462a3955f22a791ff141.2
00000000 l    d  .rodata..Lanon.88fa30752ae8462a3955f22a791ff141.3	00000000 .rodata..Lanon.88fa30752ae8462a3955f22a791ff141.3
00000000 l    d  .rodata..Lanon.88fa30752ae8462a3955f22a791ff141.5	00000000 .rodata..Lanon.88fa30752ae8462a3955f22a791ff141.5
00000000 l    d  .rodata..Lanon.88fa30752ae8462a3955f22a791ff141.8	00000000 .rodata..Lanon.88fa30752ae8462a3955f22a791ff141.8
00000000 l    d  .rodata..Lanon.88fa30752ae8462a3955f22a791ff141.10	00000000 .rodata..Lanon.88fa30752ae8462a3955f22a791ff141.10
00000000 l    d  .rodata..Lanon.88fa30752ae8462a3955f22a791ff141.13	00000000 .rodata..Lanon.88fa30752ae8462a3955f22a791ff141.13
00000000 l    d  .rodata..Lanon.88fa30752ae8462a3955f22a791ff141.16	00000000 .rodata..Lanon.88fa30752ae8462a3955f22a791ff141.16
00000000 l    d  .rodata.str.0	00000000 .rodata.str.0
00000000 l    d  .rodata.str.1	00000000 .rodata.str.1
00000000 l    d  .debug_abbrev	00000000 .debug_abbrev
00000000 l    d  .debug_info	00000000 .debug_info
00000000 l    d  .debug_ranges	00000000 .debug_ranges
00000000 l    d  .debug_frame	00000000 .debug_frame
00000000 l    d  .debug_line	00000000 .debug_line
00000000 g     F .text._ZN3app10mynewt_hal10MynewtGPIO3new17hea4fbfeaf5935887E	0000010c .hidden app::mynewt_hal::MynewtGPIO::new
00000000 g     F .text._ZN3app10mynewt_hal9MynewtSPI3new17h6ce3033c8648b4d8E	0000030a .hidden app::mynewt_hal::MynewtSPI::new
00000000         *UND*	00000000 <&T as core::fmt::Debug>::fmt
00000000         *UND*	00000000 core::fmt::ArgumentV1::new
00000000         *UND*	00000000 core::fmt::ArgumentV1::new
00000000         *UND*	00000000 .hidden core::fmt::Arguments::new_v1
00000000         *UND*	00000000 core::ptr::null_mut
00000000         *UND*	00000000 core::slice::<impl [T]>::len
00000000         *UND*	00000000 core::slice::<impl [T]>::as_ptr
00000000         *UND*	00000000 core::panicking::panic
00000000         *UND*	00000000 core::panicking::panic_fmt
00000000         *UND*	00000000 <core::fmt::Arguments as core::fmt::Display>::fmt
00000000 g     F .text._ZN84_$LT$app..mynewt_hal..MynewtGPIO$u20$as$u20$embedded_hal..digital..v2..OutputPin$GT$7set_low17he1f42e2511dbd54dE	00000026 <app::mynewt_hal::MynewtGPIO as embedded_hal::digital::v2::OutputPin>::set_low
00000000 g     F .text._ZN84_$LT$app..mynewt_hal..MynewtGPIO$u20$as$u20$embedded_hal..digital..v2..OutputPin$GT$8set_high17hbcdddbf62d74eb35E	00000026 <app::mynewt_hal::MynewtGPIO as embedded_hal::digital::v2::OutputPin>::set_high
00000000 g     F .text._ZN91_$LT$app..mynewt_hal..MynewtSPI$u20$as$u20$embedded_hal..blocking..spi..Write$LT$u8$GT$$GT$5write17h09ed721f103ba8b3E	00000084 <app::mynewt_hal::MynewtSPI as embedded_hal::blocking::spi::Write<u8>>::write
00000000 g     F .text._ZN97_$LT$app..mynewt_hal..MynewtDelay$u20$as$u20$embedded_hal..blocking..delay..DelayMs$LT$u8$GT$$GT$8delay_ms17h8d63445346ca4234E	00000058 <app::mynewt_hal::MynewtDelay as embedded_hal::blocking::delay::DelayMs<u8>>::delay_ms
00000000         *UND*	00000000 hal_gpio_init_out
00000000         *UND*	00000000 hal_gpio_write
00000000         *UND*	00000000 hal_spi_config
00000000         *UND*	00000000 hal_spi_enable
00000000         *UND*	00000000 hal_spi_txrx
00000000         *UND*	00000000 os_time_delay



Disassembly of section .text._ZN3app10mynewt_hal9MynewtSPI3new17h6ce3033c8648b4d8E:

00000000 <app::mynewt_hal::MynewtSPI::new>:
_ZN3app10mynewt_hal9MynewtSPI3new17h6ce3033c8648b4d8E():
/Users/Luppy/mynewt/stm32bluepill-mynewt-sensor/rust/app/src/mynewt_hal.rs:10
};

/// Rust Embedded HAL interface for Mynewt SPI
impl MynewtSPI {
    /// Create a new SPI port
    pub fn new(spi_num: i32, cs_pin: i32, spi_settings: *mut hal::hal_spi_settings) -> Self {
   0:	b5b0      	push	{r4, r5, r7, lr}
   2:	b0f8      	sub	sp, #480	; 0x1e0
   4:	4613      	mov	r3, r2
   6:	468c      	mov	ip, r1
   8:	4686      	mov	lr, r0
   a:	9016      	str	r0, [sp, #88]	; 0x58
   c:	9117      	str	r1, [sp, #92]	; 0x5c
   e:	9218      	str	r2, [sp, #96]	; 0x60
/Users/Luppy/mynewt/stm32bluepill-mynewt-sensor/rust/app/src/mynewt_hal.rs:11
        let rc = unsafe { hal::hal_spi_config(spi_num, spi_settings) };
  10:	9816      	ldr	r0, [sp, #88]	; 0x58
  12:	9918      	ldr	r1, [sp, #96]	; 0x60
  14:	9315      	str	r3, [sp, #84]	; 0x54
  16:	f8cd c050 	str.w	ip, [sp, #80]	; 0x50
  1a:	f8cd e04c 	str.w	lr, [sp, #76]	; 0x4c
  1e:	f7ff fffe 	bl	0 <hal_spi_config>
  22:	901b      	str	r0, [sp, #108]	; 0x6c
  24:	e7ff      	b.n	26 <app::mynewt_hal::MynewtSPI::new+0x26>
  26:	a81b      	add	r0, sp, #108	; 0x6c
/Users/Luppy/mynewt/stm32bluepill-mynewt-sensor/rust/app/src/mynewt_hal.rs:12
        assert_eq!(rc, 0, "spi config fail");
  28:	901c      	str	r0, [sp, #112]	; 0x70
  2a:	f240 0000 	movw	r0, #0
  2e:	f2c0 0000 	movt	r0, #0
  32:	901d      	str	r0, [sp, #116]	; 0x74
  34:	981c      	ldr	r0, [sp, #112]	; 0x70
  36:	901e      	str	r0, [sp, #120]	; 0x78
  38:	981d      	ldr	r0, [sp, #116]	; 0x74
  3a:	901f      	str	r0, [sp, #124]	; 0x7c
  3c:	981e      	ldr	r0, [sp, #120]	; 0x78
  3e:	6800      	ldr	r0, [r0, #0]
  40:	991f      	ldr	r1, [sp, #124]	; 0x7c
  42:	6809      	ldr	r1, [r1, #0]
  44:	4288      	cmp	r0, r1
  46:	d014      	beq.n	72 <app::mynewt_hal::MynewtSPI::new+0x72>
  48:	e7ff      	b.n	4a <app::mynewt_hal::MynewtSPI::new+0x4a>
  4a:	981e      	ldr	r0, [sp, #120]	; 0x78
  4c:	902f      	str	r0, [sp, #188]	; 0xbc
  4e:	981f      	ldr	r0, [sp, #124]	; 0x7c
  50:	9030      	str	r0, [sp, #192]	; 0xc0
  52:	4668      	mov	r0, sp
  54:	2100      	movs	r1, #0
  56:	6001      	str	r1, [r0, #0]
  58:	f240 0100 	movw	r1, #0
  5c:	f2c0 0100 	movt	r1, #0
  60:	f240 0300 	movw	r3, #0
  64:	f2c0 0300 	movt	r3, #0
  68:	a831      	add	r0, sp, #196	; 0xc4
  6a:	2201      	movs	r2, #1
  6c:	f7ff fffe 	bl	0 <core::fmt::Arguments::new_v1>
  70:	e004      	b.n	7c <app::mynewt_hal::MynewtSPI::new+0x7c>
/Users/Luppy/mynewt/stm32bluepill-mynewt-sensor/rust/app/src/mynewt_hal.rs:14

        let rc = unsafe { hal::hal_spi_enable(spi_num) };
  72:	9816      	ldr	r0, [sp, #88]	; 0x58
  74:	f7ff fffe 	bl	0 <hal_spi_enable>
  78:	903a      	str	r0, [sp, #232]	; 0xe8
  7a:	e04e      	b.n	11a <app::mynewt_hal::MynewtSPI::new+0x11a>
  7c:	a82f      	add	r0, sp, #188	; 0xbc
/Users/Luppy/mynewt/stm32bluepill-mynewt-sensor/rust/app/src/mynewt_hal.rs:12
        assert_eq!(rc, 0, "spi config fail");
  7e:	902c      	str	r0, [sp, #176]	; 0xb0
  80:	a830      	add	r0, sp, #192	; 0xc0
  82:	902d      	str	r0, [sp, #180]	; 0xb4
  84:	a831      	add	r0, sp, #196	; 0xc4
  86:	902e      	str	r0, [sp, #184]	; 0xb8
  88:	982c      	ldr	r0, [sp, #176]	; 0xb0
  8a:	9037      	str	r0, [sp, #220]	; 0xdc
  8c:	982d      	ldr	r0, [sp, #180]	; 0xb4
  8e:	9038      	str	r0, [sp, #224]	; 0xe0
  90:	982e      	ldr	r0, [sp, #184]	; 0xb8
  92:	9039      	str	r0, [sp, #228]	; 0xe4
  94:	9837      	ldr	r0, [sp, #220]	; 0xdc
  96:	f240 0100 	movw	r1, #0
  9a:	f2c0 0100 	movt	r1, #0
  9e:	f7ff fffe 	bl	0 <core::fmt::ArgumentV1::new>
  a2:	9012      	str	r0, [sp, #72]	; 0x48
  a4:	9111      	str	r1, [sp, #68]	; 0x44
  a6:	e7ff      	b.n	a8 <app::mynewt_hal::MynewtSPI::new+0xa8>
  a8:	9838      	ldr	r0, [sp, #224]	; 0xe0
  aa:	f240 0100 	movw	r1, #0
  ae:	f2c0 0100 	movt	r1, #0
  b2:	f7ff fffe 	bl	0 <core::fmt::ArgumentV1::new>
  b6:	9010      	str	r0, [sp, #64]	; 0x40
  b8:	910f      	str	r1, [sp, #60]	; 0x3c
  ba:	e7ff      	b.n	bc <app::mynewt_hal::MynewtSPI::new+0xbc>
  bc:	9839      	ldr	r0, [sp, #228]	; 0xe4
  be:	f240 0100 	movw	r1, #0
  c2:	f2c0 0100 	movt	r1, #0
  c6:	f7ff fffe 	bl	0 <core::fmt::ArgumentV1::new>
  ca:	900e      	str	r0, [sp, #56]	; 0x38
  cc:	910d      	str	r1, [sp, #52]	; 0x34
  ce:	e7ff      	b.n	d0 <app::mynewt_hal::MynewtSPI::new+0xd0>
  d0:	9812      	ldr	r0, [sp, #72]	; 0x48
  d2:	9026      	str	r0, [sp, #152]	; 0x98
  d4:	9911      	ldr	r1, [sp, #68]	; 0x44
  d6:	9127      	str	r1, [sp, #156]	; 0x9c
  d8:	9a10      	ldr	r2, [sp, #64]	; 0x40
  da:	9228      	str	r2, [sp, #160]	; 0xa0
  dc:	9b0f      	ldr	r3, [sp, #60]	; 0x3c
  de:	9329      	str	r3, [sp, #164]	; 0xa4
  e0:	f8dd c038 	ldr.w	ip, [sp, #56]	; 0x38
  e4:	f8cd c0a8 	str.w	ip, [sp, #168]	; 0xa8
  e8:	f8dd e034 	ldr.w	lr, [sp, #52]	; 0x34
  ec:	f8cd e0ac 	str.w	lr, [sp, #172]	; 0xac
  f0:	466c      	mov	r4, sp
  f2:	2503      	movs	r5, #3
  f4:	6025      	str	r5, [r4, #0]
  f6:	f240 0100 	movw	r1, #0
  fa:	f2c0 0100 	movt	r1, #0
  fe:	a820      	add	r0, sp, #128	; 0x80
 100:	ab26      	add	r3, sp, #152	; 0x98
 102:	462a      	mov	r2, r5
 104:	f7ff fffe 	bl	0 <core::fmt::Arguments::new_v1>
 108:	e7ff      	b.n	2 <app::mynewt_hal::MynewtSPI::new+0x2>
 10a:	f240 0100 	movw	r1, #0
 10e:	f2c0 0100 	movt	r1, #0
 112:	a820      	add	r0, sp, #128	; 0x80
 114:	f7ff fffe 	bl	0 <core::panicking::panic_fmt>
 118:	defe      	udf	#254	; 0xfe
 11a:	a83a      	add	r0, sp, #232	; 0xe8
/Users/Luppy/mynewt/stm32bluepill-mynewt-sensor/rust/app/src/mynewt_hal.rs:15
        assert_eq!(rc, 0, "spi enable fail");
 11c:	903b      	str	r0, [sp, #236]	; 0xec
 11e:	f240 0000 	movw	r0, #0
 122:	f2c0 0000 	movt	r0, #0
 126:	903c      	str	r0, [sp, #240]	; 0xf0
 128:	983b      	ldr	r0, [sp, #236]	; 0xec
 12a:	903d      	str	r0, [sp, #244]	; 0xf4
 12c:	983c      	ldr	r0, [sp, #240]	; 0xf0
 12e:	903e      	str	r0, [sp, #248]	; 0xf8
 130:	983d      	ldr	r0, [sp, #244]	; 0xf4
 132:	6800      	ldr	r0, [r0, #0]
 134:	993e      	ldr	r1, [sp, #248]	; 0xf8
 136:	6809      	ldr	r1, [r1, #0]
 138:	4288      	cmp	r0, r1
 13a:	d014      	beq.n	166 <app::mynewt_hal::MynewtSPI::new+0x166>
 13c:	e7ff      	b.n	13e <app::mynewt_hal::MynewtSPI::new+0x13e>
 13e:	983d      	ldr	r0, [sp, #244]	; 0xf4
 140:	904e      	str	r0, [sp, #312]	; 0x138
 142:	983e      	ldr	r0, [sp, #248]	; 0xf8
 144:	904f      	str	r0, [sp, #316]	; 0x13c
 146:	4668      	mov	r0, sp
 148:	2100      	movs	r1, #0
 14a:	6001      	str	r1, [r0, #0]
 14c:	f240 0100 	movw	r1, #0
 150:	f2c0 0100 	movt	r1, #0
 154:	f240 0300 	movw	r3, #0
 158:	f2c0 0300 	movt	r3, #0
 15c:	a850      	add	r0, sp, #320	; 0x140
 15e:	2201      	movs	r2, #1
 160:	f7ff fffe 	bl	0 <core::fmt::Arguments::new_v1>
 164:	e005      	b.n	172 <app::mynewt_hal::MynewtSPI::new+0x172>
/Users/Luppy/mynewt/stm32bluepill-mynewt-sensor/rust/app/src/mynewt_hal.rs:17

        let rc = unsafe { hal::hal_gpio_init_out(cs_pin, 1) };
 166:	9817      	ldr	r0, [sp, #92]	; 0x5c
 168:	2101      	movs	r1, #1
 16a:	f7ff fffe 	bl	0 <hal_gpio_init_out>
 16e:	9059      	str	r0, [sp, #356]	; 0x164
 170:	e04e      	b.n	210 <app::mynewt_hal::MynewtSPI::new+0x210>
 172:	a84e      	add	r0, sp, #312	; 0x138
/Users/Luppy/mynewt/stm32bluepill-mynewt-sensor/rust/app/src/mynewt_hal.rs:15
        assert_eq!(rc, 0, "spi enable fail");
 174:	904b      	str	r0, [sp, #300]	; 0x12c
 176:	a84f      	add	r0, sp, #316	; 0x13c
 178:	904c      	str	r0, [sp, #304]	; 0x130
 17a:	a850      	add	r0, sp, #320	; 0x140
 17c:	904d      	str	r0, [sp, #308]	; 0x134
 17e:	984b      	ldr	r0, [sp, #300]	; 0x12c
 180:	9056      	str	r0, [sp, #344]	; 0x158
 182:	984c      	ldr	r0, [sp, #304]	; 0x130
 184:	9057      	str	r0, [sp, #348]	; 0x15c
 186:	984d      	ldr	r0, [sp, #308]	; 0x134
 188:	9058      	str	r0, [sp, #352]	; 0x160
 18a:	9856      	ldr	r0, [sp, #344]	; 0x158
 18c:	f240 0100 	movw	r1, #0
 190:	f2c0 0100 	movt	r1, #0
 194:	f7ff fffe 	bl	0 <core::fmt::ArgumentV1::new>
 198:	900c      	str	r0, [sp, #48]	; 0x30
 19a:	910b      	str	r1, [sp, #44]	; 0x2c
 19c:	e7ff      	b.n	19e <app::mynewt_hal::MynewtSPI::new+0x19e>
 19e:	9857      	ldr	r0, [sp, #348]	; 0x15c
 1a0:	f240 0100 	movw	r1, #0
 1a4:	f2c0 0100 	movt	r1, #0
 1a8:	f7ff fffe 	bl	0 <core::fmt::ArgumentV1::new>
 1ac:	900a      	str	r0, [sp, #40]	; 0x28
 1ae:	9109      	str	r1, [sp, #36]	; 0x24
 1b0:	e7ff      	b.n	1b2 <app::mynewt_hal::MynewtSPI::new+0x1b2>
 1b2:	9858      	ldr	r0, [sp, #352]	; 0x160
 1b4:	f240 0100 	movw	r1, #0
 1b8:	f2c0 0100 	movt	r1, #0
 1bc:	f7ff fffe 	bl	0 <core::fmt::ArgumentV1::new>
 1c0:	9008      	str	r0, [sp, #32]
 1c2:	9107      	str	r1, [sp, #28]
 1c4:	e7ff      	b.n	1c6 <app::mynewt_hal::MynewtSPI::new+0x1c6>
 1c6:	980c      	ldr	r0, [sp, #48]	; 0x30
 1c8:	9045      	str	r0, [sp, #276]	; 0x114
 1ca:	990b      	ldr	r1, [sp, #44]	; 0x2c
 1cc:	9146      	str	r1, [sp, #280]	; 0x118
 1ce:	9a0a      	ldr	r2, [sp, #40]	; 0x28
 1d0:	9247      	str	r2, [sp, #284]	; 0x11c
 1d2:	9b09      	ldr	r3, [sp, #36]	; 0x24
 1d4:	9348      	str	r3, [sp, #288]	; 0x120
 1d6:	f8dd c020 	ldr.w	ip, [sp, #32]
 1da:	f8cd c124 	str.w	ip, [sp, #292]	; 0x124
 1de:	f8dd e01c 	ldr.w	lr, [sp, #28]
 1e2:	f8cd e128 	str.w	lr, [sp, #296]	; 0x128
 1e6:	466c      	mov	r4, sp
 1e8:	2503      	movs	r5, #3
 1ea:	6025      	str	r5, [r4, #0]
 1ec:	f240 0100 	movw	r1, #0
 1f0:	f2c0 0100 	movt	r1, #0
 1f4:	a83f      	add	r0, sp, #252	; 0xfc
 1f6:	ab45      	add	r3, sp, #276	; 0x114
 1f8:	462a      	mov	r2, r5
 1fa:	f7ff fffe 	bl	0 <core::fmt::Arguments::new_v1>
 1fe:	e7ff      	b.n	2 <app::mynewt_hal::MynewtSPI::new+0x2>
 200:	f240 0100 	movw	r1, #0
 204:	f2c0 0100 	movt	r1, #0
 208:	a83f      	add	r0, sp, #252	; 0xfc
 20a:	f7ff fffe 	bl	0 <core::panicking::panic_fmt>
 20e:	defe      	udf	#254	; 0xfe
 210:	a859      	add	r0, sp, #356	; 0x164
/Users/Luppy/mynewt/stm32bluepill-mynewt-sensor/rust/app/src/mynewt_hal.rs:18
        assert_eq!(rc, 0, "spi init fail");
 212:	905a      	str	r0, [sp, #360]	; 0x168
 214:	f240 0000 	movw	r0, #0
 218:	f2c0 0000 	movt	r0, #0
 21c:	905b      	str	r0, [sp, #364]	; 0x16c
 21e:	985a      	ldr	r0, [sp, #360]	; 0x168
 220:	905c      	str	r0, [sp, #368]	; 0x170
 222:	985b      	ldr	r0, [sp, #364]	; 0x16c
 224:	905d      	str	r0, [sp, #372]	; 0x174
 226:	985c      	ldr	r0, [sp, #368]	; 0x170
 228:	6800      	ldr	r0, [r0, #0]
 22a:	995d      	ldr	r1, [sp, #372]	; 0x174
 22c:	6809      	ldr	r1, [r1, #0]
 22e:	4288      	cmp	r0, r1
 230:	d014      	beq.n	25c <app::mynewt_hal::MynewtSPI::new+0x25c>
 232:	e7ff      	b.n	234 <app::mynewt_hal::MynewtSPI::new+0x234>
 234:	985c      	ldr	r0, [sp, #368]	; 0x170
 236:	906d      	str	r0, [sp, #436]	; 0x1b4
 238:	985d      	ldr	r0, [sp, #372]	; 0x174
 23a:	906e      	str	r0, [sp, #440]	; 0x1b8
 23c:	4668      	mov	r0, sp
 23e:	2100      	movs	r1, #0
 240:	6001      	str	r1, [r0, #0]
 242:	f240 0100 	movw	r1, #0
 246:	f2c0 0100 	movt	r1, #0
 24a:	f240 0300 	movw	r3, #0
 24e:	f2c0 0300 	movt	r3, #0
 252:	a86f      	add	r0, sp, #444	; 0x1bc
 254:	2201      	movs	r2, #1
 256:	f7ff fffe 	bl	0 <core::fmt::Arguments::new_v1>
 25a:	e007      	b.n	26c <app::mynewt_hal::MynewtSPI::new+0x26c>
/Users/Luppy/mynewt/stm32bluepill-mynewt-sensor/rust/app/src/mynewt_hal.rs:20
        MynewtSPI {
            spi_num,
 25c:	9816      	ldr	r0, [sp, #88]	; 0x58
/Users/Luppy/mynewt/stm32bluepill-mynewt-sensor/rust/app/src/mynewt_hal.rs:21
            cs_pin,
 25e:	9917      	ldr	r1, [sp, #92]	; 0x5c
/Users/Luppy/mynewt/stm32bluepill-mynewt-sensor/rust/app/src/mynewt_hal.rs:19
        MynewtSPI {
 260:	9019      	str	r0, [sp, #100]	; 0x64
 262:	911a      	str	r1, [sp, #104]	; 0x68
/Users/Luppy/mynewt/stm32bluepill-mynewt-sensor/rust/app/src/mynewt_hal.rs:23
        }
    }
 264:	9819      	ldr	r0, [sp, #100]	; 0x64
 266:	991a      	ldr	r1, [sp, #104]	; 0x68
 268:	b078      	add	sp, #480	; 0x1e0
 26a:	bdb0      	pop	{r4, r5, r7, pc}
 26c:	a86d      	add	r0, sp, #436	; 0x1b4
/Users/Luppy/mynewt/stm32bluepill-mynewt-sensor/rust/app/src/mynewt_hal.rs:18
        assert_eq!(rc, 0, "spi init fail");
 26e:	906a      	str	r0, [sp, #424]	; 0x1a8
 270:	a86e      	add	r0, sp, #440	; 0x1b8
 272:	906b      	str	r0, [sp, #428]	; 0x1ac
 274:	a86f      	add	r0, sp, #444	; 0x1bc
 276:	906c      	str	r0, [sp, #432]	; 0x1b0
 278:	986a      	ldr	r0, [sp, #424]	; 0x1a8
 27a:	9075      	str	r0, [sp, #468]	; 0x1d4
 27c:	986b      	ldr	r0, [sp, #428]	; 0x1ac
 27e:	9076      	str	r0, [sp, #472]	; 0x1d8
 280:	986c      	ldr	r0, [sp, #432]	; 0x1b0
 282:	9077      	str	r0, [sp, #476]	; 0x1dc
 284:	9875      	ldr	r0, [sp, #468]	; 0x1d4
 286:	f240 0100 	movw	r1, #0
 28a:	f2c0 0100 	movt	r1, #0
 28e:	f7ff fffe 	bl	0 <core::fmt::ArgumentV1::new>
 292:	9006      	str	r0, [sp, #24]
 294:	9105      	str	r1, [sp, #20]
 296:	e7ff      	b.n	298 <app::mynewt_hal::MynewtSPI::new+0x298>
 298:	9876      	ldr	r0, [sp, #472]	; 0x1d8
 29a:	f240 0100 	movw	r1, #0
 29e:	f2c0 0100 	movt	r1, #0
 2a2:	f7ff fffe 	bl	0 <core::fmt::ArgumentV1::new>
 2a6:	9004      	str	r0, [sp, #16]
 2a8:	9103      	str	r1, [sp, #12]
 2aa:	e7ff      	b.n	2ac <app::mynewt_hal::MynewtSPI::new+0x2ac>
 2ac:	9877      	ldr	r0, [sp, #476]	; 0x1dc
 2ae:	f240 0100 	movw	r1, #0
 2b2:	f2c0 0100 	movt	r1, #0
 2b6:	f7ff fffe 	bl	0 <core::fmt::ArgumentV1::new>
 2ba:	9002      	str	r0, [sp, #8]
 2bc:	9101      	str	r1, [sp, #4]
 2be:	e7ff      	b.n	2c0 <app::mynewt_hal::MynewtSPI::new+0x2c0>
 2c0:	9806      	ldr	r0, [sp, #24]
 2c2:	9064      	str	r0, [sp, #400]	; 0x190
 2c4:	9905      	ldr	r1, [sp, #20]
 2c6:	9165      	str	r1, [sp, #404]	; 0x194
 2c8:	9a04      	ldr	r2, [sp, #16]
 2ca:	9266      	str	r2, [sp, #408]	; 0x198
 2cc:	9b03      	ldr	r3, [sp, #12]
 2ce:	9367      	str	r3, [sp, #412]	; 0x19c
 2d0:	f8dd c008 	ldr.w	ip, [sp, #8]
 2d4:	f8cd c1a0 	str.w	ip, [sp, #416]	; 0x1a0
 2d8:	f8dd e004 	ldr.w	lr, [sp, #4]
 2dc:	f8cd e1a4 	str.w	lr, [sp, #420]	; 0x1a4
 2e0:	466c      	mov	r4, sp
 2e2:	2503      	movs	r5, #3
 2e4:	6025      	str	r5, [r4, #0]
 2e6:	f240 0100 	movw	r1, #0
 2ea:	f2c0 0100 	movt	r1, #0
 2ee:	a85e      	add	r0, sp, #376	; 0x178
 2f0:	ab64      	add	r3, sp, #400	; 0x190
 2f2:	462a      	mov	r2, r5
 2f4:	f7ff fffe 	bl	0 <core::fmt::Arguments::new_v1>
 2f8:	e7ff      	b.n	2 <app::mynewt_hal::MynewtSPI::new+0x2>
 2fa:	f240 0100 	movw	r1, #0
 2fe:	f2c0 0100 	movt	r1, #0
 302:	a85e      	add	r0, sp, #376	; 0x178
 304:	f7ff fffe 	bl	0 <core::panicking::panic_fmt>
 308:	defe      	udf	#254	; 0xfe

Disassembly of section .text._ZN91_$LT$app..mynewt_hal..MynewtSPI$u20$as$u20$embedded_hal..blocking..spi..Write$LT$u8$GT$$GT$5write17h09ed721f103ba8b3E:

00000000 <<app::mynewt_hal::MynewtSPI as embedded_hal::blocking::spi::Write<u8>>::write>:
_ZN91_$LT$app..mynewt_hal..MynewtSPI$u20$as$u20$embedded_hal..blocking..spi..Write$LT$u8$GT$$GT$5write17h09ed721f103ba8b3E():
/Users/Luppy/mynewt/stm32bluepill-mynewt-sensor/rust/app/src/mynewt_hal.rs:29
}

/// Rust Embedded HAL interface for Mynewt SPI
impl embedded_hal::blocking::spi::Write<u8> for MynewtSPI {
    /// Write to the SPI port
    fn write(&mut self, words: &[u8]) -> Result<(), Self::Error> {
   0:	b580      	push	{r7, lr}
   2:	b090      	sub	sp, #64	; 0x40
   4:	4613      	mov	r3, r2
   6:	468c      	mov	ip, r1
   8:	4686      	mov	lr, r0
   a:	900a      	str	r0, [sp, #40]	; 0x28
   c:	910b      	str	r1, [sp, #44]	; 0x2c
   e:	920c      	str	r2, [sp, #48]	; 0x30
/Users/Luppy/mynewt/stm32bluepill-mynewt-sensor/rust/app/src/mynewt_hal.rs:31
        //  Select the device
        unsafe { hal::hal_gpio_write(self.cs_pin, 0) };
  10:	980a      	ldr	r0, [sp, #40]	; 0x28
  12:	6840      	ldr	r0, [r0, #4]
  14:	2100      	movs	r1, #0
  16:	9309      	str	r3, [sp, #36]	; 0x24
  18:	f8cd c020 	str.w	ip, [sp, #32]
  1c:	f8cd e01c 	str.w	lr, [sp, #28]
  20:	f7ff fffe 	bl	0 <hal_gpio_write>
  24:	e7ff      	b.n	26 <<app::mynewt_hal::MynewtSPI as embedded_hal::blocking::spi::Write<u8>>::write+0x26>
/Users/Luppy/mynewt/stm32bluepill-mynewt-sensor/rust/app/src/mynewt_hal.rs:33
        //  Send the data
        unsafe { hal::hal_spi_txrx(self.spi_num, 
  26:	980a      	ldr	r0, [sp, #40]	; 0x28
  28:	6800      	ldr	r0, [r0, #0]
/Users/Luppy/mynewt/stm32bluepill-mynewt-sensor/rust/app/src/mynewt_hal.rs:34
            core::mem::transmute(words.as_ptr()),  //  TX Buffer
  2a:	990b      	ldr	r1, [sp, #44]	; 0x2c
  2c:	9a0c      	ldr	r2, [sp, #48]	; 0x30
  2e:	9006      	str	r0, [sp, #24]
  30:	4608      	mov	r0, r1
  32:	4611      	mov	r1, r2
  34:	f7ff fffe 	bl	0 <core::slice::<impl [T]>::as_ptr>
  38:	9005      	str	r0, [sp, #20]
  3a:	e7ff      	b.n	3c <<app::mynewt_hal::MynewtSPI as embedded_hal::blocking::spi::Write<u8>>::write+0x3c>
  3c:	9805      	ldr	r0, [sp, #20]
  3e:	900f      	str	r0, [sp, #60]	; 0x3c
  40:	990f      	ldr	r1, [sp, #60]	; 0x3c
  42:	9104      	str	r1, [sp, #16]
  44:	e7ff      	b.n	46 <<app::mynewt_hal::MynewtSPI as embedded_hal::blocking::spi::Write<u8>>::write+0x46>
/Users/Luppy/mynewt/stm32bluepill-mynewt-sensor/rust/app/src/mynewt_hal.rs:35
            core::ptr::null_mut(),                 //  RX Buffer (don't receive)
  46:	f7ff fffe 	bl	0 <core::ptr::null_mut>
  4a:	9003      	str	r0, [sp, #12]
  4c:	e7ff      	b.n	4e <<app::mynewt_hal::MynewtSPI as embedded_hal::blocking::spi::Write<u8>>::write+0x4e>
/Users/Luppy/mynewt/stm32bluepill-mynewt-sensor/rust/app/src/mynewt_hal.rs:36
            words.len() as i32) };                 //  Length
  4e:	980b      	ldr	r0, [sp, #44]	; 0x2c
  50:	990c      	ldr	r1, [sp, #48]	; 0x30
  52:	f7ff fffe 	bl	0 <core::slice::<impl [T]>::len>
  56:	9002      	str	r0, [sp, #8]
  58:	e7ff      	b.n	5a <<app::mynewt_hal::MynewtSPI as embedded_hal::blocking::spi::Write<u8>>::write+0x5a>
/Users/Luppy/mynewt/stm32bluepill-mynewt-sensor/rust/app/src/mynewt_hal.rs:33
        unsafe { hal::hal_spi_txrx(self.spi_num, 
  5a:	9806      	ldr	r0, [sp, #24]
  5c:	9904      	ldr	r1, [sp, #16]
  5e:	9a03      	ldr	r2, [sp, #12]
  60:	9b02      	ldr	r3, [sp, #8]
  62:	f7ff fffe 	bl	0 <hal_spi_txrx>
  66:	9001      	str	r0, [sp, #4]
  68:	e7ff      	b.n	6a <<app::mynewt_hal::MynewtSPI as embedded_hal::blocking::spi::Write<u8>>::write+0x6a>
/Users/Luppy/mynewt/stm32bluepill-mynewt-sensor/rust/app/src/mynewt_hal.rs:38
        //  De-select the device
        unsafe { hal::hal_gpio_write(self.cs_pin, 1) };
  6a:	980a      	ldr	r0, [sp, #40]	; 0x28
  6c:	6840      	ldr	r0, [r0, #4]
  6e:	2101      	movs	r1, #1
  70:	f7ff fffe 	bl	0 <hal_gpio_write>
  74:	e7ff      	b.n	76 <<app::mynewt_hal::MynewtSPI as embedded_hal::blocking::spi::Write<u8>>::write+0x76>
  76:	2000      	movs	r0, #0
/Users/Luppy/mynewt/stm32bluepill-mynewt-sensor/rust/app/src/mynewt_hal.rs:39
        Ok(())
  78:	900d      	str	r0, [sp, #52]	; 0x34
  7a:	2001      	movs	r0, #1
  7c:	900d      	str	r0, [sp, #52]	; 0x34
/Users/Luppy/mynewt/stm32bluepill-mynewt-sensor/rust/app/src/mynewt_hal.rs:40
    }
  7e:	980d      	ldr	r0, [sp, #52]	; 0x34
  80:	b010      	add	sp, #64	; 0x40
  82:	bd80      	pop	{r7, pc}

Disassembly of section .text._ZN3app10mynewt_hal10MynewtGPIO3new17hea4fbfeaf5935887E:

00000000 <app::mynewt_hal::MynewtGPIO::new>:
_ZN3app10mynewt_hal10MynewtGPIO3new17hea4fbfeaf5935887E():
/Users/Luppy/mynewt/stm32bluepill-mynewt-sensor/rust/app/src/mynewt_hal.rs:49
}

/// Rust Embedded HAL interface for Mynewt GPIO
impl MynewtGPIO {
    /// Create a new output GPIO pin
    pub fn new(pin: i32) -> Self {
   0:	b5b0      	push	{r4, r5, r7, lr}
   2:	b0aa      	sub	sp, #168	; 0xa8
   4:	4601      	mov	r1, r0
   6:	9009      	str	r0, [sp, #36]	; 0x24
/Users/Luppy/mynewt/stm32bluepill-mynewt-sensor/rust/app/src/mynewt_hal.rs:52
        //  TODO: let dc = pins.d0.into_push_pull_output(&mut pins.port);
        //  TODO: let rst = pins.d1.into_push_pull_output(&mut pins.port);
        let rc = unsafe { hal::hal_gpio_init_out(pin, 0) };
   8:	9809      	ldr	r0, [sp, #36]	; 0x24
   a:	2200      	movs	r2, #0
   c:	9108      	str	r1, [sp, #32]
   e:	4611      	mov	r1, r2
  10:	f7ff fffe 	bl	0 <hal_gpio_init_out>
  14:	900b      	str	r0, [sp, #44]	; 0x2c
  16:	e7ff      	b.n	18 <app::mynewt_hal::MynewtGPIO::new+0x18>
  18:	a80b      	add	r0, sp, #44	; 0x2c
/Users/Luppy/mynewt/stm32bluepill-mynewt-sensor/rust/app/src/mynewt_hal.rs:53
        assert_eq!(rc, 0, "gpio fail");
  1a:	900c      	str	r0, [sp, #48]	; 0x30
  1c:	f240 0000 	movw	r0, #0
  20:	f2c0 0000 	movt	r0, #0
  24:	900d      	str	r0, [sp, #52]	; 0x34
  26:	980c      	ldr	r0, [sp, #48]	; 0x30
  28:	900e      	str	r0, [sp, #56]	; 0x38
  2a:	980d      	ldr	r0, [sp, #52]	; 0x34
  2c:	900f      	str	r0, [sp, #60]	; 0x3c
  2e:	980e      	ldr	r0, [sp, #56]	; 0x38
  30:	6800      	ldr	r0, [r0, #0]
  32:	990f      	ldr	r1, [sp, #60]	; 0x3c
  34:	6809      	ldr	r1, [r1, #0]
  36:	4288      	cmp	r0, r1
  38:	d014      	beq.n	64 <app::mynewt_hal::MynewtGPIO::new+0x64>
  3a:	e7ff      	b.n	3c <app::mynewt_hal::MynewtGPIO::new+0x3c>
  3c:	980e      	ldr	r0, [sp, #56]	; 0x38
  3e:	901f      	str	r0, [sp, #124]	; 0x7c
  40:	980f      	ldr	r0, [sp, #60]	; 0x3c
  42:	9020      	str	r0, [sp, #128]	; 0x80
  44:	4668      	mov	r0, sp
  46:	2100      	movs	r1, #0
  48:	6001      	str	r1, [r0, #0]
  4a:	f240 0100 	movw	r1, #0
  4e:	f2c0 0100 	movt	r1, #0
  52:	f240 0300 	movw	r3, #0
  56:	f2c0 0300 	movt	r3, #0
  5a:	a821      	add	r0, sp, #132	; 0x84
  5c:	2201      	movs	r2, #1
  5e:	f7ff fffe 	bl	0 <core::fmt::Arguments::new_v1>
  62:	e004      	b.n	6e <app::mynewt_hal::MynewtGPIO::new+0x6e>
/Users/Luppy/mynewt/stm32bluepill-mynewt-sensor/rust/app/src/mynewt_hal.rs:55
        MynewtGPIO {
            pin
  64:	9809      	ldr	r0, [sp, #36]	; 0x24
/Users/Luppy/mynewt/stm32bluepill-mynewt-sensor/rust/app/src/mynewt_hal.rs:54
        MynewtGPIO {
  66:	900a      	str	r0, [sp, #40]	; 0x28
/Users/Luppy/mynewt/stm32bluepill-mynewt-sensor/rust/app/src/mynewt_hal.rs:57
        }
    }
  68:	980a      	ldr	r0, [sp, #40]	; 0x28
  6a:	b02a      	add	sp, #168	; 0xa8
  6c:	bdb0      	pop	{r4, r5, r7, pc}
  6e:	a81f      	add	r0, sp, #124	; 0x7c
/Users/Luppy/mynewt/stm32bluepill-mynewt-sensor/rust/app/src/mynewt_hal.rs:53
        assert_eq!(rc, 0, "gpio fail");
  70:	901c      	str	r0, [sp, #112]	; 0x70
  72:	a820      	add	r0, sp, #128	; 0x80
  74:	901d      	str	r0, [sp, #116]	; 0x74
  76:	a821      	add	r0, sp, #132	; 0x84
  78:	901e      	str	r0, [sp, #120]	; 0x78
  7a:	981c      	ldr	r0, [sp, #112]	; 0x70
  7c:	9027      	str	r0, [sp, #156]	; 0x9c
  7e:	981d      	ldr	r0, [sp, #116]	; 0x74
  80:	9028      	str	r0, [sp, #160]	; 0xa0
  82:	981e      	ldr	r0, [sp, #120]	; 0x78
  84:	9029      	str	r0, [sp, #164]	; 0xa4
  86:	9827      	ldr	r0, [sp, #156]	; 0x9c
  88:	f240 0100 	movw	r1, #0
  8c:	f2c0 0100 	movt	r1, #0
  90:	f7ff fffe 	bl	0 <core::fmt::ArgumentV1::new>
  94:	9007      	str	r0, [sp, #28]
  96:	9106      	str	r1, [sp, #24]
  98:	e7ff      	b.n	9a <app::mynewt_hal::MynewtGPIO::new+0x9a>
  9a:	9828      	ldr	r0, [sp, #160]	; 0xa0
  9c:	f240 0100 	movw	r1, #0
  a0:	f2c0 0100 	movt	r1, #0
  a4:	f7ff fffe 	bl	0 <core::fmt::ArgumentV1::new>
  a8:	9005      	str	r0, [sp, #20]
  aa:	9104      	str	r1, [sp, #16]
  ac:	e7ff      	b.n	ae <app::mynewt_hal::MynewtGPIO::new+0xae>
  ae:	9829      	ldr	r0, [sp, #164]	; 0xa4
  b0:	f240 0100 	movw	r1, #0
  b4:	f2c0 0100 	movt	r1, #0
  b8:	f7ff fffe 	bl	0 <core::fmt::ArgumentV1::new>
  bc:	9003      	str	r0, [sp, #12]
  be:	9102      	str	r1, [sp, #8]
  c0:	e7ff      	b.n	c2 <app::mynewt_hal::MynewtGPIO::new+0xc2>
  c2:	9807      	ldr	r0, [sp, #28]
  c4:	9016      	str	r0, [sp, #88]	; 0x58
  c6:	9906      	ldr	r1, [sp, #24]
  c8:	9117      	str	r1, [sp, #92]	; 0x5c
  ca:	9a05      	ldr	r2, [sp, #20]
  cc:	9218      	str	r2, [sp, #96]	; 0x60
  ce:	9b04      	ldr	r3, [sp, #16]
  d0:	9319      	str	r3, [sp, #100]	; 0x64
  d2:	f8dd c00c 	ldr.w	ip, [sp, #12]
  d6:	f8cd c068 	str.w	ip, [sp, #104]	; 0x68
  da:	f8dd e008 	ldr.w	lr, [sp, #8]
  de:	f8cd e06c 	str.w	lr, [sp, #108]	; 0x6c
  e2:	466c      	mov	r4, sp
  e4:	2503      	movs	r5, #3
  e6:	6025      	str	r5, [r4, #0]
  e8:	f240 0100 	movw	r1, #0
  ec:	f2c0 0100 	movt	r1, #0
  f0:	a810      	add	r0, sp, #64	; 0x40
  f2:	ab16      	add	r3, sp, #88	; 0x58
  f4:	462a      	mov	r2, r5
  f6:	f7ff fffe 	bl	0 <core::fmt::Arguments::new_v1>
  fa:	e7ff      	b.n	2 <app::mynewt_hal::MynewtGPIO::new+0x2>
  fc:	f240 0100 	movw	r1, #0
 100:	f2c0 0100 	movt	r1, #0
 104:	a810      	add	r0, sp, #64	; 0x40
 106:	f7ff fffe 	bl	0 <core::panicking::panic_fmt>
 10a:	defe      	udf	#254	; 0xfe

Disassembly of section .text._ZN84_$LT$app..mynewt_hal..MynewtGPIO$u20$as$u20$embedded_hal..digital..v2..OutputPin$GT$7set_low17he1f42e2511dbd54dE:

00000000 <<app::mynewt_hal::MynewtGPIO as embedded_hal::digital::v2::OutputPin>::set_low>:
_ZN84_$LT$app..mynewt_hal..MynewtGPIO$u20$as$u20$embedded_hal..digital..v2..OutputPin$GT$7set_low17he1f42e2511dbd54dE():
/Users/Luppy/mynewt/stm32bluepill-mynewt-sensor/rust/app/src/mynewt_hal.rs:63
}

/// Rust Embedded HAL interface for Mynewt GPIO
impl embedded_hal::digital::v2::OutputPin for MynewtGPIO {
    /// Set the GPIO pin to low
    fn set_low(&mut self) -> Result<(), Self::Error> {
   0:	b580      	push	{r7, lr}
   2:	b084      	sub	sp, #16
   4:	4601      	mov	r1, r0
   6:	9001      	str	r0, [sp, #4]
/Users/Luppy/mynewt/stm32bluepill-mynewt-sensor/rust/app/src/mynewt_hal.rs:64
        unsafe { hal::hal_gpio_write(self.pin, 0) };
   8:	9801      	ldr	r0, [sp, #4]
   a:	6800      	ldr	r0, [r0, #0]
   c:	2200      	movs	r2, #0
   e:	9100      	str	r1, [sp, #0]
  10:	4611      	mov	r1, r2
  12:	f7ff fffe 	bl	0 <hal_gpio_write>
  16:	e7ff      	b.n	18 <<app::mynewt_hal::MynewtGPIO as embedded_hal::digital::v2::OutputPin>::set_low+0x18>
  18:	2000      	movs	r0, #0
/Users/Luppy/mynewt/stm32bluepill-mynewt-sensor/rust/app/src/mynewt_hal.rs:65
        Ok(())
  1a:	9002      	str	r0, [sp, #8]
  1c:	2001      	movs	r0, #1
  1e:	9002      	str	r0, [sp, #8]
/Users/Luppy/mynewt/stm32bluepill-mynewt-sensor/rust/app/src/mynewt_hal.rs:66
    }
  20:	9802      	ldr	r0, [sp, #8]
  22:	b004      	add	sp, #16
  24:	bd80      	pop	{r7, pc}

Disassembly of section .text._ZN84_$LT$app..mynewt_hal..MynewtGPIO$u20$as$u20$embedded_hal..digital..v2..OutputPin$GT$8set_high17hbcdddbf62d74eb35E:

00000000 <<app::mynewt_hal::MynewtGPIO as embedded_hal::digital::v2::OutputPin>::set_high>:
_ZN84_$LT$app..mynewt_hal..MynewtGPIO$u20$as$u20$embedded_hal..digital..v2..OutputPin$GT$8set_high17hbcdddbf62d74eb35E():
/Users/Luppy/mynewt/stm32bluepill-mynewt-sensor/rust/app/src/mynewt_hal.rs:69

    /// Set the GPIO pin to high
    fn set_high(&mut self) -> Result<(), Self::Error> {
   0:	b580      	push	{r7, lr}
   2:	b084      	sub	sp, #16
   4:	4601      	mov	r1, r0
   6:	9001      	str	r0, [sp, #4]
/Users/Luppy/mynewt/stm32bluepill-mynewt-sensor/rust/app/src/mynewt_hal.rs:70
        unsafe { hal::hal_gpio_write(self.pin, 1) };
   8:	9801      	ldr	r0, [sp, #4]
   a:	6800      	ldr	r0, [r0, #0]
   c:	2201      	movs	r2, #1
   e:	9100      	str	r1, [sp, #0]
  10:	4611      	mov	r1, r2
  12:	f7ff fffe 	bl	0 <hal_gpio_write>
  16:	e7ff      	b.n	18 <<app::mynewt_hal::MynewtGPIO as embedded_hal::digital::v2::OutputPin>::set_high+0x18>
  18:	2000      	movs	r0, #0
/Users/Luppy/mynewt/stm32bluepill-mynewt-sensor/rust/app/src/mynewt_hal.rs:71
        Ok(())
  1a:	9002      	str	r0, [sp, #8]
  1c:	2001      	movs	r0, #1
  1e:	9002      	str	r0, [sp, #8]
/Users/Luppy/mynewt/stm32bluepill-mynewt-sensor/rust/app/src/mynewt_hal.rs:72
    }
  20:	9802      	ldr	r0, [sp, #8]
  22:	b004      	add	sp, #16
  24:	bd80      	pop	{r7, pc}

Disassembly of section .text._ZN97_$LT$app..mynewt_hal..MynewtDelay$u20$as$u20$embedded_hal..blocking..delay..DelayMs$LT$u8$GT$$GT$8delay_ms17h8d63445346ca4234E:

00000000 <<app::mynewt_hal::MynewtDelay as embedded_hal::blocking::delay::DelayMs<u8>>::delay_ms>:
_ZN97_$LT$app..mynewt_hal..MynewtDelay$u20$as$u20$embedded_hal..blocking..delay..DelayMs$LT$u8$GT$$GT$8delay_ms17h8d63445346ca4234E():
/Users/Luppy/mynewt/stm32bluepill-mynewt-sensor/rust/app/src/mynewt_hal.rs:81
}

/// Rust Embedded HAL interface for Mynewt Delay
impl embedded_hal::blocking::delay::DelayMs<u8> for MynewtDelay {
    /// Sleep for the specified number of milliseconds
    fn delay_ms(&mut self, ms: u8) {
   0:	b580      	push	{r7, lr}
   2:	b088      	sub	sp, #32
   4:	460a      	mov	r2, r1
   6:	4603      	mov	r3, r0
   8:	9005      	str	r0, [sp, #20]
   a:	f88d 101b 	strb.w	r1, [sp, #27]
/Users/Luppy/mynewt/stm32bluepill-mynewt-sensor/rust/app/src/mynewt_hal.rs:84
        //  TODO: Get this constant from Mynewt
        const OS_TICKS_PER_SEC: u32 = 1000;
        let delay_ticks = (ms as u32) * OS_TICKS_PER_SEC / 1000;
   e:	f89d 001b 	ldrb.w	r0, [sp, #27]
  12:	f44f 717a 	mov.w	r1, #1000	; 0x3e8
  16:	fba0 0101 	umull	r0, r1, r0, r1
  1a:	2900      	cmp	r1, #0
  1c:	9204      	str	r2, [sp, #16]
  1e:	9303      	str	r3, [sp, #12]
  20:	9002      	str	r0, [sp, #8]
  22:	d112      	bne.n	4a <<app::mynewt_hal::MynewtDelay as embedded_hal::blocking::delay::DelayMs<u8>>::delay_ms+0x4a>
  24:	e7ff      	b.n	26 <<app::mynewt_hal::MynewtDelay as embedded_hal::blocking::delay::DelayMs<u8>>::delay_ms+0x26>
  26:	e7ff      	b.n	28 <<app::mynewt_hal::MynewtDelay as embedded_hal::blocking::delay::DelayMs<u8>>::delay_ms+0x28>
  28:	f644 50d3 	movw	r0, #19923	; 0x4dd3
  2c:	f2c1 0062 	movt	r0, #4194	; 0x1062
  30:	9902      	ldr	r1, [sp, #8]
  32:	fba1 0200 	umull	r0, r2, r1, r0
  36:	0992      	lsrs	r2, r2, #6
  38:	9207      	str	r2, [sp, #28]
/Users/Luppy/mynewt/stm32bluepill-mynewt-sensor/rust/app/src/mynewt_hal.rs:85
        unsafe { os::os_time_delay(delay_ticks) };
  3a:	9a07      	ldr	r2, [sp, #28]
  3c:	9001      	str	r0, [sp, #4]
  3e:	4610      	mov	r0, r2
  40:	f7ff fffe 	bl	0 <os_time_delay>
  44:	e7ff      	b.n	46 <<app::mynewt_hal::MynewtDelay as embedded_hal::blocking::delay::DelayMs<u8>>::delay_ms+0x46>
/Users/Luppy/mynewt/stm32bluepill-mynewt-sensor/rust/app/src/mynewt_hal.rs:86
    }
  46:	b008      	add	sp, #32
  48:	bd80      	pop	{r7, pc}
/Users/Luppy/mynewt/stm32bluepill-mynewt-sensor/rust/app/src/mynewt_hal.rs:84
        let delay_ticks = (ms as u32) * OS_TICKS_PER_SEC / 1000;
  4a:	f240 0000 	movw	r0, #0
  4e:	f2c0 0000 	movt	r0, #0
  52:	f7ff fffe 	bl	0 <core::panicking::panic>
  56:	defe      	udf	#254	; 0xfe

app-b8434b356de0ea5d.4o4k463sud73nrfj.rcgu.o:     file format elf32-littlearm

SYMBOL TABLE:
00000000 l    df *ABS*	00000000 4o4k463sud73nrfj
0000013b l       .debug_str	00000000 
00000000 l       .debug_str	00000000 
00000041 l       .debug_str	00000000 
00000055 l       .debug_str	00000000 
00000085 l       .debug_str	00000000 
00000097 l       .debug_str	00000000 
000000a2 l       .debug_str	00000000 
000000a9 l       .debug_str	00000000 
00000140 l       .debug_str	00000000 
000000b2 l       .debug_str	00000000 
00000126 l       .debug_str	00000000 
0000012c l       .debug_str	00000000 
00000130 l       .debug_str	00000000 
00000134 l       .debug_str	00000000 
00000000 l    d  .text._ZN84_$LT$embedded_graphics..pixelcolor..rgb565..Rgb565$u20$as$u20$core..clone..Clone$GT$5clone17h9fadf506a455df33E	00000000 .text._ZN84_$LT$embedded_graphics..pixelcolor..rgb565..Rgb565$u20$as$u20$core..clone..Clone$GT$5clone17h9fadf506a455df33E
00000000 l    d  .debug_abbrev	00000000 .debug_abbrev
00000000 l    d  .debug_info	00000000 .debug_info
00000000 l    d  .debug_frame	00000000 .debug_frame
00000000 l    d  .debug_line	00000000 .debug_line
00000000 g     F .text._ZN84_$LT$embedded_graphics..pixelcolor..rgb565..Rgb565$u20$as$u20$core..clone..Clone$GT$5clone17h9fadf506a455df33E	00000010 .hidden <embedded_graphics::pixelcolor::rgb565::Rgb565 as core::clone::Clone>::clone



Disassembly of section .text._ZN84_$LT$embedded_graphics..pixelcolor..rgb565..Rgb565$u20$as$u20$core..clone..Clone$GT$5clone17h9fadf506a455df33E:

00000000 <<embedded_graphics::pixelcolor::rgb565::Rgb565 as core::clone::Clone>::clone>:
_ZN84_$LT$embedded_graphics..pixelcolor..rgb565..Rgb565$u20$as$u20$core..clone..Clone$GT$5clone17h9fadf506a455df33E():
/Users/Luppy/.cargo/registry/src/github.com-1ecc6299db9ec823/embedded-graphics-0.5.2/src/pixelcolor/rgb565.rs:17
///
/// ```text
/// 15 14 13 12 11 10  9  8  7  6  5  4  3  2  1  0
///  r  r  r  r  r  g  g  g  g  g  g  b  b  b  b  b
/// ```
#[derive(Debug, Clone, Copy, PartialEq)]
   0:	b082      	sub	sp, #8
   2:	4601      	mov	r1, r0
   4:	9001      	str	r0, [sp, #4]
   6:	9801      	ldr	r0, [sp, #4]
   8:	8800      	ldrh	r0, [r0, #0]
   a:	9100      	str	r1, [sp, #0]
   c:	b002      	add	sp, #8
   e:	4770      	bx	lr

app-b8434b356de0ea5d.4tydmtz0azhqdmnq.rcgu.o:     file format elf32-littlearm

SYMBOL TABLE:
00000000 l    df *ABS*	00000000 4tydmtz0azhqdmnq
00000315 l       .debug_str	00000000 
000002fc l       .debug_str	00000000 
00000300 l       .debug_str	00000000 
00000308 l       .debug_str	00000000 
0000030d l       .debug_str	00000000 
0000031a l       .debug_str	00000000 
00000328 l       .debug_str	00000000 
0000032e l       .debug_str	00000000 
00000333 l       .debug_str	00000000 
00000338 l       .debug_str	00000000 
00000348 l       .debug_str	00000000 
0000034c l       .debug_str	00000000 
00000358 l       .debug_str	00000000 
00000379 l       .debug_str	00000000 
0000037d l       .debug_str	00000000 
0000037f l       .debug_str	00000000 
00000389 l       .debug_str	00000000 
0000038d l       .debug_str	00000000 
00000390 l       .debug_str	00000000 
00000395 l       .debug_str	00000000 
0000039e l       .debug_str	00000000 
000003ac l       .debug_str	00000000 
000003be l       .debug_str	00000000 
000003d2 l       .debug_str	00000000 
000003d6 l       .debug_str	00000000 
000003df l       .debug_str	00000000 
00000000 l       .debug_str	00000000 
00000041 l       .debug_str	00000000 
00000055 l       .debug_str	00000000 
00000085 l       .debug_str	00000000 
0000008c l       .debug_str	00000000 
00000093 l       .debug_str	00000000 
00000097 l       .debug_str	00000000 
0000009f l       .debug_str	00000000 
000000aa l       .debug_str	00000000 
000000b5 l       .debug_str	00000000 
000000c2 l       .debug_str	00000000 
000000cd l       .debug_str	00000000 
000000d5 l       .debug_str	00000000 
000000e0 l       .debug_str	00000000 
000000eb l       .debug_str	00000000 
000000f5 l       .debug_str	00000000 
00000100 l       .debug_str	00000000 
0000010b l       .debug_str	00000000 
00000118 l       .debug_str	00000000 
00000124 l       .debug_str	00000000 
00000131 l       .debug_str	00000000 
0000013f l       .debug_str	00000000 
00000149 l       .debug_str	00000000 
00000156 l       .debug_str	00000000 
00000162 l       .debug_str	00000000 
00000166 l       .debug_str	00000000 
00000172 l       .debug_str	00000000 
00000177 l       .debug_str	00000000 
0000017b l       .debug_str	00000000 
00000184 l       .debug_str	00000000 
000001c5 l       .debug_str	00000000 
000001ce l       .debug_str	00000000 
000001d7 l       .debug_str	00000000 
000001da l       .debug_str	00000000 
000001e4 l       .debug_str	00000000 
000001eb l       .debug_str	00000000 
000001f1 l       .debug_str	00000000 
000001f7 l       .debug_str	00000000 
000001fc l       .debug_str	00000000 
00000201 l       .debug_str	00000000 
00000241 l       .debug_str	00000000 
00000257 l       .debug_str	00000000 
0000025b l       .debug_str	00000000 
0000025e l       .debug_str	00000000 
00000262 l       .debug_str	00000000 
00000265 l       .debug_str	00000000 
00000267 l       .debug_str	00000000 
00000269 l       .debug_str	00000000 
0000026d l       .debug_str	00000000 
00000295 l       .debug_str	00000000 
000002d0 l       .debug_str	00000000 
000002e1 l       .debug_str	00000000 
000002ee l       .debug_str	00000000 
000002f1 l       .debug_str	00000000 
000002f8 l       .debug_str	00000000 
00000000 l     O .rodata..Lanon.19a08c2c0b4d8d588337b40b6849382e.0	00000017 .Lanon.19a08c2c0b4d8d588337b40b6849382e.0
00000000 l     O .rodata..Lanon.19a08c2c0b4d8d588337b40b6849382e.1	00000001 .Lanon.19a08c2c0b4d8d588337b40b6849382e.1
00000000 l     O .rodata..Lanon.19a08c2c0b4d8d588337b40b6849382e.15	0000000d .Lanon.19a08c2c0b4d8d588337b40b6849382e.15
00000000 l     O .rodata..Lanon.19a08c2c0b4d8d588337b40b6849382e.17	00000003 .Lanon.19a08c2c0b4d8d588337b40b6849382e.17
00000000 l     O .rodata..Lanon.19a08c2c0b4d8d588337b40b6849382e.19	00000005 .Lanon.19a08c2c0b4d8d588337b40b6849382e.19
00000000 l     O .rodata..Lanon.19a08c2c0b4d8d588337b40b6849382e.2	00000001 .Lanon.19a08c2c0b4d8d588337b40b6849382e.2
00000000 l     O .rodata.cst4	00000004 .Lanon.19a08c2c0b4d8d588337b40b6849382e.20
00000004 l     O .rodata.cst4	00000004 .Lanon.19a08c2c0b4d8d588337b40b6849382e.21
00000000 l     O .rodata..Lanon.19a08c2c0b4d8d588337b40b6849382e.22	00000005 .Lanon.19a08c2c0b4d8d588337b40b6849382e.22
00000000 l     O .rodata..Lanon.19a08c2c0b4d8d588337b40b6849382e.3	00000001 .Lanon.19a08c2c0b4d8d588337b40b6849382e.3
00000008 l     O .rodata.cst4	00000004 .Lanon.19a08c2c0b4d8d588337b40b6849382e.31
00000000 l     O .rodata..Lanon.19a08c2c0b4d8d588337b40b6849382e.32	00000007 .Lanon.19a08c2c0b4d8d588337b40b6849382e.32
00000000 l     O .rodata..Lanon.19a08c2c0b4d8d588337b40b6849382e.34	00000006 .Lanon.19a08c2c0b4d8d588337b40b6849382e.34
00000000 l     O .rodata..Lanon.19a08c2c0b4d8d588337b40b6849382e.39	00000048 .Lanon.19a08c2c0b4d8d588337b40b6849382e.39
00000000 l     O .rodata..Lanon.19a08c2c0b4d8d588337b40b6849382e.8	00000007 .Lanon.19a08c2c0b4d8d588337b40b6849382e.8
00000000 l     F .text._ZN3app11app_network16send_sensor_data17h5cf6e0827409e8f7E	000005a2 app::app_network::send_sensor_data
00000000 l    d  .text._ZN3app11app_network21aggregate_sensor_data17ha276eed4fcf2c397E	00000000 .text._ZN3app11app_network21aggregate_sensor_data17ha276eed4fcf2c397E
00000000 l    d  .text._ZN3app11app_network16send_sensor_data17h5cf6e0827409e8f7E	00000000 .text._ZN3app11app_network16send_sensor_data17h5cf6e0827409e8f7E
00000000 l    d  .debug_abbrev	00000000 .debug_abbrev
00000000 l    d  .debug_info	00000000 .debug_info
00000000 l    d  .debug_ranges	00000000 .debug_ranges
00000000 l    d  .debug_frame	00000000 .debug_frame
00000000 l    d  .debug_line	00000000 .debug_line
00000000 g     F .text._ZN3app11app_network21aggregate_sensor_data17ha276eed4fcf2c397E	0000001a .hidden app::app_network::aggregate_sensor_data
00000000         *UND*	00000000 <T as core::convert::From<T>>::from
00000000         *UND*	00000000 mynewt::sys::console::print_strn
00000000         *UND*	00000000 mynewt::sys::console::flush
00000000         *UND*	00000000 mynewt::sys::console::print
00000000         *UND*	00000000 mynewt::sys::console::printint
00000000         *UND*	00000000 mynewt::Strn::new
00000000         *UND*	00000000 mynewt::libs::sensor_network::prepare_post
00000000         *UND*	00000000 mynewt::libs::sensor_network::get_device_id
00000000         *UND*	00000000 mynewt::libs::sensor_network::do_server_post
00000000         *UND*	00000000 mynewt::libs::sensor_network::init_server_post
00000000         *UND*	00000000 mynewt::encoding::coap_context::CoapContext::key_to_cstr
00000000         *UND*	00000000 mynewt::encoding::coap_context::CoapContext::to_void_ptr
00000000         *UND*	00000000 mynewt::encoding::coap_context::CoapContext::value_to_cstr
00000000         *UND*	00000000 mynewt::encoding::coap_context::CoapContext::json_set_geolocation
00000000         *UND*	00000000 mynewt::encoding::coap_context::CoapContext::json_set_text_string
00000000         *UND*	00000000 mynewt::encoding::coap_context::CoapContext::fail
00000000         *UND*	00000000 mynewt::encoding::coap_context::COAP_CONTEXT
00000000         *UND*	00000000 <core::result::Result<T,E> as core::ops::try::Try>::from_error
00000000         *UND*	00000000 <core::result::Result<T,E> as core::ops::try::Try>::into_result
00000000         *UND*	00000000 <core::result::Result<T,E> as core::ops::try::Try>::into_result
00000000         *UND*	00000000 <str as mynewt::encoding::coap_context::ToBytesOptionalNull>::to_bytes_optional_nul
00000000         *UND*	00000000 <mynewt::Strn as mynewt::encoding::coap_context::ToBytesOptionalNull>::to_bytes_optional_nul
00000000         *UND*	00000000 json_helper_close_array
00000000         *UND*	00000000 json_helper_object_array_end_item
00000000         *UND*	00000000 json_helper_object_array_start_item
00000000         *UND*	00000000 json_helper_set_array
00000000         *UND*	00000000 json_helper_set_int
00000000         *UND*	00000000 json_helper_set_text_string
00000000         *UND*	00000000 json_rep_end_root_object
00000000         *UND*	00000000 json_rep_start_root_object



Disassembly of section .text._ZN3app11app_network21aggregate_sensor_data17ha276eed4fcf2c397E:

00000000 <app::app_network::aggregate_sensor_data>:
_ZN3app11app_network21aggregate_sensor_data17ha276eed4fcf2c397E():
/Users/Luppy/mynewt/stm32bluepill-mynewt-sensor/rust/app/src/app_network.rs:59
        send_sensor_data(&transmit_value)
    }
}

#[cfg(not(feature = "use_float"))]  //  If floating-point and geolocation are disabled, send sensor data without geolocation
pub fn aggregate_sensor_data(sensor_value: &SensorValue) -> MynewtResult<()>  {  //  Returns an error code upon error.
   0:	b580      	push	{r7, lr}
   2:	b084      	sub	sp, #16
   4:	4601      	mov	r1, r0
   6:	9003      	str	r0, [sp, #12]
/Users/Luppy/mynewt/stm32bluepill-mynewt-sensor/rust/app/src/app_network.rs:61
    //  Transmit sensor value without geolocation and return the result
    send_sensor_data(sensor_value)
   8:	9803      	ldr	r0, [sp, #12]
   a:	9102      	str	r1, [sp, #8]
   c:	f7ff fffe 	bl	0 <app::app_network::aggregate_sensor_data>
  10:	9001      	str	r0, [sp, #4]
  12:	e7ff      	b.n	14 <app::app_network::aggregate_sensor_data+0x14>
/Users/Luppy/mynewt/stm32bluepill-mynewt-sensor/rust/app/src/app_network.rs:62
}
  14:	9801      	ldr	r0, [sp, #4]
  16:	b004      	add	sp, #16
  18:	bd80      	pop	{r7, pc}

Disassembly of section .text._ZN3app11app_network16send_sensor_data17h5cf6e0827409e8f7E:

00000000 <app::app_network::send_sensor_data>:
_ZN3app11app_network16send_sensor_data17h5cf6e0827409e8f7E():
/Users/Luppy/mynewt/stm32bluepill-mynewt-sensor/rust/app/src/app_network.rs:75
/// {"values":[
///   {"key":"t",      "value":1715, "geo": { "lat": ..., "long": ... }},
///   {"key":"device", "value":"0102030405060708090a0b0c0d0e0f10"}
/// ]}
/// ```
fn send_sensor_data(val: &SensorValue) -> MynewtResult<()>  {  //  Returns an error code upon error.
   0:	b580      	push	{r7, lr}
   2:	f5ad 7d1c 	sub.w	sp, sp, #624	; 0x270
   6:	4601      	mov	r1, r0
   8:	902b      	str	r0, [sp, #172]	; 0xac
/Users/Luppy/mynewt/stm32bluepill-mynewt-sensor/rust/app/src/app_network.rs:76
    console::print("Rust send_sensor_data: ");
   a:	f240 0000 	movw	r0, #0
   e:	f2c0 0000 	movt	r0, #0
  12:	2217      	movs	r2, #23
  14:	912a      	str	r1, [sp, #168]	; 0xa8
  16:	4611      	mov	r1, r2
  18:	f7ff fffe 	bl	0 <mynewt::sys::console::print>
  1c:	e7ff      	b.n	1e <app::app_network::send_sensor_data+0x1e>
/Users/Luppy/mynewt/stm32bluepill-mynewt-sensor/rust/app/src/app_network.rs:77
    if let SensorValueType::Uint(i) = val.value {
  1e:	982b      	ldr	r0, [sp, #172]	; 0xac
  20:	6840      	ldr	r0, [r0, #4]
  22:	2801      	cmp	r0, #1
  24:	d115      	bne.n	52 <app::app_network::send_sensor_data+0x52>
  26:	e7ff      	b.n	28 <app::app_network::send_sensor_data+0x28>
  28:	982b      	ldr	r0, [sp, #172]	; 0xac
  2a:	6880      	ldr	r0, [r0, #8]
  2c:	902d      	str	r0, [sp, #180]	; 0xb4
/Users/Luppy/mynewt/stm32bluepill-mynewt-sensor/rust/app/src/app_network.rs:78
        console::print_strn(val.key);
  2e:	982b      	ldr	r0, [sp, #172]	; 0xac
  30:	6800      	ldr	r0, [r0, #0]
  32:	f7ff fffe 	bl	0 <mynewt::sys::console::print_strn>
  36:	e7ff      	b.n	2 <app::app_network::send_sensor_data+0x2>
/Users/Luppy/mynewt/stm32bluepill-mynewt-sensor/rust/app/src/app_network.rs:79
        console::print("=");
  38:	f240 0000 	movw	r0, #0
  3c:	f2c0 0000 	movt	r0, #0
  40:	2101      	movs	r1, #1
  42:	f7ff fffe 	bl	0 <mynewt::sys::console::print>
  46:	e7ff      	b.n	48 <app::app_network::send_sensor_data+0x48>
/Users/Luppy/mynewt/stm32bluepill-mynewt-sensor/rust/app/src/app_network.rs:80
        console::printint(i as i32);
  48:	982d      	ldr	r0, [sp, #180]	; 0xb4
  4a:	f7ff fffe 	bl	0 <mynewt::sys::console::printint>
  4e:	e7ff      	b.n	50 <app::app_network::send_sensor_data+0x50>
/Users/Luppy/mynewt/stm32bluepill-mynewt-sensor/rust/app/src/app_network.rs:77
    if let SensorValueType::Uint(i) = val.value {
  50:	e7ff      	b.n	52 <app::app_network::send_sensor_data+0x52>
/Users/Luppy/mynewt/stm32bluepill-mynewt-sensor/rust/app/src/app_network.rs:82
    }
    console::print("\n");
  52:	f240 0000 	movw	r0, #0
  56:	f2c0 0000 	movt	r0, #0
  5a:	2101      	movs	r1, #1
  5c:	f7ff fffe 	bl	0 <mynewt::sys::console::print>
  60:	e7ff      	b.n	2 <mynewt::sys::console::flush+0x2>
/Users/Luppy/mynewt/stm32bluepill-mynewt-sensor/rust/app/src/app_network.rs:83
    console::flush(); ////
  62:	f7ff fffe 	bl	0 <mynewt::sys::console::flush>
  66:	e7ff      	b.n	68 <app::app_network::send_sensor_data+0x68>
  68:	a835      	add	r0, sp, #212	; 0xd4
/Users/Luppy/mynewt/stm32bluepill-mynewt-sensor/rust/app/src/app_network.rs:86

    //  Get a randomly-generated device ID that changes each time we restart the device.
    let device_id = sensor_network::get_device_id() ? ;
  6a:	f7ff fffe 	bl	0 <mynewt::libs::sensor_network::get_device_id>
  6e:	e7ff      	b.n	70 <app::app_network::send_sensor_data+0x70>
  70:	a831      	add	r0, sp, #196	; 0xc4
  72:	a935      	add	r1, sp, #212	; 0xd4
  74:	f7ff fffe 	bl	0 <<core::result::Result<T,E> as core::ops::try::Try>::into_result>
  78:	e7ff      	b.n	7a <app::app_network::send_sensor_data+0x7a>
  7a:	9831      	ldr	r0, [sp, #196]	; 0xc4
  7c:	2800      	cmp	r0, #0
  7e:	9029      	str	r0, [sp, #164]	; 0xa4
  80:	d017      	beq.n	b2 <app::app_network::send_sensor_data+0xb2>
  82:	e7ff      	b.n	84 <app::app_network::send_sensor_data+0x84>
  84:	9829      	ldr	r0, [sp, #164]	; 0xa4
  86:	2801      	cmp	r0, #1
  88:	d001      	beq.n	8e <app::app_network::send_sensor_data+0x8e>
  8a:	e7ff      	b.n	8c <app::app_network::send_sensor_data+0x8c>
/Users/Luppy/mynewt/stm32bluepill-mynewt-sensor/rust/app/src/app_network.rs:121
    console::print("NET view your sensor at \nhttps://blue-pill-geolocate.appspot.com?device=");
    console::print_strn(&device_id); console::print("\n");

    //  The CoAP Background Task will transmit the message in the background.
    Ok(())
}
  8c:	defe      	udf	#254	; 0xfe
/Users/Luppy/mynewt/stm32bluepill-mynewt-sensor/rust/app/src/app_network.rs:86
    let device_id = sensor_network::get_device_id() ? ;
  8e:	9832      	ldr	r0, [sp, #200]	; 0xc8
  90:	9039      	str	r0, [sp, #228]	; 0xe4
  92:	9839      	ldr	r0, [sp, #228]	; 0xe4
  94:	f7ff fffe 	bl	0 <<T as core::convert::From<T>>::from>
  98:	9028      	str	r0, [sp, #160]	; 0xa0
  9a:	e7ff      	b.n	9c <app::app_network::send_sensor_data+0x9c>
  9c:	9828      	ldr	r0, [sp, #160]	; 0xa0
  9e:	f7ff fffe 	bl	0 <<core::result::Result<T,E> as core::ops::try::Try>::from_error>
  a2:	902c      	str	r0, [sp, #176]	; 0xb0
  a4:	e7ff      	b.n	a6 <app::app_network::send_sensor_data+0xa6>
  a6:	e003      	b.n	b0 <app::app_network::send_sensor_data+0xb0>
/Users/Luppy/mynewt/stm32bluepill-mynewt-sensor/rust/app/src/app_network.rs:121
}
  a8:	982c      	ldr	r0, [sp, #176]	; 0xb0
  aa:	f50d 7d1c 	add.w	sp, sp, #624	; 0x270
  ae:	bd80      	pop	{r7, pc}
/Users/Luppy/mynewt/stm32bluepill-mynewt-sensor/rust/app/src/app_network.rs:86
    let device_id = sensor_network::get_device_id() ? ;
  b0:	e7fa      	b.n	a8 <app::app_network::send_sensor_data+0xa8>
  b2:	9832      	ldr	r0, [sp, #200]	; 0xc8
  b4:	9933      	ldr	r1, [sp, #204]	; 0xcc
  b6:	9a34      	ldr	r2, [sp, #208]	; 0xd0
  b8:	923c      	str	r2, [sp, #240]	; 0xf0
  ba:	913b      	str	r1, [sp, #236]	; 0xec
  bc:	903a      	str	r0, [sp, #232]	; 0xe8
  be:	983a      	ldr	r0, [sp, #232]	; 0xe8
  c0:	993b      	ldr	r1, [sp, #236]	; 0xec
  c2:	9a3c      	ldr	r2, [sp, #240]	; 0xf0
  c4:	9230      	str	r2, [sp, #192]	; 0xc0
  c6:	912f      	str	r1, [sp, #188]	; 0xbc
  c8:	902e      	str	r0, [sp, #184]	; 0xb8
/Users/Luppy/mynewt/stm32bluepill-mynewt-sensor/rust/app/src/app_network.rs:91
    let rc = sensor_network::init_server_post( strn!(()) ) ? ;  //  `strn!(())` means use default CoAP URI in `syscfg.yml`
  ca:	f240 0100 	movw	r1, #0
  ce:	f2c0 0100 	movt	r1, #0
  d2:	a842      	add	r0, sp, #264	; 0x108
  d4:	2201      	movs	r2, #1
  d6:	f7ff fffe 	bl	0 <mynewt::Strn::new>
  da:	e7ff      	b.n	dc <app::app_network::send_sensor_data+0xdc>
  dc:	a840      	add	r0, sp, #256	; 0x100
  de:	a942      	add	r1, sp, #264	; 0x108
  e0:	f7ff fffe 	bl	0 <mynewt::libs::sensor_network::init_server_post>
  e4:	e7ff      	b.n	e6 <app::app_network::send_sensor_data+0xe6>
  e6:	a83e      	add	r0, sp, #248	; 0xf8
  e8:	a940      	add	r1, sp, #256	; 0x100
  ea:	f7ff fffe 	bl	0 <<core::result::Result<T,E> as core::ops::try::Try>::into_result>
  ee:	e7ff      	b.n	f0 <app::app_network::send_sensor_data+0xf0>
  f0:	f89d 00f8 	ldrb.w	r0, [sp, #248]	; 0xf8
  f4:	07c1      	lsls	r1, r0, #31
  f6:	2900      	cmp	r1, #0
  f8:	9027      	str	r0, [sp, #156]	; 0x9c
  fa:	d012      	beq.n	122 <app::app_network::send_sensor_data+0x122>
  fc:	e7ff      	b.n	fe <app::app_network::send_sensor_data+0xfe>
  fe:	9827      	ldr	r0, [sp, #156]	; 0x9c
 100:	2801      	cmp	r0, #1
 102:	d1c3      	bne.n	8c <app::app_network::send_sensor_data+0x8c>
 104:	e7ff      	b.n	106 <app::app_network::send_sensor_data+0x106>
 106:	983f      	ldr	r0, [sp, #252]	; 0xfc
 108:	9045      	str	r0, [sp, #276]	; 0x114
 10a:	9845      	ldr	r0, [sp, #276]	; 0x114
 10c:	f7ff fffe 	bl	0 <<T as core::convert::From<T>>::from>
 110:	9026      	str	r0, [sp, #152]	; 0x98
 112:	e7ff      	b.n	114 <app::app_network::send_sensor_data+0x114>
 114:	9826      	ldr	r0, [sp, #152]	; 0x98
 116:	f7ff fffe 	bl	0 <<core::result::Result<T,E> as core::ops::try::Try>::from_error>
 11a:	902c      	str	r0, [sp, #176]	; 0xb0
 11c:	e7ff      	b.n	11e <app::app_network::send_sensor_data+0x11e>
 11e:	e7ff      	b.n	120 <app::app_network::send_sensor_data+0x120>
 120:	e7c6      	b.n	b0 <app::app_network::send_sensor_data+0xb0>
 122:	f89d 00f9 	ldrb.w	r0, [sp, #249]	; 0xf9
 126:	f88d 011b 	strb.w	r0, [sp, #283]	; 0x11b
 12a:	f89d 011b 	ldrb.w	r0, [sp, #283]	; 0x11b
 12e:	f88d 00f7 	strb.w	r0, [sp, #247]	; 0xf7
/Users/Luppy/mynewt/stm32bluepill-mynewt-sensor/rust/app/src/app_network.rs:94
    if !rc { return Err(MynewtError::SYS_EAGAIN); }
 132:	f89d 00f7 	ldrb.w	r0, [sp, #247]	; 0xf7
 136:	07c0      	lsls	r0, r0, #31
 138:	2800      	cmp	r0, #0
 13a:	d106      	bne.n	14a <app::app_network::send_sensor_data+0x14a>
 13c:	e7ff      	b.n	13e <app::app_network::send_sensor_data+0x13e>
 13e:	f06f 0005 	mvn.w	r0, #5
 142:	9047      	str	r0, [sp, #284]	; 0x11c
 144:	9847      	ldr	r0, [sp, #284]	; 0x11c
 146:	902c      	str	r0, [sp, #176]	; 0xb0
 148:	e7ea      	b.n	120 <app::app_network::send_sensor_data+0x120>
 14a:	a84b      	add	r0, sp, #300	; 0x12c
 14c:	2132      	movs	r1, #50	; 0x32
/Users/Luppy/mynewt/stm32bluepill-mynewt-sensor/rust/app/src/app_network.rs:98
    let _payload = coap!( @json {        
 14e:	f7ff fffe 	bl	0 <mynewt::libs::sensor_network::prepare_post>
 152:	e7ff      	b.n	154 <app::app_network::send_sensor_data+0x154>
 154:	a849      	add	r0, sp, #292	; 0x124
 156:	a94b      	add	r1, sp, #300	; 0x12c
 158:	f7ff fffe 	bl	0 <<core::result::Result<T,E> as core::ops::try::Try>::into_result>
 15c:	e7ff      	b.n	15e <app::app_network::send_sensor_data+0x15e>
 15e:	f89d 0124 	ldrb.w	r0, [sp, #292]	; 0x124
 162:	07c1      	lsls	r1, r0, #31
 164:	2900      	cmp	r1, #0
 166:	9025      	str	r0, [sp, #148]	; 0x94
 168:	d013      	beq.n	192 <app::app_network::send_sensor_data+0x192>
 16a:	e7ff      	b.n	16c <app::app_network::send_sensor_data+0x16c>
 16c:	9825      	ldr	r0, [sp, #148]	; 0x94
 16e:	2801      	cmp	r0, #1
 170:	f47f af8c 	bne.w	8c <app::app_network::send_sensor_data+0x8c>
 174:	e7ff      	b.n	176 <app::app_network::send_sensor_data+0x176>
 176:	984a      	ldr	r0, [sp, #296]	; 0x128
 178:	904d      	str	r0, [sp, #308]	; 0x134
 17a:	984d      	ldr	r0, [sp, #308]	; 0x134
 17c:	f7ff fffe 	bl	0 <<T as core::convert::From<T>>::from>
 180:	9024      	str	r0, [sp, #144]	; 0x90
 182:	e7ff      	b.n	184 <app::app_network::send_sensor_data+0x184>
 184:	9824      	ldr	r0, [sp, #144]	; 0x90
 186:	f7ff fffe 	bl	0 <<core::result::Result<T,E> as core::ops::try::Try>::from_error>
 18a:	902c      	str	r0, [sp, #176]	; 0xb0
 18c:	e7ff      	b.n	18e <app::app_network::send_sensor_data+0x18e>
 18e:	e7ff      	b.n	190 <app::app_network::send_sensor_data+0x190>
 190:	e7c6      	b.n	120 <app::app_network::send_sensor_data+0x120>
 192:	f89d 0125 	ldrb.w	r0, [sp, #293]	; 0x125
 196:	f88d 013b 	strb.w	r0, [sp, #315]	; 0x13b
 19a:	f7ff fffe 	bl	0 <json_rep_start_root_object>
 19e:	e7ff      	b.n	2 <app::app_network::send_sensor_data+0x2>
 1a0:	f240 0000 	movw	r0, #0
 1a4:	f2c0 0000 	movt	r0, #0
 1a8:	904f      	str	r0, [sp, #316]	; 0x13c
 1aa:	2007      	movs	r0, #7
 1ac:	9050      	str	r0, [sp, #320]	; 0x140
/Users/Luppy/mynewt/stm32bluepill-mynewt-sensor/rust/app/src/lib.rs:1
/*
 1ae:	f240 0000 	movw	r0, #0
 1b2:	f2c0 0000 	movt	r0, #0
 1b6:	f7ff fffe 	bl	0 <mynewt::encoding::coap_context::CoapContext::to_void_ptr>
 1ba:	9023      	str	r0, [sp, #140]	; 0x8c
 1bc:	e7ff      	b.n	1be <app::app_network::send_sensor_data+0x1be>
/Users/Luppy/mynewt/stm32bluepill-mynewt-sensor/rust/app/src/app_network.rs:98
 1be:	984f      	ldr	r0, [sp, #316]	; 0x13c
 1c0:	9950      	ldr	r1, [sp, #320]	; 0x140
 1c2:	9084      	str	r0, [sp, #528]	; 0x210
 1c4:	9185      	str	r1, [sp, #532]	; 0x214
_ZN4core3str21_$LT$impl$u20$str$GT$8as_bytes17hbca31947ef6ad219E():
/rustc/50a0defd5a93523067ef239936cc2e0755220904/src/libcore/str/mod.rs:2153
 1c6:	9884      	ldr	r0, [sp, #528]	; 0x210
 1c8:	9985      	ldr	r1, [sp, #532]	; 0x214
 1ca:	9086      	str	r0, [sp, #536]	; 0x218
 1cc:	9187      	str	r1, [sp, #540]	; 0x21c
 1ce:	9986      	ldr	r1, [sp, #536]	; 0x218
 1d0:	9a87      	ldr	r2, [sp, #540]	; 0x21c
_ZN3app11app_network16send_sensor_data17h5cf6e0827409e8f7E():
/Users/Luppy/mynewt/stm32bluepill-mynewt-sensor/rust/app/src/app_network.rs:98
 1d2:	9122      	str	r1, [sp, #136]	; 0x88
 1d4:	9221      	str	r2, [sp, #132]	; 0x84
 1d6:	e7ff      	b.n	1d8 <app::app_network::send_sensor_data+0x1d8>
/Users/Luppy/mynewt/stm32bluepill-mynewt-sensor/rust/app/src/lib.rs:1
 1d8:	f240 0000 	movw	r0, #0
 1dc:	f2c0 0000 	movt	r0, #0
 1e0:	9922      	ldr	r1, [sp, #136]	; 0x88
 1e2:	9a21      	ldr	r2, [sp, #132]	; 0x84
 1e4:	f7ff fffe 	bl	0 <mynewt::encoding::coap_context::CoapContext::key_to_cstr>
 1e8:	9020      	str	r0, [sp, #128]	; 0x80
 1ea:	e7ff      	b.n	1ec <app::app_network::send_sensor_data+0x1ec>
/Users/Luppy/mynewt/stm32bluepill-mynewt-sensor/rust/app/src/app_network.rs:98
 1ec:	9823      	ldr	r0, [sp, #140]	; 0x8c
 1ee:	9920      	ldr	r1, [sp, #128]	; 0x80
 1f0:	f7ff fffe 	bl	0 <json_helper_set_array>
 1f4:	e7ff      	b.n	1f6 <app::app_network::send_sensor_data+0x1f6>
 1f6:	982b      	ldr	r0, [sp, #172]	; 0xac
 1f8:	68c1      	ldr	r1, [r0, #12]
 1fa:	6900      	ldr	r0, [r0, #16]
 1fc:	9151      	str	r1, [sp, #324]	; 0x144
 1fe:	9052      	str	r0, [sp, #328]	; 0x148
 200:	982b      	ldr	r0, [sp, #172]	; 0xac
 202:	6840      	ldr	r0, [r0, #4]
 204:	2801      	cmp	r0, #1
 206:	f040 80d9 	bne.w	3bc <app::app_network::send_sensor_data+0x3bc>
 20a:	e7ff      	b.n	20c <app::app_network::send_sensor_data+0x20c>
 20c:	982b      	ldr	r0, [sp, #172]	; 0xac
 20e:	6880      	ldr	r0, [r0, #8]
 210:	9053      	str	r0, [sp, #332]	; 0x14c
 212:	f240 0000 	movw	r0, #0
 216:	f2c0 0000 	movt	r0, #0
 21a:	9054      	str	r0, [sp, #336]	; 0x150
 21c:	200d      	movs	r0, #13
 21e:	9055      	str	r0, [sp, #340]	; 0x154
 220:	9854      	ldr	r0, [sp, #336]	; 0x150
 222:	9955      	ldr	r1, [sp, #340]	; 0x154
 224:	9098      	str	r0, [sp, #608]	; 0x260
 226:	9199      	str	r1, [sp, #612]	; 0x264
_ZN4core3str21_$LT$impl$u20$str$GT$8as_bytes17hbca31947ef6ad219E():
/rustc/50a0defd5a93523067ef239936cc2e0755220904/src/libcore/str/mod.rs:2153
 228:	9898      	ldr	r0, [sp, #608]	; 0x260
 22a:	9999      	ldr	r1, [sp, #612]	; 0x264
 22c:	909a      	str	r0, [sp, #616]	; 0x268
 22e:	919b      	str	r1, [sp, #620]	; 0x26c
 230:	999a      	ldr	r1, [sp, #616]	; 0x268
 232:	9a9b      	ldr	r2, [sp, #620]	; 0x26c
_ZN3app11app_network16send_sensor_data17h5cf6e0827409e8f7E():
/Users/Luppy/mynewt/stm32bluepill-mynewt-sensor/rust/app/src/app_network.rs:98
 234:	911f      	str	r1, [sp, #124]	; 0x7c
 236:	921e      	str	r2, [sp, #120]	; 0x78
 238:	e7ff      	b.n	23a <app::app_network::send_sensor_data+0x23a>
/Users/Luppy/mynewt/stm32bluepill-mynewt-sensor/rust/app/src/lib.rs:1
 23a:	f240 0000 	movw	r0, #0
 23e:	f2c0 0000 	movt	r0, #0
 242:	991f      	ldr	r1, [sp, #124]	; 0x7c
 244:	9a1e      	ldr	r2, [sp, #120]	; 0x78
 246:	f7ff fffe 	bl	0 <mynewt::encoding::coap_context::CoapContext::key_to_cstr>
 24a:	901d      	str	r0, [sp, #116]	; 0x74
 24c:	e7ff      	b.n	24e <app::app_network::send_sensor_data+0x24e>
/Users/Luppy/mynewt/stm32bluepill-mynewt-sensor/rust/app/src/app_network.rs:98
 24e:	981d      	ldr	r0, [sp, #116]	; 0x74
 250:	f7ff fffe 	bl	0 <json_helper_object_array_start_item>
 254:	e7ff      	b.n	2 <app::app_network::send_sensor_data+0x2>
 256:	f240 0000 	movw	r0, #0
 25a:	f2c0 0000 	movt	r0, #0
 25e:	2103      	movs	r1, #3
 260:	f7ff fffe 	bl	0 <<str as mynewt::encoding::coap_context::ToBytesOptionalNull>::to_bytes_optional_nul>
 264:	901c      	str	r0, [sp, #112]	; 0x70
 266:	911b      	str	r1, [sp, #108]	; 0x6c
 268:	e7ff      	b.n	26a <app::app_network::send_sensor_data+0x26a>
 26a:	981c      	ldr	r0, [sp, #112]	; 0x70
 26c:	9056      	str	r0, [sp, #344]	; 0x158
 26e:	991b      	ldr	r1, [sp, #108]	; 0x6c
 270:	9157      	str	r1, [sp, #348]	; 0x15c
 272:	9a2b      	ldr	r2, [sp, #172]	; 0xac
 274:	6810      	ldr	r0, [r2, #0]
 276:	f7ff fffe 	bl	0 <<mynewt::Strn as mynewt::encoding::coap_context::ToBytesOptionalNull>::to_bytes_optional_nul>
 27a:	901a      	str	r0, [sp, #104]	; 0x68
 27c:	9119      	str	r1, [sp, #100]	; 0x64
 27e:	e7ff      	b.n	280 <app::app_network::send_sensor_data+0x280>
 280:	981a      	ldr	r0, [sp, #104]	; 0x68
 282:	9058      	str	r0, [sp, #352]	; 0x160
 284:	9919      	ldr	r1, [sp, #100]	; 0x64
 286:	9159      	str	r1, [sp, #356]	; 0x164
/Users/Luppy/mynewt/stm32bluepill-mynewt-sensor/rust/app/src/lib.rs:1
 288:	f240 0000 	movw	r0, #0
 28c:	f2c0 0000 	movt	r0, #0
 290:	f7ff fffe 	bl	0 <mynewt::encoding::coap_context::CoapContext::to_void_ptr>
 294:	9018      	str	r0, [sp, #96]	; 0x60
 296:	e7ff      	b.n	298 <app::app_network::send_sensor_data+0x298>
/Users/Luppy/mynewt/stm32bluepill-mynewt-sensor/rust/app/src/app_network.rs:98
 298:	9956      	ldr	r1, [sp, #344]	; 0x158
 29a:	9a57      	ldr	r2, [sp, #348]	; 0x15c
/Users/Luppy/mynewt/stm32bluepill-mynewt-sensor/rust/app/src/lib.rs:1
 29c:	f240 0000 	movw	r0, #0
 2a0:	f2c0 0000 	movt	r0, #0
 2a4:	f7ff fffe 	bl	0 <mynewt::encoding::coap_context::CoapContext::key_to_cstr>
 2a8:	9017      	str	r0, [sp, #92]	; 0x5c
 2aa:	e7ff      	b.n	2ac <app::app_network::send_sensor_data+0x2ac>
/Users/Luppy/mynewt/stm32bluepill-mynewt-sensor/rust/app/src/app_network.rs:98
 2ac:	9958      	ldr	r1, [sp, #352]	; 0x160
 2ae:	9a59      	ldr	r2, [sp, #356]	; 0x164
/Users/Luppy/mynewt/stm32bluepill-mynewt-sensor/rust/app/src/lib.rs:1
 2b0:	f240 0000 	movw	r0, #0
 2b4:	f2c0 0000 	movt	r0, #0
 2b8:	f7ff fffe 	bl	0 <mynewt::encoding::coap_context::CoapContext::value_to_cstr>
 2bc:	9016      	str	r0, [sp, #88]	; 0x58
 2be:	e7ff      	b.n	2c0 <app::app_network::send_sensor_data+0x2c0>
/Users/Luppy/mynewt/stm32bluepill-mynewt-sensor/rust/app/src/app_network.rs:98
 2c0:	9818      	ldr	r0, [sp, #96]	; 0x60
 2c2:	9917      	ldr	r1, [sp, #92]	; 0x5c
 2c4:	9a16      	ldr	r2, [sp, #88]	; 0x58
 2c6:	f7ff fffe 	bl	0 <json_helper_set_text_string>
 2ca:	e7ff      	b.n	2 <app::app_network::send_sensor_data+0x2>
 2cc:	f240 0000 	movw	r0, #0
 2d0:	f2c0 0000 	movt	r0, #0
 2d4:	2105      	movs	r1, #5
 2d6:	f7ff fffe 	bl	0 <<str as mynewt::encoding::coap_context::ToBytesOptionalNull>::to_bytes_optional_nul>
 2da:	9015      	str	r0, [sp, #84]	; 0x54
 2dc:	9114      	str	r1, [sp, #80]	; 0x50
 2de:	e7ff      	b.n	2e0 <app::app_network::send_sensor_data+0x2e0>
 2e0:	9815      	ldr	r0, [sp, #84]	; 0x54
 2e2:	905a      	str	r0, [sp, #360]	; 0x168
 2e4:	9914      	ldr	r1, [sp, #80]	; 0x50
 2e6:	915b      	str	r1, [sp, #364]	; 0x16c
 2e8:	9a53      	ldr	r2, [sp, #332]	; 0x14c
 2ea:	2300      	movs	r3, #0
 2ec:	935d      	str	r3, [sp, #372]	; 0x174
 2ee:	925c      	str	r2, [sp, #368]	; 0x170
/Users/Luppy/mynewt/stm32bluepill-mynewt-sensor/rust/app/src/lib.rs:1
 2f0:	f240 0000 	movw	r0, #0
 2f4:	f2c0 0000 	movt	r0, #0
 2f8:	f7ff fffe 	bl	0 <mynewt::encoding::coap_context::CoapContext::to_void_ptr>
 2fc:	9013      	str	r0, [sp, #76]	; 0x4c
 2fe:	e7ff      	b.n	300 <app::app_network::send_sensor_data+0x300>
/Users/Luppy/mynewt/stm32bluepill-mynewt-sensor/rust/app/src/app_network.rs:98
 300:	995a      	ldr	r1, [sp, #360]	; 0x168
 302:	9a5b      	ldr	r2, [sp, #364]	; 0x16c
/Users/Luppy/mynewt/stm32bluepill-mynewt-sensor/rust/app/src/lib.rs:1
 304:	f240 0000 	movw	r0, #0
 308:	f2c0 0000 	movt	r0, #0
 30c:	f7ff fffe 	bl	0 <mynewt::encoding::coap_context::CoapContext::key_to_cstr>
 310:	9012      	str	r0, [sp, #72]	; 0x48
 312:	e7ff      	b.n	314 <app::app_network::send_sensor_data+0x314>
/Users/Luppy/mynewt/stm32bluepill-mynewt-sensor/rust/app/src/app_network.rs:98
 314:	9a5c      	ldr	r2, [sp, #368]	; 0x170
 316:	9b5d      	ldr	r3, [sp, #372]	; 0x174
 318:	9813      	ldr	r0, [sp, #76]	; 0x4c
 31a:	9912      	ldr	r1, [sp, #72]	; 0x48
 31c:	f7ff fffe 	bl	0 <json_helper_set_int>
 320:	e7ff      	b.n	2 <app::app_network::send_sensor_data+0x2>
 322:	f240 0100 	movw	r1, #0
 326:	f2c0 0100 	movt	r1, #0
 32a:	a85e      	add	r0, sp, #376	; 0x178
 32c:	2204      	movs	r2, #4
 32e:	f7ff fffe 	bl	0 <mynewt::Strn::new>
 332:	e7ff      	b.n	6 <app::app_network::send_sensor_data+0x6>
 334:	f240 0100 	movw	r1, #0
 338:	f2c0 0100 	movt	r1, #0
 33c:	a861      	add	r0, sp, #388	; 0x184
 33e:	2204      	movs	r2, #4
 340:	f7ff fffe 	bl	0 <mynewt::Strn::new>
 344:	e7ff      	b.n	2 <app::app_network::send_sensor_data+0x2>
 346:	f240 0100 	movw	r1, #0
 34a:	f2c0 0100 	movt	r1, #0
 34e:	a864      	add	r0, sp, #400	; 0x190
 350:	2205      	movs	r2, #5
 352:	f7ff fffe 	bl	0 <mynewt::Strn::new>
 356:	e7ff      	b.n	358 <app::app_network::send_sensor_data+0x358>
 358:	9851      	ldr	r0, [sp, #324]	; 0x144
 35a:	9952      	ldr	r1, [sp, #328]	; 0x148
/Users/Luppy/mynewt/stm32bluepill-mynewt-sensor/rust/app/src/lib.rs:1
 35c:	466a      	mov	r2, sp
 35e:	6051      	str	r1, [r2, #4]
 360:	6010      	str	r0, [r2, #0]
 362:	f240 0000 	movw	r0, #0
 366:	f2c0 0000 	movt	r0, #0
 36a:	a95e      	add	r1, sp, #376	; 0x178
 36c:	aa61      	add	r2, sp, #388	; 0x184
 36e:	ab64      	add	r3, sp, #400	; 0x190
 370:	f7ff fffe 	bl	0 <mynewt::encoding::coap_context::CoapContext::json_set_geolocation>
 374:	e7ff      	b.n	2 <app::app_network::send_sensor_data+0x2>
/Users/Luppy/mynewt/stm32bluepill-mynewt-sensor/rust/app/src/app_network.rs:98
 376:	f240 0000 	movw	r0, #0
 37a:	f2c0 0000 	movt	r0, #0
 37e:	9067      	str	r0, [sp, #412]	; 0x19c
 380:	200d      	movs	r0, #13
 382:	9068      	str	r0, [sp, #416]	; 0x1a0
 384:	9867      	ldr	r0, [sp, #412]	; 0x19c
 386:	9968      	ldr	r1, [sp, #416]	; 0x1a0
 388:	9094      	str	r0, [sp, #592]	; 0x250
 38a:	9195      	str	r1, [sp, #596]	; 0x254
_ZN4core3str21_$LT$impl$u20$str$GT$8as_bytes17hbca31947ef6ad219E():
/rustc/50a0defd5a93523067ef239936cc2e0755220904/src/libcore/str/mod.rs:2153
 38c:	9894      	ldr	r0, [sp, #592]	; 0x250
 38e:	9995      	ldr	r1, [sp, #596]	; 0x254
 390:	9096      	str	r0, [sp, #600]	; 0x258
 392:	9197      	str	r1, [sp, #604]	; 0x25c
 394:	9996      	ldr	r1, [sp, #600]	; 0x258
 396:	9a97      	ldr	r2, [sp, #604]	; 0x25c
_ZN3app11app_network16send_sensor_data17h5cf6e0827409e8f7E():
/Users/Luppy/mynewt/stm32bluepill-mynewt-sensor/rust/app/src/app_network.rs:98
 398:	9111      	str	r1, [sp, #68]	; 0x44
 39a:	9210      	str	r2, [sp, #64]	; 0x40
 39c:	e7ff      	b.n	39e <app::app_network::send_sensor_data+0x39e>
/Users/Luppy/mynewt/stm32bluepill-mynewt-sensor/rust/app/src/lib.rs:1
 39e:	f240 0000 	movw	r0, #0
 3a2:	f2c0 0000 	movt	r0, #0
 3a6:	9911      	ldr	r1, [sp, #68]	; 0x44
 3a8:	9a10      	ldr	r2, [sp, #64]	; 0x40
 3aa:	f7ff fffe 	bl	0 <mynewt::encoding::coap_context::CoapContext::key_to_cstr>
 3ae:	900f      	str	r0, [sp, #60]	; 0x3c
 3b0:	e7ff      	b.n	3b2 <app::app_network::send_sensor_data+0x3b2>
/Users/Luppy/mynewt/stm32bluepill-mynewt-sensor/rust/app/src/app_network.rs:98
 3b2:	980f      	ldr	r0, [sp, #60]	; 0x3c
 3b4:	f7ff fffe 	bl	0 <json_helper_object_array_end_item>
 3b8:	e7ff      	b.n	3ba <app::app_network::send_sensor_data+0x3ba>
 3ba:	e00c      	b.n	3d6 <app::app_network::send_sensor_data+0x3d6>
 3bc:	2001      	movs	r0, #1
 3be:	f88d 01a7 	strb.w	r0, [sp, #423]	; 0x1a7
 3c2:	f89d 11a7 	ldrb.w	r1, [sp, #423]	; 0x1a7
 3c6:	f240 0000 	movw	r0, #0
 3ca:	f2c0 0000 	movt	r0, #0
 3ce:	f7ff fffe 	bl	0 <mynewt::encoding::coap_context::CoapContext::fail>
 3d2:	e7ff      	b.n	3d4 <app::app_network::send_sensor_data+0x3d4>
 3d4:	e7ff      	b.n	3d6 <app::app_network::send_sensor_data+0x3d6>
 3d6:	f240 0000 	movw	r0, #0
 3da:	f2c0 0000 	movt	r0, #0
 3de:	906a      	str	r0, [sp, #424]	; 0x1a8
 3e0:	200d      	movs	r0, #13
 3e2:	906b      	str	r0, [sp, #428]	; 0x1ac
 3e4:	986a      	ldr	r0, [sp, #424]	; 0x1a8
 3e6:	996b      	ldr	r1, [sp, #428]	; 0x1ac
 3e8:	9090      	str	r0, [sp, #576]	; 0x240
 3ea:	9191      	str	r1, [sp, #580]	; 0x244
_ZN4core3str21_$LT$impl$u20$str$GT$8as_bytes17hbca31947ef6ad219E():
/rustc/50a0defd5a93523067ef239936cc2e0755220904/src/libcore/str/mod.rs:2153
 3ec:	9890      	ldr	r0, [sp, #576]	; 0x240
 3ee:	9991      	ldr	r1, [sp, #580]	; 0x244
 3f0:	9092      	str	r0, [sp, #584]	; 0x248
 3f2:	9193      	str	r1, [sp, #588]	; 0x24c
 3f4:	9992      	ldr	r1, [sp, #584]	; 0x248
 3f6:	9a93      	ldr	r2, [sp, #588]	; 0x24c
_ZN3app11app_network16send_sensor_data17h5cf6e0827409e8f7E():
/Users/Luppy/mynewt/stm32bluepill-mynewt-sensor/rust/app/src/app_network.rs:98
 3f8:	910e      	str	r1, [sp, #56]	; 0x38
 3fa:	920d      	str	r2, [sp, #52]	; 0x34
 3fc:	e7ff      	b.n	3fe <app::app_network::send_sensor_data+0x3fe>
/Users/Luppy/mynewt/stm32bluepill-mynewt-sensor/rust/app/src/lib.rs:1
 3fe:	f240 0000 	movw	r0, #0
 402:	f2c0 0000 	movt	r0, #0
 406:	990e      	ldr	r1, [sp, #56]	; 0x38
 408:	9a0d      	ldr	r2, [sp, #52]	; 0x34
 40a:	f7ff fffe 	bl	0 <mynewt::encoding::coap_context::CoapContext::key_to_cstr>
 40e:	900c      	str	r0, [sp, #48]	; 0x30
 410:	e7ff      	b.n	412 <app::app_network::send_sensor_data+0x412>
/Users/Luppy/mynewt/stm32bluepill-mynewt-sensor/rust/app/src/app_network.rs:98
 412:	980c      	ldr	r0, [sp, #48]	; 0x30
 414:	f7ff fffe 	bl	0 <json_helper_object_array_start_item>
 418:	e7ff      	b.n	a <app::app_network::send_sensor_data+0xa>
 41a:	f240 0100 	movw	r1, #0
 41e:	f2c0 0100 	movt	r1, #0
 422:	a86d      	add	r0, sp, #436	; 0x1b4
 424:	2204      	movs	r2, #4
 426:	f7ff fffe 	bl	0 <mynewt::Strn::new>
 42a:	e7ff      	b.n	42c <app::app_network::send_sensor_data+0x42c>
 42c:	a86d      	add	r0, sp, #436	; 0x1b4
 42e:	906c      	str	r0, [sp, #432]	; 0x1b0
 430:	f240 0100 	movw	r1, #0
 434:	f2c0 0100 	movt	r1, #0
 438:	a871      	add	r0, sp, #452	; 0x1c4
 43a:	2207      	movs	r2, #7
 43c:	f7ff fffe 	bl	0 <mynewt::Strn::new>
 440:	e7ff      	b.n	442 <app::app_network::send_sensor_data+0x442>
 442:	a871      	add	r0, sp, #452	; 0x1c4
 444:	9070      	str	r0, [sp, #448]	; 0x1c0
 446:	996c      	ldr	r1, [sp, #432]	; 0x1b0
 448:	9a70      	ldr	r2, [sp, #448]	; 0x1c0
/Users/Luppy/mynewt/stm32bluepill-mynewt-sensor/rust/app/src/lib.rs:1
 44a:	f240 0000 	movw	r0, #0
 44e:	f2c0 0000 	movt	r0, #0
 452:	f7ff fffe 	bl	0 <mynewt::encoding::coap_context::CoapContext::json_set_text_string>
 456:	e7ff      	b.n	2 <app::app_network::send_sensor_data+0x2>
/Users/Luppy/mynewt/stm32bluepill-mynewt-sensor/rust/app/src/app_network.rs:98
 458:	f240 0100 	movw	r1, #0
 45c:	f2c0 0100 	movt	r1, #0
 460:	a875      	add	r0, sp, #468	; 0x1d4
 462:	2206      	movs	r2, #6
 464:	f7ff fffe 	bl	0 <mynewt::Strn::new>
 468:	e7ff      	b.n	46a <app::app_network::send_sensor_data+0x46a>
 46a:	a875      	add	r0, sp, #468	; 0x1d4
 46c:	9074      	str	r0, [sp, #464]	; 0x1d0
 46e:	a82e      	add	r0, sp, #184	; 0xb8
/Users/Luppy/mynewt/stm32bluepill-mynewt-sensor/rust/app/src/app_network.rs:107
        "device": &device_id,
 470:	9078      	str	r0, [sp, #480]	; 0x1e0
/Users/Luppy/mynewt/stm32bluepill-mynewt-sensor/rust/app/src/app_network.rs:98
    let _payload = coap!( @json {        
 472:	9974      	ldr	r1, [sp, #464]	; 0x1d0
 474:	9a78      	ldr	r2, [sp, #480]	; 0x1e0
/Users/Luppy/mynewt/stm32bluepill-mynewt-sensor/rust/app/src/lib.rs:1
 476:	f240 0000 	movw	r0, #0
 47a:	f2c0 0000 	movt	r0, #0
 47e:	f7ff fffe 	bl	0 <mynewt::encoding::coap_context::CoapContext::json_set_text_string>
 482:	e7ff      	b.n	2 <app::app_network::send_sensor_data+0x2>
/Users/Luppy/mynewt/stm32bluepill-mynewt-sensor/rust/app/src/app_network.rs:98
 484:	f240 0000 	movw	r0, #0
 488:	f2c0 0000 	movt	r0, #0
 48c:	9079      	str	r0, [sp, #484]	; 0x1e4
 48e:	200d      	movs	r0, #13
 490:	907a      	str	r0, [sp, #488]	; 0x1e8
 492:	9879      	ldr	r0, [sp, #484]	; 0x1e4
 494:	997a      	ldr	r1, [sp, #488]	; 0x1e8
 496:	908c      	str	r0, [sp, #560]	; 0x230
 498:	918d      	str	r1, [sp, #564]	; 0x234
_ZN4core3str21_$LT$impl$u20$str$GT$8as_bytes17hbca31947ef6ad219E():
/rustc/50a0defd5a93523067ef239936cc2e0755220904/src/libcore/str/mod.rs:2153
 49a:	988c      	ldr	r0, [sp, #560]	; 0x230
 49c:	998d      	ldr	r1, [sp, #564]	; 0x234
 49e:	908e      	str	r0, [sp, #568]	; 0x238
 4a0:	918f      	str	r1, [sp, #572]	; 0x23c
 4a2:	998e      	ldr	r1, [sp, #568]	; 0x238
 4a4:	9a8f      	ldr	r2, [sp, #572]	; 0x23c
_ZN3app11app_network16send_sensor_data17h5cf6e0827409e8f7E():
/Users/Luppy/mynewt/stm32bluepill-mynewt-sensor/rust/app/src/app_network.rs:98
 4a6:	910b      	str	r1, [sp, #44]	; 0x2c
 4a8:	920a      	str	r2, [sp, #40]	; 0x28
 4aa:	e7ff      	b.n	4ac <app::app_network::send_sensor_data+0x4ac>
/Users/Luppy/mynewt/stm32bluepill-mynewt-sensor/rust/app/src/lib.rs:1
 4ac:	f240 0000 	movw	r0, #0
 4b0:	f2c0 0000 	movt	r0, #0
 4b4:	990b      	ldr	r1, [sp, #44]	; 0x2c
 4b6:	9a0a      	ldr	r2, [sp, #40]	; 0x28
 4b8:	f7ff fffe 	bl	0 <mynewt::encoding::coap_context::CoapContext::key_to_cstr>
 4bc:	9009      	str	r0, [sp, #36]	; 0x24
 4be:	e7ff      	b.n	4c0 <app::app_network::send_sensor_data+0x4c0>
/Users/Luppy/mynewt/stm32bluepill-mynewt-sensor/rust/app/src/app_network.rs:98
 4c0:	9809      	ldr	r0, [sp, #36]	; 0x24
 4c2:	f7ff fffe 	bl	0 <json_helper_object_array_end_item>
 4c6:	e7ff      	b.n	2 <app::app_network::send_sensor_data+0x2>
 4c8:	f240 0000 	movw	r0, #0
 4cc:	f2c0 0000 	movt	r0, #0
 4d0:	907b      	str	r0, [sp, #492]	; 0x1ec
 4d2:	2007      	movs	r0, #7
 4d4:	907c      	str	r0, [sp, #496]	; 0x1f0
/Users/Luppy/mynewt/stm32bluepill-mynewt-sensor/rust/app/src/lib.rs:1
 4d6:	f240 0000 	movw	r0, #0
 4da:	f2c0 0000 	movt	r0, #0
 4de:	f7ff fffe 	bl	0 <mynewt::encoding::coap_context::CoapContext::to_void_ptr>
 4e2:	9008      	str	r0, [sp, #32]
 4e4:	e7ff      	b.n	4e6 <app::app_network::send_sensor_data+0x4e6>
/Users/Luppy/mynewt/stm32bluepill-mynewt-sensor/rust/app/src/app_network.rs:98
 4e6:	987b      	ldr	r0, [sp, #492]	; 0x1ec
 4e8:	997c      	ldr	r1, [sp, #496]	; 0x1f0
 4ea:	9088      	str	r0, [sp, #544]	; 0x220
 4ec:	9189      	str	r1, [sp, #548]	; 0x224
_ZN4core3str21_$LT$impl$u20$str$GT$8as_bytes17hbca31947ef6ad219E():
/rustc/50a0defd5a93523067ef239936cc2e0755220904/src/libcore/str/mod.rs:2153
 4ee:	9888      	ldr	r0, [sp, #544]	; 0x220
 4f0:	9989      	ldr	r1, [sp, #548]	; 0x224
 4f2:	908a      	str	r0, [sp, #552]	; 0x228
 4f4:	918b      	str	r1, [sp, #556]	; 0x22c
 4f6:	998a      	ldr	r1, [sp, #552]	; 0x228
 4f8:	9a8b      	ldr	r2, [sp, #556]	; 0x22c
_ZN3app11app_network16send_sensor_data17h5cf6e0827409e8f7E():
/Users/Luppy/mynewt/stm32bluepill-mynewt-sensor/rust/app/src/app_network.rs:98
 4fa:	9107      	str	r1, [sp, #28]
 4fc:	9206      	str	r2, [sp, #24]
 4fe:	e7ff      	b.n	500 <app::app_network::send_sensor_data+0x500>
/Users/Luppy/mynewt/stm32bluepill-mynewt-sensor/rust/app/src/lib.rs:1
 500:	f240 0000 	movw	r0, #0
 504:	f2c0 0000 	movt	r0, #0
 508:	9907      	ldr	r1, [sp, #28]
 50a:	9a06      	ldr	r2, [sp, #24]
 50c:	f7ff fffe 	bl	0 <mynewt::encoding::coap_context::CoapContext::key_to_cstr>
 510:	9005      	str	r0, [sp, #20]
 512:	e7ff      	b.n	514 <app::app_network::send_sensor_data+0x514>
/Users/Luppy/mynewt/stm32bluepill-mynewt-sensor/rust/app/src/app_network.rs:98
 514:	9808      	ldr	r0, [sp, #32]
 516:	9905      	ldr	r1, [sp, #20]
 518:	f7ff fffe 	bl	0 <json_helper_close_array>
 51c:	e7ff      	b.n	2 <json_rep_end_root_object+0x2>
 51e:	f7ff fffe 	bl	0 <json_rep_end_root_object>
 522:	e7ff      	b.n	524 <app::app_network::send_sensor_data+0x524>
 524:	a87f      	add	r0, sp, #508	; 0x1fc
/Users/Luppy/mynewt/stm32bluepill-mynewt-sensor/rust/app/src/app_network.rs:113
    sensor_network::do_server_post() ? ;
 526:	f7ff fffe 	bl	0 <mynewt::libs::sensor_network::do_server_post>
 52a:	e7ff      	b.n	52c <app::app_network::send_sensor_data+0x52c>
 52c:	a87d      	add	r0, sp, #500	; 0x1f4
 52e:	a97f      	add	r1, sp, #508	; 0x1fc
 530:	f7ff fffe 	bl	0 <<core::result::Result<T,E> as core::ops::try::Try>::into_result>
 534:	e7ff      	b.n	536 <app::app_network::send_sensor_data+0x536>
 536:	f89d 01f4 	ldrb.w	r0, [sp, #500]	; 0x1f4
 53a:	07c1      	lsls	r1, r0, #31
 53c:	2900      	cmp	r1, #0
 53e:	9004      	str	r0, [sp, #16]
 540:	d012      	beq.n	568 <app::app_network::send_sensor_data+0x568>
 542:	e7ff      	b.n	544 <app::app_network::send_sensor_data+0x544>
 544:	9804      	ldr	r0, [sp, #16]
 546:	2801      	cmp	r0, #1
 548:	f47f ada0 	bne.w	8c <app::app_network::send_sensor_data+0x8c>
 54c:	e7ff      	b.n	54e <app::app_network::send_sensor_data+0x54e>
 54e:	987e      	ldr	r0, [sp, #504]	; 0x1f8
 550:	9081      	str	r0, [sp, #516]	; 0x204
 552:	9881      	ldr	r0, [sp, #516]	; 0x204
 554:	f7ff fffe 	bl	0 <<T as core::convert::From<T>>::from>
 558:	9003      	str	r0, [sp, #12]
 55a:	e7ff      	b.n	55c <app::app_network::send_sensor_data+0x55c>
 55c:	9803      	ldr	r0, [sp, #12]
 55e:	f7ff fffe 	bl	0 <<core::result::Result<T,E> as core::ops::try::Try>::from_error>
 562:	902c      	str	r0, [sp, #176]	; 0xb0
 564:	e7ff      	b.n	566 <app::app_network::send_sensor_data+0x566>
 566:	e613      	b.n	190 <app::app_network::send_sensor_data+0x190>
 568:	f89d 01f5 	ldrb.w	r0, [sp, #501]	; 0x1f5
 56c:	f88d 020b 	strb.w	r0, [sp, #523]	; 0x20b
/Users/Luppy/mynewt/stm32bluepill-mynewt-sensor/rust/app/src/app_network.rs:116
    console::print("NET view your sensor at \nhttps://blue-pill-geolocate.appspot.com?device=");
 570:	f240 0000 	movw	r0, #0
 574:	f2c0 0000 	movt	r0, #0
 578:	2148      	movs	r1, #72	; 0x48
 57a:	f7ff fffe 	bl	0 <mynewt::sys::console::print>
 57e:	e7ff      	b.n	580 <app::app_network::send_sensor_data+0x580>
 580:	a82e      	add	r0, sp, #184	; 0xb8
/Users/Luppy/mynewt/stm32bluepill-mynewt-sensor/rust/app/src/app_network.rs:117
    console::print_strn(&device_id); console::print("\n");
 582:	f7ff fffe 	bl	0 <mynewt::sys::console::print_strn>
 586:	e7ff      	b.n	2 <app::app_network::send_sensor_data+0x2>
 588:	f240 0000 	movw	r0, #0
 58c:	f2c0 0000 	movt	r0, #0
 590:	2101      	movs	r1, #1
 592:	f7ff fffe 	bl	0 <mynewt::sys::console::print>
 596:	e7ff      	b.n	598 <app::app_network::send_sensor_data+0x598>
 598:	2000      	movs	r0, #0
/Users/Luppy/mynewt/stm32bluepill-mynewt-sensor/rust/app/src/app_network.rs:120
    Ok(())
 59a:	902c      	str	r0, [sp, #176]	; 0xb0
 59c:	2001      	movs	r0, #1
 59e:	902c      	str	r0, [sp, #176]	; 0xb0
/Users/Luppy/mynewt/stm32bluepill-mynewt-sensor/rust/app/src/app_network.rs:121
}
 5a0:	e582      	b.n	a8 <app::app_network::send_sensor_data+0xa8>

app-b8434b356de0ea5d.4ug6anvcrmxnm3wg.rcgu.o:     file format elf32-littlearm

SYMBOL TABLE:
00000000 l    df *ABS*	00000000 4ug6anvcrmxnm3wg
0000016b l       .debug_str	00000000 
00000000 l       .debug_str	00000000 
00000041 l       .debug_str	00000000 
00000055 l       .debug_str	00000000 
00000085 l       .debug_str	00000000 
0000008a l       .debug_str	00000000 
0000008f l       .debug_str	00000000 
00000096 l       .debug_str	00000000 
0000009f l       .debug_str	00000000 
000000a8 l       .debug_str	00000000 
000000ac l       .debug_str	00000000 
000000b2 l       .debug_str	00000000 
00000182 l       .debug_str	00000000 
000000b6 l       .debug_str	00000000 
000000b9 l       .debug_str	00000000 
000000c3 l       .debug_str	00000000 
000000c7 l       .debug_str	00000000 
000000cf l       .debug_str	00000000 
000000d6 l       .debug_str	00000000 
000000da l       .debug_str	00000000 
000000dc l       .debug_str	00000000 
000000ed l       .debug_str	00000000 
000000f6 l       .debug_str	00000000 
000000fc l       .debug_str	00000000 
00000101 l       .debug_str	00000000 
00000141 l       .debug_str	00000000 
00000158 l       .debug_str	00000000 
00000161 l       .debug_str	00000000 
00000163 l       .debug_str	00000000 
00000169 l       .debug_str	00000000 
00000000 l    d  .text._ZN4core4iter6traits8iterator8Iterator4skip17hd403f9960f86d898E	00000000 .text._ZN4core4iter6traits8iterator8Iterator4skip17hd403f9960f86d898E
00000000 l    d  .debug_abbrev	00000000 .debug_abbrev
00000000 l    d  .debug_info	00000000 .debug_info
00000000 l    d  .debug_frame	00000000 .debug_frame
00000000 l    d  .debug_line	00000000 .debug_line
00000000 g     F .text._ZN4core4iter6traits8iterator8Iterator4skip17hd403f9960f86d898E	0000002e core::iter::traits::iterator::Iterator::skip
00000000         *UND*	00000000 core::iter::adapters::Skip<I>::new



Disassembly of section .text._ZN4core4iter6traits8iterator8Iterator4skip17hd403f9960f86d898E:

00000000 <core::iter::traits::iterator::Iterator::skip>:
_ZN4core4iter6traits8iterator8Iterator4skip17hd403f9960f86d898E():
/rustc/50a0defd5a93523067ef239936cc2e0755220904/src/libcore/iter/traits/iterator.rs:982
   0:	b5b0      	push	{r4, r5, r7, lr}
   2:	b088      	sub	sp, #32
   4:	469c      	mov	ip, r3
   6:	4696      	mov	lr, r2
   8:	460c      	mov	r4, r1
   a:	4605      	mov	r5, r0
   c:	9105      	str	r1, [sp, #20]
   e:	9206      	str	r2, [sp, #24]
  10:	9307      	str	r3, [sp, #28]
/rustc/50a0defd5a93523067ef239936cc2e0755220904/src/libcore/iter/traits/iterator.rs:983
  12:	9905      	ldr	r1, [sp, #20]
  14:	9a06      	ldr	r2, [sp, #24]
  16:	9b07      	ldr	r3, [sp, #28]
  18:	f8cd c010 	str.w	ip, [sp, #16]
  1c:	f8cd e00c 	str.w	lr, [sp, #12]
  20:	9402      	str	r4, [sp, #8]
  22:	9501      	str	r5, [sp, #4]
  24:	f7ff fffe 	bl	0 <core::iter::adapters::Skip<I>::new>
  28:	e7ff      	b.n	2a <core::iter::traits::iterator::Iterator::skip+0x2a>
/rustc/50a0defd5a93523067ef239936cc2e0755220904/src/libcore/iter/traits/iterator.rs:984
  2a:	b008      	add	sp, #32
  2c:	bdb0      	pop	{r4, r5, r7, pc}

app-b8434b356de0ea5d.4ym7ou33g0qd0kmr.rcgu.o:     file format elf32-littlearm

SYMBOL TABLE:
00000000 l    df *ABS*	00000000 4ym7ou33g0qd0kmr
00000106 l       .debug_str	00000000 
00000000 l       .debug_str	00000000 
00000041 l       .debug_str	00000000 
00000055 l       .debug_str	00000000 
00000085 l       .debug_str	00000000 
0000008a l       .debug_str	00000000 
00000090 l       .debug_str	00000000 
0000010b l       .debug_str	00000000 
00000096 l       .debug_str	00000000 
0000009f l       .debug_str	00000000 
00000103 l       .debug_str	00000000 
00000000 l    d  .text._ZN4core5clone5impls51_$LT$impl$u20$core..clone..Clone$u20$for$u20$u8$GT$5clone17hb56ed8e3fb605f2aE	00000000 .text._ZN4core5clone5impls51_$LT$impl$u20$core..clone..Clone$u20$for$u20$u8$GT$5clone17hb56ed8e3fb605f2aE
00000000 l    d  .debug_abbrev	00000000 .debug_abbrev
00000000 l    d  .debug_info	00000000 .debug_info
00000000 l    d  .debug_frame	00000000 .debug_frame
00000000 l    d  .debug_line	00000000 .debug_line
00000000 g     F .text._ZN4core5clone5impls51_$LT$impl$u20$core..clone..Clone$u20$for$u20$u8$GT$5clone17hb56ed8e3fb605f2aE	00000010 .hidden core::clone::impls::<impl core::clone::Clone for u8>::clone



Disassembly of section .text._ZN4core5clone5impls51_$LT$impl$u20$core..clone..Clone$u20$for$u20$u8$GT$5clone17hb56ed8e3fb605f2aE:

00000000 <core::clone::impls::<impl core::clone::Clone for u8>::clone>:
_ZN4core5clone5impls51_$LT$impl$u20$core..clone..Clone$u20$for$u20$u8$GT$5clone17hb56ed8e3fb605f2aE():
/rustc/50a0defd5a93523067ef239936cc2e0755220904/src/libcore/clone.rs:167
   0:	b082      	sub	sp, #8
   2:	4601      	mov	r1, r0
   4:	9001      	str	r0, [sp, #4]
/rustc/50a0defd5a93523067ef239936cc2e0755220904/src/libcore/clone.rs:168
   6:	9801      	ldr	r0, [sp, #4]
/rustc/50a0defd5a93523067ef239936cc2e0755220904/src/libcore/clone.rs:169
   8:	7800      	ldrb	r0, [r0, #0]
   a:	9100      	str	r1, [sp, #0]
   c:	b002      	add	sp, #8
   e:	4770      	bx	lr

app-b8434b356de0ea5d.589734z1h93yayke.rcgu.o:     file format elf32-littlearm

SYMBOL TABLE:
00000000 l    df *ABS*	00000000 589734z1h93yayke
000006c4 l       .debug_str	00000000 
0000016c l       .debug_str	00000000 
00000179 l       .debug_str	00000000 
00000186 l       .debug_str	00000000 
00000189 l       .debug_str	00000000 
0000018b l       .debug_str	00000000 
000001c0 l       .debug_str	00000000 
000001c2 l       .debug_str	00000000 
000001f8 l       .debug_str	00000000 
00000291 l       .debug_str	00000000 
000002ca l       .debug_str	00000000 
000002cc l       .debug_str	00000000 
000002ce l       .debug_str	00000000 
0000030c l       .debug_str	00000000 
000003a3 l       .debug_str	00000000 
000003d7 l       .debug_str	00000000 
00000474 l       .debug_str	00000000 
0000050d l       .debug_str	00000000 
00000541 l       .debug_str	00000000 
0000054a l       .debug_str	00000000 
00000558 l       .debug_str	00000000 
00000570 l       .debug_str	00000000 
0000057e l       .debug_str	00000000 
000005b3 l       .debug_str	00000000 
0000060d l       .debug_str	00000000 
000006ff l       .debug_str	00000000 
00000752 l       .debug_str	00000000 
00000785 l       .debug_str	00000000 
0000078a l       .debug_str	00000000 
00000790 l       .debug_str	00000000 
000007ee l       .debug_str	00000000 
00000858 l       .debug_str	00000000 
0000085b l       .debug_str	00000000 
0000085e l       .debug_str	00000000 
0000086b l       .debug_str	00000000 
00000875 l       .debug_str	00000000 
00000885 l       .debug_str	00000000 
0000088a l       .debug_str	00000000 
0000088e l       .debug_str	00000000 
000008c8 l       .debug_str	00000000 
0000090a l       .debug_str	00000000 
0000090d l       .debug_str	00000000 
00000910 l       .debug_str	00000000 
00000914 l       .debug_str	00000000 
0000091e l       .debug_str	00000000 
00000923 l       .debug_str	00000000 
0000092b l       .debug_str	00000000 
0000092d l       .debug_str	00000000 
00000935 l       .debug_str	00000000 
00000000 l       .debug_str	00000000 
00000041 l       .debug_str	00000000 
00000055 l       .debug_str	00000000 
00000085 l       .debug_str	00000000 
00000097 l       .debug_str	00000000 
000000a2 l       .debug_str	00000000 
000000a9 l       .debug_str	00000000 
000000b2 l       .debug_str	00000000 
000000b7 l       .debug_str	00000000 
000000be l       .debug_str	00000000 
000000c4 l       .debug_str	00000000 
000000d3 l       .debug_str	00000000 
000000d7 l       .debug_str	00000000 
000000db l       .debug_str	00000000 
000000df l       .debug_str	00000000 
000000e5 l       .debug_str	00000000 
000000ec l       .debug_str	00000000 
000000f0 l       .debug_str	00000000 
000000f6 l       .debug_str	00000000 
00000101 l       .debug_str	00000000 
00000106 l       .debug_str	00000000 
0000010d l       .debug_str	00000000 
00000111 l       .debug_str	00000000 
00000116 l       .debug_str	00000000 
00000121 l       .debug_str	00000000 
00000128 l       .debug_str	00000000 
0000012f l       .debug_str	00000000 
00000131 l       .debug_str	00000000 
00000136 l       .debug_str	00000000 
00000000 l     O .rodata..Lanon.a57637393a9bc1746b6fd35627c7c7d6.0	00000018 .Lanon.a57637393a9bc1746b6fd35627c7c7d6.0
00000000 l     O .rodata..Lanon.a57637393a9bc1746b6fd35627c7c7d6.1	00000018 .Lanon.a57637393a9bc1746b6fd35627c7c7d6.1
00000000 l     O .rodata..Lanon.a57637393a9bc1746b6fd35627c7c7d6.10	00000018 .Lanon.a57637393a9bc1746b6fd35627c7c7d6.10
00000000 l     O .rodata..Lanon.a57637393a9bc1746b6fd35627c7c7d6.11	00000018 .Lanon.a57637393a9bc1746b6fd35627c7c7d6.11
00000000 l     O .rodata..Lanon.a57637393a9bc1746b6fd35627c7c7d6.12	00000018 .Lanon.a57637393a9bc1746b6fd35627c7c7d6.12
00000000 l     O .rodata..Lanon.a57637393a9bc1746b6fd35627c7c7d6.13	00000018 .Lanon.a57637393a9bc1746b6fd35627c7c7d6.13
00000000 l     O .rodata..Lanon.a57637393a9bc1746b6fd35627c7c7d6.14	00000018 .Lanon.a57637393a9bc1746b6fd35627c7c7d6.14
00000000 l     O .rodata..Lanon.a57637393a9bc1746b6fd35627c7c7d6.15	00000018 .Lanon.a57637393a9bc1746b6fd35627c7c7d6.15
00000000 l     O .rodata..Lanon.a57637393a9bc1746b6fd35627c7c7d6.16	00000016 .Lanon.a57637393a9bc1746b6fd35627c7c7d6.16
00000000 l     O .rodata..Lanon.a57637393a9bc1746b6fd35627c7c7d6.17	00000018 .Lanon.a57637393a9bc1746b6fd35627c7c7d6.17
00000000 l     O .rodata..Lanon.a57637393a9bc1746b6fd35627c7c7d6.18	00000018 .Lanon.a57637393a9bc1746b6fd35627c7c7d6.18
00000000 l     O .rodata..Lanon.a57637393a9bc1746b6fd35627c7c7d6.19	00000018 .Lanon.a57637393a9bc1746b6fd35627c7c7d6.19
00000000 l     O .rodata..Lanon.a57637393a9bc1746b6fd35627c7c7d6.2	00000018 .Lanon.a57637393a9bc1746b6fd35627c7c7d6.2
00000000 l     O .rodata..Lanon.a57637393a9bc1746b6fd35627c7c7d6.3	00000018 .Lanon.a57637393a9bc1746b6fd35627c7c7d6.3
00000000 l     O .rodata..Lanon.a57637393a9bc1746b6fd35627c7c7d6.4	00000018 .Lanon.a57637393a9bc1746b6fd35627c7c7d6.4
00000000 l     O .rodata..Lanon.a57637393a9bc1746b6fd35627c7c7d6.5	00000018 .Lanon.a57637393a9bc1746b6fd35627c7c7d6.5
00000000 l     O .rodata..Lanon.a57637393a9bc1746b6fd35627c7c7d6.6	00000018 .Lanon.a57637393a9bc1746b6fd35627c7c7d6.6
00000000 l     O .rodata..Lanon.a57637393a9bc1746b6fd35627c7c7d6.7	00000018 .Lanon.a57637393a9bc1746b6fd35627c7c7d6.7
00000000 l     O .rodata..Lanon.a57637393a9bc1746b6fd35627c7c7d6.8	00000018 .Lanon.a57637393a9bc1746b6fd35627c7c7d6.8
00000000 l     O .rodata..Lanon.a57637393a9bc1746b6fd35627c7c7d6.9	00000018 .Lanon.a57637393a9bc1746b6fd35627c7c7d6.9
00000000 l     O .rodata.str.0	0000006d str.0
00000000 l     O .rodata.str.1	0000001f str.1
00000000 l     O .rodata.str.2	00000021 str.2
00000000 l     O .rodata.str.3	0000001c str.3
00000000 l     O .rodata.str.4	00000021 str.4
00000000 l    d  .text._ZN116_$LT$embedded_graphics..primitives..circle..Circle$LT$C$GT$$u20$as$u20$core..iter..traits..collect..IntoIterator$GT$9into_iter17h975a0379957271daE	00000000 .text._ZN116_$LT$embedded_graphics..primitives..circle..Circle$LT$C$GT$$u20$as$u20$core..iter..traits..collect..IntoIterator$GT$9into_iter17h975a0379957271daE
00000000 l    d  .text._ZN119_$LT$embedded_graphics..primitives..circle..Circle$LT$C$GT$$u20$as$u20$embedded_graphics..style..WithStyle$LT$C$GT$$GT$4fill17hb6efe8c06b10f3f1E	00000000 .text._ZN119_$LT$embedded_graphics..primitives..circle..Circle$LT$C$GT$$u20$as$u20$embedded_graphics..style..WithStyle$LT$C$GT$$GT$4fill17hb6efe8c06b10f3f1E
00000000 l    d  .text._ZN120_$LT$$RF$embedded_graphics..primitives..circle..Circle$LT$C$GT$$u20$as$u20$core..iter..traits..collect..IntoIterator$GT$9into_iter17h7db2a18ef97d44dcE	00000000 .text._ZN120_$LT$$RF$embedded_graphics..primitives..circle..Circle$LT$C$GT$$u20$as$u20$core..iter..traits..collect..IntoIterator$GT$9into_iter17h7db2a18ef97d44dcE
00000000 l    d  .text._ZN121_$LT$embedded_graphics..primitives..circle..CircleIterator$LT$C$GT$$u20$as$u20$core..iter..traits..iterator..Iterator$GT$4next17h739931040b512223E	00000000 .text._ZN121_$LT$embedded_graphics..primitives..circle..CircleIterator$LT$C$GT$$u20$as$u20$core..iter..traits..iterator..Iterator$GT$4next17h739931040b512223E
00000000 l    d  .text._ZN121_$LT$embedded_graphics..primitives..circle..CircleIterator$LT$C$GT$$u20$as$u20$core..iter..traits..iterator..Iterator$GT$4next28_$u7b$$u7b$closure$u7d$$u7d$17hba64c031d5d01204E	00000000 .text._ZN121_$LT$embedded_graphics..primitives..circle..CircleIterator$LT$C$GT$$u20$as$u20$core..iter..traits..iterator..Iterator$GT$4next28_$u7b$$u7b$closure$u7d$$u7d$17hba64c031d5d01204E
00000000 l    d  .text._ZN17embedded_graphics10primitives6circle15Circle$LT$C$GT$3new17hfb7a50a81d553696E	00000000 .text._ZN17embedded_graphics10primitives6circle15Circle$LT$C$GT$3new17hfb7a50a81d553696E
00000000 l    d  .rodata.str.0	00000000 .rodata.str.0
00000000 l    d  .rodata.str.1	00000000 .rodata.str.1
00000000 l    d  .rodata.str.2	00000000 .rodata.str.2
00000000 l    d  .rodata.str.3	00000000 .rodata.str.3
00000000 l    d  .rodata.str.4	00000000 .rodata.str.4
00000000 l    d  .debug_loc	00000000 .debug_loc
00000000 l    d  .debug_abbrev	00000000 .debug_abbrev
00000000 l    d  .debug_info	00000000 .debug_info
00000000 l    d  .debug_ranges	00000000 .debug_ranges
00000000 l    d  .debug_frame	00000000 .debug_frame
00000000 l    d  .debug_line	00000000 .debug_line
00000000         *UND*	00000000 <embedded_graphics::coord::internal_coord::Coord as core::ops::index::Index<usize>>::index
00000000         *UND*	00000000 <embedded_graphics::coord::internal_coord::Coord as embedded_graphics::coord::ToUnsigned>::to_unsigned
00000000 g     F .text._ZN116_$LT$embedded_graphics..primitives..circle..Circle$LT$C$GT$$u20$as$u20$core..iter..traits..collect..IntoIterator$GT$9into_iter17h975a0379957271daE	00000016 <embedded_graphics::primitives::circle::Circle<C> as core::iter::traits::collect::IntoIterator>::into_iter
00000000 g     F .text._ZN119_$LT$embedded_graphics..primitives..circle..Circle$LT$C$GT$$u20$as$u20$embedded_graphics..style..WithStyle$LT$C$GT$$GT$4fill17hb6efe8c06b10f3f1E	0000003c <embedded_graphics::primitives::circle::Circle<C> as embedded_graphics::style::WithStyle<C>>::fill
00000000 g     F .text._ZN120_$LT$$RF$embedded_graphics..primitives..circle..Circle$LT$C$GT$$u20$as$u20$core..iter..traits..collect..IntoIterator$GT$9into_iter17h7db2a18ef97d44dcE	000000a0 <&embedded_graphics::primitives::circle::Circle<C> as core::iter::traits::collect::IntoIterator>::into_iter
00000000 g     F .text._ZN121_$LT$embedded_graphics..primitives..circle..CircleIterator$LT$C$GT$$u20$as$u20$core..iter..traits..iterator..Iterator$GT$4next17h739931040b512223E	00000492 <embedded_graphics::primitives::circle::CircleIterator<C> as core::iter::traits::iterator::Iterator>::next
00000000 g     F .text._ZN121_$LT$embedded_graphics..primitives..circle..CircleIterator$LT$C$GT$$u20$as$u20$core..iter..traits..iterator..Iterator$GT$4next28_$u7b$$u7b$closure$u7d$$u7d$17hba64c031d5d01204E	0000004c <embedded_graphics::primitives::circle::CircleIterator<C> as core::iter::traits::iterator::Iterator>::next::{{closure}}
00000000 g     F .text._ZN17embedded_graphics10primitives6circle15Circle$LT$C$GT$3new17hfb7a50a81d553696E	0000005c embedded_graphics::primitives::circle::Circle<C>::new
00000000         *UND*	00000000 embedded_graphics::coord::internal_coord::Coord::new
00000000         *UND*	00000000 core::option::Option<T>::map
00000000         *UND*	00000000 core::option::Option<T>::expect
00000000         *UND*	00000000 core::option::Option<T>::is_none
00000000         *UND*	00000000 core::option::Option<T>::is_some
00000000         *UND*	00000000 core::panicking::panic
00000000         *UND*	00000000 <embedded_graphics::style::Style<P> as core::default::Default>::default



Disassembly of section .text._ZN116_$LT$embedded_graphics..primitives..circle..Circle$LT$C$GT$$u20$as$u20$core..iter..traits..collect..IntoIterator$GT$9into_iter17h975a0379957271daE:

00000000 <<embedded_graphics::primitives::circle::Circle<C> as core::iter::traits::collect::IntoIterator>::into_iter>:
_ZN116_$LT$embedded_graphics..primitives..circle..Circle$LT$C$GT$$u20$as$u20$core..iter..traits..collect..IntoIterator$GT$9into_iter17h975a0379957271daE():
/Users/Luppy/.cargo/registry/src/github.com-1ecc6299db9ec823/embedded-graphics-0.5.2/src/primitives/circle.rs:128
    C: PixelColor,
{
    type Item = Pixel<C>;
    type IntoIter = CircleIterator<C>;

    fn into_iter(self) -> Self::IntoIter {
   0:	b580      	push	{r7, lr}
   2:	b082      	sub	sp, #8
   4:	460a      	mov	r2, r1
   6:	4603      	mov	r3, r0
/Users/Luppy/.cargo/registry/src/github.com-1ecc6299db9ec823/embedded-graphics-0.5.2/src/primitives/circle.rs:129
        (&self).into_iter()
   8:	9201      	str	r2, [sp, #4]
   a:	9300      	str	r3, [sp, #0]
   c:	f7ff fffe 	bl	0 <<embedded_graphics::primitives::circle::Circle<C> as core::iter::traits::collect::IntoIterator>::into_iter>
  10:	e7ff      	b.n	12 <<embedded_graphics::primitives::circle::Circle<C> as core::iter::traits::collect::IntoIterator>::into_iter+0x12>
/Users/Luppy/.cargo/registry/src/github.com-1ecc6299db9ec823/embedded-graphics-0.5.2/src/primitives/circle.rs:130
    }
  12:	b002      	add	sp, #8
  14:	bd80      	pop	{r7, pc}

Disassembly of section .text._ZN119_$LT$embedded_graphics..primitives..circle..Circle$LT$C$GT$$u20$as$u20$embedded_graphics..style..WithStyle$LT$C$GT$$GT$4fill17hb6efe8c06b10f3f1E:

00000000 <<embedded_graphics::primitives::circle::Circle<C> as embedded_graphics::style::WithStyle<C>>::fill>:
_ZN119_$LT$embedded_graphics..primitives..circle..Circle$LT$C$GT$$u20$as$u20$embedded_graphics..style..WithStyle$LT$C$GT$$GT$4fill17hb6efe8c06b10f3f1E():
/Users/Luppy/.cargo/registry/src/github.com-1ecc6299db9ec823/embedded-graphics-0.5.2/src/primitives/circle.rs:114
    fn fill(mut self, color: Option<C>) -> Self {
   0:	e92d 43f0 	stmdb	sp!, {r4, r5, r6, r7, r8, r9, lr}
   4:	b085      	sub	sp, #20
   6:	469c      	mov	ip, r3
   8:	4696      	mov	lr, r2
   a:	460c      	mov	r4, r1
   c:	4605      	mov	r5, r0
   e:	f8ad 2010 	strh.w	r2, [sp, #16]
  12:	f8ad 3012 	strh.w	r3, [sp, #18]
/Users/Luppy/.cargo/registry/src/github.com-1ecc6299db9ec823/embedded-graphics-0.5.2/src/primitives/circle.rs:115
        self.style.fill_color = color;
  16:	f8bd 2010 	ldrh.w	r2, [sp, #16]
  1a:	f8bd 3012 	ldrh.w	r3, [sp, #18]
  1e:	818a      	strh	r2, [r1, #12]
  20:	81cb      	strh	r3, [r1, #14]
/Users/Luppy/.cargo/registry/src/github.com-1ecc6299db9ec823/embedded-graphics-0.5.2/src/primitives/circle.rs:117
        self
  22:	e891 03cc 	ldmia.w	r1, {r2, r3, r6, r7, r8, r9}
  26:	e880 03cc 	stmia.w	r0, {r2, r3, r6, r7, r8, r9}
/Users/Luppy/.cargo/registry/src/github.com-1ecc6299db9ec823/embedded-graphics-0.5.2/src/primitives/circle.rs:118
    }
  2a:	f8cd c00c 	str.w	ip, [sp, #12]
  2e:	f8cd e008 	str.w	lr, [sp, #8]
  32:	9401      	str	r4, [sp, #4]
  34:	9500      	str	r5, [sp, #0]
  36:	b005      	add	sp, #20
  38:	e8bd 83f0 	ldmia.w	sp!, {r4, r5, r6, r7, r8, r9, pc}

Disassembly of section .text._ZN120_$LT$$RF$embedded_graphics..primitives..circle..Circle$LT$C$GT$$u20$as$u20$core..iter..traits..collect..IntoIterator$GT$9into_iter17h7db2a18ef97d44dcE:

00000000 <<&embedded_graphics::primitives::circle::Circle<C> as core::iter::traits::collect::IntoIterator>::into_iter>:
_ZN120_$LT$$RF$embedded_graphics..primitives..circle..Circle$LT$C$GT$$u20$as$u20$core..iter..traits..collect..IntoIterator$GT$9into_iter17h7db2a18ef97d44dcE():
/Users/Luppy/.cargo/registry/src/github.com-1ecc6299db9ec823/embedded-graphics-0.5.2/src/primitives/circle.rs:140
    C: PixelColor,
{
    type Item = Pixel<C>;
    type IntoIter = CircleIterator<C>;

    fn into_iter(self) -> Self::IntoIter {
   0:	b5b0      	push	{r4, r5, r7, lr}
   2:	b08c      	sub	sp, #48	; 0x30
   4:	460a      	mov	r2, r1
   6:	9108      	str	r1, [sp, #32]
/Users/Luppy/.cargo/registry/src/github.com-1ecc6299db9ec823/embedded-graphics-0.5.2/src/primitives/circle.rs:142
        CircleIterator {
            center: self.center,
   8:	9908      	ldr	r1, [sp, #32]
   a:	680b      	ldr	r3, [r1, #0]
   c:	f8d1 c004 	ldr.w	ip, [r1, #4]
/Users/Luppy/.cargo/registry/src/github.com-1ecc6299db9ec823/embedded-graphics-0.5.2/src/primitives/circle.rs:143
            radius: self.radius,
  10:	f8d1 e008 	ldr.w	lr, [r1, #8]
/Users/Luppy/.cargo/registry/src/github.com-1ecc6299db9ec823/embedded-graphics-0.5.2/src/primitives/circle.rs:144
            style: self.style,
  14:	8a8c      	ldrh	r4, [r1, #20]
  16:	f8ad 402c 	strh.w	r4, [sp, #44]	; 0x2c
  1a:	68cc      	ldr	r4, [r1, #12]
  1c:	6909      	ldr	r1, [r1, #16]
  1e:	910a      	str	r1, [sp, #40]	; 0x28
  20:	9409      	str	r4, [sp, #36]	; 0x24
/Users/Luppy/.cargo/registry/src/github.com-1ecc6299db9ec823/embedded-graphics-0.5.2/src/primitives/circle.rs:145
            x: -(self.radius as i32),
  22:	9908      	ldr	r1, [sp, #32]
  24:	6889      	ldr	r1, [r1, #8]
  26:	f1b1 4f00 	cmp.w	r1, #2147483648	; 0x80000000
  2a:	9207      	str	r2, [sp, #28]
  2c:	9006      	str	r0, [sp, #24]
  2e:	9305      	str	r3, [sp, #20]
  30:	f8cd c010 	str.w	ip, [sp, #16]
  34:	f8cd e00c 	str.w	lr, [sp, #12]
  38:	9102      	str	r1, [sp, #8]
  3a:	d023      	beq.n	84 <<&embedded_graphics::primitives::circle::Circle<C> as core::iter::traits::collect::IntoIterator>::into_iter+0x84>
  3c:	e7ff      	b.n	3e <<&embedded_graphics::primitives::circle::Circle<C> as core::iter::traits::collect::IntoIterator>::into_iter+0x3e>
  3e:	9802      	ldr	r0, [sp, #8]
  40:	4241      	negs	r1, r0
/Users/Luppy/.cargo/registry/src/github.com-1ecc6299db9ec823/embedded-graphics-0.5.2/src/primitives/circle.rs:146
            y: -(self.radius as i32),
  42:	9a08      	ldr	r2, [sp, #32]
  44:	6892      	ldr	r2, [r2, #8]
  46:	f1b2 4f00 	cmp.w	r2, #2147483648	; 0x80000000
  4a:	9101      	str	r1, [sp, #4]
  4c:	9200      	str	r2, [sp, #0]
  4e:	d020      	beq.n	92 <<&embedded_graphics::primitives::circle::Circle<C> as core::iter::traits::collect::IntoIterator>::into_iter+0x92>
  50:	e7ff      	b.n	52 <<&embedded_graphics::primitives::circle::Circle<C> as core::iter::traits::collect::IntoIterator>::into_iter+0x52>
  52:	9800      	ldr	r0, [sp, #0]
  54:	4241      	negs	r1, r0
/Users/Luppy/.cargo/registry/src/github.com-1ecc6299db9ec823/embedded-graphics-0.5.2/src/primitives/circle.rs:141
        CircleIterator {
  56:	9a05      	ldr	r2, [sp, #20]
  58:	9b06      	ldr	r3, [sp, #24]
  5a:	601a      	str	r2, [r3, #0]
  5c:	f8dd c010 	ldr.w	ip, [sp, #16]
  60:	f8c3 c004 	str.w	ip, [r3, #4]
  64:	f8dd e00c 	ldr.w	lr, [sp, #12]
  68:	f8c3 e008 	str.w	lr, [r3, #8]
  6c:	f8bd 402c 	ldrh.w	r4, [sp, #44]	; 0x2c
  70:	839c      	strh	r4, [r3, #28]
  72:	9c09      	ldr	r4, [sp, #36]	; 0x24
  74:	9d0a      	ldr	r5, [sp, #40]	; 0x28
  76:	619d      	str	r5, [r3, #24]
  78:	615c      	str	r4, [r3, #20]
  7a:	9c01      	ldr	r4, [sp, #4]
  7c:	60dc      	str	r4, [r3, #12]
  7e:	6119      	str	r1, [r3, #16]
/Users/Luppy/.cargo/registry/src/github.com-1ecc6299db9ec823/embedded-graphics-0.5.2/src/primitives/circle.rs:148
        }
    }
  80:	b00c      	add	sp, #48	; 0x30
  82:	bdb0      	pop	{r4, r5, r7, pc}
/Users/Luppy/.cargo/registry/src/github.com-1ecc6299db9ec823/embedded-graphics-0.5.2/src/primitives/circle.rs:145
            x: -(self.radius as i32),
  84:	f240 0000 	movw	r0, #0
  88:	f2c0 0000 	movt	r0, #0
  8c:	f7ff fffe 	bl	0 <core::panicking::panic>
  90:	defe      	udf	#254	; 0xfe
/Users/Luppy/.cargo/registry/src/github.com-1ecc6299db9ec823/embedded-graphics-0.5.2/src/primitives/circle.rs:146
            y: -(self.radius as i32),
  92:	f240 0000 	movw	r0, #0
  96:	f2c0 0000 	movt	r0, #0
  9a:	f7ff fffe 	bl	0 <core::panicking::panic>
  9e:	defe      	udf	#254	; 0xfe

Disassembly of section .text._ZN121_$LT$embedded_graphics..primitives..circle..CircleIterator$LT$C$GT$$u20$as$u20$core..iter..traits..iterator..Iterator$GT$4next17h739931040b512223E:

00000000 <<embedded_graphics::primitives::circle::CircleIterator<C> as core::iter::traits::iterator::Iterator>::next>:
_ZN121_$LT$embedded_graphics..primitives..circle..CircleIterator$LT$C$GT$$u20$as$u20$core..iter..traits..iterator..Iterator$GT$4next17h739931040b512223E():
/Users/Luppy/.cargo/registry/src/github.com-1ecc6299db9ec823/embedded-graphics-0.5.2/src/primitives/circle.rs:168
    C: PixelColor,
{
    type Item = Pixel<C>;

    // https://stackoverflow.com/questions/1201200/fast-algorithm-for-drawing-filled-circles
    fn next(&mut self) -> Option<Self::Item> {
   0:	b580      	push	{r7, lr}
   2:	b0c2      	sub	sp, #264	; 0x108
   4:	460a      	mov	r2, r1
   6:	911d      	str	r1, [sp, #116]	; 0x74
/Users/Luppy/.cargo/registry/src/github.com-1ecc6299db9ec823/embedded-graphics-0.5.2/src/primitives/circle.rs:170
        // If border or stroke colour is `None`, treat entire object as transparent and exit early
        if self.style.stroke_color.is_none() && self.style.fill_color.is_none() {
   8:	991d      	ldr	r1, [sp, #116]	; 0x74
   a:	3118      	adds	r1, #24
   c:	901c      	str	r0, [sp, #112]	; 0x70
   e:	4608      	mov	r0, r1
  10:	921b      	str	r2, [sp, #108]	; 0x6c
  12:	f7ff fffe 	bl	0 <core::option::Option<T>::is_none>
  16:	901a      	str	r0, [sp, #104]	; 0x68
  18:	e00f      	b.n	3a <<embedded_graphics::primitives::circle::CircleIterator<C> as core::iter::traits::iterator::Iterator>::next+0x3a>
  1a:	2000      	movs	r0, #0
  1c:	f88d 007b 	strb.w	r0, [sp, #123]	; 0x7b
  20:	e005      	b.n	2e <<embedded_graphics::primitives::circle::CircleIterator<C> as core::iter::traits::iterator::Iterator>::next+0x2e>
  22:	981d      	ldr	r0, [sp, #116]	; 0x74
  24:	3014      	adds	r0, #20
  26:	f7ff fffe 	bl	0 <core::option::Option<T>::is_none>
  2a:	9019      	str	r0, [sp, #100]	; 0x64
  2c:	e00a      	b.n	44 <<embedded_graphics::primitives::circle::CircleIterator<C> as core::iter::traits::iterator::Iterator>::next+0x44>
  2e:	f89d 007b 	ldrb.w	r0, [sp, #123]	; 0x7b
  32:	07c0      	lsls	r0, r0, #31
  34:	2800      	cmp	r0, #0
  36:	d10b      	bne.n	50 <<embedded_graphics::primitives::circle::CircleIterator<C> as core::iter::traits::iterator::Iterator>::next+0x50>
  38:	e010      	b.n	5c <<embedded_graphics::primitives::circle::CircleIterator<C> as core::iter::traits::iterator::Iterator>::next+0x5c>
  3a:	981a      	ldr	r0, [sp, #104]	; 0x68
  3c:	07c1      	lsls	r1, r0, #31
  3e:	2900      	cmp	r1, #0
  40:	d1ef      	bne.n	22 <<embedded_graphics::primitives::circle::CircleIterator<C> as core::iter::traits::iterator::Iterator>::next+0x22>
  42:	e7ea      	b.n	1a <<embedded_graphics::primitives::circle::CircleIterator<C> as core::iter::traits::iterator::Iterator>::next+0x1a>
  44:	9819      	ldr	r0, [sp, #100]	; 0x64
  46:	f000 0101 	and.w	r1, r0, #1
  4a:	f88d 107b 	strb.w	r1, [sp, #123]	; 0x7b
  4e:	e7ee      	b.n	2e <<embedded_graphics::primitives::circle::CircleIterator<C> as core::iter::traits::iterator::Iterator>::next+0x2e>
  50:	2000      	movs	r0, #0
/Users/Luppy/.cargo/registry/src/github.com-1ecc6299db9ec823/embedded-graphics-0.5.2/src/primitives/circle.rs:171
            return None;
  52:	991c      	ldr	r1, [sp, #112]	; 0x70
  54:	6008      	str	r0, [r1, #0]
  56:	e7ff      	b.n	58 <<embedded_graphics::primitives::circle::CircleIterator<C> as core::iter::traits::iterator::Iterator>::next+0x58>
/Users/Luppy/.cargo/registry/src/github.com-1ecc6299db9ec823/embedded-graphics-0.5.2/src/primitives/circle.rs:228
                }
            }
        };

        item.map(|(x, y, c)| Pixel(Coord::new(x, y).to_unsigned(), c))
    }
  58:	b042      	add	sp, #264	; 0x108
  5a:	bd80      	pop	{r7, pc}
/Users/Luppy/.cargo/registry/src/github.com-1ecc6299db9ec823/embedded-graphics-0.5.2/src/primitives/circle.rs:174
        let cx = self.center[0];
  5c:	981d      	ldr	r0, [sp, #116]	; 0x74
  5e:	2100      	movs	r1, #0
  60:	f7ff fffe 	bl	0 <<embedded_graphics::coord::internal_coord::Coord as core::ops::index::Index<usize>>::index>
  64:	9018      	str	r0, [sp, #96]	; 0x60
  66:	e7ff      	b.n	68 <<embedded_graphics::primitives::circle::CircleIterator<C> as core::iter::traits::iterator::Iterator>::next+0x68>
  68:	9818      	ldr	r0, [sp, #96]	; 0x60
  6a:	6801      	ldr	r1, [r0, #0]
  6c:	911f      	str	r1, [sp, #124]	; 0x7c
/Users/Luppy/.cargo/registry/src/github.com-1ecc6299db9ec823/embedded-graphics-0.5.2/src/primitives/circle.rs:175
        let cy = self.center[1];
  6e:	981d      	ldr	r0, [sp, #116]	; 0x74
  70:	2101      	movs	r1, #1
  72:	f7ff fffe 	bl	0 <<embedded_graphics::coord::internal_coord::Coord as core::ops::index::Index<usize>>::index>
  76:	9017      	str	r0, [sp, #92]	; 0x5c
  78:	e7ff      	b.n	7a <<embedded_graphics::primitives::circle::CircleIterator<C> as core::iter::traits::iterator::Iterator>::next+0x7a>
  7a:	9817      	ldr	r0, [sp, #92]	; 0x5c
  7c:	6801      	ldr	r1, [r0, #0]
  7e:	9120      	str	r1, [sp, #128]	; 0x80
/Users/Luppy/.cargo/registry/src/github.com-1ecc6299db9ec823/embedded-graphics-0.5.2/src/primitives/circle.rs:177
        let radius = self.radius as i32 - self.style.stroke_width as i32 + 1;
  80:	991d      	ldr	r1, [sp, #116]	; 0x74
  82:	688a      	ldr	r2, [r1, #8]
  84:	7f09      	ldrb	r1, [r1, #28]
  86:	1a53      	subs	r3, r2, r1
  88:	428a      	cmp	r2, r1
  8a:	9316      	str	r3, [sp, #88]	; 0x58
  8c:	f180 8191 	bvs.w	3b2 <<embedded_graphics::primitives::circle::CircleIterator<C> as core::iter::traits::iterator::Iterator>::next+0x3b2>
  90:	e7ff      	b.n	92 <<embedded_graphics::primitives::circle::CircleIterator<C> as core::iter::traits::iterator::Iterator>::next+0x92>
  92:	9816      	ldr	r0, [sp, #88]	; 0x58
  94:	1c41      	adds	r1, r0, #1
  96:	460a      	mov	r2, r1
  98:	4281      	cmp	r1, r0
  9a:	9215      	str	r2, [sp, #84]	; 0x54
  9c:	f180 8190 	bvs.w	3c0 <<embedded_graphics::primitives::circle::CircleIterator<C> as core::iter::traits::iterator::Iterator>::next+0x3c0>
  a0:	e7ff      	b.n	a2 <<embedded_graphics::primitives::circle::CircleIterator<C> as core::iter::traits::iterator::Iterator>::next+0xa2>
  a2:	9815      	ldr	r0, [sp, #84]	; 0x54
  a4:	9021      	str	r0, [sp, #132]	; 0x84
/Users/Luppy/.cargo/registry/src/github.com-1ecc6299db9ec823/embedded-graphics-0.5.2/src/primitives/circle.rs:178
        let outer_radius = self.radius as i32;
  a6:	991d      	ldr	r1, [sp, #116]	; 0x74
  a8:	6889      	ldr	r1, [r1, #8]
  aa:	9122      	str	r1, [sp, #136]	; 0x88
/Users/Luppy/.cargo/registry/src/github.com-1ecc6299db9ec823/embedded-graphics-0.5.2/src/primitives/circle.rs:180
        let radius_sq = radius * radius;
  ac:	9921      	ldr	r1, [sp, #132]	; 0x84
  ae:	fb01 f201 	mul.w	r2, r1, r1
  b2:	fb81 1301 	smull	r1, r3, r1, r1
  b6:	ebb3 7fe1 	cmp.w	r3, r1, asr #31
  ba:	9214      	str	r2, [sp, #80]	; 0x50
  bc:	f040 8187 	bne.w	3ce <<embedded_graphics::primitives::circle::CircleIterator<C> as core::iter::traits::iterator::Iterator>::next+0x3ce>
  c0:	e7ff      	b.n	c2 <<embedded_graphics::primitives::circle::CircleIterator<C> as core::iter::traits::iterator::Iterator>::next+0xc2>
  c2:	9814      	ldr	r0, [sp, #80]	; 0x50
  c4:	9023      	str	r0, [sp, #140]	; 0x8c
/Users/Luppy/.cargo/registry/src/github.com-1ecc6299db9ec823/embedded-graphics-0.5.2/src/primitives/circle.rs:181
        let outer_radius_sq = outer_radius * outer_radius;
  c6:	9922      	ldr	r1, [sp, #136]	; 0x88
  c8:	fb01 f201 	mul.w	r2, r1, r1
  cc:	fb81 1301 	smull	r1, r3, r1, r1
  d0:	ebb3 7fe1 	cmp.w	r3, r1, asr #31
  d4:	9213      	str	r2, [sp, #76]	; 0x4c
  d6:	f040 8181 	bne.w	3dc <<embedded_graphics::primitives::circle::CircleIterator<C> as core::iter::traits::iterator::Iterator>::next+0x3dc>
  da:	e7ff      	b.n	dc <<embedded_graphics::primitives::circle::CircleIterator<C> as core::iter::traits::iterator::Iterator>::next+0xdc>
  dc:	9813      	ldr	r0, [sp, #76]	; 0x4c
  de:	9024      	str	r0, [sp, #144]	; 0x90
/Users/Luppy/.cargo/registry/src/github.com-1ecc6299db9ec823/embedded-graphics-0.5.2/src/primitives/circle.rs:183
        let item = loop {
  e0:	e7ff      	b.n	e2 <<embedded_graphics::primitives::circle::CircleIterator<C> as core::iter::traits::iterator::Iterator>::next+0xe2>
/Users/Luppy/.cargo/registry/src/github.com-1ecc6299db9ec823/embedded-graphics-0.5.2/src/primitives/circle.rs:184
            let tx = self.x;
  e2:	981d      	ldr	r0, [sp, #116]	; 0x74
  e4:	68c0      	ldr	r0, [r0, #12]
  e6:	9029      	str	r0, [sp, #164]	; 0xa4
/Users/Luppy/.cargo/registry/src/github.com-1ecc6299db9ec823/embedded-graphics-0.5.2/src/primitives/circle.rs:185
            let ty = self.y;
  e8:	981d      	ldr	r0, [sp, #116]	; 0x74
  ea:	6900      	ldr	r0, [r0, #16]
  ec:	902a      	str	r0, [sp, #168]	; 0xa8
/Users/Luppy/.cargo/registry/src/github.com-1ecc6299db9ec823/embedded-graphics-0.5.2/src/primitives/circle.rs:186
            let len = tx * tx + ty * ty;
  ee:	9829      	ldr	r0, [sp, #164]	; 0xa4
  f0:	fb00 f100 	mul.w	r1, r0, r0
  f4:	fb80 0200 	smull	r0, r2, r0, r0
  f8:	ebb2 7fe0 	cmp.w	r2, r0, asr #31
  fc:	9112      	str	r1, [sp, #72]	; 0x48
  fe:	f040 8174 	bne.w	3ea <<embedded_graphics::primitives::circle::CircleIterator<C> as core::iter::traits::iterator::Iterator>::next+0x3ea>
 102:	e7ff      	b.n	104 <<embedded_graphics::primitives::circle::CircleIterator<C> as core::iter::traits::iterator::Iterator>::next+0x104>
 104:	982a      	ldr	r0, [sp, #168]	; 0xa8
 106:	fb00 f100 	mul.w	r1, r0, r0
 10a:	fb80 0200 	smull	r0, r2, r0, r0
 10e:	ebb2 7fe0 	cmp.w	r2, r0, asr #31
 112:	9111      	str	r1, [sp, #68]	; 0x44
 114:	f040 8170 	bne.w	3f8 <<embedded_graphics::primitives::circle::CircleIterator<C> as core::iter::traits::iterator::Iterator>::next+0x3f8>
 118:	e7ff      	b.n	11a <<embedded_graphics::primitives::circle::CircleIterator<C> as core::iter::traits::iterator::Iterator>::next+0x11a>
 11a:	9812      	ldr	r0, [sp, #72]	; 0x48
 11c:	9911      	ldr	r1, [sp, #68]	; 0x44
 11e:	1842      	adds	r2, r0, r1
 120:	4613      	mov	r3, r2
 122:	4282      	cmp	r2, r0
 124:	9310      	str	r3, [sp, #64]	; 0x40
 126:	f180 816e 	bvs.w	406 <<embedded_graphics::primitives::circle::CircleIterator<C> as core::iter::traits::iterator::Iterator>::next+0x406>
 12a:	e7ff      	b.n	12c <<embedded_graphics::primitives::circle::CircleIterator<C> as core::iter::traits::iterator::Iterator>::next+0x12c>
 12c:	9810      	ldr	r0, [sp, #64]	; 0x40
 12e:	902b      	str	r0, [sp, #172]	; 0xac
/Users/Luppy/.cargo/registry/src/github.com-1ecc6299db9ec823/embedded-graphics-0.5.2/src/primitives/circle.rs:188
            let is_border = len > radius_sq - radius && len < outer_radius_sq + radius;
 130:	992b      	ldr	r1, [sp, #172]	; 0xac
 132:	9a23      	ldr	r2, [sp, #140]	; 0x8c
 134:	9b21      	ldr	r3, [sp, #132]	; 0x84
 136:	eba2 0c03 	sub.w	ip, r2, r3
 13a:	429a      	cmp	r2, r3
 13c:	910f      	str	r1, [sp, #60]	; 0x3c
 13e:	f8cd c038 	str.w	ip, [sp, #56]	; 0x38
 142:	f180 8167 	bvs.w	414 <<embedded_graphics::primitives::circle::CircleIterator<C> as core::iter::traits::iterator::Iterator>::next+0x414>
 146:	e01d      	b.n	184 <<embedded_graphics::primitives::circle::CircleIterator<C> as core::iter::traits::iterator::Iterator>::next+0x184>
 148:	2000      	movs	r0, #0
 14a:	f88d 00b2 	strb.w	r0, [sp, #178]	; 0xb2
 14e:	e00a      	b.n	166 <<embedded_graphics::primitives::circle::CircleIterator<C> as core::iter::traits::iterator::Iterator>::next+0x166>
 150:	982b      	ldr	r0, [sp, #172]	; 0xac
 152:	9924      	ldr	r1, [sp, #144]	; 0x90
 154:	9a21      	ldr	r2, [sp, #132]	; 0x84
 156:	440a      	add	r2, r1
 158:	4613      	mov	r3, r2
 15a:	428a      	cmp	r2, r1
 15c:	900d      	str	r0, [sp, #52]	; 0x34
 15e:	930c      	str	r3, [sp, #48]	; 0x30
 160:	f180 815f 	bvs.w	422 <<embedded_graphics::primitives::circle::CircleIterator<C> as core::iter::traits::iterator::Iterator>::next+0x422>
 164:	e013      	b.n	18e <<embedded_graphics::primitives::circle::CircleIterator<C> as core::iter::traits::iterator::Iterator>::next+0x18e>
/Users/Luppy/.cargo/registry/src/github.com-1ecc6299db9ec823/embedded-graphics-0.5.2/src/primitives/circle.rs:191
            let is_fill = len <= outer_radius_sq;
 166:	982b      	ldr	r0, [sp, #172]	; 0xac
 168:	9924      	ldr	r1, [sp, #144]	; 0x90
 16a:	2200      	movs	r2, #0
 16c:	4288      	cmp	r0, r1
 16e:	bfd8      	it	le
 170:	2201      	movle	r2, #1
 172:	f88d 20b3 	strb.w	r2, [sp, #179]	; 0xb3
/Users/Luppy/.cargo/registry/src/github.com-1ecc6299db9ec823/embedded-graphics-0.5.2/src/primitives/circle.rs:193
            let item = if is_border && self.style.stroke_color.is_some() {
 176:	f89d 00b2 	ldrb.w	r0, [sp, #178]	; 0xb2
 17a:	ea4f 70c0 	mov.w	r0, r0, lsl #31
 17e:	2800      	cmp	r0, #0
 180:	d112      	bne.n	1a8 <<embedded_graphics::primitives::circle::CircleIterator<C> as core::iter::traits::iterator::Iterator>::next+0x1a8>
 182:	e00d      	b.n	1a0 <<embedded_graphics::primitives::circle::CircleIterator<C> as core::iter::traits::iterator::Iterator>::next+0x1a0>
/Users/Luppy/.cargo/registry/src/github.com-1ecc6299db9ec823/embedded-graphics-0.5.2/src/primitives/circle.rs:188
            let is_border = len > radius_sq - radius && len < outer_radius_sq + radius;
 184:	980f      	ldr	r0, [sp, #60]	; 0x3c
 186:	990e      	ldr	r1, [sp, #56]	; 0x38
 188:	4288      	cmp	r0, r1
 18a:	dce1      	bgt.n	150 <<embedded_graphics::primitives::circle::CircleIterator<C> as core::iter::traits::iterator::Iterator>::next+0x150>
 18c:	e7dc      	b.n	148 <<embedded_graphics::primitives::circle::CircleIterator<C> as core::iter::traits::iterator::Iterator>::next+0x148>
 18e:	2000      	movs	r0, #0
 190:	990d      	ldr	r1, [sp, #52]	; 0x34
 192:	9a0c      	ldr	r2, [sp, #48]	; 0x30
 194:	4291      	cmp	r1, r2
 196:	bfb8      	it	lt
 198:	2001      	movlt	r0, #1
 19a:	f88d 00b2 	strb.w	r0, [sp, #178]	; 0xb2
 19e:	e7e2      	b.n	166 <<embedded_graphics::primitives::circle::CircleIterator<C> as core::iter::traits::iterator::Iterator>::next+0x166>
 1a0:	2000      	movs	r0, #0
/Users/Luppy/.cargo/registry/src/github.com-1ecc6299db9ec823/embedded-graphics-0.5.2/src/primitives/circle.rs:193
            let item = if is_border && self.style.stroke_color.is_some() {
 1a2:	f88d 00c7 	strb.w	r0, [sp, #199]	; 0xc7
 1a6:	e005      	b.n	1b4 <<embedded_graphics::primitives::circle::CircleIterator<C> as core::iter::traits::iterator::Iterator>::next+0x1b4>
 1a8:	981d      	ldr	r0, [sp, #116]	; 0x74
 1aa:	3018      	adds	r0, #24
 1ac:	f7ff fffe 	bl	0 <core::option::Option<T>::is_some>
 1b0:	900b      	str	r0, [sp, #44]	; 0x2c
 1b2:	e005      	b.n	1c0 <<embedded_graphics::primitives::circle::CircleIterator<C> as core::iter::traits::iterator::Iterator>::next+0x1c0>
 1b4:	f89d 00c7 	ldrb.w	r0, [sp, #199]	; 0xc7
 1b8:	07c0      	lsls	r0, r0, #31
 1ba:	2800      	cmp	r0, #0
 1bc:	d106      	bne.n	1cc <<embedded_graphics::primitives::circle::CircleIterator<C> as core::iter::traits::iterator::Iterator>::next+0x1cc>
 1be:	e037      	b.n	230 <<embedded_graphics::primitives::circle::CircleIterator<C> as core::iter::traits::iterator::Iterator>::next+0x230>
 1c0:	980b      	ldr	r0, [sp, #44]	; 0x2c
 1c2:	f000 0101 	and.w	r1, r0, #1
 1c6:	f88d 10c7 	strb.w	r1, [sp, #199]	; 0xc7
 1ca:	e7f3      	b.n	1b4 <<embedded_graphics::primitives::circle::CircleIterator<C> as core::iter::traits::iterator::Iterator>::next+0x1b4>
/Users/Luppy/.cargo/registry/src/github.com-1ecc6299db9ec823/embedded-graphics-0.5.2/src/primitives/circle.rs:195
                    cx + tx,
 1cc:	981f      	ldr	r0, [sp, #124]	; 0x7c
 1ce:	9929      	ldr	r1, [sp, #164]	; 0xa4
 1d0:	4401      	add	r1, r0
 1d2:	460a      	mov	r2, r1
 1d4:	4281      	cmp	r1, r0
 1d6:	920a      	str	r2, [sp, #40]	; 0x28
 1d8:	f180 812a 	bvs.w	430 <<embedded_graphics::primitives::circle::CircleIterator<C> as core::iter::traits::iterator::Iterator>::next+0x430>
 1dc:	e7ff      	b.n	1de <<embedded_graphics::primitives::circle::CircleIterator<C> as core::iter::traits::iterator::Iterator>::next+0x1de>
/Users/Luppy/.cargo/registry/src/github.com-1ecc6299db9ec823/embedded-graphics-0.5.2/src/primitives/circle.rs:196
                    cy + ty,
 1de:	9820      	ldr	r0, [sp, #128]	; 0x80
 1e0:	992a      	ldr	r1, [sp, #168]	; 0xa8
 1e2:	4401      	add	r1, r0
 1e4:	460a      	mov	r2, r1
 1e6:	4281      	cmp	r1, r0
 1e8:	9209      	str	r2, [sp, #36]	; 0x24
 1ea:	f180 8128 	bvs.w	43e <<embedded_graphics::primitives::circle::CircleIterator<C> as core::iter::traits::iterator::Iterator>::next+0x43e>
 1ee:	e7ff      	b.n	1f0 <<embedded_graphics::primitives::circle::CircleIterator<C> as core::iter::traits::iterator::Iterator>::next+0x1f0>
/Users/Luppy/.cargo/registry/src/github.com-1ecc6299db9ec823/embedded-graphics-0.5.2/src/primitives/circle.rs:197
                    self.style.stroke_color.expect("Border color not defined"),
 1f0:	981d      	ldr	r0, [sp, #116]	; 0x74
 1f2:	8b41      	ldrh	r1, [r0, #26]
 1f4:	8b00      	ldrh	r0, [r0, #24]
 1f6:	f240 0200 	movw	r2, #0
 1fa:	f2c0 0200 	movt	r2, #0
 1fe:	2318      	movs	r3, #24
 200:	f7ff fffe 	bl	0 <core::option::Option<T>::expect>
 204:	9008      	str	r0, [sp, #32]
 206:	e7ff      	b.n	208 <<embedded_graphics::primitives::circle::CircleIterator<C> as core::iter::traits::iterator::Iterator>::next+0x208>
/Users/Luppy/.cargo/registry/src/github.com-1ecc6299db9ec823/embedded-graphics-0.5.2/src/primitives/circle.rs:194
                Some((
 208:	980a      	ldr	r0, [sp, #40]	; 0x28
 20a:	9032      	str	r0, [sp, #200]	; 0xc8
 20c:	9909      	ldr	r1, [sp, #36]	; 0x24
 20e:	9133      	str	r1, [sp, #204]	; 0xcc
 210:	9a08      	ldr	r2, [sp, #32]
 212:	f8ad 20d0 	strh.w	r2, [sp, #208]	; 0xd0
 216:	9b32      	ldr	r3, [sp, #200]	; 0xc8
 218:	f8dd c0cc 	ldr.w	ip, [sp, #204]	; 0xcc
 21c:	f8dd e0d0 	ldr.w	lr, [sp, #208]	; 0xd0
 220:	f8cd e0c0 	str.w	lr, [sp, #192]	; 0xc0
 224:	f8cd c0bc 	str.w	ip, [sp, #188]	; 0xbc
 228:	932e      	str	r3, [sp, #184]	; 0xb8
 22a:	2301      	movs	r3, #1
 22c:	932d      	str	r3, [sp, #180]	; 0xb4
/Users/Luppy/.cargo/registry/src/github.com-1ecc6299db9ec823/embedded-graphics-0.5.2/src/primitives/circle.rs:193
            let item = if is_border && self.style.stroke_color.is_some() {
 22e:	e051      	b.n	2d4 <<embedded_graphics::primitives::circle::CircleIterator<C> as core::iter::traits::iterator::Iterator>::next+0x2d4>
/Users/Luppy/.cargo/registry/src/github.com-1ecc6299db9ec823/embedded-graphics-0.5.2/src/primitives/circle.rs:199
            } else if is_fill && self.style.fill_color.is_some() {
 230:	f89d 00b3 	ldrb.w	r0, [sp, #179]	; 0xb3
 234:	07c0      	lsls	r0, r0, #31
 236:	2800      	cmp	r0, #0
 238:	d104      	bne.n	244 <<embedded_graphics::primitives::circle::CircleIterator<C> as core::iter::traits::iterator::Iterator>::next+0x244>
 23a:	e7ff      	b.n	23c <<embedded_graphics::primitives::circle::CircleIterator<C> as core::iter::traits::iterator::Iterator>::next+0x23c>
 23c:	2000      	movs	r0, #0
 23e:	f88d 00d7 	strb.w	r0, [sp, #215]	; 0xd7
 242:	e005      	b.n	250 <<embedded_graphics::primitives::circle::CircleIterator<C> as core::iter::traits::iterator::Iterator>::next+0x250>
 244:	981d      	ldr	r0, [sp, #116]	; 0x74
 246:	3014      	adds	r0, #20
 248:	f7ff fffe 	bl	0 <core::option::Option<T>::is_some>
 24c:	9007      	str	r0, [sp, #28]
 24e:	e005      	b.n	25c <<embedded_graphics::primitives::circle::CircleIterator<C> as core::iter::traits::iterator::Iterator>::next+0x25c>
 250:	f89d 00d7 	ldrb.w	r0, [sp, #215]	; 0xd7
 254:	07c0      	lsls	r0, r0, #31
 256:	2800      	cmp	r0, #0
 258:	d106      	bne.n	268 <<embedded_graphics::primitives::circle::CircleIterator<C> as core::iter::traits::iterator::Iterator>::next+0x268>
 25a:	e037      	b.n	2cc <<embedded_graphics::primitives::circle::CircleIterator<C> as core::iter::traits::iterator::Iterator>::next+0x2cc>
 25c:	9807      	ldr	r0, [sp, #28]
 25e:	f000 0101 	and.w	r1, r0, #1
 262:	f88d 10d7 	strb.w	r1, [sp, #215]	; 0xd7
 266:	e7f3      	b.n	250 <<embedded_graphics::primitives::circle::CircleIterator<C> as core::iter::traits::iterator::Iterator>::next+0x250>
/Users/Luppy/.cargo/registry/src/github.com-1ecc6299db9ec823/embedded-graphics-0.5.2/src/primitives/circle.rs:201
                    cx + tx,
 268:	981f      	ldr	r0, [sp, #124]	; 0x7c
 26a:	9929      	ldr	r1, [sp, #164]	; 0xa4
 26c:	4401      	add	r1, r0
 26e:	460a      	mov	r2, r1
 270:	4281      	cmp	r1, r0
 272:	9206      	str	r2, [sp, #24]
 274:	f180 80ea 	bvs.w	44c <<embedded_graphics::primitives::circle::CircleIterator<C> as core::iter::traits::iterator::Iterator>::next+0x44c>
 278:	e7ff      	b.n	27a <<embedded_graphics::primitives::circle::CircleIterator<C> as core::iter::traits::iterator::Iterator>::next+0x27a>
/Users/Luppy/.cargo/registry/src/github.com-1ecc6299db9ec823/embedded-graphics-0.5.2/src/primitives/circle.rs:202
                    cy + ty,
 27a:	9820      	ldr	r0, [sp, #128]	; 0x80
 27c:	992a      	ldr	r1, [sp, #168]	; 0xa8
 27e:	4401      	add	r1, r0
 280:	460a      	mov	r2, r1
 282:	4281      	cmp	r1, r0
 284:	9205      	str	r2, [sp, #20]
 286:	f180 80e8 	bvs.w	45a <<embedded_graphics::primitives::circle::CircleIterator<C> as core::iter::traits::iterator::Iterator>::next+0x45a>
 28a:	e7ff      	b.n	28c <<embedded_graphics::primitives::circle::CircleIterator<C> as core::iter::traits::iterator::Iterator>::next+0x28c>
/Users/Luppy/.cargo/registry/src/github.com-1ecc6299db9ec823/embedded-graphics-0.5.2/src/primitives/circle.rs:203
                    self.style.fill_color.expect("Fill color not defined"),
 28c:	981d      	ldr	r0, [sp, #116]	; 0x74
 28e:	8ac1      	ldrh	r1, [r0, #22]
 290:	8a80      	ldrh	r0, [r0, #20]
 292:	f240 0200 	movw	r2, #0
 296:	f2c0 0200 	movt	r2, #0
 29a:	2316      	movs	r3, #22
 29c:	f7ff fffe 	bl	0 <core::option::Option<T>::expect>
 2a0:	9004      	str	r0, [sp, #16]
 2a2:	e7ff      	b.n	2a4 <<embedded_graphics::primitives::circle::CircleIterator<C> as core::iter::traits::iterator::Iterator>::next+0x2a4>
/Users/Luppy/.cargo/registry/src/github.com-1ecc6299db9ec823/embedded-graphics-0.5.2/src/primitives/circle.rs:200
                Some((
 2a4:	9806      	ldr	r0, [sp, #24]
 2a6:	9036      	str	r0, [sp, #216]	; 0xd8
 2a8:	9905      	ldr	r1, [sp, #20]
 2aa:	9137      	str	r1, [sp, #220]	; 0xdc
 2ac:	9a04      	ldr	r2, [sp, #16]
 2ae:	f8ad 20e0 	strh.w	r2, [sp, #224]	; 0xe0
 2b2:	9b36      	ldr	r3, [sp, #216]	; 0xd8
 2b4:	f8dd c0dc 	ldr.w	ip, [sp, #220]	; 0xdc
 2b8:	f8dd e0e0 	ldr.w	lr, [sp, #224]	; 0xe0
 2bc:	f8cd e0c0 	str.w	lr, [sp, #192]	; 0xc0
 2c0:	f8cd c0bc 	str.w	ip, [sp, #188]	; 0xbc
 2c4:	932e      	str	r3, [sp, #184]	; 0xb8
 2c6:	2301      	movs	r3, #1
 2c8:	932d      	str	r3, [sp, #180]	; 0xb4
/Users/Luppy/.cargo/registry/src/github.com-1ecc6299db9ec823/embedded-graphics-0.5.2/src/primitives/circle.rs:199
            } else if is_fill && self.style.fill_color.is_some() {
 2ca:	e002      	b.n	2d2 <<embedded_graphics::primitives::circle::CircleIterator<C> as core::iter::traits::iterator::Iterator>::next+0x2d2>
 2cc:	2000      	movs	r0, #0
/Users/Luppy/.cargo/registry/src/github.com-1ecc6299db9ec823/embedded-graphics-0.5.2/src/primitives/circle.rs:206
                None
 2ce:	902d      	str	r0, [sp, #180]	; 0xb4
/Users/Luppy/.cargo/registry/src/github.com-1ecc6299db9ec823/embedded-graphics-0.5.2/src/primitives/circle.rs:199
            } else if is_fill && self.style.fill_color.is_some() {
 2d0:	e7ff      	b.n	2d2 <<embedded_graphics::primitives::circle::CircleIterator<C> as core::iter::traits::iterator::Iterator>::next+0x2d2>
/Users/Luppy/.cargo/registry/src/github.com-1ecc6299db9ec823/embedded-graphics-0.5.2/src/primitives/circle.rs:193
            let item = if is_border && self.style.stroke_color.is_some() {
 2d2:	e7ff      	b.n	2d4 <<embedded_graphics::primitives::circle::CircleIterator<C> as core::iter::traits::iterator::Iterator>::next+0x2d4>
/Users/Luppy/.cargo/registry/src/github.com-1ecc6299db9ec823/embedded-graphics-0.5.2/src/primitives/circle.rs:209
            self.x += 1;
 2d4:	981d      	ldr	r0, [sp, #116]	; 0x74
 2d6:	68c0      	ldr	r0, [r0, #12]
 2d8:	1c41      	adds	r1, r0, #1
 2da:	460a      	mov	r2, r1
 2dc:	4281      	cmp	r1, r0
 2de:	9203      	str	r2, [sp, #12]
 2e0:	f180 80c2 	bvs.w	468 <<embedded_graphics::primitives::circle::CircleIterator<C> as core::iter::traits::iterator::Iterator>::next+0x468>
 2e4:	e7ff      	b.n	2e6 <<embedded_graphics::primitives::circle::CircleIterator<C> as core::iter::traits::iterator::Iterator>::next+0x2e6>
 2e6:	981d      	ldr	r0, [sp, #116]	; 0x74
 2e8:	9903      	ldr	r1, [sp, #12]
 2ea:	60c1      	str	r1, [r0, #12]
/Users/Luppy/.cargo/registry/src/github.com-1ecc6299db9ec823/embedded-graphics-0.5.2/src/primitives/circle.rs:211
            if self.x > self.radius as i32 {
 2ec:	981d      	ldr	r0, [sp, #116]	; 0x74
 2ee:	6882      	ldr	r2, [r0, #8]
 2f0:	68c0      	ldr	r0, [r0, #12]
 2f2:	4290      	cmp	r0, r2
 2f4:	dd19      	ble.n	32a <<embedded_graphics::primitives::circle::CircleIterator<C> as core::iter::traits::iterator::Iterator>::next+0x32a>
 2f6:	e7ff      	b.n	2f8 <<embedded_graphics::primitives::circle::CircleIterator<C> as core::iter::traits::iterator::Iterator>::next+0x2f8>
/Users/Luppy/.cargo/registry/src/github.com-1ecc6299db9ec823/embedded-graphics-0.5.2/src/primitives/circle.rs:212
                self.x = -(self.radius as i32);
 2f8:	981d      	ldr	r0, [sp, #116]	; 0x74
 2fa:	6880      	ldr	r0, [r0, #8]
 2fc:	f1b0 4f00 	cmp.w	r0, #2147483648	; 0x80000000
 300:	9002      	str	r0, [sp, #8]
 302:	f000 80b8 	beq.w	476 <<embedded_graphics::primitives::circle::CircleIterator<C> as core::iter::traits::iterator::Iterator>::next+0x476>
 306:	e7ff      	b.n	308 <<embedded_graphics::primitives::circle::CircleIterator<C> as core::iter::traits::iterator::Iterator>::next+0x308>
 308:	981d      	ldr	r0, [sp, #116]	; 0x74
 30a:	9902      	ldr	r1, [sp, #8]
 30c:	424a      	negs	r2, r1
 30e:	60c2      	str	r2, [r0, #12]
/Users/Luppy/.cargo/registry/src/github.com-1ecc6299db9ec823/embedded-graphics-0.5.2/src/primitives/circle.rs:213
                self.y += 1;
 310:	981d      	ldr	r0, [sp, #116]	; 0x74
 312:	6900      	ldr	r0, [r0, #16]
 314:	1c42      	adds	r2, r0, #1
 316:	4613      	mov	r3, r2
 318:	4282      	cmp	r2, r0
 31a:	9301      	str	r3, [sp, #4]
 31c:	f180 80b2 	bvs.w	484 <<embedded_graphics::primitives::circle::CircleIterator<C> as core::iter::traits::iterator::Iterator>::next+0x484>
 320:	e7ff      	b.n	322 <<embedded_graphics::primitives::circle::CircleIterator<C> as core::iter::traits::iterator::Iterator>::next+0x322>
 322:	981d      	ldr	r0, [sp, #116]	; 0x74
 324:	9901      	ldr	r1, [sp, #4]
 326:	6101      	str	r1, [r0, #16]
/Users/Luppy/.cargo/registry/src/github.com-1ecc6299db9ec823/embedded-graphics-0.5.2/src/primitives/circle.rs:211
            if self.x > self.radius as i32 {
 328:	e7ff      	b.n	32a <<embedded_graphics::primitives::circle::CircleIterator<C> as core::iter::traits::iterator::Iterator>::next+0x32a>
/Users/Luppy/.cargo/registry/src/github.com-1ecc6299db9ec823/embedded-graphics-0.5.2/src/primitives/circle.rs:216
            if self.y > self.radius as i32 {
 32a:	981d      	ldr	r0, [sp, #116]	; 0x74
 32c:	6881      	ldr	r1, [r0, #8]
 32e:	6900      	ldr	r0, [r0, #16]
 330:	4288      	cmp	r0, r1
 332:	dd10      	ble.n	356 <<embedded_graphics::primitives::circle::CircleIterator<C> as core::iter::traits::iterator::Iterator>::next+0x356>
 334:	e7ff      	b.n	336 <<embedded_graphics::primitives::circle::CircleIterator<C> as core::iter::traits::iterator::Iterator>::next+0x336>
 336:	2000      	movs	r0, #0
/Users/Luppy/.cargo/registry/src/github.com-1ecc6299db9ec823/embedded-graphics-0.5.2/src/primitives/circle.rs:217
                break None;
 338:	9025      	str	r0, [sp, #148]	; 0x94
 33a:	e7ff      	b.n	33c <<embedded_graphics::primitives::circle::CircleIterator<C> as core::iter::traits::iterator::Iterator>::next+0x33c>
/Users/Luppy/.cargo/registry/src/github.com-1ecc6299db9ec823/embedded-graphics-0.5.2/src/primitives/circle.rs:227
        item.map(|(x, y, c)| Pixel(Coord::new(x, y).to_unsigned(), c))
 33c:	9825      	ldr	r0, [sp, #148]	; 0x94
 33e:	9926      	ldr	r1, [sp, #152]	; 0x98
 340:	9a27      	ldr	r2, [sp, #156]	; 0x9c
 342:	9b28      	ldr	r3, [sp, #160]	; 0xa0
 344:	9340      	str	r3, [sp, #256]	; 0x100
 346:	923f      	str	r2, [sp, #252]	; 0xfc
 348:	913e      	str	r1, [sp, #248]	; 0xf8
 34a:	903d      	str	r0, [sp, #244]	; 0xf4
 34c:	a93d      	add	r1, sp, #244	; 0xf4
 34e:	981c      	ldr	r0, [sp, #112]	; 0x70
 350:	f7ff fffe 	bl	0 <core::option::Option<T>::map>
 354:	e02c      	b.n	3b0 <<embedded_graphics::primitives::circle::CircleIterator<C> as core::iter::traits::iterator::Iterator>::next+0x3b0>
/Users/Luppy/.cargo/registry/src/github.com-1ecc6299db9ec823/embedded-graphics-0.5.2/src/primitives/circle.rs:220
            if let Some(i) = item {
 356:	982d      	ldr	r0, [sp, #180]	; 0xb4
 358:	2801      	cmp	r0, #1
 35a:	d128      	bne.n	3ae <<embedded_graphics::primitives::circle::CircleIterator<C> as core::iter::traits::iterator::Iterator>::next+0x3ae>
 35c:	e7ff      	b.n	35e <<embedded_graphics::primitives::circle::CircleIterator<C> as core::iter::traits::iterator::Iterator>::next+0x35e>
 35e:	982e      	ldr	r0, [sp, #184]	; 0xb8
 360:	992f      	ldr	r1, [sp, #188]	; 0xbc
 362:	9a30      	ldr	r2, [sp, #192]	; 0xc0
 364:	923b      	str	r2, [sp, #236]	; 0xec
 366:	913a      	str	r1, [sp, #232]	; 0xe8
 368:	9039      	str	r0, [sp, #228]	; 0xe4
/Users/Luppy/.cargo/registry/src/github.com-1ecc6299db9ec823/embedded-graphics-0.5.2/src/primitives/circle.rs:221
                if i.0 >= 0 && i.1 >= 0 {
 36a:	9839      	ldr	r0, [sp, #228]	; 0xe4
 36c:	f1b0 3fff 	cmp.w	r0, #4294967295	; 0xffffffff
 370:	dc04      	bgt.n	37c <<embedded_graphics::primitives::circle::CircleIterator<C> as core::iter::traits::iterator::Iterator>::next+0x37c>
 372:	e7ff      	b.n	374 <<embedded_graphics::primitives::circle::CircleIterator<C> as core::iter::traits::iterator::Iterator>::next+0x374>
 374:	2000      	movs	r0, #0
 376:	f88d 00f3 	strb.w	r0, [sp, #243]	; 0xf3
 37a:	e008      	b.n	38e <<embedded_graphics::primitives::circle::CircleIterator<C> as core::iter::traits::iterator::Iterator>::next+0x38e>
 37c:	983a      	ldr	r0, [sp, #232]	; 0xe8
 37e:	2100      	movs	r1, #0
 380:	f1b0 3fff 	cmp.w	r0, #4294967295	; 0xffffffff
 384:	bfc8      	it	gt
 386:	2101      	movgt	r1, #1
 388:	f88d 10f3 	strb.w	r1, [sp, #243]	; 0xf3
 38c:	e7ff      	b.n	38e <<embedded_graphics::primitives::circle::CircleIterator<C> as core::iter::traits::iterator::Iterator>::next+0x38e>
 38e:	f89d 00f3 	ldrb.w	r0, [sp, #243]	; 0xf3
 392:	07c0      	lsls	r0, r0, #31
 394:	2800      	cmp	r0, #0
 396:	d009      	beq.n	3ac <<embedded_graphics::primitives::circle::CircleIterator<C> as core::iter::traits::iterator::Iterator>::next+0x3ac>
 398:	e7ff      	b.n	39a <<embedded_graphics::primitives::circle::CircleIterator<C> as core::iter::traits::iterator::Iterator>::next+0x39a>
/Users/Luppy/.cargo/registry/src/github.com-1ecc6299db9ec823/embedded-graphics-0.5.2/src/primitives/circle.rs:222
                    break item;
 39a:	982d      	ldr	r0, [sp, #180]	; 0xb4
 39c:	992e      	ldr	r1, [sp, #184]	; 0xb8
 39e:	9a2f      	ldr	r2, [sp, #188]	; 0xbc
 3a0:	9b30      	ldr	r3, [sp, #192]	; 0xc0
 3a2:	9328      	str	r3, [sp, #160]	; 0xa0
 3a4:	9227      	str	r2, [sp, #156]	; 0x9c
 3a6:	9126      	str	r1, [sp, #152]	; 0x98
 3a8:	9025      	str	r0, [sp, #148]	; 0x94
 3aa:	e7c7      	b.n	33c <<embedded_graphics::primitives::circle::CircleIterator<C> as core::iter::traits::iterator::Iterator>::next+0x33c>
/Users/Luppy/.cargo/registry/src/github.com-1ecc6299db9ec823/embedded-graphics-0.5.2/src/primitives/circle.rs:220
            if let Some(i) = item {
 3ac:	e7ff      	b.n	3ae <<embedded_graphics::primitives::circle::CircleIterator<C> as core::iter::traits::iterator::Iterator>::next+0x3ae>
/Users/Luppy/.cargo/registry/src/github.com-1ecc6299db9ec823/embedded-graphics-0.5.2/src/primitives/circle.rs:183
        let item = loop {
 3ae:	e698      	b.n	e2 <<embedded_graphics::primitives::circle::CircleIterator<C> as core::iter::traits::iterator::Iterator>::next+0xe2>
/Users/Luppy/.cargo/registry/src/github.com-1ecc6299db9ec823/embedded-graphics-0.5.2/src/primitives/circle.rs:228
    }
 3b0:	e652      	b.n	58 <<embedded_graphics::primitives::circle::CircleIterator<C> as core::iter::traits::iterator::Iterator>::next+0x58>
/Users/Luppy/.cargo/registry/src/github.com-1ecc6299db9ec823/embedded-graphics-0.5.2/src/primitives/circle.rs:177
        let radius = self.radius as i32 - self.style.stroke_width as i32 + 1;
 3b2:	f240 0000 	movw	r0, #0
 3b6:	f2c0 0000 	movt	r0, #0
 3ba:	f7ff fffe 	bl	0 <core::panicking::panic>
 3be:	defe      	udf	#254	; 0xfe
 3c0:	f240 0000 	movw	r0, #0
 3c4:	f2c0 0000 	movt	r0, #0
 3c8:	f7ff fffe 	bl	0 <core::panicking::panic>
 3cc:	defe      	udf	#254	; 0xfe
/Users/Luppy/.cargo/registry/src/github.com-1ecc6299db9ec823/embedded-graphics-0.5.2/src/primitives/circle.rs:180
        let radius_sq = radius * radius;
 3ce:	f240 0000 	movw	r0, #0
 3d2:	f2c0 0000 	movt	r0, #0
 3d6:	f7ff fffe 	bl	0 <core::panicking::panic>
 3da:	defe      	udf	#254	; 0xfe
/Users/Luppy/.cargo/registry/src/github.com-1ecc6299db9ec823/embedded-graphics-0.5.2/src/primitives/circle.rs:181
        let outer_radius_sq = outer_radius * outer_radius;
 3dc:	f240 0000 	movw	r0, #0
 3e0:	f2c0 0000 	movt	r0, #0
 3e4:	f7ff fffe 	bl	0 <core::panicking::panic>
 3e8:	defe      	udf	#254	; 0xfe
/Users/Luppy/.cargo/registry/src/github.com-1ecc6299db9ec823/embedded-graphics-0.5.2/src/primitives/circle.rs:186
            let len = tx * tx + ty * ty;
 3ea:	f240 0000 	movw	r0, #0
 3ee:	f2c0 0000 	movt	r0, #0
 3f2:	f7ff fffe 	bl	0 <core::panicking::panic>
 3f6:	defe      	udf	#254	; 0xfe
 3f8:	f240 0000 	movw	r0, #0
 3fc:	f2c0 0000 	movt	r0, #0
 400:	f7ff fffe 	bl	0 <core::panicking::panic>
 404:	defe      	udf	#254	; 0xfe
 406:	f240 0000 	movw	r0, #0
 40a:	f2c0 0000 	movt	r0, #0
 40e:	f7ff fffe 	bl	0 <core::panicking::panic>
 412:	defe      	udf	#254	; 0xfe
/Users/Luppy/.cargo/registry/src/github.com-1ecc6299db9ec823/embedded-graphics-0.5.2/src/primitives/circle.rs:188
            let is_border = len > radius_sq - radius && len < outer_radius_sq + radius;
 414:	f240 0000 	movw	r0, #0
 418:	f2c0 0000 	movt	r0, #0
 41c:	f7ff fffe 	bl	0 <core::panicking::panic>
 420:	defe      	udf	#254	; 0xfe
 422:	f240 0000 	movw	r0, #0
 426:	f2c0 0000 	movt	r0, #0
 42a:	f7ff fffe 	bl	0 <core::panicking::panic>
 42e:	defe      	udf	#254	; 0xfe
/Users/Luppy/.cargo/registry/src/github.com-1ecc6299db9ec823/embedded-graphics-0.5.2/src/primitives/circle.rs:195
                    cx + tx,
 430:	f240 0000 	movw	r0, #0
 434:	f2c0 0000 	movt	r0, #0
 438:	f7ff fffe 	bl	0 <core::panicking::panic>
 43c:	defe      	udf	#254	; 0xfe
/Users/Luppy/.cargo/registry/src/github.com-1ecc6299db9ec823/embedded-graphics-0.5.2/src/primitives/circle.rs:196
                    cy + ty,
 43e:	f240 0000 	movw	r0, #0
 442:	f2c0 0000 	movt	r0, #0
 446:	f7ff fffe 	bl	0 <core::panicking::panic>
 44a:	defe      	udf	#254	; 0xfe
/Users/Luppy/.cargo/registry/src/github.com-1ecc6299db9ec823/embedded-graphics-0.5.2/src/primitives/circle.rs:201
                    cx + tx,
 44c:	f240 0000 	movw	r0, #0
 450:	f2c0 0000 	movt	r0, #0
 454:	f7ff fffe 	bl	0 <core::panicking::panic>
 458:	defe      	udf	#254	; 0xfe
/Users/Luppy/.cargo/registry/src/github.com-1ecc6299db9ec823/embedded-graphics-0.5.2/src/primitives/circle.rs:202
                    cy + ty,
 45a:	f240 0000 	movw	r0, #0
 45e:	f2c0 0000 	movt	r0, #0
 462:	f7ff fffe 	bl	0 <core::panicking::panic>
 466:	defe      	udf	#254	; 0xfe
/Users/Luppy/.cargo/registry/src/github.com-1ecc6299db9ec823/embedded-graphics-0.5.2/src/primitives/circle.rs:209
            self.x += 1;
 468:	f240 0000 	movw	r0, #0
 46c:	f2c0 0000 	movt	r0, #0
 470:	f7ff fffe 	bl	0 <core::panicking::panic>
 474:	defe      	udf	#254	; 0xfe
/Users/Luppy/.cargo/registry/src/github.com-1ecc6299db9ec823/embedded-graphics-0.5.2/src/primitives/circle.rs:212
                self.x = -(self.radius as i32);
 476:	f240 0000 	movw	r0, #0
 47a:	f2c0 0000 	movt	r0, #0
 47e:	f7ff fffe 	bl	0 <core::panicking::panic>
 482:	defe      	udf	#254	; 0xfe
/Users/Luppy/.cargo/registry/src/github.com-1ecc6299db9ec823/embedded-graphics-0.5.2/src/primitives/circle.rs:213
                self.y += 1;
 484:	f240 0000 	movw	r0, #0
 488:	f2c0 0000 	movt	r0, #0
 48c:	f7ff fffe 	bl	0 <core::panicking::panic>
 490:	defe      	udf	#254	; 0xfe

Disassembly of section .text._ZN121_$LT$embedded_graphics..primitives..circle..CircleIterator$LT$C$GT$$u20$as$u20$core..iter..traits..iterator..Iterator$GT$4next28_$u7b$$u7b$closure$u7d$$u7d$17hba64c031d5d01204E:

00000000 <<embedded_graphics::primitives::circle::CircleIterator<C> as core::iter::traits::iterator::Iterator>::next::{{closure}}>:
_ZN121_$LT$embedded_graphics..primitives..circle..CircleIterator$LT$C$GT$$u20$as$u20$core..iter..traits..iterator..Iterator$GT$4next28_$u7b$$u7b$closure$u7d$$u7d$17hba64c031d5d01204E():
/Users/Luppy/.cargo/registry/src/github.com-1ecc6299db9ec823/embedded-graphics-0.5.2/src/primitives/circle.rs:227
        item.map(|(x, y, c)| Pixel(Coord::new(x, y).to_unsigned(), c))
   0:	b580      	push	{r7, lr}
   2:	b08a      	sub	sp, #40	; 0x28
   4:	460a      	mov	r2, r1
   6:	680b      	ldr	r3, [r1, #0]
   8:	9307      	str	r3, [sp, #28]
   a:	684b      	ldr	r3, [r1, #4]
   c:	9308      	str	r3, [sp, #32]
   e:	8909      	ldrh	r1, [r1, #8]
  10:	f8ad 1026 	strh.w	r1, [sp, #38]	; 0x26
  14:	9907      	ldr	r1, [sp, #28]
  16:	9b08      	ldr	r3, [sp, #32]
  18:	9005      	str	r0, [sp, #20]
  1a:	4608      	mov	r0, r1
  1c:	4619      	mov	r1, r3
  1e:	9204      	str	r2, [sp, #16]
  20:	f7ff fffe 	bl	0 <embedded_graphics::coord::internal_coord::Coord::new>
  24:	9003      	str	r0, [sp, #12]
  26:	9102      	str	r1, [sp, #8]
  28:	e7ff      	b.n	2a <<embedded_graphics::primitives::circle::CircleIterator<C> as core::iter::traits::iterator::Iterator>::next::{{closure}}+0x2a>
  2a:	9803      	ldr	r0, [sp, #12]
  2c:	9902      	ldr	r1, [sp, #8]
  2e:	f7ff fffe 	bl	0 <<embedded_graphics::coord::internal_coord::Coord as embedded_graphics::coord::ToUnsigned>::to_unsigned>
  32:	9001      	str	r0, [sp, #4]
  34:	9100      	str	r1, [sp, #0]
  36:	e7ff      	b.n	38 <<embedded_graphics::primitives::circle::CircleIterator<C> as core::iter::traits::iterator::Iterator>::next::{{closure}}+0x38>
  38:	f8bd 0026 	ldrh.w	r0, [sp, #38]	; 0x26
  3c:	9901      	ldr	r1, [sp, #4]
  3e:	9a05      	ldr	r2, [sp, #20]
  40:	6011      	str	r1, [r2, #0]
  42:	9b00      	ldr	r3, [sp, #0]
  44:	6053      	str	r3, [r2, #4]
  46:	8110      	strh	r0, [r2, #8]
  48:	b00a      	add	sp, #40	; 0x28
  4a:	bd80      	pop	{r7, pc}

Disassembly of section .text._ZN17embedded_graphics10primitives6circle15Circle$LT$C$GT$3new17hfb7a50a81d553696E:

00000000 <embedded_graphics::primitives::circle::Circle<C>::new>:
_ZN17embedded_graphics10primitives6circle15Circle$LT$C$GT$3new17hfb7a50a81d553696E():
/Users/Luppy/.cargo/registry/src/github.com-1ecc6299db9ec823/embedded-graphics-0.5.2/src/primitives/circle.rs:62
    pub fn new(center: Coord, radius: u32) -> Self {
   0:	b5b0      	push	{r4, r5, r7, lr}
   2:	b08e      	sub	sp, #56	; 0x38
   4:	469c      	mov	ip, r3
   6:	4696      	mov	lr, r2
   8:	460c      	mov	r4, r1
   a:	9108      	str	r1, [sp, #32]
   c:	9209      	str	r2, [sp, #36]	; 0x24
   e:	930a      	str	r3, [sp, #40]	; 0x28
/Users/Luppy/.cargo/registry/src/github.com-1ecc6299db9ec823/embedded-graphics-0.5.2/src/primitives/circle.rs:64
            center,
  10:	9908      	ldr	r1, [sp, #32]
  12:	9a09      	ldr	r2, [sp, #36]	; 0x24
/Users/Luppy/.cargo/registry/src/github.com-1ecc6299db9ec823/embedded-graphics-0.5.2/src/primitives/circle.rs:65
            radius,
  14:	9b0a      	ldr	r3, [sp, #40]	; 0x28
  16:	ad0b      	add	r5, sp, #44	; 0x2c
/Users/Luppy/.cargo/registry/src/github.com-1ecc6299db9ec823/embedded-graphics-0.5.2/src/primitives/circle.rs:66
            style: Style::default(),
  18:	9007      	str	r0, [sp, #28]
  1a:	4628      	mov	r0, r5
  1c:	f8cd c018 	str.w	ip, [sp, #24]
  20:	f8cd e014 	str.w	lr, [sp, #20]
  24:	9404      	str	r4, [sp, #16]
  26:	9103      	str	r1, [sp, #12]
  28:	9202      	str	r2, [sp, #8]
  2a:	9301      	str	r3, [sp, #4]
  2c:	f7ff fffe 	bl	0 <<embedded_graphics::style::Style<P> as core::default::Default>::default>
  30:	e7ff      	b.n	32 <embedded_graphics::primitives::circle::Circle<C>::new+0x32>
/Users/Luppy/.cargo/registry/src/github.com-1ecc6299db9ec823/embedded-graphics-0.5.2/src/primitives/circle.rs:63
        Circle {
  32:	9803      	ldr	r0, [sp, #12]
  34:	9907      	ldr	r1, [sp, #28]
  36:	6008      	str	r0, [r1, #0]
  38:	9a02      	ldr	r2, [sp, #8]
  3a:	604a      	str	r2, [r1, #4]
  3c:	9b01      	ldr	r3, [sp, #4]
  3e:	608b      	str	r3, [r1, #8]
  40:	f8bd c034 	ldrh.w	ip, [sp, #52]	; 0x34
  44:	f8a1 c014 	strh.w	ip, [r1, #20]
  48:	f8dd c02c 	ldr.w	ip, [sp, #44]	; 0x2c
  4c:	f8dd e030 	ldr.w	lr, [sp, #48]	; 0x30
  50:	f8c1 e010 	str.w	lr, [r1, #16]
  54:	f8c1 c00c 	str.w	ip, [r1, #12]
/Users/Luppy/.cargo/registry/src/github.com-1ecc6299db9ec823/embedded-graphics-0.5.2/src/primitives/circle.rs:68
    }
  58:	b00e      	add	sp, #56	; 0x38
  5a:	bdb0      	pop	{r4, r5, r7, pc}

app-b8434b356de0ea5d.bf3y0ko19be0l6h.rcgu.o:     file format elf32-littlearm

SYMBOL TABLE:
00000000 l    df *ABS*	00000000 bf3y0ko19be0l6h
000000de l       .debug_str	00000000 
00000000 l       .debug_str	00000000 
00000041 l       .debug_str	00000000 
00000055 l       .debug_str	00000000 
00000085 l       .debug_str	00000000 
0000008a l       .debug_str	00000000 
0000008e l       .debug_str	00000000 
00000091 l       .debug_str	00000000 
000000fa l       .debug_str	00000000 
0000009c l       .debug_str	00000000 
000000a7 l       .debug_str	00000000 
000000ae l       .debug_str	00000000 
000000b2 l       .debug_str	00000000 
000000b4 l       .debug_str	00000000 
00000000 l    d  .text._ZN4core3ptr8null_mut17h58cf134f3f697ee2E	00000000 .text._ZN4core3ptr8null_mut17h58cf134f3f697ee2E
00000000 l    d  .debug_abbrev	00000000 .debug_abbrev
00000000 l    d  .debug_info	00000000 .debug_info
00000000 l    d  .debug_frame	00000000 .debug_frame
00000000 l    d  .debug_line	00000000 .debug_line
00000000 g     F .text._ZN4core3ptr8null_mut17h58cf134f3f697ee2E	00000004 core::ptr::null_mut



Disassembly of section .text._ZN4core3ptr8null_mut17h58cf134f3f697ee2E:

00000000 <core::ptr::null_mut>:
_ZN4core3ptr8null_mut17h58cf134f3f697ee2E():
/rustc/50a0defd5a93523067ef239936cc2e0755220904/src/libcore/ptr.rs:229
   0:	2000      	movs	r0, #0
   2:	4770      	bx	lr

app-b8434b356de0ea5d.cgyyka41xcjepv8.rcgu.o:     file format elf32-littlearm

SYMBOL TABLE:
00000000 l    df *ABS*	00000000 cgyyka41xcjepv8
00000102 l       .debug_str	00000000 
00000000 l       .debug_str	00000000 
00000041 l       .debug_str	00000000 
00000055 l       .debug_str	00000000 
00000085 l       .debug_str	00000000 
0000008a l       .debug_str	00000000 
0000008e l       .debug_str	00000000 
00000097 l       .debug_str	00000000 
0000009e l       .debug_str	00000000 
000000a5 l       .debug_str	00000000 
0000013d l       .debug_str	00000000 
000000a8 l       .debug_str	00000000 
000000ad l       .debug_str	00000000 
000000af l       .debug_str	00000000 
000000b4 l       .debug_str	00000000 
000000b8 l       .debug_str	00000000 
000000c3 l       .debug_str	00000000 
000000c7 l       .debug_str	00000000 
000000cc l       .debug_str	00000000 
000000f1 l       .debug_str	00000000 
000000f6 l       .debug_str	00000000 
000000fd l       .debug_str	00000000 
00000000 l    d  .text._ZN4core3ops8function6FnOnce9call_once17h4fc4b5583f36c31bE	00000000 .text._ZN4core3ops8function6FnOnce9call_once17h4fc4b5583f36c31bE
00000000 l    d  .debug_abbrev	00000000 .debug_abbrev
00000000 l    d  .debug_info	00000000 .debug_info
00000000 l    d  .debug_frame	00000000 .debug_frame
00000000 l    d  .debug_line	00000000 .debug_line
00000000 g     F .text._ZN4core3ops8function6FnOnce9call_once17h4fc4b5583f36c31bE	00000022 .hidden core::ops::function::FnOnce::call_once
00000000         *UND*	00000000 .hidden <u64 as num_traits::cast::ToPrimitive>::to_u8



Disassembly of section .text._ZN4core3ops8function6FnOnce9call_once17h4fc4b5583f36c31bE:

00000000 <core::ops::function::FnOnce::call_once>:
_ZN4core3ops8function6FnOnce9call_once17h4fc4b5583f36c31bE():
/rustc/50a0defd5a93523067ef239936cc2e0755220904/src/libcore/ops/function.rs:231
   0:	b580      	push	{r7, lr}
   2:	b086      	sub	sp, #24
   4:	4601      	mov	r1, r0
   6:	9005      	str	r0, [sp, #20]
   8:	9805      	ldr	r0, [sp, #20]
   a:	9103      	str	r1, [sp, #12]
   c:	f7ff fffe 	bl	0 <<u64 as num_traits::cast::ToPrimitive>::to_u8>
  10:	9002      	str	r0, [sp, #8]
  12:	9101      	str	r1, [sp, #4]
  14:	e7ff      	b.n	16 <core::ops::function::FnOnce::call_once+0x16>
  16:	9802      	ldr	r0, [sp, #8]
  18:	f000 0001 	and.w	r0, r0, #1
  1c:	9901      	ldr	r1, [sp, #4]
  1e:	b006      	add	sp, #24
  20:	bd80      	pop	{r7, pc}

app-b8434b356de0ea5d.e2b5cviijb3thm3.rcgu.o:     file format elf32-littlearm

SYMBOL TABLE:
00000000 l    df *ABS*	00000000 e2b5cviijb3thm3
000001cb l       .debug_str	00000000 
00000000 l       .debug_str	00000000 
00000041 l       .debug_str	00000000 
00000055 l       .debug_str	00000000 
00000085 l       .debug_str	00000000 
0000008c l       .debug_str	00000000 
00000093 l       .debug_str	00000000 
00000097 l       .debug_str	00000000 
0000009f l       .debug_str	00000000 
000000aa l       .debug_str	00000000 
000000b5 l       .debug_str	00000000 
000000c2 l       .debug_str	00000000 
000001ed l       .debug_str	00000000 
000000cd l       .debug_str	00000000 
000000d5 l       .debug_str	00000000 
000000e0 l       .debug_str	00000000 
000000eb l       .debug_str	00000000 
000000f5 l       .debug_str	00000000 
00000100 l       .debug_str	00000000 
0000010b l       .debug_str	00000000 
00000118 l       .debug_str	00000000 
00000124 l       .debug_str	00000000 
00000131 l       .debug_str	00000000 
0000013f l       .debug_str	00000000 
00000149 l       .debug_str	00000000 
00000156 l       .debug_str	00000000 
00000162 l       .debug_str	00000000 
00000167 l       .debug_str	00000000 
0000016f l       .debug_str	00000000 
00000178 l       .debug_str	00000000 
0000017a l       .debug_str	00000000 
00000000 l    d  .text._ZN50_$LT$T$u20$as$u20$core..convert..From$LT$T$GT$$GT$4from17hbea119b66b1a4f5dE	00000000 .text._ZN50_$LT$T$u20$as$u20$core..convert..From$LT$T$GT$$GT$4from17hbea119b66b1a4f5dE
00000000 l    d  .debug_abbrev	00000000 .debug_abbrev
00000000 l    d  .debug_info	00000000 .debug_info
00000000 l    d  .debug_frame	00000000 .debug_frame
00000000 l    d  .debug_line	00000000 .debug_line
00000000 g     F .text._ZN50_$LT$T$u20$as$u20$core..convert..From$LT$T$GT$$GT$4from17hbea119b66b1a4f5dE	0000000e <T as core::convert::From<T>>::from



Disassembly of section .text._ZN50_$LT$T$u20$as$u20$core..convert..From$LT$T$GT$$GT$4from17hbea119b66b1a4f5dE:

00000000 <<T as core::convert::From<T>>::from>:
_ZN50_$LT$T$u20$as$u20$core..convert..From$LT$T$GT$$GT$4from17hbea119b66b1a4f5dE():
/rustc/50a0defd5a93523067ef239936cc2e0755220904/src/libcore/convert.rs:547
   0:	b082      	sub	sp, #8
   2:	4601      	mov	r1, r0
   4:	9001      	str	r0, [sp, #4]
   6:	9801      	ldr	r0, [sp, #4]
   8:	9100      	str	r1, [sp, #0]
   a:	b002      	add	sp, #8
   c:	4770      	bx	lr
arm-none-eabi-objdump: rust.metadata.bin: File format not recognized
arm-none-eabi-objdump: app-b8434b356de0ea5d.1f1w1qpphj6y4xva.rcgu.bc.z: File format not recognized
arm-none-eabi-objdump: app-b8434b356de0ea5d.1fcjl9upb6k0e3ni.rcgu.bc.z: File format not recognized
arm-none-eabi-objdump: app-b8434b356de0ea5d.1maqaaxlahr824al.rcgu.bc.z: File format not recognized
arm-none-eabi-objdump: app-b8434b356de0ea5d.1s62yn378fy0g079.rcgu.bc.z: File format not recognized
arm-none-eabi-objdump: app-b8434b356de0ea5d.1sgpzgj4qo12dzez.rcgu.bc.z: File format not recognized
arm-none-eabi-objdump: app-b8434b356de0ea5d.1t53zl09lntcc3fr.rcgu.bc.z: File format not recognized
arm-none-eabi-objdump: app-b8434b356de0ea5d.1vw86tl7du08oaio.rcgu.bc.z: File format not recognized
arm-none-eabi-objdump: app-b8434b356de0ea5d.1wm8s7vqxsndtzsw.rcgu.bc.z: File format not recognized
arm-none-eabi-objdump: app-b8434b356de0ea5d.24yo3mxsoqcxh0en.rcgu.bc.z: File format not recognized
arm-none-eabi-objdump: app-b8434b356de0ea5d.266c8m0qnm5ifhmb.rcgu.bc.z: File format not recognized
arm-none-eabi-objdump: app-b8434b356de0ea5d.2ock55n7ky3an0la.rcgu.bc.z: File format not recognized
arm-none-eabi-objdump: app-b8434b356de0ea5d.2waib4qauil557b3.rcgu.bc.z: File format not recognized
arm-none-eabi-objdump: app-b8434b356de0ea5d.2xze5wajftyu9ipr.rcgu.bc.z: File format not recognized
arm-none-eabi-objdump: app-b8434b356de0ea5d.35b8gycmn554xvz5.rcgu.bc.z: File format not recognized
arm-none-eabi-objdump: app-b8434b356de0ea5d.3duxu2489k4fs6d1.rcgu.bc.z: File format not recognized
arm-none-eabi-objdump: app-b8434b356de0ea5d.3j5s3n1ccuhe5j8s.rcgu.bc.z: File format not recognized
arm-none-eabi-objdump: app-b8434b356de0ea5d.3jn3ml4cjsgi16hg.rcgu.bc.z: File format not recognized
arm-none-eabi-objdump: app-b8434b356de0ea5d.3l4z2ex1n13xskbg.rcgu.bc.z: File format not recognized
arm-none-eabi-objdump: app-b8434b356de0ea5d.3wiwezkuh1kme3qe.rcgu.bc.z: File format not recognized
arm-none-eabi-objdump: app-b8434b356de0ea5d.3xc1yo2rqryg1tsa.rcgu.bc.z: File format not recognized
arm-none-eabi-objdump: app-b8434b356de0ea5d.4o4k463sud73nrfj.rcgu.bc.z: File format not recognized
arm-none-eabi-objdump: app-b8434b356de0ea5d.4tydmtz0azhqdmnq.rcgu.bc.z: File format not recognized
arm-none-eabi-objdump: app-b8434b356de0ea5d.4ug6anvcrmxnm3wg.rcgu.bc.z: File format not recognized
arm-none-eabi-objdump: app-b8434b356de0ea5d.4ym7ou33g0qd0kmr.rcgu.bc.z: File format not recognized
arm-none-eabi-objdump: app-b8434b356de0ea5d.589734z1h93yayke.rcgu.bc.z: File format not recognized
arm-none-eabi-objdump: app-b8434b356de0ea5d.bf3y0ko19be0l6h.rcgu.bc.z: File format not recognized
arm-none-eabi-objdump: app-b8434b356de0ea5d.cgyyka41xcjepv8.rcgu.bc.z: File format not recognized
arm-none-eabi-objdump: app-b8434b356de0ea5d.e2b5cviijb3thm3.rcgu.bc.z: File format not recognized
