In archive target\thumbv7em-none-eabihf\debug\libapp.rlib:

app-2bc386860c9913e9.1baba3fm44chs5nv.rcgu.o:     file format elf32-littlearm

SYMBOL TABLE:
00000000 l    df *ABS*	00000000 1baba3fm44chs5nv
00000517 l       .debug_str	00000000 
00000e67 l       .debug_str	00000000 
00000e61 l       .debug_str	00000000 
00000e5b l       .debug_str	00000000 
00000e56 l       .debug_str	00000000 
00000e4f l       .debug_str	00000000 
00000e2c l       .debug_str	00000000 
00000e22 l       .debug_str	00000000 
00000e0a l       .debug_str	00000000 
00000de3 l       .debug_str	00000000 
00000dd9 l       .debug_str	00000000 
00000dce l       .debug_str	00000000 
00000f04 l       .debug_str	00000000 
00000dc5 l       .debug_str	00000000 
00000dbc l       .debug_str	00000000 
00000eff l       .debug_str	00000000 
00000d9b l       .debug_str	00000000 
00000d93 l       .debug_str	00000000 
00000d7d l       .debug_str	00000000 
00000d72 l       .debug_str	00000000 
00000d5c l       .debug_str	00000000 
00000ef5 l       .debug_str	00000000 
00000d36 l       .debug_str	00000000 
00000d2d l       .debug_str	00000000 
00000d24 l       .debug_str	00000000 
00000d1a l       .debug_str	00000000 
00000d04 l       .debug_str	00000000 
00000cf5 l       .debug_str	00000000 
00000ce8 l       .debug_str	00000000 
00000cdd l       .debug_str	00000000 
00000ccf l       .debug_str	00000000 
00000cbf l       .debug_str	00000000 
00000ca1 l       .debug_str	00000000 
00000c98 l       .debug_str	00000000 
00000c90 l       .debug_str	00000000 
00000c89 l       .debug_str	00000000 
00000c23 l       .debug_str	00000000 
00000bc5 l       .debug_str	00000000 
00000b9c l       .debug_str	00000000 
00000b94 l       .debug_str	00000000 
00000b84 l       .debug_str	00000000 
00000b74 l       .debug_str	00000000 
00000b65 l       .debug_str	00000000 
00000b5f l       .debug_str	00000000 
00000b59 l       .debug_str	00000000 
00000b24 l       .debug_str	00000000 
00000af7 l       .debug_str	00000000 
00000af0 l       .debug_str	00000000 
00000ae9 l       .debug_str	00000000 
00000ae3 l       .debug_str	00000000 
00000ad9 l       .debug_str	00000000 
00000ad1 l       .debug_str	00000000 
00000ac9 l       .debug_str	00000000 
00000ac2 l       .debug_str	00000000 
00000ab9 l       .debug_str	00000000 
00000aad l       .debug_str	00000000 
00000aa2 l       .debug_str	00000000 
00000a99 l       .debug_str	00000000 
00000a8e l       .debug_str	00000000 
00000a84 l       .debug_str	00000000 
00000a7e l       .debug_str	00000000 
00000a7a l       .debug_str	00000000 
00000a64 l       .debug_str	00000000 
00000a5a l       .debug_str	00000000 
00000ee7 l       .debug_str	00000000 
00000a41 l       .debug_str	00000000 
00000a24 l       .debug_str	00000000 
00000a19 l       .debug_str	00000000 
000009bb l       .debug_str	00000000 
000009a1 l       .debug_str	00000000 
00000997 l       .debug_str	00000000 
0000097b l       .debug_str	00000000 
00000957 l       .debug_str	00000000 
00000940 l       .debug_str	00000000 
00000ed8 l       .debug_str	00000000 
00000ed3 l       .debug_str	00000000 
00000ecd l       .debug_str	00000000 
00000ec6 l       .debug_str	00000000 
00000ec0 l       .debug_str	00000000 
00000eb9 l       .debug_str	00000000 
00000eb1 l       .debug_str	00000000 
00000e8a l       .debug_str	00000000 
00000e85 l       .debug_str	00000000 
00000e83 l       .debug_str	00000000 
00000e7f l       .debug_str	00000000 
00000e78 l       .debug_str	00000000 
00000000 l       .debug_str	00000000 
00000041 l       .debug_str	00000000 
00000055 l       .debug_str	00000000 
00000076 l       .debug_str	00000000 
0000007a l       .debug_str	00000000 
00000087 l       .debug_str	00000000 
00000093 l       .debug_str	00000000 
0000009a l       .debug_str	00000000 
0000009e l       .debug_str	00000000 
000000a2 l       .debug_str	00000000 
000000a6 l       .debug_str	00000000 
000000ab l       .debug_str	00000000 
000000e2 l       .debug_str	00000000 
000000ee l       .debug_str	00000000 
000000f4 l       .debug_str	00000000 
0000012b l       .debug_str	00000000 
00000136 l       .debug_str	00000000 
0000013e l       .debug_str	00000000 
00000140 l       .debug_str	00000000 
00000144 l       .debug_str	00000000 
00000146 l       .debug_str	00000000 
0000014d l       .debug_str	00000000 
00000150 l       .debug_str	00000000 
00000157 l       .debug_str	00000000 
00000160 l       .debug_str	00000000 
00000165 l       .debug_str	00000000 
0000016f l       .debug_str	00000000 
00000183 l       .debug_str	00000000 
00000189 l       .debug_str	00000000 
00000193 l       .debug_str	00000000 
000001a2 l       .debug_str	00000000 
000001d8 l       .debug_str	00000000 
000001dc l       .debug_str	00000000 
0000020a l       .debug_str	00000000 
00000216 l       .debug_str	00000000 
0000021d l       .debug_str	00000000 
00000220 l       .debug_str	00000000 
0000022a l       .debug_str	00000000 
00000230 l       .debug_str	00000000 
00000235 l       .debug_str	00000000 
0000023c l       .debug_str	00000000 
00000240 l       .debug_str	00000000 
00000245 l       .debug_str	00000000 
00000267 l       .debug_str	00000000 
0000029f l       .debug_str	00000000 
000002a1 l       .debug_str	00000000 
000002a6 l       .debug_str	00000000 
000002aa l       .debug_str	00000000 
000002ea l       .debug_str	00000000 
000002f1 l       .debug_str	00000000 
000002f5 l       .debug_str	00000000 
00000300 l       .debug_str	00000000 
0000030b l       .debug_str	00000000 
00000312 l       .debug_str	00000000 
00000329 l       .debug_str	00000000 
00000331 l       .debug_str	00000000 
0000033b l       .debug_str	00000000 
00000352 l       .debug_str	00000000 
0000035b l       .debug_str	00000000 
00000392 l       .debug_str	00000000 
0000039b l       .debug_str	00000000 
0000039e l       .debug_str	00000000 
000003a6 l       .debug_str	00000000 
000003aa l       .debug_str	00000000 
000003b1 l       .debug_str	00000000 
000003b9 l       .debug_str	00000000 
000003cd l       .debug_str	00000000 
00000400 l       .debug_str	00000000 
0000040b l       .debug_str	00000000 
00000441 l       .debug_str	00000000 
00000448 l       .debug_str	00000000 
00000450 l       .debug_str	00000000 
0000045b l       .debug_str	00000000 
00000466 l       .debug_str	00000000 
00000473 l       .debug_str	00000000 
0000047e l       .debug_str	00000000 
00000486 l       .debug_str	00000000 
00000491 l       .debug_str	00000000 
0000049c l       .debug_str	00000000 
000004a6 l       .debug_str	00000000 
000004b1 l       .debug_str	00000000 
000004bc l       .debug_str	00000000 
000004c9 l       .debug_str	00000000 
000004d5 l       .debug_str	00000000 
000004e2 l       .debug_str	00000000 
000004f0 l       .debug_str	00000000 
000004fa l       .debug_str	00000000 
00000507 l       .debug_str	00000000 
00000513 l       .debug_str	00000000 
00000938 l       .debug_str	00000000 
0000051a l       .debug_str	00000000 
0000051d l       .debug_str	00000000 
00000522 l       .debug_str	00000000 
00000528 l       .debug_str	00000000 
0000052f l       .debug_str	00000000 
00000537 l       .debug_str	00000000 
00000541 l       .debug_str	00000000 
00000544 l       .debug_str	00000000 
00000548 l       .debug_str	00000000 
0000054f l       .debug_str	00000000 
0000058d l       .debug_str	00000000 
000005a0 l       .debug_str	00000000 
000005a3 l       .debug_str	00000000 
000005a5 l       .debug_str	00000000 
000005cd l       .debug_str	00000000 
00000610 l       .debug_str	00000000 
00000628 l       .debug_str	00000000 
00000668 l       .debug_str	00000000 
0000067d l       .debug_str	00000000 
000006b7 l       .debug_str	00000000 
000006c6 l       .debug_str	00000000 
00000705 l       .debug_str	00000000 
00000719 l       .debug_str	00000000 
0000071d l       .debug_str	00000000 
00000720 l       .debug_str	00000000 
00000729 l       .debug_str	00000000 
0000072e l       .debug_str	00000000 
00000738 l       .debug_str	00000000 
0000073d l       .debug_str	00000000 
00000743 l       .debug_str	00000000 
00000748 l       .debug_str	00000000 
0000074d l       .debug_str	00000000 
00000754 l       .debug_str	00000000 
0000075d l       .debug_str	00000000 
00000767 l       .debug_str	00000000 
0000076e l       .debug_str	00000000 
00000774 l       .debug_str	00000000 
00000779 l       .debug_str	00000000 
00000785 l       .debug_str	00000000 
0000078d l       .debug_str	00000000 
00000796 l       .debug_str	00000000 
0000079b l       .debug_str	00000000 
0000079e l       .debug_str	00000000 
000007a7 l       .debug_str	00000000 
000007ae l       .debug_str	00000000 
000007b3 l       .debug_str	00000000 
000007b8 l       .debug_str	00000000 
000007be l       .debug_str	00000000 
000007c4 l       .debug_str	00000000 
000007ce l       .debug_str	00000000 
000007d1 l       .debug_str	00000000 
000007d7 l       .debug_str	00000000 
000007e1 l       .debug_str	00000000 
000007e9 l       .debug_str	00000000 
000007ef l       .debug_str	00000000 
000007f5 l       .debug_str	00000000 
00000800 l       .debug_str	00000000 
00000809 l       .debug_str	00000000 
0000082c l       .debug_str	00000000 
0000084b l       .debug_str	00000000 
00000872 l       .debug_str	00000000 
00000877 l       .debug_str	00000000 
0000087d l       .debug_str	00000000 
00000883 l       .debug_str	00000000 
00000892 l       .debug_str	00000000 
00000899 l       .debug_str	00000000 
0000089d l       .debug_str	00000000 
000008a6 l       .debug_str	00000000 
000008ae l       .debug_str	00000000 
000008b5 l       .debug_str	00000000 
000008c1 l       .debug_str	00000000 
000008cd l       .debug_str	00000000 
000008e6 l       .debug_str	00000000 
000008eb l       .debug_str	00000000 
000008fc l       .debug_str	00000000 
00000906 l       .debug_str	00000000 
00000914 l       .debug_str	00000000 
00000918 l       .debug_str	00000000 
00000923 l       .debug_str	00000000 
0000092a l       .debug_str	00000000 
00000930 l       .debug_str	00000000 
00000934 l       .debug_str	00000000 
00000e6b l       .debug_str	00000000 
00000000 l     O .rodata..Lanon.1f622fce4c07219b5c98dab48e8797c6.0	00000012 .Lanon.1f622fce4c07219b5c98dab48e8797c6.0
00000000 l     O .rodata.cst4	00000004 .Lanon.1f622fce4c07219b5c98dab48e8797c6.1
00000000 l     O .rodata.cst8	00000008 .Lanon.1f622fce4c07219b5c98dab48e8797c6.10
00000000 l     O .rodata..Lanon.1f622fce4c07219b5c98dab48e8797c6.11	0000000e .Lanon.1f622fce4c07219b5c98dab48e8797c6.11
00000000 l     O .rodata..Lanon.1f622fce4c07219b5c98dab48e8797c6.12	00000010 .Lanon.1f622fce4c07219b5c98dab48e8797c6.12
00000000 l     O .rodata..Lanon.1f622fce4c07219b5c98dab48e8797c6.13	00000013 .Lanon.1f622fce4c07219b5c98dab48e8797c6.13
00000000 l     O .rodata..Lanon.1f622fce4c07219b5c98dab48e8797c6.14	00000010 .Lanon.1f622fce4c07219b5c98dab48e8797c6.14
00000000 l     O .rodata..Lanon.1f622fce4c07219b5c98dab48e8797c6.15	00000010 .Lanon.1f622fce4c07219b5c98dab48e8797c6.15
00000000 l     O .rodata..Lanon.1f622fce4c07219b5c98dab48e8797c6.16	00000010 .Lanon.1f622fce4c07219b5c98dab48e8797c6.16
00000000 l     O .rodata..Lanon.1f622fce4c07219b5c98dab48e8797c6.17	00000010 .Lanon.1f622fce4c07219b5c98dab48e8797c6.17
00000000 l     O .rodata..Lanon.1f622fce4c07219b5c98dab48e8797c6.18	00000010 .Lanon.1f622fce4c07219b5c98dab48e8797c6.18
00000000 l     O .rodata..Lanon.1f622fce4c07219b5c98dab48e8797c6.19	00000010 .Lanon.1f622fce4c07219b5c98dab48e8797c6.19
00000000 l     O .rodata..Lanon.1f622fce4c07219b5c98dab48e8797c6.20	00000010 .Lanon.1f622fce4c07219b5c98dab48e8797c6.20
00000000 l     O .rodata..Lanon.1f622fce4c07219b5c98dab48e8797c6.21	00000010 .Lanon.1f622fce4c07219b5c98dab48e8797c6.21
00000000 l     O .rodata..Lanon.1f622fce4c07219b5c98dab48e8797c6.22	00000010 .Lanon.1f622fce4c07219b5c98dab48e8797c6.22
00000000 l     O .rodata..Lanon.1f622fce4c07219b5c98dab48e8797c6.23	00000010 .Lanon.1f622fce4c07219b5c98dab48e8797c6.23
00000000 l     O .rodata..Lanon.1f622fce4c07219b5c98dab48e8797c6.24	00000010 .Lanon.1f622fce4c07219b5c98dab48e8797c6.24
00000000 l     O .rodata..Lanon.1f622fce4c07219b5c98dab48e8797c6.25	00000010 .Lanon.1f622fce4c07219b5c98dab48e8797c6.25
00000000 l     O .rodata..Lanon.1f622fce4c07219b5c98dab48e8797c6.26	00000010 .Lanon.1f622fce4c07219b5c98dab48e8797c6.26
00000000 l     O .rodata..Lanon.1f622fce4c07219b5c98dab48e8797c6.27	00000010 .Lanon.1f622fce4c07219b5c98dab48e8797c6.27
00000000 l     O .rodata..Lanon.1f622fce4c07219b5c98dab48e8797c6.28	00000010 .Lanon.1f622fce4c07219b5c98dab48e8797c6.28
00000000 l     O .rodata..Lanon.1f622fce4c07219b5c98dab48e8797c6.29	00000010 .Lanon.1f622fce4c07219b5c98dab48e8797c6.29
00000000 l     O .rodata..Lanon.1f622fce4c07219b5c98dab48e8797c6.30	00000010 .Lanon.1f622fce4c07219b5c98dab48e8797c6.30
00000000 l     O .rodata..Lanon.1f622fce4c07219b5c98dab48e8797c6.31	00000010 .Lanon.1f622fce4c07219b5c98dab48e8797c6.31
00000000 l     O .rodata..Lanon.1f622fce4c07219b5c98dab48e8797c6.32	00000010 .Lanon.1f622fce4c07219b5c98dab48e8797c6.32
00000000 l     O .rodata..Lanon.1f622fce4c07219b5c98dab48e8797c6.33	00000010 .Lanon.1f622fce4c07219b5c98dab48e8797c6.33
00000000 l     O .rodata..Lanon.1f622fce4c07219b5c98dab48e8797c6.34	00000010 .Lanon.1f622fce4c07219b5c98dab48e8797c6.34
00000000 l     O .rodata..Lanon.1f622fce4c07219b5c98dab48e8797c6.35	00000010 .Lanon.1f622fce4c07219b5c98dab48e8797c6.35
00000000 l     O .rodata..Lanon.1f622fce4c07219b5c98dab48e8797c6.36	00000010 .Lanon.1f622fce4c07219b5c98dab48e8797c6.36
00000000 l     O .rodata..Lanon.1f622fce4c07219b5c98dab48e8797c6.37	00000010 .Lanon.1f622fce4c07219b5c98dab48e8797c6.37
00000000 l     O .rodata..Lanon.1f622fce4c07219b5c98dab48e8797c6.38	00000010 .Lanon.1f622fce4c07219b5c98dab48e8797c6.38
00000000 l     O .rodata..Lanon.1f622fce4c07219b5c98dab48e8797c6.39	00000010 .Lanon.1f622fce4c07219b5c98dab48e8797c6.39
00000000 l     O .rodata..Lanon.1f622fce4c07219b5c98dab48e8797c6.40	00000010 .Lanon.1f622fce4c07219b5c98dab48e8797c6.40
00000000 l     O .rodata..Lanon.1f622fce4c07219b5c98dab48e8797c6.41	00000010 .Lanon.1f622fce4c07219b5c98dab48e8797c6.41
00000000 l     O .rodata..Lanon.1f622fce4c07219b5c98dab48e8797c6.42	00000010 .Lanon.1f622fce4c07219b5c98dab48e8797c6.42
00000000 l     O .rodata..Lanon.1f622fce4c07219b5c98dab48e8797c6.43	00000010 .Lanon.1f622fce4c07219b5c98dab48e8797c6.43
00000000 l     O .rodata..Lanon.1f622fce4c07219b5c98dab48e8797c6.44	00000010 .Lanon.1f622fce4c07219b5c98dab48e8797c6.44
00000000 l     O .rodata..Lanon.1f622fce4c07219b5c98dab48e8797c6.45	00000010 .Lanon.1f622fce4c07219b5c98dab48e8797c6.45
00000000 l     O .rodata..Lanon.1f622fce4c07219b5c98dab48e8797c6.46	00000010 .Lanon.1f622fce4c07219b5c98dab48e8797c6.46
00000000 l     O .rodata..Lanon.1f622fce4c07219b5c98dab48e8797c6.47	00000010 .Lanon.1f622fce4c07219b5c98dab48e8797c6.47
00000000 l     O .rodata..Lanon.1f622fce4c07219b5c98dab48e8797c6.48	00000010 .Lanon.1f622fce4c07219b5c98dab48e8797c6.48
00000000 l     O .rodata..Lanon.1f622fce4c07219b5c98dab48e8797c6.49	00000010 .Lanon.1f622fce4c07219b5c98dab48e8797c6.49
00000000 l     O .rodata..Lanon.1f622fce4c07219b5c98dab48e8797c6.5	00000018 .Lanon.1f622fce4c07219b5c98dab48e8797c6.5
00000000 l     O .rodata..Lanon.1f622fce4c07219b5c98dab48e8797c6.50	00000007 .Lanon.1f622fce4c07219b5c98dab48e8797c6.50
00000000 l     O .rodata..Lanon.1f622fce4c07219b5c98dab48e8797c6.51	00000010 .Lanon.1f622fce4c07219b5c98dab48e8797c6.51
00000000 l     O .rodata..Lanon.1f622fce4c07219b5c98dab48e8797c6.52	00000010 .Lanon.1f622fce4c07219b5c98dab48e8797c6.52
00000008 l     O .rodata.cst8	00000008 .Lanon.1f622fce4c07219b5c98dab48e8797c6.53
00000000 l     O .rodata..Lanon.1f622fce4c07219b5c98dab48e8797c6.54	00000010 .Lanon.1f622fce4c07219b5c98dab48e8797c6.54
00000000 l     O .rodata..Lanon.1f622fce4c07219b5c98dab48e8797c6.55	00000009 .Lanon.1f622fce4c07219b5c98dab48e8797c6.55
00000000 l     O .rodata..Lanon.1f622fce4c07219b5c98dab48e8797c6.7	00000008 .Lanon.1f622fce4c07219b5c98dab48e8797c6.7
00000000 l     O .rodata..Lanon.1f622fce4c07219b5c98dab48e8797c6.9	00000010 .Lanon.1f622fce4c07219b5c98dab48e8797c6.9
00000000 l     O .bss._ZN3app12touch_sensor10I2C_BUFFER17h3991c07213b1d64cE	00000001 _ZN3app12touch_sensor10I2C_BUFFER17h3991c07213b1d64cE
00000000 l     O .bss._ZN3app12touch_sensor10TOUCH_DATA17h9dc288d57708cf72E	00000052 _ZN3app12touch_sensor10TOUCH_DATA17h9dc288d57708cf72E
00000000 l     O .bss._ZN3app12touch_sensor11TOUCH_DELAY17hcf883f4b568dd524E	00000000 _ZN3app12touch_sensor11TOUCH_DELAY17hcf883f4b568dd524E
00000000 l     O .bss._ZN3app12touch_sensor11TOUCH_EVENT17heb8b87356b68e6c4E	00000010 _ZN3app12touch_sensor11TOUCH_EVENT17heb8b87356b68e6c4E
00000000 l     O .bss._ZN3app12touch_sensor11TOUCH_RESET17h00656c930b33827aE	00000004 _ZN3app12touch_sensor11TOUCH_RESET17h00656c930b33827aE
00000000 l     F .text._ZN3app12touch_sensor14read_touchdata17h22f38f3ba6d0e0f1E	00000786 _ZN3app12touch_sensor14read_touchdata17h22f38f3ba6d0e0f1E
00000000 l     F .text._ZN3app12touch_sensor19read_register_range17hab14c31f3ed3e51dE	000001ce _ZN3app12touch_sensor19read_register_range17hab14c31f3ed3e51dE
00000000 l     F .text._ZN3app12touch_sensor20touch_event_callback17hf497039fcb26522dE	0000013e _ZN3app12touch_sensor20touch_event_callback17hf497039fcb26522dE
00000000 l     F .text._ZN3app12touch_sensor23touch_interrupt_handler17h94d76a182a506e4fE	00000046 _ZN3app12touch_sensor23touch_interrupt_handler17h94d76a182a506e4fE
00000000 l     O .bss._ZN3app12touch_sensor3BUF17h1a933cabf672187eE	0000003f _ZN3app12touch_sensor3BUF17h1a933cabf672187eE
00000000 l     O .bss._ZN3app12touch_sensor8I2C_DATA17h48c58619d67a9edeE	00000008 _ZN3app12touch_sensor8I2C_DATA17h48c58619d67a9edeE
00000000 l     O .rodata.str.0	00000021 str.0
00000000 l     O .rodata.str.1	0000001c str.1
00000000 l    d  .text._ZN3app12touch_sensor18start_touch_sensor17h3d8dc1fd2b45e25fE	00000000 .text._ZN3app12touch_sensor18start_touch_sensor17h3d8dc1fd2b45e25fE
00000000 l    d  .text._ZN3app12touch_sensor23touch_interrupt_handler17h94d76a182a506e4fE	00000000 .text._ZN3app12touch_sensor23touch_interrupt_handler17h94d76a182a506e4fE
00000000 l    d  .text._ZN3app12touch_sensor20touch_event_callback17hf497039fcb26522dE	00000000 .text._ZN3app12touch_sensor20touch_event_callback17hf497039fcb26522dE
00000000 l    d  .text._ZN3app12touch_sensor14read_touchdata17h22f38f3ba6d0e0f1E	00000000 .text._ZN3app12touch_sensor14read_touchdata17h22f38f3ba6d0e0f1E
00000000 l    d  .text._ZN3app12touch_sensor19read_register_range17hab14c31f3ed3e51dE	00000000 .text._ZN3app12touch_sensor19read_register_range17hab14c31f3ed3e51dE
00000000 l    d  .bss._ZN3app12touch_sensor11TOUCH_RESET17h00656c930b33827aE	00000000 .bss._ZN3app12touch_sensor11TOUCH_RESET17h00656c930b33827aE
00000000 l    d  .bss._ZN3app12touch_sensor11TOUCH_DELAY17hcf883f4b568dd524E	00000000 .bss._ZN3app12touch_sensor11TOUCH_DELAY17hcf883f4b568dd524E
00000000 l    d  .rodata..Lanon.1f622fce4c07219b5c98dab48e8797c6.2	00000000 .rodata..Lanon.1f622fce4c07219b5c98dab48e8797c6.2
00000000 l    d  .rodata..Lanon.1f622fce4c07219b5c98dab48e8797c6.3	00000000 .rodata..Lanon.1f622fce4c07219b5c98dab48e8797c6.3
00000000 l    d  .rodata..Lanon.1f622fce4c07219b5c98dab48e8797c6.4	00000000 .rodata..Lanon.1f622fce4c07219b5c98dab48e8797c6.4
00000000 l    d  .rodata..Lanon.1f622fce4c07219b5c98dab48e8797c6.6	00000000 .rodata..Lanon.1f622fce4c07219b5c98dab48e8797c6.6
00000000 l    d  .rodata..Lanon.1f622fce4c07219b5c98dab48e8797c6.8	00000000 .rodata..Lanon.1f622fce4c07219b5c98dab48e8797c6.8
00000000 l    d  .bss._ZN3app12touch_sensor10TOUCH_DATA17h9dc288d57708cf72E	00000000 .bss._ZN3app12touch_sensor10TOUCH_DATA17h9dc288d57708cf72E
00000000 l    d  .bss._ZN3app12touch_sensor3BUF17h1a933cabf672187eE	00000000 .bss._ZN3app12touch_sensor3BUF17h1a933cabf672187eE
00000000 l    d  .bss._ZN3app12touch_sensor11TOUCH_EVENT17heb8b87356b68e6c4E	00000000 .bss._ZN3app12touch_sensor11TOUCH_EVENT17heb8b87356b68e6c4E
00000000 l    d  .bss._ZN3app12touch_sensor8I2C_DATA17h48c58619d67a9edeE	00000000 .bss._ZN3app12touch_sensor8I2C_DATA17h48c58619d67a9edeE
00000000 l    d  .bss._ZN3app12touch_sensor10I2C_BUFFER17h3991c07213b1d64cE	00000000 .bss._ZN3app12touch_sensor10I2C_BUFFER17h3991c07213b1d64cE
00000000 l    d  .debug_abbrev	00000000 .debug_abbrev
00000000 l    d  .debug_info	00000000 .debug_info
00000000 l    d  .debug_ranges	00000000 .debug_ranges
00000000 l    d  .debug_frame	00000000 .debug_frame
00000000 l    d  .debug_line	00000000 .debug_line
00000000 g     F .text._ZN3app12touch_sensor18start_touch_sensor17h3d8dc1fd2b45e25fE	0000025c .hidden _ZN3app12touch_sensor18start_touch_sensor17h3d8dc1fd2b45e25fE
00000000         *UND*	00000000 _ZN42_$LT$$RF$T$u20$as$u20$core..fmt..Debug$GT$3fmt17h99fe87e29e0ddda6E
00000000         *UND*	00000000 _ZN4core3fmt10ArgumentV13new17hbe31e28f1cdd47f4E
00000000         *UND*	00000000 _ZN4core3fmt10ArgumentV13new17he001e445063309a0E
00000000         *UND*	00000000 .hidden _ZN4core3fmt9Arguments6new_v117hefd36d1711380f3fE
00000000         *UND*	00000000 _ZN4core4iter5range101_$LT$impl$u20$core..iter..traits..iterator..Iterator$u20$for$u20$core..ops..range..Range$LT$A$GT$$GT$4next17hda1669884e24d041E
00000000         *UND*	00000000 _ZN4core5slice29_$LT$impl$u20$$u5b$T$u5d$$GT$10as_mut_ptr17hf1859ba8f68f8b38E
00000000         *UND*	00000000 _ZN4core5slice29_$LT$impl$u20$$u5b$T$u5d$$GT$3len17h1404ef225eaa1428E
00000000         *UND*	00000000 _ZN4core6result19Result$LT$T$C$E$GT$6expect17h50d1225635790102E
00000000         *UND*	00000000 _ZN4core6result19Result$LT$T$C$E$GT$6expect17h936ca8543ae6c861E
00000000         *UND*	00000000 _ZN4core9panicking18panic_bounds_check17hefada55beeee1c8fE
00000000         *UND*	00000000 _ZN4core9panicking5panic17hfdd0eecc44a682f8E
00000000         *UND*	00000000 _ZN4core9panicking9panic_fmt17h43d9d9156d2a3f54E
00000000         *UND*	00000000 _ZN50_$LT$T$u20$as$u20$core..convert..From$LT$T$GT$$GT$4from17h822823d2a0a46874E
00000000         *UND*	00000000 _ZN59_$LT$core..fmt..Arguments$u20$as$u20$core..fmt..Display$GT$3fmt17h99d4117dd4a31a31E
00000000         *UND*	00000000 _ZN5druid11win_handler12handle_touch17h55e36ababeedab1aE
00000000         *UND*	00000000 _ZN63_$LT$I$u20$as$u20$core..iter..traits..collect..IntoIterator$GT$9into_iter17hedb94fd918ce15b4E
00000000         *UND*	00000000 _ZN6mynewt3hal4GPIO4init17h3a1c2d67ea487920E
00000000         *UND*	00000000 _ZN6mynewt3sys7console5print17h4f6750301ba25348E
00000000         *UND*	00000000 _ZN6mynewt6kernel2os15eventq_dflt_get17h56b5489811f70784E
00000000         *UND*	00000000 _ZN73_$LT$core..result..Result$LT$T$C$E$GT$$u20$as$u20$core..ops..try..Try$GT$10from_error17h4540fe4264433162E
00000000         *UND*	00000000 _ZN73_$LT$core..result..Result$LT$T$C$E$GT$$u20$as$u20$core..ops..try..Try$GT$11into_result17h881fe970f2677aa0E
00000000         *UND*	00000000 _ZN74_$LT$mynewt..hal..GPIO$u20$as$u20$embedded_hal..digital..v2..OutputPin$GT$7set_low17h6c182ad8a2c5b6dbE
00000000         *UND*	00000000 _ZN74_$LT$mynewt..hal..GPIO$u20$as$u20$embedded_hal..digital..v2..OutputPin$GT$8set_high17hc70c22dc151886d4E
00000000         *UND*	00000000 _ZN87_$LT$mynewt..hal..Delay$u20$as$u20$embedded_hal..blocking..delay..DelayMs$LT$u8$GT$$GT$8delay_ms17ha0749702591ed34eE
00000000         *UND*	00000000 __aeabi_memclr
00000000         *UND*	00000000 __aeabi_memcpy
00000000         *UND*	00000000 hal_gpio_irq_enable
00000000         *UND*	00000000 hal_gpio_irq_init
00000000         *UND*	00000000 hal_i2c_master_read
00000000         *UND*	00000000 hal_i2c_master_write
00000000         *UND*	00000000 os_eventq_put



Disassembly of section .text._ZN3app12touch_sensor18start_touch_sensor17h3d8dc1fd2b45e25fE:

00000000 <_ZN3app12touch_sensor18start_touch_sensor17h3d8dc1fd2b45e25fE>:
_ZN3app12touch_sensor18start_touch_sensor17h3d8dc1fd2b45e25fE():
c:\PineTime\pinetime-rust-mynewt/rust\app\src/touch_sensor.rs:39
/// ```rust
/// let peripherals = nrf52::Peripherals::take().unwrap();
/// let nfcpins = peripherals.UICR.nfcpins.read().bits();
/// console::print("nfcpins = "); console::printhex(nfcpins as u8); console::print("\n");
/// ```
pub fn start_touch_sensor() -> MynewtResult<()> {
   0:	b5b0      	push	{r4, r5, r7, lr}
   2:	b0bc      	sub	sp, #240	; 0xf0
c:\PineTime\pinetime-rust-mynewt/rust\app\src/touch_sensor.rs:40
    console::print("Rust touch sensor\n");
   4:	f240 0000 	movw	r0, #0
   8:	f2c0 0000 	movt	r0, #0
   c:	2112      	movs	r1, #18
   e:	f7ff fffe 	bl	0 <_ZN6mynewt3sys7console5print17h4f6750301ba25348E>
  12:	e7ff      	b.n	2 <_ZN3app12touch_sensor18start_touch_sensor17h3d8dc1fd2b45e25fE+0x2>
c:\PineTime\pinetime-rust-mynewt/rust\app\src/touch_sensor.rs:43

    //  Init GPIO for the Reset Pin
    unsafe { TOUCH_RESET.init(TOUCH_RESET_PIN) ? };
  14:	f240 0000 	movw	r0, #0
  18:	f2c0 0000 	movt	r0, #0
  1c:	210a      	movs	r1, #10
  1e:	f7ff fffe 	bl	0 <_ZN6mynewt3hal4GPIO4init17h3a1c2d67ea487920E>
  22:	900e      	str	r0, [sp, #56]	; 0x38
  24:	e7ff      	b.n	26 <_ZN3app12touch_sensor18start_touch_sensor17h3d8dc1fd2b45e25fE+0x26>
  26:	980e      	ldr	r0, [sp, #56]	; 0x38
  28:	f7ff fffe 	bl	0 <_ZN73_$LT$core..result..Result$LT$T$C$E$GT$$u20$as$u20$core..ops..try..Try$GT$11into_result17h881fe970f2677aa0E>
  2c:	9010      	str	r0, [sp, #64]	; 0x40
  2e:	e7ff      	b.n	30 <_ZN3app12touch_sensor18start_touch_sensor17h3d8dc1fd2b45e25fE+0x30>
  30:	9810      	ldr	r0, [sp, #64]	; 0x40
  32:	1e41      	subs	r1, r0, #1
  34:	bf18      	it	ne
  36:	2101      	movne	r1, #1
  38:	2801      	cmp	r0, #1
  3a:	d012      	beq.n	62 <_ZN3app12touch_sensor18start_touch_sensor17h3d8dc1fd2b45e25fE+0x62>
  3c:	e7ff      	b.n	3e <_ZN3app12touch_sensor18start_touch_sensor17h3d8dc1fd2b45e25fE+0x3e>
  3e:	e000      	b.n	42 <_ZN3app12touch_sensor18start_touch_sensor17h3d8dc1fd2b45e25fE+0x42>
  40:	defe      	udf	#254	; 0xfe
  42:	9810      	ldr	r0, [sp, #64]	; 0x40
  44:	9011      	str	r0, [sp, #68]	; 0x44
  46:	9811      	ldr	r0, [sp, #68]	; 0x44
  48:	f7ff fffe 	bl	0 <_ZN50_$LT$T$u20$as$u20$core..convert..From$LT$T$GT$$GT$4from17h822823d2a0a46874E>
  4c:	900d      	str	r0, [sp, #52]	; 0x34
  4e:	e002      	b.n	56 <_ZN3app12touch_sensor18start_touch_sensor17h3d8dc1fd2b45e25fE+0x56>
c:\PineTime\pinetime-rust-mynewt/rust\app\src/touch_sensor.rs:69
    assert_eq!(rc, 0, "IRQ init fail");

    //  Start monitoring for touch controller interrupts
    unsafe { hal::hal_gpio_irq_enable(TOUCH_INTERRUPT_PIN) };
    Ok(())
}
  50:	980f      	ldr	r0, [sp, #60]	; 0x3c
  52:	b03c      	add	sp, #240	; 0xf0
  54:	bdb0      	pop	{r4, r5, r7, pc}
c:\PineTime\pinetime-rust-mynewt/rust\app\src/touch_sensor.rs:43
    unsafe { TOUCH_RESET.init(TOUCH_RESET_PIN) ? };
  56:	980d      	ldr	r0, [sp, #52]	; 0x34
  58:	f7ff fffe 	bl	0 <_ZN73_$LT$core..result..Result$LT$T$C$E$GT$$u20$as$u20$core..ops..try..Try$GT$10from_error17h4540fe4264433162E>
  5c:	900f      	str	r0, [sp, #60]	; 0x3c
  5e:	e7ff      	b.n	60 <_ZN3app12touch_sensor18start_touch_sensor17h3d8dc1fd2b45e25fE+0x60>
  60:	e7f6      	b.n	50 <_ZN3app12touch_sensor18start_touch_sensor17h3d8dc1fd2b45e25fE+0x50>
c:\PineTime\pinetime-rust-mynewt/rust\app\src/touch_sensor.rs:47
        TOUCH_RESET.set_low() ? ;
  62:	f240 0000 	movw	r0, #0
  66:	f2c0 0000 	movt	r0, #0
  6a:	f7ff fffe 	bl	0 <_ZN74_$LT$mynewt..hal..GPIO$u20$as$u20$embedded_hal..digital..v2..OutputPin$GT$7set_low17h6c182ad8a2c5b6dbE>
  6e:	900c      	str	r0, [sp, #48]	; 0x30
  70:	e7ff      	b.n	72 <_ZN3app12touch_sensor18start_touch_sensor17h3d8dc1fd2b45e25fE+0x72>
  72:	980c      	ldr	r0, [sp, #48]	; 0x30
  74:	f7ff fffe 	bl	0 <_ZN73_$LT$core..result..Result$LT$T$C$E$GT$$u20$as$u20$core..ops..try..Try$GT$11into_result17h881fe970f2677aa0E>
  78:	9013      	str	r0, [sp, #76]	; 0x4c
  7a:	e7ff      	b.n	7c <_ZN3app12touch_sensor18start_touch_sensor17h3d8dc1fd2b45e25fE+0x7c>
  7c:	9813      	ldr	r0, [sp, #76]	; 0x4c
  7e:	1e41      	subs	r1, r0, #1
  80:	bf18      	it	ne
  82:	2101      	movne	r1, #1
  84:	2801      	cmp	r0, #1
  86:	d010      	beq.n	aa <_ZN3app12touch_sensor18start_touch_sensor17h3d8dc1fd2b45e25fE+0xaa>
  88:	e7ff      	b.n	8a <_ZN3app12touch_sensor18start_touch_sensor17h3d8dc1fd2b45e25fE+0x8a>
  8a:	e000      	b.n	8e <_ZN3app12touch_sensor18start_touch_sensor17h3d8dc1fd2b45e25fE+0x8e>
  8c:	defe      	udf	#254	; 0xfe
  8e:	9813      	ldr	r0, [sp, #76]	; 0x4c
  90:	9014      	str	r0, [sp, #80]	; 0x50
  92:	9814      	ldr	r0, [sp, #80]	; 0x50
  94:	f7ff fffe 	bl	0 <_ZN50_$LT$T$u20$as$u20$core..convert..From$LT$T$GT$$GT$4from17h822823d2a0a46874E>
  98:	900b      	str	r0, [sp, #44]	; 0x2c
  9a:	e7ff      	b.n	9c <_ZN3app12touch_sensor18start_touch_sensor17h3d8dc1fd2b45e25fE+0x9c>
  9c:	980b      	ldr	r0, [sp, #44]	; 0x2c
  9e:	f7ff fffe 	bl	0 <_ZN73_$LT$core..result..Result$LT$T$C$E$GT$$u20$as$u20$core..ops..try..Try$GT$10from_error17h4540fe4264433162E>
  a2:	900f      	str	r0, [sp, #60]	; 0x3c
  a4:	e7ff      	b.n	a6 <_ZN3app12touch_sensor18start_touch_sensor17h3d8dc1fd2b45e25fE+0xa6>
  a6:	e7ff      	b.n	a8 <_ZN3app12touch_sensor18start_touch_sensor17h3d8dc1fd2b45e25fE+0xa8>
  a8:	e7d2      	b.n	50 <_ZN3app12touch_sensor18start_touch_sensor17h3d8dc1fd2b45e25fE+0x50>
c:\PineTime\pinetime-rust-mynewt/rust\app\src/touch_sensor.rs:48
        TOUCH_DELAY.delay_ms(20);
  aa:	f240 0000 	movw	r0, #0
  ae:	f2c0 0000 	movt	r0, #0
  b2:	2114      	movs	r1, #20
  b4:	f7ff fffe 	bl	0 <_ZN87_$LT$mynewt..hal..Delay$u20$as$u20$embedded_hal..blocking..delay..DelayMs$LT$u8$GT$$GT$8delay_ms17ha0749702591ed34eE>
  b8:	e7ff      	b.n	2 <_ZN3app12touch_sensor18start_touch_sensor17h3d8dc1fd2b45e25fE+0x2>
c:\PineTime\pinetime-rust-mynewt/rust\app\src/touch_sensor.rs:49
        TOUCH_RESET.set_high() ? ;
  ba:	f240 0000 	movw	r0, #0
  be:	f2c0 0000 	movt	r0, #0
  c2:	f7ff fffe 	bl	0 <_ZN74_$LT$mynewt..hal..GPIO$u20$as$u20$embedded_hal..digital..v2..OutputPin$GT$8set_high17hc70c22dc151886d4E>
  c6:	900a      	str	r0, [sp, #40]	; 0x28
  c8:	e7ff      	b.n	ca <_ZN3app12touch_sensor18start_touch_sensor17h3d8dc1fd2b45e25fE+0xca>
  ca:	980a      	ldr	r0, [sp, #40]	; 0x28
  cc:	f7ff fffe 	bl	0 <_ZN73_$LT$core..result..Result$LT$T$C$E$GT$$u20$as$u20$core..ops..try..Try$GT$11into_result17h881fe970f2677aa0E>
  d0:	9016      	str	r0, [sp, #88]	; 0x58
  d2:	e7ff      	b.n	d4 <_ZN3app12touch_sensor18start_touch_sensor17h3d8dc1fd2b45e25fE+0xd4>
  d4:	9816      	ldr	r0, [sp, #88]	; 0x58
  d6:	1e41      	subs	r1, r0, #1
  d8:	bf18      	it	ne
  da:	2101      	movne	r1, #1
  dc:	2801      	cmp	r0, #1
  de:	d00f      	beq.n	100 <_ZN3app12touch_sensor18start_touch_sensor17h3d8dc1fd2b45e25fE+0x100>
  e0:	e7ff      	b.n	e2 <_ZN3app12touch_sensor18start_touch_sensor17h3d8dc1fd2b45e25fE+0xe2>
  e2:	e000      	b.n	e6 <_ZN3app12touch_sensor18start_touch_sensor17h3d8dc1fd2b45e25fE+0xe6>
  e4:	defe      	udf	#254	; 0xfe
  e6:	9816      	ldr	r0, [sp, #88]	; 0x58
  e8:	9017      	str	r0, [sp, #92]	; 0x5c
  ea:	9817      	ldr	r0, [sp, #92]	; 0x5c
  ec:	f7ff fffe 	bl	0 <_ZN50_$LT$T$u20$as$u20$core..convert..From$LT$T$GT$$GT$4from17h822823d2a0a46874E>
  f0:	9009      	str	r0, [sp, #36]	; 0x24
  f2:	e7ff      	b.n	f4 <_ZN3app12touch_sensor18start_touch_sensor17h3d8dc1fd2b45e25fE+0xf4>
  f4:	9809      	ldr	r0, [sp, #36]	; 0x24
  f6:	f7ff fffe 	bl	0 <_ZN73_$LT$core..result..Result$LT$T$C$E$GT$$u20$as$u20$core..ops..try..Try$GT$10from_error17h4540fe4264433162E>
  fa:	900f      	str	r0, [sp, #60]	; 0x3c
  fc:	e7ff      	b.n	fe <_ZN3app12touch_sensor18start_touch_sensor17h3d8dc1fd2b45e25fE+0xfe>
  fe:	e7d3      	b.n	a8 <_ZN3app12touch_sensor18start_touch_sensor17h3d8dc1fd2b45e25fE+0xa8>
c:\PineTime\pinetime-rust-mynewt/rust\app\src/touch_sensor.rs:50
        TOUCH_DELAY.delay_ms(200); TOUCH_DELAY.delay_ms(200);    
 100:	f240 0000 	movw	r0, #0
 104:	f2c0 0000 	movt	r0, #0
 108:	21c8      	movs	r1, #200	; 0xc8
 10a:	f7ff fffe 	bl	0 <_ZN87_$LT$mynewt..hal..Delay$u20$as$u20$embedded_hal..blocking..delay..DelayMs$LT$u8$GT$$GT$8delay_ms17ha0749702591ed34eE>
 10e:	e7ff      	b.n	2 <_ZN3app12touch_sensor18start_touch_sensor17h3d8dc1fd2b45e25fE+0x2>
 110:	f240 0000 	movw	r0, #0
 114:	f2c0 0000 	movt	r0, #0
 118:	21c8      	movs	r1, #200	; 0xc8
 11a:	f7ff fffe 	bl	0 <_ZN87_$LT$mynewt..hal..Delay$u20$as$u20$embedded_hal..blocking..delay..DelayMs$LT$u8$GT$$GT$8delay_ms17ha0749702591ed34eE>
 11e:	e7ff      	b.n	2 <_ZN3app12touch_sensor18start_touch_sensor17h3d8dc1fd2b45e25fE+0x2>
c:\PineTime\pinetime-rust-mynewt/rust\app\src/touch_sensor.rs:54
    unsafe { TOUCH_EVENT.ev_cb = Some( touch_event_callback ) };
 120:	f240 0000 	movw	r0, #0
 124:	f2c0 0000 	movt	r0, #0
 128:	9019      	str	r0, [sp, #100]	; 0x64
 12a:	f240 0000 	movw	r0, #0
 12e:	f2c0 0000 	movt	r0, #0
 132:	901a      	str	r0, [sp, #104]	; 0x68
 134:	981a      	ldr	r0, [sp, #104]	; 0x68
 136:	9919      	ldr	r1, [sp, #100]	; 0x64
 138:	6041      	str	r1, [r0, #4]
c:\PineTime\pinetime-rust-mynewt/rust\app\src/touch_sensor.rs:59
        Some( touch_interrupt_handler ),  //  Call `touch_interrupt_handler()` upon detecting interrupt
 13a:	f240 0000 	movw	r0, #0
 13e:	f2c0 0000 	movt	r0, #0
 142:	901c      	str	r0, [sp, #112]	; 0x70
c:\PineTime\pinetime-rust-mynewt/rust\app\src/touch_sensor.rs:60
        core::ptr::null_mut(),            //  No arguments for `touch_interrupt_handler()`
 144:	e7ff      	b.n	146 <_ZN3app12touch_sensor18start_touch_sensor17h3d8dc1fd2b45e25fE+0x146>
c:\PineTime\pinetime-rust-mynewt/rust\app\src/touch_sensor.rs:57
    let rc = unsafe { hal::hal_gpio_irq_init(
 146:	991c      	ldr	r1, [sp, #112]	; 0x70
 148:	4668      	mov	r0, sp
 14a:	2201      	movs	r2, #1
 14c:	6002      	str	r2, [r0, #0]
 14e:	201c      	movs	r0, #28
 150:	2200      	movs	r2, #0
 152:	2302      	movs	r3, #2
 154:	f7ff fffe 	bl	0 <hal_gpio_irq_init>
 158:	901b      	str	r0, [sp, #108]	; 0x6c
 15a:	e7ff      	b.n	15c <_ZN3app12touch_sensor18start_touch_sensor17h3d8dc1fd2b45e25fE+0x15c>
 15c:	a81b      	add	r0, sp, #108	; 0x6c
c:\PineTime\pinetime-rust-mynewt/rust\app\src/touch_sensor.rs:64
    assert_eq!(rc, 0, "IRQ init fail");
 15e:	901d      	str	r0, [sp, #116]	; 0x74
 160:	f240 0000 	movw	r0, #0
 164:	f2c0 0000 	movt	r0, #0
 168:	901e      	str	r0, [sp, #120]	; 0x78
 16a:	981d      	ldr	r0, [sp, #116]	; 0x74
 16c:	901f      	str	r0, [sp, #124]	; 0x7c
 16e:	981e      	ldr	r0, [sp, #120]	; 0x78
 170:	9020      	str	r0, [sp, #128]	; 0x80
 172:	981f      	ldr	r0, [sp, #124]	; 0x7c
 174:	6800      	ldr	r0, [r0, #0]
 176:	9920      	ldr	r1, [sp, #128]	; 0x80
 178:	6809      	ldr	r1, [r1, #0]
 17a:	4288      	cmp	r0, r1
 17c:	d104      	bne.n	188 <_ZN3app12touch_sensor18start_touch_sensor17h3d8dc1fd2b45e25fE+0x188>
 17e:	e7ff      	b.n	180 <_ZN3app12touch_sensor18start_touch_sensor17h3d8dc1fd2b45e25fE+0x180>
 180:	201c      	movs	r0, #28
c:\PineTime\pinetime-rust-mynewt/rust\app\src/touch_sensor.rs:67
    unsafe { hal::hal_gpio_irq_enable(TOUCH_INTERRUPT_PIN) };
 182:	f7ff fffe 	bl	0 <hal_gpio_irq_enable>
 186:	e064      	b.n	252 <_ZN3app12touch_sensor18start_touch_sensor17h3d8dc1fd2b45e25fE+0x252>
c:\PineTime\pinetime-rust-mynewt/rust\app\src/touch_sensor.rs:64
    assert_eq!(rc, 0, "IRQ init fail");
 188:	981f      	ldr	r0, [sp, #124]	; 0x7c
 18a:	9030      	str	r0, [sp, #192]	; 0xc0
 18c:	9820      	ldr	r0, [sp, #128]	; 0x80
 18e:	9031      	str	r0, [sp, #196]	; 0xc4
 190:	4668      	mov	r0, sp
 192:	2100      	movs	r1, #0
 194:	6001      	str	r1, [r0, #0]
 196:	f240 0100 	movw	r1, #0
 19a:	f2c0 0100 	movt	r1, #0
 19e:	a832      	add	r0, sp, #200	; 0xc8
 1a0:	2201      	movs	r2, #1
 1a2:	2304      	movs	r3, #4
 1a4:	f7ff fffe 	bl	0 <_ZN4core3fmt9Arguments6new_v117hefd36d1711380f3fE>
 1a8:	e7ff      	b.n	1aa <_ZN3app12touch_sensor18start_touch_sensor17h3d8dc1fd2b45e25fE+0x1aa>
 1aa:	a830      	add	r0, sp, #192	; 0xc0
 1ac:	902d      	str	r0, [sp, #180]	; 0xb4
 1ae:	a831      	add	r0, sp, #196	; 0xc4
 1b0:	902e      	str	r0, [sp, #184]	; 0xb8
 1b2:	a832      	add	r0, sp, #200	; 0xc8
 1b4:	902f      	str	r0, [sp, #188]	; 0xbc
 1b6:	982d      	ldr	r0, [sp, #180]	; 0xb4
 1b8:	9038      	str	r0, [sp, #224]	; 0xe0
 1ba:	982e      	ldr	r0, [sp, #184]	; 0xb8
 1bc:	9039      	str	r0, [sp, #228]	; 0xe4
 1be:	982f      	ldr	r0, [sp, #188]	; 0xbc
 1c0:	903a      	str	r0, [sp, #232]	; 0xe8
 1c2:	9838      	ldr	r0, [sp, #224]	; 0xe0
 1c4:	f240 0100 	movw	r1, #0
 1c8:	f2c0 0100 	movt	r1, #0
 1cc:	f7ff fffe 	bl	0 <_ZN4core3fmt10ArgumentV13new17hbe31e28f1cdd47f4E>
 1d0:	9008      	str	r0, [sp, #32]
 1d2:	9107      	str	r1, [sp, #28]
 1d4:	e7ff      	b.n	1d6 <_ZN3app12touch_sensor18start_touch_sensor17h3d8dc1fd2b45e25fE+0x1d6>
 1d6:	9839      	ldr	r0, [sp, #228]	; 0xe4
 1d8:	f240 0100 	movw	r1, #0
 1dc:	f2c0 0100 	movt	r1, #0
 1e0:	f7ff fffe 	bl	0 <_ZN4core3fmt10ArgumentV13new17hbe31e28f1cdd47f4E>
 1e4:	9006      	str	r0, [sp, #24]
 1e6:	9105      	str	r1, [sp, #20]
 1e8:	e7ff      	b.n	1ea <_ZN3app12touch_sensor18start_touch_sensor17h3d8dc1fd2b45e25fE+0x1ea>
 1ea:	983a      	ldr	r0, [sp, #232]	; 0xe8
 1ec:	f240 0100 	movw	r1, #0
 1f0:	f2c0 0100 	movt	r1, #0
 1f4:	f7ff fffe 	bl	0 <_ZN4core3fmt10ArgumentV13new17he001e445063309a0E>
 1f8:	9004      	str	r0, [sp, #16]
 1fa:	9103      	str	r1, [sp, #12]
 1fc:	e7ff      	b.n	1fe <_ZN3app12touch_sensor18start_touch_sensor17h3d8dc1fd2b45e25fE+0x1fe>
 1fe:	9808      	ldr	r0, [sp, #32]
 200:	9027      	str	r0, [sp, #156]	; 0x9c
 202:	9907      	ldr	r1, [sp, #28]
 204:	9128      	str	r1, [sp, #160]	; 0xa0
 206:	9a06      	ldr	r2, [sp, #24]
 208:	9229      	str	r2, [sp, #164]	; 0xa4
 20a:	9b05      	ldr	r3, [sp, #20]
 20c:	932a      	str	r3, [sp, #168]	; 0xa8
 20e:	f8dd c010 	ldr.w	ip, [sp, #16]
 212:	f8cd c0ac 	str.w	ip, [sp, #172]	; 0xac
 216:	f8dd e00c 	ldr.w	lr, [sp, #12]
 21a:	f8cd e0b0 	str.w	lr, [sp, #176]	; 0xb0
 21e:	466c      	mov	r4, sp
 220:	2503      	movs	r5, #3
 222:	6025      	str	r5, [r4, #0]
 224:	f240 0100 	movw	r1, #0
 228:	f2c0 0100 	movt	r1, #0
 22c:	a821      	add	r0, sp, #132	; 0x84
 22e:	ab27      	add	r3, sp, #156	; 0x9c
 230:	462a      	mov	r2, r5
 232:	f7ff fffe 	bl	0 <_ZN4core3fmt9Arguments6new_v117hefd36d1711380f3fE>
 236:	e7ff      	b.n	2 <_ZN3app12touch_sensor18start_touch_sensor17h3d8dc1fd2b45e25fE+0x2>
 238:	f240 0000 	movw	r0, #0
 23c:	f2c0 0000 	movt	r0, #0
 240:	903b      	str	r0, [sp, #236]	; 0xec
 242:	993b      	ldr	r1, [sp, #236]	; 0xec
 244:	9102      	str	r1, [sp, #8]
 246:	e7ff      	b.n	248 <_ZN3app12touch_sensor18start_touch_sensor17h3d8dc1fd2b45e25fE+0x248>
 248:	a821      	add	r0, sp, #132	; 0x84
 24a:	9902      	ldr	r1, [sp, #8]
 24c:	f7ff fffe 	bl	0 <_ZN4core9panicking9panic_fmt17h43d9d9156d2a3f54E>
 250:	defe      	udf	#254	; 0xfe
 252:	2000      	movs	r0, #0
c:\PineTime\pinetime-rust-mynewt/rust\app\src/touch_sensor.rs:68
    Ok(())
 254:	900f      	str	r0, [sp, #60]	; 0x3c
 256:	2001      	movs	r0, #1
 258:	900f      	str	r0, [sp, #60]	; 0x3c
c:\PineTime\pinetime-rust-mynewt/rust\app\src/touch_sensor.rs:69
}
 25a:	e6f9      	b.n	50 <_ZN3app12touch_sensor18start_touch_sensor17h3d8dc1fd2b45e25fE+0x50>

Disassembly of section .text._ZN3app12touch_sensor23touch_interrupt_handler17h94d76a182a506e4fE:

00000000 <_ZN3app12touch_sensor23touch_interrupt_handler17h94d76a182a506e4fE>:
_ZN3app12touch_sensor23touch_interrupt_handler17h94d76a182a506e4fE():
c:\PineTime\pinetime-rust-mynewt/rust\app\src/touch_sensor.rs:72

/// Interrupt handler for the touch controller, triggered when a touch is detected
extern "C" fn touch_interrupt_handler(arg: *mut core::ffi::c_void) {
   0:	b580      	push	{r7, lr}
   2:	b086      	sub	sp, #24
   4:	9001      	str	r0, [sp, #4]
c:\PineTime\pinetime-rust-mynewt/rust\app\src/touch_sensor.rs:74
    //  We forward a touch event to the Default Event Queue for deferred processing.  Don't do any processing here.
    unsafe { TOUCH_EVENT.ev_arg = arg };
   6:	9801      	ldr	r0, [sp, #4]
   8:	f240 0100 	movw	r1, #0
   c:	f2c0 0100 	movt	r1, #0
  10:	9102      	str	r1, [sp, #8]
  12:	9902      	ldr	r1, [sp, #8]
  14:	6088      	str	r0, [r1, #8]
  16:	a804      	add	r0, sp, #16
c:\PineTime\pinetime-rust-mynewt/rust\app\src/touch_sensor.rs:76
    //  Fetch the Default Event Queue. TODO: Use dedicated Event Queue for higher priority processing.
    let queue = os::eventq_dflt_get()
  18:	f7ff fffe 	bl	0 <_ZN6mynewt6kernel2os15eventq_dflt_get17h56b5489811f70784E>
  1c:	e7ff      	b.n	2 <_ZN3app12touch_sensor23touch_interrupt_handler17h94d76a182a506e4fE+0x2>
  1e:	f240 0100 	movw	r1, #0
  22:	f2c0 0100 	movt	r1, #0
  26:	a804      	add	r0, sp, #16
  28:	2208      	movs	r2, #8
  2a:	f7ff fffe 	bl	0 <_ZN4core6result19Result$LT$T$C$E$GT$6expect17h50d1225635790102E>
  2e:	9003      	str	r0, [sp, #12]
  30:	e7ff      	b.n	32 <_ZN3app12touch_sensor23touch_interrupt_handler17h94d76a182a506e4fE+0x32>
c:\PineTime\pinetime-rust-mynewt/rust\app\src/touch_sensor.rs:78
        .expect("GET fail");
    unsafe { os::os_eventq_put(queue, &mut TOUCH_EVENT) };  //  Trigger the callback function `touch_event_callback()`
  32:	9803      	ldr	r0, [sp, #12]
  34:	f240 0100 	movw	r1, #0
  38:	f2c0 0100 	movt	r1, #0
  3c:	f7ff fffe 	bl	0 <os_eventq_put>
  40:	e7ff      	b.n	42 <_ZN3app12touch_sensor23touch_interrupt_handler17h94d76a182a506e4fE+0x42>
c:\PineTime\pinetime-rust-mynewt/rust\app\src/touch_sensor.rs:80
    //console::print("touch\n"); ////
}
  42:	b006      	add	sp, #24
  44:	bd80      	pop	{r7, pc}

Disassembly of section .text._ZN3app12touch_sensor20touch_event_callback17hf497039fcb26522dE:

00000000 <_ZN3app12touch_sensor20touch_event_callback17hf497039fcb26522dE>:
_ZN3app12touch_sensor20touch_event_callback17hf497039fcb26522dE():
c:\PineTime\pinetime-rust-mynewt/rust\app\src/touch_sensor.rs:83

/// Callback for the touch event that is triggered when a touch is detected
extern "C" fn touch_event_callback(_event: *mut os_event) {
   0:	b580      	push	{r7, lr}
   2:	b094      	sub	sp, #80	; 0x50
   4:	9005      	str	r0, [sp, #20]
c:\PineTime\pinetime-rust-mynewt/rust\app\src/touch_sensor.rs:87
    //  console::printhex(unsafe { os::os_time_get() } as u8); console::print(" touch\n");
    unsafe { 
        //  Fetch the touch data from the touch controller
        read_touchdata(&mut TOUCH_DATA)
   6:	f240 0000 	movw	r0, #0
   a:	f2c0 0000 	movt	r0, #0
   e:	f7ff fffe 	bl	0 <_ZN3app12touch_sensor20touch_event_callback17hf497039fcb26522dE>
  12:	9004      	str	r0, [sp, #16]
  14:	e7ff      	b.n	16 <_ZN3app12touch_sensor20touch_event_callback17hf497039fcb26522dE+0x16>
  16:	f240 0100 	movw	r1, #0
  1a:	f2c0 0100 	movt	r1, #0
  1e:	220e      	movs	r2, #14
  20:	9804      	ldr	r0, [sp, #16]
  22:	f7ff fffe 	bl	0 <_ZN4core6result19Result$LT$T$C$E$GT$6expect17h936ca8543ae6c861E>
  26:	e7ff      	b.n	2 <_ZN3app12touch_sensor20touch_event_callback17hf497039fcb26522dE+0x2>
c:\PineTime\pinetime-rust-mynewt/rust\app\src/touch_sensor.rs:90
            .expect("touchdata fail");
        //  Handle each touch data info
        for i in 0..TOUCH_DATA.count as usize {
  28:	f240 0000 	movw	r0, #0
  2c:	f2c0 0000 	movt	r0, #0
  30:	9008      	str	r0, [sp, #32]
  32:	9808      	ldr	r0, [sp, #32]
  34:	f890 0050 	ldrb.w	r0, [r0, #80]	; 0x50
  38:	2100      	movs	r1, #0
  3a:	9106      	str	r1, [sp, #24]
  3c:	9007      	str	r0, [sp, #28]
  3e:	9806      	ldr	r0, [sp, #24]
  40:	9907      	ldr	r1, [sp, #28]
  42:	f7ff fffe 	bl	0 <_ZN63_$LT$I$u20$as$u20$core..iter..traits..collect..IntoIterator$GT$9into_iter17hedb94fd918ce15b4E>
  46:	9003      	str	r0, [sp, #12]
  48:	9102      	str	r1, [sp, #8]
  4a:	e7ff      	b.n	4c <_ZN3app12touch_sensor20touch_event_callback17hf497039fcb26522dE+0x4c>
  4c:	9803      	ldr	r0, [sp, #12]
  4e:	9009      	str	r0, [sp, #36]	; 0x24
  50:	9902      	ldr	r1, [sp, #8]
  52:	910a      	str	r1, [sp, #40]	; 0x28
  54:	e7ff      	b.n	56 <_ZN3app12touch_sensor20touch_event_callback17hf497039fcb26522dE+0x56>
  56:	a809      	add	r0, sp, #36	; 0x24
  58:	f7ff fffe 	bl	0 <_ZN4core4iter5range101_$LT$impl$u20$core..iter..traits..iterator..Iterator$u20$for$u20$core..ops..range..Range$LT$A$GT$$GT$4next17hda1669884e24d041E>
  5c:	910d      	str	r1, [sp, #52]	; 0x34
  5e:	900c      	str	r0, [sp, #48]	; 0x30
  60:	e7ff      	b.n	62 <_ZN3app12touch_sensor20touch_event_callback17hf497039fcb26522dE+0x62>
  62:	980c      	ldr	r0, [sp, #48]	; 0x30
  64:	2800      	cmp	r0, #0
  66:	d001      	beq.n	6c <_ZN3app12touch_sensor20touch_event_callback17hf497039fcb26522dE+0x6c>
  68:	e7ff      	b.n	6a <_ZN3app12touch_sensor20touch_event_callback17hf497039fcb26522dE+0x6a>
  6a:	e002      	b.n	72 <_ZN3app12touch_sensor20touch_event_callback17hf497039fcb26522dE+0x72>
c:\PineTime\pinetime-rust-mynewt/rust\app\src/touch_sensor.rs:129
            console::print(", x: "); console::printint(x as i32); 
            console::print(", y: "); console::printint(y as i32); console::print("\n");
        }
        console::flush();   
    } */
}
  6c:	b014      	add	sp, #80	; 0x50
  6e:	bd80      	pop	{r7, pc}
c:\PineTime\pinetime-rust-mynewt/rust\app\src/touch_sensor.rs:90
        for i in 0..TOUCH_DATA.count as usize {
  70:	defe      	udf	#254	; 0xfe
  72:	980d      	ldr	r0, [sp, #52]	; 0x34
  74:	900e      	str	r0, [sp, #56]	; 0x38
  76:	980e      	ldr	r0, [sp, #56]	; 0x38
  78:	900b      	str	r0, [sp, #44]	; 0x2c
  7a:	980b      	ldr	r0, [sp, #44]	; 0x2c
  7c:	900f      	str	r0, [sp, #60]	; 0x3c
c:\PineTime\pinetime-rust-mynewt/rust\app\src/touch_sensor.rs:91
            let TouchInfo{ x, y, action, .. } = TOUCH_DATA.touches[i];
  7e:	f240 0000 	movw	r0, #0
  82:	f2c0 0000 	movt	r0, #0
  86:	9012      	str	r0, [sp, #72]	; 0x48
  88:	980f      	ldr	r0, [sp, #60]	; 0x3c
  8a:	2809      	cmp	r0, #9
  8c:	9001      	str	r0, [sp, #4]
  8e:	d84d      	bhi.n	12c <_ZN3app12touch_sensor20touch_event_callback17hf497039fcb26522dE+0x12c>
  90:	e7ff      	b.n	92 <_ZN3app12touch_sensor20touch_event_callback17hf497039fcb26522dE+0x92>
  92:	9812      	ldr	r0, [sp, #72]	; 0x48
  94:	9901      	ldr	r1, [sp, #4]
  96:	f830 0031 	ldrh.w	r0, [r0, r1, lsl #3]
  9a:	f8ad 0042 	strh.w	r0, [sp, #66]	; 0x42
  9e:	9812      	ldr	r0, [sp, #72]	; 0x48
  a0:	eb00 00c1 	add.w	r0, r0, r1, lsl #3
  a4:	8840      	ldrh	r0, [r0, #2]
  a6:	f8ad 0044 	strh.w	r0, [sp, #68]	; 0x44
  aa:	9812      	ldr	r0, [sp, #72]	; 0x48
  ac:	eb00 00c1 	add.w	r0, r0, r1, lsl #3
  b0:	7900      	ldrb	r0, [r0, #4]
  b2:	f88d 0047 	strb.w	r0, [sp, #71]	; 0x47
c:\PineTime\pinetime-rust-mynewt/rust\app\src/touch_sensor.rs:93
            if x == 0 && y == 0 { continue; }
  b6:	f8bd 0042 	ldrh.w	r0, [sp, #66]	; 0x42
  ba:	2800      	cmp	r0, #0
  bc:	d008      	beq.n	d0 <_ZN3app12touch_sensor20touch_event_callback17hf497039fcb26522dE+0xd0>
  be:	e003      	b.n	c8 <_ZN3app12touch_sensor20touch_event_callback17hf497039fcb26522dE+0xc8>
  c0:	2001      	movs	r0, #1
  c2:	f88d 004e 	strb.w	r0, [sp, #78]	; 0x4e
  c6:	e008      	b.n	da <_ZN3app12touch_sensor20touch_event_callback17hf497039fcb26522dE+0xda>
  c8:	2000      	movs	r0, #0
  ca:	f88d 004e 	strb.w	r0, [sp, #78]	; 0x4e
  ce:	e004      	b.n	da <_ZN3app12touch_sensor20touch_event_callback17hf497039fcb26522dE+0xda>
  d0:	f8bd 0044 	ldrh.w	r0, [sp, #68]	; 0x44
  d4:	2800      	cmp	r0, #0
  d6:	d0f3      	beq.n	c0 <_ZN3app12touch_sensor20touch_event_callback17hf497039fcb26522dE+0xc0>
  d8:	e7f6      	b.n	c8 <_ZN3app12touch_sensor20touch_event_callback17hf497039fcb26522dE+0xc8>
  da:	f89d 004e 	ldrb.w	r0, [sp, #78]	; 0x4e
  de:	07c0      	lsls	r0, r0, #31
  e0:	2800      	cmp	r0, #0
  e2:	d105      	bne.n	f0 <_ZN3app12touch_sensor20touch_event_callback17hf497039fcb26522dE+0xf0>
  e4:	e7ff      	b.n	e6 <_ZN3app12touch_sensor20touch_event_callback17hf497039fcb26522dE+0xe6>
c:\PineTime\pinetime-rust-mynewt/rust\app\src/touch_sensor.rs:95
            if action != 0 && action != 2 { continue; }
  e6:	f89d 0047 	ldrb.w	r0, [sp, #71]	; 0x47
  ea:	2800      	cmp	r0, #0
  ec:	d10a      	bne.n	104 <_ZN3app12touch_sensor20touch_event_callback17hf497039fcb26522dE+0x104>
  ee:	e005      	b.n	fc <_ZN3app12touch_sensor20touch_event_callback17hf497039fcb26522dE+0xfc>
c:\PineTime\pinetime-rust-mynewt/rust\app\src/touch_sensor.rs:93
            if x == 0 && y == 0 { continue; }
  f0:	e7ff      	b.n	f2 <_ZN3app12touch_sensor20touch_event_callback17hf497039fcb26522dE+0xf2>
  f2:	e7b0      	b.n	56 <_ZN3app12touch_sensor20touch_event_callback17hf497039fcb26522dE+0x56>
  f4:	2001      	movs	r0, #1
c:\PineTime\pinetime-rust-mynewt/rust\app\src/touch_sensor.rs:95
            if action != 0 && action != 2 { continue; }
  f6:	f88d 004f 	strb.w	r0, [sp, #79]	; 0x4f
  fa:	e008      	b.n	10e <_ZN3app12touch_sensor20touch_event_callback17hf497039fcb26522dE+0x10e>
  fc:	2000      	movs	r0, #0
  fe:	f88d 004f 	strb.w	r0, [sp, #79]	; 0x4f
 102:	e004      	b.n	10e <_ZN3app12touch_sensor20touch_event_callback17hf497039fcb26522dE+0x10e>
 104:	f89d 0047 	ldrb.w	r0, [sp, #71]	; 0x47
 108:	2802      	cmp	r0, #2
 10a:	d1f3      	bne.n	f4 <_ZN3app12touch_sensor20touch_event_callback17hf497039fcb26522dE+0xf4>
 10c:	e7f6      	b.n	fc <_ZN3app12touch_sensor20touch_event_callback17hf497039fcb26522dE+0xfc>
 10e:	f89d 004f 	ldrb.w	r0, [sp, #79]	; 0x4f
 112:	07c0      	lsls	r0, r0, #31
 114:	2800      	cmp	r0, #0
 116:	d107      	bne.n	128 <_ZN3app12touch_sensor20touch_event_callback17hf497039fcb26522dE+0x128>
 118:	e7ff      	b.n	11a <_ZN3app12touch_sensor20touch_event_callback17hf497039fcb26522dE+0x11a>
c:\PineTime\pinetime-rust-mynewt/rust\app\src/touch_sensor.rs:97
            druid::handle_touch(x, y);
 11a:	f8bd 1044 	ldrh.w	r1, [sp, #68]	; 0x44
 11e:	f8bd 0042 	ldrh.w	r0, [sp, #66]	; 0x42
 122:	f7ff fffe 	bl	0 <_ZN5druid11win_handler12handle_touch17h55e36ababeedab1aE>
 126:	e000      	b.n	12a <_ZN3app12touch_sensor20touch_event_callback17hf497039fcb26522dE+0x12a>
c:\PineTime\pinetime-rust-mynewt/rust\app\src/touch_sensor.rs:95
            if action != 0 && action != 2 { continue; }
 128:	e7e3      	b.n	f2 <_ZN3app12touch_sensor20touch_event_callback17hf497039fcb26522dE+0xf2>
c:\PineTime\pinetime-rust-mynewt/rust\app\src/touch_sensor.rs:90
        for i in 0..TOUCH_DATA.count as usize {
 12a:	e794      	b.n	56 <_ZN3app12touch_sensor20touch_event_callback17hf497039fcb26522dE+0x56>
c:\PineTime\pinetime-rust-mynewt/rust\app\src/touch_sensor.rs:91
            let TouchInfo{ x, y, action, .. } = TOUCH_DATA.touches[i];
 12c:	f240 0000 	movw	r0, #0
 130:	f2c0 0000 	movt	r0, #0
 134:	220a      	movs	r2, #10
 136:	9901      	ldr	r1, [sp, #4]
 138:	f7ff fffe 	bl	0 <_ZN4core9panicking18panic_bounds_check17hefada55beeee1c8fE>
 13c:	defe      	udf	#254	; 0xfe

Disassembly of section .text._ZN3app12touch_sensor14read_touchdata17h22f38f3ba6d0e0f1E:

00000000 <_ZN3app12touch_sensor14read_touchdata17h22f38f3ba6d0e0f1E>:
_ZN3app12touch_sensor14read_touchdata17h22f38f3ba6d0e0f1E():
c:\PineTime\pinetime-rust-mynewt/rust\app\src/touch_sensor.rs:136
/// Touch data will be populated here
static mut TOUCH_DATA: TouchEventInfo = fill_zero!(TouchEventInfo);

/// Read touch controller data. This only works when the screen has been tapped and the touch controller wakes up.
/// Ported from https://github.com/lupyuen/hynitron_i2c_cst0xxse/blob/master/cst0xx_core.c#L407-L466
fn read_touchdata(data: &mut TouchEventInfo) -> MynewtResult<()> {
   0:	b580      	push	{r7, lr}
   2:	b0f0      	sub	sp, #448	; 0x1c0
   4:	902d      	str	r0, [sp, #180]	; 0xb4
c:\PineTime\pinetime-rust-mynewt/rust\app\src/touch_sensor.rs:137
    read_register_range(           //  Read the range of I2C registers...
   6:	4668      	mov	r0, sp
   8:	213f      	movs	r1, #63	; 0x3f
   a:	6001      	str	r1, [r0, #0]
   c:	f240 0300 	movw	r3, #0
  10:	f2c0 0300 	movt	r3, #0
  14:	2015      	movs	r0, #21
  16:	2200      	movs	r2, #0
  18:	912c      	str	r1, [sp, #176]	; 0xb0
  1a:	4611      	mov	r1, r2
  1c:	9a2c      	ldr	r2, [sp, #176]	; 0xb0
  1e:	f7ff fffe 	bl	0 <_ZN3app12touch_sensor14read_touchdata17h22f38f3ba6d0e0f1E>
  22:	902b      	str	r0, [sp, #172]	; 0xac
  24:	e7ff      	b.n	26 <_ZN3app12touch_sensor14read_touchdata17h22f38f3ba6d0e0f1E+0x26>
  26:	f240 0100 	movw	r1, #0
  2a:	f2c0 0100 	movt	r1, #0
  2e:	2213      	movs	r2, #19
  30:	982b      	ldr	r0, [sp, #172]	; 0xac
  32:	f7ff fffe 	bl	0 <_ZN4core6result19Result$LT$T$C$E$GT$6expect17h936ca8543ae6c861E>
  36:	e7ff      	b.n	38 <_ZN3app12touch_sensor14read_touchdata17h22f38f3ba6d0e0f1E+0x38>
  38:	f50d 7085 	add.w	r0, sp, #266	; 0x10a
  3c:	2152      	movs	r1, #82	; 0x52
c:\PineTime\pinetime-rust-mynewt/rust\app\src/touch_sensor.rs:143
        TOUCH_CONTROLLER_ADDRESS,  //  From the touch controller
        0,                         //  Starting from register 0
        POINT_READ_BUF as u8,      //  Number of registers to read
        unsafe { &mut BUF }        //  Save the read data into `buf`
    ).expect("read touchdata fail");
    *data = fill_zero!(TouchEventInfo);
  3e:	902a      	str	r0, [sp, #168]	; 0xa8
  40:	9129      	str	r1, [sp, #164]	; 0xa4
  42:	f7ff fffe 	bl	0 <__aeabi_memclr>
  46:	a82e      	add	r0, sp, #184	; 0xb8
  48:	992a      	ldr	r1, [sp, #168]	; 0xa8
  4a:	9a29      	ldr	r2, [sp, #164]	; 0xa4
  4c:	f7ff fffe 	bl	0 <__aeabi_memcpy>
  50:	e7ff      	b.n	52 <_ZN3app12touch_sensor14read_touchdata17h22f38f3ba6d0e0f1E+0x52>
  52:	982d      	ldr	r0, [sp, #180]	; 0xb4
  54:	a92e      	add	r1, sp, #184	; 0xb8
  56:	2252      	movs	r2, #82	; 0x52
  58:	f7ff fffe 	bl	0 <__aeabi_memcpy>
c:\PineTime\pinetime-rust-mynewt/rust\app\src/touch_sensor.rs:144
    data.point_num = unsafe { BUF[FT_TOUCH_POINT_NUM] & 0x0F };
  5c:	f240 0100 	movw	r1, #0
  60:	f2c0 0100 	movt	r1, #0
  64:	9157      	str	r1, [sp, #348]	; 0x15c
  66:	9957      	ldr	r1, [sp, #348]	; 0x15c
  68:	7889      	ldrb	r1, [r1, #2]
  6a:	f001 010f 	and.w	r1, r1, #15
  6e:	9a2d      	ldr	r2, [sp, #180]	; 0xb4
  70:	f882 1051 	strb.w	r1, [r2, #81]	; 0x51
c:\PineTime\pinetime-rust-mynewt/rust\app\src/touch_sensor.rs:145
    data.count     = 0;
  74:	992d      	ldr	r1, [sp, #180]	; 0xb4
  76:	2200      	movs	r2, #0
  78:	f881 2050 	strb.w	r2, [r1, #80]	; 0x50
c:\PineTime\pinetime-rust-mynewt/rust\app\src/touch_sensor.rs:148

    //  Populate the first 5 touch points
    for i in 0..CFG_MAX_TOUCH_POINTS {
  7c:	9258      	str	r2, [sp, #352]	; 0x160
  7e:	2105      	movs	r1, #5
  80:	9159      	str	r1, [sp, #356]	; 0x164
  82:	9958      	ldr	r1, [sp, #352]	; 0x160
  84:	9a59      	ldr	r2, [sp, #356]	; 0x164
  86:	9028      	str	r0, [sp, #160]	; 0xa0
  88:	4608      	mov	r0, r1
  8a:	4611      	mov	r1, r2
  8c:	f7ff fffe 	bl	0 <_ZN63_$LT$I$u20$as$u20$core..iter..traits..collect..IntoIterator$GT$9into_iter17hedb94fd918ce15b4E>
  90:	9027      	str	r0, [sp, #156]	; 0x9c
  92:	9126      	str	r1, [sp, #152]	; 0x98
  94:	e7ff      	b.n	96 <_ZN3app12touch_sensor14read_touchdata17h22f38f3ba6d0e0f1E+0x96>
  96:	9827      	ldr	r0, [sp, #156]	; 0x9c
  98:	905a      	str	r0, [sp, #360]	; 0x168
  9a:	9926      	ldr	r1, [sp, #152]	; 0x98
  9c:	915b      	str	r1, [sp, #364]	; 0x16c
  9e:	e7ff      	b.n	a0 <_ZN3app12touch_sensor14read_touchdata17h22f38f3ba6d0e0f1E+0xa0>
  a0:	a85a      	add	r0, sp, #360	; 0x168
  a2:	f7ff fffe 	bl	0 <_ZN4core4iter5range101_$LT$impl$u20$core..iter..traits..iterator..Iterator$u20$for$u20$core..ops..range..Range$LT$A$GT$$GT$4next17hda1669884e24d041E>
  a6:	915e      	str	r1, [sp, #376]	; 0x178
  a8:	905d      	str	r0, [sp, #372]	; 0x174
  aa:	e7ff      	b.n	ac <_ZN3app12touch_sensor14read_touchdata17h22f38f3ba6d0e0f1E+0xac>
  ac:	985d      	ldr	r0, [sp, #372]	; 0x174
  ae:	2800      	cmp	r0, #0
  b0:	d001      	beq.n	b6 <_ZN3app12touch_sensor14read_touchdata17h22f38f3ba6d0e0f1E+0xb6>
  b2:	e7ff      	b.n	b4 <_ZN3app12touch_sensor14read_touchdata17h22f38f3ba6d0e0f1E+0xb4>
  b4:	e001      	b.n	ba <_ZN3app12touch_sensor14read_touchdata17h22f38f3ba6d0e0f1E+0xba>
  b6:	e014      	b.n	e2 <_ZN3app12touch_sensor14read_touchdata17h22f38f3ba6d0e0f1E+0xe2>
  b8:	defe      	udf	#254	; 0xfe
  ba:	985e      	ldr	r0, [sp, #376]	; 0x178
  bc:	905f      	str	r0, [sp, #380]	; 0x17c
  be:	985f      	ldr	r0, [sp, #380]	; 0x17c
  c0:	905c      	str	r0, [sp, #368]	; 0x170
  c2:	985c      	ldr	r0, [sp, #368]	; 0x170
  c4:	9060      	str	r0, [sp, #384]	; 0x180
c:\PineTime\pinetime-rust-mynewt/rust\app\src/touch_sensor.rs:149
        let pointid = unsafe { BUF[HYN_TOUCH_ID_POS + HYN_TOUCH_STEP * i] } >> 4;
  c6:	f240 0000 	movw	r0, #0
  ca:	f2c0 0000 	movt	r0, #0
  ce:	9062      	str	r0, [sp, #392]	; 0x188
  d0:	9860      	ldr	r0, [sp, #384]	; 0x180
  d2:	2106      	movs	r1, #6
  d4:	fba1 0100 	umull	r0, r1, r1, r0
  d8:	2900      	cmp	r1, #0
  da:	9025      	str	r0, [sp, #148]	; 0x94
  dc:	f040 81d6 	bne.w	48c <_ZN3app12touch_sensor14read_touchdata17h22f38f3ba6d0e0f1E+0x48c>
  e0:	e002      	b.n	e8 <_ZN3app12touch_sensor14read_touchdata17h22f38f3ba6d0e0f1E+0xe8>
  e2:	2001      	movs	r0, #1
c:\PineTime\pinetime-rust-mynewt/rust\app\src/touch_sensor.rs:181
            && (data.point_num == 0) {
            break;
        }
    }
    Ok(())
}
  e4:	b070      	add	sp, #448	; 0x1c0
  e6:	bd80      	pop	{r7, pc}
c:\PineTime\pinetime-rust-mynewt/rust\app\src/touch_sensor.rs:149
        let pointid = unsafe { BUF[HYN_TOUCH_ID_POS + HYN_TOUCH_STEP * i] } >> 4;
  e8:	9825      	ldr	r0, [sp, #148]	; 0x94
  ea:	1d41      	adds	r1, r0, #5
  ec:	460a      	mov	r2, r1
  ee:	4281      	cmp	r1, r0
  f0:	9224      	str	r2, [sp, #144]	; 0x90
  f2:	f0c0 81d7 	bcc.w	4a4 <_ZN3app12touch_sensor14read_touchdata17h22f38f3ba6d0e0f1E+0x4a4>
  f6:	e7ff      	b.n	f8 <_ZN3app12touch_sensor14read_touchdata17h22f38f3ba6d0e0f1E+0xf8>
  f8:	9824      	ldr	r0, [sp, #144]	; 0x90
  fa:	283e      	cmp	r0, #62	; 0x3e
  fc:	f200 81de 	bhi.w	4bc <_ZN3app12touch_sensor14read_touchdata17h22f38f3ba6d0e0f1E+0x4bc>
 100:	e7ff      	b.n	102 <_ZN3app12touch_sensor14read_touchdata17h22f38f3ba6d0e0f1E+0x102>
 102:	9862      	ldr	r0, [sp, #392]	; 0x188
 104:	9924      	ldr	r1, [sp, #144]	; 0x90
 106:	5c40      	ldrb	r0, [r0, r1]
 108:	0900      	lsrs	r0, r0, #4
 10a:	9023      	str	r0, [sp, #140]	; 0x8c
 10c:	e7ff      	b.n	10e <_ZN3app12touch_sensor14read_touchdata17h22f38f3ba6d0e0f1E+0x10e>
 10e:	9823      	ldr	r0, [sp, #140]	; 0x8c
 110:	f88d 0187 	strb.w	r0, [sp, #391]	; 0x187
c:\PineTime\pinetime-rust-mynewt/rust\app\src/touch_sensor.rs:150
        if pointid >= HYN_MAX_ID { break; }
 114:	f89d 1187 	ldrb.w	r1, [sp, #391]	; 0x187
 118:	290e      	cmp	r1, #14
 11a:	d80b      	bhi.n	134 <_ZN3app12touch_sensor14read_touchdata17h22f38f3ba6d0e0f1E+0x134>
 11c:	e7ff      	b.n	11e <_ZN3app12touch_sensor14read_touchdata17h22f38f3ba6d0e0f1E+0x11e>
c:\PineTime\pinetime-rust-mynewt/rust\app\src/touch_sensor.rs:153
        data.count += 1;
 11e:	982d      	ldr	r0, [sp, #180]	; 0xb4
 120:	f890 0050 	ldrb.w	r0, [r0, #80]	; 0x50
 124:	3001      	adds	r0, #1
 126:	b2c1      	uxtb	r1, r0
 128:	4602      	mov	r2, r0
 12a:	4281      	cmp	r1, r0
 12c:	9222      	str	r2, [sp, #136]	; 0x88
 12e:	f040 81ce 	bne.w	4ce <_ZN3app12touch_sensor14read_touchdata17h22f38f3ba6d0e0f1E+0x4ce>
 132:	e001      	b.n	138 <_ZN3app12touch_sensor14read_touchdata17h22f38f3ba6d0e0f1E+0x138>
c:\PineTime\pinetime-rust-mynewt/rust\app\src/touch_sensor.rs:150
        if pointid >= HYN_MAX_ID { break; }
 134:	e7ff      	b.n	136 <_ZN3app12touch_sensor14read_touchdata17h22f38f3ba6d0e0f1E+0x136>
 136:	e7d4      	b.n	e2 <_ZN3app12touch_sensor14read_touchdata17h22f38f3ba6d0e0f1E+0xe2>
c:\PineTime\pinetime-rust-mynewt/rust\app\src/touch_sensor.rs:153
        data.count += 1;
 138:	982d      	ldr	r0, [sp, #180]	; 0xb4
 13a:	9922      	ldr	r1, [sp, #136]	; 0x88
 13c:	f880 1050 	strb.w	r1, [r0, #80]	; 0x50
c:\PineTime\pinetime-rust-mynewt/rust\app\src/touch_sensor.rs:154
        let x_high = unsafe { BUF[HYN_TOUCH_X_H_POS + HYN_TOUCH_STEP * i] & 0x0F } as u16;
 140:	f240 0000 	movw	r0, #0
 144:	f2c0 0000 	movt	r0, #0
 148:	9064      	str	r0, [sp, #400]	; 0x190
 14a:	9860      	ldr	r0, [sp, #384]	; 0x180
 14c:	2206      	movs	r2, #6
 14e:	fba2 0200 	umull	r0, r2, r2, r0
 152:	2a00      	cmp	r2, #0
 154:	9021      	str	r0, [sp, #132]	; 0x84
 156:	f040 81c6 	bne.w	4e6 <_ZN3app12touch_sensor14read_touchdata17h22f38f3ba6d0e0f1E+0x4e6>
 15a:	e7ff      	b.n	15c <_ZN3app12touch_sensor14read_touchdata17h22f38f3ba6d0e0f1E+0x15c>
 15c:	9821      	ldr	r0, [sp, #132]	; 0x84
 15e:	1cc1      	adds	r1, r0, #3
 160:	460a      	mov	r2, r1
 162:	4281      	cmp	r1, r0
 164:	9220      	str	r2, [sp, #128]	; 0x80
 166:	f0c0 81ca 	bcc.w	4fe <_ZN3app12touch_sensor14read_touchdata17h22f38f3ba6d0e0f1E+0x4fe>
 16a:	e7ff      	b.n	16c <_ZN3app12touch_sensor14read_touchdata17h22f38f3ba6d0e0f1E+0x16c>
 16c:	9820      	ldr	r0, [sp, #128]	; 0x80
 16e:	283e      	cmp	r0, #62	; 0x3e
 170:	f200 81d1 	bhi.w	516 <_ZN3app12touch_sensor14read_touchdata17h22f38f3ba6d0e0f1E+0x516>
 174:	e7ff      	b.n	176 <_ZN3app12touch_sensor14read_touchdata17h22f38f3ba6d0e0f1E+0x176>
 176:	9864      	ldr	r0, [sp, #400]	; 0x190
 178:	9920      	ldr	r1, [sp, #128]	; 0x80
 17a:	5c40      	ldrb	r0, [r0, r1]
 17c:	f000 000f 	and.w	r0, r0, #15
 180:	f8ad 018e 	strh.w	r0, [sp, #398]	; 0x18e
c:\PineTime\pinetime-rust-mynewt/rust\app\src/touch_sensor.rs:155
        let x_low  = unsafe { BUF[HYN_TOUCH_X_L_POS + HYN_TOUCH_STEP * i] } as u16;
 184:	f240 0000 	movw	r0, #0
 188:	f2c0 0000 	movt	r0, #0
 18c:	9066      	str	r0, [sp, #408]	; 0x198
 18e:	9860      	ldr	r0, [sp, #384]	; 0x180
 190:	2206      	movs	r2, #6
 192:	fba2 0200 	umull	r0, r2, r2, r0
 196:	2a00      	cmp	r2, #0
 198:	901f      	str	r0, [sp, #124]	; 0x7c
 19a:	f040 81c5 	bne.w	528 <_ZN3app12touch_sensor14read_touchdata17h22f38f3ba6d0e0f1E+0x528>
 19e:	e7ff      	b.n	1a0 <_ZN3app12touch_sensor14read_touchdata17h22f38f3ba6d0e0f1E+0x1a0>
 1a0:	981f      	ldr	r0, [sp, #124]	; 0x7c
 1a2:	1d01      	adds	r1, r0, #4
 1a4:	460a      	mov	r2, r1
 1a6:	4281      	cmp	r1, r0
 1a8:	921e      	str	r2, [sp, #120]	; 0x78
 1aa:	f0c0 81c9 	bcc.w	540 <_ZN3app12touch_sensor14read_touchdata17h22f38f3ba6d0e0f1E+0x540>
 1ae:	e7ff      	b.n	1b0 <_ZN3app12touch_sensor14read_touchdata17h22f38f3ba6d0e0f1E+0x1b0>
 1b0:	981e      	ldr	r0, [sp, #120]	; 0x78
 1b2:	283e      	cmp	r0, #62	; 0x3e
 1b4:	f200 81d0 	bhi.w	558 <_ZN3app12touch_sensor14read_touchdata17h22f38f3ba6d0e0f1E+0x558>
 1b8:	e7ff      	b.n	1ba <_ZN3app12touch_sensor14read_touchdata17h22f38f3ba6d0e0f1E+0x1ba>
 1ba:	9866      	ldr	r0, [sp, #408]	; 0x198
 1bc:	991e      	ldr	r1, [sp, #120]	; 0x78
 1be:	5c40      	ldrb	r0, [r0, r1]
 1c0:	f8ad 0196 	strh.w	r0, [sp, #406]	; 0x196
c:\PineTime\pinetime-rust-mynewt/rust\app\src/touch_sensor.rs:156
        data.touches[i].x  = (x_high << 8) | x_low;
 1c4:	f8bd 018e 	ldrh.w	r0, [sp, #398]	; 0x18e
 1c8:	0200      	lsls	r0, r0, #8
 1ca:	901d      	str	r0, [sp, #116]	; 0x74
 1cc:	e7ff      	b.n	1ce <_ZN3app12touch_sensor14read_touchdata17h22f38f3ba6d0e0f1E+0x1ce>
 1ce:	f8bd 0196 	ldrh.w	r0, [sp, #406]	; 0x196
 1d2:	9960      	ldr	r1, [sp, #384]	; 0x180
 1d4:	2909      	cmp	r1, #9
 1d6:	901c      	str	r0, [sp, #112]	; 0x70
 1d8:	911b      	str	r1, [sp, #108]	; 0x6c
 1da:	f200 81c6 	bhi.w	56a <_ZN3app12touch_sensor14read_touchdata17h22f38f3ba6d0e0f1E+0x56a>
 1de:	e7ff      	b.n	1e0 <_ZN3app12touch_sensor14read_touchdata17h22f38f3ba6d0e0f1E+0x1e0>
 1e0:	982d      	ldr	r0, [sp, #180]	; 0xb4
 1e2:	991d      	ldr	r1, [sp, #116]	; 0x74
 1e4:	9a1c      	ldr	r2, [sp, #112]	; 0x70
 1e6:	ea41 0302 	orr.w	r3, r1, r2
 1ea:	f8dd c06c 	ldr.w	ip, [sp, #108]	; 0x6c
 1ee:	f820 303c 	strh.w	r3, [r0, ip, lsl #3]
c:\PineTime\pinetime-rust-mynewt/rust\app\src/touch_sensor.rs:158
        let y_high = unsafe { BUF[HYN_TOUCH_Y_H_POS + HYN_TOUCH_STEP * i] & 0x0F } as u16;
 1f2:	f240 0000 	movw	r0, #0
 1f6:	f2c0 0000 	movt	r0, #0
 1fa:	9068      	str	r0, [sp, #416]	; 0x1a0
 1fc:	9860      	ldr	r0, [sp, #384]	; 0x180
 1fe:	2306      	movs	r3, #6
 200:	fba3 0300 	umull	r0, r3, r3, r0
 204:	2b00      	cmp	r3, #0
 206:	901a      	str	r0, [sp, #104]	; 0x68
 208:	f040 81b8 	bne.w	57c <_ZN3app12touch_sensor14read_touchdata17h22f38f3ba6d0e0f1E+0x57c>
 20c:	e7ff      	b.n	20e <_ZN3app12touch_sensor14read_touchdata17h22f38f3ba6d0e0f1E+0x20e>
 20e:	981a      	ldr	r0, [sp, #104]	; 0x68
 210:	1d41      	adds	r1, r0, #5
 212:	460a      	mov	r2, r1
 214:	4281      	cmp	r1, r0
 216:	9219      	str	r2, [sp, #100]	; 0x64
 218:	f0c0 81bc 	bcc.w	594 <_ZN3app12touch_sensor14read_touchdata17h22f38f3ba6d0e0f1E+0x594>
 21c:	e7ff      	b.n	21e <_ZN3app12touch_sensor14read_touchdata17h22f38f3ba6d0e0f1E+0x21e>
 21e:	9819      	ldr	r0, [sp, #100]	; 0x64
 220:	283e      	cmp	r0, #62	; 0x3e
 222:	f200 81c3 	bhi.w	5ac <_ZN3app12touch_sensor14read_touchdata17h22f38f3ba6d0e0f1E+0x5ac>
 226:	e7ff      	b.n	228 <_ZN3app12touch_sensor14read_touchdata17h22f38f3ba6d0e0f1E+0x228>
 228:	9868      	ldr	r0, [sp, #416]	; 0x1a0
 22a:	9919      	ldr	r1, [sp, #100]	; 0x64
 22c:	5c40      	ldrb	r0, [r0, r1]
 22e:	f000 000f 	and.w	r0, r0, #15
 232:	f8ad 019e 	strh.w	r0, [sp, #414]	; 0x19e
c:\PineTime\pinetime-rust-mynewt/rust\app\src/touch_sensor.rs:159
        let y_low  = unsafe { BUF[HYN_TOUCH_Y_L_POS + HYN_TOUCH_STEP * i] } as u16;
 236:	f240 0000 	movw	r0, #0
 23a:	f2c0 0000 	movt	r0, #0
 23e:	906a      	str	r0, [sp, #424]	; 0x1a8
 240:	9860      	ldr	r0, [sp, #384]	; 0x180
 242:	2206      	movs	r2, #6
 244:	fba2 0200 	umull	r0, r2, r2, r0
 248:	2a00      	cmp	r2, #0
 24a:	9018      	str	r0, [sp, #96]	; 0x60
 24c:	f040 81b7 	bne.w	5be <_ZN3app12touch_sensor14read_touchdata17h22f38f3ba6d0e0f1E+0x5be>
 250:	e7ff      	b.n	252 <_ZN3app12touch_sensor14read_touchdata17h22f38f3ba6d0e0f1E+0x252>
 252:	9818      	ldr	r0, [sp, #96]	; 0x60
 254:	1d81      	adds	r1, r0, #6
 256:	460a      	mov	r2, r1
 258:	4281      	cmp	r1, r0
 25a:	9217      	str	r2, [sp, #92]	; 0x5c
 25c:	f0c0 81bb 	bcc.w	5d6 <_ZN3app12touch_sensor14read_touchdata17h22f38f3ba6d0e0f1E+0x5d6>
 260:	e7ff      	b.n	262 <_ZN3app12touch_sensor14read_touchdata17h22f38f3ba6d0e0f1E+0x262>
 262:	9817      	ldr	r0, [sp, #92]	; 0x5c
 264:	283e      	cmp	r0, #62	; 0x3e
 266:	f200 81c2 	bhi.w	5ee <_ZN3app12touch_sensor14read_touchdata17h22f38f3ba6d0e0f1E+0x5ee>
 26a:	e7ff      	b.n	26c <_ZN3app12touch_sensor14read_touchdata17h22f38f3ba6d0e0f1E+0x26c>
 26c:	986a      	ldr	r0, [sp, #424]	; 0x1a8
 26e:	9917      	ldr	r1, [sp, #92]	; 0x5c
 270:	5c40      	ldrb	r0, [r0, r1]
 272:	f8ad 01a6 	strh.w	r0, [sp, #422]	; 0x1a6
c:\PineTime\pinetime-rust-mynewt/rust\app\src/touch_sensor.rs:160
        data.touches[i].y  = (y_high << 8) | y_low;
 276:	f8bd 019e 	ldrh.w	r0, [sp, #414]	; 0x19e
 27a:	0200      	lsls	r0, r0, #8
 27c:	9016      	str	r0, [sp, #88]	; 0x58
 27e:	e7ff      	b.n	280 <_ZN3app12touch_sensor14read_touchdata17h22f38f3ba6d0e0f1E+0x280>
 280:	f8bd 01a6 	ldrh.w	r0, [sp, #422]	; 0x1a6
 284:	9960      	ldr	r1, [sp, #384]	; 0x180
 286:	2909      	cmp	r1, #9
 288:	9015      	str	r0, [sp, #84]	; 0x54
 28a:	9114      	str	r1, [sp, #80]	; 0x50
 28c:	f200 81b8 	bhi.w	600 <_ZN3app12touch_sensor14read_touchdata17h22f38f3ba6d0e0f1E+0x600>
 290:	e7ff      	b.n	292 <_ZN3app12touch_sensor14read_touchdata17h22f38f3ba6d0e0f1E+0x292>
 292:	982d      	ldr	r0, [sp, #180]	; 0xb4
 294:	9914      	ldr	r1, [sp, #80]	; 0x50
 296:	eb00 00c1 	add.w	r0, r0, r1, lsl #3
 29a:	9a16      	ldr	r2, [sp, #88]	; 0x58
 29c:	9b15      	ldr	r3, [sp, #84]	; 0x54
 29e:	ea42 0c03 	orr.w	ip, r2, r3
 2a2:	f8a0 c002 	strh.w	ip, [r0, #2]
c:\PineTime\pinetime-rust-mynewt/rust\app\src/touch_sensor.rs:164
            unsafe { BUF[HYN_TOUCH_EVENT_POS + HYN_TOUCH_STEP * i] } >> 6;
 2a6:	f240 0000 	movw	r0, #0
 2aa:	f2c0 0000 	movt	r0, #0
 2ae:	906b      	str	r0, [sp, #428]	; 0x1ac
 2b0:	9860      	ldr	r0, [sp, #384]	; 0x180
 2b2:	f04f 0c06 	mov.w	ip, #6
 2b6:	fbac 0c00 	umull	r0, ip, ip, r0
 2ba:	f1bc 0f00 	cmp.w	ip, #0
 2be:	9013      	str	r0, [sp, #76]	; 0x4c
 2c0:	f040 81a7 	bne.w	612 <_ZN3app12touch_sensor14read_touchdata17h22f38f3ba6d0e0f1E+0x612>
 2c4:	e7ff      	b.n	2c6 <_ZN3app12touch_sensor14read_touchdata17h22f38f3ba6d0e0f1E+0x2c6>
 2c6:	9813      	ldr	r0, [sp, #76]	; 0x4c
 2c8:	1cc1      	adds	r1, r0, #3
 2ca:	460a      	mov	r2, r1
 2cc:	4281      	cmp	r1, r0
 2ce:	9212      	str	r2, [sp, #72]	; 0x48
 2d0:	f0c0 81ab 	bcc.w	62a <_ZN3app12touch_sensor14read_touchdata17h22f38f3ba6d0e0f1E+0x62a>
 2d4:	e7ff      	b.n	2d6 <_ZN3app12touch_sensor14read_touchdata17h22f38f3ba6d0e0f1E+0x2d6>
 2d6:	9812      	ldr	r0, [sp, #72]	; 0x48
 2d8:	283e      	cmp	r0, #62	; 0x3e
 2da:	f200 81b2 	bhi.w	642 <_ZN3app12touch_sensor14read_touchdata17h22f38f3ba6d0e0f1E+0x642>
 2de:	e7ff      	b.n	2e0 <_ZN3app12touch_sensor14read_touchdata17h22f38f3ba6d0e0f1E+0x2e0>
 2e0:	986b      	ldr	r0, [sp, #428]	; 0x1ac
 2e2:	9912      	ldr	r1, [sp, #72]	; 0x48
 2e4:	5c40      	ldrb	r0, [r0, r1]
 2e6:	0980      	lsrs	r0, r0, #6
 2e8:	9011      	str	r0, [sp, #68]	; 0x44
 2ea:	e7ff      	b.n	2ec <_ZN3app12touch_sensor14read_touchdata17h22f38f3ba6d0e0f1E+0x2ec>
c:\PineTime\pinetime-rust-mynewt/rust\app\src/touch_sensor.rs:163
        data.touches[i].action =
 2ec:	9860      	ldr	r0, [sp, #384]	; 0x180
 2ee:	2809      	cmp	r0, #9
 2f0:	9010      	str	r0, [sp, #64]	; 0x40
 2f2:	f200 81af 	bhi.w	654 <_ZN3app12touch_sensor14read_touchdata17h22f38f3ba6d0e0f1E+0x654>
 2f6:	e7ff      	b.n	2f8 <_ZN3app12touch_sensor14read_touchdata17h22f38f3ba6d0e0f1E+0x2f8>
 2f8:	982d      	ldr	r0, [sp, #180]	; 0xb4
 2fa:	9910      	ldr	r1, [sp, #64]	; 0x40
 2fc:	eb00 00c1 	add.w	r0, r0, r1, lsl #3
 300:	9a11      	ldr	r2, [sp, #68]	; 0x44
 302:	7102      	strb	r2, [r0, #4]
c:\PineTime\pinetime-rust-mynewt/rust\app\src/touch_sensor.rs:166
            unsafe { BUF[HYN_TOUCH_ID_POS    + HYN_TOUCH_STEP * i] } >> 4;
 304:	f240 0000 	movw	r0, #0
 308:	f2c0 0000 	movt	r0, #0
 30c:	906c      	str	r0, [sp, #432]	; 0x1b0
 30e:	9860      	ldr	r0, [sp, #384]	; 0x180
 310:	2306      	movs	r3, #6
 312:	fba3 0300 	umull	r0, r3, r3, r0
 316:	2b00      	cmp	r3, #0
 318:	900f      	str	r0, [sp, #60]	; 0x3c
 31a:	f040 81a4 	bne.w	666 <_ZN3app12touch_sensor14read_touchdata17h22f38f3ba6d0e0f1E+0x666>
 31e:	e7ff      	b.n	320 <_ZN3app12touch_sensor14read_touchdata17h22f38f3ba6d0e0f1E+0x320>
 320:	980f      	ldr	r0, [sp, #60]	; 0x3c
 322:	1d41      	adds	r1, r0, #5
 324:	460a      	mov	r2, r1
 326:	4281      	cmp	r1, r0
 328:	920e      	str	r2, [sp, #56]	; 0x38
 32a:	f0c0 81a8 	bcc.w	67e <_ZN3app12touch_sensor14read_touchdata17h22f38f3ba6d0e0f1E+0x67e>
 32e:	e7ff      	b.n	330 <_ZN3app12touch_sensor14read_touchdata17h22f38f3ba6d0e0f1E+0x330>
 330:	980e      	ldr	r0, [sp, #56]	; 0x38
 332:	283e      	cmp	r0, #62	; 0x3e
 334:	f200 81af 	bhi.w	696 <_ZN3app12touch_sensor14read_touchdata17h22f38f3ba6d0e0f1E+0x696>
 338:	e7ff      	b.n	33a <_ZN3app12touch_sensor14read_touchdata17h22f38f3ba6d0e0f1E+0x33a>
 33a:	986c      	ldr	r0, [sp, #432]	; 0x1b0
 33c:	990e      	ldr	r1, [sp, #56]	; 0x38
 33e:	5c40      	ldrb	r0, [r0, r1]
 340:	0900      	lsrs	r0, r0, #4
 342:	900d      	str	r0, [sp, #52]	; 0x34
 344:	e7ff      	b.n	346 <_ZN3app12touch_sensor14read_touchdata17h22f38f3ba6d0e0f1E+0x346>
c:\PineTime\pinetime-rust-mynewt/rust\app\src/touch_sensor.rs:165
        data.touches[i].finger =
 346:	9860      	ldr	r0, [sp, #384]	; 0x180
 348:	2809      	cmp	r0, #9
 34a:	900c      	str	r0, [sp, #48]	; 0x30
 34c:	f200 81ac 	bhi.w	6a8 <_ZN3app12touch_sensor14read_touchdata17h22f38f3ba6d0e0f1E+0x6a8>
 350:	e7ff      	b.n	352 <_ZN3app12touch_sensor14read_touchdata17h22f38f3ba6d0e0f1E+0x352>
 352:	982d      	ldr	r0, [sp, #180]	; 0xb4
 354:	990c      	ldr	r1, [sp, #48]	; 0x30
 356:	eb00 00c1 	add.w	r0, r0, r1, lsl #3
 35a:	9a0d      	ldr	r2, [sp, #52]	; 0x34
 35c:	7142      	strb	r2, [r0, #5]
c:\PineTime\pinetime-rust-mynewt/rust\app\src/touch_sensor.rs:170
            unsafe { BUF[HYN_TOUCH_XY_POS + HYN_TOUCH_STEP * i] };  //  Can't be constant value
 35e:	f240 0000 	movw	r0, #0
 362:	f2c0 0000 	movt	r0, #0
 366:	906d      	str	r0, [sp, #436]	; 0x1b4
 368:	9860      	ldr	r0, [sp, #384]	; 0x180
 36a:	2306      	movs	r3, #6
 36c:	fba3 0300 	umull	r0, r3, r3, r0
 370:	2b00      	cmp	r3, #0
 372:	900b      	str	r0, [sp, #44]	; 0x2c
 374:	f040 81a1 	bne.w	6ba <_ZN3app12touch_sensor14read_touchdata17h22f38f3ba6d0e0f1E+0x6ba>
 378:	e7ff      	b.n	37a <_ZN3app12touch_sensor14read_touchdata17h22f38f3ba6d0e0f1E+0x37a>
 37a:	980b      	ldr	r0, [sp, #44]	; 0x2c
 37c:	1dc1      	adds	r1, r0, #7
 37e:	460a      	mov	r2, r1
 380:	4281      	cmp	r1, r0
 382:	920a      	str	r2, [sp, #40]	; 0x28
 384:	f0c0 81a5 	bcc.w	6d2 <_ZN3app12touch_sensor14read_touchdata17h22f38f3ba6d0e0f1E+0x6d2>
 388:	e7ff      	b.n	38a <_ZN3app12touch_sensor14read_touchdata17h22f38f3ba6d0e0f1E+0x38a>
 38a:	980a      	ldr	r0, [sp, #40]	; 0x28
 38c:	283e      	cmp	r0, #62	; 0x3e
 38e:	f200 81ac 	bhi.w	6ea <_ZN3app12touch_sensor14read_touchdata17h22f38f3ba6d0e0f1E+0x6ea>
 392:	e7ff      	b.n	394 <_ZN3app12touch_sensor14read_touchdata17h22f38f3ba6d0e0f1E+0x394>
 394:	986d      	ldr	r0, [sp, #436]	; 0x1b4
 396:	990a      	ldr	r1, [sp, #40]	; 0x28
 398:	5c40      	ldrb	r0, [r0, r1]
c:\PineTime\pinetime-rust-mynewt/rust\app\src/touch_sensor.rs:169
        data.touches[i].pressure =
 39a:	9a60      	ldr	r2, [sp, #384]	; 0x180
 39c:	2a09      	cmp	r2, #9
 39e:	9009      	str	r0, [sp, #36]	; 0x24
 3a0:	9208      	str	r2, [sp, #32]
 3a2:	f200 81ab 	bhi.w	6fc <_ZN3app12touch_sensor14read_touchdata17h22f38f3ba6d0e0f1E+0x6fc>
 3a6:	e7ff      	b.n	3a8 <_ZN3app12touch_sensor14read_touchdata17h22f38f3ba6d0e0f1E+0x3a8>
 3a8:	982d      	ldr	r0, [sp, #180]	; 0xb4
 3aa:	9908      	ldr	r1, [sp, #32]
 3ac:	eb00 00c1 	add.w	r0, r0, r1, lsl #3
 3b0:	9a09      	ldr	r2, [sp, #36]	; 0x24
 3b2:	7182      	strb	r2, [r0, #6]
c:\PineTime\pinetime-rust-mynewt/rust\app\src/touch_sensor.rs:172
            unsafe { BUF[HYN_TOUCH_MISC   + HYN_TOUCH_STEP * i] } >> 4;
 3b4:	f240 0000 	movw	r0, #0
 3b8:	f2c0 0000 	movt	r0, #0
 3bc:	906e      	str	r0, [sp, #440]	; 0x1b8
 3be:	9860      	ldr	r0, [sp, #384]	; 0x180
 3c0:	2306      	movs	r3, #6
 3c2:	fba3 0300 	umull	r0, r3, r3, r0
 3c6:	2b00      	cmp	r3, #0
 3c8:	9007      	str	r0, [sp, #28]
 3ca:	f040 81a0 	bne.w	70e <_ZN3app12touch_sensor14read_touchdata17h22f38f3ba6d0e0f1E+0x70e>
 3ce:	e7ff      	b.n	3d0 <_ZN3app12touch_sensor14read_touchdata17h22f38f3ba6d0e0f1E+0x3d0>
 3d0:	9807      	ldr	r0, [sp, #28]
 3d2:	f100 0108 	add.w	r1, r0, #8
 3d6:	460a      	mov	r2, r1
 3d8:	4281      	cmp	r1, r0
 3da:	9206      	str	r2, [sp, #24]
 3dc:	f0c0 81a3 	bcc.w	726 <_ZN3app12touch_sensor14read_touchdata17h22f38f3ba6d0e0f1E+0x726>
 3e0:	e7ff      	b.n	3e2 <_ZN3app12touch_sensor14read_touchdata17h22f38f3ba6d0e0f1E+0x3e2>
 3e2:	9806      	ldr	r0, [sp, #24]
 3e4:	283e      	cmp	r0, #62	; 0x3e
 3e6:	f200 81aa 	bhi.w	73e <_ZN3app12touch_sensor14read_touchdata17h22f38f3ba6d0e0f1E+0x73e>
 3ea:	e7ff      	b.n	3ec <_ZN3app12touch_sensor14read_touchdata17h22f38f3ba6d0e0f1E+0x3ec>
 3ec:	986e      	ldr	r0, [sp, #440]	; 0x1b8
 3ee:	9906      	ldr	r1, [sp, #24]
 3f0:	5c40      	ldrb	r0, [r0, r1]
 3f2:	0900      	lsrs	r0, r0, #4
 3f4:	9005      	str	r0, [sp, #20]
 3f6:	e7ff      	b.n	3f8 <_ZN3app12touch_sensor14read_touchdata17h22f38f3ba6d0e0f1E+0x3f8>
c:\PineTime\pinetime-rust-mynewt/rust\app\src/touch_sensor.rs:171
        data.touches[i].area =
 3f8:	9860      	ldr	r0, [sp, #384]	; 0x180
 3fa:	2809      	cmp	r0, #9
 3fc:	9004      	str	r0, [sp, #16]
 3fe:	f200 81a7 	bhi.w	750 <_ZN3app12touch_sensor14read_touchdata17h22f38f3ba6d0e0f1E+0x750>
 402:	e7ff      	b.n	404 <_ZN3app12touch_sensor14read_touchdata17h22f38f3ba6d0e0f1E+0x404>
 404:	982d      	ldr	r0, [sp, #180]	; 0xb4
 406:	9904      	ldr	r1, [sp, #16]
 408:	eb00 00c1 	add.w	r0, r0, r1, lsl #3
 40c:	9a05      	ldr	r2, [sp, #20]
 40e:	71c2      	strb	r2, [r0, #7]
c:\PineTime\pinetime-rust-mynewt/rust\app\src/touch_sensor.rs:175
        if (data.touches[i].action == 0 || data.touches[i].action == 2)  //  If touch is down or contact
 410:	9860      	ldr	r0, [sp, #384]	; 0x180
 412:	280a      	cmp	r0, #10
 414:	9003      	str	r0, [sp, #12]
 416:	d327      	bcc.n	468 <_ZN3app12touch_sensor14read_touchdata17h22f38f3ba6d0e0f1E+0x468>
 418:	e1a3      	b.n	762 <_ZN3app12touch_sensor14read_touchdata17h22f38f3ba6d0e0f1E+0x762>
 41a:	2001      	movs	r0, #1
 41c:	f88d 01be 	strb.w	r0, [sp, #446]	; 0x1be
 420:	e009      	b.n	436 <_ZN3app12touch_sensor14read_touchdata17h22f38f3ba6d0e0f1E+0x436>
 422:	2000      	movs	r0, #0
 424:	f88d 01be 	strb.w	r0, [sp, #446]	; 0x1be
 428:	e005      	b.n	436 <_ZN3app12touch_sensor14read_touchdata17h22f38f3ba6d0e0f1E+0x436>
c:\PineTime\pinetime-rust-mynewt/rust\app\src/touch_sensor.rs:176
            && (data.point_num == 0) {
 42a:	982d      	ldr	r0, [sp, #180]	; 0xb4
 42c:	f890 0051 	ldrb.w	r0, [r0, #81]	; 0x51
c:\PineTime\pinetime-rust-mynewt/rust\app\src/touch_sensor.rs:175
        if (data.touches[i].action == 0 || data.touches[i].action == 2)  //  If touch is down or contact
 430:	2800      	cmp	r0, #0
 432:	d0f2      	beq.n	41a <_ZN3app12touch_sensor14read_touchdata17h22f38f3ba6d0e0f1E+0x41a>
 434:	e7f5      	b.n	422 <_ZN3app12touch_sensor14read_touchdata17h22f38f3ba6d0e0f1E+0x422>
 436:	f89d 01be 	ldrb.w	r0, [sp, #446]	; 0x1be
 43a:	07c0      	lsls	r0, r0, #31
 43c:	2800      	cmp	r0, #0
 43e:	d124      	bne.n	48a <_ZN3app12touch_sensor14read_touchdata17h22f38f3ba6d0e0f1E+0x48a>
 440:	e022      	b.n	488 <_ZN3app12touch_sensor14read_touchdata17h22f38f3ba6d0e0f1E+0x488>
 442:	2001      	movs	r0, #1
 444:	f88d 01bf 	strb.w	r0, [sp, #447]	; 0x1bf
 448:	e008      	b.n	45c <_ZN3app12touch_sensor14read_touchdata17h22f38f3ba6d0e0f1E+0x45c>
 44a:	2000      	movs	r0, #0
 44c:	f88d 01bf 	strb.w	r0, [sp, #447]	; 0x1bf
 450:	e004      	b.n	45c <_ZN3app12touch_sensor14read_touchdata17h22f38f3ba6d0e0f1E+0x45c>
 452:	9860      	ldr	r0, [sp, #384]	; 0x180
 454:	280a      	cmp	r0, #10
 456:	9002      	str	r0, [sp, #8]
 458:	d30e      	bcc.n	478 <_ZN3app12touch_sensor14read_touchdata17h22f38f3ba6d0e0f1E+0x478>
 45a:	e18b      	b.n	774 <_ZN3app12touch_sensor14read_touchdata17h22f38f3ba6d0e0f1E+0x774>
 45c:	f89d 01bf 	ldrb.w	r0, [sp, #447]	; 0x1bf
 460:	07c0      	lsls	r0, r0, #31
 462:	2800      	cmp	r0, #0
 464:	d1e1      	bne.n	42a <_ZN3app12touch_sensor14read_touchdata17h22f38f3ba6d0e0f1E+0x42a>
 466:	e7dc      	b.n	422 <_ZN3app12touch_sensor14read_touchdata17h22f38f3ba6d0e0f1E+0x422>
 468:	982d      	ldr	r0, [sp, #180]	; 0xb4
 46a:	9903      	ldr	r1, [sp, #12]
 46c:	eb00 00c1 	add.w	r0, r0, r1, lsl #3
 470:	7900      	ldrb	r0, [r0, #4]
 472:	2800      	cmp	r0, #0
 474:	d0e5      	beq.n	442 <_ZN3app12touch_sensor14read_touchdata17h22f38f3ba6d0e0f1E+0x442>
 476:	e7ec      	b.n	452 <_ZN3app12touch_sensor14read_touchdata17h22f38f3ba6d0e0f1E+0x452>
 478:	982d      	ldr	r0, [sp, #180]	; 0xb4
 47a:	9902      	ldr	r1, [sp, #8]
 47c:	eb00 00c1 	add.w	r0, r0, r1, lsl #3
 480:	7900      	ldrb	r0, [r0, #4]
 482:	2802      	cmp	r0, #2
 484:	d0dd      	beq.n	442 <_ZN3app12touch_sensor14read_touchdata17h22f38f3ba6d0e0f1E+0x442>
 486:	e7e0      	b.n	44a <_ZN3app12touch_sensor14read_touchdata17h22f38f3ba6d0e0f1E+0x44a>
c:\PineTime\pinetime-rust-mynewt/rust\app\src/touch_sensor.rs:148
    for i in 0..CFG_MAX_TOUCH_POINTS {
 488:	e60a      	b.n	a0 <_ZN3app12touch_sensor14read_touchdata17h22f38f3ba6d0e0f1E+0xa0>
c:\PineTime\pinetime-rust-mynewt/rust\app\src/touch_sensor.rs:177
            break;
 48a:	e654      	b.n	136 <_ZN3app12touch_sensor14read_touchdata17h22f38f3ba6d0e0f1E+0x136>
c:\PineTime\pinetime-rust-mynewt/rust\app\src/touch_sensor.rs:149
        let pointid = unsafe { BUF[HYN_TOUCH_ID_POS + HYN_TOUCH_STEP * i] } >> 4;
 48c:	f240 0000 	movw	r0, #0
 490:	f2c0 0000 	movt	r0, #0
 494:	f240 0200 	movw	r2, #0
 498:	f2c0 0200 	movt	r2, #0
 49c:	2121      	movs	r1, #33	; 0x21
 49e:	f7ff fffe 	bl	0 <_ZN4core9panicking5panic17hfdd0eecc44a682f8E>
 4a2:	defe      	udf	#254	; 0xfe
 4a4:	f240 0000 	movw	r0, #0
 4a8:	f2c0 0000 	movt	r0, #0
 4ac:	f240 0200 	movw	r2, #0
 4b0:	f2c0 0200 	movt	r2, #0
 4b4:	211c      	movs	r1, #28
 4b6:	f7ff fffe 	bl	0 <_ZN4core9panicking5panic17hfdd0eecc44a682f8E>
 4ba:	defe      	udf	#254	; 0xfe
 4bc:	f240 0000 	movw	r0, #0
 4c0:	f2c0 0000 	movt	r0, #0
 4c4:	223f      	movs	r2, #63	; 0x3f
 4c6:	9924      	ldr	r1, [sp, #144]	; 0x90
 4c8:	f7ff fffe 	bl	0 <_ZN4core9panicking18panic_bounds_check17hefada55beeee1c8fE>
 4cc:	defe      	udf	#254	; 0xfe
c:\PineTime\pinetime-rust-mynewt/rust\app\src/touch_sensor.rs:153
        data.count += 1;
 4ce:	f240 0000 	movw	r0, #0
 4d2:	f2c0 0000 	movt	r0, #0
 4d6:	f240 0200 	movw	r2, #0
 4da:	f2c0 0200 	movt	r2, #0
 4de:	211c      	movs	r1, #28
 4e0:	f7ff fffe 	bl	0 <_ZN4core9panicking5panic17hfdd0eecc44a682f8E>
 4e4:	defe      	udf	#254	; 0xfe
c:\PineTime\pinetime-rust-mynewt/rust\app\src/touch_sensor.rs:154
        let x_high = unsafe { BUF[HYN_TOUCH_X_H_POS + HYN_TOUCH_STEP * i] & 0x0F } as u16;
 4e6:	f240 0000 	movw	r0, #0
 4ea:	f2c0 0000 	movt	r0, #0
 4ee:	f240 0200 	movw	r2, #0
 4f2:	f2c0 0200 	movt	r2, #0
 4f6:	2121      	movs	r1, #33	; 0x21
 4f8:	f7ff fffe 	bl	0 <_ZN4core9panicking5panic17hfdd0eecc44a682f8E>
 4fc:	defe      	udf	#254	; 0xfe
 4fe:	f240 0000 	movw	r0, #0
 502:	f2c0 0000 	movt	r0, #0
 506:	f240 0200 	movw	r2, #0
 50a:	f2c0 0200 	movt	r2, #0
 50e:	211c      	movs	r1, #28
 510:	f7ff fffe 	bl	0 <_ZN4core9panicking5panic17hfdd0eecc44a682f8E>
 514:	defe      	udf	#254	; 0xfe
 516:	f240 0000 	movw	r0, #0
 51a:	f2c0 0000 	movt	r0, #0
 51e:	223f      	movs	r2, #63	; 0x3f
 520:	9920      	ldr	r1, [sp, #128]	; 0x80
 522:	f7ff fffe 	bl	0 <_ZN4core9panicking18panic_bounds_check17hefada55beeee1c8fE>
 526:	defe      	udf	#254	; 0xfe
c:\PineTime\pinetime-rust-mynewt/rust\app\src/touch_sensor.rs:155
        let x_low  = unsafe { BUF[HYN_TOUCH_X_L_POS + HYN_TOUCH_STEP * i] } as u16;
 528:	f240 0000 	movw	r0, #0
 52c:	f2c0 0000 	movt	r0, #0
 530:	f240 0200 	movw	r2, #0
 534:	f2c0 0200 	movt	r2, #0
 538:	2121      	movs	r1, #33	; 0x21
 53a:	f7ff fffe 	bl	0 <_ZN4core9panicking5panic17hfdd0eecc44a682f8E>
 53e:	defe      	udf	#254	; 0xfe
 540:	f240 0000 	movw	r0, #0
 544:	f2c0 0000 	movt	r0, #0
 548:	f240 0200 	movw	r2, #0
 54c:	f2c0 0200 	movt	r2, #0
 550:	211c      	movs	r1, #28
 552:	f7ff fffe 	bl	0 <_ZN4core9panicking5panic17hfdd0eecc44a682f8E>
 556:	defe      	udf	#254	; 0xfe
 558:	f240 0000 	movw	r0, #0
 55c:	f2c0 0000 	movt	r0, #0
 560:	223f      	movs	r2, #63	; 0x3f
 562:	991e      	ldr	r1, [sp, #120]	; 0x78
 564:	f7ff fffe 	bl	0 <_ZN4core9panicking18panic_bounds_check17hefada55beeee1c8fE>
 568:	defe      	udf	#254	; 0xfe
c:\PineTime\pinetime-rust-mynewt/rust\app\src/touch_sensor.rs:156
        data.touches[i].x  = (x_high << 8) | x_low;
 56a:	f240 0000 	movw	r0, #0
 56e:	f2c0 0000 	movt	r0, #0
 572:	220a      	movs	r2, #10
 574:	991b      	ldr	r1, [sp, #108]	; 0x6c
 576:	f7ff fffe 	bl	0 <_ZN4core9panicking18panic_bounds_check17hefada55beeee1c8fE>
 57a:	defe      	udf	#254	; 0xfe
c:\PineTime\pinetime-rust-mynewt/rust\app\src/touch_sensor.rs:158
        let y_high = unsafe { BUF[HYN_TOUCH_Y_H_POS + HYN_TOUCH_STEP * i] & 0x0F } as u16;
 57c:	f240 0000 	movw	r0, #0
 580:	f2c0 0000 	movt	r0, #0
 584:	f240 0200 	movw	r2, #0
 588:	f2c0 0200 	movt	r2, #0
 58c:	2121      	movs	r1, #33	; 0x21
 58e:	f7ff fffe 	bl	0 <_ZN4core9panicking5panic17hfdd0eecc44a682f8E>
 592:	defe      	udf	#254	; 0xfe
 594:	f240 0000 	movw	r0, #0
 598:	f2c0 0000 	movt	r0, #0
 59c:	f240 0200 	movw	r2, #0
 5a0:	f2c0 0200 	movt	r2, #0
 5a4:	211c      	movs	r1, #28
 5a6:	f7ff fffe 	bl	0 <_ZN4core9panicking5panic17hfdd0eecc44a682f8E>
 5aa:	defe      	udf	#254	; 0xfe
 5ac:	f240 0000 	movw	r0, #0
 5b0:	f2c0 0000 	movt	r0, #0
 5b4:	223f      	movs	r2, #63	; 0x3f
 5b6:	9919      	ldr	r1, [sp, #100]	; 0x64
 5b8:	f7ff fffe 	bl	0 <_ZN4core9panicking18panic_bounds_check17hefada55beeee1c8fE>
 5bc:	defe      	udf	#254	; 0xfe
c:\PineTime\pinetime-rust-mynewt/rust\app\src/touch_sensor.rs:159
        let y_low  = unsafe { BUF[HYN_TOUCH_Y_L_POS + HYN_TOUCH_STEP * i] } as u16;
 5be:	f240 0000 	movw	r0, #0
 5c2:	f2c0 0000 	movt	r0, #0
 5c6:	f240 0200 	movw	r2, #0
 5ca:	f2c0 0200 	movt	r2, #0
 5ce:	2121      	movs	r1, #33	; 0x21
 5d0:	f7ff fffe 	bl	0 <_ZN4core9panicking5panic17hfdd0eecc44a682f8E>
 5d4:	defe      	udf	#254	; 0xfe
 5d6:	f240 0000 	movw	r0, #0
 5da:	f2c0 0000 	movt	r0, #0
 5de:	f240 0200 	movw	r2, #0
 5e2:	f2c0 0200 	movt	r2, #0
 5e6:	211c      	movs	r1, #28
 5e8:	f7ff fffe 	bl	0 <_ZN4core9panicking5panic17hfdd0eecc44a682f8E>
 5ec:	defe      	udf	#254	; 0xfe
 5ee:	f240 0000 	movw	r0, #0
 5f2:	f2c0 0000 	movt	r0, #0
 5f6:	223f      	movs	r2, #63	; 0x3f
 5f8:	9917      	ldr	r1, [sp, #92]	; 0x5c
 5fa:	f7ff fffe 	bl	0 <_ZN4core9panicking18panic_bounds_check17hefada55beeee1c8fE>
 5fe:	defe      	udf	#254	; 0xfe
c:\PineTime\pinetime-rust-mynewt/rust\app\src/touch_sensor.rs:160
        data.touches[i].y  = (y_high << 8) | y_low;
 600:	f240 0000 	movw	r0, #0
 604:	f2c0 0000 	movt	r0, #0
 608:	220a      	movs	r2, #10
 60a:	9914      	ldr	r1, [sp, #80]	; 0x50
 60c:	f7ff fffe 	bl	0 <_ZN4core9panicking18panic_bounds_check17hefada55beeee1c8fE>
 610:	defe      	udf	#254	; 0xfe
c:\PineTime\pinetime-rust-mynewt/rust\app\src/touch_sensor.rs:164
            unsafe { BUF[HYN_TOUCH_EVENT_POS + HYN_TOUCH_STEP * i] } >> 6;
 612:	f240 0000 	movw	r0, #0
 616:	f2c0 0000 	movt	r0, #0
 61a:	f240 0200 	movw	r2, #0
 61e:	f2c0 0200 	movt	r2, #0
 622:	2121      	movs	r1, #33	; 0x21
 624:	f7ff fffe 	bl	0 <_ZN4core9panicking5panic17hfdd0eecc44a682f8E>
 628:	defe      	udf	#254	; 0xfe
 62a:	f240 0000 	movw	r0, #0
 62e:	f2c0 0000 	movt	r0, #0
 632:	f240 0200 	movw	r2, #0
 636:	f2c0 0200 	movt	r2, #0
 63a:	211c      	movs	r1, #28
 63c:	f7ff fffe 	bl	0 <_ZN4core9panicking5panic17hfdd0eecc44a682f8E>
 640:	defe      	udf	#254	; 0xfe
 642:	f240 0000 	movw	r0, #0
 646:	f2c0 0000 	movt	r0, #0
 64a:	223f      	movs	r2, #63	; 0x3f
 64c:	9912      	ldr	r1, [sp, #72]	; 0x48
 64e:	f7ff fffe 	bl	0 <_ZN4core9panicking18panic_bounds_check17hefada55beeee1c8fE>
 652:	defe      	udf	#254	; 0xfe
c:\PineTime\pinetime-rust-mynewt/rust\app\src/touch_sensor.rs:163
        data.touches[i].action =
 654:	f240 0000 	movw	r0, #0
 658:	f2c0 0000 	movt	r0, #0
 65c:	220a      	movs	r2, #10
 65e:	9910      	ldr	r1, [sp, #64]	; 0x40
 660:	f7ff fffe 	bl	0 <_ZN4core9panicking18panic_bounds_check17hefada55beeee1c8fE>
 664:	defe      	udf	#254	; 0xfe
c:\PineTime\pinetime-rust-mynewt/rust\app\src/touch_sensor.rs:166
            unsafe { BUF[HYN_TOUCH_ID_POS    + HYN_TOUCH_STEP * i] } >> 4;
 666:	f240 0000 	movw	r0, #0
 66a:	f2c0 0000 	movt	r0, #0
 66e:	f240 0200 	movw	r2, #0
 672:	f2c0 0200 	movt	r2, #0
 676:	2121      	movs	r1, #33	; 0x21
 678:	f7ff fffe 	bl	0 <_ZN4core9panicking5panic17hfdd0eecc44a682f8E>
 67c:	defe      	udf	#254	; 0xfe
 67e:	f240 0000 	movw	r0, #0
 682:	f2c0 0000 	movt	r0, #0
 686:	f240 0200 	movw	r2, #0
 68a:	f2c0 0200 	movt	r2, #0
 68e:	211c      	movs	r1, #28
 690:	f7ff fffe 	bl	0 <_ZN4core9panicking5panic17hfdd0eecc44a682f8E>
 694:	defe      	udf	#254	; 0xfe
 696:	f240 0000 	movw	r0, #0
 69a:	f2c0 0000 	movt	r0, #0
 69e:	223f      	movs	r2, #63	; 0x3f
 6a0:	990e      	ldr	r1, [sp, #56]	; 0x38
 6a2:	f7ff fffe 	bl	0 <_ZN4core9panicking18panic_bounds_check17hefada55beeee1c8fE>
 6a6:	defe      	udf	#254	; 0xfe
c:\PineTime\pinetime-rust-mynewt/rust\app\src/touch_sensor.rs:165
        data.touches[i].finger =
 6a8:	f240 0000 	movw	r0, #0
 6ac:	f2c0 0000 	movt	r0, #0
 6b0:	220a      	movs	r2, #10
 6b2:	990c      	ldr	r1, [sp, #48]	; 0x30
 6b4:	f7ff fffe 	bl	0 <_ZN4core9panicking18panic_bounds_check17hefada55beeee1c8fE>
 6b8:	defe      	udf	#254	; 0xfe
c:\PineTime\pinetime-rust-mynewt/rust\app\src/touch_sensor.rs:170
            unsafe { BUF[HYN_TOUCH_XY_POS + HYN_TOUCH_STEP * i] };  //  Can't be constant value
 6ba:	f240 0000 	movw	r0, #0
 6be:	f2c0 0000 	movt	r0, #0
 6c2:	f240 0200 	movw	r2, #0
 6c6:	f2c0 0200 	movt	r2, #0
 6ca:	2121      	movs	r1, #33	; 0x21
 6cc:	f7ff fffe 	bl	0 <_ZN4core9panicking5panic17hfdd0eecc44a682f8E>
 6d0:	defe      	udf	#254	; 0xfe
 6d2:	f240 0000 	movw	r0, #0
 6d6:	f2c0 0000 	movt	r0, #0
 6da:	f240 0200 	movw	r2, #0
 6de:	f2c0 0200 	movt	r2, #0
 6e2:	211c      	movs	r1, #28
 6e4:	f7ff fffe 	bl	0 <_ZN4core9panicking5panic17hfdd0eecc44a682f8E>
 6e8:	defe      	udf	#254	; 0xfe
 6ea:	f240 0000 	movw	r0, #0
 6ee:	f2c0 0000 	movt	r0, #0
 6f2:	223f      	movs	r2, #63	; 0x3f
 6f4:	990a      	ldr	r1, [sp, #40]	; 0x28
 6f6:	f7ff fffe 	bl	0 <_ZN4core9panicking18panic_bounds_check17hefada55beeee1c8fE>
 6fa:	defe      	udf	#254	; 0xfe
c:\PineTime\pinetime-rust-mynewt/rust\app\src/touch_sensor.rs:169
        data.touches[i].pressure =
 6fc:	f240 0000 	movw	r0, #0
 700:	f2c0 0000 	movt	r0, #0
 704:	220a      	movs	r2, #10
 706:	9908      	ldr	r1, [sp, #32]
 708:	f7ff fffe 	bl	0 <_ZN4core9panicking18panic_bounds_check17hefada55beeee1c8fE>
 70c:	defe      	udf	#254	; 0xfe
c:\PineTime\pinetime-rust-mynewt/rust\app\src/touch_sensor.rs:172
            unsafe { BUF[HYN_TOUCH_MISC   + HYN_TOUCH_STEP * i] } >> 4;
 70e:	f240 0000 	movw	r0, #0
 712:	f2c0 0000 	movt	r0, #0
 716:	f240 0200 	movw	r2, #0
 71a:	f2c0 0200 	movt	r2, #0
 71e:	2121      	movs	r1, #33	; 0x21
 720:	f7ff fffe 	bl	0 <_ZN4core9panicking5panic17hfdd0eecc44a682f8E>
 724:	defe      	udf	#254	; 0xfe
 726:	f240 0000 	movw	r0, #0
 72a:	f2c0 0000 	movt	r0, #0
 72e:	f240 0200 	movw	r2, #0
 732:	f2c0 0200 	movt	r2, #0
 736:	211c      	movs	r1, #28
 738:	f7ff fffe 	bl	0 <_ZN4core9panicking5panic17hfdd0eecc44a682f8E>
 73c:	defe      	udf	#254	; 0xfe
 73e:	f240 0000 	movw	r0, #0
 742:	f2c0 0000 	movt	r0, #0
 746:	223f      	movs	r2, #63	; 0x3f
 748:	9906      	ldr	r1, [sp, #24]
 74a:	f7ff fffe 	bl	0 <_ZN4core9panicking18panic_bounds_check17hefada55beeee1c8fE>
 74e:	defe      	udf	#254	; 0xfe
c:\PineTime\pinetime-rust-mynewt/rust\app\src/touch_sensor.rs:171
        data.touches[i].area =
 750:	f240 0000 	movw	r0, #0
 754:	f2c0 0000 	movt	r0, #0
 758:	220a      	movs	r2, #10
 75a:	9904      	ldr	r1, [sp, #16]
 75c:	f7ff fffe 	bl	0 <_ZN4core9panicking18panic_bounds_check17hefada55beeee1c8fE>
 760:	defe      	udf	#254	; 0xfe
c:\PineTime\pinetime-rust-mynewt/rust\app\src/touch_sensor.rs:175
        if (data.touches[i].action == 0 || data.touches[i].action == 2)  //  If touch is down or contact
 762:	f240 0000 	movw	r0, #0
 766:	f2c0 0000 	movt	r0, #0
 76a:	220a      	movs	r2, #10
 76c:	9903      	ldr	r1, [sp, #12]
 76e:	f7ff fffe 	bl	0 <_ZN4core9panicking18panic_bounds_check17hefada55beeee1c8fE>
 772:	defe      	udf	#254	; 0xfe
 774:	f240 0000 	movw	r0, #0
 778:	f2c0 0000 	movt	r0, #0
 77c:	220a      	movs	r2, #10
 77e:	9902      	ldr	r1, [sp, #8]
 780:	f7ff fffe 	bl	0 <_ZN4core9panicking18panic_bounds_check17hefada55beeee1c8fE>
 784:	defe      	udf	#254	; 0xfe

Disassembly of section .text._ZN3app12touch_sensor19read_register_range17hab14c31f3ed3e51dE:

00000000 <_ZN3app12touch_sensor19read_register_range17hab14c31f3ed3e51dE>:
_ZN3app12touch_sensor19read_register_range17hab14c31f3ed3e51dE():
c:\PineTime\pinetime-rust-mynewt/rust\app\src/touch_sensor.rs:240

/// Event that will be forwarded to the Event Queue when a touch interrupt is triggered
static mut TOUCH_EVENT: os_event = fill_zero!(os_event);  //  Init all fields to 0 or NULL

/// Read a range of I2C registers from the I2C address `addr` (7-bit address), starting at `start_register` for count `num_registers`. Save into `buffer`.
fn read_register_range(addr: u8, start_register: u8, num_registers: u8, buffer: &mut[u8]) -> MynewtResult<()> {
   0:	b5b0      	push	{r4, r5, r7, lr}
   2:	b09e      	sub	sp, #120	; 0x78
   4:	f8dd c088 	ldr.w	ip, [sp, #136]	; 0x88
   8:	4696      	mov	lr, r2
   a:	460c      	mov	r4, r1
   c:	4605      	mov	r5, r0
   e:	f88d 0039 	strb.w	r0, [sp, #57]	; 0x39
  12:	f88d 103a 	strb.w	r1, [sp, #58]	; 0x3a
  16:	f88d 203b 	strb.w	r2, [sp, #59]	; 0x3b
  1a:	930f      	str	r3, [sp, #60]	; 0x3c
  1c:	f8cd c040 	str.w	ip, [sp, #64]	; 0x40
c:\PineTime\pinetime-rust-mynewt/rust\app\src/touch_sensor.rs:241
    assert!(buffer.len() >= num_registers as usize, "i2c buf");  //  Buffer too small
  20:	980f      	ldr	r0, [sp, #60]	; 0x3c
  22:	9910      	ldr	r1, [sp, #64]	; 0x40
  24:	f8cd e034 	str.w	lr, [sp, #52]	; 0x34
  28:	940c      	str	r4, [sp, #48]	; 0x30
  2a:	950b      	str	r5, [sp, #44]	; 0x2c
  2c:	f7ff fffe 	bl	0 <_ZN4core5slice29_$LT$impl$u20$$u5b$T$u5d$$GT$3len17h1404ef225eaa1428E>
  30:	900a      	str	r0, [sp, #40]	; 0x28
  32:	e7ff      	b.n	34 <_ZN3app12touch_sensor19read_register_range17hab14c31f3ed3e51dE+0x34>
  34:	f89d 003b 	ldrb.w	r0, [sp, #59]	; 0x3b
  38:	990a      	ldr	r1, [sp, #40]	; 0x28
  3a:	4281      	cmp	r1, r0
  3c:	d30c      	bcc.n	58 <_ZN3app12touch_sensor19read_register_range17hab14c31f3ed3e51dE+0x58>
  3e:	e7ff      	b.n	40 <_ZN3app12touch_sensor19read_register_range17hab14c31f3ed3e51dE+0x40>
c:\PineTime\pinetime-rust-mynewt/rust\app\src/touch_sensor.rs:242
    assert!(start_register + num_registers < 128, "i2c addr");   //  Not 7-bit address
  40:	f89d 003a 	ldrb.w	r0, [sp, #58]	; 0x3a
  44:	f89d 103b 	ldrb.w	r1, [sp, #59]	; 0x3b
  48:	4408      	add	r0, r1
  4a:	b2c1      	uxtb	r1, r0
  4c:	4602      	mov	r2, r0
  4e:	4281      	cmp	r1, r0
  50:	9209      	str	r2, [sp, #36]	; 0x24
  52:	f040 80b0 	bne.w	1b6 <_ZN3app12touch_sensor19read_register_range17hab14c31f3ed3e51dE+0x1b6>
  56:	e010      	b.n	24 <_ZN3app12touch_sensor19read_register_range17hab14c31f3ed3e51dE+0x24>
c:\PineTime\pinetime-rust-mynewt/rust\app\src/touch_sensor.rs:241
    assert!(buffer.len() >= num_registers as usize, "i2c buf");  //  Buffer too small
  58:	f240 0000 	movw	r0, #0
  5c:	f2c0 0000 	movt	r0, #0
  60:	901c      	str	r0, [sp, #112]	; 0x70
  62:	9a1c      	ldr	r2, [sp, #112]	; 0x70
  64:	9208      	str	r2, [sp, #32]
  66:	e7ff      	b.n	68 <_ZN3app12touch_sensor19read_register_range17hab14c31f3ed3e51dE+0x68>
  68:	f240 0000 	movw	r0, #0
  6c:	f2c0 0000 	movt	r0, #0
  70:	2107      	movs	r1, #7
  72:	9a08      	ldr	r2, [sp, #32]
  74:	f7ff fffe 	bl	0 <_ZN4core9panicking5panic17hfdd0eecc44a682f8E>
  78:	defe      	udf	#254	; 0xfe
c:\PineTime\pinetime-rust-mynewt/rust\app\src/touch_sensor.rs:242
    assert!(start_register + num_registers < 128, "i2c addr");   //  Not 7-bit address
  7a:	9809      	ldr	r0, [sp, #36]	; 0x24
  7c:	b241      	sxtb	r1, r0
  7e:	2900      	cmp	r1, #0
  80:	d41a      	bmi.n	b8 <_ZN3app12touch_sensor19read_register_range17hab14c31f3ed3e51dE+0xb8>
  82:	e7ff      	b.n	84 <_ZN3app12touch_sensor19read_register_range17hab14c31f3ed3e51dE+0x84>
c:\PineTime\pinetime-rust-mynewt/rust\app\src/touch_sensor.rs:251
    //    Send the Start Condition (High to Low SDA Transition)...
    //    Followed by I2C Address (7 bits)...
    //    Followed by Write Mode (1 bit, value 0)...
    //    Followed by starting Register Number (8 bits)
    unsafe { 
        I2C_BUFFER[0] = start_register;  //  I2C Packet buffer contains starting Register Number (1 byte)
  84:	f89d 003a 	ldrb.w	r0, [sp, #58]	; 0x3a
  88:	f240 0100 	movw	r1, #0
  8c:	f2c0 0100 	movt	r1, #0
  90:	9112      	str	r1, [sp, #72]	; 0x48
  92:	9a12      	ldr	r2, [sp, #72]	; 0x48
  94:	7010      	strb	r0, [r2, #0]
c:\PineTime\pinetime-rust-mynewt/rust\app\src/touch_sensor.rs:252
        I2C_DATA.address = addr;         //  I2C Packet address (7 bits)
  96:	f89d 0039 	ldrb.w	r0, [sp, #57]	; 0x39
  9a:	f240 0200 	movw	r2, #0
  9e:	f2c0 0200 	movt	r2, #0
  a2:	9213      	str	r2, [sp, #76]	; 0x4c
  a4:	9a13      	ldr	r2, [sp, #76]	; 0x4c
  a6:	7010      	strb	r0, [r2, #0]
  a8:	2001      	movs	r0, #1
c:\PineTime\pinetime-rust-mynewt/rust\app\src/touch_sensor.rs:253
        I2C_DATA.len = I2C_BUFFER.len() as u16;     //  I2C Packet data size is 1 byte
  aa:	9007      	str	r0, [sp, #28]
  ac:	4608      	mov	r0, r1
  ae:	9907      	ldr	r1, [sp, #28]
  b0:	f7ff fffe 	bl	0 <_ZN4core5slice29_$LT$impl$u20$$u5b$T$u5d$$GT$3len17h1404ef225eaa1428E>
  b4:	9006      	str	r0, [sp, #24]
  b6:	e010      	b.n	da <_ZN3app12touch_sensor19read_register_range17hab14c31f3ed3e51dE+0xda>
c:\PineTime\pinetime-rust-mynewt/rust\app\src/touch_sensor.rs:242
    assert!(start_register + num_registers < 128, "i2c addr");   //  Not 7-bit address
  b8:	f240 0000 	movw	r0, #0
  bc:	f2c0 0000 	movt	r0, #0
  c0:	901d      	str	r0, [sp, #116]	; 0x74
  c2:	9a1d      	ldr	r2, [sp, #116]	; 0x74
  c4:	9205      	str	r2, [sp, #20]
  c6:	e7ff      	b.n	c8 <_ZN3app12touch_sensor19read_register_range17hab14c31f3ed3e51dE+0xc8>
  c8:	f240 0000 	movw	r0, #0
  cc:	f2c0 0000 	movt	r0, #0
  d0:	2108      	movs	r1, #8
  d2:	9a05      	ldr	r2, [sp, #20]
  d4:	f7ff fffe 	bl	0 <_ZN4core9panicking5panic17hfdd0eecc44a682f8E>
  d8:	defe      	udf	#254	; 0xfe
c:\PineTime\pinetime-rust-mynewt/rust\app\src/touch_sensor.rs:253
        I2C_DATA.len = I2C_BUFFER.len() as u16;     //  I2C Packet data size is 1 byte
  da:	f240 0000 	movw	r0, #0
  de:	f2c0 0000 	movt	r0, #0
  e2:	9014      	str	r0, [sp, #80]	; 0x50
  e4:	9814      	ldr	r0, [sp, #80]	; 0x50
  e6:	9906      	ldr	r1, [sp, #24]
  e8:	8041      	strh	r1, [r0, #2]
c:\PineTime\pinetime-rust-mynewt/rust\app\src/touch_sensor.rs:254
        I2C_DATA.buffer = I2C_BUFFER.as_mut_ptr();  //  I2C Packet data points to packet buffer
  ea:	f240 0000 	movw	r0, #0
  ee:	f2c0 0000 	movt	r0, #0
  f2:	2101      	movs	r1, #1
  f4:	f7ff fffe 	bl	0 <_ZN4core5slice29_$LT$impl$u20$$u5b$T$u5d$$GT$10as_mut_ptr17hf1859ba8f68f8b38E>
  f8:	9004      	str	r0, [sp, #16]
  fa:	e7ff      	b.n	fc <_ZN3app12touch_sensor19read_register_range17hab14c31f3ed3e51dE+0xfc>
  fc:	f240 0000 	movw	r0, #0
 100:	f2c0 0000 	movt	r0, #0
 104:	9015      	str	r0, [sp, #84]	; 0x54
 106:	9915      	ldr	r1, [sp, #84]	; 0x54
 108:	9a04      	ldr	r2, [sp, #16]
 10a:	604a      	str	r2, [r1, #4]
 10c:	2101      	movs	r1, #1
 10e:	f44f 727a 	mov.w	r2, #1000	; 0x3e8
 112:	2300      	movs	r3, #0
c:\PineTime\pinetime-rust-mynewt/rust\app\src/touch_sensor.rs:256
    };
    let _rc1 = unsafe { hal::hal_i2c_master_write(1, &mut I2C_DATA, 1000, 0) };  //  No stop yet, must continue even if we hit an error
 114:	9003      	str	r0, [sp, #12]
 116:	4608      	mov	r0, r1
 118:	9903      	ldr	r1, [sp, #12]
 11a:	f7ff fffe 	bl	0 <hal_i2c_master_write>
 11e:	9016      	str	r0, [sp, #88]	; 0x58
 120:	e7ff      	b.n	122 <_ZN3app12touch_sensor19read_register_range17hab14c31f3ed3e51dE+0x122>
c:\PineTime\pinetime-rust-mynewt/rust\app\src/touch_sensor.rs:262
    //  Step 3: Prepare to receive the stream of I2C Device Register values...
    //    Send the Start Condition (High to Low SDA Transition)...
    //    Followed by I2C Address (7 bits)...
    //    Followed by Read Mode (1 bit, value 1)
    unsafe { 
        I2C_BUFFER[0] = 0x00;     //  I2C Packet buffer should be empty (provided by caller)
 122:	f240 0000 	movw	r0, #0
 126:	f2c0 0000 	movt	r0, #0
 12a:	9017      	str	r0, [sp, #92]	; 0x5c
 12c:	9817      	ldr	r0, [sp, #92]	; 0x5c
 12e:	2100      	movs	r1, #0
 130:	7001      	strb	r1, [r0, #0]
c:\PineTime\pinetime-rust-mynewt/rust\app\src/touch_sensor.rs:263
        I2C_DATA.address = addr;  //  I2C Packet address (7 bits)
 132:	f89d 0039 	ldrb.w	r0, [sp, #57]	; 0x39
 136:	f240 0100 	movw	r1, #0
 13a:	f2c0 0100 	movt	r1, #0
 13e:	9118      	str	r1, [sp, #96]	; 0x60
 140:	9a18      	ldr	r2, [sp, #96]	; 0x60
 142:	7010      	strb	r0, [r2, #0]
c:\PineTime\pinetime-rust-mynewt/rust\app\src/touch_sensor.rs:264
        I2C_DATA.len = num_registers as u16;    //  I2C Packet data size is number of Registers to read
 144:	f89d 003b 	ldrb.w	r0, [sp, #59]	; 0x3b
 148:	9119      	str	r1, [sp, #100]	; 0x64
 14a:	9919      	ldr	r1, [sp, #100]	; 0x64
 14c:	8048      	strh	r0, [r1, #2]
c:\PineTime\pinetime-rust-mynewt/rust\app\src/touch_sensor.rs:265
        I2C_DATA.buffer = buffer.as_mut_ptr();  //  I2C Packet data points to packet buffer
 14e:	980f      	ldr	r0, [sp, #60]	; 0x3c
 150:	9910      	ldr	r1, [sp, #64]	; 0x40
 152:	f7ff fffe 	bl	0 <_ZN4core5slice29_$LT$impl$u20$$u5b$T$u5d$$GT$10as_mut_ptr17hf1859ba8f68f8b38E>
 156:	9002      	str	r0, [sp, #8]
 158:	e7ff      	b.n	15a <_ZN3app12touch_sensor19read_register_range17hab14c31f3ed3e51dE+0x15a>
 15a:	f240 0000 	movw	r0, #0
 15e:	f2c0 0000 	movt	r0, #0
 162:	901a      	str	r0, [sp, #104]	; 0x68
 164:	991a      	ldr	r1, [sp, #104]	; 0x68
 166:	9a02      	ldr	r2, [sp, #8]
 168:	604a      	str	r2, [r1, #4]
 16a:	f44f 727a 	mov.w	r2, #1000	; 0x3e8
 16e:	2101      	movs	r1, #1
c:\PineTime\pinetime-rust-mynewt/rust\app\src/touch_sensor.rs:269
    };
    //  Step 4: Receive the requested number of Register values from I2C Device (1 byte per register)
    //  Step 5: Send the Stop Condition (Low to High SDA Transition)
    let rc2 = unsafe { hal::hal_i2c_master_read(1, &mut I2C_DATA, 1000, 1) };
 170:	9001      	str	r0, [sp, #4]
 172:	4608      	mov	r0, r1
 174:	9b01      	ldr	r3, [sp, #4]
 176:	9100      	str	r1, [sp, #0]
 178:	4619      	mov	r1, r3
 17a:	9b00      	ldr	r3, [sp, #0]
 17c:	f7ff fffe 	bl	0 <hal_i2c_master_read>
 180:	901b      	str	r0, [sp, #108]	; 0x6c
 182:	e7ff      	b.n	184 <_ZN3app12touch_sensor19read_register_range17hab14c31f3ed3e51dE+0x184>
c:\PineTime\pinetime-rust-mynewt/rust\app\src/touch_sensor.rs:270
    if rc2 == hal::HAL_I2C_ERR_ADDR_NACK as i32 {
 184:	981b      	ldr	r0, [sp, #108]	; 0x6c
 186:	2804      	cmp	r0, #4
 188:	d005      	beq.n	196 <_ZN3app12touch_sensor19read_register_range17hab14c31f3ed3e51dE+0x196>
 18a:	e7ff      	b.n	18c <_ZN3app12touch_sensor19read_register_range17hab14c31f3ed3e51dE+0x18c>
 18c:	2000      	movs	r0, #0
c:\PineTime\pinetime-rust-mynewt/rust\app\src/touch_sensor.rs:275
        ////assert!(false, "i2c fail");  //  I2C read failed
        console::print("i2c fail\n"); ////
        return Ok(());               //  TODO: Return an error
    }
    Ok(())
 18e:	9011      	str	r0, [sp, #68]	; 0x44
 190:	2001      	movs	r0, #1
 192:	9011      	str	r0, [sp, #68]	; 0x44
c:\PineTime\pinetime-rust-mynewt/rust\app\src/touch_sensor.rs:276
}
 194:	e00c      	b.n	1b0 <_ZN3app12touch_sensor19read_register_range17hab14c31f3ed3e51dE+0x1b0>
c:\PineTime\pinetime-rust-mynewt/rust\app\src/touch_sensor.rs:272
        console::print("i2c fail\n"); ////
 196:	f240 0000 	movw	r0, #0
 19a:	f2c0 0000 	movt	r0, #0
 19e:	2109      	movs	r1, #9
 1a0:	f7ff fffe 	bl	0 <_ZN6mynewt3sys7console5print17h4f6750301ba25348E>
 1a4:	e7ff      	b.n	1a6 <_ZN3app12touch_sensor19read_register_range17hab14c31f3ed3e51dE+0x1a6>
 1a6:	2000      	movs	r0, #0
c:\PineTime\pinetime-rust-mynewt/rust\app\src/touch_sensor.rs:273
        return Ok(());               //  TODO: Return an error
 1a8:	9011      	str	r0, [sp, #68]	; 0x44
 1aa:	2001      	movs	r0, #1
 1ac:	9011      	str	r0, [sp, #68]	; 0x44
 1ae:	e7ff      	b.n	1b0 <_ZN3app12touch_sensor19read_register_range17hab14c31f3ed3e51dE+0x1b0>
c:\PineTime\pinetime-rust-mynewt/rust\app\src/touch_sensor.rs:276
}
 1b0:	9811      	ldr	r0, [sp, #68]	; 0x44
 1b2:	b01e      	add	sp, #120	; 0x78
 1b4:	bdb0      	pop	{r4, r5, r7, pc}
c:\PineTime\pinetime-rust-mynewt/rust\app\src/touch_sensor.rs:242
    assert!(start_register + num_registers < 128, "i2c addr");   //  Not 7-bit address
 1b6:	f240 0000 	movw	r0, #0
 1ba:	f2c0 0000 	movt	r0, #0
 1be:	f240 0200 	movw	r2, #0
 1c2:	f2c0 0200 	movt	r2, #0
 1c6:	211c      	movs	r1, #28
 1c8:	f7ff fffe 	bl	0 <_ZN4core9panicking5panic17hfdd0eecc44a682f8E>
 1cc:	defe      	udf	#254	; 0xfe

app-2bc386860c9913e9.1gwqdlbjjmycqyso.rcgu.o:     file format elf32-littlearm

SYMBOL TABLE:
00000000 l    df *ABS*	00000000 1gwqdlbjjmycqyso
00000119 l       .debug_str	00000000 
00000237 l       .debug_str	00000000 
00000263 l       .debug_str	00000000 
0000022f l       .debug_str	00000000 
0000025e l       .debug_str	00000000 
00000227 l       .debug_str	00000000 
00000252 l       .debug_str	00000000 
00000222 l       .debug_str	00000000 
00000000 l       .debug_str	00000000 
00000041 l       .debug_str	00000000 
00000055 l       .debug_str	00000000 
00000076 l       .debug_str	00000000 
0000007b l       .debug_str	00000000 
0000007f l       .debug_str	00000000 
00000088 l       .debug_str	00000000 
0000008a l       .debug_str	00000000 
0000008e l       .debug_str	00000000 
00000095 l       .debug_str	00000000 
0000009e l       .debug_str	00000000 
000000a1 l       .debug_str	00000000 
000000ab l       .debug_str	00000000 
000000b2 l       .debug_str	00000000 
000000b8 l       .debug_str	00000000 
000000bd l       .debug_str	00000000 
000000bf l       .debug_str	00000000 
00000106 l       .debug_str	00000000 
000001c4 l       .debug_str	00000000 
00000120 l       .debug_str	00000000 
00000124 l       .debug_str	00000000 
00000129 l       .debug_str	00000000 
0000012f l       .debug_str	00000000 
00000134 l       .debug_str	00000000 
00000138 l       .debug_str	00000000 
00000146 l       .debug_str	00000000 
00000182 l       .debug_str	00000000 
0000018b l       .debug_str	00000000 
00000190 l       .debug_str	00000000 
000001bb l       .debug_str	00000000 
0000023e l       .debug_str	00000000 
00000000 l    d  .text._ZN31_$LT$dyn$u20$core..any..Any$GT$12downcast_ref17hecc0330afaa15cc3E	00000000 .text._ZN31_$LT$dyn$u20$core..any..Any$GT$12downcast_ref17hecc0330afaa15cc3E
00000000 l    d  .text._ZN31_$LT$dyn$u20$core..any..Any$GT$2is17h992e691c28823333E	00000000 .text._ZN31_$LT$dyn$u20$core..any..Any$GT$2is17h992e691c28823333E
00000000 l    d  .text._ZN4core3any6TypeId2of17hc121a2a6b1e7dfe4E	00000000 .text._ZN4core3any6TypeId2of17hc121a2a6b1e7dfe4E
00000000 l    d  .text._ZN54_$LT$dyn$u20$core..any..Any$u2b$core..marker..Send$GT$12downcast_ref17h6328aaa70d287a4fE	00000000 .text._ZN54_$LT$dyn$u20$core..any..Any$u2b$core..marker..Send$GT$12downcast_ref17h6328aaa70d287a4fE
00000000 l    d  .debug_abbrev	00000000 .debug_abbrev
00000000 l    d  .debug_info	00000000 .debug_info
00000000 l    d  .debug_ranges	00000000 .debug_ranges
00000000 l    d  .debug_frame	00000000 .debug_frame
00000000 l    d  .debug_line	00000000 .debug_line
00000000 g     F .text._ZN31_$LT$dyn$u20$core..any..Any$GT$12downcast_ref17hecc0330afaa15cc3E	00000030 _ZN31_$LT$dyn$u20$core..any..Any$GT$12downcast_ref17hecc0330afaa15cc3E
00000000 g     F .text._ZN31_$LT$dyn$u20$core..any..Any$GT$2is17h992e691c28823333E	00000036 _ZN31_$LT$dyn$u20$core..any..Any$GT$2is17h992e691c28823333E
00000000 g     F .text._ZN4core3any6TypeId2of17hc121a2a6b1e7dfe4E	00000030 _ZN4core3any6TypeId2of17hc121a2a6b1e7dfe4E
00000000 g     F .text._ZN54_$LT$dyn$u20$core..any..Any$u2b$core..marker..Send$GT$12downcast_ref17h6328aaa70d287a4fE	0000001a _ZN54_$LT$dyn$u20$core..any..Any$u2b$core..marker..Send$GT$12downcast_ref17h6328aaa70d287a4fE
00000000         *UND*	00000000 .hidden _ZN58_$LT$core..any..TypeId$u20$as$u20$core..cmp..PartialEq$GT$2eq17ha2cd5f2efd1aaf1dE



Disassembly of section .text._ZN31_$LT$dyn$u20$core..any..Any$GT$12downcast_ref17hecc0330afaa15cc3E:

00000000 <_ZN31_$LT$dyn$u20$core..any..Any$GT$12downcast_ref17hecc0330afaa15cc3E>:
_ZN31_$LT$dyn$u20$core..any..Any$GT$12downcast_ref17hecc0330afaa15cc3E():
/rustc/412f43ac5b4ae8c3599e71c6972112e9be4758fa/src/libcore/any.rs:183
   0:	b580      	push	{r7, lr}
   2:	b084      	sub	sp, #16
   4:	9001      	str	r0, [sp, #4]
   6:	9102      	str	r1, [sp, #8]
/rustc/412f43ac5b4ae8c3599e71c6972112e9be4758fa/src/libcore/any.rs:184
   8:	9801      	ldr	r0, [sp, #4]
   a:	9902      	ldr	r1, [sp, #8]
   c:	f7ff fffe 	bl	0 <_ZN31_$LT$dyn$u20$core..any..Any$GT$12downcast_ref17hecc0330afaa15cc3E>
  10:	9000      	str	r0, [sp, #0]
  12:	e7ff      	b.n	14 <_ZN31_$LT$dyn$u20$core..any..Any$GT$12downcast_ref17hecc0330afaa15cc3E+0x14>
  14:	9800      	ldr	r0, [sp, #0]
  16:	07c1      	lsls	r1, r0, #31
  18:	2900      	cmp	r1, #0
  1a:	d103      	bne.n	24 <_ZN31_$LT$dyn$u20$core..any..Any$GT$12downcast_ref17hecc0330afaa15cc3E+0x24>
  1c:	e7ff      	b.n	1e <_ZN31_$LT$dyn$u20$core..any..Any$GT$12downcast_ref17hecc0330afaa15cc3E+0x1e>
  1e:	2000      	movs	r0, #0
/rustc/412f43ac5b4ae8c3599e71c6972112e9be4758fa/src/libcore/any.rs:190
  20:	9003      	str	r0, [sp, #12]
/rustc/412f43ac5b4ae8c3599e71c6972112e9be4758fa/src/libcore/any.rs:184
  22:	e002      	b.n	2a <_ZN31_$LT$dyn$u20$core..any..Any$GT$12downcast_ref17hecc0330afaa15cc3E+0x2a>
/rustc/412f43ac5b4ae8c3599e71c6972112e9be4758fa/src/libcore/any.rs:187
  24:	9801      	ldr	r0, [sp, #4]
  26:	9003      	str	r0, [sp, #12]
/rustc/412f43ac5b4ae8c3599e71c6972112e9be4758fa/src/libcore/any.rs:184
  28:	e7ff      	b.n	2a <_ZN31_$LT$dyn$u20$core..any..Any$GT$12downcast_ref17hecc0330afaa15cc3E+0x2a>
/rustc/412f43ac5b4ae8c3599e71c6972112e9be4758fa/src/libcore/any.rs:192
  2a:	9803      	ldr	r0, [sp, #12]
  2c:	b004      	add	sp, #16
  2e:	bd80      	pop	{r7, pc}

Disassembly of section .text._ZN31_$LT$dyn$u20$core..any..Any$GT$2is17h992e691c28823333E:

00000000 <_ZN31_$LT$dyn$u20$core..any..Any$GT$2is17h992e691c28823333E>:
_ZN31_$LT$dyn$u20$core..any..Any$GT$2is17h992e691c28823333E():
/rustc/412f43ac5b4ae8c3599e71c6972112e9be4758fa/src/libcore/any.rs:151
   0:	b580      	push	{r7, lr}
   2:	b088      	sub	sp, #32
   4:	9002      	str	r0, [sp, #8]
   6:	9103      	str	r1, [sp, #12]
/rustc/412f43ac5b4ae8c3599e71c6972112e9be4758fa/src/libcore/any.rs:153
   8:	f7ff fffe 	bl	0 <_ZN31_$LT$dyn$u20$core..any..Any$GT$2is17h992e691c28823333E>
   c:	9105      	str	r1, [sp, #20]
   e:	9004      	str	r0, [sp, #16]
  10:	e7ff      	b.n	12 <_ZN31_$LT$dyn$u20$core..any..Any$GT$2is17h992e691c28823333E+0x12>
/rustc/412f43ac5b4ae8c3599e71c6972112e9be4758fa/src/libcore/any.rs:156
  12:	9802      	ldr	r0, [sp, #8]
  14:	9903      	ldr	r1, [sp, #12]
  16:	68c9      	ldr	r1, [r1, #12]
  18:	4788      	blx	r1
  1a:	9107      	str	r1, [sp, #28]
  1c:	9006      	str	r0, [sp, #24]
  1e:	e7ff      	b.n	20 <_ZN31_$LT$dyn$u20$core..any..Any$GT$2is17h992e691c28823333E+0x20>
  20:	a804      	add	r0, sp, #16
  22:	a906      	add	r1, sp, #24
/rustc/412f43ac5b4ae8c3599e71c6972112e9be4758fa/src/libcore/any.rs:159
  24:	f7ff fffe 	bl	0 <_ZN58_$LT$core..any..TypeId$u20$as$u20$core..cmp..PartialEq$GT$2eq17ha2cd5f2efd1aaf1dE>
  28:	9001      	str	r0, [sp, #4]
  2a:	e7ff      	b.n	2c <_ZN31_$LT$dyn$u20$core..any..Any$GT$2is17h992e691c28823333E+0x2c>
/rustc/412f43ac5b4ae8c3599e71c6972112e9be4758fa/src/libcore/any.rs:160
  2c:	9801      	ldr	r0, [sp, #4]
  2e:	f000 0001 	and.w	r0, r0, #1
  32:	b008      	add	sp, #32
  34:	bd80      	pop	{r7, pc}

Disassembly of section .text._ZN4core3any6TypeId2of17hc121a2a6b1e7dfe4E:

00000000 <_ZN4core3any6TypeId2of17hc121a2a6b1e7dfe4E>:
_ZN4core3any6TypeId2of17hc121a2a6b1e7dfe4E():
/rustc/412f43ac5b4ae8c3599e71c6972112e9be4758fa/src/libcore/any.rs:427
   0:	b086      	sub	sp, #24
   2:	f249 40d9 	movw	r0, #38105	; 0x94d9
   6:	f2c1 1010 	movt	r0, #4368	; 0x1110
/rustc/412f43ac5b4ae8c3599e71c6972112e9be4758fa/src/libcore/any.rs:433
   a:	9005      	str	r0, [sp, #20]
   c:	f249 7064 	movw	r0, #38756	; 0x9764
  10:	f2c7 00b0 	movt	r0, #28848	; 0x70b0
  14:	9004      	str	r0, [sp, #16]
  16:	9804      	ldr	r0, [sp, #16]
  18:	9905      	ldr	r1, [sp, #20]
  1a:	9001      	str	r0, [sp, #4]
  1c:	9100      	str	r1, [sp, #0]
  1e:	e7ff      	b.n	20 <_ZN4core3any6TypeId2of17hc121a2a6b1e7dfe4E+0x20>
/rustc/412f43ac5b4ae8c3599e71c6972112e9be4758fa/src/libcore/any.rs:428
  20:	9801      	ldr	r0, [sp, #4]
  22:	9002      	str	r0, [sp, #8]
  24:	9900      	ldr	r1, [sp, #0]
  26:	9103      	str	r1, [sp, #12]
/rustc/412f43ac5b4ae8c3599e71c6972112e9be4758fa/src/libcore/any.rs:435
  28:	9802      	ldr	r0, [sp, #8]
  2a:	9903      	ldr	r1, [sp, #12]
  2c:	b006      	add	sp, #24
  2e:	4770      	bx	lr

Disassembly of section .text._ZN54_$LT$dyn$u20$core..any..Any$u2b$core..marker..Send$GT$12downcast_ref17h6328aaa70d287a4fE:

00000000 <_ZN54_$LT$dyn$u20$core..any..Any$u2b$core..marker..Send$GT$12downcast_ref17h6328aaa70d287a4fE>:
_ZN54_$LT$dyn$u20$core..any..Any$u2b$core..marker..Send$GT$12downcast_ref17h6328aaa70d287a4fE():
/rustc/412f43ac5b4ae8c3599e71c6972112e9be4758fa/src/libcore/any.rs:276
   0:	b580      	push	{r7, lr}
   2:	b084      	sub	sp, #16
   4:	9002      	str	r0, [sp, #8]
   6:	9103      	str	r1, [sp, #12]
/rustc/412f43ac5b4ae8c3599e71c6972112e9be4758fa/src/libcore/any.rs:277
   8:	9802      	ldr	r0, [sp, #8]
   a:	9903      	ldr	r1, [sp, #12]
   c:	f7ff fffe 	bl	0 <_ZN54_$LT$dyn$u20$core..any..Any$u2b$core..marker..Send$GT$12downcast_ref17h6328aaa70d287a4fE>
  10:	9001      	str	r0, [sp, #4]
  12:	e7ff      	b.n	14 <_ZN54_$LT$dyn$u20$core..any..Any$u2b$core..marker..Send$GT$12downcast_ref17h6328aaa70d287a4fE+0x14>
/rustc/412f43ac5b4ae8c3599e71c6972112e9be4758fa/src/libcore/any.rs:278
  14:	9801      	ldr	r0, [sp, #4]
  16:	b004      	add	sp, #16
  18:	bd80      	pop	{r7, pc}

app-2bc386860c9913e9.1lxtipoyojnegf75.rcgu.o:     file format elf32-littlearm

SYMBOL TABLE:
00000000 l    df *ABS*	00000000 1lxtipoyojnegf75
00000112 l       .debug_str	00000000 
000008fe l       .debug_str	00000000 
00000928 l       .debug_str	00000000 
000008fb l       .debug_str	00000000 
0000091e l       .debug_str	00000000 
000008b9 l       .debug_str	00000000 
0000087f l       .debug_str	00000000 
0000087b l       .debug_str	00000000 
00000876 l       .debug_str	00000000 
0000091c l       .debug_str	00000000 
00000866 l       .debug_str	00000000 
0000085c l       .debug_str	00000000 
0000084f l       .debug_str	00000000 
0000084c l       .debug_str	00000000 
00000849 l       .debug_str	00000000 
000007df l       .debug_str	00000000 
00000781 l       .debug_str	00000000 
0000077b l       .debug_str	00000000 
00000776 l       .debug_str	00000000 
00000743 l       .debug_str	00000000 
000006f0 l       .debug_str	00000000 
000006b5 l       .debug_str	00000000 
000005fe l       .debug_str	00000000 
000005a4 l       .debug_str	00000000 
0000056f l       .debug_str	00000000 
00000561 l       .debug_str	00000000 
00000549 l       .debug_str	00000000 
0000053b l       .debug_str	00000000 
00000532 l       .debug_str	00000000 
000004fe l       .debug_str	00000000 
00000914 l       .debug_str	00000000 
00000465 l       .debug_str	00000000 
0000090f l       .debug_str	00000000 
000003c8 l       .debug_str	00000000 
00000905 l       .debug_str	00000000 
00000000 l       .debug_str	00000000 
00000041 l       .debug_str	00000000 
00000055 l       .debug_str	00000000 
00000076 l       .debug_str	00000000 
00000088 l       .debug_str	00000000 
00000093 l       .debug_str	00000000 
0000009a l       .debug_str	00000000 
000000a3 l       .debug_str	00000000 
000000a8 l       .debug_str	00000000 
000000af l       .debug_str	00000000 
000000b5 l       .debug_str	00000000 
000000c4 l       .debug_str	00000000 
000000c8 l       .debug_str	00000000 
000000cc l       .debug_str	00000000 
000000d0 l       .debug_str	00000000 
000000d6 l       .debug_str	00000000 
000000dd l       .debug_str	00000000 
000000e1 l       .debug_str	00000000 
000000e7 l       .debug_str	00000000 
000000f2 l       .debug_str	00000000 
000000f7 l       .debug_str	00000000 
000000fe l       .debug_str	00000000 
00000102 l       .debug_str	00000000 
00000107 l       .debug_str	00000000 
00000394 l       .debug_str	00000000 
00000119 l       .debug_str	00000000 
00000120 l       .debug_str	00000000 
00000122 l       .debug_str	00000000 
00000127 l       .debug_str	00000000 
0000015d l       .debug_str	00000000 
0000016a l       .debug_str	00000000 
00000177 l       .debug_str	00000000 
0000017a l       .debug_str	00000000 
0000017c l       .debug_str	00000000 
000001b1 l       .debug_str	00000000 
000001b3 l       .debug_str	00000000 
000001e9 l       .debug_str	00000000 
00000282 l       .debug_str	00000000 
000002bb l       .debug_str	00000000 
000002bd l       .debug_str	00000000 
000002bf l       .debug_str	00000000 
000002fd l       .debug_str	00000000 
00000901 l       .debug_str	00000000 
00000000 l     O .rodata..Lanon.3986fa6587a2ed4bfab56a0ad9759e5c.1	00000010 .Lanon.3986fa6587a2ed4bfab56a0ad9759e5c.1
00000000 l     O .rodata..Lanon.3986fa6587a2ed4bfab56a0ad9759e5c.10	00000010 .Lanon.3986fa6587a2ed4bfab56a0ad9759e5c.10
00000000 l     O .rodata..Lanon.3986fa6587a2ed4bfab56a0ad9759e5c.11	00000010 .Lanon.3986fa6587a2ed4bfab56a0ad9759e5c.11
00000000 l     O .rodata..Lanon.3986fa6587a2ed4bfab56a0ad9759e5c.12	00000018 .Lanon.3986fa6587a2ed4bfab56a0ad9759e5c.12
00000000 l     O .rodata..Lanon.3986fa6587a2ed4bfab56a0ad9759e5c.13	00000010 .Lanon.3986fa6587a2ed4bfab56a0ad9759e5c.13
00000000 l     O .rodata..Lanon.3986fa6587a2ed4bfab56a0ad9759e5c.14	00000010 .Lanon.3986fa6587a2ed4bfab56a0ad9759e5c.14
00000000 l     O .rodata..Lanon.3986fa6587a2ed4bfab56a0ad9759e5c.15	00000016 .Lanon.3986fa6587a2ed4bfab56a0ad9759e5c.15
00000000 l     O .rodata..Lanon.3986fa6587a2ed4bfab56a0ad9759e5c.16	00000010 .Lanon.3986fa6587a2ed4bfab56a0ad9759e5c.16
00000000 l     O .rodata..Lanon.3986fa6587a2ed4bfab56a0ad9759e5c.17	00000010 .Lanon.3986fa6587a2ed4bfab56a0ad9759e5c.17
00000000 l     O .rodata..Lanon.3986fa6587a2ed4bfab56a0ad9759e5c.18	00000010 .Lanon.3986fa6587a2ed4bfab56a0ad9759e5c.18
00000000 l     O .rodata..Lanon.3986fa6587a2ed4bfab56a0ad9759e5c.2	00000010 .Lanon.3986fa6587a2ed4bfab56a0ad9759e5c.2
00000000 l     O .rodata..Lanon.3986fa6587a2ed4bfab56a0ad9759e5c.3	00000010 .Lanon.3986fa6587a2ed4bfab56a0ad9759e5c.3
00000000 l     O .rodata..Lanon.3986fa6587a2ed4bfab56a0ad9759e5c.4	00000010 .Lanon.3986fa6587a2ed4bfab56a0ad9759e5c.4
00000000 l     O .rodata..Lanon.3986fa6587a2ed4bfab56a0ad9759e5c.5	00000010 .Lanon.3986fa6587a2ed4bfab56a0ad9759e5c.5
00000000 l     O .rodata..Lanon.3986fa6587a2ed4bfab56a0ad9759e5c.6	00000010 .Lanon.3986fa6587a2ed4bfab56a0ad9759e5c.6
00000000 l     O .rodata..Lanon.3986fa6587a2ed4bfab56a0ad9759e5c.7	00000010 .Lanon.3986fa6587a2ed4bfab56a0ad9759e5c.7
00000000 l     O .rodata..Lanon.3986fa6587a2ed4bfab56a0ad9759e5c.8	00000010 .Lanon.3986fa6587a2ed4bfab56a0ad9759e5c.8
00000000 l     O .rodata..Lanon.3986fa6587a2ed4bfab56a0ad9759e5c.9	00000010 .Lanon.3986fa6587a2ed4bfab56a0ad9759e5c.9
00000000 l     O .rodata.str.0	0000001f str.0
00000000 l     O .rodata.str.1	00000021 str.1
00000000 l     O .rodata.str.2	0000001c str.2
00000000 l     O .rodata.str.3	00000021 str.3
00000000 l    d  .text._ZN116_$LT$embedded_graphics..primitives..circle..Circle$LT$C$GT$$u20$as$u20$core..iter..traits..collect..IntoIterator$GT$9into_iter17h0f12e0e052eb0b2dE	00000000 .text._ZN116_$LT$embedded_graphics..primitives..circle..Circle$LT$C$GT$$u20$as$u20$core..iter..traits..collect..IntoIterator$GT$9into_iter17h0f12e0e052eb0b2dE
00000000 l    d  .text._ZN119_$LT$embedded_graphics..primitives..circle..Circle$LT$C$GT$$u20$as$u20$embedded_graphics..style..WithStyle$LT$C$GT$$GT$4fill17h6ce31e0a2e70d334E	00000000 .text._ZN119_$LT$embedded_graphics..primitives..circle..Circle$LT$C$GT$$u20$as$u20$embedded_graphics..style..WithStyle$LT$C$GT$$GT$4fill17h6ce31e0a2e70d334E
00000000 l    d  .text._ZN120_$LT$$RF$embedded_graphics..primitives..circle..Circle$LT$C$GT$$u20$as$u20$core..iter..traits..collect..IntoIterator$GT$9into_iter17h999721d5e91ae044E	00000000 .text._ZN120_$LT$$RF$embedded_graphics..primitives..circle..Circle$LT$C$GT$$u20$as$u20$core..iter..traits..collect..IntoIterator$GT$9into_iter17h999721d5e91ae044E
00000000 l    d  .text._ZN121_$LT$embedded_graphics..primitives..circle..CircleIterator$LT$C$GT$$u20$as$u20$core..iter..traits..iterator..Iterator$GT$4next17he7626936cc4fb435E	00000000 .text._ZN121_$LT$embedded_graphics..primitives..circle..CircleIterator$LT$C$GT$$u20$as$u20$core..iter..traits..iterator..Iterator$GT$4next17he7626936cc4fb435E
00000000 l    d  .text._ZN121_$LT$embedded_graphics..primitives..circle..CircleIterator$LT$C$GT$$u20$as$u20$core..iter..traits..iterator..Iterator$GT$4next28_$u7b$$u7b$closure$u7d$$u7d$17hb9d13765abbcdbfeE	00000000 .text._ZN121_$LT$embedded_graphics..primitives..circle..CircleIterator$LT$C$GT$$u20$as$u20$core..iter..traits..iterator..Iterator$GT$4next28_$u7b$$u7b$closure$u7d$$u7d$17hb9d13765abbcdbfeE
00000000 l    d  .text._ZN17embedded_graphics10primitives6circle15Circle$LT$C$GT$3new17h3b0eaae94a4bdc48E	00000000 .text._ZN17embedded_graphics10primitives6circle15Circle$LT$C$GT$3new17h3b0eaae94a4bdc48E
00000000 l    d  .rodata..Lanon.3986fa6587a2ed4bfab56a0ad9759e5c.0	00000000 .rodata..Lanon.3986fa6587a2ed4bfab56a0ad9759e5c.0
00000000 l    d  .debug_loc	00000000 .debug_loc
00000000 l    d  .debug_abbrev	00000000 .debug_abbrev
00000000 l    d  .debug_info	00000000 .debug_info
00000000 l    d  .debug_ranges	00000000 .debug_ranges
00000000 l    d  .debug_frame	00000000 .debug_frame
00000000 l    d  .debug_line	00000000 .debug_line
00000000         *UND*	00000000 _ZN104_$LT$embedded_graphics..coord..internal_coord..Coord$u20$as$u20$core..ops..index..Index$LT$usize$GT$$GT$5index17hfa02ad35b3557353E
00000000         *UND*	00000000 _ZN104_$LT$embedded_graphics..coord..internal_coord..Coord$u20$as$u20$embedded_graphics..coord..ToUnsigned$GT$11to_unsigned17h87334cd982355adeE
00000000 g     F .text._ZN116_$LT$embedded_graphics..primitives..circle..Circle$LT$C$GT$$u20$as$u20$core..iter..traits..collect..IntoIterator$GT$9into_iter17h0f12e0e052eb0b2dE	0000000a _ZN116_$LT$embedded_graphics..primitives..circle..Circle$LT$C$GT$$u20$as$u20$core..iter..traits..collect..IntoIterator$GT$9into_iter17h0f12e0e052eb0b2dE
00000000 g     F .text._ZN119_$LT$embedded_graphics..primitives..circle..Circle$LT$C$GT$$u20$as$u20$embedded_graphics..style..WithStyle$LT$C$GT$$GT$4fill17h6ce31e0a2e70d334E	00000028 _ZN119_$LT$embedded_graphics..primitives..circle..Circle$LT$C$GT$$u20$as$u20$embedded_graphics..style..WithStyle$LT$C$GT$$GT$4fill17h6ce31e0a2e70d334E
00000000 g     F .text._ZN120_$LT$$RF$embedded_graphics..primitives..circle..Circle$LT$C$GT$$u20$as$u20$core..iter..traits..collect..IntoIterator$GT$9into_iter17h999721d5e91ae044E	000000b2 _ZN120_$LT$$RF$embedded_graphics..primitives..circle..Circle$LT$C$GT$$u20$as$u20$core..iter..traits..collect..IntoIterator$GT$9into_iter17h999721d5e91ae044E
00000000 g     F .text._ZN121_$LT$embedded_graphics..primitives..circle..CircleIterator$LT$C$GT$$u20$as$u20$core..iter..traits..iterator..Iterator$GT$4next17he7626936cc4fb435E	00000540 _ZN121_$LT$embedded_graphics..primitives..circle..CircleIterator$LT$C$GT$$u20$as$u20$core..iter..traits..iterator..Iterator$GT$4next17he7626936cc4fb435E
00000000 g     F .text._ZN121_$LT$embedded_graphics..primitives..circle..CircleIterator$LT$C$GT$$u20$as$u20$core..iter..traits..iterator..Iterator$GT$4next28_$u7b$$u7b$closure$u7d$$u7d$17hb9d13765abbcdbfeE	00000048 _ZN121_$LT$embedded_graphics..primitives..circle..CircleIterator$LT$C$GT$$u20$as$u20$core..iter..traits..iterator..Iterator$GT$4next28_$u7b$$u7b$closure$u7d$$u7d$17hb9d13765abbcdbfeE
00000000 g     F .text._ZN17embedded_graphics10primitives6circle15Circle$LT$C$GT$3new17h3b0eaae94a4bdc48E	0000004e _ZN17embedded_graphics10primitives6circle15Circle$LT$C$GT$3new17h3b0eaae94a4bdc48E
00000000         *UND*	00000000 _ZN17embedded_graphics5coord14internal_coord5Coord3new17ha916e4aa61e7d147E
00000000         *UND*	00000000 _ZN4core6option15Option$LT$T$GT$3map17h6d8e0fe1a0730e67E
00000000         *UND*	00000000 _ZN4core6option15Option$LT$T$GT$6expect17h91bf2b5bcb330826E
00000000         *UND*	00000000 _ZN4core6option15Option$LT$T$GT$7is_none17h0400782424b22aabE
00000000         *UND*	00000000 _ZN4core6option15Option$LT$T$GT$7is_some17hba05216f277c7958E
00000000         *UND*	00000000 _ZN4core9panicking5panic17hfdd0eecc44a682f8E
00000000         *UND*	00000000 _ZN83_$LT$embedded_graphics..style..Style$LT$P$GT$$u20$as$u20$core..default..Default$GT$7default17h960a318c3db5d2f9E



Disassembly of section .text._ZN116_$LT$embedded_graphics..primitives..circle..Circle$LT$C$GT$$u20$as$u20$core..iter..traits..collect..IntoIterator$GT$9into_iter17h0f12e0e052eb0b2dE:

00000000 <_ZN116_$LT$embedded_graphics..primitives..circle..Circle$LT$C$GT$$u20$as$u20$core..iter..traits..collect..IntoIterator$GT$9into_iter17h0f12e0e052eb0b2dE>:
_ZN116_$LT$embedded_graphics..primitives..circle..Circle$LT$C$GT$$u20$as$u20$core..iter..traits..collect..IntoIterator$GT$9into_iter17h0f12e0e052eb0b2dE():
C:\Users\guppy\.cargo\registry\src\github.com-1ecc6299db9ec823\embedded-graphics-0.5.2\src\primitives/circle.rs:128
    C: PixelColor,
{
    type Item = Pixel<C>;
    type IntoIter = CircleIterator<C>;

    fn into_iter(self) -> Self::IntoIter {
   0:	b580      	push	{r7, lr}
C:\Users\guppy\.cargo\registry\src\github.com-1ecc6299db9ec823\embedded-graphics-0.5.2\src\primitives/circle.rs:129
        (&self).into_iter()
   2:	f7ff fffe 	bl	0 <_ZN116_$LT$embedded_graphics..primitives..circle..Circle$LT$C$GT$$u20$as$u20$core..iter..traits..collect..IntoIterator$GT$9into_iter17h0f12e0e052eb0b2dE>
   6:	e7ff      	b.n	8 <_ZN116_$LT$embedded_graphics..primitives..circle..Circle$LT$C$GT$$u20$as$u20$core..iter..traits..collect..IntoIterator$GT$9into_iter17h0f12e0e052eb0b2dE+0x8>
C:\Users\guppy\.cargo\registry\src\github.com-1ecc6299db9ec823\embedded-graphics-0.5.2\src\primitives/circle.rs:130
    }
   8:	bd80      	pop	{r7, pc}

Disassembly of section .text._ZN119_$LT$embedded_graphics..primitives..circle..Circle$LT$C$GT$$u20$as$u20$embedded_graphics..style..WithStyle$LT$C$GT$$GT$4fill17h6ce31e0a2e70d334E:

00000000 <_ZN119_$LT$embedded_graphics..primitives..circle..Circle$LT$C$GT$$u20$as$u20$embedded_graphics..style..WithStyle$LT$C$GT$$GT$4fill17h6ce31e0a2e70d334E>:
_ZN119_$LT$embedded_graphics..primitives..circle..Circle$LT$C$GT$$u20$as$u20$embedded_graphics..style..WithStyle$LT$C$GT$$GT$4fill17h6ce31e0a2e70d334E():
C:\Users\guppy\.cargo\registry\src\github.com-1ecc6299db9ec823\embedded-graphics-0.5.2\src\primitives/circle.rs:114
    fn fill(mut self, color: Option<C>) -> Self {
   0:	b5f0      	push	{r4, r5, r6, r7, lr}
   2:	b081      	sub	sp, #4
   4:	469c      	mov	ip, r3
   6:	4696      	mov	lr, r2
   8:	f8ad 2000 	strh.w	r2, [sp]
   c:	f8ad 3002 	strh.w	r3, [sp, #2]
C:\Users\guppy\.cargo\registry\src\github.com-1ecc6299db9ec823\embedded-graphics-0.5.2\src\primitives/circle.rs:115
        self.style.fill_color = color;
  10:	f8bd 2000 	ldrh.w	r2, [sp]
  14:	f8bd 3002 	ldrh.w	r3, [sp, #2]
  18:	818a      	strh	r2, [r1, #12]
  1a:	81cb      	strh	r3, [r1, #14]
C:\Users\guppy\.cargo\registry\src\github.com-1ecc6299db9ec823\embedded-graphics-0.5.2\src\primitives/circle.rs:117
        self
  1c:	e891 00fc 	ldmia.w	r1, {r2, r3, r4, r5, r6, r7}
  20:	e880 00fc 	stmia.w	r0, {r2, r3, r4, r5, r6, r7}
C:\Users\guppy\.cargo\registry\src\github.com-1ecc6299db9ec823\embedded-graphics-0.5.2\src\primitives/circle.rs:118
    }
  24:	b001      	add	sp, #4
  26:	bdf0      	pop	{r4, r5, r6, r7, pc}

Disassembly of section .text._ZN120_$LT$$RF$embedded_graphics..primitives..circle..Circle$LT$C$GT$$u20$as$u20$core..iter..traits..collect..IntoIterator$GT$9into_iter17h999721d5e91ae044E:

00000000 <_ZN120_$LT$$RF$embedded_graphics..primitives..circle..Circle$LT$C$GT$$u20$as$u20$core..iter..traits..collect..IntoIterator$GT$9into_iter17h999721d5e91ae044E>:
_ZN120_$LT$$RF$embedded_graphics..primitives..circle..Circle$LT$C$GT$$u20$as$u20$core..iter..traits..collect..IntoIterator$GT$9into_iter17h999721d5e91ae044E():
C:\Users\guppy\.cargo\registry\src\github.com-1ecc6299db9ec823\embedded-graphics-0.5.2\src\primitives/circle.rs:140
    C: PixelColor,
{
    type Item = Pixel<C>;
    type IntoIter = CircleIterator<C>;

    fn into_iter(self) -> Self::IntoIter {
   0:	b5b0      	push	{r4, r5, r7, lr}
   2:	b08c      	sub	sp, #48	; 0x30
   4:	9108      	str	r1, [sp, #32]
C:\Users\guppy\.cargo\registry\src\github.com-1ecc6299db9ec823\embedded-graphics-0.5.2\src\primitives/circle.rs:142
        CircleIterator {
            center: self.center,
   6:	9908      	ldr	r1, [sp, #32]
   8:	680a      	ldr	r2, [r1, #0]
   a:	684b      	ldr	r3, [r1, #4]
C:\Users\guppy\.cargo\registry\src\github.com-1ecc6299db9ec823\embedded-graphics-0.5.2\src\primitives/circle.rs:143
            radius: self.radius,
   c:	f8d1 c008 	ldr.w	ip, [r1, #8]
C:\Users\guppy\.cargo\registry\src\github.com-1ecc6299db9ec823\embedded-graphics-0.5.2\src\primitives/circle.rs:144
            style: self.style,
  10:	f8b1 e014 	ldrh.w	lr, [r1, #20]
  14:	f8ad e02c 	strh.w	lr, [sp, #44]	; 0x2c
  18:	f8d1 e00c 	ldr.w	lr, [r1, #12]
  1c:	6909      	ldr	r1, [r1, #16]
  1e:	910a      	str	r1, [sp, #40]	; 0x28
  20:	f8cd e024 	str.w	lr, [sp, #36]	; 0x24
C:\Users\guppy\.cargo\registry\src\github.com-1ecc6299db9ec823\embedded-graphics-0.5.2\src\primitives/circle.rs:145
            x: -(self.radius as i32),
  24:	9908      	ldr	r1, [sp, #32]
  26:	6889      	ldr	r1, [r1, #8]
  28:	f1b1 4f00 	cmp.w	r1, #2147483648	; 0x80000000
  2c:	9007      	str	r0, [sp, #28]
  2e:	9206      	str	r2, [sp, #24]
  30:	9305      	str	r3, [sp, #20]
  32:	f8cd c010 	str.w	ip, [sp, #16]
  36:	9103      	str	r1, [sp, #12]
  38:	d023      	beq.n	82 <_ZN120_$LT$$RF$embedded_graphics..primitives..circle..Circle$LT$C$GT$$u20$as$u20$core..iter..traits..collect..IntoIterator$GT$9into_iter17h999721d5e91ae044E+0x82>
  3a:	e7ff      	b.n	3c <_ZN120_$LT$$RF$embedded_graphics..primitives..circle..Circle$LT$C$GT$$u20$as$u20$core..iter..traits..collect..IntoIterator$GT$9into_iter17h999721d5e91ae044E+0x3c>
  3c:	9803      	ldr	r0, [sp, #12]
  3e:	4241      	negs	r1, r0
C:\Users\guppy\.cargo\registry\src\github.com-1ecc6299db9ec823\embedded-graphics-0.5.2\src\primitives/circle.rs:146
            y: -(self.radius as i32),
  40:	9a08      	ldr	r2, [sp, #32]
  42:	6892      	ldr	r2, [r2, #8]
  44:	f1b2 4f00 	cmp.w	r2, #2147483648	; 0x80000000
  48:	9102      	str	r1, [sp, #8]
  4a:	9201      	str	r2, [sp, #4]
  4c:	d025      	beq.n	9a <_ZN120_$LT$$RF$embedded_graphics..primitives..circle..Circle$LT$C$GT$$u20$as$u20$core..iter..traits..collect..IntoIterator$GT$9into_iter17h999721d5e91ae044E+0x9a>
  4e:	e7ff      	b.n	50 <_ZN120_$LT$$RF$embedded_graphics..primitives..circle..Circle$LT$C$GT$$u20$as$u20$core..iter..traits..collect..IntoIterator$GT$9into_iter17h999721d5e91ae044E+0x50>
  50:	9801      	ldr	r0, [sp, #4]
  52:	4241      	negs	r1, r0
C:\Users\guppy\.cargo\registry\src\github.com-1ecc6299db9ec823\embedded-graphics-0.5.2\src\primitives/circle.rs:141
        CircleIterator {
  54:	9a06      	ldr	r2, [sp, #24]
  56:	9b07      	ldr	r3, [sp, #28]
  58:	601a      	str	r2, [r3, #0]
  5a:	f8dd c014 	ldr.w	ip, [sp, #20]
  5e:	f8c3 c004 	str.w	ip, [r3, #4]
  62:	f8dd e010 	ldr.w	lr, [sp, #16]
  66:	f8c3 e008 	str.w	lr, [r3, #8]
  6a:	f8bd 402c 	ldrh.w	r4, [sp, #44]	; 0x2c
  6e:	839c      	strh	r4, [r3, #28]
  70:	9c09      	ldr	r4, [sp, #36]	; 0x24
  72:	9d0a      	ldr	r5, [sp, #40]	; 0x28
  74:	619d      	str	r5, [r3, #24]
  76:	615c      	str	r4, [r3, #20]
  78:	9c02      	ldr	r4, [sp, #8]
  7a:	60dc      	str	r4, [r3, #12]
  7c:	6119      	str	r1, [r3, #16]
C:\Users\guppy\.cargo\registry\src\github.com-1ecc6299db9ec823\embedded-graphics-0.5.2\src\primitives/circle.rs:148
        }
    }
  7e:	b00c      	add	sp, #48	; 0x30
  80:	bdb0      	pop	{r4, r5, r7, pc}
C:\Users\guppy\.cargo\registry\src\github.com-1ecc6299db9ec823\embedded-graphics-0.5.2\src\primitives/circle.rs:145
            x: -(self.radius as i32),
  82:	f240 0000 	movw	r0, #0
  86:	f2c0 0000 	movt	r0, #0
  8a:	f240 0200 	movw	r2, #0
  8e:	f2c0 0200 	movt	r2, #0
  92:	211f      	movs	r1, #31
  94:	f7ff fffe 	bl	0 <_ZN4core9panicking5panic17hfdd0eecc44a682f8E>
  98:	defe      	udf	#254	; 0xfe
C:\Users\guppy\.cargo\registry\src\github.com-1ecc6299db9ec823\embedded-graphics-0.5.2\src\primitives/circle.rs:146
            y: -(self.radius as i32),
  9a:	f240 0000 	movw	r0, #0
  9e:	f2c0 0000 	movt	r0, #0
  a2:	f240 0200 	movw	r2, #0
  a6:	f2c0 0200 	movt	r2, #0
  aa:	211f      	movs	r1, #31
  ac:	f7ff fffe 	bl	0 <_ZN4core9panicking5panic17hfdd0eecc44a682f8E>
  b0:	defe      	udf	#254	; 0xfe

Disassembly of section .text._ZN121_$LT$embedded_graphics..primitives..circle..CircleIterator$LT$C$GT$$u20$as$u20$core..iter..traits..iterator..Iterator$GT$4next17he7626936cc4fb435E:

00000000 <_ZN121_$LT$embedded_graphics..primitives..circle..CircleIterator$LT$C$GT$$u20$as$u20$core..iter..traits..iterator..Iterator$GT$4next17he7626936cc4fb435E>:
_ZN121_$LT$embedded_graphics..primitives..circle..CircleIterator$LT$C$GT$$u20$as$u20$core..iter..traits..iterator..Iterator$GT$4next17he7626936cc4fb435E():
C:\Users\guppy\.cargo\registry\src\github.com-1ecc6299db9ec823\embedded-graphics-0.5.2\src\primitives/circle.rs:168
    C: PixelColor,
{
    type Item = Pixel<C>;

    // https://stackoverflow.com/questions/1201200/fast-algorithm-for-drawing-filled-circles
    fn next(&mut self) -> Option<Self::Item> {
   0:	b580      	push	{r7, lr}
   2:	b0c0      	sub	sp, #256	; 0x100
   4:	911c      	str	r1, [sp, #112]	; 0x70
C:\Users\guppy\.cargo\registry\src\github.com-1ecc6299db9ec823\embedded-graphics-0.5.2\src\primitives/circle.rs:170
        // If border or stroke colour is `None`, treat entire object as transparent and exit early
        if self.style.stroke_color.is_none() && self.style.fill_color.is_none() {
   6:	991c      	ldr	r1, [sp, #112]	; 0x70
   8:	3118      	adds	r1, #24
   a:	901b      	str	r0, [sp, #108]	; 0x6c
   c:	4608      	mov	r0, r1
   e:	f7ff fffe 	bl	0 <_ZN4core6option15Option$LT$T$GT$7is_none17h0400782424b22aabE>
  12:	901a      	str	r0, [sp, #104]	; 0x68
  14:	e013      	b.n	3e <_ZN121_$LT$embedded_graphics..primitives..circle..CircleIterator$LT$C$GT$$u20$as$u20$core..iter..traits..iterator..Iterator$GT$4next17he7626936cc4fb435E+0x3e>
  16:	2001      	movs	r0, #1
  18:	f88d 0077 	strb.w	r0, [sp, #119]	; 0x77
  1c:	e009      	b.n	32 <_ZN121_$LT$embedded_graphics..primitives..circle..CircleIterator$LT$C$GT$$u20$as$u20$core..iter..traits..iterator..Iterator$GT$4next17he7626936cc4fb435E+0x32>
  1e:	2000      	movs	r0, #0
  20:	f88d 0077 	strb.w	r0, [sp, #119]	; 0x77
  24:	e005      	b.n	32 <_ZN121_$LT$embedded_graphics..primitives..circle..CircleIterator$LT$C$GT$$u20$as$u20$core..iter..traits..iterator..Iterator$GT$4next17he7626936cc4fb435E+0x32>
  26:	981c      	ldr	r0, [sp, #112]	; 0x70
  28:	3014      	adds	r0, #20
  2a:	f7ff fffe 	bl	0 <_ZN4core6option15Option$LT$T$GT$7is_none17h0400782424b22aabE>
  2e:	9019      	str	r0, [sp, #100]	; 0x64
  30:	e00a      	b.n	48 <_ZN121_$LT$embedded_graphics..primitives..circle..CircleIterator$LT$C$GT$$u20$as$u20$core..iter..traits..iterator..Iterator$GT$4next17he7626936cc4fb435E+0x48>
  32:	f89d 0077 	ldrb.w	r0, [sp, #119]	; 0x77
  36:	07c0      	lsls	r0, r0, #31
  38:	2800      	cmp	r0, #0
  3a:	d110      	bne.n	5e <_ZN121_$LT$embedded_graphics..primitives..circle..CircleIterator$LT$C$GT$$u20$as$u20$core..iter..traits..iterator..Iterator$GT$4next17he7626936cc4fb435E+0x5e>
  3c:	e009      	b.n	52 <_ZN121_$LT$embedded_graphics..primitives..circle..CircleIterator$LT$C$GT$$u20$as$u20$core..iter..traits..iterator..Iterator$GT$4next17he7626936cc4fb435E+0x52>
  3e:	981a      	ldr	r0, [sp, #104]	; 0x68
  40:	07c1      	lsls	r1, r0, #31
  42:	2900      	cmp	r1, #0
  44:	d1ef      	bne.n	26 <_ZN121_$LT$embedded_graphics..primitives..circle..CircleIterator$LT$C$GT$$u20$as$u20$core..iter..traits..iterator..Iterator$GT$4next17he7626936cc4fb435E+0x26>
  46:	e7ea      	b.n	1e <_ZN121_$LT$embedded_graphics..primitives..circle..CircleIterator$LT$C$GT$$u20$as$u20$core..iter..traits..iterator..Iterator$GT$4next17he7626936cc4fb435E+0x1e>
  48:	9819      	ldr	r0, [sp, #100]	; 0x64
  4a:	07c1      	lsls	r1, r0, #31
  4c:	2900      	cmp	r1, #0
  4e:	d1e2      	bne.n	16 <_ZN121_$LT$embedded_graphics..primitives..circle..CircleIterator$LT$C$GT$$u20$as$u20$core..iter..traits..iterator..Iterator$GT$4next17he7626936cc4fb435E+0x16>
  50:	e7e5      	b.n	1e <_ZN121_$LT$embedded_graphics..primitives..circle..CircleIterator$LT$C$GT$$u20$as$u20$core..iter..traits..iterator..Iterator$GT$4next17he7626936cc4fb435E+0x1e>
C:\Users\guppy\.cargo\registry\src\github.com-1ecc6299db9ec823\embedded-graphics-0.5.2\src\primitives/circle.rs:174
            return None;
        }

        let cx = self.center[0];
  52:	981c      	ldr	r0, [sp, #112]	; 0x70
  54:	2100      	movs	r1, #0
  56:	f7ff fffe 	bl	0 <_ZN104_$LT$embedded_graphics..coord..internal_coord..Coord$u20$as$u20$core..ops..index..Index$LT$usize$GT$$GT$5index17hfa02ad35b3557353E>
  5a:	9018      	str	r0, [sp, #96]	; 0x60
  5c:	e005      	b.n	6a <_ZN121_$LT$embedded_graphics..primitives..circle..CircleIterator$LT$C$GT$$u20$as$u20$core..iter..traits..iterator..Iterator$GT$4next17he7626936cc4fb435E+0x6a>
  5e:	2000      	movs	r0, #0
C:\Users\guppy\.cargo\registry\src\github.com-1ecc6299db9ec823\embedded-graphics-0.5.2\src\primitives/circle.rs:171
            return None;
  60:	991b      	ldr	r1, [sp, #108]	; 0x6c
  62:	6008      	str	r0, [r1, #0]
  64:	e7ff      	b.n	66 <_ZN121_$LT$embedded_graphics..primitives..circle..CircleIterator$LT$C$GT$$u20$as$u20$core..iter..traits..iterator..Iterator$GT$4next17he7626936cc4fb435E+0x66>
C:\Users\guppy\.cargo\registry\src\github.com-1ecc6299db9ec823\embedded-graphics-0.5.2\src\primitives/circle.rs:228
                }
            }
        };

        item.map(|(x, y, c)| Pixel(Coord::new(x, y).to_unsigned(), c))
    }
  66:	b040      	add	sp, #256	; 0x100
  68:	bd80      	pop	{r7, pc}
C:\Users\guppy\.cargo\registry\src\github.com-1ecc6299db9ec823\embedded-graphics-0.5.2\src\primitives/circle.rs:174
        let cx = self.center[0];
  6a:	9818      	ldr	r0, [sp, #96]	; 0x60
  6c:	6801      	ldr	r1, [r0, #0]
  6e:	911e      	str	r1, [sp, #120]	; 0x78
C:\Users\guppy\.cargo\registry\src\github.com-1ecc6299db9ec823\embedded-graphics-0.5.2\src\primitives/circle.rs:175
        let cy = self.center[1];
  70:	981c      	ldr	r0, [sp, #112]	; 0x70
  72:	2101      	movs	r1, #1
  74:	f7ff fffe 	bl	0 <_ZN104_$LT$embedded_graphics..coord..internal_coord..Coord$u20$as$u20$core..ops..index..Index$LT$usize$GT$$GT$5index17hfa02ad35b3557353E>
  78:	9017      	str	r0, [sp, #92]	; 0x5c
  7a:	e7ff      	b.n	7c <_ZN121_$LT$embedded_graphics..primitives..circle..CircleIterator$LT$C$GT$$u20$as$u20$core..iter..traits..iterator..Iterator$GT$4next17he7626936cc4fb435E+0x7c>
  7c:	9817      	ldr	r0, [sp, #92]	; 0x5c
  7e:	6801      	ldr	r1, [r0, #0]
  80:	911f      	str	r1, [sp, #124]	; 0x7c
C:\Users\guppy\.cargo\registry\src\github.com-1ecc6299db9ec823\embedded-graphics-0.5.2\src\primitives/circle.rs:177
        let radius = self.radius as i32 - self.style.stroke_width as i32 + 1;
  82:	991c      	ldr	r1, [sp, #112]	; 0x70
  84:	688a      	ldr	r2, [r1, #8]
  86:	7f09      	ldrb	r1, [r1, #28]
  88:	1a53      	subs	r3, r2, r1
  8a:	428a      	cmp	r2, r1
  8c:	9316      	str	r3, [sp, #88]	; 0x58
  8e:	f180 8197 	bvs.w	3c0 <_ZN121_$LT$embedded_graphics..primitives..circle..CircleIterator$LT$C$GT$$u20$as$u20$core..iter..traits..iterator..Iterator$GT$4next17he7626936cc4fb435E+0x3c0>
  92:	e7ff      	b.n	94 <_ZN121_$LT$embedded_graphics..primitives..circle..CircleIterator$LT$C$GT$$u20$as$u20$core..iter..traits..iterator..Iterator$GT$4next17he7626936cc4fb435E+0x94>
  94:	9816      	ldr	r0, [sp, #88]	; 0x58
  96:	1c41      	adds	r1, r0, #1
  98:	460a      	mov	r2, r1
  9a:	4281      	cmp	r1, r0
  9c:	9215      	str	r2, [sp, #84]	; 0x54
  9e:	f180 819b 	bvs.w	3d8 <_ZN121_$LT$embedded_graphics..primitives..circle..CircleIterator$LT$C$GT$$u20$as$u20$core..iter..traits..iterator..Iterator$GT$4next17he7626936cc4fb435E+0x3d8>
  a2:	e7ff      	b.n	a4 <_ZN121_$LT$embedded_graphics..primitives..circle..CircleIterator$LT$C$GT$$u20$as$u20$core..iter..traits..iterator..Iterator$GT$4next17he7626936cc4fb435E+0xa4>
  a4:	9815      	ldr	r0, [sp, #84]	; 0x54
  a6:	9020      	str	r0, [sp, #128]	; 0x80
C:\Users\guppy\.cargo\registry\src\github.com-1ecc6299db9ec823\embedded-graphics-0.5.2\src\primitives/circle.rs:178
        let outer_radius = self.radius as i32;
  a8:	991c      	ldr	r1, [sp, #112]	; 0x70
  aa:	6889      	ldr	r1, [r1, #8]
  ac:	9121      	str	r1, [sp, #132]	; 0x84
C:\Users\guppy\.cargo\registry\src\github.com-1ecc6299db9ec823\embedded-graphics-0.5.2\src\primitives/circle.rs:180
        let radius_sq = radius * radius;
  ae:	9920      	ldr	r1, [sp, #128]	; 0x80
  b0:	fb01 f201 	mul.w	r2, r1, r1
  b4:	fb81 1301 	smull	r1, r3, r1, r1
  b8:	ebb3 7fe1 	cmp.w	r3, r1, asr #31
  bc:	9214      	str	r2, [sp, #80]	; 0x50
  be:	f040 8197 	bne.w	3f0 <_ZN121_$LT$embedded_graphics..primitives..circle..CircleIterator$LT$C$GT$$u20$as$u20$core..iter..traits..iterator..Iterator$GT$4next17he7626936cc4fb435E+0x3f0>
  c2:	e7ff      	b.n	c4 <_ZN121_$LT$embedded_graphics..primitives..circle..CircleIterator$LT$C$GT$$u20$as$u20$core..iter..traits..iterator..Iterator$GT$4next17he7626936cc4fb435E+0xc4>
  c4:	9814      	ldr	r0, [sp, #80]	; 0x50
  c6:	9022      	str	r0, [sp, #136]	; 0x88
C:\Users\guppy\.cargo\registry\src\github.com-1ecc6299db9ec823\embedded-graphics-0.5.2\src\primitives/circle.rs:181
        let outer_radius_sq = outer_radius * outer_radius;
  c8:	9921      	ldr	r1, [sp, #132]	; 0x84
  ca:	fb01 f201 	mul.w	r2, r1, r1
  ce:	fb81 1301 	smull	r1, r3, r1, r1
  d2:	ebb3 7fe1 	cmp.w	r3, r1, asr #31
  d6:	9213      	str	r2, [sp, #76]	; 0x4c
  d8:	f040 8196 	bne.w	408 <_ZN121_$LT$embedded_graphics..primitives..circle..CircleIterator$LT$C$GT$$u20$as$u20$core..iter..traits..iterator..Iterator$GT$4next17he7626936cc4fb435E+0x408>
  dc:	e7ff      	b.n	de <_ZN121_$LT$embedded_graphics..primitives..circle..CircleIterator$LT$C$GT$$u20$as$u20$core..iter..traits..iterator..Iterator$GT$4next17he7626936cc4fb435E+0xde>
  de:	9813      	ldr	r0, [sp, #76]	; 0x4c
  e0:	9023      	str	r0, [sp, #140]	; 0x8c
C:\Users\guppy\.cargo\registry\src\github.com-1ecc6299db9ec823\embedded-graphics-0.5.2\src\primitives/circle.rs:183
        let item = loop {
  e2:	e7ff      	b.n	e4 <_ZN121_$LT$embedded_graphics..primitives..circle..CircleIterator$LT$C$GT$$u20$as$u20$core..iter..traits..iterator..Iterator$GT$4next17he7626936cc4fb435E+0xe4>
C:\Users\guppy\.cargo\registry\src\github.com-1ecc6299db9ec823\embedded-graphics-0.5.2\src\primitives/circle.rs:184
            let tx = self.x;
  e4:	981c      	ldr	r0, [sp, #112]	; 0x70
  e6:	68c0      	ldr	r0, [r0, #12]
  e8:	9028      	str	r0, [sp, #160]	; 0xa0
C:\Users\guppy\.cargo\registry\src\github.com-1ecc6299db9ec823\embedded-graphics-0.5.2\src\primitives/circle.rs:185
            let ty = self.y;
  ea:	981c      	ldr	r0, [sp, #112]	; 0x70
  ec:	6900      	ldr	r0, [r0, #16]
  ee:	9029      	str	r0, [sp, #164]	; 0xa4
C:\Users\guppy\.cargo\registry\src\github.com-1ecc6299db9ec823\embedded-graphics-0.5.2\src\primitives/circle.rs:186
            let len = tx * tx + ty * ty;
  f0:	9828      	ldr	r0, [sp, #160]	; 0xa0
  f2:	fb00 f100 	mul.w	r1, r0, r0
  f6:	fb80 0200 	smull	r0, r2, r0, r0
  fa:	ebb2 7fe0 	cmp.w	r2, r0, asr #31
  fe:	9112      	str	r1, [sp, #72]	; 0x48
 100:	f040 818e 	bne.w	420 <_ZN121_$LT$embedded_graphics..primitives..circle..CircleIterator$LT$C$GT$$u20$as$u20$core..iter..traits..iterator..Iterator$GT$4next17he7626936cc4fb435E+0x420>
 104:	e7ff      	b.n	106 <_ZN121_$LT$embedded_graphics..primitives..circle..CircleIterator$LT$C$GT$$u20$as$u20$core..iter..traits..iterator..Iterator$GT$4next17he7626936cc4fb435E+0x106>
 106:	9829      	ldr	r0, [sp, #164]	; 0xa4
 108:	fb00 f100 	mul.w	r1, r0, r0
 10c:	fb80 0200 	smull	r0, r2, r0, r0
 110:	ebb2 7fe0 	cmp.w	r2, r0, asr #31
 114:	9111      	str	r1, [sp, #68]	; 0x44
 116:	f040 818f 	bne.w	438 <_ZN121_$LT$embedded_graphics..primitives..circle..CircleIterator$LT$C$GT$$u20$as$u20$core..iter..traits..iterator..Iterator$GT$4next17he7626936cc4fb435E+0x438>
 11a:	e7ff      	b.n	11c <_ZN121_$LT$embedded_graphics..primitives..circle..CircleIterator$LT$C$GT$$u20$as$u20$core..iter..traits..iterator..Iterator$GT$4next17he7626936cc4fb435E+0x11c>
 11c:	9812      	ldr	r0, [sp, #72]	; 0x48
 11e:	9911      	ldr	r1, [sp, #68]	; 0x44
 120:	1842      	adds	r2, r0, r1
 122:	4613      	mov	r3, r2
 124:	4282      	cmp	r2, r0
 126:	9310      	str	r3, [sp, #64]	; 0x40
 128:	f180 8192 	bvs.w	450 <_ZN121_$LT$embedded_graphics..primitives..circle..CircleIterator$LT$C$GT$$u20$as$u20$core..iter..traits..iterator..Iterator$GT$4next17he7626936cc4fb435E+0x450>
 12c:	e7ff      	b.n	12e <_ZN121_$LT$embedded_graphics..primitives..circle..CircleIterator$LT$C$GT$$u20$as$u20$core..iter..traits..iterator..Iterator$GT$4next17he7626936cc4fb435E+0x12e>
 12e:	9810      	ldr	r0, [sp, #64]	; 0x40
 130:	902a      	str	r0, [sp, #168]	; 0xa8
C:\Users\guppy\.cargo\registry\src\github.com-1ecc6299db9ec823\embedded-graphics-0.5.2\src\primitives/circle.rs:188
            let is_border = len > radius_sq - radius && len < outer_radius_sq + radius;
 132:	992a      	ldr	r1, [sp, #168]	; 0xa8
 134:	9a22      	ldr	r2, [sp, #136]	; 0x88
 136:	9b20      	ldr	r3, [sp, #128]	; 0x80
 138:	eba2 0c03 	sub.w	ip, r2, r3
 13c:	429a      	cmp	r2, r3
 13e:	910f      	str	r1, [sp, #60]	; 0x3c
 140:	f8cd c038 	str.w	ip, [sp, #56]	; 0x38
 144:	f180 8190 	bvs.w	468 <_ZN121_$LT$embedded_graphics..primitives..circle..CircleIterator$LT$C$GT$$u20$as$u20$core..iter..traits..iterator..Iterator$GT$4next17he7626936cc4fb435E+0x468>
 148:	e021      	b.n	18e <_ZN121_$LT$embedded_graphics..primitives..circle..CircleIterator$LT$C$GT$$u20$as$u20$core..iter..traits..iterator..Iterator$GT$4next17he7626936cc4fb435E+0x18e>
 14a:	2001      	movs	r0, #1
 14c:	f88d 00ae 	strb.w	r0, [sp, #174]	; 0xae
 150:	e00e      	b.n	170 <_ZN121_$LT$embedded_graphics..primitives..circle..CircleIterator$LT$C$GT$$u20$as$u20$core..iter..traits..iterator..Iterator$GT$4next17he7626936cc4fb435E+0x170>
 152:	2000      	movs	r0, #0
 154:	f88d 00ae 	strb.w	r0, [sp, #174]	; 0xae
 158:	e00a      	b.n	170 <_ZN121_$LT$embedded_graphics..primitives..circle..CircleIterator$LT$C$GT$$u20$as$u20$core..iter..traits..iterator..Iterator$GT$4next17he7626936cc4fb435E+0x170>
 15a:	982a      	ldr	r0, [sp, #168]	; 0xa8
 15c:	9923      	ldr	r1, [sp, #140]	; 0x8c
 15e:	9a20      	ldr	r2, [sp, #128]	; 0x80
 160:	440a      	add	r2, r1
 162:	4613      	mov	r3, r2
 164:	428a      	cmp	r2, r1
 166:	900d      	str	r0, [sp, #52]	; 0x34
 168:	930c      	str	r3, [sp, #48]	; 0x30
 16a:	f180 8189 	bvs.w	480 <_ZN121_$LT$embedded_graphics..primitives..circle..CircleIterator$LT$C$GT$$u20$as$u20$core..iter..traits..iterator..Iterator$GT$4next17he7626936cc4fb435E+0x480>
 16e:	e013      	b.n	198 <_ZN121_$LT$embedded_graphics..primitives..circle..CircleIterator$LT$C$GT$$u20$as$u20$core..iter..traits..iterator..Iterator$GT$4next17he7626936cc4fb435E+0x198>
C:\Users\guppy\.cargo\registry\src\github.com-1ecc6299db9ec823\embedded-graphics-0.5.2\src\primitives/circle.rs:191
            let is_fill = len <= outer_radius_sq;
 170:	982a      	ldr	r0, [sp, #168]	; 0xa8
 172:	9923      	ldr	r1, [sp, #140]	; 0x8c
 174:	2200      	movs	r2, #0
 176:	4288      	cmp	r0, r1
 178:	bfd8      	it	le
 17a:	2201      	movle	r2, #1
 17c:	f88d 20af 	strb.w	r2, [sp, #175]	; 0xaf
C:\Users\guppy\.cargo\registry\src\github.com-1ecc6299db9ec823\embedded-graphics-0.5.2\src\primitives/circle.rs:193
            let item = if is_border && self.style.stroke_color.is_some() {
 180:	f89d 00ae 	ldrb.w	r0, [sp, #174]	; 0xae
 184:	ea4f 70c0 	mov.w	r0, r0, lsl #31
 188:	2800      	cmp	r0, #0
 18a:	d112      	bne.n	1b2 <_ZN121_$LT$embedded_graphics..primitives..circle..CircleIterator$LT$C$GT$$u20$as$u20$core..iter..traits..iterator..Iterator$GT$4next17he7626936cc4fb435E+0x1b2>
 18c:	e00d      	b.n	1aa <_ZN121_$LT$embedded_graphics..primitives..circle..CircleIterator$LT$C$GT$$u20$as$u20$core..iter..traits..iterator..Iterator$GT$4next17he7626936cc4fb435E+0x1aa>
C:\Users\guppy\.cargo\registry\src\github.com-1ecc6299db9ec823\embedded-graphics-0.5.2\src\primitives/circle.rs:188
            let is_border = len > radius_sq - radius && len < outer_radius_sq + radius;
 18e:	980f      	ldr	r0, [sp, #60]	; 0x3c
 190:	990e      	ldr	r1, [sp, #56]	; 0x38
 192:	4288      	cmp	r0, r1
 194:	dce1      	bgt.n	15a <_ZN121_$LT$embedded_graphics..primitives..circle..CircleIterator$LT$C$GT$$u20$as$u20$core..iter..traits..iterator..Iterator$GT$4next17he7626936cc4fb435E+0x15a>
 196:	e7dc      	b.n	152 <_ZN121_$LT$embedded_graphics..primitives..circle..CircleIterator$LT$C$GT$$u20$as$u20$core..iter..traits..iterator..Iterator$GT$4next17he7626936cc4fb435E+0x152>
 198:	980d      	ldr	r0, [sp, #52]	; 0x34
 19a:	990c      	ldr	r1, [sp, #48]	; 0x30
 19c:	4288      	cmp	r0, r1
 19e:	dbd4      	blt.n	14a <_ZN121_$LT$embedded_graphics..primitives..circle..CircleIterator$LT$C$GT$$u20$as$u20$core..iter..traits..iterator..Iterator$GT$4next17he7626936cc4fb435E+0x14a>
 1a0:	e7d7      	b.n	152 <_ZN121_$LT$embedded_graphics..primitives..circle..CircleIterator$LT$C$GT$$u20$as$u20$core..iter..traits..iterator..Iterator$GT$4next17he7626936cc4fb435E+0x152>
 1a2:	2001      	movs	r0, #1
C:\Users\guppy\.cargo\registry\src\github.com-1ecc6299db9ec823\embedded-graphics-0.5.2\src\primitives/circle.rs:193
            let item = if is_border && self.style.stroke_color.is_some() {
 1a4:	f88d 00c3 	strb.w	r0, [sp, #195]	; 0xc3
 1a8:	e009      	b.n	1be <_ZN121_$LT$embedded_graphics..primitives..circle..CircleIterator$LT$C$GT$$u20$as$u20$core..iter..traits..iterator..Iterator$GT$4next17he7626936cc4fb435E+0x1be>
 1aa:	2000      	movs	r0, #0
 1ac:	f88d 00c3 	strb.w	r0, [sp, #195]	; 0xc3
 1b0:	e005      	b.n	1be <_ZN121_$LT$embedded_graphics..primitives..circle..CircleIterator$LT$C$GT$$u20$as$u20$core..iter..traits..iterator..Iterator$GT$4next17he7626936cc4fb435E+0x1be>
 1b2:	981c      	ldr	r0, [sp, #112]	; 0x70
 1b4:	3018      	adds	r0, #24
 1b6:	f7ff fffe 	bl	0 <_ZN4core6option15Option$LT$T$GT$7is_some17hba05216f277c7958E>
 1ba:	900b      	str	r0, [sp, #44]	; 0x2c
 1bc:	e005      	b.n	1ca <_ZN121_$LT$embedded_graphics..primitives..circle..CircleIterator$LT$C$GT$$u20$as$u20$core..iter..traits..iterator..Iterator$GT$4next17he7626936cc4fb435E+0x1ca>
 1be:	f89d 00c3 	ldrb.w	r0, [sp, #195]	; 0xc3
 1c2:	07c0      	lsls	r0, r0, #31
 1c4:	2800      	cmp	r0, #0
 1c6:	d10b      	bne.n	1e0 <_ZN121_$LT$embedded_graphics..primitives..circle..CircleIterator$LT$C$GT$$u20$as$u20$core..iter..traits..iterator..Iterator$GT$4next17he7626936cc4fb435E+0x1e0>
 1c8:	e004      	b.n	1d4 <_ZN121_$LT$embedded_graphics..primitives..circle..CircleIterator$LT$C$GT$$u20$as$u20$core..iter..traits..iterator..Iterator$GT$4next17he7626936cc4fb435E+0x1d4>
 1ca:	980b      	ldr	r0, [sp, #44]	; 0x2c
 1cc:	07c1      	lsls	r1, r0, #31
 1ce:	2900      	cmp	r1, #0
 1d0:	d1e7      	bne.n	1a2 <_ZN121_$LT$embedded_graphics..primitives..circle..CircleIterator$LT$C$GT$$u20$as$u20$core..iter..traits..iterator..Iterator$GT$4next17he7626936cc4fb435E+0x1a2>
 1d2:	e7ea      	b.n	1aa <_ZN121_$LT$embedded_graphics..primitives..circle..CircleIterator$LT$C$GT$$u20$as$u20$core..iter..traits..iterator..Iterator$GT$4next17he7626936cc4fb435E+0x1aa>
C:\Users\guppy\.cargo\registry\src\github.com-1ecc6299db9ec823\embedded-graphics-0.5.2\src\primitives/circle.rs:199
            } else if is_fill && self.style.fill_color.is_some() {
 1d4:	f89d 00af 	ldrb.w	r0, [sp, #175]	; 0xaf
 1d8:	07c0      	lsls	r0, r0, #31
 1da:	2800      	cmp	r0, #0
 1dc:	d13a      	bne.n	254 <_ZN121_$LT$embedded_graphics..primitives..circle..CircleIterator$LT$C$GT$$u20$as$u20$core..iter..traits..iterator..Iterator$GT$4next17he7626936cc4fb435E+0x254>
 1de:	e035      	b.n	24c <_ZN121_$LT$embedded_graphics..primitives..circle..CircleIterator$LT$C$GT$$u20$as$u20$core..iter..traits..iterator..Iterator$GT$4next17he7626936cc4fb435E+0x24c>
C:\Users\guppy\.cargo\registry\src\github.com-1ecc6299db9ec823\embedded-graphics-0.5.2\src\primitives/circle.rs:195
                    cx + tx,
 1e0:	981e      	ldr	r0, [sp, #120]	; 0x78
 1e2:	9928      	ldr	r1, [sp, #160]	; 0xa0
 1e4:	4401      	add	r1, r0
 1e6:	460a      	mov	r2, r1
 1e8:	4281      	cmp	r1, r0
 1ea:	920a      	str	r2, [sp, #40]	; 0x28
 1ec:	f180 8154 	bvs.w	498 <_ZN121_$LT$embedded_graphics..primitives..circle..CircleIterator$LT$C$GT$$u20$as$u20$core..iter..traits..iterator..Iterator$GT$4next17he7626936cc4fb435E+0x498>
 1f0:	e7ff      	b.n	1f2 <_ZN121_$LT$embedded_graphics..primitives..circle..CircleIterator$LT$C$GT$$u20$as$u20$core..iter..traits..iterator..Iterator$GT$4next17he7626936cc4fb435E+0x1f2>
C:\Users\guppy\.cargo\registry\src\github.com-1ecc6299db9ec823\embedded-graphics-0.5.2\src\primitives/circle.rs:196
                    cy + ty,
 1f2:	981f      	ldr	r0, [sp, #124]	; 0x7c
 1f4:	9929      	ldr	r1, [sp, #164]	; 0xa4
 1f6:	4401      	add	r1, r0
 1f8:	460a      	mov	r2, r1
 1fa:	4281      	cmp	r1, r0
 1fc:	9209      	str	r2, [sp, #36]	; 0x24
 1fe:	f180 8157 	bvs.w	4b0 <_ZN121_$LT$embedded_graphics..primitives..circle..CircleIterator$LT$C$GT$$u20$as$u20$core..iter..traits..iterator..Iterator$GT$4next17he7626936cc4fb435E+0x4b0>
 202:	e7ff      	b.n	204 <_ZN121_$LT$embedded_graphics..primitives..circle..CircleIterator$LT$C$GT$$u20$as$u20$core..iter..traits..iterator..Iterator$GT$4next17he7626936cc4fb435E+0x204>
C:\Users\guppy\.cargo\registry\src\github.com-1ecc6299db9ec823\embedded-graphics-0.5.2\src\primitives/circle.rs:197
                    self.style.stroke_color.expect("Border color not defined"),
 204:	981c      	ldr	r0, [sp, #112]	; 0x70
 206:	8b41      	ldrh	r1, [r0, #26]
 208:	8b00      	ldrh	r0, [r0, #24]
 20a:	f240 0200 	movw	r2, #0
 20e:	f2c0 0200 	movt	r2, #0
 212:	2318      	movs	r3, #24
 214:	f7ff fffe 	bl	0 <_ZN4core6option15Option$LT$T$GT$6expect17h91bf2b5bcb330826E>
 218:	9008      	str	r0, [sp, #32]
 21a:	e7ff      	b.n	21c <_ZN121_$LT$embedded_graphics..primitives..circle..CircleIterator$LT$C$GT$$u20$as$u20$core..iter..traits..iterator..Iterator$GT$4next17he7626936cc4fb435E+0x21c>
C:\Users\guppy\.cargo\registry\src\github.com-1ecc6299db9ec823\embedded-graphics-0.5.2\src\primitives/circle.rs:194
                Some((
 21c:	980a      	ldr	r0, [sp, #40]	; 0x28
 21e:	9031      	str	r0, [sp, #196]	; 0xc4
 220:	9909      	ldr	r1, [sp, #36]	; 0x24
 222:	9132      	str	r1, [sp, #200]	; 0xc8
 224:	9a08      	ldr	r2, [sp, #32]
 226:	f8ad 20cc 	strh.w	r2, [sp, #204]	; 0xcc
 22a:	9b31      	ldr	r3, [sp, #196]	; 0xc4
 22c:	f8dd c0c8 	ldr.w	ip, [sp, #200]	; 0xc8
 230:	f8dd e0cc 	ldr.w	lr, [sp, #204]	; 0xcc
 234:	f8cd e0bc 	str.w	lr, [sp, #188]	; 0xbc
 238:	f8cd c0b8 	str.w	ip, [sp, #184]	; 0xb8
 23c:	932d      	str	r3, [sp, #180]	; 0xb4
 23e:	2301      	movs	r3, #1
 240:	932c      	str	r3, [sp, #176]	; 0xb0
C:\Users\guppy\.cargo\registry\src\github.com-1ecc6299db9ec823\embedded-graphics-0.5.2\src\primitives/circle.rs:193
            let item = if is_border && self.style.stroke_color.is_some() {
 242:	e04e      	b.n	2e2 <_ZN121_$LT$embedded_graphics..primitives..circle..CircleIterator$LT$C$GT$$u20$as$u20$core..iter..traits..iterator..Iterator$GT$4next17he7626936cc4fb435E+0x2e2>
 244:	2001      	movs	r0, #1
C:\Users\guppy\.cargo\registry\src\github.com-1ecc6299db9ec823\embedded-graphics-0.5.2\src\primitives/circle.rs:199
            } else if is_fill && self.style.fill_color.is_some() {
 246:	f88d 00d3 	strb.w	r0, [sp, #211]	; 0xd3
 24a:	e009      	b.n	260 <_ZN121_$LT$embedded_graphics..primitives..circle..CircleIterator$LT$C$GT$$u20$as$u20$core..iter..traits..iterator..Iterator$GT$4next17he7626936cc4fb435E+0x260>
 24c:	2000      	movs	r0, #0
 24e:	f88d 00d3 	strb.w	r0, [sp, #211]	; 0xd3
 252:	e005      	b.n	260 <_ZN121_$LT$embedded_graphics..primitives..circle..CircleIterator$LT$C$GT$$u20$as$u20$core..iter..traits..iterator..Iterator$GT$4next17he7626936cc4fb435E+0x260>
 254:	981c      	ldr	r0, [sp, #112]	; 0x70
 256:	3014      	adds	r0, #20
 258:	f7ff fffe 	bl	0 <_ZN4core6option15Option$LT$T$GT$7is_some17hba05216f277c7958E>
 25c:	9007      	str	r0, [sp, #28]
 25e:	e005      	b.n	26c <_ZN121_$LT$embedded_graphics..primitives..circle..CircleIterator$LT$C$GT$$u20$as$u20$core..iter..traits..iterator..Iterator$GT$4next17he7626936cc4fb435E+0x26c>
 260:	f89d 00d3 	ldrb.w	r0, [sp, #211]	; 0xd3
 264:	07c0      	lsls	r0, r0, #31
 266:	2800      	cmp	r0, #0
 268:	d108      	bne.n	27c <_ZN121_$LT$embedded_graphics..primitives..circle..CircleIterator$LT$C$GT$$u20$as$u20$core..iter..traits..iterator..Iterator$GT$4next17he7626936cc4fb435E+0x27c>
 26a:	e004      	b.n	276 <_ZN121_$LT$embedded_graphics..primitives..circle..CircleIterator$LT$C$GT$$u20$as$u20$core..iter..traits..iterator..Iterator$GT$4next17he7626936cc4fb435E+0x276>
 26c:	9807      	ldr	r0, [sp, #28]
 26e:	07c1      	lsls	r1, r0, #31
 270:	2900      	cmp	r1, #0
 272:	d1e7      	bne.n	244 <_ZN121_$LT$embedded_graphics..primitives..circle..CircleIterator$LT$C$GT$$u20$as$u20$core..iter..traits..iterator..Iterator$GT$4next17he7626936cc4fb435E+0x244>
 274:	e7ea      	b.n	24c <_ZN121_$LT$embedded_graphics..primitives..circle..CircleIterator$LT$C$GT$$u20$as$u20$core..iter..traits..iterator..Iterator$GT$4next17he7626936cc4fb435E+0x24c>
 276:	2000      	movs	r0, #0
C:\Users\guppy\.cargo\registry\src\github.com-1ecc6299db9ec823\embedded-graphics-0.5.2\src\primitives/circle.rs:206
                None
 278:	902c      	str	r0, [sp, #176]	; 0xb0
C:\Users\guppy\.cargo\registry\src\github.com-1ecc6299db9ec823\embedded-graphics-0.5.2\src\primitives/circle.rs:199
            } else if is_fill && self.style.fill_color.is_some() {
 27a:	e031      	b.n	2e0 <_ZN121_$LT$embedded_graphics..primitives..circle..CircleIterator$LT$C$GT$$u20$as$u20$core..iter..traits..iterator..Iterator$GT$4next17he7626936cc4fb435E+0x2e0>
C:\Users\guppy\.cargo\registry\src\github.com-1ecc6299db9ec823\embedded-graphics-0.5.2\src\primitives/circle.rs:201
                    cx + tx,
 27c:	981e      	ldr	r0, [sp, #120]	; 0x78
 27e:	9928      	ldr	r1, [sp, #160]	; 0xa0
 280:	4401      	add	r1, r0
 282:	460a      	mov	r2, r1
 284:	4281      	cmp	r1, r0
 286:	9206      	str	r2, [sp, #24]
 288:	f180 811e 	bvs.w	4c8 <_ZN121_$LT$embedded_graphics..primitives..circle..CircleIterator$LT$C$GT$$u20$as$u20$core..iter..traits..iterator..Iterator$GT$4next17he7626936cc4fb435E+0x4c8>
 28c:	e7ff      	b.n	28e <_ZN121_$LT$embedded_graphics..primitives..circle..CircleIterator$LT$C$GT$$u20$as$u20$core..iter..traits..iterator..Iterator$GT$4next17he7626936cc4fb435E+0x28e>
C:\Users\guppy\.cargo\registry\src\github.com-1ecc6299db9ec823\embedded-graphics-0.5.2\src\primitives/circle.rs:202
                    cy + ty,
 28e:	981f      	ldr	r0, [sp, #124]	; 0x7c
 290:	9929      	ldr	r1, [sp, #164]	; 0xa4
 292:	4401      	add	r1, r0
 294:	460a      	mov	r2, r1
 296:	4281      	cmp	r1, r0
 298:	9205      	str	r2, [sp, #20]
 29a:	f180 8121 	bvs.w	4e0 <_ZN121_$LT$embedded_graphics..primitives..circle..CircleIterator$LT$C$GT$$u20$as$u20$core..iter..traits..iterator..Iterator$GT$4next17he7626936cc4fb435E+0x4e0>
 29e:	e7ff      	b.n	2a0 <_ZN121_$LT$embedded_graphics..primitives..circle..CircleIterator$LT$C$GT$$u20$as$u20$core..iter..traits..iterator..Iterator$GT$4next17he7626936cc4fb435E+0x2a0>
C:\Users\guppy\.cargo\registry\src\github.com-1ecc6299db9ec823\embedded-graphics-0.5.2\src\primitives/circle.rs:203
                    self.style.fill_color.expect("Fill color not defined"),
 2a0:	981c      	ldr	r0, [sp, #112]	; 0x70
 2a2:	8ac1      	ldrh	r1, [r0, #22]
 2a4:	8a80      	ldrh	r0, [r0, #20]
 2a6:	f240 0200 	movw	r2, #0
 2aa:	f2c0 0200 	movt	r2, #0
 2ae:	2316      	movs	r3, #22
 2b0:	f7ff fffe 	bl	0 <_ZN4core6option15Option$LT$T$GT$6expect17h91bf2b5bcb330826E>
 2b4:	9004      	str	r0, [sp, #16]
 2b6:	e7ff      	b.n	2b8 <_ZN121_$LT$embedded_graphics..primitives..circle..CircleIterator$LT$C$GT$$u20$as$u20$core..iter..traits..iterator..Iterator$GT$4next17he7626936cc4fb435E+0x2b8>
C:\Users\guppy\.cargo\registry\src\github.com-1ecc6299db9ec823\embedded-graphics-0.5.2\src\primitives/circle.rs:200
                Some((
 2b8:	9806      	ldr	r0, [sp, #24]
 2ba:	9035      	str	r0, [sp, #212]	; 0xd4
 2bc:	9905      	ldr	r1, [sp, #20]
 2be:	9136      	str	r1, [sp, #216]	; 0xd8
 2c0:	9a04      	ldr	r2, [sp, #16]
 2c2:	f8ad 20dc 	strh.w	r2, [sp, #220]	; 0xdc
 2c6:	9b35      	ldr	r3, [sp, #212]	; 0xd4
 2c8:	f8dd c0d8 	ldr.w	ip, [sp, #216]	; 0xd8
 2cc:	f8dd e0dc 	ldr.w	lr, [sp, #220]	; 0xdc
 2d0:	f8cd e0bc 	str.w	lr, [sp, #188]	; 0xbc
 2d4:	f8cd c0b8 	str.w	ip, [sp, #184]	; 0xb8
 2d8:	932d      	str	r3, [sp, #180]	; 0xb4
 2da:	2301      	movs	r3, #1
 2dc:	932c      	str	r3, [sp, #176]	; 0xb0
C:\Users\guppy\.cargo\registry\src\github.com-1ecc6299db9ec823\embedded-graphics-0.5.2\src\primitives/circle.rs:199
            } else if is_fill && self.style.fill_color.is_some() {
 2de:	e7ff      	b.n	2e0 <_ZN121_$LT$embedded_graphics..primitives..circle..CircleIterator$LT$C$GT$$u20$as$u20$core..iter..traits..iterator..Iterator$GT$4next17he7626936cc4fb435E+0x2e0>
C:\Users\guppy\.cargo\registry\src\github.com-1ecc6299db9ec823\embedded-graphics-0.5.2\src\primitives/circle.rs:193
            let item = if is_border && self.style.stroke_color.is_some() {
 2e0:	e7ff      	b.n	2e2 <_ZN121_$LT$embedded_graphics..primitives..circle..CircleIterator$LT$C$GT$$u20$as$u20$core..iter..traits..iterator..Iterator$GT$4next17he7626936cc4fb435E+0x2e2>
C:\Users\guppy\.cargo\registry\src\github.com-1ecc6299db9ec823\embedded-graphics-0.5.2\src\primitives/circle.rs:209
            self.x += 1;
 2e2:	981c      	ldr	r0, [sp, #112]	; 0x70
 2e4:	68c0      	ldr	r0, [r0, #12]
 2e6:	1c41      	adds	r1, r0, #1
 2e8:	460a      	mov	r2, r1
 2ea:	4281      	cmp	r1, r0
 2ec:	9203      	str	r2, [sp, #12]
 2ee:	f180 8103 	bvs.w	4f8 <_ZN121_$LT$embedded_graphics..primitives..circle..CircleIterator$LT$C$GT$$u20$as$u20$core..iter..traits..iterator..Iterator$GT$4next17he7626936cc4fb435E+0x4f8>
 2f2:	e7ff      	b.n	2f4 <_ZN121_$LT$embedded_graphics..primitives..circle..CircleIterator$LT$C$GT$$u20$as$u20$core..iter..traits..iterator..Iterator$GT$4next17he7626936cc4fb435E+0x2f4>
 2f4:	981c      	ldr	r0, [sp, #112]	; 0x70
 2f6:	9903      	ldr	r1, [sp, #12]
 2f8:	60c1      	str	r1, [r0, #12]
C:\Users\guppy\.cargo\registry\src\github.com-1ecc6299db9ec823\embedded-graphics-0.5.2\src\primitives/circle.rs:211
            if self.x > self.radius as i32 {
 2fa:	981c      	ldr	r0, [sp, #112]	; 0x70
 2fc:	6882      	ldr	r2, [r0, #8]
 2fe:	68c0      	ldr	r0, [r0, #12]
 300:	4290      	cmp	r0, r2
 302:	dd19      	ble.n	338 <_ZN121_$LT$embedded_graphics..primitives..circle..CircleIterator$LT$C$GT$$u20$as$u20$core..iter..traits..iterator..Iterator$GT$4next17he7626936cc4fb435E+0x338>
 304:	e7ff      	b.n	306 <_ZN121_$LT$embedded_graphics..primitives..circle..CircleIterator$LT$C$GT$$u20$as$u20$core..iter..traits..iterator..Iterator$GT$4next17he7626936cc4fb435E+0x306>
C:\Users\guppy\.cargo\registry\src\github.com-1ecc6299db9ec823\embedded-graphics-0.5.2\src\primitives/circle.rs:212
                self.x = -(self.radius as i32);
 306:	981c      	ldr	r0, [sp, #112]	; 0x70
 308:	6880      	ldr	r0, [r0, #8]
 30a:	f1b0 4f00 	cmp.w	r0, #2147483648	; 0x80000000
 30e:	9002      	str	r0, [sp, #8]
 310:	f000 80fe 	beq.w	510 <_ZN121_$LT$embedded_graphics..primitives..circle..CircleIterator$LT$C$GT$$u20$as$u20$core..iter..traits..iterator..Iterator$GT$4next17he7626936cc4fb435E+0x510>
 314:	e7ff      	b.n	316 <_ZN121_$LT$embedded_graphics..primitives..circle..CircleIterator$LT$C$GT$$u20$as$u20$core..iter..traits..iterator..Iterator$GT$4next17he7626936cc4fb435E+0x316>
 316:	981c      	ldr	r0, [sp, #112]	; 0x70
 318:	9902      	ldr	r1, [sp, #8]
 31a:	424a      	negs	r2, r1
 31c:	60c2      	str	r2, [r0, #12]
C:\Users\guppy\.cargo\registry\src\github.com-1ecc6299db9ec823\embedded-graphics-0.5.2\src\primitives/circle.rs:213
                self.y += 1;
 31e:	981c      	ldr	r0, [sp, #112]	; 0x70
 320:	6900      	ldr	r0, [r0, #16]
 322:	1c42      	adds	r2, r0, #1
 324:	4613      	mov	r3, r2
 326:	4282      	cmp	r2, r0
 328:	9301      	str	r3, [sp, #4]
 32a:	f180 80fd 	bvs.w	528 <_ZN121_$LT$embedded_graphics..primitives..circle..CircleIterator$LT$C$GT$$u20$as$u20$core..iter..traits..iterator..Iterator$GT$4next17he7626936cc4fb435E+0x528>
 32e:	e7ff      	b.n	330 <_ZN121_$LT$embedded_graphics..primitives..circle..CircleIterator$LT$C$GT$$u20$as$u20$core..iter..traits..iterator..Iterator$GT$4next17he7626936cc4fb435E+0x330>
 330:	981c      	ldr	r0, [sp, #112]	; 0x70
 332:	9901      	ldr	r1, [sp, #4]
 334:	6101      	str	r1, [r0, #16]
C:\Users\guppy\.cargo\registry\src\github.com-1ecc6299db9ec823\embedded-graphics-0.5.2\src\primitives/circle.rs:211
            if self.x > self.radius as i32 {
 336:	e7ff      	b.n	338 <_ZN121_$LT$embedded_graphics..primitives..circle..CircleIterator$LT$C$GT$$u20$as$u20$core..iter..traits..iterator..Iterator$GT$4next17he7626936cc4fb435E+0x338>
C:\Users\guppy\.cargo\registry\src\github.com-1ecc6299db9ec823\embedded-graphics-0.5.2\src\primitives/circle.rs:216
            if self.y > self.radius as i32 {
 338:	981c      	ldr	r0, [sp, #112]	; 0x70
 33a:	6881      	ldr	r1, [r0, #8]
 33c:	6900      	ldr	r0, [r0, #16]
 33e:	4288      	cmp	r0, r1
 340:	dc04      	bgt.n	34c <_ZN121_$LT$embedded_graphics..primitives..circle..CircleIterator$LT$C$GT$$u20$as$u20$core..iter..traits..iterator..Iterator$GT$4next17he7626936cc4fb435E+0x34c>
 342:	e7ff      	b.n	344 <_ZN121_$LT$embedded_graphics..primitives..circle..CircleIterator$LT$C$GT$$u20$as$u20$core..iter..traits..iterator..Iterator$GT$4next17he7626936cc4fb435E+0x344>
C:\Users\guppy\.cargo\registry\src\github.com-1ecc6299db9ec823\embedded-graphics-0.5.2\src\primitives/circle.rs:220
            if let Some(i) = item {
 344:	982c      	ldr	r0, [sp, #176]	; 0xb0
 346:	2801      	cmp	r0, #1
 348:	d010      	beq.n	36c <_ZN121_$LT$embedded_graphics..primitives..circle..CircleIterator$LT$C$GT$$u20$as$u20$core..iter..traits..iterator..Iterator$GT$4next17he7626936cc4fb435E+0x36c>
 34a:	e037      	b.n	3bc <_ZN121_$LT$embedded_graphics..primitives..circle..CircleIterator$LT$C$GT$$u20$as$u20$core..iter..traits..iterator..Iterator$GT$4next17he7626936cc4fb435E+0x3bc>
 34c:	2000      	movs	r0, #0
C:\Users\guppy\.cargo\registry\src\github.com-1ecc6299db9ec823\embedded-graphics-0.5.2\src\primitives/circle.rs:217
                break None;
 34e:	9024      	str	r0, [sp, #144]	; 0x90
 350:	e7ff      	b.n	352 <_ZN121_$LT$embedded_graphics..primitives..circle..CircleIterator$LT$C$GT$$u20$as$u20$core..iter..traits..iterator..Iterator$GT$4next17he7626936cc4fb435E+0x352>
C:\Users\guppy\.cargo\registry\src\github.com-1ecc6299db9ec823\embedded-graphics-0.5.2\src\primitives/circle.rs:227
        item.map(|(x, y, c)| Pixel(Coord::new(x, y).to_unsigned(), c))
 352:	9824      	ldr	r0, [sp, #144]	; 0x90
 354:	9925      	ldr	r1, [sp, #148]	; 0x94
 356:	9a26      	ldr	r2, [sp, #152]	; 0x98
 358:	9b27      	ldr	r3, [sp, #156]	; 0x9c
 35a:	933f      	str	r3, [sp, #252]	; 0xfc
 35c:	923e      	str	r2, [sp, #248]	; 0xf8
 35e:	913d      	str	r1, [sp, #244]	; 0xf4
 360:	903c      	str	r0, [sp, #240]	; 0xf0
 362:	a93c      	add	r1, sp, #240	; 0xf0
 364:	981b      	ldr	r0, [sp, #108]	; 0x6c
 366:	f7ff fffe 	bl	0 <_ZN4core6option15Option$LT$T$GT$3map17h6d8e0fe1a0730e67E>
 36a:	e028      	b.n	3be <_ZN121_$LT$embedded_graphics..primitives..circle..CircleIterator$LT$C$GT$$u20$as$u20$core..iter..traits..iterator..Iterator$GT$4next17he7626936cc4fb435E+0x3be>
C:\Users\guppy\.cargo\registry\src\github.com-1ecc6299db9ec823\embedded-graphics-0.5.2\src\primitives/circle.rs:220
            if let Some(i) = item {
 36c:	982d      	ldr	r0, [sp, #180]	; 0xb4
 36e:	992e      	ldr	r1, [sp, #184]	; 0xb8
 370:	9a2f      	ldr	r2, [sp, #188]	; 0xbc
 372:	923a      	str	r2, [sp, #232]	; 0xe8
 374:	9139      	str	r1, [sp, #228]	; 0xe4
 376:	9038      	str	r0, [sp, #224]	; 0xe0
C:\Users\guppy\.cargo\registry\src\github.com-1ecc6299db9ec823\embedded-graphics-0.5.2\src\primitives/circle.rs:221
                if i.0 >= 0 && i.1 >= 0 {
 378:	9838      	ldr	r0, [sp, #224]	; 0xe0
 37a:	f1b0 3fff 	cmp.w	r0, #4294967295
 37e:	dc08      	bgt.n	392 <_ZN121_$LT$embedded_graphics..primitives..circle..CircleIterator$LT$C$GT$$u20$as$u20$core..iter..traits..iterator..Iterator$GT$4next17he7626936cc4fb435E+0x392>
 380:	e003      	b.n	38a <_ZN121_$LT$embedded_graphics..primitives..circle..CircleIterator$LT$C$GT$$u20$as$u20$core..iter..traits..iterator..Iterator$GT$4next17he7626936cc4fb435E+0x38a>
 382:	2001      	movs	r0, #1
 384:	f88d 00ef 	strb.w	r0, [sp, #239]	; 0xef
 388:	e008      	b.n	39c <_ZN121_$LT$embedded_graphics..primitives..circle..CircleIterator$LT$C$GT$$u20$as$u20$core..iter..traits..iterator..Iterator$GT$4next17he7626936cc4fb435E+0x39c>
 38a:	2000      	movs	r0, #0
 38c:	f88d 00ef 	strb.w	r0, [sp, #239]	; 0xef
 390:	e004      	b.n	39c <_ZN121_$LT$embedded_graphics..primitives..circle..CircleIterator$LT$C$GT$$u20$as$u20$core..iter..traits..iterator..Iterator$GT$4next17he7626936cc4fb435E+0x39c>
 392:	9839      	ldr	r0, [sp, #228]	; 0xe4
 394:	f1b0 3fff 	cmp.w	r0, #4294967295
 398:	dcf3      	bgt.n	382 <_ZN121_$LT$embedded_graphics..primitives..circle..CircleIterator$LT$C$GT$$u20$as$u20$core..iter..traits..iterator..Iterator$GT$4next17he7626936cc4fb435E+0x382>
 39a:	e7f6      	b.n	38a <_ZN121_$LT$embedded_graphics..primitives..circle..CircleIterator$LT$C$GT$$u20$as$u20$core..iter..traits..iterator..Iterator$GT$4next17he7626936cc4fb435E+0x38a>
 39c:	f89d 00ef 	ldrb.w	r0, [sp, #239]	; 0xef
 3a0:	07c0      	lsls	r0, r0, #31
 3a2:	2800      	cmp	r0, #0
 3a4:	d101      	bne.n	3aa <_ZN121_$LT$embedded_graphics..primitives..circle..CircleIterator$LT$C$GT$$u20$as$u20$core..iter..traits..iterator..Iterator$GT$4next17he7626936cc4fb435E+0x3aa>
 3a6:	e7ff      	b.n	3a8 <_ZN121_$LT$embedded_graphics..primitives..circle..CircleIterator$LT$C$GT$$u20$as$u20$core..iter..traits..iterator..Iterator$GT$4next17he7626936cc4fb435E+0x3a8>
C:\Users\guppy\.cargo\registry\src\github.com-1ecc6299db9ec823\embedded-graphics-0.5.2\src\primitives/circle.rs:220
            if let Some(i) = item {
 3a8:	e008      	b.n	3bc <_ZN121_$LT$embedded_graphics..primitives..circle..CircleIterator$LT$C$GT$$u20$as$u20$core..iter..traits..iterator..Iterator$GT$4next17he7626936cc4fb435E+0x3bc>
C:\Users\guppy\.cargo\registry\src\github.com-1ecc6299db9ec823\embedded-graphics-0.5.2\src\primitives/circle.rs:222
                    break item;
 3aa:	982c      	ldr	r0, [sp, #176]	; 0xb0
 3ac:	992d      	ldr	r1, [sp, #180]	; 0xb4
 3ae:	9a2e      	ldr	r2, [sp, #184]	; 0xb8
 3b0:	9b2f      	ldr	r3, [sp, #188]	; 0xbc
 3b2:	9327      	str	r3, [sp, #156]	; 0x9c
 3b4:	9226      	str	r2, [sp, #152]	; 0x98
 3b6:	9125      	str	r1, [sp, #148]	; 0x94
 3b8:	9024      	str	r0, [sp, #144]	; 0x90
 3ba:	e7ca      	b.n	352 <_ZN121_$LT$embedded_graphics..primitives..circle..CircleIterator$LT$C$GT$$u20$as$u20$core..iter..traits..iterator..Iterator$GT$4next17he7626936cc4fb435E+0x352>
C:\Users\guppy\.cargo\registry\src\github.com-1ecc6299db9ec823\embedded-graphics-0.5.2\src\primitives/circle.rs:183
        let item = loop {
 3bc:	e692      	b.n	e4 <_ZN121_$LT$embedded_graphics..primitives..circle..CircleIterator$LT$C$GT$$u20$as$u20$core..iter..traits..iterator..Iterator$GT$4next17he7626936cc4fb435E+0xe4>
C:\Users\guppy\.cargo\registry\src\github.com-1ecc6299db9ec823\embedded-graphics-0.5.2\src\primitives/circle.rs:228
    }
 3be:	e652      	b.n	66 <_ZN121_$LT$embedded_graphics..primitives..circle..CircleIterator$LT$C$GT$$u20$as$u20$core..iter..traits..iterator..Iterator$GT$4next17he7626936cc4fb435E+0x66>
C:\Users\guppy\.cargo\registry\src\github.com-1ecc6299db9ec823\embedded-graphics-0.5.2\src\primitives/circle.rs:177
        let radius = self.radius as i32 - self.style.stroke_width as i32 + 1;
 3c0:	f240 0000 	movw	r0, #0
 3c4:	f2c0 0000 	movt	r0, #0
 3c8:	f240 0200 	movw	r2, #0
 3cc:	f2c0 0200 	movt	r2, #0
 3d0:	2121      	movs	r1, #33	; 0x21
 3d2:	f7ff fffe 	bl	0 <_ZN4core9panicking5panic17hfdd0eecc44a682f8E>
 3d6:	defe      	udf	#254	; 0xfe
 3d8:	f240 0000 	movw	r0, #0
 3dc:	f2c0 0000 	movt	r0, #0
 3e0:	f240 0200 	movw	r2, #0
 3e4:	f2c0 0200 	movt	r2, #0
 3e8:	211c      	movs	r1, #28
 3ea:	f7ff fffe 	bl	0 <_ZN4core9panicking5panic17hfdd0eecc44a682f8E>
 3ee:	defe      	udf	#254	; 0xfe
C:\Users\guppy\.cargo\registry\src\github.com-1ecc6299db9ec823\embedded-graphics-0.5.2\src\primitives/circle.rs:180
        let radius_sq = radius * radius;
 3f0:	f240 0000 	movw	r0, #0
 3f4:	f2c0 0000 	movt	r0, #0
 3f8:	f240 0200 	movw	r2, #0
 3fc:	f2c0 0200 	movt	r2, #0
 400:	2121      	movs	r1, #33	; 0x21
 402:	f7ff fffe 	bl	0 <_ZN4core9panicking5panic17hfdd0eecc44a682f8E>
 406:	defe      	udf	#254	; 0xfe
C:\Users\guppy\.cargo\registry\src\github.com-1ecc6299db9ec823\embedded-graphics-0.5.2\src\primitives/circle.rs:181
        let outer_radius_sq = outer_radius * outer_radius;
 408:	f240 0000 	movw	r0, #0
 40c:	f2c0 0000 	movt	r0, #0
 410:	f240 0200 	movw	r2, #0
 414:	f2c0 0200 	movt	r2, #0
 418:	2121      	movs	r1, #33	; 0x21
 41a:	f7ff fffe 	bl	0 <_ZN4core9panicking5panic17hfdd0eecc44a682f8E>
 41e:	defe      	udf	#254	; 0xfe
C:\Users\guppy\.cargo\registry\src\github.com-1ecc6299db9ec823\embedded-graphics-0.5.2\src\primitives/circle.rs:186
            let len = tx * tx + ty * ty;
 420:	f240 0000 	movw	r0, #0
 424:	f2c0 0000 	movt	r0, #0
 428:	f240 0200 	movw	r2, #0
 42c:	f2c0 0200 	movt	r2, #0
 430:	2121      	movs	r1, #33	; 0x21
 432:	f7ff fffe 	bl	0 <_ZN4core9panicking5panic17hfdd0eecc44a682f8E>
 436:	defe      	udf	#254	; 0xfe
 438:	f240 0000 	movw	r0, #0
 43c:	f2c0 0000 	movt	r0, #0
 440:	f240 0200 	movw	r2, #0
 444:	f2c0 0200 	movt	r2, #0
 448:	2121      	movs	r1, #33	; 0x21
 44a:	f7ff fffe 	bl	0 <_ZN4core9panicking5panic17hfdd0eecc44a682f8E>
 44e:	defe      	udf	#254	; 0xfe
 450:	f240 0000 	movw	r0, #0
 454:	f2c0 0000 	movt	r0, #0
 458:	f240 0200 	movw	r2, #0
 45c:	f2c0 0200 	movt	r2, #0
 460:	211c      	movs	r1, #28
 462:	f7ff fffe 	bl	0 <_ZN4core9panicking5panic17hfdd0eecc44a682f8E>
 466:	defe      	udf	#254	; 0xfe
C:\Users\guppy\.cargo\registry\src\github.com-1ecc6299db9ec823\embedded-graphics-0.5.2\src\primitives/circle.rs:188
            let is_border = len > radius_sq - radius && len < outer_radius_sq + radius;
 468:	f240 0000 	movw	r0, #0
 46c:	f2c0 0000 	movt	r0, #0
 470:	f240 0200 	movw	r2, #0
 474:	f2c0 0200 	movt	r2, #0
 478:	2121      	movs	r1, #33	; 0x21
 47a:	f7ff fffe 	bl	0 <_ZN4core9panicking5panic17hfdd0eecc44a682f8E>
 47e:	defe      	udf	#254	; 0xfe
 480:	f240 0000 	movw	r0, #0
 484:	f2c0 0000 	movt	r0, #0
 488:	f240 0200 	movw	r2, #0
 48c:	f2c0 0200 	movt	r2, #0
 490:	211c      	movs	r1, #28
 492:	f7ff fffe 	bl	0 <_ZN4core9panicking5panic17hfdd0eecc44a682f8E>
 496:	defe      	udf	#254	; 0xfe
C:\Users\guppy\.cargo\registry\src\github.com-1ecc6299db9ec823\embedded-graphics-0.5.2\src\primitives/circle.rs:195
                    cx + tx,
 498:	f240 0000 	movw	r0, #0
 49c:	f2c0 0000 	movt	r0, #0
 4a0:	f240 0200 	movw	r2, #0
 4a4:	f2c0 0200 	movt	r2, #0
 4a8:	211c      	movs	r1, #28
 4aa:	f7ff fffe 	bl	0 <_ZN4core9panicking5panic17hfdd0eecc44a682f8E>
 4ae:	defe      	udf	#254	; 0xfe
C:\Users\guppy\.cargo\registry\src\github.com-1ecc6299db9ec823\embedded-graphics-0.5.2\src\primitives/circle.rs:196
                    cy + ty,
 4b0:	f240 0000 	movw	r0, #0
 4b4:	f2c0 0000 	movt	r0, #0
 4b8:	f240 0200 	movw	r2, #0
 4bc:	f2c0 0200 	movt	r2, #0
 4c0:	211c      	movs	r1, #28
 4c2:	f7ff fffe 	bl	0 <_ZN4core9panicking5panic17hfdd0eecc44a682f8E>
 4c6:	defe      	udf	#254	; 0xfe
C:\Users\guppy\.cargo\registry\src\github.com-1ecc6299db9ec823\embedded-graphics-0.5.2\src\primitives/circle.rs:201
                    cx + tx,
 4c8:	f240 0000 	movw	r0, #0
 4cc:	f2c0 0000 	movt	r0, #0
 4d0:	f240 0200 	movw	r2, #0
 4d4:	f2c0 0200 	movt	r2, #0
 4d8:	211c      	movs	r1, #28
 4da:	f7ff fffe 	bl	0 <_ZN4core9panicking5panic17hfdd0eecc44a682f8E>
 4de:	defe      	udf	#254	; 0xfe
C:\Users\guppy\.cargo\registry\src\github.com-1ecc6299db9ec823\embedded-graphics-0.5.2\src\primitives/circle.rs:202
                    cy + ty,
 4e0:	f240 0000 	movw	r0, #0
 4e4:	f2c0 0000 	movt	r0, #0
 4e8:	f240 0200 	movw	r2, #0
 4ec:	f2c0 0200 	movt	r2, #0
 4f0:	211c      	movs	r1, #28
 4f2:	f7ff fffe 	bl	0 <_ZN4core9panicking5panic17hfdd0eecc44a682f8E>
 4f6:	defe      	udf	#254	; 0xfe
C:\Users\guppy\.cargo\registry\src\github.com-1ecc6299db9ec823\embedded-graphics-0.5.2\src\primitives/circle.rs:209
            self.x += 1;
 4f8:	f240 0000 	movw	r0, #0
 4fc:	f2c0 0000 	movt	r0, #0
 500:	f240 0200 	movw	r2, #0
 504:	f2c0 0200 	movt	r2, #0
 508:	211c      	movs	r1, #28
 50a:	f7ff fffe 	bl	0 <_ZN4core9panicking5panic17hfdd0eecc44a682f8E>
 50e:	defe      	udf	#254	; 0xfe
C:\Users\guppy\.cargo\registry\src\github.com-1ecc6299db9ec823\embedded-graphics-0.5.2\src\primitives/circle.rs:212
                self.x = -(self.radius as i32);
 510:	f240 0000 	movw	r0, #0
 514:	f2c0 0000 	movt	r0, #0
 518:	f240 0200 	movw	r2, #0
 51c:	f2c0 0200 	movt	r2, #0
 520:	211f      	movs	r1, #31
 522:	f7ff fffe 	bl	0 <_ZN4core9panicking5panic17hfdd0eecc44a682f8E>
 526:	defe      	udf	#254	; 0xfe
C:\Users\guppy\.cargo\registry\src\github.com-1ecc6299db9ec823\embedded-graphics-0.5.2\src\primitives/circle.rs:213
                self.y += 1;
 528:	f240 0000 	movw	r0, #0
 52c:	f2c0 0000 	movt	r0, #0
 530:	f240 0200 	movw	r2, #0
 534:	f2c0 0200 	movt	r2, #0
 538:	211c      	movs	r1, #28
 53a:	f7ff fffe 	bl	0 <_ZN4core9panicking5panic17hfdd0eecc44a682f8E>
 53e:	defe      	udf	#254	; 0xfe

Disassembly of section .text._ZN121_$LT$embedded_graphics..primitives..circle..CircleIterator$LT$C$GT$$u20$as$u20$core..iter..traits..iterator..Iterator$GT$4next28_$u7b$$u7b$closure$u7d$$u7d$17hb9d13765abbcdbfeE:

00000000 <_ZN121_$LT$embedded_graphics..primitives..circle..CircleIterator$LT$C$GT$$u20$as$u20$core..iter..traits..iterator..Iterator$GT$4next28_$u7b$$u7b$closure$u7d$$u7d$17hb9d13765abbcdbfeE>:
_ZN121_$LT$embedded_graphics..primitives..circle..CircleIterator$LT$C$GT$$u20$as$u20$core..iter..traits..iterator..Iterator$GT$4next28_$u7b$$u7b$closure$u7d$$u7d$17hb9d13765abbcdbfeE():
C:\Users\guppy\.cargo\registry\src\github.com-1ecc6299db9ec823\embedded-graphics-0.5.2\src\primitives/circle.rs:227
        item.map(|(x, y, c)| Pixel(Coord::new(x, y).to_unsigned(), c))
   0:	b580      	push	{r7, lr}
   2:	b08a      	sub	sp, #40	; 0x28
   4:	680a      	ldr	r2, [r1, #0]
   6:	9207      	str	r2, [sp, #28]
   8:	684a      	ldr	r2, [r1, #4]
   a:	9208      	str	r2, [sp, #32]
   c:	8909      	ldrh	r1, [r1, #8]
   e:	f8ad 1026 	strh.w	r1, [sp, #38]	; 0x26
  12:	9907      	ldr	r1, [sp, #28]
  14:	9a08      	ldr	r2, [sp, #32]
  16:	9005      	str	r0, [sp, #20]
  18:	4608      	mov	r0, r1
  1a:	4611      	mov	r1, r2
  1c:	f7ff fffe 	bl	0 <_ZN17embedded_graphics5coord14internal_coord5Coord3new17ha916e4aa61e7d147E>
  20:	9004      	str	r0, [sp, #16]
  22:	9103      	str	r1, [sp, #12]
  24:	e7ff      	b.n	26 <_ZN121_$LT$embedded_graphics..primitives..circle..CircleIterator$LT$C$GT$$u20$as$u20$core..iter..traits..iterator..Iterator$GT$4next28_$u7b$$u7b$closure$u7d$$u7d$17hb9d13765abbcdbfeE+0x26>
  26:	9804      	ldr	r0, [sp, #16]
  28:	9903      	ldr	r1, [sp, #12]
  2a:	f7ff fffe 	bl	0 <_ZN104_$LT$embedded_graphics..coord..internal_coord..Coord$u20$as$u20$embedded_graphics..coord..ToUnsigned$GT$11to_unsigned17h87334cd982355adeE>
  2e:	9002      	str	r0, [sp, #8]
  30:	9101      	str	r1, [sp, #4]
  32:	e7ff      	b.n	34 <_ZN121_$LT$embedded_graphics..primitives..circle..CircleIterator$LT$C$GT$$u20$as$u20$core..iter..traits..iterator..Iterator$GT$4next28_$u7b$$u7b$closure$u7d$$u7d$17hb9d13765abbcdbfeE+0x34>
  34:	f8bd 0026 	ldrh.w	r0, [sp, #38]	; 0x26
  38:	9902      	ldr	r1, [sp, #8]
  3a:	9a05      	ldr	r2, [sp, #20]
  3c:	6011      	str	r1, [r2, #0]
  3e:	9b01      	ldr	r3, [sp, #4]
  40:	6053      	str	r3, [r2, #4]
  42:	8110      	strh	r0, [r2, #8]
  44:	b00a      	add	sp, #40	; 0x28
  46:	bd80      	pop	{r7, pc}

Disassembly of section .text._ZN17embedded_graphics10primitives6circle15Circle$LT$C$GT$3new17h3b0eaae94a4bdc48E:

00000000 <_ZN17embedded_graphics10primitives6circle15Circle$LT$C$GT$3new17h3b0eaae94a4bdc48E>:
_ZN17embedded_graphics10primitives6circle15Circle$LT$C$GT$3new17h3b0eaae94a4bdc48E():
C:\Users\guppy\.cargo\registry\src\github.com-1ecc6299db9ec823\embedded-graphics-0.5.2\src\primitives/circle.rs:62
    pub fn new(center: Coord, radius: u32) -> Self {
   0:	b580      	push	{r7, lr}
   2:	b08a      	sub	sp, #40	; 0x28
   4:	9104      	str	r1, [sp, #16]
   6:	9205      	str	r2, [sp, #20]
   8:	9306      	str	r3, [sp, #24]
C:\Users\guppy\.cargo\registry\src\github.com-1ecc6299db9ec823\embedded-graphics-0.5.2\src\primitives/circle.rs:64
            center,
   a:	9904      	ldr	r1, [sp, #16]
   c:	9a05      	ldr	r2, [sp, #20]
C:\Users\guppy\.cargo\registry\src\github.com-1ecc6299db9ec823\embedded-graphics-0.5.2\src\primitives/circle.rs:65
            radius,
   e:	9b06      	ldr	r3, [sp, #24]
  10:	f10d 0c1c 	add.w	ip, sp, #28
C:\Users\guppy\.cargo\registry\src\github.com-1ecc6299db9ec823\embedded-graphics-0.5.2\src\primitives/circle.rs:66
            style: Style::default(),
  14:	9003      	str	r0, [sp, #12]
  16:	4660      	mov	r0, ip
  18:	9102      	str	r1, [sp, #8]
  1a:	9201      	str	r2, [sp, #4]
  1c:	9300      	str	r3, [sp, #0]
  1e:	f7ff fffe 	bl	0 <_ZN83_$LT$embedded_graphics..style..Style$LT$P$GT$$u20$as$u20$core..default..Default$GT$7default17h960a318c3db5d2f9E>
  22:	e7ff      	b.n	24 <_ZN17embedded_graphics10primitives6circle15Circle$LT$C$GT$3new17h3b0eaae94a4bdc48E+0x24>
C:\Users\guppy\.cargo\registry\src\github.com-1ecc6299db9ec823\embedded-graphics-0.5.2\src\primitives/circle.rs:63
        Circle {
  24:	9802      	ldr	r0, [sp, #8]
  26:	9903      	ldr	r1, [sp, #12]
  28:	6008      	str	r0, [r1, #0]
  2a:	9a01      	ldr	r2, [sp, #4]
  2c:	604a      	str	r2, [r1, #4]
  2e:	9b00      	ldr	r3, [sp, #0]
  30:	608b      	str	r3, [r1, #8]
  32:	f8bd c024 	ldrh.w	ip, [sp, #36]	; 0x24
  36:	f8a1 c014 	strh.w	ip, [r1, #20]
  3a:	f8dd c01c 	ldr.w	ip, [sp, #28]
  3e:	f8dd e020 	ldr.w	lr, [sp, #32]
  42:	f8c1 e010 	str.w	lr, [r1, #16]
  46:	f8c1 c00c 	str.w	ip, [r1, #12]
C:\Users\guppy\.cargo\registry\src\github.com-1ecc6299db9ec823\embedded-graphics-0.5.2\src\primitives/circle.rs:68
    }
  4a:	b00a      	add	sp, #40	; 0x28
  4c:	bd80      	pop	{r7, pc}

app-2bc386860c9913e9.207wgevdvd4fmjj.rcgu.o:     file format elf32-littlearm

SYMBOL TABLE:
00000000 l    df *ABS*	00000000 207wgevdvd4fmjj
000002ab l       .debug_str	00000000 
00000772 l       .debug_str	00000000 
0000076d l       .debug_str	00000000 
00000776 l       .debug_str	00000000 
00000000 l       .debug_str	00000000 
00000041 l       .debug_str	00000000 
00000055 l       .debug_str	00000000 
00000076 l       .debug_str	00000000 
0000007d l       .debug_str	00000000 
00000084 l       .debug_str	00000000 
0000008b l       .debug_str	00000000 
0000008f l       .debug_str	00000000 
00000097 l       .debug_str	00000000 
000000a2 l       .debug_str	00000000 
000000ad l       .debug_str	00000000 
000000ba l       .debug_str	00000000 
000000c5 l       .debug_str	00000000 
000000cd l       .debug_str	00000000 
000000d8 l       .debug_str	00000000 
000000e3 l       .debug_str	00000000 
000000ed l       .debug_str	00000000 
000000f8 l       .debug_str	00000000 
00000103 l       .debug_str	00000000 
00000110 l       .debug_str	00000000 
0000011c l       .debug_str	00000000 
00000129 l       .debug_str	00000000 
00000137 l       .debug_str	00000000 
00000141 l       .debug_str	00000000 
0000014e l       .debug_str	00000000 
0000015a l       .debug_str	00000000 
0000015f l       .debug_str	00000000 
00000163 l       .debug_str	00000000 
00000166 l       .debug_str	00000000 
00000171 l       .debug_str	00000000 
0000017c l       .debug_str	00000000 
00000183 l       .debug_str	00000000 
00000187 l       .debug_str	00000000 
0000018a l       .debug_str	00000000 
0000018e l       .debug_str	00000000 
00000195 l       .debug_str	00000000 
00000198 l       .debug_str	00000000 
000001a2 l       .debug_str	00000000 
000001ad l       .debug_str	00000000 
000001b6 l       .debug_str	00000000 
000001c1 l       .debug_str	00000000 
000001cd l       .debug_str	00000000 
000001d1 l       .debug_str	00000000 
000001da l       .debug_str	00000000 
000001e1 l       .debug_str	00000000 
000001e9 l       .debug_str	00000000 
000001f1 l       .debug_str	00000000 
000001fb l       .debug_str	00000000 
00000201 l       .debug_str	00000000 
00000208 l       .debug_str	00000000 
00000212 l       .debug_str	00000000 
00000219 l       .debug_str	00000000 
00000220 l       .debug_str	00000000 
00000225 l       .debug_str	00000000 
0000023c l       .debug_str	00000000 
00000269 l       .debug_str	00000000 
0000026b l       .debug_str	00000000 
00000270 l       .debug_str	00000000 
000002a5 l       .debug_str	00000000 
00000767 l       .debug_str	00000000 
000002b1 l       .debug_str	00000000 
000002c0 l       .debug_str	00000000 
000002d0 l       .debug_str	00000000 
000002e0 l       .debug_str	00000000 
000002e8 l       .debug_str	00000000 
00000311 l       .debug_str	00000000 
0000036f l       .debug_str	00000000 
000003d5 l       .debug_str	00000000 
000003dc l       .debug_str	00000000 
000003e4 l       .debug_str	00000000 
000003ed l       .debug_str	00000000 
0000040b l       .debug_str	00000000 
0000041b l       .debug_str	00000000 
00000429 l       .debug_str	00000000 
00000434 l       .debug_str	00000000 
00000441 l       .debug_str	00000000 
00000450 l       .debug_str	00000000 
0000045a l       .debug_str	00000000 
00000470 l       .debug_str	00000000 
0000047a l       .debug_str	00000000 
00000483 l       .debug_str	00000000 
0000048c l       .debug_str	00000000 
000004b2 l       .debug_str	00000000 
000004c8 l       .debug_str	00000000 
000004d3 l       .debug_str	00000000 
000004e9 l       .debug_str	00000000 
000004f1 l       .debug_str	00000000 
00000512 l       .debug_str	00000000 
0000051b l       .debug_str	00000000 
00000524 l       .debug_str	00000000 
0000052f l       .debug_str	00000000 
00000539 l       .debug_str	00000000 
0000053f l       .debug_str	00000000 
00000577 l       .debug_str	00000000 
000005b7 l       .debug_str	00000000 
000005be l       .debug_str	00000000 
000005c6 l       .debug_str	00000000 
000005dd l       .debug_str	00000000 
000005e6 l       .debug_str	00000000 
00000608 l       .debug_str	00000000 
00000612 l       .debug_str	00000000 
00000639 l       .debug_str	00000000 
00000651 l       .debug_str	00000000 
0000065b l       .debug_str	00000000 
0000067e l       .debug_str	00000000 
00000680 l       .debug_str	00000000 
00000684 l       .debug_str	00000000 
000006cc l       .debug_str	00000000 
0000070c l       .debug_str	00000000 
00000753 l       .debug_str	00000000 
00000757 l       .debug_str	00000000 
00000760 l       .debug_str	00000000 
00000774 l       .debug_str	00000000 
00000000 l     O .rodata..Lanon.edbc35ec215a69856784c315e0cd9aa1.0	00000010 .Lanon.edbc35ec215a69856784c315e0cd9aa1.0
00000000 l    d  .text._ZN4core6result19Result$LT$T$C$E$GT$6expect17h50d1225635790102E	00000000 .text._ZN4core6result19Result$LT$T$C$E$GT$6expect17h50d1225635790102E
00000000 l    d  .rodata..Lanon.edbc35ec215a69856784c315e0cd9aa1.0	00000000 .rodata..Lanon.edbc35ec215a69856784c315e0cd9aa1.0
00000000 l    d  .debug_loc	00000000 .debug_loc
00000000 l    d  .debug_abbrev	00000000 .debug_abbrev
00000000 l    d  .debug_info	00000000 .debug_info
00000000 l    d  .debug_frame	00000000 .debug_frame
00000000 l    d  .debug_line	00000000 .debug_line
00000000         *UND*	00000000 _ZN4core3ptr18real_drop_in_place17h2c0cf0b5cfa3c3ffE
00000000         *UND*	00000000 _ZN4core6result13unwrap_failed17h7251308ec569cdc6E
00000000 g     F .text._ZN4core6result19Result$LT$T$C$E$GT$6expect17h50d1225635790102E	0000004a _ZN4core6result19Result$LT$T$C$E$GT$6expect17h50d1225635790102E
00000000         *UND*	00000000 _ZN64_$LT$mynewt..result..MynewtError$u20$as$u20$core..fmt..Debug$GT$3fmt17h445df66d01522473E



Disassembly of section .text._ZN4core6result19Result$LT$T$C$E$GT$6expect17h50d1225635790102E:

00000000 <_ZN4core6result19Result$LT$T$C$E$GT$6expect17h50d1225635790102E>:
_ZN4core6result19Result$LT$T$C$E$GT$6expect17h50d1225635790102E():
/rustc/412f43ac5b4ae8c3599e71c6972112e9be4758fa/src/libcore/result.rs:981
   0:	b086      	sub	sp, #24
   2:	9102      	str	r1, [sp, #8]
   4:	9203      	str	r2, [sp, #12]
/rustc/412f43ac5b4ae8c3599e71c6972112e9be4758fa/src/libcore/result.rs:983
   6:	6801      	ldr	r1, [r0, #0]
   8:	2900      	cmp	r1, #0
   a:	9001      	str	r0, [sp, #4]
   c:	d002      	beq.n	14 <_ZN4core6result19Result$LT$T$C$E$GT$6expect17h50d1225635790102E+0x14>
   e:	e7ff      	b.n	10 <_ZN4core6result19Result$LT$T$C$E$GT$6expect17h50d1225635790102E+0x10>
  10:	e00a      	b.n	28 <_ZN4core6result19Result$LT$T$C$E$GT$6expect17h50d1225635790102E+0x28>
/rustc/412f43ac5b4ae8c3599e71c6972112e9be4758fa/src/libcore/result.rs:982
  12:	defe      	udf	#254	; 0xfe
/rustc/412f43ac5b4ae8c3599e71c6972112e9be4758fa/src/libcore/result.rs:983
  14:	9801      	ldr	r0, [sp, #4]
  16:	6841      	ldr	r1, [r0, #4]
  18:	9104      	str	r1, [sp, #16]
  1a:	9804      	ldr	r0, [sp, #16]
/rustc/412f43ac5b4ae8c3599e71c6972112e9be4758fa/src/libcore/result.rs:986
  1c:	9901      	ldr	r1, [sp, #4]
  1e:	680a      	ldr	r2, [r1, #0]
  20:	2a00      	cmp	r2, #0
  22:	9000      	str	r0, [sp, #0]
  24:	d00d      	beq.n	42 <_ZN4core6result19Result$LT$T$C$E$GT$6expect17h50d1225635790102E+0x42>
  26:	e00f      	b.n	48 <_ZN4core6result19Result$LT$T$C$E$GT$6expect17h50d1225635790102E+0x48>
/rustc/412f43ac5b4ae8c3599e71c6972112e9be4758fa/src/libcore/result.rs:984
  28:	9801      	ldr	r0, [sp, #4]
  2a:	6841      	ldr	r1, [r0, #4]
  2c:	9105      	str	r1, [sp, #20]
  2e:	9802      	ldr	r0, [sp, #8]
  30:	9903      	ldr	r1, [sp, #12]
  32:	f240 0300 	movw	r3, #0
  36:	f2c0 0300 	movt	r3, #0
  3a:	aa05      	add	r2, sp, #20
  3c:	f7ff fffe 	bl	0 <_ZN4core6result13unwrap_failed17h7251308ec569cdc6E>
  40:	defe      	udf	#254	; 0xfe
/rustc/412f43ac5b4ae8c3599e71c6972112e9be4758fa/src/libcore/result.rs:986
  42:	9800      	ldr	r0, [sp, #0]
  44:	b006      	add	sp, #24
  46:	4770      	bx	lr
  48:	e7fb      	b.n	42 <_ZN4core6result19Result$LT$T$C$E$GT$6expect17h50d1225635790102E+0x42>

app-2bc386860c9913e9.288dkb61im9k03bs.rcgu.o:     file format elf32-littlearm

SYMBOL TABLE:
00000000 l    df *ABS*	00000000 288dkb61im9k03bs
000001da l       .debug_str	00000000 
000004e3 l       .debug_str	00000000 
000004da l       .debug_str	00000000 
000004d6 l       .debug_str	00000000 
000004d1 l       .debug_str	00000000 
000004cc l       .debug_str	00000000 
000004c3 l       .debug_str	00000000 
00000504 l       .debug_str	00000000 
000004a5 l       .debug_str	00000000 
0000048f l       .debug_str	00000000 
00000485 l       .debug_str	00000000 
0000046c l       .debug_str	00000000 
0000044f l       .debug_str	00000000 
00000444 l       .debug_str	00000000 
00000000 l       .debug_str	00000000 
00000041 l       .debug_str	00000000 
00000055 l       .debug_str	00000000 
00000076 l       .debug_str	00000000 
0000007b l       .debug_str	00000000 
0000007f l       .debug_str	00000000 
00000082 l       .debug_str	00000000 
00000085 l       .debug_str	00000000 
00000088 l       .debug_str	00000000 
0000008d l       .debug_str	00000000 
00000093 l       .debug_str	00000000 
0000009a l       .debug_str	00000000 
000000a2 l       .debug_str	00000000 
000000ac l       .debug_str	00000000 
000000b3 l       .debug_str	00000000 
000000b6 l       .debug_str	00000000 
000000ba l       .debug_str	00000000 
000000c1 l       .debug_str	00000000 
000000c5 l       .debug_str	00000000 
000000ce l       .debug_str	00000000 
000000d2 l       .debug_str	00000000 
000000fc l       .debug_str	00000000 
00000101 l       .debug_str	00000000 
00000106 l       .debug_str	00000000 
00000108 l       .debug_str	00000000 
0000011a l       .debug_str	00000000 
00000120 l       .debug_str	00000000 
00000125 l       .debug_str	00000000 
0000012d l       .debug_str	00000000 
00000131 l       .debug_str	00000000 
00000139 l       .debug_str	00000000 
00000141 l       .debug_str	00000000 
00000148 l       .debug_str	00000000 
0000014e l       .debug_str	00000000 
00000162 l       .debug_str	00000000 
0000016e l       .debug_str	00000000 
00000173 l       .debug_str	00000000 
0000017b l       .debug_str	00000000 
00000182 l       .debug_str	00000000 
00000186 l       .debug_str	00000000 
0000018b l       .debug_str	00000000 
00000192 l       .debug_str	00000000 
0000019b l       .debug_str	00000000 
000001a5 l       .debug_str	00000000 
000001ac l       .debug_str	00000000 
000001b1 l       .debug_str	00000000 
000001bd l       .debug_str	00000000 
000001c5 l       .debug_str	00000000 
000001ce l       .debug_str	00000000 
000001d3 l       .debug_str	00000000 
000001d6 l       .debug_str	00000000 
000003e6 l       .debug_str	00000000 
000001e3 l       .debug_str	00000000 
000001ea l       .debug_str	00000000 
000001ef l       .debug_str	00000000 
000001f4 l       .debug_str	00000000 
000001fa l       .debug_str	00000000 
00000200 l       .debug_str	00000000 
0000020a l       .debug_str	00000000 
0000020d l       .debug_str	00000000 
00000213 l       .debug_str	00000000 
0000021d l       .debug_str	00000000 
00000225 l       .debug_str	00000000 
0000022b l       .debug_str	00000000 
00000231 l       .debug_str	00000000 
0000023c l       .debug_str	00000000 
00000245 l       .debug_str	00000000 
00000268 l       .debug_str	00000000 
00000287 l       .debug_str	00000000 
00000289 l       .debug_str	00000000 
0000028e l       .debug_str	00000000 
000002b5 l       .debug_str	00000000 
000002ba l       .debug_str	00000000 
000002c0 l       .debug_str	00000000 
000002c6 l       .debug_str	00000000 
000002c9 l       .debug_str	00000000 
000002d8 l       .debug_str	00000000 
000002df l       .debug_str	00000000 
000002e3 l       .debug_str	00000000 
000002ec l       .debug_str	00000000 
000002f8 l       .debug_str	00000000 
00000311 l       .debug_str	00000000 
00000316 l       .debug_str	00000000 
00000327 l       .debug_str	00000000 
00000331 l       .debug_str	00000000 
0000033f l       .debug_str	00000000 
00000343 l       .debug_str	00000000 
0000034e l       .debug_str	00000000 
00000355 l       .debug_str	00000000 
0000035b l       .debug_str	00000000 
0000035f l       .debug_str	00000000 
00000363 l       .debug_str	00000000 
0000036b l       .debug_str	00000000 
00000382 l       .debug_str	00000000 
000003a6 l       .debug_str	00000000 
000003c2 l       .debug_str	00000000 
000003cc l       .debug_str	00000000 
000004fa l       .debug_str	00000000 
00000000 l     O .rodata.cst8	00000008 .Lanon.3ed011473997af99b525cde47c9eaaac.0
00000000 l     O .rodata..Lanon.3ed011473997af99b525cde47c9eaaac.1	0000000d .Lanon.3ed011473997af99b525cde47c9eaaac.1
00000008 l     O .rodata.cst8	00000008 .Lanon.3ed011473997af99b525cde47c9eaaac.2
00000010 l     O .rodata.cst8	00000008 .Lanon.3ed011473997af99b525cde47c9eaaac.3
00000018 l     O .rodata.cst8	00000008 .Lanon.3ed011473997af99b525cde47c9eaaac.4
00000000 l     O .rodata..Lanon.3ed011473997af99b525cde47c9eaaac.5	00000006 .Lanon.3ed011473997af99b525cde47c9eaaac.5
00000000 l     O .rodata..Lanon.3ed011473997af99b525cde47c9eaaac.6	00000007 .Lanon.3ed011473997af99b525cde47c9eaaac.6
00000000 l     O .rodata..Lanon.3ed011473997af99b525cde47c9eaaac.7	00000003 .Lanon.3ed011473997af99b525cde47c9eaaac.7
00000000 l     O .rodata..Lanon.3ed011473997af99b525cde47c9eaaac.8	00000006 .Lanon.3ed011473997af99b525cde47c9eaaac.8
00000000 l     O .rodata..Lanon.3ed011473997af99b525cde47c9eaaac.9	00000001 .Lanon.3ed011473997af99b525cde47c9eaaac.9
00000000 l    d  .text.main	00000000 .text.main
00000000 l    d  .text.rust_begin_unwind	00000000 .text.rust_begin_unwind
00000000 l    d  .debug_abbrev	00000000 .debug_abbrev
00000000 l    d  .debug_info	00000000 .debug_info
00000000 l    d  .debug_ranges	00000000 .debug_ranges
00000000 l    d  .debug_frame	00000000 .debug_frame
00000000 l    d  .debug_line	00000000 .debug_line
00000000         *UND*	00000000 _ZN22piet_embedded_graphics7display13start_display17h1909559cf236e6cfE
00000000         *UND*	00000000 .hidden _ZN3app12touch_sensor18start_touch_sensor17h3d8dc1fd2b45e25fE
00000000         *UND*	00000000 .hidden _ZN3app7display12test_display17h74895a970a5cafe1E
00000000         *UND*	00000000 _ZN4core5panic8Location4file17hb5b09c8924a65fc3E
00000000         *UND*	00000000 _ZN4core5panic8Location4line17h367a930005b08c12E
00000000         *UND*	00000000 _ZN4core5panic9PanicInfo7payload17h0ba779b66a5d0935E
00000000         *UND*	00000000 _ZN4core5panic9PanicInfo8location17h080d51c1ed5f8f03E
00000000         *UND*	00000000 _ZN4core6option15Option$LT$T$GT$6unwrap17h02414f6aeedc50eeE
00000000         *UND*	00000000 _ZN4core6result19Result$LT$T$C$E$GT$6expect17h50d1225635790102E
00000000         *UND*	00000000 _ZN4core6result19Result$LT$T$C$E$GT$6expect17h936ca8543ae6c861E
00000000         *UND*	00000000 _ZN54_$LT$dyn$u20$core..any..Any$u2b$core..marker..Send$GT$12downcast_ref17h6328aaa70d287a4fE
00000000         *UND*	00000000 _ZN6mynewt3sys7console5flush17hdf24cb1bc6cb3579E
00000000         *UND*	00000000 _ZN6mynewt3sys7console5print17h4f6750301ba25348E
00000000         *UND*	00000000 _ZN6mynewt3sys7console6buffer17hcf3813e2a40b9962E
00000000         *UND*	00000000 _ZN6mynewt3sys7console8printint17hea0c2a8ee81f7dd4E
00000000         *UND*	00000000 _ZN6mynewt6kernel2os10eventq_run17hb0f13c6c207b6ed2E
00000000         *UND*	00000000 _ZN6mynewt6kernel2os15eventq_dflt_get17h56b5489811f70784E
00000000         *UND*	00000000 _ZN6mynewt7sysinit17h54ada234bef277bbE
00000000 g     F .text.main	00000092 main
00000000 g     F .text.rust_begin_unwind	000000f0 rust_begin_unwind



Disassembly of section .text.main:

00000000 <main>:
main():
c:\PineTime\pinetime-rust-mynewt/rust\app\src/lib.rs:58
};

///  Main program that initialises the sensor, network driver and starts reading and sending sensor data in the background.
///  main() will be called at Mynewt startup. It replaces the C version of the main() function.
#[no_mangle]                 //  Don't mangle the name "main"
extern "C" fn main() -> ! {  //  Declare extern "C" because it will be called by Mynewt
   0:	b088      	sub	sp, #32
c:\PineTime\pinetime-rust-mynewt/rust\app\src/lib.rs:63
    //  Initialise the Mynewt packages and internal temperature sensor driver. Any startup
    //  functions defined in pkg.yml of our custom drivers and libraries will be called by 
    //  sysinit().  Here are the startup functions consolidated by Mynewt:
    //  bin/targets/nrf52_my_sensor/generated/src/nrf52_my_sensor-sysinit-app.c
    mynewt::sysinit();
   2:	f7ff fffe 	bl	0 <_ZN6mynewt7sysinit17h54ada234bef277bbE>
   6:	e7ff      	b.n	2 <_ZN22piet_embedded_graphics7display13start_display17h1909559cf236e6cfE+0x2>
c:\PineTime\pinetime-rust-mynewt/rust\app\src/lib.rs:79
    //  extern { fn start_ble() -> i32; }
    //  let rc = unsafe { start_ble() };
    //  assert!(rc == 0, "BLE fail");

    //  Start the display
    druid::start_display()
   8:	f7ff fffe 	bl	0 <_ZN22piet_embedded_graphics7display13start_display17h1909559cf236e6cfE>
   c:	9005      	str	r0, [sp, #20]
   e:	e7ff      	b.n	10 <main+0x10>
  10:	f240 0100 	movw	r1, #0
  14:	f2c0 0100 	movt	r1, #0
  18:	2208      	movs	r2, #8
  1a:	9805      	ldr	r0, [sp, #20]
  1c:	f7ff fffe 	bl	0 <_ZN4core6result19Result$LT$T$C$E$GT$6expect17h936ca8543ae6c861E>
  20:	e7ff      	b.n	2 <_ZN3app7display12test_display17h74895a970a5cafe1E+0x2>
c:\PineTime\pinetime-rust-mynewt/rust\app\src/lib.rs:84
        .expect("DSP fail");

    //  Test the display
    #[cfg(feature = "display_app")]  //  If graphics display app is enabled...
    display::test_display()
  22:	f7ff fffe 	bl	0 <_ZN3app7display12test_display17h74895a970a5cafe1E>
  26:	9004      	str	r0, [sp, #16]
  28:	e7ff      	b.n	2a <main+0x2a>
  2a:	f240 0100 	movw	r1, #0
  2e:	f2c0 0100 	movt	r1, #0
  32:	220d      	movs	r2, #13
  34:	9804      	ldr	r0, [sp, #16]
  36:	f7ff fffe 	bl	0 <_ZN4core6result19Result$LT$T$C$E$GT$6expect17h936ca8543ae6c861E>
  3a:	e7ff      	b.n	2 <_ZN3app12touch_sensor18start_touch_sensor17h3d8dc1fd2b45e25fE+0x2>
c:\PineTime\pinetime-rust-mynewt/rust\app\src/lib.rs:88
        .expect("DSP test fail");

    //  Start the touch sensor
    touch_sensor::start_touch_sensor()
  3c:	f7ff fffe 	bl	0 <_ZN3app12touch_sensor18start_touch_sensor17h3d8dc1fd2b45e25fE>
  40:	9003      	str	r0, [sp, #12]
  42:	e7ff      	b.n	44 <main+0x44>
  44:	f240 0100 	movw	r1, #0
  48:	f2c0 0100 	movt	r1, #0
  4c:	2208      	movs	r2, #8
  4e:	9803      	ldr	r0, [sp, #12]
  50:	f7ff fffe 	bl	0 <_ZN4core6result19Result$LT$T$C$E$GT$6expect17h936ca8543ae6c861E>
  54:	e7ff      	b.n	56 <main+0x56>
c:\PineTime\pinetime-rust-mynewt/rust\app\src/lib.rs:100
    //  Launch the druid UI app
    #[cfg(feature = "ui_app")]  //  If druid UI app is enabled...
    ui::launch();

    //  Main event loop
    loop {                            //  Loop forever...
  56:	e7ff      	b.n	58 <main+0x58>
  58:	a806      	add	r0, sp, #24
c:\PineTime\pinetime-rust-mynewt/rust\app\src/lib.rs:102
        os::eventq_run(               //  Processing events...
            os::eventq_dflt_get()     //  From default event queue.
  5a:	f7ff fffe 	bl	0 <_ZN6mynewt6kernel2os15eventq_dflt_get17h56b5489811f70784E>
  5e:	e7ff      	b.n	12 <main+0x12>
  60:	f240 0100 	movw	r1, #0
  64:	f2c0 0100 	movt	r1, #0
  68:	a806      	add	r0, sp, #24
  6a:	2208      	movs	r2, #8
  6c:	f7ff fffe 	bl	0 <_ZN4core6result19Result$LT$T$C$E$GT$6expect17h50d1225635790102E>
  70:	9002      	str	r0, [sp, #8]
  72:	e7ff      	b.n	74 <main+0x74>
c:\PineTime\pinetime-rust-mynewt/rust\app\src/lib.rs:101
        os::eventq_run(               //  Processing events...
  74:	9802      	ldr	r0, [sp, #8]
  76:	f7ff fffe 	bl	0 <_ZN6mynewt6kernel2os10eventq_run17hb0f13c6c207b6ed2E>
  7a:	9001      	str	r0, [sp, #4]
  7c:	e7ff      	b.n	7e <main+0x7e>
  7e:	f240 0100 	movw	r1, #0
  82:	f2c0 0100 	movt	r1, #0
  86:	2208      	movs	r2, #8
  88:	9801      	ldr	r0, [sp, #4]
  8a:	f7ff fffe 	bl	0 <_ZN4core6result19Result$LT$T$C$E$GT$6expect17h936ca8543ae6c861E>
  8e:	e7ff      	b.n	90 <main+0x90>
c:\PineTime\pinetime-rust-mynewt/rust\app\src/lib.rs:100
    loop {                            //  Loop forever...
  90:	e7e2      	b.n	58 <main+0x58>

Disassembly of section .text.rust_begin_unwind:

00000000 <rust_begin_unwind>:
rust_begin_unwind():
c:\PineTime\pinetime-rust-mynewt/rust\app\src/lib.rs:111
    //  Never comes here
}

///  This function is called on panic, like an assertion failure. We display the filename and line number and pause in the debugger. From https://os.phil-opp.com/freestanding-rust-binary/
#[panic_handler]
fn panic(info: &PanicInfo) -> ! {
   0:	b08a      	sub	sp, #40	; 0x28
   2:	9004      	str	r0, [sp, #16]
c:\PineTime\pinetime-rust-mynewt/rust\app\src/lib.rs:113
    //  Display the filename and line number to the Semihosting Console.
    console::print("panic ");
   4:	f240 0000 	movw	r0, #0
   8:	f2c0 0000 	movt	r0, #0
   c:	2106      	movs	r1, #6
   e:	f7ff fffe 	bl	0 <_ZN6mynewt3sys7console5print17h4f6750301ba25348E>
  12:	e7ff      	b.n	14 <rust_begin_unwind+0x14>
c:\PineTime\pinetime-rust-mynewt/rust\app\src/lib.rs:114
    if let Some(location) = info.location() {
  14:	9804      	ldr	r0, [sp, #16]
  16:	f7ff fffe 	bl	0 <_ZN4core5panic9PanicInfo8location17h080d51c1ed5f8f03E>
  1a:	9005      	str	r0, [sp, #20]
  1c:	e7ff      	b.n	1e <rust_begin_unwind+0x1e>
  1e:	9805      	ldr	r0, [sp, #20]
  20:	2800      	cmp	r0, #0
  22:	d108      	bne.n	36 <rust_begin_unwind+0x36>
  24:	e7ff      	b.n	26 <rust_begin_unwind+0x26>
c:\PineTime\pinetime-rust-mynewt/rust\app\src/lib.rs:121
        let line = location.line();
        console::print("at ");       console::buffer(&file);
        console::print(" line ");    console::printint(line as i32);
        console::print("\n");        console::flush();
    } else {
        console::print("no loc\n");  console::flush();
  26:	f240 0000 	movw	r0, #0
  2a:	f2c0 0000 	movt	r0, #0
  2e:	2107      	movs	r1, #7
  30:	f7ff fffe 	bl	0 <_ZN6mynewt3sys7console5print17h4f6750301ba25348E>
  34:	e031      	b.n	9a <rust_begin_unwind+0x9a>
c:\PineTime\pinetime-rust-mynewt/rust\app\src/lib.rs:114
    if let Some(location) = info.location() {
  36:	9805      	ldr	r0, [sp, #20]
  38:	9006      	str	r0, [sp, #24]
c:\PineTime\pinetime-rust-mynewt/rust\app\src/lib.rs:115
        let file = location.file();
  3a:	9806      	ldr	r0, [sp, #24]
  3c:	f7ff fffe 	bl	0 <_ZN4core5panic8Location4file17hb5b09c8924a65fc3E>
  40:	9108      	str	r1, [sp, #32]
  42:	9007      	str	r0, [sp, #28]
  44:	e7ff      	b.n	46 <rust_begin_unwind+0x46>
c:\PineTime\pinetime-rust-mynewt/rust\app\src/lib.rs:116
        let line = location.line();
  46:	9806      	ldr	r0, [sp, #24]
  48:	f7ff fffe 	bl	0 <_ZN4core5panic8Location4line17h367a930005b08c12E>
  4c:	9009      	str	r0, [sp, #36]	; 0x24
  4e:	e7ff      	b.n	50 <rust_begin_unwind+0x50>
c:\PineTime\pinetime-rust-mynewt/rust\app\src/lib.rs:117
        console::print("at ");       console::buffer(&file);
  50:	f240 0000 	movw	r0, #0
  54:	f2c0 0000 	movt	r0, #0
  58:	2103      	movs	r1, #3
  5a:	f7ff fffe 	bl	0 <_ZN6mynewt3sys7console5print17h4f6750301ba25348E>
  5e:	e7ff      	b.n	60 <rust_begin_unwind+0x60>
  60:	9807      	ldr	r0, [sp, #28]
  62:	9908      	ldr	r1, [sp, #32]
  64:	f7ff fffe 	bl	0 <_ZN6mynewt3sys7console6buffer17hcf3813e2a40b9962E>
  68:	e7ff      	b.n	2 <rust_begin_unwind+0x2>
c:\PineTime\pinetime-rust-mynewt/rust\app\src/lib.rs:118
        console::print(" line ");    console::printint(line as i32);
  6a:	f240 0000 	movw	r0, #0
  6e:	f2c0 0000 	movt	r0, #0
  72:	2106      	movs	r1, #6
  74:	f7ff fffe 	bl	0 <_ZN6mynewt3sys7console5print17h4f6750301ba25348E>
  78:	e7ff      	b.n	7a <rust_begin_unwind+0x7a>
  7a:	9809      	ldr	r0, [sp, #36]	; 0x24
  7c:	f7ff fffe 	bl	0 <_ZN6mynewt3sys7console8printint17hea0c2a8ee81f7dd4E>
  80:	e7ff      	b.n	2 <rust_begin_unwind+0x2>
c:\PineTime\pinetime-rust-mynewt/rust\app\src/lib.rs:119
        console::print("\n");        console::flush();
  82:	f240 0000 	movw	r0, #0
  86:	f2c0 0000 	movt	r0, #0
  8a:	2101      	movs	r1, #1
  8c:	f7ff fffe 	bl	0 <_ZN6mynewt3sys7console5print17h4f6750301ba25348E>
  90:	e7ff      	b.n	2 <_ZN6mynewt3sys7console5flush17hdf24cb1bc6cb3579E+0x2>
  92:	f7ff fffe 	bl	0 <_ZN6mynewt3sys7console5flush17hdf24cb1bc6cb3579E>
  96:	e7ff      	b.n	98 <rust_begin_unwind+0x98>
c:\PineTime\pinetime-rust-mynewt/rust\app\src/lib.rs:114
    if let Some(location) = info.location() {
  98:	e003      	b.n	a2 <rust_begin_unwind+0xa2>
c:\PineTime\pinetime-rust-mynewt/rust\app\src/lib.rs:121
        console::print("no loc\n");  console::flush();
  9a:	f7ff fffe 	bl	0 <_ZN6mynewt3sys7console5flush17hdf24cb1bc6cb3579E>
  9e:	e7ff      	b.n	a0 <rust_begin_unwind+0xa0>
c:\PineTime\pinetime-rust-mynewt/rust\app\src/lib.rs:114
    if let Some(location) = info.location() {
  a0:	e7ff      	b.n	a2 <rust_begin_unwind+0xa2>
_ZN8cortex_m3asm4bkpt17h1775bf5a4f20741fE():
C:\Users\guppy\.cargo\registry\src\github.com-1ecc6299db9ec823\cortex-m-0.6.1\src/asm.rs:11
/// exception.
#[inline(always)]
pub fn bkpt() {
    match () {
        #[cfg(all(cortex_m, feature = "inline-asm"))]
        () => unsafe { asm!("bkpt" :::: "volatile") },
  a2:	be00      	bkpt	0x0000
rust_begin_unwind():
c:\PineTime\pinetime-rust-mynewt/rust\app\src/lib.rs:124
    }
    //  Pause in the debugger.
    bkpt();
  a4:	e7ff      	b.n	a6 <rust_begin_unwind+0xa6>
c:\PineTime\pinetime-rust-mynewt/rust\app\src/lib.rs:126
    //  Display the payload.
    console::print(info.payload().downcast_ref::<&str>().unwrap());
  a6:	9804      	ldr	r0, [sp, #16]
  a8:	f7ff fffe 	bl	0 <_ZN4core5panic9PanicInfo7payload17h0ba779b66a5d0935E>
  ac:	9003      	str	r0, [sp, #12]
  ae:	9102      	str	r1, [sp, #8]
  b0:	e7ff      	b.n	b2 <rust_begin_unwind+0xb2>
  b2:	9803      	ldr	r0, [sp, #12]
  b4:	9902      	ldr	r1, [sp, #8]
  b6:	f7ff fffe 	bl	0 <_ZN54_$LT$dyn$u20$core..any..Any$u2b$core..marker..Send$GT$12downcast_ref17h6328aaa70d287a4fE>
  ba:	9001      	str	r0, [sp, #4]
  bc:	e7ff      	b.n	be <rust_begin_unwind+0xbe>
  be:	9801      	ldr	r0, [sp, #4]
  c0:	f7ff fffe 	bl	0 <_ZN4core6option15Option$LT$T$GT$6unwrap17h02414f6aeedc50eeE>
  c4:	9000      	str	r0, [sp, #0]
  c6:	e7ff      	b.n	c8 <rust_begin_unwind+0xc8>
  c8:	9800      	ldr	r0, [sp, #0]
  ca:	6800      	ldr	r0, [r0, #0]
  cc:	9900      	ldr	r1, [sp, #0]
  ce:	6849      	ldr	r1, [r1, #4]
  d0:	f7ff fffe 	bl	0 <_ZN6mynewt3sys7console5print17h4f6750301ba25348E>
  d4:	e7ff      	b.n	2 <rust_begin_unwind+0x2>
c:\PineTime\pinetime-rust-mynewt/rust\app\src/lib.rs:127
    console::print("\n");  console::flush();
  d6:	f240 0000 	movw	r0, #0
  da:	f2c0 0000 	movt	r0, #0
  de:	2101      	movs	r1, #1
  e0:	f7ff fffe 	bl	0 <_ZN6mynewt3sys7console5print17h4f6750301ba25348E>
  e4:	e7ff      	b.n	2 <_ZN6mynewt3sys7console5flush17hdf24cb1bc6cb3579E+0x2>
  e6:	f7ff fffe 	bl	0 <_ZN6mynewt3sys7console5flush17hdf24cb1bc6cb3579E>
  ea:	e7ff      	b.n	ec <rust_begin_unwind+0xec>
c:\PineTime\pinetime-rust-mynewt/rust\app\src/lib.rs:129
    //  Loop forever so that device won't restart.
    loop {}
  ec:	e7ff      	b.n	ee <rust_begin_unwind+0xee>
  ee:	e7fe      	b.n	ee <rust_begin_unwind+0xee>

app-2bc386860c9913e9.381sfvjc3fnwbg7d.rcgu.o:     file format elf32-littlearm

SYMBOL TABLE:
00000000 l    df *ABS*	00000000 381sfvjc3fnwbg7d
000007e4 l       .debug_str	00000000 
00002af9 l       .debug_str	00000000 
00002af6 l       .debug_str	00000000 
00002aed l       .debug_str	00000000 
00002ae9 l       .debug_str	00000000 
00002ba1 l       .debug_str	00000000 
00002ae5 l       .debug_str	00000000 
00002ae1 l       .debug_str	00000000 
00002b9d l       .debug_str	00000000 
00002adc l       .debug_str	00000000 
00002b99 l       .debug_str	00000000 
00002ad1 l       .debug_str	00000000 
00002b92 l       .debug_str	00000000 
00002ac9 l       .debug_str	00000000 
00002b8b l       .debug_str	00000000 
00002ac0 l       .debug_str	00000000 
00002b3b l       .debug_str	00000000 
00000000 l       .debug_str	00000000 
00000041 l       .debug_str	00000000 
00000055 l       .debug_str	00000000 
00000076 l       .debug_str	00000000 
0000007b l       .debug_str	00000000 
00000082 l       .debug_str	00000000 
00000085 l       .debug_str	00000000 
00000088 l       .debug_str	00000000 
0000008c l       .debug_str	00000000 
00000093 l       .debug_str	00000000 
000000aa l       .debug_str	00000000 
000000b0 l       .debug_str	00000000 
000000b9 l       .debug_str	00000000 
000000be l       .debug_str	00000000 
000000c5 l       .debug_str	00000000 
000000cd l       .debug_str	00000000 
000000df l       .debug_str	00000000 
000000ea l       .debug_str	00000000 
000000f1 l       .debug_str	00000000 
000000f8 l       .debug_str	00000000 
000000fe l       .debug_str	00000000 
0000010d l       .debug_str	00000000 
00000111 l       .debug_str	00000000 
00000115 l       .debug_str	00000000 
00000119 l       .debug_str	00000000 
0000011f l       .debug_str	00000000 
00000126 l       .debug_str	00000000 
0000012a l       .debug_str	00000000 
00000130 l       .debug_str	00000000 
0000013b l       .debug_str	00000000 
00000142 l       .debug_str	00000000 
00000146 l       .debug_str	00000000 
0000014b l       .debug_str	00000000 
00000156 l       .debug_str	00000000 
0000015d l       .debug_str	00000000 
00000164 l       .debug_str	00000000 
00000166 l       .debug_str	00000000 
0000016b l       .debug_str	00000000 
000001a1 l       .debug_str	00000000 
000001ae l       .debug_str	00000000 
000001bb l       .debug_str	00000000 
000001bd l       .debug_str	00000000 
000001f2 l       .debug_str	00000000 
000001f4 l       .debug_str	00000000 
000001f6 l       .debug_str	00000000 
000001f8 l       .debug_str	00000000 
00000236 l       .debug_str	00000000 
000002c4 l       .debug_str	00000000 
0000032f l       .debug_str	00000000 
00000336 l       .debug_str	00000000 
0000033e l       .debug_str	00000000 
00000345 l       .debug_str	00000000 
0000034e l       .debug_str	00000000 
00000352 l       .debug_str	00000000 
00000354 l       .debug_str	00000000 
0000035b l       .debug_str	00000000 
0000035f l       .debug_str	00000000 
0000036c l       .debug_str	00000000 
00000373 l       .debug_str	00000000 
00000376 l       .debug_str	00000000 
0000037c l       .debug_str	00000000 
0000038a l       .debug_str	00000000 
00000398 l       .debug_str	00000000 
0000039d l       .debug_str	00000000 
000003a5 l       .debug_str	00000000 
000003ad l       .debug_str	00000000 
000003af l       .debug_str	00000000 
000003cc l       .debug_str	00000000 
00000412 l       .debug_str	00000000 
0000041a l       .debug_str	00000000 
00000421 l       .debug_str	00000000 
00000432 l       .debug_str	00000000 
000004a2 l       .debug_str	00000000 
0000053c l       .debug_str	00000000 
000005ff l       .debug_str	00000000 
000006ec l       .debug_str	00000000 
000006f4 l       .debug_str	00000000 
000006f9 l       .debug_str	00000000 
000006ff l       .debug_str	00000000 
00000703 l       .debug_str	00000000 
00000706 l       .debug_str	00000000 
0000072f l       .debug_str	00000000 
00000765 l       .debug_str	00000000 
00000767 l       .debug_str	00000000 
00000794 l       .debug_str	00000000 
000029fc l       .debug_str	00000000 
00000841 l       .debug_str	00000000 
00000895 l       .debug_str	00000000 
00000898 l       .debug_str	00000000 
0000090f l       .debug_str	00000000 
00000993 l       .debug_str	00000000 
00000a0e l       .debug_str	00000000 
00000aac l       .debug_str	00000000 
00000b57 l       .debug_str	00000000 
00000bf9 l       .debug_str	00000000 
00000cbe l       .debug_str	00000000 
00000d90 l       .debug_str	00000000 
00000e59 l       .debug_str	00000000 
00000f45 l       .debug_str	00000000 
0000103e l       .debug_str	00000000 
0000112e l       .debug_str	00000000 
00001240 l       .debug_str	00000000 
0000136f l       .debug_str	00000000 
0000149d l       .debug_str	00000000 
000014a1 l       .debug_str	00000000 
000014a7 l       .debug_str	00000000 
000014a9 l       .debug_str	00000000 
000015cf l       .debug_str	00000000 
000015d1 l       .debug_str	00000000 
000016da l       .debug_str	00000000 
000016e3 l       .debug_str	00000000 
00001713 l       .debug_str	00000000 
0000171a l       .debug_str	00000000 
00001726 l       .debug_str	00000000 
0000172b l       .debug_str	00000000 
0000179d l       .debug_str	00000000 
0000179f l       .debug_str	00000000 
0000182f l       .debug_str	00000000 
000018c6 l       .debug_str	00000000 
000018cc l       .debug_str	00000000 
000018d5 l       .debug_str	00000000 
000019ec l       .debug_str	00000000 
00001aff l       .debug_str	00000000 
00001c1f l       .debug_str	00000000 
00001d36 l       .debug_str	00000000 
00001e6f l       .debug_str	00000000 
00001fc5 l       .debug_str	00000000 
0000211a l       .debug_str	00000000 
00002267 l       .debug_str	00000000 
00002397 l       .debug_str	00000000 
000023a2 l       .debug_str	00000000 
000023d4 l       .debug_str	00000000 
000023db l       .debug_str	00000000 
000023df l       .debug_str	00000000 
000023e7 l       .debug_str	00000000 
000023ee l       .debug_str	00000000 
000023f2 l       .debug_str	00000000 
000023f6 l       .debug_str	00000000 
000023fb l       .debug_str	00000000 
000023fe l       .debug_str	00000000 
00002402 l       .debug_str	00000000 
00002438 l       .debug_str	00000000 
0000247b l       .debug_str	00000000 
0000251a l       .debug_str	00000000 
00002558 l       .debug_str	00000000 
000025c6 l       .debug_str	00000000 
00002606 l       .debug_str	00000000 
000026a2 l       .debug_str	00000000 
000026a7 l       .debug_str	00000000 
000026b1 l       .debug_str	00000000 
00002751 l       .debug_str	00000000 
00002753 l       .debug_str	00000000 
000027b6 l       .debug_str	00000000 
00002880 l       .debug_str	00000000 
00002885 l       .debug_str	00000000 
0000291b l       .debug_str	00000000 
00002926 l       .debug_str	00000000 
0000292f l       .debug_str	00000000 
0000293d l       .debug_str	00000000 
00002955 l       .debug_str	00000000 
00002963 l       .debug_str	00000000 
00002998 l       .debug_str	00000000 
000029f2 l       .debug_str	00000000 
000029f6 l       .debug_str	00000000 
00002afc l       .debug_str	00000000 
00000000 l     O .rodata..Lanon.91f20e34ef4495d72488b03952d30d61.0	00000005 .Lanon.91f20e34ef4495d72488b03952d30d61.0
00000000 l     O .rodata..Lanon.91f20e34ef4495d72488b03952d30d61.2	00000010 .Lanon.91f20e34ef4495d72488b03952d30d61.2
00000000 l     O .rodata..Lanon.91f20e34ef4495d72488b03952d30d61.3	00000010 .Lanon.91f20e34ef4495d72488b03952d30d61.3
00000000 l     O .rodata.str.0	0000001c str.0
00000000 l    d  .text._ZN110_$LT$piet_embedded_graphics..batch..RowIterator$LT$P$GT$$u20$as$u20$core..iter..traits..iterator..Iterator$GT$4next17he240c760ec5ff34dE	00000000 .text._ZN110_$LT$piet_embedded_graphics..batch..RowIterator$LT$P$GT$$u20$as$u20$core..iter..traits..iterator..Iterator$GT$4next17he240c760ec5ff34dE
00000000 l    d  .text._ZN112_$LT$piet_embedded_graphics..batch..BlockIterator$LT$R$GT$$u20$as$u20$core..iter..traits..iterator..Iterator$GT$4next17h6d7ebc6c16cf0449E	00000000 .text._ZN112_$LT$piet_embedded_graphics..batch..BlockIterator$LT$R$GT$$u20$as$u20$core..iter..traits..iterator..Iterator$GT$4next17h6d7ebc6c16cf0449E
00000000 l    d  .text._ZN22piet_embedded_graphics5batch11draw_blocks17h0f62937d950720e2E	00000000 .text._ZN22piet_embedded_graphics5batch11draw_blocks17h0f62937d950720e2E
00000000 l    d  .text._ZN22piet_embedded_graphics5batch7to_rows17h805810457c89a051E	00000000 .text._ZN22piet_embedded_graphics5batch7to_rows17h805810457c89a051E
00000000 l    d  .text._ZN22piet_embedded_graphics5batch9to_blocks17h21dc045e9abdcbcfE	00000000 .text._ZN22piet_embedded_graphics5batch9to_blocks17h21dc045e9abdcbcfE
00000000 l    d  .text._ZN63_$LT$I$u20$as$u20$core..iter..traits..collect..IntoIterator$GT$9into_iter17ha19f9e6918009fe8E	00000000 .text._ZN63_$LT$I$u20$as$u20$core..iter..traits..collect..IntoIterator$GT$9into_iter17ha19f9e6918009fe8E
00000000 l    d  .rodata..Lanon.91f20e34ef4495d72488b03952d30d61.1	00000000 .rodata..Lanon.91f20e34ef4495d72488b03952d30d61.1
00000000 l    d  .debug_loc	00000000 .debug_loc
00000000 l    d  .debug_abbrev	00000000 .debug_abbrev
00000000 l    d  .debug_info	00000000 .debug_info
00000000 l    d  .debug_ranges	00000000 .debug_ranges
00000000 l    d  .debug_frame	00000000 .debug_frame
00000000 l    d  .debug_line	00000000 .debug_line
00000000         *UND*	00000000 _ZN10st7735_lcd28ST7735$LT$SPI$C$DC$C$RST$GT$10set_pixels17h033eb41c68c14138E
00000000 g     F .text._ZN110_$LT$piet_embedded_graphics..batch..RowIterator$LT$P$GT$$u20$as$u20$core..iter..traits..iterator..Iterator$GT$4next17he240c760ec5ff34dE	000002a6 _ZN110_$LT$piet_embedded_graphics..batch..RowIterator$LT$P$GT$$u20$as$u20$core..iter..traits..iterator..Iterator$GT$4next17he240c760ec5ff34dE
00000000 g     F .text._ZN112_$LT$piet_embedded_graphics..batch..BlockIterator$LT$R$GT$$u20$as$u20$core..iter..traits..iterator..Iterator$GT$4next17h6d7ebc6c16cf0449E	000003a6 _ZN112_$LT$piet_embedded_graphics..batch..BlockIterator$LT$R$GT$$u20$as$u20$core..iter..traits..iterator..Iterator$GT$4next17h6d7ebc6c16cf0449E
00000000         *UND*	00000000 _ZN116_$LT$embedded_graphics..primitives..circle..Circle$LT$C$GT$$u20$as$u20$core..iter..traits..collect..IntoIterator$GT$9into_iter17h0f12e0e052eb0b2dE
00000000         *UND*	00000000 _ZN121_$LT$embedded_graphics..primitives..circle..CircleIterator$LT$C$GT$$u20$as$u20$core..iter..traits..iterator..Iterator$GT$4next17he7626936cc4fb435E
00000000 g     F .text._ZN22piet_embedded_graphics5batch11draw_blocks17h0f62937d950720e2E	000001c2 _ZN22piet_embedded_graphics5batch11draw_blocks17h0f62937d950720e2E
00000000 g     F .text._ZN22piet_embedded_graphics5batch7to_rows17h805810457c89a051E	0000005e _ZN22piet_embedded_graphics5batch7to_rows17h805810457c89a051E
00000000 g     F .text._ZN22piet_embedded_graphics5batch9to_blocks17h21dc045e9abdcbcfE	00000050 _ZN22piet_embedded_graphics5batch9to_blocks17h21dc045e9abdcbcfE
00000000         *UND*	00000000 _ZN4core3ptr18real_drop_in_place17h0a953d836c5653beE
00000000         *UND*	00000000 _ZN4core3ptr18real_drop_in_place17h74d1def115ce632eE
00000000         *UND*	00000000 _ZN4core3ptr18real_drop_in_place17h7705f424901406b7E
00000000         *UND*	00000000 _ZN4core3ptr18real_drop_in_place17hd1f8190c506e115bE
00000000         *UND*	00000000 _ZN4core6result19Result$LT$T$C$E$GT$5is_ok17h37387e7395d6e92dE
00000000         *UND*	00000000 _ZN4core6result19Result$LT$T$C$E$GT$5is_ok17hb1ddbf925d2807d7E
00000000         *UND*	00000000 _ZN4core6result19Result$LT$T$C$E$GT$6expect17h50be0804bdcda9d2E
00000000         *UND*	00000000 _ZN4core6result19Result$LT$T$C$E$GT$6expect17h628ea316be0f2099E
00000000         *UND*	00000000 _ZN4core9panicking5panic17hfdd0eecc44a682f8E
00000000         *UND*	00000000 _ZN50_$LT$T$u20$as$u20$core..convert..From$LT$T$GT$$GT$4from17ha31222aae56585dcE
00000000 g     F .text._ZN63_$LT$I$u20$as$u20$core..iter..traits..collect..IntoIterator$GT$9into_iter17ha19f9e6918009fe8E	0000000c _ZN63_$LT$I$u20$as$u20$core..iter..traits..collect..IntoIterator$GT$9into_iter17ha19f9e6918009fe8E
00000000         *UND*	00000000 _ZN70_$LT$heapless..vec..Vec$LT$T$C$N$GT$$u20$as$u20$core..clone..Clone$GT$5clone17h4d892b419e507335E
00000000         *UND*	00000000 _ZN70_$LT$heapless..vec..Vec$LT$T$C$N$GT$$u20$as$u20$core..clone..Clone$GT$5clone17heeedb175dea731a1E
00000000         *UND*	00000000 _ZN73_$LT$core..result..Result$LT$T$C$E$GT$$u20$as$u20$core..ops..try..Try$GT$10from_error17hffcf477f632200deE
00000000         *UND*	00000000 _ZN73_$LT$core..result..Result$LT$T$C$E$GT$$u20$as$u20$core..ops..try..Try$GT$11into_result17h6080547b3bb225c9E
00000000         *UND*	00000000 _ZN75_$LT$heapless..vec..Vec$LT$T$C$N$GT$$u20$as$u20$core..ops..deref..Deref$GT$5deref17h7c537d1c45e347b7E
00000000         *UND*	00000000 _ZN8heapless3vec16Vec$LT$T$C$N$GT$17extend_from_slice17h90a7ae91486b974bE
00000000         *UND*	00000000 _ZN8heapless3vec16Vec$LT$T$C$N$GT$3new17h21f2fbeed2fdb35aE
00000000         *UND*	00000000 _ZN8heapless3vec16Vec$LT$T$C$N$GT$3new17he8dd1043f24661e1E
00000000         *UND*	00000000 _ZN8heapless3vec16Vec$LT$T$C$N$GT$4push17hc3905d4c46b1d707E
00000000         *UND*	00000000 _ZN8heapless3vec16Vec$LT$T$C$N$GT$5clear17ha931fec77f832a3bE
00000000         *UND*	00000000 _ZN8heapless3vec16Vec$LT$T$C$N$GT$5clear17hd1207b6e81f7b78cE
00000000         *UND*	00000000 __aeabi_memcpy4



Disassembly of section .text._ZN110_$LT$piet_embedded_graphics..batch..RowIterator$LT$P$GT$$u20$as$u20$core..iter..traits..iterator..Iterator$GT$4next17he240c760ec5ff34dE:

00000000 <_ZN110_$LT$piet_embedded_graphics..batch..RowIterator$LT$P$GT$$u20$as$u20$core..iter..traits..iterator..Iterator$GT$4next17he240c760ec5ff34dE>:
_ZN110_$LT$piet_embedded_graphics..batch..RowIterator$LT$P$GT$$u20$as$u20$core..iter..traits..iterator..Iterator$GT$4next17he240c760ec5ff34dE():
c:\PineTime\pinetime-rust-mynewt\rust\piet-embedded\piet-embedded-graphics\src/batch.rs:158
impl<P: Iterator<Item = Pixel<Rgb565>>> Iterator for RowIterator<P> {
    /// This Iterator returns Pixel Rows
    type Item = PixelRow;

    /// Return the next Pixel Row of contiguous pixels on the same row
    fn next(&mut self) -> Option<Self::Item> {
   0:	b580      	push	{r7, lr}
   2:	f5ad 7d44 	sub.w	sp, sp, #784	; 0x310
   6:	9115      	str	r1, [sp, #84]	; 0x54
c:\PineTime\pinetime-rust-mynewt\rust\piet-embedded\piet-embedded-graphics\src/batch.rs:160
        //  Loop over all pixels until we have composed a Pixel Row, or we have run out of pixels.
        loop {
   8:	9014      	str	r0, [sp, #80]	; 0x50
   a:	e7ff      	b.n	c <_ZN110_$LT$piet_embedded_graphics..batch..RowIterator$LT$P$GT$$u20$as$u20$core..iter..traits..iterator..Iterator$GT$4next17he240c760ec5ff34dE+0xc>
c:\PineTime\pinetime-rust-mynewt\rust\piet-embedded\piet-embedded-graphics\src/batch.rs:162
            //  Get the next pixel.
            let next_pixel = self.pixels.next();
   c:	9915      	ldr	r1, [sp, #84]	; 0x54
   e:	a816      	add	r0, sp, #88	; 0x58
  10:	f7ff fffe 	bl	0 <_ZN121_$LT$embedded_graphics..primitives..circle..CircleIterator$LT$C$GT$$u20$as$u20$core..iter..traits..iterator..Iterator$GT$4next17he7626936cc4fb435E>
  14:	e7ff      	b.n	16 <_ZN110_$LT$piet_embedded_graphics..batch..RowIterator$LT$P$GT$$u20$as$u20$core..iter..traits..iterator..Iterator$GT$4next17he240c760ec5ff34dE+0x16>
c:\PineTime\pinetime-rust-mynewt\rust\piet-embedded\piet-embedded-graphics\src/batch.rs:164
            match next_pixel {
                None => {  //  If no more pixels...
  16:	9816      	ldr	r0, [sp, #88]	; 0x58
  18:	2800      	cmp	r0, #0
  1a:	d002      	beq.n	22 <_ZN110_$LT$piet_embedded_graphics..batch..RowIterator$LT$P$GT$$u20$as$u20$core..iter..traits..iterator..Iterator$GT$4next17he240c760ec5ff34dE+0x22>
  1c:	e7ff      	b.n	1e <_ZN110_$LT$piet_embedded_graphics..batch..RowIterator$LT$P$GT$$u20$as$u20$core..iter..traits..iterator..Iterator$GT$4next17he240c760ec5ff34dE+0x1e>
  1e:	e04e      	b.n	be <_ZN110_$LT$piet_embedded_graphics..batch..RowIterator$LT$P$GT$$u20$as$u20$core..iter..traits..iterator..Iterator$GT$4next17he240c760ec5ff34dE+0xbe>
c:\PineTime\pinetime-rust-mynewt\rust\piet-embedded\piet-embedded-graphics\src/batch.rs:163
            match next_pixel {
  20:	defe      	udf	#254	; 0xfe
c:\PineTime\pinetime-rust-mynewt\rust\piet-embedded\piet-embedded-graphics\src/batch.rs:165
                    if self.first_pixel {
  22:	9815      	ldr	r0, [sp, #84]	; 0x54
  24:	f890 008e 	ldrb.w	r0, [r0, #142]	; 0x8e
  28:	07c0      	lsls	r0, r0, #31
  2a:	2800      	cmp	r0, #0
  2c:	d115      	bne.n	5a <_ZN110_$LT$piet_embedded_graphics..batch..RowIterator$LT$P$GT$$u20$as$u20$core..iter..traits..iterator..Iterator$GT$4next17he240c760ec5ff34dE+0x5a>
  2e:	e7ff      	b.n	30 <_ZN110_$LT$piet_embedded_graphics..batch..RowIterator$LT$P$GT$$u20$as$u20$core..iter..traits..iterator..Iterator$GT$4next17he240c760ec5ff34dE+0x30>
c:\PineTime\pinetime-rust-mynewt\rust\piet-embedded\piet-embedded-graphics\src/batch.rs:170
                        return None;  //  No pixels to group
                    }                    
                    //  Else return previous pixels as row.
                    let row = PixelRow {
                        x_left: self.x_left,
  30:	9815      	ldr	r0, [sp, #84]	; 0x54
  32:	f8b0 1088 	ldrh.w	r1, [r0, #136]	; 0x88
c:\PineTime\pinetime-rust-mynewt\rust\piet-embedded\piet-embedded-graphics\src/batch.rs:171
                        x_right: self.x_right,
  36:	f8b0 208a 	ldrh.w	r2, [r0, #138]	; 0x8a
c:\PineTime\pinetime-rust-mynewt\rust\piet-embedded\piet-embedded-graphics\src/batch.rs:172
                        y: self.y,
  3a:	f8b0 308c 	ldrh.w	r3, [r0, #140]	; 0x8c
c:\PineTime\pinetime-rust-mynewt\rust\piet-embedded\piet-embedded-graphics\src/batch.rs:173
                        colors: self.colors.clone(),
  3e:	3020      	adds	r0, #32
  40:	f10d 0cd8 	add.w	ip, sp, #216	; 0xd8
  44:	9013      	str	r0, [sp, #76]	; 0x4c
  46:	4660      	mov	r0, ip
  48:	f8dd c04c 	ldr.w	ip, [sp, #76]	; 0x4c
  4c:	9112      	str	r1, [sp, #72]	; 0x48
  4e:	4661      	mov	r1, ip
  50:	9211      	str	r2, [sp, #68]	; 0x44
  52:	9310      	str	r3, [sp, #64]	; 0x40
  54:	f7ff fffe 	bl	0 <_ZN70_$LT$heapless..vec..Vec$LT$T$C$N$GT$$u20$as$u20$core..clone..Clone$GT$5clone17heeedb175dea731a1E>
  58:	e006      	b.n	68 <_ZN110_$LT$piet_embedded_graphics..batch..RowIterator$LT$P$GT$$u20$as$u20$core..iter..traits..iterator..Iterator$GT$4next17he240c760ec5ff34dE+0x68>
  5a:	2000      	movs	r0, #0
c:\PineTime\pinetime-rust-mynewt\rust\piet-embedded\piet-embedded-graphics\src/batch.rs:166
                        return None;  //  No pixels to group
  5c:	9914      	ldr	r1, [sp, #80]	; 0x50
  5e:	6008      	str	r0, [r1, #0]
  60:	e7ff      	b.n	62 <_ZN110_$LT$piet_embedded_graphics..batch..RowIterator$LT$P$GT$$u20$as$u20$core..iter..traits..iterator..Iterator$GT$4next17he240c760ec5ff34dE+0x62>
c:\PineTime\pinetime-rust-mynewt\rust\piet-embedded\piet-embedded-graphics\src/batch.rs:219
                        .expect("never");
                    return Some(row);
                }
            }
        }
    }
  62:	f50d 7d44 	add.w	sp, sp, #784	; 0x310
  66:	bd80      	pop	{r7, pc}
c:\PineTime\pinetime-rust-mynewt\rust\piet-embedded\piet-embedded-graphics\src/batch.rs:169
                    let row = PixelRow {
  68:	9812      	ldr	r0, [sp, #72]	; 0x48
  6a:	f8ad 00d0 	strh.w	r0, [sp, #208]	; 0xd0
  6e:	9911      	ldr	r1, [sp, #68]	; 0x44
  70:	f8ad 10d2 	strh.w	r1, [sp, #210]	; 0xd2
  74:	9a10      	ldr	r2, [sp, #64]	; 0x40
  76:	f8ad 20d4 	strh.w	r2, [sp, #212]	; 0xd4
  7a:	a81a      	add	r0, sp, #104	; 0x68
  7c:	a936      	add	r1, sp, #216	; 0xd8
  7e:	2268      	movs	r2, #104	; 0x68
  80:	f7ff fffe 	bl	0 <__aeabi_memcpy4>
c:\PineTime\pinetime-rust-mynewt\rust\piet-embedded\piet-embedded-graphics\src/batch.rs:175
                    self.colors.clear();
  84:	9815      	ldr	r0, [sp, #84]	; 0x54
  86:	3020      	adds	r0, #32
  88:	f7ff fffe 	bl	0 <_ZN8heapless3vec16Vec$LT$T$C$N$GT$5clear17ha931fec77f832a3bE>
  8c:	e7ff      	b.n	8e <_ZN110_$LT$piet_embedded_graphics..batch..RowIterator$LT$P$GT$$u20$as$u20$core..iter..traits..iterator..Iterator$GT$4next17he240c760ec5ff34dE+0x8e>
c:\PineTime\pinetime-rust-mynewt\rust\piet-embedded\piet-embedded-graphics\src/batch.rs:176
                    self.first_pixel = true;
  8e:	9815      	ldr	r0, [sp, #84]	; 0x54
  90:	2101      	movs	r1, #1
  92:	f880 108e 	strb.w	r1, [r0, #142]	; 0x8e
  96:	a850      	add	r0, sp, #320	; 0x140
  98:	aa1a      	add	r2, sp, #104	; 0x68
  9a:	2370      	movs	r3, #112	; 0x70
c:\PineTime\pinetime-rust-mynewt\rust\piet-embedded\piet-embedded-graphics\src/batch.rs:177
                    return Some(row);
  9c:	900f      	str	r0, [sp, #60]	; 0x3c
  9e:	910e      	str	r1, [sp, #56]	; 0x38
  a0:	4611      	mov	r1, r2
  a2:	461a      	mov	r2, r3
  a4:	930d      	str	r3, [sp, #52]	; 0x34
  a6:	f7ff fffe 	bl	0 <__aeabi_memcpy4>
  aa:	9814      	ldr	r0, [sp, #80]	; 0x50
  ac:	3004      	adds	r0, #4
  ae:	990f      	ldr	r1, [sp, #60]	; 0x3c
  b0:	9a0d      	ldr	r2, [sp, #52]	; 0x34
  b2:	f7ff fffe 	bl	0 <__aeabi_memcpy4>
  b6:	980e      	ldr	r0, [sp, #56]	; 0x38
  b8:	9914      	ldr	r1, [sp, #80]	; 0x50
  ba:	6008      	str	r0, [r1, #0]
  bc:	e7d1      	b.n	62 <_ZN110_$LT$piet_embedded_graphics..batch..RowIterator$LT$P$GT$$u20$as$u20$core..iter..traits..iterator..Iterator$GT$4next17he240c760ec5ff34dE+0x62>
c:\PineTime\pinetime-rust-mynewt\rust\piet-embedded\piet-embedded-graphics\src/batch.rs:179
                Some(Pixel(coord, color)) => {  //  If there is a pixel...
  be:	9817      	ldr	r0, [sp, #92]	; 0x5c
  c0:	9918      	ldr	r1, [sp, #96]	; 0x60
  c2:	906c      	str	r0, [sp, #432]	; 0x1b0
  c4:	916d      	str	r1, [sp, #436]	; 0x1b4
  c6:	f8bd 0064 	ldrh.w	r0, [sp, #100]	; 0x64
  ca:	f8ad 01ba 	strh.w	r0, [sp, #442]	; 0x1ba
c:\PineTime\pinetime-rust-mynewt\rust\piet-embedded\piet-embedded-graphics\src/batch.rs:180
                    let x = coord.0 as u16;
  ce:	986c      	ldr	r0, [sp, #432]	; 0x1b0
  d0:	f8ad 01bc 	strh.w	r0, [sp, #444]	; 0x1bc
c:\PineTime\pinetime-rust-mynewt\rust\piet-embedded\piet-embedded-graphics\src/batch.rs:181
                    let y = coord.1 as u16;
  d4:	986d      	ldr	r0, [sp, #436]	; 0x1b4
  d6:	f8ad 01be 	strh.w	r0, [sp, #446]	; 0x1be
c:\PineTime\pinetime-rust-mynewt\rust\piet-embedded\piet-embedded-graphics\src/batch.rs:182
                    let color = color.0;
  da:	f8bd 01ba 	ldrh.w	r0, [sp, #442]	; 0x1ba
  de:	f8ad 01c0 	strh.w	r0, [sp, #448]	; 0x1c0
c:\PineTime\pinetime-rust-mynewt\rust\piet-embedded\piet-embedded-graphics\src/batch.rs:184
                    if self.first_pixel {
  e2:	9815      	ldr	r0, [sp, #84]	; 0x54
  e4:	f890 008e 	ldrb.w	r0, [r0, #142]	; 0x8e
  e8:	07c0      	lsls	r0, r0, #31
  ea:	2800      	cmp	r0, #0
  ec:	d10e      	bne.n	10c <_ZN110_$LT$piet_embedded_graphics..batch..RowIterator$LT$P$GT$$u20$as$u20$core..iter..traits..iterator..Iterator$GT$4next17he240c760ec5ff34dE+0x10c>
  ee:	e7ff      	b.n	f0 <_ZN110_$LT$piet_embedded_graphics..batch..RowIterator$LT$P$GT$$u20$as$u20$core..iter..traits..iterator..Iterator$GT$4next17he240c760ec5ff34dE+0xf0>
c:\PineTime\pinetime-rust-mynewt\rust\piet-embedded\piet-embedded-graphics\src/batch.rs:195
                    if x == self.x_right + 1 && y == self.y {
  f0:	f8bd 01bc 	ldrh.w	r0, [sp, #444]	; 0x1bc
  f4:	9915      	ldr	r1, [sp, #84]	; 0x54
  f6:	f8b1 108a 	ldrh.w	r1, [r1, #138]	; 0x8a
  fa:	3101      	adds	r1, #1
  fc:	b28a      	uxth	r2, r1
  fe:	460b      	mov	r3, r1
 100:	428a      	cmp	r2, r1
 102:	900c      	str	r0, [sp, #48]	; 0x30
 104:	930b      	str	r3, [sp, #44]	; 0x2c
 106:	f040 80c2 	bne.w	28e <_ZN110_$LT$piet_embedded_graphics..batch..RowIterator$LT$P$GT$$u20$as$u20$core..iter..traits..iterator..Iterator$GT$4next17he240c760ec5ff34dE+0x28e>
 10a:	e042      	b.n	192 <_ZN110_$LT$piet_embedded_graphics..batch..RowIterator$LT$P$GT$$u20$as$u20$core..iter..traits..iterator..Iterator$GT$4next17he240c760ec5ff34dE+0x192>
c:\PineTime\pinetime-rust-mynewt\rust\piet-embedded\piet-embedded-graphics\src/batch.rs:185
                        self.first_pixel = false;
 10c:	9815      	ldr	r0, [sp, #84]	; 0x54
 10e:	2100      	movs	r1, #0
 110:	f880 108e 	strb.w	r1, [r0, #142]	; 0x8e
c:\PineTime\pinetime-rust-mynewt\rust\piet-embedded\piet-embedded-graphics\src/batch.rs:186
                        self.x_left = x;
 114:	f8bd 01bc 	ldrh.w	r0, [sp, #444]	; 0x1bc
 118:	9915      	ldr	r1, [sp, #84]	; 0x54
 11a:	f8a1 0088 	strh.w	r0, [r1, #136]	; 0x88
c:\PineTime\pinetime-rust-mynewt\rust\piet-embedded\piet-embedded-graphics\src/batch.rs:187
                        self.x_right = x;
 11e:	f8bd 01bc 	ldrh.w	r0, [sp, #444]	; 0x1bc
 122:	9915      	ldr	r1, [sp, #84]	; 0x54
 124:	f8a1 008a 	strh.w	r0, [r1, #138]	; 0x8a
c:\PineTime\pinetime-rust-mynewt\rust\piet-embedded\piet-embedded-graphics\src/batch.rs:188
                        self.y = y;
 128:	f8bd 01be 	ldrh.w	r0, [sp, #446]	; 0x1be
 12c:	9915      	ldr	r1, [sp, #84]	; 0x54
 12e:	f8a1 008c 	strh.w	r0, [r1, #140]	; 0x8c
c:\PineTime\pinetime-rust-mynewt\rust\piet-embedded\piet-embedded-graphics\src/batch.rs:189
                        self.colors.clear();
 132:	9815      	ldr	r0, [sp, #84]	; 0x54
 134:	3020      	adds	r0, #32
 136:	f7ff fffe 	bl	0 <_ZN8heapless3vec16Vec$LT$T$C$N$GT$5clear17ha931fec77f832a3bE>
 13a:	e7ff      	b.n	13c <_ZN110_$LT$piet_embedded_graphics..batch..RowIterator$LT$P$GT$$u20$as$u20$core..iter..traits..iterator..Iterator$GT$4next17he240c760ec5ff34dE+0x13c>
c:\PineTime\pinetime-rust-mynewt\rust\piet-embedded\piet-embedded-graphics\src/batch.rs:190
                        self.colors.push(color)
 13c:	9815      	ldr	r0, [sp, #84]	; 0x54
 13e:	3020      	adds	r0, #32
 140:	f8bd 11c0 	ldrh.w	r1, [sp, #448]	; 0x1c0
 144:	f7ff fffe 	bl	0 <_ZN8heapless3vec16Vec$LT$T$C$N$GT$4push17hc3905d4c46b1d707E>
 148:	900a      	str	r0, [sp, #40]	; 0x28
 14a:	9109      	str	r1, [sp, #36]	; 0x24
 14c:	e7ff      	b.n	14e <_ZN110_$LT$piet_embedded_graphics..batch..RowIterator$LT$P$GT$$u20$as$u20$core..iter..traits..iterator..Iterator$GT$4next17he240c760ec5ff34dE+0x14e>
 14e:	f240 0200 	movw	r2, #0
 152:	f2c0 0200 	movt	r2, #0
 156:	2305      	movs	r3, #5
 158:	980a      	ldr	r0, [sp, #40]	; 0x28
 15a:	9909      	ldr	r1, [sp, #36]	; 0x24
 15c:	f7ff fffe 	bl	0 <_ZN4core6result19Result$LT$T$C$E$GT$6expect17h50be0804bdcda9d2E>
 160:	e7ff      	b.n	162 <_ZN110_$LT$piet_embedded_graphics..batch..RowIterator$LT$P$GT$$u20$as$u20$core..iter..traits..iterator..Iterator$GT$4next17he240c760ec5ff34dE+0x162>
c:\PineTime\pinetime-rust-mynewt\rust\piet-embedded\piet-embedded-graphics\src/batch.rs:192
                        continue;
 162:	e7ff      	b.n	164 <_ZN110_$LT$piet_embedded_graphics..batch..RowIterator$LT$P$GT$$u20$as$u20$core..iter..traits..iterator..Iterator$GT$4next17he240c760ec5ff34dE+0x164>
 164:	e752      	b.n	c <_ZN110_$LT$piet_embedded_graphics..batch..RowIterator$LT$P$GT$$u20$as$u20$core..iter..traits..iterator..Iterator$GT$4next17he240c760ec5ff34dE+0xc>
 166:	2001      	movs	r0, #1
c:\PineTime\pinetime-rust-mynewt\rust\piet-embedded\piet-embedded-graphics\src/batch.rs:195
                    if x == self.x_right + 1 && y == self.y {
 168:	f88d 01c3 	strb.w	r0, [sp, #451]	; 0x1c3
 16c:	e00b      	b.n	186 <_ZN110_$LT$piet_embedded_graphics..batch..RowIterator$LT$P$GT$$u20$as$u20$core..iter..traits..iterator..Iterator$GT$4next17he240c760ec5ff34dE+0x186>
 16e:	2000      	movs	r0, #0
 170:	f88d 01c3 	strb.w	r0, [sp, #451]	; 0x1c3
 174:	e007      	b.n	186 <_ZN110_$LT$piet_embedded_graphics..batch..RowIterator$LT$P$GT$$u20$as$u20$core..iter..traits..iterator..Iterator$GT$4next17he240c760ec5ff34dE+0x186>
 176:	f8bd 01be 	ldrh.w	r0, [sp, #446]	; 0x1be
 17a:	9915      	ldr	r1, [sp, #84]	; 0x54
 17c:	f8b1 108c 	ldrh.w	r1, [r1, #140]	; 0x8c
 180:	4288      	cmp	r0, r1
 182:	d0f0      	beq.n	166 <_ZN110_$LT$piet_embedded_graphics..batch..RowIterator$LT$P$GT$$u20$as$u20$core..iter..traits..iterator..Iterator$GT$4next17he240c760ec5ff34dE+0x166>
 184:	e7f3      	b.n	16e <_ZN110_$LT$piet_embedded_graphics..batch..RowIterator$LT$P$GT$$u20$as$u20$core..iter..traits..iterator..Iterator$GT$4next17he240c760ec5ff34dE+0x16e>
 186:	f89d 01c3 	ldrb.w	r0, [sp, #451]	; 0x1c3
 18a:	07c0      	lsls	r0, r0, #31
 18c:	2800      	cmp	r0, #0
 18e:	d107      	bne.n	1a0 <_ZN110_$LT$piet_embedded_graphics..batch..RowIterator$LT$P$GT$$u20$as$u20$core..iter..traits..iterator..Iterator$GT$4next17he240c760ec5ff34dE+0x1a0>
 190:	e022      	b.n	1d8 <_ZN110_$LT$piet_embedded_graphics..batch..RowIterator$LT$P$GT$$u20$as$u20$core..iter..traits..iterator..Iterator$GT$4next17he240c760ec5ff34dE+0x1d8>
 192:	980b      	ldr	r0, [sp, #44]	; 0x2c
 194:	b281      	uxth	r1, r0
 196:	9a0c      	ldr	r2, [sp, #48]	; 0x30
 198:	b293      	uxth	r3, r2
 19a:	428b      	cmp	r3, r1
 19c:	d0eb      	beq.n	176 <_ZN110_$LT$piet_embedded_graphics..batch..RowIterator$LT$P$GT$$u20$as$u20$core..iter..traits..iterator..Iterator$GT$4next17he240c760ec5ff34dE+0x176>
 19e:	e7e6      	b.n	16e <_ZN110_$LT$piet_embedded_graphics..batch..RowIterator$LT$P$GT$$u20$as$u20$core..iter..traits..iterator..Iterator$GT$4next17he240c760ec5ff34dE+0x16e>
c:\PineTime\pinetime-rust-mynewt\rust\piet-embedded\piet-embedded-graphics\src/batch.rs:196
                        if self.colors.push(color).is_ok() {
 1a0:	9815      	ldr	r0, [sp, #84]	; 0x54
 1a2:	3020      	adds	r0, #32
 1a4:	f8bd 11c0 	ldrh.w	r1, [sp, #448]	; 0x1c0
 1a8:	f7ff fffe 	bl	0 <_ZN8heapless3vec16Vec$LT$T$C$N$GT$4push17hc3905d4c46b1d707E>
 1ac:	f8ad 11c6 	strh.w	r1, [sp, #454]	; 0x1c6
 1b0:	f8ad 01c4 	strh.w	r0, [sp, #452]	; 0x1c4
 1b4:	e7ff      	b.n	1b6 <_ZN110_$LT$piet_embedded_graphics..batch..RowIterator$LT$P$GT$$u20$as$u20$core..iter..traits..iterator..Iterator$GT$4next17he240c760ec5ff34dE+0x1b6>
 1b6:	a871      	add	r0, sp, #452	; 0x1c4
 1b8:	f7ff fffe 	bl	0 <_ZN4core6result19Result$LT$T$C$E$GT$5is_ok17hb1ddbf925d2807d7E>
 1bc:	9008      	str	r0, [sp, #32]
 1be:	e7ff      	b.n	1c0 <_ZN110_$LT$piet_embedded_graphics..batch..RowIterator$LT$P$GT$$u20$as$u20$core..iter..traits..iterator..Iterator$GT$4next17he240c760ec5ff34dE+0x1c0>
 1c0:	9808      	ldr	r0, [sp, #32]
 1c2:	07c1      	lsls	r1, r0, #31
 1c4:	2900      	cmp	r1, #0
 1c6:	d101      	bne.n	1cc <_ZN110_$LT$piet_embedded_graphics..batch..RowIterator$LT$P$GT$$u20$as$u20$core..iter..traits..iterator..Iterator$GT$4next17he240c760ec5ff34dE+0x1cc>
 1c8:	e7ff      	b.n	1ca <_ZN110_$LT$piet_embedded_graphics..batch..RowIterator$LT$P$GT$$u20$as$u20$core..iter..traits..iterator..Iterator$GT$4next17he240c760ec5ff34dE+0x1ca>
c:\PineTime\pinetime-rust-mynewt\rust\piet-embedded\piet-embedded-graphics\src/batch.rs:195
                    if x == self.x_right + 1 && y == self.y {
 1ca:	e005      	b.n	1d8 <_ZN110_$LT$piet_embedded_graphics..batch..RowIterator$LT$P$GT$$u20$as$u20$core..iter..traits..iterator..Iterator$GT$4next17he240c760ec5ff34dE+0x1d8>
c:\PineTime\pinetime-rust-mynewt\rust\piet-embedded\piet-embedded-graphics\src/batch.rs:198
                            self.x_right = x;
 1cc:	f8bd 01bc 	ldrh.w	r0, [sp, #444]	; 0x1bc
 1d0:	9915      	ldr	r1, [sp, #84]	; 0x54
 1d2:	f8a1 008a 	strh.w	r0, [r1, #138]	; 0x8a
c:\PineTime\pinetime-rust-mynewt\rust\piet-embedded\piet-embedded-graphics\src/batch.rs:199
                            continue;
 1d6:	e7c5      	b.n	164 <_ZN110_$LT$piet_embedded_graphics..batch..RowIterator$LT$P$GT$$u20$as$u20$core..iter..traits..iterator..Iterator$GT$4next17he240c760ec5ff34dE+0x164>
c:\PineTime\pinetime-rust-mynewt\rust\piet-embedded\piet-embedded-graphics\src/batch.rs:204
                        x_left: self.x_left,
 1d8:	9815      	ldr	r0, [sp, #84]	; 0x54
 1da:	f8b0 1088 	ldrh.w	r1, [r0, #136]	; 0x88
c:\PineTime\pinetime-rust-mynewt\rust\piet-embedded\piet-embedded-graphics\src/batch.rs:205
                        x_right: self.x_right,
 1de:	f8b0 208a 	ldrh.w	r2, [r0, #138]	; 0x8a
c:\PineTime\pinetime-rust-mynewt\rust\piet-embedded\piet-embedded-graphics\src/batch.rs:206
                        y: self.y,
 1e2:	f8b0 308c 	ldrh.w	r3, [r0, #140]	; 0x8c
c:\PineTime\pinetime-rust-mynewt\rust\piet-embedded\piet-embedded-graphics\src/batch.rs:207
                        colors: self.colors.clone(),
 1e6:	3020      	adds	r0, #32
 1e8:	f50d 7c0e 	add.w	ip, sp, #568	; 0x238
 1ec:	9007      	str	r0, [sp, #28]
 1ee:	4660      	mov	r0, ip
 1f0:	f8dd c01c 	ldr.w	ip, [sp, #28]
 1f4:	9106      	str	r1, [sp, #24]
 1f6:	4661      	mov	r1, ip
 1f8:	9205      	str	r2, [sp, #20]
 1fa:	9304      	str	r3, [sp, #16]
 1fc:	f7ff fffe 	bl	0 <_ZN70_$LT$heapless..vec..Vec$LT$T$C$N$GT$$u20$as$u20$core..clone..Clone$GT$5clone17heeedb175dea731a1E>
 200:	e7ff      	b.n	202 <_ZN110_$LT$piet_embedded_graphics..batch..RowIterator$LT$P$GT$$u20$as$u20$core..iter..traits..iterator..Iterator$GT$4next17he240c760ec5ff34dE+0x202>
c:\PineTime\pinetime-rust-mynewt\rust\piet-embedded\piet-embedded-graphics\src/batch.rs:203
                    let row = PixelRow {
 202:	9806      	ldr	r0, [sp, #24]
 204:	f8ad 0230 	strh.w	r0, [sp, #560]	; 0x230
 208:	9905      	ldr	r1, [sp, #20]
 20a:	f8ad 1232 	strh.w	r1, [sp, #562]	; 0x232
 20e:	9a04      	ldr	r2, [sp, #16]
 210:	f8ad 2234 	strh.w	r2, [sp, #564]	; 0x234
 214:	a872      	add	r0, sp, #456	; 0x1c8
 216:	a98e      	add	r1, sp, #568	; 0x238
 218:	2268      	movs	r2, #104	; 0x68
 21a:	f7ff fffe 	bl	0 <__aeabi_memcpy4>
c:\PineTime\pinetime-rust-mynewt\rust\piet-embedded\piet-embedded-graphics\src/batch.rs:209
                    self.x_left = x;
 21e:	f8bd 01bc 	ldrh.w	r0, [sp, #444]	; 0x1bc
 222:	9915      	ldr	r1, [sp, #84]	; 0x54
 224:	f8a1 0088 	strh.w	r0, [r1, #136]	; 0x88
c:\PineTime\pinetime-rust-mynewt\rust\piet-embedded\piet-embedded-graphics\src/batch.rs:210
                    self.x_right = x;
 228:	f8bd 01bc 	ldrh.w	r0, [sp, #444]	; 0x1bc
 22c:	9915      	ldr	r1, [sp, #84]	; 0x54
 22e:	f8a1 008a 	strh.w	r0, [r1, #138]	; 0x8a
c:\PineTime\pinetime-rust-mynewt\rust\piet-embedded\piet-embedded-graphics\src/batch.rs:211
                    self.y = y;
 232:	f8bd 01be 	ldrh.w	r0, [sp, #446]	; 0x1be
 236:	9915      	ldr	r1, [sp, #84]	; 0x54
 238:	f8a1 008c 	strh.w	r0, [r1, #140]	; 0x8c
c:\PineTime\pinetime-rust-mynewt\rust\piet-embedded\piet-embedded-graphics\src/batch.rs:212
                    self.colors.clear();
 23c:	9815      	ldr	r0, [sp, #84]	; 0x54
 23e:	3020      	adds	r0, #32
 240:	f7ff fffe 	bl	0 <_ZN8heapless3vec16Vec$LT$T$C$N$GT$5clear17ha931fec77f832a3bE>
 244:	e7ff      	b.n	246 <_ZN110_$LT$piet_embedded_graphics..batch..RowIterator$LT$P$GT$$u20$as$u20$core..iter..traits..iterator..Iterator$GT$4next17he240c760ec5ff34dE+0x246>
c:\PineTime\pinetime-rust-mynewt\rust\piet-embedded\piet-embedded-graphics\src/batch.rs:213
                    self.colors.push(color)
 246:	9815      	ldr	r0, [sp, #84]	; 0x54
 248:	3020      	adds	r0, #32
 24a:	f8bd 11c0 	ldrh.w	r1, [sp, #448]	; 0x1c0
 24e:	f7ff fffe 	bl	0 <_ZN8heapless3vec16Vec$LT$T$C$N$GT$4push17hc3905d4c46b1d707E>
 252:	9003      	str	r0, [sp, #12]
 254:	9102      	str	r1, [sp, #8]
 256:	e7ff      	b.n	258 <_ZN110_$LT$piet_embedded_graphics..batch..RowIterator$LT$P$GT$$u20$as$u20$core..iter..traits..iterator..Iterator$GT$4next17he240c760ec5ff34dE+0x258>
 258:	f240 0200 	movw	r2, #0
 25c:	f2c0 0200 	movt	r2, #0
 260:	2305      	movs	r3, #5
 262:	9803      	ldr	r0, [sp, #12]
 264:	9902      	ldr	r1, [sp, #8]
 266:	f7ff fffe 	bl	0 <_ZN4core6result19Result$LT$T$C$E$GT$6expect17h50be0804bdcda9d2E>
 26a:	e7ff      	b.n	26c <_ZN110_$LT$piet_embedded_graphics..batch..RowIterator$LT$P$GT$$u20$as$u20$core..iter..traits..iterator..Iterator$GT$4next17he240c760ec5ff34dE+0x26c>
 26c:	a8a8      	add	r0, sp, #672	; 0x2a0
 26e:	a972      	add	r1, sp, #456	; 0x1c8
 270:	2270      	movs	r2, #112	; 0x70
c:\PineTime\pinetime-rust-mynewt\rust\piet-embedded\piet-embedded-graphics\src/batch.rs:215
                    return Some(row);
 272:	9001      	str	r0, [sp, #4]
 274:	9200      	str	r2, [sp, #0]
 276:	f7ff fffe 	bl	0 <__aeabi_memcpy4>
 27a:	9814      	ldr	r0, [sp, #80]	; 0x50
 27c:	3004      	adds	r0, #4
 27e:	9901      	ldr	r1, [sp, #4]
 280:	9a00      	ldr	r2, [sp, #0]
 282:	f7ff fffe 	bl	0 <__aeabi_memcpy4>
 286:	2001      	movs	r0, #1
 288:	9914      	ldr	r1, [sp, #80]	; 0x50
 28a:	6008      	str	r0, [r1, #0]
 28c:	e6e9      	b.n	62 <_ZN110_$LT$piet_embedded_graphics..batch..RowIterator$LT$P$GT$$u20$as$u20$core..iter..traits..iterator..Iterator$GT$4next17he240c760ec5ff34dE+0x62>
c:\PineTime\pinetime-rust-mynewt\rust\piet-embedded\piet-embedded-graphics\src/batch.rs:195
                    if x == self.x_right + 1 && y == self.y {
 28e:	f240 0000 	movw	r0, #0
 292:	f2c0 0000 	movt	r0, #0
 296:	f240 0200 	movw	r2, #0
 29a:	f2c0 0200 	movt	r2, #0
 29e:	211c      	movs	r1, #28
 2a0:	f7ff fffe 	bl	0 <_ZN4core9panicking5panic17hfdd0eecc44a682f8E>
 2a4:	defe      	udf	#254	; 0xfe

Disassembly of section .text._ZN112_$LT$piet_embedded_graphics..batch..BlockIterator$LT$R$GT$$u20$as$u20$core..iter..traits..iterator..Iterator$GT$4next17h6d7ebc6c16cf0449E:

00000000 <_ZN112_$LT$piet_embedded_graphics..batch..BlockIterator$LT$R$GT$$u20$as$u20$core..iter..traits..iterator..Iterator$GT$4next17h6d7ebc6c16cf0449E>:
_ZN112_$LT$piet_embedded_graphics..batch..BlockIterator$LT$R$GT$$u20$as$u20$core..iter..traits..iterator..Iterator$GT$4next17h6d7ebc6c16cf0449E():
c:\PineTime\pinetime-rust-mynewt\rust\piet-embedded\piet-embedded-graphics\src/batch.rs:229
impl<R: Iterator<Item = PixelRow>> Iterator for BlockIterator<R> {
    /// This Iterator returns Pixel Blocks
    type Item = PixelBlock;

    /// Return the next Pixel Block of contiguous Pixel Rows with the same start and end column number
    fn next(&mut self) -> Option<Self::Item> {
   0:	b580      	push	{r7, lr}
   2:	f5ad 6dca 	sub.w	sp, sp, #1616	; 0x650
   6:	911e      	str	r1, [sp, #120]	; 0x78
   8:	2100      	movs	r1, #0
c:\PineTime\pinetime-rust-mynewt\rust\piet-embedded\piet-embedded-graphics\src/batch.rs:231
        //  Loop over all Pixel Rows until we have composed a Pixel Block, or we have run out of Pixel Rows.
        loop {
   a:	f88d 164f 	strb.w	r1, [sp, #1615]	; 0x64f
   e:	901d      	str	r0, [sp, #116]	; 0x74
  10:	e7ff      	b.n	12 <_ZN112_$LT$piet_embedded_graphics..batch..BlockIterator$LT$R$GT$$u20$as$u20$core..iter..traits..iterator..Iterator$GT$4next17h6d7ebc6c16cf0449E+0x12>
c:\PineTime\pinetime-rust-mynewt\rust\piet-embedded\piet-embedded-graphics\src/batch.rs:233
            //  Get the next Pixel Row.
            let next_row = self.rows.next();
  12:	991e      	ldr	r1, [sp, #120]	; 0x78
  14:	2001      	movs	r0, #1
  16:	f88d 064f 	strb.w	r0, [sp, #1615]	; 0x64f
  1a:	a81f      	add	r0, sp, #124	; 0x7c
  1c:	f7ff fffe 	bl	0 <_ZN112_$LT$piet_embedded_graphics..batch..BlockIterator$LT$R$GT$$u20$as$u20$core..iter..traits..iterator..Iterator$GT$4next17h6d7ebc6c16cf0449E>
  20:	e7ff      	b.n	22 <_ZN112_$LT$piet_embedded_graphics..batch..BlockIterator$LT$R$GT$$u20$as$u20$core..iter..traits..iterator..Iterator$GT$4next17h6d7ebc6c16cf0449E+0x22>
c:\PineTime\pinetime-rust-mynewt\rust\piet-embedded\piet-embedded-graphics\src/batch.rs:235
            match next_row {
                None => {  //  If no more Pixel Rows...
  22:	981f      	ldr	r0, [sp, #124]	; 0x7c
  24:	2800      	cmp	r0, #0
  26:	d002      	beq.n	2e <_ZN112_$LT$piet_embedded_graphics..batch..BlockIterator$LT$R$GT$$u20$as$u20$core..iter..traits..iterator..Iterator$GT$4next17h6d7ebc6c16cf0449E+0x2e>
  28:	e7ff      	b.n	2a <_ZN112_$LT$piet_embedded_graphics..batch..BlockIterator$LT$R$GT$$u20$as$u20$core..iter..traits..iterator..Iterator$GT$4next17h6d7ebc6c16cf0449E+0x2a>
  2a:	e052      	b.n	d2 <_ZN112_$LT$piet_embedded_graphics..batch..BlockIterator$LT$R$GT$$u20$as$u20$core..iter..traits..iterator..Iterator$GT$4next17h6d7ebc6c16cf0449E+0xd2>
c:\PineTime\pinetime-rust-mynewt\rust\piet-embedded\piet-embedded-graphics\src/batch.rs:234
            match next_row {
  2c:	defe      	udf	#254	; 0xfe
c:\PineTime\pinetime-rust-mynewt\rust\piet-embedded\piet-embedded-graphics\src/batch.rs:236
                    if self.first_row {
  2e:	981e      	ldr	r0, [sp, #120]	; 0x78
  30:	f890 0164 	ldrb.w	r0, [r0, #356]	; 0x164
  34:	07c0      	lsls	r0, r0, #31
  36:	2800      	cmp	r0, #0
  38:	d119      	bne.n	6e <_ZN112_$LT$piet_embedded_graphics..batch..BlockIterator$LT$R$GT$$u20$as$u20$core..iter..traits..iterator..Iterator$GT$4next17h6d7ebc6c16cf0449E+0x6e>
  3a:	e7ff      	b.n	3c <_ZN112_$LT$piet_embedded_graphics..batch..BlockIterator$LT$R$GT$$u20$as$u20$core..iter..traits..iterator..Iterator$GT$4next17h6d7ebc6c16cf0449E+0x3c>
c:\PineTime\pinetime-rust-mynewt\rust\piet-embedded\piet-embedded-graphics\src/batch.rs:241
                        return None;  //  No rows to group
                    }                    
                    //  Else return previous rows as block.
                    let row = PixelBlock {
                        x_left: self.x_left,
  3c:	981e      	ldr	r0, [sp, #120]	; 0x78
  3e:	f8b0 115c 	ldrh.w	r1, [r0, #348]	; 0x15c
c:\PineTime\pinetime-rust-mynewt\rust\piet-embedded\piet-embedded-graphics\src/batch.rs:242
                        x_right: self.x_right,
  42:	f8b0 215e 	ldrh.w	r2, [r0, #350]	; 0x15e
c:\PineTime\pinetime-rust-mynewt\rust\piet-embedded\piet-embedded-graphics\src/batch.rs:243
                        y_top: self.y_top,
  46:	f8b0 3160 	ldrh.w	r3, [r0, #352]	; 0x160
c:\PineTime\pinetime-rust-mynewt\rust\piet-embedded\piet-embedded-graphics\src/batch.rs:244
                        y_bottom: self.y_bottom,
  4a:	f8b0 c162 	ldrh.w	ip, [r0, #354]	; 0x162
c:\PineTime\pinetime-rust-mynewt\rust\piet-embedded\piet-embedded-graphics\src/batch.rs:245
                        colors: self.colors.clone(),
  4e:	3090      	adds	r0, #144	; 0x90
  50:	f50d 7ee2 	add.w	lr, sp, #452	; 0x1c4
  54:	901c      	str	r0, [sp, #112]	; 0x70
  56:	4670      	mov	r0, lr
  58:	f8dd e070 	ldr.w	lr, [sp, #112]	; 0x70
  5c:	911b      	str	r1, [sp, #108]	; 0x6c
  5e:	4671      	mov	r1, lr
  60:	921a      	str	r2, [sp, #104]	; 0x68
  62:	9319      	str	r3, [sp, #100]	; 0x64
  64:	f8cd c060 	str.w	ip, [sp, #96]	; 0x60
  68:	f7ff fffe 	bl	0 <_ZN70_$LT$heapless..vec..Vec$LT$T$C$N$GT$$u20$as$u20$core..clone..Clone$GT$5clone17h4d892b419e507335E>
  6c:	e003      	b.n	76 <_ZN112_$LT$piet_embedded_graphics..batch..BlockIterator$LT$R$GT$$u20$as$u20$core..iter..traits..iterator..Iterator$GT$4next17h6d7ebc6c16cf0449E+0x76>
  6e:	2000      	movs	r0, #0
c:\PineTime\pinetime-rust-mynewt\rust\piet-embedded\piet-embedded-graphics\src/batch.rs:237
                        return None;  //  No rows to group
  70:	991d      	ldr	r1, [sp, #116]	; 0x74
  72:	6008      	str	r0, [r1, #0]
  74:	e17f      	b.n	376 <_ZN112_$LT$piet_embedded_graphics..batch..BlockIterator$LT$R$GT$$u20$as$u20$core..iter..traits..iterator..Iterator$GT$4next17h6d7ebc6c16cf0449E+0x376>
c:\PineTime\pinetime-rust-mynewt\rust\piet-embedded\piet-embedded-graphics\src/batch.rs:240
                    let row = PixelBlock {
  76:	981b      	ldr	r0, [sp, #108]	; 0x6c
  78:	f8ad 01bc 	strh.w	r0, [sp, #444]	; 0x1bc
  7c:	991a      	ldr	r1, [sp, #104]	; 0x68
  7e:	f8ad 11be 	strh.w	r1, [sp, #446]	; 0x1be
  82:	9a19      	ldr	r2, [sp, #100]	; 0x64
  84:	f8ad 21c0 	strh.w	r2, [sp, #448]	; 0x1c0
  88:	9b18      	ldr	r3, [sp, #96]	; 0x60
  8a:	f8ad 31c2 	strh.w	r3, [sp, #450]	; 0x1c2
  8e:	a83c      	add	r0, sp, #240	; 0xf0
  90:	a971      	add	r1, sp, #452	; 0x1c4
  92:	22cc      	movs	r2, #204	; 0xcc
  94:	f7ff fffe 	bl	0 <__aeabi_memcpy4>
c:\PineTime\pinetime-rust-mynewt\rust\piet-embedded\piet-embedded-graphics\src/batch.rs:247
                    };
                    self.colors.clear();
  98:	981e      	ldr	r0, [sp, #120]	; 0x78
  9a:	3090      	adds	r0, #144	; 0x90
  9c:	f7ff fffe 	bl	0 <_ZN8heapless3vec16Vec$LT$T$C$N$GT$5clear17hd1207b6e81f7b78cE>
  a0:	e7ff      	b.n	a2 <_ZN112_$LT$piet_embedded_graphics..batch..BlockIterator$LT$R$GT$$u20$as$u20$core..iter..traits..iterator..Iterator$GT$4next17h6d7ebc6c16cf0449E+0xa2>
c:\PineTime\pinetime-rust-mynewt\rust\piet-embedded\piet-embedded-graphics\src/batch.rs:248
                    self.first_row = true;
  a2:	981e      	ldr	r0, [sp, #120]	; 0x78
  a4:	2101      	movs	r1, #1
  a6:	f880 1164 	strb.w	r1, [r0, #356]	; 0x164
  aa:	a8a4      	add	r0, sp, #656	; 0x290
  ac:	aa3c      	add	r2, sp, #240	; 0xf0
  ae:	23d4      	movs	r3, #212	; 0xd4
c:\PineTime\pinetime-rust-mynewt\rust\piet-embedded\piet-embedded-graphics\src/batch.rs:249
                    return Some(row);
  b0:	9017      	str	r0, [sp, #92]	; 0x5c
  b2:	9116      	str	r1, [sp, #88]	; 0x58
  b4:	4611      	mov	r1, r2
  b6:	461a      	mov	r2, r3
  b8:	9315      	str	r3, [sp, #84]	; 0x54
  ba:	f7ff fffe 	bl	0 <__aeabi_memcpy4>
  be:	981d      	ldr	r0, [sp, #116]	; 0x74
  c0:	3004      	adds	r0, #4
  c2:	9917      	ldr	r1, [sp, #92]	; 0x5c
  c4:	9a15      	ldr	r2, [sp, #84]	; 0x54
  c6:	f7ff fffe 	bl	0 <__aeabi_memcpy4>
  ca:	9816      	ldr	r0, [sp, #88]	; 0x58
  cc:	991d      	ldr	r1, [sp, #116]	; 0x74
  ce:	6008      	str	r0, [r1, #0]
  d0:	e151      	b.n	376 <_ZN112_$LT$piet_embedded_graphics..batch..BlockIterator$LT$R$GT$$u20$as$u20$core..iter..traits..iterator..Iterator$GT$4next17h6d7ebc6c16cf0449E+0x376>
  d2:	a81f      	add	r0, sp, #124	; 0x7c
c:\PineTime\pinetime-rust-mynewt\rust\piet-embedded\piet-embedded-graphics\src/batch.rs:251
                }
                Some(PixelRow { x_left, x_right, y, colors, .. }) => {  //  If there is a Pixel Row...
  d4:	1d01      	adds	r1, r0, #4
  d6:	f8bd 00e8 	ldrh.w	r0, [sp, #232]	; 0xe8
  da:	f8ad 0366 	strh.w	r0, [sp, #870]	; 0x366
  de:	f8bd 00ea 	ldrh.w	r0, [sp, #234]	; 0xea
  e2:	f8ad 0368 	strh.w	r0, [sp, #872]	; 0x368
  e6:	f8bd 00ec 	ldrh.w	r0, [sp, #236]	; 0xec
  ea:	f8ad 036a 	strh.w	r0, [sp, #874]	; 0x36a
  ee:	2000      	movs	r0, #0
  f0:	f88d 064f 	strb.w	r0, [sp, #1615]	; 0x64f
  f4:	a8db      	add	r0, sp, #876	; 0x36c
  f6:	2268      	movs	r2, #104	; 0x68
  f8:	f7ff fffe 	bl	0 <__aeabi_memcpy4>
c:\PineTime\pinetime-rust-mynewt\rust\piet-embedded\piet-embedded-graphics\src/batch.rs:253
                    //  Save the first row as the block start and handle next block.
                    if self.first_row {
  fc:	981e      	ldr	r0, [sp, #120]	; 0x78
  fe:	f890 0164 	ldrb.w	r0, [r0, #356]	; 0x164
 102:	07c0      	lsls	r0, r0, #31
 104:	2800      	cmp	r0, #0
 106:	d10e      	bne.n	126 <_ZN112_$LT$piet_embedded_graphics..batch..BlockIterator$LT$R$GT$$u20$as$u20$core..iter..traits..iterator..Iterator$GT$4next17h6d7ebc6c16cf0449E+0x126>
 108:	e7ff      	b.n	10a <_ZN112_$LT$piet_embedded_graphics..batch..BlockIterator$LT$R$GT$$u20$as$u20$core..iter..traits..iterator..Iterator$GT$4next17h6d7ebc6c16cf0449E+0x10a>
c:\PineTime\pinetime-rust-mynewt\rust\piet-embedded\piet-embedded-graphics\src/batch.rs:265
                        self.colors.extend_from_slice(&colors)
                            .expect("never");
                        continue;
                    }
                    //  If this row is adjacent to the previous row and same size, add to the block.
                    if y == self.y_bottom + 1 && x_left == self.x_left && x_right == self.x_right {                        
 10a:	f8bd 036a 	ldrh.w	r0, [sp, #874]	; 0x36a
 10e:	991e      	ldr	r1, [sp, #120]	; 0x78
 110:	f8b1 1162 	ldrh.w	r1, [r1, #354]	; 0x162
 114:	3101      	adds	r1, #1
 116:	b28a      	uxth	r2, r1
 118:	460b      	mov	r3, r1
 11a:	428a      	cmp	r2, r1
 11c:	9014      	str	r0, [sp, #80]	; 0x50
 11e:	9313      	str	r3, [sp, #76]	; 0x4c
 120:	f040 8135 	bne.w	38e <_ZN112_$LT$piet_embedded_graphics..batch..BlockIterator$LT$R$GT$$u20$as$u20$core..iter..traits..iterator..Iterator$GT$4next17h6d7ebc6c16cf0449E+0x38e>
 124:	e06e      	b.n	204 <_ZN112_$LT$piet_embedded_graphics..batch..BlockIterator$LT$R$GT$$u20$as$u20$core..iter..traits..iterator..Iterator$GT$4next17h6d7ebc6c16cf0449E+0x204>
c:\PineTime\pinetime-rust-mynewt\rust\piet-embedded\piet-embedded-graphics\src/batch.rs:254
                        self.first_row = false;
 126:	981e      	ldr	r0, [sp, #120]	; 0x78
 128:	2100      	movs	r1, #0
 12a:	f880 1164 	strb.w	r1, [r0, #356]	; 0x164
c:\PineTime\pinetime-rust-mynewt\rust\piet-embedded\piet-embedded-graphics\src/batch.rs:255
                        self.x_left = x_left;
 12e:	f8bd 0366 	ldrh.w	r0, [sp, #870]	; 0x366
 132:	991e      	ldr	r1, [sp, #120]	; 0x78
 134:	f8a1 015c 	strh.w	r0, [r1, #348]	; 0x15c
c:\PineTime\pinetime-rust-mynewt\rust\piet-embedded\piet-embedded-graphics\src/batch.rs:256
                        self.x_right = x_right;
 138:	f8bd 0368 	ldrh.w	r0, [sp, #872]	; 0x368
 13c:	991e      	ldr	r1, [sp, #120]	; 0x78
 13e:	f8a1 015e 	strh.w	r0, [r1, #350]	; 0x15e
c:\PineTime\pinetime-rust-mynewt\rust\piet-embedded\piet-embedded-graphics\src/batch.rs:257
                        self.y_top = y;
 142:	f8bd 036a 	ldrh.w	r0, [sp, #874]	; 0x36a
 146:	991e      	ldr	r1, [sp, #120]	; 0x78
 148:	f8a1 0160 	strh.w	r0, [r1, #352]	; 0x160
c:\PineTime\pinetime-rust-mynewt\rust\piet-embedded\piet-embedded-graphics\src/batch.rs:258
                        self.y_bottom = y;
 14c:	f8bd 036a 	ldrh.w	r0, [sp, #874]	; 0x36a
 150:	991e      	ldr	r1, [sp, #120]	; 0x78
 152:	f8a1 0162 	strh.w	r0, [r1, #354]	; 0x162
c:\PineTime\pinetime-rust-mynewt\rust\piet-embedded\piet-embedded-graphics\src/batch.rs:259
                        self.colors.clear();
 156:	981e      	ldr	r0, [sp, #120]	; 0x78
 158:	3090      	adds	r0, #144	; 0x90
 15a:	f7ff fffe 	bl	0 <_ZN8heapless3vec16Vec$LT$T$C$N$GT$5clear17hd1207b6e81f7b78cE>
 15e:	e7ff      	b.n	160 <_ZN112_$LT$piet_embedded_graphics..batch..BlockIterator$LT$R$GT$$u20$as$u20$core..iter..traits..iterator..Iterator$GT$4next17h6d7ebc6c16cf0449E+0x160>
c:\PineTime\pinetime-rust-mynewt\rust\piet-embedded\piet-embedded-graphics\src/batch.rs:260
                        self.colors.extend_from_slice(&colors)
 160:	981e      	ldr	r0, [sp, #120]	; 0x78
 162:	3090      	adds	r0, #144	; 0x90
 164:	a9db      	add	r1, sp, #876	; 0x36c
 166:	9012      	str	r0, [sp, #72]	; 0x48
 168:	4608      	mov	r0, r1
 16a:	f7ff fffe 	bl	0 <_ZN75_$LT$heapless..vec..Vec$LT$T$C$N$GT$$u20$as$u20$core..ops..deref..Deref$GT$5deref17h7c537d1c45e347b7E>
 16e:	9011      	str	r0, [sp, #68]	; 0x44
 170:	9110      	str	r1, [sp, #64]	; 0x40
 172:	e7ff      	b.n	174 <_ZN112_$LT$piet_embedded_graphics..batch..BlockIterator$LT$R$GT$$u20$as$u20$core..iter..traits..iterator..Iterator$GT$4next17h6d7ebc6c16cf0449E+0x174>
 174:	9812      	ldr	r0, [sp, #72]	; 0x48
 176:	9911      	ldr	r1, [sp, #68]	; 0x44
 178:	9a10      	ldr	r2, [sp, #64]	; 0x40
 17a:	f7ff fffe 	bl	0 <_ZN8heapless3vec16Vec$LT$T$C$N$GT$17extend_from_slice17h90a7ae91486b974bE>
 17e:	900f      	str	r0, [sp, #60]	; 0x3c
 180:	e7ff      	b.n	182 <_ZN112_$LT$piet_embedded_graphics..batch..BlockIterator$LT$R$GT$$u20$as$u20$core..iter..traits..iterator..Iterator$GT$4next17h6d7ebc6c16cf0449E+0x182>
 182:	980f      	ldr	r0, [sp, #60]	; 0x3c
 184:	f000 0001 	and.w	r0, r0, #1
 188:	f240 0100 	movw	r1, #0
 18c:	f2c0 0100 	movt	r1, #0
 190:	2205      	movs	r2, #5
 192:	f7ff fffe 	bl	0 <_ZN4core6result19Result$LT$T$C$E$GT$6expect17h628ea316be0f2099E>
 196:	e7ff      	b.n	198 <_ZN112_$LT$piet_embedded_graphics..batch..BlockIterator$LT$R$GT$$u20$as$u20$core..iter..traits..iterator..Iterator$GT$4next17h6d7ebc6c16cf0449E+0x198>
c:\PineTime\pinetime-rust-mynewt\rust\piet-embedded\piet-embedded-graphics\src/batch.rs:262
                        continue;
 198:	e7ff      	b.n	19a <_ZN112_$LT$piet_embedded_graphics..batch..BlockIterator$LT$R$GT$$u20$as$u20$core..iter..traits..iterator..Iterator$GT$4next17h6d7ebc6c16cf0449E+0x19a>
 19a:	a8db      	add	r0, sp, #876	; 0x36c
c:\PineTime\pinetime-rust-mynewt\rust\piet-embedded\piet-embedded-graphics\src/batch.rs:289
                    self.colors.clear();
                    self.colors.extend_from_slice(&colors)
                        .expect("never");
                    return Some(row);
                }
            }
 19c:	f7ff fffe 	bl	0 <_ZN4core3ptr18real_drop_in_place17h0a953d836c5653beE>
 1a0:	e7ff      	b.n	1a2 <_ZN112_$LT$piet_embedded_graphics..batch..BlockIterator$LT$R$GT$$u20$as$u20$core..iter..traits..iterator..Iterator$GT$4next17h6d7ebc6c16cf0449E+0x1a2>
c:\PineTime\pinetime-rust-mynewt\rust\piet-embedded\piet-embedded-graphics\src/batch.rs:290
        }
 1a2:	981f      	ldr	r0, [sp, #124]	; 0x7c
 1a4:	2801      	cmp	r0, #1
 1a6:	f000 80ea 	beq.w	37e <_ZN112_$LT$piet_embedded_graphics..batch..BlockIterator$LT$R$GT$$u20$as$u20$core..iter..traits..iterator..Iterator$GT$4next17h6d7ebc6c16cf0449E+0x37e>
 1aa:	e0ec      	b.n	386 <_ZN112_$LT$piet_embedded_graphics..batch..BlockIterator$LT$R$GT$$u20$as$u20$core..iter..traits..iterator..Iterator$GT$4next17h6d7ebc6c16cf0449E+0x386>
 1ac:	2001      	movs	r0, #1
c:\PineTime\pinetime-rust-mynewt\rust\piet-embedded\piet-embedded-graphics\src/batch.rs:265
                    if y == self.y_bottom + 1 && x_left == self.x_left && x_right == self.x_right {                        
 1ae:	f88d 03d5 	strb.w	r0, [sp, #981]	; 0x3d5
 1b2:	e00b      	b.n	1cc <_ZN112_$LT$piet_embedded_graphics..batch..BlockIterator$LT$R$GT$$u20$as$u20$core..iter..traits..iterator..Iterator$GT$4next17h6d7ebc6c16cf0449E+0x1cc>
 1b4:	2000      	movs	r0, #0
 1b6:	f88d 03d5 	strb.w	r0, [sp, #981]	; 0x3d5
 1ba:	e007      	b.n	1cc <_ZN112_$LT$piet_embedded_graphics..batch..BlockIterator$LT$R$GT$$u20$as$u20$core..iter..traits..iterator..Iterator$GT$4next17h6d7ebc6c16cf0449E+0x1cc>
 1bc:	f8bd 0368 	ldrh.w	r0, [sp, #872]	; 0x368
 1c0:	991e      	ldr	r1, [sp, #120]	; 0x78
 1c2:	f8b1 115e 	ldrh.w	r1, [r1, #350]	; 0x15e
 1c6:	4288      	cmp	r0, r1
 1c8:	d0f0      	beq.n	1ac <_ZN112_$LT$piet_embedded_graphics..batch..BlockIterator$LT$R$GT$$u20$as$u20$core..iter..traits..iterator..Iterator$GT$4next17h6d7ebc6c16cf0449E+0x1ac>
 1ca:	e7f3      	b.n	1b4 <_ZN112_$LT$piet_embedded_graphics..batch..BlockIterator$LT$R$GT$$u20$as$u20$core..iter..traits..iterator..Iterator$GT$4next17h6d7ebc6c16cf0449E+0x1b4>
 1cc:	f89d 03d5 	ldrb.w	r0, [sp, #981]	; 0x3d5
 1d0:	07c0      	lsls	r0, r0, #31
 1d2:	2800      	cmp	r0, #0
 1d4:	d11d      	bne.n	212 <_ZN112_$LT$piet_embedded_graphics..batch..BlockIterator$LT$R$GT$$u20$as$u20$core..iter..traits..iterator..Iterator$GT$4next17h6d7ebc6c16cf0449E+0x212>
 1d6:	e040      	b.n	25a <_ZN112_$LT$piet_embedded_graphics..batch..BlockIterator$LT$R$GT$$u20$as$u20$core..iter..traits..iterator..Iterator$GT$4next17h6d7ebc6c16cf0449E+0x25a>
 1d8:	2001      	movs	r0, #1
 1da:	f88d 03d6 	strb.w	r0, [sp, #982]	; 0x3d6
 1de:	e00b      	b.n	1f8 <_ZN112_$LT$piet_embedded_graphics..batch..BlockIterator$LT$R$GT$$u20$as$u20$core..iter..traits..iterator..Iterator$GT$4next17h6d7ebc6c16cf0449E+0x1f8>
 1e0:	2000      	movs	r0, #0
 1e2:	f88d 03d6 	strb.w	r0, [sp, #982]	; 0x3d6
 1e6:	e007      	b.n	1f8 <_ZN112_$LT$piet_embedded_graphics..batch..BlockIterator$LT$R$GT$$u20$as$u20$core..iter..traits..iterator..Iterator$GT$4next17h6d7ebc6c16cf0449E+0x1f8>
 1e8:	f8bd 0366 	ldrh.w	r0, [sp, #870]	; 0x366
 1ec:	991e      	ldr	r1, [sp, #120]	; 0x78
 1ee:	f8b1 115c 	ldrh.w	r1, [r1, #348]	; 0x15c
 1f2:	4288      	cmp	r0, r1
 1f4:	d0f0      	beq.n	1d8 <_ZN112_$LT$piet_embedded_graphics..batch..BlockIterator$LT$R$GT$$u20$as$u20$core..iter..traits..iterator..Iterator$GT$4next17h6d7ebc6c16cf0449E+0x1d8>
 1f6:	e7f3      	b.n	1e0 <_ZN112_$LT$piet_embedded_graphics..batch..BlockIterator$LT$R$GT$$u20$as$u20$core..iter..traits..iterator..Iterator$GT$4next17h6d7ebc6c16cf0449E+0x1e0>
 1f8:	f89d 03d6 	ldrb.w	r0, [sp, #982]	; 0x3d6
 1fc:	07c0      	lsls	r0, r0, #31
 1fe:	2800      	cmp	r0, #0
 200:	d1dc      	bne.n	1bc <_ZN112_$LT$piet_embedded_graphics..batch..BlockIterator$LT$R$GT$$u20$as$u20$core..iter..traits..iterator..Iterator$GT$4next17h6d7ebc6c16cf0449E+0x1bc>
 202:	e7d7      	b.n	1b4 <_ZN112_$LT$piet_embedded_graphics..batch..BlockIterator$LT$R$GT$$u20$as$u20$core..iter..traits..iterator..Iterator$GT$4next17h6d7ebc6c16cf0449E+0x1b4>
 204:	9813      	ldr	r0, [sp, #76]	; 0x4c
 206:	b281      	uxth	r1, r0
 208:	9a14      	ldr	r2, [sp, #80]	; 0x50
 20a:	b293      	uxth	r3, r2
 20c:	428b      	cmp	r3, r1
 20e:	d0eb      	beq.n	1e8 <_ZN112_$LT$piet_embedded_graphics..batch..BlockIterator$LT$R$GT$$u20$as$u20$core..iter..traits..iterator..Iterator$GT$4next17h6d7ebc6c16cf0449E+0x1e8>
 210:	e7e6      	b.n	1e0 <_ZN112_$LT$piet_embedded_graphics..batch..BlockIterator$LT$R$GT$$u20$as$u20$core..iter..traits..iterator..Iterator$GT$4next17h6d7ebc6c16cf0449E+0x1e0>
c:\PineTime\pinetime-rust-mynewt\rust\piet-embedded\piet-embedded-graphics\src/batch.rs:267
                        if self.colors.extend_from_slice(&colors).is_ok() {
 212:	981e      	ldr	r0, [sp, #120]	; 0x78
 214:	3090      	adds	r0, #144	; 0x90
 216:	a9db      	add	r1, sp, #876	; 0x36c
 218:	900e      	str	r0, [sp, #56]	; 0x38
 21a:	4608      	mov	r0, r1
 21c:	f7ff fffe 	bl	0 <_ZN75_$LT$heapless..vec..Vec$LT$T$C$N$GT$$u20$as$u20$core..ops..deref..Deref$GT$5deref17h7c537d1c45e347b7E>
 220:	900d      	str	r0, [sp, #52]	; 0x34
 222:	910c      	str	r1, [sp, #48]	; 0x30
 224:	e7ff      	b.n	226 <_ZN112_$LT$piet_embedded_graphics..batch..BlockIterator$LT$R$GT$$u20$as$u20$core..iter..traits..iterator..Iterator$GT$4next17h6d7ebc6c16cf0449E+0x226>
 226:	980e      	ldr	r0, [sp, #56]	; 0x38
 228:	990d      	ldr	r1, [sp, #52]	; 0x34
 22a:	9a0c      	ldr	r2, [sp, #48]	; 0x30
 22c:	f7ff fffe 	bl	0 <_ZN8heapless3vec16Vec$LT$T$C$N$GT$17extend_from_slice17h90a7ae91486b974bE>
 230:	f88d 03d7 	strb.w	r0, [sp, #983]	; 0x3d7
 234:	e7ff      	b.n	236 <_ZN112_$LT$piet_embedded_graphics..batch..BlockIterator$LT$R$GT$$u20$as$u20$core..iter..traits..iterator..Iterator$GT$4next17h6d7ebc6c16cf0449E+0x236>
 236:	f20d 30d7 	addw	r0, sp, #983	; 0x3d7
 23a:	f7ff fffe 	bl	0 <_ZN4core6result19Result$LT$T$C$E$GT$5is_ok17h37387e7395d6e92dE>
 23e:	900b      	str	r0, [sp, #44]	; 0x2c
 240:	e7ff      	b.n	242 <_ZN112_$LT$piet_embedded_graphics..batch..BlockIterator$LT$R$GT$$u20$as$u20$core..iter..traits..iterator..Iterator$GT$4next17h6d7ebc6c16cf0449E+0x242>
 242:	980b      	ldr	r0, [sp, #44]	; 0x2c
 244:	07c1      	lsls	r1, r0, #31
 246:	2900      	cmp	r1, #0
 248:	d101      	bne.n	24e <_ZN112_$LT$piet_embedded_graphics..batch..BlockIterator$LT$R$GT$$u20$as$u20$core..iter..traits..iterator..Iterator$GT$4next17h6d7ebc6c16cf0449E+0x24e>
 24a:	e7ff      	b.n	24c <_ZN112_$LT$piet_embedded_graphics..batch..BlockIterator$LT$R$GT$$u20$as$u20$core..iter..traits..iterator..Iterator$GT$4next17h6d7ebc6c16cf0449E+0x24c>
c:\PineTime\pinetime-rust-mynewt\rust\piet-embedded\piet-embedded-graphics\src/batch.rs:265
                    if y == self.y_bottom + 1 && x_left == self.x_left && x_right == self.x_right {                        
 24c:	e005      	b.n	25a <_ZN112_$LT$piet_embedded_graphics..batch..BlockIterator$LT$R$GT$$u20$as$u20$core..iter..traits..iterator..Iterator$GT$4next17h6d7ebc6c16cf0449E+0x25a>
c:\PineTime\pinetime-rust-mynewt\rust\piet-embedded\piet-embedded-graphics\src/batch.rs:268
                            self.y_bottom = y;
 24e:	f8bd 036a 	ldrh.w	r0, [sp, #874]	; 0x36a
 252:	991e      	ldr	r1, [sp, #120]	; 0x78
 254:	f8a1 0162 	strh.w	r0, [r1, #354]	; 0x162
c:\PineTime\pinetime-rust-mynewt\rust\piet-embedded\piet-embedded-graphics\src/batch.rs:269
                            continue;    
 258:	e79f      	b.n	19a <_ZN112_$LT$piet_embedded_graphics..batch..BlockIterator$LT$R$GT$$u20$as$u20$core..iter..traits..iterator..Iterator$GT$4next17h6d7ebc6c16cf0449E+0x19a>
c:\PineTime\pinetime-rust-mynewt\rust\piet-embedded\piet-embedded-graphics\src/batch.rs:274
                        x_left: self.x_left,
 25a:	981e      	ldr	r0, [sp, #120]	; 0x78
 25c:	f8b0 115c 	ldrh.w	r1, [r0, #348]	; 0x15c
c:\PineTime\pinetime-rust-mynewt\rust\piet-embedded\piet-embedded-graphics\src/batch.rs:275
                        x_right: self.x_right,
 260:	f8b0 215e 	ldrh.w	r2, [r0, #350]	; 0x15e
c:\PineTime\pinetime-rust-mynewt\rust\piet-embedded\piet-embedded-graphics\src/batch.rs:276
                        y_top: self.y_top,
 264:	f8b0 3160 	ldrh.w	r3, [r0, #352]	; 0x160
c:\PineTime\pinetime-rust-mynewt\rust\piet-embedded\piet-embedded-graphics\src/batch.rs:277
                        y_bottom: self.y_bottom,
 268:	f8b0 c162 	ldrh.w	ip, [r0, #354]	; 0x162
c:\PineTime\pinetime-rust-mynewt\rust\piet-embedded\piet-embedded-graphics\src/batch.rs:278
                        colors: self.colors.clone(),
 26c:	3090      	adds	r0, #144	; 0x90
 26e:	f20d 4eac 	addw	lr, sp, #1196	; 0x4ac
 272:	900a      	str	r0, [sp, #40]	; 0x28
 274:	4670      	mov	r0, lr
 276:	f8dd e028 	ldr.w	lr, [sp, #40]	; 0x28
 27a:	9109      	str	r1, [sp, #36]	; 0x24
 27c:	4671      	mov	r1, lr
 27e:	9208      	str	r2, [sp, #32]
 280:	9307      	str	r3, [sp, #28]
 282:	f8cd c018 	str.w	ip, [sp, #24]
 286:	f7ff fffe 	bl	0 <_ZN70_$LT$heapless..vec..Vec$LT$T$C$N$GT$$u20$as$u20$core..clone..Clone$GT$5clone17h4d892b419e507335E>
 28a:	e7ff      	b.n	28c <_ZN112_$LT$piet_embedded_graphics..batch..BlockIterator$LT$R$GT$$u20$as$u20$core..iter..traits..iterator..Iterator$GT$4next17h6d7ebc6c16cf0449E+0x28c>
c:\PineTime\pinetime-rust-mynewt\rust\piet-embedded\piet-embedded-graphics\src/batch.rs:273
                    let row = PixelBlock {
 28c:	9809      	ldr	r0, [sp, #36]	; 0x24
 28e:	f8ad 04a4 	strh.w	r0, [sp, #1188]	; 0x4a4
 292:	9908      	ldr	r1, [sp, #32]
 294:	f8ad 14a6 	strh.w	r1, [sp, #1190]	; 0x4a6
 298:	9a07      	ldr	r2, [sp, #28]
 29a:	f8ad 24a8 	strh.w	r2, [sp, #1192]	; 0x4a8
 29e:	9b06      	ldr	r3, [sp, #24]
 2a0:	f8ad 34aa 	strh.w	r3, [sp, #1194]	; 0x4aa
 2a4:	a8f6      	add	r0, sp, #984	; 0x3d8
 2a6:	f20d 41ac 	addw	r1, sp, #1196	; 0x4ac
 2aa:	22cc      	movs	r2, #204	; 0xcc
 2ac:	f7ff fffe 	bl	0 <__aeabi_memcpy4>
c:\PineTime\pinetime-rust-mynewt\rust\piet-embedded\piet-embedded-graphics\src/batch.rs:280
                    self.x_left = x_left;
 2b0:	f8bd 0366 	ldrh.w	r0, [sp, #870]	; 0x366
 2b4:	991e      	ldr	r1, [sp, #120]	; 0x78
 2b6:	f8a1 015c 	strh.w	r0, [r1, #348]	; 0x15c
c:\PineTime\pinetime-rust-mynewt\rust\piet-embedded\piet-embedded-graphics\src/batch.rs:281
                    self.x_right = x_right;
 2ba:	f8bd 0368 	ldrh.w	r0, [sp, #872]	; 0x368
 2be:	991e      	ldr	r1, [sp, #120]	; 0x78
 2c0:	f8a1 015e 	strh.w	r0, [r1, #350]	; 0x15e
c:\PineTime\pinetime-rust-mynewt\rust\piet-embedded\piet-embedded-graphics\src/batch.rs:282
                    self.y_top = y;
 2c4:	f8bd 036a 	ldrh.w	r0, [sp, #874]	; 0x36a
 2c8:	991e      	ldr	r1, [sp, #120]	; 0x78
 2ca:	f8a1 0160 	strh.w	r0, [r1, #352]	; 0x160
c:\PineTime\pinetime-rust-mynewt\rust\piet-embedded\piet-embedded-graphics\src/batch.rs:283
                    self.y_bottom = y;
 2ce:	f8bd 036a 	ldrh.w	r0, [sp, #874]	; 0x36a
 2d2:	991e      	ldr	r1, [sp, #120]	; 0x78
 2d4:	f8a1 0162 	strh.w	r0, [r1, #354]	; 0x162
c:\PineTime\pinetime-rust-mynewt\rust\piet-embedded\piet-embedded-graphics\src/batch.rs:284
                    self.colors.clear();
 2d8:	981e      	ldr	r0, [sp, #120]	; 0x78
 2da:	3090      	adds	r0, #144	; 0x90
 2dc:	f7ff fffe 	bl	0 <_ZN8heapless3vec16Vec$LT$T$C$N$GT$5clear17hd1207b6e81f7b78cE>
 2e0:	e7ff      	b.n	2e2 <_ZN112_$LT$piet_embedded_graphics..batch..BlockIterator$LT$R$GT$$u20$as$u20$core..iter..traits..iterator..Iterator$GT$4next17h6d7ebc6c16cf0449E+0x2e2>
c:\PineTime\pinetime-rust-mynewt\rust\piet-embedded\piet-embedded-graphics\src/batch.rs:285
                    self.colors.extend_from_slice(&colors)
 2e2:	981e      	ldr	r0, [sp, #120]	; 0x78
 2e4:	3090      	adds	r0, #144	; 0x90
 2e6:	a9db      	add	r1, sp, #876	; 0x36c
 2e8:	9005      	str	r0, [sp, #20]
 2ea:	4608      	mov	r0, r1
 2ec:	f7ff fffe 	bl	0 <_ZN75_$LT$heapless..vec..Vec$LT$T$C$N$GT$$u20$as$u20$core..ops..deref..Deref$GT$5deref17h7c537d1c45e347b7E>
 2f0:	9004      	str	r0, [sp, #16]
 2f2:	9103      	str	r1, [sp, #12]
 2f4:	e7ff      	b.n	2f6 <_ZN112_$LT$piet_embedded_graphics..batch..BlockIterator$LT$R$GT$$u20$as$u20$core..iter..traits..iterator..Iterator$GT$4next17h6d7ebc6c16cf0449E+0x2f6>
 2f6:	9805      	ldr	r0, [sp, #20]
 2f8:	9904      	ldr	r1, [sp, #16]
 2fa:	9a03      	ldr	r2, [sp, #12]
 2fc:	f7ff fffe 	bl	0 <_ZN8heapless3vec16Vec$LT$T$C$N$GT$17extend_from_slice17h90a7ae91486b974bE>
 300:	9002      	str	r0, [sp, #8]
 302:	e7ff      	b.n	304 <_ZN112_$LT$piet_embedded_graphics..batch..BlockIterator$LT$R$GT$$u20$as$u20$core..iter..traits..iterator..Iterator$GT$4next17h6d7ebc6c16cf0449E+0x304>
 304:	9802      	ldr	r0, [sp, #8]
 306:	f000 0001 	and.w	r0, r0, #1
 30a:	f240 0100 	movw	r1, #0
 30e:	f2c0 0100 	movt	r1, #0
 312:	2205      	movs	r2, #5
 314:	f7ff fffe 	bl	0 <_ZN4core6result19Result$LT$T$C$E$GT$6expect17h628ea316be0f2099E>
 318:	e7ff      	b.n	31a <_ZN112_$LT$piet_embedded_graphics..batch..BlockIterator$LT$R$GT$$u20$as$u20$core..iter..traits..iterator..Iterator$GT$4next17h6d7ebc6c16cf0449E+0x31a>
 31a:	f50d 60af 	add.w	r0, sp, #1400	; 0x578
 31e:	a9f6      	add	r1, sp, #984	; 0x3d8
 320:	22d4      	movs	r2, #212	; 0xd4
c:\PineTime\pinetime-rust-mynewt\rust\piet-embedded\piet-embedded-graphics\src/batch.rs:287
                    return Some(row);
 322:	9001      	str	r0, [sp, #4]
 324:	9200      	str	r2, [sp, #0]
 326:	f7ff fffe 	bl	0 <__aeabi_memcpy4>
 32a:	981d      	ldr	r0, [sp, #116]	; 0x74
 32c:	3004      	adds	r0, #4
 32e:	9901      	ldr	r1, [sp, #4]
 330:	9a00      	ldr	r2, [sp, #0]
 332:	f7ff fffe 	bl	0 <__aeabi_memcpy4>
 336:	2001      	movs	r0, #1
 338:	991d      	ldr	r1, [sp, #116]	; 0x74
 33a:	6008      	str	r0, [r1, #0]
 33c:	a8db      	add	r0, sp, #876	; 0x36c
c:\PineTime\pinetime-rust-mynewt\rust\piet-embedded\piet-embedded-graphics\src/batch.rs:289
            }
 33e:	f7ff fffe 	bl	0 <_ZN4core3ptr18real_drop_in_place17h0a953d836c5653beE>
 342:	e7ff      	b.n	344 <_ZN112_$LT$piet_embedded_graphics..batch..BlockIterator$LT$R$GT$$u20$as$u20$core..iter..traits..iterator..Iterator$GT$4next17h6d7ebc6c16cf0449E+0x344>
c:\PineTime\pinetime-rust-mynewt\rust\piet-embedded\piet-embedded-graphics\src/batch.rs:287
                    return Some(row);
 344:	e017      	b.n	376 <_ZN112_$LT$piet_embedded_graphics..batch..BlockIterator$LT$R$GT$$u20$as$u20$core..iter..traits..iterator..Iterator$GT$4next17h6d7ebc6c16cf0449E+0x376>
 346:	2000      	movs	r0, #0
c:\PineTime\pinetime-rust-mynewt\rust\piet-embedded\piet-embedded-graphics\src/batch.rs:290
        }
 348:	f88d 064f 	strb.w	r0, [sp, #1615]	; 0x64f
c:\PineTime\pinetime-rust-mynewt\rust\piet-embedded\piet-embedded-graphics\src/batch.rs:291
    }
 34c:	f50d 6dca 	add.w	sp, sp, #1616	; 0x650
 350:	bd80      	pop	{r7, pc}
c:\PineTime\pinetime-rust-mynewt\rust\piet-embedded\piet-embedded-graphics\src/batch.rs:290
        }
 352:	f89d 064f 	ldrb.w	r0, [sp, #1615]	; 0x64f
 356:	07c0      	lsls	r0, r0, #31
 358:	2800      	cmp	r0, #0
 35a:	d0f4      	beq.n	346 <_ZN112_$LT$piet_embedded_graphics..batch..BlockIterator$LT$R$GT$$u20$as$u20$core..iter..traits..iterator..Iterator$GT$4next17h6d7ebc6c16cf0449E+0x346>
 35c:	e7ff      	b.n	35e <_ZN112_$LT$piet_embedded_graphics..batch..BlockIterator$LT$R$GT$$u20$as$u20$core..iter..traits..iterator..Iterator$GT$4next17h6d7ebc6c16cf0449E+0x35e>
 35e:	2000      	movs	r0, #0
 360:	f88d 064f 	strb.w	r0, [sp, #1615]	; 0x64f
 364:	a81f      	add	r0, sp, #124	; 0x7c
 366:	3004      	adds	r0, #4
 368:	f7ff fffe 	bl	0 <_ZN4core3ptr18real_drop_in_place17h0a953d836c5653beE>
 36c:	e7eb      	b.n	346 <_ZN112_$LT$piet_embedded_graphics..batch..BlockIterator$LT$R$GT$$u20$as$u20$core..iter..traits..iterator..Iterator$GT$4next17h6d7ebc6c16cf0449E+0x346>
 36e:	a81f      	add	r0, sp, #124	; 0x7c
 370:	f7ff fffe 	bl	0 <_ZN4core3ptr18real_drop_in_place17hd1f8190c506e115bE>
 374:	e7e7      	b.n	346 <_ZN112_$LT$piet_embedded_graphics..batch..BlockIterator$LT$R$GT$$u20$as$u20$core..iter..traits..iterator..Iterator$GT$4next17h6d7ebc6c16cf0449E+0x346>
 376:	981f      	ldr	r0, [sp, #124]	; 0x7c
 378:	2801      	cmp	r0, #1
 37a:	d0ea      	beq.n	352 <_ZN112_$LT$piet_embedded_graphics..batch..BlockIterator$LT$R$GT$$u20$as$u20$core..iter..traits..iterator..Iterator$GT$4next17h6d7ebc6c16cf0449E+0x352>
 37c:	e7f7      	b.n	36e <_ZN112_$LT$piet_embedded_graphics..batch..BlockIterator$LT$R$GT$$u20$as$u20$core..iter..traits..iterator..Iterator$GT$4next17h6d7ebc6c16cf0449E+0x36e>
 37e:	2000      	movs	r0, #0
 380:	f88d 064f 	strb.w	r0, [sp, #1615]	; 0x64f
c:\PineTime\pinetime-rust-mynewt\rust\piet-embedded\piet-embedded-graphics\src/batch.rs:262
                        continue;
 384:	e645      	b.n	12 <_ZN112_$LT$piet_embedded_graphics..batch..BlockIterator$LT$R$GT$$u20$as$u20$core..iter..traits..iterator..Iterator$GT$4next17h6d7ebc6c16cf0449E+0x12>
 386:	a81f      	add	r0, sp, #124	; 0x7c
c:\PineTime\pinetime-rust-mynewt\rust\piet-embedded\piet-embedded-graphics\src/batch.rs:290
        }
 388:	f7ff fffe 	bl	0 <_ZN4core3ptr18real_drop_in_place17hd1f8190c506e115bE>
 38c:	e7f7      	b.n	fffffff2 <_ZN112_$LT$piet_embedded_graphics..batch..BlockIterator$LT$R$GT$$u20$as$u20$core..iter..traits..iterator..Iterator$GT$4next17h6d7ebc6c16cf0449E+0xfffffff2>
c:\PineTime\pinetime-rust-mynewt\rust\piet-embedded\piet-embedded-graphics\src/batch.rs:265
                    if y == self.y_bottom + 1 && x_left == self.x_left && x_right == self.x_right {                        
 38e:	f240 0000 	movw	r0, #0
 392:	f2c0 0000 	movt	r0, #0
 396:	f240 0200 	movw	r2, #0
 39a:	f2c0 0200 	movt	r2, #0
 39e:	211c      	movs	r1, #28
 3a0:	f7ff fffe 	bl	0 <_ZN4core9panicking5panic17hfdd0eecc44a682f8E>
 3a4:	defe      	udf	#254	; 0xfe

Disassembly of section .text._ZN22piet_embedded_graphics5batch11draw_blocks17h0f62937d950720e2E:

00000000 <_ZN22piet_embedded_graphics5batch11draw_blocks17h0f62937d950720e2E>:
_ZN22piet_embedded_graphics5batch11draw_blocks17h0f62937d950720e2E():
c:\PineTime\pinetime-rust-mynewt\rust\piet-embedded\piet-embedded-graphics\src/batch.rs:89
pub fn draw_blocks<SPI, DC, RST, T>(display: &mut ST7735<SPI, DC, RST>, item_pixels: T) -> Result<(),()>
   0:	b570      	push	{r4, r5, r6, lr}
   2:	f5ad 6d46 	sub.w	sp, sp, #3168	; 0xc60
   6:	9010      	str	r0, [sp, #64]	; 0x40
   8:	a81a      	add	r0, sp, #104	; 0x68
c:\PineTime\pinetime-rust-mynewt\rust\piet-embedded\piet-embedded-graphics\src/batch.rs:96
    let pixels = item_pixels.into_iter();
   a:	4602      	mov	r2, r0
   c:	e891 5078 	ldmia.w	r1, {r3, r4, r5, r6, ip, lr}
  10:	e882 5078 	stmia.w	r2, {r3, r4, r5, r6, ip, lr}
  14:	a912      	add	r1, sp, #72	; 0x48
  16:	900f      	str	r0, [sp, #60]	; 0x3c
  18:	4608      	mov	r0, r1
  1a:	990f      	ldr	r1, [sp, #60]	; 0x3c
  1c:	f7ff fffe 	bl	0 <_ZN116_$LT$embedded_graphics..primitives..circle..Circle$LT$C$GT$$u20$as$u20$core..iter..traits..collect..IntoIterator$GT$9into_iter17h0f12e0e052eb0b2dE>
  20:	e7ff      	b.n	22 <_ZN22piet_embedded_graphics5batch11draw_blocks17h0f62937d950720e2E+0x22>
  22:	a812      	add	r0, sp, #72	; 0x48
  24:	a944      	add	r1, sp, #272	; 0x110
c:\PineTime\pinetime-rust-mynewt\rust\piet-embedded\piet-embedded-graphics\src/batch.rs:98
    let rows = to_rows(pixels);
  26:	460a      	mov	r2, r1
  28:	e8b0 5018 	ldmia.w	r0!, {r3, r4, ip, lr}
  2c:	e8a2 5018 	stmia.w	r2!, {r3, r4, ip, lr}
  30:	e890 5018 	ldmia.w	r0, {r3, r4, ip, lr}
  34:	e882 5018 	stmia.w	r2, {r3, r4, ip, lr}
  38:	a820      	add	r0, sp, #128	; 0x80
  3a:	f7ff fffe 	bl	0 <_ZN22piet_embedded_graphics5batch11draw_blocks17h0f62937d950720e2E>
  3e:	e7ff      	b.n	40 <_ZN22piet_embedded_graphics5batch11draw_blocks17h0f62937d950720e2E+0x40>
  40:	a8a6      	add	r0, sp, #664	; 0x298
  42:	a920      	add	r1, sp, #128	; 0x80
  44:	2290      	movs	r2, #144	; 0x90
c:\PineTime\pinetime-rust-mynewt\rust\piet-embedded\piet-embedded-graphics\src/batch.rs:100
    let blocks = to_blocks(rows);
  46:	900e      	str	r0, [sp, #56]	; 0x38
  48:	f7ff fffe 	bl	0 <__aeabi_memcpy4>
  4c:	a84c      	add	r0, sp, #304	; 0x130
  4e:	990e      	ldr	r1, [sp, #56]	; 0x38
  50:	f7ff fffe 	bl	0 <_ZN22piet_embedded_graphics5batch11draw_blocks17h0f62937d950720e2E>
  54:	e7ff      	b.n	56 <_ZN22piet_embedded_graphics5batch11draw_blocks17h0f62937d950720e2E+0x56>
  56:	f50d 6092 	add.w	r0, sp, #1168	; 0x490
  5a:	a94c      	add	r1, sp, #304	; 0x130
  5c:	f44f 72b4 	mov.w	r2, #360	; 0x168
c:\PineTime\pinetime-rust-mynewt\rust\piet-embedded\piet-embedded-graphics\src/batch.rs:102
    for PixelBlock { x_left, x_right, y_top, y_bottom, colors, .. } in blocks {
  60:	900d      	str	r0, [sp, #52]	; 0x34
  62:	f7ff fffe 	bl	0 <__aeabi_memcpy4>
  66:	a8ca      	add	r0, sp, #808	; 0x328
  68:	990d      	ldr	r1, [sp, #52]	; 0x34
  6a:	f7ff fffe 	bl	0 <_ZN22piet_embedded_graphics5batch11draw_blocks17h0f62937d950720e2E>
  6e:	e7ff      	b.n	70 <_ZN22piet_embedded_graphics5batch11draw_blocks17h0f62937d950720e2E+0x70>
  70:	f50d 60bf 	add.w	r0, sp, #1528	; 0x5f8
  74:	a9ca      	add	r1, sp, #808	; 0x328
  76:	f44f 72b4 	mov.w	r2, #360	; 0x168
  7a:	f7ff fffe 	bl	0 <__aeabi_memcpy4>
  7e:	e7ff      	b.n	80 <_ZN22piet_embedded_graphics5batch11draw_blocks17h0f62937d950720e2E+0x80>
  80:	f60d 0034 	addw	r0, sp, #2100	; 0x834
  84:	f50d 61bf 	add.w	r1, sp, #1528	; 0x5f8
  88:	f7ff fffe 	bl	0 <_ZN22piet_embedded_graphics5batch11draw_blocks17h0f62937d950720e2E>
  8c:	e7ff      	b.n	8e <_ZN22piet_embedded_graphics5batch11draw_blocks17h0f62937d950720e2E+0x8e>
  8e:	f8dd 0834 	ldr.w	r0, [sp, #2100]	; 0x834
  92:	2800      	cmp	r0, #0
  94:	d001      	beq.n	9a <_ZN22piet_embedded_graphics5batch11draw_blocks17h0f62937d950720e2E+0x9a>
  96:	e7ff      	b.n	98 <_ZN22piet_embedded_graphics5batch11draw_blocks17h0f62937d950720e2E+0x98>
  98:	e005      	b.n	a6 <_ZN22piet_embedded_graphics5batch11draw_blocks17h0f62937d950720e2E+0xa6>
  9a:	f60d 0034 	addw	r0, sp, #2100	; 0x834
  9e:	f7ff fffe 	bl	0 <_ZN4core3ptr18real_drop_in_place17h7705f424901406b7E>
  a2:	e01c      	b.n	de <_ZN22piet_embedded_graphics5batch11draw_blocks17h0f62937d950720e2E+0xde>
  a4:	defe      	udf	#254	; 0xfe
  a6:	f60d 0034 	addw	r0, sp, #2100	; 0x834
  aa:	1d01      	adds	r1, r0, #4
  ac:	f60d 100c 	addw	r0, sp, #2316	; 0x90c
  b0:	22d4      	movs	r2, #212	; 0xd4
  b2:	900c      	str	r0, [sp, #48]	; 0x30
  b4:	920b      	str	r2, [sp, #44]	; 0x2c
  b6:	f7ff fffe 	bl	0 <__aeabi_memcpy4>
  ba:	f50d 601e 	add.w	r0, sp, #2528	; 0x9e0
  be:	900a      	str	r0, [sp, #40]	; 0x28
  c0:	990c      	ldr	r1, [sp, #48]	; 0x30
  c2:	9a0b      	ldr	r2, [sp, #44]	; 0x2c
  c4:	f7ff fffe 	bl	0 <__aeabi_memcpy4>
  c8:	f50d 60ec 	add.w	r0, sp, #1888	; 0x760
  cc:	990a      	ldr	r1, [sp, #40]	; 0x28
  ce:	9a0b      	ldr	r2, [sp, #44]	; 0x2c
  d0:	f7ff fffe 	bl	0 <__aeabi_memcpy4>
  d4:	f8dd 0834 	ldr.w	r0, [sp, #2100]	; 0x834
  d8:	2801      	cmp	r0, #1
  da:	d02c      	beq.n	136 <_ZN22piet_embedded_graphics5batch11draw_blocks17h0f62937d950720e2E+0x136>
  dc:	e06c      	b.n	1b8 <_ZN22piet_embedded_graphics5batch11draw_blocks17h0f62937d950720e2E+0x1b8>
  de:	f50d 60bf 	add.w	r0, sp, #1528	; 0x5f8
c:\PineTime\pinetime-rust-mynewt\rust\piet-embedded\piet-embedded-graphics\src/batch.rs:116
    }
  e2:	f7ff fffe 	bl	0 <_ZN4core3ptr18real_drop_in_place17h74d1def115ce632eE>
  e6:	e022      	b.n	12e <_ZN22piet_embedded_graphics5batch11draw_blocks17h0f62937d950720e2E+0x12e>
c:\PineTime\pinetime-rust-mynewt\rust\piet-embedded\piet-embedded-graphics\src/batch.rs:104
        display.set_pixels(
  e8:	f89d 0b8b 	ldrb.w	r0, [sp, #2955]	; 0xb8b
  ec:	f7ff fffe 	bl	0 <_ZN73_$LT$core..result..Result$LT$T$C$E$GT$$u20$as$u20$core..ops..try..Try$GT$11into_result17h6080547b3bb225c9E>
  f0:	f88d 0b8a 	strb.w	r0, [sp, #2954]	; 0xb8a
  f4:	e7ff      	b.n	f6 <_ZN22piet_embedded_graphics5batch11draw_blocks17h0f62937d950720e2E+0xf6>
c:\PineTime\pinetime-rust-mynewt\rust\piet-embedded\piet-embedded-graphics\src/batch.rs:109
            colors) ? ;
  f6:	f89d 0b8a 	ldrb.w	r0, [sp, #2954]	; 0xb8a
  fa:	07c1      	lsls	r1, r0, #31
  fc:	2900      	cmp	r1, #0
  fe:	d015      	beq.n	12c <_ZN22piet_embedded_graphics5batch11draw_blocks17h0f62937d950720e2E+0x12c>
 100:	e7ff      	b.n	102 <_ZN22piet_embedded_graphics5batch11draw_blocks17h0f62937d950720e2E+0x102>
 102:	e000      	b.n	106 <_ZN22piet_embedded_graphics5batch11draw_blocks17h0f62937d950720e2E+0x106>
c:\PineTime\pinetime-rust-mynewt\rust\piet-embedded\piet-embedded-graphics\src/batch.rs:104
        display.set_pixels(
 104:	defe      	udf	#254	; 0xfe
c:\PineTime\pinetime-rust-mynewt\rust\piet-embedded\piet-embedded-graphics\src/batch.rs:109
            colors) ? ;
 106:	f7ff fffe 	bl	0 <_ZN50_$LT$T$u20$as$u20$core..convert..From$LT$T$GT$$GT$4from17ha31222aae56585dcE>
 10a:	e004      	b.n	116 <_ZN22piet_embedded_graphics5batch11draw_blocks17h0f62937d950720e2E+0x116>
c:\PineTime\pinetime-rust-mynewt\rust\piet-embedded\piet-embedded-graphics\src/batch.rs:118
}
 10c:	f89d 0047 	ldrb.w	r0, [sp, #71]	; 0x47
 110:	f50d 6d46 	add.w	sp, sp, #3168	; 0xc60
 114:	bd70      	pop	{r4, r5, r6, pc}
c:\PineTime\pinetime-rust-mynewt\rust\piet-embedded\piet-embedded-graphics\src/batch.rs:109
            colors) ? ;
 116:	f7ff fffe 	bl	0 <_ZN73_$LT$core..result..Result$LT$T$C$E$GT$$u20$as$u20$core..ops..try..Try$GT$10from_error17hffcf477f632200deE>
 11a:	f88d 0047 	strb.w	r0, [sp, #71]	; 0x47
 11e:	e7ff      	b.n	120 <_ZN22piet_embedded_graphics5batch11draw_blocks17h0f62937d950720e2E+0x120>
 120:	f50d 60bf 	add.w	r0, sp, #1528	; 0x5f8
c:\PineTime\pinetime-rust-mynewt\rust\piet-embedded\piet-embedded-graphics\src/batch.rs:116
    }
 124:	f7ff fffe 	bl	0 <_ZN4core3ptr18real_drop_in_place17h74d1def115ce632eE>
 128:	e7ff      	b.n	12a <_ZN22piet_embedded_graphics5batch11draw_blocks17h0f62937d950720e2E+0x12a>
c:\PineTime\pinetime-rust-mynewt\rust\piet-embedded\piet-embedded-graphics\src/batch.rs:118
}
 12a:	e7ef      	b.n	10c <_ZN22piet_embedded_graphics5batch11draw_blocks17h0f62937d950720e2E+0x10c>
c:\PineTime\pinetime-rust-mynewt\rust\piet-embedded\piet-embedded-graphics\src/batch.rs:102
    for PixelBlock { x_left, x_right, y_top, y_bottom, colors, .. } in blocks {
 12c:	e7a8      	b.n	80 <_ZN22piet_embedded_graphics5batch11draw_blocks17h0f62937d950720e2E+0x80>
 12e:	2000      	movs	r0, #0
c:\PineTime\pinetime-rust-mynewt\rust\piet-embedded\piet-embedded-graphics\src/batch.rs:117
    Ok(())
 130:	f88d 0047 	strb.w	r0, [sp, #71]	; 0x47
c:\PineTime\pinetime-rust-mynewt\rust\piet-embedded\piet-embedded-graphics\src/batch.rs:118
}
 134:	e7ea      	b.n	10c <_ZN22piet_embedded_graphics5batch11draw_blocks17h0f62937d950720e2E+0x10c>
c:\PineTime\pinetime-rust-mynewt\rust\piet-embedded\piet-embedded-graphics\src/batch.rs:102
    for PixelBlock { x_left, x_right, y_top, y_bottom, colors, .. } in blocks {
 136:	f8bd 082c 	ldrh.w	r0, [sp, #2092]	; 0x82c
 13a:	f8ad 0ab4 	strh.w	r0, [sp, #2740]	; 0xab4
 13e:	f8bd 082e 	ldrh.w	r0, [sp, #2094]	; 0x82e
 142:	f8ad 0ab6 	strh.w	r0, [sp, #2742]	; 0xab6
 146:	f8bd 0830 	ldrh.w	r0, [sp, #2096]	; 0x830
 14a:	f8ad 0ab8 	strh.w	r0, [sp, #2744]	; 0xab8
 14e:	f8bd 0832 	ldrh.w	r0, [sp, #2098]	; 0x832
 152:	f8ad 0aba 	strh.w	r0, [sp, #2746]	; 0xaba
 156:	f60d 20bc 	addw	r0, sp, #2748	; 0xabc
 15a:	f50d 61ec 	add.w	r1, sp, #1888	; 0x760
 15e:	22cc      	movs	r2, #204	; 0xcc
 160:	9009      	str	r0, [sp, #36]	; 0x24
 162:	9208      	str	r2, [sp, #32]
 164:	f7ff fffe 	bl	0 <__aeabi_memcpy4>
c:\PineTime\pinetime-rust-mynewt\rust\piet-embedded\piet-embedded-graphics\src/batch.rs:104
        display.set_pixels(
 168:	9810      	ldr	r0, [sp, #64]	; 0x40
 16a:	f8bd 3ab6 	ldrh.w	r3, [sp, #2742]	; 0xab6
 16e:	f8bd 2ab8 	ldrh.w	r2, [sp, #2744]	; 0xab8
 172:	f8bd 1ab4 	ldrh.w	r1, [sp, #2740]	; 0xab4
 176:	f8bd caba 	ldrh.w	ip, [sp, #2746]	; 0xaba
 17a:	f60d 3e8c 	addw	lr, sp, #2956	; 0xb8c
c:\PineTime\pinetime-rust-mynewt\rust\piet-embedded\piet-embedded-graphics\src/batch.rs:109
            colors) ? ;
 17e:	9007      	str	r0, [sp, #28]
 180:	4670      	mov	r0, lr
 182:	9c09      	ldr	r4, [sp, #36]	; 0x24
 184:	9106      	str	r1, [sp, #24]
 186:	4621      	mov	r1, r4
 188:	9d08      	ldr	r5, [sp, #32]
 18a:	9205      	str	r2, [sp, #20]
 18c:	462a      	mov	r2, r5
 18e:	9304      	str	r3, [sp, #16]
 190:	f8cd c00c 	str.w	ip, [sp, #12]
 194:	f8cd e008 	str.w	lr, [sp, #8]
 198:	f7ff fffe 	bl	0 <__aeabi_memcpy4>
c:\PineTime\pinetime-rust-mynewt\rust\piet-embedded\piet-embedded-graphics\src/batch.rs:104
        display.set_pixels(
 19c:	4668      	mov	r0, sp
 19e:	9902      	ldr	r1, [sp, #8]
 1a0:	6041      	str	r1, [r0, #4]
 1a2:	9a03      	ldr	r2, [sp, #12]
 1a4:	6002      	str	r2, [r0, #0]
 1a6:	9807      	ldr	r0, [sp, #28]
 1a8:	9906      	ldr	r1, [sp, #24]
 1aa:	9a05      	ldr	r2, [sp, #20]
 1ac:	9b04      	ldr	r3, [sp, #16]
 1ae:	f7ff fffe 	bl	0 <_ZN10st7735_lcd28ST7735$LT$SPI$C$DC$C$RST$GT$10set_pixels17h033eb41c68c14138E>
 1b2:	f88d 0b8b 	strb.w	r0, [sp, #2955]	; 0xb8b
 1b6:	e797      	b.n	e8 <_ZN22piet_embedded_graphics5batch11draw_blocks17h0f62937d950720e2E+0xe8>
 1b8:	f60d 0034 	addw	r0, sp, #2100	; 0x834
c:\PineTime\pinetime-rust-mynewt\rust\piet-embedded\piet-embedded-graphics\src/batch.rs:102
    for PixelBlock { x_left, x_right, y_top, y_bottom, colors, .. } in blocks {
 1bc:	f7ff fffe 	bl	0 <_ZN4core3ptr18real_drop_in_place17h7705f424901406b7E>
 1c0:	e7b9      	b.n	136 <_ZN22piet_embedded_graphics5batch11draw_blocks17h0f62937d950720e2E+0x136>

Disassembly of section .text._ZN22piet_embedded_graphics5batch7to_rows17h805810457c89a051E:

00000000 <_ZN22piet_embedded_graphics5batch7to_rows17h805810457c89a051E>:
_ZN22piet_embedded_graphics5batch7to_rows17h805810457c89a051E():
c:\PineTime\pinetime-rust-mynewt\rust\piet-embedded\piet-embedded-graphics\src/batch.rs:122
fn to_rows<P>(pixels: P) -> RowIterator<P>
   0:	b510      	push	{r4, lr}
   2:	b0a4      	sub	sp, #144	; 0x90
   4:	aa02      	add	r2, sp, #8
c:\PineTime\pinetime-rust-mynewt\rust\piet-embedded\piet-embedded-graphics\src/batch.rs:126
        pixels,
   6:	e8b1 5018 	ldmia.w	r1!, {r3, r4, ip, lr}
   a:	e8a2 5018 	stmia.w	r2!, {r3, r4, ip, lr}
   e:	e891 5018 	ldmia.w	r1, {r3, r4, ip, lr}
  12:	e882 5018 	stmia.w	r2, {r3, r4, ip, lr}
  16:	a90a      	add	r1, sp, #40	; 0x28
c:\PineTime\pinetime-rust-mynewt\rust\piet-embedded\piet-embedded-graphics\src/batch.rs:130
        colors: RowColors::new(),
  18:	9001      	str	r0, [sp, #4]
  1a:	4608      	mov	r0, r1
  1c:	f7ff fffe 	bl	0 <_ZN8heapless3vec16Vec$LT$T$C$N$GT$3new17he8dd1043f24661e1E>
  20:	e7ff      	b.n	22 <_ZN22piet_embedded_graphics5batch7to_rows17h805810457c89a051E+0x22>
  22:	a802      	add	r0, sp, #8
c:\PineTime\pinetime-rust-mynewt\rust\piet-embedded\piet-embedded-graphics\src/batch.rs:125
    RowIterator::<P> {
  24:	9901      	ldr	r1, [sp, #4]
  26:	e8b0 500c 	ldmia.w	r0!, {r2, r3, ip, lr}
  2a:	e8a1 500c 	stmia.w	r1!, {r2, r3, ip, lr}
  2e:	e890 500c 	ldmia.w	r0, {r2, r3, ip, lr}
  32:	e881 500c 	stmia.w	r1, {r2, r3, ip, lr}
  36:	2000      	movs	r0, #0
  38:	9901      	ldr	r1, [sp, #4]
  3a:	f8a1 0088 	strh.w	r0, [r1, #136]	; 0x88
  3e:	f8a1 008a 	strh.w	r0, [r1, #138]	; 0x8a
  42:	f8a1 008c 	strh.w	r0, [r1, #140]	; 0x8c
  46:	f101 0020 	add.w	r0, r1, #32
  4a:	a90a      	add	r1, sp, #40	; 0x28
  4c:	2268      	movs	r2, #104	; 0x68
  4e:	f7ff fffe 	bl	0 <__aeabi_memcpy4>
  52:	2001      	movs	r0, #1
  54:	9901      	ldr	r1, [sp, #4]
  56:	f881 008e 	strb.w	r0, [r1, #142]	; 0x8e
c:\PineTime\pinetime-rust-mynewt\rust\piet-embedded\piet-embedded-graphics\src/batch.rs:133
}
  5a:	b024      	add	sp, #144	; 0x90
  5c:	bd10      	pop	{r4, pc}

Disassembly of section .text._ZN22piet_embedded_graphics5batch9to_blocks17h21dc045e9abdcbcfE:

00000000 <_ZN22piet_embedded_graphics5batch9to_blocks17h21dc045e9abdcbcfE>:
_ZN22piet_embedded_graphics5batch9to_blocks17h21dc045e9abdcbcfE():
c:\PineTime\pinetime-rust-mynewt\rust\piet-embedded\piet-embedded-graphics\src/batch.rs:137
fn to_blocks<R>(rows: R) -> BlockIterator<R>
   0:	b580      	push	{r7, lr}
   2:	b0d8      	sub	sp, #352	; 0x160
   4:	aa01      	add	r2, sp, #4
   6:	2390      	movs	r3, #144	; 0x90
c:\PineTime\pinetime-rust-mynewt\rust\piet-embedded\piet-embedded-graphics\src/batch.rs:141
        rows,
   8:	9000      	str	r0, [sp, #0]
   a:	4610      	mov	r0, r2
   c:	461a      	mov	r2, r3
   e:	f7ff fffe 	bl	0 <__aeabi_memcpy4>
  12:	a825      	add	r0, sp, #148	; 0x94
c:\PineTime\pinetime-rust-mynewt\rust\piet-embedded\piet-embedded-graphics\src/batch.rs:146
        colors: BlockColors::new(),
  14:	f7ff fffe 	bl	0 <_ZN8heapless3vec16Vec$LT$T$C$N$GT$3new17h21f2fbeed2fdb35aE>
  18:	e7ff      	b.n	1a <_ZN22piet_embedded_graphics5batch9to_blocks17h21dc045e9abdcbcfE+0x1a>
  1a:	a901      	add	r1, sp, #4
  1c:	2290      	movs	r2, #144	; 0x90
c:\PineTime\pinetime-rust-mynewt\rust\piet-embedded\piet-embedded-graphics\src/batch.rs:140
    BlockIterator::<R> {
  1e:	9800      	ldr	r0, [sp, #0]
  20:	f7ff fffe 	bl	0 <__aeabi_memcpy4>
  24:	2000      	movs	r0, #0
  26:	9900      	ldr	r1, [sp, #0]
  28:	f8a1 015c 	strh.w	r0, [r1, #348]	; 0x15c
  2c:	f8a1 015e 	strh.w	r0, [r1, #350]	; 0x15e
  30:	f8a1 0160 	strh.w	r0, [r1, #352]	; 0x160
  34:	f8a1 0162 	strh.w	r0, [r1, #354]	; 0x162
  38:	f101 0090 	add.w	r0, r1, #144	; 0x90
  3c:	a925      	add	r1, sp, #148	; 0x94
  3e:	22cc      	movs	r2, #204	; 0xcc
  40:	f7ff fffe 	bl	0 <__aeabi_memcpy4>
  44:	2001      	movs	r0, #1
  46:	9900      	ldr	r1, [sp, #0]
  48:	f881 0164 	strb.w	r0, [r1, #356]	; 0x164
c:\PineTime\pinetime-rust-mynewt\rust\piet-embedded\piet-embedded-graphics\src/batch.rs:149
}    
  4c:	b058      	add	sp, #352	; 0x160
  4e:	bd80      	pop	{r7, pc}

Disassembly of section .text._ZN63_$LT$I$u20$as$u20$core..iter..traits..collect..IntoIterator$GT$9into_iter17ha19f9e6918009fe8E:

00000000 <_ZN63_$LT$I$u20$as$u20$core..iter..traits..collect..IntoIterator$GT$9into_iter17ha19f9e6918009fe8E>:
_ZN63_$LT$I$u20$as$u20$core..iter..traits..collect..IntoIterator$GT$9into_iter17ha19f9e6918009fe8E():
/rustc/412f43ac5b4ae8c3599e71c6972112e9be4758fa/src/libcore/iter/traits/collect.rs:247
   0:	b580      	push	{r7, lr}
   2:	f44f 72b4 	mov.w	r2, #360	; 0x168
/rustc/412f43ac5b4ae8c3599e71c6972112e9be4758fa/src/libcore/iter/traits/collect.rs:248
   6:	f7ff fffe 	bl	0 <__aeabi_memcpy4>
/rustc/412f43ac5b4ae8c3599e71c6972112e9be4758fa/src/libcore/iter/traits/collect.rs:249
   a:	bd80      	pop	{r7, pc}

app-2bc386860c9913e9.3bs5n05p5jx0gf18.rcgu.o:     file format elf32-littlearm

SYMBOL TABLE:
00000000 l    df *ABS*	00000000 3bs5n05p5jx0gf18
00000108 l       .debug_str	00000000 
00000243 l       .debug_str	00000000 
000001fa l       .debug_str	00000000 
00000000 l       .debug_str	00000000 
00000041 l       .debug_str	00000000 
00000055 l       .debug_str	00000000 
00000076 l       .debug_str	00000000 
0000008d l       .debug_str	00000000 
00000095 l       .debug_str	00000000 
000000a7 l       .debug_str	00000000 
000000b2 l       .debug_str	00000000 
000000b9 l       .debug_str	00000000 
000000c0 l       .debug_str	00000000 
000000c6 l       .debug_str	00000000 
000000d5 l       .debug_str	00000000 
000000d9 l       .debug_str	00000000 
000000dd l       .debug_str	00000000 
000000e1 l       .debug_str	00000000 
000000e7 l       .debug_str	00000000 
000000ee l       .debug_str	00000000 
000000f2 l       .debug_str	00000000 
000000f8 l       .debug_str	00000000 
00000103 l       .debug_str	00000000 
000001c4 l       .debug_str	00000000 
0000010f l       .debug_str	00000000 
00000113 l       .debug_str	00000000 
00000118 l       .debug_str	00000000 
00000123 l       .debug_str	00000000 
0000012a l       .debug_str	00000000 
00000131 l       .debug_str	00000000 
00000133 l       .debug_str	00000000 
00000138 l       .debug_str	00000000 
0000016e l       .debug_str	00000000 
0000017b l       .debug_str	00000000 
00000188 l       .debug_str	00000000 
0000018b l       .debug_str	00000000 
0000018d l       .debug_str	00000000 
000001c2 l       .debug_str	00000000 
000002b1 l       .debug_str	00000000 
00000000 l     O .rodata.cst16	00000010 .Lanon.8d05a522e2e75c8b1501c1aee29073f8.0
00000000 l    d  .text._ZN22piet_embedded_graphics7display15draw_to_display17h7b400c5118e860e4E	00000000 .text._ZN22piet_embedded_graphics7display15draw_to_display17h7b400c5118e860e4E
00000000 l    d  .debug_loc	00000000 .debug_loc
00000000 l    d  .debug_abbrev	00000000 .debug_abbrev
00000000 l    d  .debug_info	00000000 .debug_info
00000000 l    d  .debug_frame	00000000 .debug_frame
00000000 l    d  .debug_line	00000000 .debug_line
00000000         *UND*	00000000 _ZN22piet_embedded_graphics5batch11draw_blocks17h0f62937d950720e2E
00000000 g     F .text._ZN22piet_embedded_graphics7display15draw_to_display17h7b400c5118e860e4E	0000003a _ZN22piet_embedded_graphics7display15draw_to_display17h7b400c5118e860e4E
00000000         *UND*	00000000 _ZN22piet_embedded_graphics7display7DISPLAY17hef54ab4f44cb993eE
00000000         *UND*	00000000 _ZN4core6result19Result$LT$T$C$E$GT$6expect17h628ea316be0f2099E



Disassembly of section .text._ZN22piet_embedded_graphics7display15draw_to_display17h7b400c5118e860e4E:

00000000 <_ZN22piet_embedded_graphics7display15draw_to_display17h7b400c5118e860e4E>:
_ZN22piet_embedded_graphics7display15draw_to_display17h7b400c5118e860e4E():
c:\PineTime\pinetime-rust-mynewt\rust\piet-embedded\piet-embedded-graphics\src/display.rs:122
    }
    Ok(())
}

/// Draw the item to the display
pub fn draw_to_display<T>(item: T)
   0:	b570      	push	{r4, r5, r6, lr}
   2:	b088      	sub	sp, #32
   4:	a902      	add	r1, sp, #8
c:\PineTime\pinetime-rust-mynewt\rust\piet-embedded\piet-embedded-graphics\src/display.rs:130
    unsafe { DISPLAY.draw(item) };        //  Draw text or graphics the usual slow way

    #[cfg(feature = "noblock_spi")]       //  If batching is enabled...
    super::batch::draw_blocks(            //  Draw text or graphics the new faster way, as pixel blocks
        unsafe { &mut DISPLAY },
        item
   6:	460a      	mov	r2, r1
   8:	e890 5078 	ldmia.w	r0, {r3, r4, r5, r6, ip, lr}
   c:	e882 5078 	stmia.w	r2, {r3, r4, r5, r6, ip, lr}
c:\PineTime\pinetime-rust-mynewt\rust\piet-embedded\piet-embedded-graphics\src/display.rs:128
    super::batch::draw_blocks(            //  Draw text or graphics the new faster way, as pixel blocks
  10:	f240 0000 	movw	r0, #0
  14:	f2c0 0000 	movt	r0, #0
  18:	f7ff fffe 	bl	0 <_ZN22piet_embedded_graphics5batch11draw_blocks17h0f62937d950720e2E>
  1c:	9001      	str	r0, [sp, #4]
  1e:	e7ff      	b.n	20 <_ZN22piet_embedded_graphics7display15draw_to_display17h7b400c5118e860e4E+0x20>
  20:	9801      	ldr	r0, [sp, #4]
  22:	f000 0001 	and.w	r0, r0, #1
  26:	f240 0100 	movw	r1, #0
  2a:	f2c0 0100 	movt	r1, #0
  2e:	2210      	movs	r2, #16
  30:	f7ff fffe 	bl	0 <_ZN4core6result19Result$LT$T$C$E$GT$6expect17h628ea316be0f2099E>
  34:	e7ff      	b.n	36 <_ZN22piet_embedded_graphics7display15draw_to_display17h7b400c5118e860e4E+0x36>
c:\PineTime\pinetime-rust-mynewt\rust\piet-embedded\piet-embedded-graphics\src/display.rs:132
    ).expect("draw blocks fail");
}
  36:	b008      	add	sp, #32
  38:	bd70      	pop	{r4, r5, r6, pc}

app-2bc386860c9913e9.4n5mrowkae5e1384.rcgu.o:     file format elf32-littlearm

SYMBOL TABLE:
00000000 l    df *ABS*	00000000 4n5mrowkae5e1384
000000ec l       .debug_str	00000000 
0000011d l       .debug_str	00000000 
00000000 l       .debug_str	00000000 
00000041 l       .debug_str	00000000 
00000055 l       .debug_str	00000000 
00000076 l       .debug_str	00000000 
0000007b l       .debug_str	00000000 
0000007f l       .debug_str	00000000 
00000088 l       .debug_str	00000000 
000000df l       .debug_str	00000000 
000000e2 l       .debug_str	00000000 
000000e7 l       .debug_str	00000000 
00000112 l       .debug_str	00000000 
000000ee l       .debug_str	00000000 
000000f2 l       .debug_str	00000000 
000000f9 l       .debug_str	00000000 
0000010c l       .debug_str	00000000 
00000122 l       .debug_str	00000000 
00000000 l    d  .text._ZN58_$LT$core..any..TypeId$u20$as$u20$core..cmp..PartialEq$GT$2eq17ha2cd5f2efd1aaf1dE	00000000 .text._ZN58_$LT$core..any..TypeId$u20$as$u20$core..cmp..PartialEq$GT$2eq17ha2cd5f2efd1aaf1dE
00000000 l    d  .debug_abbrev	00000000 .debug_abbrev
00000000 l    d  .debug_info	00000000 .debug_info
00000000 l    d  .debug_frame	00000000 .debug_frame
00000000 l    d  .debug_line	00000000 .debug_line
00000000 g     F .text._ZN58_$LT$core..any..TypeId$u20$as$u20$core..cmp..PartialEq$GT$2eq17ha2cd5f2efd1aaf1dE	0000002a .hidden _ZN58_$LT$core..any..TypeId$u20$as$u20$core..cmp..PartialEq$GT$2eq17ha2cd5f2efd1aaf1dE



Disassembly of section .text._ZN58_$LT$core..any..TypeId$u20$as$u20$core..cmp..PartialEq$GT$2eq17ha2cd5f2efd1aaf1dE:

00000000 <_ZN58_$LT$core..any..TypeId$u20$as$u20$core..cmp..PartialEq$GT$2eq17ha2cd5f2efd1aaf1dE>:
_ZN58_$LT$core..any..TypeId$u20$as$u20$core..cmp..PartialEq$GT$2eq17ha2cd5f2efd1aaf1dE():
/rustc/412f43ac5b4ae8c3599e71c6972112e9be4758fa/src/libcore/any.rs:403
   0:	b084      	sub	sp, #16
   2:	9000      	str	r0, [sp, #0]
   4:	9101      	str	r1, [sp, #4]
/rustc/412f43ac5b4ae8c3599e71c6972112e9be4758fa/src/libcore/any.rs:406
   6:	9801      	ldr	r0, [sp, #4]
   8:	9002      	str	r0, [sp, #8]
   a:	9800      	ldr	r0, [sp, #0]
   c:	9003      	str	r0, [sp, #12]
   e:	9803      	ldr	r0, [sp, #12]
  10:	6801      	ldr	r1, [r0, #0]
  12:	6840      	ldr	r0, [r0, #4]
  14:	9a02      	ldr	r2, [sp, #8]
  16:	6813      	ldr	r3, [r2, #0]
  18:	6852      	ldr	r2, [r2, #4]
  1a:	4050      	eors	r0, r2
  1c:	4059      	eors	r1, r3
  1e:	4308      	orrs	r0, r1
  20:	fab0 f080 	clz	r0, r0
  24:	0940      	lsrs	r0, r0, #5
/rustc/412f43ac5b4ae8c3599e71c6972112e9be4758fa/src/libcore/any.rs:403
  26:	b004      	add	sp, #16
  28:	4770      	bx	lr

app-2bc386860c9913e9.4xvgtmbnatqfcode.rcgu.o:     file format elf32-littlearm

SYMBOL TABLE:
00000000 l    df *ABS*	00000000 4xvgtmbnatqfcode
00000188 l       .debug_str	00000000 
00000412 l       .debug_str	00000000 
00000000 l       .debug_str	00000000 
00000041 l       .debug_str	00000000 
00000055 l       .debug_str	00000000 
00000076 l       .debug_str	00000000 
0000007b l       .debug_str	00000000 
0000007f l       .debug_str	00000000 
00000082 l       .debug_str	00000000 
00000085 l       .debug_str	00000000 
00000088 l       .debug_str	00000000 
0000008d l       .debug_str	00000000 
00000093 l       .debug_str	00000000 
0000009a l       .debug_str	00000000 
000000a2 l       .debug_str	00000000 
000000ac l       .debug_str	00000000 
000000b3 l       .debug_str	00000000 
000000b6 l       .debug_str	00000000 
000000ba l       .debug_str	00000000 
000000c1 l       .debug_str	00000000 
000000c8 l       .debug_str	00000000 
000000d1 l       .debug_str	00000000 
000000db l       .debug_str	00000000 
000000e2 l       .debug_str	00000000 
000000e8 l       .debug_str	00000000 
000000ed l       .debug_str	00000000 
000000f9 l       .debug_str	00000000 
00000101 l       .debug_str	00000000 
00000108 l       .debug_str	00000000 
0000010c l       .debug_str	00000000 
00000111 l       .debug_str	00000000 
0000011a l       .debug_str	00000000 
0000011f l       .debug_str	00000000 
00000122 l       .debug_str	00000000 
00000126 l       .debug_str	00000000 
0000012f l       .debug_str	00000000 
00000136 l       .debug_str	00000000 
0000013b l       .debug_str	00000000 
00000140 l       .debug_str	00000000 
00000146 l       .debug_str	00000000 
0000014c l       .debug_str	00000000 
00000156 l       .debug_str	00000000 
00000159 l       .debug_str	00000000 
0000015f l       .debug_str	00000000 
00000169 l       .debug_str	00000000 
00000171 l       .debug_str	00000000 
00000177 l       .debug_str	00000000 
0000017d l       .debug_str	00000000 
00000408 l       .debug_str	00000000 
00000191 l       .debug_str	00000000 
000001b4 l       .debug_str	00000000 
000001d3 l       .debug_str	00000000 
000001d5 l       .debug_str	00000000 
000001da l       .debug_str	00000000 
00000201 l       .debug_str	00000000 
00000206 l       .debug_str	00000000 
0000020c l       .debug_str	00000000 
00000212 l       .debug_str	00000000 
00000215 l       .debug_str	00000000 
00000224 l       .debug_str	00000000 
0000022b l       .debug_str	00000000 
0000022f l       .debug_str	00000000 
00000238 l       .debug_str	00000000 
00000240 l       .debug_str	00000000 
00000248 l       .debug_str	00000000 
0000024f l       .debug_str	00000000 
00000263 l       .debug_str	00000000 
0000026f l       .debug_str	00000000 
0000027b l       .debug_str	00000000 
00000294 l       .debug_str	00000000 
00000299 l       .debug_str	00000000 
000002aa l       .debug_str	00000000 
000002b4 l       .debug_str	00000000 
000002c2 l       .debug_str	00000000 
000002c6 l       .debug_str	00000000 
000002d1 l       .debug_str	00000000 
000002d8 l       .debug_str	00000000 
000002de l       .debug_str	00000000 
000002e2 l       .debug_str	00000000 
000002e6 l       .debug_str	00000000 
000002ee l       .debug_str	00000000 
00000305 l       .debug_str	00000000 
00000329 l       .debug_str	00000000 
00000345 l       .debug_str	00000000 
0000034f l       .debug_str	00000000 
00000369 l       .debug_str	00000000 
000003c7 l       .debug_str	00000000 
000003d2 l       .debug_str	00000000 
000003ef l       .debug_str	00000000 
00000444 l       .debug_str	00000000 
00000000 l    d  .text._ZN4core3fmt9Arguments6new_v117hefd36d1711380f3fE	00000000 .text._ZN4core3fmt9Arguments6new_v117hefd36d1711380f3fE
00000000 l    d  .debug_abbrev	00000000 .debug_abbrev
00000000 l    d  .debug_info	00000000 .debug_info
00000000 l    d  .debug_frame	00000000 .debug_frame
00000000 l    d  .debug_line	00000000 .debug_line
00000000 g     F .text._ZN4core3fmt9Arguments6new_v117hefd36d1711380f3fE	00000038 .hidden _ZN4core3fmt9Arguments6new_v117hefd36d1711380f3fE



Disassembly of section .text._ZN4core3fmt9Arguments6new_v117hefd36d1711380f3fE:

00000000 <_ZN4core3fmt9Arguments6new_v117hefd36d1711380f3fE>:
_ZN4core3fmt9Arguments6new_v117hefd36d1711380f3fE():
/rustc/412f43ac5b4ae8c3599e71c6972112e9be4758fa/src/libcore/fmt/mod.rs:316
   0:	b086      	sub	sp, #24
   2:	f8dd c018 	ldr.w	ip, [sp, #24]
   6:	9100      	str	r1, [sp, #0]
   8:	9201      	str	r2, [sp, #4]
   a:	9302      	str	r3, [sp, #8]
   c:	f8cd c00c 	str.w	ip, [sp, #12]
/rustc/412f43ac5b4ae8c3599e71c6972112e9be4758fa/src/libcore/fmt/mod.rs:319
  10:	9900      	ldr	r1, [sp, #0]
  12:	9a01      	ldr	r2, [sp, #4]
  14:	2300      	movs	r3, #0
/rustc/412f43ac5b4ae8c3599e71c6972112e9be4758fa/src/libcore/fmt/mod.rs:320
  16:	9305      	str	r3, [sp, #20]
  18:	9304      	str	r3, [sp, #16]
  1a:	9304      	str	r3, [sp, #16]
/rustc/412f43ac5b4ae8c3599e71c6972112e9be4758fa/src/libcore/fmt/mod.rs:321
  1c:	9b02      	ldr	r3, [sp, #8]
  1e:	f8dd c00c 	ldr.w	ip, [sp, #12]
/rustc/412f43ac5b4ae8c3599e71c6972112e9be4758fa/src/libcore/fmt/mod.rs:318
  22:	6001      	str	r1, [r0, #0]
  24:	6042      	str	r2, [r0, #4]
  26:	9904      	ldr	r1, [sp, #16]
  28:	9a05      	ldr	r2, [sp, #20]
  2a:	6081      	str	r1, [r0, #8]
  2c:	60c2      	str	r2, [r0, #12]
  2e:	6103      	str	r3, [r0, #16]
  30:	f8c0 c014 	str.w	ip, [r0, #20]
/rustc/412f43ac5b4ae8c3599e71c6972112e9be4758fa/src/libcore/fmt/mod.rs:323
  34:	b006      	add	sp, #24
  36:	4770      	bx	lr

app-2bc386860c9913e9.brvo2cypzjae2y6.rcgu.o:     file format elf32-littlearm

SYMBOL TABLE:
00000000 l    df *ABS*	00000000 brvo2cypzjae2y6
0000016a l       .debug_str	00000000 
000003a3 l       .debug_str	00000000 
000003ac l       .debug_str	00000000 
00000395 l       .debug_str	00000000 
00000359 l       .debug_str	00000000 
000002ff l       .debug_str	00000000 
000003a7 l       .debug_str	00000000 
00000000 l       .debug_str	00000000 
00000041 l       .debug_str	00000000 
00000055 l       .debug_str	00000000 
00000076 l       .debug_str	00000000 
0000007b l       .debug_str	00000000 
00000082 l       .debug_str	00000000 
00000086 l       .debug_str	00000000 
0000008b l       .debug_str	00000000 
0000008f l       .debug_str	00000000 
00000093 l       .debug_str	00000000 
00000097 l       .debug_str	00000000 
0000009b l       .debug_str	00000000 
000000ad l       .debug_str	00000000 
000000b8 l       .debug_str	00000000 
000000bf l       .debug_str	00000000 
000000c3 l       .debug_str	00000000 
000000ca l       .debug_str	00000000 
00000104 l       .debug_str	00000000 
00000106 l       .debug_str	00000000 
0000010b l       .debug_str	00000000 
0000014d l       .debug_str	00000000 
00000156 l       .debug_str	00000000 
00000159 l       .debug_str	00000000 
00000163 l       .debug_str	00000000 
00000264 l       .debug_str	00000000 
00000170 l       .debug_str	00000000 
00000175 l       .debug_str	00000000 
0000017b l       .debug_str	00000000 
00000189 l       .debug_str	00000000 
00000192 l       .debug_str	00000000 
000001a0 l       .debug_str	00000000 
000001b8 l       .debug_str	00000000 
000001c6 l       .debug_str	00000000 
000001c8 l       .debug_str	00000000 
000001fd l       .debug_str	00000000 
000001ff l       .debug_str	00000000 
0000020a l       .debug_str	00000000 
00000211 l       .debug_str	00000000 
0000021a l       .debug_str	00000000 
0000021f l       .debug_str	00000000 
00000229 l       .debug_str	00000000 
0000022b l       .debug_str	00000000 
000003a5 l       .debug_str	00000000 
00000000 l     O .rodata..Lanon.94213095f733716db047c8eb7a9795ca.0	0000002b .Lanon.94213095f733716db047c8eb7a9795ca.0
00000000 l     O .rodata..Lanon.94213095f733716db047c8eb7a9795ca.2	00000010 .Lanon.94213095f733716db047c8eb7a9795ca.2
00000000 l    d  .text._ZN4core6option15Option$LT$T$GT$3map17h6d8e0fe1a0730e67E	00000000 .text._ZN4core6option15Option$LT$T$GT$3map17h6d8e0fe1a0730e67E
00000000 l    d  .text._ZN4core6option15Option$LT$T$GT$6unwrap17h02414f6aeedc50eeE	00000000 .text._ZN4core6option15Option$LT$T$GT$6unwrap17h02414f6aeedc50eeE
00000000 l    d  .rodata..Lanon.94213095f733716db047c8eb7a9795ca.1	00000000 .rodata..Lanon.94213095f733716db047c8eb7a9795ca.1
00000000 l    d  .debug_loc	00000000 .debug_loc
00000000 l    d  .debug_abbrev	00000000 .debug_abbrev
00000000 l    d  .debug_info	00000000 .debug_info
00000000 l    d  .debug_ranges	00000000 .debug_ranges
00000000 l    d  .debug_frame	00000000 .debug_frame
00000000 l    d  .debug_line	00000000 .debug_line
00000000         *UND*	00000000 _ZN121_$LT$embedded_graphics..primitives..circle..CircleIterator$LT$C$GT$$u20$as$u20$core..iter..traits..iterator..Iterator$GT$4next28_$u7b$$u7b$closure$u7d$$u7d$17hb9d13765abbcdbfeE
00000000 g     F .text._ZN4core6option15Option$LT$T$GT$3map17h6d8e0fe1a0730e67E	000000ba _ZN4core6option15Option$LT$T$GT$3map17h6d8e0fe1a0730e67E
00000000 g     F .text._ZN4core6option15Option$LT$T$GT$6unwrap17h02414f6aeedc50eeE	00000052 _ZN4core6option15Option$LT$T$GT$6unwrap17h02414f6aeedc50eeE
00000000         *UND*	00000000 _ZN4core9panicking5panic17hfdd0eecc44a682f8E



Disassembly of section .text._ZN4core6option15Option$LT$T$GT$3map17h6d8e0fe1a0730e67E:

00000000 <_ZN4core6option15Option$LT$T$GT$3map17h6d8e0fe1a0730e67E>:
_ZN4core6option15Option$LT$T$GT$3map17h6d8e0fe1a0730e67E():
/rustc/412f43ac5b4ae8c3599e71c6972112e9be4758fa/src/libcore/option.rs:447
   0:	b580      	push	{r7, lr}
   2:	b090      	sub	sp, #64	; 0x40
   4:	2200      	movs	r2, #0
/rustc/412f43ac5b4ae8c3599e71c6972112e9be4758fa/src/libcore/option.rs:449
   6:	f88d 203e 	strb.w	r2, [sp, #62]	; 0x3e
   a:	f88d 203f 	strb.w	r2, [sp, #63]	; 0x3f
   e:	2201      	movs	r2, #1
  10:	f88d 203f 	strb.w	r2, [sp, #63]	; 0x3f
  14:	f88d 203e 	strb.w	r2, [sp, #62]	; 0x3e
  18:	680a      	ldr	r2, [r1, #0]
  1a:	2a00      	cmp	r2, #0
  1c:	9101      	str	r1, [sp, #4]
  1e:	9000      	str	r0, [sp, #0]
  20:	d001      	beq.n	26 <_ZN4core6option15Option$LT$T$GT$3map17h6d8e0fe1a0730e67E+0x26>
  22:	e7ff      	b.n	24 <_ZN4core6option15Option$LT$T$GT$3map17h6d8e0fe1a0730e67E+0x24>
  24:	e004      	b.n	30 <_ZN4core6option15Option$LT$T$GT$3map17h6d8e0fe1a0730e67E+0x30>
  26:	2000      	movs	r0, #0
/rustc/412f43ac5b4ae8c3599e71c6972112e9be4758fa/src/libcore/option.rs:450
  28:	9900      	ldr	r1, [sp, #0]
  2a:	6008      	str	r0, [r1, #0]
/rustc/412f43ac5b4ae8c3599e71c6972112e9be4758fa/src/libcore/option.rs:448
  2c:	e032      	b.n	94 <_ZN4core6option15Option$LT$T$GT$3map17h6d8e0fe1a0730e67E+0x94>
  2e:	defe      	udf	#254	; 0xfe
  30:	2000      	movs	r0, #0
/rustc/412f43ac5b4ae8c3599e71c6972112e9be4758fa/src/libcore/option.rs:449
  32:	f88d 003f 	strb.w	r0, [sp, #63]	; 0x3f
  36:	9901      	ldr	r1, [sp, #4]
  38:	684a      	ldr	r2, [r1, #4]
  3a:	688b      	ldr	r3, [r1, #8]
  3c:	f8d1 c00c 	ldr.w	ip, [r1, #12]
  40:	f8cd c014 	str.w	ip, [sp, #20]
  44:	9304      	str	r3, [sp, #16]
  46:	9203      	str	r2, [sp, #12]
  48:	f88d 003e 	strb.w	r0, [sp, #62]	; 0x3e
  4c:	9803      	ldr	r0, [sp, #12]
  4e:	9a04      	ldr	r2, [sp, #16]
  50:	9b05      	ldr	r3, [sp, #20]
  52:	930e      	str	r3, [sp, #56]	; 0x38
  54:	920d      	str	r2, [sp, #52]	; 0x34
  56:	900c      	str	r0, [sp, #48]	; 0x30
  58:	980c      	ldr	r0, [sp, #48]	; 0x30
  5a:	9a0d      	ldr	r2, [sp, #52]	; 0x34
  5c:	9b0e      	ldr	r3, [sp, #56]	; 0x38
  5e:	930b      	str	r3, [sp, #44]	; 0x2c
  60:	920a      	str	r2, [sp, #40]	; 0x28
  62:	9009      	str	r0, [sp, #36]	; 0x24
  64:	a806      	add	r0, sp, #24
  66:	a909      	add	r1, sp, #36	; 0x24
  68:	f7ff fffe 	bl	0 <_ZN121_$LT$embedded_graphics..primitives..circle..CircleIterator$LT$C$GT$$u20$as$u20$core..iter..traits..iterator..Iterator$GT$4next28_$u7b$$u7b$closure$u7d$$u7d$17hb9d13765abbcdbfeE>
  6c:	e7ff      	b.n	6e <_ZN4core6option15Option$LT$T$GT$3map17h6d8e0fe1a0730e67E+0x6e>
  6e:	9806      	ldr	r0, [sp, #24]
  70:	9907      	ldr	r1, [sp, #28]
  72:	9a08      	ldr	r2, [sp, #32]
  74:	9b00      	ldr	r3, [sp, #0]
  76:	60da      	str	r2, [r3, #12]
  78:	6099      	str	r1, [r3, #8]
  7a:	6058      	str	r0, [r3, #4]
  7c:	2001      	movs	r0, #1
  7e:	6018      	str	r0, [r3, #0]
/rustc/412f43ac5b4ae8c3599e71c6972112e9be4758fa/src/libcore/option.rs:452
  80:	e008      	b.n	94 <_ZN4core6option15Option$LT$T$GT$3map17h6d8e0fe1a0730e67E+0x94>
  82:	9801      	ldr	r0, [sp, #4]
  84:	6801      	ldr	r1, [r0, #0]
  86:	2901      	cmp	r1, #1
  88:	d00c      	beq.n	a4 <_ZN4core6option15Option$LT$T$GT$3map17h6d8e0fe1a0730e67E+0xa4>
  8a:	e015      	b.n	b8 <_ZN4core6option15Option$LT$T$GT$3map17h6d8e0fe1a0730e67E+0xb8>
  8c:	2000      	movs	r0, #0
  8e:	f88d 003e 	strb.w	r0, [sp, #62]	; 0x3e
  92:	e7f6      	b.n	82 <_ZN4core6option15Option$LT$T$GT$3map17h6d8e0fe1a0730e67E+0x82>
  94:	f89d 003e 	ldrb.w	r0, [sp, #62]	; 0x3e
  98:	07c0      	lsls	r0, r0, #31
  9a:	2800      	cmp	r0, #0
  9c:	d1f6      	bne.n	8c <_ZN4core6option15Option$LT$T$GT$3map17h6d8e0fe1a0730e67E+0x8c>
  9e:	e7f0      	b.n	82 <_ZN4core6option15Option$LT$T$GT$3map17h6d8e0fe1a0730e67E+0x82>
  a0:	b010      	add	sp, #64	; 0x40
  a2:	bd80      	pop	{r7, pc}
  a4:	f89d 003f 	ldrb.w	r0, [sp, #63]	; 0x3f
  a8:	07c0      	lsls	r0, r0, #31
  aa:	2800      	cmp	r0, #0
  ac:	d0f8      	beq.n	a0 <_ZN4core6option15Option$LT$T$GT$3map17h6d8e0fe1a0730e67E+0xa0>
  ae:	e7ff      	b.n	b0 <_ZN4core6option15Option$LT$T$GT$3map17h6d8e0fe1a0730e67E+0xb0>
  b0:	2000      	movs	r0, #0
  b2:	f88d 003f 	strb.w	r0, [sp, #63]	; 0x3f
  b6:	e7f3      	b.n	a0 <_ZN4core6option15Option$LT$T$GT$3map17h6d8e0fe1a0730e67E+0xa0>
  b8:	e7f2      	b.n	a0 <_ZN4core6option15Option$LT$T$GT$3map17h6d8e0fe1a0730e67E+0xa0>

Disassembly of section .text._ZN4core6option15Option$LT$T$GT$6unwrap17h02414f6aeedc50eeE:

00000000 <_ZN4core6option15Option$LT$T$GT$6unwrap17h02414f6aeedc50eeE>:
_ZN4core6option15Option$LT$T$GT$6unwrap17h02414f6aeedc50eeE():
/rustc/412f43ac5b4ae8c3599e71c6972112e9be4758fa/src/libcore/option.rs:377
   0:	b086      	sub	sp, #24
   2:	9003      	str	r0, [sp, #12]
/rustc/412f43ac5b4ae8c3599e71c6972112e9be4758fa/src/libcore/option.rs:379
   4:	9803      	ldr	r0, [sp, #12]
   6:	2800      	cmp	r0, #0
   8:	4601      	mov	r1, r0
   a:	bf18      	it	ne
   c:	2101      	movne	r1, #1
   e:	2800      	cmp	r0, #0
  10:	d001      	beq.n	16 <_ZN4core6option15Option$LT$T$GT$6unwrap17h02414f6aeedc50eeE+0x16>
  12:	e7ff      	b.n	14 <_ZN4core6option15Option$LT$T$GT$6unwrap17h02414f6aeedc50eeE+0x14>
  14:	e008      	b.n	28 <_ZN4core6option15Option$LT$T$GT$6unwrap17h02414f6aeedc50eeE+0x28>
/rustc/412f43ac5b4ae8c3599e71c6972112e9be4758fa/src/libcore/macros/mod.rs:15
  16:	f240 0000 	movw	r0, #0
  1a:	f2c0 0000 	movt	r0, #0
  1e:	9005      	str	r0, [sp, #20]
  20:	9a05      	ldr	r2, [sp, #20]
  22:	9202      	str	r2, [sp, #8]
  24:	e008      	b.n	38 <_ZN4core6option15Option$LT$T$GT$6unwrap17h02414f6aeedc50eeE+0x38>
/rustc/412f43ac5b4ae8c3599e71c6972112e9be4758fa/src/libcore/option.rs:378
  26:	defe      	udf	#254	; 0xfe
/rustc/412f43ac5b4ae8c3599e71c6972112e9be4758fa/src/libcore/option.rs:379
  28:	9803      	ldr	r0, [sp, #12]
  2a:	9004      	str	r0, [sp, #16]
  2c:	9804      	ldr	r0, [sp, #16]
/rustc/412f43ac5b4ae8c3599e71c6972112e9be4758fa/src/libcore/option.rs:382
  2e:	9903      	ldr	r1, [sp, #12]
  30:	2900      	cmp	r1, #0
  32:	9001      	str	r0, [sp, #4]
  34:	d109      	bne.n	4a <_ZN4core6option15Option$LT$T$GT$6unwrap17h02414f6aeedc50eeE+0x4a>
  36:	e00b      	b.n	50 <_ZN4core6option15Option$LT$T$GT$6unwrap17h02414f6aeedc50eeE+0x50>
/rustc/412f43ac5b4ae8c3599e71c6972112e9be4758fa/src/libcore/macros/mod.rs:15
  38:	f240 0000 	movw	r0, #0
  3c:	f2c0 0000 	movt	r0, #0
  40:	212b      	movs	r1, #43	; 0x2b
  42:	9a02      	ldr	r2, [sp, #8]
  44:	f7ff fffe 	bl	0 <_ZN4core9panicking5panic17hfdd0eecc44a682f8E>
  48:	defe      	udf	#254	; 0xfe
/rustc/412f43ac5b4ae8c3599e71c6972112e9be4758fa/src/libcore/option.rs:382
  4a:	9801      	ldr	r0, [sp, #4]
  4c:	b006      	add	sp, #24
  4e:	4770      	bx	lr
  50:	e7fb      	b.n	4a <_ZN4core6option15Option$LT$T$GT$6unwrap17h02414f6aeedc50eeE+0x4a>

app-2bc386860c9913e9.l6qai0n4iufh9qq.rcgu.o:     file format elf32-littlearm

SYMBOL TABLE:
00000000 l    df *ABS*	00000000 l6qai0n4iufh9qq
000000a9 l       .debug_str	00000000 
000000d8 l       .debug_str	00000000 
000000e5 l       .debug_str	00000000 
00000000 l       .debug_str	00000000 
00000041 l       .debug_str	00000000 
00000055 l       .debug_str	00000000 
00000076 l       .debug_str	00000000 
0000007a l       .debug_str	00000000 
00000085 l       .debug_str	00000000 
00000093 l       .debug_str	00000000 
0000009a l       .debug_str	00000000 
0000009e l       .debug_str	00000000 
000000a1 l       .debug_str	00000000 
000000d3 l       .debug_str	00000000 
000000ad l       .debug_str	00000000 
000000b6 l       .debug_str	00000000 
000000c0 l       .debug_str	00000000 
000000c7 l       .debug_str	00000000 
000000cd l       .debug_str	00000000 
000000e0 l       .debug_str	00000000 
00000000 l     O .rodata._ZN3app10app_sensor13SENSOR_DEVICE17hf89ef0ae9977b004E	0000000c _ZN3app10app_sensor13SENSOR_DEVICE17hf89ef0ae9977b004E
00000000 l    d  .rodata..Lanon.d41d8cd98f00b204e9800998ecf8427e.0	00000000 .rodata..Lanon.d41d8cd98f00b204e9800998ecf8427e.0
00000000 l    d  .rodata._ZN3app10app_sensor13SENSOR_DEVICE17hf89ef0ae9977b004E	00000000 .rodata._ZN3app10app_sensor13SENSOR_DEVICE17hf89ef0ae9977b004E
00000000 l    d  .debug_abbrev	00000000 .debug_abbrev
00000000 l    d  .debug_info	00000000 .debug_info
00000000 l    d  .debug_line	00000000 .debug_line



app-2bc386860c9913e9.lynmwznathdy8ii.rcgu.o:     file format elf32-littlearm

SYMBOL TABLE:
00000000 l    df *ABS*	00000000 lynmwznathdy8ii
0000035e l       .debug_str	00000000 
000029f6 l       .debug_str	00000000 
000029c1 l       .debug_str	00000000 
00002ec5 l       .debug_str	00000000 
0000296f l       .debug_str	00000000 
00002e82 l       .debug_str	00000000 
0000293a l       .debug_str	00000000 
00002d3e l       .debug_str	00000000 
0000290a l       .debug_str	00000000 
00002901 l       .debug_str	00000000 
000027ae l       .debug_str	00000000 
00002cf9 l       .debug_str	00000000 
00002779 l       .debug_str	00000000 
00002c35 l       .debug_str	00000000 
00002725 l       .debug_str	00000000 
00002c06 l       .debug_str	00000000 
000026f0 l       .debug_str	00000000 
00002be5 l       .debug_str	00000000 
000026be l       .debug_str	00000000 
000025eb l       .debug_str	00000000 
00002ac8 l       .debug_str	00000000 
000025b6 l       .debug_str	00000000 
00000000 l       .debug_str	00000000 
00000041 l       .debug_str	00000000 
00000055 l       .debug_str	00000000 
00000076 l       .debug_str	00000000 
0000007d l       .debug_str	00000000 
00000084 l       .debug_str	00000000 
00000088 l       .debug_str	00000000 
00000090 l       .debug_str	00000000 
0000009b l       .debug_str	00000000 
000000a6 l       .debug_str	00000000 
000000b3 l       .debug_str	00000000 
000000be l       .debug_str	00000000 
000000c6 l       .debug_str	00000000 
000000d1 l       .debug_str	00000000 
000000dc l       .debug_str	00000000 
000000e6 l       .debug_str	00000000 
000000f1 l       .debug_str	00000000 
000000fc l       .debug_str	00000000 
00000109 l       .debug_str	00000000 
00000115 l       .debug_str	00000000 
00000122 l       .debug_str	00000000 
00000130 l       .debug_str	00000000 
0000013a l       .debug_str	00000000 
00000147 l       .debug_str	00000000 
00000153 l       .debug_str	00000000 
00000158 l       .debug_str	00000000 
0000015c l       .debug_str	00000000 
00000173 l       .debug_str	00000000 
00000179 l       .debug_str	00000000 
00000180 l       .debug_str	00000000 
00000192 l       .debug_str	00000000 
0000019d l       .debug_str	00000000 
000001a4 l       .debug_str	00000000 
000001ab l       .debug_str	00000000 
000001b1 l       .debug_str	00000000 
000001c0 l       .debug_str	00000000 
000001c4 l       .debug_str	00000000 
000001c8 l       .debug_str	00000000 
000001ce l       .debug_str	00000000 
000001d5 l       .debug_str	00000000 
000001d9 l       .debug_str	00000000 
000001df l       .debug_str	00000000 
000001ea l       .debug_str	00000000 
000001f1 l       .debug_str	00000000 
000001f5 l       .debug_str	00000000 
000001fa l       .debug_str	00000000 
00000205 l       .debug_str	00000000 
0000020c l       .debug_str	00000000 
00000213 l       .debug_str	00000000 
00000215 l       .debug_str	00000000 
0000021a l       .debug_str	00000000 
00000250 l       .debug_str	00000000 
0000025d l       .debug_str	00000000 
0000026a l       .debug_str	00000000 
0000026d l       .debug_str	00000000 
0000026f l       .debug_str	00000000 
000002a4 l       .debug_str	00000000 
000002a6 l       .debug_str	00000000 
000002a8 l       .debug_str	00000000 
000002aa l       .debug_str	00000000 
000002e8 l       .debug_str	00000000 
000002ef l       .debug_str	00000000 
000002f7 l       .debug_str	00000000 
000002fe l       .debug_str	00000000 
00000307 l       .debug_str	00000000 
0000030b l       .debug_str	00000000 
0000030d l       .debug_str	00000000 
00000314 l       .debug_str	00000000 
00000318 l       .debug_str	00000000 
00000325 l       .debug_str	00000000 
0000032c l       .debug_str	00000000 
0000032f l       .debug_str	00000000 
00000335 l       .debug_str	00000000 
00000343 l       .debug_str	00000000 
00000351 l       .debug_str	00000000 
00000356 l       .debug_str	00000000 
00002516 l       .debug_str	00000000 
00000366 l       .debug_str	00000000 
00000368 l       .debug_str	00000000 
00000385 l       .debug_str	00000000 
000003cb l       .debug_str	00000000 
000003d3 l       .debug_str	00000000 
000003da l       .debug_str	00000000 
000003eb l       .debug_str	00000000 
0000045b l       .debug_str	00000000 
000004f5 l       .debug_str	00000000 
000005b8 l       .debug_str	00000000 
000006a5 l       .debug_str	00000000 
000006ad l       .debug_str	00000000 
000006b2 l       .debug_str	00000000 
000006b8 l       .debug_str	00000000 
000006bc l       .debug_str	00000000 
000006bf l       .debug_str	00000000 
000006e8 l       .debug_str	00000000 
0000071e l       .debug_str	00000000 
00000720 l       .debug_str	00000000 
0000074d l       .debug_str	00000000 
0000079d l       .debug_str	00000000 
000007fa l       .debug_str	00000000 
0000084e l       .debug_str	00000000 
00000851 l       .debug_str	00000000 
000008c8 l       .debug_str	00000000 
0000094c l       .debug_str	00000000 
000009c7 l       .debug_str	00000000 
00000a65 l       .debug_str	00000000 
00000b10 l       .debug_str	00000000 
00000bb2 l       .debug_str	00000000 
00000c77 l       .debug_str	00000000 
00000d49 l       .debug_str	00000000 
00000e12 l       .debug_str	00000000 
00000efe l       .debug_str	00000000 
00000ff7 l       .debug_str	00000000 
000010e7 l       .debug_str	00000000 
000011f9 l       .debug_str	00000000 
00001328 l       .debug_str	00000000 
00001456 l       .debug_str	00000000 
0000145a l       .debug_str	00000000 
00001460 l       .debug_str	00000000 
00001462 l       .debug_str	00000000 
00001588 l       .debug_str	00000000 
0000158a l       .debug_str	00000000 
00001693 l       .debug_str	00000000 
0000169f l       .debug_str	00000000 
000016a4 l       .debug_str	00000000 
00001716 l       .debug_str	00000000 
0000174b l       .debug_str	00000000 
000017f0 l       .debug_str	00000000 
00001825 l       .debug_str	00000000 
00001951 l       .debug_str	00000000 
00001986 l       .debug_str	00000000 
000019b6 l       .debug_str	00000000 
000019bc l       .debug_str	00000000 
000019c5 l       .debug_str	00000000 
00001adc l       .debug_str	00000000 
00001bef l       .debug_str	00000000 
00001d0f l       .debug_str	00000000 
00001e26 l       .debug_str	00000000 
00001f5f l       .debug_str	00000000 
000020b5 l       .debug_str	00000000 
0000220a l       .debug_str	00000000 
00002357 l       .debug_str	00000000 
00002487 l       .debug_str	00000000 
00002492 l       .debug_str	00000000 
000024c7 l       .debug_str	00000000 
00002505 l       .debug_str	00000000 
0000250a l       .debug_str	00000000 
00002514 l       .debug_str	00000000 
00002a32 l       .debug_str	00000000 
00000000 l     F .text._ZN4core3ptr18real_drop_in_place17h0747a5b49ca7f73aE	00000014 _ZN4core3ptr18real_drop_in_place17h0747a5b49ca7f73aE
00000000 l     F .text._ZN4core3ptr18real_drop_in_place17h46e0c28eef812941E	00000012 _ZN4core3ptr18real_drop_in_place17h46e0c28eef812941E
00000000 l     F .text._ZN4core3ptr18real_drop_in_place17hcb21b2887c7d65b5E	00000012 _ZN4core3ptr18real_drop_in_place17hcb21b2887c7d65b5E
00000000 l     F .text._ZN4core3ptr18real_drop_in_place17hee10bf455dc7d05dE	00000012 _ZN4core3ptr18real_drop_in_place17hee10bf455dc7d05dE
00000000 l    d  .text._ZN4core3ptr18real_drop_in_place17h0747a5b49ca7f73aE	00000000 .text._ZN4core3ptr18real_drop_in_place17h0747a5b49ca7f73aE
00000000 l    d  .text._ZN4core3ptr18real_drop_in_place17h0a953d836c5653beE	00000000 .text._ZN4core3ptr18real_drop_in_place17h0a953d836c5653beE
00000000 l    d  .text._ZN4core3ptr18real_drop_in_place17h2c0cf0b5cfa3c3ffE	00000000 .text._ZN4core3ptr18real_drop_in_place17h2c0cf0b5cfa3c3ffE
00000000 l    d  .text._ZN4core3ptr18real_drop_in_place17h46e0c28eef812941E	00000000 .text._ZN4core3ptr18real_drop_in_place17h46e0c28eef812941E
00000000 l    d  .text._ZN4core3ptr18real_drop_in_place17h74d1def115ce632eE	00000000 .text._ZN4core3ptr18real_drop_in_place17h74d1def115ce632eE
00000000 l    d  .text._ZN4core3ptr18real_drop_in_place17h7705f424901406b7E	00000000 .text._ZN4core3ptr18real_drop_in_place17h7705f424901406b7E
00000000 l    d  .text._ZN4core3ptr18real_drop_in_place17hcb21b2887c7d65b5E	00000000 .text._ZN4core3ptr18real_drop_in_place17hcb21b2887c7d65b5E
00000000 l    d  .text._ZN4core3ptr18real_drop_in_place17hd1f8190c506e115bE	00000000 .text._ZN4core3ptr18real_drop_in_place17hd1f8190c506e115bE
00000000 l    d  .text._ZN4core3ptr18real_drop_in_place17hee10bf455dc7d05dE	00000000 .text._ZN4core3ptr18real_drop_in_place17hee10bf455dc7d05dE
00000000 l    d  .debug_abbrev	00000000 .debug_abbrev
00000000 l    d  .debug_info	00000000 .debug_info
00000000 l    d  .debug_ranges	00000000 .debug_ranges
00000000 l    d  .debug_frame	00000000 .debug_frame
00000000 l    d  .debug_line	00000000 .debug_line
00000000 g     F .text._ZN4core3ptr18real_drop_in_place17h0a953d836c5653beE	00000012 .hidden _ZN4core3ptr18real_drop_in_place17h0a953d836c5653beE
00000000 g     F .text._ZN4core3ptr18real_drop_in_place17h2c0cf0b5cfa3c3ffE	00000008 .hidden _ZN4core3ptr18real_drop_in_place17h2c0cf0b5cfa3c3ffE
00000000 g     F .text._ZN4core3ptr18real_drop_in_place17h74d1def115ce632eE	0000001c .hidden _ZN4core3ptr18real_drop_in_place17h74d1def115ce632eE
00000000 g     F .text._ZN4core3ptr18real_drop_in_place17h7705f424901406b7E	0000001e .hidden _ZN4core3ptr18real_drop_in_place17h7705f424901406b7E
00000000 g     F .text._ZN4core3ptr18real_drop_in_place17hd1f8190c506e115bE	0000001e .hidden _ZN4core3ptr18real_drop_in_place17hd1f8190c506e115bE
00000000         *UND*	00000000 _ZN73_$LT$heapless..vec..Vec$LT$T$C$N$GT$$u20$as$u20$core..ops..drop..Drop$GT$4drop17h32fe695d90b2fec3E
00000000         *UND*	00000000 _ZN73_$LT$heapless..vec..Vec$LT$T$C$N$GT$$u20$as$u20$core..ops..drop..Drop$GT$4drop17h41dffa0ca565aec3E



Disassembly of section .text._ZN4core3ptr18real_drop_in_place17h0747a5b49ca7f73aE:

00000000 <_ZN4core3ptr18real_drop_in_place17h0747a5b49ca7f73aE>:
_ZN4core3ptr18real_drop_in_place17h0747a5b49ca7f73aE():
/rustc/412f43ac5b4ae8c3599e71c6972112e9be4758fa/src/libcore/ptr/mod.rs:181
   0:	b580      	push	{r7, lr}
   2:	b082      	sub	sp, #8
   4:	9001      	str	r0, [sp, #4]
   6:	9801      	ldr	r0, [sp, #4]
   8:	3020      	adds	r0, #32
   a:	f7ff fffe 	bl	0 <_ZN4core3ptr18real_drop_in_place17h0747a5b49ca7f73aE>
   e:	e7ff      	b.n	10 <_ZN4core3ptr18real_drop_in_place17h0747a5b49ca7f73aE+0x10>
  10:	b002      	add	sp, #8
  12:	bd80      	pop	{r7, pc}

Disassembly of section .text._ZN4core3ptr18real_drop_in_place17h0a953d836c5653beE:

00000000 <_ZN4core3ptr18real_drop_in_place17h0a953d836c5653beE>:
_ZN4core3ptr18real_drop_in_place17h0a953d836c5653beE():
/rustc/412f43ac5b4ae8c3599e71c6972112e9be4758fa/src/libcore/ptr/mod.rs:181
   0:	b580      	push	{r7, lr}
   2:	b082      	sub	sp, #8
   4:	9001      	str	r0, [sp, #4]
   6:	9801      	ldr	r0, [sp, #4]
   8:	f7ff fffe 	bl	0 <_ZN73_$LT$heapless..vec..Vec$LT$T$C$N$GT$$u20$as$u20$core..ops..drop..Drop$GT$4drop17h41dffa0ca565aec3E>
   c:	e7ff      	b.n	e <_ZN4core3ptr18real_drop_in_place17h0a953d836c5653beE+0xe>
   e:	b002      	add	sp, #8
  10:	bd80      	pop	{r7, pc}

Disassembly of section .text._ZN4core3ptr18real_drop_in_place17h2c0cf0b5cfa3c3ffE:

00000000 <_ZN4core3ptr18real_drop_in_place17h2c0cf0b5cfa3c3ffE>:
_ZN4core3ptr18real_drop_in_place17h2c0cf0b5cfa3c3ffE():
/rustc/412f43ac5b4ae8c3599e71c6972112e9be4758fa/src/libcore/ptr/mod.rs:181
   0:	b081      	sub	sp, #4
   2:	9000      	str	r0, [sp, #0]
   4:	b001      	add	sp, #4
   6:	4770      	bx	lr

Disassembly of section .text._ZN4core3ptr18real_drop_in_place17h46e0c28eef812941E:

00000000 <_ZN4core3ptr18real_drop_in_place17h46e0c28eef812941E>:
_ZN4core3ptr18real_drop_in_place17h46e0c28eef812941E():
/rustc/412f43ac5b4ae8c3599e71c6972112e9be4758fa/src/libcore/ptr/mod.rs:181
   0:	b580      	push	{r7, lr}
   2:	b082      	sub	sp, #8
   4:	9001      	str	r0, [sp, #4]
   6:	9801      	ldr	r0, [sp, #4]
   8:	f7ff fffe 	bl	0 <_ZN4core3ptr18real_drop_in_place17h46e0c28eef812941E>
   c:	e7ff      	b.n	e <_ZN4core3ptr18real_drop_in_place17h46e0c28eef812941E+0xe>
   e:	b002      	add	sp, #8
  10:	bd80      	pop	{r7, pc}

Disassembly of section .text._ZN4core3ptr18real_drop_in_place17h74d1def115ce632eE:

00000000 <_ZN4core3ptr18real_drop_in_place17h74d1def115ce632eE>:
_ZN4core3ptr18real_drop_in_place17h74d1def115ce632eE():
/rustc/412f43ac5b4ae8c3599e71c6972112e9be4758fa/src/libcore/ptr/mod.rs:181
   0:	b580      	push	{r7, lr}
   2:	b082      	sub	sp, #8
   4:	9001      	str	r0, [sp, #4]
   6:	9801      	ldr	r0, [sp, #4]
   8:	f7ff fffe 	bl	0 <_ZN4core3ptr18real_drop_in_place17h74d1def115ce632eE>
   c:	e001      	b.n	12 <_ZN4core3ptr18real_drop_in_place17h74d1def115ce632eE+0x12>
   e:	b002      	add	sp, #8
  10:	bd80      	pop	{r7, pc}
  12:	9801      	ldr	r0, [sp, #4]
  14:	3090      	adds	r0, #144	; 0x90
  16:	f7ff fffe 	bl	0 <_ZN4core3ptr18real_drop_in_place17h74d1def115ce632eE>
  1a:	e7f8      	b.n	e <_ZN4core3ptr18real_drop_in_place17h74d1def115ce632eE+0xe>

Disassembly of section .text._ZN4core3ptr18real_drop_in_place17h7705f424901406b7E:

00000000 <_ZN4core3ptr18real_drop_in_place17h7705f424901406b7E>:
_ZN4core3ptr18real_drop_in_place17h7705f424901406b7E():
/rustc/412f43ac5b4ae8c3599e71c6972112e9be4758fa/src/libcore/ptr/mod.rs:181
   0:	b580      	push	{r7, lr}
   2:	b082      	sub	sp, #8
   4:	9001      	str	r0, [sp, #4]
   6:	9801      	ldr	r0, [sp, #4]
   8:	6800      	ldr	r0, [r0, #0]
   a:	2800      	cmp	r0, #0
   c:	d102      	bne.n	14 <_ZN4core3ptr18real_drop_in_place17h7705f424901406b7E+0x14>
   e:	e7ff      	b.n	10 <_ZN4core3ptr18real_drop_in_place17h7705f424901406b7E+0x10>
  10:	b002      	add	sp, #8
  12:	bd80      	pop	{r7, pc}
  14:	9801      	ldr	r0, [sp, #4]
  16:	3004      	adds	r0, #4
  18:	f7ff fffe 	bl	0 <_ZN4core3ptr18real_drop_in_place17h7705f424901406b7E>
  1c:	e7f8      	b.n	10 <_ZN4core3ptr18real_drop_in_place17h7705f424901406b7E+0x10>

Disassembly of section .text._ZN4core3ptr18real_drop_in_place17hcb21b2887c7d65b5E:

00000000 <_ZN4core3ptr18real_drop_in_place17hcb21b2887c7d65b5E>:
_ZN4core3ptr18real_drop_in_place17hcb21b2887c7d65b5E():
/rustc/412f43ac5b4ae8c3599e71c6972112e9be4758fa/src/libcore/ptr/mod.rs:181
   0:	b580      	push	{r7, lr}
   2:	b082      	sub	sp, #8
   4:	9001      	str	r0, [sp, #4]
   6:	9801      	ldr	r0, [sp, #4]
   8:	f7ff fffe 	bl	0 <_ZN73_$LT$heapless..vec..Vec$LT$T$C$N$GT$$u20$as$u20$core..ops..drop..Drop$GT$4drop17h32fe695d90b2fec3E>
   c:	e7ff      	b.n	e <_ZN4core3ptr18real_drop_in_place17hcb21b2887c7d65b5E+0xe>
   e:	b002      	add	sp, #8
  10:	bd80      	pop	{r7, pc}

Disassembly of section .text._ZN4core3ptr18real_drop_in_place17hd1f8190c506e115bE:

00000000 <_ZN4core3ptr18real_drop_in_place17hd1f8190c506e115bE>:
_ZN4core3ptr18real_drop_in_place17hd1f8190c506e115bE():
/rustc/412f43ac5b4ae8c3599e71c6972112e9be4758fa/src/libcore/ptr/mod.rs:181
   0:	b580      	push	{r7, lr}
   2:	b082      	sub	sp, #8
   4:	9001      	str	r0, [sp, #4]
   6:	9801      	ldr	r0, [sp, #4]
   8:	6800      	ldr	r0, [r0, #0]
   a:	2800      	cmp	r0, #0
   c:	d102      	bne.n	14 <_ZN4core3ptr18real_drop_in_place17hd1f8190c506e115bE+0x14>
   e:	e7ff      	b.n	10 <_ZN4core3ptr18real_drop_in_place17hd1f8190c506e115bE+0x10>
  10:	b002      	add	sp, #8
  12:	bd80      	pop	{r7, pc}
  14:	9801      	ldr	r0, [sp, #4]
  16:	3004      	adds	r0, #4
  18:	f7ff fffe 	bl	0 <_ZN4core3ptr18real_drop_in_place17hd1f8190c506e115bE>
  1c:	e7f8      	b.n	10 <_ZN4core3ptr18real_drop_in_place17hd1f8190c506e115bE+0x10>

Disassembly of section .text._ZN4core3ptr18real_drop_in_place17hee10bf455dc7d05dE:

00000000 <_ZN4core3ptr18real_drop_in_place17hee10bf455dc7d05dE>:
_ZN4core3ptr18real_drop_in_place17hee10bf455dc7d05dE():
/rustc/412f43ac5b4ae8c3599e71c6972112e9be4758fa/src/libcore/ptr/mod.rs:181
   0:	b580      	push	{r7, lr}
   2:	b082      	sub	sp, #8
   4:	9001      	str	r0, [sp, #4]
   6:	9801      	ldr	r0, [sp, #4]
   8:	f7ff fffe 	bl	0 <_ZN4core3ptr18real_drop_in_place17hee10bf455dc7d05dE>
   c:	e7ff      	b.n	e <_ZN4core3ptr18real_drop_in_place17hee10bf455dc7d05dE+0xe>
   e:	b002      	add	sp, #8
  10:	bd80      	pop	{r7, pc}

app-2bc386860c9913e9.pot0crw6wwpktux.rcgu.o:     file format elf32-littlearm

SYMBOL TABLE:
00000000 l    df *ABS*	00000000 pot0crw6wwpktux
0000021c l       .debug_str	00000000 
00000444 l       .debug_str	00000000 
00000404 l       .debug_str	00000000 
000003f6 l       .debug_str	00000000 
00000000 l       .debug_str	00000000 
00000041 l       .debug_str	00000000 
00000055 l       .debug_str	00000000 
00000076 l       .debug_str	00000000 
0000007d l       .debug_str	00000000 
00000084 l       .debug_str	00000000 
00000088 l       .debug_str	00000000 
00000090 l       .debug_str	00000000 
0000009b l       .debug_str	00000000 
000000a6 l       .debug_str	00000000 
000000b3 l       .debug_str	00000000 
000000be l       .debug_str	00000000 
000000c6 l       .debug_str	00000000 
000000d1 l       .debug_str	00000000 
000000dc l       .debug_str	00000000 
000000e6 l       .debug_str	00000000 
000000f1 l       .debug_str	00000000 
000000fc l       .debug_str	00000000 
00000109 l       .debug_str	00000000 
00000115 l       .debug_str	00000000 
00000122 l       .debug_str	00000000 
00000130 l       .debug_str	00000000 
0000013a l       .debug_str	00000000 
00000147 l       .debug_str	00000000 
00000153 l       .debug_str	00000000 
00000157 l       .debug_str	00000000 
0000015f l       .debug_str	00000000 
00000191 l       .debug_str	00000000 
0000019e l       .debug_str	00000000 
000001a3 l       .debug_str	00000000 
000001a7 l       .debug_str	00000000 
000001aa l       .debug_str	00000000 
000001ae l       .debug_str	00000000 
000001b1 l       .debug_str	00000000 
000001b3 l       .debug_str	00000000 
000001b5 l       .debug_str	00000000 
000001b9 l       .debug_str	00000000 
000001e1 l       .debug_str	00000000 
000001ec l       .debug_str	00000000 
000001fe l       .debug_str	00000000 
00000209 l       .debug_str	00000000 
00000213 l       .debug_str	00000000 
000003ec l       .debug_str	00000000 
00000222 l       .debug_str	00000000 
00000231 l       .debug_str	00000000 
00000235 l       .debug_str	00000000 
0000023b l       .debug_str	00000000 
00000248 l       .debug_str	00000000 
0000024e l       .debug_str	00000000 
00000259 l       .debug_str	00000000 
00000260 l       .debug_str	00000000 
00000264 l       .debug_str	00000000 
00000269 l       .debug_str	00000000 
00000274 l       .debug_str	00000000 
0000027b l       .debug_str	00000000 
00000282 l       .debug_str	00000000 
00000287 l       .debug_str	00000000 
000002bd l       .debug_str	00000000 
000002ca l       .debug_str	00000000 
000002d7 l       .debug_str	00000000 
000002da l       .debug_str	00000000 
000002dc l       .debug_str	00000000 
00000311 l       .debug_str	00000000 
00000313 l       .debug_str	00000000 
0000034c l       .debug_str	00000000 
00000353 l       .debug_str	00000000 
0000035a l       .debug_str	00000000 
00000361 l       .debug_str	00000000 
00000397 l       .debug_str	00000000 
0000039e l       .debug_str	00000000 
000003a3 l       .debug_str	00000000 
000003a9 l       .debug_str	00000000 
000003b6 l       .debug_str	00000000 
000003ba l       .debug_str	00000000 
000003c3 l       .debug_str	00000000 
000003cd l       .debug_str	00000000 
000003d4 l       .debug_str	00000000 
000003da l       .debug_str	00000000 
000003df l       .debug_str	00000000 
000003e5 l       .debug_str	00000000 
00000449 l       .debug_str	00000000 
00000000 l     O .rodata..Lanon.6e457f3a27d8e26ab5fe0be40355c628.0	00000012 .Lanon.6e457f3a27d8e26ab5fe0be40355c628.0
00000000 l     O .rodata..Lanon.6e457f3a27d8e26ab5fe0be40355c628.1	0000000d .Lanon.6e457f3a27d8e26ab5fe0be40355c628.1
00000000 l    d  .text._ZN3app7display12test_display17h74895a970a5cafe1E	00000000 .text._ZN3app7display12test_display17h74895a970a5cafe1E
00000000 l    d  .debug_abbrev	00000000 .debug_abbrev
00000000 l    d  .debug_info	00000000 .debug_info
00000000 l    d  .debug_frame	00000000 .debug_frame
00000000 l    d  .debug_line	00000000 .debug_line
00000000         *UND*	00000000 _ZN119_$LT$embedded_graphics..primitives..circle..Circle$LT$C$GT$$u20$as$u20$embedded_graphics..style..WithStyle$LT$C$GT$$GT$4fill17h6ce31e0a2e70d334E
00000000         *UND*	00000000 _ZN123_$LT$embedded_graphics..pixelcolor..rgb565..Rgb565$u20$as$u20$core..convert..From$LT$$LP$u8$C$$u20$u8$C$$u20$u8$RP$$GT$$GT$4from17h659d7ee3df541413E
00000000         *UND*	00000000 _ZN125_$LT$embedded_graphics..primitives..rectangle..Rectangle$LT$C$GT$$u20$as$u20$embedded_graphics..style..WithStyle$LT$C$GT$$GT$4fill17hfe3104ddbc378d1dE
00000000         *UND*	00000000 _ZN127_$LT$embedded_graphics..fonts..font_builder..FontBuilder$LT$C$C$Conf$GT$$u20$as$u20$embedded_graphics..fonts..Font$LT$C$GT$$GT$10render_str17h783469ced509f660E
00000000         *UND*	00000000 _ZN127_$LT$embedded_graphics..fonts..font_builder..FontBuilder$LT$C$C$Conf$GT$$u20$as$u20$embedded_graphics..transform..Transform$GT$9translate17h962eef1cf2d2b3eeE
00000000         *UND*	00000000 _ZN132_$LT$embedded_graphics..fonts..font_builder..FontBuilder$LT$C$C$Conf$GT$$u20$as$u20$embedded_graphics..style..WithStyle$LT$C$GT$$GT$4fill17h146b6fa4206c6416E
00000000         *UND*	00000000 _ZN132_$LT$embedded_graphics..fonts..font_builder..FontBuilder$LT$C$C$Conf$GT$$u20$as$u20$embedded_graphics..style..WithStyle$LT$C$GT$$GT$6stroke17h05d84d41b4412179E
00000000         *UND*	00000000 _ZN17embedded_graphics10primitives6circle15Circle$LT$C$GT$3new17h3b0eaae94a4bdc48E
00000000         *UND*	00000000 _ZN17embedded_graphics10primitives9rectangle18Rectangle$LT$C$GT$3new17h0769841607c58517E
00000000         *UND*	00000000 _ZN17embedded_graphics5coord14internal_coord5Coord3new17ha916e4aa61e7d147E
00000000         *UND*	00000000 _ZN22piet_embedded_graphics7display15draw_to_display17h32cb0643eac9ac49E
00000000         *UND*	00000000 _ZN22piet_embedded_graphics7display15draw_to_display17h7b400c5118e860e4E
00000000         *UND*	00000000 _ZN22piet_embedded_graphics7display15draw_to_display17h7b638f7f8edf49a4E
00000000 g     F .text._ZN3app7display12test_display17h74895a970a5cafe1E	0000028e .hidden _ZN3app7display12test_display17h74895a970a5cafe1E
00000000         *UND*	00000000 _ZN6mynewt3sys7console5flush17hdf24cb1bc6cb3579E
00000000         *UND*	00000000 _ZN6mynewt3sys7console5print17h4f6750301ba25348E



Disassembly of section .text._ZN3app7display12test_display17h74895a970a5cafe1E:

00000000 <_ZN3app7display12test_display17h74895a970a5cafe1E>:
_ZN3app7display12test_display17h74895a970a5cafe1E():
c:\PineTime\pinetime-rust-mynewt/rust\app\src/display.rs:17
    result::*,
    sys::console,
};

/// Render some graphics and text to the PineTime display. `start_display()` must have been called earlier.
pub fn test_display() -> MynewtResult<()> {
   0:	b570      	push	{r4, r5, r6, lr}
   2:	f5ad 7d00 	sub.w	sp, sp, #512	; 0x200
c:\PineTime\pinetime-rust-mynewt/rust\app\src/display.rs:18
    console::print("Rust test display\n"); console::flush();
   6:	f240 0000 	movw	r0, #0
   a:	f2c0 0000 	movt	r0, #0
   e:	2112      	movs	r1, #18
  10:	f7ff fffe 	bl	0 <_ZN6mynewt3sys7console5print17h4f6750301ba25348E>
  14:	e7ff      	b.n	2 <_ZN6mynewt3sys7console5flush17hdf24cb1bc6cb3579E+0x2>
  16:	f7ff fffe 	bl	0 <_ZN6mynewt3sys7console5flush17hdf24cb1bc6cb3579E>
  1a:	e7ff      	b.n	1c <_ZN3app7display12test_display17h74895a970a5cafe1E+0x1c>
  1c:	2000      	movs	r0, #0
c:\PineTime\pinetime-rust-mynewt/rust\app\src/display.rs:22
    
    //  Create black background
    let background = Rectangle::<Rgb565>
        ::new( Coord::new( 0, 0 ), Coord::new( 239, 239 ) )   //  Rectangle coordinates
  1e:	9016      	str	r0, [sp, #88]	; 0x58
  20:	9916      	ldr	r1, [sp, #88]	; 0x58
  22:	f7ff fffe 	bl	0 <_ZN17embedded_graphics5coord14internal_coord5Coord3new17ha916e4aa61e7d147E>
  26:	9015      	str	r0, [sp, #84]	; 0x54
  28:	9114      	str	r1, [sp, #80]	; 0x50
  2a:	e7ff      	b.n	2c <_ZN3app7display12test_display17h74895a970a5cafe1E+0x2c>
  2c:	20ef      	movs	r0, #239	; 0xef
  2e:	9013      	str	r0, [sp, #76]	; 0x4c
  30:	9913      	ldr	r1, [sp, #76]	; 0x4c
  32:	f7ff fffe 	bl	0 <_ZN17embedded_graphics5coord14internal_coord5Coord3new17ha916e4aa61e7d147E>
  36:	9012      	str	r0, [sp, #72]	; 0x48
  38:	9111      	str	r1, [sp, #68]	; 0x44
  3a:	e7ff      	b.n	3c <_ZN3app7display12test_display17h74895a970a5cafe1E+0x3c>
c:\PineTime\pinetime-rust-mynewt/rust\app\src/display.rs:21
    let background = Rectangle::<Rgb565>
  3c:	4668      	mov	r0, sp
  3e:	9911      	ldr	r1, [sp, #68]	; 0x44
  40:	6001      	str	r1, [r0, #0]
  42:	a81e      	add	r0, sp, #120	; 0x78
  44:	9915      	ldr	r1, [sp, #84]	; 0x54
  46:	9a14      	ldr	r2, [sp, #80]	; 0x50
  48:	9b12      	ldr	r3, [sp, #72]	; 0x48
  4a:	f7ff fffe 	bl	0 <_ZN17embedded_graphics10primitives9rectangle18Rectangle$LT$C$GT$3new17h0769841607c58517E>
  4e:	e7ff      	b.n	50 <_ZN3app7display12test_display17h74895a970a5cafe1E+0x50>
  50:	2000      	movs	r0, #0
c:\PineTime\pinetime-rust-mynewt/rust\app\src/display.rs:23
        .fill( Some( Rgb565::from(( 0x00, 0x00, 0x00 )) ) );  //  Black
  52:	f88d 0098 	strb.w	r0, [sp, #152]	; 0x98
  56:	f88d 0099 	strb.w	r0, [sp, #153]	; 0x99
  5a:	f88d 009a 	strb.w	r0, [sp, #154]	; 0x9a
  5e:	f89d 009a 	ldrb.w	r0, [sp, #154]	; 0x9a
  62:	f8bd 1098 	ldrh.w	r1, [sp, #152]	; 0x98
  66:	ea41 4000 	orr.w	r0, r1, r0, lsl #16
  6a:	f7ff fffe 	bl	0 <_ZN123_$LT$embedded_graphics..pixelcolor..rgb565..Rgb565$u20$as$u20$core..convert..From$LT$$LP$u8$C$$u20$u8$C$$u20$u8$RP$$GT$$GT$4from17h659d7ee3df541413E>
  6e:	9010      	str	r0, [sp, #64]	; 0x40
  70:	e7ff      	b.n	72 <_ZN3app7display12test_display17h74895a970a5cafe1E+0x72>
  72:	9810      	ldr	r0, [sp, #64]	; 0x40
  74:	f8ad 0096 	strh.w	r0, [sp, #150]	; 0x96
  78:	2101      	movs	r1, #1
  7a:	f8ad 1094 	strh.w	r1, [sp, #148]	; 0x94
c:\PineTime\pinetime-rust-mynewt/rust\app\src/display.rs:21
    let background = Rectangle::<Rgb565>
  7e:	f8bd 3096 	ldrh.w	r3, [sp, #150]	; 0x96
  82:	f8bd 2094 	ldrh.w	r2, [sp, #148]	; 0x94
  86:	a817      	add	r0, sp, #92	; 0x5c
  88:	a91e      	add	r1, sp, #120	; 0x78
  8a:	f7ff fffe 	bl	0 <_ZN125_$LT$embedded_graphics..primitives..rectangle..Rectangle$LT$C$GT$$u20$as$u20$embedded_graphics..style..WithStyle$LT$C$GT$$GT$4fill17hfe3104ddbc378d1dE>
  8e:	e7ff      	b.n	90 <_ZN3app7display12test_display17h74895a970a5cafe1E+0x90>
  90:	2028      	movs	r0, #40	; 0x28
c:\PineTime\pinetime-rust-mynewt/rust\app\src/display.rs:27

    //  Create circle
    let circle = Circle::<Rgb565>
        ::new( Coord::new( 40, 40 ), 40 )                     //  Circle centre and radius
  92:	900f      	str	r0, [sp, #60]	; 0x3c
  94:	990f      	ldr	r1, [sp, #60]	; 0x3c
  96:	f7ff fffe 	bl	0 <_ZN17embedded_graphics5coord14internal_coord5Coord3new17ha916e4aa61e7d147E>
  9a:	900e      	str	r0, [sp, #56]	; 0x38
  9c:	910d      	str	r1, [sp, #52]	; 0x34
  9e:	e7ff      	b.n	a0 <_ZN3app7display12test_display17h74895a970a5cafe1E+0xa0>
  a0:	a82d      	add	r0, sp, #180	; 0xb4
  a2:	2328      	movs	r3, #40	; 0x28
c:\PineTime\pinetime-rust-mynewt/rust\app\src/display.rs:26
    let circle = Circle::<Rgb565>
  a4:	990e      	ldr	r1, [sp, #56]	; 0x38
  a6:	9a0d      	ldr	r2, [sp, #52]	; 0x34
  a8:	f7ff fffe 	bl	0 <_ZN17embedded_graphics10primitives6circle15Circle$LT$C$GT$3new17h3b0eaae94a4bdc48E>
  ac:	e7ff      	b.n	ae <_ZN3app7display12test_display17h74895a970a5cafe1E+0xae>
  ae:	20ff      	movs	r0, #255	; 0xff
c:\PineTime\pinetime-rust-mynewt/rust\app\src/display.rs:28
        .fill( Some( Rgb565::from(( 0xff, 0x00, 0xff )) ) );  //  Magenta
  b0:	f88d 00d0 	strb.w	r0, [sp, #208]	; 0xd0
  b4:	2100      	movs	r1, #0
  b6:	f88d 10d1 	strb.w	r1, [sp, #209]	; 0xd1
  ba:	f88d 00d2 	strb.w	r0, [sp, #210]	; 0xd2
  be:	f89d 00d2 	ldrb.w	r0, [sp, #210]	; 0xd2
  c2:	f8bd 10d0 	ldrh.w	r1, [sp, #208]	; 0xd0
  c6:	ea41 4000 	orr.w	r0, r1, r0, lsl #16
  ca:	f7ff fffe 	bl	0 <_ZN123_$LT$embedded_graphics..pixelcolor..rgb565..Rgb565$u20$as$u20$core..convert..From$LT$$LP$u8$C$$u20$u8$C$$u20$u8$RP$$GT$$GT$4from17h659d7ee3df541413E>
  ce:	900c      	str	r0, [sp, #48]	; 0x30
  d0:	e7ff      	b.n	d2 <_ZN3app7display12test_display17h74895a970a5cafe1E+0xd2>
  d2:	980c      	ldr	r0, [sp, #48]	; 0x30
  d4:	f8ad 00ce 	strh.w	r0, [sp, #206]	; 0xce
  d8:	2101      	movs	r1, #1
  da:	f8ad 10cc 	strh.w	r1, [sp, #204]	; 0xcc
c:\PineTime\pinetime-rust-mynewt/rust\app\src/display.rs:26
    let circle = Circle::<Rgb565>
  de:	f8bd 30ce 	ldrh.w	r3, [sp, #206]	; 0xce
  e2:	f8bd 20cc 	ldrh.w	r2, [sp, #204]	; 0xcc
  e6:	a827      	add	r0, sp, #156	; 0x9c
  e8:	a92d      	add	r1, sp, #180	; 0xb4
  ea:	f7ff fffe 	bl	0 <_ZN119_$LT$embedded_graphics..primitives..circle..Circle$LT$C$GT$$u20$as$u20$embedded_graphics..style..WithStyle$LT$C$GT$$GT$4fill17h6ce31e0a2e70d334E>
  ee:	e7ff      	b.n	f0 <_ZN3app7display12test_display17h74895a970a5cafe1E+0xf0>
  f0:	203c      	movs	r0, #60	; 0x3c
c:\PineTime\pinetime-rust-mynewt/rust\app\src/display.rs:32

    //  Create square
    let square = Rectangle::<Rgb565>
        ::new( Coord::new( 60, 60 ), Coord::new( 150, 150 ) ) //  Square coordinates
  f2:	900b      	str	r0, [sp, #44]	; 0x2c
  f4:	990b      	ldr	r1, [sp, #44]	; 0x2c
  f6:	f7ff fffe 	bl	0 <_ZN17embedded_graphics5coord14internal_coord5Coord3new17ha916e4aa61e7d147E>
  fa:	900a      	str	r0, [sp, #40]	; 0x28
  fc:	9109      	str	r1, [sp, #36]	; 0x24
  fe:	e7ff      	b.n	100 <_ZN3app7display12test_display17h74895a970a5cafe1E+0x100>
 100:	2096      	movs	r0, #150	; 0x96
 102:	9008      	str	r0, [sp, #32]
 104:	9908      	ldr	r1, [sp, #32]
 106:	f7ff fffe 	bl	0 <_ZN17embedded_graphics5coord14internal_coord5Coord3new17ha916e4aa61e7d147E>
 10a:	9007      	str	r0, [sp, #28]
 10c:	9106      	str	r1, [sp, #24]
 10e:	e7ff      	b.n	110 <_ZN3app7display12test_display17h74895a970a5cafe1E+0x110>
c:\PineTime\pinetime-rust-mynewt/rust\app\src/display.rs:31
    let square = Rectangle::<Rgb565>
 110:	4668      	mov	r0, sp
 112:	9906      	ldr	r1, [sp, #24]
 114:	6001      	str	r1, [r0, #0]
 116:	a83c      	add	r0, sp, #240	; 0xf0
 118:	990a      	ldr	r1, [sp, #40]	; 0x28
 11a:	9a09      	ldr	r2, [sp, #36]	; 0x24
 11c:	9b07      	ldr	r3, [sp, #28]
 11e:	f7ff fffe 	bl	0 <_ZN17embedded_graphics10primitives9rectangle18Rectangle$LT$C$GT$3new17h0769841607c58517E>
 122:	e7ff      	b.n	124 <_ZN3app7display12test_display17h74895a970a5cafe1E+0x124>
 124:	2000      	movs	r0, #0
c:\PineTime\pinetime-rust-mynewt/rust\app\src/display.rs:33
        .fill( Some( Rgb565::from(( 0x00, 0x00, 0xff )) ) );  //  Blue
 126:	f88d 0110 	strb.w	r0, [sp, #272]	; 0x110
 12a:	f88d 0111 	strb.w	r0, [sp, #273]	; 0x111
 12e:	20ff      	movs	r0, #255	; 0xff
 130:	f88d 0112 	strb.w	r0, [sp, #274]	; 0x112
 134:	f89d 0112 	ldrb.w	r0, [sp, #274]	; 0x112
 138:	f8bd 1110 	ldrh.w	r1, [sp, #272]	; 0x110
 13c:	ea41 4000 	orr.w	r0, r1, r0, lsl #16
 140:	f7ff fffe 	bl	0 <_ZN123_$LT$embedded_graphics..pixelcolor..rgb565..Rgb565$u20$as$u20$core..convert..From$LT$$LP$u8$C$$u20$u8$C$$u20$u8$RP$$GT$$GT$4from17h659d7ee3df541413E>
 144:	9005      	str	r0, [sp, #20]
 146:	e7ff      	b.n	148 <_ZN3app7display12test_display17h74895a970a5cafe1E+0x148>
 148:	9805      	ldr	r0, [sp, #20]
 14a:	f8ad 010e 	strh.w	r0, [sp, #270]	; 0x10e
 14e:	2101      	movs	r1, #1
 150:	f8ad 110c 	strh.w	r1, [sp, #268]	; 0x10c
c:\PineTime\pinetime-rust-mynewt/rust\app\src/display.rs:31
    let square = Rectangle::<Rgb565>
 154:	f8bd 310e 	ldrh.w	r3, [sp, #270]	; 0x10e
 158:	f8bd 210c 	ldrh.w	r2, [sp, #268]	; 0x10c
 15c:	a835      	add	r0, sp, #212	; 0xd4
 15e:	a93c      	add	r1, sp, #240	; 0xf0
 160:	f7ff fffe 	bl	0 <_ZN125_$LT$embedded_graphics..primitives..rectangle..Rectangle$LT$C$GT$$u20$as$u20$embedded_graphics..style..WithStyle$LT$C$GT$$GT$4fill17hfe3104ddbc378d1dE>
 164:	e7ff      	b.n	2 <_ZN3app7display12test_display17h74895a970a5cafe1E+0x2>
c:\PineTime\pinetime-rust-mynewt/rust\app\src/display.rs:36

    //  Create text
    let text = fonts::Font12x16::<Rgb565>
 166:	f240 0100 	movw	r1, #0
 16a:	f2c0 0100 	movt	r1, #0
 16e:	a85a      	add	r0, sp, #360	; 0x168
 170:	220d      	movs	r2, #13
 172:	f7ff fffe 	bl	0 <_ZN127_$LT$embedded_graphics..fonts..font_builder..FontBuilder$LT$C$C$Conf$GT$$u20$as$u20$embedded_graphics..fonts..Font$LT$C$GT$$GT$10render_str17h783469ced509f660E>
 176:	e7ff      	b.n	178 <_ZN3app7display12test_display17h74895a970a5cafe1E+0x178>
 178:	2000      	movs	r0, #0
c:\PineTime\pinetime-rust-mynewt/rust\app\src/display.rs:38
        ::render_str("I AM PINETIME")                          //  Text to be rendered
        .stroke( Some( Rgb565::from(( 0x00, 0x00, 0x00 )) ) )  //  Black text
 17a:	f88d 0188 	strb.w	r0, [sp, #392]	; 0x188
 17e:	f88d 0189 	strb.w	r0, [sp, #393]	; 0x189
 182:	f88d 018a 	strb.w	r0, [sp, #394]	; 0x18a
 186:	f89d 018a 	ldrb.w	r0, [sp, #394]	; 0x18a
 18a:	f8bd 1188 	ldrh.w	r1, [sp, #392]	; 0x188
 18e:	ea41 4000 	orr.w	r0, r1, r0, lsl #16
 192:	f7ff fffe 	bl	0 <_ZN123_$LT$embedded_graphics..pixelcolor..rgb565..Rgb565$u20$as$u20$core..convert..From$LT$$LP$u8$C$$u20$u8$C$$u20$u8$RP$$GT$$GT$4from17h659d7ee3df541413E>
 196:	9004      	str	r0, [sp, #16]
 198:	e7ff      	b.n	19a <_ZN3app7display12test_display17h74895a970a5cafe1E+0x19a>
 19a:	9804      	ldr	r0, [sp, #16]
 19c:	f8ad 0186 	strh.w	r0, [sp, #390]	; 0x186
 1a0:	2101      	movs	r1, #1
 1a2:	f8ad 1184 	strh.w	r1, [sp, #388]	; 0x184
c:\PineTime\pinetime-rust-mynewt/rust\app\src/display.rs:36
    let text = fonts::Font12x16::<Rgb565>
 1a6:	f8bd 3186 	ldrh.w	r3, [sp, #390]	; 0x186
 1aa:	f8bd 2184 	ldrh.w	r2, [sp, #388]	; 0x184
 1ae:	a853      	add	r0, sp, #332	; 0x14c
 1b0:	a95a      	add	r1, sp, #360	; 0x168
 1b2:	f7ff fffe 	bl	0 <_ZN132_$LT$embedded_graphics..fonts..font_builder..FontBuilder$LT$C$C$Conf$GT$$u20$as$u20$embedded_graphics..style..WithStyle$LT$C$GT$$GT$6stroke17h05d84d41b4412179E>
 1b6:	e7ff      	b.n	1b8 <_ZN3app7display12test_display17h74895a970a5cafe1E+0x1b8>
 1b8:	20ff      	movs	r0, #255	; 0xff
c:\PineTime\pinetime-rust-mynewt/rust\app\src/display.rs:39
        .fill(   Some( Rgb565::from(( 0xff, 0xff, 0x00 )) ) )  //  Yellow background
 1ba:	f88d 0190 	strb.w	r0, [sp, #400]	; 0x190
 1be:	f88d 0191 	strb.w	r0, [sp, #401]	; 0x191
 1c2:	2000      	movs	r0, #0
 1c4:	f88d 0192 	strb.w	r0, [sp, #402]	; 0x192
 1c8:	f89d 0192 	ldrb.w	r0, [sp, #402]	; 0x192
 1cc:	f8bd 1190 	ldrh.w	r1, [sp, #400]	; 0x190
 1d0:	ea41 4000 	orr.w	r0, r1, r0, lsl #16
 1d4:	f7ff fffe 	bl	0 <_ZN123_$LT$embedded_graphics..pixelcolor..rgb565..Rgb565$u20$as$u20$core..convert..From$LT$$LP$u8$C$$u20$u8$C$$u20$u8$RP$$GT$$GT$4from17h659d7ee3df541413E>
 1d8:	9003      	str	r0, [sp, #12]
 1da:	e7ff      	b.n	1dc <_ZN3app7display12test_display17h74895a970a5cafe1E+0x1dc>
 1dc:	9803      	ldr	r0, [sp, #12]
 1de:	f8ad 018e 	strh.w	r0, [sp, #398]	; 0x18e
 1e2:	2101      	movs	r1, #1
 1e4:	f8ad 118c 	strh.w	r1, [sp, #396]	; 0x18c
c:\PineTime\pinetime-rust-mynewt/rust\app\src/display.rs:36
    let text = fonts::Font12x16::<Rgb565>
 1e8:	f8bd 318e 	ldrh.w	r3, [sp, #398]	; 0x18e
 1ec:	f8bd 218c 	ldrh.w	r2, [sp, #396]	; 0x18c
 1f0:	a84c      	add	r0, sp, #304	; 0x130
 1f2:	a953      	add	r1, sp, #332	; 0x14c
 1f4:	f7ff fffe 	bl	0 <_ZN132_$LT$embedded_graphics..fonts..font_builder..FontBuilder$LT$C$C$Conf$GT$$u20$as$u20$embedded_graphics..style..WithStyle$LT$C$GT$$GT$4fill17h146b6fa4206c6416E>
 1f8:	e7ff      	b.n	1fa <_ZN3app7display12test_display17h74895a970a5cafe1E+0x1fa>
 1fa:	2014      	movs	r0, #20
 1fc:	2110      	movs	r1, #16
c:\PineTime\pinetime-rust-mynewt/rust\app\src/display.rs:40
        .translate( Coord::new( 20, 16 ));                     //  Shift the text
 1fe:	f7ff fffe 	bl	0 <_ZN17embedded_graphics5coord14internal_coord5Coord3new17ha916e4aa61e7d147E>
 202:	9002      	str	r0, [sp, #8]
 204:	9101      	str	r1, [sp, #4]
 206:	e7ff      	b.n	208 <_ZN3app7display12test_display17h74895a970a5cafe1E+0x208>
 208:	a845      	add	r0, sp, #276	; 0x114
 20a:	a94c      	add	r1, sp, #304	; 0x130
c:\PineTime\pinetime-rust-mynewt/rust\app\src/display.rs:36
    let text = fonts::Font12x16::<Rgb565>
 20c:	9a02      	ldr	r2, [sp, #8]
 20e:	9b01      	ldr	r3, [sp, #4]
 210:	f7ff fffe 	bl	0 <_ZN127_$LT$embedded_graphics..fonts..font_builder..FontBuilder$LT$C$C$Conf$GT$$u20$as$u20$embedded_graphics..transform..Transform$GT$9translate17h962eef1cf2d2b3eeE>
 214:	e7ff      	b.n	216 <_ZN3app7display12test_display17h74895a970a5cafe1E+0x216>
 216:	a817      	add	r0, sp, #92	; 0x5c
 218:	a965      	add	r1, sp, #404	; 0x194
c:\PineTime\pinetime-rust-mynewt/rust\app\src/display.rs:43

    //  Render background, circle, square and text to display
    druid::draw_to_display(background);
 21a:	460a      	mov	r2, r1
 21c:	e8b0 5008 	ldmia.w	r0!, {r3, ip, lr}
 220:	e8a2 5008 	stmia.w	r2!, {r3, ip, lr}
 224:	e890 5018 	ldmia.w	r0, {r3, r4, ip, lr}
 228:	e882 5018 	stmia.w	r2, {r3, r4, ip, lr}
 22c:	4608      	mov	r0, r1
 22e:	f7ff fffe 	bl	0 <_ZN22piet_embedded_graphics7display15draw_to_display17h32cb0643eac9ac49E>
 232:	e7ff      	b.n	234 <_ZN3app7display12test_display17h74895a970a5cafe1E+0x234>
 234:	a827      	add	r0, sp, #156	; 0x9c
 236:	a96c      	add	r1, sp, #432	; 0x1b0
c:\PineTime\pinetime-rust-mynewt/rust\app\src/display.rs:44
    druid::draw_to_display(circle);
 238:	460a      	mov	r2, r1
 23a:	e890 5078 	ldmia.w	r0, {r3, r4, r5, r6, ip, lr}
 23e:	e882 5078 	stmia.w	r2, {r3, r4, r5, r6, ip, lr}
 242:	4608      	mov	r0, r1
 244:	f7ff fffe 	bl	0 <_ZN22piet_embedded_graphics7display15draw_to_display17h7b400c5118e860e4E>
 248:	e7ff      	b.n	24a <_ZN3app7display12test_display17h74895a970a5cafe1E+0x24a>
 24a:	a835      	add	r0, sp, #212	; 0xd4
 24c:	a972      	add	r1, sp, #456	; 0x1c8
c:\PineTime\pinetime-rust-mynewt/rust\app\src/display.rs:45
    druid::draw_to_display(square);
 24e:	460a      	mov	r2, r1
 250:	e8b0 5008 	ldmia.w	r0!, {r3, ip, lr}
 254:	e8a2 5008 	stmia.w	r2!, {r3, ip, lr}
 258:	e890 5018 	ldmia.w	r0, {r3, r4, ip, lr}
 25c:	e882 5018 	stmia.w	r2, {r3, r4, ip, lr}
 260:	4608      	mov	r0, r1
 262:	f7ff fffe 	bl	0 <_ZN22piet_embedded_graphics7display15draw_to_display17h32cb0643eac9ac49E>
 266:	e7ff      	b.n	268 <_ZN3app7display12test_display17h74895a970a5cafe1E+0x268>
 268:	a845      	add	r0, sp, #276	; 0x114
 26a:	a979      	add	r1, sp, #484	; 0x1e4
c:\PineTime\pinetime-rust-mynewt/rust\app\src/display.rs:46
    druid::draw_to_display(text);    
 26c:	460a      	mov	r2, r1
 26e:	e8b0 5008 	ldmia.w	r0!, {r3, ip, lr}
 272:	e8a2 5008 	stmia.w	r2!, {r3, ip, lr}
 276:	e890 5018 	ldmia.w	r0, {r3, r4, ip, lr}
 27a:	e882 5018 	stmia.w	r2, {r3, r4, ip, lr}
 27e:	4608      	mov	r0, r1
 280:	f7ff fffe 	bl	0 <_ZN22piet_embedded_graphics7display15draw_to_display17h7b638f7f8edf49a4E>
 284:	e7ff      	b.n	286 <_ZN3app7display12test_display17h74895a970a5cafe1E+0x286>
 286:	2001      	movs	r0, #1
c:\PineTime\pinetime-rust-mynewt/rust\app\src/display.rs:50

    //  Return success to the caller
    Ok(())
 288:	f50d 7d00 	add.w	sp, sp, #512	; 0x200
 28c:	bd70      	pop	{r4, r5, r6, pc}
arm-none-eabi-objdump: lib.rmeta: File format not recognized
arm-none-eabi-objdump: app-2bc386860c9913e9.1baba3fm44chs5nv.rcgu.bc.z: File format not recognized
arm-none-eabi-objdump: app-2bc386860c9913e9.1gwqdlbjjmycqyso.rcgu.bc.z: File format not recognized
arm-none-eabi-objdump: app-2bc386860c9913e9.1lxtipoyojnegf75.rcgu.bc.z: File format not recognized
arm-none-eabi-objdump: app-2bc386860c9913e9.207wgevdvd4fmjj.rcgu.bc.z: File format not recognized
arm-none-eabi-objdump: app-2bc386860c9913e9.288dkb61im9k03bs.rcgu.bc.z: File format not recognized
arm-none-eabi-objdump: app-2bc386860c9913e9.381sfvjc3fnwbg7d.rcgu.bc.z: File format not recognized
arm-none-eabi-objdump: app-2bc386860c9913e9.3bs5n05p5jx0gf18.rcgu.bc.z: File format not recognized
arm-none-eabi-objdump: app-2bc386860c9913e9.4n5mrowkae5e1384.rcgu.bc.z: File format not recognized
arm-none-eabi-objdump: app-2bc386860c9913e9.4xvgtmbnatqfcode.rcgu.bc.z: File format not recognized
arm-none-eabi-objdump: app-2bc386860c9913e9.brvo2cypzjae2y6.rcgu.bc.z: File format not recognized
arm-none-eabi-objdump: app-2bc386860c9913e9.l6qai0n4iufh9qq.rcgu.bc.z: File format not recognized
arm-none-eabi-objdump: app-2bc386860c9913e9.lynmwznathdy8ii.rcgu.bc.z: File format not recognized
arm-none-eabi-objdump: app-2bc386860c9913e9.pot0crw6wwpktux.rcgu.bc.z: File format not recognized
