In archive target/riscv32imac-unknown-none-elf/release/libapp.rlib:

app-d0445c1fb25dc647.app.9uhxv32r-cgu.0.rcgu.o:     file format elf32-littleriscv

SYMBOL TABLE:
00000000 l    df *ABS*	00000000 app.9uhxv32r-cgu.0
000000b0 l       .debug_ranges	00000000 
00000000 l       .text._ZN44_$LT$$RF$T$u20$as$u20$core..fmt..Display$GT$3fmt17had15619c85373ca3E	00000000 
00000000 l       .text._ZN44_$LT$$RF$T$u20$as$u20$core..fmt..Display$GT$3fmt17had15619c85373ca3E	00000000 
00000002 l       .text._ZN44_$LT$$RF$T$u20$as$u20$core..fmt..Display$GT$3fmt17had15619c85373ca3E	00000000 
00000006 l       .text._ZN44_$LT$$RF$T$u20$as$u20$core..fmt..Display$GT$3fmt17had15619c85373ca3E	00000000 
0000000e l       .text._ZN44_$LT$$RF$T$u20$as$u20$core..fmt..Display$GT$3fmt17had15619c85373ca3E	00000000 
00003135 l       .debug_str	00000000 
0000314b l       .debug_str	00000000 
00003169 l       .debug_str	00000000 
00003172 l       .debug_str	00000000 
00003177 l       .debug_str	00000000 
0000317c l       .debug_str	00000000 
00003180 l       .debug_str	00000000 
00003189 l       .debug_str	00000000 
00003193 l       .debug_str	00000000 
000031ab l       .debug_str	00000000 
00000000 l       .debug_loc	00000000 
00000013 l       .debug_loc	00000000 
00000031 l       .debug_loc	00000000 
00000044 l       .debug_loc	00000000 
0000006d l       .debug_loc	00000000 
0000008b l       .debug_loc	00000000 
0000009e l       .debug_loc	00000000 
000000b1 l       .debug_loc	00000000 
000000da l       .debug_loc	00000000 
0000010f l       .debug_loc	00000000 
0000012d l       .debug_loc	00000000 
00000140 l       .debug_loc	00000000 
00000153 l       .debug_loc	00000000 
00000166 l       .debug_loc	00000000 
00000179 l       .debug_loc	00000000 
000001a2 l       .debug_loc	00000000 
000001c0 l       .debug_loc	00000000 
000001e9 l       .debug_loc	00000000 
000001fc l       .debug_loc	00000000 
00000225 l       .debug_loc	00000000 
00000238 l       .debug_loc	00000000 
0000024b l       .debug_loc	00000000 
0000025e l       .debug_loc	00000000 
00000287 l       .debug_loc	00000000 
0000029a l       .debug_loc	00000000 
000002b2 l       .debug_loc	00000000 
00000000 l       .debug_info	00000000 
000000c8 l       .debug_ranges	00000000 
00000000 l       .debug_ranges	00000000 
00000020 l       .debug_ranges	00000000 
00000038 l       .debug_ranges	00000000 
00000050 l       .debug_ranges	00000000 
00000098 l       .debug_ranges	00000000 
00000068 l       .debug_ranges	00000000 
00000080 l       .debug_ranges	00000000 
00000000 l       .text._ZN4core6result13unwrap_failed17h3314c9605742429cE	00000000 
00000000 l       .text._ZN4core6result13unwrap_failed17h3314c9605742429cE	00000000 
00000026 l       .text._ZN4core6result13unwrap_failed17h3314c9605742429cE	00000000 
0000002a l       .text._ZN4core6result13unwrap_failed17h3314c9605742429cE	00000000 
00000034 l       .text._ZN4core6result13unwrap_failed17h3314c9605742429cE	00000000 
0000003c l       .text._ZN4core6result13unwrap_failed17h3314c9605742429cE	00000000 
00000042 l       .text._ZN4core6result13unwrap_failed17h3314c9605742429cE	00000000 
00000058 l       .text._ZN4core6result13unwrap_failed17h3314c9605742429cE	00000000 
00000000 l       .text._ZN3app11app_network21aggregate_sensor_data17h16bb200023b7761eE	00000000 
00000000 l       .text._ZN3app11app_network21aggregate_sensor_data17h16bb200023b7761eE	00000000 
0000004a l       .text._ZN3app11app_network21aggregate_sensor_data17h16bb200023b7761eE	00000000 
00000052 l       .text._ZN3app11app_network21aggregate_sensor_data17h16bb200023b7761eE	00000000 
00000056 l       .text._ZN3app11app_network21aggregate_sensor_data17h16bb200023b7761eE	00000000 
00000066 l       .text._ZN3app11app_network21aggregate_sensor_data17h16bb200023b7761eE	00000000 
0000009c l       .text._ZN3app11app_network21aggregate_sensor_data17h16bb200023b7761eE	00000000 
000000b4 l       .text._ZN3app11app_network21aggregate_sensor_data17h16bb200023b7761eE	00000000 
000000da l       .text._ZN3app11app_network21aggregate_sensor_data17h16bb200023b7761eE	00000000 
00000100 l       .text._ZN3app11app_network21aggregate_sensor_data17h16bb200023b7761eE	00000000 
00000116 l       .text._ZN3app11app_network21aggregate_sensor_data17h16bb200023b7761eE	00000000 
0000013a l       .text._ZN3app11app_network21aggregate_sensor_data17h16bb200023b7761eE	00000000 
00000146 l       .text._ZN3app11app_network21aggregate_sensor_data17h16bb200023b7761eE	00000000 
00000148 l       .text._ZN3app11app_network21aggregate_sensor_data17h16bb200023b7761eE	00000000 
0000014e l       .text._ZN3app11app_network21aggregate_sensor_data17h16bb200023b7761eE	00000000 
00000162 l       .text._ZN3app11app_network21aggregate_sensor_data17h16bb200023b7761eE	00000000 
000003fc l       .text._ZN3app11app_network21aggregate_sensor_data17h16bb200023b7761eE	00000000 
00000450 l       .text._ZN3app11app_network21aggregate_sensor_data17h16bb200023b7761eE	00000000 
00000000 l       .text.main	00000000 
00000000 l       .text.main	00000000 
00000012 l       .text.main	00000000 
00000046 l       .text.main	00000000 
0000004a l       .text.main	00000000 
0000004e l       .text.main	00000000 
00000052 l       .text.main	00000000 
0000005c l       .text.main	00000000 
00000062 l       .text.main	00000000 
00000082 l       .text.main	00000000 
000000a0 l       .text.main	00000000 
000000a2 l       .text.main	00000000 
000000a8 l       .text.main	00000000 
000000e8 l       .text.main	00000000 
000000f0 l       .text.main	00000000 
000000f6 l       .text.main	00000000 
000000fe l       .text.main	00000000 
00000106 l       .text.main	00000000 
0000010e l       .text.main	00000000 
00000112 l       .text.main	00000000 
00000114 l       .text.main	00000000 
0000011c l       .text.main	00000000 
00000124 l       .text.main	00000000 
0000012c l       .text.main	00000000 
0000012e l       .text.main	00000000 
00000136 l       .text.main	00000000 
0000013e l       .text.main	00000000 
00000146 l       .text.main	00000000 
00000148 l       .text.main	00000000 
00000150 l       .text.main	00000000 
00000158 l       .text.main	00000000 
00000160 l       .text.main	00000000 
00000164 l       .text.main	00000000 
00000168 l       .text.main	00000000 
00000172 l       .text.main	00000000 
0000017a l       .text.main	00000000 
0000017e l       .text.main	00000000 
00000192 l       .text.main	00000000 
00000192 l       .text.main	00000000 
00000000 l       .text.rust_begin_unwind	00000000 
00000000 l       .text.rust_begin_unwind	00000000 
0000000c l       .text.rust_begin_unwind	00000000 
00000020 l       .text.rust_begin_unwind	00000000 
00000028 l       .text.rust_begin_unwind	00000000 
0000002a l       .text.rust_begin_unwind	00000000 
00000036 l       .text.rust_begin_unwind	00000000 
00000038 l       .text.rust_begin_unwind	00000000 
00000044 l       .text.rust_begin_unwind	00000000 
00000050 l       .text.rust_begin_unwind	00000000 
00000094 l       .text.rust_begin_unwind	00000000 
000000a4 l       .text.rust_begin_unwind	00000000 
000000bc l       .text.rust_begin_unwind	00000000 
00000000 l       .debug_str	00000000 
00000041 l       .debug_str	00000000 
00000055 l       .debug_str	00000000 
00000085 l       .debug_str	00000000 
00000089 l       .debug_str	00000000 
00000095 l       .debug_str	00000000 
000000a9 l       .debug_str	00000000 
000000b0 l       .debug_str	00000000 
000000b3 l       .debug_str	00000000 
000000ba l       .debug_str	00000000 
000000be l       .debug_str	00000000 
000000c3 l       .debug_str	00000000 
000000c8 l       .debug_str	00000000 
000000cc l       .debug_str	00000000 
000000d2 l       .debug_str	00000000 
000000d6 l       .debug_str	00000000 
000000e2 l       .debug_str	00000000 
000000eb l       .debug_str	00000000 
000000ef l       .debug_str	00000000 
000000f9 l       .debug_str	00000000 
00000102 l       .debug_str	00000000 
00000112 l       .debug_str	00000000 
00000150 l       .debug_str	00000000 
0000015b l       .debug_str	00000000 
00000169 l       .debug_str	00000000 
0000016d l       .debug_str	00000000 
00000170 l       .debug_str	00000000 
00000178 l       .debug_str	00000000 
00000181 l       .debug_str	00000000 
0000018b l       .debug_str	00000000 
00000192 l       .debug_str	00000000 
00000198 l       .debug_str	00000000 
0000019e l       .debug_str	00000000 
000001a3 l       .debug_str	00000000 
000001ab l       .debug_str	00000000 
000001b0 l       .debug_str	00000000 
000001e7 l       .debug_str	00000000 
000001f2 l       .debug_str	00000000 
000001fd l       .debug_str	00000000 
00000231 l       .debug_str	00000000 
00000236 l       .debug_str	00000000 
0000023d l       .debug_str	00000000 
00000240 l       .debug_str	00000000 
00000244 l       .debug_str	00000000 
0000024b l       .debug_str	00000000 
0000024f l       .debug_str	00000000 
00000252 l       .debug_str	00000000 
00000255 l       .debug_str	00000000 
0000025a l       .debug_str	00000000 
00000260 l       .debug_str	00000000 
00000267 l       .debug_str	00000000 
0000026f l       .debug_str	00000000 
00000279 l       .debug_str	00000000 
0000027d l       .debug_str	00000000 
00000285 l       .debug_str	00000000 
00000290 l       .debug_str	00000000 
0000029b l       .debug_str	00000000 
000002a8 l       .debug_str	00000000 
000002b3 l       .debug_str	00000000 
000002bb l       .debug_str	00000000 
000002c6 l       .debug_str	00000000 
000002d1 l       .debug_str	00000000 
000002db l       .debug_str	00000000 
000002e6 l       .debug_str	00000000 
000002f1 l       .debug_str	00000000 
000002fe l       .debug_str	00000000 
0000030a l       .debug_str	00000000 
00000317 l       .debug_str	00000000 
00000325 l       .debug_str	00000000 
0000032f l       .debug_str	00000000 
0000033c l       .debug_str	00000000 
00000348 l       .debug_str	00000000 
0000034c l       .debug_str	00000000 
00000357 l       .debug_str	00000000 
00000362 l       .debug_str	00000000 
00000369 l       .debug_str	00000000 
00000372 l       .debug_str	00000000 
00000379 l       .debug_str	00000000 
0000037e l       .debug_str	00000000 
0000038a l       .debug_str	00000000 
00000392 l       .debug_str	00000000 
00000399 l       .debug_str	00000000 
000003a2 l       .debug_str	00000000 
000003a7 l       .debug_str	00000000 
000003aa l       .debug_str	00000000 
000003b3 l       .debug_str	00000000 
000003ba l       .debug_str	00000000 
000003bf l       .debug_str	00000000 
000003c4 l       .debug_str	00000000 
000003ca l       .debug_str	00000000 
000003d0 l       .debug_str	00000000 
000003da l       .debug_str	00000000 
000003dd l       .debug_str	00000000 
000003e3 l       .debug_str	00000000 
000003ed l       .debug_str	00000000 
000003f5 l       .debug_str	00000000 
000003fb l       .debug_str	00000000 
00000401 l       .debug_str	00000000 
0000040c l       .debug_str	00000000 
00000415 l       .debug_str	00000000 
00000438 l       .debug_str	00000000 
00000457 l       .debug_str	00000000 
00000459 l       .debug_str	00000000 
0000045e l       .debug_str	00000000 
00000485 l       .debug_str	00000000 
0000048a l       .debug_str	00000000 
00000490 l       .debug_str	00000000 
00000496 l       .debug_str	00000000 
00000499 l       .debug_str	00000000 
000004a8 l       .debug_str	00000000 
000004af l       .debug_str	00000000 
000004b3 l       .debug_str	00000000 
000004bc l       .debug_str	00000000 
000004c4 l       .debug_str	00000000 
000004cc l       .debug_str	00000000 
000004d3 l       .debug_str	00000000 
000004e7 l       .debug_str	00000000 
000004f3 l       .debug_str	00000000 
000004ff l       .debug_str	00000000 
00000518 l       .debug_str	00000000 
0000051d l       .debug_str	00000000 
0000052e l       .debug_str	00000000 
00000538 l       .debug_str	00000000 
00000546 l       .debug_str	00000000 
0000054a l       .debug_str	00000000 
00000555 l       .debug_str	00000000 
0000055c l       .debug_str	00000000 
00000562 l       .debug_str	00000000 
00000566 l       .debug_str	00000000 
0000056a l       .debug_str	00000000 
00000572 l       .debug_str	00000000 
00000589 l       .debug_str	00000000 
000005ad l       .debug_str	00000000 
000005c9 l       .debug_str	00000000 
000005d3 l       .debug_str	00000000 
000005ed l       .debug_str	00000000 
0000064b l       .debug_str	00000000 
00000656 l       .debug_str	00000000 
00000673 l       .debug_str	00000000 
0000068c l       .debug_str	00000000 
00000696 l       .debug_str	00000000 
000006c8 l       .debug_str	00000000 
000006cf l       .debug_str	00000000 
0000070a l       .debug_str	00000000 
0000071b l       .debug_str	00000000 
0000071d l       .debug_str	00000000 
00000745 l       .debug_str	00000000 
00000749 l       .debug_str	00000000 
0000074d l       .debug_str	00000000 
0000075b l       .debug_str	00000000 
0000075f l       .debug_str	00000000 
0000076b l       .debug_str	00000000 
0000078c l       .debug_str	00000000 
0000078e l       .debug_str	00000000 
00000792 l       .debug_str	00000000 
0000079c l       .debug_str	00000000 
000007a1 l       .debug_str	00000000 
000007a4 l       .debug_str	00000000 
000007b2 l       .debug_str	00000000 
000007c4 l       .debug_str	00000000 
000007d8 l       .debug_str	00000000 
000007dc l       .debug_str	00000000 
000007e5 l       .debug_str	00000000 
000007f0 l       .debug_str	00000000 
000007f9 l       .debug_str	00000000 
00000869 l       .debug_str	00000000 
0000089f l       .debug_str	00000000 
000008d1 l       .debug_str	00000000 
000008d6 l       .debug_str	00000000 
00000946 l       .debug_str	00000000 
00000974 l       .debug_str	00000000 
0000099e l       .debug_str	00000000 
000009dd l       .debug_str	00000000 
000009f3 l       .debug_str	00000000 
000009fc l       .debug_str	00000000 
00000a02 l       .debug_str	00000000 
00000a09 l       .debug_str	00000000 
00000a0c l       .debug_str	00000000 
00000a18 l       .debug_str	00000000 
00000a20 l       .debug_str	00000000 
00000a37 l       .debug_str	00000000 
00000a91 l       .debug_str	00000000 
00000af3 l       .debug_str	00000000 
00000afe l       .debug_str	00000000 
00000b45 l       .debug_str	00000000 
00000b94 l       .debug_str	00000000 
00000b9e l       .debug_str	00000000 
00000bdb l       .debug_str	00000000 
00000c20 l       .debug_str	00000000 
00000c29 l       .debug_str	00000000 
00000c39 l       .debug_str	00000000 
00000c41 l       .debug_str	00000000 
00000c96 l       .debug_str	00000000 
00000cf3 l       .debug_str	00000000 
00000cff l       .debug_str	00000000 
00000d08 l       .debug_str	00000000 
00000d14 l       .debug_str	00000000 
00000d20 l       .debug_str	00000000 
00000d29 l       .debug_str	00000000 
00000d31 l       .debug_str	00000000 
00000d39 l       .debug_str	00000000 
00000d43 l       .debug_str	00000000 
00000d58 l       .debug_str	00000000 
00000d5f l       .debug_str	00000000 
00000d7f l       .debug_str	00000000 
00000d86 l       .debug_str	00000000 
00000d8e l       .debug_str	00000000 
00000d98 l       .debug_str	00000000 
00000da3 l       .debug_str	00000000 
00000dac l       .debug_str	00000000 
00000db7 l       .debug_str	00000000 
00000dc3 l       .debug_str	00000000 
00000dc7 l       .debug_str	00000000 
00000dd0 l       .debug_str	00000000 
00000dd7 l       .debug_str	00000000 
00000ddf l       .debug_str	00000000 
00000de7 l       .debug_str	00000000 
00000df1 l       .debug_str	00000000 
00000df7 l       .debug_str	00000000 
00000dfe l       .debug_str	00000000 
00000e05 l       .debug_str	00000000 
00000e32 l       .debug_str	00000000 
00000e67 l       .debug_str	00000000 
00000e6d l       .debug_str	00000000 
00000e73 l       .debug_str	00000000 
00000e82 l       .debug_str	00000000 
00000e92 l       .debug_str	00000000 
00000ea2 l       .debug_str	00000000 
00000eaa l       .debug_str	00000000 
00000ed3 l       .debug_str	00000000 
00000f31 l       .debug_str	00000000 
00000f97 l       .debug_str	00000000 
00000f9e l       .debug_str	00000000 
00000fa6 l       .debug_str	00000000 
00000faf l       .debug_str	00000000 
00000fcd l       .debug_str	00000000 
00000fdd l       .debug_str	00000000 
00000feb l       .debug_str	00000000 
00000ff6 l       .debug_str	00000000 
00001003 l       .debug_str	00000000 
00001012 l       .debug_str	00000000 
00001028 l       .debug_str	00000000 
00001032 l       .debug_str	00000000 
0000103b l       .debug_str	00000000 
00001044 l       .debug_str	00000000 
0000106a l       .debug_str	00000000 
00001080 l       .debug_str	00000000 
0000108b l       .debug_str	00000000 
000010a1 l       .debug_str	00000000 
000010a9 l       .debug_str	00000000 
000010ca l       .debug_str	00000000 
000010e1 l       .debug_str	00000000 
000010e6 l       .debug_str	00000000 
000010ee l       .debug_str	00000000 
000010f7 l       .debug_str	00000000 
00001100 l       .debug_str	00000000 
00001109 l       .debug_str	00000000 
00001111 l       .debug_str	00000000 
00001115 l       .debug_str	00000000 
0000111c l       .debug_str	00000000 
00001128 l       .debug_str	00000000 
00001133 l       .debug_str	00000000 
0000113b l       .debug_str	00000000 
00001143 l       .debug_str	00000000 
000011bf l       .debug_str	00000000 
00001243 l       .debug_str	00000000 
0000133f l       .debug_str	00000000 
00001443 l       .debug_str	00000000 
00001451 l       .debug_str	00000000 
0000145c l       .debug_str	00000000 
00001466 l       .debug_str	00000000 
00001471 l       .debug_str	00000000 
0000149f l       .debug_str	00000000 
0000151a l       .debug_str	00000000 
0000159d l       .debug_str	00000000 
000015ab l       .debug_str	00000000 
0000160a l       .debug_str	00000000 
00001671 l       .debug_str	00000000 
00001687 l       .debug_str	00000000 
00001697 l       .debug_str	00000000 
000016a6 l       .debug_str	00000000 
000016aa l       .debug_str	00000000 
000016b0 l       .debug_str	00000000 
000016b6 l       .debug_str	00000000 
000016bc l       .debug_str	00000000 
000016c8 l       .debug_str	00000000 
000016d0 l       .debug_str	00000000 
000016d8 l       .debug_str	00000000 
000016de l       .debug_str	00000000 
00001701 l       .debug_str	00000000 
00001711 l       .debug_str	00000000 
00001744 l       .debug_str	00000000 
00001784 l       .debug_str	00000000 
000017cc l       .debug_str	00000000 
000017d0 l       .debug_str	00000000 
000017d6 l       .debug_str	00000000 
000017dc l       .debug_str	00000000 
000017e2 l       .debug_str	00000000 
000017f4 l       .debug_str	00000000 
00001829 l       .debug_str	00000000 
0000186b l       .debug_str	00000000 
000018b5 l       .debug_str	00000000 
000018b9 l       .debug_str	00000000 
000018bf l       .debug_str	00000000 
000018c5 l       .debug_str	00000000 
000018cb l       .debug_str	00000000 
000018dd l       .debug_str	00000000 
00001912 l       .debug_str	00000000 
00001954 l       .debug_str	00000000 
0000199e l       .debug_str	00000000 
000019a2 l       .debug_str	00000000 
000019a8 l       .debug_str	00000000 
000019ae l       .debug_str	00000000 
000019b4 l       .debug_str	00000000 
000019ba l       .debug_str	00000000 
000019cb l       .debug_str	00000000 
000019ff l       .debug_str	00000000 
00001a40 l       .debug_str	00000000 
00001a89 l       .debug_str	00000000 
00001a8e l       .debug_str	00000000 
00001a93 l       .debug_str	00000000 
00001a97 l       .debug_str	00000000 
00001a9d l       .debug_str	00000000 
00001aa3 l       .debug_str	00000000 
00001aa9 l       .debug_str	00000000 
00001aba l       .debug_str	00000000 
00001aee l       .debug_str	00000000 
00001b2f l       .debug_str	00000000 
00001b78 l       .debug_str	00000000 
00001b7c l       .debug_str	00000000 
00001b85 l       .debug_str	00000000 
00001b96 l       .debug_str	00000000 
00001bca l       .debug_str	00000000 
00001c0b l       .debug_str	00000000 
00001c54 l       .debug_str	00000000 
00001c59 l       .debug_str	00000000 
00001c5d l       .debug_str	00000000 
00001c66 l       .debug_str	00000000 
00001c6d l       .debug_str	00000000 
00001c75 l       .debug_str	00000000 
00001c87 l       .debug_str	00000000 
00001cbc l       .debug_str	00000000 
00001cfe l       .debug_str	00000000 
00001d48 l       .debug_str	00000000 
00001d4c l       .debug_str	00000000 
00001d52 l       .debug_str	00000000 
00001d58 l       .debug_str	00000000 
00001d5e l       .debug_str	00000000 
00001d64 l       .debug_str	00000000 
00001d6c l       .debug_str	00000000 
00001d7a l       .debug_str	00000000 
00001d89 l       .debug_str	00000000 
00001d9a l       .debug_str	00000000 
00001da5 l       .debug_str	00000000 
00001db0 l       .debug_str	00000000 
00001dbb l       .debug_str	00000000 
00001dc2 l       .debug_str	00000000 
00001de5 l       .debug_str	00000000 
00001df7 l       .debug_str	00000000 
00001e2c l       .debug_str	00000000 
00001e6e l       .debug_str	00000000 
00001eb8 l       .debug_str	00000000 
00001ebc l       .debug_str	00000000 
00001ec6 l       .debug_str	00000000 
00001ed8 l       .debug_str	00000000 
00001f0d l       .debug_str	00000000 
00001f4f l       .debug_str	00000000 
00001f99 l       .debug_str	00000000 
00001f9e l       .debug_str	00000000 
00001fa8 l       .debug_str	00000000 
00001fba l       .debug_str	00000000 
00001fef l       .debug_str	00000000 
00002031 l       .debug_str	00000000 
0000207b l       .debug_str	00000000 
0000208f l       .debug_str	00000000 
0000209d l       .debug_str	00000000 
000020ad l       .debug_str	00000000 
000020b6 l       .debug_str	00000000 
000020c1 l       .debug_str	00000000 
000020d0 l       .debug_str	00000000 
000020e5 l       .debug_str	00000000 
00002116 l       .debug_str	00000000 
000021b3 l       .debug_str	00000000 
00002258 l       .debug_str	00000000 
00002263 l       .debug_str	00000000 
0000226c l       .debug_str	00000000 
0000228d l       .debug_str	00000000 
000022a0 l       .debug_str	00000000 
000022d6 l       .debug_str	00000000 
00002359 l       .debug_str	00000000 
000023e4 l       .debug_str	00000000 
00002400 l       .debug_str	00000000 
0000244c l       .debug_str	00000000 
000024a0 l       .debug_str	00000000 
000024bd l       .debug_str	00000000 
000024d1 l       .debug_str	00000000 
0000251d l       .debug_str	00000000 
00002571 l       .debug_str	00000000 
00002587 l       .debug_str	00000000 
0000259b l       .debug_str	00000000 
000025e2 l       .debug_str	00000000 
00002631 l       .debug_str	00000000 
0000263a l       .debug_str	00000000 
00002648 l       .debug_str	00000000 
00002679 l       .debug_str	00000000 
0000267f l       .debug_str	00000000 
00002687 l       .debug_str	00000000 
0000268e l       .debug_str	00000000 
00002696 l       .debug_str	00000000 
000026a1 l       .debug_str	00000000 
000026a9 l       .debug_str	00000000 
000026b8 l       .debug_str	00000000 
000026bc l       .debug_str	00000000 
000026c7 l       .debug_str	00000000 
000026d3 l       .debug_str	00000000 
000026de l       .debug_str	00000000 
000026ef l       .debug_str	00000000 
000026f5 l       .debug_str	00000000 
000026fd l       .debug_str	00000000 
00002704 l       .debug_str	00000000 
0000270e l       .debug_str	00000000 
00002716 l       .debug_str	00000000 
0000271e l       .debug_str	00000000 
00002740 l       .debug_str	00000000 
0000274b l       .debug_str	00000000 
00002757 l       .debug_str	00000000 
0000275f l       .debug_str	00000000 
00002768 l       .debug_str	00000000 
00002773 l       .debug_str	00000000 
0000277a l       .debug_str	00000000 
00002785 l       .debug_str	00000000 
00002790 l       .debug_str	00000000 
000027a0 l       .debug_str	00000000 
000027aa l       .debug_str	00000000 
000027b0 l       .debug_str	00000000 
000027d2 l       .debug_str	00000000 
0000280a l       .debug_str	00000000 
0000284a l       .debug_str	00000000 
00002851 l       .debug_str	00000000 
00002859 l       .debug_str	00000000 
00002870 l       .debug_str	00000000 
00002879 l       .debug_str	00000000 
00002889 l       .debug_str	00000000 
00002898 l       .debug_str	00000000 
000028a0 l       .debug_str	00000000 
000028a7 l       .debug_str	00000000 
000028af l       .debug_str	00000000 
000028cd l       .debug_str	00000000 
000028dd l       .debug_str	00000000 
00002910 l       .debug_str	00000000 
00002925 l       .debug_str	00000000 
0000292e l       .debug_str	00000000 
0000298b l       .debug_str	00000000 
000029f0 l       .debug_str	00000000 
000029fa l       .debug_str	00000000 
00002a0a l       .debug_str	00000000 
00002a1f l       .debug_str	00000000 
00002a27 l       .debug_str	00000000 
00002a8b l       .debug_str	00000000 
00002af7 l       .debug_str	00000000 
00002afe l       .debug_str	00000000 
00002b06 l       .debug_str	00000000 
00002b24 l       .debug_str	00000000 
00002b34 l       .debug_str	00000000 
00002b67 l       .debug_str	00000000 
00002b7c l       .debug_str	00000000 
00002b8f l       .debug_str	00000000 
00002ba4 l       .debug_str	00000000 
00002bab l       .debug_str	00000000 
00002bc0 l       .debug_str	00000000 
00002bea l       .debug_str	00000000 
00002bf3 l       .debug_str	00000000 
00002c25 l       .debug_str	00000000 
00002c61 l       .debug_str	00000000 
00002c93 l       .debug_str	00000000 
00002c97 l       .debug_str	00000000 
00002d07 l       .debug_str	00000000 
00002d5e l       .debug_str	00000000 
00002db1 l       .debug_str	00000000 
00002df1 l       .debug_str	00000000 
00002e18 l       .debug_str	00000000 
00002e1a l       .debug_str	00000000 
00002e1c l       .debug_str	00000000 
00002e26 l       .debug_str	00000000 
00002e2f l       .debug_str	00000000 
00002e38 l       .debug_str	00000000 
00002e43 l       .debug_str	00000000 
00002e4d l       .debug_str	00000000 
00002e74 l       .debug_str	00000000 
00002e8c l       .debug_str	00000000 
00002e96 l       .debug_str	00000000 
00002eb9 l       .debug_str	00000000 
00002f01 l       .debug_str	00000000 
00002f41 l       .debug_str	00000000 
00002f88 l       .debug_str	00000000 
00002f91 l       .debug_str	00000000 
00002f95 l       .debug_str	00000000 
00002fbf l       .debug_str	00000000 
00002fc4 l       .debug_str	00000000 
00002fc7 l       .debug_str	00000000 
00003011 l       .debug_str	00000000 
0000301a l       .debug_str	00000000 
0000304d l       .debug_str	00000000 
00003078 l       .debug_str	00000000 
0000307a l       .debug_str	00000000 
000030ba l       .debug_str	00000000 
000030d0 l       .debug_str	00000000 
000030d5 l       .debug_str	00000000 
000030e7 l       .debug_str	00000000 
000030ed l       .debug_str	00000000 
000030f3 l       .debug_str	00000000 
000030f5 l       .debug_str	00000000 
000030fb l       .debug_str	00000000 
00003108 l       .debug_str	00000000 
00003117 l       .debug_str	00000000 
0000311c l       .debug_str	00000000 
00003124 l       .debug_str	00000000 
00003128 l       .debug_str	00000000 
0000312d l       .debug_str	00000000 
00000000 l     O .rodata..Lanon.3ed011473997af99b525cde47c9eaaac.0	00000000 .Lanon.3ed011473997af99b525cde47c9eaaac.0
00000000 l     O .rodata..Lanon.3ed011473997af99b525cde47c9eaaac.1	00000002 .Lanon.3ed011473997af99b525cde47c9eaaac.1
00000000 l     O .rodata..Lanon.3ed011473997af99b525cde47c9eaaac.10	00000001 .Lanon.3ed011473997af99b525cde47c9eaaac.10
00000000 l     O .rodata..Lanon.3ed011473997af99b525cde47c9eaaac.11	00000001 .Lanon.3ed011473997af99b525cde47c9eaaac.11
00000000 l     O .rodata..Lanon.3ed011473997af99b525cde47c9eaaac.12	00000007 .Lanon.3ed011473997af99b525cde47c9eaaac.12
00000000 l     O .rodata..Lanon.3ed011473997af99b525cde47c9eaaac.13	0000000d .Lanon.3ed011473997af99b525cde47c9eaaac.13
00000000 l     O .rodata..Lanon.3ed011473997af99b525cde47c9eaaac.14	00000003 .Lanon.3ed011473997af99b525cde47c9eaaac.14
00000000 l     O .rodata..Lanon.3ed011473997af99b525cde47c9eaaac.15	00000005 .Lanon.3ed011473997af99b525cde47c9eaaac.15
00000000 l     O .rodata.cst4	00000004 .Lanon.3ed011473997af99b525cde47c9eaaac.16
00000004 l     O .rodata.cst4	00000004 .Lanon.3ed011473997af99b525cde47c9eaaac.17
00000000 l     O .rodata..Lanon.3ed011473997af99b525cde47c9eaaac.18	00000005 .Lanon.3ed011473997af99b525cde47c9eaaac.18
00000008 l     O .rodata.cst4	00000004 .Lanon.3ed011473997af99b525cde47c9eaaac.19
00000000 l     O .rodata..Lanon.3ed011473997af99b525cde47c9eaaac.2	00000010 .Lanon.3ed011473997af99b525cde47c9eaaac.2
00000000 l     O .rodata..Lanon.3ed011473997af99b525cde47c9eaaac.20	00000007 .Lanon.3ed011473997af99b525cde47c9eaaac.20
00000000 l     O .rodata..Lanon.3ed011473997af99b525cde47c9eaaac.21	00000006 .Lanon.3ed011473997af99b525cde47c9eaaac.21
00000000 l     O .rodata..Lanon.3ed011473997af99b525cde47c9eaaac.22	00000048 .Lanon.3ed011473997af99b525cde47c9eaaac.22
00000000 l     O .rodata..Lanon.3ed011473997af99b525cde47c9eaaac.23	0000000c .Lanon.3ed011473997af99b525cde47c9eaaac.23
00000000 l     O .rodata..Lanon.3ed011473997af99b525cde47c9eaaac.24	0000000e .Lanon.3ed011473997af99b525cde47c9eaaac.24
00000000 l     O .rodata..Lanon.3ed011473997af99b525cde47c9eaaac.25	00000006 .Lanon.3ed011473997af99b525cde47c9eaaac.25
00000000 l     O .rodata..Lanon.3ed011473997af99b525cde47c9eaaac.26	00000002 .Lanon.3ed011473997af99b525cde47c9eaaac.26
00000000 l     O .rodata..Lanon.3ed011473997af99b525cde47c9eaaac.27	0000000c .Lanon.3ed011473997af99b525cde47c9eaaac.27
00000000 l     O .rodata.cst8	00000008 .Lanon.3ed011473997af99b525cde47c9eaaac.28
00000008 l     O .rodata.cst8	00000008 .Lanon.3ed011473997af99b525cde47c9eaaac.29
00000000 l     O .rodata..Lanon.3ed011473997af99b525cde47c9eaaac.3	00000015 .Lanon.3ed011473997af99b525cde47c9eaaac.3
00000000 l     O .rodata..Lanon.3ed011473997af99b525cde47c9eaaac.30	00000013 .Lanon.3ed011473997af99b525cde47c9eaaac.30
00000000 l     O .rodata..Lanon.3ed011473997af99b525cde47c9eaaac.31	00000018 .Lanon.3ed011473997af99b525cde47c9eaaac.31
00000010 l     O .rodata.cst8	00000008 .Lanon.3ed011473997af99b525cde47c9eaaac.32
00000018 l     O .rodata.cst8	00000008 .Lanon.3ed011473997af99b525cde47c9eaaac.33
00000000 l     O .rodata..Lanon.3ed011473997af99b525cde47c9eaaac.34	00000006 .Lanon.3ed011473997af99b525cde47c9eaaac.34
00000000 l     O .rodata..Lanon.3ed011473997af99b525cde47c9eaaac.35	00000007 .Lanon.3ed011473997af99b525cde47c9eaaac.35
00000000 l     O .rodata..Lanon.3ed011473997af99b525cde47c9eaaac.36	00000003 .Lanon.3ed011473997af99b525cde47c9eaaac.36
00000000 l     O .rodata..Lanon.3ed011473997af99b525cde47c9eaaac.37	00000006 .Lanon.3ed011473997af99b525cde47c9eaaac.37
00000000 l     O .rodata..Lanon.3ed011473997af99b525cde47c9eaaac.4	00000010 .Lanon.3ed011473997af99b525cde47c9eaaac.4
00000000 l     O .rodata..Lanon.3ed011473997af99b525cde47c9eaaac.5	00000013 .Lanon.3ed011473997af99b525cde47c9eaaac.5
00000000 l     O .rodata..Lanon.3ed011473997af99b525cde47c9eaaac.6	00000056 .Lanon.3ed011473997af99b525cde47c9eaaac.6
00000000 l     O .rodata..Lanon.3ed011473997af99b525cde47c9eaaac.7	00000018 .Lanon.3ed011473997af99b525cde47c9eaaac.7
00000000 l     O .rodata..Lanon.3ed011473997af99b525cde47c9eaaac.8	00000017 .Lanon.3ed011473997af99b525cde47c9eaaac.8
00000000 l     O .rodata..Lanon.3ed011473997af99b525cde47c9eaaac.9	00000001 .Lanon.3ed011473997af99b525cde47c9eaaac.9
00000000 l       .debug_line	00000000 .Lline_table_start0
00000000 l     O .rodata._ZN3app10app_sensor13SENSOR_DEVICE17hf7071d50e0c44316E	0000000c app::app_sensor::SENSOR_DEVICE
00000000 l     O .bss._ZN3app11app_network19CURRENT_GEOLOCATION17h3b985aea7df51bf5E	00000020 app::app_network::CURRENT_GEOLOCATION
00000000 l     F .text._ZN3app11app_network21aggregate_sensor_data17h16bb200023b7761eE	00000450 app::app_network::aggregate_sensor_data
00000000 l     F .text._ZN44_$LT$$RF$T$u20$as$u20$core..fmt..Display$GT$3fmt17had15619c85373ca3E	0000000e <&T as core::fmt::Display>::fmt
00000000 l     F .text._ZN4core6result13unwrap_failed17h3314c9605742429cE	00000058 core::result::unwrap_failed
00000000 l    d  .debug_abbrev	00000000 .debug_abbrev
00000000         *UND*	00000000 <str as core::fmt::Display>::fmt
00000000         *UND*	00000000 core::panic::Location::file
00000000         *UND*	00000000 core::panic::Location::line
00000000         *UND*	00000000 core::panic::PanicInfo::location
00000000         *UND*	00000000 core::option::expect_failed
00000000         *UND*	00000000 core::panicking::panic
00000000         *UND*	00000000 core::panicking::panic_fmt
00000000         *UND*	00000000 <mynewt::result::MynewtError as core::fmt::Debug>::fmt
00000000         *UND*	00000000 mynewt::hw::sensor_mgr::find_bydevname
00000000         *UND*	00000000 mynewt::hw::sensor::register_listener
00000000         *UND*	00000000 mynewt::hw::sensor::new_sensor_listener
00000000         *UND*	00000000 mynewt::hw::sensor::bindings::set_poll_rate_ms
00000000         *UND*	00000000 mynewt::sys::console::print_strn
00000000         *UND*	00000000 mynewt::sys::console::flush
00000000         *UND*	00000000 mynewt::sys::console::print
00000000         *UND*	00000000 mynewt::sys::console::buffer
00000000         *UND*	00000000 mynewt::sys::console::printint
00000000         *UND*	00000000 mynewt::Strn::new
00000000         *UND*	00000000 mynewt::libs::sensor_network::prepare_post
00000000         *UND*	00000000 mynewt::libs::sensor_network::get_device_id
00000000         *UND*	00000000 mynewt::libs::sensor_network::do_server_post
00000000         *UND*	00000000 mynewt::libs::sensor_network::init_server_post
00000000         *UND*	00000000 mynewt::kernel::os::eventq_run
00000000         *UND*	00000000 mynewt::kernel::os::eventq_dflt_get
00000000         *UND*	00000000 mynewt::sysinit
00000000         *UND*	00000000 mynewt::encoding::coap_context::CoapContext::key_to_cstr
00000000         *UND*	00000000 mynewt::encoding::coap_context::CoapContext::to_void_ptr
00000000         *UND*	00000000 mynewt::encoding::coap_context::CoapContext::value_to_cstr
00000000         *UND*	00000000 mynewt::encoding::coap_context::CoapContext::json_set_geolocation
00000000         *UND*	00000000 mynewt::encoding::coap_context::CoapContext::json_set_text_string
00000000         *UND*	00000000 mynewt::encoding::coap_context::CoapContext::fail
00000000         *UND*	00000000 mynewt::encoding::coap_context::COAP_CONTEXT
00000000         *UND*	00000000 <str as mynewt::encoding::coap_context::ToBytesOptionalNull>::to_bytes_optional_nul
00000000         *UND*	00000000 <mynewt::Strn as mynewt::encoding::coap_context::ToBytesOptionalNull>::to_bytes_optional_nul
00000000         *UND*	00000000 <mynewt::hw::sensor_mgr::SensorsByDevname as core::iter::traits::iterator::Iterator>::next
00000000         *UND*	00000000 abort
00000000         *UND*	00000000 json_helper_close_array
00000000         *UND*	00000000 json_helper_object_array_end_item
00000000         *UND*	00000000 json_helper_object_array_start_item
00000000         *UND*	00000000 json_helper_set_array
00000000         *UND*	00000000 json_helper_set_int
00000000         *UND*	00000000 json_helper_set_text_string
00000000         *UND*	00000000 json_rep_end_root_object
00000000         *UND*	00000000 json_rep_start_root_object
00000000 g     F .text.main	00000192 main
00000000 g     F .text.rust_begin_unwind	000000bc rust_begin_unwind
00000000         *UND*	00000000 start_mesh



Disassembly of section .text._ZN44_$LT$$RF$T$u20$as$u20$core..fmt..Display$GT$3fmt17had15619c85373ca3E:

00000000 <<&T as core::fmt::Display>::fmt>:
_ZN44_$LT$$RF$T$u20$as$u20$core..fmt..Display$GT$3fmt17had15619c85373ca3E():
/rustc/50a0defd5a93523067ef239936cc2e0755220904/src/libcore/fmt/mod.rs:1914
   0:	862e                	mv	a2,a1
   2:	414c                	lw	a1,4(a0)
   4:	4108                	lw	a0,0(a0)
   6:	00000317          	auipc	t1,0x0
   a:	00030067          	jr	t1 # 6 <<&T as core::fmt::Display>::fmt+0x6>

Disassembly of section .text._ZN4core6result13unwrap_failed17h3314c9605742429cE:

00000000 <core::result::unwrap_failed>:
_ZN4core6result13unwrap_failed17h3314c9605742429cE():
/rustc/50a0defd5a93523067ef239936cc2e0755220904/src/libcore/result.rs:998
   0:	7139                	addi	sp,sp,-64
/rustc/50a0defd5a93523067ef239936cc2e0755220904/src/libcore/result.rs:1
   2:	de06                	sw	ra,60(sp)
   4:	4621                	li	a2,8
   6:	c232                	sw	a2,4(sp)
   8:	c02a                	sw	a0,0(sp)
   a:	c62e                	sw	a1,12(sp)
/rustc/50a0defd5a93523067ef239936cc2e0755220904/src/libcore/result.rs:999
   c:	00000537          	lui	a0,0x0
  10:	00050513          	mv	a0,a0
  14:	da2a                	sw	a0,52(sp)
  16:	0068                	addi	a0,sp,12
  18:	d82a                	sw	a0,48(sp)
  1a:	00000537          	lui	a0,0x0
  1e:	00050513          	mv	a0,a0
  22:	d62a                	sw	a0,44(sp)
  24:	850a                	mv	a0,sp
  26:	d42a                	sw	a0,40(sp)
  28:	1028                	addi	a0,sp,40
_ZN4core3fmt9Arguments6new_v117ha99294a9defa432aE():
/rustc/50a0defd5a93523067ef239936cc2e0755220904/src/libcore/fmt/mod.rs:316
  2a:	d02a                	sw	a0,32(sp)
  2c:	cc02                	sw	zero,24(sp)
  2e:	4509                	li	a0,2
  30:	d22a                	sw	a0,36(sp)
  32:	ca2a                	sw	a0,20(sp)
  34:	00000537          	lui	a0,0x0
  38:	00050513          	mv	a0,a0
  3c:	c82a                	sw	a0,16(sp)
_ZN4core6result13unwrap_failed17h3314c9605742429cE():
/rustc/50a0defd5a93523067ef239936cc2e0755220904/src/libcore/macros.rs:18
  3e:	00000537          	lui	a0,0x0
  42:	00050593          	mv	a1,a0
  46:	0808                	addi	a0,sp,16
  48:	00000097          	auipc	ra,0x0
  4c:	000080e7          	jalr	ra # 48 <core::result::unwrap_failed+0x48>
  50:	00000097          	auipc	ra,0x0
  54:	000080e7          	jalr	ra # 50 <core::result::unwrap_failed+0x50>

Disassembly of section .text._ZN3app11app_network21aggregate_sensor_data17h16bb200023b7761eE:

00000000 <app::app_network::aggregate_sensor_data>:
_ZN3app11app_network21aggregate_sensor_data17h16bb200023b7761eE():
/Users/Luppy/mynewt/stm32bluepill-mynewt-sensor/rust/app/src/app_network.rs:41
};
use mynewt_macros::strn;        //  Import Mynewt procedural macros

///  Aggregate the sensor value with other sensor data before transmitting to server.
///  If the sensor value is a GPS geolocation, we remember it and attach it to other sensor data for transmission.
pub fn aggregate_sensor_data(sensor_value: &SensorValue) -> MynewtResult<()>  {  //  Returns an error code upon error.
   0:	7151                	addi	sp,sp,-240
/Users/Luppy/mynewt/stm32bluepill-mynewt-sensor/rust/app/src/app_network.rs:1
/*
   2:	d786                	sw	ra,236(sp)
   4:	d5a6                	sw	s1,232(sp)
   6:	d3ca                	sw	s2,228(sp)
   8:	d1ce                	sw	s3,224(sp)
   a:	cfd2                	sw	s4,220(sp)
   c:	cdd6                	sw	s5,216(sp)
   e:	cbda                	sw	s6,212(sp)
  10:	c9de                	sw	s7,208(sp)
  12:	c7e2                	sw	s8,204(sp)
  14:	c5e6                	sw	s9,200(sp)
  16:	c3ea                	sw	s10,196(sp)
  18:	c1ee                	sw	s11,192(sp)
/Users/Luppy/mynewt/stm32bluepill-mynewt-sensor/rust/app/src/app_network.rs:42
    if let SensorValueType::Geolocation {..} = sensor_value.value {
  1a:	00052c03          	lw	s8,0(a0) # 0 <app::app_network::aggregate_sensor_data>
  1e:	458d                	li	a1,3
  20:	02bc1963          	bne	s8,a1,52 <app::app_network::aggregate_sensor_data+0x52>
  24:	000005b7          	lui	a1,0x0
  28:	00058613          	mv	a2,a1
/Users/Luppy/mynewt/stm32bluepill-mynewt-sensor/rust/app/src/app_network.rs:44
        //  If this is a geolocation, save the geolocation for later transmission.
        unsafe { CURRENT_GEOLOCATION = sensor_value.value };  //  Current geolocation is unsafe because it's a mutable static
  2c:	4d54                	lw	a3,28(a0)
  2e:	ce54                	sw	a3,28(a2)
  30:	4d14                	lw	a3,24(a0)
  32:	ce14                	sw	a3,24(a2)
  34:	4954                	lw	a3,20(a0)
  36:	ca54                	sw	a3,20(a2)
  38:	4914                	lw	a3,16(a0)
  3a:	ca14                	sw	a3,16(a2)
  3c:	4554                	lw	a3,12(a0)
  3e:	c654                	sw	a3,12(a2)
  40:	4514                	lw	a3,8(a0)
  42:	c614                	sw	a3,8(a2)
  44:	4154                	lw	a3,4(a0)
  46:	c254                	sw	a3,4(a2)
  48:	4108                	lw	a0,0(a0)
  4a:	00a5a023          	sw	a0,0(a1) # 0 <app::app_network::aggregate_sensor_data>
  4e:	4c85                	li	s9,1
  50:	a6cd                	j	432 <app::app_network::aggregate_sensor_data+0x432>
/Users/Luppy/mynewt/stm32bluepill-mynewt-sensor/rust/app/src/app_network.rs:48
        Ok(())
    } else {
        //  If this is temperature sensor data, attach the current geolocation to the sensor data for transmission.
        let transmit_value = SensorValue {
  52:	00452a83          	lw	s5,4(a0)
  56:	04052b03          	lw	s6,64(a0)
  5a:	450c                	lw	a1,8(a0)
  5c:	4910                	lw	a2,16(a0)
  5e:	4d14                	lw	a3,24(a0)
  60:	4558                	lw	a4,12(a0)
  62:	495c                	lw	a5,20(a0)
  64:	4d48                	lw	a0,28(a0)
  66:	00000837          	lui	a6,0x0
  6a:	00082483          	lw	s1,0(a6) # 0 <app::app_network::aggregate_sensor_data>
  6e:	d026                	sw	s1,32(sp)
  70:	ce2a                	sw	a0,28(sp)
  72:	ca3e                	sw	a5,20(sp)
  74:	c63a                	sw	a4,12(sp)
  76:	cc36                	sw	a3,24(sp)
  78:	c832                	sw	a2,16(sp)
  7a:	c42e                	sw	a1,8(sp)
  7c:	00080513          	mv	a0,a6
  80:	414c                	lw	a1,4(a0)
  82:	d22e                	sw	a1,36(sp)
  84:	450c                	lw	a1,8(a0)
  86:	d42e                	sw	a1,40(sp)
  88:	454c                	lw	a1,12(a0)
  8a:	d62e                	sw	a1,44(sp)
  8c:	490c                	lw	a1,16(a0)
  8e:	d82e                	sw	a1,48(sp)
  90:	494c                	lw	a1,20(a0)
  92:	da2e                	sw	a1,52(sp)
  94:	4d0c                	lw	a1,24(a0)
  96:	dc2e                	sw	a1,56(sp)
  98:	4d48                	lw	a0,28(a0)
  9a:	de2a                	sw	a0,60(sp)
_ZN3app11app_network16send_sensor_data17h7e29709a4e7008e6E():
/Users/Luppy/mynewt/stm32bluepill-mynewt-sensor/rust/app/src/app_network.rs:69
///   {"key":"t",      "value":1715, "geo": { "lat": ..., "long": ... }},
///   {"key":"device", "value":"0102030405060708090a0b0c0d0e0f10"}
/// ]}
/// ```
fn send_sensor_data(val: &SensorValue) -> MynewtResult<()>  {  //  Returns an error code upon error.
    console::print("Rust send_sensor_data: ");
  9c:	00000537          	lui	a0,0x0
  a0:	00050513          	mv	a0,a0
  a4:	45dd                	li	a1,23
  a6:	00000097          	auipc	ra,0x0
  aa:	000080e7          	jalr	ra # a6 <app::app_network::aggregate_sensor_data+0xa6>
  ae:	4c85                	li	s9,1
/Users/Luppy/mynewt/stm32bluepill-mynewt-sensor/rust/app/src/app_network.rs:70
    if let SensorValueType::Uint(i) = val.value {
  b0:	039c1563          	bne	s8,s9,da <app::app_network::aggregate_sensor_data+0xda>
/Users/Luppy/mynewt/stm32bluepill-mynewt-sensor/rust/app/src/app_network.rs:71
        console::print_strn(val.key);
  b4:	855a                	mv	a0,s6
  b6:	00000097          	auipc	ra,0x0
  ba:	000080e7          	jalr	ra # b6 <app::app_network::aggregate_sensor_data+0xb6>
/Users/Luppy/mynewt/stm32bluepill-mynewt-sensor/rust/app/src/app_network.rs:72
        console::print("=");
  be:	00000537          	lui	a0,0x0
  c2:	00050513          	mv	a0,a0
  c6:	4585                	li	a1,1
  c8:	00000097          	auipc	ra,0x0
  cc:	000080e7          	jalr	ra # c8 <app::app_network::aggregate_sensor_data+0xc8>
/Users/Luppy/mynewt/stm32bluepill-mynewt-sensor/rust/app/src/app_network.rs:73
        console::printint(i as i32);
  d0:	8556                	mv	a0,s5
  d2:	00000097          	auipc	ra,0x0
  d6:	000080e7          	jalr	ra # d2 <app::app_network::aggregate_sensor_data+0xd2>
/Users/Luppy/mynewt/stm32bluepill-mynewt-sensor/rust/app/src/app_network.rs:75
    }
    console::print("\n");
  da:	00000537          	lui	a0,0x0
  de:	00050913          	mv	s2,a0
  e2:	854a                	mv	a0,s2
  e4:	85e6                	mv	a1,s9
  e6:	00000097          	auipc	ra,0x0
  ea:	000080e7          	jalr	ra # e6 <app::app_network::aggregate_sensor_data+0xe6>
/Users/Luppy/mynewt/stm32bluepill-mynewt-sensor/rust/app/src/app_network.rs:76
    console::flush(); ////
  ee:	00000097          	auipc	ra,0x0
  f2:	000080e7          	jalr	ra # ee <app::app_network::aggregate_sensor_data+0xee>
  f6:	1108                	addi	a0,sp,160
/Users/Luppy/mynewt/stm32bluepill-mynewt-sensor/rust/app/src/app_network.rs:79

    //  Get a randomly-generated device ID that changes each time we restart the device.
    let device_id = sensor_network::get_device_id() ? ;
  f8:	00000097          	auipc	ra,0x0
  fc:	000080e7          	jalr	ra # f8 <app::app_network::aggregate_sensor_data+0xf8>
_ZN73_$LT$core..result..Result$LT$T$C$E$GT$$u20$as$u20$core..ops..try..Try$GT$11into_result17h0b03a3d48ad5c91eE():
/rustc/50a0defd5a93523067ef239936cc2e0755220904/src/libcore/result.rs:1283
 100:	551a                	lw	a0,164(sp)
 102:	558a                	lw	a1,160(sp)
_ZN3app11app_network16send_sensor_data17h7e29709a4e7008e6E():
/Users/Luppy/mynewt/stm32bluepill-mynewt-sensor/rust/app/src/app_network.rs:79
 104:	01959463          	bne	a1,s9,10c <app::app_network::aggregate_sensor_data+0x10c>
 108:	8caa                	mv	s9,a0
 10a:	a625                	j	432 <app::app_network::aggregate_sensor_data+0x432>
 10c:	55ba                	lw	a1,172(sp)
 10e:	562a                	lw	a2,168(sp)
 110:	c2b2                	sw	a2,68(sp)
 112:	c0aa                	sw	a0,64(sp)
 114:	c4ae                	sw	a1,72(sp)
/Users/Luppy/mynewt/stm32bluepill-mynewt-sensor/rust/app/src/app_network.rs:84

    //  Start composing the CoAP Server message with the sensor data in the payload.  This will 
    //  block other tasks from composing and posting CoAP messages (through a semaphore).
    //  We only have 1 memory buffer for composing CoAP messages so it needs to be locked.
    let rc = sensor_network::init_server_post( strn!(()) ) ? ;  //  `strn!(())` means use default CoAP URI in `syscfg.yml`
 116:	00000537          	lui	a0,0x0
 11a:	00050593          	mv	a1,a0
 11e:	0a010993          	addi	s3,sp,160
 122:	854e                	mv	a0,s3
 124:	8666                	mv	a2,s9
 126:	00000097          	auipc	ra,0x0
 12a:	000080e7          	jalr	ra # 126 <app::app_network::aggregate_sensor_data+0x126>
 12e:	0888                	addi	a0,sp,80
 130:	85ce                	mv	a1,s3
 132:	00000097          	auipc	ra,0x0
 136:	000080e7          	jalr	ra # 132 <app::app_network::aggregate_sensor_data+0x132>
_ZN73_$LT$core..result..Result$LT$T$C$E$GT$$u20$as$u20$core..ops..try..Try$GT$11into_result17h7a80aefbb9ef8741E():
/rustc/50a0defd5a93523067ef239936cc2e0755220904/src/libcore/result.rs:1283
 13a:	4546                	lw	a0,80(sp)
 13c:	0ff57593          	andi	a1,a0,255
_ZN3app11app_network16send_sensor_data17h7e29709a4e7008e6E():
/Users/Luppy/mynewt/stm32bluepill-mynewt-sensor/rust/app/src/app_network.rs:84
 140:	01959463          	bne	a1,s9,148 <app::app_network::aggregate_sensor_data+0x148>
 144:	4cd6                	lw	s9,84(sp)
 146:	a4f5                	j	432 <app::app_network::aggregate_sensor_data+0x432>
 148:	65c1                	lui	a1,0x10
 14a:	f0058593          	addi	a1,a1,-256 # ff00 <.Lanon.3ed011473997af99b525cde47c9eaaac.33+0xfee8>
 14e:	8d6d                	and	a0,a0,a1
/Users/Luppy/mynewt/stm32bluepill-mynewt-sensor/rust/app/src/app_network.rs:87

    //  If network transport not ready, tell caller (Sensor Listener) to try again later.
    if !rc { return Err(MynewtError::SYS_EAGAIN); }
 150:	1c050663          	beqz	a0,31c <app::app_network::aggregate_sensor_data+0x31c>
 154:	1108                	addi	a0,sp,160
 156:	03200593          	li	a1,50
/Users/Luppy/mynewt/stm32bluepill-mynewt-sensor/rust/app/src/app_network.rs:91

    //  Compose the CoAP Payload using the coap!() macro.
    //  Select @json or @cbor To encode CoAP Payload in JSON or CBOR format.
    let _payload = coap!( @json {        
 15a:	00000097          	auipc	ra,0x0
 15e:	000080e7          	jalr	ra # 15a <app::app_network::aggregate_sensor_data+0x15a>
_ZN73_$LT$core..result..Result$LT$T$C$E$GT$$u20$as$u20$core..ops..try..Try$GT$11into_result17h7a80aefbb9ef8741E():
/rustc/50a0defd5a93523067ef239936cc2e0755220904/src/libcore/result.rs:1283
 162:	0a014503          	lbu	a0,160(sp)
_ZN3app11app_network16send_sensor_data17h7e29709a4e7008e6E():
/Users/Luppy/mynewt/stm32bluepill-mynewt-sensor/rust/app/src/app_network.rs:91
 166:	29950f63          	beq	a0,s9,404 <app::app_network::aggregate_sensor_data+0x404>
 16a:	1004                	addi	s1,sp,32
 16c:	00000097          	auipc	ra,0x0
 170:	000080e7          	jalr	ra # 16c <app::app_network::aggregate_sensor_data+0x16c>
 174:	00000537          	lui	a0,0x0
 178:	00050993          	mv	s3,a0
 17c:	854e                	mv	a0,s3
 17e:	00000097          	auipc	ra,0x0
 182:	000080e7          	jalr	ra # 17e <app::app_network::aggregate_sensor_data+0x17e>
 186:	8baa                	mv	s7,a0
 188:	00000537          	lui	a0,0x0
 18c:	00050a13          	mv	s4,a0
 190:	461d                	li	a2,7
 192:	854e                	mv	a0,s3
 194:	85d2                	mv	a1,s4
 196:	00000097          	auipc	ra,0x0
 19a:	000080e7          	jalr	ra # 196 <app::app_network::aggregate_sensor_data+0x196>
 19e:	85aa                	mv	a1,a0
 1a0:	855e                	mv	a0,s7
 1a2:	00000097          	auipc	ra,0x0
 1a6:	000080e7          	jalr	ra # 1a2 <app::app_network::aggregate_sensor_data+0x1a2>
 1aa:	4cc8                	lw	a0,28(s1)
 1ac:	d6aa                	sw	a0,108(sp)
 1ae:	4c88                	lw	a0,24(s1)
 1b0:	d4aa                	sw	a0,104(sp)
 1b2:	48c8                	lw	a0,20(s1)
 1b4:	d2aa                	sw	a0,100(sp)
 1b6:	4888                	lw	a0,16(s1)
 1b8:	d0aa                	sw	a0,96(sp)
 1ba:	44c8                	lw	a0,12(s1)
 1bc:	ceaa                	sw	a0,92(sp)
 1be:	4488                	lw	a0,8(s1)
 1c0:	ccaa                	sw	a0,88(sp)
 1c2:	40c8                	lw	a0,4(s1)
 1c4:	caaa                	sw	a0,84(sp)
 1c6:	4088                	lw	a0,0(s1)
 1c8:	c8aa                	sw	a0,80(sp)
 1ca:	159c1b63          	bne	s8,s9,320 <app::app_network::aggregate_sensor_data+0x320>
 1ce:	00000537          	lui	a0,0x0
 1d2:	00050b93          	mv	s7,a0
 1d6:	4635                	li	a2,13
 1d8:	854e                	mv	a0,s3
 1da:	85de                	mv	a1,s7
 1dc:	00000097          	auipc	ra,0x0
 1e0:	000080e7          	jalr	ra # 1dc <app::app_network::aggregate_sensor_data+0x1dc>
 1e4:	00000097          	auipc	ra,0x0
 1e8:	000080e7          	jalr	ra # 1e4 <app::app_network::aggregate_sensor_data+0x1e4>
 1ec:	00000537          	lui	a0,0x0
 1f0:	00050513          	mv	a0,a0
 1f4:	458d                	li	a1,3
 1f6:	00000097          	auipc	ra,0x0
 1fa:	000080e7          	jalr	ra # 1f6 <app::app_network::aggregate_sensor_data+0x1f6>
 1fe:	84aa                	mv	s1,a0
 200:	8d2e                	mv	s10,a1
 202:	855a                	mv	a0,s6
 204:	00000097          	auipc	ra,0x0
 208:	000080e7          	jalr	ra # 204 <app::app_network::aggregate_sensor_data+0x204>
 20c:	8b2a                	mv	s6,a0
 20e:	8dae                	mv	s11,a1
 210:	854e                	mv	a0,s3
 212:	00000097          	auipc	ra,0x0
 216:	000080e7          	jalr	ra # 212 <app::app_network::aggregate_sensor_data+0x212>
 21a:	8c2a                	mv	s8,a0
 21c:	854e                	mv	a0,s3
 21e:	85a6                	mv	a1,s1
 220:	866a                	mv	a2,s10
 222:	00000097          	auipc	ra,0x0
 226:	000080e7          	jalr	ra # 222 <app::app_network::aggregate_sensor_data+0x222>
 22a:	84aa                	mv	s1,a0
 22c:	854e                	mv	a0,s3
 22e:	85da                	mv	a1,s6
 230:	866e                	mv	a2,s11
 232:	00000097          	auipc	ra,0x0
 236:	000080e7          	jalr	ra # 232 <app::app_network::aggregate_sensor_data+0x232>
 23a:	862a                	mv	a2,a0
 23c:	8562                	mv	a0,s8
 23e:	85a6                	mv	a1,s1
 240:	00000097          	auipc	ra,0x0
 244:	000080e7          	jalr	ra # 240 <app::app_network::aggregate_sensor_data+0x240>
 248:	00000537          	lui	a0,0x0
 24c:	00050513          	mv	a0,a0
 250:	4b15                	li	s6,5
 252:	85da                	mv	a1,s6
 254:	00000097          	auipc	ra,0x0
 258:	000080e7          	jalr	ra # 254 <app::app_network::aggregate_sensor_data+0x254>
 25c:	84aa                	mv	s1,a0
 25e:	8c2e                	mv	s8,a1
 260:	854e                	mv	a0,s3
 262:	00000097          	auipc	ra,0x0
 266:	000080e7          	jalr	ra # 262 <app::app_network::aggregate_sensor_data+0x262>
 26a:	8d2a                	mv	s10,a0
 26c:	854e                	mv	a0,s3
 26e:	85a6                	mv	a1,s1
 270:	8662                	mv	a2,s8
 272:	00000097          	auipc	ra,0x0
 276:	000080e7          	jalr	ra # 272 <app::app_network::aggregate_sensor_data+0x272>
 27a:	85aa                	mv	a1,a0
 27c:	856a                	mv	a0,s10
 27e:	8656                	mv	a2,s5
 280:	4681                	li	a3,0
 282:	00000097          	auipc	ra,0x0
 286:	000080e7          	jalr	ra # 282 <app::app_network::aggregate_sensor_data+0x282>
 28a:	00000537          	lui	a0,0x0
 28e:	00050593          	mv	a1,a0
 292:	07010a93          	addi	s5,sp,112
 296:	4491                	li	s1,4
 298:	8556                	mv	a0,s5
 29a:	8626                	mv	a2,s1
 29c:	00000097          	auipc	ra,0x0
 2a0:	000080e7          	jalr	ra # 29c <app::app_network::aggregate_sensor_data+0x29c>
 2a4:	00000537          	lui	a0,0x0
 2a8:	00050593          	mv	a1,a0
 2ac:	08010c13          	addi	s8,sp,128
 2b0:	8562                	mv	a0,s8
 2b2:	8626                	mv	a2,s1
 2b4:	00000097          	auipc	ra,0x0
 2b8:	000080e7          	jalr	ra # 2b4 <app::app_network::aggregate_sensor_data+0x2b4>
 2bc:	00000537          	lui	a0,0x0
 2c0:	00050593          	mv	a1,a0
 2c4:	0904                	addi	s1,sp,144
 2c6:	8526                	mv	a0,s1
 2c8:	865a                	mv	a2,s6
 2ca:	00000097          	auipc	ra,0x0
 2ce:	000080e7          	jalr	ra # 2ca <app::app_network::aggregate_sensor_data+0x2ca>
 2d2:	5536                	lw	a0,108(sp)
 2d4:	df2a                	sw	a0,188(sp)
 2d6:	5526                	lw	a0,104(sp)
 2d8:	dd2a                	sw	a0,184(sp)
 2da:	5516                	lw	a0,100(sp)
 2dc:	db2a                	sw	a0,180(sp)
 2de:	5506                	lw	a0,96(sp)
 2e0:	d92a                	sw	a0,176(sp)
 2e2:	4576                	lw	a0,92(sp)
 2e4:	d72a                	sw	a0,172(sp)
 2e6:	4566                	lw	a0,88(sp)
 2e8:	d52a                	sw	a0,168(sp)
 2ea:	4556                	lw	a0,84(sp)
 2ec:	d32a                	sw	a0,164(sp)
 2ee:	4546                	lw	a0,80(sp)
 2f0:	d12a                	sw	a0,160(sp)
 2f2:	1118                	addi	a4,sp,160
 2f4:	854e                	mv	a0,s3
 2f6:	85d6                	mv	a1,s5
 2f8:	8662                	mv	a2,s8
 2fa:	86a6                	mv	a3,s1
 2fc:	00000097          	auipc	ra,0x0
 300:	000080e7          	jalr	ra # 2fc <app::app_network::aggregate_sensor_data+0x2fc>
 304:	854e                	mv	a0,s3
 306:	85de                	mv	a1,s7
 308:	4635                	li	a2,13
 30a:	00000097          	auipc	ra,0x0
 30e:	000080e7          	jalr	ra # 30a <app::app_network::aggregate_sensor_data+0x30a>
 312:	00000097          	auipc	ra,0x0
 316:	000080e7          	jalr	ra # 312 <app::app_network::aggregate_sensor_data+0x312>
 31a:	a809                	j	32c <app::app_network::aggregate_sensor_data+0x32c>
 31c:	5ce9                	li	s9,-6
 31e:	aa11                	j	432 <app::app_network::aggregate_sensor_data+0x432>
 320:	4585                	li	a1,1
 322:	854e                	mv	a0,s3
 324:	00000097          	auipc	ra,0x0
 328:	000080e7          	jalr	ra # 324 <app::app_network::aggregate_sensor_data+0x324>
 32c:	00000537          	lui	a0,0x0
 330:	00050b93          	mv	s7,a0
 334:	4ab5                	li	s5,13
 336:	854e                	mv	a0,s3
 338:	85de                	mv	a1,s7
 33a:	8656                	mv	a2,s5
 33c:	00000097          	auipc	ra,0x0
 340:	000080e7          	jalr	ra # 33c <app::app_network::aggregate_sensor_data+0x33c>
 344:	00000097          	auipc	ra,0x0
 348:	000080e7          	jalr	ra # 344 <app::app_network::aggregate_sensor_data+0x344>
 34c:	00000537          	lui	a0,0x0
 350:	00050593          	mv	a1,a0
 354:	05010b13          	addi	s6,sp,80
 358:	4611                	li	a2,4
 35a:	855a                	mv	a0,s6
 35c:	00000097          	auipc	ra,0x0
 360:	000080e7          	jalr	ra # 35c <app::app_network::aggregate_sensor_data+0x35c>
 364:	00000537          	lui	a0,0x0
 368:	00050593          	mv	a1,a0
 36c:	1104                	addi	s1,sp,160
 36e:	4c1d                	li	s8,7
 370:	8526                	mv	a0,s1
 372:	8662                	mv	a2,s8
 374:	00000097          	auipc	ra,0x0
 378:	000080e7          	jalr	ra # 374 <app::app_network::aggregate_sensor_data+0x374>
 37c:	854e                	mv	a0,s3
 37e:	85da                	mv	a1,s6
 380:	8626                	mv	a2,s1
 382:	00000097          	auipc	ra,0x0
 386:	000080e7          	jalr	ra # 382 <app::app_network::aggregate_sensor_data+0x382>
 38a:	00000537          	lui	a0,0x0
 38e:	00050593          	mv	a1,a0
 392:	1104                	addi	s1,sp,160
 394:	4619                	li	a2,6
 396:	8526                	mv	a0,s1
 398:	00000097          	auipc	ra,0x0
 39c:	000080e7          	jalr	ra # 398 <app::app_network::aggregate_sensor_data+0x398>
 3a0:	0090                	addi	a2,sp,64
 3a2:	854e                	mv	a0,s3
 3a4:	85a6                	mv	a1,s1
 3a6:	00000097          	auipc	ra,0x0
 3aa:	000080e7          	jalr	ra # 3a6 <app::app_network::aggregate_sensor_data+0x3a6>
 3ae:	854e                	mv	a0,s3
 3b0:	85de                	mv	a1,s7
 3b2:	8656                	mv	a2,s5
 3b4:	00000097          	auipc	ra,0x0
 3b8:	000080e7          	jalr	ra # 3b4 <app::app_network::aggregate_sensor_data+0x3b4>
 3bc:	00000097          	auipc	ra,0x0
 3c0:	000080e7          	jalr	ra # 3bc <app::app_network::aggregate_sensor_data+0x3bc>
 3c4:	854e                	mv	a0,s3
 3c6:	00000097          	auipc	ra,0x0
 3ca:	000080e7          	jalr	ra # 3c6 <app::app_network::aggregate_sensor_data+0x3c6>
 3ce:	84aa                	mv	s1,a0
 3d0:	854e                	mv	a0,s3
 3d2:	85d2                	mv	a1,s4
 3d4:	8662                	mv	a2,s8
 3d6:	00000097          	auipc	ra,0x0
 3da:	000080e7          	jalr	ra # 3d6 <app::app_network::aggregate_sensor_data+0x3d6>
 3de:	85aa                	mv	a1,a0
 3e0:	8526                	mv	a0,s1
 3e2:	00000097          	auipc	ra,0x0
 3e6:	000080e7          	jalr	ra # 3e2 <app::app_network::aggregate_sensor_data+0x3e2>
 3ea:	00000097          	auipc	ra,0x0
 3ee:	000080e7          	jalr	ra # 3ea <app::app_network::aggregate_sensor_data+0x3ea>
 3f2:	1108                	addi	a0,sp,160
/Users/Luppy/mynewt/stm32bluepill-mynewt-sensor/rust/app/src/app_network.rs:106
    });

    //  Post the CoAP Server message to the CoAP Background Task for transmission.  After posting the
    //  message to the background task, we release a semaphore that unblocks other requests
    //  to compose and post CoAP messages.
    sensor_network::do_server_post() ? ;
 3f4:	00000097          	auipc	ra,0x0
 3f8:	000080e7          	jalr	ra # 3f4 <app::app_network::aggregate_sensor_data+0x3f4>
_ZN73_$LT$core..result..Result$LT$T$C$E$GT$$u20$as$u20$core..ops..try..Try$GT$11into_result17h7a80aefbb9ef8741E():
/rustc/50a0defd5a93523067ef239936cc2e0755220904/src/libcore/result.rs:1283
 3fc:	0a014503          	lbu	a0,160(sp)
_ZN3app11app_network16send_sensor_data17h7e29709a4e7008e6E():
/Users/Luppy/mynewt/stm32bluepill-mynewt-sensor/rust/app/src/app_network.rs:106
 400:	01951463          	bne	a0,s9,408 <app::app_network::aggregate_sensor_data+0x408>
 404:	5c9a                	lw	s9,164(sp)
 406:	a035                	j	432 <app::app_network::aggregate_sensor_data+0x432>
/Users/Luppy/mynewt/stm32bluepill-mynewt-sensor/rust/app/src/app_network.rs:109

    //  Display the URL with the random device ID for viewing the sensor data.
    console::print("NET view your sensor at \nhttps://blue-pill-geolocate.appspot.com?device=");
 408:	00000537          	lui	a0,0x0
 40c:	00050513          	mv	a0,a0
 410:	04800593          	li	a1,72
 414:	00000097          	auipc	ra,0x0
 418:	000080e7          	jalr	ra # 414 <app::app_network::aggregate_sensor_data+0x414>
 41c:	0088                	addi	a0,sp,64
/Users/Luppy/mynewt/stm32bluepill-mynewt-sensor/rust/app/src/app_network.rs:110
    console::print_strn(&device_id); console::print("\n");
 41e:	00000097          	auipc	ra,0x0
 422:	000080e7          	jalr	ra # 41e <app::app_network::aggregate_sensor_data+0x41e>
 426:	854a                	mv	a0,s2
 428:	85e6                	mv	a1,s9
 42a:	00000097          	auipc	ra,0x0
 42e:	000080e7          	jalr	ra # 42a <app::app_network::aggregate_sensor_data+0x42a>
_ZN3app11app_network21aggregate_sensor_data17h16bb200023b7761eE():
/Users/Luppy/mynewt/stm32bluepill-mynewt-sensor/rust/app/src/app_network.rs:55
}
 432:	8566                	mv	a0,s9
 434:	4d8e                	lw	s11,192(sp)
 436:	4d1e                	lw	s10,196(sp)
 438:	4cae                	lw	s9,200(sp)
 43a:	4c3e                	lw	s8,204(sp)
 43c:	4bce                	lw	s7,208(sp)
 43e:	4b5e                	lw	s6,212(sp)
 440:	4aee                	lw	s5,216(sp)
 442:	4a7e                	lw	s4,220(sp)
 444:	598e                	lw	s3,224(sp)
 446:	591e                	lw	s2,228(sp)
 448:	54ae                	lw	s1,232(sp)
 44a:	50be                	lw	ra,236(sp)
 44c:	616d                	addi	sp,sp,240
 44e:	8082                	ret

Disassembly of section .text.main:

00000000 <main>:
main():
/Users/Luppy/mynewt/stm32bluepill-mynewt-sensor/rust/app/src/lib.rs:50
};

///  Main program that initialises the sensor, network driver and starts reading and sending sensor data in the background.
///  main() will be called at Mynewt startup. It replaces the C version of the main() function.
#[no_mangle]                 //  Don't mangle the name "main"
extern "C" fn main() -> ! {  //  Declare extern "C" because it will be called by Mynewt
   0:	711d                	addi	sp,sp,-96
/Users/Luppy/mynewt/stm32bluepill-mynewt-sensor/rust/app/src/lib.rs:55
    //  Initialise the Mynewt packages and internal temperature sensor driver. Any startup
    //  functions defined in pkg.yml of our custom drivers and libraries will be called by 
    //  sysinit().  Here are the startup functions consolidated by Mynewt:
    //  bin/targets/nrf52_my_sensor/generated/src/nrf52_my_sensor-sysinit-app.c
    mynewt::sysinit();
   2:	ce86                	sw	ra,92(sp)
   4:	cca6                	sw	s1,88(sp)
   6:	caca                	sw	s2,84(sp)
   8:	c8ce                	sw	s3,80(sp)
   a:	00000097          	auipc	ra,0x0
   e:	000080e7          	jalr	ra # a <main+0xa>
_ZN3app10app_sensor21start_sensor_listener17h7401e0f6ca5bfdaaE():
/Users/Luppy/mynewt/stm32bluepill-mynewt-sensor/rust/app/src/app_sensor.rs:47
const TEMP_SENSOR_TYPE: sensor_type_t = sensor::SENSOR_TYPE_AMBIENT_TEMPERATURE_RAW;

///  Ask Mynewt to poll or read the temperature sensor and call `aggregate_sensor_data()`
///  Return `Ok()` if successful, else return `Err()` with `MynewtError` error code inside.
pub fn start_sensor_listener() -> MynewtResult<()>  {  //  Returns an error code upon error.
    console::print("Rust TMP poll\n");
  12:	00000537          	lui	a0,0x0
  16:	00050513          	mv	a0,a0
  1a:	45b9                	li	a1,14
  1c:	00000097          	auipc	ra,0x0
  20:	000080e7          	jalr	ra # 1c <main+0x1c>
/Users/Luppy/mynewt/stm32bluepill-mynewt-sensor/rust/app/src/app_sensor.rs:50

    //  Fetch the sensor by name.
    let sensor = sensor_mgr::find_bydevname(&SENSOR_DEVICE)
  24:	00000537          	lui	a0,0x0
  28:	00050493          	mv	s1,a0
  2c:	03010913          	addi	s2,sp,48
  30:	854a                	mv	a0,s2
  32:	85a6                	mv	a1,s1
  34:	00000097          	auipc	ra,0x0
  38:	000080e7          	jalr	ra # 34 <main+0x34>
  3c:	854a                	mv	a0,s2
  3e:	00000097          	auipc	ra,0x0
  42:	000080e7          	jalr	ra # 3e <main+0x3e>
_ZN4core6option15Option$LT$T$GT$6expect17hb32244d3bb0aaa35E():
/rustc/50a0defd5a93523067ef239936cc2e0755220904/src/libcore/option.rs:313
  46:	10050d63          	beqz	a0,160 <main+0x160>
_ZN3app10app_sensor21start_sensor_listener17h7401e0f6ca5bfdaaE():
  4a:	892e                	mv	s2,a1
  4c:	6509                	lui	a0,0x2
  4e:	71050593          	addi	a1,a0,1808 # 2710 <.Lanon.3ed011473997af99b525cde47c9eaaac.33+0x26f8>
/Users/Luppy/mynewt/stm32bluepill-mynewt-sensor/rust/app/src/app_sensor.rs:55
        .next()             //  Fetch the first sensor that matches
        .expect("no TMP");  //  Stop if no sensor found

    //  At power on, we ask Mynewt to poll our temperature sensor every 10 seconds.
    sensor::set_poll_rate_ms(&SENSOR_DEVICE, SENSOR_POLL_TIME) ? ;
  52:	8526                	mv	a0,s1
  54:	00000097          	auipc	ra,0x0
  58:	000080e7          	jalr	ra # 54 <main+0x54>
  5c:	4985                	li	s3,1
  5e:	0f351463          	bne	a0,s3,146 <main+0x146>
/Users/Luppy/mynewt/stm32bluepill-mynewt-sensor/rust/app/src/app_sensor.rs:58

    // Create a sensor listener that will call function `aggregate_sensor_data` after polling the sensor data
    let listener = sensor::new_sensor_listener(
  62:	00000537          	lui	a0,0x0
  66:	00050593          	mv	a1,a0
  6a:	00000537          	lui	a0,0x0
  6e:	00050713          	mv	a4,a0
  72:	1808                	addi	a0,sp,48
  74:	04000637          	lui	a2,0x4000
  78:	4681                	li	a3,0
  7a:	00000097          	auipc	ra,0x0
  7e:	000080e7          	jalr	ra # 7a <main+0x7a>
_ZN73_$LT$core..result..Result$LT$T$C$E$GT$$u20$as$u20$core..ops..try..Try$GT$11into_result17hf8c7a45045168ccfE():
/rustc/50a0defd5a93523067ef239936cc2e0755220904/src/libcore/result.rs:1283
  82:	5562                	lw	a0,56(sp)
  84:	cc2a                	sw	a0,24(sp)
  86:	5572                	lw	a0,60(sp)
  88:	ce2a                	sw	a0,28(sp)
  8a:	4506                	lw	a0,64(sp)
  8c:	d02a                	sw	a0,32(sp)
  8e:	4516                	lw	a0,68(sp)
  90:	d22a                	sw	a0,36(sp)
  92:	4526                	lw	a0,72(sp)
  94:	d42a                	sw	a0,40(sp)
  96:	4536                	lw	a0,76(sp)
  98:	d62a                	sw	a0,44(sp)
  9a:	5542                	lw	a0,48(sp)
_ZN3app10app_sensor21start_sensor_listener17h7401e0f6ca5bfdaaE():
/Users/Luppy/mynewt/stm32bluepill-mynewt-sensor/rust/app/src/app_sensor.rs:62
        &TEMP_SENSOR_KEY,   //  Transmit as field: `t`
        TEMP_SENSOR_TYPE,   //  Type of sensor data: Raw temperature (integer from 0 to 4095)
        app_network::aggregate_sensor_data  //  Call this function with the polled data: `aggregate_sensor_data`
    ) ? ;
  9c:	01351663          	bne	a0,s3,a8 <main+0xa8>
main():
  a0:	55d2                	lw	a1,52(sp)
_ZN4core6result19Result$LT$T$C$E$GT$6expect17h4181d780272b5615E():
/rustc/50a0defd5a93523067ef239936cc2e0755220904/src/libcore/result.rs:826
  a2:	05358363          	beq	a1,s3,e8 <main+0xe8>
  a6:	a04d                	j	148 <main+0x148>
_ZN3app10app_sensor21start_sensor_listener17h7401e0f6ca5bfdaaE():
/Users/Luppy/mynewt/stm32bluepill-mynewt-sensor/rust/app/src/app_sensor.rs:58
    let listener = sensor::new_sensor_listener(
  a8:	5532                	lw	a0,44(sp)
  aa:	ca2a                	sw	a0,20(sp)
  ac:	5522                	lw	a0,40(sp)
  ae:	c82a                	sw	a0,16(sp)
  b0:	5512                	lw	a0,36(sp)
  b2:	c62a                	sw	a0,12(sp)
  b4:	5502                	lw	a0,32(sp)
  b6:	c42a                	sw	a0,8(sp)
  b8:	4572                	lw	a0,28(sp)
  ba:	c22a                	sw	a0,4(sp)
  bc:	4562                	lw	a0,24(sp)
  be:	c02a                	sw	a0,0(sp)
/Users/Luppy/mynewt/stm32bluepill-mynewt-sensor/rust/app/src/app_sensor.rs:65

    //  Register the Listener Function to be called with the polled sensor data.
    sensor::register_listener(sensor, listener) ? ;  //  `?` means in case of error, return error now.
  c0:	4552                	lw	a0,20(sp)
  c2:	c2aa                	sw	a0,68(sp)
  c4:	4542                	lw	a0,16(sp)
  c6:	c0aa                	sw	a0,64(sp)
  c8:	4532                	lw	a0,12(sp)
  ca:	de2a                	sw	a0,60(sp)
  cc:	4522                	lw	a0,8(sp)
  ce:	dc2a                	sw	a0,56(sp)
  d0:	4512                	lw	a0,4(sp)
  d2:	da2a                	sw	a0,52(sp)
  d4:	4502                	lw	a0,0(sp)
  d6:	d82a                	sw	a0,48(sp)
  d8:	180c                	addi	a1,sp,48
  da:	854a                	mv	a0,s2
  dc:	00000097          	auipc	ra,0x0
  e0:	000080e7          	jalr	ra # dc <main+0xdc>
  e4:	07351163          	bne	a0,s3,146 <main+0x146>
main():
/Users/Luppy/mynewt/stm32bluepill-mynewt-sensor/rust/app/src/lib.rs:71
    //gps_sensor::start_gps_listener()
        //.expect("GPS fail");

    //  Start Bluetooth Mesh.  TODO: Create a safe wrapper for starting Bluetooth Mesh.
    extern { fn start_mesh() -> i32; }
    let rc = unsafe { start_mesh() };
  e8:	00000097          	auipc	ra,0x0
  ec:	000080e7          	jalr	ra # e8 <main+0xe8>
/Users/Luppy/mynewt/stm32bluepill-mynewt-sensor/rust/app/src/lib.rs:72
    assert!(rc == 0, "BLE fail");
  f0:	e549                	bnez	a0,17a <main+0x17a>
  f2:	1804                	addi	s1,sp,48
/Users/Luppy/mynewt/stm32bluepill-mynewt-sensor/rust/app/src/lib.rs:77

    //  Main event loop
    loop {                            //  Loop forever...
        os::eventq_run(               //  Processing events...
            os::eventq_dflt_get()     //  From default event queue.
  f4:	8526                	mv	a0,s1
  f6:	00000097          	auipc	ra,0x0
  fa:	000080e7          	jalr	ra # f6 <main+0xf6>
_ZN4core6result19Result$LT$T$C$E$GT$6expect17h02d401e7fe1e837aE():
/rustc/50a0defd5a93523067ef239936cc2e0755220904/src/libcore/result.rs:826
  fe:	5542                	lw	a0,48(sp)
 100:	03350663          	beq	a0,s3,12c <main+0x12c>
 104:	5552                	lw	a0,52(sp)
main():
/Users/Luppy/mynewt/stm32bluepill-mynewt-sensor/rust/app/src/lib.rs:76
        os::eventq_run(               //  Processing events...
 106:	00000097          	auipc	ra,0x0
 10a:	000080e7          	jalr	ra # 106 <main+0x106>
_ZN4core6result19Result$LT$T$C$E$GT$6expect17h4181d780272b5615E():
/rustc/50a0defd5a93523067ef239936cc2e0755220904/src/libcore/result.rs:826
 10e:	ff3503e3          	beq	a0,s3,f4 <main+0xf4>
main():
 112:	85aa                	mv	a1,a0
_ZN4core6result19Result$LT$T$C$E$GT$6expect17h4181d780272b5615E():
/rustc/50a0defd5a93523067ef239936cc2e0755220904/src/libcore/result.rs:827
 114:	00000537          	lui	a0,0x0
 118:	00050513          	mv	a0,a0
 11c:	00000097          	auipc	ra,0x0
 120:	000080e7          	jalr	ra # 11c <main+0x11c>
 124:	00000097          	auipc	ra,0x0
 128:	000080e7          	jalr	ra # 124 <main+0x124>
_ZN4core6result19Result$LT$T$C$E$GT$6expect17h02d401e7fe1e837aE():
/rustc/50a0defd5a93523067ef239936cc2e0755220904/src/libcore/result.rs:827
 12c:	55d2                	lw	a1,52(sp)
 12e:	00000537          	lui	a0,0x0
 132:	00050513          	mv	a0,a0
 136:	00000097          	auipc	ra,0x0
 13a:	000080e7          	jalr	ra # 136 <main+0x136>
 13e:	00000097          	auipc	ra,0x0
 142:	000080e7          	jalr	ra # 13e <main+0x13e>
main():
 146:	85aa                	mv	a1,a0
_ZN4core6result19Result$LT$T$C$E$GT$6expect17h4181d780272b5615E():
/rustc/50a0defd5a93523067ef239936cc2e0755220904/src/libcore/result.rs:827
 148:	00000537          	lui	a0,0x0
 14c:	00050513          	mv	a0,a0
 150:	00000097          	auipc	ra,0x0
 154:	000080e7          	jalr	ra # 150 <main+0x150>
 158:	00000097          	auipc	ra,0x0
 15c:	000080e7          	jalr	ra # 158 <main+0x158>
_ZN4core6option15Option$LT$T$GT$6expect17hb32244d3bb0aaa35E():
/rustc/50a0defd5a93523067ef239936cc2e0755220904/src/libcore/option.rs:314
 160:	00000537          	lui	a0,0x0
 164:	00050513          	mv	a0,a0
 168:	4599                	li	a1,6
 16a:	00000097          	auipc	ra,0x0
 16e:	000080e7          	jalr	ra # 16a <main+0x16a>
 172:	00000097          	auipc	ra,0x0
 176:	000080e7          	jalr	ra # 172 <main+0x172>
main():
/Users/Luppy/mynewt/stm32bluepill-mynewt-sensor/rust/app/src/lib.rs:72
    assert!(rc == 0, "BLE fail");
 17a:	00000537          	lui	a0,0x0
 17e:	00050513          	mv	a0,a0
 182:	00000097          	auipc	ra,0x0
 186:	000080e7          	jalr	ra # 182 <main+0x182>
 18a:	00000097          	auipc	ra,0x0
 18e:	000080e7          	jalr	ra # 18a <main+0x18a>

Disassembly of section .text.rust_begin_unwind:

00000000 <rust_begin_unwind>:
rust_begin_unwind():
/Users/Luppy/mynewt/stm32bluepill-mynewt-sensor/rust/app/src/lib.rs:86
    //  Never comes here
}

///  This function is called on panic, like an assertion failure. We display the filename and line number and pause in the debugger. From https://os.phil-opp.com/freestanding-rust-binary/
#[panic_handler]
fn panic(info: &PanicInfo) -> ! {
   0:	1141                	addi	sp,sp,-16
/Users/Luppy/mynewt/stm32bluepill-mynewt-sensor/rust/app/src/lib.rs:1
/*
   2:	c606                	sw	ra,12(sp)
   4:	c426                	sw	s1,8(sp)
   6:	c24a                	sw	s2,4(sp)
   8:	c04e                	sw	s3,0(sp)
   a:	84aa                	mv	s1,a0
/Users/Luppy/mynewt/stm32bluepill-mynewt-sensor/rust/app/src/lib.rs:88
    //  Display the filename and line number to the Semihosting Console.
    console::print("panic ");
   c:	00000537          	lui	a0,0x0
  10:	00050513          	mv	a0,a0
  14:	4599                	li	a1,6
  16:	00000097          	auipc	ra,0x0
  1a:	000080e7          	jalr	ra # 16 <rust_begin_unwind+0x16>
/Users/Luppy/mynewt/stm32bluepill-mynewt-sensor/rust/app/src/lib.rs:89
    if let Some(location) = info.location() {
  1e:	8526                	mv	a0,s1
  20:	00000097          	auipc	ra,0x0
  24:	000080e7          	jalr	ra # 20 <rust_begin_unwind+0x20>
  28:	e519                	bnez	a0,36 <rust_begin_unwind+0x36>
/Users/Luppy/mynewt/stm32bluepill-mynewt-sensor/rust/app/src/lib.rs:96
        let line = location.line();
        console::print("at ");       console::buffer(&file);
        console::print(" line ");    console::printint(line as i32);
        console::print("\n");        console::flush();
    } else {
        console::print("no loc\n");  console::flush();
  2a:	00000537          	lui	a0,0x0
  2e:	00050513          	mv	a0,a0
  32:	459d                	li	a1,7
  34:	a085                	j	94 <rust_begin_unwind+0x94>
  36:	84aa                	mv	s1,a0
/Users/Luppy/mynewt/stm32bluepill-mynewt-sensor/rust/app/src/lib.rs:90
        let file = location.file();
  38:	00000097          	auipc	ra,0x0
  3c:	000080e7          	jalr	ra # 38 <rust_begin_unwind+0x38>
  40:	892a                	mv	s2,a0
  42:	89ae                	mv	s3,a1
/Users/Luppy/mynewt/stm32bluepill-mynewt-sensor/rust/app/src/lib.rs:91
        let line = location.line();
  44:	8526                	mv	a0,s1
  46:	00000097          	auipc	ra,0x0
  4a:	000080e7          	jalr	ra # 46 <rust_begin_unwind+0x46>
  4e:	84aa                	mv	s1,a0
/Users/Luppy/mynewt/stm32bluepill-mynewt-sensor/rust/app/src/lib.rs:92
        console::print("at ");       console::buffer(&file);
  50:	00000537          	lui	a0,0x0
  54:	00050513          	mv	a0,a0
  58:	458d                	li	a1,3
  5a:	00000097          	auipc	ra,0x0
  5e:	000080e7          	jalr	ra # 5a <rust_begin_unwind+0x5a>
  62:	854a                	mv	a0,s2
  64:	85ce                	mv	a1,s3
  66:	00000097          	auipc	ra,0x0
  6a:	000080e7          	jalr	ra # 66 <rust_begin_unwind+0x66>
/Users/Luppy/mynewt/stm32bluepill-mynewt-sensor/rust/app/src/lib.rs:93
        console::print(" line ");    console::printint(line as i32);
  6e:	00000537          	lui	a0,0x0
  72:	00050513          	mv	a0,a0
  76:	4599                	li	a1,6
  78:	00000097          	auipc	ra,0x0
  7c:	000080e7          	jalr	ra # 78 <rust_begin_unwind+0x78>
  80:	8526                	mv	a0,s1
  82:	00000097          	auipc	ra,0x0
  86:	000080e7          	jalr	ra # 82 <rust_begin_unwind+0x82>
/Users/Luppy/mynewt/stm32bluepill-mynewt-sensor/rust/app/src/lib.rs:94
        console::print("\n");        console::flush();
  8a:	00000537          	lui	a0,0x0
  8e:	00050513          	mv	a0,a0
  92:	4585                	li	a1,1
  94:	00000097          	auipc	ra,0x0
  98:	000080e7          	jalr	ra # 94 <rust_begin_unwind+0x94>
  9c:	00000097          	auipc	ra,0x0
  a0:	000080e7          	jalr	ra # 9c <rust_begin_unwind+0x9c>
_ZN8cortex_m3asm4bkpt17hd87ff8015e6a1533E():
/Users/Luppy/mynewt/stm32bluepill-mynewt-sensor/<::core::macros::panic macros>:3
  a4:	00000537          	lui	a0,0x0
  a8:	00050513          	mv	a0,a0
  ac:	00000097          	auipc	ra,0x0
  b0:	000080e7          	jalr	ra # ac <rust_begin_unwind+0xac>
  b4:	00000097          	auipc	ra,0x0
  b8:	000080e7          	jalr	ra # b4 <rust_begin_unwind+0xb4>
riscv-none-embed-objdump: rust.metadata.bin: file format not recognized
riscv-none-embed-objdump: app-d0445c1fb25dc647.app.9uhxv32r-cgu.0.rcgu.bc.z: file format not recognized
