In archive target/thumbv7em-none-eabihf/debug/libapp.rlib:

app-b90ce02d7e477c3f.1av89fbqeepl6rg1.rcgu.o:     file format elf32-littlearm

SYMBOL TABLE:
00000000 l    df *ABS*	00000000 1av89fbqeepl6rg1
00001b5f l       .debug_str	00000000 
000023fe l       .debug_str	00000000 
00002405 l       .debug_str	00000000 
0000240d l       .debug_str	00000000 
0000242b l       .debug_str	00000000 
0000243b l       .debug_str	00000000 
0000246e l       .debug_str	00000000 
00002483 l       .debug_str	00000000 
00002496 l       .debug_str	00000000 
000024ab l       .debug_str	00000000 
000024b2 l       .debug_str	00000000 
000024c7 l       .debug_str	00000000 
000024f1 l       .debug_str	00000000 
000024f5 l       .debug_str	00000000 
000024fe l       .debug_str	00000000 
00000000 l       .debug_str	00000000 
00000041 l       .debug_str	00000000 
00000055 l       .debug_str	00000000 
00000085 l       .debug_str	00000000 
00000089 l       .debug_str	00000000 
00000094 l       .debug_str	00000000 
000000a2 l       .debug_str	00000000 
000000a9 l       .debug_str	00000000 
000000ad l       .debug_str	00000000 
000000b0 l       .debug_str	00000000 
000000b8 l       .debug_str	00000000 
000000bc l       .debug_str	00000000 
000000c5 l       .debug_str	00000000 
000000cf l       .debug_str	00000000 
000000d6 l       .debug_str	00000000 
000000dc l       .debug_str	00000000 
000000e2 l       .debug_str	00000000 
000000e7 l       .debug_str	00000000 
000000ef l       .debug_str	00000000 
000000f4 l       .debug_str	00000000 
0000012b l       .debug_str	00000000 
00000132 l       .debug_str	00000000 
00000136 l       .debug_str	00000000 
0000013e l       .debug_str	00000000 
00000149 l       .debug_str	00000000 
00000154 l       .debug_str	00000000 
00000161 l       .debug_str	00000000 
0000016c l       .debug_str	00000000 
00000174 l       .debug_str	00000000 
0000017f l       .debug_str	00000000 
0000018a l       .debug_str	00000000 
00000194 l       .debug_str	00000000 
0000019f l       .debug_str	00000000 
000001aa l       .debug_str	00000000 
000001b7 l       .debug_str	00000000 
000001c3 l       .debug_str	00000000 
000001d0 l       .debug_str	00000000 
000001de l       .debug_str	00000000 
000001e8 l       .debug_str	00000000 
000001f5 l       .debug_str	00000000 
00000201 l       .debug_str	00000000 
00000206 l       .debug_str	00000000 
0000020a l       .debug_str	00000000 
00000215 l       .debug_str	00000000 
00000220 l       .debug_str	00000000 
00000227 l       .debug_str	00000000 
00000266 l       .debug_str	00000000 
0000027c l       .debug_str	00000000 
00000280 l       .debug_str	00000000 
00000283 l       .debug_str	00000000 
00000286 l       .debug_str	00000000 
00000288 l       .debug_str	00000000 
0000028a l       .debug_str	00000000 
0000028e l       .debug_str	00000000 
000002b6 l       .debug_str	00000000 
000002bd l       .debug_str	00000000 
000002c0 l       .debug_str	00000000 
000002c9 l       .debug_str	00000000 
000002cf l       .debug_str	00000000 
000002d6 l       .debug_str	00000000 
000002d9 l       .debug_str	00000000 
000002e5 l       .debug_str	00000000 
000002ed l       .debug_str	00000000 
000002f4 l       .debug_str	00000000 
000002f9 l       .debug_str	00000000 
00000310 l       .debug_str	00000000 
0000036a l       .debug_str	00000000 
0000036f l       .debug_str	00000000 
000003d1 l       .debug_str	00000000 
000003dc l       .debug_str	00000000 
00000423 l       .debug_str	00000000 
00000472 l       .debug_str	00000000 
0000047c l       .debug_str	00000000 
000004b9 l       .debug_str	00000000 
000004fe l       .debug_str	00000000 
00000507 l       .debug_str	00000000 
00000517 l       .debug_str	00000000 
0000051f l       .debug_str	00000000 
00000574 l       .debug_str	00000000 
000005d1 l       .debug_str	00000000 
000005dd l       .debug_str	00000000 
000005e6 l       .debug_str	00000000 
000005f2 l       .debug_str	00000000 
000005fe l       .debug_str	00000000 
00000607 l       .debug_str	00000000 
0000060f l       .debug_str	00000000 
00000617 l       .debug_str	00000000 
00000621 l       .debug_str	00000000 
00000636 l       .debug_str	00000000 
0000063d l       .debug_str	00000000 
0000065d l       .debug_str	00000000 
00000664 l       .debug_str	00000000 
0000066c l       .debug_str	00000000 
00000676 l       .debug_str	00000000 
00000681 l       .debug_str	00000000 
0000068a l       .debug_str	00000000 
00000695 l       .debug_str	00000000 
000006a1 l       .debug_str	00000000 
000006a5 l       .debug_str	00000000 
000006ae l       .debug_str	00000000 
000006b5 l       .debug_str	00000000 
000006bd l       .debug_str	00000000 
000006c5 l       .debug_str	00000000 
000006cf l       .debug_str	00000000 
000006d5 l       .debug_str	00000000 
000006dc l       .debug_str	00000000 
000006e3 l       .debug_str	00000000 
00000710 l       .debug_str	00000000 
00000745 l       .debug_str	00000000 
0000074b l       .debug_str	00000000 
00000751 l       .debug_str	00000000 
00000760 l       .debug_str	00000000 
00000770 l       .debug_str	00000000 
00000780 l       .debug_str	00000000 
00000788 l       .debug_str	00000000 
000007b1 l       .debug_str	00000000 
0000080f l       .debug_str	00000000 
00000875 l       .debug_str	00000000 
0000087c l       .debug_str	00000000 
00000884 l       .debug_str	00000000 
0000088d l       .debug_str	00000000 
000008ab l       .debug_str	00000000 
000008bb l       .debug_str	00000000 
000008c9 l       .debug_str	00000000 
000008d4 l       .debug_str	00000000 
000008e1 l       .debug_str	00000000 
000008f0 l       .debug_str	00000000 
00000906 l       .debug_str	00000000 
00000910 l       .debug_str	00000000 
00000919 l       .debug_str	00000000 
00000922 l       .debug_str	00000000 
00000948 l       .debug_str	00000000 
0000095e l       .debug_str	00000000 
00000969 l       .debug_str	00000000 
0000097f l       .debug_str	00000000 
00000987 l       .debug_str	00000000 
000009a8 l       .debug_str	00000000 
000009bf l       .debug_str	00000000 
000009c4 l       .debug_str	00000000 
000009cc l       .debug_str	00000000 
000009d5 l       .debug_str	00000000 
000009de l       .debug_str	00000000 
000009e7 l       .debug_str	00000000 
000009ef l       .debug_str	00000000 
000009f3 l       .debug_str	00000000 
000009fa l       .debug_str	00000000 
00000a06 l       .debug_str	00000000 
00000a11 l       .debug_str	00000000 
00000a19 l       .debug_str	00000000 
00000a21 l       .debug_str	00000000 
00000a9d l       .debug_str	00000000 
00000b21 l       .debug_str	00000000 
00000c1d l       .debug_str	00000000 
00000d21 l       .debug_str	00000000 
00000d2f l       .debug_str	00000000 
00000d3a l       .debug_str	00000000 
00000d44 l       .debug_str	00000000 
00000d58 l       .debug_str	00000000 
00000d63 l       .debug_str	00000000 
00000d91 l       .debug_str	00000000 
00000e0c l       .debug_str	00000000 
00000e8f l       .debug_str	00000000 
00000e9d l       .debug_str	00000000 
00000efc l       .debug_str	00000000 
00000f63 l       .debug_str	00000000 
00000f79 l       .debug_str	00000000 
00000f89 l       .debug_str	00000000 
00000f98 l       .debug_str	00000000 
00000f9c l       .debug_str	00000000 
00000fa3 l       .debug_str	00000000 
00000fa9 l       .debug_str	00000000 
00000fad l       .debug_str	00000000 
00000fb3 l       .debug_str	00000000 
00000fb9 l       .debug_str	00000000 
00000fc5 l       .debug_str	00000000 
00000fcd l       .debug_str	00000000 
00000fd3 l       .debug_str	00000000 
00000fdb l       .debug_str	00000000 
00000fe1 l       .debug_str	00000000 
00001004 l       .debug_str	00000000 
00001014 l       .debug_str	00000000 
00001047 l       .debug_str	00000000 
00001087 l       .debug_str	00000000 
000010cf l       .debug_str	00000000 
000010d3 l       .debug_str	00000000 
000010d9 l       .debug_str	00000000 
000010df l       .debug_str	00000000 
000010e5 l       .debug_str	00000000 
000010f7 l       .debug_str	00000000 
0000112c l       .debug_str	00000000 
0000116e l       .debug_str	00000000 
000011b8 l       .debug_str	00000000 
000011bc l       .debug_str	00000000 
000011c2 l       .debug_str	00000000 
000011c8 l       .debug_str	00000000 
000011ce l       .debug_str	00000000 
000011e0 l       .debug_str	00000000 
00001215 l       .debug_str	00000000 
00001257 l       .debug_str	00000000 
000012a1 l       .debug_str	00000000 
000012a5 l       .debug_str	00000000 
000012ab l       .debug_str	00000000 
000012b1 l       .debug_str	00000000 
000012b7 l       .debug_str	00000000 
000012bd l       .debug_str	00000000 
000012ce l       .debug_str	00000000 
00001302 l       .debug_str	00000000 
00001343 l       .debug_str	00000000 
0000138c l       .debug_str	00000000 
00001391 l       .debug_str	00000000 
00001396 l       .debug_str	00000000 
0000139a l       .debug_str	00000000 
000013a0 l       .debug_str	00000000 
000013a6 l       .debug_str	00000000 
000013ac l       .debug_str	00000000 
000013bd l       .debug_str	00000000 
000013f1 l       .debug_str	00000000 
00001432 l       .debug_str	00000000 
0000147b l       .debug_str	00000000 
0000147f l       .debug_str	00000000 
00001488 l       .debug_str	00000000 
00001499 l       .debug_str	00000000 
000014cd l       .debug_str	00000000 
0000150e l       .debug_str	00000000 
00001557 l       .debug_str	00000000 
0000155c l       .debug_str	00000000 
00001560 l       .debug_str	00000000 
00001569 l       .debug_str	00000000 
00001570 l       .debug_str	00000000 
00001578 l       .debug_str	00000000 
0000158a l       .debug_str	00000000 
000015bf l       .debug_str	00000000 
00001601 l       .debug_str	00000000 
0000164b l       .debug_str	00000000 
0000164f l       .debug_str	00000000 
00001655 l       .debug_str	00000000 
0000165b l       .debug_str	00000000 
00001661 l       .debug_str	00000000 
00001667 l       .debug_str	00000000 
0000166f l       .debug_str	00000000 
0000167d l       .debug_str	00000000 
0000168c l       .debug_str	00000000 
0000169d l       .debug_str	00000000 
000016a8 l       .debug_str	00000000 
000016b3 l       .debug_str	00000000 
000016be l       .debug_str	00000000 
000016c5 l       .debug_str	00000000 
000016e8 l       .debug_str	00000000 
000016fa l       .debug_str	00000000 
0000172f l       .debug_str	00000000 
00001771 l       .debug_str	00000000 
000017bb l       .debug_str	00000000 
000017bf l       .debug_str	00000000 
000017c9 l       .debug_str	00000000 
000017db l       .debug_str	00000000 
00001810 l       .debug_str	00000000 
00001852 l       .debug_str	00000000 
0000189c l       .debug_str	00000000 
000018a1 l       .debug_str	00000000 
000018ab l       .debug_str	00000000 
000018bd l       .debug_str	00000000 
000018f2 l       .debug_str	00000000 
00001934 l       .debug_str	00000000 
0000197e l       .debug_str	00000000 
00001992 l       .debug_str	00000000 
00001996 l       .debug_str	00000000 
000019a4 l       .debug_str	00000000 
000019b4 l       .debug_str	00000000 
000019bd l       .debug_str	00000000 
000019c8 l       .debug_str	00000000 
000019d7 l       .debug_str	00000000 
000019ec l       .debug_str	00000000 
00001a1d l       .debug_str	00000000 
00001aba l       .debug_str	00000000 
00001b6a l       .debug_str	00000000 
00001b73 l       .debug_str	00000000 
00001b94 l       .debug_str	00000000 
00001ba7 l       .debug_str	00000000 
00001bdd l       .debug_str	00000000 
00001c60 l       .debug_str	00000000 
00001ceb l       .debug_str	00000000 
00001d07 l       .debug_str	00000000 
00001d53 l       .debug_str	00000000 
00001da7 l       .debug_str	00000000 
00001dc4 l       .debug_str	00000000 
00001dd8 l       .debug_str	00000000 
00001e24 l       .debug_str	00000000 
00001e78 l       .debug_str	00000000 
00001e8e l       .debug_str	00000000 
00001ea2 l       .debug_str	00000000 
00001ee9 l       .debug_str	00000000 
00001f38 l       .debug_str	00000000 
00001f41 l       .debug_str	00000000 
00001f4f l       .debug_str	00000000 
00001f80 l       .debug_str	00000000 
00001f86 l       .debug_str	00000000 
00001f8e l       .debug_str	00000000 
00001f95 l       .debug_str	00000000 
00001f9d l       .debug_str	00000000 
00001fa8 l       .debug_str	00000000 
00001fb0 l       .debug_str	00000000 
00001fbf l       .debug_str	00000000 
00001fc3 l       .debug_str	00000000 
00001fce l       .debug_str	00000000 
00001fda l       .debug_str	00000000 
00001fe5 l       .debug_str	00000000 
00001ff6 l       .debug_str	00000000 
00001ffc l       .debug_str	00000000 
00002004 l       .debug_str	00000000 
0000200b l       .debug_str	00000000 
00002015 l       .debug_str	00000000 
0000201d l       .debug_str	00000000 
00002025 l       .debug_str	00000000 
00002047 l       .debug_str	00000000 
00002052 l       .debug_str	00000000 
0000205e l       .debug_str	00000000 
00002066 l       .debug_str	00000000 
0000206f l       .debug_str	00000000 
0000207a l       .debug_str	00000000 
00002081 l       .debug_str	00000000 
0000208c l       .debug_str	00000000 
00002097 l       .debug_str	00000000 
000020a7 l       .debug_str	00000000 
000020b1 l       .debug_str	00000000 
000020b7 l       .debug_str	00000000 
000020d9 l       .debug_str	00000000 
00002111 l       .debug_str	00000000 
00002151 l       .debug_str	00000000 
00002158 l       .debug_str	00000000 
00002160 l       .debug_str	00000000 
00002177 l       .debug_str	00000000 
00002180 l       .debug_str	00000000 
00002190 l       .debug_str	00000000 
0000219f l       .debug_str	00000000 
000021a7 l       .debug_str	00000000 
000021ae l       .debug_str	00000000 
000021b6 l       .debug_str	00000000 
000021d4 l       .debug_str	00000000 
000021e4 l       .debug_str	00000000 
00002217 l       .debug_str	00000000 
0000222c l       .debug_str	00000000 
00002235 l       .debug_str	00000000 
00002292 l       .debug_str	00000000 
000022f7 l       .debug_str	00000000 
00002301 l       .debug_str	00000000 
00002311 l       .debug_str	00000000 
00002326 l       .debug_str	00000000 
0000232e l       .debug_str	00000000 
00002392 l       .debug_str	00000000 
00000000 l     O .rodata..Lanon.5addfd68729b0747a7b13cf3d62a75a2.1	0000000e .Lanon.5addfd68729b0747a7b13cf3d62a75a2.1
00000000 l     O .rodata..Lanon.5addfd68729b0747a7b13cf3d62a75a2.2	00000006 .Lanon.5addfd68729b0747a7b13cf3d62a75a2.2
00000000 l     O .rodata..Lanon.5addfd68729b0747a7b13cf3d62a75a2.4	0000000c .Lanon.5addfd68729b0747a7b13cf3d62a75a2.4
00000000 l     O .rodata._ZN3app10app_sensor13SENSOR_DEVICE17hefbfbc9c9146f744E	0000000c _ZN3app10app_sensor13SENSOR_DEVICE17hefbfbc9c9146f744E
00000000 l    d  .text._ZN3app10app_sensor21start_sensor_listener17h09088494e967a630E	00000000 .text._ZN3app10app_sensor21start_sensor_listener17h09088494e967a630E
00000000 l    d  .rodata..Lanon.5addfd68729b0747a7b13cf3d62a75a2.0	00000000 .rodata..Lanon.5addfd68729b0747a7b13cf3d62a75a2.0
00000000 l    d  .rodata._ZN3app10app_sensor13SENSOR_DEVICE17hefbfbc9c9146f744E	00000000 .rodata._ZN3app10app_sensor13SENSOR_DEVICE17hefbfbc9c9146f744E
00000000 l    d  .rodata..Lanon.5addfd68729b0747a7b13cf3d62a75a2.3	00000000 .rodata..Lanon.5addfd68729b0747a7b13cf3d62a75a2.3
00000000 l    d  .debug_abbrev	00000000 .debug_abbrev
00000000 l    d  .debug_info	00000000 .debug_info
00000000 l    d  .debug_ranges	00000000 .debug_ranges
00000000 l    d  .debug_frame	00000000 .debug_frame
00000000 l    d  .debug_line	00000000 .debug_line
00000000 g     F .text._ZN3app10app_sensor21start_sensor_listener17h09088494e967a630E	00000176 .hidden _ZN3app10app_sensor21start_sensor_listener17h09088494e967a630E
00000000         *UND*	00000000 .hidden _ZN3app11app_network21aggregate_sensor_data17hab11c32b63abf594E
00000000         *UND*	00000000 _ZN4core6option15Option$LT$T$GT$6expect17h0fd15c4bf762390eE
00000000         *UND*	00000000 _ZN50_$LT$T$u20$as$u20$core..convert..From$LT$T$GT$$GT$4from17h4bfa181a78946fa0E
00000000         *UND*	00000000 _ZN6mynewt2hw10sensor_mgr14find_bydevname17h896b27dd8b8e6b9fE
00000000         *UND*	00000000 _ZN6mynewt2hw6sensor17register_listener17h17ebbfb47266c768E
00000000         *UND*	00000000 _ZN6mynewt2hw6sensor19new_sensor_listener17he57f742295244c52E
00000000         *UND*	00000000 _ZN6mynewt2hw6sensor8bindings16set_poll_rate_ms17h554be26f45a098a1E
00000000         *UND*	00000000 _ZN6mynewt3sys7console5print17h0f65bc3b0e739871E
00000000         *UND*	00000000 _ZN73_$LT$core..result..Result$LT$T$C$E$GT$$u20$as$u20$core..ops..try..Try$GT$10from_error17h6d3955e1a79eef94E
00000000         *UND*	00000000 _ZN73_$LT$core..result..Result$LT$T$C$E$GT$$u20$as$u20$core..ops..try..Try$GT$11into_result17h00bf1b57699326cfE
00000000         *UND*	00000000 _ZN73_$LT$core..result..Result$LT$T$C$E$GT$$u20$as$u20$core..ops..try..Try$GT$11into_result17h470504b6f43ee880E
00000000         *UND*	00000000 _ZN99_$LT$mynewt..hw..sensor_mgr..SensorsByDevname$u20$as$u20$core..iter..traits..iterator..Iterator$GT$4next17hcbd1eb8875cb1b9fE



Disassembly of section .text._ZN3app10app_sensor21start_sensor_listener17h09088494e967a630E:

00000000 <_ZN3app10app_sensor21start_sensor_listener17h09088494e967a630E>:
_ZN3app10app_sensor21start_sensor_listener17h09088494e967a630E():
/Users/Luppy/mynewt/stm32bluepill-mynewt-sensor/rust/app/src/app_sensor.rs:46
///  Type of sensor: Raw temperature sensor (integer sensor values 0 to 4095)
const TEMP_SENSOR_TYPE: sensor_type_t = sensor::SENSOR_TYPE_AMBIENT_TEMPERATURE_RAW;

///  Ask Mynewt to poll or read the temperature sensor and call `aggregate_sensor_data()`
///  Return `Ok()` if successful, else return `Err()` with `MynewtError` error code inside.
pub fn start_sensor_listener() -> MynewtResult<()>  {  //  Returns an error code upon error.
   0:	b5f0      	push	{r4, r5, r6, r7, lr}
   2:	b0bd      	sub	sp, #244	; 0xf4
/Users/Luppy/mynewt/stm32bluepill-mynewt-sensor/rust/app/src/app_sensor.rs:47
    console::print("Rust TMP poll\n");
   4:	f240 0000 	movw	r0, #0
   8:	f2c0 0000 	movt	r0, #0
   c:	210e      	movs	r1, #14
   e:	f7ff fffe 	bl	0 <_ZN6mynewt3sys7console5print17h0f65bc3b0e739871E>
  12:	e7ff      	b.n	2 <_ZN3app10app_sensor21start_sensor_listener17h09088494e967a630E+0x2>
/Users/Luppy/mynewt/stm32bluepill-mynewt-sensor/rust/app/src/app_sensor.rs:50

    //  Fetch the sensor by name.
    let sensor = sensor_mgr::find_bydevname(&SENSOR_DEVICE)
  14:	f240 0100 	movw	r1, #0
  18:	f2c0 0100 	movt	r1, #0
  1c:	a80d      	add	r0, sp, #52	; 0x34
  1e:	f7ff fffe 	bl	0 <_ZN6mynewt2hw10sensor_mgr14find_bydevname17h896b27dd8b8e6b9fE>
  22:	e7ff      	b.n	24 <_ZN3app10app_sensor21start_sensor_listener17h09088494e967a630E+0x24>
  24:	a80d      	add	r0, sp, #52	; 0x34
  26:	f7ff fffe 	bl	0 <_ZN99_$LT$mynewt..hw..sensor_mgr..SensorsByDevname$u20$as$u20$core..iter..traits..iterator..Iterator$GT$4next17hcbd1eb8875cb1b9fE>
  2a:	900a      	str	r0, [sp, #40]	; 0x28
  2c:	9109      	str	r1, [sp, #36]	; 0x24
  2e:	e7ff      	b.n	30 <_ZN3app10app_sensor21start_sensor_listener17h09088494e967a630E+0x30>
  30:	f240 0200 	movw	r2, #0
  34:	f2c0 0200 	movt	r2, #0
  38:	2306      	movs	r3, #6
  3a:	980a      	ldr	r0, [sp, #40]	; 0x28
  3c:	9909      	ldr	r1, [sp, #36]	; 0x24
  3e:	f7ff fffe 	bl	0 <_ZN4core6option15Option$LT$T$GT$6expect17h0fd15c4bf762390eE>
  42:	900c      	str	r0, [sp, #48]	; 0x30
  44:	e7ff      	b.n	46 <_ZN3app10app_sensor21start_sensor_listener17h09088494e967a630E+0x46>
/Users/Luppy/mynewt/stm32bluepill-mynewt-sensor/rust/app/src/app_sensor.rs:55
        .next()             //  Fetch the first sensor that matches
        .expect("no TMP");  //  Stop if no sensor found

    //  At power on, we ask Mynewt to poll our temperature sensor every 10 seconds.
    sensor::set_poll_rate_ms(&SENSOR_DEVICE, SENSOR_POLL_TIME) ? ;
  46:	f240 0000 	movw	r0, #0
  4a:	f2c0 0000 	movt	r0, #0
  4e:	f242 7110 	movw	r1, #10000	; 0x2710
  52:	f7ff fffe 	bl	0 <_ZN6mynewt2hw6sensor8bindings16set_poll_rate_ms17h554be26f45a098a1E>
  56:	9008      	str	r0, [sp, #32]
  58:	e7ff      	b.n	5a <_ZN3app10app_sensor21start_sensor_listener17h09088494e967a630E+0x5a>
  5a:	9808      	ldr	r0, [sp, #32]
  5c:	f7ff fffe 	bl	0 <_ZN73_$LT$core..result..Result$LT$T$C$E$GT$$u20$as$u20$core..ops..try..Try$GT$11into_result17h00bf1b57699326cfE>
  60:	9011      	str	r0, [sp, #68]	; 0x44
  62:	e7ff      	b.n	64 <_ZN3app10app_sensor21start_sensor_listener17h09088494e967a630E+0x64>
  64:	9811      	ldr	r0, [sp, #68]	; 0x44
  66:	1e41      	subs	r1, r0, #1
  68:	bf18      	it	ne
  6a:	2101      	movne	r1, #1
  6c:	2801      	cmp	r0, #1
  6e:	9107      	str	r1, [sp, #28]
  70:	d016      	beq.n	a0 <_ZN3app10app_sensor21start_sensor_listener17h09088494e967a630E+0xa0>
  72:	e7ff      	b.n	74 <_ZN3app10app_sensor21start_sensor_listener17h09088494e967a630E+0x74>
  74:	9807      	ldr	r0, [sp, #28]
  76:	2801      	cmp	r0, #1
  78:	d001      	beq.n	7e <_ZN3app10app_sensor21start_sensor_listener17h09088494e967a630E+0x7e>
  7a:	e7ff      	b.n	7c <_ZN3app10app_sensor21start_sensor_listener17h09088494e967a630E+0x7c>
/Users/Luppy/mynewt/stm32bluepill-mynewt-sensor/rust/app/src/app_sensor.rs:69
    //  Register the Listener Function to be called with the polled sensor data.
    sensor::register_listener(sensor, listener) ? ;  //  `?` means in case of error, return error now.

    //  Return `Ok()` to indicate success.  This line should not end with a semicolon (;).
    Ok(())
  7c:	defe      	udf	#254	; 0xfe
/Users/Luppy/mynewt/stm32bluepill-mynewt-sensor/rust/app/src/app_sensor.rs:55
    sensor::set_poll_rate_ms(&SENSOR_DEVICE, SENSOR_POLL_TIME) ? ;
  7e:	9811      	ldr	r0, [sp, #68]	; 0x44
  80:	9012      	str	r0, [sp, #72]	; 0x48
  82:	9812      	ldr	r0, [sp, #72]	; 0x48
  84:	f7ff fffe 	bl	0 <_ZN50_$LT$T$u20$as$u20$core..convert..From$LT$T$GT$$GT$4from17h4bfa181a78946fa0E>
  88:	9006      	str	r0, [sp, #24]
  8a:	e7ff      	b.n	8c <_ZN3app10app_sensor21start_sensor_listener17h09088494e967a630E+0x8c>
  8c:	9806      	ldr	r0, [sp, #24]
  8e:	f7ff fffe 	bl	0 <_ZN73_$LT$core..result..Result$LT$T$C$E$GT$$u20$as$u20$core..ops..try..Try$GT$10from_error17h6d3955e1a79eef94E>
  92:	900b      	str	r0, [sp, #44]	; 0x2c
  94:	e7ff      	b.n	96 <_ZN3app10app_sensor21start_sensor_listener17h09088494e967a630E+0x96>
  96:	e002      	b.n	9e <_ZN3app10app_sensor21start_sensor_listener17h09088494e967a630E+0x9e>
/Users/Luppy/mynewt/stm32bluepill-mynewt-sensor/rust/app/src/app_sensor.rs:69
  98:	980b      	ldr	r0, [sp, #44]	; 0x2c
  9a:	b03d      	add	sp, #244	; 0xf4
  9c:	bdf0      	pop	{r4, r5, r6, r7, pc}
/Users/Luppy/mynewt/stm32bluepill-mynewt-sensor/rust/app/src/app_sensor.rs:55
    sensor::set_poll_rate_ms(&SENSOR_DEVICE, SENSOR_POLL_TIME) ? ;
  9e:	e7fb      	b.n	98 <_ZN3app10app_sensor21start_sensor_listener17h09088494e967a630E+0x98>
/Users/Luppy/mynewt/stm32bluepill-mynewt-sensor/rust/app/src/app_sensor.rs:58
    let listener = sensor::new_sensor_listener(
  a0:	f240 0000 	movw	r0, #0
  a4:	f2c0 0000 	movt	r0, #0
  a8:	4669      	mov	r1, sp
  aa:	6008      	str	r0, [r1, #0]
  ac:	f240 0100 	movw	r1, #0
  b0:	f2c0 0100 	movt	r1, #0
  b4:	a822      	add	r0, sp, #136	; 0x88
  b6:	f04f 6280 	mov.w	r2, #67108864	; 0x4000000
  ba:	2300      	movs	r3, #0
  bc:	f7ff fffe 	bl	0 <_ZN6mynewt2hw6sensor19new_sensor_listener17he57f742295244c52E>
  c0:	e7ff      	b.n	c2 <_ZN3app10app_sensor21start_sensor_listener17h09088494e967a630E+0xc2>
  c2:	a81a      	add	r0, sp, #104	; 0x68
  c4:	a922      	add	r1, sp, #136	; 0x88
  c6:	f7ff fffe 	bl	0 <_ZN73_$LT$core..result..Result$LT$T$C$E$GT$$u20$as$u20$core..ops..try..Try$GT$11into_result17h470504b6f43ee880E>
  ca:	e7ff      	b.n	cc <_ZN3app10app_sensor21start_sensor_listener17h09088494e967a630E+0xcc>
/Users/Luppy/mynewt/stm32bluepill-mynewt-sensor/rust/app/src/app_sensor.rs:62
    ) ? ;
  cc:	981a      	ldr	r0, [sp, #104]	; 0x68
  ce:	2800      	cmp	r0, #0
  d0:	9005      	str	r0, [sp, #20]
  d2:	d012      	beq.n	fa <_ZN3app10app_sensor21start_sensor_listener17h09088494e967a630E+0xfa>
  d4:	e7ff      	b.n	d6 <_ZN3app10app_sensor21start_sensor_listener17h09088494e967a630E+0xd6>
  d6:	9805      	ldr	r0, [sp, #20]
  d8:	2801      	cmp	r0, #1
  da:	d1cf      	bne.n	7c <_ZN3app10app_sensor21start_sensor_listener17h09088494e967a630E+0x7c>
  dc:	e7ff      	b.n	de <_ZN3app10app_sensor21start_sensor_listener17h09088494e967a630E+0xde>
  de:	981b      	ldr	r0, [sp, #108]	; 0x6c
  e0:	902b      	str	r0, [sp, #172]	; 0xac
  e2:	982b      	ldr	r0, [sp, #172]	; 0xac
  e4:	f7ff fffe 	bl	0 <_ZN50_$LT$T$u20$as$u20$core..convert..From$LT$T$GT$$GT$4from17h4bfa181a78946fa0E>
  e8:	9004      	str	r0, [sp, #16]
  ea:	e7ff      	b.n	ec <_ZN3app10app_sensor21start_sensor_listener17h09088494e967a630E+0xec>
  ec:	9804      	ldr	r0, [sp, #16]
  ee:	f7ff fffe 	bl	0 <_ZN73_$LT$core..result..Result$LT$T$C$E$GT$$u20$as$u20$core..ops..try..Try$GT$10from_error17h6d3955e1a79eef94E>
  f2:	900b      	str	r0, [sp, #44]	; 0x2c
  f4:	e7ff      	b.n	f6 <_ZN3app10app_sensor21start_sensor_listener17h09088494e967a630E+0xf6>
  f6:	e7ff      	b.n	f8 <_ZN3app10app_sensor21start_sensor_listener17h09088494e967a630E+0xf8>
  f8:	e7d1      	b.n	9e <_ZN3app10app_sensor21start_sensor_listener17h09088494e967a630E+0x9e>
  fa:	a81a      	add	r0, sp, #104	; 0x68
/Users/Luppy/mynewt/stm32bluepill-mynewt-sensor/rust/app/src/app_sensor.rs:58
    let listener = sensor::new_sensor_listener(
  fc:	3008      	adds	r0, #8
  fe:	a92c      	add	r1, sp, #176	; 0xb0
 100:	460a      	mov	r2, r1
 102:	e890 5078 	ldmia.w	r0, {r3, r4, r5, r6, ip, lr}
 106:	e882 5078 	stmia.w	r2, {r3, r4, r5, r6, ip, lr}
 10a:	a814      	add	r0, sp, #80	; 0x50
 10c:	4602      	mov	r2, r0
 10e:	e891 5078 	ldmia.w	r1, {r3, r4, r5, r6, ip, lr}
 112:	e882 5078 	stmia.w	r2, {r3, r4, r5, r6, ip, lr}
/Users/Luppy/mynewt/stm32bluepill-mynewt-sensor/rust/app/src/app_sensor.rs:65
    sensor::register_listener(sensor, listener) ? ;  //  `?` means in case of error, return error now.
 116:	990c      	ldr	r1, [sp, #48]	; 0x30
 118:	aa34      	add	r2, sp, #208	; 0xd0
 11a:	4613      	mov	r3, r2
 11c:	e890 50f0 	ldmia.w	r0, {r4, r5, r6, r7, ip, lr}
 120:	e883 50f0 	stmia.w	r3, {r4, r5, r6, r7, ip, lr}
 124:	4608      	mov	r0, r1
 126:	4611      	mov	r1, r2
 128:	f7ff fffe 	bl	0 <_ZN6mynewt2hw6sensor17register_listener17h17ebbfb47266c768E>
 12c:	9003      	str	r0, [sp, #12]
 12e:	e7ff      	b.n	130 <_ZN3app10app_sensor21start_sensor_listener17h09088494e967a630E+0x130>
 130:	9803      	ldr	r0, [sp, #12]
 132:	f7ff fffe 	bl	0 <_ZN73_$LT$core..result..Result$LT$T$C$E$GT$$u20$as$u20$core..ops..try..Try$GT$11into_result17h00bf1b57699326cfE>
 136:	9033      	str	r0, [sp, #204]	; 0xcc
 138:	e7ff      	b.n	13a <_ZN3app10app_sensor21start_sensor_listener17h09088494e967a630E+0x13a>
 13a:	9833      	ldr	r0, [sp, #204]	; 0xcc
 13c:	1e41      	subs	r1, r0, #1
 13e:	bf18      	it	ne
 140:	2101      	movne	r1, #1
 142:	2801      	cmp	r0, #1
 144:	9102      	str	r1, [sp, #8]
 146:	d011      	beq.n	16c <_ZN3app10app_sensor21start_sensor_listener17h09088494e967a630E+0x16c>
 148:	e7ff      	b.n	14a <_ZN3app10app_sensor21start_sensor_listener17h09088494e967a630E+0x14a>
 14a:	9802      	ldr	r0, [sp, #8]
 14c:	2801      	cmp	r0, #1
 14e:	d195      	bne.n	7c <_ZN3app10app_sensor21start_sensor_listener17h09088494e967a630E+0x7c>
 150:	e7ff      	b.n	152 <_ZN3app10app_sensor21start_sensor_listener17h09088494e967a630E+0x152>
 152:	9833      	ldr	r0, [sp, #204]	; 0xcc
 154:	903a      	str	r0, [sp, #232]	; 0xe8
 156:	983a      	ldr	r0, [sp, #232]	; 0xe8
 158:	f7ff fffe 	bl	0 <_ZN50_$LT$T$u20$as$u20$core..convert..From$LT$T$GT$$GT$4from17h4bfa181a78946fa0E>
 15c:	9001      	str	r0, [sp, #4]
 15e:	e7ff      	b.n	160 <_ZN3app10app_sensor21start_sensor_listener17h09088494e967a630E+0x160>
 160:	9801      	ldr	r0, [sp, #4]
 162:	f7ff fffe 	bl	0 <_ZN73_$LT$core..result..Result$LT$T$C$E$GT$$u20$as$u20$core..ops..try..Try$GT$10from_error17h6d3955e1a79eef94E>
 166:	900b      	str	r0, [sp, #44]	; 0x2c
 168:	e7ff      	b.n	16a <_ZN3app10app_sensor21start_sensor_listener17h09088494e967a630E+0x16a>
 16a:	e7c5      	b.n	f8 <_ZN3app10app_sensor21start_sensor_listener17h09088494e967a630E+0xf8>
 16c:	2000      	movs	r0, #0
/Users/Luppy/mynewt/stm32bluepill-mynewt-sensor/rust/app/src/app_sensor.rs:68
    Ok(())
 16e:	900b      	str	r0, [sp, #44]	; 0x2c
 170:	2001      	movs	r0, #1
 172:	900b      	str	r0, [sp, #44]	; 0x2c
/Users/Luppy/mynewt/stm32bluepill-mynewt-sensor/rust/app/src/app_sensor.rs:69
 174:	e790      	b.n	98 <_ZN3app10app_sensor21start_sensor_listener17h09088494e967a630E+0x98>

app-b90ce02d7e477c3f.35j0kb8s1vhb4ukq.rcgu.o:     file format elf32-littlearm

SYMBOL TABLE:
00000000 l    df *ABS*	00000000 35j0kb8s1vhb4ukq
0000039e l       .debug_str	00000000 
00000341 l       .debug_str	00000000 
0000037c l       .debug_str	00000000 
0000038d l       .debug_str	00000000 
0000039a l       .debug_str	00000000 
000003a2 l       .debug_str	00000000 
000003aa l       .debug_str	00000000 
000003af l       .debug_str	00000000 
000003b7 l       .debug_str	00000000 
000003bc l       .debug_str	00000000 
000003ca l       .debug_str	00000000 
000003d0 l       .debug_str	00000000 
000003d4 l       .debug_str	00000000 
000003e0 l       .debug_str	00000000 
00000401 l       .debug_str	00000000 
00000410 l       .debug_str	00000000 
00000414 l       .debug_str	00000000 
00000416 l       .debug_str	00000000 
00000420 l       .debug_str	00000000 
00000424 l       .debug_str	00000000 
00000427 l       .debug_str	00000000 
0000042c l       .debug_str	00000000 
00000435 l       .debug_str	00000000 
00000443 l       .debug_str	00000000 
00000455 l       .debug_str	00000000 
00000469 l       .debug_str	00000000 
0000046d l       .debug_str	00000000 
00000476 l       .debug_str	00000000 
00000000 l       .debug_str	00000000 
00000041 l       .debug_str	00000000 
00000055 l       .debug_str	00000000 
00000085 l       .debug_str	00000000 
00000089 l       .debug_str	00000000 
00000095 l       .debug_str	00000000 
000000a9 l       .debug_str	00000000 
000000b0 l       .debug_str	00000000 
000000b3 l       .debug_str	00000000 
000000ba l       .debug_str	00000000 
000000be l       .debug_str	00000000 
000000c3 l       .debug_str	00000000 
000000c8 l       .debug_str	00000000 
000000cc l       .debug_str	00000000 
000000d2 l       .debug_str	00000000 
000000d6 l       .debug_str	00000000 
000000e2 l       .debug_str	00000000 
000000eb l       .debug_str	00000000 
000000ef l       .debug_str	00000000 
000000f9 l       .debug_str	00000000 
00000102 l       .debug_str	00000000 
00000112 l       .debug_str	00000000 
00000150 l       .debug_str	00000000 
00000157 l       .debug_str	00000000 
0000015b l       .debug_str	00000000 
00000163 l       .debug_str	00000000 
0000016e l       .debug_str	00000000 
00000179 l       .debug_str	00000000 
00000186 l       .debug_str	00000000 
00000191 l       .debug_str	00000000 
00000199 l       .debug_str	00000000 
000001a4 l       .debug_str	00000000 
000001af l       .debug_str	00000000 
000001b9 l       .debug_str	00000000 
000001c4 l       .debug_str	00000000 
000001cf l       .debug_str	00000000 
000001dc l       .debug_str	00000000 
000001e8 l       .debug_str	00000000 
000001f5 l       .debug_str	00000000 
00000203 l       .debug_str	00000000 
0000020d l       .debug_str	00000000 
0000021a l       .debug_str	00000000 
00000226 l       .debug_str	00000000 
0000022b l       .debug_str	00000000 
0000022f l       .debug_str	00000000 
00000238 l       .debug_str	00000000 
00000279 l       .debug_str	00000000 
00000282 l       .debug_str	00000000 
0000028b l       .debug_str	00000000 
0000028e l       .debug_str	00000000 
00000298 l       .debug_str	00000000 
0000029f l       .debug_str	00000000 
000002a5 l       .debug_str	00000000 
000002ab l       .debug_str	00000000 
000002b0 l       .debug_str	00000000 
000002b5 l       .debug_str	00000000 
000002f5 l       .debug_str	00000000 
0000030b l       .debug_str	00000000 
0000030e l       .debug_str	00000000 
00000311 l       .debug_str	00000000 
00000313 l       .debug_str	00000000 
00000315 l       .debug_str	00000000 
00000319 l       .debug_str	00000000 
00000000 l     O .rodata..Lanon.92b8e9a55658339c3e579e693d5217c0.0	00000017 .Lanon.92b8e9a55658339c3e579e693d5217c0.0
00000000 l     O .rodata..Lanon.92b8e9a55658339c3e579e693d5217c0.1	00000001 .Lanon.92b8e9a55658339c3e579e693d5217c0.1
00000000 l     O .rodata..Lanon.92b8e9a55658339c3e579e693d5217c0.15	0000000d .Lanon.92b8e9a55658339c3e579e693d5217c0.15
00000000 l     O .rodata..Lanon.92b8e9a55658339c3e579e693d5217c0.17	00000003 .Lanon.92b8e9a55658339c3e579e693d5217c0.17
00000000 l     O .rodata..Lanon.92b8e9a55658339c3e579e693d5217c0.19	00000005 .Lanon.92b8e9a55658339c3e579e693d5217c0.19
00000000 l     O .rodata..Lanon.92b8e9a55658339c3e579e693d5217c0.2	00000001 .Lanon.92b8e9a55658339c3e579e693d5217c0.2
00000000 l     O .rodata.cst4	00000004 .Lanon.92b8e9a55658339c3e579e693d5217c0.20
00000004 l     O .rodata.cst4	00000004 .Lanon.92b8e9a55658339c3e579e693d5217c0.21
00000000 l     O .rodata..Lanon.92b8e9a55658339c3e579e693d5217c0.22	00000005 .Lanon.92b8e9a55658339c3e579e693d5217c0.22
00000000 l     O .rodata..Lanon.92b8e9a55658339c3e579e693d5217c0.3	00000001 .Lanon.92b8e9a55658339c3e579e693d5217c0.3
00000008 l     O .rodata.cst4	00000004 .Lanon.92b8e9a55658339c3e579e693d5217c0.31
00000000 l     O .rodata..Lanon.92b8e9a55658339c3e579e693d5217c0.32	00000007 .Lanon.92b8e9a55658339c3e579e693d5217c0.32
00000000 l     O .rodata..Lanon.92b8e9a55658339c3e579e693d5217c0.34	00000006 .Lanon.92b8e9a55658339c3e579e693d5217c0.34
00000000 l     O .rodata..Lanon.92b8e9a55658339c3e579e693d5217c0.39	00000048 .Lanon.92b8e9a55658339c3e579e693d5217c0.39
00000000 l     O .rodata..Lanon.92b8e9a55658339c3e579e693d5217c0.8	00000007 .Lanon.92b8e9a55658339c3e579e693d5217c0.8
00000000 l     F .text._ZN3app11app_network16send_sensor_data17ha00b395570ee48dfE	000005be _ZN3app11app_network16send_sensor_data17ha00b395570ee48dfE
00000000 l     O .bss._ZN3app11app_network19CURRENT_GEOLOCATION17h08f4cc9bfdd99ce2E	00000020 _ZN3app11app_network19CURRENT_GEOLOCATION17h08f4cc9bfdd99ce2E
00000000 l    d  .text._ZN3app11app_network21aggregate_sensor_data17hab11c32b63abf594E	00000000 .text._ZN3app11app_network21aggregate_sensor_data17hab11c32b63abf594E
00000000 l    d  .text._ZN3app11app_network16send_sensor_data17ha00b395570ee48dfE	00000000 .text._ZN3app11app_network16send_sensor_data17ha00b395570ee48dfE
00000000 l    d  .bss._ZN3app11app_network19CURRENT_GEOLOCATION17h08f4cc9bfdd99ce2E	00000000 .bss._ZN3app11app_network19CURRENT_GEOLOCATION17h08f4cc9bfdd99ce2E
00000000 l    d  .debug_abbrev	00000000 .debug_abbrev
00000000 l    d  .debug_info	00000000 .debug_info
00000000 l    d  .debug_ranges	00000000 .debug_ranges
00000000 l    d  .debug_frame	00000000 .debug_frame
00000000 l    d  .debug_line	00000000 .debug_line
00000000 g     F .text._ZN3app11app_network21aggregate_sensor_data17hab11c32b63abf594E	000000aa .hidden _ZN3app11app_network21aggregate_sensor_data17hab11c32b63abf594E
00000000         *UND*	00000000 _ZN50_$LT$T$u20$as$u20$core..convert..From$LT$T$GT$$GT$4from17h4bfa181a78946fa0E
00000000         *UND*	00000000 _ZN6mynewt3sys7console10print_strn17h6acf88a32c052588E
00000000         *UND*	00000000 _ZN6mynewt3sys7console5flush17h498d792c115b7281E
00000000         *UND*	00000000 _ZN6mynewt3sys7console5print17h0f65bc3b0e739871E
00000000         *UND*	00000000 _ZN6mynewt3sys7console8printint17h732f7e3d3f1828c1E
00000000         *UND*	00000000 _ZN6mynewt4Strn3new17haa130bc407e45c8bE
00000000         *UND*	00000000 _ZN6mynewt4libs14sensor_network12prepare_post17hfdaf25fbf86be5c2E
00000000         *UND*	00000000 _ZN6mynewt4libs14sensor_network13get_device_id17hf2f7fef56ca514e0E
00000000         *UND*	00000000 _ZN6mynewt4libs14sensor_network14do_server_post17h7661fb0cf0ad1a96E
00000000         *UND*	00000000 _ZN6mynewt4libs14sensor_network16init_server_post17h4d7cda996b2d7ef5E
00000000         *UND*	00000000 _ZN6mynewt8encoding12coap_context11CoapContext11key_to_cstr17ha9bcadf10507edfaE
00000000         *UND*	00000000 _ZN6mynewt8encoding12coap_context11CoapContext11to_void_ptr17ha96fa3cb38da5ddbE
00000000         *UND*	00000000 _ZN6mynewt8encoding12coap_context11CoapContext13value_to_cstr17hfc1b92176b61a6eaE
00000000         *UND*	00000000 _ZN6mynewt8encoding12coap_context11CoapContext20json_set_geolocation17h5cef0a66b381353bE
00000000         *UND*	00000000 _ZN6mynewt8encoding12coap_context11CoapContext20json_set_text_string17hdbc3bda942320fdcE
00000000         *UND*	00000000 _ZN6mynewt8encoding12coap_context11CoapContext4fail17h8b0f21dc333d20ccE
00000000         *UND*	00000000 _ZN6mynewt8encoding12coap_context12COAP_CONTEXT17hcc1fd09be7e4ef0cE
00000000         *UND*	00000000 _ZN73_$LT$core..result..Result$LT$T$C$E$GT$$u20$as$u20$core..ops..try..Try$GT$10from_error17h6d3955e1a79eef94E
00000000         *UND*	00000000 _ZN73_$LT$core..result..Result$LT$T$C$E$GT$$u20$as$u20$core..ops..try..Try$GT$11into_result17h2b975e1f9ec08585E
00000000         *UND*	00000000 _ZN73_$LT$core..result..Result$LT$T$C$E$GT$$u20$as$u20$core..ops..try..Try$GT$11into_result17h5fc8a869c255d083E
00000000         *UND*	00000000 _ZN75_$LT$str$u20$as$u20$mynewt..encoding..coap_context..ToBytesOptionalNull$GT$21to_bytes_optional_nul17h86d9940d247021b8E
00000000         *UND*	00000000 _ZN84_$LT$mynewt..Strn$u20$as$u20$mynewt..encoding..coap_context..ToBytesOptionalNull$GT$21to_bytes_optional_nul17h672f59bf22cbf6e9E
00000000         *UND*	00000000 json_helper_close_array
00000000         *UND*	00000000 json_helper_object_array_end_item
00000000         *UND*	00000000 json_helper_object_array_start_item
00000000         *UND*	00000000 json_helper_set_array
00000000         *UND*	00000000 json_helper_set_int
00000000         *UND*	00000000 json_helper_set_text_string
00000000         *UND*	00000000 json_rep_end_root_object
00000000         *UND*	00000000 json_rep_start_root_object



Disassembly of section .text._ZN3app11app_network21aggregate_sensor_data17hab11c32b63abf594E:

00000000 <_ZN3app11app_network21aggregate_sensor_data17hab11c32b63abf594E>:
_ZN3app11app_network21aggregate_sensor_data17hab11c32b63abf594E():
/Users/Luppy/mynewt/stm32bluepill-mynewt-sensor/rust/app/src/app_network.rs:41
};
use mynewt_macros::strn;        //  Import Mynewt procedural macros

///  Aggregate the sensor value with other sensor data before transmitting to server.
///  If the sensor value is a GPS geolocation, we remember it and attach it to other sensor data for transmission.
pub fn aggregate_sensor_data(sensor_value: &SensorValue) -> MynewtResult<()>  {  //  Returns an error code upon error.
   0:	b5b0      	push	{r4, r5, r7, lr}
   2:	b0a8      	sub	sp, #160	; 0xa0
   4:	4601      	mov	r1, r0
   6:	9002      	str	r0, [sp, #8]
/Users/Luppy/mynewt/stm32bluepill-mynewt-sensor/rust/app/src/app_network.rs:42
    if let SensorValueType::Geolocation {..} = sensor_value.value {
   8:	9802      	ldr	r0, [sp, #8]
   a:	6800      	ldr	r0, [r0, #0]
   c:	2803      	cmp	r0, #3
   e:	9101      	str	r1, [sp, #4]
  10:	d11c      	bne.n	4c <_ZN3app11app_network21aggregate_sensor_data17hab11c32b63abf594E+0x4c>
  12:	e7ff      	b.n	14 <_ZN3app11app_network21aggregate_sensor_data17hab11c32b63abf594E+0x14>
/Users/Luppy/mynewt/stm32bluepill-mynewt-sensor/rust/app/src/app_network.rs:44
        //  If this is a geolocation, save the geolocation for later transmission.
        unsafe { CURRENT_GEOLOCATION = sensor_value.value };  //  Current geolocation is unsafe because it's a mutable static
  14:	9802      	ldr	r0, [sp, #8]
  16:	a904      	add	r1, sp, #16
  18:	460a      	mov	r2, r1
  1a:	e8b0 5018 	ldmia.w	r0!, {r3, r4, ip, lr}
  1e:	e8a2 5018 	stmia.w	r2!, {r3, r4, ip, lr}
  22:	e890 5018 	ldmia.w	r0, {r3, r4, ip, lr}
  26:	e882 5018 	stmia.w	r2, {r3, r4, ip, lr}
  2a:	f240 0000 	movw	r0, #0
  2e:	f2c0 0000 	movt	r0, #0
  32:	e8b1 500c 	ldmia.w	r1!, {r2, r3, ip, lr}
  36:	e8a0 500c 	stmia.w	r0!, {r2, r3, ip, lr}
  3a:	e891 500c 	ldmia.w	r1, {r2, r3, ip, lr}
  3e:	e880 500c 	stmia.w	r0, {r2, r3, ip, lr}
  42:	2000      	movs	r0, #0
/Users/Luppy/mynewt/stm32bluepill-mynewt-sensor/rust/app/src/app_network.rs:45
        Ok(())
  44:	9003      	str	r0, [sp, #12]
  46:	2001      	movs	r0, #1
  48:	9003      	str	r0, [sp, #12]
/Users/Luppy/mynewt/stm32bluepill-mynewt-sensor/rust/app/src/app_network.rs:42
    if let SensorValueType::Geolocation {..} = sensor_value.value {
  4a:	e02b      	b.n	a4 <_ZN3app11app_network21aggregate_sensor_data17hab11c32b63abf594E+0xa4>
/Users/Luppy/mynewt/stm32bluepill-mynewt-sensor/rust/app/src/app_network.rs:49
    } else {
        //  If this is temperature sensor data, attach the current geolocation to the sensor data for transmission.
        let transmit_value = SensorValue {
            geo: unsafe { CURRENT_GEOLOCATION },  //  Current geolocation is unsafe because it's a mutable static
  4c:	f240 0000 	movw	r0, #0
  50:	f2c0 0000 	movt	r0, #0
  54:	a920      	add	r1, sp, #128	; 0x80
  56:	460a      	mov	r2, r1
  58:	e8b0 5018 	ldmia.w	r0!, {r3, r4, ip, lr}
  5c:	e8a2 5018 	stmia.w	r2!, {r3, r4, ip, lr}
  60:	e890 5018 	ldmia.w	r0, {r3, r4, ip, lr}
  64:	e882 5018 	stmia.w	r2, {r3, r4, ip, lr}
/Users/Luppy/mynewt/stm32bluepill-mynewt-sensor/rust/app/src/app_network.rs:48
        let transmit_value = SensorValue {
  68:	9802      	ldr	r0, [sp, #8]
  6a:	6c00      	ldr	r0, [r0, #64]	; 0x40
  6c:	901e      	str	r0, [sp, #120]	; 0x78
  6e:	9802      	ldr	r0, [sp, #8]
  70:	aa0e      	add	r2, sp, #56	; 0x38
  72:	4613      	mov	r3, r2
  74:	e8b0 5030 	ldmia.w	r0!, {r4, r5, ip, lr}
  78:	e8a3 5030 	stmia.w	r3!, {r4, r5, ip, lr}
  7c:	e890 5030 	ldmia.w	r0, {r4, r5, ip, lr}
  80:	e883 5030 	stmia.w	r3, {r4, r5, ip, lr}
  84:	f102 0020 	add.w	r0, r2, #32
  88:	e8b1 5018 	ldmia.w	r1!, {r3, r4, ip, lr}
  8c:	e8a0 5018 	stmia.w	r0!, {r3, r4, ip, lr}
  90:	e891 5018 	ldmia.w	r1, {r3, r4, ip, lr}
  94:	e880 5018 	stmia.w	r0, {r3, r4, ip, lr}
/Users/Luppy/mynewt/stm32bluepill-mynewt-sensor/rust/app/src/app_network.rs:53
            ..*sensor_value                       //  Copy the sensor name and value for transmission
        };
        //  Transmit sensor value with geolocation and return the result
        send_sensor_data(&transmit_value)
  98:	4610      	mov	r0, r2
  9a:	f7ff fffe 	bl	0 <_ZN3app11app_network21aggregate_sensor_data17hab11c32b63abf594E>
  9e:	9003      	str	r0, [sp, #12]
  a0:	e7ff      	b.n	a2 <_ZN3app11app_network21aggregate_sensor_data17hab11c32b63abf594E+0xa2>
/Users/Luppy/mynewt/stm32bluepill-mynewt-sensor/rust/app/src/app_network.rs:42
    if let SensorValueType::Geolocation {..} = sensor_value.value {
  a2:	e7ff      	b.n	a4 <_ZN3app11app_network21aggregate_sensor_data17hab11c32b63abf594E+0xa4>
/Users/Luppy/mynewt/stm32bluepill-mynewt-sensor/rust/app/src/app_network.rs:55
    }
}
  a4:	9803      	ldr	r0, [sp, #12]
  a6:	b028      	add	sp, #160	; 0xa0
  a8:	bdb0      	pop	{r4, r5, r7, pc}

Disassembly of section .text._ZN3app11app_network16send_sensor_data17ha00b395570ee48dfE:

00000000 <_ZN3app11app_network16send_sensor_data17ha00b395570ee48dfE>:
_ZN3app11app_network16send_sensor_data17ha00b395570ee48dfE():
/Users/Luppy/mynewt/stm32bluepill-mynewt-sensor/rust/app/src/app_network.rs:68
/// {"values":[
///   {"key":"t",      "value":1715, "geo": { "lat": ..., "long": ... }},
///   {"key":"device", "value":"0102030405060708090a0b0c0d0e0f10"}
/// ]}
/// ```
fn send_sensor_data(val: &SensorValue) -> MynewtResult<()>  {  //  Returns an error code upon error.
   0:	b510      	push	{r4, lr}
   2:	f5ad 7d2c 	sub.w	sp, sp, #688	; 0x2b0
   6:	4601      	mov	r1, r0
   8:	902a      	str	r0, [sp, #168]	; 0xa8
/Users/Luppy/mynewt/stm32bluepill-mynewt-sensor/rust/app/src/app_network.rs:69
    console::print("Rust send_sensor_data: ");
   a:	f240 0000 	movw	r0, #0
   e:	f2c0 0000 	movt	r0, #0
  12:	2217      	movs	r2, #23
  14:	9129      	str	r1, [sp, #164]	; 0xa4
  16:	4611      	mov	r1, r2
  18:	f7ff fffe 	bl	0 <_ZN6mynewt3sys7console5print17h0f65bc3b0e739871E>
  1c:	e7ff      	b.n	1e <_ZN3app11app_network16send_sensor_data17ha00b395570ee48dfE+0x1e>
/Users/Luppy/mynewt/stm32bluepill-mynewt-sensor/rust/app/src/app_network.rs:70
    if let SensorValueType::Uint(i) = val.value {
  1e:	982a      	ldr	r0, [sp, #168]	; 0xa8
  20:	6800      	ldr	r0, [r0, #0]
  22:	2801      	cmp	r0, #1
  24:	d115      	bne.n	52 <_ZN3app11app_network16send_sensor_data17ha00b395570ee48dfE+0x52>
  26:	e7ff      	b.n	28 <_ZN3app11app_network16send_sensor_data17ha00b395570ee48dfE+0x28>
  28:	982a      	ldr	r0, [sp, #168]	; 0xa8
  2a:	6840      	ldr	r0, [r0, #4]
  2c:	902c      	str	r0, [sp, #176]	; 0xb0
/Users/Luppy/mynewt/stm32bluepill-mynewt-sensor/rust/app/src/app_network.rs:71
        console::print_strn(val.key);
  2e:	982a      	ldr	r0, [sp, #168]	; 0xa8
  30:	6c00      	ldr	r0, [r0, #64]	; 0x40
  32:	f7ff fffe 	bl	0 <_ZN6mynewt3sys7console10print_strn17h6acf88a32c052588E>
  36:	e7ff      	b.n	2 <_ZN3app11app_network16send_sensor_data17ha00b395570ee48dfE+0x2>
/Users/Luppy/mynewt/stm32bluepill-mynewt-sensor/rust/app/src/app_network.rs:72
        console::print("=");
  38:	f240 0000 	movw	r0, #0
  3c:	f2c0 0000 	movt	r0, #0
  40:	2101      	movs	r1, #1
  42:	f7ff fffe 	bl	0 <_ZN6mynewt3sys7console5print17h0f65bc3b0e739871E>
  46:	e7ff      	b.n	48 <_ZN3app11app_network16send_sensor_data17ha00b395570ee48dfE+0x48>
/Users/Luppy/mynewt/stm32bluepill-mynewt-sensor/rust/app/src/app_network.rs:73
        console::printint(i as i32);
  48:	982c      	ldr	r0, [sp, #176]	; 0xb0
  4a:	f7ff fffe 	bl	0 <_ZN6mynewt3sys7console8printint17h732f7e3d3f1828c1E>
  4e:	e7ff      	b.n	50 <_ZN3app11app_network16send_sensor_data17ha00b395570ee48dfE+0x50>
/Users/Luppy/mynewt/stm32bluepill-mynewt-sensor/rust/app/src/app_network.rs:70
    if let SensorValueType::Uint(i) = val.value {
  50:	e7ff      	b.n	52 <_ZN3app11app_network16send_sensor_data17ha00b395570ee48dfE+0x52>
/Users/Luppy/mynewt/stm32bluepill-mynewt-sensor/rust/app/src/app_network.rs:75
    }
    console::print("\n");
  52:	f240 0000 	movw	r0, #0
  56:	f2c0 0000 	movt	r0, #0
  5a:	2101      	movs	r1, #1
  5c:	f7ff fffe 	bl	0 <_ZN6mynewt3sys7console5print17h0f65bc3b0e739871E>
  60:	e7ff      	b.n	2 <_ZN6mynewt3sys7console5flush17h498d792c115b7281E+0x2>
/Users/Luppy/mynewt/stm32bluepill-mynewt-sensor/rust/app/src/app_network.rs:76
    console::flush(); ////
  62:	f7ff fffe 	bl	0 <_ZN6mynewt3sys7console5flush17h498d792c115b7281E>
  66:	e7ff      	b.n	68 <_ZN3app11app_network16send_sensor_data17ha00b395570ee48dfE+0x68>
  68:	a834      	add	r0, sp, #208	; 0xd0
/Users/Luppy/mynewt/stm32bluepill-mynewt-sensor/rust/app/src/app_network.rs:79

    //  Get a randomly-generated device ID that changes each time we restart the device.
    let device_id = sensor_network::get_device_id() ? ;
  6a:	f7ff fffe 	bl	0 <_ZN6mynewt4libs14sensor_network13get_device_id17hf2f7fef56ca514e0E>
  6e:	e7ff      	b.n	70 <_ZN3app11app_network16send_sensor_data17ha00b395570ee48dfE+0x70>
  70:	a830      	add	r0, sp, #192	; 0xc0
  72:	a934      	add	r1, sp, #208	; 0xd0
  74:	f7ff fffe 	bl	0 <_ZN73_$LT$core..result..Result$LT$T$C$E$GT$$u20$as$u20$core..ops..try..Try$GT$11into_result17h5fc8a869c255d083E>
  78:	e7ff      	b.n	7a <_ZN3app11app_network16send_sensor_data17ha00b395570ee48dfE+0x7a>
  7a:	9830      	ldr	r0, [sp, #192]	; 0xc0
  7c:	2800      	cmp	r0, #0
  7e:	9028      	str	r0, [sp, #160]	; 0xa0
  80:	d017      	beq.n	b2 <_ZN3app11app_network16send_sensor_data17ha00b395570ee48dfE+0xb2>
  82:	e7ff      	b.n	84 <_ZN3app11app_network16send_sensor_data17ha00b395570ee48dfE+0x84>
  84:	9828      	ldr	r0, [sp, #160]	; 0xa0
  86:	2801      	cmp	r0, #1
  88:	d001      	beq.n	8e <_ZN3app11app_network16send_sensor_data17ha00b395570ee48dfE+0x8e>
  8a:	e7ff      	b.n	8c <_ZN3app11app_network16send_sensor_data17ha00b395570ee48dfE+0x8c>
/Users/Luppy/mynewt/stm32bluepill-mynewt-sensor/rust/app/src/app_network.rs:114
    console::print("NET view your sensor at \nhttps://blue-pill-geolocate.appspot.com?device=");
    console::print_strn(&device_id); console::print("\n");

    //  The CoAP Background Task will transmit the message in the background.
    Ok(())
}
  8c:	defe      	udf	#254	; 0xfe
/Users/Luppy/mynewt/stm32bluepill-mynewt-sensor/rust/app/src/app_network.rs:79
    let device_id = sensor_network::get_device_id() ? ;
  8e:	9831      	ldr	r0, [sp, #196]	; 0xc4
  90:	9038      	str	r0, [sp, #224]	; 0xe0
  92:	9838      	ldr	r0, [sp, #224]	; 0xe0
  94:	f7ff fffe 	bl	0 <_ZN50_$LT$T$u20$as$u20$core..convert..From$LT$T$GT$$GT$4from17h4bfa181a78946fa0E>
  98:	9027      	str	r0, [sp, #156]	; 0x9c
  9a:	e7ff      	b.n	9c <_ZN3app11app_network16send_sensor_data17ha00b395570ee48dfE+0x9c>
  9c:	9827      	ldr	r0, [sp, #156]	; 0x9c
  9e:	f7ff fffe 	bl	0 <_ZN73_$LT$core..result..Result$LT$T$C$E$GT$$u20$as$u20$core..ops..try..Try$GT$10from_error17h6d3955e1a79eef94E>
  a2:	902b      	str	r0, [sp, #172]	; 0xac
  a4:	e7ff      	b.n	a6 <_ZN3app11app_network16send_sensor_data17ha00b395570ee48dfE+0xa6>
  a6:	e003      	b.n	b0 <_ZN3app11app_network16send_sensor_data17ha00b395570ee48dfE+0xb0>
/Users/Luppy/mynewt/stm32bluepill-mynewt-sensor/rust/app/src/app_network.rs:114
}
  a8:	982b      	ldr	r0, [sp, #172]	; 0xac
  aa:	f50d 7d2c 	add.w	sp, sp, #688	; 0x2b0
  ae:	bd10      	pop	{r4, pc}
/Users/Luppy/mynewt/stm32bluepill-mynewt-sensor/rust/app/src/app_network.rs:79
    let device_id = sensor_network::get_device_id() ? ;
  b0:	e7fa      	b.n	a8 <_ZN3app11app_network16send_sensor_data17ha00b395570ee48dfE+0xa8>
  b2:	9831      	ldr	r0, [sp, #196]	; 0xc4
  b4:	9932      	ldr	r1, [sp, #200]	; 0xc8
  b6:	9a33      	ldr	r2, [sp, #204]	; 0xcc
  b8:	923b      	str	r2, [sp, #236]	; 0xec
  ba:	913a      	str	r1, [sp, #232]	; 0xe8
  bc:	9039      	str	r0, [sp, #228]	; 0xe4
  be:	9839      	ldr	r0, [sp, #228]	; 0xe4
  c0:	993a      	ldr	r1, [sp, #232]	; 0xe8
  c2:	9a3b      	ldr	r2, [sp, #236]	; 0xec
  c4:	922f      	str	r2, [sp, #188]	; 0xbc
  c6:	912e      	str	r1, [sp, #184]	; 0xb8
  c8:	902d      	str	r0, [sp, #180]	; 0xb4
/Users/Luppy/mynewt/stm32bluepill-mynewt-sensor/rust/app/src/app_network.rs:84
    let rc = sensor_network::init_server_post( strn!(()) ) ? ;  //  `strn!(())` means use default CoAP URI in `syscfg.yml`
  ca:	f240 0100 	movw	r1, #0
  ce:	f2c0 0100 	movt	r1, #0
  d2:	a841      	add	r0, sp, #260	; 0x104
  d4:	2201      	movs	r2, #1
  d6:	f7ff fffe 	bl	0 <_ZN6mynewt4Strn3new17haa130bc407e45c8bE>
  da:	e7ff      	b.n	dc <_ZN3app11app_network16send_sensor_data17ha00b395570ee48dfE+0xdc>
  dc:	a83f      	add	r0, sp, #252	; 0xfc
  de:	a941      	add	r1, sp, #260	; 0x104
  e0:	f7ff fffe 	bl	0 <_ZN6mynewt4libs14sensor_network16init_server_post17h4d7cda996b2d7ef5E>
  e4:	e7ff      	b.n	e6 <_ZN3app11app_network16send_sensor_data17ha00b395570ee48dfE+0xe6>
  e6:	a83d      	add	r0, sp, #244	; 0xf4
  e8:	a93f      	add	r1, sp, #252	; 0xfc
  ea:	f7ff fffe 	bl	0 <_ZN73_$LT$core..result..Result$LT$T$C$E$GT$$u20$as$u20$core..ops..try..Try$GT$11into_result17h2b975e1f9ec08585E>
  ee:	e7ff      	b.n	f0 <_ZN3app11app_network16send_sensor_data17ha00b395570ee48dfE+0xf0>
  f0:	f89d 00f4 	ldrb.w	r0, [sp, #244]	; 0xf4
  f4:	07c1      	lsls	r1, r0, #31
  f6:	2900      	cmp	r1, #0
  f8:	9026      	str	r0, [sp, #152]	; 0x98
  fa:	d012      	beq.n	122 <_ZN3app11app_network16send_sensor_data17ha00b395570ee48dfE+0x122>
  fc:	e7ff      	b.n	fe <_ZN3app11app_network16send_sensor_data17ha00b395570ee48dfE+0xfe>
  fe:	9826      	ldr	r0, [sp, #152]	; 0x98
 100:	2801      	cmp	r0, #1
 102:	d1c3      	bne.n	8c <_ZN3app11app_network16send_sensor_data17ha00b395570ee48dfE+0x8c>
 104:	e7ff      	b.n	106 <_ZN3app11app_network16send_sensor_data17ha00b395570ee48dfE+0x106>
 106:	983e      	ldr	r0, [sp, #248]	; 0xf8
 108:	9044      	str	r0, [sp, #272]	; 0x110
 10a:	9844      	ldr	r0, [sp, #272]	; 0x110
 10c:	f7ff fffe 	bl	0 <_ZN50_$LT$T$u20$as$u20$core..convert..From$LT$T$GT$$GT$4from17h4bfa181a78946fa0E>
 110:	9025      	str	r0, [sp, #148]	; 0x94
 112:	e7ff      	b.n	114 <_ZN3app11app_network16send_sensor_data17ha00b395570ee48dfE+0x114>
 114:	9825      	ldr	r0, [sp, #148]	; 0x94
 116:	f7ff fffe 	bl	0 <_ZN73_$LT$core..result..Result$LT$T$C$E$GT$$u20$as$u20$core..ops..try..Try$GT$10from_error17h6d3955e1a79eef94E>
 11a:	902b      	str	r0, [sp, #172]	; 0xac
 11c:	e7ff      	b.n	11e <_ZN3app11app_network16send_sensor_data17ha00b395570ee48dfE+0x11e>
 11e:	e7ff      	b.n	120 <_ZN3app11app_network16send_sensor_data17ha00b395570ee48dfE+0x120>
 120:	e7c6      	b.n	b0 <_ZN3app11app_network16send_sensor_data17ha00b395570ee48dfE+0xb0>
 122:	f89d 00f5 	ldrb.w	r0, [sp, #245]	; 0xf5
 126:	f88d 0117 	strb.w	r0, [sp, #279]	; 0x117
 12a:	f89d 0117 	ldrb.w	r0, [sp, #279]	; 0x117
 12e:	f88d 00f3 	strb.w	r0, [sp, #243]	; 0xf3
/Users/Luppy/mynewt/stm32bluepill-mynewt-sensor/rust/app/src/app_network.rs:87
    if !rc { return Err(MynewtError::SYS_EAGAIN); }
 132:	f89d 00f3 	ldrb.w	r0, [sp, #243]	; 0xf3
 136:	07c0      	lsls	r0, r0, #31
 138:	2800      	cmp	r0, #0
 13a:	d106      	bne.n	14a <_ZN3app11app_network16send_sensor_data17ha00b395570ee48dfE+0x14a>
 13c:	e7ff      	b.n	13e <_ZN3app11app_network16send_sensor_data17ha00b395570ee48dfE+0x13e>
 13e:	f06f 0005 	mvn.w	r0, #5
 142:	9046      	str	r0, [sp, #280]	; 0x118
 144:	9846      	ldr	r0, [sp, #280]	; 0x118
 146:	902b      	str	r0, [sp, #172]	; 0xac
 148:	e7ea      	b.n	120 <_ZN3app11app_network16send_sensor_data17ha00b395570ee48dfE+0x120>
 14a:	a84a      	add	r0, sp, #296	; 0x128
 14c:	2132      	movs	r1, #50	; 0x32
/Users/Luppy/mynewt/stm32bluepill-mynewt-sensor/rust/app/src/app_network.rs:91
    let _payload = coap!( @json {        
 14e:	f7ff fffe 	bl	0 <_ZN6mynewt4libs14sensor_network12prepare_post17hfdaf25fbf86be5c2E>
 152:	e7ff      	b.n	154 <_ZN3app11app_network16send_sensor_data17ha00b395570ee48dfE+0x154>
 154:	a848      	add	r0, sp, #288	; 0x120
 156:	a94a      	add	r1, sp, #296	; 0x128
 158:	f7ff fffe 	bl	0 <_ZN73_$LT$core..result..Result$LT$T$C$E$GT$$u20$as$u20$core..ops..try..Try$GT$11into_result17h2b975e1f9ec08585E>
 15c:	e7ff      	b.n	15e <_ZN3app11app_network16send_sensor_data17ha00b395570ee48dfE+0x15e>
 15e:	f89d 0120 	ldrb.w	r0, [sp, #288]	; 0x120
 162:	07c1      	lsls	r1, r0, #31
 164:	2900      	cmp	r1, #0
 166:	9024      	str	r0, [sp, #144]	; 0x90
 168:	d013      	beq.n	192 <_ZN3app11app_network16send_sensor_data17ha00b395570ee48dfE+0x192>
 16a:	e7ff      	b.n	16c <_ZN3app11app_network16send_sensor_data17ha00b395570ee48dfE+0x16c>
 16c:	9824      	ldr	r0, [sp, #144]	; 0x90
 16e:	2801      	cmp	r0, #1
 170:	f47f af8c 	bne.w	8c <_ZN3app11app_network16send_sensor_data17ha00b395570ee48dfE+0x8c>
 174:	e7ff      	b.n	176 <_ZN3app11app_network16send_sensor_data17ha00b395570ee48dfE+0x176>
 176:	9849      	ldr	r0, [sp, #292]	; 0x124
 178:	904c      	str	r0, [sp, #304]	; 0x130
 17a:	984c      	ldr	r0, [sp, #304]	; 0x130
 17c:	f7ff fffe 	bl	0 <_ZN50_$LT$T$u20$as$u20$core..convert..From$LT$T$GT$$GT$4from17h4bfa181a78946fa0E>
 180:	9023      	str	r0, [sp, #140]	; 0x8c
 182:	e7ff      	b.n	184 <_ZN3app11app_network16send_sensor_data17ha00b395570ee48dfE+0x184>
 184:	9823      	ldr	r0, [sp, #140]	; 0x8c
 186:	f7ff fffe 	bl	0 <_ZN73_$LT$core..result..Result$LT$T$C$E$GT$$u20$as$u20$core..ops..try..Try$GT$10from_error17h6d3955e1a79eef94E>
 18a:	902b      	str	r0, [sp, #172]	; 0xac
 18c:	e7ff      	b.n	18e <_ZN3app11app_network16send_sensor_data17ha00b395570ee48dfE+0x18e>
 18e:	e7ff      	b.n	190 <_ZN3app11app_network16send_sensor_data17ha00b395570ee48dfE+0x190>
 190:	e7c6      	b.n	120 <_ZN3app11app_network16send_sensor_data17ha00b395570ee48dfE+0x120>
 192:	f89d 0121 	ldrb.w	r0, [sp, #289]	; 0x121
 196:	f88d 0137 	strb.w	r0, [sp, #311]	; 0x137
 19a:	f7ff fffe 	bl	0 <json_rep_start_root_object>
 19e:	e7ff      	b.n	2 <_ZN3app11app_network16send_sensor_data17ha00b395570ee48dfE+0x2>
 1a0:	f240 0000 	movw	r0, #0
 1a4:	f2c0 0000 	movt	r0, #0
 1a8:	904e      	str	r0, [sp, #312]	; 0x138
 1aa:	2007      	movs	r0, #7
 1ac:	904f      	str	r0, [sp, #316]	; 0x13c
/Users/Luppy/mynewt/stm32bluepill-mynewt-sensor/rust/app/src/lib.rs:1
/*
 1ae:	f240 0000 	movw	r0, #0
 1b2:	f2c0 0000 	movt	r0, #0
 1b6:	f7ff fffe 	bl	0 <_ZN6mynewt8encoding12coap_context11CoapContext11to_void_ptr17ha96fa3cb38da5ddbE>
 1ba:	9022      	str	r0, [sp, #136]	; 0x88
 1bc:	e7ff      	b.n	1be <_ZN3app11app_network16send_sensor_data17ha00b395570ee48dfE+0x1be>
/Users/Luppy/mynewt/stm32bluepill-mynewt-sensor/rust/app/src/app_network.rs:91
 1be:	984e      	ldr	r0, [sp, #312]	; 0x138
 1c0:	994f      	ldr	r1, [sp, #316]	; 0x13c
 1c2:	9094      	str	r0, [sp, #592]	; 0x250
 1c4:	9195      	str	r1, [sp, #596]	; 0x254
_ZN4core3str21_$LT$impl$u20$str$GT$8as_bytes17hbca31947ef6ad219E():
/rustc/50a0defd5a93523067ef239936cc2e0755220904/src/libcore/str/mod.rs:2153
 1c6:	9894      	ldr	r0, [sp, #592]	; 0x250
 1c8:	9995      	ldr	r1, [sp, #596]	; 0x254
 1ca:	9096      	str	r0, [sp, #600]	; 0x258
 1cc:	9197      	str	r1, [sp, #604]	; 0x25c
 1ce:	9996      	ldr	r1, [sp, #600]	; 0x258
 1d0:	9a97      	ldr	r2, [sp, #604]	; 0x25c
_ZN3app11app_network16send_sensor_data17ha00b395570ee48dfE():
/Users/Luppy/mynewt/stm32bluepill-mynewt-sensor/rust/app/src/app_network.rs:91
 1d2:	9121      	str	r1, [sp, #132]	; 0x84
 1d4:	9220      	str	r2, [sp, #128]	; 0x80
 1d6:	e7ff      	b.n	1d8 <_ZN3app11app_network16send_sensor_data17ha00b395570ee48dfE+0x1d8>
/Users/Luppy/mynewt/stm32bluepill-mynewt-sensor/rust/app/src/lib.rs:1
 1d8:	f240 0000 	movw	r0, #0
 1dc:	f2c0 0000 	movt	r0, #0
 1e0:	9921      	ldr	r1, [sp, #132]	; 0x84
 1e2:	9a20      	ldr	r2, [sp, #128]	; 0x80
 1e4:	f7ff fffe 	bl	0 <_ZN6mynewt8encoding12coap_context11CoapContext11key_to_cstr17ha9bcadf10507edfaE>
 1e8:	901f      	str	r0, [sp, #124]	; 0x7c
 1ea:	e7ff      	b.n	1ec <_ZN3app11app_network16send_sensor_data17ha00b395570ee48dfE+0x1ec>
/Users/Luppy/mynewt/stm32bluepill-mynewt-sensor/rust/app/src/app_network.rs:91
 1ec:	9822      	ldr	r0, [sp, #136]	; 0x88
 1ee:	991f      	ldr	r1, [sp, #124]	; 0x7c
 1f0:	f7ff fffe 	bl	0 <json_helper_set_array>
 1f4:	e7ff      	b.n	1f6 <_ZN3app11app_network16send_sensor_data17ha00b395570ee48dfE+0x1f6>
 1f6:	982a      	ldr	r0, [sp, #168]	; 0xa8
 1f8:	3020      	adds	r0, #32
 1fa:	a950      	add	r1, sp, #320	; 0x140
 1fc:	e8b0 500c 	ldmia.w	r0!, {r2, r3, ip, lr}
 200:	e8a1 500c 	stmia.w	r1!, {r2, r3, ip, lr}
 204:	e890 500c 	ldmia.w	r0, {r2, r3, ip, lr}
 208:	e881 500c 	stmia.w	r1, {r2, r3, ip, lr}
 20c:	982a      	ldr	r0, [sp, #168]	; 0xa8
 20e:	6800      	ldr	r0, [r0, #0]
 210:	2801      	cmp	r0, #1
 212:	f040 80e1 	bne.w	3d8 <_ZN3app11app_network16send_sensor_data17ha00b395570ee48dfE+0x3d8>
 216:	e7ff      	b.n	218 <_ZN3app11app_network16send_sensor_data17ha00b395570ee48dfE+0x218>
 218:	982a      	ldr	r0, [sp, #168]	; 0xa8
 21a:	6840      	ldr	r0, [r0, #4]
 21c:	9059      	str	r0, [sp, #356]	; 0x164
 21e:	f240 0000 	movw	r0, #0
 222:	f2c0 0000 	movt	r0, #0
 226:	905a      	str	r0, [sp, #360]	; 0x168
 228:	200d      	movs	r0, #13
 22a:	905b      	str	r0, [sp, #364]	; 0x16c
 22c:	985a      	ldr	r0, [sp, #360]	; 0x168
 22e:	995b      	ldr	r1, [sp, #364]	; 0x16c
 230:	90a8      	str	r0, [sp, #672]	; 0x2a0
 232:	91a9      	str	r1, [sp, #676]	; 0x2a4
_ZN4core3str21_$LT$impl$u20$str$GT$8as_bytes17hbca31947ef6ad219E():
/rustc/50a0defd5a93523067ef239936cc2e0755220904/src/libcore/str/mod.rs:2153
 234:	98a8      	ldr	r0, [sp, #672]	; 0x2a0
 236:	99a9      	ldr	r1, [sp, #676]	; 0x2a4
 238:	90aa      	str	r0, [sp, #680]	; 0x2a8
 23a:	91ab      	str	r1, [sp, #684]	; 0x2ac
 23c:	99aa      	ldr	r1, [sp, #680]	; 0x2a8
 23e:	9aab      	ldr	r2, [sp, #684]	; 0x2ac
_ZN3app11app_network16send_sensor_data17ha00b395570ee48dfE():
/Users/Luppy/mynewt/stm32bluepill-mynewt-sensor/rust/app/src/app_network.rs:91
 240:	911e      	str	r1, [sp, #120]	; 0x78
 242:	921d      	str	r2, [sp, #116]	; 0x74
 244:	e7ff      	b.n	246 <_ZN3app11app_network16send_sensor_data17ha00b395570ee48dfE+0x246>
/Users/Luppy/mynewt/stm32bluepill-mynewt-sensor/rust/app/src/lib.rs:1
 246:	f240 0000 	movw	r0, #0
 24a:	f2c0 0000 	movt	r0, #0
 24e:	991e      	ldr	r1, [sp, #120]	; 0x78
 250:	9a1d      	ldr	r2, [sp, #116]	; 0x74
 252:	f7ff fffe 	bl	0 <_ZN6mynewt8encoding12coap_context11CoapContext11key_to_cstr17ha9bcadf10507edfaE>
 256:	901c      	str	r0, [sp, #112]	; 0x70
 258:	e7ff      	b.n	25a <_ZN3app11app_network16send_sensor_data17ha00b395570ee48dfE+0x25a>
/Users/Luppy/mynewt/stm32bluepill-mynewt-sensor/rust/app/src/app_network.rs:91
 25a:	981c      	ldr	r0, [sp, #112]	; 0x70
 25c:	f7ff fffe 	bl	0 <json_helper_object_array_start_item>
 260:	e7ff      	b.n	2 <_ZN3app11app_network16send_sensor_data17ha00b395570ee48dfE+0x2>
 262:	f240 0000 	movw	r0, #0
 266:	f2c0 0000 	movt	r0, #0
 26a:	2103      	movs	r1, #3
 26c:	f7ff fffe 	bl	0 <_ZN75_$LT$str$u20$as$u20$mynewt..encoding..coap_context..ToBytesOptionalNull$GT$21to_bytes_optional_nul17h86d9940d247021b8E>
 270:	901b      	str	r0, [sp, #108]	; 0x6c
 272:	911a      	str	r1, [sp, #104]	; 0x68
 274:	e7ff      	b.n	276 <_ZN3app11app_network16send_sensor_data17ha00b395570ee48dfE+0x276>
 276:	981b      	ldr	r0, [sp, #108]	; 0x6c
 278:	905c      	str	r0, [sp, #368]	; 0x170
 27a:	991a      	ldr	r1, [sp, #104]	; 0x68
 27c:	915d      	str	r1, [sp, #372]	; 0x174
 27e:	9a2a      	ldr	r2, [sp, #168]	; 0xa8
 280:	6c10      	ldr	r0, [r2, #64]	; 0x40
 282:	f7ff fffe 	bl	0 <_ZN84_$LT$mynewt..Strn$u20$as$u20$mynewt..encoding..coap_context..ToBytesOptionalNull$GT$21to_bytes_optional_nul17h672f59bf22cbf6e9E>
 286:	9019      	str	r0, [sp, #100]	; 0x64
 288:	9118      	str	r1, [sp, #96]	; 0x60
 28a:	e7ff      	b.n	28c <_ZN3app11app_network16send_sensor_data17ha00b395570ee48dfE+0x28c>
 28c:	9819      	ldr	r0, [sp, #100]	; 0x64
 28e:	905e      	str	r0, [sp, #376]	; 0x178
 290:	9918      	ldr	r1, [sp, #96]	; 0x60
 292:	915f      	str	r1, [sp, #380]	; 0x17c
/Users/Luppy/mynewt/stm32bluepill-mynewt-sensor/rust/app/src/lib.rs:1
 294:	f240 0000 	movw	r0, #0
 298:	f2c0 0000 	movt	r0, #0
 29c:	f7ff fffe 	bl	0 <_ZN6mynewt8encoding12coap_context11CoapContext11to_void_ptr17ha96fa3cb38da5ddbE>
 2a0:	9017      	str	r0, [sp, #92]	; 0x5c
 2a2:	e7ff      	b.n	2a4 <_ZN3app11app_network16send_sensor_data17ha00b395570ee48dfE+0x2a4>
/Users/Luppy/mynewt/stm32bluepill-mynewt-sensor/rust/app/src/app_network.rs:91
 2a4:	995c      	ldr	r1, [sp, #368]	; 0x170
 2a6:	9a5d      	ldr	r2, [sp, #372]	; 0x174
/Users/Luppy/mynewt/stm32bluepill-mynewt-sensor/rust/app/src/lib.rs:1
 2a8:	f240 0000 	movw	r0, #0
 2ac:	f2c0 0000 	movt	r0, #0
 2b0:	f7ff fffe 	bl	0 <_ZN6mynewt8encoding12coap_context11CoapContext11key_to_cstr17ha9bcadf10507edfaE>
 2b4:	9016      	str	r0, [sp, #88]	; 0x58
 2b6:	e7ff      	b.n	2b8 <_ZN3app11app_network16send_sensor_data17ha00b395570ee48dfE+0x2b8>
/Users/Luppy/mynewt/stm32bluepill-mynewt-sensor/rust/app/src/app_network.rs:91
 2b8:	995e      	ldr	r1, [sp, #376]	; 0x178
 2ba:	9a5f      	ldr	r2, [sp, #380]	; 0x17c
/Users/Luppy/mynewt/stm32bluepill-mynewt-sensor/rust/app/src/lib.rs:1
 2bc:	f240 0000 	movw	r0, #0
 2c0:	f2c0 0000 	movt	r0, #0
 2c4:	f7ff fffe 	bl	0 <_ZN6mynewt8encoding12coap_context11CoapContext13value_to_cstr17hfc1b92176b61a6eaE>
 2c8:	9015      	str	r0, [sp, #84]	; 0x54
 2ca:	e7ff      	b.n	2cc <_ZN3app11app_network16send_sensor_data17ha00b395570ee48dfE+0x2cc>
/Users/Luppy/mynewt/stm32bluepill-mynewt-sensor/rust/app/src/app_network.rs:91
 2cc:	9817      	ldr	r0, [sp, #92]	; 0x5c
 2ce:	9916      	ldr	r1, [sp, #88]	; 0x58
 2d0:	9a15      	ldr	r2, [sp, #84]	; 0x54
 2d2:	f7ff fffe 	bl	0 <json_helper_set_text_string>
 2d6:	e7ff      	b.n	2 <_ZN3app11app_network16send_sensor_data17ha00b395570ee48dfE+0x2>
 2d8:	f240 0000 	movw	r0, #0
 2dc:	f2c0 0000 	movt	r0, #0
 2e0:	2105      	movs	r1, #5
 2e2:	f7ff fffe 	bl	0 <_ZN75_$LT$str$u20$as$u20$mynewt..encoding..coap_context..ToBytesOptionalNull$GT$21to_bytes_optional_nul17h86d9940d247021b8E>
 2e6:	9014      	str	r0, [sp, #80]	; 0x50
 2e8:	9113      	str	r1, [sp, #76]	; 0x4c
 2ea:	e7ff      	b.n	2ec <_ZN3app11app_network16send_sensor_data17ha00b395570ee48dfE+0x2ec>
 2ec:	9814      	ldr	r0, [sp, #80]	; 0x50
 2ee:	9060      	str	r0, [sp, #384]	; 0x180
 2f0:	9913      	ldr	r1, [sp, #76]	; 0x4c
 2f2:	9161      	str	r1, [sp, #388]	; 0x184
 2f4:	9a59      	ldr	r2, [sp, #356]	; 0x164
 2f6:	2300      	movs	r3, #0
 2f8:	9363      	str	r3, [sp, #396]	; 0x18c
 2fa:	9262      	str	r2, [sp, #392]	; 0x188
/Users/Luppy/mynewt/stm32bluepill-mynewt-sensor/rust/app/src/lib.rs:1
 2fc:	f240 0000 	movw	r0, #0
 300:	f2c0 0000 	movt	r0, #0
 304:	f7ff fffe 	bl	0 <_ZN6mynewt8encoding12coap_context11CoapContext11to_void_ptr17ha96fa3cb38da5ddbE>
 308:	9012      	str	r0, [sp, #72]	; 0x48
 30a:	e7ff      	b.n	30c <_ZN3app11app_network16send_sensor_data17ha00b395570ee48dfE+0x30c>
/Users/Luppy/mynewt/stm32bluepill-mynewt-sensor/rust/app/src/app_network.rs:91
 30c:	9960      	ldr	r1, [sp, #384]	; 0x180
 30e:	9a61      	ldr	r2, [sp, #388]	; 0x184
/Users/Luppy/mynewt/stm32bluepill-mynewt-sensor/rust/app/src/lib.rs:1
 310:	f240 0000 	movw	r0, #0
 314:	f2c0 0000 	movt	r0, #0
 318:	f7ff fffe 	bl	0 <_ZN6mynewt8encoding12coap_context11CoapContext11key_to_cstr17ha9bcadf10507edfaE>
 31c:	9011      	str	r0, [sp, #68]	; 0x44
 31e:	e7ff      	b.n	320 <_ZN3app11app_network16send_sensor_data17ha00b395570ee48dfE+0x320>
/Users/Luppy/mynewt/stm32bluepill-mynewt-sensor/rust/app/src/app_network.rs:91
 320:	9a62      	ldr	r2, [sp, #392]	; 0x188
 322:	9b63      	ldr	r3, [sp, #396]	; 0x18c
 324:	9812      	ldr	r0, [sp, #72]	; 0x48
 326:	9911      	ldr	r1, [sp, #68]	; 0x44
 328:	f7ff fffe 	bl	0 <json_helper_set_int>
 32c:	e7ff      	b.n	2 <_ZN3app11app_network16send_sensor_data17ha00b395570ee48dfE+0x2>
 32e:	f240 0100 	movw	r1, #0
 332:	f2c0 0100 	movt	r1, #0
 336:	a865      	add	r0, sp, #404	; 0x194
 338:	2204      	movs	r2, #4
 33a:	f7ff fffe 	bl	0 <_ZN6mynewt4Strn3new17haa130bc407e45c8bE>
 33e:	e7ff      	b.n	6 <_ZN3app11app_network16send_sensor_data17ha00b395570ee48dfE+0x6>
 340:	f240 0100 	movw	r1, #0
 344:	f2c0 0100 	movt	r1, #0
 348:	a868      	add	r0, sp, #416	; 0x1a0
 34a:	2204      	movs	r2, #4
 34c:	f7ff fffe 	bl	0 <_ZN6mynewt4Strn3new17haa130bc407e45c8bE>
 350:	e7ff      	b.n	2 <_ZN3app11app_network16send_sensor_data17ha00b395570ee48dfE+0x2>
 352:	f240 0100 	movw	r1, #0
 356:	f2c0 0100 	movt	r1, #0
 35a:	a86b      	add	r0, sp, #428	; 0x1ac
 35c:	2205      	movs	r2, #5
 35e:	f7ff fffe 	bl	0 <_ZN6mynewt4Strn3new17haa130bc407e45c8bE>
 362:	e7ff      	b.n	364 <_ZN3app11app_network16send_sensor_data17ha00b395570ee48dfE+0x364>
 364:	a850      	add	r0, sp, #320	; 0x140
 366:	a96e      	add	r1, sp, #440	; 0x1b8
 368:	460a      	mov	r2, r1
 36a:	e8b0 5018 	ldmia.w	r0!, {r3, r4, ip, lr}
 36e:	e8a2 5018 	stmia.w	r2!, {r3, r4, ip, lr}
 372:	e890 5018 	ldmia.w	r0, {r3, r4, ip, lr}
 376:	e882 5018 	stmia.w	r2, {r3, r4, ip, lr}
/Users/Luppy/mynewt/stm32bluepill-mynewt-sensor/rust/app/src/lib.rs:1
 37a:	4668      	mov	r0, sp
 37c:	6001      	str	r1, [r0, #0]
 37e:	f240 0000 	movw	r0, #0
 382:	f2c0 0000 	movt	r0, #0
 386:	a965      	add	r1, sp, #404	; 0x194
 388:	aa68      	add	r2, sp, #416	; 0x1a0
 38a:	ab6b      	add	r3, sp, #428	; 0x1ac
 38c:	f7ff fffe 	bl	0 <_ZN6mynewt8encoding12coap_context11CoapContext20json_set_geolocation17h5cef0a66b381353bE>
 390:	e7ff      	b.n	2 <_ZN3app11app_network16send_sensor_data17ha00b395570ee48dfE+0x2>
/Users/Luppy/mynewt/stm32bluepill-mynewt-sensor/rust/app/src/app_network.rs:91
 392:	f240 0000 	movw	r0, #0
 396:	f2c0 0000 	movt	r0, #0
 39a:	9077      	str	r0, [sp, #476]	; 0x1dc
 39c:	200d      	movs	r0, #13
 39e:	9078      	str	r0, [sp, #480]	; 0x1e0
 3a0:	9877      	ldr	r0, [sp, #476]	; 0x1dc
 3a2:	9978      	ldr	r1, [sp, #480]	; 0x1e0
 3a4:	90a4      	str	r0, [sp, #656]	; 0x290
 3a6:	91a5      	str	r1, [sp, #660]	; 0x294
_ZN4core3str21_$LT$impl$u20$str$GT$8as_bytes17hbca31947ef6ad219E():
/rustc/50a0defd5a93523067ef239936cc2e0755220904/src/libcore/str/mod.rs:2153
 3a8:	98a4      	ldr	r0, [sp, #656]	; 0x290
 3aa:	99a5      	ldr	r1, [sp, #660]	; 0x294
 3ac:	90a6      	str	r0, [sp, #664]	; 0x298
 3ae:	91a7      	str	r1, [sp, #668]	; 0x29c
 3b0:	99a6      	ldr	r1, [sp, #664]	; 0x298
 3b2:	9aa7      	ldr	r2, [sp, #668]	; 0x29c
_ZN3app11app_network16send_sensor_data17ha00b395570ee48dfE():
/Users/Luppy/mynewt/stm32bluepill-mynewt-sensor/rust/app/src/app_network.rs:91
 3b4:	9110      	str	r1, [sp, #64]	; 0x40
 3b6:	920f      	str	r2, [sp, #60]	; 0x3c
 3b8:	e7ff      	b.n	3ba <_ZN3app11app_network16send_sensor_data17ha00b395570ee48dfE+0x3ba>
/Users/Luppy/mynewt/stm32bluepill-mynewt-sensor/rust/app/src/lib.rs:1
 3ba:	f240 0000 	movw	r0, #0
 3be:	f2c0 0000 	movt	r0, #0
 3c2:	9910      	ldr	r1, [sp, #64]	; 0x40
 3c4:	9a0f      	ldr	r2, [sp, #60]	; 0x3c
 3c6:	f7ff fffe 	bl	0 <_ZN6mynewt8encoding12coap_context11CoapContext11key_to_cstr17ha9bcadf10507edfaE>
 3ca:	900e      	str	r0, [sp, #56]	; 0x38
 3cc:	e7ff      	b.n	3ce <_ZN3app11app_network16send_sensor_data17ha00b395570ee48dfE+0x3ce>
/Users/Luppy/mynewt/stm32bluepill-mynewt-sensor/rust/app/src/app_network.rs:91
 3ce:	980e      	ldr	r0, [sp, #56]	; 0x38
 3d0:	f7ff fffe 	bl	0 <json_helper_object_array_end_item>
 3d4:	e7ff      	b.n	3d6 <_ZN3app11app_network16send_sensor_data17ha00b395570ee48dfE+0x3d6>
 3d6:	e00c      	b.n	3f2 <_ZN3app11app_network16send_sensor_data17ha00b395570ee48dfE+0x3f2>
 3d8:	2001      	movs	r0, #1
 3da:	f88d 01e7 	strb.w	r0, [sp, #487]	; 0x1e7
 3de:	f89d 11e7 	ldrb.w	r1, [sp, #487]	; 0x1e7
 3e2:	f240 0000 	movw	r0, #0
 3e6:	f2c0 0000 	movt	r0, #0
 3ea:	f7ff fffe 	bl	0 <_ZN6mynewt8encoding12coap_context11CoapContext4fail17h8b0f21dc333d20ccE>
 3ee:	e7ff      	b.n	3f0 <_ZN3app11app_network16send_sensor_data17ha00b395570ee48dfE+0x3f0>
 3f0:	e7ff      	b.n	3f2 <_ZN3app11app_network16send_sensor_data17ha00b395570ee48dfE+0x3f2>
 3f2:	f240 0000 	movw	r0, #0
 3f6:	f2c0 0000 	movt	r0, #0
 3fa:	907a      	str	r0, [sp, #488]	; 0x1e8
 3fc:	200d      	movs	r0, #13
 3fe:	907b      	str	r0, [sp, #492]	; 0x1ec
 400:	987a      	ldr	r0, [sp, #488]	; 0x1e8
 402:	997b      	ldr	r1, [sp, #492]	; 0x1ec
 404:	90a0      	str	r0, [sp, #640]	; 0x280
 406:	91a1      	str	r1, [sp, #644]	; 0x284
_ZN4core3str21_$LT$impl$u20$str$GT$8as_bytes17hbca31947ef6ad219E():
/rustc/50a0defd5a93523067ef239936cc2e0755220904/src/libcore/str/mod.rs:2153
 408:	98a0      	ldr	r0, [sp, #640]	; 0x280
 40a:	99a1      	ldr	r1, [sp, #644]	; 0x284
 40c:	90a2      	str	r0, [sp, #648]	; 0x288
 40e:	91a3      	str	r1, [sp, #652]	; 0x28c
 410:	99a2      	ldr	r1, [sp, #648]	; 0x288
 412:	9aa3      	ldr	r2, [sp, #652]	; 0x28c
_ZN3app11app_network16send_sensor_data17ha00b395570ee48dfE():
/Users/Luppy/mynewt/stm32bluepill-mynewt-sensor/rust/app/src/app_network.rs:91
 414:	910d      	str	r1, [sp, #52]	; 0x34
 416:	920c      	str	r2, [sp, #48]	; 0x30
 418:	e7ff      	b.n	41a <_ZN3app11app_network16send_sensor_data17ha00b395570ee48dfE+0x41a>
/Users/Luppy/mynewt/stm32bluepill-mynewt-sensor/rust/app/src/lib.rs:1
 41a:	f240 0000 	movw	r0, #0
 41e:	f2c0 0000 	movt	r0, #0
 422:	990d      	ldr	r1, [sp, #52]	; 0x34
 424:	9a0c      	ldr	r2, [sp, #48]	; 0x30
 426:	f7ff fffe 	bl	0 <_ZN6mynewt8encoding12coap_context11CoapContext11key_to_cstr17ha9bcadf10507edfaE>
 42a:	900b      	str	r0, [sp, #44]	; 0x2c
 42c:	e7ff      	b.n	42e <_ZN3app11app_network16send_sensor_data17ha00b395570ee48dfE+0x42e>
/Users/Luppy/mynewt/stm32bluepill-mynewt-sensor/rust/app/src/app_network.rs:91
 42e:	980b      	ldr	r0, [sp, #44]	; 0x2c
 430:	f7ff fffe 	bl	0 <json_helper_object_array_start_item>
 434:	e7ff      	b.n	a <_ZN3app11app_network16send_sensor_data17ha00b395570ee48dfE+0xa>
 436:	f240 0100 	movw	r1, #0
 43a:	f2c0 0100 	movt	r1, #0
 43e:	a87d      	add	r0, sp, #500	; 0x1f4
 440:	2204      	movs	r2, #4
 442:	f7ff fffe 	bl	0 <_ZN6mynewt4Strn3new17haa130bc407e45c8bE>
 446:	e7ff      	b.n	448 <_ZN3app11app_network16send_sensor_data17ha00b395570ee48dfE+0x448>
 448:	a87d      	add	r0, sp, #500	; 0x1f4
 44a:	907c      	str	r0, [sp, #496]	; 0x1f0
 44c:	f240 0100 	movw	r1, #0
 450:	f2c0 0100 	movt	r1, #0
 454:	a881      	add	r0, sp, #516	; 0x204
 456:	2207      	movs	r2, #7
 458:	f7ff fffe 	bl	0 <_ZN6mynewt4Strn3new17haa130bc407e45c8bE>
 45c:	e7ff      	b.n	45e <_ZN3app11app_network16send_sensor_data17ha00b395570ee48dfE+0x45e>
 45e:	a881      	add	r0, sp, #516	; 0x204
 460:	9080      	str	r0, [sp, #512]	; 0x200
 462:	997c      	ldr	r1, [sp, #496]	; 0x1f0
 464:	9a80      	ldr	r2, [sp, #512]	; 0x200
/Users/Luppy/mynewt/stm32bluepill-mynewt-sensor/rust/app/src/lib.rs:1
 466:	f240 0000 	movw	r0, #0
 46a:	f2c0 0000 	movt	r0, #0
 46e:	f7ff fffe 	bl	0 <_ZN6mynewt8encoding12coap_context11CoapContext20json_set_text_string17hdbc3bda942320fdcE>
 472:	e7ff      	b.n	2 <_ZN3app11app_network16send_sensor_data17ha00b395570ee48dfE+0x2>
/Users/Luppy/mynewt/stm32bluepill-mynewt-sensor/rust/app/src/app_network.rs:91
 474:	f240 0100 	movw	r1, #0
 478:	f2c0 0100 	movt	r1, #0
 47c:	a885      	add	r0, sp, #532	; 0x214
 47e:	2206      	movs	r2, #6
 480:	f7ff fffe 	bl	0 <_ZN6mynewt4Strn3new17haa130bc407e45c8bE>
 484:	e7ff      	b.n	486 <_ZN3app11app_network16send_sensor_data17ha00b395570ee48dfE+0x486>
 486:	a885      	add	r0, sp, #532	; 0x214
 488:	9084      	str	r0, [sp, #528]	; 0x210
 48a:	a82d      	add	r0, sp, #180	; 0xb4
/Users/Luppy/mynewt/stm32bluepill-mynewt-sensor/rust/app/src/app_network.rs:100
        "device": &device_id,
 48c:	9088      	str	r0, [sp, #544]	; 0x220
/Users/Luppy/mynewt/stm32bluepill-mynewt-sensor/rust/app/src/app_network.rs:91
    let _payload = coap!( @json {        
 48e:	9984      	ldr	r1, [sp, #528]	; 0x210
 490:	9a88      	ldr	r2, [sp, #544]	; 0x220
/Users/Luppy/mynewt/stm32bluepill-mynewt-sensor/rust/app/src/lib.rs:1
 492:	f240 0000 	movw	r0, #0
 496:	f2c0 0000 	movt	r0, #0
 49a:	f7ff fffe 	bl	0 <_ZN6mynewt8encoding12coap_context11CoapContext20json_set_text_string17hdbc3bda942320fdcE>
 49e:	e7ff      	b.n	2 <_ZN3app11app_network16send_sensor_data17ha00b395570ee48dfE+0x2>
/Users/Luppy/mynewt/stm32bluepill-mynewt-sensor/rust/app/src/app_network.rs:91
 4a0:	f240 0000 	movw	r0, #0
 4a4:	f2c0 0000 	movt	r0, #0
 4a8:	9089      	str	r0, [sp, #548]	; 0x224
 4aa:	200d      	movs	r0, #13
 4ac:	908a      	str	r0, [sp, #552]	; 0x228
 4ae:	9889      	ldr	r0, [sp, #548]	; 0x224
 4b0:	998a      	ldr	r1, [sp, #552]	; 0x228
 4b2:	909c      	str	r0, [sp, #624]	; 0x270
 4b4:	919d      	str	r1, [sp, #628]	; 0x274
_ZN4core3str21_$LT$impl$u20$str$GT$8as_bytes17hbca31947ef6ad219E():
/rustc/50a0defd5a93523067ef239936cc2e0755220904/src/libcore/str/mod.rs:2153
 4b6:	989c      	ldr	r0, [sp, #624]	; 0x270
 4b8:	999d      	ldr	r1, [sp, #628]	; 0x274
 4ba:	909e      	str	r0, [sp, #632]	; 0x278
 4bc:	919f      	str	r1, [sp, #636]	; 0x27c
 4be:	999e      	ldr	r1, [sp, #632]	; 0x278
 4c0:	9a9f      	ldr	r2, [sp, #636]	; 0x27c
_ZN3app11app_network16send_sensor_data17ha00b395570ee48dfE():
/Users/Luppy/mynewt/stm32bluepill-mynewt-sensor/rust/app/src/app_network.rs:91
 4c2:	910a      	str	r1, [sp, #40]	; 0x28
 4c4:	9209      	str	r2, [sp, #36]	; 0x24
 4c6:	e7ff      	b.n	4c8 <_ZN3app11app_network16send_sensor_data17ha00b395570ee48dfE+0x4c8>
/Users/Luppy/mynewt/stm32bluepill-mynewt-sensor/rust/app/src/lib.rs:1
 4c8:	f240 0000 	movw	r0, #0
 4cc:	f2c0 0000 	movt	r0, #0
 4d0:	990a      	ldr	r1, [sp, #40]	; 0x28
 4d2:	9a09      	ldr	r2, [sp, #36]	; 0x24
 4d4:	f7ff fffe 	bl	0 <_ZN6mynewt8encoding12coap_context11CoapContext11key_to_cstr17ha9bcadf10507edfaE>
 4d8:	9008      	str	r0, [sp, #32]
 4da:	e7ff      	b.n	4dc <_ZN3app11app_network16send_sensor_data17ha00b395570ee48dfE+0x4dc>
/Users/Luppy/mynewt/stm32bluepill-mynewt-sensor/rust/app/src/app_network.rs:91
 4dc:	9808      	ldr	r0, [sp, #32]
 4de:	f7ff fffe 	bl	0 <json_helper_object_array_end_item>
 4e2:	e7ff      	b.n	2 <_ZN3app11app_network16send_sensor_data17ha00b395570ee48dfE+0x2>
 4e4:	f240 0000 	movw	r0, #0
 4e8:	f2c0 0000 	movt	r0, #0
 4ec:	908b      	str	r0, [sp, #556]	; 0x22c
 4ee:	2007      	movs	r0, #7
 4f0:	908c      	str	r0, [sp, #560]	; 0x230
/Users/Luppy/mynewt/stm32bluepill-mynewt-sensor/rust/app/src/lib.rs:1
 4f2:	f240 0000 	movw	r0, #0
 4f6:	f2c0 0000 	movt	r0, #0
 4fa:	f7ff fffe 	bl	0 <_ZN6mynewt8encoding12coap_context11CoapContext11to_void_ptr17ha96fa3cb38da5ddbE>
 4fe:	9007      	str	r0, [sp, #28]
 500:	e7ff      	b.n	502 <_ZN3app11app_network16send_sensor_data17ha00b395570ee48dfE+0x502>
/Users/Luppy/mynewt/stm32bluepill-mynewt-sensor/rust/app/src/app_network.rs:91
 502:	988b      	ldr	r0, [sp, #556]	; 0x22c
 504:	998c      	ldr	r1, [sp, #560]	; 0x230
 506:	9098      	str	r0, [sp, #608]	; 0x260
 508:	9199      	str	r1, [sp, #612]	; 0x264
_ZN4core3str21_$LT$impl$u20$str$GT$8as_bytes17hbca31947ef6ad219E():
/rustc/50a0defd5a93523067ef239936cc2e0755220904/src/libcore/str/mod.rs:2153
 50a:	9898      	ldr	r0, [sp, #608]	; 0x260
 50c:	9999      	ldr	r1, [sp, #612]	; 0x264
 50e:	909a      	str	r0, [sp, #616]	; 0x268
 510:	919b      	str	r1, [sp, #620]	; 0x26c
 512:	999a      	ldr	r1, [sp, #616]	; 0x268
 514:	9a9b      	ldr	r2, [sp, #620]	; 0x26c
_ZN3app11app_network16send_sensor_data17ha00b395570ee48dfE():
/Users/Luppy/mynewt/stm32bluepill-mynewt-sensor/rust/app/src/app_network.rs:91
 516:	9106      	str	r1, [sp, #24]
 518:	9205      	str	r2, [sp, #20]
 51a:	e7ff      	b.n	51c <_ZN3app11app_network16send_sensor_data17ha00b395570ee48dfE+0x51c>
/Users/Luppy/mynewt/stm32bluepill-mynewt-sensor/rust/app/src/lib.rs:1
 51c:	f240 0000 	movw	r0, #0
 520:	f2c0 0000 	movt	r0, #0
 524:	9906      	ldr	r1, [sp, #24]
 526:	9a05      	ldr	r2, [sp, #20]
 528:	f7ff fffe 	bl	0 <_ZN6mynewt8encoding12coap_context11CoapContext11key_to_cstr17ha9bcadf10507edfaE>
 52c:	9004      	str	r0, [sp, #16]
 52e:	e7ff      	b.n	530 <_ZN3app11app_network16send_sensor_data17ha00b395570ee48dfE+0x530>
/Users/Luppy/mynewt/stm32bluepill-mynewt-sensor/rust/app/src/app_network.rs:91
 530:	9807      	ldr	r0, [sp, #28]
 532:	9904      	ldr	r1, [sp, #16]
 534:	f7ff fffe 	bl	0 <json_helper_close_array>
 538:	e7ff      	b.n	2 <json_rep_end_root_object+0x2>
 53a:	f7ff fffe 	bl	0 <json_rep_end_root_object>
 53e:	e7ff      	b.n	540 <_ZN3app11app_network16send_sensor_data17ha00b395570ee48dfE+0x540>
 540:	a88f      	add	r0, sp, #572	; 0x23c
/Users/Luppy/mynewt/stm32bluepill-mynewt-sensor/rust/app/src/app_network.rs:106
    sensor_network::do_server_post() ? ;
 542:	f7ff fffe 	bl	0 <_ZN6mynewt4libs14sensor_network14do_server_post17h7661fb0cf0ad1a96E>
 546:	e7ff      	b.n	548 <_ZN3app11app_network16send_sensor_data17ha00b395570ee48dfE+0x548>
 548:	a88d      	add	r0, sp, #564	; 0x234
 54a:	a98f      	add	r1, sp, #572	; 0x23c
 54c:	f7ff fffe 	bl	0 <_ZN73_$LT$core..result..Result$LT$T$C$E$GT$$u20$as$u20$core..ops..try..Try$GT$11into_result17h2b975e1f9ec08585E>
 550:	e7ff      	b.n	552 <_ZN3app11app_network16send_sensor_data17ha00b395570ee48dfE+0x552>
 552:	f89d 0234 	ldrb.w	r0, [sp, #564]	; 0x234
 556:	07c1      	lsls	r1, r0, #31
 558:	2900      	cmp	r1, #0
 55a:	9003      	str	r0, [sp, #12]
 55c:	d012      	beq.n	584 <_ZN3app11app_network16send_sensor_data17ha00b395570ee48dfE+0x584>
 55e:	e7ff      	b.n	560 <_ZN3app11app_network16send_sensor_data17ha00b395570ee48dfE+0x560>
 560:	9803      	ldr	r0, [sp, #12]
 562:	2801      	cmp	r0, #1
 564:	f47f ad92 	bne.w	8c <_ZN3app11app_network16send_sensor_data17ha00b395570ee48dfE+0x8c>
 568:	e7ff      	b.n	56a <_ZN3app11app_network16send_sensor_data17ha00b395570ee48dfE+0x56a>
 56a:	988e      	ldr	r0, [sp, #568]	; 0x238
 56c:	9091      	str	r0, [sp, #580]	; 0x244
 56e:	9891      	ldr	r0, [sp, #580]	; 0x244
 570:	f7ff fffe 	bl	0 <_ZN50_$LT$T$u20$as$u20$core..convert..From$LT$T$GT$$GT$4from17h4bfa181a78946fa0E>
 574:	9002      	str	r0, [sp, #8]
 576:	e7ff      	b.n	578 <_ZN3app11app_network16send_sensor_data17ha00b395570ee48dfE+0x578>
 578:	9802      	ldr	r0, [sp, #8]
 57a:	f7ff fffe 	bl	0 <_ZN73_$LT$core..result..Result$LT$T$C$E$GT$$u20$as$u20$core..ops..try..Try$GT$10from_error17h6d3955e1a79eef94E>
 57e:	902b      	str	r0, [sp, #172]	; 0xac
 580:	e7ff      	b.n	582 <_ZN3app11app_network16send_sensor_data17ha00b395570ee48dfE+0x582>
 582:	e605      	b.n	190 <_ZN3app11app_network16send_sensor_data17ha00b395570ee48dfE+0x190>
 584:	f89d 0235 	ldrb.w	r0, [sp, #565]	; 0x235
 588:	f88d 024b 	strb.w	r0, [sp, #587]	; 0x24b
/Users/Luppy/mynewt/stm32bluepill-mynewt-sensor/rust/app/src/app_network.rs:109
    console::print("NET view your sensor at \nhttps://blue-pill-geolocate.appspot.com?device=");
 58c:	f240 0000 	movw	r0, #0
 590:	f2c0 0000 	movt	r0, #0
 594:	2148      	movs	r1, #72	; 0x48
 596:	f7ff fffe 	bl	0 <_ZN6mynewt3sys7console5print17h0f65bc3b0e739871E>
 59a:	e7ff      	b.n	59c <_ZN3app11app_network16send_sensor_data17ha00b395570ee48dfE+0x59c>
 59c:	a82d      	add	r0, sp, #180	; 0xb4
/Users/Luppy/mynewt/stm32bluepill-mynewt-sensor/rust/app/src/app_network.rs:110
    console::print_strn(&device_id); console::print("\n");
 59e:	f7ff fffe 	bl	0 <_ZN6mynewt3sys7console10print_strn17h6acf88a32c052588E>
 5a2:	e7ff      	b.n	2 <_ZN3app11app_network16send_sensor_data17ha00b395570ee48dfE+0x2>
 5a4:	f240 0000 	movw	r0, #0
 5a8:	f2c0 0000 	movt	r0, #0
 5ac:	2101      	movs	r1, #1
 5ae:	f7ff fffe 	bl	0 <_ZN6mynewt3sys7console5print17h0f65bc3b0e739871E>
 5b2:	e7ff      	b.n	5b4 <_ZN3app11app_network16send_sensor_data17ha00b395570ee48dfE+0x5b4>
 5b4:	2000      	movs	r0, #0
/Users/Luppy/mynewt/stm32bluepill-mynewt-sensor/rust/app/src/app_network.rs:113
    Ok(())
 5b6:	902b      	str	r0, [sp, #172]	; 0xac
 5b8:	2001      	movs	r0, #1
 5ba:	902b      	str	r0, [sp, #172]	; 0xac
/Users/Luppy/mynewt/stm32bluepill-mynewt-sensor/rust/app/src/app_network.rs:114
}
 5bc:	e574      	b.n	a8 <_ZN3app11app_network16send_sensor_data17ha00b395570ee48dfE+0xa8>

app-b90ce02d7e477c3f.387fyplfnkxh0j64.rcgu.o:     file format elf32-littlearm

SYMBOL TABLE:
00000000 l    df *ABS*	00000000 387fyplfnkxh0j64
000001cb l       .debug_str	00000000 
00000000 l       .debug_str	00000000 
00000041 l       .debug_str	00000000 
00000055 l       .debug_str	00000000 
00000085 l       .debug_str	00000000 
0000008c l       .debug_str	00000000 
00000093 l       .debug_str	00000000 
00000097 l       .debug_str	00000000 
0000009f l       .debug_str	00000000 
000000aa l       .debug_str	00000000 
000000b5 l       .debug_str	00000000 
000000c2 l       .debug_str	00000000 
000001ed l       .debug_str	00000000 
000000cd l       .debug_str	00000000 
000000d5 l       .debug_str	00000000 
000000e0 l       .debug_str	00000000 
000000eb l       .debug_str	00000000 
000000f5 l       .debug_str	00000000 
00000100 l       .debug_str	00000000 
0000010b l       .debug_str	00000000 
00000118 l       .debug_str	00000000 
00000124 l       .debug_str	00000000 
00000131 l       .debug_str	00000000 
0000013f l       .debug_str	00000000 
00000149 l       .debug_str	00000000 
00000156 l       .debug_str	00000000 
00000162 l       .debug_str	00000000 
00000167 l       .debug_str	00000000 
0000016f l       .debug_str	00000000 
00000178 l       .debug_str	00000000 
0000017a l       .debug_str	00000000 
00000000 l    d  .text._ZN50_$LT$T$u20$as$u20$core..convert..From$LT$T$GT$$GT$4from17h4bfa181a78946fa0E	00000000 .text._ZN50_$LT$T$u20$as$u20$core..convert..From$LT$T$GT$$GT$4from17h4bfa181a78946fa0E
00000000 l    d  .debug_abbrev	00000000 .debug_abbrev
00000000 l    d  .debug_info	00000000 .debug_info
00000000 l    d  .debug_frame	00000000 .debug_frame
00000000 l    d  .debug_line	00000000 .debug_line
00000000 g     F .text._ZN50_$LT$T$u20$as$u20$core..convert..From$LT$T$GT$$GT$4from17h4bfa181a78946fa0E	0000000e _ZN50_$LT$T$u20$as$u20$core..convert..From$LT$T$GT$$GT$4from17h4bfa181a78946fa0E



Disassembly of section .text._ZN50_$LT$T$u20$as$u20$core..convert..From$LT$T$GT$$GT$4from17h4bfa181a78946fa0E:

00000000 <_ZN50_$LT$T$u20$as$u20$core..convert..From$LT$T$GT$$GT$4from17h4bfa181a78946fa0E>:
_ZN50_$LT$T$u20$as$u20$core..convert..From$LT$T$GT$$GT$4from17h4bfa181a78946fa0E():
/rustc/50a0defd5a93523067ef239936cc2e0755220904/src/libcore/convert.rs:547
   0:	b082      	sub	sp, #8
   2:	4601      	mov	r1, r0
   4:	9001      	str	r0, [sp, #4]
   6:	9801      	ldr	r0, [sp, #4]
   8:	9100      	str	r1, [sp, #0]
   a:	b002      	add	sp, #8
   c:	4770      	bx	lr

app-b90ce02d7e477c3f.3rvhu3o5i9kxh4nx.rcgu.o:     file format elf32-littlearm

SYMBOL TABLE:
00000000 l    df *ABS*	00000000 3rvhu3o5i9kxh4nx
00001d00 l       .debug_str	00000000 
000023a8 l       .debug_str	00000000 
000023ad l       .debug_str	00000000 
000023b1 l       .debug_str	00000000 
000023ba l       .debug_str	00000000 
000023c1 l       .debug_str	00000000 
000023c7 l       .debug_str	00000000 
000023cc l       .debug_str	00000000 
00000000 l       .debug_str	00000000 
00000041 l       .debug_str	00000000 
00000055 l       .debug_str	00000000 
00000085 l       .debug_str	00000000 
0000008a l       .debug_str	00000000 
0000008e l       .debug_str	00000000 
00000091 l       .debug_str	00000000 
0000009c l       .debug_str	00000000 
000000a7 l       .debug_str	00000000 
000000ae l       .debug_str	00000000 
000000b5 l       .debug_str	00000000 
000000b9 l       .debug_str	00000000 
000000be l       .debug_str	00000000 
000000c5 l       .debug_str	00000000 
000000c8 l       .debug_str	00000000 
000000cf l       .debug_str	00000000 
000000d8 l       .debug_str	00000000 
000000de l       .debug_str	00000000 
000000e5 l       .debug_str	00000000 
000000e8 l       .debug_str	00000000 
000000f4 l       .debug_str	00000000 
000000fc l       .debug_str	00000000 
00000100 l       .debug_str	00000000 
00000117 l       .debug_str	00000000 
00000171 l       .debug_str	00000000 
00000173 l       .debug_str	00000000 
00000178 l       .debug_str	00000000 
0000017c l       .debug_str	00000000 
000001de l       .debug_str	00000000 
000001e9 l       .debug_str	00000000 
00000230 l       .debug_str	00000000 
0000027f l       .debug_str	00000000 
00000289 l       .debug_str	00000000 
000002c6 l       .debug_str	00000000 
0000030b l       .debug_str	00000000 
00000314 l       .debug_str	00000000 
00000324 l       .debug_str	00000000 
0000032c l       .debug_str	00000000 
00000381 l       .debug_str	00000000 
000003de l       .debug_str	00000000 
000003ea l       .debug_str	00000000 
000003f3 l       .debug_str	00000000 
000003ff l       .debug_str	00000000 
0000040b l       .debug_str	00000000 
00000414 l       .debug_str	00000000 
0000041c l       .debug_str	00000000 
00000426 l       .debug_str	00000000 
0000042e l       .debug_str	00000000 
00000438 l       .debug_str	00000000 
0000044d l       .debug_str	00000000 
00000454 l       .debug_str	00000000 
00000474 l       .debug_str	00000000 
0000047b l       .debug_str	00000000 
00000483 l       .debug_str	00000000 
0000048d l       .debug_str	00000000 
00000498 l       .debug_str	00000000 
000004a1 l       .debug_str	00000000 
000004ac l       .debug_str	00000000 
000004b8 l       .debug_str	00000000 
000004bc l       .debug_str	00000000 
000004c5 l       .debug_str	00000000 
000004cc l       .debug_str	00000000 
000004d4 l       .debug_str	00000000 
000004dc l       .debug_str	00000000 
000004e6 l       .debug_str	00000000 
000004ec l       .debug_str	00000000 
000004f3 l       .debug_str	00000000 
000004fa l       .debug_str	00000000 
00000527 l       .debug_str	00000000 
0000055c l       .debug_str	00000000 
00000562 l       .debug_str	00000000 
00000568 l       .debug_str	00000000 
00000577 l       .debug_str	00000000 
00000587 l       .debug_str	00000000 
00000597 l       .debug_str	00000000 
0000059f l       .debug_str	00000000 
000005c8 l       .debug_str	00000000 
00000626 l       .debug_str	00000000 
0000068c l       .debug_str	00000000 
00000693 l       .debug_str	00000000 
0000069b l       .debug_str	00000000 
000006a4 l       .debug_str	00000000 
000006c2 l       .debug_str	00000000 
000006d2 l       .debug_str	00000000 
000006e0 l       .debug_str	00000000 
000006eb l       .debug_str	00000000 
000006f8 l       .debug_str	00000000 
00000707 l       .debug_str	00000000 
0000071d l       .debug_str	00000000 
00000727 l       .debug_str	00000000 
00000730 l       .debug_str	00000000 
00000739 l       .debug_str	00000000 
0000075f l       .debug_str	00000000 
00000775 l       .debug_str	00000000 
00000780 l       .debug_str	00000000 
00000796 l       .debug_str	00000000 
0000079e l       .debug_str	00000000 
000007bf l       .debug_str	00000000 
000007d6 l       .debug_str	00000000 
000007db l       .debug_str	00000000 
000007e3 l       .debug_str	00000000 
000007ec l       .debug_str	00000000 
000007f5 l       .debug_str	00000000 
000007fe l       .debug_str	00000000 
00000806 l       .debug_str	00000000 
0000080a l       .debug_str	00000000 
00000811 l       .debug_str	00000000 
0000081d l       .debug_str	00000000 
00000828 l       .debug_str	00000000 
00000830 l       .debug_str	00000000 
00000838 l       .debug_str	00000000 
000008b4 l       .debug_str	00000000 
00000938 l       .debug_str	00000000 
00000a34 l       .debug_str	00000000 
00000b38 l       .debug_str	00000000 
00000b46 l       .debug_str	00000000 
00000b51 l       .debug_str	00000000 
00000b5b l       .debug_str	00000000 
00000b6f l       .debug_str	00000000 
00000b7a l       .debug_str	00000000 
00000ba8 l       .debug_str	00000000 
00000c23 l       .debug_str	00000000 
00000ca6 l       .debug_str	00000000 
00000cb4 l       .debug_str	00000000 
00000d13 l       .debug_str	00000000 
00000d7a l       .debug_str	00000000 
00000d90 l       .debug_str	00000000 
00000da0 l       .debug_str	00000000 
00000daf l       .debug_str	00000000 
00000db3 l       .debug_str	00000000 
00000dba l       .debug_str	00000000 
00000dc0 l       .debug_str	00000000 
00000dc4 l       .debug_str	00000000 
00000dca l       .debug_str	00000000 
00000dd0 l       .debug_str	00000000 
00000ddc l       .debug_str	00000000 
00000de4 l       .debug_str	00000000 
00000dea l       .debug_str	00000000 
00000df2 l       .debug_str	00000000 
00000df8 l       .debug_str	00000000 
00000e1b l       .debug_str	00000000 
00000e2b l       .debug_str	00000000 
00000e5e l       .debug_str	00000000 
00000e9e l       .debug_str	00000000 
00000ee6 l       .debug_str	00000000 
00000eea l       .debug_str	00000000 
00000ef0 l       .debug_str	00000000 
00000ef6 l       .debug_str	00000000 
00000efc l       .debug_str	00000000 
00000f0e l       .debug_str	00000000 
00000f43 l       .debug_str	00000000 
00000f85 l       .debug_str	00000000 
00000fcf l       .debug_str	00000000 
00000fd3 l       .debug_str	00000000 
00000fd9 l       .debug_str	00000000 
00000fdf l       .debug_str	00000000 
00000fe5 l       .debug_str	00000000 
00000ff7 l       .debug_str	00000000 
0000102c l       .debug_str	00000000 
0000106e l       .debug_str	00000000 
000010b8 l       .debug_str	00000000 
000010bc l       .debug_str	00000000 
000010c2 l       .debug_str	00000000 
000010c8 l       .debug_str	00000000 
000010ce l       .debug_str	00000000 
000010d4 l       .debug_str	00000000 
000010e5 l       .debug_str	00000000 
00001119 l       .debug_str	00000000 
0000115a l       .debug_str	00000000 
000011a3 l       .debug_str	00000000 
000011a8 l       .debug_str	00000000 
000011ad l       .debug_str	00000000 
000011b1 l       .debug_str	00000000 
000011b7 l       .debug_str	00000000 
000011bd l       .debug_str	00000000 
000011c3 l       .debug_str	00000000 
000011d4 l       .debug_str	00000000 
00001208 l       .debug_str	00000000 
00001249 l       .debug_str	00000000 
00001292 l       .debug_str	00000000 
00001296 l       .debug_str	00000000 
0000129f l       .debug_str	00000000 
000012b0 l       .debug_str	00000000 
000012e4 l       .debug_str	00000000 
00001325 l       .debug_str	00000000 
0000136e l       .debug_str	00000000 
00001373 l       .debug_str	00000000 
00001377 l       .debug_str	00000000 
00001380 l       .debug_str	00000000 
00001387 l       .debug_str	00000000 
0000138f l       .debug_str	00000000 
000013a1 l       .debug_str	00000000 
000013d6 l       .debug_str	00000000 
00001418 l       .debug_str	00000000 
00001462 l       .debug_str	00000000 
00001466 l       .debug_str	00000000 
0000146c l       .debug_str	00000000 
00001472 l       .debug_str	00000000 
00001478 l       .debug_str	00000000 
0000147e l       .debug_str	00000000 
00001486 l       .debug_str	00000000 
00001494 l       .debug_str	00000000 
000014a3 l       .debug_str	00000000 
000014b4 l       .debug_str	00000000 
000014bf l       .debug_str	00000000 
000014ca l       .debug_str	00000000 
000014d5 l       .debug_str	00000000 
000014dc l       .debug_str	00000000 
000014ff l       .debug_str	00000000 
00001511 l       .debug_str	00000000 
00001546 l       .debug_str	00000000 
00001588 l       .debug_str	00000000 
000015d2 l       .debug_str	00000000 
000015d6 l       .debug_str	00000000 
000015e0 l       .debug_str	00000000 
000015f2 l       .debug_str	00000000 
00001627 l       .debug_str	00000000 
00001669 l       .debug_str	00000000 
000016b3 l       .debug_str	00000000 
000016b8 l       .debug_str	00000000 
000016c2 l       .debug_str	00000000 
000016d4 l       .debug_str	00000000 
00001709 l       .debug_str	00000000 
0000174b l       .debug_str	00000000 
00001795 l       .debug_str	00000000 
000017a9 l       .debug_str	00000000 
000017ad l       .debug_str	00000000 
000017bb l       .debug_str	00000000 
000017cb l       .debug_str	00000000 
000017d4 l       .debug_str	00000000 
000017df l       .debug_str	00000000 
000017ee l       .debug_str	00000000 
00001803 l       .debug_str	00000000 
00001834 l       .debug_str	00000000 
000018d1 l       .debug_str	00000000 
00001976 l       .debug_str	00000000 
00001981 l       .debug_str	00000000 
0000198a l       .debug_str	00000000 
000019ab l       .debug_str	00000000 
000019be l       .debug_str	00000000 
000019f4 l       .debug_str	00000000 
00001a77 l       .debug_str	00000000 
00001b02 l       .debug_str	00000000 
00001b1e l       .debug_str	00000000 
00001b6a l       .debug_str	00000000 
00001bbe l       .debug_str	00000000 
00001bdb l       .debug_str	00000000 
00001bef l       .debug_str	00000000 
00001c3b l       .debug_str	00000000 
00001c8f l       .debug_str	00000000 
00001ca5 l       .debug_str	00000000 
00001cb9 l       .debug_str	00000000 
00001d4f l       .debug_str	00000000 
00001d58 l       .debug_str	00000000 
00001d66 l       .debug_str	00000000 
00001d97 l       .debug_str	00000000 
00001d9d l       .debug_str	00000000 
00001da5 l       .debug_str	00000000 
00001dac l       .debug_str	00000000 
00001db4 l       .debug_str	00000000 
00001dbf l       .debug_str	00000000 
00001dc7 l       .debug_str	00000000 
00001dd6 l       .debug_str	00000000 
00001dda l       .debug_str	00000000 
00001de5 l       .debug_str	00000000 
00001df1 l       .debug_str	00000000 
00001dfc l       .debug_str	00000000 
00001e0d l       .debug_str	00000000 
00001e13 l       .debug_str	00000000 
00001e1b l       .debug_str	00000000 
00001e22 l       .debug_str	00000000 
00001e2c l       .debug_str	00000000 
00001e34 l       .debug_str	00000000 
00001e3c l       .debug_str	00000000 
00001e5e l       .debug_str	00000000 
00001e69 l       .debug_str	00000000 
00001e75 l       .debug_str	00000000 
00001e7d l       .debug_str	00000000 
00001e86 l       .debug_str	00000000 
00001e91 l       .debug_str	00000000 
00001e98 l       .debug_str	00000000 
00001ea3 l       .debug_str	00000000 
00001eae l       .debug_str	00000000 
00001ebe l       .debug_str	00000000 
00001ec8 l       .debug_str	00000000 
00001ece l       .debug_str	00000000 
00001ef0 l       .debug_str	00000000 
00001f28 l       .debug_str	00000000 
00001f68 l       .debug_str	00000000 
00001f6f l       .debug_str	00000000 
00001f77 l       .debug_str	00000000 
00001f8e l       .debug_str	00000000 
00001f97 l       .debug_str	00000000 
00001fa7 l       .debug_str	00000000 
00001fb6 l       .debug_str	00000000 
00001fbe l       .debug_str	00000000 
00001fc5 l       .debug_str	00000000 
00001fcd l       .debug_str	00000000 
00001feb l       .debug_str	00000000 
00001ffb l       .debug_str	00000000 
0000202e l       .debug_str	00000000 
00002043 l       .debug_str	00000000 
0000204c l       .debug_str	00000000 
000020a9 l       .debug_str	00000000 
0000210e l       .debug_str	00000000 
00002118 l       .debug_str	00000000 
00002128 l       .debug_str	00000000 
0000213d l       .debug_str	00000000 
00002145 l       .debug_str	00000000 
000021a9 l       .debug_str	00000000 
00002215 l       .debug_str	00000000 
0000221c l       .debug_str	00000000 
00002224 l       .debug_str	00000000 
00002242 l       .debug_str	00000000 
00002252 l       .debug_str	00000000 
00002285 l       .debug_str	00000000 
0000229a l       .debug_str	00000000 
000022ad l       .debug_str	00000000 
000022c2 l       .debug_str	00000000 
000022c9 l       .debug_str	00000000 
000022de l       .debug_str	00000000 
00002308 l       .debug_str	00000000 
0000233a l       .debug_str	00000000 
00002376 l       .debug_str	00000000 
00000000 l    d  .text._ZN4core6option15Option$LT$T$GT$6expect17h0fd15c4bf762390eE	00000000 .text._ZN4core6option15Option$LT$T$GT$6expect17h0fd15c4bf762390eE
00000000 l    d  .debug_abbrev	00000000 .debug_abbrev
00000000 l    d  .debug_info	00000000 .debug_info
00000000 l    d  .debug_ranges	00000000 .debug_ranges
00000000 l    d  .debug_frame	00000000 .debug_frame
00000000 l    d  .debug_line	00000000 .debug_line
00000000         *UND*	00000000 _ZN4core6option13expect_failed17h3eeb96a257d935a1E
00000000 g     F .text._ZN4core6option15Option$LT$T$GT$6expect17h0fd15c4bf762390eE	00000056 _ZN4core6option15Option$LT$T$GT$6expect17h0fd15c4bf762390eE



Disassembly of section .text._ZN4core6option15Option$LT$T$GT$6expect17h0fd15c4bf762390eE:

00000000 <_ZN4core6option15Option$LT$T$GT$6expect17h0fd15c4bf762390eE>:
_ZN4core6option15Option$LT$T$GT$6expect17h0fd15c4bf762390eE():
/rustc/50a0defd5a93523067ef239936cc2e0755220904/src/libcore/option.rs:311
   0:	b5b0      	push	{r4, r5, r7, lr}
   2:	b08c      	sub	sp, #48	; 0x30
   4:	469c      	mov	ip, r3
   6:	4696      	mov	lr, r2
   8:	460c      	mov	r4, r1
   a:	4605      	mov	r5, r0
   c:	9007      	str	r0, [sp, #28]
   e:	9108      	str	r1, [sp, #32]
  10:	9209      	str	r2, [sp, #36]	; 0x24
  12:	930a      	str	r3, [sp, #40]	; 0x28
/rustc/50a0defd5a93523067ef239936cc2e0755220904/src/libcore/option.rs:313
  14:	9807      	ldr	r0, [sp, #28]
  16:	2800      	cmp	r0, #0
  18:	f8cd c018 	str.w	ip, [sp, #24]
  1c:	f8cd e014 	str.w	lr, [sp, #20]
  20:	9404      	str	r4, [sp, #16]
  22:	9503      	str	r5, [sp, #12]
  24:	9002      	str	r0, [sp, #8]
  26:	d00d      	beq.n	44 <_ZN4core6option15Option$LT$T$GT$6expect17h0fd15c4bf762390eE+0x44>
  28:	e7ff      	b.n	2a <_ZN4core6option15Option$LT$T$GT$6expect17h0fd15c4bf762390eE+0x2a>
  2a:	9802      	ldr	r0, [sp, #8]
  2c:	2801      	cmp	r0, #1
  2e:	d001      	beq.n	34 <_ZN4core6option15Option$LT$T$GT$6expect17h0fd15c4bf762390eE+0x34>
  30:	e7ff      	b.n	32 <_ZN4core6option15Option$LT$T$GT$6expect17h0fd15c4bf762390eE+0x32>
/rustc/50a0defd5a93523067ef239936cc2e0755220904/src/libcore/option.rs:316
  32:	defe      	udf	#254	; 0xfe
/rustc/50a0defd5a93523067ef239936cc2e0755220904/src/libcore/option.rs:313
  34:	9808      	ldr	r0, [sp, #32]
  36:	900b      	str	r0, [sp, #44]	; 0x2c
  38:	980b      	ldr	r0, [sp, #44]	; 0x2c
/rustc/50a0defd5a93523067ef239936cc2e0755220904/src/libcore/option.rs:316
  3a:	9907      	ldr	r1, [sp, #28]
  3c:	2901      	cmp	r1, #1
  3e:	9001      	str	r0, [sp, #4]
  40:	d005      	beq.n	4e <_ZN4core6option15Option$LT$T$GT$6expect17h0fd15c4bf762390eE+0x4e>
  42:	e007      	b.n	54 <_ZN4core6option15Option$LT$T$GT$6expect17h0fd15c4bf762390eE+0x54>
/rustc/50a0defd5a93523067ef239936cc2e0755220904/src/libcore/option.rs:314
  44:	9809      	ldr	r0, [sp, #36]	; 0x24
  46:	990a      	ldr	r1, [sp, #40]	; 0x28
  48:	f7ff fffe 	bl	0 <_ZN4core6option13expect_failed17h3eeb96a257d935a1E>
  4c:	defe      	udf	#254	; 0xfe
/rustc/50a0defd5a93523067ef239936cc2e0755220904/src/libcore/option.rs:316
  4e:	9801      	ldr	r0, [sp, #4]
  50:	b00c      	add	sp, #48	; 0x30
  52:	bdb0      	pop	{r4, r5, r7, pc}
  54:	e7fb      	b.n	4e <_ZN4core6option15Option$LT$T$GT$6expect17h0fd15c4bf762390eE+0x4e>

app-b90ce02d7e477c3f.4dkwsijwq614g9b5.rcgu.o:     file format elf32-littlearm

SYMBOL TABLE:
00000000 l    df *ABS*	00000000 4dkwsijwq614g9b5
000000e4 l       .debug_str	00000000 
000000ec l       .debug_str	00000000 
000000f1 l       .debug_str	00000000 
00000000 l       .debug_str	00000000 
00000041 l       .debug_str	00000000 
00000055 l       .debug_str	00000000 
00000085 l       .debug_str	00000000 
00000089 l       .debug_str	00000000 
00000094 l       .debug_str	00000000 
0000009f l       .debug_str	00000000 
000000a6 l       .debug_str	00000000 
000000aa l       .debug_str	00000000 
000000ad l       .debug_str	00000000 
000000b5 l       .debug_str	00000000 
000000b9 l       .debug_str	00000000 
000000c2 l       .debug_str	00000000 
000000cc l       .debug_str	00000000 
000000d3 l       .debug_str	00000000 
000000d9 l       .debug_str	00000000 
000000df l       .debug_str	00000000 
00000000 l     O .rodata._ZN3app10gps_sensor10GPS_DEVICE17h9632919ea1cd25c6E	0000000c _ZN3app10gps_sensor10GPS_DEVICE17h9632919ea1cd25c6E
00000000 l    d  .rodata..Lanon.d41d8cd98f00b204e9800998ecf8427e.0	00000000 .rodata..Lanon.d41d8cd98f00b204e9800998ecf8427e.0
00000000 l    d  .rodata._ZN3app10gps_sensor10GPS_DEVICE17h9632919ea1cd25c6E	00000000 .rodata._ZN3app10gps_sensor10GPS_DEVICE17h9632919ea1cd25c6E
00000000 l    d  .debug_abbrev	00000000 .debug_abbrev
00000000 l    d  .debug_info	00000000 .debug_info
00000000 l    d  .debug_line	00000000 .debug_line



app-b90ce02d7e477c3f.4q9qovk8rqwaqec4.rcgu.o:     file format elf32-littlearm

SYMBOL TABLE:
00000000 l    df *ABS*	00000000 4q9qovk8rqwaqec4
00000347 l       .debug_str	00000000 
00000381 l       .debug_str	00000000 
00000398 l       .debug_str	00000000 
000003bc l       .debug_str	00000000 
000003d8 l       .debug_str	00000000 
000003e2 l       .debug_str	00000000 
000003fc l       .debug_str	00000000 
0000045a l       .debug_str	00000000 
00000465 l       .debug_str	00000000 
00000482 l       .debug_str	00000000 
0000049b l       .debug_str	00000000 
000004a5 l       .debug_str	00000000 
000004bb l       .debug_str	00000000 
000004d9 l       .debug_str	00000000 
000004e2 l       .debug_str	00000000 
000004e7 l       .debug_str	00000000 
000004ec l       .debug_str	00000000 
000004f0 l       .debug_str	00000000 
000004f9 l       .debug_str	00000000 
00000503 l       .debug_str	00000000 
0000051b l       .debug_str	00000000 
00000000 l       .debug_str	00000000 
00000041 l       .debug_str	00000000 
00000055 l       .debug_str	00000000 
00000085 l       .debug_str	00000000 
0000008a l       .debug_str	00000000 
0000008e l       .debug_str	00000000 
00000091 l       .debug_str	00000000 
00000094 l       .debug_str	00000000 
00000097 l       .debug_str	00000000 
0000009c l       .debug_str	00000000 
000000a2 l       .debug_str	00000000 
000000a9 l       .debug_str	00000000 
000000b1 l       .debug_str	00000000 
000000bb l       .debug_str	00000000 
000000c2 l       .debug_str	00000000 
000000c5 l       .debug_str	00000000 
000000c9 l       .debug_str	00000000 
000000d0 l       .debug_str	00000000 
000000d4 l       .debug_str	00000000 
000000dd l       .debug_str	00000000 
000000e1 l       .debug_str	00000000 
0000010b l       .debug_str	00000000 
00000110 l       .debug_str	00000000 
00000115 l       .debug_str	00000000 
00000117 l       .debug_str	00000000 
00000129 l       .debug_str	00000000 
0000012f l       .debug_str	00000000 
00000132 l       .debug_str	00000000 
00000136 l       .debug_str	00000000 
0000013b l       .debug_str	00000000 
00000143 l       .debug_str	00000000 
00000147 l       .debug_str	00000000 
0000014f l       .debug_str	00000000 
00000157 l       .debug_str	00000000 
0000015e l       .debug_str	00000000 
00000164 l       .debug_str	00000000 
00000178 l       .debug_str	00000000 
00000184 l       .debug_str	00000000 
00000189 l       .debug_str	00000000 
00000191 l       .debug_str	00000000 
00000198 l       .debug_str	00000000 
0000019c l       .debug_str	00000000 
000001a1 l       .debug_str	00000000 
000001a8 l       .debug_str	00000000 
000001b1 l       .debug_str	00000000 
000001bb l       .debug_str	00000000 
000001c2 l       .debug_str	00000000 
000001c7 l       .debug_str	00000000 
000001d3 l       .debug_str	00000000 
000001db l       .debug_str	00000000 
000001e4 l       .debug_str	00000000 
000001e9 l       .debug_str	00000000 
000001ec l       .debug_str	00000000 
000001f0 l       .debug_str	00000000 
000001f9 l       .debug_str	00000000 
00000200 l       .debug_str	00000000 
00000205 l       .debug_str	00000000 
0000020a l       .debug_str	00000000 
00000210 l       .debug_str	00000000 
00000216 l       .debug_str	00000000 
00000220 l       .debug_str	00000000 
00000223 l       .debug_str	00000000 
00000229 l       .debug_str	00000000 
00000233 l       .debug_str	00000000 
0000023b l       .debug_str	00000000 
00000241 l       .debug_str	00000000 
00000247 l       .debug_str	00000000 
00000252 l       .debug_str	00000000 
0000025b l       .debug_str	00000000 
0000027e l       .debug_str	00000000 
0000029d l       .debug_str	00000000 
0000029f l       .debug_str	00000000 
000002a4 l       .debug_str	00000000 
000002cb l       .debug_str	00000000 
000002d0 l       .debug_str	00000000 
000002d6 l       .debug_str	00000000 
000002dc l       .debug_str	00000000 
000002df l       .debug_str	00000000 
000002ee l       .debug_str	00000000 
000002f5 l       .debug_str	00000000 
000002f9 l       .debug_str	00000000 
00000302 l       .debug_str	00000000 
0000030e l       .debug_str	00000000 
00000327 l       .debug_str	00000000 
0000032c l       .debug_str	00000000 
0000033d l       .debug_str	00000000 
00000355 l       .debug_str	00000000 
00000359 l       .debug_str	00000000 
00000364 l       .debug_str	00000000 
0000036b l       .debug_str	00000000 
00000371 l       .debug_str	00000000 
00000375 l       .debug_str	00000000 
00000379 l       .debug_str	00000000 
00000000 l     O .rodata.cst8	00000008 .Lanon.3ed011473997af99b525cde47c9eaaac.0
00000008 l     O .rodata.cst8	00000008 .Lanon.3ed011473997af99b525cde47c9eaaac.1
00000000 l     O .rodata..Lanon.3ed011473997af99b525cde47c9eaaac.10	00000001 .Lanon.3ed011473997af99b525cde47c9eaaac.10
00000000 l     O .rodata..Lanon.3ed011473997af99b525cde47c9eaaac.3	00000018 .Lanon.3ed011473997af99b525cde47c9eaaac.3
00000010 l     O .rodata.cst8	00000008 .Lanon.3ed011473997af99b525cde47c9eaaac.4
00000018 l     O .rodata.cst8	00000008 .Lanon.3ed011473997af99b525cde47c9eaaac.5
00000000 l     O .rodata..Lanon.3ed011473997af99b525cde47c9eaaac.6	00000006 .Lanon.3ed011473997af99b525cde47c9eaaac.6
00000000 l     O .rodata..Lanon.3ed011473997af99b525cde47c9eaaac.7	00000007 .Lanon.3ed011473997af99b525cde47c9eaaac.7
00000000 l     O .rodata..Lanon.3ed011473997af99b525cde47c9eaaac.8	00000003 .Lanon.3ed011473997af99b525cde47c9eaaac.8
00000000 l     O .rodata..Lanon.3ed011473997af99b525cde47c9eaaac.9	00000006 .Lanon.3ed011473997af99b525cde47c9eaaac.9
00000000 l    d  .text.main	00000000 .text.main
00000000 l    d  .text.rust_begin_unwind	00000000 .text.rust_begin_unwind
00000000 l    d  .rodata..Lanon.3ed011473997af99b525cde47c9eaaac.2	00000000 .rodata..Lanon.3ed011473997af99b525cde47c9eaaac.2
00000000 l    d  .debug_abbrev	00000000 .debug_abbrev
00000000 l    d  .debug_info	00000000 .debug_info
00000000 l    d  .debug_ranges	00000000 .debug_ranges
00000000 l    d  .debug_frame	00000000 .debug_frame
00000000 l    d  .debug_line	00000000 .debug_line
00000000         *UND*	00000000 .hidden _ZN3app10app_sensor21start_sensor_listener17h09088494e967a630E
00000000         *UND*	00000000 _ZN4core5panic8Location4file17h94cc6af18de736c4E
00000000         *UND*	00000000 _ZN4core5panic8Location4line17h3ffc63f14d0a6636E
00000000         *UND*	00000000 _ZN4core5panic9PanicInfo8location17h5226165d8771f8a2E
00000000         *UND*	00000000 _ZN4core6result19Result$LT$T$C$E$GT$6expect17h971a4fb20f73df2aE
00000000         *UND*	00000000 _ZN4core6result19Result$LT$T$C$E$GT$6expect17hda19e15c4ec13e31E
00000000         *UND*	00000000 _ZN4core9panicking5panic17h53ca63c6ac6312f8E
00000000         *UND*	00000000 _ZN6mynewt3sys7console5flush17h498d792c115b7281E
00000000         *UND*	00000000 _ZN6mynewt3sys7console5print17h0f65bc3b0e739871E
00000000         *UND*	00000000 _ZN6mynewt3sys7console6buffer17h937c567b6e383806E
00000000         *UND*	00000000 _ZN6mynewt3sys7console8printint17h732f7e3d3f1828c1E
00000000         *UND*	00000000 _ZN6mynewt6kernel2os10eventq_run17h35180d98e8e522beE
00000000         *UND*	00000000 _ZN6mynewt6kernel2os15eventq_dflt_get17hfdc26cb533694dccE
00000000         *UND*	00000000 _ZN6mynewt7sysinit17hfbb6001f0140a448E
00000000 g     F .text.main	0000007c main
00000000 g     F .text.rust_begin_unwind	000000ac rust_begin_unwind
00000000         *UND*	00000000 start_ble



Disassembly of section .text.main:

00000000 <main>:
main():
/Users/Luppy/mynewt/stm32bluepill-mynewt-sensor/rust/app/src/lib.rs:50
};

///  Main program that initialises the sensor, network driver and starts reading and sending sensor data in the background.
///  main() will be called at Mynewt startup. It replaces the C version of the main() function.
#[no_mangle]                 //  Don't mangle the name "main"
extern "C" fn main() -> ! {  //  Declare extern "C" because it will be called by Mynewt
   0:	b086      	sub	sp, #24
/Users/Luppy/mynewt/stm32bluepill-mynewt-sensor/rust/app/src/lib.rs:55
    //  Initialise the Mynewt packages and internal temperature sensor driver. Any startup
    //  functions defined in pkg.yml of our custom drivers and libraries will be called by 
    //  sysinit().  Here are the startup functions consolidated by Mynewt:
    //  bin/targets/nrf52_my_sensor/generated/src/nrf52_my_sensor-sysinit-app.c
    mynewt::sysinit();
   2:	f7ff fffe 	bl	0 <_ZN6mynewt7sysinit17hfbb6001f0140a448E>
   6:	e7ff      	b.n	2 <_ZN3app10app_sensor21start_sensor_listener17h09088494e967a630E+0x2>
/Users/Luppy/mynewt/stm32bluepill-mynewt-sensor/rust/app/src/lib.rs:62
    //  Start the Server Transport for sending sensor data to CoAP Server over NB-IoT.
    //sensor_network::start_server_transport()
        //.expect("NET fail");

    //  Start polling the temperature sensor every 10 seconds in the background.
    app_sensor::start_sensor_listener()
   8:	f7ff fffe 	bl	0 <_ZN3app10app_sensor21start_sensor_listener17h09088494e967a630E>
   c:	9002      	str	r0, [sp, #8]
   e:	e7ff      	b.n	10 <main+0x10>
  10:	f240 0100 	movw	r1, #0
  14:	f2c0 0100 	movt	r1, #0
  18:	2208      	movs	r2, #8
  1a:	9802      	ldr	r0, [sp, #8]
  1c:	f7ff fffe 	bl	0 <_ZN4core6result19Result$LT$T$C$E$GT$6expect17hda19e15c4ec13e31E>
  20:	e7ff      	b.n	2 <start_ble+0x2>
/Users/Luppy/mynewt/stm32bluepill-mynewt-sensor/rust/app/src/lib.rs:71
    //gps_sensor::start_gps_listener()
        //.expect("GPS fail");

    //  Start Bluetooth LE.  TODO: Create a safe wrapper for starting BLE.
    extern { fn start_ble() -> i32; }
    let rc = unsafe { start_ble() };
  22:	f7ff fffe 	bl	0 <start_ble>
  26:	9003      	str	r0, [sp, #12]
  28:	e7ff      	b.n	2a <main+0x2a>
/Users/Luppy/mynewt/stm32bluepill-mynewt-sensor/rust/app/src/lib.rs:72
    assert!(rc == 0, "BLE fail");
  2a:	9803      	ldr	r0, [sp, #12]
  2c:	2800      	cmp	r0, #0
  2e:	d007      	beq.n	40 <main+0x40>
  30:	e7ff      	b.n	32 <main+0x32>
  32:	f240 0000 	movw	r0, #0
  36:	f2c0 0000 	movt	r0, #0
  3a:	f7ff fffe 	bl	0 <_ZN4core9panicking5panic17h53ca63c6ac6312f8E>
  3e:	defe      	udf	#254	; 0xfe
/Users/Luppy/mynewt/stm32bluepill-mynewt-sensor/rust/app/src/lib.rs:75

    //  Main event loop
    loop {                            //  Loop forever...
  40:	e7ff      	b.n	42 <main+0x42>
  42:	a804      	add	r0, sp, #16
/Users/Luppy/mynewt/stm32bluepill-mynewt-sensor/rust/app/src/lib.rs:77
        os::eventq_run(               //  Processing events...
            os::eventq_dflt_get()     //  From default event queue.
  44:	f7ff fffe 	bl	0 <_ZN6mynewt6kernel2os15eventq_dflt_get17hfdc26cb533694dccE>
  48:	e7ff      	b.n	12 <main+0x12>
  4a:	f240 0100 	movw	r1, #0
  4e:	f2c0 0100 	movt	r1, #0
  52:	a804      	add	r0, sp, #16
  54:	2208      	movs	r2, #8
  56:	f7ff fffe 	bl	0 <_ZN4core6result19Result$LT$T$C$E$GT$6expect17h971a4fb20f73df2aE>
  5a:	9001      	str	r0, [sp, #4]
  5c:	e7ff      	b.n	5e <main+0x5e>
/Users/Luppy/mynewt/stm32bluepill-mynewt-sensor/rust/app/src/lib.rs:76
        os::eventq_run(               //  Processing events...
  5e:	9801      	ldr	r0, [sp, #4]
  60:	f7ff fffe 	bl	0 <_ZN6mynewt6kernel2os10eventq_run17h35180d98e8e522beE>
  64:	9000      	str	r0, [sp, #0]
  66:	e7ff      	b.n	68 <main+0x68>
  68:	f240 0100 	movw	r1, #0
  6c:	f2c0 0100 	movt	r1, #0
  70:	2208      	movs	r2, #8
  72:	9800      	ldr	r0, [sp, #0]
  74:	f7ff fffe 	bl	0 <_ZN4core6result19Result$LT$T$C$E$GT$6expect17hda19e15c4ec13e31E>
  78:	e7ff      	b.n	7a <main+0x7a>
/Users/Luppy/mynewt/stm32bluepill-mynewt-sensor/rust/app/src/lib.rs:75
    loop {                            //  Loop forever...
  7a:	e7e2      	b.n	42 <main+0x42>

Disassembly of section .text.rust_begin_unwind:

00000000 <rust_begin_unwind>:
rust_begin_unwind():
/Users/Luppy/mynewt/stm32bluepill-mynewt-sensor/rust/app/src/lib.rs:86
    //  Never comes here
}

///  This function is called on panic, like an assertion failure. We display the filename and line number and pause in the debugger. From https://os.phil-opp.com/freestanding-rust-binary/
#[panic_handler]
fn panic(info: &PanicInfo) -> ! {
   0:	b088      	sub	sp, #32
   2:	4601      	mov	r1, r0
   4:	9002      	str	r0, [sp, #8]
/Users/Luppy/mynewt/stm32bluepill-mynewt-sensor/rust/app/src/lib.rs:88
    //  Display the filename and line number to the Semihosting Console.
    console::print("panic ");
   6:	f240 0000 	movw	r0, #0
   a:	f2c0 0000 	movt	r0, #0
   e:	2206      	movs	r2, #6
  10:	9101      	str	r1, [sp, #4]
  12:	4611      	mov	r1, r2
  14:	f7ff fffe 	bl	0 <_ZN6mynewt3sys7console5print17h0f65bc3b0e739871E>
  18:	e7ff      	b.n	1a <rust_begin_unwind+0x1a>
/Users/Luppy/mynewt/stm32bluepill-mynewt-sensor/rust/app/src/lib.rs:89
    if let Some(location) = info.location() {
  1a:	9802      	ldr	r0, [sp, #8]
  1c:	f7ff fffe 	bl	0 <_ZN4core5panic9PanicInfo8location17h5226165d8771f8a2E>
  20:	9003      	str	r0, [sp, #12]
  22:	e7ff      	b.n	24 <rust_begin_unwind+0x24>
  24:	9803      	ldr	r0, [sp, #12]
  26:	2800      	cmp	r0, #0
  28:	d032      	beq.n	90 <rust_begin_unwind+0x90>
  2a:	e7ff      	b.n	2c <rust_begin_unwind+0x2c>
  2c:	9803      	ldr	r0, [sp, #12]
  2e:	9004      	str	r0, [sp, #16]
/Users/Luppy/mynewt/stm32bluepill-mynewt-sensor/rust/app/src/lib.rs:90
        let file = location.file();
  30:	9804      	ldr	r0, [sp, #16]
  32:	f7ff fffe 	bl	0 <_ZN4core5panic8Location4file17h94cc6af18de736c4E>
  36:	9106      	str	r1, [sp, #24]
  38:	9005      	str	r0, [sp, #20]
  3a:	e7ff      	b.n	3c <rust_begin_unwind+0x3c>
/Users/Luppy/mynewt/stm32bluepill-mynewt-sensor/rust/app/src/lib.rs:91
        let line = location.line();
  3c:	9804      	ldr	r0, [sp, #16]
  3e:	f7ff fffe 	bl	0 <_ZN4core5panic8Location4line17h3ffc63f14d0a6636E>
  42:	9007      	str	r0, [sp, #28]
  44:	e7ff      	b.n	46 <rust_begin_unwind+0x46>
/Users/Luppy/mynewt/stm32bluepill-mynewt-sensor/rust/app/src/lib.rs:92
        console::print("at ");       console::buffer(&file);
  46:	f240 0000 	movw	r0, #0
  4a:	f2c0 0000 	movt	r0, #0
  4e:	2103      	movs	r1, #3
  50:	f7ff fffe 	bl	0 <_ZN6mynewt3sys7console5print17h0f65bc3b0e739871E>
  54:	e7ff      	b.n	56 <rust_begin_unwind+0x56>
  56:	9805      	ldr	r0, [sp, #20]
  58:	9906      	ldr	r1, [sp, #24]
  5a:	f7ff fffe 	bl	0 <_ZN6mynewt3sys7console6buffer17h937c567b6e383806E>
  5e:	e7ff      	b.n	2 <rust_begin_unwind+0x2>
/Users/Luppy/mynewt/stm32bluepill-mynewt-sensor/rust/app/src/lib.rs:93
        console::print(" line ");    console::printint(line as i32);
  60:	f240 0000 	movw	r0, #0
  64:	f2c0 0000 	movt	r0, #0
  68:	2106      	movs	r1, #6
  6a:	f7ff fffe 	bl	0 <_ZN6mynewt3sys7console5print17h0f65bc3b0e739871E>
  6e:	e7ff      	b.n	70 <rust_begin_unwind+0x70>
  70:	9807      	ldr	r0, [sp, #28]
  72:	f7ff fffe 	bl	0 <_ZN6mynewt3sys7console8printint17h732f7e3d3f1828c1E>
  76:	e7ff      	b.n	2 <rust_begin_unwind+0x2>
/Users/Luppy/mynewt/stm32bluepill-mynewt-sensor/rust/app/src/lib.rs:94
        console::print("\n");        console::flush();
  78:	f240 0000 	movw	r0, #0
  7c:	f2c0 0000 	movt	r0, #0
  80:	2101      	movs	r1, #1
  82:	f7ff fffe 	bl	0 <_ZN6mynewt3sys7console5print17h0f65bc3b0e739871E>
  86:	e7ff      	b.n	2 <_ZN6mynewt3sys7console5flush17h498d792c115b7281E+0x2>
  88:	f7ff fffe 	bl	0 <_ZN6mynewt3sys7console5flush17h498d792c115b7281E>
  8c:	e7ff      	b.n	8e <rust_begin_unwind+0x8e>
/Users/Luppy/mynewt/stm32bluepill-mynewt-sensor/rust/app/src/lib.rs:89
    if let Some(location) = info.location() {
  8e:	e00a      	b.n	a6 <rust_begin_unwind+0xa6>
/Users/Luppy/mynewt/stm32bluepill-mynewt-sensor/rust/app/src/lib.rs:96
    } else {
        console::print("no loc\n");  console::flush();
  90:	f240 0000 	movw	r0, #0
  94:	f2c0 0000 	movt	r0, #0
  98:	2107      	movs	r1, #7
  9a:	f7ff fffe 	bl	0 <_ZN6mynewt3sys7console5print17h0f65bc3b0e739871E>
  9e:	e7ff      	b.n	2 <_ZN6mynewt3sys7console5flush17h498d792c115b7281E+0x2>
  a0:	f7ff fffe 	bl	0 <_ZN6mynewt3sys7console5flush17h498d792c115b7281E>
  a4:	e7ff      	b.n	a6 <rust_begin_unwind+0xa6>
_ZN8cortex_m3asm4bkpt17h5534896ca3f3f8ebE():
/Users/Luppy/.cargo/registry/src/github.com-1ecc6299db9ec823/cortex-m-0.6.1/src/asm.rs:11
/// exception.
#[inline(always)]
pub fn bkpt() {
    match () {
        #[cfg(all(cortex_m, feature = "inline-asm"))]
        () => unsafe { asm!("bkpt" :::: "volatile") },
  a6:	be00      	bkpt	0x0000
rust_begin_unwind():
/Users/Luppy/mynewt/stm32bluepill-mynewt-sensor/rust/app/src/lib.rs:99
    }
    //  Pause in the debugger.
    bkpt();
  a8:	e7ff      	b.n	aa <rust_begin_unwind+0xaa>
/Users/Luppy/mynewt/stm32bluepill-mynewt-sensor/rust/app/src/lib.rs:101
    //  Loop forever so that device won't restart.
    loop {}
  aa:	e7fe      	b.n	aa <rust_begin_unwind+0xaa>

app-b90ce02d7e477c3f.d6w4n297npb5pfx.rcgu.o:     file format elf32-littlearm

SYMBOL TABLE:
00000000 l    df *ABS*	00000000 d6w4n297npb5pfx
00001e5f l       .debug_str	00000000 
0000285d l       .debug_str	00000000 
000028b4 l       .debug_str	00000000 
00002907 l       .debug_str	00000000 
0000290b l       .debug_str	00000000 
00002913 l       .debug_str	00000000 
0000291c l       .debug_str	00000000 
00002923 l       .debug_str	00000000 
00002929 l       .debug_str	00000000 
0000292f l       .debug_str	00000000 
00002934 l       .debug_str	00000000 
0000293c l       .debug_str	00000000 
00002941 l       .debug_str	00000000 
000029b1 l       .debug_str	00000000 
000029e7 l       .debug_str	00000000 
00002a19 l       .debug_str	00000000 
00002a1d l       .debug_str	00000000 
00002a22 l       .debug_str	00000000 
00002a24 l       .debug_str	00000000 
00002a26 l       .debug_str	00000000 
00002a2b l       .debug_str	00000000 
00000000 l       .debug_str	00000000 
00000041 l       .debug_str	00000000 
00000055 l       .debug_str	00000000 
00000085 l       .debug_str	00000000 
0000008a l       .debug_str	00000000 
0000008e l       .debug_str	00000000 
00000091 l       .debug_str	00000000 
0000009c l       .debug_str	00000000 
000000a7 l       .debug_str	00000000 
000000ae l       .debug_str	00000000 
000000b5 l       .debug_str	00000000 
000000bc l       .debug_str	00000000 
000000c0 l       .debug_str	00000000 
000000c8 l       .debug_str	00000000 
000000d3 l       .debug_str	00000000 
000000de l       .debug_str	00000000 
000000eb l       .debug_str	00000000 
000000f6 l       .debug_str	00000000 
000000fe l       .debug_str	00000000 
00000109 l       .debug_str	00000000 
00000114 l       .debug_str	00000000 
0000011e l       .debug_str	00000000 
00000129 l       .debug_str	00000000 
00000134 l       .debug_str	00000000 
00000141 l       .debug_str	00000000 
0000014d l       .debug_str	00000000 
0000015a l       .debug_str	00000000 
00000168 l       .debug_str	00000000 
00000172 l       .debug_str	00000000 
0000017f l       .debug_str	00000000 
0000018b l       .debug_str	00000000 
0000018f l       .debug_str	00000000 
00000192 l       .debug_str	00000000 
00000196 l       .debug_str	00000000 
0000019d l       .debug_str	00000000 
000001a0 l       .debug_str	00000000 
000001aa l       .debug_str	00000000 
000001b5 l       .debug_str	00000000 
000001be l       .debug_str	00000000 
000001c9 l       .debug_str	00000000 
000001d5 l       .debug_str	00000000 
000001d9 l       .debug_str	00000000 
000001e2 l       .debug_str	00000000 
000001e9 l       .debug_str	00000000 
000001f1 l       .debug_str	00000000 
000001f9 l       .debug_str	00000000 
00000203 l       .debug_str	00000000 
00000209 l       .debug_str	00000000 
00000210 l       .debug_str	00000000 
0000021a l       .debug_str	00000000 
00000221 l       .debug_str	00000000 
00000228 l       .debug_str	00000000 
0000022d l       .debug_str	00000000 
00000244 l       .debug_str	00000000 
00000271 l       .debug_str	00000000 
00000273 l       .debug_str	00000000 
00000278 l       .debug_str	00000000 
000002ad l       .debug_str	00000000 
000002b3 l       .debug_str	00000000 
000002b9 l       .debug_str	00000000 
000002c8 l       .debug_str	00000000 
000002d8 l       .debug_str	00000000 
000002e8 l       .debug_str	00000000 
000002f0 l       .debug_str	00000000 
00000319 l       .debug_str	00000000 
00000377 l       .debug_str	00000000 
000003dd l       .debug_str	00000000 
000003e4 l       .debug_str	00000000 
000003ec l       .debug_str	00000000 
000003f5 l       .debug_str	00000000 
00000413 l       .debug_str	00000000 
00000423 l       .debug_str	00000000 
00000431 l       .debug_str	00000000 
0000043c l       .debug_str	00000000 
00000449 l       .debug_str	00000000 
00000458 l       .debug_str	00000000 
00000462 l       .debug_str	00000000 
00000478 l       .debug_str	00000000 
00000482 l       .debug_str	00000000 
0000048b l       .debug_str	00000000 
00000494 l       .debug_str	00000000 
000004ba l       .debug_str	00000000 
000004d0 l       .debug_str	00000000 
000004db l       .debug_str	00000000 
000004f1 l       .debug_str	00000000 
000004f9 l       .debug_str	00000000 
0000051a l       .debug_str	00000000 
00000523 l       .debug_str	00000000 
0000052c l       .debug_str	00000000 
00000537 l       .debug_str	00000000 
00000541 l       .debug_str	00000000 
00000547 l       .debug_str	00000000 
0000057f l       .debug_str	00000000 
000005bf l       .debug_str	00000000 
000005c6 l       .debug_str	00000000 
000005ce l       .debug_str	00000000 
000005e5 l       .debug_str	00000000 
000005ee l       .debug_str	00000000 
00000610 l       .debug_str	00000000 
0000061a l       .debug_str	00000000 
00000641 l       .debug_str	00000000 
00000659 l       .debug_str	00000000 
00000663 l       .debug_str	00000000 
00000686 l       .debug_str	00000000 
00000688 l       .debug_str	00000000 
0000068c l       .debug_str	00000000 
000006d4 l       .debug_str	00000000 
000006d7 l       .debug_str	00000000 
000006ff l       .debug_str	00000000 
00000708 l       .debug_str	00000000 
00000748 l       .debug_str	00000000 
0000078f l       .debug_str	00000000 
000007cf l       .debug_str	00000000 
000007f6 l       .debug_str	00000000 
00000865 l       .debug_str	00000000 
00000890 l       .debug_str	00000000 
00000900 l       .debug_str	00000000 
0000092c l       .debug_str	00000000 
00000931 l       .debug_str	00000000 
000009a1 l       .debug_str	00000000 
000009cf l       .debug_str	00000000 
000009f9 l       .debug_str	00000000 
000009fc l       .debug_str	00000000 
00000a03 l       .debug_str	00000000 
00000a0c l       .debug_str	00000000 
00000a1b l       .debug_str	00000000 
00000a1f l       .debug_str	00000000 
00000a27 l       .debug_str	00000000 
00000a2d l       .debug_str	00000000 
00000a39 l       .debug_str	00000000 
00000a41 l       .debug_str	00000000 
00000a9b l       .debug_str	00000000 
00000afd l       .debug_str	00000000 
00000b08 l       .debug_str	00000000 
00000b4f l       .debug_str	00000000 
00000b9e l       .debug_str	00000000 
00000ba8 l       .debug_str	00000000 
00000be5 l       .debug_str	00000000 
00000c2a l       .debug_str	00000000 
00000c33 l       .debug_str	00000000 
00000c43 l       .debug_str	00000000 
00000c4b l       .debug_str	00000000 
00000ca0 l       .debug_str	00000000 
00000cfd l       .debug_str	00000000 
00000d09 l       .debug_str	00000000 
00000d12 l       .debug_str	00000000 
00000d1e l       .debug_str	00000000 
00000d2a l       .debug_str	00000000 
00000d33 l       .debug_str	00000000 
00000d3b l       .debug_str	00000000 
00000d43 l       .debug_str	00000000 
00000d58 l       .debug_str	00000000 
00000d5f l       .debug_str	00000000 
00000d7f l       .debug_str	00000000 
00000d86 l       .debug_str	00000000 
00000d8e l       .debug_str	00000000 
00000d98 l       .debug_str	00000000 
00000daf l       .debug_str	00000000 
00000db4 l       .debug_str	00000000 
00000dbc l       .debug_str	00000000 
00000dc5 l       .debug_str	00000000 
00000dce l       .debug_str	00000000 
00000dd7 l       .debug_str	00000000 
00000ddf l       .debug_str	00000000 
00000de6 l       .debug_str	00000000 
00000df2 l       .debug_str	00000000 
00000dfd l       .debug_str	00000000 
00000e05 l       .debug_str	00000000 
00000e0d l       .debug_str	00000000 
00000f09 l       .debug_str	00000000 
0000100d l       .debug_str	00000000 
0000101b l       .debug_str	00000000 
00001026 l       .debug_str	00000000 
00001030 l       .debug_str	00000000 
00001044 l       .debug_str	00000000 
0000104f l       .debug_str	00000000 
0000107d l       .debug_str	00000000 
000010f8 l       .debug_str	00000000 
0000117b l       .debug_str	00000000 
00001189 l       .debug_str	00000000 
000011e8 l       .debug_str	00000000 
0000124f l       .debug_str	00000000 
00001265 l       .debug_str	00000000 
00001275 l       .debug_str	00000000 
00001284 l       .debug_str	00000000 
00001288 l       .debug_str	00000000 
0000128f l       .debug_str	00000000 
00001295 l       .debug_str	00000000 
00001299 l       .debug_str	00000000 
0000129f l       .debug_str	00000000 
000012a5 l       .debug_str	00000000 
000012b1 l       .debug_str	00000000 
000012b9 l       .debug_str	00000000 
000012bf l       .debug_str	00000000 
000012c7 l       .debug_str	00000000 
000012cd l       .debug_str	00000000 
000012f0 l       .debug_str	00000000 
00001300 l       .debug_str	00000000 
00001333 l       .debug_str	00000000 
00001373 l       .debug_str	00000000 
000013bb l       .debug_str	00000000 
000013bf l       .debug_str	00000000 
000013c5 l       .debug_str	00000000 
000013cb l       .debug_str	00000000 
000013d1 l       .debug_str	00000000 
000013e3 l       .debug_str	00000000 
00001418 l       .debug_str	00000000 
0000145a l       .debug_str	00000000 
000014a4 l       .debug_str	00000000 
000014a8 l       .debug_str	00000000 
000014ae l       .debug_str	00000000 
000014b4 l       .debug_str	00000000 
000014ba l       .debug_str	00000000 
000014cc l       .debug_str	00000000 
00001501 l       .debug_str	00000000 
00001543 l       .debug_str	00000000 
0000158d l       .debug_str	00000000 
00001591 l       .debug_str	00000000 
00001597 l       .debug_str	00000000 
0000159d l       .debug_str	00000000 
000015a3 l       .debug_str	00000000 
000015a9 l       .debug_str	00000000 
000015ba l       .debug_str	00000000 
000015ee l       .debug_str	00000000 
0000162f l       .debug_str	00000000 
00001678 l       .debug_str	00000000 
0000167d l       .debug_str	00000000 
00001682 l       .debug_str	00000000 
00001686 l       .debug_str	00000000 
0000168c l       .debug_str	00000000 
00001692 l       .debug_str	00000000 
00001698 l       .debug_str	00000000 
000016a9 l       .debug_str	00000000 
000016dd l       .debug_str	00000000 
0000171e l       .debug_str	00000000 
00001767 l       .debug_str	00000000 
0000176b l       .debug_str	00000000 
00001774 l       .debug_str	00000000 
00001785 l       .debug_str	00000000 
000017b9 l       .debug_str	00000000 
000017fa l       .debug_str	00000000 
00001843 l       .debug_str	00000000 
00001848 l       .debug_str	00000000 
0000184c l       .debug_str	00000000 
00001855 l       .debug_str	00000000 
0000185c l       .debug_str	00000000 
00001864 l       .debug_str	00000000 
00001876 l       .debug_str	00000000 
000018ab l       .debug_str	00000000 
000018ed l       .debug_str	00000000 
00001937 l       .debug_str	00000000 
0000193b l       .debug_str	00000000 
00001941 l       .debug_str	00000000 
00001947 l       .debug_str	00000000 
0000194d l       .debug_str	00000000 
00001953 l       .debug_str	00000000 
0000195b l       .debug_str	00000000 
00001969 l       .debug_str	00000000 
00001978 l       .debug_str	00000000 
00001989 l       .debug_str	00000000 
00001994 l       .debug_str	00000000 
0000199f l       .debug_str	00000000 
000019aa l       .debug_str	00000000 
000019b1 l       .debug_str	00000000 
000019d4 l       .debug_str	00000000 
000019e6 l       .debug_str	00000000 
00001a1b l       .debug_str	00000000 
00001a5d l       .debug_str	00000000 
00001aa7 l       .debug_str	00000000 
00001aab l       .debug_str	00000000 
00001ab5 l       .debug_str	00000000 
00001ac7 l       .debug_str	00000000 
00001afc l       .debug_str	00000000 
00001b3e l       .debug_str	00000000 
00001b88 l       .debug_str	00000000 
00001b8d l       .debug_str	00000000 
00001b97 l       .debug_str	00000000 
00001ba9 l       .debug_str	00000000 
00001bde l       .debug_str	00000000 
00001c20 l       .debug_str	00000000 
00001c6a l       .debug_str	00000000 
00001c7e l       .debug_str	00000000 
00001c82 l       .debug_str	00000000 
00001c90 l       .debug_str	00000000 
00001ca0 l       .debug_str	00000000 
00001ca9 l       .debug_str	00000000 
00001cb4 l       .debug_str	00000000 
00001cc3 l       .debug_str	00000000 
00001cd8 l       .debug_str	00000000 
00001d09 l       .debug_str	00000000 
00001da6 l       .debug_str	00000000 
00001e4b l       .debug_str	00000000 
00001e56 l       .debug_str	00000000 
00001e80 l       .debug_str	00000000 
00001e93 l       .debug_str	00000000 
00001ec9 l       .debug_str	00000000 
00001f4c l       .debug_str	00000000 
00001fd7 l       .debug_str	00000000 
00001ff3 l       .debug_str	00000000 
0000203f l       .debug_str	00000000 
00002093 l       .debug_str	00000000 
000020b0 l       .debug_str	00000000 
000020c4 l       .debug_str	00000000 
00002110 l       .debug_str	00000000 
00002164 l       .debug_str	00000000 
0000217a l       .debug_str	00000000 
0000218e l       .debug_str	00000000 
000021d5 l       .debug_str	00000000 
00002224 l       .debug_str	00000000 
0000222d l       .debug_str	00000000 
0000223b l       .debug_str	00000000 
0000226c l       .debug_str	00000000 
00002272 l       .debug_str	00000000 
0000227a l       .debug_str	00000000 
00002281 l       .debug_str	00000000 
00002289 l       .debug_str	00000000 
00002294 l       .debug_str	00000000 
0000229c l       .debug_str	00000000 
000022ab l       .debug_str	00000000 
000022af l       .debug_str	00000000 
000022ba l       .debug_str	00000000 
000022c6 l       .debug_str	00000000 
000022d1 l       .debug_str	00000000 
000022e2 l       .debug_str	00000000 
000022e8 l       .debug_str	00000000 
000022f0 l       .debug_str	00000000 
000022f7 l       .debug_str	00000000 
00002301 l       .debug_str	00000000 
00002309 l       .debug_str	00000000 
00002311 l       .debug_str	00000000 
00002333 l       .debug_str	00000000 
0000233e l       .debug_str	00000000 
0000234a l       .debug_str	00000000 
00002352 l       .debug_str	00000000 
0000235b l       .debug_str	00000000 
00002366 l       .debug_str	00000000 
0000236d l       .debug_str	00000000 
00002378 l       .debug_str	00000000 
00002383 l       .debug_str	00000000 
00002393 l       .debug_str	00000000 
000023a3 l       .debug_str	00000000 
000023d6 l       .debug_str	00000000 
000023eb l       .debug_str	00000000 
000023f4 l       .debug_str	00000000 
00002451 l       .debug_str	00000000 
000024b6 l       .debug_str	00000000 
000024c0 l       .debug_str	00000000 
000024d0 l       .debug_str	00000000 
000024e5 l       .debug_str	00000000 
000024ed l       .debug_str	00000000 
00002551 l       .debug_str	00000000 
000025bd l       .debug_str	00000000 
000025c4 l       .debug_str	00000000 
000025cc l       .debug_str	00000000 
000025ea l       .debug_str	00000000 
000025fa l       .debug_str	00000000 
0000262d l       .debug_str	00000000 
00002642 l       .debug_str	00000000 
00002655 l       .debug_str	00000000 
0000266a l       .debug_str	00000000 
00002671 l       .debug_str	00000000 
00002686 l       .debug_str	00000000 
000026b0 l       .debug_str	00000000 
0000272c l       .debug_str	00000000 
000027b0 l       .debug_str	00000000 
000027b7 l       .debug_str	00000000 
000027bf l       .debug_str	00000000 
000027dd l       .debug_str	00000000 
000027ed l       .debug_str	00000000 
00000000 l    d  .text._ZN4core6result19Result$LT$T$C$E$GT$6expect17h971a4fb20f73df2aE	00000000 .text._ZN4core6result19Result$LT$T$C$E$GT$6expect17h971a4fb20f73df2aE
00000000 l    d  .text._ZN4core6result19Result$LT$T$C$E$GT$6expect17hda19e15c4ec13e31E	00000000 .text._ZN4core6result19Result$LT$T$C$E$GT$6expect17hda19e15c4ec13e31E
00000000 l    d  .text._ZN73_$LT$core..result..Result$LT$T$C$E$GT$$u20$as$u20$core..ops..try..Try$GT$10from_error17h6d3955e1a79eef94E	00000000 .text._ZN73_$LT$core..result..Result$LT$T$C$E$GT$$u20$as$u20$core..ops..try..Try$GT$10from_error17h6d3955e1a79eef94E
00000000 l    d  .text._ZN73_$LT$core..result..Result$LT$T$C$E$GT$$u20$as$u20$core..ops..try..Try$GT$11into_result17h00bf1b57699326cfE	00000000 .text._ZN73_$LT$core..result..Result$LT$T$C$E$GT$$u20$as$u20$core..ops..try..Try$GT$11into_result17h00bf1b57699326cfE
00000000 l    d  .text._ZN73_$LT$core..result..Result$LT$T$C$E$GT$$u20$as$u20$core..ops..try..Try$GT$11into_result17h2b975e1f9ec08585E	00000000 .text._ZN73_$LT$core..result..Result$LT$T$C$E$GT$$u20$as$u20$core..ops..try..Try$GT$11into_result17h2b975e1f9ec08585E
00000000 l    d  .text._ZN73_$LT$core..result..Result$LT$T$C$E$GT$$u20$as$u20$core..ops..try..Try$GT$11into_result17h470504b6f43ee880E	00000000 .text._ZN73_$LT$core..result..Result$LT$T$C$E$GT$$u20$as$u20$core..ops..try..Try$GT$11into_result17h470504b6f43ee880E
00000000 l    d  .text._ZN73_$LT$core..result..Result$LT$T$C$E$GT$$u20$as$u20$core..ops..try..Try$GT$11into_result17h5fc8a869c255d083E	00000000 .text._ZN73_$LT$core..result..Result$LT$T$C$E$GT$$u20$as$u20$core..ops..try..Try$GT$11into_result17h5fc8a869c255d083E
00000000 l    d  .debug_loc	00000000 .debug_loc
00000000 l    d  .debug_abbrev	00000000 .debug_abbrev
00000000 l    d  .debug_info	00000000 .debug_info
00000000 l    d  .debug_ranges	00000000 .debug_ranges
00000000 l    d  .debug_frame	00000000 .debug_frame
00000000 l    d  .debug_line	00000000 .debug_line
00000000         *UND*	00000000 _ZN4core6result13unwrap_failed17hcd10af70e9ab946bE
00000000 g     F .text._ZN4core6result19Result$LT$T$C$E$GT$6expect17h971a4fb20f73df2aE	0000005a _ZN4core6result19Result$LT$T$C$E$GT$6expect17h971a4fb20f73df2aE
00000000 g     F .text._ZN4core6result19Result$LT$T$C$E$GT$6expect17hda19e15c4ec13e31E	00000052 _ZN4core6result19Result$LT$T$C$E$GT$6expect17hda19e15c4ec13e31E
00000000 g     F .text._ZN73_$LT$core..result..Result$LT$T$C$E$GT$$u20$as$u20$core..ops..try..Try$GT$10from_error17h6d3955e1a79eef94E	00000012 _ZN73_$LT$core..result..Result$LT$T$C$E$GT$$u20$as$u20$core..ops..try..Try$GT$10from_error17h6d3955e1a79eef94E
00000000 g     F .text._ZN73_$LT$core..result..Result$LT$T$C$E$GT$$u20$as$u20$core..ops..try..Try$GT$11into_result17h00bf1b57699326cfE	0000000e _ZN73_$LT$core..result..Result$LT$T$C$E$GT$$u20$as$u20$core..ops..try..Try$GT$11into_result17h00bf1b57699326cfE
00000000 g     F .text._ZN73_$LT$core..result..Result$LT$T$C$E$GT$$u20$as$u20$core..ops..try..Try$GT$11into_result17h2b975e1f9ec08585E	0000001a _ZN73_$LT$core..result..Result$LT$T$C$E$GT$$u20$as$u20$core..ops..try..Try$GT$11into_result17h2b975e1f9ec08585E
00000000 g     F .text._ZN73_$LT$core..result..Result$LT$T$C$E$GT$$u20$as$u20$core..ops..try..Try$GT$11into_result17h470504b6f43ee880E	00000020 _ZN73_$LT$core..result..Result$LT$T$C$E$GT$$u20$as$u20$core..ops..try..Try$GT$11into_result17h470504b6f43ee880E
00000000 g     F .text._ZN73_$LT$core..result..Result$LT$T$C$E$GT$$u20$as$u20$core..ops..try..Try$GT$11into_result17h5fc8a869c255d083E	00000028 _ZN73_$LT$core..result..Result$LT$T$C$E$GT$$u20$as$u20$core..ops..try..Try$GT$11into_result17h5fc8a869c255d083E



Disassembly of section .text._ZN4core6result19Result$LT$T$C$E$GT$6expect17h971a4fb20f73df2aE:

00000000 <_ZN4core6result19Result$LT$T$C$E$GT$6expect17h971a4fb20f73df2aE>:
_ZN4core6result19Result$LT$T$C$E$GT$6expect17h971a4fb20f73df2aE():
/rustc/50a0defd5a93523067ef239936cc2e0755220904/src/libcore/result.rs:824
   0:	b580      	push	{r7, lr}
   2:	b08a      	sub	sp, #40	; 0x28
   4:	4613      	mov	r3, r2
   6:	468c      	mov	ip, r1
   8:	4686      	mov	lr, r0
   a:	9106      	str	r1, [sp, #24]
   c:	9207      	str	r2, [sp, #28]
/rustc/50a0defd5a93523067ef239936cc2e0755220904/src/libcore/result.rs:826
   e:	6800      	ldr	r0, [r0, #0]
  10:	2800      	cmp	r0, #0
  12:	9305      	str	r3, [sp, #20]
  14:	f8cd c010 	str.w	ip, [sp, #16]
  18:	f8cd e00c 	str.w	lr, [sp, #12]
  1c:	9002      	str	r0, [sp, #8]
  1e:	d005      	beq.n	2c <_ZN4core6result19Result$LT$T$C$E$GT$6expect17h971a4fb20f73df2aE+0x2c>
  20:	e7ff      	b.n	22 <_ZN4core6result19Result$LT$T$C$E$GT$6expect17h971a4fb20f73df2aE+0x22>
  22:	9802      	ldr	r0, [sp, #8]
  24:	2801      	cmp	r0, #1
  26:	d00b      	beq.n	40 <_ZN4core6result19Result$LT$T$C$E$GT$6expect17h971a4fb20f73df2aE+0x40>
  28:	e7ff      	b.n	2a <_ZN4core6result19Result$LT$T$C$E$GT$6expect17h971a4fb20f73df2aE+0x2a>
/rustc/50a0defd5a93523067ef239936cc2e0755220904/src/libcore/result.rs:829
  2a:	defe      	udf	#254	; 0xfe
/rustc/50a0defd5a93523067ef239936cc2e0755220904/src/libcore/result.rs:826
  2c:	9803      	ldr	r0, [sp, #12]
  2e:	6841      	ldr	r1, [r0, #4]
  30:	9108      	str	r1, [sp, #32]
  32:	9808      	ldr	r0, [sp, #32]
/rustc/50a0defd5a93523067ef239936cc2e0755220904/src/libcore/result.rs:829
  34:	9903      	ldr	r1, [sp, #12]
  36:	680a      	ldr	r2, [r1, #0]
  38:	2a00      	cmp	r2, #0
  3a:	9001      	str	r0, [sp, #4]
  3c:	d009      	beq.n	52 <_ZN4core6result19Result$LT$T$C$E$GT$6expect17h971a4fb20f73df2aE+0x52>
  3e:	e00b      	b.n	58 <_ZN4core6result19Result$LT$T$C$E$GT$6expect17h971a4fb20f73df2aE+0x58>
/rustc/50a0defd5a93523067ef239936cc2e0755220904/src/libcore/result.rs:827
  40:	9803      	ldr	r0, [sp, #12]
  42:	6841      	ldr	r1, [r0, #4]
  44:	9109      	str	r1, [sp, #36]	; 0x24
  46:	9806      	ldr	r0, [sp, #24]
  48:	9907      	ldr	r1, [sp, #28]
  4a:	9a09      	ldr	r2, [sp, #36]	; 0x24
  4c:	f7ff fffe 	bl	0 <_ZN4core6result13unwrap_failed17hcd10af70e9ab946bE>
  50:	defe      	udf	#254	; 0xfe
/rustc/50a0defd5a93523067ef239936cc2e0755220904/src/libcore/result.rs:829
  52:	9801      	ldr	r0, [sp, #4]
  54:	b00a      	add	sp, #40	; 0x28
  56:	bd80      	pop	{r7, pc}
  58:	e7fb      	b.n	52 <_ZN4core6result19Result$LT$T$C$E$GT$6expect17h971a4fb20f73df2aE+0x52>

Disassembly of section .text._ZN4core6result19Result$LT$T$C$E$GT$6expect17hda19e15c4ec13e31E:

00000000 <_ZN4core6result19Result$LT$T$C$E$GT$6expect17hda19e15c4ec13e31E>:
_ZN4core6result19Result$LT$T$C$E$GT$6expect17hda19e15c4ec13e31E():
/rustc/50a0defd5a93523067ef239936cc2e0755220904/src/libcore/result.rs:824
   0:	b580      	push	{r7, lr}
   2:	b08a      	sub	sp, #40	; 0x28
   4:	4613      	mov	r3, r2
   6:	468c      	mov	ip, r1
   8:	4686      	mov	lr, r0
   a:	9005      	str	r0, [sp, #20]
   c:	9106      	str	r1, [sp, #24]
   e:	9207      	str	r2, [sp, #28]
/rustc/50a0defd5a93523067ef239936cc2e0755220904/src/libcore/result.rs:826
  10:	9805      	ldr	r0, [sp, #20]
  12:	1e41      	subs	r1, r0, #1
  14:	bf18      	it	ne
  16:	2101      	movne	r1, #1
  18:	2801      	cmp	r0, #1
  1a:	9304      	str	r3, [sp, #16]
  1c:	f8cd c00c 	str.w	ip, [sp, #12]
  20:	f8cd e008 	str.w	lr, [sp, #8]
  24:	9101      	str	r1, [sp, #4]
  26:	d005      	beq.n	34 <_ZN4core6result19Result$LT$T$C$E$GT$6expect17hda19e15c4ec13e31E+0x34>
  28:	e7ff      	b.n	2a <_ZN4core6result19Result$LT$T$C$E$GT$6expect17hda19e15c4ec13e31E+0x2a>
  2a:	9801      	ldr	r0, [sp, #4]
  2c:	2801      	cmp	r0, #1
  2e:	d005      	beq.n	3c <_ZN4core6result19Result$LT$T$C$E$GT$6expect17hda19e15c4ec13e31E+0x3c>
  30:	e7ff      	b.n	32 <_ZN4core6result19Result$LT$T$C$E$GT$6expect17hda19e15c4ec13e31E+0x32>
/rustc/50a0defd5a93523067ef239936cc2e0755220904/src/libcore/result.rs:829
  32:	defe      	udf	#254	; 0xfe
  34:	9805      	ldr	r0, [sp, #20]
  36:	2801      	cmp	r0, #1
  38:	d008      	beq.n	4c <_ZN4core6result19Result$LT$T$C$E$GT$6expect17hda19e15c4ec13e31E+0x4c>
  3a:	e009      	b.n	50 <_ZN4core6result19Result$LT$T$C$E$GT$6expect17hda19e15c4ec13e31E+0x50>
/rustc/50a0defd5a93523067ef239936cc2e0755220904/src/libcore/result.rs:827
  3c:	9805      	ldr	r0, [sp, #20]
  3e:	9009      	str	r0, [sp, #36]	; 0x24
  40:	9806      	ldr	r0, [sp, #24]
  42:	9907      	ldr	r1, [sp, #28]
  44:	9a09      	ldr	r2, [sp, #36]	; 0x24
  46:	f7ff fffe 	bl	0 <_ZN4core6result13unwrap_failed17hcd10af70e9ab946bE>
  4a:	defe      	udf	#254	; 0xfe
/rustc/50a0defd5a93523067ef239936cc2e0755220904/src/libcore/result.rs:829
  4c:	b00a      	add	sp, #40	; 0x28
  4e:	bd80      	pop	{r7, pc}
  50:	e7fc      	b.n	4c <_ZN4core6result19Result$LT$T$C$E$GT$6expect17hda19e15c4ec13e31E+0x4c>

Disassembly of section .text._ZN73_$LT$core..result..Result$LT$T$C$E$GT$$u20$as$u20$core..ops..try..Try$GT$10from_error17h6d3955e1a79eef94E:

00000000 <_ZN73_$LT$core..result..Result$LT$T$C$E$GT$$u20$as$u20$core..ops..try..Try$GT$10from_error17h6d3955e1a79eef94E>:
_ZN73_$LT$core..result..Result$LT$T$C$E$GT$$u20$as$u20$core..ops..try..Try$GT$10from_error17h6d3955e1a79eef94E():
/rustc/50a0defd5a93523067ef239936cc2e0755220904/src/libcore/result.rs:1292
   0:	b083      	sub	sp, #12
   2:	4601      	mov	r1, r0
   4:	9001      	str	r0, [sp, #4]
/rustc/50a0defd5a93523067ef239936cc2e0755220904/src/libcore/result.rs:1293
   6:	9801      	ldr	r0, [sp, #4]
   8:	9002      	str	r0, [sp, #8]
/rustc/50a0defd5a93523067ef239936cc2e0755220904/src/libcore/result.rs:1294
   a:	9802      	ldr	r0, [sp, #8]
   c:	9100      	str	r1, [sp, #0]
   e:	b003      	add	sp, #12
  10:	4770      	bx	lr

Disassembly of section .text._ZN73_$LT$core..result..Result$LT$T$C$E$GT$$u20$as$u20$core..ops..try..Try$GT$11into_result17h00bf1b57699326cfE:

00000000 <_ZN73_$LT$core..result..Result$LT$T$C$E$GT$$u20$as$u20$core..ops..try..Try$GT$11into_result17h00bf1b57699326cfE>:
_ZN73_$LT$core..result..Result$LT$T$C$E$GT$$u20$as$u20$core..ops..try..Try$GT$11into_result17h00bf1b57699326cfE():
/rustc/50a0defd5a93523067ef239936cc2e0755220904/src/libcore/result.rs:1282
   0:	b082      	sub	sp, #8
   2:	4601      	mov	r1, r0
   4:	9001      	str	r0, [sp, #4]
/rustc/50a0defd5a93523067ef239936cc2e0755220904/src/libcore/result.rs:1283
   6:	9801      	ldr	r0, [sp, #4]
/rustc/50a0defd5a93523067ef239936cc2e0755220904/src/libcore/result.rs:1284
   8:	9100      	str	r1, [sp, #0]
   a:	b002      	add	sp, #8
   c:	4770      	bx	lr

Disassembly of section .text._ZN73_$LT$core..result..Result$LT$T$C$E$GT$$u20$as$u20$core..ops..try..Try$GT$11into_result17h2b975e1f9ec08585E:

00000000 <_ZN73_$LT$core..result..Result$LT$T$C$E$GT$$u20$as$u20$core..ops..try..Try$GT$11into_result17h2b975e1f9ec08585E>:
_ZN73_$LT$core..result..Result$LT$T$C$E$GT$$u20$as$u20$core..ops..try..Try$GT$11into_result17h2b975e1f9ec08585E():
/rustc/50a0defd5a93523067ef239936cc2e0755220904/src/libcore/result.rs:1282
   0:	b082      	sub	sp, #8
   2:	460a      	mov	r2, r1
   4:	4603      	mov	r3, r0
/rustc/50a0defd5a93523067ef239936cc2e0755220904/src/libcore/result.rs:1283
   6:	f8d1 c000 	ldr.w	ip, [r1]
   a:	6849      	ldr	r1, [r1, #4]
   c:	6041      	str	r1, [r0, #4]
   e:	f8c0 c000 	str.w	ip, [r0]
/rustc/50a0defd5a93523067ef239936cc2e0755220904/src/libcore/result.rs:1284
  12:	9201      	str	r2, [sp, #4]
  14:	9300      	str	r3, [sp, #0]
  16:	b002      	add	sp, #8
  18:	4770      	bx	lr

Disassembly of section .text._ZN73_$LT$core..result..Result$LT$T$C$E$GT$$u20$as$u20$core..ops..try..Try$GT$11into_result17h470504b6f43ee880E:

00000000 <_ZN73_$LT$core..result..Result$LT$T$C$E$GT$$u20$as$u20$core..ops..try..Try$GT$11into_result17h470504b6f43ee880E>:
_ZN73_$LT$core..result..Result$LT$T$C$E$GT$$u20$as$u20$core..ops..try..Try$GT$11into_result17h470504b6f43ee880E():
/rustc/50a0defd5a93523067ef239936cc2e0755220904/src/libcore/result.rs:1282
   0:	b5b0      	push	{r4, r5, r7, lr}
   2:	b082      	sub	sp, #8
   4:	460a      	mov	r2, r1
   6:	4603      	mov	r3, r0
/rustc/50a0defd5a93523067ef239936cc2e0755220904/src/libcore/result.rs:1283
   8:	e8b1 5030 	ldmia.w	r1!, {r4, r5, ip, lr}
   c:	e8a0 5030 	stmia.w	r0!, {r4, r5, ip, lr}
  10:	e891 5030 	ldmia.w	r1, {r4, r5, ip, lr}
  14:	e880 5030 	stmia.w	r0, {r4, r5, ip, lr}
/rustc/50a0defd5a93523067ef239936cc2e0755220904/src/libcore/result.rs:1284
  18:	9201      	str	r2, [sp, #4]
  1a:	9300      	str	r3, [sp, #0]
  1c:	b002      	add	sp, #8
  1e:	bdb0      	pop	{r4, r5, r7, pc}

Disassembly of section .text._ZN73_$LT$core..result..Result$LT$T$C$E$GT$$u20$as$u20$core..ops..try..Try$GT$11into_result17h5fc8a869c255d083E:

00000000 <_ZN73_$LT$core..result..Result$LT$T$C$E$GT$$u20$as$u20$core..ops..try..Try$GT$11into_result17h5fc8a869c255d083E>:
_ZN73_$LT$core..result..Result$LT$T$C$E$GT$$u20$as$u20$core..ops..try..Try$GT$11into_result17h5fc8a869c255d083E():
/rustc/50a0defd5a93523067ef239936cc2e0755220904/src/libcore/result.rs:1282
   0:	b510      	push	{r4, lr}
   2:	b082      	sub	sp, #8
   4:	460a      	mov	r2, r1
   6:	4603      	mov	r3, r0
/rustc/50a0defd5a93523067ef239936cc2e0755220904/src/libcore/result.rs:1283
   8:	f8d1 c000 	ldr.w	ip, [r1]
   c:	f8d1 e004 	ldr.w	lr, [r1, #4]
  10:	688c      	ldr	r4, [r1, #8]
  12:	68c9      	ldr	r1, [r1, #12]
  14:	60c1      	str	r1, [r0, #12]
  16:	6084      	str	r4, [r0, #8]
  18:	f8c0 e004 	str.w	lr, [r0, #4]
  1c:	f8c0 c000 	str.w	ip, [r0]
/rustc/50a0defd5a93523067ef239936cc2e0755220904/src/libcore/result.rs:1284
  20:	9201      	str	r2, [sp, #4]
  22:	9300      	str	r3, [sp, #0]
  24:	b002      	add	sp, #8
  26:	bd10      	pop	{r4, pc}
arm-none-eabi-objdump: rust.metadata.bin: File format not recognized
arm-none-eabi-objdump: app-b90ce02d7e477c3f.1av89fbqeepl6rg1.rcgu.bc.z: File format not recognized
arm-none-eabi-objdump: app-b90ce02d7e477c3f.35j0kb8s1vhb4ukq.rcgu.bc.z: File format not recognized
arm-none-eabi-objdump: app-b90ce02d7e477c3f.387fyplfnkxh0j64.rcgu.bc.z: File format not recognized
arm-none-eabi-objdump: app-b90ce02d7e477c3f.3rvhu3o5i9kxh4nx.rcgu.bc.z: File format not recognized
arm-none-eabi-objdump: app-b90ce02d7e477c3f.4dkwsijwq614g9b5.rcgu.bc.z: File format not recognized
arm-none-eabi-objdump: app-b90ce02d7e477c3f.4q9qovk8rqwaqec4.rcgu.bc.z: File format not recognized
arm-none-eabi-objdump: app-b90ce02d7e477c3f.d6w4n297npb5pfx.rcgu.bc.z: File format not recognized
