In archive target/thumbv7em-none-eabihf/debug/libapp.rlib:

app-b90ce02d7e477c3f.1865e6mu8o34enxf.rcgu.o:     file format elf32-littlearm

SYMBOL TABLE:
00000000 l    df *ABS*	00000000 1865e6mu8o34enxf
00001b92 l       .debug_str	00000000 
000022b6 l       .debug_str	00000000 
000022c6 l       .debug_str	00000000 
000022f9 l       .debug_str	00000000 
0000230e l       .debug_str	00000000 
00002321 l       .debug_str	00000000 
00002336 l       .debug_str	00000000 
0000233d l       .debug_str	00000000 
00002352 l       .debug_str	00000000 
0000237c l       .debug_str	00000000 
00000000 l       .debug_str	00000000 
00000041 l       .debug_str	00000000 
00000055 l       .debug_str	00000000 
00000085 l       .debug_str	00000000 
0000008a l       .debug_str	00000000 
0000008e l       .debug_str	00000000 
00000091 l       .debug_str	00000000 
0000009c l       .debug_str	00000000 
000000a7 l       .debug_str	00000000 
000000ae l       .debug_str	00000000 
000000b2 l       .debug_str	00000000 
000000b4 l       .debug_str	00000000 
000000de l       .debug_str	00000000 
000000fa l       .debug_str	00000000 
00000111 l       .debug_str	00000000 
00000118 l       .debug_str	00000000 
0000011b l       .debug_str	00000000 
00000122 l       .debug_str	00000000 
0000012b l       .debug_str	00000000 
00000131 l       .debug_str	00000000 
00000138 l       .debug_str	00000000 
0000013b l       .debug_str	00000000 
00000147 l       .debug_str	00000000 
0000014f l       .debug_str	00000000 
00000156 l       .debug_str	00000000 
0000015a l       .debug_str	00000000 
0000015f l       .debug_str	00000000 
00000163 l       .debug_str	00000000 
000001bd l       .debug_str	00000000 
000001c2 l       .debug_str	00000000 
000001c6 l       .debug_str	00000000 
00000228 l       .debug_str	00000000 
00000233 l       .debug_str	00000000 
0000027a l       .debug_str	00000000 
000002c9 l       .debug_str	00000000 
000002d3 l       .debug_str	00000000 
00000310 l       .debug_str	00000000 
00000355 l       .debug_str	00000000 
0000035e l       .debug_str	00000000 
0000036e l       .debug_str	00000000 
00000376 l       .debug_str	00000000 
000003cb l       .debug_str	00000000 
00000428 l       .debug_str	00000000 
00000434 l       .debug_str	00000000 
0000043d l       .debug_str	00000000 
00000449 l       .debug_str	00000000 
00000455 l       .debug_str	00000000 
0000045e l       .debug_str	00000000 
00000466 l       .debug_str	00000000 
00000470 l       .debug_str	00000000 
00000478 l       .debug_str	00000000 
00000482 l       .debug_str	00000000 
00000497 l       .debug_str	00000000 
0000049e l       .debug_str	00000000 
000004be l       .debug_str	00000000 
000004c5 l       .debug_str	00000000 
000004cd l       .debug_str	00000000 
000004d7 l       .debug_str	00000000 
000004e2 l       .debug_str	00000000 
000004eb l       .debug_str	00000000 
000004f6 l       .debug_str	00000000 
00000502 l       .debug_str	00000000 
00000506 l       .debug_str	00000000 
0000050f l       .debug_str	00000000 
00000516 l       .debug_str	00000000 
0000051e l       .debug_str	00000000 
00000526 l       .debug_str	00000000 
00000530 l       .debug_str	00000000 
00000536 l       .debug_str	00000000 
0000053d l       .debug_str	00000000 
00000544 l       .debug_str	00000000 
00000571 l       .debug_str	00000000 
000005a6 l       .debug_str	00000000 
000005ac l       .debug_str	00000000 
000005b2 l       .debug_str	00000000 
000005c1 l       .debug_str	00000000 
000005d1 l       .debug_str	00000000 
000005e1 l       .debug_str	00000000 
000005e9 l       .debug_str	00000000 
00000612 l       .debug_str	00000000 
00000670 l       .debug_str	00000000 
000006d6 l       .debug_str	00000000 
000006dd l       .debug_str	00000000 
000006e5 l       .debug_str	00000000 
000006ee l       .debug_str	00000000 
0000070c l       .debug_str	00000000 
0000071c l       .debug_str	00000000 
0000072a l       .debug_str	00000000 
00000735 l       .debug_str	00000000 
00000742 l       .debug_str	00000000 
00000751 l       .debug_str	00000000 
00000767 l       .debug_str	00000000 
00000771 l       .debug_str	00000000 
0000077a l       .debug_str	00000000 
00000783 l       .debug_str	00000000 
000007a9 l       .debug_str	00000000 
000007bf l       .debug_str	00000000 
000007ca l       .debug_str	00000000 
000007e0 l       .debug_str	00000000 
000007e8 l       .debug_str	00000000 
00000809 l       .debug_str	00000000 
00000820 l       .debug_str	00000000 
00000825 l       .debug_str	00000000 
0000082d l       .debug_str	00000000 
00000836 l       .debug_str	00000000 
0000083f l       .debug_str	00000000 
00000848 l       .debug_str	00000000 
00000850 l       .debug_str	00000000 
00000854 l       .debug_str	00000000 
0000085b l       .debug_str	00000000 
00000867 l       .debug_str	00000000 
00000872 l       .debug_str	00000000 
0000087a l       .debug_str	00000000 
00000882 l       .debug_str	00000000 
000008ac l       .debug_str	00000000 
00000928 l       .debug_str	00000000 
000009ac l       .debug_str	00000000 
00000aa8 l       .debug_str	00000000 
00000bac l       .debug_str	00000000 
00000bba l       .debug_str	00000000 
00000bc5 l       .debug_str	00000000 
00000bcf l       .debug_str	00000000 
00000be3 l       .debug_str	00000000 
00000bee l       .debug_str	00000000 
00000c1c l       .debug_str	00000000 
00000c97 l       .debug_str	00000000 
00000d1a l       .debug_str	00000000 
00000d28 l       .debug_str	00000000 
00000d87 l       .debug_str	00000000 
00000dee l       .debug_str	00000000 
00000e04 l       .debug_str	00000000 
00000e14 l       .debug_str	00000000 
00000e23 l       .debug_str	00000000 
00000e27 l       .debug_str	00000000 
00000e2e l       .debug_str	00000000 
00000e34 l       .debug_str	00000000 
00000e38 l       .debug_str	00000000 
00000e3e l       .debug_str	00000000 
00000e44 l       .debug_str	00000000 
00000e50 l       .debug_str	00000000 
00000e58 l       .debug_str	00000000 
00000e5e l       .debug_str	00000000 
00000e66 l       .debug_str	00000000 
00000e6c l       .debug_str	00000000 
00000e8f l       .debug_str	00000000 
00000e9f l       .debug_str	00000000 
00000ed2 l       .debug_str	00000000 
00000f12 l       .debug_str	00000000 
00000f5a l       .debug_str	00000000 
00000f5e l       .debug_str	00000000 
00000f64 l       .debug_str	00000000 
00000f6a l       .debug_str	00000000 
00000f70 l       .debug_str	00000000 
00000f82 l       .debug_str	00000000 
00000fb7 l       .debug_str	00000000 
00000ff9 l       .debug_str	00000000 
00001043 l       .debug_str	00000000 
00001047 l       .debug_str	00000000 
0000104d l       .debug_str	00000000 
00001053 l       .debug_str	00000000 
00001059 l       .debug_str	00000000 
0000106b l       .debug_str	00000000 
000010a0 l       .debug_str	00000000 
000010e2 l       .debug_str	00000000 
0000112c l       .debug_str	00000000 
00001130 l       .debug_str	00000000 
00001136 l       .debug_str	00000000 
0000113c l       .debug_str	00000000 
00001142 l       .debug_str	00000000 
00001148 l       .debug_str	00000000 
00001159 l       .debug_str	00000000 
0000118d l       .debug_str	00000000 
000011ce l       .debug_str	00000000 
00001217 l       .debug_str	00000000 
0000121c l       .debug_str	00000000 
00001221 l       .debug_str	00000000 
00001225 l       .debug_str	00000000 
0000122b l       .debug_str	00000000 
00001231 l       .debug_str	00000000 
00001237 l       .debug_str	00000000 
00001248 l       .debug_str	00000000 
0000127c l       .debug_str	00000000 
000012bd l       .debug_str	00000000 
00001306 l       .debug_str	00000000 
0000130a l       .debug_str	00000000 
00001313 l       .debug_str	00000000 
00001324 l       .debug_str	00000000 
00001358 l       .debug_str	00000000 
00001399 l       .debug_str	00000000 
000013e2 l       .debug_str	00000000 
000013e7 l       .debug_str	00000000 
000013eb l       .debug_str	00000000 
000013f4 l       .debug_str	00000000 
000013fb l       .debug_str	00000000 
00001403 l       .debug_str	00000000 
00001415 l       .debug_str	00000000 
0000144a l       .debug_str	00000000 
0000148c l       .debug_str	00000000 
000014d6 l       .debug_str	00000000 
000014da l       .debug_str	00000000 
000014e0 l       .debug_str	00000000 
000014e6 l       .debug_str	00000000 
000014ec l       .debug_str	00000000 
000014f2 l       .debug_str	00000000 
000014fa l       .debug_str	00000000 
00001508 l       .debug_str	00000000 
00001517 l       .debug_str	00000000 
00001528 l       .debug_str	00000000 
00001533 l       .debug_str	00000000 
0000153e l       .debug_str	00000000 
00001549 l       .debug_str	00000000 
00001550 l       .debug_str	00000000 
00001573 l       .debug_str	00000000 
00001585 l       .debug_str	00000000 
000015ba l       .debug_str	00000000 
000015fc l       .debug_str	00000000 
00001646 l       .debug_str	00000000 
0000164a l       .debug_str	00000000 
00001654 l       .debug_str	00000000 
00001666 l       .debug_str	00000000 
0000169b l       .debug_str	00000000 
000016dd l       .debug_str	00000000 
00001727 l       .debug_str	00000000 
0000172c l       .debug_str	00000000 
00001736 l       .debug_str	00000000 
00001748 l       .debug_str	00000000 
0000177d l       .debug_str	00000000 
000017bf l       .debug_str	00000000 
00001809 l       .debug_str	00000000 
0000181d l       .debug_str	00000000 
00001821 l       .debug_str	00000000 
0000182f l       .debug_str	00000000 
0000183f l       .debug_str	00000000 
00001848 l       .debug_str	00000000 
00001853 l       .debug_str	00000000 
00001862 l       .debug_str	00000000 
00001877 l       .debug_str	00000000 
000018a8 l       .debug_str	00000000 
00001945 l       .debug_str	00000000 
000019ea l       .debug_str	00000000 
000019f5 l       .debug_str	00000000 
000019fe l       .debug_str	00000000 
00001a1f l       .debug_str	00000000 
00001a32 l       .debug_str	00000000 
00001a68 l       .debug_str	00000000 
00001aeb l       .debug_str	00000000 
00001b76 l       .debug_str	00000000 
00001bde l       .debug_str	00000000 
00001c32 l       .debug_str	00000000 
00001c4f l       .debug_str	00000000 
00001c63 l       .debug_str	00000000 
00001caf l       .debug_str	00000000 
00001d03 l       .debug_str	00000000 
00001d19 l       .debug_str	00000000 
00001d2d l       .debug_str	00000000 
00001d74 l       .debug_str	00000000 
00001dc3 l       .debug_str	00000000 
00001dcc l       .debug_str	00000000 
00001dda l       .debug_str	00000000 
00001e0b l       .debug_str	00000000 
00001e11 l       .debug_str	00000000 
00001e19 l       .debug_str	00000000 
00001e20 l       .debug_str	00000000 
00001e28 l       .debug_str	00000000 
00001e33 l       .debug_str	00000000 
00001e3b l       .debug_str	00000000 
00001e4a l       .debug_str	00000000 
00001e4e l       .debug_str	00000000 
00001e59 l       .debug_str	00000000 
00001e65 l       .debug_str	00000000 
00001e70 l       .debug_str	00000000 
00001e81 l       .debug_str	00000000 
00001e87 l       .debug_str	00000000 
00001e8f l       .debug_str	00000000 
00001e96 l       .debug_str	00000000 
00001ea0 l       .debug_str	00000000 
00001ea8 l       .debug_str	00000000 
00001eb0 l       .debug_str	00000000 
00001ed2 l       .debug_str	00000000 
00001edd l       .debug_str	00000000 
00001ee9 l       .debug_str	00000000 
00001ef1 l       .debug_str	00000000 
00001efa l       .debug_str	00000000 
00001f05 l       .debug_str	00000000 
00001f0c l       .debug_str	00000000 
00001f17 l       .debug_str	00000000 
00001f22 l       .debug_str	00000000 
00001f32 l       .debug_str	00000000 
00001f3c l       .debug_str	00000000 
00001f42 l       .debug_str	00000000 
00001f64 l       .debug_str	00000000 
00001f9c l       .debug_str	00000000 
00001fdc l       .debug_str	00000000 
00001fe3 l       .debug_str	00000000 
00001feb l       .debug_str	00000000 
00002002 l       .debug_str	00000000 
0000200b l       .debug_str	00000000 
0000201b l       .debug_str	00000000 
0000202a l       .debug_str	00000000 
00002032 l       .debug_str	00000000 
00002039 l       .debug_str	00000000 
00002041 l       .debug_str	00000000 
0000205f l       .debug_str	00000000 
0000206f l       .debug_str	00000000 
000020a2 l       .debug_str	00000000 
000020b7 l       .debug_str	00000000 
000020c0 l       .debug_str	00000000 
0000211d l       .debug_str	00000000 
00002182 l       .debug_str	00000000 
0000218c l       .debug_str	00000000 
0000219c l       .debug_str	00000000 
000021b1 l       .debug_str	00000000 
000021b9 l       .debug_str	00000000 
0000221d l       .debug_str	00000000 
00002289 l       .debug_str	00000000 
00002290 l       .debug_str	00000000 
00002298 l       .debug_str	00000000 
00000000 l    d  .text._ZN4core3ptr8null_mut17h5efb0e9f0d035da2E	00000000 .text._ZN4core3ptr8null_mut17h5efb0e9f0d035da2E
00000000 l    d  .text._ZN4core3ptr8null_mut17h77c2d0fe6651650cE	00000000 .text._ZN4core3ptr8null_mut17h77c2d0fe6651650cE
00000000 l    d  .debug_abbrev	00000000 .debug_abbrev
00000000 l    d  .debug_info	00000000 .debug_info
00000000 l    d  .debug_ranges	00000000 .debug_ranges
00000000 l    d  .debug_frame	00000000 .debug_frame
00000000 l    d  .debug_line	00000000 .debug_line
00000000 g     F .text._ZN4core3ptr8null_mut17h5efb0e9f0d035da2E	00000004 _ZN4core3ptr8null_mut17h5efb0e9f0d035da2E
00000000 g     F .text._ZN4core3ptr8null_mut17h77c2d0fe6651650cE	00000004 _ZN4core3ptr8null_mut17h77c2d0fe6651650cE



Disassembly of section .text._ZN4core3ptr8null_mut17h5efb0e9f0d035da2E:

00000000 <_ZN4core3ptr8null_mut17h5efb0e9f0d035da2E>:
_ZN4core3ptr8null_mut17h5efb0e9f0d035da2E():
/rustc/50a0defd5a93523067ef239936cc2e0755220904/src/libcore/ptr.rs:229
   0:	2000      	movs	r0, #0
   2:	4770      	bx	lr

Disassembly of section .text._ZN4core3ptr8null_mut17h77c2d0fe6651650cE:

00000000 <_ZN4core3ptr8null_mut17h77c2d0fe6651650cE>:
_ZN4core3ptr8null_mut17h77c2d0fe6651650cE():
/rustc/50a0defd5a93523067ef239936cc2e0755220904/src/libcore/ptr.rs:229
   0:	2000      	movs	r0, #0
   2:	4770      	bx	lr

app-b90ce02d7e477c3f.1av89fbqeepl6rg1.rcgu.o:     file format elf32-littlearm

SYMBOL TABLE:
00000000 l    df *ABS*	00000000 1av89fbqeepl6rg1
000021f6 l       .debug_str	00000000 
000027a5 l       .debug_str	00000000 
000027ab l       .debug_str	00000000 
000027b5 l       .debug_str	00000000 
000027b8 l       .debug_str	00000000 
000027be l       .debug_str	00000000 
000027c8 l       .debug_str	00000000 
000027d0 l       .debug_str	00000000 
000027d6 l       .debug_str	00000000 
000027dc l       .debug_str	00000000 
000027e7 l       .debug_str	00000000 
000027f0 l       .debug_str	00000000 
00002813 l       .debug_str	00000000 
00002832 l       .debug_str	00000000 
00002859 l       .debug_str	00000000 
0000285e l       .debug_str	00000000 
00002864 l       .debug_str	00000000 
00002873 l       .debug_str	00000000 
00002877 l       .debug_str	00000000 
00002880 l       .debug_str	00000000 
00002888 l       .debug_str	00000000 
00002890 l       .debug_str	00000000 
00002897 l       .debug_str	00000000 
000028a3 l       .debug_str	00000000 
000028af l       .debug_str	00000000 
000028c8 l       .debug_str	00000000 
000028cd l       .debug_str	00000000 
000028de l       .debug_str	00000000 
000028e8 l       .debug_str	00000000 
000028f6 l       .debug_str	00000000 
000028fa l       .debug_str	00000000 
00002905 l       .debug_str	00000000 
0000290c l       .debug_str	00000000 
00002912 l       .debug_str	00000000 
00002916 l       .debug_str	00000000 
0000291a l       .debug_str	00000000 
00002922 l       .debug_str	00000000 
00002939 l       .debug_str	00000000 
0000295d l       .debug_str	00000000 
00002979 l       .debug_str	00000000 
00002983 l       .debug_str	00000000 
0000299d l       .debug_str	00000000 
000029fb l       .debug_str	00000000 
00002a06 l       .debug_str	00000000 
00002a23 l       .debug_str	00000000 
00002a3c l       .debug_str	00000000 
00002a46 l       .debug_str	00000000 
00002a5c l       .debug_str	00000000 
00002a60 l       .debug_str	00000000 
00000000 l       .debug_str	00000000 
00000041 l       .debug_str	00000000 
00000055 l       .debug_str	00000000 
00000085 l       .debug_str	00000000 
00000089 l       .debug_str	00000000 
00000094 l       .debug_str	00000000 
000000a2 l       .debug_str	00000000 
000000a9 l       .debug_str	00000000 
000000ad l       .debug_str	00000000 
000000b0 l       .debug_str	00000000 
000000b8 l       .debug_str	00000000 
000000bc l       .debug_str	00000000 
000000c5 l       .debug_str	00000000 
000000cf l       .debug_str	00000000 
000000d6 l       .debug_str	00000000 
000000dc l       .debug_str	00000000 
000000e2 l       .debug_str	00000000 
000000e7 l       .debug_str	00000000 
000000ef l       .debug_str	00000000 
000000f4 l       .debug_str	00000000 
0000012b l       .debug_str	00000000 
00000132 l       .debug_str	00000000 
00000136 l       .debug_str	00000000 
0000013e l       .debug_str	00000000 
00000149 l       .debug_str	00000000 
00000154 l       .debug_str	00000000 
00000161 l       .debug_str	00000000 
0000016c l       .debug_str	00000000 
00000174 l       .debug_str	00000000 
0000017f l       .debug_str	00000000 
0000018a l       .debug_str	00000000 
00000194 l       .debug_str	00000000 
0000019f l       .debug_str	00000000 
000001aa l       .debug_str	00000000 
000001b7 l       .debug_str	00000000 
000001c3 l       .debug_str	00000000 
000001d0 l       .debug_str	00000000 
000001de l       .debug_str	00000000 
000001e8 l       .debug_str	00000000 
000001f5 l       .debug_str	00000000 
00000201 l       .debug_str	00000000 
00000206 l       .debug_str	00000000 
0000020a l       .debug_str	00000000 
00000215 l       .debug_str	00000000 
00000220 l       .debug_str	00000000 
00000227 l       .debug_str	00000000 
0000022b l       .debug_str	00000000 
0000022e l       .debug_str	00000000 
00000231 l       .debug_str	00000000 
00000236 l       .debug_str	00000000 
0000023c l       .debug_str	00000000 
00000243 l       .debug_str	00000000 
0000024b l       .debug_str	00000000 
00000255 l       .debug_str	00000000 
00000258 l       .debug_str	00000000 
0000025c l       .debug_str	00000000 
00000263 l       .debug_str	00000000 
000002a2 l       .debug_str	00000000 
000002b8 l       .debug_str	00000000 
000002bc l       .debug_str	00000000 
000002bf l       .debug_str	00000000 
000002c1 l       .debug_str	00000000 
000002c3 l       .debug_str	00000000 
000002eb l       .debug_str	00000000 
00000327 l       .debug_str	00000000 
0000033a l       .debug_str	00000000 
00000377 l       .debug_str	00000000 
0000038b l       .debug_str	00000000 
0000038e l       .debug_str	00000000 
00000395 l       .debug_str	00000000 
00000399 l       .debug_str	00000000 
000003a7 l       .debug_str	00000000 
000003ad l       .debug_str	00000000 
000003b2 l       .debug_str	00000000 
000003b7 l       .debug_str	00000000 
000003bd l       .debug_str	00000000 
000003c1 l       .debug_str	00000000 
000003cd l       .debug_str	00000000 
000003d6 l       .debug_str	00000000 
000003da l       .debug_str	00000000 
000003e4 l       .debug_str	00000000 
000003ed l       .debug_str	00000000 
000003fd l       .debug_str	00000000 
00000401 l       .debug_str	00000000 
0000040d l       .debug_str	00000000 
00000445 l       .debug_str	00000000 
00000454 l       .debug_str	00000000 
00000459 l       .debug_str	00000000 
00000462 l       .debug_str	00000000 
00000468 l       .debug_str	00000000 
0000046f l       .debug_str	00000000 
00000472 l       .debug_str	00000000 
0000047e l       .debug_str	00000000 
00000486 l       .debug_str	00000000 
0000048d l       .debug_str	00000000 
000004a4 l       .debug_str	00000000 
000004fe l       .debug_str	00000000 
00000503 l       .debug_str	00000000 
00000565 l       .debug_str	00000000 
00000570 l       .debug_str	00000000 
000005b7 l       .debug_str	00000000 
00000606 l       .debug_str	00000000 
00000610 l       .debug_str	00000000 
0000064d l       .debug_str	00000000 
00000692 l       .debug_str	00000000 
0000069b l       .debug_str	00000000 
000006ab l       .debug_str	00000000 
000006b3 l       .debug_str	00000000 
00000708 l       .debug_str	00000000 
00000765 l       .debug_str	00000000 
00000771 l       .debug_str	00000000 
0000077a l       .debug_str	00000000 
00000786 l       .debug_str	00000000 
00000792 l       .debug_str	00000000 
0000079b l       .debug_str	00000000 
000007a3 l       .debug_str	00000000 
000007ab l       .debug_str	00000000 
000007b5 l       .debug_str	00000000 
000007ca l       .debug_str	00000000 
000007d1 l       .debug_str	00000000 
000007f1 l       .debug_str	00000000 
000007f8 l       .debug_str	00000000 
00000800 l       .debug_str	00000000 
0000080a l       .debug_str	00000000 
00000815 l       .debug_str	00000000 
0000081e l       .debug_str	00000000 
00000829 l       .debug_str	00000000 
00000835 l       .debug_str	00000000 
00000839 l       .debug_str	00000000 
00000842 l       .debug_str	00000000 
00000849 l       .debug_str	00000000 
00000851 l       .debug_str	00000000 
00000859 l       .debug_str	00000000 
00000863 l       .debug_str	00000000 
00000869 l       .debug_str	00000000 
00000870 l       .debug_str	00000000 
00000877 l       .debug_str	00000000 
000008a4 l       .debug_str	00000000 
000008d9 l       .debug_str	00000000 
000008df l       .debug_str	00000000 
000008e5 l       .debug_str	00000000 
000008f4 l       .debug_str	00000000 
00000904 l       .debug_str	00000000 
00000914 l       .debug_str	00000000 
0000091c l       .debug_str	00000000 
00000945 l       .debug_str	00000000 
000009a3 l       .debug_str	00000000 
00000a09 l       .debug_str	00000000 
00000a10 l       .debug_str	00000000 
00000a18 l       .debug_str	00000000 
00000a21 l       .debug_str	00000000 
00000a3f l       .debug_str	00000000 
00000a4f l       .debug_str	00000000 
00000a5d l       .debug_str	00000000 
00000a68 l       .debug_str	00000000 
00000a75 l       .debug_str	00000000 
00000a84 l       .debug_str	00000000 
00000a9a l       .debug_str	00000000 
00000aa4 l       .debug_str	00000000 
00000aad l       .debug_str	00000000 
00000ab6 l       .debug_str	00000000 
00000adc l       .debug_str	00000000 
00000af2 l       .debug_str	00000000 
00000afd l       .debug_str	00000000 
00000b13 l       .debug_str	00000000 
00000b1b l       .debug_str	00000000 
00000b3c l       .debug_str	00000000 
00000b53 l       .debug_str	00000000 
00000b58 l       .debug_str	00000000 
00000b60 l       .debug_str	00000000 
00000b69 l       .debug_str	00000000 
00000b72 l       .debug_str	00000000 
00000b7b l       .debug_str	00000000 
00000b83 l       .debug_str	00000000 
00000b87 l       .debug_str	00000000 
00000b8e l       .debug_str	00000000 
00000b9a l       .debug_str	00000000 
00000ba5 l       .debug_str	00000000 
00000bad l       .debug_str	00000000 
00000bb5 l       .debug_str	00000000 
00000c31 l       .debug_str	00000000 
00000cb5 l       .debug_str	00000000 
00000db1 l       .debug_str	00000000 
00000eb5 l       .debug_str	00000000 
00000ec3 l       .debug_str	00000000 
00000ece l       .debug_str	00000000 
00000ed8 l       .debug_str	00000000 
00000eec l       .debug_str	00000000 
00000ef7 l       .debug_str	00000000 
00000f25 l       .debug_str	00000000 
00000fa0 l       .debug_str	00000000 
00001023 l       .debug_str	00000000 
00001031 l       .debug_str	00000000 
00001090 l       .debug_str	00000000 
000010f7 l       .debug_str	00000000 
0000110d l       .debug_str	00000000 
0000111d l       .debug_str	00000000 
0000112c l       .debug_str	00000000 
00001130 l       .debug_str	00000000 
00001137 l       .debug_str	00000000 
0000113d l       .debug_str	00000000 
00001143 l       .debug_str	00000000 
00001149 l       .debug_str	00000000 
00001155 l       .debug_str	00000000 
0000115d l       .debug_str	00000000 
00001163 l       .debug_str	00000000 
0000116b l       .debug_str	00000000 
00001171 l       .debug_str	00000000 
00001194 l       .debug_str	00000000 
000011a4 l       .debug_str	00000000 
000011d7 l       .debug_str	00000000 
00001217 l       .debug_str	00000000 
0000125f l       .debug_str	00000000 
00001263 l       .debug_str	00000000 
00001269 l       .debug_str	00000000 
0000126f l       .debug_str	00000000 
00001275 l       .debug_str	00000000 
00001287 l       .debug_str	00000000 
000012bc l       .debug_str	00000000 
000012fe l       .debug_str	00000000 
00001348 l       .debug_str	00000000 
0000134c l       .debug_str	00000000 
00001352 l       .debug_str	00000000 
00001358 l       .debug_str	00000000 
0000135e l       .debug_str	00000000 
00001370 l       .debug_str	00000000 
000013a5 l       .debug_str	00000000 
000013e7 l       .debug_str	00000000 
00001431 l       .debug_str	00000000 
00001435 l       .debug_str	00000000 
0000143b l       .debug_str	00000000 
00001441 l       .debug_str	00000000 
00001447 l       .debug_str	00000000 
0000144d l       .debug_str	00000000 
0000145e l       .debug_str	00000000 
00001492 l       .debug_str	00000000 
000014d3 l       .debug_str	00000000 
0000151c l       .debug_str	00000000 
00001521 l       .debug_str	00000000 
00001526 l       .debug_str	00000000 
0000152a l       .debug_str	00000000 
00001530 l       .debug_str	00000000 
00001536 l       .debug_str	00000000 
0000153c l       .debug_str	00000000 
0000154d l       .debug_str	00000000 
00001581 l       .debug_str	00000000 
000015c2 l       .debug_str	00000000 
0000160b l       .debug_str	00000000 
0000160f l       .debug_str	00000000 
00001618 l       .debug_str	00000000 
00001629 l       .debug_str	00000000 
0000165d l       .debug_str	00000000 
0000169e l       .debug_str	00000000 
000016e7 l       .debug_str	00000000 
000016ec l       .debug_str	00000000 
000016f0 l       .debug_str	00000000 
000016f9 l       .debug_str	00000000 
00001700 l       .debug_str	00000000 
00001708 l       .debug_str	00000000 
0000171a l       .debug_str	00000000 
0000174f l       .debug_str	00000000 
00001791 l       .debug_str	00000000 
000017db l       .debug_str	00000000 
000017df l       .debug_str	00000000 
000017e5 l       .debug_str	00000000 
000017eb l       .debug_str	00000000 
000017f1 l       .debug_str	00000000 
000017f7 l       .debug_str	00000000 
000017ff l       .debug_str	00000000 
0000180d l       .debug_str	00000000 
0000181c l       .debug_str	00000000 
0000182d l       .debug_str	00000000 
00001838 l       .debug_str	00000000 
00001843 l       .debug_str	00000000 
0000184e l       .debug_str	00000000 
00001855 l       .debug_str	00000000 
00001878 l       .debug_str	00000000 
0000188a l       .debug_str	00000000 
000018bf l       .debug_str	00000000 
00001901 l       .debug_str	00000000 
0000194b l       .debug_str	00000000 
0000194f l       .debug_str	00000000 
00001959 l       .debug_str	00000000 
0000196b l       .debug_str	00000000 
000019a0 l       .debug_str	00000000 
000019e2 l       .debug_str	00000000 
00001a2c l       .debug_str	00000000 
00001a31 l       .debug_str	00000000 
00001a3b l       .debug_str	00000000 
00001a4d l       .debug_str	00000000 
00001a82 l       .debug_str	00000000 
00001ac4 l       .debug_str	00000000 
00001b0e l       .debug_str	00000000 
00001b22 l       .debug_str	00000000 
00001b26 l       .debug_str	00000000 
00001b34 l       .debug_str	00000000 
00001b44 l       .debug_str	00000000 
00001b4d l       .debug_str	00000000 
00001b58 l       .debug_str	00000000 
00001b67 l       .debug_str	00000000 
00001b7c l       .debug_str	00000000 
00001bad l       .debug_str	00000000 
00001c4a l       .debug_str	00000000 
00001cef l       .debug_str	00000000 
00001cfa l       .debug_str	00000000 
00001d03 l       .debug_str	00000000 
00001d24 l       .debug_str	00000000 
00001d37 l       .debug_str	00000000 
00001d6d l       .debug_str	00000000 
00001df0 l       .debug_str	00000000 
00001e7b l       .debug_str	00000000 
00001e97 l       .debug_str	00000000 
00001ee3 l       .debug_str	00000000 
00001f37 l       .debug_str	00000000 
00001f54 l       .debug_str	00000000 
00001f68 l       .debug_str	00000000 
00001fb4 l       .debug_str	00000000 
00002008 l       .debug_str	00000000 
0000201e l       .debug_str	00000000 
00002032 l       .debug_str	00000000 
00002079 l       .debug_str	00000000 
000020c8 l       .debug_str	00000000 
000020d1 l       .debug_str	00000000 
000020df l       .debug_str	00000000 
00002110 l       .debug_str	00000000 
00002116 l       .debug_str	00000000 
0000211e l       .debug_str	00000000 
00002125 l       .debug_str	00000000 
0000212d l       .debug_str	00000000 
00002138 l       .debug_str	00000000 
00002140 l       .debug_str	00000000 
0000214f l       .debug_str	00000000 
00002153 l       .debug_str	00000000 
0000215e l       .debug_str	00000000 
0000216a l       .debug_str	00000000 
00002175 l       .debug_str	00000000 
00002186 l       .debug_str	00000000 
0000218c l       .debug_str	00000000 
00002194 l       .debug_str	00000000 
0000219b l       .debug_str	00000000 
000021a5 l       .debug_str	00000000 
000021ad l       .debug_str	00000000 
000021b5 l       .debug_str	00000000 
000021d7 l       .debug_str	00000000 
000021e2 l       .debug_str	00000000 
000021ee l       .debug_str	00000000 
000021ff l       .debug_str	00000000 
0000220a l       .debug_str	00000000 
00002211 l       .debug_str	00000000 
0000221c l       .debug_str	00000000 
00002227 l       .debug_str	00000000 
00002237 l       .debug_str	00000000 
00002241 l       .debug_str	00000000 
00002247 l       .debug_str	00000000 
00002269 l       .debug_str	00000000 
000022a1 l       .debug_str	00000000 
000022e1 l       .debug_str	00000000 
000022e8 l       .debug_str	00000000 
000022f0 l       .debug_str	00000000 
00002307 l       .debug_str	00000000 
00002310 l       .debug_str	00000000 
00002320 l       .debug_str	00000000 
0000232f l       .debug_str	00000000 
00002337 l       .debug_str	00000000 
0000233e l       .debug_str	00000000 
00002346 l       .debug_str	00000000 
00002364 l       .debug_str	00000000 
00002374 l       .debug_str	00000000 
000023a7 l       .debug_str	00000000 
000023bc l       .debug_str	00000000 
000023c5 l       .debug_str	00000000 
00002422 l       .debug_str	00000000 
00002487 l       .debug_str	00000000 
00002491 l       .debug_str	00000000 
000024a1 l       .debug_str	00000000 
000024b6 l       .debug_str	00000000 
000024be l       .debug_str	00000000 
00002522 l       .debug_str	00000000 
0000258e l       .debug_str	00000000 
00002595 l       .debug_str	00000000 
0000259d l       .debug_str	00000000 
000025bb l       .debug_str	00000000 
000025cb l       .debug_str	00000000 
000025fe l       .debug_str	00000000 
00002613 l       .debug_str	00000000 
00002626 l       .debug_str	00000000 
0000263b l       .debug_str	00000000 
00002642 l       .debug_str	00000000 
00002657 l       .debug_str	00000000 
00002681 l       .debug_str	00000000 
00002685 l       .debug_str	00000000 
00002689 l       .debug_str	00000000 
00002692 l       .debug_str	00000000 
00002697 l       .debug_str	00000000 
000026a3 l       .debug_str	00000000 
000026af l       .debug_str	00000000 
000026bc l       .debug_str	00000000 
000026c0 l       .debug_str	00000000 
000026e4 l       .debug_str	00000000 
000026f0 l       .debug_str	00000000 
000026fe l       .debug_str	00000000 
00002715 l       .debug_str	00000000 
0000272a l       .debug_str	00000000 
0000272d l       .debug_str	00000000 
00002736 l       .debug_str	00000000 
0000273b l       .debug_str	00000000 
00002745 l       .debug_str	00000000 
0000274a l       .debug_str	00000000 
00002750 l       .debug_str	00000000 
00002755 l       .debug_str	00000000 
0000275a l       .debug_str	00000000 
00002761 l       .debug_str	00000000 
00002766 l       .debug_str	00000000 
00002772 l       .debug_str	00000000 
0000277a l       .debug_str	00000000 
00002783 l       .debug_str	00000000 
00002788 l       .debug_str	00000000 
0000278b l       .debug_str	00000000 
00002794 l       .debug_str	00000000 
0000279b l       .debug_str	00000000 
000027a0 l       .debug_str	00000000 
00000000 l     O .rodata..Lanon.5addfd68729b0747a7b13cf3d62a75a2.1	0000000e .Lanon.5addfd68729b0747a7b13cf3d62a75a2.1
00000000 l     O .rodata.cst4	00000004 .Lanon.5addfd68729b0747a7b13cf3d62a75a2.10
00000000 l     O .rodata..Lanon.5addfd68729b0747a7b13cf3d62a75a2.11	00000016 .Lanon.5addfd68729b0747a7b13cf3d62a75a2.11
00000000 l     O .rodata..Lanon.5addfd68729b0747a7b13cf3d62a75a2.12	00000018 .Lanon.5addfd68729b0747a7b13cf3d62a75a2.12
00000000 l     O .rodata..Lanon.5addfd68729b0747a7b13cf3d62a75a2.14	0000000c .Lanon.5addfd68729b0747a7b13cf3d62a75a2.14
00000004 l     O .rodata.cst4	00000004 .Lanon.5addfd68729b0747a7b13cf3d62a75a2.15
00000000 l     O .rodata..Lanon.5addfd68729b0747a7b13cf3d62a75a2.19	00000018 .Lanon.5addfd68729b0747a7b13cf3d62a75a2.19
00000000 l     O .rodata..Lanon.5addfd68729b0747a7b13cf3d62a75a2.21	00000008 .Lanon.5addfd68729b0747a7b13cf3d62a75a2.21
00000000 l     O .rodata..Lanon.5addfd68729b0747a7b13cf3d62a75a2.22	00000000 .Lanon.5addfd68729b0747a7b13cf3d62a75a2.22
00000000 l     O .rodata..Lanon.5addfd68729b0747a7b13cf3d62a75a2.23	00000010 .Lanon.5addfd68729b0747a7b13cf3d62a75a2.23
00000000 l     O .rodata..Lanon.5addfd68729b0747a7b13cf3d62a75a2.24	00000001 .Lanon.5addfd68729b0747a7b13cf3d62a75a2.24
00000000 l     O .rodata..Lanon.5addfd68729b0747a7b13cf3d62a75a2.26	00000018 .Lanon.5addfd68729b0747a7b13cf3d62a75a2.26
00000000 l     O .rodata..Lanon.5addfd68729b0747a7b13cf3d62a75a2.28	00000008 .Lanon.5addfd68729b0747a7b13cf3d62a75a2.28
00000000 l     O .rodata..Lanon.5addfd68729b0747a7b13cf3d62a75a2.29	00000010 .Lanon.5addfd68729b0747a7b13cf3d62a75a2.29
00000000 l     O .rodata..Lanon.5addfd68729b0747a7b13cf3d62a75a2.4	00000018 .Lanon.5addfd68729b0747a7b13cf3d62a75a2.4
00000000 l     O .rodata..Lanon.5addfd68729b0747a7b13cf3d62a75a2.5	00000018 .Lanon.5addfd68729b0747a7b13cf3d62a75a2.5
00000000 l     O .rodata..Lanon.5addfd68729b0747a7b13cf3d62a75a2.7	00000018 .Lanon.5addfd68729b0747a7b13cf3d62a75a2.7
00000000 l     O .rodata.cst8	00000008 .Lanon.5addfd68729b0747a7b13cf3d62a75a2.8
00000000 l     O .rodata..Lanon.5addfd68729b0747a7b13cf3d62a75a2.9	00000018 .Lanon.5addfd68729b0747a7b13cf3d62a75a2.9
00000000 l     O .rodata._ZN3app10app_sensor13SENSOR_DEVICE17hefbfbc9c9146f744E	0000000c _ZN3app10app_sensor13SENSOR_DEVICE17hefbfbc9c9146f744E
00000000 l     F .text._ZN3app10app_sensor14standby_wakeup17h601e1f8428b994adE	0000002c _ZN3app10app_sensor14standby_wakeup17h601e1f8428b994adE
00000000 l     F .text._ZN3app10app_sensor18handle_sensor_data17h64015281be9a8d30E	000000f6 _ZN3app10app_sensor18handle_sensor_data17h64015281be9a8d30E
00000000 l     F .text._ZN3app10app_sensor19convert_sensor_data17hb5e1189cbb2e1f3fE	00000274 _ZN3app10app_sensor19convert_sensor_data17hb5e1189cbb2e1f3fE
00000000 l    d  .text._ZN3app10app_sensor21start_sensor_listener17h09088494e967a630E	00000000 .text._ZN3app10app_sensor21start_sensor_listener17h09088494e967a630E
00000000 l    d  .text._ZN3app10app_sensor18handle_sensor_data17h64015281be9a8d30E	00000000 .text._ZN3app10app_sensor18handle_sensor_data17h64015281be9a8d30E
00000000 l    d  .text._ZN3app10app_sensor19convert_sensor_data17hb5e1189cbb2e1f3fE	00000000 .text._ZN3app10app_sensor19convert_sensor_data17hb5e1189cbb2e1f3fE
00000000 l    d  .text._ZN3app10app_sensor14standby_wakeup17h601e1f8428b994adE	00000000 .text._ZN3app10app_sensor14standby_wakeup17h601e1f8428b994adE
00000000 l    d  .rodata..Lanon.5addfd68729b0747a7b13cf3d62a75a2.0	00000000 .rodata..Lanon.5addfd68729b0747a7b13cf3d62a75a2.0
00000000 l    d  .rodata._ZN3app10app_sensor13SENSOR_DEVICE17hefbfbc9c9146f744E	00000000 .rodata._ZN3app10app_sensor13SENSOR_DEVICE17hefbfbc9c9146f744E
00000000 l    d  .rodata..Lanon.5addfd68729b0747a7b13cf3d62a75a2.2	00000000 .rodata..Lanon.5addfd68729b0747a7b13cf3d62a75a2.2
00000000 l    d  .rodata..Lanon.5addfd68729b0747a7b13cf3d62a75a2.3	00000000 .rodata..Lanon.5addfd68729b0747a7b13cf3d62a75a2.3
00000000 l    d  .rodata..Lanon.5addfd68729b0747a7b13cf3d62a75a2.6	00000000 .rodata..Lanon.5addfd68729b0747a7b13cf3d62a75a2.6
00000000 l    d  .rodata..Lanon.5addfd68729b0747a7b13cf3d62a75a2.13	00000000 .rodata..Lanon.5addfd68729b0747a7b13cf3d62a75a2.13
00000000 l    d  .rodata..Lanon.5addfd68729b0747a7b13cf3d62a75a2.16	00000000 .rodata..Lanon.5addfd68729b0747a7b13cf3d62a75a2.16
00000000 l    d  .rodata..Lanon.5addfd68729b0747a7b13cf3d62a75a2.17	00000000 .rodata..Lanon.5addfd68729b0747a7b13cf3d62a75a2.17
00000000 l    d  .rodata..Lanon.5addfd68729b0747a7b13cf3d62a75a2.18	00000000 .rodata..Lanon.5addfd68729b0747a7b13cf3d62a75a2.18
00000000 l    d  .rodata..Lanon.5addfd68729b0747a7b13cf3d62a75a2.20	00000000 .rodata..Lanon.5addfd68729b0747a7b13cf3d62a75a2.20
00000000 l    d  .rodata..Lanon.5addfd68729b0747a7b13cf3d62a75a2.25	00000000 .rodata..Lanon.5addfd68729b0747a7b13cf3d62a75a2.25
00000000 l    d  .rodata..Lanon.5addfd68729b0747a7b13cf3d62a75a2.27	00000000 .rodata..Lanon.5addfd68729b0747a7b13cf3d62a75a2.27
00000000 l    d  .debug_abbrev	00000000 .debug_abbrev
00000000 l    d  .debug_info	00000000 .debug_info
00000000 l    d  .debug_ranges	00000000 .debug_ranges
00000000 l    d  .debug_frame	00000000 .debug_frame
00000000 l    d  .debug_line	00000000 .debug_line
00000000 g     F .text._ZN3app10app_sensor21start_sensor_listener17h09088494e967a630E	00000220 .hidden _ZN3app10app_sensor21start_sensor_listener17h09088494e967a630E
00000000         *UND*	00000000 .hidden _ZN3app11app_network21aggregate_sensor_data17hab11c32b63abf594E
00000000         *UND*	00000000 _ZN42_$LT$$RF$T$u20$as$u20$core..fmt..Debug$GT$3fmt17h2a30ce0f4e55b06fE
00000000         *UND*	00000000 _ZN42_$LT$$RF$T$u20$as$u20$core..fmt..Debug$GT$3fmt17h693fa46abaaed1e2E
00000000         *UND*	00000000 _ZN4core3fmt10ArgumentV13new17h1e15870702cd8f35E
00000000         *UND*	00000000 _ZN4core3fmt10ArgumentV13new17h77e41a362c8b7a28E
00000000         *UND*	00000000 _ZN4core3fmt10ArgumentV13new17ha911407dafd615aaE
00000000         *UND*	00000000 .hidden _ZN4core3fmt9Arguments6new_v117hc2d8281224709357E
00000000         *UND*	00000000 _ZN4core3ptr31_$LT$impl$u20$$BP$mut$u20$T$GT$7is_null17h80b6c30939e62171E
00000000         *UND*	00000000 _ZN4core3ptr31_$LT$impl$u20$$BP$mut$u20$T$GT$7is_null17hcb61da1d9a7f9d5bE
00000000         *UND*	00000000 _ZN4core3ptr8null_mut17h5efb0e9f0d035da2E
00000000         *UND*	00000000 _ZN4core3ptr8null_mut17h77c2d0fe6651650cE
00000000         *UND*	00000000 _ZN4core9panicking5panic17h53ca63c6ac6312f8E
00000000         *UND*	00000000 _ZN4core9panicking9panic_fmt17h6b4d8e87b0965449E
00000000         *UND*	00000000 _ZN50_$LT$T$u20$as$u20$core..convert..From$LT$T$GT$$GT$4from17h4bfa181a78946fa0E
00000000         *UND*	00000000 _ZN59_$LT$core..fmt..Arguments$u20$as$u20$core..fmt..Display$GT$3fmt17h3e269ca172b8335aE
00000000         *UND*	00000000 .hidden _ZN68_$LT$mynewt..result..MynewtError$u20$as$u20$core..cmp..PartialEq$GT$2eq17hd4e624fd593446c4E
00000000         *UND*	00000000 _ZN6mynewt2hw6sensor10as_untyped17h2092c0ad7af74b6bE
00000000         *UND*	00000000 _ZN6mynewt2hw6sensor17register_listener17h17ebbfb47266c768E
00000000         *UND*	00000000 _ZN6mynewt2hw6sensor8bindings16set_poll_rate_ms17h554be26f45a098a1E
00000000         *UND*	00000000 _ZN6mynewt2hw6sensor8bindings23mgr_find_next_bydevname17h1885e7d2ce4be516E
00000000         *UND*	00000000 _ZN6mynewt2hw6sensor8bindings4read17hacfeb3c2cc14e1d4E
00000000         *UND*	00000000 _ZN6mynewt3sys7console5print17h0f65bc3b0e739871E
00000000         *UND*	00000000 _ZN73_$LT$core..result..Result$LT$T$C$E$GT$$u20$as$u20$core..ops..try..Try$GT$10from_error17h6d3955e1a79eef94E
00000000         *UND*	00000000 _ZN73_$LT$core..result..Result$LT$T$C$E$GT$$u20$as$u20$core..ops..try..Try$GT$11into_result17h00bf1b57699326cfE
00000000         *UND*	00000000 _ZN73_$LT$core..result..Result$LT$T$C$E$GT$$u20$as$u20$core..ops..try..Try$GT$11into_result17h2548a31748257156E
00000000         *UND*	00000000 __aeabi_memcpy
00000000         *UND*	00000000 get_temp_raw_data
00000000         *UND*	00000000 power_standby_wakeup



Disassembly of section .text._ZN3app10app_sensor21start_sensor_listener17h09088494e967a630E:

00000000 <_ZN3app10app_sensor21start_sensor_listener17h09088494e967a630E>:
_ZN3app10app_sensor21start_sensor_listener17h09088494e967a630E():
/Users/Luppy/mynewt/stm32bluepill-mynewt-sensor/rust/app/src/app_sensor.rs:49
///  Type of sensor: Raw temperature sensor (integer sensor values 0 to 4095)
const TEMP_SENSOR_TYPE: sensor_type_t = sensor::SENSOR_TYPE_AMBIENT_TEMPERATURE_RAW;

///  Ask Mynewt to poll or read the temperature sensor and call `handle_sensor_data()`
///  Return `Ok()` if successful, else return `Err()` with `MynewtError` error code inside.
pub fn start_sensor_listener() -> MynewtResult<()>  {  //  Returns an error code upon error.
   0:	b5f0      	push	{r4, r5, r6, r7, lr}
   2:	b0c3      	sub	sp, #268	; 0x10c
/Users/Luppy/mynewt/stm32bluepill-mynewt-sensor/rust/app/src/app_sensor.rs:50
    console::print("Rust TMP poll\n");
   4:	f240 0000 	movw	r0, #0
   8:	f2c0 0000 	movt	r0, #0
   c:	210e      	movs	r1, #14
   e:	f7ff fffe 	bl	0 <_ZN6mynewt3sys7console5print17h0f65bc3b0e739871E>
  12:	e7ff      	b.n	2 <_ZN4core3ptr8null_mut17h77c2d0fe6651650cE+0x2>
/Users/Luppy/mynewt/stm32bluepill-mynewt-sensor/rust/app/src/app_sensor.rs:53

    //  Fetch the sensor by name, without locking the driver for exclusive access.
    let sensor = sensor::mgr_find_next_bydevname(&SENSOR_DEVICE, core::ptr::null_mut()) ? ;
  14:	f7ff fffe 	bl	0 <_ZN4core3ptr8null_mut17h77c2d0fe6651650cE>
  18:	9016      	str	r0, [sp, #88]	; 0x58
  1a:	e7ff      	b.n	1c <_ZN3app10app_sensor21start_sensor_listener17h09088494e967a630E+0x1c>
  1c:	f240 0100 	movw	r1, #0
  20:	f2c0 0100 	movt	r1, #0
  24:	a81b      	add	r0, sp, #108	; 0x6c
  26:	9a16      	ldr	r2, [sp, #88]	; 0x58
  28:	f7ff fffe 	bl	0 <_ZN6mynewt2hw6sensor8bindings23mgr_find_next_bydevname17h1885e7d2ce4be516E>
  2c:	e7ff      	b.n	2e <_ZN3app10app_sensor21start_sensor_listener17h09088494e967a630E+0x2e>
  2e:	a819      	add	r0, sp, #100	; 0x64
  30:	a91b      	add	r1, sp, #108	; 0x6c
  32:	f7ff fffe 	bl	0 <_ZN73_$LT$core..result..Result$LT$T$C$E$GT$$u20$as$u20$core..ops..try..Try$GT$11into_result17h2548a31748257156E>
  36:	e7ff      	b.n	38 <_ZN3app10app_sensor21start_sensor_listener17h09088494e967a630E+0x38>
  38:	9819      	ldr	r0, [sp, #100]	; 0x64
  3a:	2800      	cmp	r0, #0
  3c:	9015      	str	r0, [sp, #84]	; 0x54
  3e:	d016      	beq.n	6e <_ZN3app10app_sensor21start_sensor_listener17h09088494e967a630E+0x6e>
  40:	e7ff      	b.n	42 <_ZN3app10app_sensor21start_sensor_listener17h09088494e967a630E+0x42>
  42:	9815      	ldr	r0, [sp, #84]	; 0x54
  44:	2801      	cmp	r0, #1
  46:	d001      	beq.n	4c <_ZN3app10app_sensor21start_sensor_listener17h09088494e967a630E+0x4c>
  48:	e7ff      	b.n	4a <_ZN3app10app_sensor21start_sensor_listener17h09088494e967a630E+0x4a>
/Users/Luppy/mynewt/stm32bluepill-mynewt-sensor/rust/app/src/app_sensor.rs:82
            os::OS_TIMEOUT_NEVER
        ) ? ;
    }
    //  Return `Ok()` to indicate success.  This line should not end with a semicolon (;).
    Ok(())
}
  4a:	defe      	udf	#254	; 0xfe
/Users/Luppy/mynewt/stm32bluepill-mynewt-sensor/rust/app/src/app_sensor.rs:53
    let sensor = sensor::mgr_find_next_bydevname(&SENSOR_DEVICE, core::ptr::null_mut()) ? ;
  4c:	981a      	ldr	r0, [sp, #104]	; 0x68
  4e:	901d      	str	r0, [sp, #116]	; 0x74
  50:	981d      	ldr	r0, [sp, #116]	; 0x74
  52:	f7ff fffe 	bl	0 <_ZN50_$LT$T$u20$as$u20$core..convert..From$LT$T$GT$$GT$4from17h4bfa181a78946fa0E>
  56:	9014      	str	r0, [sp, #80]	; 0x50
  58:	e7ff      	b.n	5a <_ZN3app10app_sensor21start_sensor_listener17h09088494e967a630E+0x5a>
  5a:	9814      	ldr	r0, [sp, #80]	; 0x50
  5c:	f7ff fffe 	bl	0 <_ZN73_$LT$core..result..Result$LT$T$C$E$GT$$u20$as$u20$core..ops..try..Try$GT$10from_error17h6d3955e1a79eef94E>
  60:	9017      	str	r0, [sp, #92]	; 0x5c
  62:	e7ff      	b.n	64 <_ZN3app10app_sensor21start_sensor_listener17h09088494e967a630E+0x64>
  64:	e002      	b.n	6c <_ZN3app10app_sensor21start_sensor_listener17h09088494e967a630E+0x6c>
/Users/Luppy/mynewt/stm32bluepill-mynewt-sensor/rust/app/src/app_sensor.rs:82
}
  66:	9817      	ldr	r0, [sp, #92]	; 0x5c
  68:	b043      	add	sp, #268	; 0x10c
  6a:	bdf0      	pop	{r4, r5, r6, r7, pc}
/Users/Luppy/mynewt/stm32bluepill-mynewt-sensor/rust/app/src/app_sensor.rs:53
    let sensor = sensor::mgr_find_next_bydevname(&SENSOR_DEVICE, core::ptr::null_mut()) ? ;
  6c:	e7fb      	b.n	66 <_ZN3app10app_sensor21start_sensor_listener17h09088494e967a630E+0x66>
  6e:	981a      	ldr	r0, [sp, #104]	; 0x68
  70:	901e      	str	r0, [sp, #120]	; 0x78
  72:	981e      	ldr	r0, [sp, #120]	; 0x78
  74:	9018      	str	r0, [sp, #96]	; 0x60
/Users/Luppy/mynewt/stm32bluepill-mynewt-sensor/rust/app/src/app_sensor.rs:54
    assert!(!sensor.is_null(), "no sensor");
  76:	9818      	ldr	r0, [sp, #96]	; 0x60
  78:	f7ff fffe 	bl	0 <_ZN4core3ptr31_$LT$impl$u20$$BP$mut$u20$T$GT$7is_null17h80b6c30939e62171E>
  7c:	9013      	str	r0, [sp, #76]	; 0x4c
  7e:	e7ff      	b.n	80 <_ZN3app10app_sensor21start_sensor_listener17h09088494e967a630E+0x80>
  80:	9813      	ldr	r0, [sp, #76]	; 0x4c
  82:	07c1      	lsls	r1, r0, #31
  84:	2900      	cmp	r1, #0
  86:	d007      	beq.n	98 <_ZN3app10app_sensor21start_sensor_listener17h09088494e967a630E+0x98>
  88:	e7ff      	b.n	8a <_ZN3app10app_sensor21start_sensor_listener17h09088494e967a630E+0x8a>
  8a:	f240 0000 	movw	r0, #0
  8e:	f2c0 0000 	movt	r0, #0
  92:	f7ff fffe 	bl	0 <_ZN4core9panicking5panic17h53ca63c6ac6312f8E>
  96:	defe      	udf	#254	; 0xfe
/Users/Luppy/mynewt/stm32bluepill-mynewt-sensor/rust/app/src/app_sensor.rs:57
    if !standby_wakeup() {
  98:	f7ff fffe 	bl	0 <_ZN3app10app_sensor21start_sensor_listener17h09088494e967a630E>
  9c:	9012      	str	r0, [sp, #72]	; 0x48
  9e:	e7ff      	b.n	a0 <_ZN3app10app_sensor21start_sensor_listener17h09088494e967a630E+0xa0>
  a0:	9812      	ldr	r0, [sp, #72]	; 0x48
  a2:	07c1      	lsls	r1, r0, #31
  a4:	2900      	cmp	r1, #0
  a6:	d177      	bne.n	198 <_ZN3app10app_sensor21start_sensor_listener17h09088494e967a630E+0x198>
  a8:	e7ff      	b.n	aa <_ZN3app10app_sensor21start_sensor_listener17h09088494e967a630E+0xaa>
/Users/Luppy/mynewt/stm32bluepill-mynewt-sensor/rust/app/src/app_sensor.rs:59
        sensor::set_poll_rate_ms(&SENSOR_DEVICE, SENSOR_POLL_TIME) ? ;
  aa:	f240 0000 	movw	r0, #0
  ae:	f2c0 0000 	movt	r0, #0
  b2:	f242 7110 	movw	r1, #10000	; 0x2710
  b6:	f7ff fffe 	bl	0 <_ZN6mynewt2hw6sensor8bindings16set_poll_rate_ms17h554be26f45a098a1E>
  ba:	9011      	str	r0, [sp, #68]	; 0x44
  bc:	e7ff      	b.n	be <_ZN3app10app_sensor21start_sensor_listener17h09088494e967a630E+0xbe>
  be:	9811      	ldr	r0, [sp, #68]	; 0x44
  c0:	f7ff fffe 	bl	0 <_ZN73_$LT$core..result..Result$LT$T$C$E$GT$$u20$as$u20$core..ops..try..Try$GT$11into_result17h00bf1b57699326cfE>
  c4:	901f      	str	r0, [sp, #124]	; 0x7c
  c6:	e7ff      	b.n	c8 <_ZN3app10app_sensor21start_sensor_listener17h09088494e967a630E+0xc8>
  c8:	981f      	ldr	r0, [sp, #124]	; 0x7c
  ca:	1e41      	subs	r1, r0, #1
  cc:	bf18      	it	ne
  ce:	2101      	movne	r1, #1
  d0:	2801      	cmp	r0, #1
  d2:	9110      	str	r1, [sp, #64]	; 0x40
  d4:	d012      	beq.n	fc <_ZN3app10app_sensor21start_sensor_listener17h09088494e967a630E+0xfc>
  d6:	e7ff      	b.n	d8 <_ZN3app10app_sensor21start_sensor_listener17h09088494e967a630E+0xd8>
  d8:	9810      	ldr	r0, [sp, #64]	; 0x40
  da:	2801      	cmp	r0, #1
  dc:	d1b5      	bne.n	4a <_ZN3app10app_sensor21start_sensor_listener17h09088494e967a630E+0x4a>
  de:	e7ff      	b.n	e0 <_ZN3app10app_sensor21start_sensor_listener17h09088494e967a630E+0xe0>
  e0:	981f      	ldr	r0, [sp, #124]	; 0x7c
  e2:	9020      	str	r0, [sp, #128]	; 0x80
  e4:	9820      	ldr	r0, [sp, #128]	; 0x80
  e6:	f7ff fffe 	bl	0 <_ZN50_$LT$T$u20$as$u20$core..convert..From$LT$T$GT$$GT$4from17h4bfa181a78946fa0E>
  ea:	900f      	str	r0, [sp, #60]	; 0x3c
  ec:	e7ff      	b.n	ee <_ZN3app10app_sensor21start_sensor_listener17h09088494e967a630E+0xee>
  ee:	980f      	ldr	r0, [sp, #60]	; 0x3c
  f0:	f7ff fffe 	bl	0 <_ZN73_$LT$core..result..Result$LT$T$C$E$GT$$u20$as$u20$core..ops..try..Try$GT$10from_error17h6d3955e1a79eef94E>
  f4:	9017      	str	r0, [sp, #92]	; 0x5c
  f6:	e7ff      	b.n	f8 <_ZN3app10app_sensor21start_sensor_listener17h09088494e967a630E+0xf8>
  f8:	e7ff      	b.n	fa <_ZN3app10app_sensor21start_sensor_listener17h09088494e967a630E+0xfa>
  fa:	e7b7      	b.n	6c <_ZN3app10app_sensor21start_sensor_listener17h09088494e967a630E+0x6c>
/Users/Luppy/mynewt/stm32bluepill-mynewt-sensor/rust/app/src/app_sensor.rs:64
            sl_func       : sensor::as_untyped(handle_sensor_data),  //  Listener function
  fc:	f240 0000 	movw	r0, #0
 100:	f2c0 0000 	movt	r0, #0
 104:	f7ff fffe 	bl	0 <_ZN6mynewt2hw6sensor10as_untyped17h2092c0ad7af74b6bE>
 108:	900e      	str	r0, [sp, #56]	; 0x38
 10a:	e7ff      	b.n	10c <_ZN3app10app_sensor21start_sensor_listener17h09088494e967a630E+0x10c>
 10c:	2000      	movs	r0, #0
/Users/Luppy/mynewt/stm32bluepill-mynewt-sensor/rust/app/src/app_sensor.rs:65
            ..fill_zero!(sensor_listener)           //  Set other fields to 0
 10e:	9034      	str	r0, [sp, #208]	; 0xd0
 110:	9033      	str	r0, [sp, #204]	; 0xcc
 112:	9032      	str	r0, [sp, #200]	; 0xc8
 114:	9031      	str	r0, [sp, #196]	; 0xc4
 116:	9030      	str	r0, [sp, #192]	; 0xc0
 118:	902f      	str	r0, [sp, #188]	; 0xbc
 11a:	a828      	add	r0, sp, #160	; 0xa0
 11c:	a92f      	add	r1, sp, #188	; 0xbc
 11e:	2218      	movs	r2, #24
 120:	f7ff fffe 	bl	0 <__aeabi_memcpy>
 124:	900d      	str	r0, [sp, #52]	; 0x34
 126:	e7ff      	b.n	128 <_ZN3app10app_sensor21start_sensor_listener17h09088494e967a630E+0x128>
 128:	2000      	movs	r0, #0
/Users/Luppy/mynewt/stm32bluepill-mynewt-sensor/rust/app/src/app_sensor.rs:62
        let listener = sensor_listener {
 12a:	9023      	str	r0, [sp, #140]	; 0x8c
 12c:	f04f 6080 	mov.w	r0, #67108864	; 0x4000000
 130:	9022      	str	r0, [sp, #136]	; 0x88
 132:	980e      	ldr	r0, [sp, #56]	; 0x38
 134:	9024      	str	r0, [sp, #144]	; 0x90
 136:	992b      	ldr	r1, [sp, #172]	; 0xac
 138:	9125      	str	r1, [sp, #148]	; 0x94
 13a:	992c      	ldr	r1, [sp, #176]	; 0xb0
 13c:	9126      	str	r1, [sp, #152]	; 0x98
/Users/Luppy/mynewt/stm32bluepill-mynewt-sensor/rust/app/src/app_sensor.rs:69
        sensor::register_listener(sensor, listener) ? ;  //  `?` means in case of error, return error now.
 13e:	9818      	ldr	r0, [sp, #96]	; 0x60
 140:	a922      	add	r1, sp, #136	; 0x88
 142:	aa36      	add	r2, sp, #216	; 0xd8
 144:	4613      	mov	r3, r2
 146:	e891 50f0 	ldmia.w	r1, {r4, r5, r6, r7, ip, lr}
 14a:	e883 50f0 	stmia.w	r3, {r4, r5, r6, r7, ip, lr}
 14e:	4611      	mov	r1, r2
 150:	f7ff fffe 	bl	0 <_ZN6mynewt2hw6sensor17register_listener17h17ebbfb47266c768E>
 154:	900c      	str	r0, [sp, #48]	; 0x30
 156:	e7ff      	b.n	158 <_ZN3app10app_sensor21start_sensor_listener17h09088494e967a630E+0x158>
 158:	980c      	ldr	r0, [sp, #48]	; 0x30
 15a:	f7ff fffe 	bl	0 <_ZN73_$LT$core..result..Result$LT$T$C$E$GT$$u20$as$u20$core..ops..try..Try$GT$11into_result17h00bf1b57699326cfE>
 15e:	9035      	str	r0, [sp, #212]	; 0xd4
 160:	e7ff      	b.n	162 <_ZN3app10app_sensor21start_sensor_listener17h09088494e967a630E+0x162>
 162:	9835      	ldr	r0, [sp, #212]	; 0xd4
 164:	1e41      	subs	r1, r0, #1
 166:	bf18      	it	ne
 168:	2101      	movne	r1, #1
 16a:	2801      	cmp	r0, #1
 16c:	910b      	str	r1, [sp, #44]	; 0x2c
 16e:	d012      	beq.n	196 <_ZN3app10app_sensor21start_sensor_listener17h09088494e967a630E+0x196>
 170:	e7ff      	b.n	172 <_ZN3app10app_sensor21start_sensor_listener17h09088494e967a630E+0x172>
 172:	980b      	ldr	r0, [sp, #44]	; 0x2c
 174:	2801      	cmp	r0, #1
 176:	f47f af68 	bne.w	4a <_ZN3app10app_sensor21start_sensor_listener17h09088494e967a630E+0x4a>
 17a:	e7ff      	b.n	17c <_ZN3app10app_sensor21start_sensor_listener17h09088494e967a630E+0x17c>
 17c:	9835      	ldr	r0, [sp, #212]	; 0xd4
 17e:	903d      	str	r0, [sp, #244]	; 0xf4
 180:	983d      	ldr	r0, [sp, #244]	; 0xf4
 182:	f7ff fffe 	bl	0 <_ZN50_$LT$T$u20$as$u20$core..convert..From$LT$T$GT$$GT$4from17h4bfa181a78946fa0E>
 186:	900a      	str	r0, [sp, #40]	; 0x28
 188:	e7ff      	b.n	18a <_ZN3app10app_sensor21start_sensor_listener17h09088494e967a630E+0x18a>
 18a:	980a      	ldr	r0, [sp, #40]	; 0x28
 18c:	f7ff fffe 	bl	0 <_ZN73_$LT$core..result..Result$LT$T$C$E$GT$$u20$as$u20$core..ops..try..Try$GT$10from_error17h6d3955e1a79eef94E>
 190:	9017      	str	r0, [sp, #92]	; 0x5c
 192:	e7ff      	b.n	194 <_ZN3app10app_sensor21start_sensor_listener17h09088494e967a630E+0x194>
 194:	e7b1      	b.n	fa <_ZN3app10app_sensor21start_sensor_listener17h09088494e967a630E+0xfa>
/Users/Luppy/mynewt/stm32bluepill-mynewt-sensor/rust/app/src/app_sensor.rs:57
    if !standby_wakeup() {
 196:	e03e      	b.n	216 <_ZN3app10app_sensor21start_sensor_listener17h09088494e967a630E+0x216>
/Users/Luppy/mynewt/stm32bluepill-mynewt-sensor/rust/app/src/app_sensor.rs:73
            sensor, 
 198:	9818      	ldr	r0, [sp, #96]	; 0x60
/Users/Luppy/mynewt/stm32bluepill-mynewt-sensor/rust/app/src/app_sensor.rs:75
            sensor::as_untyped(handle_sensor_data),  //  Handler function
 19a:	f240 0100 	movw	r1, #0
 19e:	f2c0 0100 	movt	r1, #0
 1a2:	9009      	str	r0, [sp, #36]	; 0x24
 1a4:	4608      	mov	r0, r1
 1a6:	f7ff fffe 	bl	0 <_ZN6mynewt2hw6sensor10as_untyped17h2092c0ad7af74b6bE>
 1aa:	9008      	str	r0, [sp, #32]
 1ac:	e7ff      	b.n	1ae <_ZN3app10app_sensor21start_sensor_listener17h09088494e967a630E+0x1ae>
/Users/Luppy/mynewt/stm32bluepill-mynewt-sensor/rust/app/src/app_sensor.rs:76
            core::ptr::null_mut(), 
 1ae:	f7ff fffe 	bl	0 <_ZN4core3ptr8null_mut17h5efb0e9f0d035da2E>
 1b2:	9007      	str	r0, [sp, #28]
 1b4:	e7ff      	b.n	1b6 <_ZN3app10app_sensor21start_sensor_listener17h09088494e967a630E+0x1b6>
/Users/Luppy/mynewt/stm32bluepill-mynewt-sensor/rust/app/src/app_sensor.rs:72
        sensor::read(
 1b6:	4668      	mov	r0, sp
 1b8:	f04f 31ff 	mov.w	r1, #4294967295	; 0xffffffff
 1bc:	6081      	str	r1, [r0, #8]
 1be:	9907      	ldr	r1, [sp, #28]
 1c0:	6041      	str	r1, [r0, #4]
 1c2:	9a08      	ldr	r2, [sp, #32]
 1c4:	6002      	str	r2, [r0, #0]
 1c6:	f04f 6280 	mov.w	r2, #67108864	; 0x4000000
 1ca:	2300      	movs	r3, #0
 1cc:	9809      	ldr	r0, [sp, #36]	; 0x24
 1ce:	f7ff fffe 	bl	0 <_ZN6mynewt2hw6sensor8bindings4read17hacfeb3c2cc14e1d4E>
 1d2:	9006      	str	r0, [sp, #24]
 1d4:	e7ff      	b.n	1d6 <_ZN3app10app_sensor21start_sensor_listener17h09088494e967a630E+0x1d6>
 1d6:	9806      	ldr	r0, [sp, #24]
 1d8:	f7ff fffe 	bl	0 <_ZN73_$LT$core..result..Result$LT$T$C$E$GT$$u20$as$u20$core..ops..try..Try$GT$11into_result17h00bf1b57699326cfE>
 1dc:	903f      	str	r0, [sp, #252]	; 0xfc
 1de:	e7ff      	b.n	1e0 <_ZN3app10app_sensor21start_sensor_listener17h09088494e967a630E+0x1e0>
/Users/Luppy/mynewt/stm32bluepill-mynewt-sensor/rust/app/src/app_sensor.rs:78
        ) ? ;
 1e0:	983f      	ldr	r0, [sp, #252]	; 0xfc
 1e2:	1e41      	subs	r1, r0, #1
 1e4:	bf18      	it	ne
 1e6:	2101      	movne	r1, #1
 1e8:	2801      	cmp	r0, #1
 1ea:	9105      	str	r1, [sp, #20]
 1ec:	d012      	beq.n	214 <_ZN3app10app_sensor21start_sensor_listener17h09088494e967a630E+0x214>
 1ee:	e7ff      	b.n	1f0 <_ZN3app10app_sensor21start_sensor_listener17h09088494e967a630E+0x1f0>
 1f0:	9805      	ldr	r0, [sp, #20]
 1f2:	2801      	cmp	r0, #1
 1f4:	f47f af29 	bne.w	4a <_ZN3app10app_sensor21start_sensor_listener17h09088494e967a630E+0x4a>
 1f8:	e7ff      	b.n	1fa <_ZN3app10app_sensor21start_sensor_listener17h09088494e967a630E+0x1fa>
 1fa:	983f      	ldr	r0, [sp, #252]	; 0xfc
 1fc:	9040      	str	r0, [sp, #256]	; 0x100
 1fe:	9840      	ldr	r0, [sp, #256]	; 0x100
 200:	f7ff fffe 	bl	0 <_ZN50_$LT$T$u20$as$u20$core..convert..From$LT$T$GT$$GT$4from17h4bfa181a78946fa0E>
 204:	9004      	str	r0, [sp, #16]
 206:	e7ff      	b.n	208 <_ZN3app10app_sensor21start_sensor_listener17h09088494e967a630E+0x208>
 208:	9804      	ldr	r0, [sp, #16]
 20a:	f7ff fffe 	bl	0 <_ZN73_$LT$core..result..Result$LT$T$C$E$GT$$u20$as$u20$core..ops..try..Try$GT$10from_error17h6d3955e1a79eef94E>
 20e:	9017      	str	r0, [sp, #92]	; 0x5c
 210:	e7ff      	b.n	212 <_ZN3app10app_sensor21start_sensor_listener17h09088494e967a630E+0x212>
 212:	e772      	b.n	fa <_ZN3app10app_sensor21start_sensor_listener17h09088494e967a630E+0xfa>
/Users/Luppy/mynewt/stm32bluepill-mynewt-sensor/rust/app/src/app_sensor.rs:57
    if !standby_wakeup() {
 214:	e7ff      	b.n	216 <_ZN3app10app_sensor21start_sensor_listener17h09088494e967a630E+0x216>
 216:	2000      	movs	r0, #0
/Users/Luppy/mynewt/stm32bluepill-mynewt-sensor/rust/app/src/app_sensor.rs:81
    Ok(())
 218:	9017      	str	r0, [sp, #92]	; 0x5c
 21a:	2001      	movs	r0, #1
 21c:	9017      	str	r0, [sp, #92]	; 0x5c
/Users/Luppy/mynewt/stm32bluepill-mynewt-sensor/rust/app/src/app_sensor.rs:82
}
 21e:	e722      	b.n	66 <_ZN3app10app_sensor21start_sensor_listener17h09088494e967a630E+0x66>

Disassembly of section .text._ZN3app10app_sensor18handle_sensor_data17h64015281be9a8d30E:

00000000 <_ZN3app10app_sensor18handle_sensor_data17h64015281be9a8d30E>:
_ZN3app10app_sensor18handle_sensor_data17h64015281be9a8d30E():
/Users/Luppy/mynewt/stm32bluepill-mynewt-sensor/rust/app/src/app_sensor.rs:86

///  This listener function is called every 10 seconds by Mynewt to handle the polled sensor data.
///  Return 0 if we have handled the sensor data successfully.
extern fn handle_sensor_data(sensor: sensor_ptr, _arg: sensor_arg, 
   0:	b5b0      	push	{r4, r5, r7, lr}
   2:	b0a2      	sub	sp, #136	; 0x88
   4:	9b27      	ldr	r3, [sp, #156]	; 0x9c
   6:	f8dd c098 	ldr.w	ip, [sp, #152]	; 0x98
   a:	4696      	mov	lr, r2
   c:	460c      	mov	r4, r1
   e:	4605      	mov	r5, r0
  10:	9007      	str	r0, [sp, #28]
  12:	9108      	str	r1, [sp, #32]
  14:	9209      	str	r2, [sp, #36]	; 0x24
  16:	930b      	str	r3, [sp, #44]	; 0x2c
  18:	f8cd c028 	str.w	ip, [sp, #40]	; 0x28
/Users/Luppy/mynewt/stm32bluepill-mynewt-sensor/rust/app/src/app_sensor.rs:88
    sensor_data: sensor_data_ptr, sensor_type: sensor_type_t) -> MynewtError {
    console::print("Rust handle_sensor_data\n");
  1c:	f240 0000 	movw	r0, #0
  20:	f2c0 0000 	movt	r0, #0
  24:	2118      	movs	r1, #24
  26:	f8cd e018 	str.w	lr, [sp, #24]
  2a:	9405      	str	r4, [sp, #20]
  2c:	9504      	str	r5, [sp, #16]
  2e:	f7ff fffe 	bl	0 <_ZN6mynewt3sys7console5print17h0f65bc3b0e739871E>
  32:	e7ff      	b.n	34 <_ZN3app10app_sensor18handle_sensor_data17h64015281be9a8d30E+0x34>
/Users/Luppy/mynewt/stm32bluepill-mynewt-sensor/rust/app/src/app_sensor.rs:91

    //  Check that the temperature data is valid.
    if sensor_data.is_null() { return MynewtError::SYS_EINVAL; }  //  Exit if data is missing
  34:	9809      	ldr	r0, [sp, #36]	; 0x24
  36:	f7ff fffe 	bl	0 <_ZN4core3ptr31_$LT$impl$u20$$BP$mut$u20$T$GT$7is_null17hcb61da1d9a7f9d5bE>
  3a:	9003      	str	r0, [sp, #12]
  3c:	e7ff      	b.n	3e <_ZN3app10app_sensor18handle_sensor_data17h64015281be9a8d30E+0x3e>
  3e:	9803      	ldr	r0, [sp, #12]
  40:	07c1      	lsls	r1, r0, #31
  42:	2900      	cmp	r1, #0
  44:	d007      	beq.n	56 <_ZN3app10app_sensor18handle_sensor_data17h64015281be9a8d30E+0x56>
  46:	e7ff      	b.n	48 <_ZN3app10app_sensor18handle_sensor_data17h64015281be9a8d30E+0x48>
  48:	f06f 0001 	mvn.w	r0, #1
  4c:	900d      	str	r0, [sp, #52]	; 0x34
  4e:	e7ff      	b.n	50 <_ZN3app10app_sensor18handle_sensor_data17h64015281be9a8d30E+0x50>
/Users/Luppy/mynewt/stm32bluepill-mynewt-sensor/rust/app/src/app_sensor.rs:114
            return MynewtError::SYS_EOK; 
        }            
    }
    //  Return 0 to Mynewt to indicate no error.  Should not end with a semicolon (;).
    MynewtError::SYS_EOK
}
  50:	980d      	ldr	r0, [sp, #52]	; 0x34
  52:	b022      	add	sp, #136	; 0x88
  54:	bdb0      	pop	{r4, r5, r7, pc}
/Users/Luppy/mynewt/stm32bluepill-mynewt-sensor/rust/app/src/app_sensor.rs:92
    assert!(!sensor.is_null(), "null sensor");
  56:	9807      	ldr	r0, [sp, #28]
  58:	f7ff fffe 	bl	0 <_ZN4core3ptr31_$LT$impl$u20$$BP$mut$u20$T$GT$7is_null17h80b6c30939e62171E>
  5c:	9002      	str	r0, [sp, #8]
  5e:	e7ff      	b.n	60 <_ZN3app10app_sensor18handle_sensor_data17h64015281be9a8d30E+0x60>
  60:	9802      	ldr	r0, [sp, #8]
  62:	07c1      	lsls	r1, r0, #31
  64:	2900      	cmp	r1, #0
  66:	d007      	beq.n	78 <_ZN3app10app_sensor18handle_sensor_data17h64015281be9a8d30E+0x78>
  68:	e7ff      	b.n	6a <_ZN3app10app_sensor18handle_sensor_data17h64015281be9a8d30E+0x6a>
  6a:	f240 0000 	movw	r0, #0
  6e:	f2c0 0000 	movt	r0, #0
  72:	f7ff fffe 	bl	0 <_ZN4core9panicking5panic17h53ca63c6ac6312f8E>
  76:	defe      	udf	#254	; 0xfe
/Users/Luppy/mynewt/stm32bluepill-mynewt-sensor/rust/app/src/app_sensor.rs:95
    let sensor_value = convert_sensor_data(sensor_data, sensor_type);
  78:	9909      	ldr	r1, [sp, #36]	; 0x24
  7a:	9a0a      	ldr	r2, [sp, #40]	; 0x28
  7c:	9b0b      	ldr	r3, [sp, #44]	; 0x2c
  7e:	a80e      	add	r0, sp, #56	; 0x38
  80:	f7ff fffe 	bl	0 <_ZN3app10app_sensor18handle_sensor_data17h64015281be9a8d30E>
  84:	e7ff      	b.n	86 <_ZN3app10app_sensor18handle_sensor_data17h64015281be9a8d30E+0x86>
/Users/Luppy/mynewt/stm32bluepill-mynewt-sensor/rust/app/src/app_sensor.rs:96
    if let SensorValueType::None = sensor_value.value { assert!(false, "bad type"); }
  86:	980e      	ldr	r0, [sp, #56]	; 0x38
  88:	2800      	cmp	r0, #0
  8a:	d10c      	bne.n	a6 <_ZN3app10app_sensor18handle_sensor_data17h64015281be9a8d30E+0xa6>
  8c:	e7ff      	b.n	8e <_ZN3app10app_sensor18handle_sensor_data17h64015281be9a8d30E+0x8e>
  8e:	2000      	movs	r0, #0
  90:	2800      	cmp	r0, #0
  92:	d107      	bne.n	a4 <_ZN3app10app_sensor18handle_sensor_data17h64015281be9a8d30E+0xa4>
  94:	e7ff      	b.n	96 <_ZN3app10app_sensor18handle_sensor_data17h64015281be9a8d30E+0x96>
  96:	f240 0000 	movw	r0, #0
  9a:	f2c0 0000 	movt	r0, #0
  9e:	f7ff fffe 	bl	0 <_ZN4core9panicking5panic17h53ca63c6ac6312f8E>
  a2:	defe      	udf	#254	; 0xfe
  a4:	e7ff      	b.n	a6 <_ZN3app10app_sensor18handle_sensor_data17h64015281be9a8d30E+0xa6>
  a6:	a80e      	add	r0, sp, #56	; 0x38
/Users/Luppy/mynewt/stm32bluepill-mynewt-sensor/rust/app/src/app_sensor.rs:102
    let res = app_network::aggregate_sensor_data(&sensor_value);
  a8:	f7ff fffe 	bl	0 <_ZN3app11app_network21aggregate_sensor_data17hab11c32b63abf594E>
  ac:	9020      	str	r0, [sp, #128]	; 0x80
  ae:	e7ff      	b.n	b0 <_ZN3app10app_sensor18handle_sensor_data17h64015281be9a8d30E+0xb0>
/Users/Luppy/mynewt/stm32bluepill-mynewt-sensor/rust/app/src/app_sensor.rs:106
    if let Err(err) = res {  //  `if let` will assign `err` to the error code inside `res`
  b0:	9820      	ldr	r0, [sp, #128]	; 0x80
  b2:	2801      	cmp	r0, #1
  b4:	d01c      	beq.n	f0 <_ZN3app10app_sensor18handle_sensor_data17h64015281be9a8d30E+0xf0>
  b6:	e7ff      	b.n	b8 <_ZN3app10app_sensor18handle_sensor_data17h64015281be9a8d30E+0xb8>
  b8:	9820      	ldr	r0, [sp, #128]	; 0x80
  ba:	9021      	str	r0, [sp, #132]	; 0x84
/Users/Luppy/mynewt/stm32bluepill-mynewt-sensor/rust/app/src/app_sensor.rs:107
        if err == MynewtError::SYS_EAGAIN {
  bc:	f240 0100 	movw	r1, #0
  c0:	f2c0 0100 	movt	r1, #0
  c4:	a821      	add	r0, sp, #132	; 0x84
  c6:	f7ff fffe 	bl	0 <_ZN68_$LT$mynewt..result..MynewtError$u20$as$u20$core..cmp..PartialEq$GT$2eq17hd4e624fd593446c4E>
  ca:	9001      	str	r0, [sp, #4]
  cc:	e7ff      	b.n	ce <_ZN3app10app_sensor18handle_sensor_data17h64015281be9a8d30E+0xce>
  ce:	9801      	ldr	r0, [sp, #4]
  d0:	07c1      	lsls	r1, r0, #31
  d2:	2900      	cmp	r1, #0
  d4:	d00b      	beq.n	ee <_ZN3app10app_sensor18handle_sensor_data17h64015281be9a8d30E+0xee>
  d6:	e7ff      	b.n	d8 <_ZN3app10app_sensor18handle_sensor_data17h64015281be9a8d30E+0xd8>
/Users/Luppy/mynewt/stm32bluepill-mynewt-sensor/rust/app/src/app_sensor.rs:108
            console::print("TMP network not ready\n");
  d8:	f240 0000 	movw	r0, #0
  dc:	f2c0 0000 	movt	r0, #0
  e0:	2116      	movs	r1, #22
  e2:	f7ff fffe 	bl	0 <_ZN6mynewt3sys7console5print17h0f65bc3b0e739871E>
  e6:	e7ff      	b.n	e8 <_ZN3app10app_sensor18handle_sensor_data17h64015281be9a8d30E+0xe8>
  e8:	2000      	movs	r0, #0
/Users/Luppy/mynewt/stm32bluepill-mynewt-sensor/rust/app/src/app_sensor.rs:109
            return MynewtError::SYS_EOK; 
  ea:	900d      	str	r0, [sp, #52]	; 0x34
  ec:	e7b0      	b.n	50 <_ZN3app10app_sensor18handle_sensor_data17h64015281be9a8d30E+0x50>
/Users/Luppy/mynewt/stm32bluepill-mynewt-sensor/rust/app/src/app_sensor.rs:106
    if let Err(err) = res {  //  `if let` will assign `err` to the error code inside `res`
  ee:	e7ff      	b.n	f0 <_ZN3app10app_sensor18handle_sensor_data17h64015281be9a8d30E+0xf0>
  f0:	2000      	movs	r0, #0
/Users/Luppy/mynewt/stm32bluepill-mynewt-sensor/rust/app/src/app_sensor.rs:113
    MynewtError::SYS_EOK
  f2:	900d      	str	r0, [sp, #52]	; 0x34
/Users/Luppy/mynewt/stm32bluepill-mynewt-sensor/rust/app/src/app_sensor.rs:114
}
  f4:	e7ac      	b.n	50 <_ZN3app10app_sensor18handle_sensor_data17h64015281be9a8d30E+0x50>

Disassembly of section .text._ZN3app10app_sensor19convert_sensor_data17hb5e1189cbb2e1f3fE:

00000000 <_ZN3app10app_sensor19convert_sensor_data17hb5e1189cbb2e1f3fE>:
_ZN3app10app_sensor19convert_sensor_data17hb5e1189cbb2e1f3fE():
/Users/Luppy/mynewt/stm32bluepill-mynewt-sensor/rust/app/src/app_sensor.rs:119

///  Convert the raw temperature value received from Mynewt into a `SensorValue` for transmission, which includes the sensor data key `t`. 
///  `sensor_type` indicates the type of data in `sensor_data`.
#[allow(non_snake_case, unused_variables)]
fn convert_sensor_data(sensor_data: sensor_data_ptr, sensor_type: sensor_type_t) -> SensorValue {
   0:	b5b0      	push	{r4, r5, r7, lr}
   2:	b0e8      	sub	sp, #416	; 0x1a0
   4:	469c      	mov	ip, r3
   6:	4696      	mov	lr, r2
   8:	460c      	mov	r4, r1
   a:	9111      	str	r1, [sp, #68]	; 0x44
   c:	9313      	str	r3, [sp, #76]	; 0x4c
   e:	9212      	str	r2, [sp, #72]	; 0x48
/Users/Luppy/mynewt/stm32bluepill-mynewt-sensor/rust/app/src/app_sensor.rs:120
    console::print("TMP listener got rawtmp\n");
  10:	f240 0100 	movw	r1, #0
  14:	f2c0 0100 	movt	r1, #0
  18:	2218      	movs	r2, #24
  1a:	9010      	str	r0, [sp, #64]	; 0x40
  1c:	4608      	mov	r0, r1
  1e:	4611      	mov	r1, r2
  20:	f8cd c03c 	str.w	ip, [sp, #60]	; 0x3c
  24:	f8cd e038 	str.w	lr, [sp, #56]	; 0x38
  28:	940d      	str	r4, [sp, #52]	; 0x34
  2a:	f7ff fffe 	bl	0 <_ZN6mynewt3sys7console5print17h0f65bc3b0e739871E>
  2e:	e7ff      	b.n	30 <_ZN3app10app_sensor19convert_sensor_data17hb5e1189cbb2e1f3fE+0x30>
  30:	2000      	movs	r0, #0
/Users/Luppy/mynewt/stm32bluepill-mynewt-sensor/rust/app/src/app_sensor.rs:124
    //  Construct and return a new `SensorValue` (without semicolon)
    SensorValue {
        key: &TEMP_SENSOR_KEY,       //  Sensor data key is `t`
        geo: SensorValueType::None,  //  No location
  32:	9014      	str	r0, [sp, #80]	; 0x50
/Users/Luppy/mynewt/stm32bluepill-mynewt-sensor/rust/app/src/app_sensor.rs:126
        value: match sensor_type {
            SENSOR_TYPE_AMBIENT_TEMPERATURE_RAW => {  //  If this is raw temperature...
  34:	9912      	ldr	r1, [sp, #72]	; 0x48
  36:	9a13      	ldr	r2, [sp, #76]	; 0x4c
  38:	9225      	str	r2, [sp, #148]	; 0x94
  3a:	9124      	str	r1, [sp, #144]	; 0x90
/Users/Luppy/mynewt/stm32bluepill-mynewt-sensor/rust/app/src/app_sensor.rs:128
                //  Interpret the sensor data as a `sensor_temp_raw_data` struct that contains raw temp.
                let mut rawtempdata = fill_zero!(sensor_temp_raw_data);
  3c:	f88d 00a8 	strb.w	r0, [sp, #168]	; 0xa8
  40:	9029      	str	r0, [sp, #164]	; 0xa4
  42:	f89d 00a8 	ldrb.w	r0, [sp, #168]	; 0xa8
  46:	f88d 00a0 	strb.w	r0, [sp, #160]	; 0xa0
  4a:	9829      	ldr	r0, [sp, #164]	; 0xa4
  4c:	9027      	str	r0, [sp, #156]	; 0x9c
  4e:	e7ff      	b.n	50 <_ZN3app10app_sensor19convert_sensor_data17hb5e1189cbb2e1f3fE+0x50>
/Users/Luppy/mynewt/stm32bluepill-mynewt-sensor/rust/app/src/app_sensor.rs:129
                let rc = unsafe { sensor::get_temp_raw_data(sensor_data, &mut rawtempdata) };
  50:	9811      	ldr	r0, [sp, #68]	; 0x44
  52:	a927      	add	r1, sp, #156	; 0x9c
  54:	f7ff fffe 	bl	0 <get_temp_raw_data>
  58:	902b      	str	r0, [sp, #172]	; 0xac
  5a:	e7ff      	b.n	5c <_ZN3app10app_sensor19convert_sensor_data17hb5e1189cbb2e1f3fE+0x5c>
  5c:	a82b      	add	r0, sp, #172	; 0xac
/Users/Luppy/mynewt/stm32bluepill-mynewt-sensor/rust/app/src/app_sensor.rs:130
                assert_eq!(rc, 0, "rawtmp fail");
  5e:	902c      	str	r0, [sp, #176]	; 0xb0
  60:	f240 0000 	movw	r0, #0
  64:	f2c0 0000 	movt	r0, #0
  68:	902d      	str	r0, [sp, #180]	; 0xb4
  6a:	982c      	ldr	r0, [sp, #176]	; 0xb0
  6c:	902e      	str	r0, [sp, #184]	; 0xb8
  6e:	982d      	ldr	r0, [sp, #180]	; 0xb4
  70:	902f      	str	r0, [sp, #188]	; 0xbc
  72:	982e      	ldr	r0, [sp, #184]	; 0xb8
  74:	6800      	ldr	r0, [r0, #0]
  76:	992f      	ldr	r1, [sp, #188]	; 0xbc
  78:	6809      	ldr	r1, [r1, #0]
  7a:	4288      	cmp	r0, r1
  7c:	d014      	beq.n	a8 <_ZN3app10app_sensor19convert_sensor_data17hb5e1189cbb2e1f3fE+0xa8>
  7e:	e7ff      	b.n	80 <_ZN3app10app_sensor19convert_sensor_data17hb5e1189cbb2e1f3fE+0x80>
  80:	982e      	ldr	r0, [sp, #184]	; 0xb8
  82:	903f      	str	r0, [sp, #252]	; 0xfc
  84:	982f      	ldr	r0, [sp, #188]	; 0xbc
  86:	9040      	str	r0, [sp, #256]	; 0x100
  88:	4668      	mov	r0, sp
  8a:	2100      	movs	r1, #0
  8c:	6001      	str	r1, [r0, #0]
  8e:	f240 0100 	movw	r1, #0
  92:	f2c0 0100 	movt	r1, #0
  96:	f240 0300 	movw	r3, #0
  9a:	f2c0 0300 	movt	r3, #0
  9e:	a841      	add	r0, sp, #260	; 0x104
  a0:	2201      	movs	r2, #1
  a2:	f7ff fffe 	bl	0 <_ZN4core3fmt9Arguments6new_v117hc2d8281224709357E>
  a6:	e012      	b.n	ce <_ZN3app10app_sensor19convert_sensor_data17hb5e1189cbb2e1f3fE+0xce>
  a8:	a827      	add	r0, sp, #156	; 0x9c
/Users/Luppy/mynewt/stm32bluepill-mynewt-sensor/rust/app/src/app_sensor.rs:132
                //  Check that the raw temperature data is valid.
                assert_ne!(rawtempdata.strd_temp_raw_is_valid, 0, "bad rawtmp");                
  aa:	3004      	adds	r0, #4
  ac:	904a      	str	r0, [sp, #296]	; 0x128
  ae:	f240 0000 	movw	r0, #0
  b2:	f2c0 0000 	movt	r0, #0
  b6:	904b      	str	r0, [sp, #300]	; 0x12c
  b8:	984a      	ldr	r0, [sp, #296]	; 0x128
  ba:	904c      	str	r0, [sp, #304]	; 0x130
  bc:	984b      	ldr	r0, [sp, #300]	; 0x12c
  be:	904d      	str	r0, [sp, #308]	; 0x134
  c0:	984c      	ldr	r0, [sp, #304]	; 0x130
  c2:	7800      	ldrb	r0, [r0, #0]
  c4:	994d      	ldr	r1, [sp, #308]	; 0x134
  c6:	7809      	ldrb	r1, [r1, #0]
  c8:	4288      	cmp	r0, r1
  ca:	d04f      	beq.n	16c <_ZN3app10app_sensor19convert_sensor_data17hb5e1189cbb2e1f3fE+0x16c>
  cc:	e062      	b.n	194 <_ZN3app10app_sensor19convert_sensor_data17hb5e1189cbb2e1f3fE+0x194>
  ce:	a83f      	add	r0, sp, #252	; 0xfc
/Users/Luppy/mynewt/stm32bluepill-mynewt-sensor/rust/app/src/app_sensor.rs:130
                assert_eq!(rc, 0, "rawtmp fail");
  d0:	903c      	str	r0, [sp, #240]	; 0xf0
  d2:	a840      	add	r0, sp, #256	; 0x100
  d4:	903d      	str	r0, [sp, #244]	; 0xf4
  d6:	a841      	add	r0, sp, #260	; 0x104
  d8:	903e      	str	r0, [sp, #248]	; 0xf8
  da:	983c      	ldr	r0, [sp, #240]	; 0xf0
  dc:	9047      	str	r0, [sp, #284]	; 0x11c
  de:	983d      	ldr	r0, [sp, #244]	; 0xf4
  e0:	9048      	str	r0, [sp, #288]	; 0x120
  e2:	983e      	ldr	r0, [sp, #248]	; 0xf8
  e4:	9049      	str	r0, [sp, #292]	; 0x124
  e6:	9847      	ldr	r0, [sp, #284]	; 0x11c
  e8:	f240 0100 	movw	r1, #0
  ec:	f2c0 0100 	movt	r1, #0
  f0:	f7ff fffe 	bl	0 <_ZN4core3fmt10ArgumentV13new17ha911407dafd615aaE>
  f4:	900c      	str	r0, [sp, #48]	; 0x30
  f6:	910b      	str	r1, [sp, #44]	; 0x2c
  f8:	e7ff      	b.n	fa <_ZN3app10app_sensor19convert_sensor_data17hb5e1189cbb2e1f3fE+0xfa>
  fa:	9848      	ldr	r0, [sp, #288]	; 0x120
  fc:	f240 0100 	movw	r1, #0
 100:	f2c0 0100 	movt	r1, #0
 104:	f7ff fffe 	bl	0 <_ZN4core3fmt10ArgumentV13new17ha911407dafd615aaE>
 108:	900a      	str	r0, [sp, #40]	; 0x28
 10a:	9109      	str	r1, [sp, #36]	; 0x24
 10c:	e7ff      	b.n	10e <_ZN3app10app_sensor19convert_sensor_data17hb5e1189cbb2e1f3fE+0x10e>
 10e:	9849      	ldr	r0, [sp, #292]	; 0x124
 110:	f240 0100 	movw	r1, #0
 114:	f2c0 0100 	movt	r1, #0
 118:	f7ff fffe 	bl	0 <_ZN4core3fmt10ArgumentV13new17h77e41a362c8b7a28E>
 11c:	9008      	str	r0, [sp, #32]
 11e:	9107      	str	r1, [sp, #28]
 120:	e7ff      	b.n	122 <_ZN3app10app_sensor19convert_sensor_data17hb5e1189cbb2e1f3fE+0x122>
 122:	980c      	ldr	r0, [sp, #48]	; 0x30
 124:	9036      	str	r0, [sp, #216]	; 0xd8
 126:	990b      	ldr	r1, [sp, #44]	; 0x2c
 128:	9137      	str	r1, [sp, #220]	; 0xdc
 12a:	9a0a      	ldr	r2, [sp, #40]	; 0x28
 12c:	9238      	str	r2, [sp, #224]	; 0xe0
 12e:	9b09      	ldr	r3, [sp, #36]	; 0x24
 130:	9339      	str	r3, [sp, #228]	; 0xe4
 132:	f8dd c020 	ldr.w	ip, [sp, #32]
 136:	f8cd c0e8 	str.w	ip, [sp, #232]	; 0xe8
 13a:	f8dd e01c 	ldr.w	lr, [sp, #28]
 13e:	f8cd e0ec 	str.w	lr, [sp, #236]	; 0xec
 142:	466c      	mov	r4, sp
 144:	2503      	movs	r5, #3
 146:	6025      	str	r5, [r4, #0]
 148:	f240 0100 	movw	r1, #0
 14c:	f2c0 0100 	movt	r1, #0
 150:	a830      	add	r0, sp, #192	; 0xc0
 152:	ab36      	add	r3, sp, #216	; 0xd8
 154:	462a      	mov	r2, r5
 156:	f7ff fffe 	bl	0 <_ZN4core3fmt9Arguments6new_v117hc2d8281224709357E>
 15a:	e7ff      	b.n	2 <_ZN3app10app_sensor19convert_sensor_data17hb5e1189cbb2e1f3fE+0x2>
 15c:	f240 0100 	movw	r1, #0
 160:	f2c0 0100 	movt	r1, #0
 164:	a830      	add	r0, sp, #192	; 0xc0
 166:	f7ff fffe 	bl	0 <_ZN4core9panicking9panic_fmt17h6b4d8e87b0965449E>
 16a:	defe      	udf	#254	; 0xfe
/Users/Luppy/mynewt/stm32bluepill-mynewt-sensor/rust/app/src/app_sensor.rs:132
                assert_ne!(rawtempdata.strd_temp_raw_is_valid, 0, "bad rawtmp");                
 16c:	984c      	ldr	r0, [sp, #304]	; 0x130
 16e:	905d      	str	r0, [sp, #372]	; 0x174
 170:	984d      	ldr	r0, [sp, #308]	; 0x134
 172:	905e      	str	r0, [sp, #376]	; 0x178
 174:	4668      	mov	r0, sp
 176:	2100      	movs	r1, #0
 178:	6001      	str	r1, [r0, #0]
 17a:	f240 0100 	movw	r1, #0
 17e:	f2c0 0100 	movt	r1, #0
 182:	f240 0300 	movw	r3, #0
 186:	f2c0 0300 	movt	r3, #0
 18a:	a85f      	add	r0, sp, #380	; 0x17c
 18c:	2201      	movs	r2, #1
 18e:	f7ff fffe 	bl	0 <_ZN4core3fmt9Arguments6new_v117hc2d8281224709357E>
 192:	e020      	b.n	1d6 <_ZN3app10app_sensor19convert_sensor_data17hb5e1189cbb2e1f3fE+0x1d6>
/Users/Luppy/mynewt/stm32bluepill-mynewt-sensor/rust/app/src/app_sensor.rs:134
                //  Raw temperature data is valid.  Return it.
                SensorValueType::Uint(rawtempdata.strd_temp_raw)  //  Raw Temperature in integer (0 to 4095)
 194:	9827      	ldr	r0, [sp, #156]	; 0x9c
 196:	901d      	str	r0, [sp, #116]	; 0x74
 198:	2001      	movs	r0, #1
 19a:	901c      	str	r0, [sp, #112]	; 0x70
/Users/Luppy/mynewt/stm32bluepill-mynewt-sensor/rust/app/src/app_sensor.rs:122
    SensorValue {
 19c:	f240 0000 	movw	r0, #0
 1a0:	f2c0 0000 	movt	r0, #0
 1a4:	9910      	ldr	r1, [sp, #64]	; 0x40
 1a6:	6408      	str	r0, [r1, #64]	; 0x40
 1a8:	a81c      	add	r0, sp, #112	; 0x70
 1aa:	e8b0 500c 	ldmia.w	r0!, {r2, r3, ip, lr}
 1ae:	e8a1 500c 	stmia.w	r1!, {r2, r3, ip, lr}
 1b2:	e890 500c 	ldmia.w	r0, {r2, r3, ip, lr}
 1b6:	e881 500c 	stmia.w	r1, {r2, r3, ip, lr}
 1ba:	9810      	ldr	r0, [sp, #64]	; 0x40
 1bc:	f100 0120 	add.w	r1, r0, #32
 1c0:	aa14      	add	r2, sp, #80	; 0x50
 1c2:	e8b2 5018 	ldmia.w	r2!, {r3, r4, ip, lr}
 1c6:	e8a1 5018 	stmia.w	r1!, {r3, r4, ip, lr}
 1ca:	e892 5018 	ldmia.w	r2, {r3, r4, ip, lr}
 1ce:	e881 5018 	stmia.w	r1, {r3, r4, ip, lr}
/Users/Luppy/mynewt/stm32bluepill-mynewt-sensor/rust/app/src/app_sensor.rs:140
            }
            //  Unknown type of sensor value
            //  _ => { assert!(false, "sensor type"); SensorValueType::None }
        }
    }
}
 1d2:	b068      	add	sp, #416	; 0x1a0
 1d4:	bdb0      	pop	{r4, r5, r7, pc}
 1d6:	a85d      	add	r0, sp, #372	; 0x174
/Users/Luppy/mynewt/stm32bluepill-mynewt-sensor/rust/app/src/app_sensor.rs:132
                assert_ne!(rawtempdata.strd_temp_raw_is_valid, 0, "bad rawtmp");                
 1d8:	905a      	str	r0, [sp, #360]	; 0x168
 1da:	a85e      	add	r0, sp, #376	; 0x178
 1dc:	905b      	str	r0, [sp, #364]	; 0x16c
 1de:	a85f      	add	r0, sp, #380	; 0x17c
 1e0:	905c      	str	r0, [sp, #368]	; 0x170
 1e2:	985a      	ldr	r0, [sp, #360]	; 0x168
 1e4:	9065      	str	r0, [sp, #404]	; 0x194
 1e6:	985b      	ldr	r0, [sp, #364]	; 0x16c
 1e8:	9066      	str	r0, [sp, #408]	; 0x198
 1ea:	985c      	ldr	r0, [sp, #368]	; 0x170
 1ec:	9067      	str	r0, [sp, #412]	; 0x19c
 1ee:	9865      	ldr	r0, [sp, #404]	; 0x194
 1f0:	f240 0100 	movw	r1, #0
 1f4:	f2c0 0100 	movt	r1, #0
 1f8:	f7ff fffe 	bl	0 <_ZN4core3fmt10ArgumentV13new17h1e15870702cd8f35E>
 1fc:	9006      	str	r0, [sp, #24]
 1fe:	9105      	str	r1, [sp, #20]
 200:	e7ff      	b.n	202 <_ZN3app10app_sensor19convert_sensor_data17hb5e1189cbb2e1f3fE+0x202>
 202:	9866      	ldr	r0, [sp, #408]	; 0x198
 204:	f240 0100 	movw	r1, #0
 208:	f2c0 0100 	movt	r1, #0
 20c:	f7ff fffe 	bl	0 <_ZN4core3fmt10ArgumentV13new17h1e15870702cd8f35E>
 210:	9004      	str	r0, [sp, #16]
 212:	9103      	str	r1, [sp, #12]
 214:	e7ff      	b.n	216 <_ZN3app10app_sensor19convert_sensor_data17hb5e1189cbb2e1f3fE+0x216>
 216:	9867      	ldr	r0, [sp, #412]	; 0x19c
 218:	f240 0100 	movw	r1, #0
 21c:	f2c0 0100 	movt	r1, #0
 220:	f7ff fffe 	bl	0 <_ZN4core3fmt10ArgumentV13new17h77e41a362c8b7a28E>
 224:	9002      	str	r0, [sp, #8]
 226:	9101      	str	r1, [sp, #4]
 228:	e7ff      	b.n	22a <_ZN3app10app_sensor19convert_sensor_data17hb5e1189cbb2e1f3fE+0x22a>
 22a:	9806      	ldr	r0, [sp, #24]
 22c:	9054      	str	r0, [sp, #336]	; 0x150
 22e:	9905      	ldr	r1, [sp, #20]
 230:	9155      	str	r1, [sp, #340]	; 0x154
 232:	9a04      	ldr	r2, [sp, #16]
 234:	9256      	str	r2, [sp, #344]	; 0x158
 236:	9b03      	ldr	r3, [sp, #12]
 238:	9357      	str	r3, [sp, #348]	; 0x15c
 23a:	f8dd c008 	ldr.w	ip, [sp, #8]
 23e:	f8cd c160 	str.w	ip, [sp, #352]	; 0x160
 242:	f8dd e004 	ldr.w	lr, [sp, #4]
 246:	f8cd e164 	str.w	lr, [sp, #356]	; 0x164
 24a:	466c      	mov	r4, sp
 24c:	2503      	movs	r5, #3
 24e:	6025      	str	r5, [r4, #0]
 250:	f240 0100 	movw	r1, #0
 254:	f2c0 0100 	movt	r1, #0
 258:	a84e      	add	r0, sp, #312	; 0x138
 25a:	ab54      	add	r3, sp, #336	; 0x150
 25c:	462a      	mov	r2, r5
 25e:	f7ff fffe 	bl	0 <_ZN4core3fmt9Arguments6new_v117hc2d8281224709357E>
 262:	e7ff      	b.n	2 <_ZN3app10app_sensor19convert_sensor_data17hb5e1189cbb2e1f3fE+0x2>
 264:	f240 0100 	movw	r1, #0
 268:	f2c0 0100 	movt	r1, #0
 26c:	a84e      	add	r0, sp, #312	; 0x138
 26e:	f7ff fffe 	bl	0 <_ZN4core9panicking9panic_fmt17h6b4d8e87b0965449E>
 272:	defe      	udf	#254	; 0xfe

Disassembly of section .text._ZN3app10app_sensor14standby_wakeup17h601e1f8428b994adE:

00000000 <_ZN3app10app_sensor14standby_wakeup17h601e1f8428b994adE>:
_ZN3app10app_sensor14standby_wakeup17h601e1f8428b994adE():
/Users/Luppy/mynewt/stm32bluepill-mynewt-sensor/rust/app/src/app_sensor.rs:145

extern {
    fn power_standby_wakeup() -> i32;
}
fn standby_wakeup() -> bool {
   0:	b580      	push	{r7, lr}
   2:	b082      	sub	sp, #8
/Users/Luppy/mynewt/stm32bluepill-mynewt-sensor/rust/app/src/app_sensor.rs:146
    if unsafe { power_standby_wakeup() == 0 } { false }
   4:	f7ff fffe 	bl	0 <power_standby_wakeup>
   8:	9000      	str	r0, [sp, #0]
   a:	e7ff      	b.n	c <_ZN3app10app_sensor14standby_wakeup17h601e1f8428b994adE+0xc>
   c:	9800      	ldr	r0, [sp, #0]
   e:	2800      	cmp	r0, #0
  10:	d104      	bne.n	1c <_ZN3app10app_sensor14standby_wakeup17h601e1f8428b994adE+0x1c>
  12:	e7ff      	b.n	14 <_ZN3app10app_sensor14standby_wakeup17h601e1f8428b994adE+0x14>
  14:	2000      	movs	r0, #0
  16:	f88d 0007 	strb.w	r0, [sp, #7]
  1a:	e003      	b.n	24 <_ZN3app10app_sensor14standby_wakeup17h601e1f8428b994adE+0x24>
  1c:	2001      	movs	r0, #1
/Users/Luppy/mynewt/stm32bluepill-mynewt-sensor/rust/app/src/app_sensor.rs:147
    else { true }
  1e:	f88d 0007 	strb.w	r0, [sp, #7]
/Users/Luppy/mynewt/stm32bluepill-mynewt-sensor/rust/app/src/app_sensor.rs:146
    if unsafe { power_standby_wakeup() == 0 } { false }
  22:	e7ff      	b.n	24 <_ZN3app10app_sensor14standby_wakeup17h601e1f8428b994adE+0x24>
/Users/Luppy/mynewt/stm32bluepill-mynewt-sensor/rust/app/src/app_sensor.rs:148
  24:	f89d 0007 	ldrb.w	r0, [sp, #7]
  28:	b002      	add	sp, #8
  2a:	bd80      	pop	{r7, pc}

app-b90ce02d7e477c3f.26b8wlrjc9xebdgm.rcgu.o:     file format elf32-littlearm

SYMBOL TABLE:
00000000 l    df *ABS*	00000000 26b8wlrjc9xebdgm
000001fc l       .debug_str	00000000 
00000000 l       .debug_str	00000000 
00000041 l       .debug_str	00000000 
00000055 l       .debug_str	00000000 
00000085 l       .debug_str	00000000 
0000008c l       .debug_str	00000000 
00000093 l       .debug_str	00000000 
00000097 l       .debug_str	00000000 
0000009f l       .debug_str	00000000 
000000aa l       .debug_str	00000000 
000000b5 l       .debug_str	00000000 
000000c2 l       .debug_str	00000000 
00000206 l       .debug_str	00000000 
000000cd l       .debug_str	00000000 
000000d5 l       .debug_str	00000000 
000000e0 l       .debug_str	00000000 
000000eb l       .debug_str	00000000 
000000f5 l       .debug_str	00000000 
00000100 l       .debug_str	00000000 
0000010b l       .debug_str	00000000 
00000118 l       .debug_str	00000000 
00000124 l       .debug_str	00000000 
00000131 l       .debug_str	00000000 
0000013f l       .debug_str	00000000 
00000149 l       .debug_str	00000000 
00000156 l       .debug_str	00000000 
00000162 l       .debug_str	00000000 
0000016b l       .debug_str	00000000 
000001cc l       .debug_str	00000000 
000001cf l       .debug_str	00000000 
000001d4 l       .debug_str	00000000 
000001d9 l       .debug_str	00000000 
000001f6 l       .debug_str	00000000 
00000000 l    d  .text._ZN68_$LT$mynewt..result..MynewtError$u20$as$u20$core..cmp..PartialEq$GT$2eq17hd4e624fd593446c4E	00000000 .text._ZN68_$LT$mynewt..result..MynewtError$u20$as$u20$core..cmp..PartialEq$GT$2eq17hd4e624fd593446c4E
00000000 l    d  .debug_abbrev	00000000 .debug_abbrev
00000000 l    d  .debug_info	00000000 .debug_info
00000000 l    d  .debug_frame	00000000 .debug_frame
00000000 l    d  .debug_line	00000000 .debug_line
00000000 g     F .text._ZN68_$LT$mynewt..result..MynewtError$u20$as$u20$core..cmp..PartialEq$GT$2eq17hd4e624fd593446c4E	00000068 .hidden _ZN68_$LT$mynewt..result..MynewtError$u20$as$u20$core..cmp..PartialEq$GT$2eq17hd4e624fd593446c4E



Disassembly of section .text._ZN68_$LT$mynewt..result..MynewtError$u20$as$u20$core..cmp..PartialEq$GT$2eq17hd4e624fd593446c4E:

00000000 <_ZN68_$LT$mynewt..result..MynewtError$u20$as$u20$core..cmp..PartialEq$GT$2eq17hd4e624fd593446c4E>:
_ZN68_$LT$mynewt..result..MynewtError$u20$as$u20$core..cmp..PartialEq$GT$2eq17hd4e624fd593446c4E():
/Users/Luppy/mynewt/stm32bluepill-mynewt-sensor/rust/mynewt/src/lib.rs:52
    /// Upon error, returns `Err(err)` where err is the MynewtError error code.
    pub type MynewtResult<T> = ::core::result::Result<T, MynewtError>;

    /// Error codes for Mynewt API
    #[repr(i32)]
    #[derive(Debug, PartialEq)]
   0:	b092      	sub	sp, #72	; 0x48
   2:	460a      	mov	r2, r1
   4:	4603      	mov	r3, r0
   6:	9007      	str	r0, [sp, #28]
   8:	9108      	str	r1, [sp, #32]
   a:	9807      	ldr	r0, [sp, #28]
   c:	6800      	ldr	r0, [r0, #0]
   e:	17c1      	asrs	r1, r0, #31
  10:	900e      	str	r0, [sp, #56]	; 0x38
  12:	910f      	str	r1, [sp, #60]	; 0x3c
  14:	980e      	ldr	r0, [sp, #56]	; 0x38
  16:	990f      	ldr	r1, [sp, #60]	; 0x3c
  18:	9206      	str	r2, [sp, #24]
  1a:	9305      	str	r3, [sp, #20]
  1c:	9004      	str	r0, [sp, #16]
  1e:	9103      	str	r1, [sp, #12]
  20:	e7ff      	b.n	22 <_ZN68_$LT$mynewt..result..MynewtError$u20$as$u20$core..cmp..PartialEq$GT$2eq17hd4e624fd593446c4E+0x22>
  22:	9804      	ldr	r0, [sp, #16]
  24:	900a      	str	r0, [sp, #40]	; 0x28
  26:	9908      	ldr	r1, [sp, #32]
  28:	6809      	ldr	r1, [r1, #0]
  2a:	17ca      	asrs	r2, r1, #31
  2c:	9110      	str	r1, [sp, #64]	; 0x40
  2e:	9211      	str	r2, [sp, #68]	; 0x44
  30:	9910      	ldr	r1, [sp, #64]	; 0x40
  32:	9a11      	ldr	r2, [sp, #68]	; 0x44
  34:	9102      	str	r1, [sp, #8]
  36:	9201      	str	r2, [sp, #4]
  38:	e7ff      	b.n	3a <_ZN68_$LT$mynewt..result..MynewtError$u20$as$u20$core..cmp..PartialEq$GT$2eq17hd4e624fd593446c4E+0x3a>
  3a:	9802      	ldr	r0, [sp, #8]
  3c:	900b      	str	r0, [sp, #44]	; 0x2c
  3e:	990a      	ldr	r1, [sp, #40]	; 0x28
  40:	9a0b      	ldr	r2, [sp, #44]	; 0x2c
  42:	4291      	cmp	r1, r2
  44:	d108      	bne.n	58 <_ZN68_$LT$mynewt..result..MynewtError$u20$as$u20$core..cmp..PartialEq$GT$2eq17hd4e624fd593446c4E+0x58>
  46:	e7ff      	b.n	48 <_ZN68_$LT$mynewt..result..MynewtError$u20$as$u20$core..cmp..PartialEq$GT$2eq17hd4e624fd593446c4E+0x48>
  48:	9807      	ldr	r0, [sp, #28]
  4a:	9908      	ldr	r1, [sp, #32]
  4c:	900c      	str	r0, [sp, #48]	; 0x30
  4e:	910d      	str	r1, [sp, #52]	; 0x34
  50:	2001      	movs	r0, #1
  52:	f88d 0027 	strb.w	r0, [sp, #39]	; 0x27
  56:	e003      	b.n	60 <_ZN68_$LT$mynewt..result..MynewtError$u20$as$u20$core..cmp..PartialEq$GT$2eq17hd4e624fd593446c4E+0x60>
  58:	2000      	movs	r0, #0
  5a:	f88d 0027 	strb.w	r0, [sp, #39]	; 0x27
  5e:	e7ff      	b.n	60 <_ZN68_$LT$mynewt..result..MynewtError$u20$as$u20$core..cmp..PartialEq$GT$2eq17hd4e624fd593446c4E+0x60>
  60:	f89d 0027 	ldrb.w	r0, [sp, #39]	; 0x27
  64:	b012      	add	sp, #72	; 0x48
  66:	4770      	bx	lr

app-b90ce02d7e477c3f.29cfty5pwckdmq5t.rcgu.o:     file format elf32-littlearm

SYMBOL TABLE:
00000000 l    df *ABS*	00000000 29cfty5pwckdmq5t
000002b9 l       .debug_str	00000000 
000003d6 l       .debug_str	00000000 
000003e1 l       .debug_str	00000000 
000003fe l       .debug_str	00000000 
00000417 l       .debug_str	00000000 
00000421 l       .debug_str	00000000 
00000453 l       .debug_str	00000000 
00000000 l       .debug_str	00000000 
00000041 l       .debug_str	00000000 
00000055 l       .debug_str	00000000 
00000085 l       .debug_str	00000000 
0000008a l       .debug_str	00000000 
0000008e l       .debug_str	00000000 
00000091 l       .debug_str	00000000 
00000094 l       .debug_str	00000000 
00000097 l       .debug_str	00000000 
0000009c l       .debug_str	00000000 
000000a2 l       .debug_str	00000000 
000000a9 l       .debug_str	00000000 
000000b1 l       .debug_str	00000000 
000000bb l       .debug_str	00000000 
000000c2 l       .debug_str	00000000 
000000c5 l       .debug_str	00000000 
000000c9 l       .debug_str	00000000 
000000d0 l       .debug_str	00000000 
000000d7 l       .debug_str	00000000 
000000e0 l       .debug_str	00000000 
000000ea l       .debug_str	00000000 
000000f1 l       .debug_str	00000000 
000000f7 l       .debug_str	00000000 
000000fc l       .debug_str	00000000 
00000108 l       .debug_str	00000000 
00000110 l       .debug_str	00000000 
00000117 l       .debug_str	00000000 
0000011b l       .debug_str	00000000 
00000120 l       .debug_str	00000000 
00000129 l       .debug_str	00000000 
0000012e l       .debug_str	00000000 
00000131 l       .debug_str	00000000 
00000135 l       .debug_str	00000000 
0000013e l       .debug_str	00000000 
00000145 l       .debug_str	00000000 
0000014a l       .debug_str	00000000 
0000014f l       .debug_str	00000000 
00000155 l       .debug_str	00000000 
0000015b l       .debug_str	00000000 
00000165 l       .debug_str	00000000 
00000168 l       .debug_str	00000000 
0000016e l       .debug_str	00000000 
00000178 l       .debug_str	00000000 
00000180 l       .debug_str	00000000 
00000186 l       .debug_str	00000000 
0000018c l       .debug_str	00000000 
00000197 l       .debug_str	00000000 
000001a0 l       .debug_str	00000000 
000001c3 l       .debug_str	00000000 
000001e2 l       .debug_str	00000000 
000001e4 l       .debug_str	00000000 
000001e9 l       .debug_str	00000000 
00000210 l       .debug_str	00000000 
00000215 l       .debug_str	00000000 
0000021b l       .debug_str	00000000 
00000221 l       .debug_str	00000000 
00000224 l       .debug_str	00000000 
00000233 l       .debug_str	00000000 
0000023a l       .debug_str	00000000 
0000023e l       .debug_str	00000000 
00000247 l       .debug_str	00000000 
0000024f l       .debug_str	00000000 
00000257 l       .debug_str	00000000 
0000025e l       .debug_str	00000000 
00000272 l       .debug_str	00000000 
0000027e l       .debug_str	00000000 
0000028a l       .debug_str	00000000 
000002a3 l       .debug_str	00000000 
000002a8 l       .debug_str	00000000 
000002c3 l       .debug_str	00000000 
000002d1 l       .debug_str	00000000 
000002d5 l       .debug_str	00000000 
000002e0 l       .debug_str	00000000 
000002e7 l       .debug_str	00000000 
000002ed l       .debug_str	00000000 
000002f1 l       .debug_str	00000000 
000002f5 l       .debug_str	00000000 
000002fd l       .debug_str	00000000 
00000314 l       .debug_str	00000000 
00000338 l       .debug_str	00000000 
00000354 l       .debug_str	00000000 
0000035e l       .debug_str	00000000 
00000378 l       .debug_str	00000000 
00000000 l    d  .text._ZN4core3fmt9Arguments6new_v117hc2d8281224709357E	00000000 .text._ZN4core3fmt9Arguments6new_v117hc2d8281224709357E
00000000 l    d  .debug_abbrev	00000000 .debug_abbrev
00000000 l    d  .debug_info	00000000 .debug_info
00000000 l    d  .debug_frame	00000000 .debug_frame
00000000 l    d  .debug_line	00000000 .debug_line
00000000 g     F .text._ZN4core3fmt9Arguments6new_v117hc2d8281224709357E	0000004c .hidden _ZN4core3fmt9Arguments6new_v117hc2d8281224709357E



Disassembly of section .text._ZN4core3fmt9Arguments6new_v117hc2d8281224709357E:

00000000 <_ZN4core3fmt9Arguments6new_v117hc2d8281224709357E>:
_ZN4core3fmt9Arguments6new_v117hc2d8281224709357E():
/rustc/50a0defd5a93523067ef239936cc2e0755220904/src/libcore/fmt/mod.rs:314
   0:	b570      	push	{r4, r5, r6, lr}
   2:	b08a      	sub	sp, #40	; 0x28
   4:	f8dd c038 	ldr.w	ip, [sp, #56]	; 0x38
   8:	469e      	mov	lr, r3
   a:	4614      	mov	r4, r2
   c:	460d      	mov	r5, r1
   e:	4606      	mov	r6, r0
  10:	9104      	str	r1, [sp, #16]
  12:	9205      	str	r2, [sp, #20]
  14:	9306      	str	r3, [sp, #24]
  16:	f8cd c01c 	str.w	ip, [sp, #28]
/rustc/50a0defd5a93523067ef239936cc2e0755220904/src/libcore/fmt/mod.rs:317
  1a:	9904      	ldr	r1, [sp, #16]
  1c:	9a05      	ldr	r2, [sp, #20]
  1e:	2300      	movs	r3, #0
/rustc/50a0defd5a93523067ef239936cc2e0755220904/src/libcore/fmt/mod.rs:318
  20:	9309      	str	r3, [sp, #36]	; 0x24
  22:	9308      	str	r3, [sp, #32]
  24:	9308      	str	r3, [sp, #32]
/rustc/50a0defd5a93523067ef239936cc2e0755220904/src/libcore/fmt/mod.rs:319
  26:	9b06      	ldr	r3, [sp, #24]
  28:	f8dd c01c 	ldr.w	ip, [sp, #28]
/rustc/50a0defd5a93523067ef239936cc2e0755220904/src/libcore/fmt/mod.rs:316
  2c:	6001      	str	r1, [r0, #0]
  2e:	6042      	str	r2, [r0, #4]
  30:	9908      	ldr	r1, [sp, #32]
  32:	9a09      	ldr	r2, [sp, #36]	; 0x24
  34:	6081      	str	r1, [r0, #8]
  36:	60c2      	str	r2, [r0, #12]
  38:	6103      	str	r3, [r0, #16]
  3a:	f8c0 c014 	str.w	ip, [r0, #20]
/rustc/50a0defd5a93523067ef239936cc2e0755220904/src/libcore/fmt/mod.rs:321
  3e:	f8cd e00c 	str.w	lr, [sp, #12]
  42:	9402      	str	r4, [sp, #8]
  44:	9501      	str	r5, [sp, #4]
  46:	9600      	str	r6, [sp, #0]
  48:	b00a      	add	sp, #40	; 0x28
  4a:	bd70      	pop	{r4, r5, r6, pc}

app-b90ce02d7e477c3f.35j0kb8s1vhb4ukq.rcgu.o:     file format elf32-littlearm

SYMBOL TABLE:
00000000 l    df *ABS*	00000000 35j0kb8s1vhb4ukq
0000039a l       .debug_str	00000000 
00000341 l       .debug_str	00000000 
0000037c l       .debug_str	00000000 
0000038d l       .debug_str	00000000 
0000039e l       .debug_str	00000000 
000003a2 l       .debug_str	00000000 
000003aa l       .debug_str	00000000 
000003af l       .debug_str	00000000 
000003b7 l       .debug_str	00000000 
000003bc l       .debug_str	00000000 
000003ca l       .debug_str	00000000 
000003d0 l       .debug_str	00000000 
000003d4 l       .debug_str	00000000 
000003e0 l       .debug_str	00000000 
00000401 l       .debug_str	00000000 
00000410 l       .debug_str	00000000 
00000414 l       .debug_str	00000000 
0000041e l       .debug_str	00000000 
00000422 l       .debug_str	00000000 
00000425 l       .debug_str	00000000 
0000042a l       .debug_str	00000000 
00000433 l       .debug_str	00000000 
00000441 l       .debug_str	00000000 
0000044a l       .debug_str	00000000 
00000455 l       .debug_str	00000000 
00000467 l       .debug_str	00000000 
0000047b l       .debug_str	00000000 
00000000 l       .debug_str	00000000 
00000041 l       .debug_str	00000000 
00000055 l       .debug_str	00000000 
00000085 l       .debug_str	00000000 
00000089 l       .debug_str	00000000 
00000095 l       .debug_str	00000000 
000000a9 l       .debug_str	00000000 
000000b0 l       .debug_str	00000000 
000000b3 l       .debug_str	00000000 
000000ba l       .debug_str	00000000 
000000be l       .debug_str	00000000 
000000c3 l       .debug_str	00000000 
000000c8 l       .debug_str	00000000 
000000cc l       .debug_str	00000000 
000000d2 l       .debug_str	00000000 
000000d6 l       .debug_str	00000000 
000000e2 l       .debug_str	00000000 
000000eb l       .debug_str	00000000 
000000ef l       .debug_str	00000000 
000000f9 l       .debug_str	00000000 
00000102 l       .debug_str	00000000 
00000112 l       .debug_str	00000000 
00000150 l       .debug_str	00000000 
00000157 l       .debug_str	00000000 
0000015b l       .debug_str	00000000 
00000163 l       .debug_str	00000000 
0000016e l       .debug_str	00000000 
00000179 l       .debug_str	00000000 
00000186 l       .debug_str	00000000 
00000191 l       .debug_str	00000000 
00000199 l       .debug_str	00000000 
000001a4 l       .debug_str	00000000 
000001af l       .debug_str	00000000 
000001b9 l       .debug_str	00000000 
000001c4 l       .debug_str	00000000 
000001cf l       .debug_str	00000000 
000001dc l       .debug_str	00000000 
000001e8 l       .debug_str	00000000 
000001f5 l       .debug_str	00000000 
00000203 l       .debug_str	00000000 
0000020d l       .debug_str	00000000 
0000021a l       .debug_str	00000000 
00000226 l       .debug_str	00000000 
0000022b l       .debug_str	00000000 
0000022f l       .debug_str	00000000 
00000238 l       .debug_str	00000000 
00000279 l       .debug_str	00000000 
00000282 l       .debug_str	00000000 
0000028b l       .debug_str	00000000 
0000028e l       .debug_str	00000000 
00000298 l       .debug_str	00000000 
0000029f l       .debug_str	00000000 
000002a5 l       .debug_str	00000000 
000002ab l       .debug_str	00000000 
000002b0 l       .debug_str	00000000 
000002b5 l       .debug_str	00000000 
000002f5 l       .debug_str	00000000 
0000030b l       .debug_str	00000000 
0000030e l       .debug_str	00000000 
00000311 l       .debug_str	00000000 
00000313 l       .debug_str	00000000 
00000315 l       .debug_str	00000000 
00000319 l       .debug_str	00000000 
00000000 l     O .rodata..Lanon.92b8e9a55658339c3e579e693d5217c0.0	00000016 .Lanon.92b8e9a55658339c3e579e693d5217c0.0
00000000 l     O .rodata..Lanon.92b8e9a55658339c3e579e693d5217c0.1	00000001 .Lanon.92b8e9a55658339c3e579e693d5217c0.1
00000000 l     O .rodata..Lanon.92b8e9a55658339c3e579e693d5217c0.12	0000000d .Lanon.92b8e9a55658339c3e579e693d5217c0.12
00000000 l     O .rodata.cst4	00000004 .Lanon.92b8e9a55658339c3e579e693d5217c0.14
00000000 l     O .rodata..Lanon.92b8e9a55658339c3e579e693d5217c0.15	00000007 .Lanon.92b8e9a55658339c3e579e693d5217c0.15
00000000 l     O .rodata..Lanon.92b8e9a55658339c3e579e693d5217c0.17	00000006 .Lanon.92b8e9a55658339c3e579e693d5217c0.17
00000000 l     O .rodata..Lanon.92b8e9a55658339c3e579e693d5217c0.26	00000003 .Lanon.92b8e9a55658339c3e579e693d5217c0.26
00000000 l     O .rodata..Lanon.92b8e9a55658339c3e579e693d5217c0.28	00000005 .Lanon.92b8e9a55658339c3e579e693d5217c0.28
00000004 l     O .rodata.cst4	00000004 .Lanon.92b8e9a55658339c3e579e693d5217c0.29
00000008 l     O .rodata.cst4	00000004 .Lanon.92b8e9a55658339c3e579e693d5217c0.30
00000000 l     O .rodata..Lanon.92b8e9a55658339c3e579e693d5217c0.31	00000005 .Lanon.92b8e9a55658339c3e579e693d5217c0.31
00000000 l     O .rodata..Lanon.92b8e9a55658339c3e579e693d5217c0.37	00000048 .Lanon.92b8e9a55658339c3e579e693d5217c0.37
00000000 l     O .rodata..Lanon.92b8e9a55658339c3e579e693d5217c0.38	00000001 .Lanon.92b8e9a55658339c3e579e693d5217c0.38
00000000 l     O .rodata..Lanon.92b8e9a55658339c3e579e693d5217c0.6	00000007 .Lanon.92b8e9a55658339c3e579e693d5217c0.6
00000000 l     F .text._ZN3app11app_network16send_sensor_data17ha00b395570ee48dfE	00000574 _ZN3app11app_network16send_sensor_data17ha00b395570ee48dfE
00000000 l     O .bss._ZN3app11app_network19CURRENT_GEOLOCATION17h08f4cc9bfdd99ce2E	00000020 _ZN3app11app_network19CURRENT_GEOLOCATION17h08f4cc9bfdd99ce2E
00000000 l    d  .text._ZN3app11app_network21aggregate_sensor_data17hab11c32b63abf594E	00000000 .text._ZN3app11app_network21aggregate_sensor_data17hab11c32b63abf594E
00000000 l    d  .text._ZN3app11app_network16send_sensor_data17ha00b395570ee48dfE	00000000 .text._ZN3app11app_network16send_sensor_data17ha00b395570ee48dfE
00000000 l    d  .bss._ZN3app11app_network19CURRENT_GEOLOCATION17h08f4cc9bfdd99ce2E	00000000 .bss._ZN3app11app_network19CURRENT_GEOLOCATION17h08f4cc9bfdd99ce2E
00000000 l    d  .debug_abbrev	00000000 .debug_abbrev
00000000 l    d  .debug_info	00000000 .debug_info
00000000 l    d  .debug_ranges	00000000 .debug_ranges
00000000 l    d  .debug_frame	00000000 .debug_frame
00000000 l    d  .debug_line	00000000 .debug_line
00000000 g     F .text._ZN3app11app_network21aggregate_sensor_data17hab11c32b63abf594E	000000ba .hidden _ZN3app11app_network21aggregate_sensor_data17hab11c32b63abf594E
00000000         *UND*	00000000 _ZN50_$LT$T$u20$as$u20$core..convert..From$LT$T$GT$$GT$4from17h4bfa181a78946fa0E
00000000         *UND*	00000000 _ZN6mynewt3sys7console10print_strn17h6acf88a32c052588E
00000000         *UND*	00000000 _ZN6mynewt3sys7console5print17h0f65bc3b0e739871E
00000000         *UND*	00000000 _ZN6mynewt4Strn3new17haa130bc407e45c8bE
00000000         *UND*	00000000 _ZN6mynewt4libs14sensor_network12prepare_post17hfdaf25fbf86be5c2E
00000000         *UND*	00000000 _ZN6mynewt4libs14sensor_network13get_device_id17hf2f7fef56ca514e0E
00000000         *UND*	00000000 _ZN6mynewt4libs14sensor_network14do_server_post17h7661fb0cf0ad1a96E
00000000         *UND*	00000000 _ZN6mynewt4libs14sensor_network16init_server_post17h4d7cda996b2d7ef5E
00000000         *UND*	00000000 _ZN6mynewt8encoding12coap_context11CoapContext11key_to_cstr17ha9bcadf10507edfaE
00000000         *UND*	00000000 _ZN6mynewt8encoding12coap_context11CoapContext11to_void_ptr17ha96fa3cb38da5ddbE
00000000         *UND*	00000000 _ZN6mynewt8encoding12coap_context11CoapContext13value_to_cstr17hfc1b92176b61a6eaE
00000000         *UND*	00000000 _ZN6mynewt8encoding12coap_context11CoapContext20json_set_geolocation17h5cef0a66b381353bE
00000000         *UND*	00000000 _ZN6mynewt8encoding12coap_context11CoapContext20json_set_text_string17hdbc3bda942320fdcE
00000000         *UND*	00000000 _ZN6mynewt8encoding12coap_context11CoapContext4fail17h8b0f21dc333d20ccE
00000000         *UND*	00000000 _ZN6mynewt8encoding12coap_context12COAP_CONTEXT17hcc1fd09be7e4ef0cE
00000000         *UND*	00000000 _ZN73_$LT$core..result..Result$LT$T$C$E$GT$$u20$as$u20$core..ops..try..Try$GT$10from_error17h6d3955e1a79eef94E
00000000         *UND*	00000000 _ZN73_$LT$core..result..Result$LT$T$C$E$GT$$u20$as$u20$core..ops..try..Try$GT$11into_result17h2b975e1f9ec08585E
00000000         *UND*	00000000 _ZN73_$LT$core..result..Result$LT$T$C$E$GT$$u20$as$u20$core..ops..try..Try$GT$11into_result17h5fc8a869c255d083E
00000000         *UND*	00000000 _ZN75_$LT$str$u20$as$u20$mynewt..encoding..coap_context..ToBytesOptionalNull$GT$21to_bytes_optional_nul17h86d9940d247021b8E
00000000         *UND*	00000000 _ZN84_$LT$mynewt..Strn$u20$as$u20$mynewt..encoding..coap_context..ToBytesOptionalNull$GT$21to_bytes_optional_nul17h672f59bf22cbf6e9E
00000000         *UND*	00000000 json_helper_close_array
00000000         *UND*	00000000 json_helper_object_array_end_item
00000000         *UND*	00000000 json_helper_object_array_start_item
00000000         *UND*	00000000 json_helper_set_array
00000000         *UND*	00000000 json_helper_set_int
00000000         *UND*	00000000 json_helper_set_text_string
00000000         *UND*	00000000 json_rep_end_root_object
00000000         *UND*	00000000 json_rep_start_root_object



Disassembly of section .text._ZN3app11app_network21aggregate_sensor_data17hab11c32b63abf594E:

00000000 <_ZN3app11app_network21aggregate_sensor_data17hab11c32b63abf594E>:
_ZN3app11app_network21aggregate_sensor_data17hab11c32b63abf594E():
/Users/Luppy/mynewt/stm32bluepill-mynewt-sensor/rust/app/src/app_network.rs:41
};
use mynewt_macros::strn;        //  Import Mynewt procedural macros

///  Aggregate the sensor value with other sensor data before transmitting to server.
///  If the sensor value is a GPS geolocation, we remember it and attach it to other sensor data for transmission.
pub fn aggregate_sensor_data(sensor_value: &SensorValue) -> MynewtResult<()>  {  //  Returns an error code upon error.
   0:	b570      	push	{r4, r5, r6, lr}
   2:	b0b0      	sub	sp, #192	; 0xc0
   4:	4601      	mov	r1, r0
   6:	9002      	str	r0, [sp, #8]
/Users/Luppy/mynewt/stm32bluepill-mynewt-sensor/rust/app/src/app_network.rs:42
    if let SensorValueType::Geolocation {..} = sensor_value.value {
   8:	9802      	ldr	r0, [sp, #8]
   a:	6800      	ldr	r0, [r0, #0]
   c:	2803      	cmp	r0, #3
   e:	9101      	str	r1, [sp, #4]
  10:	d11c      	bne.n	4c <_ZN3app11app_network21aggregate_sensor_data17hab11c32b63abf594E+0x4c>
  12:	e7ff      	b.n	14 <_ZN3app11app_network21aggregate_sensor_data17hab11c32b63abf594E+0x14>
/Users/Luppy/mynewt/stm32bluepill-mynewt-sensor/rust/app/src/app_network.rs:44
        //  Save the geolocation for later transmission.
        unsafe { CURRENT_GEOLOCATION = sensor_value.value };
  14:	9802      	ldr	r0, [sp, #8]
  16:	a904      	add	r1, sp, #16
  18:	460a      	mov	r2, r1
  1a:	e8b0 5018 	ldmia.w	r0!, {r3, r4, ip, lr}
  1e:	e8a2 5018 	stmia.w	r2!, {r3, r4, ip, lr}
  22:	e890 5018 	ldmia.w	r0, {r3, r4, ip, lr}
  26:	e882 5018 	stmia.w	r2, {r3, r4, ip, lr}
  2a:	f240 0000 	movw	r0, #0
  2e:	f2c0 0000 	movt	r0, #0
  32:	e8b1 500c 	ldmia.w	r1!, {r2, r3, ip, lr}
  36:	e8a0 500c 	stmia.w	r0!, {r2, r3, ip, lr}
  3a:	e891 500c 	ldmia.w	r1, {r2, r3, ip, lr}
  3e:	e880 500c 	stmia.w	r0, {r2, r3, ip, lr}
  42:	2000      	movs	r0, #0
/Users/Luppy/mynewt/stm32bluepill-mynewt-sensor/rust/app/src/app_network.rs:45
        Ok(())
  44:	9003      	str	r0, [sp, #12]
  46:	2001      	movs	r0, #1
  48:	9003      	str	r0, [sp, #12]
/Users/Luppy/mynewt/stm32bluepill-mynewt-sensor/rust/app/src/app_network.rs:42
    if let SensorValueType::Geolocation {..} = sensor_value.value {
  4a:	e033      	b.n	b4 <_ZN3app11app_network21aggregate_sensor_data17hab11c32b63abf594E+0xb4>
/Users/Luppy/mynewt/stm32bluepill-mynewt-sensor/rust/app/src/app_network.rs:49
    } else {
        //  Attach the current geolocation to the sensor data for transmission.
        let transmit_value = SensorValue {
            key:    sensor_value.key,
  4c:	9802      	ldr	r0, [sp, #8]
  4e:	6c01      	ldr	r1, [r0, #64]	; 0x40
  50:	aa20      	add	r2, sp, #128	; 0x80
/Users/Luppy/mynewt/stm32bluepill-mynewt-sensor/rust/app/src/app_network.rs:50
            value:  sensor_value.value,
  52:	4613      	mov	r3, r2
  54:	e8b0 5030 	ldmia.w	r0!, {r4, r5, ip, lr}
  58:	e8a3 5030 	stmia.w	r3!, {r4, r5, ip, lr}
  5c:	e890 5030 	ldmia.w	r0, {r4, r5, ip, lr}
  60:	e883 5030 	stmia.w	r3, {r4, r5, ip, lr}
/Users/Luppy/mynewt/stm32bluepill-mynewt-sensor/rust/app/src/app_network.rs:51
            geo:    unsafe { CURRENT_GEOLOCATION }
  64:	f240 0000 	movw	r0, #0
  68:	f2c0 0000 	movt	r0, #0
  6c:	ab28      	add	r3, sp, #160	; 0xa0
  6e:	469c      	mov	ip, r3
  70:	e8b0 4070 	ldmia.w	r0!, {r4, r5, r6, lr}
  74:	e8ac 4070 	stmia.w	ip!, {r4, r5, r6, lr}
  78:	e890 4070 	ldmia.w	r0, {r4, r5, r6, lr}
  7c:	e88c 4070 	stmia.w	ip, {r4, r5, r6, lr}
/Users/Luppy/mynewt/stm32bluepill-mynewt-sensor/rust/app/src/app_network.rs:48
        let transmit_value = SensorValue {
  80:	911e      	str	r1, [sp, #120]	; 0x78
  82:	a80e      	add	r0, sp, #56	; 0x38
  84:	4601      	mov	r1, r0
  86:	e8b2 5030 	ldmia.w	r2!, {r4, r5, ip, lr}
  8a:	e8a1 5030 	stmia.w	r1!, {r4, r5, ip, lr}
  8e:	e892 5030 	ldmia.w	r2, {r4, r5, ip, lr}
  92:	e881 5030 	stmia.w	r1, {r4, r5, ip, lr}
  96:	f100 0120 	add.w	r1, r0, #32
  9a:	e8b3 5014 	ldmia.w	r3!, {r2, r4, ip, lr}
  9e:	e8a1 5014 	stmia.w	r1!, {r2, r4, ip, lr}
  a2:	e893 5014 	ldmia.w	r3, {r2, r4, ip, lr}
  a6:	e881 5014 	stmia.w	r1, {r2, r4, ip, lr}
/Users/Luppy/mynewt/stm32bluepill-mynewt-sensor/rust/app/src/app_network.rs:54
        };
        //  Transmit sensor value with geolocation.
        send_sensor_data(&transmit_value)
  aa:	f7ff fffe 	bl	0 <_ZN3app11app_network21aggregate_sensor_data17hab11c32b63abf594E>
  ae:	9003      	str	r0, [sp, #12]
  b0:	e7ff      	b.n	b2 <_ZN3app11app_network21aggregate_sensor_data17hab11c32b63abf594E+0xb2>
/Users/Luppy/mynewt/stm32bluepill-mynewt-sensor/rust/app/src/app_network.rs:42
    if let SensorValueType::Geolocation {..} = sensor_value.value {
  b2:	e7ff      	b.n	b4 <_ZN3app11app_network21aggregate_sensor_data17hab11c32b63abf594E+0xb4>
/Users/Luppy/mynewt/stm32bluepill-mynewt-sensor/rust/app/src/app_network.rs:56
    }
}
  b4:	9803      	ldr	r0, [sp, #12]
  b6:	b030      	add	sp, #192	; 0xc0
  b8:	bd70      	pop	{r4, r5, r6, pc}

Disassembly of section .text._ZN3app11app_network16send_sensor_data17ha00b395570ee48dfE:

00000000 <_ZN3app11app_network16send_sensor_data17ha00b395570ee48dfE>:
_ZN3app11app_network16send_sensor_data17ha00b395570ee48dfE():
/Users/Luppy/mynewt/stm32bluepill-mynewt-sensor/rust/app/src/app_network.rs:69
/// {"values":[
///   {"key":"device", "value":"0102030405060708090a0b0c0d0e0f10"},
///   {"key":"t",      "value":1715}
/// ]}
/// ```
fn send_sensor_data(val: &SensorValue) -> MynewtResult<()>  {  //  Returns an error code upon error.
   0:	b510      	push	{r4, lr}
   2:	f5ad 7d2a 	sub.w	sp, sp, #680	; 0x2a8
   6:	4601      	mov	r1, r0
   8:	902a      	str	r0, [sp, #168]	; 0xa8
/Users/Luppy/mynewt/stm32bluepill-mynewt-sensor/rust/app/src/app_network.rs:70
    console::print("Rust send_sensor_data\n");
   a:	f240 0000 	movw	r0, #0
   e:	f2c0 0000 	movt	r0, #0
  12:	2216      	movs	r2, #22
  14:	9129      	str	r1, [sp, #164]	; 0xa4
  16:	4611      	mov	r1, r2
  18:	f7ff fffe 	bl	0 <_ZN6mynewt3sys7console5print17h0f65bc3b0e739871E>
  1c:	e7ff      	b.n	1e <_ZN3app11app_network16send_sensor_data17ha00b395570ee48dfE+0x1e>
  1e:	a833      	add	r0, sp, #204	; 0xcc
/Users/Luppy/mynewt/stm32bluepill-mynewt-sensor/rust/app/src/app_network.rs:72
    //  Get a randomly-generated device ID that changes each time we restart the device.
    let device_id = sensor_network::get_device_id() ? ;
  20:	f7ff fffe 	bl	0 <_ZN6mynewt4libs14sensor_network13get_device_id17hf2f7fef56ca514e0E>
  24:	e7ff      	b.n	26 <_ZN3app11app_network16send_sensor_data17ha00b395570ee48dfE+0x26>
  26:	a82f      	add	r0, sp, #188	; 0xbc
  28:	a933      	add	r1, sp, #204	; 0xcc
  2a:	f7ff fffe 	bl	0 <_ZN73_$LT$core..result..Result$LT$T$C$E$GT$$u20$as$u20$core..ops..try..Try$GT$11into_result17h5fc8a869c255d083E>
  2e:	e7ff      	b.n	30 <_ZN3app11app_network16send_sensor_data17ha00b395570ee48dfE+0x30>
  30:	982f      	ldr	r0, [sp, #188]	; 0xbc
  32:	2800      	cmp	r0, #0
  34:	9028      	str	r0, [sp, #160]	; 0xa0
  36:	d017      	beq.n	68 <_ZN3app11app_network16send_sensor_data17ha00b395570ee48dfE+0x68>
  38:	e7ff      	b.n	3a <_ZN3app11app_network16send_sensor_data17ha00b395570ee48dfE+0x3a>
  3a:	9828      	ldr	r0, [sp, #160]	; 0xa0
  3c:	2801      	cmp	r0, #1
  3e:	d001      	beq.n	44 <_ZN3app11app_network16send_sensor_data17ha00b395570ee48dfE+0x44>
  40:	e7ff      	b.n	42 <_ZN3app11app_network16send_sensor_data17ha00b395570ee48dfE+0x42>
/Users/Luppy/mynewt/stm32bluepill-mynewt-sensor/rust/app/src/app_network.rs:107
    console::print("NET view your sensor at \nhttps://blue-pill-geolocate.appspot.com?device=");
    console::print_strn(&device_id); console::print("\n");

    //  The CoAP Background Task will transmit the message in the background.
    Ok(())
}
  42:	defe      	udf	#254	; 0xfe
/Users/Luppy/mynewt/stm32bluepill-mynewt-sensor/rust/app/src/app_network.rs:72
    let device_id = sensor_network::get_device_id() ? ;
  44:	9830      	ldr	r0, [sp, #192]	; 0xc0
  46:	9037      	str	r0, [sp, #220]	; 0xdc
  48:	9837      	ldr	r0, [sp, #220]	; 0xdc
  4a:	f7ff fffe 	bl	0 <_ZN50_$LT$T$u20$as$u20$core..convert..From$LT$T$GT$$GT$4from17h4bfa181a78946fa0E>
  4e:	9027      	str	r0, [sp, #156]	; 0x9c
  50:	e7ff      	b.n	52 <_ZN3app11app_network16send_sensor_data17ha00b395570ee48dfE+0x52>
  52:	9827      	ldr	r0, [sp, #156]	; 0x9c
  54:	f7ff fffe 	bl	0 <_ZN73_$LT$core..result..Result$LT$T$C$E$GT$$u20$as$u20$core..ops..try..Try$GT$10from_error17h6d3955e1a79eef94E>
  58:	902b      	str	r0, [sp, #172]	; 0xac
  5a:	e7ff      	b.n	5c <_ZN3app11app_network16send_sensor_data17ha00b395570ee48dfE+0x5c>
  5c:	e003      	b.n	66 <_ZN3app11app_network16send_sensor_data17ha00b395570ee48dfE+0x66>
/Users/Luppy/mynewt/stm32bluepill-mynewt-sensor/rust/app/src/app_network.rs:107
}
  5e:	982b      	ldr	r0, [sp, #172]	; 0xac
  60:	f50d 7d2a 	add.w	sp, sp, #680	; 0x2a8
  64:	bd10      	pop	{r4, pc}
/Users/Luppy/mynewt/stm32bluepill-mynewt-sensor/rust/app/src/app_network.rs:72
    let device_id = sensor_network::get_device_id() ? ;
  66:	e7fa      	b.n	5e <_ZN3app11app_network16send_sensor_data17ha00b395570ee48dfE+0x5e>
  68:	9830      	ldr	r0, [sp, #192]	; 0xc0
  6a:	9931      	ldr	r1, [sp, #196]	; 0xc4
  6c:	9a32      	ldr	r2, [sp, #200]	; 0xc8
  6e:	923a      	str	r2, [sp, #232]	; 0xe8
  70:	9139      	str	r1, [sp, #228]	; 0xe4
  72:	9038      	str	r0, [sp, #224]	; 0xe0
  74:	9838      	ldr	r0, [sp, #224]	; 0xe0
  76:	9939      	ldr	r1, [sp, #228]	; 0xe4
  78:	9a3a      	ldr	r2, [sp, #232]	; 0xe8
  7a:	922e      	str	r2, [sp, #184]	; 0xb8
  7c:	912d      	str	r1, [sp, #180]	; 0xb4
  7e:	902c      	str	r0, [sp, #176]	; 0xb0
/Users/Luppy/mynewt/stm32bluepill-mynewt-sensor/rust/app/src/app_network.rs:77
    let rc = sensor_network::init_server_post( strn!(()) ) ? ;  //  `strn!(())` means use default CoAP URI in `syscfg.yml`
  80:	f240 0100 	movw	r1, #0
  84:	f2c0 0100 	movt	r1, #0
  88:	a840      	add	r0, sp, #256	; 0x100
  8a:	2201      	movs	r2, #1
  8c:	f7ff fffe 	bl	0 <_ZN6mynewt4Strn3new17haa130bc407e45c8bE>
  90:	e7ff      	b.n	92 <_ZN3app11app_network16send_sensor_data17ha00b395570ee48dfE+0x92>
  92:	a83e      	add	r0, sp, #248	; 0xf8
  94:	a940      	add	r1, sp, #256	; 0x100
  96:	f7ff fffe 	bl	0 <_ZN6mynewt4libs14sensor_network16init_server_post17h4d7cda996b2d7ef5E>
  9a:	e7ff      	b.n	9c <_ZN3app11app_network16send_sensor_data17ha00b395570ee48dfE+0x9c>
  9c:	a83c      	add	r0, sp, #240	; 0xf0
  9e:	a93e      	add	r1, sp, #248	; 0xf8
  a0:	f7ff fffe 	bl	0 <_ZN73_$LT$core..result..Result$LT$T$C$E$GT$$u20$as$u20$core..ops..try..Try$GT$11into_result17h2b975e1f9ec08585E>
  a4:	e7ff      	b.n	a6 <_ZN3app11app_network16send_sensor_data17ha00b395570ee48dfE+0xa6>
  a6:	f89d 00f0 	ldrb.w	r0, [sp, #240]	; 0xf0
  aa:	07c1      	lsls	r1, r0, #31
  ac:	2900      	cmp	r1, #0
  ae:	9026      	str	r0, [sp, #152]	; 0x98
  b0:	d012      	beq.n	d8 <_ZN3app11app_network16send_sensor_data17ha00b395570ee48dfE+0xd8>
  b2:	e7ff      	b.n	b4 <_ZN3app11app_network16send_sensor_data17ha00b395570ee48dfE+0xb4>
  b4:	9826      	ldr	r0, [sp, #152]	; 0x98
  b6:	2801      	cmp	r0, #1
  b8:	d1c3      	bne.n	42 <_ZN3app11app_network16send_sensor_data17ha00b395570ee48dfE+0x42>
  ba:	e7ff      	b.n	bc <_ZN3app11app_network16send_sensor_data17ha00b395570ee48dfE+0xbc>
  bc:	983d      	ldr	r0, [sp, #244]	; 0xf4
  be:	9043      	str	r0, [sp, #268]	; 0x10c
  c0:	9843      	ldr	r0, [sp, #268]	; 0x10c
  c2:	f7ff fffe 	bl	0 <_ZN50_$LT$T$u20$as$u20$core..convert..From$LT$T$GT$$GT$4from17h4bfa181a78946fa0E>
  c6:	9025      	str	r0, [sp, #148]	; 0x94
  c8:	e7ff      	b.n	ca <_ZN3app11app_network16send_sensor_data17ha00b395570ee48dfE+0xca>
  ca:	9825      	ldr	r0, [sp, #148]	; 0x94
  cc:	f7ff fffe 	bl	0 <_ZN73_$LT$core..result..Result$LT$T$C$E$GT$$u20$as$u20$core..ops..try..Try$GT$10from_error17h6d3955e1a79eef94E>
  d0:	902b      	str	r0, [sp, #172]	; 0xac
  d2:	e7ff      	b.n	d4 <_ZN3app11app_network16send_sensor_data17ha00b395570ee48dfE+0xd4>
  d4:	e7ff      	b.n	d6 <_ZN3app11app_network16send_sensor_data17ha00b395570ee48dfE+0xd6>
  d6:	e7c6      	b.n	66 <_ZN3app11app_network16send_sensor_data17ha00b395570ee48dfE+0x66>
  d8:	f89d 00f1 	ldrb.w	r0, [sp, #241]	; 0xf1
  dc:	f88d 0113 	strb.w	r0, [sp, #275]	; 0x113
  e0:	f89d 0113 	ldrb.w	r0, [sp, #275]	; 0x113
  e4:	f88d 00ef 	strb.w	r0, [sp, #239]	; 0xef
/Users/Luppy/mynewt/stm32bluepill-mynewt-sensor/rust/app/src/app_network.rs:80
    if !rc { return Err(MynewtError::SYS_EAGAIN); }
  e8:	f89d 00ef 	ldrb.w	r0, [sp, #239]	; 0xef
  ec:	07c0      	lsls	r0, r0, #31
  ee:	2800      	cmp	r0, #0
  f0:	d106      	bne.n	100 <_ZN3app11app_network16send_sensor_data17ha00b395570ee48dfE+0x100>
  f2:	e7ff      	b.n	f4 <_ZN3app11app_network16send_sensor_data17ha00b395570ee48dfE+0xf4>
  f4:	f06f 0005 	mvn.w	r0, #5
  f8:	9045      	str	r0, [sp, #276]	; 0x114
  fa:	9845      	ldr	r0, [sp, #276]	; 0x114
  fc:	902b      	str	r0, [sp, #172]	; 0xac
  fe:	e7ea      	b.n	d6 <_ZN3app11app_network16send_sensor_data17ha00b395570ee48dfE+0xd6>
 100:	a849      	add	r0, sp, #292	; 0x124
 102:	2132      	movs	r1, #50	; 0x32
/Users/Luppy/mynewt/stm32bluepill-mynewt-sensor/rust/app/src/app_network.rs:84
    let _payload = coap!( @json {        
 104:	f7ff fffe 	bl	0 <_ZN6mynewt4libs14sensor_network12prepare_post17hfdaf25fbf86be5c2E>
 108:	e7ff      	b.n	10a <_ZN3app11app_network16send_sensor_data17ha00b395570ee48dfE+0x10a>
 10a:	a847      	add	r0, sp, #284	; 0x11c
 10c:	a949      	add	r1, sp, #292	; 0x124
 10e:	f7ff fffe 	bl	0 <_ZN73_$LT$core..result..Result$LT$T$C$E$GT$$u20$as$u20$core..ops..try..Try$GT$11into_result17h2b975e1f9ec08585E>
 112:	e7ff      	b.n	114 <_ZN3app11app_network16send_sensor_data17ha00b395570ee48dfE+0x114>
 114:	f89d 011c 	ldrb.w	r0, [sp, #284]	; 0x11c
 118:	07c1      	lsls	r1, r0, #31
 11a:	2900      	cmp	r1, #0
 11c:	9024      	str	r0, [sp, #144]	; 0x90
 11e:	d013      	beq.n	148 <_ZN3app11app_network16send_sensor_data17ha00b395570ee48dfE+0x148>
 120:	e7ff      	b.n	122 <_ZN3app11app_network16send_sensor_data17ha00b395570ee48dfE+0x122>
 122:	9824      	ldr	r0, [sp, #144]	; 0x90
 124:	2801      	cmp	r0, #1
 126:	f47f af8c 	bne.w	42 <_ZN3app11app_network16send_sensor_data17ha00b395570ee48dfE+0x42>
 12a:	e7ff      	b.n	12c <_ZN3app11app_network16send_sensor_data17ha00b395570ee48dfE+0x12c>
 12c:	9848      	ldr	r0, [sp, #288]	; 0x120
 12e:	904b      	str	r0, [sp, #300]	; 0x12c
 130:	984b      	ldr	r0, [sp, #300]	; 0x12c
 132:	f7ff fffe 	bl	0 <_ZN50_$LT$T$u20$as$u20$core..convert..From$LT$T$GT$$GT$4from17h4bfa181a78946fa0E>
 136:	9023      	str	r0, [sp, #140]	; 0x8c
 138:	e7ff      	b.n	13a <_ZN3app11app_network16send_sensor_data17ha00b395570ee48dfE+0x13a>
 13a:	9823      	ldr	r0, [sp, #140]	; 0x8c
 13c:	f7ff fffe 	bl	0 <_ZN73_$LT$core..result..Result$LT$T$C$E$GT$$u20$as$u20$core..ops..try..Try$GT$10from_error17h6d3955e1a79eef94E>
 140:	902b      	str	r0, [sp, #172]	; 0xac
 142:	e7ff      	b.n	144 <_ZN3app11app_network16send_sensor_data17ha00b395570ee48dfE+0x144>
 144:	e7ff      	b.n	146 <_ZN3app11app_network16send_sensor_data17ha00b395570ee48dfE+0x146>
 146:	e7c6      	b.n	d6 <_ZN3app11app_network16send_sensor_data17ha00b395570ee48dfE+0xd6>
 148:	f89d 011d 	ldrb.w	r0, [sp, #285]	; 0x11d
 14c:	f88d 0133 	strb.w	r0, [sp, #307]	; 0x133
 150:	f7ff fffe 	bl	0 <json_rep_start_root_object>
 154:	e7ff      	b.n	2 <_ZN3app11app_network16send_sensor_data17ha00b395570ee48dfE+0x2>
 156:	f240 0000 	movw	r0, #0
 15a:	f2c0 0000 	movt	r0, #0
 15e:	904d      	str	r0, [sp, #308]	; 0x134
 160:	2007      	movs	r0, #7
 162:	904e      	str	r0, [sp, #312]	; 0x138
 164:	f240 0000 	movw	r0, #0
 168:	f2c0 0000 	movt	r0, #0
 16c:	f7ff fffe 	bl	0 <_ZN6mynewt8encoding12coap_context11CoapContext11to_void_ptr17ha96fa3cb38da5ddbE>
 170:	9022      	str	r0, [sp, #136]	; 0x88
 172:	e7ff      	b.n	174 <_ZN3app11app_network16send_sensor_data17ha00b395570ee48dfE+0x174>
 174:	984d      	ldr	r0, [sp, #308]	; 0x134
 176:	994e      	ldr	r1, [sp, #312]	; 0x138
 178:	9092      	str	r0, [sp, #584]	; 0x248
 17a:	9193      	str	r1, [sp, #588]	; 0x24c
_ZN4core3str21_$LT$impl$u20$str$GT$8as_bytes17hbca31947ef6ad219E():
/rustc/50a0defd5a93523067ef239936cc2e0755220904/src/libcore/str/mod.rs:2153
 17c:	9892      	ldr	r0, [sp, #584]	; 0x248
 17e:	9993      	ldr	r1, [sp, #588]	; 0x24c
 180:	9094      	str	r0, [sp, #592]	; 0x250
 182:	9195      	str	r1, [sp, #596]	; 0x254
 184:	9994      	ldr	r1, [sp, #592]	; 0x250
 186:	9a95      	ldr	r2, [sp, #596]	; 0x254
_ZN3app11app_network16send_sensor_data17ha00b395570ee48dfE():
/Users/Luppy/mynewt/stm32bluepill-mynewt-sensor/rust/app/src/app_network.rs:84
 188:	9121      	str	r1, [sp, #132]	; 0x84
 18a:	9220      	str	r2, [sp, #128]	; 0x80
 18c:	e7ff      	b.n	18e <_ZN3app11app_network16send_sensor_data17ha00b395570ee48dfE+0x18e>
 18e:	f240 0000 	movw	r0, #0
 192:	f2c0 0000 	movt	r0, #0
 196:	9921      	ldr	r1, [sp, #132]	; 0x84
 198:	9a20      	ldr	r2, [sp, #128]	; 0x80
 19a:	f7ff fffe 	bl	0 <_ZN6mynewt8encoding12coap_context11CoapContext11key_to_cstr17ha9bcadf10507edfaE>
 19e:	901f      	str	r0, [sp, #124]	; 0x7c
 1a0:	e7ff      	b.n	1a2 <_ZN3app11app_network16send_sensor_data17ha00b395570ee48dfE+0x1a2>
 1a2:	9822      	ldr	r0, [sp, #136]	; 0x88
 1a4:	991f      	ldr	r1, [sp, #124]	; 0x7c
 1a6:	f7ff fffe 	bl	0 <json_helper_set_array>
 1aa:	e7ff      	b.n	2 <_ZN3app11app_network16send_sensor_data17ha00b395570ee48dfE+0x2>
 1ac:	f240 0000 	movw	r0, #0
 1b0:	f2c0 0000 	movt	r0, #0
 1b4:	904f      	str	r0, [sp, #316]	; 0x13c
 1b6:	200d      	movs	r0, #13
 1b8:	9050      	str	r0, [sp, #320]	; 0x140
 1ba:	984f      	ldr	r0, [sp, #316]	; 0x13c
 1bc:	9950      	ldr	r1, [sp, #320]	; 0x140
 1be:	90a6      	str	r0, [sp, #664]	; 0x298
 1c0:	91a7      	str	r1, [sp, #668]	; 0x29c
_ZN4core3str21_$LT$impl$u20$str$GT$8as_bytes17hbca31947ef6ad219E():
/rustc/50a0defd5a93523067ef239936cc2e0755220904/src/libcore/str/mod.rs:2153
 1c2:	98a6      	ldr	r0, [sp, #664]	; 0x298
 1c4:	99a7      	ldr	r1, [sp, #668]	; 0x29c
 1c6:	90a8      	str	r0, [sp, #672]	; 0x2a0
 1c8:	91a9      	str	r1, [sp, #676]	; 0x2a4
 1ca:	99a8      	ldr	r1, [sp, #672]	; 0x2a0
 1cc:	9aa9      	ldr	r2, [sp, #676]	; 0x2a4
_ZN3app11app_network16send_sensor_data17ha00b395570ee48dfE():
/Users/Luppy/mynewt/stm32bluepill-mynewt-sensor/rust/app/src/app_network.rs:84
 1ce:	911e      	str	r1, [sp, #120]	; 0x78
 1d0:	921d      	str	r2, [sp, #116]	; 0x74
 1d2:	e7ff      	b.n	1d4 <_ZN3app11app_network16send_sensor_data17ha00b395570ee48dfE+0x1d4>
 1d4:	f240 0000 	movw	r0, #0
 1d8:	f2c0 0000 	movt	r0, #0
 1dc:	991e      	ldr	r1, [sp, #120]	; 0x78
 1de:	9a1d      	ldr	r2, [sp, #116]	; 0x74
 1e0:	f7ff fffe 	bl	0 <_ZN6mynewt8encoding12coap_context11CoapContext11key_to_cstr17ha9bcadf10507edfaE>
 1e4:	901c      	str	r0, [sp, #112]	; 0x70
 1e6:	e7ff      	b.n	1e8 <_ZN3app11app_network16send_sensor_data17ha00b395570ee48dfE+0x1e8>
 1e8:	981c      	ldr	r0, [sp, #112]	; 0x70
 1ea:	f7ff fffe 	bl	0 <json_helper_object_array_start_item>
 1ee:	e7ff      	b.n	2 <_ZN3app11app_network16send_sensor_data17ha00b395570ee48dfE+0x2>
 1f0:	f240 0100 	movw	r1, #0
 1f4:	f2c0 0100 	movt	r1, #0
 1f8:	a852      	add	r0, sp, #328	; 0x148
 1fa:	2204      	movs	r2, #4
 1fc:	f7ff fffe 	bl	0 <_ZN6mynewt4Strn3new17haa130bc407e45c8bE>
 200:	e7ff      	b.n	202 <_ZN3app11app_network16send_sensor_data17ha00b395570ee48dfE+0x202>
 202:	a852      	add	r0, sp, #328	; 0x148
 204:	9051      	str	r0, [sp, #324]	; 0x144
 206:	f240 0100 	movw	r1, #0
 20a:	f2c0 0100 	movt	r1, #0
 20e:	a856      	add	r0, sp, #344	; 0x158
 210:	2207      	movs	r2, #7
 212:	f7ff fffe 	bl	0 <_ZN6mynewt4Strn3new17haa130bc407e45c8bE>
 216:	e7ff      	b.n	218 <_ZN3app11app_network16send_sensor_data17ha00b395570ee48dfE+0x218>
 218:	a856      	add	r0, sp, #344	; 0x158
 21a:	9055      	str	r0, [sp, #340]	; 0x154
 21c:	9951      	ldr	r1, [sp, #324]	; 0x144
 21e:	9a55      	ldr	r2, [sp, #340]	; 0x154
 220:	f240 0000 	movw	r0, #0
 224:	f2c0 0000 	movt	r0, #0
 228:	f7ff fffe 	bl	0 <_ZN6mynewt8encoding12coap_context11CoapContext20json_set_text_string17hdbc3bda942320fdcE>
 22c:	e7ff      	b.n	2 <_ZN3app11app_network16send_sensor_data17ha00b395570ee48dfE+0x2>
 22e:	f240 0100 	movw	r1, #0
 232:	f2c0 0100 	movt	r1, #0
 236:	a85a      	add	r0, sp, #360	; 0x168
 238:	2206      	movs	r2, #6
 23a:	f7ff fffe 	bl	0 <_ZN6mynewt4Strn3new17haa130bc407e45c8bE>
 23e:	e7ff      	b.n	240 <_ZN3app11app_network16send_sensor_data17ha00b395570ee48dfE+0x240>
 240:	a85a      	add	r0, sp, #360	; 0x168
 242:	9059      	str	r0, [sp, #356]	; 0x164
 244:	a82c      	add	r0, sp, #176	; 0xb0
/Users/Luppy/mynewt/stm32bluepill-mynewt-sensor/rust/app/src/app_network.rs:88
        "device": &device_id,
 246:	905d      	str	r0, [sp, #372]	; 0x174
/Users/Luppy/mynewt/stm32bluepill-mynewt-sensor/rust/app/src/app_network.rs:84
    let _payload = coap!( @json {        
 248:	9959      	ldr	r1, [sp, #356]	; 0x164
 24a:	9a5d      	ldr	r2, [sp, #372]	; 0x174
 24c:	f240 0000 	movw	r0, #0
 250:	f2c0 0000 	movt	r0, #0
 254:	f7ff fffe 	bl	0 <_ZN6mynewt8encoding12coap_context11CoapContext20json_set_text_string17hdbc3bda942320fdcE>
 258:	e7ff      	b.n	2 <_ZN3app11app_network16send_sensor_data17ha00b395570ee48dfE+0x2>
 25a:	f240 0000 	movw	r0, #0
 25e:	f2c0 0000 	movt	r0, #0
 262:	905e      	str	r0, [sp, #376]	; 0x178
 264:	200d      	movs	r0, #13
 266:	905f      	str	r0, [sp, #380]	; 0x17c
 268:	985e      	ldr	r0, [sp, #376]	; 0x178
 26a:	995f      	ldr	r1, [sp, #380]	; 0x17c
 26c:	90a2      	str	r0, [sp, #648]	; 0x288
 26e:	91a3      	str	r1, [sp, #652]	; 0x28c
_ZN4core3str21_$LT$impl$u20$str$GT$8as_bytes17hbca31947ef6ad219E():
/rustc/50a0defd5a93523067ef239936cc2e0755220904/src/libcore/str/mod.rs:2153
 270:	98a2      	ldr	r0, [sp, #648]	; 0x288
 272:	99a3      	ldr	r1, [sp, #652]	; 0x28c
 274:	90a4      	str	r0, [sp, #656]	; 0x290
 276:	91a5      	str	r1, [sp, #660]	; 0x294
 278:	99a4      	ldr	r1, [sp, #656]	; 0x290
 27a:	9aa5      	ldr	r2, [sp, #660]	; 0x294
_ZN3app11app_network16send_sensor_data17ha00b395570ee48dfE():
/Users/Luppy/mynewt/stm32bluepill-mynewt-sensor/rust/app/src/app_network.rs:84
 27c:	911b      	str	r1, [sp, #108]	; 0x6c
 27e:	921a      	str	r2, [sp, #104]	; 0x68
 280:	e7ff      	b.n	282 <_ZN3app11app_network16send_sensor_data17ha00b395570ee48dfE+0x282>
 282:	f240 0000 	movw	r0, #0
 286:	f2c0 0000 	movt	r0, #0
 28a:	991b      	ldr	r1, [sp, #108]	; 0x6c
 28c:	9a1a      	ldr	r2, [sp, #104]	; 0x68
 28e:	f7ff fffe 	bl	0 <_ZN6mynewt8encoding12coap_context11CoapContext11key_to_cstr17ha9bcadf10507edfaE>
 292:	9019      	str	r0, [sp, #100]	; 0x64
 294:	e7ff      	b.n	296 <_ZN3app11app_network16send_sensor_data17ha00b395570ee48dfE+0x296>
 296:	9819      	ldr	r0, [sp, #100]	; 0x64
 298:	f7ff fffe 	bl	0 <json_helper_object_array_end_item>
 29c:	e7ff      	b.n	29e <_ZN3app11app_network16send_sensor_data17ha00b395570ee48dfE+0x29e>
 29e:	982a      	ldr	r0, [sp, #168]	; 0xa8
 2a0:	3020      	adds	r0, #32
 2a2:	a960      	add	r1, sp, #384	; 0x180
 2a4:	e8b0 500c 	ldmia.w	r0!, {r2, r3, ip, lr}
 2a8:	e8a1 500c 	stmia.w	r1!, {r2, r3, ip, lr}
 2ac:	e890 500c 	ldmia.w	r0, {r2, r3, ip, lr}
 2b0:	e881 500c 	stmia.w	r1, {r2, r3, ip, lr}
 2b4:	982a      	ldr	r0, [sp, #168]	; 0xa8
 2b6:	6800      	ldr	r0, [r0, #0]
 2b8:	2801      	cmp	r0, #1
 2ba:	f040 80e1 	bne.w	480 <_ZN3app11app_network16send_sensor_data17ha00b395570ee48dfE+0x480>
 2be:	e7ff      	b.n	2c0 <_ZN3app11app_network16send_sensor_data17ha00b395570ee48dfE+0x2c0>
 2c0:	982a      	ldr	r0, [sp, #168]	; 0xa8
 2c2:	6840      	ldr	r0, [r0, #4]
 2c4:	9069      	str	r0, [sp, #420]	; 0x1a4
 2c6:	f240 0000 	movw	r0, #0
 2ca:	f2c0 0000 	movt	r0, #0
 2ce:	906a      	str	r0, [sp, #424]	; 0x1a8
 2d0:	200d      	movs	r0, #13
 2d2:	906b      	str	r0, [sp, #428]	; 0x1ac
 2d4:	986a      	ldr	r0, [sp, #424]	; 0x1a8
 2d6:	996b      	ldr	r1, [sp, #428]	; 0x1ac
 2d8:	909e      	str	r0, [sp, #632]	; 0x278
 2da:	919f      	str	r1, [sp, #636]	; 0x27c
_ZN4core3str21_$LT$impl$u20$str$GT$8as_bytes17hbca31947ef6ad219E():
/rustc/50a0defd5a93523067ef239936cc2e0755220904/src/libcore/str/mod.rs:2153
 2dc:	989e      	ldr	r0, [sp, #632]	; 0x278
 2de:	999f      	ldr	r1, [sp, #636]	; 0x27c
 2e0:	90a0      	str	r0, [sp, #640]	; 0x280
 2e2:	91a1      	str	r1, [sp, #644]	; 0x284
 2e4:	99a0      	ldr	r1, [sp, #640]	; 0x280
 2e6:	9aa1      	ldr	r2, [sp, #644]	; 0x284
_ZN3app11app_network16send_sensor_data17ha00b395570ee48dfE():
/Users/Luppy/mynewt/stm32bluepill-mynewt-sensor/rust/app/src/app_network.rs:84
 2e8:	9118      	str	r1, [sp, #96]	; 0x60
 2ea:	9217      	str	r2, [sp, #92]	; 0x5c
 2ec:	e7ff      	b.n	2ee <_ZN3app11app_network16send_sensor_data17ha00b395570ee48dfE+0x2ee>
 2ee:	f240 0000 	movw	r0, #0
 2f2:	f2c0 0000 	movt	r0, #0
 2f6:	9918      	ldr	r1, [sp, #96]	; 0x60
 2f8:	9a17      	ldr	r2, [sp, #92]	; 0x5c
 2fa:	f7ff fffe 	bl	0 <_ZN6mynewt8encoding12coap_context11CoapContext11key_to_cstr17ha9bcadf10507edfaE>
 2fe:	9016      	str	r0, [sp, #88]	; 0x58
 300:	e7ff      	b.n	302 <_ZN3app11app_network16send_sensor_data17ha00b395570ee48dfE+0x302>
 302:	9816      	ldr	r0, [sp, #88]	; 0x58
 304:	f7ff fffe 	bl	0 <json_helper_object_array_start_item>
 308:	e7ff      	b.n	2 <_ZN3app11app_network16send_sensor_data17ha00b395570ee48dfE+0x2>
 30a:	f240 0000 	movw	r0, #0
 30e:	f2c0 0000 	movt	r0, #0
 312:	2103      	movs	r1, #3
 314:	f7ff fffe 	bl	0 <_ZN75_$LT$str$u20$as$u20$mynewt..encoding..coap_context..ToBytesOptionalNull$GT$21to_bytes_optional_nul17h86d9940d247021b8E>
 318:	9015      	str	r0, [sp, #84]	; 0x54
 31a:	9114      	str	r1, [sp, #80]	; 0x50
 31c:	e7ff      	b.n	31e <_ZN3app11app_network16send_sensor_data17ha00b395570ee48dfE+0x31e>
 31e:	9815      	ldr	r0, [sp, #84]	; 0x54
 320:	906c      	str	r0, [sp, #432]	; 0x1b0
 322:	9914      	ldr	r1, [sp, #80]	; 0x50
 324:	916d      	str	r1, [sp, #436]	; 0x1b4
 326:	9a2a      	ldr	r2, [sp, #168]	; 0xa8
 328:	6c10      	ldr	r0, [r2, #64]	; 0x40
 32a:	f7ff fffe 	bl	0 <_ZN84_$LT$mynewt..Strn$u20$as$u20$mynewt..encoding..coap_context..ToBytesOptionalNull$GT$21to_bytes_optional_nul17h672f59bf22cbf6e9E>
 32e:	9013      	str	r0, [sp, #76]	; 0x4c
 330:	9112      	str	r1, [sp, #72]	; 0x48
 332:	e7ff      	b.n	334 <_ZN3app11app_network16send_sensor_data17ha00b395570ee48dfE+0x334>
 334:	9813      	ldr	r0, [sp, #76]	; 0x4c
 336:	906e      	str	r0, [sp, #440]	; 0x1b8
 338:	9912      	ldr	r1, [sp, #72]	; 0x48
 33a:	916f      	str	r1, [sp, #444]	; 0x1bc
 33c:	f240 0000 	movw	r0, #0
 340:	f2c0 0000 	movt	r0, #0
 344:	f7ff fffe 	bl	0 <_ZN6mynewt8encoding12coap_context11CoapContext11to_void_ptr17ha96fa3cb38da5ddbE>
 348:	9011      	str	r0, [sp, #68]	; 0x44
 34a:	e7ff      	b.n	34c <_ZN3app11app_network16send_sensor_data17ha00b395570ee48dfE+0x34c>
 34c:	996c      	ldr	r1, [sp, #432]	; 0x1b0
 34e:	9a6d      	ldr	r2, [sp, #436]	; 0x1b4
 350:	f240 0000 	movw	r0, #0
 354:	f2c0 0000 	movt	r0, #0
 358:	f7ff fffe 	bl	0 <_ZN6mynewt8encoding12coap_context11CoapContext11key_to_cstr17ha9bcadf10507edfaE>
 35c:	9010      	str	r0, [sp, #64]	; 0x40
 35e:	e7ff      	b.n	360 <_ZN3app11app_network16send_sensor_data17ha00b395570ee48dfE+0x360>
 360:	996e      	ldr	r1, [sp, #440]	; 0x1b8
 362:	9a6f      	ldr	r2, [sp, #444]	; 0x1bc
 364:	f240 0000 	movw	r0, #0
 368:	f2c0 0000 	movt	r0, #0
 36c:	f7ff fffe 	bl	0 <_ZN6mynewt8encoding12coap_context11CoapContext13value_to_cstr17hfc1b92176b61a6eaE>
 370:	900f      	str	r0, [sp, #60]	; 0x3c
 372:	e7ff      	b.n	374 <_ZN3app11app_network16send_sensor_data17ha00b395570ee48dfE+0x374>
 374:	9811      	ldr	r0, [sp, #68]	; 0x44
 376:	9910      	ldr	r1, [sp, #64]	; 0x40
 378:	9a0f      	ldr	r2, [sp, #60]	; 0x3c
 37a:	f7ff fffe 	bl	0 <json_helper_set_text_string>
 37e:	e7ff      	b.n	2 <_ZN3app11app_network16send_sensor_data17ha00b395570ee48dfE+0x2>
 380:	f240 0000 	movw	r0, #0
 384:	f2c0 0000 	movt	r0, #0
 388:	2105      	movs	r1, #5
 38a:	f7ff fffe 	bl	0 <_ZN75_$LT$str$u20$as$u20$mynewt..encoding..coap_context..ToBytesOptionalNull$GT$21to_bytes_optional_nul17h86d9940d247021b8E>
 38e:	900e      	str	r0, [sp, #56]	; 0x38
 390:	910d      	str	r1, [sp, #52]	; 0x34
 392:	e7ff      	b.n	394 <_ZN3app11app_network16send_sensor_data17ha00b395570ee48dfE+0x394>
 394:	980e      	ldr	r0, [sp, #56]	; 0x38
 396:	9070      	str	r0, [sp, #448]	; 0x1c0
 398:	990d      	ldr	r1, [sp, #52]	; 0x34
 39a:	9171      	str	r1, [sp, #452]	; 0x1c4
 39c:	9a69      	ldr	r2, [sp, #420]	; 0x1a4
 39e:	2300      	movs	r3, #0
 3a0:	9373      	str	r3, [sp, #460]	; 0x1cc
 3a2:	9272      	str	r2, [sp, #456]	; 0x1c8
 3a4:	f240 0000 	movw	r0, #0
 3a8:	f2c0 0000 	movt	r0, #0
 3ac:	f7ff fffe 	bl	0 <_ZN6mynewt8encoding12coap_context11CoapContext11to_void_ptr17ha96fa3cb38da5ddbE>
 3b0:	900c      	str	r0, [sp, #48]	; 0x30
 3b2:	e7ff      	b.n	3b4 <_ZN3app11app_network16send_sensor_data17ha00b395570ee48dfE+0x3b4>
 3b4:	9970      	ldr	r1, [sp, #448]	; 0x1c0
 3b6:	9a71      	ldr	r2, [sp, #452]	; 0x1c4
 3b8:	f240 0000 	movw	r0, #0
 3bc:	f2c0 0000 	movt	r0, #0
 3c0:	f7ff fffe 	bl	0 <_ZN6mynewt8encoding12coap_context11CoapContext11key_to_cstr17ha9bcadf10507edfaE>
 3c4:	900b      	str	r0, [sp, #44]	; 0x2c
 3c6:	e7ff      	b.n	3c8 <_ZN3app11app_network16send_sensor_data17ha00b395570ee48dfE+0x3c8>
 3c8:	9a72      	ldr	r2, [sp, #456]	; 0x1c8
 3ca:	9b73      	ldr	r3, [sp, #460]	; 0x1cc
 3cc:	980c      	ldr	r0, [sp, #48]	; 0x30
 3ce:	990b      	ldr	r1, [sp, #44]	; 0x2c
 3d0:	f7ff fffe 	bl	0 <json_helper_set_int>
 3d4:	e7ff      	b.n	6 <_ZN3app11app_network16send_sensor_data17ha00b395570ee48dfE+0x6>
 3d6:	f240 0100 	movw	r1, #0
 3da:	f2c0 0100 	movt	r1, #0
 3de:	a875      	add	r0, sp, #468	; 0x1d4
 3e0:	2204      	movs	r2, #4
 3e2:	f7ff fffe 	bl	0 <_ZN6mynewt4Strn3new17haa130bc407e45c8bE>
 3e6:	e7ff      	b.n	a <_ZN3app11app_network16send_sensor_data17ha00b395570ee48dfE+0xa>
 3e8:	f240 0100 	movw	r1, #0
 3ec:	f2c0 0100 	movt	r1, #0
 3f0:	a878      	add	r0, sp, #480	; 0x1e0
 3f2:	2204      	movs	r2, #4
 3f4:	f7ff fffe 	bl	0 <_ZN6mynewt4Strn3new17haa130bc407e45c8bE>
 3f8:	e7ff      	b.n	2 <_ZN3app11app_network16send_sensor_data17ha00b395570ee48dfE+0x2>
 3fa:	f240 0100 	movw	r1, #0
 3fe:	f2c0 0100 	movt	r1, #0
 402:	a87b      	add	r0, sp, #492	; 0x1ec
 404:	2205      	movs	r2, #5
 406:	f7ff fffe 	bl	0 <_ZN6mynewt4Strn3new17haa130bc407e45c8bE>
 40a:	e7ff      	b.n	40c <_ZN3app11app_network16send_sensor_data17ha00b395570ee48dfE+0x40c>
 40c:	a860      	add	r0, sp, #384	; 0x180
 40e:	a97e      	add	r1, sp, #504	; 0x1f8
 410:	460a      	mov	r2, r1
 412:	e8b0 5018 	ldmia.w	r0!, {r3, r4, ip, lr}
 416:	e8a2 5018 	stmia.w	r2!, {r3, r4, ip, lr}
 41a:	e890 5018 	ldmia.w	r0, {r3, r4, ip, lr}
 41e:	e882 5018 	stmia.w	r2, {r3, r4, ip, lr}
 422:	4668      	mov	r0, sp
 424:	6001      	str	r1, [r0, #0]
 426:	f240 0000 	movw	r0, #0
 42a:	f2c0 0000 	movt	r0, #0
 42e:	a975      	add	r1, sp, #468	; 0x1d4
 430:	aa78      	add	r2, sp, #480	; 0x1e0
 432:	ab7b      	add	r3, sp, #492	; 0x1ec
 434:	f7ff fffe 	bl	0 <_ZN6mynewt8encoding12coap_context11CoapContext20json_set_geolocation17h5cef0a66b381353bE>
 438:	e7ff      	b.n	2 <_ZN3app11app_network16send_sensor_data17ha00b395570ee48dfE+0x2>
 43a:	f240 0000 	movw	r0, #0
 43e:	f2c0 0000 	movt	r0, #0
 442:	9086      	str	r0, [sp, #536]	; 0x218
 444:	200d      	movs	r0, #13
 446:	9087      	str	r0, [sp, #540]	; 0x21c
 448:	9886      	ldr	r0, [sp, #536]	; 0x218
 44a:	9987      	ldr	r1, [sp, #540]	; 0x21c
 44c:	909a      	str	r0, [sp, #616]	; 0x268
 44e:	919b      	str	r1, [sp, #620]	; 0x26c
_ZN4core3str21_$LT$impl$u20$str$GT$8as_bytes17hbca31947ef6ad219E():
/rustc/50a0defd5a93523067ef239936cc2e0755220904/src/libcore/str/mod.rs:2153
 450:	989a      	ldr	r0, [sp, #616]	; 0x268
 452:	999b      	ldr	r1, [sp, #620]	; 0x26c
 454:	909c      	str	r0, [sp, #624]	; 0x270
 456:	919d      	str	r1, [sp, #628]	; 0x274
 458:	999c      	ldr	r1, [sp, #624]	; 0x270
 45a:	9a9d      	ldr	r2, [sp, #628]	; 0x274
_ZN3app11app_network16send_sensor_data17ha00b395570ee48dfE():
/Users/Luppy/mynewt/stm32bluepill-mynewt-sensor/rust/app/src/app_network.rs:84
 45c:	910a      	str	r1, [sp, #40]	; 0x28
 45e:	9209      	str	r2, [sp, #36]	; 0x24
 460:	e7ff      	b.n	462 <_ZN3app11app_network16send_sensor_data17ha00b395570ee48dfE+0x462>
 462:	f240 0000 	movw	r0, #0
 466:	f2c0 0000 	movt	r0, #0
 46a:	990a      	ldr	r1, [sp, #40]	; 0x28
 46c:	9a09      	ldr	r2, [sp, #36]	; 0x24
 46e:	f7ff fffe 	bl	0 <_ZN6mynewt8encoding12coap_context11CoapContext11key_to_cstr17ha9bcadf10507edfaE>
 472:	9008      	str	r0, [sp, #32]
 474:	e7ff      	b.n	476 <_ZN3app11app_network16send_sensor_data17ha00b395570ee48dfE+0x476>
 476:	9808      	ldr	r0, [sp, #32]
 478:	f7ff fffe 	bl	0 <json_helper_object_array_end_item>
 47c:	e7ff      	b.n	47e <_ZN3app11app_network16send_sensor_data17ha00b395570ee48dfE+0x47e>
 47e:	e00c      	b.n	49a <_ZN3app11app_network16send_sensor_data17ha00b395570ee48dfE+0x49a>
 480:	2001      	movs	r0, #1
 482:	f88d 0223 	strb.w	r0, [sp, #547]	; 0x223
 486:	f89d 1223 	ldrb.w	r1, [sp, #547]	; 0x223
 48a:	f240 0000 	movw	r0, #0
 48e:	f2c0 0000 	movt	r0, #0
 492:	f7ff fffe 	bl	0 <_ZN6mynewt8encoding12coap_context11CoapContext4fail17h8b0f21dc333d20ccE>
 496:	e7ff      	b.n	498 <_ZN3app11app_network16send_sensor_data17ha00b395570ee48dfE+0x498>
 498:	e7ff      	b.n	49a <_ZN3app11app_network16send_sensor_data17ha00b395570ee48dfE+0x49a>
 49a:	f240 0000 	movw	r0, #0
 49e:	f2c0 0000 	movt	r0, #0
 4a2:	9089      	str	r0, [sp, #548]	; 0x224
 4a4:	2007      	movs	r0, #7
 4a6:	908a      	str	r0, [sp, #552]	; 0x228
 4a8:	f240 0000 	movw	r0, #0
 4ac:	f2c0 0000 	movt	r0, #0
 4b0:	f7ff fffe 	bl	0 <_ZN6mynewt8encoding12coap_context11CoapContext11to_void_ptr17ha96fa3cb38da5ddbE>
 4b4:	9007      	str	r0, [sp, #28]
 4b6:	e7ff      	b.n	4b8 <_ZN3app11app_network16send_sensor_data17ha00b395570ee48dfE+0x4b8>
 4b8:	9889      	ldr	r0, [sp, #548]	; 0x224
 4ba:	998a      	ldr	r1, [sp, #552]	; 0x228
 4bc:	9096      	str	r0, [sp, #600]	; 0x258
 4be:	9197      	str	r1, [sp, #604]	; 0x25c
_ZN4core3str21_$LT$impl$u20$str$GT$8as_bytes17hbca31947ef6ad219E():
/rustc/50a0defd5a93523067ef239936cc2e0755220904/src/libcore/str/mod.rs:2153
 4c0:	9896      	ldr	r0, [sp, #600]	; 0x258
 4c2:	9997      	ldr	r1, [sp, #604]	; 0x25c
 4c4:	9098      	str	r0, [sp, #608]	; 0x260
 4c6:	9199      	str	r1, [sp, #612]	; 0x264
 4c8:	9998      	ldr	r1, [sp, #608]	; 0x260
 4ca:	9a99      	ldr	r2, [sp, #612]	; 0x264
_ZN3app11app_network16send_sensor_data17ha00b395570ee48dfE():
/Users/Luppy/mynewt/stm32bluepill-mynewt-sensor/rust/app/src/app_network.rs:84
 4cc:	9106      	str	r1, [sp, #24]
 4ce:	9205      	str	r2, [sp, #20]
 4d0:	e7ff      	b.n	4d2 <_ZN3app11app_network16send_sensor_data17ha00b395570ee48dfE+0x4d2>
 4d2:	f240 0000 	movw	r0, #0
 4d6:	f2c0 0000 	movt	r0, #0
 4da:	9906      	ldr	r1, [sp, #24]
 4dc:	9a05      	ldr	r2, [sp, #20]
 4de:	f7ff fffe 	bl	0 <_ZN6mynewt8encoding12coap_context11CoapContext11key_to_cstr17ha9bcadf10507edfaE>
 4e2:	9004      	str	r0, [sp, #16]
 4e4:	e7ff      	b.n	4e6 <_ZN3app11app_network16send_sensor_data17ha00b395570ee48dfE+0x4e6>
 4e6:	9807      	ldr	r0, [sp, #28]
 4e8:	9904      	ldr	r1, [sp, #16]
 4ea:	f7ff fffe 	bl	0 <json_helper_close_array>
 4ee:	e7ff      	b.n	2 <json_rep_end_root_object+0x2>
 4f0:	f7ff fffe 	bl	0 <json_rep_end_root_object>
 4f4:	e7ff      	b.n	4f6 <_ZN3app11app_network16send_sensor_data17ha00b395570ee48dfE+0x4f6>
 4f6:	a88d      	add	r0, sp, #564	; 0x234
/Users/Luppy/mynewt/stm32bluepill-mynewt-sensor/rust/app/src/app_network.rs:99
    sensor_network::do_server_post() ? ;
 4f8:	f7ff fffe 	bl	0 <_ZN6mynewt4libs14sensor_network14do_server_post17h7661fb0cf0ad1a96E>
 4fc:	e7ff      	b.n	4fe <_ZN3app11app_network16send_sensor_data17ha00b395570ee48dfE+0x4fe>
 4fe:	a88b      	add	r0, sp, #556	; 0x22c
 500:	a98d      	add	r1, sp, #564	; 0x234
 502:	f7ff fffe 	bl	0 <_ZN73_$LT$core..result..Result$LT$T$C$E$GT$$u20$as$u20$core..ops..try..Try$GT$11into_result17h2b975e1f9ec08585E>
 506:	e7ff      	b.n	508 <_ZN3app11app_network16send_sensor_data17ha00b395570ee48dfE+0x508>
 508:	f89d 022c 	ldrb.w	r0, [sp, #556]	; 0x22c
 50c:	07c1      	lsls	r1, r0, #31
 50e:	2900      	cmp	r1, #0
 510:	9003      	str	r0, [sp, #12]
 512:	d012      	beq.n	53a <_ZN3app11app_network16send_sensor_data17ha00b395570ee48dfE+0x53a>
 514:	e7ff      	b.n	516 <_ZN3app11app_network16send_sensor_data17ha00b395570ee48dfE+0x516>
 516:	9803      	ldr	r0, [sp, #12]
 518:	2801      	cmp	r0, #1
 51a:	f47f ad92 	bne.w	42 <_ZN3app11app_network16send_sensor_data17ha00b395570ee48dfE+0x42>
 51e:	e7ff      	b.n	520 <_ZN3app11app_network16send_sensor_data17ha00b395570ee48dfE+0x520>
 520:	988c      	ldr	r0, [sp, #560]	; 0x230
 522:	908f      	str	r0, [sp, #572]	; 0x23c
 524:	988f      	ldr	r0, [sp, #572]	; 0x23c
 526:	f7ff fffe 	bl	0 <_ZN50_$LT$T$u20$as$u20$core..convert..From$LT$T$GT$$GT$4from17h4bfa181a78946fa0E>
 52a:	9002      	str	r0, [sp, #8]
 52c:	e7ff      	b.n	52e <_ZN3app11app_network16send_sensor_data17ha00b395570ee48dfE+0x52e>
 52e:	9802      	ldr	r0, [sp, #8]
 530:	f7ff fffe 	bl	0 <_ZN73_$LT$core..result..Result$LT$T$C$E$GT$$u20$as$u20$core..ops..try..Try$GT$10from_error17h6d3955e1a79eef94E>
 534:	902b      	str	r0, [sp, #172]	; 0xac
 536:	e7ff      	b.n	538 <_ZN3app11app_network16send_sensor_data17ha00b395570ee48dfE+0x538>
 538:	e605      	b.n	146 <_ZN3app11app_network16send_sensor_data17ha00b395570ee48dfE+0x146>
 53a:	f89d 022d 	ldrb.w	r0, [sp, #557]	; 0x22d
 53e:	f88d 0243 	strb.w	r0, [sp, #579]	; 0x243
/Users/Luppy/mynewt/stm32bluepill-mynewt-sensor/rust/app/src/app_network.rs:102
    console::print("NET view your sensor at \nhttps://blue-pill-geolocate.appspot.com?device=");
 542:	f240 0000 	movw	r0, #0
 546:	f2c0 0000 	movt	r0, #0
 54a:	2148      	movs	r1, #72	; 0x48
 54c:	f7ff fffe 	bl	0 <_ZN6mynewt3sys7console5print17h0f65bc3b0e739871E>
 550:	e7ff      	b.n	552 <_ZN3app11app_network16send_sensor_data17ha00b395570ee48dfE+0x552>
 552:	a82c      	add	r0, sp, #176	; 0xb0
/Users/Luppy/mynewt/stm32bluepill-mynewt-sensor/rust/app/src/app_network.rs:103
    console::print_strn(&device_id); console::print("\n");
 554:	f7ff fffe 	bl	0 <_ZN6mynewt3sys7console10print_strn17h6acf88a32c052588E>
 558:	e7ff      	b.n	2 <_ZN3app11app_network16send_sensor_data17ha00b395570ee48dfE+0x2>
 55a:	f240 0000 	movw	r0, #0
 55e:	f2c0 0000 	movt	r0, #0
 562:	2101      	movs	r1, #1
 564:	f7ff fffe 	bl	0 <_ZN6mynewt3sys7console5print17h0f65bc3b0e739871E>
 568:	e7ff      	b.n	56a <_ZN3app11app_network16send_sensor_data17ha00b395570ee48dfE+0x56a>
 56a:	2000      	movs	r0, #0
/Users/Luppy/mynewt/stm32bluepill-mynewt-sensor/rust/app/src/app_network.rs:106
    Ok(())
 56c:	902b      	str	r0, [sp, #172]	; 0xac
 56e:	2001      	movs	r0, #1
 570:	902b      	str	r0, [sp, #172]	; 0xac
/Users/Luppy/mynewt/stm32bluepill-mynewt-sensor/rust/app/src/app_network.rs:107
}
 572:	e574      	b.n	5e <_ZN3app11app_network16send_sensor_data17ha00b395570ee48dfE+0x5e>

app-b90ce02d7e477c3f.387fyplfnkxh0j64.rcgu.o:     file format elf32-littlearm

SYMBOL TABLE:
00000000 l    df *ABS*	00000000 387fyplfnkxh0j64
000001cb l       .debug_str	00000000 
00000000 l       .debug_str	00000000 
00000041 l       .debug_str	00000000 
00000055 l       .debug_str	00000000 
00000085 l       .debug_str	00000000 
0000008c l       .debug_str	00000000 
00000093 l       .debug_str	00000000 
00000097 l       .debug_str	00000000 
0000009f l       .debug_str	00000000 
000000aa l       .debug_str	00000000 
000000b5 l       .debug_str	00000000 
000000c2 l       .debug_str	00000000 
000001ed l       .debug_str	00000000 
000000cd l       .debug_str	00000000 
000000d5 l       .debug_str	00000000 
000000e0 l       .debug_str	00000000 
000000eb l       .debug_str	00000000 
000000f5 l       .debug_str	00000000 
00000100 l       .debug_str	00000000 
0000010b l       .debug_str	00000000 
00000118 l       .debug_str	00000000 
00000124 l       .debug_str	00000000 
00000131 l       .debug_str	00000000 
0000013f l       .debug_str	00000000 
00000149 l       .debug_str	00000000 
00000156 l       .debug_str	00000000 
00000162 l       .debug_str	00000000 
00000167 l       .debug_str	00000000 
0000016f l       .debug_str	00000000 
00000178 l       .debug_str	00000000 
0000017a l       .debug_str	00000000 
00000000 l    d  .text._ZN50_$LT$T$u20$as$u20$core..convert..From$LT$T$GT$$GT$4from17h4bfa181a78946fa0E	00000000 .text._ZN50_$LT$T$u20$as$u20$core..convert..From$LT$T$GT$$GT$4from17h4bfa181a78946fa0E
00000000 l    d  .debug_abbrev	00000000 .debug_abbrev
00000000 l    d  .debug_info	00000000 .debug_info
00000000 l    d  .debug_frame	00000000 .debug_frame
00000000 l    d  .debug_line	00000000 .debug_line
00000000 g     F .text._ZN50_$LT$T$u20$as$u20$core..convert..From$LT$T$GT$$GT$4from17h4bfa181a78946fa0E	0000000e _ZN50_$LT$T$u20$as$u20$core..convert..From$LT$T$GT$$GT$4from17h4bfa181a78946fa0E



Disassembly of section .text._ZN50_$LT$T$u20$as$u20$core..convert..From$LT$T$GT$$GT$4from17h4bfa181a78946fa0E:

00000000 <_ZN50_$LT$T$u20$as$u20$core..convert..From$LT$T$GT$$GT$4from17h4bfa181a78946fa0E>:
_ZN50_$LT$T$u20$as$u20$core..convert..From$LT$T$GT$$GT$4from17h4bfa181a78946fa0E():
/rustc/50a0defd5a93523067ef239936cc2e0755220904/src/libcore/convert.rs:547
   0:	b082      	sub	sp, #8
   2:	4601      	mov	r1, r0
   4:	9001      	str	r0, [sp, #4]
   6:	9801      	ldr	r0, [sp, #4]
   8:	9100      	str	r1, [sp, #0]
   a:	b002      	add	sp, #8
   c:	4770      	bx	lr

app-b90ce02d7e477c3f.4dkwsijwq614g9b5.rcgu.o:     file format elf32-littlearm

SYMBOL TABLE:
00000000 l    df *ABS*	00000000 4dkwsijwq614g9b5
000000e4 l       .debug_str	00000000 
000000ec l       .debug_str	00000000 
000000f1 l       .debug_str	00000000 
00000000 l       .debug_str	00000000 
00000041 l       .debug_str	00000000 
00000055 l       .debug_str	00000000 
00000085 l       .debug_str	00000000 
00000089 l       .debug_str	00000000 
00000094 l       .debug_str	00000000 
0000009f l       .debug_str	00000000 
000000a6 l       .debug_str	00000000 
000000aa l       .debug_str	00000000 
000000ad l       .debug_str	00000000 
000000b5 l       .debug_str	00000000 
000000b9 l       .debug_str	00000000 
000000c2 l       .debug_str	00000000 
000000cc l       .debug_str	00000000 
000000d3 l       .debug_str	00000000 
000000d9 l       .debug_str	00000000 
000000df l       .debug_str	00000000 
00000000 l     O .rodata._ZN3app10gps_sensor10GPS_DEVICE17h9632919ea1cd25c6E	0000000c _ZN3app10gps_sensor10GPS_DEVICE17h9632919ea1cd25c6E
00000000 l    d  .rodata..Lanon.d41d8cd98f00b204e9800998ecf8427e.0	00000000 .rodata..Lanon.d41d8cd98f00b204e9800998ecf8427e.0
00000000 l    d  .rodata._ZN3app10gps_sensor10GPS_DEVICE17h9632919ea1cd25c6E	00000000 .rodata._ZN3app10gps_sensor10GPS_DEVICE17h9632919ea1cd25c6E
00000000 l    d  .debug_abbrev	00000000 .debug_abbrev
00000000 l    d  .debug_info	00000000 .debug_info
00000000 l    d  .debug_line	00000000 .debug_line



app-b90ce02d7e477c3f.4q9qovk8rqwaqec4.rcgu.o:     file format elf32-littlearm

SYMBOL TABLE:
00000000 l    df *ABS*	00000000 4q9qovk8rqwaqec4
00000340 l       .debug_str	00000000 
000003b5 l       .debug_str	00000000 
000003d1 l       .debug_str	00000000 
000003db l       .debug_str	00000000 
000003f5 l       .debug_str	00000000 
00000453 l       .debug_str	00000000 
0000045e l       .debug_str	00000000 
0000047b l       .debug_str	00000000 
00000494 l       .debug_str	00000000 
0000049e l       .debug_str	00000000 
000004b4 l       .debug_str	00000000 
000004d2 l       .debug_str	00000000 
000004db l       .debug_str	00000000 
000004e0 l       .debug_str	00000000 
000004e5 l       .debug_str	00000000 
000004e9 l       .debug_str	00000000 
000004f2 l       .debug_str	00000000 
000004fc l       .debug_str	00000000 
00000514 l       .debug_str	00000000 
00000000 l       .debug_str	00000000 
00000041 l       .debug_str	00000000 
00000055 l       .debug_str	00000000 
00000085 l       .debug_str	00000000 
0000008a l       .debug_str	00000000 
0000008e l       .debug_str	00000000 
00000091 l       .debug_str	00000000 
00000094 l       .debug_str	00000000 
00000097 l       .debug_str	00000000 
0000009c l       .debug_str	00000000 
000000a2 l       .debug_str	00000000 
000000a9 l       .debug_str	00000000 
000000b1 l       .debug_str	00000000 
000000bb l       .debug_str	00000000 
000000c2 l       .debug_str	00000000 
000000c5 l       .debug_str	00000000 
000000c9 l       .debug_str	00000000 
000000d0 l       .debug_str	00000000 
000000d4 l       .debug_str	00000000 
000000dd l       .debug_str	00000000 
000000e1 l       .debug_str	00000000 
0000010b l       .debug_str	00000000 
00000110 l       .debug_str	00000000 
00000115 l       .debug_str	00000000 
00000117 l       .debug_str	00000000 
00000129 l       .debug_str	00000000 
0000012f l       .debug_str	00000000 
00000134 l       .debug_str	00000000 
0000013c l       .debug_str	00000000 
00000140 l       .debug_str	00000000 
00000148 l       .debug_str	00000000 
00000150 l       .debug_str	00000000 
00000157 l       .debug_str	00000000 
0000015d l       .debug_str	00000000 
00000171 l       .debug_str	00000000 
0000017d l       .debug_str	00000000 
00000182 l       .debug_str	00000000 
0000018a l       .debug_str	00000000 
00000191 l       .debug_str	00000000 
00000195 l       .debug_str	00000000 
0000019a l       .debug_str	00000000 
000001a1 l       .debug_str	00000000 
000001aa l       .debug_str	00000000 
000001b4 l       .debug_str	00000000 
000001bb l       .debug_str	00000000 
000001c0 l       .debug_str	00000000 
000001cc l       .debug_str	00000000 
000001d4 l       .debug_str	00000000 
000001dd l       .debug_str	00000000 
000001e2 l       .debug_str	00000000 
000001e5 l       .debug_str	00000000 
000001e9 l       .debug_str	00000000 
000001f2 l       .debug_str	00000000 
000001f9 l       .debug_str	00000000 
000001fe l       .debug_str	00000000 
00000203 l       .debug_str	00000000 
00000209 l       .debug_str	00000000 
0000020f l       .debug_str	00000000 
00000219 l       .debug_str	00000000 
0000021c l       .debug_str	00000000 
00000222 l       .debug_str	00000000 
0000022c l       .debug_str	00000000 
00000234 l       .debug_str	00000000 
0000023a l       .debug_str	00000000 
00000240 l       .debug_str	00000000 
0000024b l       .debug_str	00000000 
00000254 l       .debug_str	00000000 
00000277 l       .debug_str	00000000 
00000296 l       .debug_str	00000000 
00000298 l       .debug_str	00000000 
0000029d l       .debug_str	00000000 
000002c4 l       .debug_str	00000000 
000002c9 l       .debug_str	00000000 
000002cf l       .debug_str	00000000 
000002d5 l       .debug_str	00000000 
000002d8 l       .debug_str	00000000 
000002e7 l       .debug_str	00000000 
000002ee l       .debug_str	00000000 
000002f2 l       .debug_str	00000000 
000002fb l       .debug_str	00000000 
00000307 l       .debug_str	00000000 
00000320 l       .debug_str	00000000 
00000325 l       .debug_str	00000000 
00000336 l       .debug_str	00000000 
0000034e l       .debug_str	00000000 
00000352 l       .debug_str	00000000 
0000035d l       .debug_str	00000000 
00000364 l       .debug_str	00000000 
0000036a l       .debug_str	00000000 
0000036e l       .debug_str	00000000 
00000372 l       .debug_str	00000000 
0000037a l       .debug_str	00000000 
00000391 l       .debug_str	00000000 
00000000 l     O .rodata.cst8	00000008 .Lanon.3ed011473997af99b525cde47c9eaaac.0
00000008 l     O .rodata.cst8	00000008 .Lanon.3ed011473997af99b525cde47c9eaaac.1
00000010 l     O .rodata.cst8	00000008 .Lanon.3ed011473997af99b525cde47c9eaaac.2
00000018 l     O .rodata.cst8	00000008 .Lanon.3ed011473997af99b525cde47c9eaaac.3
00000000 l     O .rodata..Lanon.3ed011473997af99b525cde47c9eaaac.4	00000006 .Lanon.3ed011473997af99b525cde47c9eaaac.4
00000000 l     O .rodata..Lanon.3ed011473997af99b525cde47c9eaaac.5	00000007 .Lanon.3ed011473997af99b525cde47c9eaaac.5
00000000 l     O .rodata..Lanon.3ed011473997af99b525cde47c9eaaac.6	00000003 .Lanon.3ed011473997af99b525cde47c9eaaac.6
00000020 l     O .rodata.cst8	00000008 .Lanon.3ed011473997af99b525cde47c9eaaac.7
00000000 l     O .rodata..Lanon.3ed011473997af99b525cde47c9eaaac.8	00000001 .Lanon.3ed011473997af99b525cde47c9eaaac.8
00000000 l    d  .text.main	00000000 .text.main
00000000 l    d  .text.rust_begin_unwind	00000000 .text.rust_begin_unwind
00000000 l    d  .debug_abbrev	00000000 .debug_abbrev
00000000 l    d  .debug_info	00000000 .debug_info
00000000 l    d  .debug_ranges	00000000 .debug_ranges
00000000 l    d  .debug_frame	00000000 .debug_frame
00000000 l    d  .debug_line	00000000 .debug_line
00000000         *UND*	00000000 .hidden _ZN3app10app_sensor21start_sensor_listener17h09088494e967a630E
00000000         *UND*	00000000 _ZN4core5panic8Location4file17h94cc6af18de736c4E
00000000         *UND*	00000000 _ZN4core5panic8Location4line17h3ffc63f14d0a6636E
00000000         *UND*	00000000 _ZN4core5panic9PanicInfo8location17h5226165d8771f8a2E
00000000         *UND*	00000000 _ZN4core6result19Result$LT$T$C$E$GT$6expect17h3575f9da53226836E
00000000         *UND*	00000000 _ZN4core6result19Result$LT$T$C$E$GT$6expect17h971a4fb20f73df2aE
00000000         *UND*	00000000 _ZN6mynewt3sys7console5flush17h498d792c115b7281E
00000000         *UND*	00000000 _ZN6mynewt3sys7console5print17h0f65bc3b0e739871E
00000000         *UND*	00000000 _ZN6mynewt3sys7console6buffer17h937c567b6e383806E
00000000         *UND*	00000000 _ZN6mynewt3sys7console8printhex17hd3f3435631f42d4dE
00000000         *UND*	00000000 _ZN6mynewt4libs14sensor_network22start_server_transport17h71bbe1fb61876184E
00000000         *UND*	00000000 _ZN6mynewt6kernel2os10eventq_run17h35180d98e8e522beE
00000000         *UND*	00000000 _ZN6mynewt6kernel2os15eventq_dflt_get17hfdc26cb533694dccE
00000000         *UND*	00000000 _ZN6mynewt7sysinit17hfbb6001f0140a448E
00000000 g     F .text.main	00000078 main
00000000 g     F .text.rust_begin_unwind	000000ac rust_begin_unwind



Disassembly of section .text.main:

00000000 <main>:
main():
/Users/Luppy/mynewt/stm32bluepill-mynewt-sensor/rust/app/src/lib.rs:50
};

///  Main program that initialises the sensor, network driver and starts reading and sending sensor data in the background.
///  main() will be called at Mynewt startup. It replaces the C version of the main() function.
#[no_mangle]                 //  Don't mangle the name "main"
extern "C" fn main() -> ! {  //  Declare extern "C" because it will be called by Mynewt
   0:	b086      	sub	sp, #24
/Users/Luppy/mynewt/stm32bluepill-mynewt-sensor/rust/app/src/lib.rs:56
    //  Initialise the Mynewt packages and Blue Pill internal temperature sensor driver.
    //  Start the CoAP / OIC Background Task to transmit CoAP messages.  Any startup
    //  functions defined in pkg.yml of our custom drivers and libraries will be called by 
    //  sysinit().  Here are the startup functions consolidated by Mynewt:
    //  bin/targets/bluepill_my_sensor/generated/src/bluepill_my_sensor-sysinit-app.c
    mynewt::sysinit();
   2:	f7ff fffe 	bl	0 <_ZN6mynewt7sysinit17hfbb6001f0140a448E>
   6:	e7ff      	b.n	2 <_ZN6mynewt4libs14sensor_network22start_server_transport17h71bbe1fb61876184E+0x2>
/Users/Luppy/mynewt/stm32bluepill-mynewt-sensor/rust/app/src/lib.rs:59

    //  Start the Server Transport for sending sensor data to CoAP Server over NB-IoT.
    sensor_network::start_server_transport()
   8:	f7ff fffe 	bl	0 <_ZN6mynewt4libs14sensor_network22start_server_transport17h71bbe1fb61876184E>
   c:	9003      	str	r0, [sp, #12]
   e:	e7ff      	b.n	10 <main+0x10>
  10:	f240 0100 	movw	r1, #0
  14:	f2c0 0100 	movt	r1, #0
  18:	2208      	movs	r2, #8
  1a:	9803      	ldr	r0, [sp, #12]
  1c:	f7ff fffe 	bl	0 <_ZN4core6result19Result$LT$T$C$E$GT$6expect17h3575f9da53226836E>
  20:	e7ff      	b.n	2 <_ZN3app10app_sensor21start_sensor_listener17h09088494e967a630E+0x2>
/Users/Luppy/mynewt/stm32bluepill-mynewt-sensor/rust/app/src/lib.rs:64
        .expect("NET fail");

    //  Start polling the temperature sensor every 10 seconds in the background.
    //  If this is a standby wakeup, the server transport must already be started.
    app_sensor::start_sensor_listener()
  22:	f7ff fffe 	bl	0 <_ZN3app10app_sensor21start_sensor_listener17h09088494e967a630E>
  26:	9002      	str	r0, [sp, #8]
  28:	e7ff      	b.n	2a <main+0x2a>
  2a:	f240 0100 	movw	r1, #0
  2e:	f2c0 0100 	movt	r1, #0
  32:	2208      	movs	r2, #8
  34:	9802      	ldr	r0, [sp, #8]
  36:	f7ff fffe 	bl	0 <_ZN4core6result19Result$LT$T$C$E$GT$6expect17h3575f9da53226836E>
  3a:	e7ff      	b.n	3c <main+0x3c>
/Users/Luppy/mynewt/stm32bluepill-mynewt-sensor/rust/app/src/lib.rs:80
    gps_sensor::start_gps_listener()
        .expect("GPS fail");
*/

    //  Main event loop
    loop {                            //  Loop forever...
  3c:	e7ff      	b.n	3e <main+0x3e>
  3e:	a804      	add	r0, sp, #16
/Users/Luppy/mynewt/stm32bluepill-mynewt-sensor/rust/app/src/lib.rs:82
        os::eventq_run(               //  Processing events...
            os::eventq_dflt_get()     //  From default event queue.
  40:	f7ff fffe 	bl	0 <_ZN6mynewt6kernel2os15eventq_dflt_get17hfdc26cb533694dccE>
  44:	e7ff      	b.n	12 <main+0x12>
  46:	f240 0100 	movw	r1, #0
  4a:	f2c0 0100 	movt	r1, #0
  4e:	a804      	add	r0, sp, #16
  50:	2208      	movs	r2, #8
  52:	f7ff fffe 	bl	0 <_ZN4core6result19Result$LT$T$C$E$GT$6expect17h971a4fb20f73df2aE>
  56:	9001      	str	r0, [sp, #4]
  58:	e7ff      	b.n	5a <main+0x5a>
/Users/Luppy/mynewt/stm32bluepill-mynewt-sensor/rust/app/src/lib.rs:81
        os::eventq_run(               //  Processing events...
  5a:	9801      	ldr	r0, [sp, #4]
  5c:	f7ff fffe 	bl	0 <_ZN6mynewt6kernel2os10eventq_run17h35180d98e8e522beE>
  60:	9000      	str	r0, [sp, #0]
  62:	e7ff      	b.n	64 <main+0x64>
  64:	f240 0100 	movw	r1, #0
  68:	f2c0 0100 	movt	r1, #0
  6c:	2208      	movs	r2, #8
  6e:	9800      	ldr	r0, [sp, #0]
  70:	f7ff fffe 	bl	0 <_ZN4core6result19Result$LT$T$C$E$GT$6expect17h3575f9da53226836E>
  74:	e7ff      	b.n	76 <main+0x76>
/Users/Luppy/mynewt/stm32bluepill-mynewt-sensor/rust/app/src/lib.rs:80
    loop {                            //  Loop forever...
  76:	e7e2      	b.n	3e <main+0x3e>

Disassembly of section .text.rust_begin_unwind:

00000000 <rust_begin_unwind>:
rust_begin_unwind():
/Users/Luppy/mynewt/stm32bluepill-mynewt-sensor/rust/app/src/lib.rs:91
    //  Never comes here
}

///  This function is called on panic, like an assertion failure. We display the filename and line number and pause in the debugger. From https://os.phil-opp.com/freestanding-rust-binary/
#[panic_handler]
fn panic(info: &PanicInfo) -> ! {
   0:	b088      	sub	sp, #32
   2:	4601      	mov	r1, r0
   4:	9002      	str	r0, [sp, #8]
/Users/Luppy/mynewt/stm32bluepill-mynewt-sensor/rust/app/src/lib.rs:93
    //  Display the filename and line number to the Semihosting Console.
    console::print("panic ");
   6:	f240 0000 	movw	r0, #0
   a:	f2c0 0000 	movt	r0, #0
   e:	2206      	movs	r2, #6
  10:	9101      	str	r1, [sp, #4]
  12:	4611      	mov	r1, r2
  14:	f7ff fffe 	bl	0 <_ZN6mynewt3sys7console5print17h0f65bc3b0e739871E>
  18:	e7ff      	b.n	1a <rust_begin_unwind+0x1a>
/Users/Luppy/mynewt/stm32bluepill-mynewt-sensor/rust/app/src/lib.rs:94
    if let Some(location) = info.location() {
  1a:	9802      	ldr	r0, [sp, #8]
  1c:	f7ff fffe 	bl	0 <_ZN4core5panic9PanicInfo8location17h5226165d8771f8a2E>
  20:	9003      	str	r0, [sp, #12]
  22:	e7ff      	b.n	24 <rust_begin_unwind+0x24>
  24:	9803      	ldr	r0, [sp, #12]
  26:	2800      	cmp	r0, #0
  28:	d032      	beq.n	90 <rust_begin_unwind+0x90>
  2a:	e7ff      	b.n	2c <rust_begin_unwind+0x2c>
  2c:	9803      	ldr	r0, [sp, #12]
  2e:	9004      	str	r0, [sp, #16]
/Users/Luppy/mynewt/stm32bluepill-mynewt-sensor/rust/app/src/lib.rs:95
        let file = location.file();
  30:	9804      	ldr	r0, [sp, #16]
  32:	f7ff fffe 	bl	0 <_ZN4core5panic8Location4file17h94cc6af18de736c4E>
  36:	9106      	str	r1, [sp, #24]
  38:	9005      	str	r0, [sp, #20]
  3a:	e7ff      	b.n	3c <rust_begin_unwind+0x3c>
/Users/Luppy/mynewt/stm32bluepill-mynewt-sensor/rust/app/src/lib.rs:96
        let line = location.line();
  3c:	9804      	ldr	r0, [sp, #16]
  3e:	f7ff fffe 	bl	0 <_ZN4core5panic8Location4line17h3ffc63f14d0a6636E>
  42:	9007      	str	r0, [sp, #28]
  44:	e7ff      	b.n	46 <rust_begin_unwind+0x46>
/Users/Luppy/mynewt/stm32bluepill-mynewt-sensor/rust/app/src/lib.rs:97
        console::print("at ");        console::buffer(&file);
  46:	f240 0000 	movw	r0, #0
  4a:	f2c0 0000 	movt	r0, #0
  4e:	2103      	movs	r1, #3
  50:	f7ff fffe 	bl	0 <_ZN6mynewt3sys7console5print17h0f65bc3b0e739871E>
  54:	e7ff      	b.n	56 <rust_begin_unwind+0x56>
  56:	9805      	ldr	r0, [sp, #20]
  58:	9906      	ldr	r1, [sp, #24]
  5a:	f7ff fffe 	bl	0 <_ZN6mynewt3sys7console6buffer17h937c567b6e383806E>
  5e:	e7ff      	b.n	22 <rust_begin_unwind+0x22>
/Users/Luppy/mynewt/stm32bluepill-mynewt-sensor/rust/app/src/lib.rs:98
        console::print(" line 0x");   console::printhex(line as u8);  //  TODO: Print in decimal not hex. Allow more than 255 lines.
  60:	f240 0000 	movw	r0, #0
  64:	f2c0 0000 	movt	r0, #0
  68:	2108      	movs	r1, #8
  6a:	f7ff fffe 	bl	0 <_ZN6mynewt3sys7console5print17h0f65bc3b0e739871E>
  6e:	e7ff      	b.n	70 <rust_begin_unwind+0x70>
  70:	9807      	ldr	r0, [sp, #28]
  72:	f7ff fffe 	bl	0 <_ZN6mynewt3sys7console8printhex17hd3f3435631f42d4dE>
  76:	e7ff      	b.n	2 <rust_begin_unwind+0x2>
/Users/Luppy/mynewt/stm32bluepill-mynewt-sensor/rust/app/src/lib.rs:99
        console::print("\n");         console::flush();
  78:	f240 0000 	movw	r0, #0
  7c:	f2c0 0000 	movt	r0, #0
  80:	2101      	movs	r1, #1
  82:	f7ff fffe 	bl	0 <_ZN6mynewt3sys7console5print17h0f65bc3b0e739871E>
  86:	e7ff      	b.n	2 <_ZN6mynewt3sys7console5flush17h498d792c115b7281E+0x2>
  88:	f7ff fffe 	bl	0 <_ZN6mynewt3sys7console5flush17h498d792c115b7281E>
  8c:	e7ff      	b.n	8e <rust_begin_unwind+0x8e>
/Users/Luppy/mynewt/stm32bluepill-mynewt-sensor/rust/app/src/lib.rs:94
    if let Some(location) = info.location() {
  8e:	e00a      	b.n	a6 <rust_begin_unwind+0xa6>
/Users/Luppy/mynewt/stm32bluepill-mynewt-sensor/rust/app/src/lib.rs:101
    } else {
        console::print("no loc\n");   console::flush();
  90:	f240 0000 	movw	r0, #0
  94:	f2c0 0000 	movt	r0, #0
  98:	2107      	movs	r1, #7
  9a:	f7ff fffe 	bl	0 <_ZN6mynewt3sys7console5print17h0f65bc3b0e739871E>
  9e:	e7ff      	b.n	2 <_ZN6mynewt3sys7console5flush17h498d792c115b7281E+0x2>
  a0:	f7ff fffe 	bl	0 <_ZN6mynewt3sys7console5flush17h498d792c115b7281E>
  a4:	e7ff      	b.n	a6 <rust_begin_unwind+0xa6>
_ZN8cortex_m3asm4bkpt17h5534896ca3f3f8ebE():
/Users/Luppy/.cargo/registry/src/github.com-1ecc6299db9ec823/cortex-m-0.6.1/src/asm.rs:11
/// exception.
#[inline(always)]
pub fn bkpt() {
    match () {
        #[cfg(all(cortex_m, feature = "inline-asm"))]
        () => unsafe { asm!("bkpt" :::: "volatile") },
  a6:	be00      	bkpt	0x0000
rust_begin_unwind():
/Users/Luppy/mynewt/stm32bluepill-mynewt-sensor/rust/app/src/lib.rs:104
    }
    //  Pause in the debugger.
    bkpt();
  a8:	e7ff      	b.n	aa <rust_begin_unwind+0xaa>
/Users/Luppy/mynewt/stm32bluepill-mynewt-sensor/rust/app/src/lib.rs:106
    //  Loop forever so that device won't restart.
    loop {}
  aa:	e7fe      	b.n	aa <rust_begin_unwind+0xaa>

app-b90ce02d7e477c3f.d6w4n297npb5pfx.rcgu.o:     file format elf32-littlearm

SYMBOL TABLE:
00000000 l    df *ABS*	00000000 d6w4n297npb5pfx
00001fa8 l       .debug_str	00000000 
00002898 l       .debug_str	00000000 
0000289c l       .debug_str	00000000 
000028a4 l       .debug_str	00000000 
000028ad l       .debug_str	00000000 
000028b4 l       .debug_str	00000000 
000028ba l       .debug_str	00000000 
000028c0 l       .debug_str	00000000 
000028c5 l       .debug_str	00000000 
000028cd l       .debug_str	00000000 
000028d2 l       .debug_str	00000000 
00002942 l       .debug_str	00000000 
00002978 l       .debug_str	00000000 
000029aa l       .debug_str	00000000 
000029ae l       .debug_str	00000000 
000029b3 l       .debug_str	00000000 
000029b5 l       .debug_str	00000000 
000029b7 l       .debug_str	00000000 
000029bc l       .debug_str	00000000 
00000000 l       .debug_str	00000000 
00000041 l       .debug_str	00000000 
00000055 l       .debug_str	00000000 
00000085 l       .debug_str	00000000 
0000008a l       .debug_str	00000000 
0000008e l       .debug_str	00000000 
00000091 l       .debug_str	00000000 
0000009c l       .debug_str	00000000 
000000a7 l       .debug_str	00000000 
000000ae l       .debug_str	00000000 
000000b5 l       .debug_str	00000000 
000000bc l       .debug_str	00000000 
000000c0 l       .debug_str	00000000 
000000c8 l       .debug_str	00000000 
000000d3 l       .debug_str	00000000 
000000de l       .debug_str	00000000 
000000eb l       .debug_str	00000000 
000000f6 l       .debug_str	00000000 
000000fe l       .debug_str	00000000 
00000109 l       .debug_str	00000000 
00000114 l       .debug_str	00000000 
0000011e l       .debug_str	00000000 
00000129 l       .debug_str	00000000 
00000134 l       .debug_str	00000000 
00000141 l       .debug_str	00000000 
0000014d l       .debug_str	00000000 
0000015a l       .debug_str	00000000 
00000168 l       .debug_str	00000000 
00000172 l       .debug_str	00000000 
0000017f l       .debug_str	00000000 
0000018b l       .debug_str	00000000 
0000018f l       .debug_str	00000000 
00000192 l       .debug_str	00000000 
00000196 l       .debug_str	00000000 
0000019d l       .debug_str	00000000 
000001a0 l       .debug_str	00000000 
000001aa l       .debug_str	00000000 
000001b5 l       .debug_str	00000000 
000001be l       .debug_str	00000000 
000001c9 l       .debug_str	00000000 
000001d5 l       .debug_str	00000000 
000001d9 l       .debug_str	00000000 
000001e2 l       .debug_str	00000000 
000001e9 l       .debug_str	00000000 
000001f1 l       .debug_str	00000000 
000001f9 l       .debug_str	00000000 
00000203 l       .debug_str	00000000 
00000209 l       .debug_str	00000000 
00000210 l       .debug_str	00000000 
0000021a l       .debug_str	00000000 
00000221 l       .debug_str	00000000 
00000228 l       .debug_str	00000000 
0000022d l       .debug_str	00000000 
00000244 l       .debug_str	00000000 
00000271 l       .debug_str	00000000 
00000273 l       .debug_str	00000000 
00000278 l       .debug_str	00000000 
000002ad l       .debug_str	00000000 
000002b3 l       .debug_str	00000000 
000002b9 l       .debug_str	00000000 
000002c8 l       .debug_str	00000000 
000002d8 l       .debug_str	00000000 
000002e8 l       .debug_str	00000000 
000002f0 l       .debug_str	00000000 
00000319 l       .debug_str	00000000 
00000377 l       .debug_str	00000000 
000003dd l       .debug_str	00000000 
000003e4 l       .debug_str	00000000 
000003ec l       .debug_str	00000000 
000003f5 l       .debug_str	00000000 
00000413 l       .debug_str	00000000 
00000423 l       .debug_str	00000000 
00000431 l       .debug_str	00000000 
0000043c l       .debug_str	00000000 
00000449 l       .debug_str	00000000 
00000458 l       .debug_str	00000000 
00000462 l       .debug_str	00000000 
00000478 l       .debug_str	00000000 
00000482 l       .debug_str	00000000 
0000048b l       .debug_str	00000000 
00000494 l       .debug_str	00000000 
000004ba l       .debug_str	00000000 
000004d0 l       .debug_str	00000000 
000004db l       .debug_str	00000000 
000004f1 l       .debug_str	00000000 
000004f9 l       .debug_str	00000000 
0000051a l       .debug_str	00000000 
00000523 l       .debug_str	00000000 
0000052c l       .debug_str	00000000 
00000537 l       .debug_str	00000000 
00000541 l       .debug_str	00000000 
00000547 l       .debug_str	00000000 
0000057f l       .debug_str	00000000 
000005bf l       .debug_str	00000000 
000005c6 l       .debug_str	00000000 
000005ce l       .debug_str	00000000 
000005e5 l       .debug_str	00000000 
000005ee l       .debug_str	00000000 
00000610 l       .debug_str	00000000 
0000061a l       .debug_str	00000000 
00000641 l       .debug_str	00000000 
00000659 l       .debug_str	00000000 
00000663 l       .debug_str	00000000 
00000686 l       .debug_str	00000000 
00000688 l       .debug_str	00000000 
0000068c l       .debug_str	00000000 
000006d4 l       .debug_str	00000000 
000006dd l       .debug_str	00000000 
0000071d l       .debug_str	00000000 
00000764 l       .debug_str	00000000 
00000767 l       .debug_str	00000000 
000007d6 l       .debug_str	00000000 
00000801 l       .debug_str	00000000 
00000829 l       .debug_str	00000000 
00000899 l       .debug_str	00000000 
000008c5 l       .debug_str	00000000 
000008c8 l       .debug_str	00000000 
000008cf l       .debug_str	00000000 
000008d8 l       .debug_str	00000000 
000008de l       .debug_str	00000000 
000008ea l       .debug_str	00000000 
000008f2 l       .debug_str	00000000 
0000094c l       .debug_str	00000000 
000009ae l       .debug_str	00000000 
000009b9 l       .debug_str	00000000 
00000a00 l       .debug_str	00000000 
00000a4f l       .debug_str	00000000 
00000a59 l       .debug_str	00000000 
00000a96 l       .debug_str	00000000 
00000adb l       .debug_str	00000000 
00000ae4 l       .debug_str	00000000 
00000af4 l       .debug_str	00000000 
00000afc l       .debug_str	00000000 
00000b51 l       .debug_str	00000000 
00000bae l       .debug_str	00000000 
00000bba l       .debug_str	00000000 
00000bc3 l       .debug_str	00000000 
00000bcf l       .debug_str	00000000 
00000bdb l       .debug_str	00000000 
00000be4 l       .debug_str	00000000 
00000bec l       .debug_str	00000000 
00000bf4 l       .debug_str	00000000 
00000c09 l       .debug_str	00000000 
00000c10 l       .debug_str	00000000 
00000c30 l       .debug_str	00000000 
00000c37 l       .debug_str	00000000 
00000c3f l       .debug_str	00000000 
00000c49 l       .debug_str	00000000 
00000c60 l       .debug_str	00000000 
00000c65 l       .debug_str	00000000 
00000c6d l       .debug_str	00000000 
00000c76 l       .debug_str	00000000 
00000c7f l       .debug_str	00000000 
00000c88 l       .debug_str	00000000 
00000c90 l       .debug_str	00000000 
00000c94 l       .debug_str	00000000 
00000c9b l       .debug_str	00000000 
00000ca7 l       .debug_str	00000000 
00000cb2 l       .debug_str	00000000 
00000cba l       .debug_str	00000000 
00000cc2 l       .debug_str	00000000 
00000d3e l       .debug_str	00000000 
00000dc2 l       .debug_str	00000000 
00000ebe l       .debug_str	00000000 
00000fc2 l       .debug_str	00000000 
00000fd0 l       .debug_str	00000000 
00000fdb l       .debug_str	00000000 
00000fe5 l       .debug_str	00000000 
00000ff9 l       .debug_str	00000000 
00001004 l       .debug_str	00000000 
00001032 l       .debug_str	00000000 
000010ad l       .debug_str	00000000 
00001130 l       .debug_str	00000000 
0000113e l       .debug_str	00000000 
0000119d l       .debug_str	00000000 
00001204 l       .debug_str	00000000 
0000121a l       .debug_str	00000000 
0000122a l       .debug_str	00000000 
00001239 l       .debug_str	00000000 
0000123d l       .debug_str	00000000 
00001244 l       .debug_str	00000000 
0000124a l       .debug_str	00000000 
0000124e l       .debug_str	00000000 
00001254 l       .debug_str	00000000 
0000125a l       .debug_str	00000000 
00001266 l       .debug_str	00000000 
0000126e l       .debug_str	00000000 
00001274 l       .debug_str	00000000 
0000127c l       .debug_str	00000000 
00001282 l       .debug_str	00000000 
000012a5 l       .debug_str	00000000 
000012b5 l       .debug_str	00000000 
000012e8 l       .debug_str	00000000 
00001328 l       .debug_str	00000000 
00001370 l       .debug_str	00000000 
00001374 l       .debug_str	00000000 
0000137a l       .debug_str	00000000 
00001380 l       .debug_str	00000000 
00001386 l       .debug_str	00000000 
00001398 l       .debug_str	00000000 
000013cd l       .debug_str	00000000 
0000140f l       .debug_str	00000000 
00001459 l       .debug_str	00000000 
0000145d l       .debug_str	00000000 
00001463 l       .debug_str	00000000 
00001469 l       .debug_str	00000000 
0000146f l       .debug_str	00000000 
00001481 l       .debug_str	00000000 
000014b6 l       .debug_str	00000000 
000014f8 l       .debug_str	00000000 
00001542 l       .debug_str	00000000 
00001546 l       .debug_str	00000000 
0000154c l       .debug_str	00000000 
00001552 l       .debug_str	00000000 
00001558 l       .debug_str	00000000 
0000155e l       .debug_str	00000000 
0000156f l       .debug_str	00000000 
000015a3 l       .debug_str	00000000 
000015e4 l       .debug_str	00000000 
0000162d l       .debug_str	00000000 
00001632 l       .debug_str	00000000 
00001637 l       .debug_str	00000000 
0000163b l       .debug_str	00000000 
00001641 l       .debug_str	00000000 
00001647 l       .debug_str	00000000 
0000164d l       .debug_str	00000000 
0000165e l       .debug_str	00000000 
00001692 l       .debug_str	00000000 
000016d3 l       .debug_str	00000000 
0000171c l       .debug_str	00000000 
00001720 l       .debug_str	00000000 
00001729 l       .debug_str	00000000 
0000173a l       .debug_str	00000000 
0000176e l       .debug_str	00000000 
000017af l       .debug_str	00000000 
000017f8 l       .debug_str	00000000 
000017fd l       .debug_str	00000000 
00001801 l       .debug_str	00000000 
0000180a l       .debug_str	00000000 
00001811 l       .debug_str	00000000 
00001819 l       .debug_str	00000000 
0000182b l       .debug_str	00000000 
00001860 l       .debug_str	00000000 
000018a2 l       .debug_str	00000000 
000018ec l       .debug_str	00000000 
000018f0 l       .debug_str	00000000 
000018f6 l       .debug_str	00000000 
000018fc l       .debug_str	00000000 
00001902 l       .debug_str	00000000 
00001908 l       .debug_str	00000000 
00001910 l       .debug_str	00000000 
0000191e l       .debug_str	00000000 
0000192d l       .debug_str	00000000 
0000193e l       .debug_str	00000000 
00001949 l       .debug_str	00000000 
00001954 l       .debug_str	00000000 
0000195f l       .debug_str	00000000 
00001966 l       .debug_str	00000000 
00001989 l       .debug_str	00000000 
0000199b l       .debug_str	00000000 
000019d0 l       .debug_str	00000000 
00001a12 l       .debug_str	00000000 
00001a5c l       .debug_str	00000000 
00001a60 l       .debug_str	00000000 
00001a6a l       .debug_str	00000000 
00001a7c l       .debug_str	00000000 
00001ab1 l       .debug_str	00000000 
00001af3 l       .debug_str	00000000 
00001b3d l       .debug_str	00000000 
00001b42 l       .debug_str	00000000 
00001b4c l       .debug_str	00000000 
00001b5e l       .debug_str	00000000 
00001b93 l       .debug_str	00000000 
00001bd5 l       .debug_str	00000000 
00001c1f l       .debug_str	00000000 
00001c33 l       .debug_str	00000000 
00001c37 l       .debug_str	00000000 
00001c45 l       .debug_str	00000000 
00001c55 l       .debug_str	00000000 
00001c5e l       .debug_str	00000000 
00001c69 l       .debug_str	00000000 
00001c78 l       .debug_str	00000000 
00001c8d l       .debug_str	00000000 
00001cbe l       .debug_str	00000000 
00001d5b l       .debug_str	00000000 
00001e00 l       .debug_str	00000000 
00001e0b l       .debug_str	00000000 
00001e14 l       .debug_str	00000000 
00001e35 l       .debug_str	00000000 
00001e48 l       .debug_str	00000000 
00001e7e l       .debug_str	00000000 
00001f01 l       .debug_str	00000000 
00001f8c l       .debug_str	00000000 
00001ff4 l       .debug_str	00000000 
00002048 l       .debug_str	00000000 
00002065 l       .debug_str	00000000 
00002079 l       .debug_str	00000000 
000020c5 l       .debug_str	00000000 
00002119 l       .debug_str	00000000 
0000212f l       .debug_str	00000000 
00002143 l       .debug_str	00000000 
0000218a l       .debug_str	00000000 
000021d9 l       .debug_str	00000000 
000021e2 l       .debug_str	00000000 
000021f0 l       .debug_str	00000000 
00002221 l       .debug_str	00000000 
00002227 l       .debug_str	00000000 
0000222f l       .debug_str	00000000 
00002236 l       .debug_str	00000000 
0000223e l       .debug_str	00000000 
00002249 l       .debug_str	00000000 
00002251 l       .debug_str	00000000 
00002260 l       .debug_str	00000000 
00002264 l       .debug_str	00000000 
0000226f l       .debug_str	00000000 
0000227b l       .debug_str	00000000 
00002286 l       .debug_str	00000000 
00002297 l       .debug_str	00000000 
0000229d l       .debug_str	00000000 
000022a5 l       .debug_str	00000000 
000022ac l       .debug_str	00000000 
000022b6 l       .debug_str	00000000 
000022be l       .debug_str	00000000 
000022c6 l       .debug_str	00000000 
000022e8 l       .debug_str	00000000 
000022f3 l       .debug_str	00000000 
000022ff l       .debug_str	00000000 
00002307 l       .debug_str	00000000 
00002310 l       .debug_str	00000000 
0000231b l       .debug_str	00000000 
00002322 l       .debug_str	00000000 
0000232d l       .debug_str	00000000 
00002338 l       .debug_str	00000000 
00002348 l       .debug_str	00000000 
00002358 l       .debug_str	00000000 
00002367 l       .debug_str	00000000 
0000236f l       .debug_str	00000000 
00002376 l       .debug_str	00000000 
0000237e l       .debug_str	00000000 
0000239c l       .debug_str	00000000 
000023ac l       .debug_str	00000000 
000023df l       .debug_str	00000000 
000023f4 l       .debug_str	00000000 
000023fd l       .debug_str	00000000 
0000245a l       .debug_str	00000000 
000024bf l       .debug_str	00000000 
000024c9 l       .debug_str	00000000 
000024d9 l       .debug_str	00000000 
000024ee l       .debug_str	00000000 
000024f6 l       .debug_str	00000000 
0000255a l       .debug_str	00000000 
000025c6 l       .debug_str	00000000 
000025cd l       .debug_str	00000000 
000025d5 l       .debug_str	00000000 
000025f3 l       .debug_str	00000000 
00002603 l       .debug_str	00000000 
00002636 l       .debug_str	00000000 
0000264b l       .debug_str	00000000 
0000265e l       .debug_str	00000000 
00002673 l       .debug_str	00000000 
0000267a l       .debug_str	00000000 
0000268f l       .debug_str	00000000 
000026b9 l       .debug_str	00000000 
00002729 l       .debug_str	00000000 
0000277c l       .debug_str	00000000 
000027cb l       .debug_str	00000000 
000027d0 l       .debug_str	00000000 
00002840 l       .debug_str	00000000 
0000286e l       .debug_str	00000000 
00000000 l    d  .text._ZN4core6result19Result$LT$T$C$E$GT$6expect17h971a4fb20f73df2aE	00000000 .text._ZN4core6result19Result$LT$T$C$E$GT$6expect17h971a4fb20f73df2aE
00000000 l    d  .text._ZN73_$LT$core..result..Result$LT$T$C$E$GT$$u20$as$u20$core..ops..try..Try$GT$10from_error17h6d3955e1a79eef94E	00000000 .text._ZN73_$LT$core..result..Result$LT$T$C$E$GT$$u20$as$u20$core..ops..try..Try$GT$10from_error17h6d3955e1a79eef94E
00000000 l    d  .text._ZN73_$LT$core..result..Result$LT$T$C$E$GT$$u20$as$u20$core..ops..try..Try$GT$11into_result17h00bf1b57699326cfE	00000000 .text._ZN73_$LT$core..result..Result$LT$T$C$E$GT$$u20$as$u20$core..ops..try..Try$GT$11into_result17h00bf1b57699326cfE
00000000 l    d  .text._ZN73_$LT$core..result..Result$LT$T$C$E$GT$$u20$as$u20$core..ops..try..Try$GT$11into_result17h2548a31748257156E	00000000 .text._ZN73_$LT$core..result..Result$LT$T$C$E$GT$$u20$as$u20$core..ops..try..Try$GT$11into_result17h2548a31748257156E
00000000 l    d  .text._ZN73_$LT$core..result..Result$LT$T$C$E$GT$$u20$as$u20$core..ops..try..Try$GT$11into_result17h2b975e1f9ec08585E	00000000 .text._ZN73_$LT$core..result..Result$LT$T$C$E$GT$$u20$as$u20$core..ops..try..Try$GT$11into_result17h2b975e1f9ec08585E
00000000 l    d  .text._ZN73_$LT$core..result..Result$LT$T$C$E$GT$$u20$as$u20$core..ops..try..Try$GT$11into_result17h5fc8a869c255d083E	00000000 .text._ZN73_$LT$core..result..Result$LT$T$C$E$GT$$u20$as$u20$core..ops..try..Try$GT$11into_result17h5fc8a869c255d083E
00000000 l    d  .debug_loc	00000000 .debug_loc
00000000 l    d  .debug_abbrev	00000000 .debug_abbrev
00000000 l    d  .debug_info	00000000 .debug_info
00000000 l    d  .debug_ranges	00000000 .debug_ranges
00000000 l    d  .debug_frame	00000000 .debug_frame
00000000 l    d  .debug_line	00000000 .debug_line
00000000         *UND*	00000000 _ZN4core6result13unwrap_failed17hcd10af70e9ab946bE
00000000 g     F .text._ZN4core6result19Result$LT$T$C$E$GT$6expect17h971a4fb20f73df2aE	0000005a _ZN4core6result19Result$LT$T$C$E$GT$6expect17h971a4fb20f73df2aE
00000000 g     F .text._ZN73_$LT$core..result..Result$LT$T$C$E$GT$$u20$as$u20$core..ops..try..Try$GT$10from_error17h6d3955e1a79eef94E	00000012 _ZN73_$LT$core..result..Result$LT$T$C$E$GT$$u20$as$u20$core..ops..try..Try$GT$10from_error17h6d3955e1a79eef94E
00000000 g     F .text._ZN73_$LT$core..result..Result$LT$T$C$E$GT$$u20$as$u20$core..ops..try..Try$GT$11into_result17h00bf1b57699326cfE	0000000e _ZN73_$LT$core..result..Result$LT$T$C$E$GT$$u20$as$u20$core..ops..try..Try$GT$11into_result17h00bf1b57699326cfE
00000000 g     F .text._ZN73_$LT$core..result..Result$LT$T$C$E$GT$$u20$as$u20$core..ops..try..Try$GT$11into_result17h2548a31748257156E	0000001a _ZN73_$LT$core..result..Result$LT$T$C$E$GT$$u20$as$u20$core..ops..try..Try$GT$11into_result17h2548a31748257156E
00000000 g     F .text._ZN73_$LT$core..result..Result$LT$T$C$E$GT$$u20$as$u20$core..ops..try..Try$GT$11into_result17h2b975e1f9ec08585E	0000001a _ZN73_$LT$core..result..Result$LT$T$C$E$GT$$u20$as$u20$core..ops..try..Try$GT$11into_result17h2b975e1f9ec08585E
00000000 g     F .text._ZN73_$LT$core..result..Result$LT$T$C$E$GT$$u20$as$u20$core..ops..try..Try$GT$11into_result17h5fc8a869c255d083E	00000028 _ZN73_$LT$core..result..Result$LT$T$C$E$GT$$u20$as$u20$core..ops..try..Try$GT$11into_result17h5fc8a869c255d083E



Disassembly of section .text._ZN4core6result19Result$LT$T$C$E$GT$6expect17h971a4fb20f73df2aE:

00000000 <_ZN4core6result19Result$LT$T$C$E$GT$6expect17h971a4fb20f73df2aE>:
_ZN4core6result19Result$LT$T$C$E$GT$6expect17h971a4fb20f73df2aE():
/rustc/50a0defd5a93523067ef239936cc2e0755220904/src/libcore/result.rs:824
   0:	b580      	push	{r7, lr}
   2:	b08a      	sub	sp, #40	; 0x28
   4:	4613      	mov	r3, r2
   6:	468c      	mov	ip, r1
   8:	4686      	mov	lr, r0
   a:	9106      	str	r1, [sp, #24]
   c:	9207      	str	r2, [sp, #28]
/rustc/50a0defd5a93523067ef239936cc2e0755220904/src/libcore/result.rs:826
   e:	6800      	ldr	r0, [r0, #0]
  10:	2800      	cmp	r0, #0
  12:	9305      	str	r3, [sp, #20]
  14:	f8cd c010 	str.w	ip, [sp, #16]
  18:	f8cd e00c 	str.w	lr, [sp, #12]
  1c:	9002      	str	r0, [sp, #8]
  1e:	d005      	beq.n	2c <_ZN4core6result19Result$LT$T$C$E$GT$6expect17h971a4fb20f73df2aE+0x2c>
  20:	e7ff      	b.n	22 <_ZN4core6result19Result$LT$T$C$E$GT$6expect17h971a4fb20f73df2aE+0x22>
  22:	9802      	ldr	r0, [sp, #8]
  24:	2801      	cmp	r0, #1
  26:	d00b      	beq.n	40 <_ZN4core6result19Result$LT$T$C$E$GT$6expect17h971a4fb20f73df2aE+0x40>
  28:	e7ff      	b.n	2a <_ZN4core6result19Result$LT$T$C$E$GT$6expect17h971a4fb20f73df2aE+0x2a>
/rustc/50a0defd5a93523067ef239936cc2e0755220904/src/libcore/result.rs:829
  2a:	defe      	udf	#254	; 0xfe
/rustc/50a0defd5a93523067ef239936cc2e0755220904/src/libcore/result.rs:826
  2c:	9803      	ldr	r0, [sp, #12]
  2e:	6841      	ldr	r1, [r0, #4]
  30:	9108      	str	r1, [sp, #32]
  32:	9808      	ldr	r0, [sp, #32]
/rustc/50a0defd5a93523067ef239936cc2e0755220904/src/libcore/result.rs:829
  34:	9903      	ldr	r1, [sp, #12]
  36:	680a      	ldr	r2, [r1, #0]
  38:	2a00      	cmp	r2, #0
  3a:	9001      	str	r0, [sp, #4]
  3c:	d009      	beq.n	52 <_ZN4core6result19Result$LT$T$C$E$GT$6expect17h971a4fb20f73df2aE+0x52>
  3e:	e00b      	b.n	58 <_ZN4core6result19Result$LT$T$C$E$GT$6expect17h971a4fb20f73df2aE+0x58>
/rustc/50a0defd5a93523067ef239936cc2e0755220904/src/libcore/result.rs:827
  40:	9803      	ldr	r0, [sp, #12]
  42:	6841      	ldr	r1, [r0, #4]
  44:	9109      	str	r1, [sp, #36]	; 0x24
  46:	9806      	ldr	r0, [sp, #24]
  48:	9907      	ldr	r1, [sp, #28]
  4a:	9a09      	ldr	r2, [sp, #36]	; 0x24
  4c:	f7ff fffe 	bl	0 <_ZN4core6result13unwrap_failed17hcd10af70e9ab946bE>
  50:	defe      	udf	#254	; 0xfe
/rustc/50a0defd5a93523067ef239936cc2e0755220904/src/libcore/result.rs:829
  52:	9801      	ldr	r0, [sp, #4]
  54:	b00a      	add	sp, #40	; 0x28
  56:	bd80      	pop	{r7, pc}
  58:	e7fb      	b.n	52 <_ZN4core6result19Result$LT$T$C$E$GT$6expect17h971a4fb20f73df2aE+0x52>

Disassembly of section .text._ZN73_$LT$core..result..Result$LT$T$C$E$GT$$u20$as$u20$core..ops..try..Try$GT$10from_error17h6d3955e1a79eef94E:

00000000 <_ZN73_$LT$core..result..Result$LT$T$C$E$GT$$u20$as$u20$core..ops..try..Try$GT$10from_error17h6d3955e1a79eef94E>:
_ZN73_$LT$core..result..Result$LT$T$C$E$GT$$u20$as$u20$core..ops..try..Try$GT$10from_error17h6d3955e1a79eef94E():
/rustc/50a0defd5a93523067ef239936cc2e0755220904/src/libcore/result.rs:1292
   0:	b083      	sub	sp, #12
   2:	4601      	mov	r1, r0
   4:	9001      	str	r0, [sp, #4]
/rustc/50a0defd5a93523067ef239936cc2e0755220904/src/libcore/result.rs:1293
   6:	9801      	ldr	r0, [sp, #4]
   8:	9002      	str	r0, [sp, #8]
/rustc/50a0defd5a93523067ef239936cc2e0755220904/src/libcore/result.rs:1294
   a:	9802      	ldr	r0, [sp, #8]
   c:	9100      	str	r1, [sp, #0]
   e:	b003      	add	sp, #12
  10:	4770      	bx	lr

Disassembly of section .text._ZN73_$LT$core..result..Result$LT$T$C$E$GT$$u20$as$u20$core..ops..try..Try$GT$11into_result17h00bf1b57699326cfE:

00000000 <_ZN73_$LT$core..result..Result$LT$T$C$E$GT$$u20$as$u20$core..ops..try..Try$GT$11into_result17h00bf1b57699326cfE>:
_ZN73_$LT$core..result..Result$LT$T$C$E$GT$$u20$as$u20$core..ops..try..Try$GT$11into_result17h00bf1b57699326cfE():
/rustc/50a0defd5a93523067ef239936cc2e0755220904/src/libcore/result.rs:1282
   0:	b082      	sub	sp, #8
   2:	4601      	mov	r1, r0
   4:	9001      	str	r0, [sp, #4]
/rustc/50a0defd5a93523067ef239936cc2e0755220904/src/libcore/result.rs:1283
   6:	9801      	ldr	r0, [sp, #4]
/rustc/50a0defd5a93523067ef239936cc2e0755220904/src/libcore/result.rs:1284
   8:	9100      	str	r1, [sp, #0]
   a:	b002      	add	sp, #8
   c:	4770      	bx	lr

Disassembly of section .text._ZN73_$LT$core..result..Result$LT$T$C$E$GT$$u20$as$u20$core..ops..try..Try$GT$11into_result17h2548a31748257156E:

00000000 <_ZN73_$LT$core..result..Result$LT$T$C$E$GT$$u20$as$u20$core..ops..try..Try$GT$11into_result17h2548a31748257156E>:
_ZN73_$LT$core..result..Result$LT$T$C$E$GT$$u20$as$u20$core..ops..try..Try$GT$11into_result17h2548a31748257156E():
/rustc/50a0defd5a93523067ef239936cc2e0755220904/src/libcore/result.rs:1282
   0:	b082      	sub	sp, #8
   2:	460a      	mov	r2, r1
   4:	4603      	mov	r3, r0
/rustc/50a0defd5a93523067ef239936cc2e0755220904/src/libcore/result.rs:1283
   6:	f8d1 c000 	ldr.w	ip, [r1]
   a:	6849      	ldr	r1, [r1, #4]
   c:	6041      	str	r1, [r0, #4]
   e:	f8c0 c000 	str.w	ip, [r0]
/rustc/50a0defd5a93523067ef239936cc2e0755220904/src/libcore/result.rs:1284
  12:	9201      	str	r2, [sp, #4]
  14:	9300      	str	r3, [sp, #0]
  16:	b002      	add	sp, #8
  18:	4770      	bx	lr

Disassembly of section .text._ZN73_$LT$core..result..Result$LT$T$C$E$GT$$u20$as$u20$core..ops..try..Try$GT$11into_result17h2b975e1f9ec08585E:

00000000 <_ZN73_$LT$core..result..Result$LT$T$C$E$GT$$u20$as$u20$core..ops..try..Try$GT$11into_result17h2b975e1f9ec08585E>:
_ZN73_$LT$core..result..Result$LT$T$C$E$GT$$u20$as$u20$core..ops..try..Try$GT$11into_result17h2b975e1f9ec08585E():
/rustc/50a0defd5a93523067ef239936cc2e0755220904/src/libcore/result.rs:1282
   0:	b082      	sub	sp, #8
   2:	460a      	mov	r2, r1
   4:	4603      	mov	r3, r0
/rustc/50a0defd5a93523067ef239936cc2e0755220904/src/libcore/result.rs:1283
   6:	f8d1 c000 	ldr.w	ip, [r1]
   a:	6849      	ldr	r1, [r1, #4]
   c:	6041      	str	r1, [r0, #4]
   e:	f8c0 c000 	str.w	ip, [r0]
/rustc/50a0defd5a93523067ef239936cc2e0755220904/src/libcore/result.rs:1284
  12:	9201      	str	r2, [sp, #4]
  14:	9300      	str	r3, [sp, #0]
  16:	b002      	add	sp, #8
  18:	4770      	bx	lr

Disassembly of section .text._ZN73_$LT$core..result..Result$LT$T$C$E$GT$$u20$as$u20$core..ops..try..Try$GT$11into_result17h5fc8a869c255d083E:

00000000 <_ZN73_$LT$core..result..Result$LT$T$C$E$GT$$u20$as$u20$core..ops..try..Try$GT$11into_result17h5fc8a869c255d083E>:
_ZN73_$LT$core..result..Result$LT$T$C$E$GT$$u20$as$u20$core..ops..try..Try$GT$11into_result17h5fc8a869c255d083E():
/rustc/50a0defd5a93523067ef239936cc2e0755220904/src/libcore/result.rs:1282
   0:	b510      	push	{r4, lr}
   2:	b082      	sub	sp, #8
   4:	460a      	mov	r2, r1
   6:	4603      	mov	r3, r0
/rustc/50a0defd5a93523067ef239936cc2e0755220904/src/libcore/result.rs:1283
   8:	f8d1 c000 	ldr.w	ip, [r1]
   c:	f8d1 e004 	ldr.w	lr, [r1, #4]
  10:	688c      	ldr	r4, [r1, #8]
  12:	68c9      	ldr	r1, [r1, #12]
  14:	60c1      	str	r1, [r0, #12]
  16:	6084      	str	r4, [r0, #8]
  18:	f8c0 e004 	str.w	lr, [r0, #4]
  1c:	f8c0 c000 	str.w	ip, [r0]
/rustc/50a0defd5a93523067ef239936cc2e0755220904/src/libcore/result.rs:1284
  20:	9201      	str	r2, [sp, #4]
  22:	9300      	str	r3, [sp, #0]
  24:	b002      	add	sp, #8
  26:	bd10      	pop	{r4, pc}
arm-none-eabi-objdump: rust.metadata.bin: File format not recognized
arm-none-eabi-objdump: app-b90ce02d7e477c3f.1865e6mu8o34enxf.rcgu.bc.z: File format not recognized
arm-none-eabi-objdump: app-b90ce02d7e477c3f.1av89fbqeepl6rg1.rcgu.bc.z: File format not recognized
arm-none-eabi-objdump: app-b90ce02d7e477c3f.26b8wlrjc9xebdgm.rcgu.bc.z: File format not recognized
arm-none-eabi-objdump: app-b90ce02d7e477c3f.29cfty5pwckdmq5t.rcgu.bc.z: File format not recognized
arm-none-eabi-objdump: app-b90ce02d7e477c3f.35j0kb8s1vhb4ukq.rcgu.bc.z: File format not recognized
arm-none-eabi-objdump: app-b90ce02d7e477c3f.387fyplfnkxh0j64.rcgu.bc.z: File format not recognized
arm-none-eabi-objdump: app-b90ce02d7e477c3f.4dkwsijwq614g9b5.rcgu.bc.z: File format not recognized
arm-none-eabi-objdump: app-b90ce02d7e477c3f.4q9qovk8rqwaqec4.rcgu.bc.z: File format not recognized
arm-none-eabi-objdump: app-b90ce02d7e477c3f.d6w4n297npb5pfx.rcgu.bc.z: File format not recognized
