In archive target\thumbv7em-none-eabihf\debug\libapp.rlib:

app-20d859f505b9d0c6.14082d7ltf3d6dwg.rcgu.o:     file format elf32-littlearm

SYMBOL TABLE:
00000000 l    df *ABS*	00000000 14082d7ltf3d6dwg
00000da6 l       .debug_str	00000000 
0000396c l       .debug_str	00000000 
000040bc l       .debug_str	00000000 
000038c7 l       .debug_str	00000000 
000040b7 l       .debug_str	00000000 
0000388b l       .debug_str	00000000 
00003fc6 l       .debug_str	00000000 
00003853 l       .debug_str	00000000 
00003f08 l       .debug_str	00000000 
000037be l       .debug_str	00000000 
00003e53 l       .debug_str	00000000 
00003782 l       .debug_str	00000000 
00003d9a l       .debug_str	00000000 
00003750 l       .debug_str	00000000 
00003cf5 l       .debug_str	00000000 
0000374c l       .debug_str	00000000 
00003cb1 l       .debug_str	00000000 
0000374a l       .debug_str	00000000 
00003c0c l       .debug_str	00000000 
00003747 l       .debug_str	00000000 
00003b8e l       .debug_str	00000000 
00003740 l       .debug_str	00000000 
00003ae4 l       .debug_str	00000000 
00003663 l       .debug_str	00000000 
00003adf l       .debug_str	00000000 
00003627 l       .debug_str	00000000 
00003593 l       .debug_str	00000000 
00003558 l       .debug_str	00000000 
00003a35 l       .debug_str	00000000 
00000000 l       .debug_str	00000000 
00000041 l       .debug_str	00000000 
00000055 l       .debug_str	00000000 
00000074 l       .debug_str	00000000 
0000007a l       .debug_str	00000000 
00000081 l       .debug_str	00000000 
00000086 l       .debug_str	00000000 
00000089 l       .debug_str	00000000 
00000094 l       .debug_str	00000000 
0000009d l       .debug_str	00000000 
000000a2 l       .debug_str	00000000 
000000a7 l       .debug_str	00000000 
000000ae l       .debug_str	00000000 
000000b3 l       .debug_str	00000000 
000000b8 l       .debug_str	00000000 
000000bf l       .debug_str	00000000 
000000c8 l       .debug_str	00000000 
000000cc l       .debug_str	00000000 
000000d5 l       .debug_str	00000000 
000000d9 l       .debug_str	00000000 
000000db l       .debug_str	00000000 
000000e2 l       .debug_str	00000000 
000000e6 l       .debug_str	00000000 
000000f3 l       .debug_str	00000000 
000000fa l       .debug_str	00000000 
000000fd l       .debug_str	00000000 
00000103 l       .debug_str	00000000 
00000111 l       .debug_str	00000000 
0000011f l       .debug_str	00000000 
00000124 l       .debug_str	00000000 
0000012c l       .debug_str	00000000 
00000134 l       .debug_str	00000000 
00000138 l       .debug_str	00000000 
00000145 l       .debug_str	00000000 
00000148 l       .debug_str	00000000 
0000014c l       .debug_str	00000000 
00000156 l       .debug_str	00000000 
0000015f l       .debug_str	00000000 
00000165 l       .debug_str	00000000 
00000171 l       .debug_str	00000000 
00000177 l       .debug_str	00000000 
0000017c l       .debug_str	00000000 
0000017f l       .debug_str	00000000 
00000183 l       .debug_str	00000000 
00000186 l       .debug_str	00000000 
00000189 l       .debug_str	00000000 
0000018c l       .debug_str	00000000 
00000191 l       .debug_str	00000000 
0000019d l       .debug_str	00000000 
000001a2 l       .debug_str	00000000 
000001a9 l       .debug_str	00000000 
000001b3 l       .debug_str	00000000 
000001be l       .debug_str	00000000 
000001cb l       .debug_str	00000000 
000001d9 l       .debug_str	00000000 
000001e3 l       .debug_str	00000000 
000001f1 l       .debug_str	00000000 
000001fb l       .debug_str	00000000 
00000204 l       .debug_str	00000000 
00000206 l       .debug_str	00000000 
00000212 l       .debug_str	00000000 
00000216 l       .debug_str	00000000 
0000021c l       .debug_str	00000000 
00000226 l       .debug_str	00000000 
0000022a l       .debug_str	00000000 
00000231 l       .debug_str	00000000 
00000242 l       .debug_str	00000000 
00000244 l       .debug_str	00000000 
00000253 l       .debug_str	00000000 
00000255 l       .debug_str	00000000 
0000028e l       .debug_str	00000000 
00000295 l       .debug_str	00000000 
0000029c l       .debug_str	00000000 
000002ad l       .debug_str	00000000 
000002af l       .debug_str	00000000 
000002ee l       .debug_str	00000000 
000002f6 l       .debug_str	00000000 
00000329 l       .debug_str	00000000 
000003b4 l       .debug_str	00000000 
0000048b l       .debug_str	00000000 
000005ae l       .debug_str	00000000 
000005b6 l       .debug_str	00000000 
000005bb l       .debug_str	00000000 
000005c1 l       .debug_str	00000000 
000005c5 l       .debug_str	00000000 
000005c8 l       .debug_str	00000000 
000005f1 l       .debug_str	00000000 
00000627 l       .debug_str	00000000 
00000629 l       .debug_str	00000000 
00000656 l       .debug_str	00000000 
00000659 l       .debug_str	00000000 
000006a9 l       .debug_str	00000000 
00000706 l       .debug_str	00000000 
0000075a l       .debug_str	00000000 
000007d1 l       .debug_str	00000000 
00000855 l       .debug_str	00000000 
000008d0 l       .debug_str	00000000 
0000096e l       .debug_str	00000000 
00000a19 l       .debug_str	00000000 
00000abb l       .debug_str	00000000 
00000ba1 l       .debug_str	00000000 
00000ca4 l       .debug_str	00000000 
0000347c l       .debug_str	00000000 
00000daa l       .debug_str	00000000 
00000db0 l       .debug_str	00000000 
00000db2 l       .debug_str	00000000 
00000eac l       .debug_str	00000000 
00000eae l       .debug_str	00000000 
00000f8b l       .debug_str	00000000 
00000f95 l       .debug_str	00000000 
00000fbc l       .debug_str	00000000 
00000fc1 l       .debug_str	00000000 
00000fc5 l       .debug_str	00000000 
00000fcb l       .debug_str	00000000 
00000fd2 l       .debug_str	00000000 
00000fd7 l       .debug_str	00000000 
00000ff1 l       .debug_str	00000000 
00000ff8 l       .debug_str	00000000 
00001001 l       .debug_str	00000000 
0000100e l       .debug_str	00000000 
0000103e l       .debug_str	00000000 
00001093 l       .debug_str	00000000 
000010dc l       .debug_str	00000000 
00001193 l       .debug_str	00000000 
00001241 l       .debug_str	00000000 
0000130c l       .debug_str	00000000 
000013d6 l       .debug_str	00000000 
00001498 l       .debug_str	00000000 
0000153d l       .debug_str	00000000 
00001546 l       .debug_str	00000000 
00001550 l       .debug_str	00000000 
00001557 l       .debug_str	00000000 
0000155c l       .debug_str	00000000 
00001569 l       .debug_str	00000000 
00001572 l       .debug_str	00000000 
00001579 l       .debug_str	00000000 
00001580 l       .debug_str	00000000 
0000159c l       .debug_str	00000000 
000015ac l       .debug_str	00000000 
000015f1 l       .debug_str	00000000 
0000165e l       .debug_str	00000000 
000016f4 l       .debug_str	00000000 
000017b3 l       .debug_str	00000000 
0000182a l       .debug_str	00000000 
000018ae l       .debug_str	00000000 
00001929 l       .debug_str	00000000 
000019c7 l       .debug_str	00000000 
00001a72 l       .debug_str	00000000 
00001b14 l       .debug_str	00000000 
00001bd9 l       .debug_str	00000000 
00001cab l       .debug_str	00000000 
00001d74 l       .debug_str	00000000 
00001e5e l       .debug_str	00000000 
00001f65 l       .debug_str	00000000 
0000206b l       .debug_str	00000000 
00002169 l       .debug_str	00000000 
0000226a l       .debug_str	00000000 
0000234a l       .debug_str	00000000 
0000234e l       .debug_str	00000000 
00002354 l       .debug_str	00000000 
0000235d l       .debug_str	00000000 
00002362 l       .debug_str	00000000 
00002366 l       .debug_str	00000000 
00002377 l       .debug_str	00000000 
000023af l       .debug_str	00000000 
000023be l       .debug_str	00000000 
000023ea l       .debug_str	00000000 
0000242f l       .debug_str	00000000 
00002468 l       .debug_str	00000000 
000024ff l       .debug_str	00000000 
0000259d l       .debug_str	00000000 
00002658 l       .debug_str	00000000 
00002712 l       .debug_str	00000000 
000027c4 l       .debug_str	00000000 
00002859 l       .debug_str	00000000 
000028a5 l       .debug_str	00000000 
0000296a l       .debug_str	00000000 
00002a2e l       .debug_str	00000000 
00002a33 l       .debug_str	00000000 
00002b17 l       .debug_str	00000000 
00002b92 l       .debug_str	00000000 
00002c56 l       .debug_str	00000000 
00002d14 l       .debug_str	00000000 
00002dfa l       .debug_str	00000000 
00002e60 l       .debug_str	00000000 
00002ef6 l       .debug_str	00000000 
00002f5e l       .debug_str	00000000 
00003003 l       .debug_str	00000000 
0000306e l       .debug_str	00000000 
00003114 l       .debug_str	00000000 
00003157 l       .debug_str	00000000 
00003196 l       .debug_str	00000000 
00003203 l       .debug_str	00000000 
00003275 l       .debug_str	00000000 
0000331f l       .debug_str	00000000 
00003362 l       .debug_str	00000000 
0000339d l       .debug_str	00000000 
00003441 l       .debug_str	00000000 
000039b4 l       .debug_str	00000000 
00000000 l     O .rodata..Lanon.5cef1e26ca877c7164499f3c5622c565.1	00000010 .Lanon.5cef1e26ca877c7164499f3c5622c565.1
00000000 l     O .rodata.str.0	0000001c str.0
00000000 l    d  .text._ZN70_$LT$heapless..vec..Vec$LT$T$C$N$GT$$u20$as$u20$core..clone..Clone$GT$5clone17h1d6e84718449764aE	00000000 .text._ZN70_$LT$heapless..vec..Vec$LT$T$C$N$GT$$u20$as$u20$core..clone..Clone$GT$5clone17h1d6e84718449764aE
00000000 l    d  .text._ZN73_$LT$heapless..vec..Vec$LT$T$C$N$GT$$u20$as$u20$core..ops..drop..Drop$GT$4drop17heb8a41f44558116fE	00000000 .text._ZN73_$LT$heapless..vec..Vec$LT$T$C$N$GT$$u20$as$u20$core..ops..drop..Drop$GT$4drop17heb8a41f44558116fE
00000000 l    d  .text._ZN75_$LT$heapless..vec..Vec$LT$T$C$N$GT$$u20$as$u20$core..ops..deref..Deref$GT$5deref17h448e5d0113a5b003E	00000000 .text._ZN75_$LT$heapless..vec..Vec$LT$T$C$N$GT$$u20$as$u20$core..ops..deref..Deref$GT$5deref17h448e5d0113a5b003E
00000000 l    d  .text._ZN78_$LT$heapless..vec..IntoIter$LT$T$C$N$GT$$u20$as$u20$core..ops..drop..Drop$GT$4drop17hdb2a15b98b0ef58dE	00000000 .text._ZN78_$LT$heapless..vec..IntoIter$LT$T$C$N$GT$$u20$as$u20$core..ops..drop..Drop$GT$4drop17hdb2a15b98b0ef58dE
00000000 l    d  .text._ZN78_$LT$heapless..vec..Vec$LT$T$C$N$GT$$u20$as$u20$core..ops..deref..DerefMut$GT$9deref_mut17hf313cf4fe37e8543E	00000000 .text._ZN78_$LT$heapless..vec..Vec$LT$T$C$N$GT$$u20$as$u20$core..ops..deref..DerefMut$GT$9deref_mut17hf313cf4fe37e8543E
00000000 l    d  .text._ZN8heapless3vec16Vec$LT$T$C$N$GT$3new17h59d2849eb7762666E	00000000 .text._ZN8heapless3vec16Vec$LT$T$C$N$GT$3new17h59d2849eb7762666E
00000000 l    d  .text._ZN8heapless3vec16Vec$LT$T$C$N$GT$3new17hcccdad619d5d98a2E	00000000 .text._ZN8heapless3vec16Vec$LT$T$C$N$GT$3new17hcccdad619d5d98a2E
00000000 l    d  .text._ZN8heapless3vec16Vec$LT$T$C$N$GT$3new17hdbd398b25826ebf9E	00000000 .text._ZN8heapless3vec16Vec$LT$T$C$N$GT$3new17hdbd398b25826ebf9E
00000000 l    d  .text._ZN8heapless3vec16Vec$LT$T$C$N$GT$4push17h01e225df4ca1cc32E	00000000 .text._ZN8heapless3vec16Vec$LT$T$C$N$GT$4push17h01e225df4ca1cc32E
00000000 l    d  .text._ZN8heapless3vec16Vec$LT$T$C$N$GT$4push17h17702fe91ee2d920E	00000000 .text._ZN8heapless3vec16Vec$LT$T$C$N$GT$4push17h17702fe91ee2d920E
00000000 l    d  .text._ZN8heapless3vec16Vec$LT$T$C$N$GT$4push17h74669bce2d9d33e7E	00000000 .text._ZN8heapless3vec16Vec$LT$T$C$N$GT$4push17h74669bce2d9d33e7E
00000000 l    d  .text._ZN93_$LT$heapless..vec..Vec$LT$T$C$N$GT$$u20$as$u20$core..iter..traits..collect..IntoIterator$GT$9into_iter17hbbf8d269dd5dae83E	00000000 .text._ZN93_$LT$heapless..vec..Vec$LT$T$C$N$GT$$u20$as$u20$core..iter..traits..collect..IntoIterator$GT$9into_iter17hbbf8d269dd5dae83E
00000000 l    d  .text._ZN95_$LT$heapless..vec..IntoIter$LT$T$C$N$GT$$u20$as$u20$core..iter..traits..iterator..Iterator$GT$4next17hd319174a1aa81015E	00000000 .text._ZN95_$LT$heapless..vec..IntoIter$LT$T$C$N$GT$$u20$as$u20$core..iter..traits..iterator..Iterator$GT$4next17hd319174a1aa81015E
00000000 l    d  .rodata..Lanon.5cef1e26ca877c7164499f3c5622c565.0	00000000 .rodata..Lanon.5cef1e26ca877c7164499f3c5622c565.0
00000000 l    d  .debug_loc	00000000 .debug_loc
00000000 l    d  .debug_abbrev	00000000 .debug_abbrev
00000000 l    d  .debug_info	00000000 .debug_info
00000000 l    d  .debug_ranges	00000000 .debug_ranges
00000000 l    d  .debug_frame	00000000 .debug_frame
00000000 l    d  .debug_line	00000000 .debug_line
00000000         *UND*	00000000 _ZN4core3ptr33_$LT$impl$u20$$BP$const$u20$T$GT$3add17h65f45b864166c53aE
00000000         *UND*	00000000 _ZN4core3ptr33_$LT$impl$u20$$BP$const$u20$T$GT$4read17hb08fea9eeab742dbE
00000000         *UND*	00000000 _ZN4core5slice29_$LT$impl$u20$$u5b$T$u5d$$GT$3len17h934eb670dc520e39E
00000000         *UND*	00000000 _ZN4core5slice77_$LT$impl$u20$core..ops..index..IndexMut$LT$I$GT$$u20$for$u20$$u5b$T$u5d$$GT$9index_mut17h17ce9873d8f79650E
00000000         *UND*	00000000 _ZN4core5slice77_$LT$impl$u20$core..ops..index..IndexMut$LT$I$GT$$u20$for$u20$$u5b$T$u5d$$GT$9index_mut17h3f554153400ee708E
00000000         *UND*	00000000 _ZN4core9panicking5panic17hfdd0eecc44a682f8E
00000000 g     F .text._ZN70_$LT$heapless..vec..Vec$LT$T$C$N$GT$$u20$as$u20$core..clone..Clone$GT$5clone17h1d6e84718449764aE	0000002c _ZN70_$LT$heapless..vec..Vec$LT$T$C$N$GT$$u20$as$u20$core..clone..Clone$GT$5clone17h1d6e84718449764aE
00000000 g     F .text._ZN73_$LT$heapless..vec..Vec$LT$T$C$N$GT$$u20$as$u20$core..ops..drop..Drop$GT$4drop17heb8a41f44558116fE	0000002e _ZN73_$LT$heapless..vec..Vec$LT$T$C$N$GT$$u20$as$u20$core..ops..drop..Drop$GT$4drop17heb8a41f44558116fE
00000000 g     F .text._ZN75_$LT$heapless..vec..Vec$LT$T$C$N$GT$$u20$as$u20$core..ops..deref..Deref$GT$5deref17h448e5d0113a5b003E	0000001a _ZN75_$LT$heapless..vec..Vec$LT$T$C$N$GT$$u20$as$u20$core..ops..deref..Deref$GT$5deref17h448e5d0113a5b003E
00000000 g     F .text._ZN78_$LT$heapless..vec..IntoIter$LT$T$C$N$GT$$u20$as$u20$core..ops..drop..Drop$GT$4drop17hdb2a15b98b0ef58dE	0000003c _ZN78_$LT$heapless..vec..IntoIter$LT$T$C$N$GT$$u20$as$u20$core..ops..drop..Drop$GT$4drop17hdb2a15b98b0ef58dE
00000000 g     F .text._ZN78_$LT$heapless..vec..Vec$LT$T$C$N$GT$$u20$as$u20$core..ops..deref..DerefMut$GT$9deref_mut17hf313cf4fe37e8543E	0000001a _ZN78_$LT$heapless..vec..Vec$LT$T$C$N$GT$$u20$as$u20$core..ops..deref..DerefMut$GT$9deref_mut17hf313cf4fe37e8543E
00000000 g     F .text._ZN8heapless3vec16Vec$LT$T$C$N$GT$3new17h59d2849eb7762666E	0000001e _ZN8heapless3vec16Vec$LT$T$C$N$GT$3new17h59d2849eb7762666E
00000000 g     F .text._ZN8heapless3vec16Vec$LT$T$C$N$GT$3new17hcccdad619d5d98a2E	00000024 _ZN8heapless3vec16Vec$LT$T$C$N$GT$3new17hcccdad619d5d98a2E
00000000 g     F .text._ZN8heapless3vec16Vec$LT$T$C$N$GT$3new17hdbd398b25826ebf9E	00000028 _ZN8heapless3vec16Vec$LT$T$C$N$GT$3new17hdbd398b25826ebf9E
00000000 g     F .text._ZN8heapless3vec16Vec$LT$T$C$N$GT$4push17h01e225df4ca1cc32E	00000034 _ZN8heapless3vec16Vec$LT$T$C$N$GT$4push17h01e225df4ca1cc32E
00000000 g     F .text._ZN8heapless3vec16Vec$LT$T$C$N$GT$4push17h17702fe91ee2d920E	00000024 _ZN8heapless3vec16Vec$LT$T$C$N$GT$4push17h17702fe91ee2d920E
00000000 g     F .text._ZN8heapless3vec16Vec$LT$T$C$N$GT$4push17h74669bce2d9d33e7E	00000028 _ZN8heapless3vec16Vec$LT$T$C$N$GT$4push17h74669bce2d9d33e7E
00000000         *UND*	00000000 _ZN8heapless3vec43_$LT$impl$u20$heapless..i..Vec$LT$A$GT$$GT$3new17hd2634fc44b0cb99fE
00000000         *UND*	00000000 _ZN8heapless3vec43_$LT$impl$u20$heapless..i..Vec$LT$A$GT$$GT$3new17hf9b9203cb4cb4114E
00000000         *UND*	00000000 _ZN8heapless3vec43_$LT$impl$u20$heapless..i..Vec$LT$A$GT$$GT$3new17hff32296d9b6fd30aE
00000000         *UND*	00000000 _ZN8heapless3vec82_$LT$impl$u20$heapless..i..Vec$LT$generic_array..GenericArray$LT$T$C$N$GT$$GT$$GT$12as_mut_slice17h651fb504ccc9912fE
00000000         *UND*	00000000 _ZN8heapless3vec82_$LT$impl$u20$heapless..i..Vec$LT$generic_array..GenericArray$LT$T$C$N$GT$$GT$$GT$4push17h15f0297b9c1d540fE
00000000         *UND*	00000000 _ZN8heapless3vec82_$LT$impl$u20$heapless..i..Vec$LT$generic_array..GenericArray$LT$T$C$N$GT$$GT$$GT$4push17h64a3894c7a4114cdE
00000000         *UND*	00000000 _ZN8heapless3vec82_$LT$impl$u20$heapless..i..Vec$LT$generic_array..GenericArray$LT$T$C$N$GT$$GT$$GT$4push17hb1e08ed7c324ec29E
00000000         *UND*	00000000 _ZN8heapless3vec82_$LT$impl$u20$heapless..i..Vec$LT$generic_array..GenericArray$LT$T$C$N$GT$$GT$$GT$5clone17hacad4dd94d2a4ef0E
00000000         *UND*	00000000 _ZN8heapless3vec82_$LT$impl$u20$heapless..i..Vec$LT$generic_array..GenericArray$LT$T$C$N$GT$$GT$$GT$8as_slice17h4d9c18d3854eac7eE
00000000 g     F .text._ZN93_$LT$heapless..vec..Vec$LT$T$C$N$GT$$u20$as$u20$core..iter..traits..collect..IntoIterator$GT$9into_iter17hbbf8d269dd5dae83E	0000002a _ZN93_$LT$heapless..vec..Vec$LT$T$C$N$GT$$u20$as$u20$core..iter..traits..collect..IntoIterator$GT$9into_iter17hbbf8d269dd5dae83E
00000000 g     F .text._ZN95_$LT$heapless..vec..IntoIter$LT$T$C$N$GT$$u20$as$u20$core..iter..traits..iterator..Iterator$GT$4next17hd319174a1aa81015E	000000ce _ZN95_$LT$heapless..vec..IntoIter$LT$T$C$N$GT$$u20$as$u20$core..iter..traits..iterator..Iterator$GT$4next17hd319174a1aa81015E
00000000         *UND*	00000000 __aeabi_memcpy8



Disassembly of section .text._ZN70_$LT$heapless..vec..Vec$LT$T$C$N$GT$$u20$as$u20$core..clone..Clone$GT$5clone17h1d6e84718449764aE:

00000000 <_ZN70_$LT$heapless..vec..Vec$LT$T$C$N$GT$$u20$as$u20$core..clone..Clone$GT$5clone17h1d6e84718449764aE>:
_ZN70_$LT$heapless..vec..Vec$LT$T$C$N$GT$$u20$as$u20$core..clone..Clone$GT$5clone17h1d6e84718449764aE():
C:\Users\guppy\.cargo\registry\src\github.com-1ecc6299db9ec823\heapless-0.5.1\src/vec.rs:172
impl<T, N> Clone for Vec<T, N>
where
    N: ArrayLength<T>,
    T: Clone,
{
    fn clone(&self) -> Self {
   0:	b580      	push	{r7, lr}
   2:	b08a      	sub	sp, #40	; 0x28
   4:	9102      	str	r1, [sp, #8]
C:\Users\guppy\.cargo\registry\src\github.com-1ecc6299db9ec823\heapless-0.5.1\src/vec.rs:173
        Vec(self.0.clone())
   6:	9902      	ldr	r1, [sp, #8]
   8:	aa03      	add	r2, sp, #12
   a:	9001      	str	r0, [sp, #4]
   c:	4610      	mov	r0, r2
   e:	f7ff fffe 	bl	0 <_ZN8heapless3vec82_$LT$impl$u20$heapless..i..Vec$LT$generic_array..GenericArray$LT$T$C$N$GT$$GT$$GT$5clone17hacad4dd94d2a4ef0E>
  12:	e7ff      	b.n	14 <_ZN70_$LT$heapless..vec..Vec$LT$T$C$N$GT$$u20$as$u20$core..clone..Clone$GT$5clone17h1d6e84718449764aE+0x14>
  14:	a803      	add	r0, sp, #12
  16:	9901      	ldr	r1, [sp, #4]
  18:	e8b0 100c 	ldmia.w	r0!, {r2, r3, ip}
  1c:	e8a1 100c 	stmia.w	r1!, {r2, r3, ip}
  20:	e890 500c 	ldmia.w	r0, {r2, r3, ip, lr}
  24:	e881 500c 	stmia.w	r1, {r2, r3, ip, lr}
C:\Users\guppy\.cargo\registry\src\github.com-1ecc6299db9ec823\heapless-0.5.1\src/vec.rs:174
    }
  28:	b00a      	add	sp, #40	; 0x28
  2a:	bd80      	pop	{r7, pc}

Disassembly of section .text._ZN73_$LT$heapless..vec..Vec$LT$T$C$N$GT$$u20$as$u20$core..ops..drop..Drop$GT$4drop17heb8a41f44558116fE:

00000000 <_ZN73_$LT$heapless..vec..Vec$LT$T$C$N$GT$$u20$as$u20$core..ops..drop..Drop$GT$4drop17heb8a41f44558116fE>:
_ZN73_$LT$heapless..vec..Vec$LT$T$C$N$GT$$u20$as$u20$core..ops..drop..Drop$GT$4drop17heb8a41f44558116fE():
C:\Users\guppy\.cargo\registry\src\github.com-1ecc6299db9ec823\heapless-0.5.1\src/vec.rs:372

impl<T, N> Drop for Vec<T, N>
where
    N: ArrayLength<T>,
{
    fn drop(&mut self) {
   0:	b580      	push	{r7, lr}
   2:	b088      	sub	sp, #32
   4:	9005      	str	r0, [sp, #20]
C:\Users\guppy\.cargo\registry\src\github.com-1ecc6299db9ec823\heapless-0.5.1\src/vec.rs:373
        unsafe { ptr::drop_in_place(&mut self[..]) }
   6:	9805      	ldr	r0, [sp, #20]
   8:	f7ff fffe 	bl	0 <_ZN73_$LT$heapless..vec..Vec$LT$T$C$N$GT$$u20$as$u20$core..ops..drop..Drop$GT$4drop17heb8a41f44558116fE>
   c:	9004      	str	r0, [sp, #16]
   e:	9103      	str	r1, [sp, #12]
  10:	e7ff      	b.n	12 <_ZN73_$LT$heapless..vec..Vec$LT$T$C$N$GT$$u20$as$u20$core..ops..drop..Drop$GT$4drop17heb8a41f44558116fE+0x12>
  12:	9804      	ldr	r0, [sp, #16]
  14:	9903      	ldr	r1, [sp, #12]
  16:	f7ff fffe 	bl	0 <_ZN4core5slice77_$LT$impl$u20$core..ops..index..IndexMut$LT$I$GT$$u20$for$u20$$u5b$T$u5d$$GT$9index_mut17h3f554153400ee708E>
  1a:	9002      	str	r0, [sp, #8]
  1c:	9101      	str	r1, [sp, #4]
  1e:	e7ff      	b.n	20 <_ZN73_$LT$heapless..vec..Vec$LT$T$C$N$GT$$u20$as$u20$core..ops..drop..Drop$GT$4drop17heb8a41f44558116fE+0x20>
  20:	9802      	ldr	r0, [sp, #8]
  22:	9006      	str	r0, [sp, #24]
  24:	9901      	ldr	r1, [sp, #4]
  26:	9107      	str	r1, [sp, #28]
  28:	e7ff      	b.n	2a <_ZN73_$LT$heapless..vec..Vec$LT$T$C$N$GT$$u20$as$u20$core..ops..drop..Drop$GT$4drop17heb8a41f44558116fE+0x2a>
C:\Users\guppy\.cargo\registry\src\github.com-1ecc6299db9ec823\heapless-0.5.1\src/vec.rs:374
    }
  2a:	b008      	add	sp, #32
  2c:	bd80      	pop	{r7, pc}

Disassembly of section .text._ZN75_$LT$heapless..vec..Vec$LT$T$C$N$GT$$u20$as$u20$core..ops..deref..Deref$GT$5deref17h448e5d0113a5b003E:

00000000 <_ZN75_$LT$heapless..vec..Vec$LT$T$C$N$GT$$u20$as$u20$core..ops..deref..Deref$GT$5deref17h448e5d0113a5b003E>:
_ZN75_$LT$heapless..vec..Vec$LT$T$C$N$GT$$u20$as$u20$core..ops..deref..Deref$GT$5deref17h448e5d0113a5b003E():
C:\Users\guppy\.cargo\registry\src\github.com-1ecc6299db9ec823\heapless-0.5.1\src/vec.rs:591
where
    N: ArrayLength<T>,
{
    type Target = [T];

    fn deref(&self) -> &[T] {
   0:	b580      	push	{r7, lr}
   2:	b084      	sub	sp, #16
   4:	9003      	str	r0, [sp, #12]
C:\Users\guppy\.cargo\registry\src\github.com-1ecc6299db9ec823\heapless-0.5.1\src/vec.rs:592
        self.0.as_slice()
   6:	9803      	ldr	r0, [sp, #12]
   8:	f7ff fffe 	bl	0 <_ZN8heapless3vec82_$LT$impl$u20$heapless..i..Vec$LT$generic_array..GenericArray$LT$T$C$N$GT$$GT$$GT$8as_slice17h4d9c18d3854eac7eE>
   c:	9002      	str	r0, [sp, #8]
   e:	9101      	str	r1, [sp, #4]
  10:	e7ff      	b.n	12 <_ZN75_$LT$heapless..vec..Vec$LT$T$C$N$GT$$u20$as$u20$core..ops..deref..Deref$GT$5deref17h448e5d0113a5b003E+0x12>
C:\Users\guppy\.cargo\registry\src\github.com-1ecc6299db9ec823\heapless-0.5.1\src/vec.rs:593
    }
  12:	9802      	ldr	r0, [sp, #8]
  14:	9901      	ldr	r1, [sp, #4]
  16:	b004      	add	sp, #16
  18:	bd80      	pop	{r7, pc}

Disassembly of section .text._ZN78_$LT$heapless..vec..IntoIter$LT$T$C$N$GT$$u20$as$u20$core..ops..drop..Drop$GT$4drop17hdb2a15b98b0ef58dE:

00000000 <_ZN78_$LT$heapless..vec..IntoIter$LT$T$C$N$GT$$u20$as$u20$core..ops..drop..Drop$GT$4drop17hdb2a15b98b0ef58dE>:
_ZN78_$LT$heapless..vec..IntoIter$LT$T$C$N$GT$$u20$as$u20$core..ops..drop..Drop$GT$4drop17hdb2a15b98b0ef58dE():
C:\Users\guppy\.cargo\registry\src\github.com-1ecc6299db9ec823\heapless-0.5.1\src/vec.rs:513
    fn drop(&mut self) {
   0:	b580      	push	{r7, lr}
   2:	b088      	sub	sp, #32
   4:	9004      	str	r0, [sp, #16]
C:\Users\guppy\.cargo\registry\src\github.com-1ecc6299db9ec823\heapless-0.5.1\src/vec.rs:516
            ptr::drop_in_place(&mut self.vec[self.next..]);
   6:	9804      	ldr	r0, [sp, #16]
   8:	f7ff fffe 	bl	0 <_ZN78_$LT$heapless..vec..IntoIter$LT$T$C$N$GT$$u20$as$u20$core..ops..drop..Drop$GT$4drop17hdb2a15b98b0ef58dE>
   c:	9003      	str	r0, [sp, #12]
   e:	9102      	str	r1, [sp, #8]
  10:	e7ff      	b.n	12 <_ZN78_$LT$heapless..vec..IntoIter$LT$T$C$N$GT$$u20$as$u20$core..ops..drop..Drop$GT$4drop17hdb2a15b98b0ef58dE+0x12>
  12:	9804      	ldr	r0, [sp, #16]
  14:	6c80      	ldr	r0, [r0, #72]	; 0x48
  16:	9005      	str	r0, [sp, #20]
  18:	9a05      	ldr	r2, [sp, #20]
  1a:	9803      	ldr	r0, [sp, #12]
  1c:	9902      	ldr	r1, [sp, #8]
  1e:	f7ff fffe 	bl	0 <_ZN4core5slice77_$LT$impl$u20$core..ops..index..IndexMut$LT$I$GT$$u20$for$u20$$u5b$T$u5d$$GT$9index_mut17h17ce9873d8f79650E>
  22:	9001      	str	r0, [sp, #4]
  24:	9100      	str	r1, [sp, #0]
  26:	e7ff      	b.n	28 <_ZN78_$LT$heapless..vec..IntoIter$LT$T$C$N$GT$$u20$as$u20$core..ops..drop..Drop$GT$4drop17hdb2a15b98b0ef58dE+0x28>
  28:	9801      	ldr	r0, [sp, #4]
  2a:	9006      	str	r0, [sp, #24]
  2c:	9900      	ldr	r1, [sp, #0]
  2e:	9107      	str	r1, [sp, #28]
  30:	e7ff      	b.n	32 <_ZN78_$LT$heapless..vec..IntoIter$LT$T$C$N$GT$$u20$as$u20$core..ops..drop..Drop$GT$4drop17hdb2a15b98b0ef58dE+0x32>
C:\Users\guppy\.cargo\registry\src\github.com-1ecc6299db9ec823\heapless-0.5.1\src/vec.rs:518
            self.vec.0.len = 0;
  32:	9804      	ldr	r0, [sp, #16]
  34:	2100      	movs	r1, #0
  36:	6401      	str	r1, [r0, #64]	; 0x40
C:\Users\guppy\.cargo\registry\src\github.com-1ecc6299db9ec823\heapless-0.5.1\src/vec.rs:520
    }
  38:	b008      	add	sp, #32
  3a:	bd80      	pop	{r7, pc}

Disassembly of section .text._ZN78_$LT$heapless..vec..Vec$LT$T$C$N$GT$$u20$as$u20$core..ops..deref..DerefMut$GT$9deref_mut17hf313cf4fe37e8543E:

00000000 <_ZN78_$LT$heapless..vec..Vec$LT$T$C$N$GT$$u20$as$u20$core..ops..deref..DerefMut$GT$9deref_mut17hf313cf4fe37e8543E>:
_ZN78_$LT$heapless..vec..Vec$LT$T$C$N$GT$$u20$as$u20$core..ops..deref..DerefMut$GT$9deref_mut17hf313cf4fe37e8543E():
C:\Users\guppy\.cargo\registry\src\github.com-1ecc6299db9ec823\heapless-0.5.1\src/vec.rs:600

impl<T, N> ops::DerefMut for Vec<T, N>
where
    N: ArrayLength<T>,
{
    fn deref_mut(&mut self) -> &mut [T] {
   0:	b580      	push	{r7, lr}
   2:	b084      	sub	sp, #16
   4:	9003      	str	r0, [sp, #12]
C:\Users\guppy\.cargo\registry\src\github.com-1ecc6299db9ec823\heapless-0.5.1\src/vec.rs:601
        self.0.as_mut_slice()
   6:	9803      	ldr	r0, [sp, #12]
   8:	f7ff fffe 	bl	0 <_ZN8heapless3vec82_$LT$impl$u20$heapless..i..Vec$LT$generic_array..GenericArray$LT$T$C$N$GT$$GT$$GT$12as_mut_slice17h651fb504ccc9912fE>
   c:	9002      	str	r0, [sp, #8]
   e:	9101      	str	r1, [sp, #4]
  10:	e7ff      	b.n	12 <_ZN78_$LT$heapless..vec..Vec$LT$T$C$N$GT$$u20$as$u20$core..ops..deref..DerefMut$GT$9deref_mut17hf313cf4fe37e8543E+0x12>
C:\Users\guppy\.cargo\registry\src\github.com-1ecc6299db9ec823\heapless-0.5.1\src/vec.rs:602
    }
  12:	9802      	ldr	r0, [sp, #8]
  14:	9901      	ldr	r1, [sp, #4]
  16:	b004      	add	sp, #16
  18:	bd80      	pop	{r7, pc}

Disassembly of section .text._ZN8heapless3vec16Vec$LT$T$C$N$GT$3new17h59d2849eb7762666E:

00000000 <_ZN8heapless3vec16Vec$LT$T$C$N$GT$3new17h59d2849eb7762666E>:
_ZN8heapless3vec16Vec$LT$T$C$N$GT$3new17h59d2849eb7762666E():
C:\Users\guppy\.cargo\registry\src\github.com-1ecc6299db9ec823\heapless-0.5.1\src/vec.rs:196
    pub fn new() -> Self {
   0:	b580      	push	{r7, lr}
   2:	b094      	sub	sp, #80	; 0x50
   4:	a902      	add	r1, sp, #8
C:\Users\guppy\.cargo\registry\src\github.com-1ecc6299db9ec823\heapless-0.5.1\src/vec.rs:197
        Vec(crate::i::Vec::new())
   6:	9001      	str	r0, [sp, #4]
   8:	4608      	mov	r0, r1
   a:	f7ff fffe 	bl	0 <_ZN8heapless3vec43_$LT$impl$u20$heapless..i..Vec$LT$A$GT$$GT$3new17hff32296d9b6fd30aE>
   e:	e7ff      	b.n	10 <_ZN8heapless3vec16Vec$LT$T$C$N$GT$3new17h59d2849eb7762666E+0x10>
  10:	a902      	add	r1, sp, #8
  12:	2248      	movs	r2, #72	; 0x48
  14:	9801      	ldr	r0, [sp, #4]
  16:	f7ff fffe 	bl	0 <__aeabi_memcpy8>
C:\Users\guppy\.cargo\registry\src\github.com-1ecc6299db9ec823\heapless-0.5.1\src/vec.rs:198
    }
  1a:	b014      	add	sp, #80	; 0x50
  1c:	bd80      	pop	{r7, pc}

Disassembly of section .text._ZN8heapless3vec16Vec$LT$T$C$N$GT$3new17hcccdad619d5d98a2E:

00000000 <_ZN8heapless3vec16Vec$LT$T$C$N$GT$3new17hcccdad619d5d98a2E>:
_ZN8heapless3vec16Vec$LT$T$C$N$GT$3new17hcccdad619d5d98a2E():
C:\Users\guppy\.cargo\registry\src\github.com-1ecc6299db9ec823\heapless-0.5.1\src/vec.rs:196
    pub fn new() -> Self {
   0:	b580      	push	{r7, lr}
   2:	f5ad 7d04 	sub.w	sp, sp, #528	; 0x210
   6:	a902      	add	r1, sp, #8
C:\Users\guppy\.cargo\registry\src\github.com-1ecc6299db9ec823\heapless-0.5.1\src/vec.rs:197
        Vec(crate::i::Vec::new())
   8:	9001      	str	r0, [sp, #4]
   a:	4608      	mov	r0, r1
   c:	f7ff fffe 	bl	0 <_ZN8heapless3vec43_$LT$impl$u20$heapless..i..Vec$LT$A$GT$$GT$3new17hf9b9203cb4cb4114E>
  10:	e7ff      	b.n	12 <_ZN8heapless3vec16Vec$LT$T$C$N$GT$3new17hcccdad619d5d98a2E+0x12>
  12:	a902      	add	r1, sp, #8
  14:	f44f 7202 	mov.w	r2, #520	; 0x208
  18:	9801      	ldr	r0, [sp, #4]
  1a:	f7ff fffe 	bl	0 <__aeabi_memcpy8>
C:\Users\guppy\.cargo\registry\src\github.com-1ecc6299db9ec823\heapless-0.5.1\src/vec.rs:198
    }
  1e:	f50d 7d04 	add.w	sp, sp, #528	; 0x210
  22:	bd80      	pop	{r7, pc}

Disassembly of section .text._ZN8heapless3vec16Vec$LT$T$C$N$GT$3new17hdbd398b25826ebf9E:

00000000 <_ZN8heapless3vec16Vec$LT$T$C$N$GT$3new17hdbd398b25826ebf9E>:
_ZN8heapless3vec16Vec$LT$T$C$N$GT$3new17hdbd398b25826ebf9E():
C:\Users\guppy\.cargo\registry\src\github.com-1ecc6299db9ec823\heapless-0.5.1\src/vec.rs:196
    pub fn new() -> Self {
   0:	b580      	push	{r7, lr}
   2:	b088      	sub	sp, #32
   4:	a901      	add	r1, sp, #4
C:\Users\guppy\.cargo\registry\src\github.com-1ecc6299db9ec823\heapless-0.5.1\src/vec.rs:197
        Vec(crate::i::Vec::new())
   6:	9000      	str	r0, [sp, #0]
   8:	4608      	mov	r0, r1
   a:	f7ff fffe 	bl	0 <_ZN8heapless3vec43_$LT$impl$u20$heapless..i..Vec$LT$A$GT$$GT$3new17hd2634fc44b0cb99fE>
   e:	e7ff      	b.n	10 <_ZN8heapless3vec16Vec$LT$T$C$N$GT$3new17hdbd398b25826ebf9E+0x10>
  10:	a801      	add	r0, sp, #4
  12:	9900      	ldr	r1, [sp, #0]
  14:	e8b0 100c 	ldmia.w	r0!, {r2, r3, ip}
  18:	e8a1 100c 	stmia.w	r1!, {r2, r3, ip}
  1c:	e890 500c 	ldmia.w	r0, {r2, r3, ip, lr}
  20:	e881 500c 	stmia.w	r1, {r2, r3, ip, lr}
C:\Users\guppy\.cargo\registry\src\github.com-1ecc6299db9ec823\heapless-0.5.1\src/vec.rs:198
    }
  24:	b008      	add	sp, #32
  26:	bd80      	pop	{r7, pc}

Disassembly of section .text._ZN8heapless3vec16Vec$LT$T$C$N$GT$4push17h01e225df4ca1cc32E:

00000000 <_ZN8heapless3vec16Vec$LT$T$C$N$GT$4push17h01e225df4ca1cc32E>:
_ZN8heapless3vec16Vec$LT$T$C$N$GT$4push17h01e225df4ca1cc32E():
C:\Users\guppy\.cargo\registry\src\github.com-1ecc6299db9ec823\heapless-0.5.1\src/vec.rs:246
    pub fn push(&mut self, item: T) -> Result<(), T> {
   0:	e92d 41f0 	stmdb	sp!, {r4, r5, r6, r7, r8, lr}
   4:	b092      	sub	sp, #72	; 0x48
   6:	9101      	str	r1, [sp, #4]
C:\Users\guppy\.cargo\registry\src\github.com-1ecc6299db9ec823\heapless-0.5.1\src/vec.rs:247
        self.0.push(item)
   8:	9901      	ldr	r1, [sp, #4]
   a:	ab02      	add	r3, sp, #8
   c:	469c      	mov	ip, r3
   e:	e8b2 40f0 	ldmia.w	r2!, {r4, r5, r6, r7, lr}
  12:	e8ac 40f0 	stmia.w	ip!, {r4, r5, r6, r7, lr}
  16:	e8b2 40f0 	ldmia.w	r2!, {r4, r5, r6, r7, lr}
  1a:	e8ac 40f0 	stmia.w	ip!, {r4, r5, r6, r7, lr}
  1e:	e892 41f0 	ldmia.w	r2, {r4, r5, r6, r7, r8, lr}
  22:	e88c 41f0 	stmia.w	ip, {r4, r5, r6, r7, r8, lr}
  26:	461a      	mov	r2, r3
  28:	f7ff fffe 	bl	0 <_ZN8heapless3vec82_$LT$impl$u20$heapless..i..Vec$LT$generic_array..GenericArray$LT$T$C$N$GT$$GT$$GT$4push17h15f0297b9c1d540fE>
  2c:	e7ff      	b.n	2e <_ZN8heapless3vec16Vec$LT$T$C$N$GT$4push17h01e225df4ca1cc32E+0x2e>
C:\Users\guppy\.cargo\registry\src\github.com-1ecc6299db9ec823\heapless-0.5.1\src/vec.rs:248
    }
  2e:	b012      	add	sp, #72	; 0x48
  30:	e8bd 81f0 	ldmia.w	sp!, {r4, r5, r6, r7, r8, pc}

Disassembly of section .text._ZN8heapless3vec16Vec$LT$T$C$N$GT$4push17h17702fe91ee2d920E:

00000000 <_ZN8heapless3vec16Vec$LT$T$C$N$GT$4push17h17702fe91ee2d920E>:
_ZN8heapless3vec16Vec$LT$T$C$N$GT$4push17h17702fe91ee2d920E():
C:\Users\guppy\.cargo\registry\src\github.com-1ecc6299db9ec823\heapless-0.5.1\src/vec.rs:246
    pub fn push(&mut self, item: T) -> Result<(), T> {
   0:	b580      	push	{r7, lr}
   2:	b084      	sub	sp, #16
   4:	9100      	str	r1, [sp, #0]
C:\Users\guppy\.cargo\registry\src\github.com-1ecc6299db9ec823\heapless-0.5.1\src/vec.rs:247
        self.0.push(item)
   6:	9900      	ldr	r1, [sp, #0]
   8:	6813      	ldr	r3, [r2, #0]
   a:	f8d2 c004 	ldr.w	ip, [r2, #4]
   e:	6892      	ldr	r2, [r2, #8]
  10:	9203      	str	r2, [sp, #12]
  12:	f8cd c008 	str.w	ip, [sp, #8]
  16:	9301      	str	r3, [sp, #4]
  18:	aa01      	add	r2, sp, #4
  1a:	f7ff fffe 	bl	0 <_ZN8heapless3vec82_$LT$impl$u20$heapless..i..Vec$LT$generic_array..GenericArray$LT$T$C$N$GT$$GT$$GT$4push17h64a3894c7a4114cdE>
  1e:	e7ff      	b.n	20 <_ZN8heapless3vec16Vec$LT$T$C$N$GT$4push17h17702fe91ee2d920E+0x20>
C:\Users\guppy\.cargo\registry\src\github.com-1ecc6299db9ec823\heapless-0.5.1\src/vec.rs:248
    }
  20:	b004      	add	sp, #16
  22:	bd80      	pop	{r7, pc}

Disassembly of section .text._ZN8heapless3vec16Vec$LT$T$C$N$GT$4push17h74669bce2d9d33e7E:

00000000 <_ZN8heapless3vec16Vec$LT$T$C$N$GT$4push17h74669bce2d9d33e7E>:
_ZN8heapless3vec16Vec$LT$T$C$N$GT$4push17h74669bce2d9d33e7E():
C:\Users\guppy\.cargo\registry\src\github.com-1ecc6299db9ec823\heapless-0.5.1\src/vec.rs:246
    pub fn push(&mut self, item: T) -> Result<(), T> {
   0:	b570      	push	{r4, r5, r6, lr}
   2:	b08a      	sub	sp, #40	; 0x28
   4:	9101      	str	r1, [sp, #4]
C:\Users\guppy\.cargo\registry\src\github.com-1ecc6299db9ec823\heapless-0.5.1\src/vec.rs:247
        self.0.push(item)
   6:	9901      	ldr	r1, [sp, #4]
   8:	ab02      	add	r3, sp, #8
   a:	469c      	mov	ip, r3
   c:	e8b2 4070 	ldmia.w	r2!, {r4, r5, r6, lr}
  10:	e8ac 4070 	stmia.w	ip!, {r4, r5, r6, lr}
  14:	e892 4070 	ldmia.w	r2, {r4, r5, r6, lr}
  18:	e88c 4070 	stmia.w	ip, {r4, r5, r6, lr}
  1c:	461a      	mov	r2, r3
  1e:	f7ff fffe 	bl	0 <_ZN8heapless3vec82_$LT$impl$u20$heapless..i..Vec$LT$generic_array..GenericArray$LT$T$C$N$GT$$GT$$GT$4push17hb1e08ed7c324ec29E>
  22:	e7ff      	b.n	24 <_ZN8heapless3vec16Vec$LT$T$C$N$GT$4push17h74669bce2d9d33e7E+0x24>
C:\Users\guppy\.cargo\registry\src\github.com-1ecc6299db9ec823\heapless-0.5.1\src/vec.rs:248
    }
  24:	b00a      	add	sp, #40	; 0x28
  26:	bd70      	pop	{r4, r5, r6, pc}

Disassembly of section .text._ZN93_$LT$heapless..vec..Vec$LT$T$C$N$GT$$u20$as$u20$core..iter..traits..collect..IntoIterator$GT$9into_iter17hbbf8d269dd5dae83E:

00000000 <_ZN93_$LT$heapless..vec..Vec$LT$T$C$N$GT$$u20$as$u20$core..iter..traits..collect..IntoIterator$GT$9into_iter17hbbf8d269dd5dae83E>:
_ZN93_$LT$heapless..vec..Vec$LT$T$C$N$GT$$u20$as$u20$core..iter..traits..collect..IntoIterator$GT$9into_iter17hbbf8d269dd5dae83E():
C:\Users\guppy\.cargo\registry\src\github.com-1ecc6299db9ec823\heapless-0.5.1\src/vec.rs:530
    fn into_iter(self) -> Self::IntoIter {
   0:	b580      	push	{r7, lr}
   2:	b096      	sub	sp, #88	; 0x58
   4:	aa04      	add	r2, sp, #16
   6:	2348      	movs	r3, #72	; 0x48
C:\Users\guppy\.cargo\registry\src\github.com-1ecc6299db9ec823\heapless-0.5.1\src/vec.rs:531
        IntoIter { vec: self, next: 0 }
   8:	9003      	str	r0, [sp, #12]
   a:	4610      	mov	r0, r2
   c:	9202      	str	r2, [sp, #8]
   e:	461a      	mov	r2, r3
  10:	9301      	str	r3, [sp, #4]
  12:	f7ff fffe 	bl	0 <__aeabi_memcpy8>
  16:	9803      	ldr	r0, [sp, #12]
  18:	9902      	ldr	r1, [sp, #8]
  1a:	9a01      	ldr	r2, [sp, #4]
  1c:	f7ff fffe 	bl	0 <__aeabi_memcpy8>
  20:	2000      	movs	r0, #0
  22:	9903      	ldr	r1, [sp, #12]
  24:	6488      	str	r0, [r1, #72]	; 0x48
C:\Users\guppy\.cargo\registry\src\github.com-1ecc6299db9ec823\heapless-0.5.1\src/vec.rs:532
    }
  26:	b016      	add	sp, #88	; 0x58
  28:	bd80      	pop	{r7, pc}

Disassembly of section .text._ZN95_$LT$heapless..vec..IntoIter$LT$T$C$N$GT$$u20$as$u20$core..iter..traits..iterator..Iterator$GT$4next17hd319174a1aa81015E:

00000000 <_ZN95_$LT$heapless..vec..IntoIter$LT$T$C$N$GT$$u20$as$u20$core..iter..traits..iterator..Iterator$GT$4next17hd319174a1aa81015E>:
_ZN95_$LT$heapless..vec..IntoIter$LT$T$C$N$GT$$u20$as$u20$core..iter..traits..iterator..Iterator$GT$4next17hd319174a1aa81015E():
C:\Users\guppy\.cargo\registry\src\github.com-1ecc6299db9ec823\heapless-0.5.1\src/vec.rs:481
    fn next(&mut self) -> Option<Self::Item> {
   0:	b5b0      	push	{r4, r5, r7, lr}
   2:	b09c      	sub	sp, #112	; 0x70
   4:	9109      	str	r1, [sp, #36]	; 0x24
C:\Users\guppy\.cargo\registry\src\github.com-1ecc6299db9ec823\heapless-0.5.1\src/vec.rs:482
        if self.next < self.vec.len() {
   6:	9909      	ldr	r1, [sp, #36]	; 0x24
   8:	6c8a      	ldr	r2, [r1, #72]	; 0x48
   a:	9008      	str	r0, [sp, #32]
   c:	4608      	mov	r0, r1
   e:	9207      	str	r2, [sp, #28]
  10:	f7ff fffe 	bl	0 <_ZN95_$LT$heapless..vec..IntoIter$LT$T$C$N$GT$$u20$as$u20$core..iter..traits..iterator..Iterator$GT$4next17hd319174a1aa81015E>
  14:	9006      	str	r0, [sp, #24]
  16:	9105      	str	r1, [sp, #20]
  18:	e7ff      	b.n	1a <_ZN95_$LT$heapless..vec..IntoIter$LT$T$C$N$GT$$u20$as$u20$core..iter..traits..iterator..Iterator$GT$4next17hd319174a1aa81015E+0x1a>
  1a:	9806      	ldr	r0, [sp, #24]
  1c:	9905      	ldr	r1, [sp, #20]
  1e:	f7ff fffe 	bl	0 <_ZN4core5slice29_$LT$impl$u20$$u5b$T$u5d$$GT$3len17h934eb670dc520e39E>
  22:	9004      	str	r0, [sp, #16]
  24:	e7ff      	b.n	26 <_ZN95_$LT$heapless..vec..IntoIter$LT$T$C$N$GT$$u20$as$u20$core..iter..traits..iterator..Iterator$GT$4next17hd319174a1aa81015E+0x26>
  26:	9807      	ldr	r0, [sp, #28]
  28:	9904      	ldr	r1, [sp, #16]
  2a:	4288      	cmp	r0, r1
  2c:	d30e      	bcc.n	4c <_ZN95_$LT$heapless..vec..IntoIter$LT$T$C$N$GT$$u20$as$u20$core..iter..traits..iterator..Iterator$GT$4next17hd319174a1aa81015E+0x4c>
  2e:	e7ff      	b.n	30 <_ZN95_$LT$heapless..vec..IntoIter$LT$T$C$N$GT$$u20$as$u20$core..iter..traits..iterator..Iterator$GT$4next17hd319174a1aa81015E+0x30>
  30:	2000      	movs	r0, #0
C:\Users\guppy\.cargo\registry\src\github.com-1ecc6299db9ec823\heapless-0.5.1\src/vec.rs:491
            None
  32:	9908      	ldr	r1, [sp, #32]
  34:	61c8      	str	r0, [r1, #28]
  36:	6188      	str	r0, [r1, #24]
  38:	6148      	str	r0, [r1, #20]
  3a:	6108      	str	r0, [r1, #16]
  3c:	60c8      	str	r0, [r1, #12]
  3e:	6088      	str	r0, [r1, #8]
  40:	6048      	str	r0, [r1, #4]
  42:	6008      	str	r0, [r1, #0]
  44:	6048      	str	r0, [r1, #4]
  46:	2002      	movs	r0, #2
  48:	6008      	str	r0, [r1, #0]
C:\Users\guppy\.cargo\registry\src\github.com-1ecc6299db9ec823\heapless-0.5.1\src/vec.rs:482
        if self.next < self.vec.len() {
  4a:	e032      	b.n	b2 <_ZN95_$LT$heapless..vec..IntoIter$LT$T$C$N$GT$$u20$as$u20$core..iter..traits..iterator..Iterator$GT$4next17hd319174a1aa81015E+0xb2>
C:\Users\guppy\.cargo\registry\src\github.com-1ecc6299db9ec823\heapless-0.5.1\src/vec.rs:484
                (self.vec.0.buffer.as_ptr() as *const T)
  4c:	9809      	ldr	r0, [sp, #36]	; 0x24
  4e:	901a      	str	r0, [sp, #104]	; 0x68
_ZN4core3mem12maybe_uninit20MaybeUninit$LT$T$GT$6as_ptr17hf22d7d904053bb46E():
/rustc/412f43ac5b4ae8c3599e71c6972112e9be4758fa/src/libcore/mem/maybe_uninit.rs:399
  50:	981a      	ldr	r0, [sp, #104]	; 0x68
  52:	901b      	str	r0, [sp, #108]	; 0x6c
_ZN91_$LT$core..mem..manually_drop..ManuallyDrop$LT$T$GT$$u20$as$u20$core..ops..deref..Deref$GT$5deref17ha4905d7798d6619dE():
/rustc/412f43ac5b4ae8c3599e71c6972112e9be4758fa/src/libcore/mem/manually_drop.rs:138
  54:	981b      	ldr	r0, [sp, #108]	; 0x6c
_ZN95_$LT$heapless..vec..IntoIter$LT$T$C$N$GT$$u20$as$u20$core..iter..traits..iterator..Iterator$GT$4next17hd319174a1aa81015E():
C:\Users\guppy\.cargo\registry\src\github.com-1ecc6299db9ec823\heapless-0.5.1\src/vec.rs:484
  56:	9003      	str	r0, [sp, #12]
  58:	e7ff      	b.n	5a <_ZN95_$LT$heapless..vec..IntoIter$LT$T$C$N$GT$$u20$as$u20$core..iter..traits..iterator..Iterator$GT$4next17hd319174a1aa81015E+0x5a>
C:\Users\guppy\.cargo\registry\src\github.com-1ecc6299db9ec823\heapless-0.5.1\src/vec.rs:485
                    .add(self.next)
  5a:	9809      	ldr	r0, [sp, #36]	; 0x24
  5c:	6c81      	ldr	r1, [r0, #72]	; 0x48
C:\Users\guppy\.cargo\registry\src\github.com-1ecc6299db9ec823\heapless-0.5.1\src/vec.rs:484
                (self.vec.0.buffer.as_ptr() as *const T)
  5e:	9803      	ldr	r0, [sp, #12]
  60:	f7ff fffe 	bl	0 <_ZN4core3ptr33_$LT$impl$u20$$BP$const$u20$T$GT$3add17h65f45b864166c53aE>
  64:	9002      	str	r0, [sp, #8]
  66:	e7ff      	b.n	68 <_ZN95_$LT$heapless..vec..IntoIter$LT$T$C$N$GT$$u20$as$u20$core..iter..traits..iterator..Iterator$GT$4next17hd319174a1aa81015E+0x68>
  68:	a80a      	add	r0, sp, #40	; 0x28
  6a:	9902      	ldr	r1, [sp, #8]
  6c:	f7ff fffe 	bl	0 <_ZN4core3ptr33_$LT$impl$u20$$BP$const$u20$T$GT$4read17hb08fea9eeab742dbE>
  70:	e7ff      	b.n	72 <_ZN95_$LT$heapless..vec..IntoIter$LT$T$C$N$GT$$u20$as$u20$core..iter..traits..iterator..Iterator$GT$4next17hd319174a1aa81015E+0x72>
C:\Users\guppy\.cargo\registry\src\github.com-1ecc6299db9ec823\heapless-0.5.1\src/vec.rs:488
            self.next += 1;
  72:	9809      	ldr	r0, [sp, #36]	; 0x24
  74:	6c80      	ldr	r0, [r0, #72]	; 0x48
  76:	1c41      	adds	r1, r0, #1
  78:	460a      	mov	r2, r1
  7a:	4281      	cmp	r1, r0
  7c:	9201      	str	r2, [sp, #4]
  7e:	d31a      	bcc.n	b6 <_ZN95_$LT$heapless..vec..IntoIter$LT$T$C$N$GT$$u20$as$u20$core..iter..traits..iterator..Iterator$GT$4next17hd319174a1aa81015E+0xb6>
  80:	e7ff      	b.n	82 <_ZN95_$LT$heapless..vec..IntoIter$LT$T$C$N$GT$$u20$as$u20$core..iter..traits..iterator..Iterator$GT$4next17hd319174a1aa81015E+0x82>
  82:	9809      	ldr	r0, [sp, #36]	; 0x24
  84:	9901      	ldr	r1, [sp, #4]
  86:	6481      	str	r1, [r0, #72]	; 0x48
  88:	a80a      	add	r0, sp, #40	; 0x28
  8a:	aa12      	add	r2, sp, #72	; 0x48
C:\Users\guppy\.cargo\registry\src\github.com-1ecc6299db9ec823\heapless-0.5.1\src/vec.rs:489
            Some(item)
  8c:	4613      	mov	r3, r2
  8e:	e8b0 5030 	ldmia.w	r0!, {r4, r5, ip, lr}
  92:	e8a3 5030 	stmia.w	r3!, {r4, r5, ip, lr}
  96:	e890 5030 	ldmia.w	r0, {r4, r5, ip, lr}
  9a:	e883 5030 	stmia.w	r3, {r4, r5, ip, lr}
  9e:	9808      	ldr	r0, [sp, #32]
  a0:	e8b2 5018 	ldmia.w	r2!, {r3, r4, ip, lr}
  a4:	e8a0 5018 	stmia.w	r0!, {r3, r4, ip, lr}
  a8:	e892 5018 	ldmia.w	r2, {r3, r4, ip, lr}
  ac:	e880 5018 	stmia.w	r0, {r3, r4, ip, lr}
C:\Users\guppy\.cargo\registry\src\github.com-1ecc6299db9ec823\heapless-0.5.1\src/vec.rs:482
        if self.next < self.vec.len() {
  b0:	e7ff      	b.n	b2 <_ZN95_$LT$heapless..vec..IntoIter$LT$T$C$N$GT$$u20$as$u20$core..iter..traits..iterator..Iterator$GT$4next17hd319174a1aa81015E+0xb2>
C:\Users\guppy\.cargo\registry\src\github.com-1ecc6299db9ec823\heapless-0.5.1\src/vec.rs:493
    }
  b2:	b01c      	add	sp, #112	; 0x70
  b4:	bdb0      	pop	{r4, r5, r7, pc}
C:\Users\guppy\.cargo\registry\src\github.com-1ecc6299db9ec823\heapless-0.5.1\src/vec.rs:488
            self.next += 1;
  b6:	f240 0000 	movw	r0, #0
  ba:	f2c0 0000 	movt	r0, #0
  be:	f240 0200 	movw	r2, #0
  c2:	f2c0 0200 	movt	r2, #0
  c6:	211c      	movs	r1, #28
  c8:	f7ff fffe 	bl	0 <_ZN4core9panicking5panic17hfdd0eecc44a682f8E>
  cc:	defe      	udf	#254	; 0xfe

app-20d859f505b9d0c6.14p2q1kwod7oja8t.rcgu.o:     file format elf32-littlearm

SYMBOL TABLE:
00000000 l    df *ABS*	00000000 14p2q1kwod7oja8t
0000160c l       .debug_str	00000000 
0000556d l       .debug_str	00000000 
000058e9 l       .debug_str	00000000 
00005568 l       .debug_str	00000000 
00005819 l       .debug_str	00000000 
0000545c l       .debug_str	00000000 
00005815 l       .debug_str	00000000 
00005388 l       .debug_str	00000000 
00005755 l       .debug_str	00000000 
000052df l       .debug_str	00000000 
0000525d l       .debug_str	00000000 
0000517c l       .debug_str	00000000 
00005750 l       .debug_str	00000000 
000050fa l       .debug_str	00000000 
0000574c l       .debug_str	00000000 
00005061 l       .debug_str	00000000 
00005745 l       .debug_str	00000000 
00004fdf l       .debug_str	00000000 
00004fa0 l       .debug_str	00000000 
00005713 l       .debug_str	00000000 
00004ef7 l       .debug_str	00000000 
000056d9 l       .debug_str	00000000 
00004e75 l       .debug_str	00000000 
000056ac l       .debug_str	00000000 
00004ddf l       .debug_str	00000000 
000056a8 l       .debug_str	00000000 
00004d60 l       .debug_str	00000000 
000056a4 l       .debug_str	00000000 
00004d18 l       .debug_str	00000000 
0000569e l       .debug_str	00000000 
00004c73 l       .debug_str	00000000 
00005699 l       .debug_str	00000000 
00004bf5 l       .debug_str	00000000 
0000566a l       .debug_str	00000000 
00004bbd l       .debug_str	00000000 
00005637 l       .debug_str	00000000 
00000000 l       .debug_str	00000000 
00000041 l       .debug_str	00000000 
00000055 l       .debug_str	00000000 
00000074 l       .debug_str	00000000 
0000007a l       .debug_str	00000000 
00000081 l       .debug_str	00000000 
00000086 l       .debug_str	00000000 
00000089 l       .debug_str	00000000 
00000094 l       .debug_str	00000000 
0000009d l       .debug_str	00000000 
000000a2 l       .debug_str	00000000 
000000a7 l       .debug_str	00000000 
000000ae l       .debug_str	00000000 
000000b3 l       .debug_str	00000000 
000000b8 l       .debug_str	00000000 
000000bf l       .debug_str	00000000 
000000c6 l       .debug_str	00000000 
000000c9 l       .debug_str	00000000 
000000cd l       .debug_str	00000000 
000000d4 l       .debug_str	00000000 
000000dd l       .debug_str	00000000 
000000df l       .debug_str	00000000 
000000e6 l       .debug_str	00000000 
000000ea l       .debug_str	00000000 
000000f7 l       .debug_str	00000000 
000000fe l       .debug_str	00000000 
00000101 l       .debug_str	00000000 
00000107 l       .debug_str	00000000 
00000115 l       .debug_str	00000000 
00000123 l       .debug_str	00000000 
00000128 l       .debug_str	00000000 
00000130 l       .debug_str	00000000 
00000138 l       .debug_str	00000000 
0000013c l       .debug_str	00000000 
00000145 l       .debug_str	00000000 
0000014f l       .debug_str	00000000 
00000156 l       .debug_str	00000000 
0000015c l       .debug_str	00000000 
00000161 l       .debug_str	00000000 
00000165 l       .debug_str	00000000 
00000172 l       .debug_str	00000000 
0000017b l       .debug_str	00000000 
0000017f l       .debug_str	00000000 
00000186 l       .debug_str	00000000 
0000018d l       .debug_str	00000000 
00000191 l       .debug_str	00000000 
00000193 l       .debug_str	00000000 
00000195 l       .debug_str	00000000 
000001b1 l       .debug_str	00000000 
000001b9 l       .debug_str	00000000 
000001c0 l       .debug_str	00000000 
000001d0 l       .debug_str	00000000 
00000215 l       .debug_str	00000000 
00000282 l       .debug_str	00000000 
00000318 l       .debug_str	00000000 
000003d7 l       .debug_str	00000000 
000003df l       .debug_str	00000000 
000003e4 l       .debug_str	00000000 
000003ea l       .debug_str	00000000 
000003ee l       .debug_str	00000000 
000003f1 l       .debug_str	00000000 
0000041a l       .debug_str	00000000 
00000450 l       .debug_str	00000000 
00000452 l       .debug_str	00000000 
0000047f l       .debug_str	00000000 
00000482 l       .debug_str	00000000 
000004d2 l       .debug_str	00000000 
0000052f l       .debug_str	00000000 
00000583 l       .debug_str	00000000 
000005fa l       .debug_str	00000000 
0000067e l       .debug_str	00000000 
000006f9 l       .debug_str	00000000 
00000797 l       .debug_str	00000000 
00000842 l       .debug_str	00000000 
000008e4 l       .debug_str	00000000 
000009a9 l       .debug_str	00000000 
00000a7b l       .debug_str	00000000 
00000b44 l       .debug_str	00000000 
00000c2e l       .debug_str	00000000 
00000d35 l       .debug_str	00000000 
00000e3b l       .debug_str	00000000 
00000e3f l       .debug_str	00000000 
00000e41 l       .debug_str	00000000 
00000f3f l       .debug_str	00000000 
00001040 l       .debug_str	00000000 
00001042 l       .debug_str	00000000 
00001122 l       .debug_str	00000000 
00001126 l       .debug_str	00000000 
0000112c l       .debug_str	00000000 
00001135 l       .debug_str	00000000 
0000113a l       .debug_str	00000000 
0000113e l       .debug_str	00000000 
00001142 l       .debug_str	00000000 
00001153 l       .debug_str	00000000 
0000118b l       .debug_str	00000000 
0000119a l       .debug_str	00000000 
000011c6 l       .debug_str	00000000 
0000120b l       .debug_str	00000000 
00001244 l       .debug_str	00000000 
000012db l       .debug_str	00000000 
00001379 l       .debug_str	00000000 
00001434 l       .debug_str	00000000 
000014ee l       .debug_str	00000000 
000015a0 l       .debug_str	00000000 
000015a6 l       .debug_str	00000000 
000015b2 l       .debug_str	00000000 
000015b8 l       .debug_str	00000000 
000015bd l       .debug_str	00000000 
000015c0 l       .debug_str	00000000 
000015c4 l       .debug_str	00000000 
000015c7 l       .debug_str	00000000 
000015ca l       .debug_str	00000000 
000015cd l       .debug_str	00000000 
000015d2 l       .debug_str	00000000 
000015de l       .debug_str	00000000 
000015e3 l       .debug_str	00000000 
000015ea l       .debug_str	00000000 
000015f4 l       .debug_str	00000000 
000015ff l       .debug_str	00000000 
00004b28 l       .debug_str	00000000 
0000161a l       .debug_str	00000000 
00001624 l       .debug_str	00000000 
00001632 l       .debug_str	00000000 
0000163c l       .debug_str	00000000 
00001645 l       .debug_str	00000000 
00001651 l       .debug_str	00000000 
00001657 l       .debug_str	00000000 
00001661 l       .debug_str	00000000 
00001672 l       .debug_str	00000000 
00001674 l       .debug_str	00000000 
00001683 l       .debug_str	00000000 
00001685 l       .debug_str	00000000 
000016be l       .debug_str	00000000 
000016c5 l       .debug_str	00000000 
000016cc l       .debug_str	00000000 
000016dd l       .debug_str	00000000 
0000171c l       .debug_str	00000000 
0000174f l       .debug_str	00000000 
000017da l       .debug_str	00000000 
000018b1 l       .debug_str	00000000 
000019d4 l       .debug_str	00000000 
00001a4b l       .debug_str	00000000 
00001acf l       .debug_str	00000000 
00001b4a l       .debug_str	00000000 
00001be8 l       .debug_str	00000000 
00001c93 l       .debug_str	00000000 
00001d35 l       .debug_str	00000000 
00001e1b l       .debug_str	00000000 
00001f1e l       .debug_str	00000000 
00002020 l       .debug_str	00000000 
0000211a l       .debug_str	00000000 
0000211e l       .debug_str	00000000 
0000212b l       .debug_str	00000000 
0000212e l       .debug_str	00000000 
00002138 l       .debug_str	00000000 
00002141 l       .debug_str	00000000 
0000221e l       .debug_str	00000000 
00002228 l       .debug_str	00000000 
0000224f l       .debug_str	00000000 
00002254 l       .debug_str	00000000 
00002258 l       .debug_str	00000000 
0000225e l       .debug_str	00000000 
00002265 l       .debug_str	00000000 
0000226a l       .debug_str	00000000 
00002284 l       .debug_str	00000000 
0000228b l       .debug_str	00000000 
00002294 l       .debug_str	00000000 
000022a1 l       .debug_str	00000000 
000022d1 l       .debug_str	00000000 
00002326 l       .debug_str	00000000 
0000236f l       .debug_str	00000000 
00002426 l       .debug_str	00000000 
000024d4 l       .debug_str	00000000 
0000259f l       .debug_str	00000000 
00002669 l       .debug_str	00000000 
0000272b l       .debug_str	00000000 
0000277c l       .debug_str	00000000 
00002845 l       .debug_str	00000000 
00002907 l       .debug_str	00000000 
0000290c l       .debug_str	00000000 
000029f4 l       .debug_str	00000000 
000029fd l       .debug_str	00000000 
00002a7f l       .debug_str	00000000 
00002b47 l       .debug_str	00000000 
00002c09 l       .debug_str	00000000 
00002cf3 l       .debug_str	00000000 
00002d44 l       .debug_str	00000000 
00002e45 l       .debug_str	00000000 
00002f3f l       .debug_str	00000000 
0000305f l       .debug_str	00000000 
000030e1 l       .debug_str	00000000 
000031e1 l       .debug_str	00000000 
000032db l       .debug_str	00000000 
000033fd l       .debug_str	00000000 
0000344e l       .debug_str	00000000 
00003507 l       .debug_str	00000000 
000035b9 l       .debug_str	00000000 
00003691 l       .debug_str	00000000 
00003713 l       .debug_str	00000000 
000037cb l       .debug_str	00000000 
0000387d l       .debug_str	00000000 
00003957 l       .debug_str	00000000 
000039a3 l       .debug_str	00000000 
00003a68 l       .debug_str	00000000 
00003b2c l       .debug_str	00000000 
00003c10 l       .debug_str	00000000 
00003c8b l       .debug_str	00000000 
00003d4f l       .debug_str	00000000 
00003e0d l       .debug_str	00000000 
00003ef3 l       .debug_str	00000000 
00003f49 l       .debug_str	00000000 
00003ffb l       .debug_str	00000000 
00004051 l       .debug_str	00000000 
0000414b l       .debug_str	00000000 
000041a1 l       .debug_str	00000000 
00004263 l       .debug_str	00000000 
000042ea l       .debug_str	00000000 
00004397 l       .debug_str	00000000 
000043da l       .debug_str	00000000 
0000441d l       .debug_str	00000000 
000044a6 l       .debug_str	00000000 
0000458d l       .debug_str	00000000 
00004616 l       .debug_str	00000000 
000046c5 l       .debug_str	00000000 
0000474e l       .debug_str	00000000 
000047ed l       .debug_str	00000000 
00004879 l       .debug_str	00000000 
0000491b l       .debug_str	00000000 
00004999 l       .debug_str	00000000 
00004a76 l       .debug_str	00000000 
00004a78 l       .debug_str	00000000 
00004aaa l       .debug_str	00000000 
00005631 l       .debug_str	00000000 
00000000 l     O .rodata..Lanon.15980083db6a277dd06d018a0f1969e1.1	00000010 .Lanon.15980083db6a277dd06d018a0f1969e1.1
00000000 l     O .rodata..Lanon.15980083db6a277dd06d018a0f1969e1.2	00000010 .Lanon.15980083db6a277dd06d018a0f1969e1.2
00000000 l     O .rodata.str.0	0000001c str.0
00000000 l    d  .text._ZN8heapless3vec43_$LT$impl$u20$heapless..i..Vec$LT$A$GT$$GT$3new17hd2634fc44b0cb99fE	00000000 .text._ZN8heapless3vec43_$LT$impl$u20$heapless..i..Vec$LT$A$GT$$GT$3new17hd2634fc44b0cb99fE
00000000 l    d  .text._ZN8heapless3vec43_$LT$impl$u20$heapless..i..Vec$LT$A$GT$$GT$3new17hf9b9203cb4cb4114E	00000000 .text._ZN8heapless3vec43_$LT$impl$u20$heapless..i..Vec$LT$A$GT$$GT$3new17hf9b9203cb4cb4114E
00000000 l    d  .text._ZN8heapless3vec43_$LT$impl$u20$heapless..i..Vec$LT$A$GT$$GT$3new17hff32296d9b6fd30aE	00000000 .text._ZN8heapless3vec43_$LT$impl$u20$heapless..i..Vec$LT$A$GT$$GT$3new17hff32296d9b6fd30aE
00000000 l    d  .text._ZN8heapless3vec82_$LT$impl$u20$heapless..i..Vec$LT$generic_array..GenericArray$LT$T$C$N$GT$$GT$$GT$12as_mut_slice17h651fb504ccc9912fE	00000000 .text._ZN8heapless3vec82_$LT$impl$u20$heapless..i..Vec$LT$generic_array..GenericArray$LT$T$C$N$GT$$GT$$GT$12as_mut_slice17h651fb504ccc9912fE
00000000 l    d  .text._ZN8heapless3vec82_$LT$impl$u20$heapless..i..Vec$LT$generic_array..GenericArray$LT$T$C$N$GT$$GT$$GT$14push_unchecked17h4be2d4b4b03e7494E	00000000 .text._ZN8heapless3vec82_$LT$impl$u20$heapless..i..Vec$LT$generic_array..GenericArray$LT$T$C$N$GT$$GT$$GT$14push_unchecked17h4be2d4b4b03e7494E
00000000 l    d  .text._ZN8heapless3vec82_$LT$impl$u20$heapless..i..Vec$LT$generic_array..GenericArray$LT$T$C$N$GT$$GT$$GT$14push_unchecked17haec5afc7f2487db4E	00000000 .text._ZN8heapless3vec82_$LT$impl$u20$heapless..i..Vec$LT$generic_array..GenericArray$LT$T$C$N$GT$$GT$$GT$14push_unchecked17haec5afc7f2487db4E
00000000 l    d  .text._ZN8heapless3vec82_$LT$impl$u20$heapless..i..Vec$LT$generic_array..GenericArray$LT$T$C$N$GT$$GT$$GT$14push_unchecked17hb3d923de4f84c84bE	00000000 .text._ZN8heapless3vec82_$LT$impl$u20$heapless..i..Vec$LT$generic_array..GenericArray$LT$T$C$N$GT$$GT$$GT$14push_unchecked17hb3d923de4f84c84bE
00000000 l    d  .text._ZN8heapless3vec82_$LT$impl$u20$heapless..i..Vec$LT$generic_array..GenericArray$LT$T$C$N$GT$$GT$$GT$17extend_from_slice17hf78987a63072f229E	00000000 .text._ZN8heapless3vec82_$LT$impl$u20$heapless..i..Vec$LT$generic_array..GenericArray$LT$T$C$N$GT$$GT$$GT$17extend_from_slice17hf78987a63072f229E
00000000 l    d  .text._ZN8heapless3vec82_$LT$impl$u20$heapless..i..Vec$LT$generic_array..GenericArray$LT$T$C$N$GT$$GT$$GT$4push17h15f0297b9c1d540fE	00000000 .text._ZN8heapless3vec82_$LT$impl$u20$heapless..i..Vec$LT$generic_array..GenericArray$LT$T$C$N$GT$$GT$$GT$4push17h15f0297b9c1d540fE
00000000 l    d  .text._ZN8heapless3vec82_$LT$impl$u20$heapless..i..Vec$LT$generic_array..GenericArray$LT$T$C$N$GT$$GT$$GT$4push17h64a3894c7a4114cdE	00000000 .text._ZN8heapless3vec82_$LT$impl$u20$heapless..i..Vec$LT$generic_array..GenericArray$LT$T$C$N$GT$$GT$$GT$4push17h64a3894c7a4114cdE
00000000 l    d  .text._ZN8heapless3vec82_$LT$impl$u20$heapless..i..Vec$LT$generic_array..GenericArray$LT$T$C$N$GT$$GT$$GT$4push17hb1e08ed7c324ec29E	00000000 .text._ZN8heapless3vec82_$LT$impl$u20$heapless..i..Vec$LT$generic_array..GenericArray$LT$T$C$N$GT$$GT$$GT$4push17hb1e08ed7c324ec29E
00000000 l    d  .text._ZN8heapless3vec82_$LT$impl$u20$heapless..i..Vec$LT$generic_array..GenericArray$LT$T$C$N$GT$$GT$$GT$5clone17hacad4dd94d2a4ef0E	00000000 .text._ZN8heapless3vec82_$LT$impl$u20$heapless..i..Vec$LT$generic_array..GenericArray$LT$T$C$N$GT$$GT$$GT$5clone17hacad4dd94d2a4ef0E
00000000 l    d  .text._ZN8heapless3vec82_$LT$impl$u20$heapless..i..Vec$LT$generic_array..GenericArray$LT$T$C$N$GT$$GT$$GT$8as_slice17h4d9c18d3854eac7eE	00000000 .text._ZN8heapless3vec82_$LT$impl$u20$heapless..i..Vec$LT$generic_array..GenericArray$LT$T$C$N$GT$$GT$$GT$8as_slice17h4d9c18d3854eac7eE
00000000 l    d  .text._ZN8heapless3vec82_$LT$impl$u20$heapless..i..Vec$LT$generic_array..GenericArray$LT$T$C$N$GT$$GT$$GT$8capacity17h6f2029c6f4a3d4abE	00000000 .text._ZN8heapless3vec82_$LT$impl$u20$heapless..i..Vec$LT$generic_array..GenericArray$LT$T$C$N$GT$$GT$$GT$8capacity17h6f2029c6f4a3d4abE
00000000 l    d  .text._ZN8heapless3vec82_$LT$impl$u20$heapless..i..Vec$LT$generic_array..GenericArray$LT$T$C$N$GT$$GT$$GT$8capacity17h80941c2048937f1bE	00000000 .text._ZN8heapless3vec82_$LT$impl$u20$heapless..i..Vec$LT$generic_array..GenericArray$LT$T$C$N$GT$$GT$$GT$8capacity17h80941c2048937f1bE
00000000 l    d  .text._ZN8heapless3vec82_$LT$impl$u20$heapless..i..Vec$LT$generic_array..GenericArray$LT$T$C$N$GT$$GT$$GT$8capacity17hd89e295baab3401eE	00000000 .text._ZN8heapless3vec82_$LT$impl$u20$heapless..i..Vec$LT$generic_array..GenericArray$LT$T$C$N$GT$$GT$$GT$8capacity17hd89e295baab3401eE
00000000 l    d  .rodata..Lanon.15980083db6a277dd06d018a0f1969e1.0	00000000 .rodata..Lanon.15980083db6a277dd06d018a0f1969e1.0
00000000 l    d  .debug_loc	00000000 .debug_loc
00000000 l    d  .debug_abbrev	00000000 .debug_abbrev
00000000 l    d  .debug_info	00000000 .debug_info
00000000 l    d  .debug_ranges	00000000 .debug_ranges
00000000 l    d  .debug_frame	00000000 .debug_frame
00000000 l    d  .debug_line	00000000 .debug_line
00000000         *UND*	00000000 _ZN4core3ptr31_$LT$impl$u20$$BP$mut$u20$T$GT$3add17h54d7a988c720ee7cE
00000000         *UND*	00000000 _ZN4core3ptr31_$LT$impl$u20$$BP$mut$u20$T$GT$3add17hbb03a50b722c5582E
00000000         *UND*	00000000 _ZN4core3ptr31_$LT$impl$u20$$BP$mut$u20$T$GT$3add17hc9169431d245026cE
00000000         *UND*	00000000 _ZN4core3ptr31_$LT$impl$u20$$BP$mut$u20$T$GT$5write17h03b017d96e3ab5bfE
00000000         *UND*	00000000 _ZN4core3ptr31_$LT$impl$u20$$BP$mut$u20$T$GT$5write17hae450ee785200527E
00000000         *UND*	00000000 _ZN4core3ptr31_$LT$impl$u20$$BP$mut$u20$T$GT$5write17hc6b68f076a3ba46aE
00000000         *UND*	00000000 _ZN4core5clone5Clone5clone17h106374a95124ca8eE
00000000         *UND*	00000000 _ZN4core5slice14from_raw_parts17he5f5af62e55cd39bE
00000000         *UND*	00000000 _ZN4core5slice18from_raw_parts_mut17h66990f4ddfd606a3E
00000000         *UND*	00000000 _ZN4core5slice29_$LT$impl$u20$$u5b$T$u5d$$GT$3len17h907d8a2ba7fd297aE
00000000         *UND*	00000000 _ZN4core5slice87_$LT$impl$u20$core..iter..traits..collect..IntoIterator$u20$for$u20$$RF$$u5b$T$u5d$$GT$9into_iter17he129093a62c90e54E
00000000         *UND*	00000000 _ZN4core6result19Result$LT$T$C$E$GT$6unwrap17h52e290cd2bed07dbE
00000000         *UND*	00000000 _ZN4core9panicking5panic17hfdd0eecc44a682f8E
00000000         *UND*	00000000 _ZN85_$LT$core..slice..Iter$LT$T$GT$$u20$as$u20$core..iter..traits..iterator..Iterator$GT$4next17h0f4b7d4c99e8107eE
00000000         *UND*	00000000 _ZN85_$LT$typenum..uint..UInt$LT$U$C$B$GT$$u20$as$u20$typenum..marker_traits..Unsigned$GT$8to_usize17h6b0faa23185bf2c8E
00000000         *UND*	00000000 _ZN85_$LT$typenum..uint..UInt$LT$U$C$B$GT$$u20$as$u20$typenum..marker_traits..Unsigned$GT$8to_usize17h8887cd722bab15e8E
00000000 g     F .text._ZN8heapless3vec43_$LT$impl$u20$heapless..i..Vec$LT$A$GT$$GT$3new17hd2634fc44b0cb99fE	0000001e _ZN8heapless3vec43_$LT$impl$u20$heapless..i..Vec$LT$A$GT$$GT$3new17hd2634fc44b0cb99fE
00000000 g     F .text._ZN8heapless3vec43_$LT$impl$u20$heapless..i..Vec$LT$A$GT$$GT$3new17hf9b9203cb4cb4114E	00000024 _ZN8heapless3vec43_$LT$impl$u20$heapless..i..Vec$LT$A$GT$$GT$3new17hf9b9203cb4cb4114E
00000000 g     F .text._ZN8heapless3vec43_$LT$impl$u20$heapless..i..Vec$LT$A$GT$$GT$3new17hff32296d9b6fd30aE	0000002e _ZN8heapless3vec43_$LT$impl$u20$heapless..i..Vec$LT$A$GT$$GT$3new17hff32296d9b6fd30aE
00000000 g     F .text._ZN8heapless3vec82_$LT$impl$u20$heapless..i..Vec$LT$generic_array..GenericArray$LT$T$C$N$GT$$GT$$GT$12as_mut_slice17h651fb504ccc9912fE	0000002c _ZN8heapless3vec82_$LT$impl$u20$heapless..i..Vec$LT$generic_array..GenericArray$LT$T$C$N$GT$$GT$$GT$12as_mut_slice17h651fb504ccc9912fE
00000000 g     F .text._ZN8heapless3vec82_$LT$impl$u20$heapless..i..Vec$LT$generic_array..GenericArray$LT$T$C$N$GT$$GT$$GT$14push_unchecked17h4be2d4b4b03e7494E	00000088 _ZN8heapless3vec82_$LT$impl$u20$heapless..i..Vec$LT$generic_array..GenericArray$LT$T$C$N$GT$$GT$$GT$14push_unchecked17h4be2d4b4b03e7494E
00000000 g     F .text._ZN8heapless3vec82_$LT$impl$u20$heapless..i..Vec$LT$generic_array..GenericArray$LT$T$C$N$GT$$GT$$GT$14push_unchecked17haec5afc7f2487db4E	0000007a _ZN8heapless3vec82_$LT$impl$u20$heapless..i..Vec$LT$generic_array..GenericArray$LT$T$C$N$GT$$GT$$GT$14push_unchecked17haec5afc7f2487db4E
00000000 g     F .text._ZN8heapless3vec82_$LT$impl$u20$heapless..i..Vec$LT$generic_array..GenericArray$LT$T$C$N$GT$$GT$$GT$14push_unchecked17hb3d923de4f84c84bE	0000006e _ZN8heapless3vec82_$LT$impl$u20$heapless..i..Vec$LT$generic_array..GenericArray$LT$T$C$N$GT$$GT$$GT$14push_unchecked17hb3d923de4f84c84bE
00000000 g     F .text._ZN8heapless3vec82_$LT$impl$u20$heapless..i..Vec$LT$generic_array..GenericArray$LT$T$C$N$GT$$GT$$GT$17extend_from_slice17hf78987a63072f229E	000000d2 _ZN8heapless3vec82_$LT$impl$u20$heapless..i..Vec$LT$generic_array..GenericArray$LT$T$C$N$GT$$GT$$GT$17extend_from_slice17hf78987a63072f229E
00000000 g     F .text._ZN8heapless3vec82_$LT$impl$u20$heapless..i..Vec$LT$generic_array..GenericArray$LT$T$C$N$GT$$GT$$GT$4push17h15f0297b9c1d540fE	0000009a _ZN8heapless3vec82_$LT$impl$u20$heapless..i..Vec$LT$generic_array..GenericArray$LT$T$C$N$GT$$GT$$GT$4push17h15f0297b9c1d540fE
00000000 g     F .text._ZN8heapless3vec82_$LT$impl$u20$heapless..i..Vec$LT$generic_array..GenericArray$LT$T$C$N$GT$$GT$$GT$4push17h64a3894c7a4114cdE	00000078 _ZN8heapless3vec82_$LT$impl$u20$heapless..i..Vec$LT$generic_array..GenericArray$LT$T$C$N$GT$$GT$$GT$4push17h64a3894c7a4114cdE
00000000 g     F .text._ZN8heapless3vec82_$LT$impl$u20$heapless..i..Vec$LT$generic_array..GenericArray$LT$T$C$N$GT$$GT$$GT$4push17hb1e08ed7c324ec29E	0000008c _ZN8heapless3vec82_$LT$impl$u20$heapless..i..Vec$LT$generic_array..GenericArray$LT$T$C$N$GT$$GT$$GT$4push17hb1e08ed7c324ec29E
00000000 g     F .text._ZN8heapless3vec82_$LT$impl$u20$heapless..i..Vec$LT$generic_array..GenericArray$LT$T$C$N$GT$$GT$$GT$5clone17hacad4dd94d2a4ef0E	00000050 _ZN8heapless3vec82_$LT$impl$u20$heapless..i..Vec$LT$generic_array..GenericArray$LT$T$C$N$GT$$GT$$GT$5clone17hacad4dd94d2a4ef0E
00000000         *UND*	00000000 _ZN8heapless3vec82_$LT$impl$u20$heapless..i..Vec$LT$generic_array..GenericArray$LT$T$C$N$GT$$GT$$GT$8as_slice17h04d9198a6474c109E
00000000 g     F .text._ZN8heapless3vec82_$LT$impl$u20$heapless..i..Vec$LT$generic_array..GenericArray$LT$T$C$N$GT$$GT$$GT$8as_slice17h4d9c18d3854eac7eE	0000002c _ZN8heapless3vec82_$LT$impl$u20$heapless..i..Vec$LT$generic_array..GenericArray$LT$T$C$N$GT$$GT$$GT$8as_slice17h4d9c18d3854eac7eE
00000000 g     F .text._ZN8heapless3vec82_$LT$impl$u20$heapless..i..Vec$LT$generic_array..GenericArray$LT$T$C$N$GT$$GT$$GT$8capacity17h6f2029c6f4a3d4abE	00000014 _ZN8heapless3vec82_$LT$impl$u20$heapless..i..Vec$LT$generic_array..GenericArray$LT$T$C$N$GT$$GT$$GT$8capacity17h6f2029c6f4a3d4abE
00000000 g     F .text._ZN8heapless3vec82_$LT$impl$u20$heapless..i..Vec$LT$generic_array..GenericArray$LT$T$C$N$GT$$GT$$GT$8capacity17h80941c2048937f1bE	00000014 _ZN8heapless3vec82_$LT$impl$u20$heapless..i..Vec$LT$generic_array..GenericArray$LT$T$C$N$GT$$GT$$GT$8capacity17h80941c2048937f1bE
00000000 g     F .text._ZN8heapless3vec82_$LT$impl$u20$heapless..i..Vec$LT$generic_array..GenericArray$LT$T$C$N$GT$$GT$$GT$8capacity17hd89e295baab3401eE	00000014 _ZN8heapless3vec82_$LT$impl$u20$heapless..i..Vec$LT$generic_array..GenericArray$LT$T$C$N$GT$$GT$$GT$8capacity17hd89e295baab3401eE
00000000         *UND*	00000000 __aeabi_memclr8
00000000         *UND*	00000000 __aeabi_memcpy8



Disassembly of section .text._ZN8heapless3vec43_$LT$impl$u20$heapless..i..Vec$LT$A$GT$$GT$3new17hd2634fc44b0cb99fE:

00000000 <_ZN8heapless3vec43_$LT$impl$u20$heapless..i..Vec$LT$A$GT$$GT$3new17hd2634fc44b0cb99fE>:
_ZN8heapless3vec43_$LT$impl$u20$heapless..i..Vec$LT$A$GT$$GT$3new17hd2634fc44b0cb99fE():
C:\Users\guppy\.cargo\registry\src\github.com-1ecc6299db9ec823\heapless-0.5.1\src/vec.rs:8
use generic_array::{ArrayLength, GenericArray};
use hash32;

impl<A> crate::i::Vec<A> {
    /// `Vec` `const` constructor; wrap the returned value in [`Vec`](../struct.Vec.html)
    pub const fn new() -> Self {
   0:	b5b0      	push	{r4, r5, r7, lr}
   2:	b087      	sub	sp, #28
C:\Users\guppy\.cargo\registry\src\github.com-1ecc6299db9ec823\heapless-0.5.1\src/vec.rs:10
        Self {
            buffer: MaybeUninit::uninit(),
   4:	9000      	str	r0, [sp, #0]
   6:	e7ff      	b.n	8 <_ZN8heapless3vec43_$LT$impl$u20$heapless..i..Vec$LT$A$GT$$GT$3new17hd2634fc44b0cb99fE+0x8>
   8:	a801      	add	r0, sp, #4
C:\Users\guppy\.cargo\registry\src\github.com-1ecc6299db9ec823\heapless-0.5.1\src/vec.rs:9
        Self {
   a:	9900      	ldr	r1, [sp, #0]
   c:	e890 503c 	ldmia.w	r0, {r2, r3, r4, r5, ip, lr}
  10:	e881 503c 	stmia.w	r1, {r2, r3, r4, r5, ip, lr}
  14:	2000      	movs	r0, #0
  16:	9900      	ldr	r1, [sp, #0]
  18:	6188      	str	r0, [r1, #24]
C:\Users\guppy\.cargo\registry\src\github.com-1ecc6299db9ec823\heapless-0.5.1\src/vec.rs:13
            len: 0,
        }
    }
  1a:	b007      	add	sp, #28
  1c:	bdb0      	pop	{r4, r5, r7, pc}

Disassembly of section .text._ZN8heapless3vec43_$LT$impl$u20$heapless..i..Vec$LT$A$GT$$GT$3new17hf9b9203cb4cb4114E:

00000000 <_ZN8heapless3vec43_$LT$impl$u20$heapless..i..Vec$LT$A$GT$$GT$3new17hf9b9203cb4cb4114E>:
_ZN8heapless3vec43_$LT$impl$u20$heapless..i..Vec$LT$A$GT$$GT$3new17hf9b9203cb4cb4114E():
C:\Users\guppy\.cargo\registry\src\github.com-1ecc6299db9ec823\heapless-0.5.1\src/vec.rs:8
    pub const fn new() -> Self {
   0:	b580      	push	{r7, lr}
   2:	f5ad 7d02 	sub.w	sp, sp, #520	; 0x208
C:\Users\guppy\.cargo\registry\src\github.com-1ecc6299db9ec823\heapless-0.5.1\src/vec.rs:10
            buffer: MaybeUninit::uninit(),
   6:	9001      	str	r0, [sp, #4]
   8:	e7ff      	b.n	a <_ZN8heapless3vec43_$LT$impl$u20$heapless..i..Vec$LT$A$GT$$GT$3new17hf9b9203cb4cb4114E+0xa>
   a:	a902      	add	r1, sp, #8
   c:	f44f 7200 	mov.w	r2, #512	; 0x200
C:\Users\guppy\.cargo\registry\src\github.com-1ecc6299db9ec823\heapless-0.5.1\src/vec.rs:9
        Self {
  10:	9801      	ldr	r0, [sp, #4]
  12:	f7ff fffe 	bl	0 <__aeabi_memcpy8>
  16:	2000      	movs	r0, #0
  18:	9901      	ldr	r1, [sp, #4]
  1a:	f8c1 0200 	str.w	r0, [r1, #512]	; 0x200
C:\Users\guppy\.cargo\registry\src\github.com-1ecc6299db9ec823\heapless-0.5.1\src/vec.rs:13
    }
  1e:	f50d 7d02 	add.w	sp, sp, #520	; 0x208
  22:	bd80      	pop	{r7, pc}

Disassembly of section .text._ZN8heapless3vec43_$LT$impl$u20$heapless..i..Vec$LT$A$GT$$GT$3new17hff32296d9b6fd30aE:

00000000 <_ZN8heapless3vec43_$LT$impl$u20$heapless..i..Vec$LT$A$GT$$GT$3new17hff32296d9b6fd30aE>:
_ZN8heapless3vec43_$LT$impl$u20$heapless..i..Vec$LT$A$GT$$GT$3new17hff32296d9b6fd30aE():
C:\Users\guppy\.cargo\registry\src\github.com-1ecc6299db9ec823\heapless-0.5.1\src/vec.rs:8
    pub const fn new() -> Self {
   0:	b5b0      	push	{r4, r5, r7, lr}
   2:	b092      	sub	sp, #72	; 0x48
C:\Users\guppy\.cargo\registry\src\github.com-1ecc6299db9ec823\heapless-0.5.1\src/vec.rs:10
            buffer: MaybeUninit::uninit(),
   4:	9001      	str	r0, [sp, #4]
   6:	e7ff      	b.n	8 <_ZN8heapless3vec43_$LT$impl$u20$heapless..i..Vec$LT$A$GT$$GT$3new17hff32296d9b6fd30aE+0x8>
   8:	a802      	add	r0, sp, #8
C:\Users\guppy\.cargo\registry\src\github.com-1ecc6299db9ec823\heapless-0.5.1\src/vec.rs:9
        Self {
   a:	9901      	ldr	r1, [sp, #4]
   c:	e8b0 501c 	ldmia.w	r0!, {r2, r3, r4, ip, lr}
  10:	e8a1 501c 	stmia.w	r1!, {r2, r3, r4, ip, lr}
  14:	e8b0 501c 	ldmia.w	r0!, {r2, r3, r4, ip, lr}
  18:	e8a1 501c 	stmia.w	r1!, {r2, r3, r4, ip, lr}
  1c:	e890 503c 	ldmia.w	r0, {r2, r3, r4, r5, ip, lr}
  20:	e881 503c 	stmia.w	r1, {r2, r3, r4, r5, ip, lr}
  24:	2000      	movs	r0, #0
  26:	9901      	ldr	r1, [sp, #4]
  28:	6408      	str	r0, [r1, #64]	; 0x40
C:\Users\guppy\.cargo\registry\src\github.com-1ecc6299db9ec823\heapless-0.5.1\src/vec.rs:13
    }
  2a:	b012      	add	sp, #72	; 0x48
  2c:	bdb0      	pop	{r4, r5, r7, pc}

Disassembly of section .text._ZN8heapless3vec82_$LT$impl$u20$heapless..i..Vec$LT$generic_array..GenericArray$LT$T$C$N$GT$$GT$$GT$12as_mut_slice17h651fb504ccc9912fE:

00000000 <_ZN8heapless3vec82_$LT$impl$u20$heapless..i..Vec$LT$generic_array..GenericArray$LT$T$C$N$GT$$GT$$GT$12as_mut_slice17h651fb504ccc9912fE>:
_ZN8heapless3vec82_$LT$impl$u20$heapless..i..Vec$LT$generic_array..GenericArray$LT$T$C$N$GT$$GT$$GT$12as_mut_slice17h651fb504ccc9912fE():
C:\Users\guppy\.cargo\registry\src\github.com-1ecc6299db9ec823\heapless-0.5.1\src/vec.rs:26
        // NOTE(unsafe) avoid bound checks in the slicing operation
        // &buffer[..self.len]
        unsafe { slice::from_raw_parts(self.buffer.as_ptr() as *const T, self.len) }
    }

    pub(crate) fn as_mut_slice(&mut self) -> &mut [T] {
   0:	b580      	push	{r7, lr}
   2:	b086      	sub	sp, #24
   4:	9003      	str	r0, [sp, #12]
C:\Users\guppy\.cargo\registry\src\github.com-1ecc6299db9ec823\heapless-0.5.1\src/vec.rs:29
        // NOTE(unsafe) avoid bound checks in the slicing operation
        // &mut buffer[..len]
        unsafe { slice::from_raw_parts_mut(self.buffer.as_mut_ptr() as *mut T, self.len) }
   6:	9803      	ldr	r0, [sp, #12]
   8:	9004      	str	r0, [sp, #16]
_ZN4core3mem12maybe_uninit20MaybeUninit$LT$T$GT$10as_mut_ptr17h9cf43ab346a1998bE():
/rustc/412f43ac5b4ae8c3599e71c6972112e9be4758fa/src/libcore/mem/maybe_uninit.rs:436
   a:	9804      	ldr	r0, [sp, #16]
   c:	9005      	str	r0, [sp, #20]
_ZN94_$LT$core..mem..manually_drop..ManuallyDrop$LT$T$GT$$u20$as$u20$core..ops..deref..DerefMut$GT$9deref_mut17h74bb73050a30ad57E():
/rustc/412f43ac5b4ae8c3599e71c6972112e9be4758fa/src/libcore/mem/manually_drop.rs:146
   e:	9805      	ldr	r0, [sp, #20]
_ZN8heapless3vec82_$LT$impl$u20$heapless..i..Vec$LT$generic_array..GenericArray$LT$T$C$N$GT$$GT$$GT$12as_mut_slice17h651fb504ccc9912fE():
C:\Users\guppy\.cargo\registry\src\github.com-1ecc6299db9ec823\heapless-0.5.1\src/vec.rs:29
  10:	9002      	str	r0, [sp, #8]
  12:	e7ff      	b.n	14 <_ZN8heapless3vec82_$LT$impl$u20$heapless..i..Vec$LT$generic_array..GenericArray$LT$T$C$N$GT$$GT$$GT$12as_mut_slice17h651fb504ccc9912fE+0x14>
  14:	9803      	ldr	r0, [sp, #12]
  16:	6c01      	ldr	r1, [r0, #64]	; 0x40
  18:	9802      	ldr	r0, [sp, #8]
  1a:	f7ff fffe 	bl	0 <_ZN4core5slice18from_raw_parts_mut17h66990f4ddfd606a3E>
  1e:	9001      	str	r0, [sp, #4]
  20:	9100      	str	r1, [sp, #0]
  22:	e7ff      	b.n	24 <_ZN8heapless3vec82_$LT$impl$u20$heapless..i..Vec$LT$generic_array..GenericArray$LT$T$C$N$GT$$GT$$GT$12as_mut_slice17h651fb504ccc9912fE+0x24>
C:\Users\guppy\.cargo\registry\src\github.com-1ecc6299db9ec823\heapless-0.5.1\src/vec.rs:30
    }
  24:	9801      	ldr	r0, [sp, #4]
  26:	9900      	ldr	r1, [sp, #0]
  28:	b006      	add	sp, #24
  2a:	bd80      	pop	{r7, pc}

Disassembly of section .text._ZN8heapless3vec82_$LT$impl$u20$heapless..i..Vec$LT$generic_array..GenericArray$LT$T$C$N$GT$$GT$$GT$14push_unchecked17h4be2d4b4b03e7494E:

00000000 <_ZN8heapless3vec82_$LT$impl$u20$heapless..i..Vec$LT$generic_array..GenericArray$LT$T$C$N$GT$$GT$$GT$14push_unchecked17h4be2d4b4b03e7494E>:
_ZN8heapless3vec82_$LT$impl$u20$heapless..i..Vec$LT$generic_array..GenericArray$LT$T$C$N$GT$$GT$$GT$14push_unchecked17h4be2d4b4b03e7494E():
C:\Users\guppy\.cargo\registry\src\github.com-1ecc6299db9ec823\heapless-0.5.1\src/vec.rs:95
        } else {
            Err(item)
        }
    }

    pub(crate) unsafe fn push_unchecked(&mut self, item: T) {
   0:	b570      	push	{r4, r5, r6, lr}
   2:	b098      	sub	sp, #96	; 0x60
   4:	9005      	str	r0, [sp, #20]
C:\Users\guppy\.cargo\registry\src\github.com-1ecc6299db9ec823\heapless-0.5.1\src/vec.rs:98
        // NOTE(ptr::write) the memory slot that we are about to write to is uninitialized. We
        // use `ptr::write` to avoid running `T`'s destructor on the uninitialized memory
        (self.buffer.as_mut_ptr() as *mut T)
   6:	9805      	ldr	r0, [sp, #20]
   8:	9016      	str	r0, [sp, #88]	; 0x58
_ZN4core3mem12maybe_uninit20MaybeUninit$LT$T$GT$10as_mut_ptr17hbe18be640cdb3c79E():
/rustc/412f43ac5b4ae8c3599e71c6972112e9be4758fa/src/libcore/mem/maybe_uninit.rs:436
   a:	9816      	ldr	r0, [sp, #88]	; 0x58
   c:	9017      	str	r0, [sp, #92]	; 0x5c
_ZN94_$LT$core..mem..manually_drop..ManuallyDrop$LT$T$GT$$u20$as$u20$core..ops..deref..DerefMut$GT$9deref_mut17h9afa763f57af9676E():
/rustc/412f43ac5b4ae8c3599e71c6972112e9be4758fa/src/libcore/mem/manually_drop.rs:146
   e:	9817      	ldr	r0, [sp, #92]	; 0x5c
_ZN8heapless3vec82_$LT$impl$u20$heapless..i..Vec$LT$generic_array..GenericArray$LT$T$C$N$GT$$GT$$GT$14push_unchecked17h4be2d4b4b03e7494E():
C:\Users\guppy\.cargo\registry\src\github.com-1ecc6299db9ec823\heapless-0.5.1\src/vec.rs:98
  10:	9104      	str	r1, [sp, #16]
  12:	9003      	str	r0, [sp, #12]
  14:	e7ff      	b.n	16 <_ZN8heapless3vec82_$LT$impl$u20$heapless..i..Vec$LT$generic_array..GenericArray$LT$T$C$N$GT$$GT$$GT$14push_unchecked17h4be2d4b4b03e7494E+0x16>
C:\Users\guppy\.cargo\registry\src\github.com-1ecc6299db9ec823\heapless-0.5.1\src/vec.rs:99
            .add(self.len)
  16:	9805      	ldr	r0, [sp, #20]
  18:	f8d0 1200 	ldr.w	r1, [r0, #512]	; 0x200
C:\Users\guppy\.cargo\registry\src\github.com-1ecc6299db9ec823\heapless-0.5.1\src/vec.rs:98
        (self.buffer.as_mut_ptr() as *mut T)
  1c:	9803      	ldr	r0, [sp, #12]
  1e:	f7ff fffe 	bl	0 <_ZN4core3ptr31_$LT$impl$u20$$BP$mut$u20$T$GT$3add17hc9169431d245026cE>
  22:	9002      	str	r0, [sp, #8]
  24:	e7ff      	b.n	26 <_ZN8heapless3vec82_$LT$impl$u20$heapless..i..Vec$LT$generic_array..GenericArray$LT$T$C$N$GT$$GT$$GT$14push_unchecked17h4be2d4b4b03e7494E+0x26>
  26:	a806      	add	r0, sp, #24
C:\Users\guppy\.cargo\registry\src\github.com-1ecc6299db9ec823\heapless-0.5.1\src/vec.rs:100
            .write(item);
  28:	9904      	ldr	r1, [sp, #16]
  2a:	4602      	mov	r2, r0
  2c:	e8b1 5038 	ldmia.w	r1!, {r3, r4, r5, ip, lr}
  30:	e8a2 5038 	stmia.w	r2!, {r3, r4, r5, ip, lr}
  34:	e8b1 5038 	ldmia.w	r1!, {r3, r4, r5, ip, lr}
  38:	e8a2 5038 	stmia.w	r2!, {r3, r4, r5, ip, lr}
  3c:	e891 5078 	ldmia.w	r1, {r3, r4, r5, r6, ip, lr}
  40:	e882 5078 	stmia.w	r2, {r3, r4, r5, r6, ip, lr}
C:\Users\guppy\.cargo\registry\src\github.com-1ecc6299db9ec823\heapless-0.5.1\src/vec.rs:98
        (self.buffer.as_mut_ptr() as *mut T)
  44:	9902      	ldr	r1, [sp, #8]
  46:	9001      	str	r0, [sp, #4]
  48:	4608      	mov	r0, r1
  4a:	9901      	ldr	r1, [sp, #4]
  4c:	f7ff fffe 	bl	0 <_ZN4core3ptr31_$LT$impl$u20$$BP$mut$u20$T$GT$5write17hc6b68f076a3ba46aE>
  50:	e7ff      	b.n	52 <_ZN8heapless3vec82_$LT$impl$u20$heapless..i..Vec$LT$generic_array..GenericArray$LT$T$C$N$GT$$GT$$GT$14push_unchecked17h4be2d4b4b03e7494E+0x52>
C:\Users\guppy\.cargo\registry\src\github.com-1ecc6299db9ec823\heapless-0.5.1\src/vec.rs:102

        self.len += 1;
  52:	9805      	ldr	r0, [sp, #20]
  54:	f8d0 0200 	ldr.w	r0, [r0, #512]	; 0x200
  58:	1c41      	adds	r1, r0, #1
  5a:	460a      	mov	r2, r1
  5c:	4281      	cmp	r1, r0
  5e:	9200      	str	r2, [sp, #0]
  60:	d306      	bcc.n	70 <_ZN8heapless3vec82_$LT$impl$u20$heapless..i..Vec$LT$generic_array..GenericArray$LT$T$C$N$GT$$GT$$GT$14push_unchecked17h4be2d4b4b03e7494E+0x70>
  62:	e7ff      	b.n	64 <_ZN8heapless3vec82_$LT$impl$u20$heapless..i..Vec$LT$generic_array..GenericArray$LT$T$C$N$GT$$GT$$GT$14push_unchecked17h4be2d4b4b03e7494E+0x64>
  64:	9805      	ldr	r0, [sp, #20]
  66:	9900      	ldr	r1, [sp, #0]
  68:	f8c0 1200 	str.w	r1, [r0, #512]	; 0x200
C:\Users\guppy\.cargo\registry\src\github.com-1ecc6299db9ec823\heapless-0.5.1\src/vec.rs:103
    }
  6c:	b018      	add	sp, #96	; 0x60
  6e:	bd70      	pop	{r4, r5, r6, pc}
C:\Users\guppy\.cargo\registry\src\github.com-1ecc6299db9ec823\heapless-0.5.1\src/vec.rs:102
        self.len += 1;
  70:	f240 0000 	movw	r0, #0
  74:	f2c0 0000 	movt	r0, #0
  78:	f240 0200 	movw	r2, #0
  7c:	f2c0 0200 	movt	r2, #0
  80:	211c      	movs	r1, #28
  82:	f7ff fffe 	bl	0 <_ZN4core9panicking5panic17hfdd0eecc44a682f8E>
  86:	defe      	udf	#254	; 0xfe

Disassembly of section .text._ZN8heapless3vec82_$LT$impl$u20$heapless..i..Vec$LT$generic_array..GenericArray$LT$T$C$N$GT$$GT$$GT$14push_unchecked17haec5afc7f2487db4E:

00000000 <_ZN8heapless3vec82_$LT$impl$u20$heapless..i..Vec$LT$generic_array..GenericArray$LT$T$C$N$GT$$GT$$GT$14push_unchecked17haec5afc7f2487db4E>:
_ZN8heapless3vec82_$LT$impl$u20$heapless..i..Vec$LT$generic_array..GenericArray$LT$T$C$N$GT$$GT$$GT$14push_unchecked17haec5afc7f2487db4E():
C:\Users\guppy\.cargo\registry\src\github.com-1ecc6299db9ec823\heapless-0.5.1\src/vec.rs:95
    pub(crate) unsafe fn push_unchecked(&mut self, item: T) {
   0:	b510      	push	{r4, lr}
   2:	b090      	sub	sp, #64	; 0x40
   4:	9005      	str	r0, [sp, #20]
C:\Users\guppy\.cargo\registry\src\github.com-1ecc6299db9ec823\heapless-0.5.1\src/vec.rs:98
        (self.buffer.as_mut_ptr() as *mut T)
   6:	9805      	ldr	r0, [sp, #20]
   8:	900e      	str	r0, [sp, #56]	; 0x38
_ZN4core3mem12maybe_uninit20MaybeUninit$LT$T$GT$10as_mut_ptr17h9cf43ab346a1998bE():
/rustc/412f43ac5b4ae8c3599e71c6972112e9be4758fa/src/libcore/mem/maybe_uninit.rs:436
   a:	980e      	ldr	r0, [sp, #56]	; 0x38
   c:	900f      	str	r0, [sp, #60]	; 0x3c
_ZN94_$LT$core..mem..manually_drop..ManuallyDrop$LT$T$GT$$u20$as$u20$core..ops..deref..DerefMut$GT$9deref_mut17h74bb73050a30ad57E():
/rustc/412f43ac5b4ae8c3599e71c6972112e9be4758fa/src/libcore/mem/manually_drop.rs:146
   e:	980f      	ldr	r0, [sp, #60]	; 0x3c
_ZN8heapless3vec82_$LT$impl$u20$heapless..i..Vec$LT$generic_array..GenericArray$LT$T$C$N$GT$$GT$$GT$14push_unchecked17haec5afc7f2487db4E():
C:\Users\guppy\.cargo\registry\src\github.com-1ecc6299db9ec823\heapless-0.5.1\src/vec.rs:98
  10:	9104      	str	r1, [sp, #16]
  12:	9003      	str	r0, [sp, #12]
  14:	e7ff      	b.n	16 <_ZN8heapless3vec82_$LT$impl$u20$heapless..i..Vec$LT$generic_array..GenericArray$LT$T$C$N$GT$$GT$$GT$14push_unchecked17haec5afc7f2487db4E+0x16>
C:\Users\guppy\.cargo\registry\src\github.com-1ecc6299db9ec823\heapless-0.5.1\src/vec.rs:99
            .add(self.len)
  16:	9805      	ldr	r0, [sp, #20]
  18:	6c01      	ldr	r1, [r0, #64]	; 0x40
C:\Users\guppy\.cargo\registry\src\github.com-1ecc6299db9ec823\heapless-0.5.1\src/vec.rs:98
        (self.buffer.as_mut_ptr() as *mut T)
  1a:	9803      	ldr	r0, [sp, #12]
  1c:	f7ff fffe 	bl	0 <_ZN4core3ptr31_$LT$impl$u20$$BP$mut$u20$T$GT$3add17hbb03a50b722c5582E>
  20:	9002      	str	r0, [sp, #8]
  22:	e7ff      	b.n	24 <_ZN8heapless3vec82_$LT$impl$u20$heapless..i..Vec$LT$generic_array..GenericArray$LT$T$C$N$GT$$GT$$GT$14push_unchecked17haec5afc7f2487db4E+0x24>
  24:	a806      	add	r0, sp, #24
C:\Users\guppy\.cargo\registry\src\github.com-1ecc6299db9ec823\heapless-0.5.1\src/vec.rs:100
            .write(item);
  26:	9904      	ldr	r1, [sp, #16]
  28:	4602      	mov	r2, r0
  2a:	e8b1 5018 	ldmia.w	r1!, {r3, r4, ip, lr}
  2e:	e8a2 5018 	stmia.w	r2!, {r3, r4, ip, lr}
  32:	e891 5018 	ldmia.w	r1, {r3, r4, ip, lr}
  36:	e882 5018 	stmia.w	r2, {r3, r4, ip, lr}
C:\Users\guppy\.cargo\registry\src\github.com-1ecc6299db9ec823\heapless-0.5.1\src/vec.rs:98
        (self.buffer.as_mut_ptr() as *mut T)
  3a:	9902      	ldr	r1, [sp, #8]
  3c:	9001      	str	r0, [sp, #4]
  3e:	4608      	mov	r0, r1
  40:	9901      	ldr	r1, [sp, #4]
  42:	f7ff fffe 	bl	0 <_ZN4core3ptr31_$LT$impl$u20$$BP$mut$u20$T$GT$5write17hae450ee785200527E>
  46:	e7ff      	b.n	48 <_ZN8heapless3vec82_$LT$impl$u20$heapless..i..Vec$LT$generic_array..GenericArray$LT$T$C$N$GT$$GT$$GT$14push_unchecked17haec5afc7f2487db4E+0x48>
C:\Users\guppy\.cargo\registry\src\github.com-1ecc6299db9ec823\heapless-0.5.1\src/vec.rs:102
        self.len += 1;
  48:	9805      	ldr	r0, [sp, #20]
  4a:	6c00      	ldr	r0, [r0, #64]	; 0x40
  4c:	1c41      	adds	r1, r0, #1
  4e:	460a      	mov	r2, r1
  50:	4281      	cmp	r1, r0
  52:	9200      	str	r2, [sp, #0]
  54:	d305      	bcc.n	62 <_ZN8heapless3vec82_$LT$impl$u20$heapless..i..Vec$LT$generic_array..GenericArray$LT$T$C$N$GT$$GT$$GT$14push_unchecked17haec5afc7f2487db4E+0x62>
  56:	e7ff      	b.n	58 <_ZN8heapless3vec82_$LT$impl$u20$heapless..i..Vec$LT$generic_array..GenericArray$LT$T$C$N$GT$$GT$$GT$14push_unchecked17haec5afc7f2487db4E+0x58>
  58:	9805      	ldr	r0, [sp, #20]
  5a:	9900      	ldr	r1, [sp, #0]
  5c:	6401      	str	r1, [r0, #64]	; 0x40
C:\Users\guppy\.cargo\registry\src\github.com-1ecc6299db9ec823\heapless-0.5.1\src/vec.rs:103
    }
  5e:	b010      	add	sp, #64	; 0x40
  60:	bd10      	pop	{r4, pc}
C:\Users\guppy\.cargo\registry\src\github.com-1ecc6299db9ec823\heapless-0.5.1\src/vec.rs:102
        self.len += 1;
  62:	f240 0000 	movw	r0, #0
  66:	f2c0 0000 	movt	r0, #0
  6a:	f240 0200 	movw	r2, #0
  6e:	f2c0 0200 	movt	r2, #0
  72:	211c      	movs	r1, #28
  74:	f7ff fffe 	bl	0 <_ZN4core9panicking5panic17hfdd0eecc44a682f8E>
  78:	defe      	udf	#254	; 0xfe

Disassembly of section .text._ZN8heapless3vec82_$LT$impl$u20$heapless..i..Vec$LT$generic_array..GenericArray$LT$T$C$N$GT$$GT$$GT$14push_unchecked17hb3d923de4f84c84bE:

00000000 <_ZN8heapless3vec82_$LT$impl$u20$heapless..i..Vec$LT$generic_array..GenericArray$LT$T$C$N$GT$$GT$$GT$14push_unchecked17hb3d923de4f84c84bE>:
_ZN8heapless3vec82_$LT$impl$u20$heapless..i..Vec$LT$generic_array..GenericArray$LT$T$C$N$GT$$GT$$GT$14push_unchecked17hb3d923de4f84c84bE():
C:\Users\guppy\.cargo\registry\src\github.com-1ecc6299db9ec823\heapless-0.5.1\src/vec.rs:95
    pub(crate) unsafe fn push_unchecked(&mut self, item: T) {
   0:	b580      	push	{r7, lr}
   2:	b08a      	sub	sp, #40	; 0x28
   4:	9004      	str	r0, [sp, #16]
C:\Users\guppy\.cargo\registry\src\github.com-1ecc6299db9ec823\heapless-0.5.1\src/vec.rs:98
        (self.buffer.as_mut_ptr() as *mut T)
   6:	9804      	ldr	r0, [sp, #16]
   8:	9008      	str	r0, [sp, #32]
_ZN4core3mem12maybe_uninit20MaybeUninit$LT$T$GT$10as_mut_ptr17h0e72a022336e9e23E():
/rustc/412f43ac5b4ae8c3599e71c6972112e9be4758fa/src/libcore/mem/maybe_uninit.rs:436
   a:	9808      	ldr	r0, [sp, #32]
   c:	9009      	str	r0, [sp, #36]	; 0x24
_ZN94_$LT$core..mem..manually_drop..ManuallyDrop$LT$T$GT$$u20$as$u20$core..ops..deref..DerefMut$GT$9deref_mut17h87708f9d40c9b194E():
/rustc/412f43ac5b4ae8c3599e71c6972112e9be4758fa/src/libcore/mem/manually_drop.rs:146
   e:	9809      	ldr	r0, [sp, #36]	; 0x24
_ZN8heapless3vec82_$LT$impl$u20$heapless..i..Vec$LT$generic_array..GenericArray$LT$T$C$N$GT$$GT$$GT$14push_unchecked17hb3d923de4f84c84bE():
C:\Users\guppy\.cargo\registry\src\github.com-1ecc6299db9ec823\heapless-0.5.1\src/vec.rs:98
  10:	9103      	str	r1, [sp, #12]
  12:	9002      	str	r0, [sp, #8]
  14:	e7ff      	b.n	16 <_ZN8heapless3vec82_$LT$impl$u20$heapless..i..Vec$LT$generic_array..GenericArray$LT$T$C$N$GT$$GT$$GT$14push_unchecked17hb3d923de4f84c84bE+0x16>
C:\Users\guppy\.cargo\registry\src\github.com-1ecc6299db9ec823\heapless-0.5.1\src/vec.rs:99
            .add(self.len)
  16:	9804      	ldr	r0, [sp, #16]
  18:	6981      	ldr	r1, [r0, #24]
C:\Users\guppy\.cargo\registry\src\github.com-1ecc6299db9ec823\heapless-0.5.1\src/vec.rs:98
        (self.buffer.as_mut_ptr() as *mut T)
  1a:	9802      	ldr	r0, [sp, #8]
  1c:	f7ff fffe 	bl	0 <_ZN4core3ptr31_$LT$impl$u20$$BP$mut$u20$T$GT$3add17h54d7a988c720ee7cE>
  20:	9001      	str	r0, [sp, #4]
  22:	e7ff      	b.n	24 <_ZN8heapless3vec82_$LT$impl$u20$heapless..i..Vec$LT$generic_array..GenericArray$LT$T$C$N$GT$$GT$$GT$14push_unchecked17hb3d923de4f84c84bE+0x24>
C:\Users\guppy\.cargo\registry\src\github.com-1ecc6299db9ec823\heapless-0.5.1\src/vec.rs:100
            .write(item);
  24:	9803      	ldr	r0, [sp, #12]
  26:	6801      	ldr	r1, [r0, #0]
  28:	6842      	ldr	r2, [r0, #4]
  2a:	6883      	ldr	r3, [r0, #8]
  2c:	9307      	str	r3, [sp, #28]
  2e:	9206      	str	r2, [sp, #24]
  30:	9105      	str	r1, [sp, #20]
  32:	a905      	add	r1, sp, #20
C:\Users\guppy\.cargo\registry\src\github.com-1ecc6299db9ec823\heapless-0.5.1\src/vec.rs:98
        (self.buffer.as_mut_ptr() as *mut T)
  34:	9801      	ldr	r0, [sp, #4]
  36:	f7ff fffe 	bl	0 <_ZN4core3ptr31_$LT$impl$u20$$BP$mut$u20$T$GT$5write17h03b017d96e3ab5bfE>
  3a:	e7ff      	b.n	3c <_ZN8heapless3vec82_$LT$impl$u20$heapless..i..Vec$LT$generic_array..GenericArray$LT$T$C$N$GT$$GT$$GT$14push_unchecked17hb3d923de4f84c84bE+0x3c>
C:\Users\guppy\.cargo\registry\src\github.com-1ecc6299db9ec823\heapless-0.5.1\src/vec.rs:102
        self.len += 1;
  3c:	9804      	ldr	r0, [sp, #16]
  3e:	6980      	ldr	r0, [r0, #24]
  40:	1c41      	adds	r1, r0, #1
  42:	460a      	mov	r2, r1
  44:	4281      	cmp	r1, r0
  46:	9200      	str	r2, [sp, #0]
  48:	d305      	bcc.n	56 <_ZN8heapless3vec82_$LT$impl$u20$heapless..i..Vec$LT$generic_array..GenericArray$LT$T$C$N$GT$$GT$$GT$14push_unchecked17hb3d923de4f84c84bE+0x56>
  4a:	e7ff      	b.n	4c <_ZN8heapless3vec82_$LT$impl$u20$heapless..i..Vec$LT$generic_array..GenericArray$LT$T$C$N$GT$$GT$$GT$14push_unchecked17hb3d923de4f84c84bE+0x4c>
  4c:	9804      	ldr	r0, [sp, #16]
  4e:	9900      	ldr	r1, [sp, #0]
  50:	6181      	str	r1, [r0, #24]
C:\Users\guppy\.cargo\registry\src\github.com-1ecc6299db9ec823\heapless-0.5.1\src/vec.rs:103
    }
  52:	b00a      	add	sp, #40	; 0x28
  54:	bd80      	pop	{r7, pc}
C:\Users\guppy\.cargo\registry\src\github.com-1ecc6299db9ec823\heapless-0.5.1\src/vec.rs:102
        self.len += 1;
  56:	f240 0000 	movw	r0, #0
  5a:	f2c0 0000 	movt	r0, #0
  5e:	f240 0200 	movw	r2, #0
  62:	f2c0 0200 	movt	r2, #0
  66:	211c      	movs	r1, #28
  68:	f7ff fffe 	bl	0 <_ZN4core9panicking5panic17hfdd0eecc44a682f8E>
  6c:	defe      	udf	#254	; 0xfe

Disassembly of section .text._ZN8heapless3vec82_$LT$impl$u20$heapless..i..Vec$LT$generic_array..GenericArray$LT$T$C$N$GT$$GT$$GT$17extend_from_slice17hf78987a63072f229E:

00000000 <_ZN8heapless3vec82_$LT$impl$u20$heapless..i..Vec$LT$generic_array..GenericArray$LT$T$C$N$GT$$GT$$GT$17extend_from_slice17hf78987a63072f229E>:
_ZN8heapless3vec82_$LT$impl$u20$heapless..i..Vec$LT$generic_array..GenericArray$LT$T$C$N$GT$$GT$$GT$17extend_from_slice17hf78987a63072f229E():
C:\Users\guppy\.cargo\registry\src\github.com-1ecc6299db9ec823\heapless-0.5.1\src/vec.rs:58
    pub(crate) fn extend_from_slice(&mut self, other: &[T]) -> Result<(), ()>
   0:	b580      	push	{r7, lr}
   2:	b094      	sub	sp, #80	; 0x50
   4:	9007      	str	r0, [sp, #28]
   6:	9108      	str	r1, [sp, #32]
   8:	9209      	str	r2, [sp, #36]	; 0x24
C:\Users\guppy\.cargo\registry\src\github.com-1ecc6299db9ec823\heapless-0.5.1\src/vec.rs:62
        if self.len + other.len() > self.capacity() {
   a:	9807      	ldr	r0, [sp, #28]
   c:	6980      	ldr	r0, [r0, #24]
   e:	9908      	ldr	r1, [sp, #32]
  10:	9a09      	ldr	r2, [sp, #36]	; 0x24
  12:	9006      	str	r0, [sp, #24]
  14:	4608      	mov	r0, r1
  16:	4611      	mov	r1, r2
  18:	f7ff fffe 	bl	0 <_ZN4core5slice29_$LT$impl$u20$$u5b$T$u5d$$GT$3len17h907d8a2ba7fd297aE>
  1c:	9005      	str	r0, [sp, #20]
  1e:	e7ff      	b.n	20 <_ZN8heapless3vec82_$LT$impl$u20$heapless..i..Vec$LT$generic_array..GenericArray$LT$T$C$N$GT$$GT$$GT$17extend_from_slice17hf78987a63072f229E+0x20>
  20:	9806      	ldr	r0, [sp, #24]
  22:	9905      	ldr	r1, [sp, #20]
  24:	1842      	adds	r2, r0, r1
  26:	4613      	mov	r3, r2
  28:	4282      	cmp	r2, r0
  2a:	9304      	str	r3, [sp, #16]
  2c:	d345      	bcc.n	ba <_ZN8heapless3vec82_$LT$impl$u20$heapless..i..Vec$LT$generic_array..GenericArray$LT$T$C$N$GT$$GT$$GT$17extend_from_slice17hf78987a63072f229E+0xba>
  2e:	e7ff      	b.n	30 <_ZN8heapless3vec82_$LT$impl$u20$heapless..i..Vec$LT$generic_array..GenericArray$LT$T$C$N$GT$$GT$$GT$17extend_from_slice17hf78987a63072f229E+0x30>
  30:	9807      	ldr	r0, [sp, #28]
  32:	f7ff fffe 	bl	0 <_ZN8heapless3vec82_$LT$impl$u20$heapless..i..Vec$LT$generic_array..GenericArray$LT$T$C$N$GT$$GT$$GT$17extend_from_slice17hf78987a63072f229E>
  36:	9003      	str	r0, [sp, #12]
  38:	e7ff      	b.n	3a <_ZN8heapless3vec82_$LT$impl$u20$heapless..i..Vec$LT$generic_array..GenericArray$LT$T$C$N$GT$$GT$$GT$17extend_from_slice17hf78987a63072f229E+0x3a>
  3a:	9804      	ldr	r0, [sp, #16]
  3c:	9903      	ldr	r1, [sp, #12]
  3e:	4288      	cmp	r0, r1
  40:	d807      	bhi.n	52 <_ZN8heapless3vec82_$LT$impl$u20$heapless..i..Vec$LT$generic_array..GenericArray$LT$T$C$N$GT$$GT$$GT$17extend_from_slice17hf78987a63072f229E+0x52>
  42:	e7ff      	b.n	44 <_ZN8heapless3vec82_$LT$impl$u20$heapless..i..Vec$LT$generic_array..GenericArray$LT$T$C$N$GT$$GT$$GT$17extend_from_slice17hf78987a63072f229E+0x44>
C:\Users\guppy\.cargo\registry\src\github.com-1ecc6299db9ec823\heapless-0.5.1\src/vec.rs:66
            for elem in other {
  44:	9808      	ldr	r0, [sp, #32]
  46:	9909      	ldr	r1, [sp, #36]	; 0x24
  48:	f7ff fffe 	bl	0 <_ZN4core5slice87_$LT$impl$u20$core..iter..traits..collect..IntoIterator$u20$for$u20$$RF$$u5b$T$u5d$$GT$9into_iter17he129093a62c90e54E>
  4c:	9002      	str	r0, [sp, #8]
  4e:	9101      	str	r1, [sp, #4]
  50:	e003      	b.n	5a <_ZN8heapless3vec82_$LT$impl$u20$heapless..i..Vec$LT$generic_array..GenericArray$LT$T$C$N$GT$$GT$$GT$17extend_from_slice17hf78987a63072f229E+0x5a>
  52:	2001      	movs	r0, #1
C:\Users\guppy\.cargo\registry\src\github.com-1ecc6299db9ec823\heapless-0.5.1\src/vec.rs:64
            Err(())
  54:	f88d 002b 	strb.w	r0, [sp, #43]	; 0x2b
C:\Users\guppy\.cargo\registry\src\github.com-1ecc6299db9ec823\heapless-0.5.1\src/vec.rs:62
        if self.len + other.len() > self.capacity() {
  58:	e02b      	b.n	b2 <_ZN8heapless3vec82_$LT$impl$u20$heapless..i..Vec$LT$generic_array..GenericArray$LT$T$C$N$GT$$GT$$GT$17extend_from_slice17hf78987a63072f229E+0xb2>
C:\Users\guppy\.cargo\registry\src\github.com-1ecc6299db9ec823\heapless-0.5.1\src/vec.rs:66
            for elem in other {
  5a:	9802      	ldr	r0, [sp, #8]
  5c:	900b      	str	r0, [sp, #44]	; 0x2c
  5e:	9901      	ldr	r1, [sp, #4]
  60:	910c      	str	r1, [sp, #48]	; 0x30
  62:	e7ff      	b.n	64 <_ZN8heapless3vec82_$LT$impl$u20$heapless..i..Vec$LT$generic_array..GenericArray$LT$T$C$N$GT$$GT$$GT$17extend_from_slice17hf78987a63072f229E+0x64>
  64:	a80b      	add	r0, sp, #44	; 0x2c
  66:	f7ff fffe 	bl	0 <_ZN85_$LT$core..slice..Iter$LT$T$GT$$u20$as$u20$core..iter..traits..iterator..Iterator$GT$4next17h0f4b7d4c99e8107eE>
  6a:	900e      	str	r0, [sp, #56]	; 0x38
  6c:	e7ff      	b.n	6e <_ZN8heapless3vec82_$LT$impl$u20$heapless..i..Vec$LT$generic_array..GenericArray$LT$T$C$N$GT$$GT$$GT$17extend_from_slice17hf78987a63072f229E+0x6e>
  6e:	980e      	ldr	r0, [sp, #56]	; 0x38
  70:	2800      	cmp	r0, #0
  72:	4601      	mov	r1, r0
  74:	bf18      	it	ne
  76:	2101      	movne	r1, #1
  78:	2800      	cmp	r0, #0
  7a:	d001      	beq.n	80 <_ZN8heapless3vec82_$LT$impl$u20$heapless..i..Vec$LT$generic_array..GenericArray$LT$T$C$N$GT$$GT$$GT$17extend_from_slice17hf78987a63072f229E+0x80>
  7c:	e7ff      	b.n	7e <_ZN8heapless3vec82_$LT$impl$u20$heapless..i..Vec$LT$generic_array..GenericArray$LT$T$C$N$GT$$GT$$GT$17extend_from_slice17hf78987a63072f229E+0x7e>
  7e:	e004      	b.n	8a <_ZN8heapless3vec82_$LT$impl$u20$heapless..i..Vec$LT$generic_array..GenericArray$LT$T$C$N$GT$$GT$$GT$17extend_from_slice17hf78987a63072f229E+0x8a>
  80:	2000      	movs	r0, #0
C:\Users\guppy\.cargo\registry\src\github.com-1ecc6299db9ec823\heapless-0.5.1\src/vec.rs:71
            Ok(())
  82:	f88d 002b 	strb.w	r0, [sp, #43]	; 0x2b
C:\Users\guppy\.cargo\registry\src\github.com-1ecc6299db9ec823\heapless-0.5.1\src/vec.rs:62
        if self.len + other.len() > self.capacity() {
  86:	e014      	b.n	b2 <_ZN8heapless3vec82_$LT$impl$u20$heapless..i..Vec$LT$generic_array..GenericArray$LT$T$C$N$GT$$GT$$GT$17extend_from_slice17hf78987a63072f229E+0xb2>
C:\Users\guppy\.cargo\registry\src\github.com-1ecc6299db9ec823\heapless-0.5.1\src/vec.rs:66
            for elem in other {
  88:	defe      	udf	#254	; 0xfe
  8a:	980e      	ldr	r0, [sp, #56]	; 0x38
  8c:	900f      	str	r0, [sp, #60]	; 0x3c
  8e:	980f      	ldr	r0, [sp, #60]	; 0x3c
  90:	900d      	str	r0, [sp, #52]	; 0x34
  92:	980d      	ldr	r0, [sp, #52]	; 0x34
  94:	9010      	str	r0, [sp, #64]	; 0x40
C:\Users\guppy\.cargo\registry\src\github.com-1ecc6299db9ec823\heapless-0.5.1\src/vec.rs:68
                    self.push_unchecked(elem.clone());
  96:	9807      	ldr	r0, [sp, #28]
  98:	9910      	ldr	r1, [sp, #64]	; 0x40
  9a:	aa11      	add	r2, sp, #68	; 0x44
  9c:	9000      	str	r0, [sp, #0]
  9e:	4610      	mov	r0, r2
  a0:	f7ff fffe 	bl	0 <_ZN4core5clone5Clone5clone17h106374a95124ca8eE>
  a4:	e7ff      	b.n	a6 <_ZN8heapless3vec82_$LT$impl$u20$heapless..i..Vec$LT$generic_array..GenericArray$LT$T$C$N$GT$$GT$$GT$17extend_from_slice17hf78987a63072f229E+0xa6>
  a6:	a911      	add	r1, sp, #68	; 0x44
  a8:	9800      	ldr	r0, [sp, #0]
  aa:	f7ff fffe 	bl	0 <_ZN8heapless3vec82_$LT$impl$u20$heapless..i..Vec$LT$generic_array..GenericArray$LT$T$C$N$GT$$GT$$GT$17extend_from_slice17hf78987a63072f229E>
  ae:	e7ff      	b.n	b0 <_ZN8heapless3vec82_$LT$impl$u20$heapless..i..Vec$LT$generic_array..GenericArray$LT$T$C$N$GT$$GT$$GT$17extend_from_slice17hf78987a63072f229E+0xb0>
C:\Users\guppy\.cargo\registry\src\github.com-1ecc6299db9ec823\heapless-0.5.1\src/vec.rs:66
            for elem in other {
  b0:	e7d8      	b.n	64 <_ZN8heapless3vec82_$LT$impl$u20$heapless..i..Vec$LT$generic_array..GenericArray$LT$T$C$N$GT$$GT$$GT$17extend_from_slice17hf78987a63072f229E+0x64>
C:\Users\guppy\.cargo\registry\src\github.com-1ecc6299db9ec823\heapless-0.5.1\src/vec.rs:73
    }
  b2:	f89d 002b 	ldrb.w	r0, [sp, #43]	; 0x2b
  b6:	b014      	add	sp, #80	; 0x50
  b8:	bd80      	pop	{r7, pc}
C:\Users\guppy\.cargo\registry\src\github.com-1ecc6299db9ec823\heapless-0.5.1\src/vec.rs:62
        if self.len + other.len() > self.capacity() {
  ba:	f240 0000 	movw	r0, #0
  be:	f2c0 0000 	movt	r0, #0
  c2:	f240 0200 	movw	r2, #0
  c6:	f2c0 0200 	movt	r2, #0
  ca:	211c      	movs	r1, #28
  cc:	f7ff fffe 	bl	0 <_ZN4core9panicking5panic17hfdd0eecc44a682f8E>
  d0:	defe      	udf	#254	; 0xfe

Disassembly of section .text._ZN8heapless3vec82_$LT$impl$u20$heapless..i..Vec$LT$generic_array..GenericArray$LT$T$C$N$GT$$GT$$GT$4push17h15f0297b9c1d540fE:

00000000 <_ZN8heapless3vec82_$LT$impl$u20$heapless..i..Vec$LT$generic_array..GenericArray$LT$T$C$N$GT$$GT$$GT$4push17h15f0297b9c1d540fE>:
_ZN8heapless3vec82_$LT$impl$u20$heapless..i..Vec$LT$generic_array..GenericArray$LT$T$C$N$GT$$GT$$GT$4push17h15f0297b9c1d540fE():
C:\Users\guppy\.cargo\registry\src\github.com-1ecc6299db9ec823\heapless-0.5.1\src/vec.rs:86
    pub(crate) fn push(&mut self, item: T) -> Result<(), T> {
   0:	b5f0      	push	{r4, r5, r6, r7, lr}
   2:	b0a7      	sub	sp, #156	; 0x9c
   4:	9105      	str	r1, [sp, #20]
C:\Users\guppy\.cargo\registry\src\github.com-1ecc6299db9ec823\heapless-0.5.1\src/vec.rs:87
        if self.len < self.capacity() {
   6:	9905      	ldr	r1, [sp, #20]
   8:	f8d1 3200 	ldr.w	r3, [r1, #512]	; 0x200
   c:	9004      	str	r0, [sp, #16]
   e:	4608      	mov	r0, r1
  10:	9203      	str	r2, [sp, #12]
  12:	9302      	str	r3, [sp, #8]
  14:	f7ff fffe 	bl	0 <_ZN8heapless3vec82_$LT$impl$u20$heapless..i..Vec$LT$generic_array..GenericArray$LT$T$C$N$GT$$GT$$GT$4push17h15f0297b9c1d540fE>
  18:	9001      	str	r0, [sp, #4]
  1a:	e7ff      	b.n	1c <_ZN8heapless3vec82_$LT$impl$u20$heapless..i..Vec$LT$generic_array..GenericArray$LT$T$C$N$GT$$GT$$GT$4push17h15f0297b9c1d540fE+0x1c>
  1c:	9802      	ldr	r0, [sp, #8]
  1e:	9901      	ldr	r1, [sp, #4]
  20:	4288      	cmp	r0, r1
  22:	d31d      	bcc.n	60 <_ZN8heapless3vec82_$LT$impl$u20$heapless..i..Vec$LT$generic_array..GenericArray$LT$T$C$N$GT$$GT$$GT$4push17h15f0297b9c1d540fE+0x60>
  24:	e7ff      	b.n	26 <_ZN8heapless3vec82_$LT$impl$u20$heapless..i..Vec$LT$generic_array..GenericArray$LT$T$C$N$GT$$GT$$GT$4push17h15f0297b9c1d540fE+0x26>
  26:	a816      	add	r0, sp, #88	; 0x58
C:\Users\guppy\.cargo\registry\src\github.com-1ecc6299db9ec823\heapless-0.5.1\src/vec.rs:91
            Err(item)
  28:	9903      	ldr	r1, [sp, #12]
  2a:	4602      	mov	r2, r0
  2c:	e8b1 5038 	ldmia.w	r1!, {r3, r4, r5, ip, lr}
  30:	e8a2 5038 	stmia.w	r2!, {r3, r4, r5, ip, lr}
  34:	e8b1 5038 	ldmia.w	r1!, {r3, r4, r5, ip, lr}
  38:	e8a2 5038 	stmia.w	r2!, {r3, r4, r5, ip, lr}
  3c:	e891 5078 	ldmia.w	r1, {r3, r4, r5, r6, ip, lr}
  40:	e882 5078 	stmia.w	r2, {r3, r4, r5, r6, ip, lr}
  44:	9904      	ldr	r1, [sp, #16]
  46:	e8b0 501c 	ldmia.w	r0!, {r2, r3, r4, ip, lr}
  4a:	e8a1 501c 	stmia.w	r1!, {r2, r3, r4, ip, lr}
  4e:	e8b0 501c 	ldmia.w	r0!, {r2, r3, r4, ip, lr}
  52:	e8a1 501c 	stmia.w	r1!, {r2, r3, r4, ip, lr}
  56:	e890 503c 	ldmia.w	r0, {r2, r3, r4, r5, ip, lr}
  5a:	e881 503c 	stmia.w	r1, {r2, r3, r4, r5, ip, lr}
C:\Users\guppy\.cargo\registry\src\github.com-1ecc6299db9ec823\heapless-0.5.1\src/vec.rs:87
        if self.len < self.capacity() {
  5e:	e01a      	b.n	96 <_ZN8heapless3vec82_$LT$impl$u20$heapless..i..Vec$LT$generic_array..GenericArray$LT$T$C$N$GT$$GT$$GT$4push17h15f0297b9c1d540fE+0x96>
C:\Users\guppy\.cargo\registry\src\github.com-1ecc6299db9ec823\heapless-0.5.1\src/vec.rs:88
            unsafe { self.push_unchecked(item) }
  60:	9805      	ldr	r0, [sp, #20]
  62:	a906      	add	r1, sp, #24
  64:	9a03      	ldr	r2, [sp, #12]
  66:	460b      	mov	r3, r1
  68:	e8b2 5070 	ldmia.w	r2!, {r4, r5, r6, ip, lr}
  6c:	e8a3 5070 	stmia.w	r3!, {r4, r5, r6, ip, lr}
  70:	e8b2 5070 	ldmia.w	r2!, {r4, r5, r6, ip, lr}
  74:	e8a3 5070 	stmia.w	r3!, {r4, r5, r6, ip, lr}
  78:	e892 50f0 	ldmia.w	r2, {r4, r5, r6, r7, ip, lr}
  7c:	e883 50f0 	stmia.w	r3, {r4, r5, r6, r7, ip, lr}
  80:	f7ff fffe 	bl	0 <_ZN8heapless3vec82_$LT$impl$u20$heapless..i..Vec$LT$generic_array..GenericArray$LT$T$C$N$GT$$GT$$GT$4push17h15f0297b9c1d540fE>
  84:	e7ff      	b.n	86 <_ZN8heapless3vec82_$LT$impl$u20$heapless..i..Vec$LT$generic_array..GenericArray$LT$T$C$N$GT$$GT$$GT$4push17h15f0297b9c1d540fE+0x86>
  86:	2140      	movs	r1, #64	; 0x40
C:\Users\guppy\.cargo\registry\src\github.com-1ecc6299db9ec823\heapless-0.5.1\src/vec.rs:89
            Ok(())
  88:	9804      	ldr	r0, [sp, #16]
  8a:	f7ff fffe 	bl	0 <__aeabi_memclr8>
  8e:	2002      	movs	r0, #2
  90:	9904      	ldr	r1, [sp, #16]
  92:	6288      	str	r0, [r1, #40]	; 0x28
C:\Users\guppy\.cargo\registry\src\github.com-1ecc6299db9ec823\heapless-0.5.1\src/vec.rs:87
        if self.len < self.capacity() {
  94:	e7ff      	b.n	96 <_ZN8heapless3vec82_$LT$impl$u20$heapless..i..Vec$LT$generic_array..GenericArray$LT$T$C$N$GT$$GT$$GT$4push17h15f0297b9c1d540fE+0x96>
C:\Users\guppy\.cargo\registry\src\github.com-1ecc6299db9ec823\heapless-0.5.1\src/vec.rs:93
    }
  96:	b027      	add	sp, #156	; 0x9c
  98:	bdf0      	pop	{r4, r5, r6, r7, pc}

Disassembly of section .text._ZN8heapless3vec82_$LT$impl$u20$heapless..i..Vec$LT$generic_array..GenericArray$LT$T$C$N$GT$$GT$$GT$4push17h64a3894c7a4114cdE:

00000000 <_ZN8heapless3vec82_$LT$impl$u20$heapless..i..Vec$LT$generic_array..GenericArray$LT$T$C$N$GT$$GT$$GT$4push17h64a3894c7a4114cdE>:
_ZN8heapless3vec82_$LT$impl$u20$heapless..i..Vec$LT$generic_array..GenericArray$LT$T$C$N$GT$$GT$$GT$4push17h64a3894c7a4114cdE():
C:\Users\guppy\.cargo\registry\src\github.com-1ecc6299db9ec823\heapless-0.5.1\src/vec.rs:86
    pub(crate) fn push(&mut self, item: T) -> Result<(), T> {
   0:	b580      	push	{r7, lr}
   2:	b08c      	sub	sp, #48	; 0x30
   4:	9105      	str	r1, [sp, #20]
C:\Users\guppy\.cargo\registry\src\github.com-1ecc6299db9ec823\heapless-0.5.1\src/vec.rs:87
        if self.len < self.capacity() {
   6:	9905      	ldr	r1, [sp, #20]
   8:	698b      	ldr	r3, [r1, #24]
   a:	9004      	str	r0, [sp, #16]
   c:	4608      	mov	r0, r1
   e:	9203      	str	r2, [sp, #12]
  10:	9302      	str	r3, [sp, #8]
  12:	f7ff fffe 	bl	0 <_ZN8heapless3vec82_$LT$impl$u20$heapless..i..Vec$LT$generic_array..GenericArray$LT$T$C$N$GT$$GT$$GT$4push17h64a3894c7a4114cdE>
  16:	9001      	str	r0, [sp, #4]
  18:	e7ff      	b.n	1a <_ZN8heapless3vec82_$LT$impl$u20$heapless..i..Vec$LT$generic_array..GenericArray$LT$T$C$N$GT$$GT$$GT$4push17h64a3894c7a4114cdE+0x1a>
  1a:	9802      	ldr	r0, [sp, #8]
  1c:	9901      	ldr	r1, [sp, #4]
  1e:	4288      	cmp	r0, r1
  20:	d313      	bcc.n	4a <_ZN8heapless3vec82_$LT$impl$u20$heapless..i..Vec$LT$generic_array..GenericArray$LT$T$C$N$GT$$GT$$GT$4push17h64a3894c7a4114cdE+0x4a>
  22:	e7ff      	b.n	24 <_ZN8heapless3vec82_$LT$impl$u20$heapless..i..Vec$LT$generic_array..GenericArray$LT$T$C$N$GT$$GT$$GT$4push17h64a3894c7a4114cdE+0x24>
C:\Users\guppy\.cargo\registry\src\github.com-1ecc6299db9ec823\heapless-0.5.1\src/vec.rs:91
            Err(item)
  24:	9803      	ldr	r0, [sp, #12]
  26:	6801      	ldr	r1, [r0, #0]
  28:	6842      	ldr	r2, [r0, #4]
  2a:	6883      	ldr	r3, [r0, #8]
  2c:	930b      	str	r3, [sp, #44]	; 0x2c
  2e:	920a      	str	r2, [sp, #40]	; 0x28
  30:	9109      	str	r1, [sp, #36]	; 0x24
  32:	9909      	ldr	r1, [sp, #36]	; 0x24
  34:	9a0a      	ldr	r2, [sp, #40]	; 0x28
  36:	9b0b      	ldr	r3, [sp, #44]	; 0x2c
  38:	f8dd c010 	ldr.w	ip, [sp, #16]
  3c:	f8cc 3008 	str.w	r3, [ip, #8]
  40:	f8cc 2004 	str.w	r2, [ip, #4]
  44:	f8cc 1000 	str.w	r1, [ip]
C:\Users\guppy\.cargo\registry\src\github.com-1ecc6299db9ec823\heapless-0.5.1\src/vec.rs:87
        if self.len < self.capacity() {
  48:	e014      	b.n	74 <_ZN8heapless3vec82_$LT$impl$u20$heapless..i..Vec$LT$generic_array..GenericArray$LT$T$C$N$GT$$GT$$GT$4push17h64a3894c7a4114cdE+0x74>
C:\Users\guppy\.cargo\registry\src\github.com-1ecc6299db9ec823\heapless-0.5.1\src/vec.rs:88
            unsafe { self.push_unchecked(item) }
  4a:	9805      	ldr	r0, [sp, #20]
  4c:	9903      	ldr	r1, [sp, #12]
  4e:	680a      	ldr	r2, [r1, #0]
  50:	684b      	ldr	r3, [r1, #4]
  52:	f8d1 c008 	ldr.w	ip, [r1, #8]
  56:	f8cd c020 	str.w	ip, [sp, #32]
  5a:	9307      	str	r3, [sp, #28]
  5c:	9206      	str	r2, [sp, #24]
  5e:	a906      	add	r1, sp, #24
  60:	f7ff fffe 	bl	0 <_ZN8heapless3vec82_$LT$impl$u20$heapless..i..Vec$LT$generic_array..GenericArray$LT$T$C$N$GT$$GT$$GT$4push17h64a3894c7a4114cdE>
  64:	e7ff      	b.n	66 <_ZN8heapless3vec82_$LT$impl$u20$heapless..i..Vec$LT$generic_array..GenericArray$LT$T$C$N$GT$$GT$$GT$4push17h64a3894c7a4114cdE+0x66>
  66:	2000      	movs	r0, #0
C:\Users\guppy\.cargo\registry\src\github.com-1ecc6299db9ec823\heapless-0.5.1\src/vec.rs:89
            Ok(())
  68:	9904      	ldr	r1, [sp, #16]
  6a:	6088      	str	r0, [r1, #8]
  6c:	6048      	str	r0, [r1, #4]
  6e:	6008      	str	r0, [r1, #0]
  70:	6008      	str	r0, [r1, #0]
C:\Users\guppy\.cargo\registry\src\github.com-1ecc6299db9ec823\heapless-0.5.1\src/vec.rs:87
        if self.len < self.capacity() {
  72:	e7ff      	b.n	74 <_ZN8heapless3vec82_$LT$impl$u20$heapless..i..Vec$LT$generic_array..GenericArray$LT$T$C$N$GT$$GT$$GT$4push17h64a3894c7a4114cdE+0x74>
C:\Users\guppy\.cargo\registry\src\github.com-1ecc6299db9ec823\heapless-0.5.1\src/vec.rs:93
    }
  74:	b00c      	add	sp, #48	; 0x30
  76:	bd80      	pop	{r7, pc}

Disassembly of section .text._ZN8heapless3vec82_$LT$impl$u20$heapless..i..Vec$LT$generic_array..GenericArray$LT$T$C$N$GT$$GT$$GT$4push17hb1e08ed7c324ec29E:

00000000 <_ZN8heapless3vec82_$LT$impl$u20$heapless..i..Vec$LT$generic_array..GenericArray$LT$T$C$N$GT$$GT$$GT$4push17hb1e08ed7c324ec29E>:
_ZN8heapless3vec82_$LT$impl$u20$heapless..i..Vec$LT$generic_array..GenericArray$LT$T$C$N$GT$$GT$$GT$4push17hb1e08ed7c324ec29E():
C:\Users\guppy\.cargo\registry\src\github.com-1ecc6299db9ec823\heapless-0.5.1\src/vec.rs:86
    pub(crate) fn push(&mut self, item: T) -> Result<(), T> {
   0:	b5b0      	push	{r4, r5, r7, lr}
   2:	b096      	sub	sp, #88	; 0x58
   4:	9105      	str	r1, [sp, #20]
C:\Users\guppy\.cargo\registry\src\github.com-1ecc6299db9ec823\heapless-0.5.1\src/vec.rs:87
        if self.len < self.capacity() {
   6:	9905      	ldr	r1, [sp, #20]
   8:	6c0b      	ldr	r3, [r1, #64]	; 0x40
   a:	9004      	str	r0, [sp, #16]
   c:	4608      	mov	r0, r1
   e:	9203      	str	r2, [sp, #12]
  10:	9302      	str	r3, [sp, #8]
  12:	f7ff fffe 	bl	0 <_ZN8heapless3vec82_$LT$impl$u20$heapless..i..Vec$LT$generic_array..GenericArray$LT$T$C$N$GT$$GT$$GT$4push17hb1e08ed7c324ec29E>
  16:	9001      	str	r0, [sp, #4]
  18:	e7ff      	b.n	1a <_ZN8heapless3vec82_$LT$impl$u20$heapless..i..Vec$LT$generic_array..GenericArray$LT$T$C$N$GT$$GT$$GT$4push17hb1e08ed7c324ec29E+0x1a>
  1a:	9802      	ldr	r0, [sp, #8]
  1c:	9901      	ldr	r1, [sp, #4]
  1e:	4288      	cmp	r0, r1
  20:	d315      	bcc.n	4e <_ZN8heapless3vec82_$LT$impl$u20$heapless..i..Vec$LT$generic_array..GenericArray$LT$T$C$N$GT$$GT$$GT$4push17hb1e08ed7c324ec29E+0x4e>
  22:	e7ff      	b.n	24 <_ZN8heapless3vec82_$LT$impl$u20$heapless..i..Vec$LT$generic_array..GenericArray$LT$T$C$N$GT$$GT$$GT$4push17hb1e08ed7c324ec29E+0x24>
  24:	a80e      	add	r0, sp, #56	; 0x38
C:\Users\guppy\.cargo\registry\src\github.com-1ecc6299db9ec823\heapless-0.5.1\src/vec.rs:91
            Err(item)
  26:	9903      	ldr	r1, [sp, #12]
  28:	4602      	mov	r2, r0
  2a:	e8b1 5018 	ldmia.w	r1!, {r3, r4, ip, lr}
  2e:	e8a2 5018 	stmia.w	r2!, {r3, r4, ip, lr}
  32:	e891 5018 	ldmia.w	r1, {r3, r4, ip, lr}
  36:	e882 5018 	stmia.w	r2, {r3, r4, ip, lr}
  3a:	9904      	ldr	r1, [sp, #16]
  3c:	e8b0 500c 	ldmia.w	r0!, {r2, r3, ip, lr}
  40:	e8a1 500c 	stmia.w	r1!, {r2, r3, ip, lr}
  44:	e890 500c 	ldmia.w	r0, {r2, r3, ip, lr}
  48:	e881 500c 	stmia.w	r1, {r2, r3, ip, lr}
C:\Users\guppy\.cargo\registry\src\github.com-1ecc6299db9ec823\heapless-0.5.1\src/vec.rs:87
        if self.len < self.capacity() {
  4c:	e01c      	b.n	88 <_ZN8heapless3vec82_$LT$impl$u20$heapless..i..Vec$LT$generic_array..GenericArray$LT$T$C$N$GT$$GT$$GT$4push17hb1e08ed7c324ec29E+0x88>
C:\Users\guppy\.cargo\registry\src\github.com-1ecc6299db9ec823\heapless-0.5.1\src/vec.rs:88
            unsafe { self.push_unchecked(item) }
  4e:	9805      	ldr	r0, [sp, #20]
  50:	a906      	add	r1, sp, #24
  52:	9a03      	ldr	r2, [sp, #12]
  54:	460b      	mov	r3, r1
  56:	e8b2 5030 	ldmia.w	r2!, {r4, r5, ip, lr}
  5a:	e8a3 5030 	stmia.w	r3!, {r4, r5, ip, lr}
  5e:	e892 5030 	ldmia.w	r2, {r4, r5, ip, lr}
  62:	e883 5030 	stmia.w	r3, {r4, r5, ip, lr}
  66:	f7ff fffe 	bl	0 <_ZN8heapless3vec82_$LT$impl$u20$heapless..i..Vec$LT$generic_array..GenericArray$LT$T$C$N$GT$$GT$$GT$4push17hb1e08ed7c324ec29E>
  6a:	e7ff      	b.n	6c <_ZN8heapless3vec82_$LT$impl$u20$heapless..i..Vec$LT$generic_array..GenericArray$LT$T$C$N$GT$$GT$$GT$4push17hb1e08ed7c324ec29E+0x6c>
  6c:	2000      	movs	r0, #0
C:\Users\guppy\.cargo\registry\src\github.com-1ecc6299db9ec823\heapless-0.5.1\src/vec.rs:89
            Ok(())
  6e:	9904      	ldr	r1, [sp, #16]
  70:	61c8      	str	r0, [r1, #28]
  72:	6188      	str	r0, [r1, #24]
  74:	6148      	str	r0, [r1, #20]
  76:	6108      	str	r0, [r1, #16]
  78:	60c8      	str	r0, [r1, #12]
  7a:	6088      	str	r0, [r1, #8]
  7c:	6048      	str	r0, [r1, #4]
  7e:	6008      	str	r0, [r1, #0]
  80:	6048      	str	r0, [r1, #4]
  82:	2002      	movs	r0, #2
  84:	6008      	str	r0, [r1, #0]
C:\Users\guppy\.cargo\registry\src\github.com-1ecc6299db9ec823\heapless-0.5.1\src/vec.rs:87
        if self.len < self.capacity() {
  86:	e7ff      	b.n	88 <_ZN8heapless3vec82_$LT$impl$u20$heapless..i..Vec$LT$generic_array..GenericArray$LT$T$C$N$GT$$GT$$GT$4push17hb1e08ed7c324ec29E+0x88>
C:\Users\guppy\.cargo\registry\src\github.com-1ecc6299db9ec823\heapless-0.5.1\src/vec.rs:93
    }
  88:	b016      	add	sp, #88	; 0x58
  8a:	bdb0      	pop	{r4, r5, r7, pc}

Disassembly of section .text._ZN8heapless3vec82_$LT$impl$u20$heapless..i..Vec$LT$generic_array..GenericArray$LT$T$C$N$GT$$GT$$GT$5clone17hacad4dd94d2a4ef0E:

00000000 <_ZN8heapless3vec82_$LT$impl$u20$heapless..i..Vec$LT$generic_array..GenericArray$LT$T$C$N$GT$$GT$$GT$5clone17hacad4dd94d2a4ef0E>:
_ZN8heapless3vec82_$LT$impl$u20$heapless..i..Vec$LT$generic_array..GenericArray$LT$T$C$N$GT$$GT$$GT$5clone17hacad4dd94d2a4ef0E():
C:\Users\guppy\.cargo\registry\src\github.com-1ecc6299db9ec823\heapless-0.5.1\src/vec.rs:40
    pub(crate) fn clone(&self) -> Self
   0:	b580      	push	{r7, lr}
   2:	b08c      	sub	sp, #48	; 0x30
   4:	9104      	str	r1, [sp, #16]
   6:	a905      	add	r1, sp, #20
C:\Users\guppy\.cargo\registry\src\github.com-1ecc6299db9ec823\heapless-0.5.1\src/vec.rs:44
        let mut new = Self::new();
   8:	9003      	str	r0, [sp, #12]
   a:	4608      	mov	r0, r1
   c:	f7ff fffe 	bl	0 <_ZN8heapless3vec82_$LT$impl$u20$heapless..i..Vec$LT$generic_array..GenericArray$LT$T$C$N$GT$$GT$$GT$5clone17hacad4dd94d2a4ef0E>
  10:	e7ff      	b.n	12 <_ZN8heapless3vec82_$LT$impl$u20$heapless..i..Vec$LT$generic_array..GenericArray$LT$T$C$N$GT$$GT$$GT$5clone17hacad4dd94d2a4ef0E+0x12>
C:\Users\guppy\.cargo\registry\src\github.com-1ecc6299db9ec823\heapless-0.5.1\src/vec.rs:45
        new.extend_from_slice(self.as_slice()).unwrap();
  12:	9804      	ldr	r0, [sp, #16]
  14:	f7ff fffe 	bl	0 <_ZN8heapless3vec82_$LT$impl$u20$heapless..i..Vec$LT$generic_array..GenericArray$LT$T$C$N$GT$$GT$$GT$8as_slice17h04d9198a6474c109E>
  18:	9002      	str	r0, [sp, #8]
  1a:	9101      	str	r1, [sp, #4]
  1c:	e7ff      	b.n	1e <_ZN8heapless3vec82_$LT$impl$u20$heapless..i..Vec$LT$generic_array..GenericArray$LT$T$C$N$GT$$GT$$GT$5clone17hacad4dd94d2a4ef0E+0x1e>
  1e:	a805      	add	r0, sp, #20
  20:	9902      	ldr	r1, [sp, #8]
  22:	9a01      	ldr	r2, [sp, #4]
  24:	f7ff fffe 	bl	0 <_ZN8heapless3vec82_$LT$impl$u20$heapless..i..Vec$LT$generic_array..GenericArray$LT$T$C$N$GT$$GT$$GT$5clone17hacad4dd94d2a4ef0E>
  28:	9000      	str	r0, [sp, #0]
  2a:	e7ff      	b.n	2c <_ZN8heapless3vec82_$LT$impl$u20$heapless..i..Vec$LT$generic_array..GenericArray$LT$T$C$N$GT$$GT$$GT$5clone17hacad4dd94d2a4ef0E+0x2c>
  2c:	9800      	ldr	r0, [sp, #0]
  2e:	f000 0001 	and.w	r0, r0, #1
  32:	f7ff fffe 	bl	0 <_ZN4core6result19Result$LT$T$C$E$GT$6unwrap17h52e290cd2bed07dbE>
  36:	e7ff      	b.n	38 <_ZN8heapless3vec82_$LT$impl$u20$heapless..i..Vec$LT$generic_array..GenericArray$LT$T$C$N$GT$$GT$$GT$5clone17hacad4dd94d2a4ef0E+0x38>
  38:	a805      	add	r0, sp, #20
C:\Users\guppy\.cargo\registry\src\github.com-1ecc6299db9ec823\heapless-0.5.1\src/vec.rs:46
        new
  3a:	9903      	ldr	r1, [sp, #12]
  3c:	e8b0 100c 	ldmia.w	r0!, {r2, r3, ip}
  40:	e8a1 100c 	stmia.w	r1!, {r2, r3, ip}
  44:	e890 500c 	ldmia.w	r0, {r2, r3, ip, lr}
  48:	e881 500c 	stmia.w	r1, {r2, r3, ip, lr}
C:\Users\guppy\.cargo\registry\src\github.com-1ecc6299db9ec823\heapless-0.5.1\src/vec.rs:47
    }
  4c:	b00c      	add	sp, #48	; 0x30
  4e:	bd80      	pop	{r7, pc}

Disassembly of section .text._ZN8heapless3vec82_$LT$impl$u20$heapless..i..Vec$LT$generic_array..GenericArray$LT$T$C$N$GT$$GT$$GT$8as_slice17h4d9c18d3854eac7eE:

00000000 <_ZN8heapless3vec82_$LT$impl$u20$heapless..i..Vec$LT$generic_array..GenericArray$LT$T$C$N$GT$$GT$$GT$8as_slice17h4d9c18d3854eac7eE>:
_ZN8heapless3vec82_$LT$impl$u20$heapless..i..Vec$LT$generic_array..GenericArray$LT$T$C$N$GT$$GT$$GT$8as_slice17h4d9c18d3854eac7eE():
C:\Users\guppy\.cargo\registry\src\github.com-1ecc6299db9ec823\heapless-0.5.1\src/vec.rs:20
    pub(crate) fn as_slice(&self) -> &[T] {
   0:	b580      	push	{r7, lr}
   2:	b086      	sub	sp, #24
   4:	9003      	str	r0, [sp, #12]
C:\Users\guppy\.cargo\registry\src\github.com-1ecc6299db9ec823\heapless-0.5.1\src/vec.rs:23
        unsafe { slice::from_raw_parts(self.buffer.as_ptr() as *const T, self.len) }
   6:	9803      	ldr	r0, [sp, #12]
   8:	9004      	str	r0, [sp, #16]
_ZN4core3mem12maybe_uninit20MaybeUninit$LT$T$GT$6as_ptr17hf22d7d904053bb46E():
/rustc/412f43ac5b4ae8c3599e71c6972112e9be4758fa/src/libcore/mem/maybe_uninit.rs:399
   a:	9804      	ldr	r0, [sp, #16]
   c:	9005      	str	r0, [sp, #20]
_ZN91_$LT$core..mem..manually_drop..ManuallyDrop$LT$T$GT$$u20$as$u20$core..ops..deref..Deref$GT$5deref17ha4905d7798d6619dE():
/rustc/412f43ac5b4ae8c3599e71c6972112e9be4758fa/src/libcore/mem/manually_drop.rs:138
   e:	9805      	ldr	r0, [sp, #20]
_ZN8heapless3vec82_$LT$impl$u20$heapless..i..Vec$LT$generic_array..GenericArray$LT$T$C$N$GT$$GT$$GT$8as_slice17h4d9c18d3854eac7eE():
C:\Users\guppy\.cargo\registry\src\github.com-1ecc6299db9ec823\heapless-0.5.1\src/vec.rs:23
  10:	9002      	str	r0, [sp, #8]
  12:	e7ff      	b.n	14 <_ZN8heapless3vec82_$LT$impl$u20$heapless..i..Vec$LT$generic_array..GenericArray$LT$T$C$N$GT$$GT$$GT$8as_slice17h4d9c18d3854eac7eE+0x14>
  14:	9803      	ldr	r0, [sp, #12]
  16:	6c01      	ldr	r1, [r0, #64]	; 0x40
  18:	9802      	ldr	r0, [sp, #8]
  1a:	f7ff fffe 	bl	0 <_ZN4core5slice14from_raw_parts17he5f5af62e55cd39bE>
  1e:	9001      	str	r0, [sp, #4]
  20:	9100      	str	r1, [sp, #0]
  22:	e7ff      	b.n	24 <_ZN8heapless3vec82_$LT$impl$u20$heapless..i..Vec$LT$generic_array..GenericArray$LT$T$C$N$GT$$GT$$GT$8as_slice17h4d9c18d3854eac7eE+0x24>
C:\Users\guppy\.cargo\registry\src\github.com-1ecc6299db9ec823\heapless-0.5.1\src/vec.rs:24
    }
  24:	9801      	ldr	r0, [sp, #4]
  26:	9900      	ldr	r1, [sp, #0]
  28:	b006      	add	sp, #24
  2a:	bd80      	pop	{r7, pc}

Disassembly of section .text._ZN8heapless3vec82_$LT$impl$u20$heapless..i..Vec$LT$generic_array..GenericArray$LT$T$C$N$GT$$GT$$GT$8capacity17h6f2029c6f4a3d4abE:

00000000 <_ZN8heapless3vec82_$LT$impl$u20$heapless..i..Vec$LT$generic_array..GenericArray$LT$T$C$N$GT$$GT$$GT$8capacity17h6f2029c6f4a3d4abE>:
_ZN8heapless3vec82_$LT$impl$u20$heapless..i..Vec$LT$generic_array..GenericArray$LT$T$C$N$GT$$GT$$GT$8capacity17h6f2029c6f4a3d4abE():
C:\Users\guppy\.cargo\registry\src\github.com-1ecc6299db9ec823\heapless-0.5.1\src/vec.rs:32
    pub(crate) fn capacity(&self) -> usize {
   0:	b580      	push	{r7, lr}
   2:	b082      	sub	sp, #8
   4:	9001      	str	r0, [sp, #4]
C:\Users\guppy\.cargo\registry\src\github.com-1ecc6299db9ec823\heapless-0.5.1\src/vec.rs:33
        N::to_usize()
   6:	f7ff fffe 	bl	0 <_ZN85_$LT$typenum..uint..UInt$LT$U$C$B$GT$$u20$as$u20$typenum..marker_traits..Unsigned$GT$8to_usize17h8887cd722bab15e8E>
   a:	9000      	str	r0, [sp, #0]
   c:	e7ff      	b.n	e <_ZN8heapless3vec82_$LT$impl$u20$heapless..i..Vec$LT$generic_array..GenericArray$LT$T$C$N$GT$$GT$$GT$8capacity17h6f2029c6f4a3d4abE+0xe>
C:\Users\guppy\.cargo\registry\src\github.com-1ecc6299db9ec823\heapless-0.5.1\src/vec.rs:34
    }
   e:	9800      	ldr	r0, [sp, #0]
  10:	b002      	add	sp, #8
  12:	bd80      	pop	{r7, pc}

Disassembly of section .text._ZN8heapless3vec82_$LT$impl$u20$heapless..i..Vec$LT$generic_array..GenericArray$LT$T$C$N$GT$$GT$$GT$8capacity17h80941c2048937f1bE:

00000000 <_ZN8heapless3vec82_$LT$impl$u20$heapless..i..Vec$LT$generic_array..GenericArray$LT$T$C$N$GT$$GT$$GT$8capacity17h80941c2048937f1bE>:
_ZN8heapless3vec82_$LT$impl$u20$heapless..i..Vec$LT$generic_array..GenericArray$LT$T$C$N$GT$$GT$$GT$8capacity17h80941c2048937f1bE():
C:\Users\guppy\.cargo\registry\src\github.com-1ecc6299db9ec823\heapless-0.5.1\src/vec.rs:32
    pub(crate) fn capacity(&self) -> usize {
   0:	b580      	push	{r7, lr}
   2:	b082      	sub	sp, #8
   4:	9001      	str	r0, [sp, #4]
C:\Users\guppy\.cargo\registry\src\github.com-1ecc6299db9ec823\heapless-0.5.1\src/vec.rs:33
        N::to_usize()
   6:	f7ff fffe 	bl	0 <_ZN85_$LT$typenum..uint..UInt$LT$U$C$B$GT$$u20$as$u20$typenum..marker_traits..Unsigned$GT$8to_usize17h6b0faa23185bf2c8E>
   a:	9000      	str	r0, [sp, #0]
   c:	e7ff      	b.n	e <_ZN8heapless3vec82_$LT$impl$u20$heapless..i..Vec$LT$generic_array..GenericArray$LT$T$C$N$GT$$GT$$GT$8capacity17h80941c2048937f1bE+0xe>
C:\Users\guppy\.cargo\registry\src\github.com-1ecc6299db9ec823\heapless-0.5.1\src/vec.rs:34
    }
   e:	9800      	ldr	r0, [sp, #0]
  10:	b002      	add	sp, #8
  12:	bd80      	pop	{r7, pc}

Disassembly of section .text._ZN8heapless3vec82_$LT$impl$u20$heapless..i..Vec$LT$generic_array..GenericArray$LT$T$C$N$GT$$GT$$GT$8capacity17hd89e295baab3401eE:

00000000 <_ZN8heapless3vec82_$LT$impl$u20$heapless..i..Vec$LT$generic_array..GenericArray$LT$T$C$N$GT$$GT$$GT$8capacity17hd89e295baab3401eE>:
_ZN8heapless3vec82_$LT$impl$u20$heapless..i..Vec$LT$generic_array..GenericArray$LT$T$C$N$GT$$GT$$GT$8capacity17hd89e295baab3401eE():
C:\Users\guppy\.cargo\registry\src\github.com-1ecc6299db9ec823\heapless-0.5.1\src/vec.rs:32
    pub(crate) fn capacity(&self) -> usize {
   0:	b580      	push	{r7, lr}
   2:	b082      	sub	sp, #8
   4:	9001      	str	r0, [sp, #4]
C:\Users\guppy\.cargo\registry\src\github.com-1ecc6299db9ec823\heapless-0.5.1\src/vec.rs:33
        N::to_usize()
   6:	f7ff fffe 	bl	0 <_ZN85_$LT$typenum..uint..UInt$LT$U$C$B$GT$$u20$as$u20$typenum..marker_traits..Unsigned$GT$8to_usize17h8887cd722bab15e8E>
   a:	9000      	str	r0, [sp, #0]
   c:	e7ff      	b.n	e <_ZN8heapless3vec82_$LT$impl$u20$heapless..i..Vec$LT$generic_array..GenericArray$LT$T$C$N$GT$$GT$$GT$8capacity17hd89e295baab3401eE+0xe>
C:\Users\guppy\.cargo\registry\src\github.com-1ecc6299db9ec823\heapless-0.5.1\src/vec.rs:34
    }
   e:	9800      	ldr	r0, [sp, #0]
  10:	b002      	add	sp, #8
  12:	bd80      	pop	{r7, pc}

app-20d859f505b9d0c6.18n7iqgy528nsvjt.rcgu.o:     file format elf32-littlearm

SYMBOL TABLE:
00000000 l    df *ABS*	00000000 18n7iqgy528nsvjt
00000085 l       .debug_str	00000000 
00000095 l       .debug_str	00000000 
00000000 l       .debug_str	00000000 
00000041 l       .debug_str	00000000 
00000055 l       .debug_str	00000000 
00000074 l       .debug_str	00000000 
0000007a l       .debug_str	00000000 
0000007f l       .debug_str	00000000 
00000090 l       .debug_str	00000000 
00000089 l       .debug_str	00000000 
000000c1 l       .debug_str	00000000 
00000000 l    d  .text._ZN5kurbo4size4Size3new17h3ff1cf3c083eba79E	00000000 .text._ZN5kurbo4size4Size3new17h3ff1cf3c083eba79E
00000000 l    d  .debug_abbrev	00000000 .debug_abbrev
00000000 l    d  .debug_info	00000000 .debug_info
00000000 l    d  .debug_frame	00000000 .debug_frame
00000000 l    d  .debug_line	00000000 .debug_line
00000000 g     F .text._ZN5kurbo4size4Size3new17h3ff1cf3c083eba79E	00000026 .hidden _ZN5kurbo4size4Size3new17h3ff1cf3c083eba79E



Disassembly of section .text._ZN5kurbo4size4Size3new17h3ff1cf3c083eba79E:

00000000 <_ZN5kurbo4size4Size3new17h3ff1cf3c083eba79E>:
_ZN5kurbo4size4Size3new17h3ff1cf3c083eba79E():
C:\kurbo-embedded\src/size.rs:24
    /// A size with zero width or height.
    pub const ZERO: Size = Size::new(0., 0.);

    /// Create a new `Size` with the provided `width` and `height`.
    #[inline]
    pub const fn new(width: f64, height: f64) -> Self {
   0:	b088      	sub	sp, #32
   2:	ed8d 0b00 	vstr	d0, [sp]
   6:	ed8d 1b02 	vstr	d1, [sp, #8]
C:\kurbo-embedded\src/size.rs:25
        Size { width, height }
   a:	ed9d 0b00 	vldr	d0, [sp]
   e:	ed9d 1b02 	vldr	d1, [sp, #8]
  12:	ed8d 0b04 	vstr	d0, [sp, #16]
  16:	ed8d 1b06 	vstr	d1, [sp, #24]
C:\kurbo-embedded\src/size.rs:26
    }
  1a:	ed9d 0b04 	vldr	d0, [sp, #16]
  1e:	ed9d 1b06 	vldr	d1, [sp, #24]
  22:	b008      	add	sp, #32
  24:	4770      	bx	lr

app-20d859f505b9d0c6.19dwc2mnbbgim6jc.rcgu.o:     file format elf32-littlearm

SYMBOL TABLE:
00000000 l    df *ABS*	00000000 19dwc2mnbbgim6jc
00000186 l       .debug_str	00000000 
00000410 l       .debug_str	00000000 
00000000 l       .debug_str	00000000 
00000041 l       .debug_str	00000000 
00000055 l       .debug_str	00000000 
00000074 l       .debug_str	00000000 
00000079 l       .debug_str	00000000 
0000007d l       .debug_str	00000000 
00000080 l       .debug_str	00000000 
00000083 l       .debug_str	00000000 
00000086 l       .debug_str	00000000 
0000008b l       .debug_str	00000000 
00000091 l       .debug_str	00000000 
00000098 l       .debug_str	00000000 
000000a0 l       .debug_str	00000000 
000000aa l       .debug_str	00000000 
000000b1 l       .debug_str	00000000 
000000b4 l       .debug_str	00000000 
000000b8 l       .debug_str	00000000 
000000bf l       .debug_str	00000000 
000000c6 l       .debug_str	00000000 
000000cf l       .debug_str	00000000 
000000d9 l       .debug_str	00000000 
000000e0 l       .debug_str	00000000 
000000e6 l       .debug_str	00000000 
000000eb l       .debug_str	00000000 
000000f7 l       .debug_str	00000000 
000000ff l       .debug_str	00000000 
00000106 l       .debug_str	00000000 
0000010a l       .debug_str	00000000 
0000010f l       .debug_str	00000000 
00000118 l       .debug_str	00000000 
0000011d l       .debug_str	00000000 
00000120 l       .debug_str	00000000 
00000124 l       .debug_str	00000000 
0000012d l       .debug_str	00000000 
00000134 l       .debug_str	00000000 
00000139 l       .debug_str	00000000 
0000013e l       .debug_str	00000000 
00000144 l       .debug_str	00000000 
0000014a l       .debug_str	00000000 
00000154 l       .debug_str	00000000 
00000157 l       .debug_str	00000000 
0000015d l       .debug_str	00000000 
00000167 l       .debug_str	00000000 
0000016f l       .debug_str	00000000 
00000175 l       .debug_str	00000000 
0000017b l       .debug_str	00000000 
00000406 l       .debug_str	00000000 
0000018f l       .debug_str	00000000 
000001b2 l       .debug_str	00000000 
000001d1 l       .debug_str	00000000 
000001d3 l       .debug_str	00000000 
000001d8 l       .debug_str	00000000 
000001ff l       .debug_str	00000000 
00000204 l       .debug_str	00000000 
0000020a l       .debug_str	00000000 
00000210 l       .debug_str	00000000 
00000213 l       .debug_str	00000000 
00000222 l       .debug_str	00000000 
00000229 l       .debug_str	00000000 
0000022d l       .debug_str	00000000 
00000236 l       .debug_str	00000000 
0000023e l       .debug_str	00000000 
00000246 l       .debug_str	00000000 
0000024d l       .debug_str	00000000 
00000261 l       .debug_str	00000000 
0000026d l       .debug_str	00000000 
00000279 l       .debug_str	00000000 
00000292 l       .debug_str	00000000 
00000297 l       .debug_str	00000000 
000002a8 l       .debug_str	00000000 
000002b2 l       .debug_str	00000000 
000002c0 l       .debug_str	00000000 
000002c4 l       .debug_str	00000000 
000002cf l       .debug_str	00000000 
000002d6 l       .debug_str	00000000 
000002dc l       .debug_str	00000000 
000002e0 l       .debug_str	00000000 
000002e4 l       .debug_str	00000000 
000002ec l       .debug_str	00000000 
00000303 l       .debug_str	00000000 
00000327 l       .debug_str	00000000 
00000343 l       .debug_str	00000000 
0000034d l       .debug_str	00000000 
00000367 l       .debug_str	00000000 
000003c5 l       .debug_str	00000000 
000003d0 l       .debug_str	00000000 
000003ed l       .debug_str	00000000 
00000442 l       .debug_str	00000000 
00000000 l    d  .text._ZN4core3fmt9Arguments6new_v117h9d151c8d8345202dE	00000000 .text._ZN4core3fmt9Arguments6new_v117h9d151c8d8345202dE
00000000 l    d  .debug_abbrev	00000000 .debug_abbrev
00000000 l    d  .debug_info	00000000 .debug_info
00000000 l    d  .debug_frame	00000000 .debug_frame
00000000 l    d  .debug_line	00000000 .debug_line
00000000 g     F .text._ZN4core3fmt9Arguments6new_v117h9d151c8d8345202dE	00000038 .hidden _ZN4core3fmt9Arguments6new_v117h9d151c8d8345202dE



Disassembly of section .text._ZN4core3fmt9Arguments6new_v117h9d151c8d8345202dE:

00000000 <_ZN4core3fmt9Arguments6new_v117h9d151c8d8345202dE>:
_ZN4core3fmt9Arguments6new_v117h9d151c8d8345202dE():
/rustc/412f43ac5b4ae8c3599e71c6972112e9be4758fa/src/libcore/fmt/mod.rs:316
   0:	b086      	sub	sp, #24
   2:	f8dd c018 	ldr.w	ip, [sp, #24]
   6:	9100      	str	r1, [sp, #0]
   8:	9201      	str	r2, [sp, #4]
   a:	9302      	str	r3, [sp, #8]
   c:	f8cd c00c 	str.w	ip, [sp, #12]
/rustc/412f43ac5b4ae8c3599e71c6972112e9be4758fa/src/libcore/fmt/mod.rs:319
  10:	9900      	ldr	r1, [sp, #0]
  12:	9a01      	ldr	r2, [sp, #4]
  14:	2300      	movs	r3, #0
/rustc/412f43ac5b4ae8c3599e71c6972112e9be4758fa/src/libcore/fmt/mod.rs:320
  16:	9305      	str	r3, [sp, #20]
  18:	9304      	str	r3, [sp, #16]
  1a:	9304      	str	r3, [sp, #16]
/rustc/412f43ac5b4ae8c3599e71c6972112e9be4758fa/src/libcore/fmt/mod.rs:321
  1c:	9b02      	ldr	r3, [sp, #8]
  1e:	f8dd c00c 	ldr.w	ip, [sp, #12]
/rustc/412f43ac5b4ae8c3599e71c6972112e9be4758fa/src/libcore/fmt/mod.rs:318
  22:	6001      	str	r1, [r0, #0]
  24:	6042      	str	r2, [r0, #4]
  26:	9904      	ldr	r1, [sp, #16]
  28:	9a05      	ldr	r2, [sp, #20]
  2a:	6081      	str	r1, [r0, #8]
  2c:	60c2      	str	r2, [r0, #12]
  2e:	6103      	str	r3, [r0, #16]
  30:	f8c0 c014 	str.w	ip, [r0, #20]
/rustc/412f43ac5b4ae8c3599e71c6972112e9be4758fa/src/libcore/fmt/mod.rs:323
  34:	b006      	add	sp, #24
  36:	4770      	bx	lr

app-20d859f505b9d0c6.1a6f8bephvk1fr4g.rcgu.o:     file format elf32-littlearm

SYMBOL TABLE:
00000000 l    df *ABS*	00000000 1a6f8bephvk1fr4g
00001846 l       .debug_str	00000000 
0000299f l       .debug_str	00000000 
0000297b l       .debug_str	00000000 
000029e2 l       .debug_str	00000000 
00002976 l       .debug_str	00000000 
000029d7 l       .debug_str	00000000 
00002966 l       .debug_str	00000000 
000029b5 l       .debug_str	00000000 
00002959 l       .debug_str	00000000 
00000000 l       .debug_str	00000000 
00000041 l       .debug_str	00000000 
00000055 l       .debug_str	00000000 
00000074 l       .debug_str	00000000 
00000079 l       .debug_str	00000000 
00000080 l       .debug_str	00000000 
00000083 l       .debug_str	00000000 
00000088 l       .debug_str	00000000 
0000008d l       .debug_str	00000000 
00000094 l       .debug_str	00000000 
0000009a l       .debug_str	00000000 
000000a1 l       .debug_str	00000000 
000000a6 l       .debug_str	00000000 
000000b1 l       .debug_str	00000000 
000000ba l       .debug_str	00000000 
000000bf l       .debug_str	00000000 
000000c6 l       .debug_str	00000000 
000000c9 l       .debug_str	00000000 
000000cd l       .debug_str	00000000 
000000d3 l       .debug_str	00000000 
000000d8 l       .debug_str	00000000 
000000e2 l       .debug_str	00000000 
000000e6 l       .debug_str	00000000 
000000f3 l       .debug_str	00000000 
000000f7 l       .debug_str	00000000 
00000100 l       .debug_str	00000000 
0000010a l       .debug_str	00000000 
00000111 l       .debug_str	00000000 
00000117 l       .debug_str	00000000 
0000011c l       .debug_str	00000000 
00000128 l       .debug_str	00000000 
00000131 l       .debug_str	00000000 
00000138 l       .debug_str	00000000 
0000013a l       .debug_str	00000000 
0000013e l       .debug_str	00000000 
00000145 l       .debug_str	00000000 
00000149 l       .debug_str	00000000 
00000156 l       .debug_str	00000000 
0000015d l       .debug_str	00000000 
00000160 l       .debug_str	00000000 
00000166 l       .debug_str	00000000 
00000174 l       .debug_str	00000000 
00000182 l       .debug_str	00000000 
00000187 l       .debug_str	00000000 
0000018f l       .debug_str	00000000 
00000197 l       .debug_str	00000000 
00000199 l       .debug_str	00000000 
0000019b l       .debug_str	00000000 
000001b7 l       .debug_str	00000000 
000001bf l       .debug_str	00000000 
000001c6 l       .debug_str	00000000 
000001d6 l       .debug_str	00000000 
0000021b l       .debug_str	00000000 
00000288 l       .debug_str	00000000 
0000031e l       .debug_str	00000000 
000003dd l       .debug_str	00000000 
000003e5 l       .debug_str	00000000 
000003ea l       .debug_str	00000000 
000003f0 l       .debug_str	00000000 
000003f4 l       .debug_str	00000000 
000003f8 l       .debug_str	00000000 
000003fb l       .debug_str	00000000 
00000424 l       .debug_str	00000000 
0000045a l       .debug_str	00000000 
0000045c l       .debug_str	00000000 
00000489 l       .debug_str	00000000 
0000048c l       .debug_str	00000000 
000004dc l       .debug_str	00000000 
00000539 l       .debug_str	00000000 
0000058d l       .debug_str	00000000 
00000604 l       .debug_str	00000000 
00000688 l       .debug_str	00000000 
00000703 l       .debug_str	00000000 
000007a1 l       .debug_str	00000000 
0000084c l       .debug_str	00000000 
000008ee l       .debug_str	00000000 
000009b3 l       .debug_str	00000000 
00000a85 l       .debug_str	00000000 
00000b4e l       .debug_str	00000000 
00000c38 l       .debug_str	00000000 
00000d3f l       .debug_str	00000000 
00000e45 l       .debug_str	00000000 
00000e49 l       .debug_str	00000000 
00000e4b l       .debug_str	00000000 
00000f49 l       .debug_str	00000000 
0000104a l       .debug_str	00000000 
0000104c l       .debug_str	00000000 
0000112c l       .debug_str	00000000 
00001226 l       .debug_str	00000000 
0000122b l       .debug_str	00000000 
00001234 l       .debug_str	00000000 
0000123b l       .debug_str	00000000 
0000123f l       .debug_str	00000000 
00001245 l       .debug_str	00000000 
0000124e l       .debug_str	00000000 
00001253 l       .debug_str	00000000 
00001257 l       .debug_str	00000000 
0000125b l       .debug_str	00000000 
0000126c l       .debug_str	00000000 
000012a4 l       .debug_str	00000000 
000012b3 l       .debug_str	00000000 
000012df l       .debug_str	00000000 
00001324 l       .debug_str	00000000 
0000135d l       .debug_str	00000000 
000013f4 l       .debug_str	00000000 
00001492 l       .debug_str	00000000 
0000154d l       .debug_str	00000000 
00001607 l       .debug_str	00000000 
000016b9 l       .debug_str	00000000 
0000174e l       .debug_str	00000000 
000017fa l       .debug_str	00000000 
00001803 l       .debug_str	00000000 
00001818 l       .debug_str	00000000 
00001821 l       .debug_str	00000000 
00001830 l       .debug_str	00000000 
00001836 l       .debug_str	00000000 
0000183b l       .debug_str	00000000 
00001844 l       .debug_str	00000000 
00002952 l       .debug_str	00000000 
0000184a l       .debug_str	00000000 
0000184c l       .debug_str	00000000 
00001856 l       .debug_str	00000000 
00001861 l       .debug_str	00000000 
00001868 l       .debug_str	00000000 
00001870 l       .debug_str	00000000 
0000187c l       .debug_str	00000000 
00001883 l       .debug_str	00000000 
0000188b l       .debug_str	00000000 
00001893 l       .debug_str	00000000 
0000189a l       .debug_str	00000000 
000018ae l       .debug_str	00000000 
000018ba l       .debug_str	00000000 
000018c6 l       .debug_str	00000000 
000018d0 l       .debug_str	00000000 
000018d9 l       .debug_str	00000000 
000018e2 l       .debug_str	00000000 
000018eb l       .debug_str	00000000 
000018f1 l       .debug_str	00000000 
000018f9 l       .debug_str	00000000 
00001905 l       .debug_str	00000000 
0000190d l       .debug_str	00000000 
0000191e l       .debug_str	00000000 
00001930 l       .debug_str	00000000 
00001939 l       .debug_str	00000000 
0000196c l       .debug_str	00000000 
000019a0 l       .debug_str	00000000 
000019ea l       .debug_str	00000000 
000019f5 l       .debug_str	00000000 
00001a01 l       .debug_str	00000000 
00001a07 l       .debug_str	00000000 
00001a0c l       .debug_str	00000000 
00001a0f l       .debug_str	00000000 
00001a12 l       .debug_str	00000000 
00001a15 l       .debug_str	00000000 
00001a18 l       .debug_str	00000000 
00001a1d l       .debug_str	00000000 
00001a29 l       .debug_str	00000000 
00001a2e l       .debug_str	00000000 
00001a35 l       .debug_str	00000000 
00001a3f l       .debug_str	00000000 
00001a4a l       .debug_str	00000000 
00001a57 l       .debug_str	00000000 
00001a65 l       .debug_str	00000000 
00001a6f l       .debug_str	00000000 
00001a7d l       .debug_str	00000000 
00001a87 l       .debug_str	00000000 
00001a9d l       .debug_str	00000000 
00001aa8 l       .debug_str	00000000 
00001ab3 l       .debug_str	00000000 
00001abb l       .debug_str	00000000 
00001abd l       .debug_str	00000000 
00001acb l       .debug_str	00000000 
00001ae5 l       .debug_str	00000000 
00001aee l       .debug_str	00000000 
00001b28 l       .debug_str	00000000 
00001b34 l       .debug_str	00000000 
00001b3d l       .debug_str	00000000 
00001b55 l       .debug_str	00000000 
00001b96 l       .debug_str	00000000 
00001ba4 l       .debug_str	00000000 
00001c11 l       .debug_str	00000000 
00001c1c l       .debug_str	00000000 
00001c8e l       .debug_str	00000000 
00001c9a l       .debug_str	00000000 
00001d0d l       .debug_str	00000000 
00001d1a l       .debug_str	00000000 
00001d24 l       .debug_str	00000000 
00001d28 l       .debug_str	00000000 
00001d2e l       .debug_str	00000000 
00001d34 l       .debug_str	00000000 
00001d3d l       .debug_str	00000000 
00001d49 l       .debug_str	00000000 
00001d4f l       .debug_str	00000000 
00001d5e l       .debug_str	00000000 
00001d60 l       .debug_str	00000000 
00001d99 l       .debug_str	00000000 
00001da6 l       .debug_str	00000000 
00001db2 l       .debug_str	00000000 
00001dc0 l       .debug_str	00000000 
00001dcb l       .debug_str	00000000 
00001dd2 l       .debug_str	00000000 
00001dd7 l       .debug_str	00000000 
00001de1 l       .debug_str	00000000 
00001dea l       .debug_str	00000000 
00001df1 l       .debug_str	00000000 
00001df8 l       .debug_str	00000000 
00001e09 l       .debug_str	00000000 
00001e48 l       .debug_str	00000000 
00001e7b l       .debug_str	00000000 
00001f06 l       .debug_str	00000000 
00001fdd l       .debug_str	00000000 
00002100 l       .debug_str	00000000 
00002177 l       .debug_str	00000000 
000021fb l       .debug_str	00000000 
00002276 l       .debug_str	00000000 
00002314 l       .debug_str	00000000 
000023bf l       .debug_str	00000000 
00002461 l       .debug_str	00000000 
00002547 l       .debug_str	00000000 
0000264a l       .debug_str	00000000 
0000274c l       .debug_str	00000000 
00002846 l       .debug_str	00000000 
00002923 l       .debug_str	00000000 
0000292d l       .debug_str	00000000 
00002933 l       .debug_str	00000000 
0000293b l       .debug_str	00000000 
00002943 l       .debug_str	00000000 
00002948 l       .debug_str	00000000 
0000294e l       .debug_str	00000000 
000029aa l       .debug_str	00000000 
00000000 l     O .rodata.cst16	00000010 .Lanon.c5350e335f263bebdae623ed821c2b2e.0
00000000 l    d  .text._ZN5druid6widget6button15Button$LT$T$GT$3new17h67bda0711e6f0540E	00000000 .text._ZN5druid6widget6button15Button$LT$T$GT$3new17h67bda0711e6f0540E
00000000 l    d  .text._ZN77_$LT$druid..widget..button..Button$LT$T$GT$$u20$as$u20$core..clone..Clone$GT$5clone17h25941da48aa3a6beE	00000000 .text._ZN77_$LT$druid..widget..button..Button$LT$T$GT$$u20$as$u20$core..clone..Clone$GT$5clone17h25941da48aa3a6beE
00000000 l    d  .text._ZN81_$LT$druid..widget..button..Button$LT$T$GT$$u20$as$u20$druid..Widget$LT$T$GT$$GT$6get_id17h75264bb995290264E	00000000 .text._ZN81_$LT$druid..widget..button..Button$LT$T$GT$$u20$as$u20$druid..Widget$LT$T$GT$$GT$6get_id17h75264bb995290264E
00000000 l    d  .text._ZN81_$LT$druid..widget..button..Button$LT$T$GT$$u20$as$u20$druid..Widget$LT$T$GT$$GT$7to_type17hb8dfd7ee280d8710E	00000000 .text._ZN81_$LT$druid..widget..button..Button$LT$T$GT$$u20$as$u20$druid..Widget$LT$T$GT$$GT$7to_type17hb8dfd7ee280d8710E
00000000 l    d  .debug_loc	00000000 .debug_loc
00000000 l    d  .debug_abbrev	00000000 .debug_abbrev
00000000 l    d  .debug_info	00000000 .debug_info
00000000 l    d  .debug_ranges	00000000 .debug_ranges
00000000 l    d  .debug_frame	00000000 .debug_frame
00000000 l    d  .debug_line	00000000 .debug_line
00000000         *UND*	00000000 _ZN4core3ptr18real_drop_in_place17h43d2527d930e489cE
00000000         *UND*	00000000 _ZN4core5clone5Clone5clone17h24e960e3b8af3f40E
00000000         *UND*	00000000 .hidden _ZN4core5clone5impls52_$LT$impl$u20$core..clone..Clone$u20$for$u20$u32$GT$5clone17h4ab28dfacb141a1cE
00000000         *UND*	00000000 _ZN5druid6widget13get_widget_id17h9c14066043a9a7f2E
00000000         *UND*	00000000 _ZN5druid6widget5label14Label$LT$T$GT$7aligned17hd95ba9e9af78d151E
00000000 g     F .text._ZN5druid6widget6button15Button$LT$T$GT$3new17h67bda0711e6f0540E	00000050 _ZN5druid6widget6button15Button$LT$T$GT$3new17h67bda0711e6f0540E
00000000         *UND*	00000000 _ZN75_$LT$druid..widget..label..Label$LT$T$GT$$u20$as$u20$core..clone..Clone$GT$5clone17hcf16d333f98f0c7bE
00000000 g     F .text._ZN77_$LT$druid..widget..button..Button$LT$T$GT$$u20$as$u20$core..clone..Clone$GT$5clone17h25941da48aa3a6beE	00000052 _ZN77_$LT$druid..widget..button..Button$LT$T$GT$$u20$as$u20$core..clone..Clone$GT$5clone17h25941da48aa3a6beE
00000000 g     F .text._ZN81_$LT$druid..widget..button..Button$LT$T$GT$$u20$as$u20$druid..Widget$LT$T$GT$$GT$6get_id17h75264bb995290264E	00000014 _ZN81_$LT$druid..widget..button..Button$LT$T$GT$$u20$as$u20$druid..Widget$LT$T$GT$$GT$6get_id17h75264bb995290264E
00000000 g     F .text._ZN81_$LT$druid..widget..button..Button$LT$T$GT$$u20$as$u20$druid..Widget$LT$T$GT$$GT$7to_type17hb8dfd7ee280d8710E	00000030 _ZN81_$LT$druid..widget..button..Button$LT$T$GT$$u20$as$u20$druid..Widget$LT$T$GT$$GT$7to_type17hb8dfd7ee280d8710E
00000000         *UND*	00000000 __aeabi_memcpy8



Disassembly of section .text._ZN5druid6widget6button15Button$LT$T$GT$3new17h67bda0711e6f0540E:

00000000 <_ZN5druid6widget6button15Button$LT$T$GT$3new17h67bda0711e6f0540E>:
_ZN5druid6widget6button15Button$LT$T$GT$3new17h67bda0711e6f0540E():
C:\druid-embedded\druid\src\widget/button.rs:44

impl<T: Data + 'static + Default> Button<T> { ////
////impl<T: Data + 'static> Button<T> {
    /// Create a new button. The closure provided will be called when the button
    /// is clicked.
    pub fn new(
   0:	b580      	push	{r7, lr}
   2:	b0a4      	sub	sp, #144	; 0x90
   4:	9103      	str	r1, [sp, #12]
   6:	9204      	str	r2, [sp, #16]
   8:	9305      	str	r3, [sp, #20]
C:\druid-embedded\druid\src\widget/button.rs:50
        text: impl Into<LabelText<T>>,
        action: fn(&mut EventCtx<T>, &mut T, &Env), ////
        ////action: impl Fn(&mut EventCtx, &mut T, &Env) + 'static,
    ) -> Button<T> {
        Button {
            id: super::get_widget_id(), ////
   a:	9002      	str	r0, [sp, #8]
   c:	f7ff fffe 	bl	0 <_ZN5druid6widget13get_widget_id17h9c14066043a9a7f2E>
  10:	9001      	str	r0, [sp, #4]
  12:	e7ff      	b.n	14 <_ZN5druid6widget6button15Button$LT$T$GT$3new17h67bda0711e6f0540E+0x14>
C:\druid-embedded\druid\src\widget/button.rs:51
            label: Label::aligned(text, UnitPoint::CENTER),
  14:	9903      	ldr	r1, [sp, #12]
  16:	9a04      	ldr	r2, [sp, #16]
  18:	f240 0000 	movw	r0, #0
  1c:	f2c0 0000 	movt	r0, #0
  20:	ed90 0b00 	vldr	d0, [r0]
  24:	ed90 1b02 	vldr	d1, [r0, #8]
  28:	a806      	add	r0, sp, #24
  2a:	f7ff fffe 	bl	0 <_ZN5druid6widget5label14Label$LT$T$GT$7aligned17hd95ba9e9af78d151E>
  2e:	e7ff      	b.n	30 <_ZN5druid6widget6button15Button$LT$T$GT$3new17h67bda0711e6f0540E+0x30>
C:\druid-embedded\druid\src\widget/button.rs:52
            action, ////
  30:	9805      	ldr	r0, [sp, #20]
C:\druid-embedded\druid\src\widget/button.rs:49
        Button {
  32:	9901      	ldr	r1, [sp, #4]
  34:	9a02      	ldr	r2, [sp, #8]
  36:	6791      	str	r1, [r2, #120]	; 0x78
  38:	a906      	add	r1, sp, #24
  3a:	2278      	movs	r2, #120	; 0x78
  3c:	9b02      	ldr	r3, [sp, #8]
  3e:	9000      	str	r0, [sp, #0]
  40:	4618      	mov	r0, r3
  42:	f7ff fffe 	bl	0 <__aeabi_memcpy8>
  46:	9800      	ldr	r0, [sp, #0]
  48:	9902      	ldr	r1, [sp, #8]
  4a:	67c8      	str	r0, [r1, #124]	; 0x7c
C:\druid-embedded\druid\src\widget/button.rs:55
            ////action: Box::new(action),
        }
    }
  4c:	b024      	add	sp, #144	; 0x90
  4e:	bd80      	pop	{r7, pc}

Disassembly of section .text._ZN77_$LT$druid..widget..button..Button$LT$T$GT$$u20$as$u20$core..clone..Clone$GT$5clone17h25941da48aa3a6beE:

00000000 <_ZN77_$LT$druid..widget..button..Button$LT$T$GT$$u20$as$u20$core..clone..Clone$GT$5clone17h25941da48aa3a6beE>:
_ZN77_$LT$druid..widget..button..Button$LT$T$GT$$u20$as$u20$core..clone..Clone$GT$5clone17h25941da48aa3a6beE():
C:\druid-embedded\druid\src\widget/button.rs:30
#[derive(Clone)] ////
   0:	b580      	push	{r7, lr}
   2:	b0a6      	sub	sp, #152	; 0x98
   4:	9104      	str	r1, [sp, #16]
C:\druid-embedded\druid\src\widget/button.rs:33
    id: u32, //// Unique Widget ID
   6:	9904      	ldr	r1, [sp, #16]
   8:	3178      	adds	r1, #120	; 0x78
   a:	9105      	str	r1, [sp, #20]
C:\druid-embedded\druid\src\widget/button.rs:34
    label: Label<T>,
   c:	9904      	ldr	r1, [sp, #16]
   e:	9106      	str	r1, [sp, #24]
C:\druid-embedded\druid\src\widget/button.rs:36
    action: fn(&mut EventCtx<T>, &mut T, &Env), ////
  10:	9904      	ldr	r1, [sp, #16]
  12:	317c      	adds	r1, #124	; 0x7c
  14:	9107      	str	r1, [sp, #28]
C:\druid-embedded\druid\src\widget/button.rs:33
    id: u32, //// Unique Widget ID
  16:	9905      	ldr	r1, [sp, #20]
  18:	9003      	str	r0, [sp, #12]
  1a:	4608      	mov	r0, r1
  1c:	f7ff fffe 	bl	0 <_ZN4core5clone5impls52_$LT$impl$u20$core..clone..Clone$u20$for$u20$u32$GT$5clone17h4ab28dfacb141a1cE>
  20:	9002      	str	r0, [sp, #8]
  22:	e7ff      	b.n	24 <_ZN77_$LT$druid..widget..button..Button$LT$T$GT$$u20$as$u20$core..clone..Clone$GT$5clone17h25941da48aa3a6beE+0x24>
C:\druid-embedded\druid\src\widget/button.rs:34
    label: Label<T>,
  24:	9906      	ldr	r1, [sp, #24]
  26:	a808      	add	r0, sp, #32
  28:	f7ff fffe 	bl	0 <_ZN75_$LT$druid..widget..label..Label$LT$T$GT$$u20$as$u20$core..clone..Clone$GT$5clone17hcf16d333f98f0c7bE>
  2c:	e7ff      	b.n	2e <_ZN77_$LT$druid..widget..button..Button$LT$T$GT$$u20$as$u20$core..clone..Clone$GT$5clone17h25941da48aa3a6beE+0x2e>
C:\druid-embedded\druid\src\widget/button.rs:36
    action: fn(&mut EventCtx<T>, &mut T, &Env), ////
  2e:	9807      	ldr	r0, [sp, #28]
  30:	f7ff fffe 	bl	0 <_ZN4core5clone5Clone5clone17h24e960e3b8af3f40E>
  34:	9001      	str	r0, [sp, #4]
  36:	e7ff      	b.n	38 <_ZN77_$LT$druid..widget..button..Button$LT$T$GT$$u20$as$u20$core..clone..Clone$GT$5clone17h25941da48aa3a6beE+0x38>
C:\druid-embedded\druid\src\widget/button.rs:30
#[derive(Clone)] ////
  38:	9802      	ldr	r0, [sp, #8]
  3a:	9903      	ldr	r1, [sp, #12]
  3c:	6788      	str	r0, [r1, #120]	; 0x78
  3e:	a908      	add	r1, sp, #32
  40:	2278      	movs	r2, #120	; 0x78
  42:	9803      	ldr	r0, [sp, #12]
  44:	f7ff fffe 	bl	0 <__aeabi_memcpy8>
  48:	9801      	ldr	r0, [sp, #4]
  4a:	9903      	ldr	r1, [sp, #12]
  4c:	67c8      	str	r0, [r1, #124]	; 0x7c
  4e:	b026      	add	sp, #152	; 0x98
  50:	bd80      	pop	{r7, pc}

Disassembly of section .text._ZN81_$LT$druid..widget..button..Button$LT$T$GT$$u20$as$u20$druid..Widget$LT$T$GT$$GT$6get_id17h75264bb995290264E:

00000000 <_ZN81_$LT$druid..widget..button..Button$LT$T$GT$$u20$as$u20$druid..Widget$LT$T$GT$$GT$6get_id17h75264bb995290264E>:
_ZN81_$LT$druid..widget..button..Button$LT$T$GT$$u20$as$u20$druid..Widget$LT$T$GT$$GT$6get_id17h75264bb995290264E():
C:\druid-embedded\druid\src\widget/button.rs:183

    fn new_window(self) -> WindowBox<T> { ////
        WindowBox::new()
    }

    fn get_id(self) -> u32 { ////
   0:	b580      	push	{r7, lr}
   2:	b082      	sub	sp, #8
C:\druid-embedded\druid\src\widget/button.rs:184
        self.id
   4:	6f81      	ldr	r1, [r0, #120]	; 0x78
C:\druid-embedded\druid\src\widget/button.rs:185
    }
   6:	9101      	str	r1, [sp, #4]
   8:	f7ff fffe 	bl	0 <_ZN4core3ptr18real_drop_in_place17h43d2527d930e489cE>
   c:	e7ff      	b.n	e <_ZN81_$LT$druid..widget..button..Button$LT$T$GT$$u20$as$u20$druid..Widget$LT$T$GT$$GT$6get_id17h75264bb995290264E+0xe>
   e:	9801      	ldr	r0, [sp, #4]
  10:	b002      	add	sp, #8
  12:	bd80      	pop	{r7, pc}

Disassembly of section .text._ZN81_$LT$druid..widget..button..Button$LT$T$GT$$u20$as$u20$druid..Widget$LT$T$GT$$GT$7to_type17hb8dfd7ee280d8710E:

00000000 <_ZN81_$LT$druid..widget..button..Button$LT$T$GT$$u20$as$u20$druid..Widget$LT$T$GT$$GT$7to_type17hb8dfd7ee280d8710E>:
_ZN81_$LT$druid..widget..button..Button$LT$T$GT$$u20$as$u20$druid..Widget$LT$T$GT$$GT$7to_type17hb8dfd7ee280d8710E():
C:\druid-embedded\druid\src\widget/button.rs:175
    fn to_type(self) -> WidgetType<T> { ////
   0:	b580      	push	{r7, lr}
   2:	b0a4      	sub	sp, #144	; 0x90
   4:	aa04      	add	r2, sp, #16
   6:	2380      	movs	r3, #128	; 0x80
C:\druid-embedded\druid\src\widget/button.rs:176
        WidgetType::Button(self)
   8:	9003      	str	r0, [sp, #12]
   a:	4610      	mov	r0, r2
   c:	9202      	str	r2, [sp, #8]
   e:	461a      	mov	r2, r3
  10:	9301      	str	r3, [sp, #4]
  12:	f7ff fffe 	bl	0 <__aeabi_memcpy8>
  16:	9803      	ldr	r0, [sp, #12]
  18:	3008      	adds	r0, #8
  1a:	9902      	ldr	r1, [sp, #8]
  1c:	9a01      	ldr	r2, [sp, #4]
  1e:	f7ff fffe 	bl	0 <__aeabi_memcpy8>
  22:	2000      	movs	r0, #0
  24:	9903      	ldr	r1, [sp, #12]
  26:	6048      	str	r0, [r1, #4]
  28:	2002      	movs	r0, #2
  2a:	6008      	str	r0, [r1, #0]
C:\druid-embedded\druid\src\widget/button.rs:177
    }
  2c:	b024      	add	sp, #144	; 0x90
  2e:	bd80      	pop	{r7, pc}

app-20d859f505b9d0c6.1b98kkshwcc04tut.rcgu.o:     file format elf32-littlearm

SYMBOL TABLE:
00000000 l    df *ABS*	00000000 1b98kkshwcc04tut
000000f1 l       .debug_str	00000000 
00000103 l       .debug_str	00000000 
00000000 l       .debug_str	00000000 
00000041 l       .debug_str	00000000 
00000055 l       .debug_str	00000000 
00000074 l       .debug_str	00000000 
00000079 l       .debug_str	00000000 
00000082 l       .debug_str	00000000 
0000008b l       .debug_str	00000000 
000000eb l       .debug_str	00000000 
000000f9 l       .debug_str	00000000 
000000f3 l       .debug_str	00000000 
000000f7 l       .debug_str	00000000 
00000108 l       .debug_str	00000000 
00000000 l    d  .text._ZN64_$LT$piet..gradient..UnitPoint$u20$as$u20$core..clone..Clone$GT$5clone17h850cb2a7b0f5ab97E	00000000 .text._ZN64_$LT$piet..gradient..UnitPoint$u20$as$u20$core..clone..Clone$GT$5clone17h850cb2a7b0f5ab97E
00000000 l    d  .debug_abbrev	00000000 .debug_abbrev
00000000 l    d  .debug_info	00000000 .debug_info
00000000 l    d  .debug_frame	00000000 .debug_frame
00000000 l    d  .debug_line	00000000 .debug_line
00000000 g     F .text._ZN64_$LT$piet..gradient..UnitPoint$u20$as$u20$core..clone..Clone$GT$5clone17h850cb2a7b0f5ab97E	00000012 .hidden _ZN64_$LT$piet..gradient..UnitPoint$u20$as$u20$core..clone..Clone$GT$5clone17h850cb2a7b0f5ab97E



Disassembly of section .text._ZN64_$LT$piet..gradient..UnitPoint$u20$as$u20$core..clone..Clone$GT$5clone17h850cb2a7b0f5ab97E:

00000000 <_ZN64_$LT$piet..gradient..UnitPoint$u20$as$u20$core..clone..Clone$GT$5clone17h850cb2a7b0f5ab97E>:
_ZN64_$LT$piet..gradient..UnitPoint$u20$as$u20$core..clone..Clone$GT$5clone17h850cb2a7b0f5ab97E():
C:\piet-embedded\piet\src/gradient.rs:188
    /// values on the other axis may extend outside the target rectangle.
    Fill,
}

/// A representation of a point relative to a unit rectangle.
#[derive(Debug, Clone, Copy)]
   0:	b081      	sub	sp, #4
   2:	9000      	str	r0, [sp, #0]
   4:	9800      	ldr	r0, [sp, #0]
   6:	ed90 0b00 	vldr	d0, [r0]
   a:	ed90 1b02 	vldr	d1, [r0, #8]
   e:	b001      	add	sp, #4
  10:	4770      	bx	lr

app-20d859f505b9d0c6.1ed7rosnndxp10vg.rcgu.o:     file format elf32-littlearm

SYMBOL TABLE:
00000000 l    df *ABS*	00000000 1ed7rosnndxp10vg
00000fa7 l       .debug_str	00000000 
00002a5a l       .debug_str	00000000 
00002a8b l       .debug_str	00000000 
00002a4f l       .debug_str	00000000 
00002a80 l       .debug_str	00000000 
00002a44 l       .debug_str	00000000 
00002a75 l       .debug_str	00000000 
00002a1e l       .debug_str	00000000 
00002a6a l       .debug_str	00000000 
00002a19 l       .debug_str	00000000 
00000000 l       .debug_str	00000000 
00000041 l       .debug_str	00000000 
00000055 l       .debug_str	00000000 
00000074 l       .debug_str	00000000 
00000079 l       .debug_str	00000000 
00000080 l       .debug_str	00000000 
00000083 l       .debug_str	00000000 
00000088 l       .debug_str	00000000 
0000008d l       .debug_str	00000000 
00000094 l       .debug_str	00000000 
0000009a l       .debug_str	00000000 
000000a1 l       .debug_str	00000000 
000000a6 l       .debug_str	00000000 
000000b1 l       .debug_str	00000000 
000000ba l       .debug_str	00000000 
000000bf l       .debug_str	00000000 
000000c7 l       .debug_str	00000000 
000000ca l       .debug_str	00000000 
000000ce l       .debug_str	00000000 
000000d3 l       .debug_str	00000000 
000000d7 l       .debug_str	00000000 
000000dd l       .debug_str	00000000 
000000e1 l       .debug_str	00000000 
000000e8 l       .debug_str	00000000 
000000ee l       .debug_str	00000000 
000000f4 l       .debug_str	00000000 
00000100 l       .debug_str	00000000 
00000106 l       .debug_str	00000000 
0000010b l       .debug_str	00000000 
0000010e l       .debug_str	00000000 
00000111 l       .debug_str	00000000 
00000114 l       .debug_str	00000000 
00000117 l       .debug_str	00000000 
0000011c l       .debug_str	00000000 
00000128 l       .debug_str	00000000 
0000012d l       .debug_str	00000000 
00000134 l       .debug_str	00000000 
0000013e l       .debug_str	00000000 
00000149 l       .debug_str	00000000 
00000156 l       .debug_str	00000000 
00000164 l       .debug_str	00000000 
0000016e l       .debug_str	00000000 
0000017c l       .debug_str	00000000 
00000186 l       .debug_str	00000000 
0000018f l       .debug_str	00000000 
00000191 l       .debug_str	00000000 
00000195 l       .debug_str	00000000 
000001a1 l       .debug_str	00000000 
000001a5 l       .debug_str	00000000 
000001ab l       .debug_str	00000000 
000001b5 l       .debug_str	00000000 
000001b9 l       .debug_str	00000000 
000001c0 l       .debug_str	00000000 
000001d1 l       .debug_str	00000000 
000001d3 l       .debug_str	00000000 
000001e2 l       .debug_str	00000000 
000001e4 l       .debug_str	00000000 
0000021d l       .debug_str	00000000 
0000022a l       .debug_str	00000000 
00000233 l       .debug_str	00000000 
0000023a l       .debug_str	00000000 
00000240 l       .debug_str	00000000 
00000245 l       .debug_str	00000000 
0000024f l       .debug_str	00000000 
0000025c l       .debug_str	00000000 
00000260 l       .debug_str	00000000 
00000269 l       .debug_str	00000000 
00000273 l       .debug_str	00000000 
0000027a l       .debug_str	00000000 
00000280 l       .debug_str	00000000 
00000285 l       .debug_str	00000000 
00000291 l       .debug_str	00000000 
0000029a l       .debug_str	00000000 
000002a1 l       .debug_str	00000000 
000002a3 l       .debug_str	00000000 
000002a7 l       .debug_str	00000000 
000002ae l       .debug_str	00000000 
000002b2 l       .debug_str	00000000 
000002bf l       .debug_str	00000000 
000002c6 l       .debug_str	00000000 
000002c9 l       .debug_str	00000000 
000002cf l       .debug_str	00000000 
000002dd l       .debug_str	00000000 
000002eb l       .debug_str	00000000 
000002f0 l       .debug_str	00000000 
000002f8 l       .debug_str	00000000 
00000300 l       .debug_str	00000000 
00000302 l       .debug_str	00000000 
0000031e l       .debug_str	00000000 
00000326 l       .debug_str	00000000 
00000336 l       .debug_str	00000000 
0000037b l       .debug_str	00000000 
000003e8 l       .debug_str	00000000 
0000047e l       .debug_str	00000000 
0000053d l       .debug_str	00000000 
00000545 l       .debug_str	00000000 
0000054a l       .debug_str	00000000 
00000550 l       .debug_str	00000000 
00000554 l       .debug_str	00000000 
00000557 l       .debug_str	00000000 
00000580 l       .debug_str	00000000 
000005b6 l       .debug_str	00000000 
000005b8 l       .debug_str	00000000 
000005e5 l       .debug_str	00000000 
000005e8 l       .debug_str	00000000 
00000638 l       .debug_str	00000000 
00000695 l       .debug_str	00000000 
000006e9 l       .debug_str	00000000 
00000760 l       .debug_str	00000000 
000007e4 l       .debug_str	00000000 
0000085f l       .debug_str	00000000 
000008fd l       .debug_str	00000000 
000009a8 l       .debug_str	00000000 
00000a4a l       .debug_str	00000000 
00000b0f l       .debug_str	00000000 
00000be1 l       .debug_str	00000000 
00000caa l       .debug_str	00000000 
00000d94 l       .debug_str	00000000 
00000e9b l       .debug_str	00000000 
00000fa1 l       .debug_str	00000000 
00000fa5 l       .debug_str	00000000 
00002a12 l       .debug_str	00000000 
000010a5 l       .debug_str	00000000 
000011a6 l       .debug_str	00000000 
000011a8 l       .debug_str	00000000 
00001288 l       .debug_str	00000000 
00001382 l       .debug_str	00000000 
00001387 l       .debug_str	00000000 
00001390 l       .debug_str	00000000 
00001397 l       .debug_str	00000000 
0000139b l       .debug_str	00000000 
000013a1 l       .debug_str	00000000 
000013aa l       .debug_str	00000000 
000013af l       .debug_str	00000000 
000013b3 l       .debug_str	00000000 
000013c4 l       .debug_str	00000000 
000013fc l       .debug_str	00000000 
0000140b l       .debug_str	00000000 
00001437 l       .debug_str	00000000 
0000147c l       .debug_str	00000000 
000014b5 l       .debug_str	00000000 
0000154c l       .debug_str	00000000 
000015ea l       .debug_str	00000000 
000016a5 l       .debug_str	00000000 
0000175f l       .debug_str	00000000 
00001811 l       .debug_str	00000000 
000018a6 l       .debug_str	00000000 
00001952 l       .debug_str	00000000 
0000195b l       .debug_str	00000000 
00001970 l       .debug_str	00000000 
00001979 l       .debug_str	00000000 
00001988 l       .debug_str	00000000 
0000198e l       .debug_str	00000000 
00001993 l       .debug_str	00000000 
0000199c l       .debug_str	00000000 
0000199e l       .debug_str	00000000 
000019a0 l       .debug_str	00000000 
000019aa l       .debug_str	00000000 
000019b5 l       .debug_str	00000000 
000019bc l       .debug_str	00000000 
000019c4 l       .debug_str	00000000 
000019d0 l       .debug_str	00000000 
000019d7 l       .debug_str	00000000 
000019df l       .debug_str	00000000 
000019e7 l       .debug_str	00000000 
000019ee l       .debug_str	00000000 
00001a02 l       .debug_str	00000000 
00001a0e l       .debug_str	00000000 
00001a1a l       .debug_str	00000000 
00001a24 l       .debug_str	00000000 
00001a2d l       .debug_str	00000000 
00001a36 l       .debug_str	00000000 
00001a3f l       .debug_str	00000000 
00001a47 l       .debug_str	00000000 
00001a53 l       .debug_str	00000000 
00001a5b l       .debug_str	00000000 
00001a6d l       .debug_str	00000000 
00001a76 l       .debug_str	00000000 
00001aa9 l       .debug_str	00000000 
00001add l       .debug_str	00000000 
00001b27 l       .debug_str	00000000 
00001b32 l       .debug_str	00000000 
00001b48 l       .debug_str	00000000 
00001b53 l       .debug_str	00000000 
00001b5e l       .debug_str	00000000 
00001b66 l       .debug_str	00000000 
00001b74 l       .debug_str	00000000 
00001b8e l       .debug_str	00000000 
00001b97 l       .debug_str	00000000 
00001bd1 l       .debug_str	00000000 
00001bdd l       .debug_str	00000000 
00001bef l       .debug_str	00000000 
00001c32 l       .debug_str	00000000 
00001c62 l       .debug_str	00000000 
00001ca5 l       .debug_str	00000000 
00001cd3 l       .debug_str	00000000 
00001d42 l       .debug_str	00000000 
00001d4d l       .debug_str	00000000 
00001dc1 l       .debug_str	00000000 
00001dcd l       .debug_str	00000000 
00001e42 l       .debug_str	00000000 
00001e4f l       .debug_str	00000000 
00001e53 l       .debug_str	00000000 
00001e59 l       .debug_str	00000000 
00001e66 l       .debug_str	00000000 
00001e72 l       .debug_str	00000000 
00001e80 l       .debug_str	00000000 
00001e8b l       .debug_str	00000000 
00001e92 l       .debug_str	00000000 
00001e97 l       .debug_str	00000000 
00001ea1 l       .debug_str	00000000 
00001eaa l       .debug_str	00000000 
00001eb1 l       .debug_str	00000000 
00001eb8 l       .debug_str	00000000 
00001ec9 l       .debug_str	00000000 
00001f08 l       .debug_str	00000000 
00001f3b l       .debug_str	00000000 
00001fc6 l       .debug_str	00000000 
0000209d l       .debug_str	00000000 
000021c0 l       .debug_str	00000000 
00002237 l       .debug_str	00000000 
000022bb l       .debug_str	00000000 
00002336 l       .debug_str	00000000 
000023d4 l       .debug_str	00000000 
0000247f l       .debug_str	00000000 
00002521 l       .debug_str	00000000 
00002607 l       .debug_str	00000000 
0000270a l       .debug_str	00000000 
0000280c l       .debug_str	00000000 
00002906 l       .debug_str	00000000 
000029e3 l       .debug_str	00000000 
000029ed l       .debug_str	00000000 
000029f3 l       .debug_str	00000000 
000029fb l       .debug_str	00000000 
00002a0b l       .debug_str	00000000 
00002a5f l       .debug_str	00000000 
00000000 l    d  .text._ZN5druid6widget7padding16Padding$LT$T$GT$3new17h787e8889b090bc7dE	00000000 .text._ZN5druid6widget7padding16Padding$LT$T$GT$3new17h787e8889b090bc7dE
00000000 l    d  .text._ZN5druid6widget7padding16Padding$LT$T$GT$3new17hbc501ec179081349E	00000000 .text._ZN5druid6widget7padding16Padding$LT$T$GT$3new17hbc501ec179081349E
00000000 l    d  .text._ZN79_$LT$druid..widget..padding..Padding$LT$T$GT$$u20$as$u20$core..clone..Clone$GT$5clone17h21cf3974cea63007E	00000000 .text._ZN79_$LT$druid..widget..padding..Padding$LT$T$GT$$u20$as$u20$core..clone..Clone$GT$5clone17h21cf3974cea63007E
00000000 l    d  .text._ZN83_$LT$druid..widget..padding..Padding$LT$T$GT$$u20$as$u20$druid..Widget$LT$T$GT$$GT$6get_id17hf873a4f520c643beE	00000000 .text._ZN83_$LT$druid..widget..padding..Padding$LT$T$GT$$u20$as$u20$druid..Widget$LT$T$GT$$GT$6get_id17hf873a4f520c643beE
00000000 l    d  .text._ZN83_$LT$druid..widget..padding..Padding$LT$T$GT$$u20$as$u20$druid..Widget$LT$T$GT$$GT$7to_type17h067fbcd879923887E	00000000 .text._ZN83_$LT$druid..widget..padding..Padding$LT$T$GT$$u20$as$u20$druid..Widget$LT$T$GT$$GT$7to_type17h067fbcd879923887E
00000000 l    d  .debug_loc	00000000 .debug_loc
00000000 l    d  .debug_abbrev	00000000 .debug_abbrev
00000000 l    d  .debug_info	00000000 .debug_info
00000000 l    d  .debug_ranges	00000000 .debug_ranges
00000000 l    d  .debug_frame	00000000 .debug_frame
00000000 l    d  .debug_line	00000000 .debug_line
00000000         *UND*	00000000 .hidden _ZN4core5clone5impls52_$LT$impl$u20$core..clone..Clone$u20$for$u20$f64$GT$5clone17he4621b811c931d8dE
00000000         *UND*	00000000 .hidden _ZN4core5clone5impls52_$LT$impl$u20$core..clone..Clone$u20$for$u20$u32$GT$5clone17h4ab28dfacb141a1cE
00000000         *UND*	00000000 _ZN50_$LT$T$u20$as$u20$core..convert..Into$LT$U$GT$$GT$4into17h835420f3e4ae39bfE
00000000         *UND*	00000000 _ZN5druid22WidgetPod$LT$T$C$W$GT$3new17h2ac355bd34c07ccaE
00000000         *UND*	00000000 _ZN5druid6widget13get_widget_id17h9c14066043a9a7f2E
00000000 g     F .text._ZN5druid6widget7padding16Padding$LT$T$GT$3new17h787e8889b090bc7dE	000000aa _ZN5druid6widget7padding16Padding$LT$T$GT$3new17h787e8889b090bc7dE
00000000 g     F .text._ZN5druid6widget7padding16Padding$LT$T$GT$3new17hbc501ec179081349E	000000aa _ZN5druid6widget7padding16Padding$LT$T$GT$3new17hbc501ec179081349E
00000000         *UND*	00000000 _ZN5druid6widget9widgetbox18WidgetBox$LT$D$GT$3new17h44448a8683fd4017E
00000000         *UND*	00000000 _ZN5druid6widget9widgetbox18WidgetBox$LT$D$GT$3new17h6638e13dd42862d3E
00000000         *UND*	00000000 _ZN68_$LT$druid..WidgetPod$LT$T$C$W$GT$$u20$as$u20$core..clone..Clone$GT$5clone17hf0eedee77df69b8fE
00000000 g     F .text._ZN79_$LT$druid..widget..padding..Padding$LT$T$GT$$u20$as$u20$core..clone..Clone$GT$5clone17h21cf3974cea63007E	000000b8 _ZN79_$LT$druid..widget..padding..Padding$LT$T$GT$$u20$as$u20$core..clone..Clone$GT$5clone17h21cf3974cea63007E
00000000 g     F .text._ZN83_$LT$druid..widget..padding..Padding$LT$T$GT$$u20$as$u20$druid..Widget$LT$T$GT$$GT$6get_id17hf873a4f520c643beE	0000000e _ZN83_$LT$druid..widget..padding..Padding$LT$T$GT$$u20$as$u20$druid..Widget$LT$T$GT$$GT$6get_id17hf873a4f520c643beE
00000000 g     F .text._ZN83_$LT$druid..widget..padding..Padding$LT$T$GT$$u20$as$u20$druid..Widget$LT$T$GT$$GT$7to_type17h067fbcd879923887E	00000030 _ZN83_$LT$druid..widget..padding..Padding$LT$T$GT$$u20$as$u20$druid..Widget$LT$T$GT$$GT$7to_type17h067fbcd879923887E
00000000         *UND*	00000000 __aeabi_memcpy8



Disassembly of section .text._ZN5druid6widget7padding16Padding$LT$T$GT$3new17h787e8889b090bc7dE:

00000000 <_ZN5druid6widget7padding16Padding$LT$T$GT$3new17h787e8889b090bc7dE>:
_ZN5druid6widget7padding16Padding$LT$T$GT$3new17h787e8889b090bc7dE():
C:\druid-embedded\druid\src\widget/padding.rs:85
    /// // equivalent:
    /// let _: Padding<()> = Padding::new(Insets::uniform_xy(10.0, 20.0), Label::new("ditto :)"));
    /// ```
    ///
    /// [`kurbo::Insets`]: https://docs.rs/kurbo/0.5.3/kurbo/struct.Insets.html
    pub fn new<W: Widget<T> + Clone>(insets: impl Into<Insets>, child: W) -> Padding<T> { ////
   0:	b570      	push	{r4, r5, r6, lr}
   2:	b0c6      	sub	sp, #280	; 0x118
   4:	ed8d 0b0e 	vstr	d0, [sp, #56]	; 0x38
C:\druid-embedded\druid\src\widget/padding.rs:87
    ////pub fn new(insets: impl Into<Insets>, child: impl Widget<T> + 'static) -> Padding<T> {
        let insets = insets.into();
   8:	ed9d 0b0e 	vldr	d0, [sp, #56]	; 0x38
   c:	aa10      	add	r2, sp, #64	; 0x40
   e:	900d      	str	r0, [sp, #52]	; 0x34
  10:	4610      	mov	r0, r2
  12:	910c      	str	r1, [sp, #48]	; 0x30
  14:	f7ff fffe 	bl	0 <_ZN50_$LT$T$u20$as$u20$core..convert..Into$LT$U$GT$$GT$4into17h835420f3e4ae39bfE>
  18:	e7ff      	b.n	2 <_ZN5druid6widget13get_widget_id17h9c14066043a9a7f2E+0x2>
C:\druid-embedded\druid\src\widget/padding.rs:89
        Padding {
            id: super::get_widget_id(), ////
  1a:	f7ff fffe 	bl	0 <_ZN5druid6widget13get_widget_id17h9c14066043a9a7f2E>
  1e:	900b      	str	r0, [sp, #44]	; 0x2c
  20:	e7ff      	b.n	22 <_ZN5druid6widget7padding16Padding$LT$T$GT$3new17h787e8889b090bc7dE+0x22>
C:\druid-embedded\druid\src\widget/padding.rs:90
            left: insets.x0,
  22:	ed9d 0b10 	vldr	d0, [sp, #64]	; 0x40
C:\druid-embedded\druid\src\widget/padding.rs:92
            right: insets.x1,
            top: insets.y0,
  26:	ed9d 1b12 	vldr	d1, [sp, #72]	; 0x48
C:\druid-embedded\druid\src\widget/padding.rs:91
            right: insets.x1,
  2a:	ed9d 2b14 	vldr	d2, [sp, #80]	; 0x50
C:\druid-embedded\druid\src\widget/padding.rs:93
            bottom: insets.y1,
  2e:	ed9d 3b16 	vldr	d3, [sp, #88]	; 0x58
  32:	a826      	add	r0, sp, #152	; 0x98
  34:	2280      	movs	r2, #128	; 0x80
C:\druid-embedded\druid\src\widget/padding.rs:95
            child: WidgetPod::new( ////
                WidgetBox::<T>::new(child)
  36:	900a      	str	r0, [sp, #40]	; 0x28
  38:	990c      	ldr	r1, [sp, #48]	; 0x30
  3a:	ed8d 0b08 	vstr	d0, [sp, #32]
  3e:	ed8d 1b06 	vstr	d1, [sp, #24]
  42:	ed8d 2b04 	vstr	d2, [sp, #16]
  46:	ed8d 3b02 	vstr	d3, [sp, #8]
  4a:	f7ff fffe 	bl	0 <__aeabi_memcpy8>
  4e:	980a      	ldr	r0, [sp, #40]	; 0x28
  50:	f7ff fffe 	bl	0 <_ZN5druid6widget9widgetbox18WidgetBox$LT$D$GT$3new17h6638e13dd42862d3E>
  54:	9001      	str	r0, [sp, #4]
  56:	e7ff      	b.n	58 <_ZN5druid6widget7padding16Padding$LT$T$GT$3new17h787e8889b090bc7dE+0x58>
  58:	a818      	add	r0, sp, #96	; 0x60
C:\druid-embedded\druid\src\widget/padding.rs:94
            child: WidgetPod::new( ////
  5a:	9901      	ldr	r1, [sp, #4]
  5c:	f7ff fffe 	bl	0 <_ZN5druid22WidgetPod$LT$T$C$W$GT$3new17h2ac355bd34c07ccaE>
  60:	e7ff      	b.n	62 <_ZN5druid6widget7padding16Padding$LT$T$GT$3new17h787e8889b090bc7dE+0x62>
C:\druid-embedded\druid\src\widget/padding.rs:88
        Padding {
  62:	980b      	ldr	r0, [sp, #44]	; 0x2c
  64:	990d      	ldr	r1, [sp, #52]	; 0x34
  66:	6588      	str	r0, [r1, #88]	; 0x58
  68:	ed9d 0b08 	vldr	d0, [sp, #32]
  6c:	ed81 0b00 	vstr	d0, [r1]
  70:	ed9d 1b04 	vldr	d1, [sp, #16]
  74:	ed81 1b02 	vstr	d1, [r1, #8]
  78:	ed9d 2b06 	vldr	d2, [sp, #24]
  7c:	ed81 2b04 	vstr	d2, [r1, #16]
  80:	ed9d 3b02 	vldr	d3, [sp, #8]
  84:	ed81 3b06 	vstr	d3, [r1, #24]
  88:	f101 0220 	add.w	r2, r1, #32
  8c:	ab18      	add	r3, sp, #96	; 0x60
  8e:	e8b3 5030 	ldmia.w	r3!, {r4, r5, ip, lr}
  92:	e8a2 5030 	stmia.w	r2!, {r4, r5, ip, lr}
  96:	e8b3 5070 	ldmia.w	r3!, {r4, r5, r6, ip, lr}
  9a:	e8a2 5070 	stmia.w	r2!, {r4, r5, r6, ip, lr}
  9e:	e893 5070 	ldmia.w	r3, {r4, r5, r6, ip, lr}
  a2:	e882 5070 	stmia.w	r2, {r4, r5, r6, ip, lr}
C:\druid-embedded\druid\src\widget/padding.rs:99
            ),
            ////child: WidgetPod::new(child).boxed(),
        }
    }
  a6:	b046      	add	sp, #280	; 0x118
  a8:	bd70      	pop	{r4, r5, r6, pc}

Disassembly of section .text._ZN5druid6widget7padding16Padding$LT$T$GT$3new17hbc501ec179081349E:

00000000 <_ZN5druid6widget7padding16Padding$LT$T$GT$3new17hbc501ec179081349E>:
_ZN5druid6widget7padding16Padding$LT$T$GT$3new17hbc501ec179081349E():
C:\druid-embedded\druid\src\widget/padding.rs:85
    pub fn new<W: Widget<T> + Clone>(insets: impl Into<Insets>, child: W) -> Padding<T> { ////
   0:	b570      	push	{r4, r5, r6, lr}
   2:	b0c4      	sub	sp, #272	; 0x110
   4:	ed8d 0b0e 	vstr	d0, [sp, #56]	; 0x38
C:\druid-embedded\druid\src\widget/padding.rs:87
        let insets = insets.into();
   8:	ed9d 0b0e 	vldr	d0, [sp, #56]	; 0x38
   c:	aa10      	add	r2, sp, #64	; 0x40
   e:	900d      	str	r0, [sp, #52]	; 0x34
  10:	4610      	mov	r0, r2
  12:	910c      	str	r1, [sp, #48]	; 0x30
  14:	f7ff fffe 	bl	0 <_ZN50_$LT$T$u20$as$u20$core..convert..Into$LT$U$GT$$GT$4into17h835420f3e4ae39bfE>
  18:	e7ff      	b.n	2 <_ZN5druid6widget13get_widget_id17h9c14066043a9a7f2E+0x2>
C:\druid-embedded\druid\src\widget/padding.rs:89
            id: super::get_widget_id(), ////
  1a:	f7ff fffe 	bl	0 <_ZN5druid6widget13get_widget_id17h9c14066043a9a7f2E>
  1e:	900b      	str	r0, [sp, #44]	; 0x2c
  20:	e7ff      	b.n	22 <_ZN5druid6widget7padding16Padding$LT$T$GT$3new17hbc501ec179081349E+0x22>
C:\druid-embedded\druid\src\widget/padding.rs:90
            left: insets.x0,
  22:	ed9d 0b10 	vldr	d0, [sp, #64]	; 0x40
C:\druid-embedded\druid\src\widget/padding.rs:92
            top: insets.y0,
  26:	ed9d 1b12 	vldr	d1, [sp, #72]	; 0x48
C:\druid-embedded\druid\src\widget/padding.rs:91
            right: insets.x1,
  2a:	ed9d 2b14 	vldr	d2, [sp, #80]	; 0x50
C:\druid-embedded\druid\src\widget/padding.rs:93
            bottom: insets.y1,
  2e:	ed9d 3b16 	vldr	d3, [sp, #88]	; 0x58
  32:	a826      	add	r0, sp, #152	; 0x98
  34:	2278      	movs	r2, #120	; 0x78
C:\druid-embedded\druid\src\widget/padding.rs:95
                WidgetBox::<T>::new(child)
  36:	900a      	str	r0, [sp, #40]	; 0x28
  38:	990c      	ldr	r1, [sp, #48]	; 0x30
  3a:	ed8d 0b08 	vstr	d0, [sp, #32]
  3e:	ed8d 1b06 	vstr	d1, [sp, #24]
  42:	ed8d 2b04 	vstr	d2, [sp, #16]
  46:	ed8d 3b02 	vstr	d3, [sp, #8]
  4a:	f7ff fffe 	bl	0 <__aeabi_memcpy8>
  4e:	980a      	ldr	r0, [sp, #40]	; 0x28
  50:	f7ff fffe 	bl	0 <_ZN5druid6widget9widgetbox18WidgetBox$LT$D$GT$3new17h44448a8683fd4017E>
  54:	9001      	str	r0, [sp, #4]
  56:	e7ff      	b.n	58 <_ZN5druid6widget7padding16Padding$LT$T$GT$3new17hbc501ec179081349E+0x58>
  58:	a818      	add	r0, sp, #96	; 0x60
C:\druid-embedded\druid\src\widget/padding.rs:94
            child: WidgetPod::new( ////
  5a:	9901      	ldr	r1, [sp, #4]
  5c:	f7ff fffe 	bl	0 <_ZN5druid22WidgetPod$LT$T$C$W$GT$3new17h2ac355bd34c07ccaE>
  60:	e7ff      	b.n	62 <_ZN5druid6widget7padding16Padding$LT$T$GT$3new17hbc501ec179081349E+0x62>
C:\druid-embedded\druid\src\widget/padding.rs:88
        Padding {
  62:	980b      	ldr	r0, [sp, #44]	; 0x2c
  64:	990d      	ldr	r1, [sp, #52]	; 0x34
  66:	6588      	str	r0, [r1, #88]	; 0x58
  68:	ed9d 0b08 	vldr	d0, [sp, #32]
  6c:	ed81 0b00 	vstr	d0, [r1]
  70:	ed9d 1b04 	vldr	d1, [sp, #16]
  74:	ed81 1b02 	vstr	d1, [r1, #8]
  78:	ed9d 2b06 	vldr	d2, [sp, #24]
  7c:	ed81 2b04 	vstr	d2, [r1, #16]
  80:	ed9d 3b02 	vldr	d3, [sp, #8]
  84:	ed81 3b06 	vstr	d3, [r1, #24]
  88:	f101 0220 	add.w	r2, r1, #32
  8c:	ab18      	add	r3, sp, #96	; 0x60
  8e:	e8b3 5030 	ldmia.w	r3!, {r4, r5, ip, lr}
  92:	e8a2 5030 	stmia.w	r2!, {r4, r5, ip, lr}
  96:	e8b3 5070 	ldmia.w	r3!, {r4, r5, r6, ip, lr}
  9a:	e8a2 5070 	stmia.w	r2!, {r4, r5, r6, ip, lr}
  9e:	e893 5070 	ldmia.w	r3, {r4, r5, r6, ip, lr}
  a2:	e882 5070 	stmia.w	r2, {r4, r5, r6, ip, lr}
C:\druid-embedded\druid\src\widget/padding.rs:99
    }
  a6:	b044      	add	sp, #272	; 0x110
  a8:	bd70      	pop	{r4, r5, r6, pc}

Disassembly of section .text._ZN79_$LT$druid..widget..padding..Padding$LT$T$GT$$u20$as$u20$core..clone..Clone$GT$5clone17h21cf3974cea63007E:

00000000 <_ZN79_$LT$druid..widget..padding..Padding$LT$T$GT$$u20$as$u20$core..clone..Clone$GT$5clone17h21cf3974cea63007E>:
_ZN79_$LT$druid..widget..padding..Padding$LT$T$GT$$u20$as$u20$core..clone..Clone$GT$5clone17h21cf3974cea63007E():
C:\druid-embedded\druid\src\widget/padding.rs:25
#[derive(Clone)] ////
   0:	b570      	push	{r4, r5, r6, lr}
   2:	b0a0      	sub	sp, #128	; 0x80
   4:	910b      	str	r1, [sp, #44]	; 0x2c
C:\druid-embedded\druid\src\widget/padding.rs:28
    id: u32, //// Unique Widget ID
   6:	990b      	ldr	r1, [sp, #44]	; 0x2c
   8:	3158      	adds	r1, #88	; 0x58
   a:	910c      	str	r1, [sp, #48]	; 0x30
C:\druid-embedded\druid\src\widget/padding.rs:29
    left: f64,
   c:	990b      	ldr	r1, [sp, #44]	; 0x2c
   e:	910d      	str	r1, [sp, #52]	; 0x34
C:\druid-embedded\druid\src\widget/padding.rs:30
    right: f64,
  10:	990b      	ldr	r1, [sp, #44]	; 0x2c
  12:	3108      	adds	r1, #8
  14:	910e      	str	r1, [sp, #56]	; 0x38
C:\druid-embedded\druid\src\widget/padding.rs:31
    top: f64,
  16:	990b      	ldr	r1, [sp, #44]	; 0x2c
  18:	3110      	adds	r1, #16
  1a:	910f      	str	r1, [sp, #60]	; 0x3c
C:\druid-embedded\druid\src\widget/padding.rs:32
    bottom: f64,
  1c:	990b      	ldr	r1, [sp, #44]	; 0x2c
  1e:	3118      	adds	r1, #24
  20:	9110      	str	r1, [sp, #64]	; 0x40
C:\druid-embedded\druid\src\widget/padding.rs:33
    child: WidgetPod<T, WidgetBox<T>>, ////
  22:	990b      	ldr	r1, [sp, #44]	; 0x2c
  24:	3120      	adds	r1, #32
  26:	9111      	str	r1, [sp, #68]	; 0x44
C:\druid-embedded\druid\src\widget/padding.rs:28
    id: u32, //// Unique Widget ID
  28:	990c      	ldr	r1, [sp, #48]	; 0x30
  2a:	900a      	str	r0, [sp, #40]	; 0x28
  2c:	4608      	mov	r0, r1
  2e:	f7ff fffe 	bl	0 <_ZN4core5clone5impls52_$LT$impl$u20$core..clone..Clone$u20$for$u20$u32$GT$5clone17h4ab28dfacb141a1cE>
  32:	9009      	str	r0, [sp, #36]	; 0x24
  34:	e7ff      	b.n	36 <_ZN79_$LT$druid..widget..padding..Padding$LT$T$GT$$u20$as$u20$core..clone..Clone$GT$5clone17h21cf3974cea63007E+0x36>
C:\druid-embedded\druid\src\widget/padding.rs:29
    left: f64,
  36:	980d      	ldr	r0, [sp, #52]	; 0x34
  38:	f7ff fffe 	bl	0 <_ZN4core5clone5impls52_$LT$impl$u20$core..clone..Clone$u20$for$u20$f64$GT$5clone17he4621b811c931d8dE>
  3c:	ed8d 0b06 	vstr	d0, [sp, #24]
  40:	e7ff      	b.n	42 <_ZN79_$LT$druid..widget..padding..Padding$LT$T$GT$$u20$as$u20$core..clone..Clone$GT$5clone17h21cf3974cea63007E+0x42>
C:\druid-embedded\druid\src\widget/padding.rs:30
    right: f64,
  42:	980e      	ldr	r0, [sp, #56]	; 0x38
  44:	f7ff fffe 	bl	0 <_ZN4core5clone5impls52_$LT$impl$u20$core..clone..Clone$u20$for$u20$f64$GT$5clone17he4621b811c931d8dE>
  48:	ed8d 0b04 	vstr	d0, [sp, #16]
  4c:	e7ff      	b.n	4e <_ZN79_$LT$druid..widget..padding..Padding$LT$T$GT$$u20$as$u20$core..clone..Clone$GT$5clone17h21cf3974cea63007E+0x4e>
C:\druid-embedded\druid\src\widget/padding.rs:31
    top: f64,
  4e:	980f      	ldr	r0, [sp, #60]	; 0x3c
  50:	f7ff fffe 	bl	0 <_ZN4core5clone5impls52_$LT$impl$u20$core..clone..Clone$u20$for$u20$f64$GT$5clone17he4621b811c931d8dE>
  54:	ed8d 0b02 	vstr	d0, [sp, #8]
  58:	e7ff      	b.n	5a <_ZN79_$LT$druid..widget..padding..Padding$LT$T$GT$$u20$as$u20$core..clone..Clone$GT$5clone17h21cf3974cea63007E+0x5a>
C:\druid-embedded\druid\src\widget/padding.rs:32
    bottom: f64,
  5a:	9810      	ldr	r0, [sp, #64]	; 0x40
  5c:	f7ff fffe 	bl	0 <_ZN4core5clone5impls52_$LT$impl$u20$core..clone..Clone$u20$for$u20$f64$GT$5clone17he4621b811c931d8dE>
  60:	ed8d 0b00 	vstr	d0, [sp]
  64:	e7ff      	b.n	66 <_ZN79_$LT$druid..widget..padding..Padding$LT$T$GT$$u20$as$u20$core..clone..Clone$GT$5clone17h21cf3974cea63007E+0x66>
C:\druid-embedded\druid\src\widget/padding.rs:33
    child: WidgetPod<T, WidgetBox<T>>, ////
  66:	9911      	ldr	r1, [sp, #68]	; 0x44
  68:	a812      	add	r0, sp, #72	; 0x48
  6a:	f7ff fffe 	bl	0 <_ZN68_$LT$druid..WidgetPod$LT$T$C$W$GT$$u20$as$u20$core..clone..Clone$GT$5clone17hf0eedee77df69b8fE>
  6e:	e7ff      	b.n	70 <_ZN79_$LT$druid..widget..padding..Padding$LT$T$GT$$u20$as$u20$core..clone..Clone$GT$5clone17h21cf3974cea63007E+0x70>
C:\druid-embedded\druid\src\widget/padding.rs:25
#[derive(Clone)] ////
  70:	9809      	ldr	r0, [sp, #36]	; 0x24
  72:	990a      	ldr	r1, [sp, #40]	; 0x28
  74:	6588      	str	r0, [r1, #88]	; 0x58
  76:	ed9d 0b06 	vldr	d0, [sp, #24]
  7a:	ed81 0b00 	vstr	d0, [r1]
  7e:	ed9d 1b04 	vldr	d1, [sp, #16]
  82:	ed81 1b02 	vstr	d1, [r1, #8]
  86:	ed9d 2b02 	vldr	d2, [sp, #8]
  8a:	ed81 2b04 	vstr	d2, [r1, #16]
  8e:	ed9d 3b00 	vldr	d3, [sp]
  92:	ed81 3b06 	vstr	d3, [r1, #24]
  96:	f101 0220 	add.w	r2, r1, #32
  9a:	ab12      	add	r3, sp, #72	; 0x48
  9c:	e8b3 5030 	ldmia.w	r3!, {r4, r5, ip, lr}
  a0:	e8a2 5030 	stmia.w	r2!, {r4, r5, ip, lr}
  a4:	e8b3 5070 	ldmia.w	r3!, {r4, r5, r6, ip, lr}
  a8:	e8a2 5070 	stmia.w	r2!, {r4, r5, r6, ip, lr}
  ac:	e893 5070 	ldmia.w	r3, {r4, r5, r6, ip, lr}
  b0:	e882 5070 	stmia.w	r2, {r4, r5, r6, ip, lr}
  b4:	b020      	add	sp, #128	; 0x80
  b6:	bd70      	pop	{r4, r5, r6, pc}

Disassembly of section .text._ZN83_$LT$druid..widget..padding..Padding$LT$T$GT$$u20$as$u20$druid..Widget$LT$T$GT$$GT$6get_id17hf873a4f520c643beE:

00000000 <_ZN83_$LT$druid..widget..padding..Padding$LT$T$GT$$u20$as$u20$druid..Widget$LT$T$GT$$GT$6get_id17hf873a4f520c643beE>:
_ZN83_$LT$druid..widget..padding..Padding$LT$T$GT$$u20$as$u20$druid..Widget$LT$T$GT$$GT$6get_id17hf873a4f520c643beE():
C:\druid-embedded\druid\src\widget/padding.rs:150
            WindowType::Padding(window),
        );
        window_box
    }

    fn get_id(self) -> u32 { ////
   0:	b081      	sub	sp, #4
C:\druid-embedded\druid\src\widget/padding.rs:151
        self.id
   2:	6d80      	ldr	r0, [r0, #88]	; 0x58
C:\druid-embedded\druid\src\widget/padding.rs:152
    }
   4:	9000      	str	r0, [sp, #0]
   6:	e7ff      	b.n	8 <_ZN83_$LT$druid..widget..padding..Padding$LT$T$GT$$u20$as$u20$druid..Widget$LT$T$GT$$GT$6get_id17hf873a4f520c643beE+0x8>
   8:	9800      	ldr	r0, [sp, #0]
   a:	b001      	add	sp, #4
   c:	4770      	bx	lr

Disassembly of section .text._ZN83_$LT$druid..widget..padding..Padding$LT$T$GT$$u20$as$u20$druid..Widget$LT$T$GT$$GT$7to_type17h067fbcd879923887E:

00000000 <_ZN83_$LT$druid..widget..padding..Padding$LT$T$GT$$u20$as$u20$druid..Widget$LT$T$GT$$GT$7to_type17h067fbcd879923887E>:
_ZN83_$LT$druid..widget..padding..Padding$LT$T$GT$$u20$as$u20$druid..Widget$LT$T$GT$$GT$7to_type17h067fbcd879923887E():
C:\druid-embedded\druid\src\widget/padding.rs:138
    fn to_type(self) -> WidgetType<T> { ////
   0:	b580      	push	{r7, lr}
   2:	b09c      	sub	sp, #112	; 0x70
   4:	aa04      	add	r2, sp, #16
   6:	2360      	movs	r3, #96	; 0x60
C:\druid-embedded\druid\src\widget/padding.rs:139
        WidgetType::Padding(self)
   8:	9003      	str	r0, [sp, #12]
   a:	4610      	mov	r0, r2
   c:	9202      	str	r2, [sp, #8]
   e:	461a      	mov	r2, r3
  10:	9301      	str	r3, [sp, #4]
  12:	f7ff fffe 	bl	0 <__aeabi_memcpy8>
  16:	9803      	ldr	r0, [sp, #12]
  18:	3008      	adds	r0, #8
  1a:	9902      	ldr	r1, [sp, #8]
  1c:	9a01      	ldr	r2, [sp, #4]
  1e:	f7ff fffe 	bl	0 <__aeabi_memcpy8>
  22:	2000      	movs	r0, #0
  24:	9903      	ldr	r1, [sp, #12]
  26:	6048      	str	r0, [r1, #4]
  28:	2005      	movs	r0, #5
  2a:	6008      	str	r0, [r1, #0]
C:\druid-embedded\druid\src\widget/padding.rs:140
    }
  2c:	b01c      	add	sp, #112	; 0x70
  2e:	bd80      	pop	{r7, pc}

app-20d859f505b9d0c6.1eo19gfrh6vnwbmr.rcgu.o:     file format elf32-littlearm

SYMBOL TABLE:
00000000 l    df *ABS*	00000000 1eo19gfrh6vnwbmr
000000de l       .debug_str	00000000 
000004dc l       .debug_str	00000000 
0000055a l       .debug_str	00000000 
00000437 l       .debug_str	00000000 
00000000 l       .debug_str	00000000 
00000041 l       .debug_str	00000000 
00000055 l       .debug_str	00000000 
00000074 l       .debug_str	00000000 
0000007c l       .debug_str	00000000 
00000081 l       .debug_str	00000000 
0000008a l       .debug_str	00000000 
00000092 l       .debug_str	00000000 
00000097 l       .debug_str	00000000 
0000009e l       .debug_str	00000000 
000000a2 l       .debug_str	00000000 
000000a8 l       .debug_str	00000000 
000000ac l       .debug_str	00000000 
000000b0 l       .debug_str	00000000 
000000b3 l       .debug_str	00000000 
000000dc l       .debug_str	00000000 
000003bf l       .debug_str	00000000 
00000114 l       .debug_str	00000000 
00000116 l       .debug_str	00000000 
00000118 l       .debug_str	00000000 
00000145 l       .debug_str	00000000 
00000148 l       .debug_str	00000000 
00000198 l       .debug_str	00000000 
000001f5 l       .debug_str	00000000 
00000249 l       .debug_str	00000000 
000002c0 l       .debug_str	00000000 
00000344 l       .debug_str	00000000 
000004e2 l       .debug_str	00000000 
00000000 l    d  .text._ZN85_$LT$typenum..uint..UInt$LT$U$C$B$GT$$u20$as$u20$typenum..marker_traits..Unsigned$GT$8to_usize17h6b0faa23185bf2c8E	00000000 .text._ZN85_$LT$typenum..uint..UInt$LT$U$C$B$GT$$u20$as$u20$typenum..marker_traits..Unsigned$GT$8to_usize17h6b0faa23185bf2c8E
00000000 l    d  .text._ZN85_$LT$typenum..uint..UInt$LT$U$C$B$GT$$u20$as$u20$typenum..marker_traits..Unsigned$GT$8to_usize17h75e52bab5fab491bE	00000000 .text._ZN85_$LT$typenum..uint..UInt$LT$U$C$B$GT$$u20$as$u20$typenum..marker_traits..Unsigned$GT$8to_usize17h75e52bab5fab491bE
00000000 l    d  .debug_abbrev	00000000 .debug_abbrev
00000000 l    d  .debug_info	00000000 .debug_info
00000000 l    d  .debug_ranges	00000000 .debug_ranges
00000000 l    d  .debug_frame	00000000 .debug_frame
00000000 l    d  .debug_line	00000000 .debug_line
00000000         *UND*	00000000 .hidden _ZN4core3num65_$LT$impl$u20$core..convert..From$LT$u8$GT$$u20$for$u20$usize$GT$4from17hf5d3a6ccb9a5639bE
00000000         *UND*	00000000 .hidden _ZN64_$LT$typenum..bit..B0$u20$as$u20$typenum..marker_traits..Bit$GT$5to_u817h3156553424aa131bE
00000000 g     F .text._ZN85_$LT$typenum..uint..UInt$LT$U$C$B$GT$$u20$as$u20$typenum..marker_traits..Unsigned$GT$8to_usize17h6b0faa23185bf2c8E	00000030 _ZN85_$LT$typenum..uint..UInt$LT$U$C$B$GT$$u20$as$u20$typenum..marker_traits..Unsigned$GT$8to_usize17h6b0faa23185bf2c8E
00000000 g     F .text._ZN85_$LT$typenum..uint..UInt$LT$U$C$B$GT$$u20$as$u20$typenum..marker_traits..Unsigned$GT$8to_usize17h75e52bab5fab491bE	00000030 _ZN85_$LT$typenum..uint..UInt$LT$U$C$B$GT$$u20$as$u20$typenum..marker_traits..Unsigned$GT$8to_usize17h75e52bab5fab491bE
00000000         *UND*	00000000 _ZN85_$LT$typenum..uint..UInt$LT$U$C$B$GT$$u20$as$u20$typenum..marker_traits..Unsigned$GT$8to_usize17h8887cd722bab15e8E



Disassembly of section .text._ZN85_$LT$typenum..uint..UInt$LT$U$C$B$GT$$u20$as$u20$typenum..marker_traits..Unsigned$GT$8to_usize17h6b0faa23185bf2c8E:

00000000 <_ZN85_$LT$typenum..uint..UInt$LT$U$C$B$GT$$u20$as$u20$typenum..marker_traits..Unsigned$GT$8to_usize17h6b0faa23185bf2c8E>:
_ZN85_$LT$typenum..uint..UInt$LT$U$C$B$GT$$u20$as$u20$typenum..marker_traits..Unsigned$GT$8to_usize17h6b0faa23185bf2c8E():
C:\Users\guppy\.cargo\registry\src\github.com-1ecc6299db9ec823\typenum-1.10.0\src/uint.rs:200
    #[inline]
    fn to_u128() -> u128 {
        u128::from(B::to_u8()) | U::to_u128() << 1
    }
    #[inline]
    fn to_usize() -> usize {
   0:	b580      	push	{r7, lr}
   2:	b084      	sub	sp, #16
C:\Users\guppy\.cargo\registry\src\github.com-1ecc6299db9ec823\typenum-1.10.0\src/uint.rs:201
        usize::from(B::to_u8()) | U::to_usize() << 1
   4:	f7ff fffe 	bl	0 <_ZN64_$LT$typenum..bit..B0$u20$as$u20$typenum..marker_traits..Bit$GT$5to_u817h3156553424aa131bE>
   8:	9003      	str	r0, [sp, #12]
   a:	e7ff      	b.n	c <_ZN85_$LT$typenum..uint..UInt$LT$U$C$B$GT$$u20$as$u20$typenum..marker_traits..Unsigned$GT$8to_usize17h6b0faa23185bf2c8E+0xc>
   c:	9803      	ldr	r0, [sp, #12]
   e:	f7ff fffe 	bl	0 <_ZN4core3num65_$LT$impl$u20$core..convert..From$LT$u8$GT$$u20$for$u20$usize$GT$4from17hf5d3a6ccb9a5639bE>
  12:	9002      	str	r0, [sp, #8]
  14:	e7ff      	b.n	16 <_ZN85_$LT$typenum..uint..UInt$LT$U$C$B$GT$$u20$as$u20$typenum..marker_traits..Unsigned$GT$8to_usize17h6b0faa23185bf2c8E+0x16>
  16:	f7ff fffe 	bl	0 <_ZN85_$LT$typenum..uint..UInt$LT$U$C$B$GT$$u20$as$u20$typenum..marker_traits..Unsigned$GT$8to_usize17h6b0faa23185bf2c8E>
  1a:	9001      	str	r0, [sp, #4]
  1c:	e7ff      	b.n	1e <_ZN85_$LT$typenum..uint..UInt$LT$U$C$B$GT$$u20$as$u20$typenum..marker_traits..Unsigned$GT$8to_usize17h6b0faa23185bf2c8E+0x1e>
  1e:	9801      	ldr	r0, [sp, #4]
  20:	0041      	lsls	r1, r0, #1
  22:	9100      	str	r1, [sp, #0]
  24:	e7ff      	b.n	26 <_ZN85_$LT$typenum..uint..UInt$LT$U$C$B$GT$$u20$as$u20$typenum..marker_traits..Unsigned$GT$8to_usize17h6b0faa23185bf2c8E+0x26>
  26:	9802      	ldr	r0, [sp, #8]
  28:	9900      	ldr	r1, [sp, #0]
  2a:	4308      	orrs	r0, r1
C:\Users\guppy\.cargo\registry\src\github.com-1ecc6299db9ec823\typenum-1.10.0\src/uint.rs:202
    }
  2c:	b004      	add	sp, #16
  2e:	bd80      	pop	{r7, pc}

Disassembly of section .text._ZN85_$LT$typenum..uint..UInt$LT$U$C$B$GT$$u20$as$u20$typenum..marker_traits..Unsigned$GT$8to_usize17h75e52bab5fab491bE:

00000000 <_ZN85_$LT$typenum..uint..UInt$LT$U$C$B$GT$$u20$as$u20$typenum..marker_traits..Unsigned$GT$8to_usize17h75e52bab5fab491bE>:
_ZN85_$LT$typenum..uint..UInt$LT$U$C$B$GT$$u20$as$u20$typenum..marker_traits..Unsigned$GT$8to_usize17h75e52bab5fab491bE():
C:\Users\guppy\.cargo\registry\src\github.com-1ecc6299db9ec823\typenum-1.10.0\src/uint.rs:200
    fn to_usize() -> usize {
   0:	b580      	push	{r7, lr}
   2:	b084      	sub	sp, #16
C:\Users\guppy\.cargo\registry\src\github.com-1ecc6299db9ec823\typenum-1.10.0\src/uint.rs:201
        usize::from(B::to_u8()) | U::to_usize() << 1
   4:	f7ff fffe 	bl	0 <_ZN64_$LT$typenum..bit..B0$u20$as$u20$typenum..marker_traits..Bit$GT$5to_u817h3156553424aa131bE>
   8:	9003      	str	r0, [sp, #12]
   a:	e7ff      	b.n	c <_ZN85_$LT$typenum..uint..UInt$LT$U$C$B$GT$$u20$as$u20$typenum..marker_traits..Unsigned$GT$8to_usize17h75e52bab5fab491bE+0xc>
   c:	9803      	ldr	r0, [sp, #12]
   e:	f7ff fffe 	bl	0 <_ZN4core3num65_$LT$impl$u20$core..convert..From$LT$u8$GT$$u20$for$u20$usize$GT$4from17hf5d3a6ccb9a5639bE>
  12:	9002      	str	r0, [sp, #8]
  14:	e7ff      	b.n	16 <_ZN85_$LT$typenum..uint..UInt$LT$U$C$B$GT$$u20$as$u20$typenum..marker_traits..Unsigned$GT$8to_usize17h75e52bab5fab491bE+0x16>
  16:	f7ff fffe 	bl	0 <_ZN85_$LT$typenum..uint..UInt$LT$U$C$B$GT$$u20$as$u20$typenum..marker_traits..Unsigned$GT$8to_usize17h8887cd722bab15e8E>
  1a:	9001      	str	r0, [sp, #4]
  1c:	e7ff      	b.n	1e <_ZN85_$LT$typenum..uint..UInt$LT$U$C$B$GT$$u20$as$u20$typenum..marker_traits..Unsigned$GT$8to_usize17h75e52bab5fab491bE+0x1e>
  1e:	9801      	ldr	r0, [sp, #4]
  20:	0041      	lsls	r1, r0, #1
  22:	9100      	str	r1, [sp, #0]
  24:	e7ff      	b.n	26 <_ZN85_$LT$typenum..uint..UInt$LT$U$C$B$GT$$u20$as$u20$typenum..marker_traits..Unsigned$GT$8to_usize17h75e52bab5fab491bE+0x26>
  26:	9802      	ldr	r0, [sp, #8]
  28:	9900      	ldr	r1, [sp, #0]
  2a:	4308      	orrs	r0, r1
C:\Users\guppy\.cargo\registry\src\github.com-1ecc6299db9ec823\typenum-1.10.0\src/uint.rs:202
    }
  2c:	b004      	add	sp, #16
  2e:	bd80      	pop	{r7, pc}

app-20d859f505b9d0c6.1g4oe7m47eory3y5.rcgu.o:     file format elf32-littlearm

SYMBOL TABLE:
00000000 l    df *ABS*	00000000 1g4oe7m47eory3y5
0000008e l       .debug_str	00000000 
00000160 l       .debug_str	00000000 
0000016a l       .debug_str	00000000 
0000015c l       .debug_str	00000000 
00000000 l       .debug_str	00000000 
00000041 l       .debug_str	00000000 
00000055 l       .debug_str	00000000 
00000074 l       .debug_str	00000000 
00000079 l       .debug_str	00000000 
0000007f l       .debug_str	00000000 
00000085 l       .debug_str	00000000 
000000f7 l       .debug_str	00000000 
000000f3 l       .debug_str	00000000 
00000165 l       .debug_str	00000000 
00000000 l    d  .text._ZN4core5clone5impls52_$LT$impl$u20$core..clone..Clone$u20$for$u20$f64$GT$5clone17he4621b811c931d8dE	00000000 .text._ZN4core5clone5impls52_$LT$impl$u20$core..clone..Clone$u20$for$u20$f64$GT$5clone17he4621b811c931d8dE
00000000 l    d  .text._ZN4core5clone5impls52_$LT$impl$u20$core..clone..Clone$u20$for$u20$u32$GT$5clone17h4ab28dfacb141a1cE	00000000 .text._ZN4core5clone5impls52_$LT$impl$u20$core..clone..Clone$u20$for$u20$u32$GT$5clone17h4ab28dfacb141a1cE
00000000 l    d  .debug_abbrev	00000000 .debug_abbrev
00000000 l    d  .debug_info	00000000 .debug_info
00000000 l    d  .debug_ranges	00000000 .debug_ranges
00000000 l    d  .debug_frame	00000000 .debug_frame
00000000 l    d  .debug_line	00000000 .debug_line
00000000 g     F .text._ZN4core5clone5impls52_$LT$impl$u20$core..clone..Clone$u20$for$u20$f64$GT$5clone17he4621b811c931d8dE	0000000e .hidden _ZN4core5clone5impls52_$LT$impl$u20$core..clone..Clone$u20$for$u20$f64$GT$5clone17he4621b811c931d8dE
00000000 g     F .text._ZN4core5clone5impls52_$LT$impl$u20$core..clone..Clone$u20$for$u20$u32$GT$5clone17h4ab28dfacb141a1cE	0000000c .hidden _ZN4core5clone5impls52_$LT$impl$u20$core..clone..Clone$u20$for$u20$u32$GT$5clone17h4ab28dfacb141a1cE



Disassembly of section .text._ZN4core5clone5impls52_$LT$impl$u20$core..clone..Clone$u20$for$u20$f64$GT$5clone17he4621b811c931d8dE:

00000000 <_ZN4core5clone5impls52_$LT$impl$u20$core..clone..Clone$u20$for$u20$f64$GT$5clone17he4621b811c931d8dE>:
_ZN4core5clone5impls52_$LT$impl$u20$core..clone..Clone$u20$for$u20$f64$GT$5clone17he4621b811c931d8dE():
/rustc/412f43ac5b4ae8c3599e71c6972112e9be4758fa/src/libcore/clone.rs:173
   0:	b081      	sub	sp, #4
   2:	9000      	str	r0, [sp, #0]
/rustc/412f43ac5b4ae8c3599e71c6972112e9be4758fa/src/libcore/clone.rs:174
   4:	9800      	ldr	r0, [sp, #0]
   6:	ed90 0b00 	vldr	d0, [r0]
/rustc/412f43ac5b4ae8c3599e71c6972112e9be4758fa/src/libcore/clone.rs:175
   a:	b001      	add	sp, #4
   c:	4770      	bx	lr

Disassembly of section .text._ZN4core5clone5impls52_$LT$impl$u20$core..clone..Clone$u20$for$u20$u32$GT$5clone17h4ab28dfacb141a1cE:

00000000 <_ZN4core5clone5impls52_$LT$impl$u20$core..clone..Clone$u20$for$u20$u32$GT$5clone17h4ab28dfacb141a1cE>:
_ZN4core5clone5impls52_$LT$impl$u20$core..clone..Clone$u20$for$u20$u32$GT$5clone17h4ab28dfacb141a1cE():
/rustc/412f43ac5b4ae8c3599e71c6972112e9be4758fa/src/libcore/clone.rs:173
   0:	b081      	sub	sp, #4
   2:	9000      	str	r0, [sp, #0]
/rustc/412f43ac5b4ae8c3599e71c6972112e9be4758fa/src/libcore/clone.rs:174
   4:	9800      	ldr	r0, [sp, #0]
   6:	6800      	ldr	r0, [r0, #0]
/rustc/412f43ac5b4ae8c3599e71c6972112e9be4758fa/src/libcore/clone.rs:175
   8:	b001      	add	sp, #4
   a:	4770      	bx	lr

app-20d859f505b9d0c6.1xdts4xl296y509p.rcgu.o:     file format elf32-littlearm

SYMBOL TABLE:
00000000 l    df *ABS*	00000000 1xdts4xl296y509p
0000022c l       .debug_str	00000000 
0000111a l       .debug_str	00000000 
00000000 l       .debug_str	00000000 
00000041 l       .debug_str	00000000 
00000055 l       .debug_str	00000000 
00000074 l       .debug_str	00000000 
0000007a l       .debug_str	00000000 
00000081 l       .debug_str	00000000 
00000086 l       .debug_str	00000000 
00000089 l       .debug_str	00000000 
00000094 l       .debug_str	00000000 
0000009d l       .debug_str	00000000 
000000a2 l       .debug_str	00000000 
000000a7 l       .debug_str	00000000 
000000ae l       .debug_str	00000000 
000000b3 l       .debug_str	00000000 
000000b8 l       .debug_str	00000000 
000000bf l       .debug_str	00000000 
000000ca l       .debug_str	00000000 
000000ce l       .debug_str	00000000 
000000db l       .debug_str	00000000 
000000de l       .debug_str	00000000 
000000e2 l       .debug_str	00000000 
000000ec l       .debug_str	00000000 
000000f5 l       .debug_str	00000000 
000000fe l       .debug_str	00000000 
00000102 l       .debug_str	00000000 
00000106 l       .debug_str	00000000 
00000108 l       .debug_str	00000000 
0000010f l       .debug_str	00000000 
00000113 l       .debug_str	00000000 
00000120 l       .debug_str	00000000 
00000127 l       .debug_str	00000000 
0000012a l       .debug_str	00000000 
00000130 l       .debug_str	00000000 
0000013e l       .debug_str	00000000 
0000014c l       .debug_str	00000000 
00000151 l       .debug_str	00000000 
00000159 l       .debug_str	00000000 
00000161 l       .debug_str	00000000 
00000167 l       .debug_str	00000000 
00000173 l       .debug_str	00000000 
00000179 l       .debug_str	00000000 
0000017e l       .debug_str	00000000 
00000181 l       .debug_str	00000000 
00000185 l       .debug_str	00000000 
00000188 l       .debug_str	00000000 
0000018b l       .debug_str	00000000 
0000018e l       .debug_str	00000000 
00000193 l       .debug_str	00000000 
0000019f l       .debug_str	00000000 
000001a4 l       .debug_str	00000000 
000001ab l       .debug_str	00000000 
000001b5 l       .debug_str	00000000 
000001c0 l       .debug_str	00000000 
000001cd l       .debug_str	00000000 
000001db l       .debug_str	00000000 
000001e5 l       .debug_str	00000000 
000001f3 l       .debug_str	00000000 
000001fd l       .debug_str	00000000 
00000206 l       .debug_str	00000000 
00000208 l       .debug_str	00000000 
00000214 l       .debug_str	00000000 
00000218 l       .debug_str	00000000 
0000021e l       .debug_str	00000000 
00000228 l       .debug_str	00000000 
00001116 l       .debug_str	00000000 
00000233 l       .debug_str	00000000 
00000244 l       .debug_str	00000000 
00000246 l       .debug_str	00000000 
00000255 l       .debug_str	00000000 
00000257 l       .debug_str	00000000 
00000290 l       .debug_str	00000000 
00000297 l       .debug_str	00000000 
0000029e l       .debug_str	00000000 
000002af l       .debug_str	00000000 
000002b1 l       .debug_str	00000000 
000002f0 l       .debug_str	00000000 
000002f8 l       .debug_str	00000000 
0000032b l       .debug_str	00000000 
000003b6 l       .debug_str	00000000 
0000048d l       .debug_str	00000000 
000005b0 l       .debug_str	00000000 
000005b8 l       .debug_str	00000000 
000005bd l       .debug_str	00000000 
000005c3 l       .debug_str	00000000 
000005c7 l       .debug_str	00000000 
000005ca l       .debug_str	00000000 
000005f3 l       .debug_str	00000000 
00000629 l       .debug_str	00000000 
0000062b l       .debug_str	00000000 
00000658 l       .debug_str	00000000 
0000065b l       .debug_str	00000000 
000006ab l       .debug_str	00000000 
00000708 l       .debug_str	00000000 
0000075c l       .debug_str	00000000 
000007d3 l       .debug_str	00000000 
00000857 l       .debug_str	00000000 
000008d2 l       .debug_str	00000000 
00000970 l       .debug_str	00000000 
00000a1b l       .debug_str	00000000 
00000abd l       .debug_str	00000000 
00000ba3 l       .debug_str	00000000 
00000ca6 l       .debug_str	00000000 
00000da8 l       .debug_str	00000000 
00000dac l       .debug_str	00000000 
00000db2 l       .debug_str	00000000 
00000db4 l       .debug_str	00000000 
00000eae l       .debug_str	00000000 
00000eb0 l       .debug_str	00000000 
00000f8d l       .debug_str	00000000 
00000f97 l       .debug_str	00000000 
00000fbe l       .debug_str	00000000 
00000fc3 l       .debug_str	00000000 
00000fc7 l       .debug_str	00000000 
00000fcd l       .debug_str	00000000 
00000fd4 l       .debug_str	00000000 
00000fd9 l       .debug_str	00000000 
00000ff3 l       .debug_str	00000000 
00000ffa l       .debug_str	00000000 
00001003 l       .debug_str	00000000 
00001010 l       .debug_str	00000000 
00001040 l       .debug_str	00000000 
0000107e l       .debug_str	00000000 
000010cf l       .debug_str	00000000 
000010d3 l       .debug_str	00000000 
0000115b l       .debug_str	00000000 
00000000 l    d  .text._ZN4core10intrinsics19copy_nonoverlapping17hd28b236651bf1950E	00000000 .text._ZN4core10intrinsics19copy_nonoverlapping17hd28b236651bf1950E
00000000 l    d  .debug_abbrev	00000000 .debug_abbrev
00000000 l    d  .debug_info	00000000 .debug_info
00000000 l    d  .debug_frame	00000000 .debug_frame
00000000 l    d  .debug_line	00000000 .debug_line
00000000 g     F .text._ZN4core10intrinsics19copy_nonoverlapping17hd28b236651bf1950E	0000001c _ZN4core10intrinsics19copy_nonoverlapping17hd28b236651bf1950E
00000000         *UND*	00000000 __aeabi_memcpy8



Disassembly of section .text._ZN4core10intrinsics19copy_nonoverlapping17hd28b236651bf1950E:

00000000 <_ZN4core10intrinsics19copy_nonoverlapping17hd28b236651bf1950E>:
_ZN4core10intrinsics19copy_nonoverlapping17hd28b236651bf1950E():
/rustc/412f43ac5b4ae8c3599e71c6972112e9be4758fa/src/libcore/intrinsics.rs:1466
   0:	b580      	push	{r7, lr}
   2:	b084      	sub	sp, #16
   4:	9001      	str	r0, [sp, #4]
   6:	9102      	str	r1, [sp, #8]
   8:	9203      	str	r2, [sp, #12]
/rustc/412f43ac5b4ae8c3599e71c6972112e9be4758fa/src/libcore/intrinsics.rs:1474
   a:	9901      	ldr	r1, [sp, #4]
   c:	9802      	ldr	r0, [sp, #8]
   e:	9a03      	ldr	r2, [sp, #12]
  10:	0152      	lsls	r2, r2, #5
  12:	f7ff fffe 	bl	0 <__aeabi_memcpy8>
  16:	e7ff      	b.n	18 <_ZN4core10intrinsics19copy_nonoverlapping17hd28b236651bf1950E+0x18>
/rustc/412f43ac5b4ae8c3599e71c6972112e9be4758fa/src/libcore/intrinsics.rs:1475
  18:	b004      	add	sp, #16
  1a:	bd80      	pop	{r7, pc}

app-20d859f505b9d0c6.1yhao51du9mcqh5y.rcgu.o:     file format elf32-littlearm

SYMBOL TABLE:
00000000 l    df *ABS*	00000000 1yhao51du9mcqh5y
0000022e l       .debug_str	00000000 
00001183 l       .debug_str	00000000 
00001216 l       .debug_str	00000000 
0000114c l       .debug_str	00000000 
00000000 l       .debug_str	00000000 
00000041 l       .debug_str	00000000 
00000055 l       .debug_str	00000000 
00000074 l       .debug_str	00000000 
0000007a l       .debug_str	00000000 
00000081 l       .debug_str	00000000 
00000086 l       .debug_str	00000000 
00000089 l       .debug_str	00000000 
00000094 l       .debug_str	00000000 
0000009d l       .debug_str	00000000 
000000a2 l       .debug_str	00000000 
000000a7 l       .debug_str	00000000 
000000ae l       .debug_str	00000000 
000000b3 l       .debug_str	00000000 
000000b8 l       .debug_str	00000000 
000000bf l       .debug_str	00000000 
000000c5 l       .debug_str	00000000 
000000c9 l       .debug_str	00000000 
000000d6 l       .debug_str	00000000 
000000d9 l       .debug_str	00000000 
000000dd l       .debug_str	00000000 
000000e7 l       .debug_str	00000000 
000000f0 l       .debug_str	00000000 
000000f9 l       .debug_str	00000000 
000000fd l       .debug_str	00000000 
00000101 l       .debug_str	00000000 
00000103 l       .debug_str	00000000 
0000010a l       .debug_str	00000000 
0000010e l       .debug_str	00000000 
0000011b l       .debug_str	00000000 
00000122 l       .debug_str	00000000 
00000125 l       .debug_str	00000000 
0000012b l       .debug_str	00000000 
00000139 l       .debug_str	00000000 
00000147 l       .debug_str	00000000 
0000014c l       .debug_str	00000000 
00000154 l       .debug_str	00000000 
0000015c l       .debug_str	00000000 
00000162 l       .debug_str	00000000 
0000016e l       .debug_str	00000000 
00000174 l       .debug_str	00000000 
00000179 l       .debug_str	00000000 
0000017c l       .debug_str	00000000 
00000180 l       .debug_str	00000000 
00000183 l       .debug_str	00000000 
00000186 l       .debug_str	00000000 
00000189 l       .debug_str	00000000 
0000018e l       .debug_str	00000000 
0000019a l       .debug_str	00000000 
0000019f l       .debug_str	00000000 
000001a6 l       .debug_str	00000000 
000001b0 l       .debug_str	00000000 
000001bb l       .debug_str	00000000 
000001c8 l       .debug_str	00000000 
000001d6 l       .debug_str	00000000 
000001e0 l       .debug_str	00000000 
000001ee l       .debug_str	00000000 
000001f8 l       .debug_str	00000000 
00000201 l       .debug_str	00000000 
00000203 l       .debug_str	00000000 
0000020f l       .debug_str	00000000 
00000213 l       .debug_str	00000000 
00000219 l       .debug_str	00000000 
00000223 l       .debug_str	00000000 
00000227 l       .debug_str	00000000 
0000110d l       .debug_str	00000000 
0000023f l       .debug_str	00000000 
00000241 l       .debug_str	00000000 
00000250 l       .debug_str	00000000 
00000252 l       .debug_str	00000000 
0000028b l       .debug_str	00000000 
00000292 l       .debug_str	00000000 
00000299 l       .debug_str	00000000 
000002aa l       .debug_str	00000000 
000002ac l       .debug_str	00000000 
000002eb l       .debug_str	00000000 
000002f3 l       .debug_str	00000000 
00000326 l       .debug_str	00000000 
000003b1 l       .debug_str	00000000 
00000488 l       .debug_str	00000000 
000005ab l       .debug_str	00000000 
000005b3 l       .debug_str	00000000 
000005b8 l       .debug_str	00000000 
000005be l       .debug_str	00000000 
000005c2 l       .debug_str	00000000 
000005c5 l       .debug_str	00000000 
000005ee l       .debug_str	00000000 
00000624 l       .debug_str	00000000 
00000626 l       .debug_str	00000000 
00000653 l       .debug_str	00000000 
00000656 l       .debug_str	00000000 
000006a6 l       .debug_str	00000000 
00000703 l       .debug_str	00000000 
00000757 l       .debug_str	00000000 
000007ce l       .debug_str	00000000 
00000852 l       .debug_str	00000000 
000008cd l       .debug_str	00000000 
0000096b l       .debug_str	00000000 
00000a16 l       .debug_str	00000000 
00000ab8 l       .debug_str	00000000 
00000b9e l       .debug_str	00000000 
00000ca1 l       .debug_str	00000000 
00000da3 l       .debug_str	00000000 
00000da7 l       .debug_str	00000000 
00000dad l       .debug_str	00000000 
00000daf l       .debug_str	00000000 
00000ea9 l       .debug_str	00000000 
00000eab l       .debug_str	00000000 
00000f88 l       .debug_str	00000000 
00000f92 l       .debug_str	00000000 
00000fb9 l       .debug_str	00000000 
00000fbe l       .debug_str	00000000 
00000fc2 l       .debug_str	00000000 
00000fc8 l       .debug_str	00000000 
00000fcf l       .debug_str	00000000 
00000fd4 l       .debug_str	00000000 
00000fee l       .debug_str	00000000 
00000ff5 l       .debug_str	00000000 
00000ffe l       .debug_str	00000000 
0000100b l       .debug_str	00000000 
0000103b l       .debug_str	00000000 
0000106e l       .debug_str	00000000 
000010ba l       .debug_str	00000000 
000010c3 l       .debug_str	00000000 
00001106 l       .debug_str	00000000 
000011d3 l       .debug_str	00000000 
00000000 l    d  .text._ZN4core5slice14from_raw_parts17he5f5af62e55cd39bE	00000000 .text._ZN4core5slice14from_raw_parts17he5f5af62e55cd39bE
00000000 l    d  .text._ZN4core5slice18from_raw_parts_mut17h66990f4ddfd606a3E	00000000 .text._ZN4core5slice18from_raw_parts_mut17h66990f4ddfd606a3E
00000000 l    d  .debug_abbrev	00000000 .debug_abbrev
00000000 l    d  .debug_info	00000000 .debug_info
00000000 l    d  .debug_ranges	00000000 .debug_ranges
00000000 l    d  .debug_frame	00000000 .debug_frame
00000000 l    d  .debug_line	00000000 .debug_line
00000000         *UND*	00000000 _ZN4core3ptr20slice_from_raw_parts17haabc99850963e995E
00000000         *UND*	00000000 _ZN4core3ptr24slice_from_raw_parts_mut17hf072568f5c22159dE
00000000 g     F .text._ZN4core5slice14from_raw_parts17he5f5af62e55cd39bE	0000001e _ZN4core5slice14from_raw_parts17he5f5af62e55cd39bE
00000000 g     F .text._ZN4core5slice18from_raw_parts_mut17h66990f4ddfd606a3E	0000001e _ZN4core5slice18from_raw_parts_mut17h66990f4ddfd606a3E



Disassembly of section .text._ZN4core5slice14from_raw_parts17he5f5af62e55cd39bE:

00000000 <_ZN4core5slice14from_raw_parts17he5f5af62e55cd39bE>:
_ZN4core5slice14from_raw_parts17he5f5af62e55cd39bE():
/rustc/412f43ac5b4ae8c3599e71c6972112e9be4758fa/src/libcore/slice/mod.rs:5320
   0:	b580      	push	{r7, lr}
   2:	b084      	sub	sp, #16
   4:	9002      	str	r0, [sp, #8]
   6:	9103      	str	r1, [sp, #12]
/rustc/412f43ac5b4ae8c3599e71c6972112e9be4758fa/src/libcore/slice/mod.rs:5324
   8:	9802      	ldr	r0, [sp, #8]
   a:	9903      	ldr	r1, [sp, #12]
   c:	f7ff fffe 	bl	0 <_ZN4core3ptr20slice_from_raw_parts17haabc99850963e995E>
  10:	9001      	str	r0, [sp, #4]
  12:	9100      	str	r1, [sp, #0]
  14:	e7ff      	b.n	16 <_ZN4core5slice14from_raw_parts17he5f5af62e55cd39bE+0x16>
/rustc/412f43ac5b4ae8c3599e71c6972112e9be4758fa/src/libcore/slice/mod.rs:5325
  16:	9801      	ldr	r0, [sp, #4]
  18:	9900      	ldr	r1, [sp, #0]
  1a:	b004      	add	sp, #16
  1c:	bd80      	pop	{r7, pc}

Disassembly of section .text._ZN4core5slice18from_raw_parts_mut17h66990f4ddfd606a3E:

00000000 <_ZN4core5slice18from_raw_parts_mut17h66990f4ddfd606a3E>:
_ZN4core5slice18from_raw_parts_mut17h66990f4ddfd606a3E():
/rustc/412f43ac5b4ae8c3599e71c6972112e9be4758fa/src/libcore/slice/mod.rs:5358
   0:	b580      	push	{r7, lr}
   2:	b084      	sub	sp, #16
   4:	9002      	str	r0, [sp, #8]
   6:	9103      	str	r1, [sp, #12]
/rustc/412f43ac5b4ae8c3599e71c6972112e9be4758fa/src/libcore/slice/mod.rs:5362
   8:	9802      	ldr	r0, [sp, #8]
   a:	9903      	ldr	r1, [sp, #12]
   c:	f7ff fffe 	bl	0 <_ZN4core3ptr24slice_from_raw_parts_mut17hf072568f5c22159dE>
  10:	9001      	str	r0, [sp, #4]
  12:	9100      	str	r1, [sp, #0]
  14:	e7ff      	b.n	16 <_ZN4core5slice18from_raw_parts_mut17h66990f4ddfd606a3E+0x16>
/rustc/412f43ac5b4ae8c3599e71c6972112e9be4758fa/src/libcore/slice/mod.rs:5363
  16:	9801      	ldr	r0, [sp, #4]
  18:	9900      	ldr	r1, [sp, #0]
  1a:	b004      	add	sp, #16
  1c:	bd80      	pop	{r7, pc}

app-20d859f505b9d0c6.1zqip1qc0o74ogd5.rcgu.o:     file format elf32-littlearm

SYMBOL TABLE:
00000000 l    df *ABS*	00000000 1zqip1qc0o74ogd5
00000a3f l       .debug_str	00000000 
000029ed l       .debug_str	00000000 
00002a3d l       .debug_str	00000000 
000029dd l       .debug_str	00000000 
00002a32 l       .debug_str	00000000 
000029d5 l       .debug_str	00000000 
00002a27 l       .debug_str	00000000 
000029cf l       .debug_str	00000000 
000029fd l       .debug_str	00000000 
000029c5 l       .debug_str	00000000 
00000000 l       .debug_str	00000000 
00000041 l       .debug_str	00000000 
00000055 l       .debug_str	00000000 
00000074 l       .debug_str	00000000 
00000079 l       .debug_str	00000000 
00000080 l       .debug_str	00000000 
00000083 l       .debug_str	00000000 
00000088 l       .debug_str	00000000 
0000008d l       .debug_str	00000000 
00000094 l       .debug_str	00000000 
0000009a l       .debug_str	00000000 
000000a1 l       .debug_str	00000000 
000000a6 l       .debug_str	00000000 
000000b1 l       .debug_str	00000000 
000000ba l       .debug_str	00000000 
000000bf l       .debug_str	00000000 
000000c9 l       .debug_str	00000000 
000000cd l       .debug_str	00000000 
000000d1 l       .debug_str	00000000 
000000d5 l       .debug_str	00000000 
000000dc l       .debug_str	00000000 
000000de l       .debug_str	00000000 
000000ef l       .debug_str	00000000 
000000f1 l       .debug_str	00000000 
00000100 l       .debug_str	00000000 
00000109 l       .debug_str	00000000 
0000010f l       .debug_str	00000000 
00000112 l       .debug_str	00000000 
00000117 l       .debug_str	00000000 
00000120 l       .debug_str	00000000 
00000122 l       .debug_str	00000000 
00000126 l       .debug_str	00000000 
00000128 l       .debug_str	00000000 
00000132 l       .debug_str	00000000 
00000138 l       .debug_str	00000000 
0000013e l       .debug_str	00000000 
0000014a l       .debug_str	00000000 
00000150 l       .debug_str	00000000 
00000155 l       .debug_str	00000000 
00000158 l       .debug_str	00000000 
0000015b l       .debug_str	00000000 
0000015e l       .debug_str	00000000 
00000161 l       .debug_str	00000000 
00000166 l       .debug_str	00000000 
00000172 l       .debug_str	00000000 
00000177 l       .debug_str	00000000 
0000017e l       .debug_str	00000000 
00000188 l       .debug_str	00000000 
00000193 l       .debug_str	00000000 
000001a0 l       .debug_str	00000000 
000001ae l       .debug_str	00000000 
000001b8 l       .debug_str	00000000 
000001c6 l       .debug_str	00000000 
000001d0 l       .debug_str	00000000 
000001d9 l       .debug_str	00000000 
000001e5 l       .debug_str	00000000 
000001e9 l       .debug_str	00000000 
000001ef l       .debug_str	00000000 
000001f1 l       .debug_str	00000000 
0000022a l       .debug_str	00000000 
00000237 l       .debug_str	00000000 
0000023b l       .debug_str	00000000 
00000247 l       .debug_str	00000000 
00000255 l       .debug_str	00000000 
00000260 l       .debug_str	00000000 
000002a7 l       .debug_str	00000000 
000002d1 l       .debug_str	00000000 
000002d7 l       .debug_str	00000000 
000002dc l       .debug_str	00000000 
000002e6 l       .debug_str	00000000 
000002f3 l       .debug_str	00000000 
000002f7 l       .debug_str	00000000 
00000300 l       .debug_str	00000000 
0000030a l       .debug_str	00000000 
00000311 l       .debug_str	00000000 
00000317 l       .debug_str	00000000 
0000031c l       .debug_str	00000000 
00000328 l       .debug_str	00000000 
00000331 l       .debug_str	00000000 
00000338 l       .debug_str	00000000 
0000033a l       .debug_str	00000000 
0000033e l       .debug_str	00000000 
00000345 l       .debug_str	00000000 
00000349 l       .debug_str	00000000 
00000356 l       .debug_str	00000000 
0000035d l       .debug_str	00000000 
00000360 l       .debug_str	00000000 
00000366 l       .debug_str	00000000 
00000374 l       .debug_str	00000000 
00000382 l       .debug_str	00000000 
00000387 l       .debug_str	00000000 
0000038f l       .debug_str	00000000 
00000397 l       .debug_str	00000000 
00000399 l       .debug_str	00000000 
000003b5 l       .debug_str	00000000 
000003bd l       .debug_str	00000000 
000003cd l       .debug_str	00000000 
00000412 l       .debug_str	00000000 
0000047f l       .debug_str	00000000 
00000515 l       .debug_str	00000000 
000005d4 l       .debug_str	00000000 
000005dc l       .debug_str	00000000 
000005e1 l       .debug_str	00000000 
000005e7 l       .debug_str	00000000 
000005eb l       .debug_str	00000000 
000005ee l       .debug_str	00000000 
00000617 l       .debug_str	00000000 
0000064d l       .debug_str	00000000 
0000064f l       .debug_str	00000000 
0000067c l       .debug_str	00000000 
0000067f l       .debug_str	00000000 
000006cf l       .debug_str	00000000 
0000072c l       .debug_str	00000000 
00000780 l       .debug_str	00000000 
000007f7 l       .debug_str	00000000 
0000087b l       .debug_str	00000000 
000008f6 l       .debug_str	00000000 
00000994 l       .debug_str	00000000 
000028e8 l       .debug_str	00000000 
00000ae1 l       .debug_str	00000000 
00000ba6 l       .debug_str	00000000 
00000c78 l       .debug_str	00000000 
00000d41 l       .debug_str	00000000 
00000e2b l       .debug_str	00000000 
00000f32 l       .debug_str	00000000 
00001038 l       .debug_str	00000000 
0000103c l       .debug_str	00000000 
0000103e l       .debug_str	00000000 
0000113c l       .debug_str	00000000 
0000123d l       .debug_str	00000000 
0000123f l       .debug_str	00000000 
0000131f l       .debug_str	00000000 
00001419 l       .debug_str	00000000 
0000141e l       .debug_str	00000000 
00001427 l       .debug_str	00000000 
0000142e l       .debug_str	00000000 
00001432 l       .debug_str	00000000 
00001438 l       .debug_str	00000000 
00001441 l       .debug_str	00000000 
00001446 l       .debug_str	00000000 
0000144a l       .debug_str	00000000 
0000145b l       .debug_str	00000000 
00001493 l       .debug_str	00000000 
000014a2 l       .debug_str	00000000 
000014ce l       .debug_str	00000000 
00001513 l       .debug_str	00000000 
0000154c l       .debug_str	00000000 
000015e3 l       .debug_str	00000000 
00001681 l       .debug_str	00000000 
0000173c l       .debug_str	00000000 
000017f6 l       .debug_str	00000000 
000018a8 l       .debug_str	00000000 
0000193d l       .debug_str	00000000 
000019e9 l       .debug_str	00000000 
000019f2 l       .debug_str	00000000 
00001a07 l       .debug_str	00000000 
00001a10 l       .debug_str	00000000 
00001a1f l       .debug_str	00000000 
00001a2a l       .debug_str	00000000 
00001a71 l       .debug_str	00000000 
00001a9b l       .debug_str	00000000 
00001aa3 l       .debug_str	00000000 
00001aa8 l       .debug_str	00000000 
00001aae l       .debug_str	00000000 
00001ab2 l       .debug_str	00000000 
00001ab9 l       .debug_str	00000000 
00001ac6 l       .debug_str	00000000 
00001b0d l       .debug_str	00000000 
00001b3b l       .debug_str	00000000 
00001b42 l       .debug_str	00000000 
00001b49 l       .debug_str	00000000 
00001b51 l       .debug_str	00000000 
00001b5d l       .debug_str	00000000 
00001b64 l       .debug_str	00000000 
00001b6c l       .debug_str	00000000 
00001b74 l       .debug_str	00000000 
00001b7b l       .debug_str	00000000 
00001b8f l       .debug_str	00000000 
00001b9b l       .debug_str	00000000 
00001ba7 l       .debug_str	00000000 
00001bb1 l       .debug_str	00000000 
00001bba l       .debug_str	00000000 
00001bc3 l       .debug_str	00000000 
00001bcc l       .debug_str	00000000 
00001bd4 l       .debug_str	00000000 
00001be0 l       .debug_str	00000000 
00001be8 l       .debug_str	00000000 
00001bfa l       .debug_str	00000000 
00001c03 l       .debug_str	00000000 
00001c36 l       .debug_str	00000000 
00001c6a l       .debug_str	00000000 
00001cb4 l       .debug_str	00000000 
00001cbf l       .debug_str	00000000 
00001cd5 l       .debug_str	00000000 
00001ce0 l       .debug_str	00000000 
00001ceb l       .debug_str	00000000 
00001cf3 l       .debug_str	00000000 
00001d01 l       .debug_str	00000000 
00001d1b l       .debug_str	00000000 
00001d24 l       .debug_str	00000000 
00001d5e l       .debug_str	00000000 
00001d6a l       .debug_str	00000000 
00001db1 l       .debug_str	00000000 
00001ddd l       .debug_str	00000000 
00001e50 l       .debug_str	00000000 
00001e5b l       .debug_str	00000000 
00001e67 l       .debug_str	00000000 
00001e6d l       .debug_str	00000000 
00001e74 l       .debug_str	00000000 
00001e79 l       .debug_str	00000000 
00001e83 l       .debug_str	00000000 
00001e8c l       .debug_str	00000000 
00001e93 l       .debug_str	00000000 
00001e9a l       .debug_str	00000000 
00001eab l       .debug_str	00000000 
00001eea l       .debug_str	00000000 
00001f1d l       .debug_str	00000000 
00001fa8 l       .debug_str	00000000 
0000207f l       .debug_str	00000000 
000021a2 l       .debug_str	00000000 
00002219 l       .debug_str	00000000 
0000229d l       .debug_str	00000000 
00002318 l       .debug_str	00000000 
000023b6 l       .debug_str	00000000 
00002461 l       .debug_str	00000000 
00002503 l       .debug_str	00000000 
000025e9 l       .debug_str	00000000 
000026ec l       .debug_str	00000000 
000027ee l       .debug_str	00000000 
000029f8 l       .debug_str	00000000 
00000000 l    d  .text._ZN5druid6widget9widgetbox18WidgetBox$LT$D$GT$3new17h0c4e9b2911c13a75E	00000000 .text._ZN5druid6widget9widgetbox18WidgetBox$LT$D$GT$3new17h0c4e9b2911c13a75E
00000000 l    d  .text._ZN5druid6widget9widgetbox18WidgetBox$LT$D$GT$3new17h44448a8683fd4017E	00000000 .text._ZN5druid6widget9widgetbox18WidgetBox$LT$D$GT$3new17h44448a8683fd4017E
00000000 l    d  .text._ZN5druid6widget9widgetbox18WidgetBox$LT$D$GT$3new17h5625da0e7209a390E	00000000 .text._ZN5druid6widget9widgetbox18WidgetBox$LT$D$GT$3new17h5625da0e7209a390E
00000000 l    d  .text._ZN5druid6widget9widgetbox18WidgetBox$LT$D$GT$3new17h6638e13dd42862d3E	00000000 .text._ZN5druid6widget9widgetbox18WidgetBox$LT$D$GT$3new17h6638e13dd42862d3E
00000000 l    d  .text._ZN83_$LT$druid..widget..widgetbox..WidgetBox$LT$D$GT$$u20$as$u20$core..clone..Clone$GT$5clone17h8e35b69503584243E	00000000 .text._ZN83_$LT$druid..widget..widgetbox..WidgetBox$LT$D$GT$$u20$as$u20$core..clone..Clone$GT$5clone17h8e35b69503584243E
00000000 l    d  .debug_loc	00000000 .debug_loc
00000000 l    d  .debug_abbrev	00000000 .debug_abbrev
00000000 l    d  .debug_info	00000000 .debug_info
00000000 l    d  .debug_ranges	00000000 .debug_ranges
00000000 l    d  .debug_frame	00000000 .debug_frame
00000000 l    d  .debug_line	00000000 .debug_line
00000000         *UND*	00000000 _ZN117_$LT$druid..widget..widgetbox..WidgetBox$LT$u32$GT$$u20$as$u20$druid..widget..widgetbox..GlobalWidgets$LT$u32$GT$$GT$10add_widget17h6cb15759ce585733E
00000000         *UND*	00000000 .hidden _ZN4core5clone5impls52_$LT$impl$u20$core..clone..Clone$u20$for$u20$u32$GT$5clone17h4ab28dfacb141a1cE
00000000 g     F .text._ZN5druid6widget9widgetbox18WidgetBox$LT$D$GT$3new17h0c4e9b2911c13a75E	00000062 _ZN5druid6widget9widgetbox18WidgetBox$LT$D$GT$3new17h0c4e9b2911c13a75E
00000000 g     F .text._ZN5druid6widget9widgetbox18WidgetBox$LT$D$GT$3new17h44448a8683fd4017E	00000062 _ZN5druid6widget9widgetbox18WidgetBox$LT$D$GT$3new17h44448a8683fd4017E
00000000 g     F .text._ZN5druid6widget9widgetbox18WidgetBox$LT$D$GT$3new17h5625da0e7209a390E	00000062 _ZN5druid6widget9widgetbox18WidgetBox$LT$D$GT$3new17h5625da0e7209a390E
00000000 g     F .text._ZN5druid6widget9widgetbox18WidgetBox$LT$D$GT$3new17h6638e13dd42862d3E	00000062 _ZN5druid6widget9widgetbox18WidgetBox$LT$D$GT$3new17h6638e13dd42862d3E
00000000         *UND*	00000000 _ZN73_$LT$core..marker..PhantomData$LT$T$GT$$u20$as$u20$core..clone..Clone$GT$5clone17h2ba85523f8313072E
00000000         *UND*	00000000 _ZN75_$LT$druid..widget..align..Align$LT$T$GT$$u20$as$u20$core..clone..Clone$GT$5clone17hd77e56ced3301779E
00000000         *UND*	00000000 _ZN75_$LT$druid..widget..label..Label$LT$T$GT$$u20$as$u20$core..clone..Clone$GT$5clone17hcf16d333f98f0c7bE
00000000         *UND*	00000000 _ZN77_$LT$druid..widget..button..Button$LT$T$GT$$u20$as$u20$core..clone..Clone$GT$5clone17h25941da48aa3a6beE
00000000         *UND*	00000000 _ZN79_$LT$druid..widget..align..Align$LT$T$GT$$u20$as$u20$druid..Widget$LT$T$GT$$GT$6get_id17haaf3069bb0456830E
00000000         *UND*	00000000 _ZN79_$LT$druid..widget..align..Align$LT$T$GT$$u20$as$u20$druid..Widget$LT$T$GT$$GT$7to_type17hfb67a2bd11e889deE
00000000         *UND*	00000000 _ZN79_$LT$druid..widget..label..Label$LT$T$GT$$u20$as$u20$druid..Widget$LT$T$GT$$GT$6get_id17h395f800cf4d9a120E
00000000         *UND*	00000000 _ZN79_$LT$druid..widget..label..Label$LT$T$GT$$u20$as$u20$druid..Widget$LT$T$GT$$GT$7to_type17h774283aaee5a5f8cE
00000000         *UND*	00000000 _ZN79_$LT$druid..widget..padding..Padding$LT$T$GT$$u20$as$u20$core..clone..Clone$GT$5clone17h21cf3974cea63007E
00000000         *UND*	00000000 _ZN81_$LT$druid..widget..button..Button$LT$T$GT$$u20$as$u20$druid..Widget$LT$T$GT$$GT$6get_id17h75264bb995290264E
00000000         *UND*	00000000 _ZN81_$LT$druid..widget..button..Button$LT$T$GT$$u20$as$u20$druid..Widget$LT$T$GT$$GT$7to_type17hb8dfd7ee280d8710E
00000000         *UND*	00000000 _ZN83_$LT$druid..widget..padding..Padding$LT$T$GT$$u20$as$u20$druid..Widget$LT$T$GT$$GT$6get_id17hf873a4f520c643beE
00000000         *UND*	00000000 _ZN83_$LT$druid..widget..padding..Padding$LT$T$GT$$u20$as$u20$druid..Widget$LT$T$GT$$GT$7to_type17h067fbcd879923887E
00000000 g     F .text._ZN83_$LT$druid..widget..widgetbox..WidgetBox$LT$D$GT$$u20$as$u20$core..clone..Clone$GT$5clone17h8e35b69503584243E	0000002a _ZN83_$LT$druid..widget..widgetbox..WidgetBox$LT$D$GT$$u20$as$u20$core..clone..Clone$GT$5clone17h8e35b69503584243E
00000000         *UND*	00000000 __aeabi_memcpy8



Disassembly of section .text._ZN5druid6widget9widgetbox18WidgetBox$LT$D$GT$3new17h0c4e9b2911c13a75E:

00000000 <_ZN5druid6widget9widgetbox18WidgetBox$LT$D$GT$3new17h0c4e9b2911c13a75E>:
_ZN5druid6widget9widgetbox18WidgetBox$LT$D$GT$3new17h0c4e9b2911c13a75E():
C:\druid-embedded\druid\src\widget/widgetbox.rs:71
}

/// Generic implementation of `WidgetBox`
impl<D: Data + 'static + Default> WidgetBox<D> {
    /// Create a new box for the `Widget`
    pub fn new<W: Widget<D> + Clone>(widget: W) -> Self {
   0:	b580      	push	{r7, lr}
   2:	f5ad 6da5 	sub.w	sp, sp, #1320	; 0x528
   6:	a904      	add	r1, sp, #16
C:\druid-embedded\druid\src\widget/widgetbox.rs:72
        let id = widget.clone().get_id();
   8:	9002      	str	r0, [sp, #8]
   a:	4608      	mov	r0, r1
   c:	9902      	ldr	r1, [sp, #8]
   e:	f7ff fffe 	bl	0 <_ZN75_$LT$druid..widget..align..Align$LT$T$GT$$u20$as$u20$core..clone..Clone$GT$5clone17hd77e56ced3301779E>
  12:	e7ff      	b.n	14 <_ZN5druid6widget9widgetbox18WidgetBox$LT$D$GT$3new17h0c4e9b2911c13a75E+0x14>
  14:	a804      	add	r0, sp, #16
  16:	f7ff fffe 	bl	0 <_ZN79_$LT$druid..widget..align..Align$LT$T$GT$$u20$as$u20$druid..Widget$LT$T$GT$$GT$6get_id17haaf3069bb0456830E>
  1a:	9003      	str	r0, [sp, #12]
  1c:	e7ff      	b.n	1e <_ZN5druid6widget9widgetbox18WidgetBox$LT$D$GT$3new17h0c4e9b2911c13a75E+0x1e>
  1e:	a8a6      	add	r0, sp, #664	; 0x298
  20:	2270      	movs	r2, #112	; 0x70
C:\druid-embedded\druid\src\widget/widgetbox.rs:73
        let widget_type: WidgetType<D> = widget.to_type();
  22:	9001      	str	r0, [sp, #4]
  24:	9902      	ldr	r1, [sp, #8]
  26:	f7ff fffe 	bl	0 <__aeabi_memcpy8>
  2a:	a820      	add	r0, sp, #128	; 0x80
  2c:	9901      	ldr	r1, [sp, #4]
  2e:	f7ff fffe 	bl	0 <_ZN79_$LT$druid..widget..align..Align$LT$T$GT$$u20$as$u20$druid..Widget$LT$T$GT$$GT$7to_type17hfb67a2bd11e889deE>
  32:	e7ff      	b.n	34 <_ZN5druid6widget9widgetbox18WidgetBox$LT$D$GT$3new17h0c4e9b2911c13a75E+0x34>
C:\druid-embedded\druid\src\widget/widgetbox.rs:75
        let widget_box: WidgetBox<D> = WidgetBox(
            id,
  34:	9803      	ldr	r0, [sp, #12]
C:\druid-embedded\druid\src\widget/widgetbox.rs:74
        let widget_box: WidgetBox<D> = WidgetBox(
  36:	90c2      	str	r0, [sp, #776]	; 0x308
  38:	a8c2      	add	r0, sp, #776	; 0x308
C:\druid-embedded\druid\src\widget/widgetbox.rs:78
            PhantomData,
        );
        widget_box.clone().add_widget(widget_type);
  3a:	f7ff fffe 	bl	0 <_ZN5druid6widget9widgetbox18WidgetBox$LT$D$GT$3new17h0c4e9b2911c13a75E>
  3e:	90c3      	str	r0, [sp, #780]	; 0x30c
  40:	e7ff      	b.n	42 <_ZN5druid6widget9widgetbox18WidgetBox$LT$D$GT$3new17h0c4e9b2911c13a75E+0x42>
  42:	a8c4      	add	r0, sp, #784	; 0x310
  44:	a920      	add	r1, sp, #128	; 0x80
  46:	f44f 7206 	mov.w	r2, #536	; 0x218
  4a:	9000      	str	r0, [sp, #0]
  4c:	f7ff fffe 	bl	0 <__aeabi_memcpy8>
  50:	a8c3      	add	r0, sp, #780	; 0x30c
  52:	9900      	ldr	r1, [sp, #0]
  54:	f7ff fffe 	bl	0 <_ZN117_$LT$druid..widget..widgetbox..WidgetBox$LT$u32$GT$$u20$as$u20$druid..widget..widgetbox..GlobalWidgets$LT$u32$GT$$GT$10add_widget17h6cb15759ce585733E>
  58:	e7ff      	b.n	5a <_ZN5druid6widget9widgetbox18WidgetBox$LT$D$GT$3new17h0c4e9b2911c13a75E+0x5a>
C:\druid-embedded\druid\src\widget/widgetbox.rs:79
        widget_box
  5a:	98c2      	ldr	r0, [sp, #776]	; 0x308
C:\druid-embedded\druid\src\widget/widgetbox.rs:80
    }
  5c:	f50d 6da5 	add.w	sp, sp, #1320	; 0x528
  60:	bd80      	pop	{r7, pc}

Disassembly of section .text._ZN5druid6widget9widgetbox18WidgetBox$LT$D$GT$3new17h44448a8683fd4017E:

00000000 <_ZN5druid6widget9widgetbox18WidgetBox$LT$D$GT$3new17h44448a8683fd4017E>:
_ZN5druid6widget9widgetbox18WidgetBox$LT$D$GT$3new17h44448a8683fd4017E():
C:\druid-embedded\druid\src\widget/widgetbox.rs:71
    pub fn new<W: Widget<D> + Clone>(widget: W) -> Self {
   0:	b580      	push	{r7, lr}
   2:	f5ad 6da7 	sub.w	sp, sp, #1336	; 0x538
   6:	a904      	add	r1, sp, #16
C:\druid-embedded\druid\src\widget/widgetbox.rs:72
        let id = widget.clone().get_id();
   8:	9002      	str	r0, [sp, #8]
   a:	4608      	mov	r0, r1
   c:	9902      	ldr	r1, [sp, #8]
   e:	f7ff fffe 	bl	0 <_ZN75_$LT$druid..widget..label..Label$LT$T$GT$$u20$as$u20$core..clone..Clone$GT$5clone17hcf16d333f98f0c7bE>
  12:	e7ff      	b.n	14 <_ZN5druid6widget9widgetbox18WidgetBox$LT$D$GT$3new17h44448a8683fd4017E+0x14>
  14:	a804      	add	r0, sp, #16
  16:	f7ff fffe 	bl	0 <_ZN79_$LT$druid..widget..label..Label$LT$T$GT$$u20$as$u20$druid..Widget$LT$T$GT$$GT$6get_id17h395f800cf4d9a120E>
  1a:	9003      	str	r0, [sp, #12]
  1c:	e7ff      	b.n	1e <_ZN5druid6widget9widgetbox18WidgetBox$LT$D$GT$3new17h44448a8683fd4017E+0x1e>
  1e:	a8a8      	add	r0, sp, #672	; 0x2a0
  20:	2278      	movs	r2, #120	; 0x78
C:\druid-embedded\druid\src\widget/widgetbox.rs:73
        let widget_type: WidgetType<D> = widget.to_type();
  22:	9001      	str	r0, [sp, #4]
  24:	9902      	ldr	r1, [sp, #8]
  26:	f7ff fffe 	bl	0 <__aeabi_memcpy8>
  2a:	a822      	add	r0, sp, #136	; 0x88
  2c:	9901      	ldr	r1, [sp, #4]
  2e:	f7ff fffe 	bl	0 <_ZN79_$LT$druid..widget..label..Label$LT$T$GT$$u20$as$u20$druid..Widget$LT$T$GT$$GT$7to_type17h774283aaee5a5f8cE>
  32:	e7ff      	b.n	34 <_ZN5druid6widget9widgetbox18WidgetBox$LT$D$GT$3new17h44448a8683fd4017E+0x34>
C:\druid-embedded\druid\src\widget/widgetbox.rs:75
            id,
  34:	9803      	ldr	r0, [sp, #12]
C:\druid-embedded\druid\src\widget/widgetbox.rs:74
        let widget_box: WidgetBox<D> = WidgetBox(
  36:	90c6      	str	r0, [sp, #792]	; 0x318
  38:	a8c6      	add	r0, sp, #792	; 0x318
C:\druid-embedded\druid\src\widget/widgetbox.rs:78
        widget_box.clone().add_widget(widget_type);
  3a:	f7ff fffe 	bl	0 <_ZN5druid6widget9widgetbox18WidgetBox$LT$D$GT$3new17h44448a8683fd4017E>
  3e:	90c7      	str	r0, [sp, #796]	; 0x31c
  40:	e7ff      	b.n	42 <_ZN5druid6widget9widgetbox18WidgetBox$LT$D$GT$3new17h44448a8683fd4017E+0x42>
  42:	a8c8      	add	r0, sp, #800	; 0x320
  44:	a922      	add	r1, sp, #136	; 0x88
  46:	f44f 7206 	mov.w	r2, #536	; 0x218
  4a:	9000      	str	r0, [sp, #0]
  4c:	f7ff fffe 	bl	0 <__aeabi_memcpy8>
  50:	a8c7      	add	r0, sp, #796	; 0x31c
  52:	9900      	ldr	r1, [sp, #0]
  54:	f7ff fffe 	bl	0 <_ZN117_$LT$druid..widget..widgetbox..WidgetBox$LT$u32$GT$$u20$as$u20$druid..widget..widgetbox..GlobalWidgets$LT$u32$GT$$GT$10add_widget17h6cb15759ce585733E>
  58:	e7ff      	b.n	5a <_ZN5druid6widget9widgetbox18WidgetBox$LT$D$GT$3new17h44448a8683fd4017E+0x5a>
C:\druid-embedded\druid\src\widget/widgetbox.rs:79
        widget_box
  5a:	98c6      	ldr	r0, [sp, #792]	; 0x318
C:\druid-embedded\druid\src\widget/widgetbox.rs:80
    }
  5c:	f50d 6da7 	add.w	sp, sp, #1336	; 0x538
  60:	bd80      	pop	{r7, pc}

Disassembly of section .text._ZN5druid6widget9widgetbox18WidgetBox$LT$D$GT$3new17h5625da0e7209a390E:

00000000 <_ZN5druid6widget9widgetbox18WidgetBox$LT$D$GT$3new17h5625da0e7209a390E>:
_ZN5druid6widget9widgetbox18WidgetBox$LT$D$GT$3new17h5625da0e7209a390E():
C:\druid-embedded\druid\src\widget/widgetbox.rs:71
    pub fn new<W: Widget<D> + Clone>(widget: W) -> Self {
   0:	b580      	push	{r7, lr}
   2:	f5ad 6da1 	sub.w	sp, sp, #1288	; 0x508
   6:	a904      	add	r1, sp, #16
C:\druid-embedded\druid\src\widget/widgetbox.rs:72
        let id = widget.clone().get_id();
   8:	9002      	str	r0, [sp, #8]
   a:	4608      	mov	r0, r1
   c:	9902      	ldr	r1, [sp, #8]
   e:	f7ff fffe 	bl	0 <_ZN79_$LT$druid..widget..padding..Padding$LT$T$GT$$u20$as$u20$core..clone..Clone$GT$5clone17h21cf3974cea63007E>
  12:	e7ff      	b.n	14 <_ZN5druid6widget9widgetbox18WidgetBox$LT$D$GT$3new17h5625da0e7209a390E+0x14>
  14:	a804      	add	r0, sp, #16
  16:	f7ff fffe 	bl	0 <_ZN83_$LT$druid..widget..padding..Padding$LT$T$GT$$u20$as$u20$druid..Widget$LT$T$GT$$GT$6get_id17hf873a4f520c643beE>
  1a:	9003      	str	r0, [sp, #12]
  1c:	e7ff      	b.n	1e <_ZN5druid6widget9widgetbox18WidgetBox$LT$D$GT$3new17h5625da0e7209a390E+0x1e>
  1e:	a8a2      	add	r0, sp, #648	; 0x288
  20:	2260      	movs	r2, #96	; 0x60
C:\druid-embedded\druid\src\widget/widgetbox.rs:73
        let widget_type: WidgetType<D> = widget.to_type();
  22:	9001      	str	r0, [sp, #4]
  24:	9902      	ldr	r1, [sp, #8]
  26:	f7ff fffe 	bl	0 <__aeabi_memcpy8>
  2a:	a81c      	add	r0, sp, #112	; 0x70
  2c:	9901      	ldr	r1, [sp, #4]
  2e:	f7ff fffe 	bl	0 <_ZN83_$LT$druid..widget..padding..Padding$LT$T$GT$$u20$as$u20$druid..Widget$LT$T$GT$$GT$7to_type17h067fbcd879923887E>
  32:	e7ff      	b.n	34 <_ZN5druid6widget9widgetbox18WidgetBox$LT$D$GT$3new17h5625da0e7209a390E+0x34>
C:\druid-embedded\druid\src\widget/widgetbox.rs:75
            id,
  34:	9803      	ldr	r0, [sp, #12]
C:\druid-embedded\druid\src\widget/widgetbox.rs:74
        let widget_box: WidgetBox<D> = WidgetBox(
  36:	90ba      	str	r0, [sp, #744]	; 0x2e8
  38:	a8ba      	add	r0, sp, #744	; 0x2e8
C:\druid-embedded\druid\src\widget/widgetbox.rs:78
        widget_box.clone().add_widget(widget_type);
  3a:	f7ff fffe 	bl	0 <_ZN5druid6widget9widgetbox18WidgetBox$LT$D$GT$3new17h5625da0e7209a390E>
  3e:	90bb      	str	r0, [sp, #748]	; 0x2ec
  40:	e7ff      	b.n	42 <_ZN5druid6widget9widgetbox18WidgetBox$LT$D$GT$3new17h5625da0e7209a390E+0x42>
  42:	a8bc      	add	r0, sp, #752	; 0x2f0
  44:	a91c      	add	r1, sp, #112	; 0x70
  46:	f44f 7206 	mov.w	r2, #536	; 0x218
  4a:	9000      	str	r0, [sp, #0]
  4c:	f7ff fffe 	bl	0 <__aeabi_memcpy8>
  50:	a8bb      	add	r0, sp, #748	; 0x2ec
  52:	9900      	ldr	r1, [sp, #0]
  54:	f7ff fffe 	bl	0 <_ZN117_$LT$druid..widget..widgetbox..WidgetBox$LT$u32$GT$$u20$as$u20$druid..widget..widgetbox..GlobalWidgets$LT$u32$GT$$GT$10add_widget17h6cb15759ce585733E>
  58:	e7ff      	b.n	5a <_ZN5druid6widget9widgetbox18WidgetBox$LT$D$GT$3new17h5625da0e7209a390E+0x5a>
C:\druid-embedded\druid\src\widget/widgetbox.rs:79
        widget_box
  5a:	98ba      	ldr	r0, [sp, #744]	; 0x2e8
C:\druid-embedded\druid\src\widget/widgetbox.rs:80
    }
  5c:	f50d 6da1 	add.w	sp, sp, #1288	; 0x508
  60:	bd80      	pop	{r7, pc}

Disassembly of section .text._ZN5druid6widget9widgetbox18WidgetBox$LT$D$GT$3new17h6638e13dd42862d3E:

00000000 <_ZN5druid6widget9widgetbox18WidgetBox$LT$D$GT$3new17h6638e13dd42862d3E>:
_ZN5druid6widget9widgetbox18WidgetBox$LT$D$GT$3new17h6638e13dd42862d3E():
C:\druid-embedded\druid\src\widget/widgetbox.rs:71
    pub fn new<W: Widget<D> + Clone>(widget: W) -> Self {
   0:	b580      	push	{r7, lr}
   2:	f5ad 6da9 	sub.w	sp, sp, #1352	; 0x548
   6:	a904      	add	r1, sp, #16
C:\druid-embedded\druid\src\widget/widgetbox.rs:72
        let id = widget.clone().get_id();
   8:	9002      	str	r0, [sp, #8]
   a:	4608      	mov	r0, r1
   c:	9902      	ldr	r1, [sp, #8]
   e:	f7ff fffe 	bl	0 <_ZN77_$LT$druid..widget..button..Button$LT$T$GT$$u20$as$u20$core..clone..Clone$GT$5clone17h25941da48aa3a6beE>
  12:	e7ff      	b.n	14 <_ZN5druid6widget9widgetbox18WidgetBox$LT$D$GT$3new17h6638e13dd42862d3E+0x14>
  14:	a804      	add	r0, sp, #16
  16:	f7ff fffe 	bl	0 <_ZN81_$LT$druid..widget..button..Button$LT$T$GT$$u20$as$u20$druid..Widget$LT$T$GT$$GT$6get_id17h75264bb995290264E>
  1a:	9003      	str	r0, [sp, #12]
  1c:	e7ff      	b.n	1e <_ZN5druid6widget9widgetbox18WidgetBox$LT$D$GT$3new17h6638e13dd42862d3E+0x1e>
  1e:	a8aa      	add	r0, sp, #680	; 0x2a8
  20:	2280      	movs	r2, #128	; 0x80
C:\druid-embedded\druid\src\widget/widgetbox.rs:73
        let widget_type: WidgetType<D> = widget.to_type();
  22:	9001      	str	r0, [sp, #4]
  24:	9902      	ldr	r1, [sp, #8]
  26:	f7ff fffe 	bl	0 <__aeabi_memcpy8>
  2a:	a824      	add	r0, sp, #144	; 0x90
  2c:	9901      	ldr	r1, [sp, #4]
  2e:	f7ff fffe 	bl	0 <_ZN81_$LT$druid..widget..button..Button$LT$T$GT$$u20$as$u20$druid..Widget$LT$T$GT$$GT$7to_type17hb8dfd7ee280d8710E>
  32:	e7ff      	b.n	34 <_ZN5druid6widget9widgetbox18WidgetBox$LT$D$GT$3new17h6638e13dd42862d3E+0x34>
C:\druid-embedded\druid\src\widget/widgetbox.rs:75
            id,
  34:	9803      	ldr	r0, [sp, #12]
C:\druid-embedded\druid\src\widget/widgetbox.rs:74
        let widget_box: WidgetBox<D> = WidgetBox(
  36:	90ca      	str	r0, [sp, #808]	; 0x328
  38:	a8ca      	add	r0, sp, #808	; 0x328
C:\druid-embedded\druid\src\widget/widgetbox.rs:78
        widget_box.clone().add_widget(widget_type);
  3a:	f7ff fffe 	bl	0 <_ZN5druid6widget9widgetbox18WidgetBox$LT$D$GT$3new17h6638e13dd42862d3E>
  3e:	90cb      	str	r0, [sp, #812]	; 0x32c
  40:	e7ff      	b.n	42 <_ZN5druid6widget9widgetbox18WidgetBox$LT$D$GT$3new17h6638e13dd42862d3E+0x42>
  42:	a8cc      	add	r0, sp, #816	; 0x330
  44:	a924      	add	r1, sp, #144	; 0x90
  46:	f44f 7206 	mov.w	r2, #536	; 0x218
  4a:	9000      	str	r0, [sp, #0]
  4c:	f7ff fffe 	bl	0 <__aeabi_memcpy8>
  50:	a8cb      	add	r0, sp, #812	; 0x32c
  52:	9900      	ldr	r1, [sp, #0]
  54:	f7ff fffe 	bl	0 <_ZN117_$LT$druid..widget..widgetbox..WidgetBox$LT$u32$GT$$u20$as$u20$druid..widget..widgetbox..GlobalWidgets$LT$u32$GT$$GT$10add_widget17h6cb15759ce585733E>
  58:	e7ff      	b.n	5a <_ZN5druid6widget9widgetbox18WidgetBox$LT$D$GT$3new17h6638e13dd42862d3E+0x5a>
C:\druid-embedded\druid\src\widget/widgetbox.rs:79
        widget_box
  5a:	98ca      	ldr	r0, [sp, #808]	; 0x328
C:\druid-embedded\druid\src\widget/widgetbox.rs:80
    }
  5c:	f50d 6da9 	add.w	sp, sp, #1352	; 0x548
  60:	bd80      	pop	{r7, pc}

Disassembly of section .text._ZN83_$LT$druid..widget..widgetbox..WidgetBox$LT$D$GT$$u20$as$u20$core..clone..Clone$GT$5clone17h8e35b69503584243E:

00000000 <_ZN83_$LT$druid..widget..widgetbox..WidgetBox$LT$D$GT$$u20$as$u20$core..clone..Clone$GT$5clone17h8e35b69503584243E>:
_ZN83_$LT$druid..widget..widgetbox..WidgetBox$LT$D$GT$$u20$as$u20$core..clone..Clone$GT$5clone17h8e35b69503584243E():
C:\druid-embedded\druid\src\widget/widgetbox.rs:47
#[derive(Clone, Default)]
   0:	b580      	push	{r7, lr}
   2:	b086      	sub	sp, #24
   4:	9002      	str	r0, [sp, #8]
C:\druid-embedded\druid\src\widget/widgetbox.rs:49
    u32,  //  Widget ID
   6:	9802      	ldr	r0, [sp, #8]
   8:	9004      	str	r0, [sp, #16]
C:\druid-embedded\druid\src\widget/widgetbox.rs:50
    PhantomData<D>,  //  Needed to do compile-time checking for `Data`
   a:	9802      	ldr	r0, [sp, #8]
   c:	9005      	str	r0, [sp, #20]
C:\druid-embedded\druid\src\widget/widgetbox.rs:49
    u32,  //  Widget ID
   e:	9804      	ldr	r0, [sp, #16]
  10:	f7ff fffe 	bl	0 <_ZN4core5clone5impls52_$LT$impl$u20$core..clone..Clone$u20$for$u20$u32$GT$5clone17h4ab28dfacb141a1cE>
  14:	9001      	str	r0, [sp, #4]
  16:	e7ff      	b.n	18 <_ZN83_$LT$druid..widget..widgetbox..WidgetBox$LT$D$GT$$u20$as$u20$core..clone..Clone$GT$5clone17h8e35b69503584243E+0x18>
C:\druid-embedded\druid\src\widget/widgetbox.rs:50
    PhantomData<D>,  //  Needed to do compile-time checking for `Data`
  18:	9805      	ldr	r0, [sp, #20]
  1a:	f7ff fffe 	bl	0 <_ZN73_$LT$core..marker..PhantomData$LT$T$GT$$u20$as$u20$core..clone..Clone$GT$5clone17h2ba85523f8313072E>
  1e:	e7ff      	b.n	20 <_ZN83_$LT$druid..widget..widgetbox..WidgetBox$LT$D$GT$$u20$as$u20$core..clone..Clone$GT$5clone17h8e35b69503584243E+0x20>
C:\druid-embedded\druid\src\widget/widgetbox.rs:47
#[derive(Clone, Default)]
  20:	9801      	ldr	r0, [sp, #4]
  22:	9003      	str	r0, [sp, #12]
  24:	9803      	ldr	r0, [sp, #12]
  26:	b006      	add	sp, #24
  28:	bd80      	pop	{r7, pc}

app-20d859f505b9d0c6.2bdqsc3eyi3sjequ.rcgu.o:     file format elf32-littlearm

SYMBOL TABLE:
00000000 l    df *ABS*	00000000 2bdqsc3eyi3sjequ
0000015b l       .debug_str	00000000 
00000492 l       .debug_str	00000000 
00000590 l       .debug_str	00000000 
00000412 l       .debug_str	00000000 
0000040e l       .debug_str	00000000 
0000052d l       .debug_str	00000000 
0000040c l       .debug_str	00000000 
00000528 l       .debug_str	00000000 
00000406 l       .debug_str	00000000 
00000000 l       .debug_str	00000000 
00000041 l       .debug_str	00000000 
00000055 l       .debug_str	00000000 
00000074 l       .debug_str	00000000 
00000080 l       .debug_str	00000000 
00000089 l       .debug_str	00000000 
00000092 l       .debug_str	00000000 
00000099 l       .debug_str	00000000 
000000a3 l       .debug_str	00000000 
000000a7 l       .debug_str	00000000 
000000af l       .debug_str	00000000 
000000b5 l       .debug_str	00000000 
000000c1 l       .debug_str	00000000 
000000c5 l       .debug_str	00000000 
000000ce l       .debug_str	00000000 
000000d6 l       .debug_str	00000000 
000000db l       .debug_str	00000000 
000000e2 l       .debug_str	00000000 
000000e4 l       .debug_str	00000000 
000000f5 l       .debug_str	00000000 
00000107 l       .debug_str	00000000 
0000010c l       .debug_str	00000000 
00000112 l       .debug_str	00000000 
00000118 l       .debug_str	00000000 
0000011c l       .debug_str	00000000 
00000123 l       .debug_str	00000000 
00000128 l       .debug_str	00000000 
000003fd l       .debug_str	00000000 
00000164 l       .debug_str	00000000 
00000199 l       .debug_str	00000000 
00000203 l       .debug_str	00000000 
00000236 l       .debug_str	00000000 
00000297 l       .debug_str	00000000 
000002c2 l       .debug_str	00000000 
00000325 l       .debug_str	00000000 
00000352 l       .debug_str	00000000 
00000359 l       .debug_str	00000000 
0000035c l       .debug_str	00000000 
00000362 l       .debug_str	00000000 
00000395 l       .debug_str	00000000 
000003c9 l       .debug_str	00000000 
000003cf l       .debug_str	00000000 
000003d5 l       .debug_str	00000000 
000003de l       .debug_str	00000000 
000003e1 l       .debug_str	00000000 
000003eb l       .debug_str	00000000 
000003f2 l       .debug_str	00000000 
000003f8 l       .debug_str	00000000 
000004f8 l       .debug_str	00000000 
00000000 l    d  .text._ZN11druid_shell8platform8embedded6window29WindowBuilder$LT$THandler$GT$11set_handler17he6d25920559607ecE	00000000 .text._ZN11druid_shell8platform8embedded6window29WindowBuilder$LT$THandler$GT$11set_handler17he6d25920559607ecE
00000000 l    d  .text._ZN11druid_shell8platform8embedded6window29WindowBuilder$LT$THandler$GT$3new17h483bf444a03bc0c1E	00000000 .text._ZN11druid_shell8platform8embedded6window29WindowBuilder$LT$THandler$GT$3new17h483bf444a03bc0c1E
00000000 l    d  .text._ZN11druid_shell8platform8embedded6window29WindowBuilder$LT$THandler$GT$5build17hd840456430c07e5aE	00000000 .text._ZN11druid_shell8platform8embedded6window29WindowBuilder$LT$THandler$GT$5build17hd840456430c07e5aE
00000000 l    d  .text._ZN11druid_shell8platform8embedded6window29WindowBuilder$LT$THandler$GT$8set_size17h27bcba818af5aa8cE	00000000 .text._ZN11druid_shell8platform8embedded6window29WindowBuilder$LT$THandler$GT$8set_size17h27bcba818af5aa8cE
00000000 l    d  .debug_loc	00000000 .debug_loc
00000000 l    d  .debug_abbrev	00000000 .debug_abbrev
00000000 l    d  .debug_info	00000000 .debug_info
00000000 l    d  .debug_ranges	00000000 .debug_ranges
00000000 l    d  .debug_frame	00000000 .debug_frame
00000000 l    d  .debug_line	00000000 .debug_line
00000000 g     F .text._ZN11druid_shell8platform8embedded6window29WindowBuilder$LT$THandler$GT$11set_handler17he6d25920559607ecE	00000042 _ZN11druid_shell8platform8embedded6window29WindowBuilder$LT$THandler$GT$11set_handler17he6d25920559607ecE
00000000 g     F .text._ZN11druid_shell8platform8embedded6window29WindowBuilder$LT$THandler$GT$3new17h483bf444a03bc0c1E	00000050 _ZN11druid_shell8platform8embedded6window29WindowBuilder$LT$THandler$GT$3new17h483bf444a03bc0c1E
00000000 g     F .text._ZN11druid_shell8platform8embedded6window29WindowBuilder$LT$THandler$GT$5build17hd840456430c07e5aE	0000003e _ZN11druid_shell8platform8embedded6window29WindowBuilder$LT$THandler$GT$5build17hd840456430c07e5aE
00000000 g     F .text._ZN11druid_shell8platform8embedded6window29WindowBuilder$LT$THandler$GT$8set_size17h27bcba818af5aa8cE	00000022 _ZN11druid_shell8platform8embedded6window29WindowBuilder$LT$THandler$GT$8set_size17h27bcba818af5aa8cE
00000000         *UND*	00000000 _ZN142_$LT$druid..win_handler..DruidHandler$LT$T$GT$$u20$as$u20$druid_shell..window..WinHandler$LT$druid..win_handler..DruidHandler$LT$T$GT$$GT$$GT$11add_handler17h2f617130c64cdd40E
00000000         *UND*	00000000 _ZN142_$LT$druid..win_handler..DruidHandler$LT$T$GT$$u20$as$u20$druid_shell..window..WinHandler$LT$druid..win_handler..DruidHandler$LT$T$GT$$GT$$GT$13get_window_id17hd9fa23b7a5c1420fE
00000000         *UND*	00000000 .hidden _ZN5kurbo4size4Size3new17h3ff1cf3c083eba79E
00000000         *UND*	00000000 _ZN80_$LT$druid..win_handler..DruidHandler$LT$T$GT$$u20$as$u20$core..clone..Clone$GT$5clone17h853b646628e4defcE
00000000         *UND*	00000000 _ZN84_$LT$druid..win_handler..DruidHandler$LT$T$GT$$u20$as$u20$core..default..Default$GT$7default17hb14b8e70ddd1e5c4E



Disassembly of section .text._ZN11druid_shell8platform8embedded6window29WindowBuilder$LT$THandler$GT$11set_handler17he6d25920559607ecE:

00000000 <_ZN11druid_shell8platform8embedded6window29WindowBuilder$LT$THandler$GT$11set_handler17he6d25920559607ecE>:
_ZN11druid_shell8platform8embedded6window29WindowBuilder$LT$THandler$GT$11set_handler17he6d25920559607ecE():
C:\druid-embedded\druid-shell\src\platform\embedded/window.rs:167
            ////menu: None,
            ////size: Size::new(500.0, 400.0),
        }
    }

    pub fn set_handler(&mut self, handler: THandler) { ////
   0:	b580      	push	{r7, lr}
   2:	b086      	sub	sp, #24
   4:	9003      	str	r0, [sp, #12]
   6:	9104      	str	r1, [sp, #16]
   8:	a804      	add	r0, sp, #16
C:\druid-embedded\druid-shell\src\platform\embedded/window.rs:169
    ////pub fn set_handler(&mut self, handler: Box<dyn WinHandler>) {
        let window_id = handler.get_window_id(); ////
   a:	f7ff fffe 	bl	0 <_ZN142_$LT$druid..win_handler..DruidHandler$LT$T$GT$$u20$as$u20$druid_shell..window..WinHandler$LT$druid..win_handler..DruidHandler$LT$T$GT$$GT$$GT$13get_window_id17hd9fa23b7a5c1420fE>
   e:	9005      	str	r0, [sp, #20]
  10:	e7ff      	b.n	12 <_ZN11druid_shell8platform8embedded6window29WindowBuilder$LT$THandler$GT$11set_handler17he6d25920559607ecE+0x12>
C:\druid-embedded\druid-shell\src\platform\embedded/window.rs:170
        self.window_id = window_id; ////
  12:	9805      	ldr	r0, [sp, #20]
  14:	9903      	ldr	r1, [sp, #12]
  16:	6108      	str	r0, [r1, #16]
C:\druid-embedded\druid-shell\src\platform\embedded/window.rs:171
        handler.add_handler(window_id, handler.clone()); ////
  18:	9905      	ldr	r1, [sp, #20]
  1a:	a804      	add	r0, sp, #16
  1c:	9102      	str	r1, [sp, #8]
  1e:	f7ff fffe 	bl	0 <_ZN80_$LT$druid..win_handler..DruidHandler$LT$T$GT$$u20$as$u20$core..clone..Clone$GT$5clone17h853b646628e4defcE>
  22:	9001      	str	r0, [sp, #4]
  24:	e7ff      	b.n	26 <_ZN11druid_shell8platform8embedded6window29WindowBuilder$LT$THandler$GT$11set_handler17he6d25920559607ecE+0x26>
  26:	a804      	add	r0, sp, #16
  28:	9902      	ldr	r1, [sp, #8]
  2a:	9a01      	ldr	r2, [sp, #4]
  2c:	f7ff fffe 	bl	0 <_ZN142_$LT$druid..win_handler..DruidHandler$LT$T$GT$$u20$as$u20$druid_shell..window..WinHandler$LT$druid..win_handler..DruidHandler$LT$T$GT$$GT$$GT$11add_handler17h2f617130c64cdd40E>
  30:	e7ff      	b.n	32 <_ZN11druid_shell8platform8embedded6window29WindowBuilder$LT$THandler$GT$11set_handler17he6d25920559607ecE+0x32>
C:\druid-embedded\druid-shell\src\platform\embedded/window.rs:172
        self.handler = handler; ////
  32:	9804      	ldr	r0, [sp, #16]
  34:	9000      	str	r0, [sp, #0]
  36:	e7ff      	b.n	38 <_ZN11druid_shell8platform8embedded6window29WindowBuilder$LT$THandler$GT$11set_handler17he6d25920559607ecE+0x38>
  38:	9803      	ldr	r0, [sp, #12]
  3a:	9900      	ldr	r1, [sp, #0]
  3c:	6141      	str	r1, [r0, #20]
C:\druid-embedded\druid-shell\src\platform\embedded/window.rs:174
        ////self.handler = Some(handler);
    }
  3e:	b006      	add	sp, #24
  40:	bd80      	pop	{r7, pc}

Disassembly of section .text._ZN11druid_shell8platform8embedded6window29WindowBuilder$LT$THandler$GT$3new17h483bf444a03bc0c1E:

00000000 <_ZN11druid_shell8platform8embedded6window29WindowBuilder$LT$THandler$GT$3new17h483bf444a03bc0c1E>:
_ZN11druid_shell8platform8embedded6window29WindowBuilder$LT$THandler$GT$3new17h483bf444a03bc0c1E():
C:\druid-embedded\druid-shell\src\platform\embedded/window.rs:150
    pub fn new() -> Self { ////
   0:	b580      	push	{r7, lr}
   2:	b08a      	sub	sp, #40	; 0x28
   4:	ed9f 0b10 	vldr	d0, [pc, #64]	; 48 <_ZN11druid_shell8platform8embedded6window29WindowBuilder$LT$THandler$GT$3new17h483bf444a03bc0c1E+0x48>
   8:	ed8d 0b08 	vstr	d0, [sp, #32]
C:\druid-embedded\druid-shell\src\platform\embedded/window.rs:154
            size: Size::new( ////
   c:	ed9d 1b08 	vldr	d1, [sp, #32]
  10:	9007      	str	r0, [sp, #28]
  12:	f7ff fffe 	bl	0 <_ZN5kurbo4size4Size3new17h3ff1cf3c083eba79E>
  16:	ed8d 0b04 	vstr	d0, [sp, #16]
  1a:	ed8d 1b02 	vstr	d1, [sp, #8]
  1e:	e7ff      	b.n	2 <_ZN84_$LT$druid..win_handler..DruidHandler$LT$T$GT$$u20$as$u20$core..default..Default$GT$7default17hb14b8e70ddd1e5c4E+0x2>
C:\druid-embedded\druid-shell\src\platform\embedded/window.rs:159
            handler: Default::default(), ////
  20:	f7ff fffe 	bl	0 <_ZN84_$LT$druid..win_handler..DruidHandler$LT$T$GT$$u20$as$u20$core..default..Default$GT$7default17hb14b8e70ddd1e5c4E>
  24:	9001      	str	r0, [sp, #4]
  26:	e7ff      	b.n	28 <_ZN11druid_shell8platform8embedded6window29WindowBuilder$LT$THandler$GT$3new17h483bf444a03bc0c1E+0x28>
  28:	2000      	movs	r0, #0
C:\druid-embedded\druid-shell\src\platform\embedded/window.rs:152
        WindowBuilder  {
  2a:	9907      	ldr	r1, [sp, #28]
  2c:	6108      	str	r0, [r1, #16]
  2e:	9801      	ldr	r0, [sp, #4]
  30:	6148      	str	r0, [r1, #20]
  32:	ed9d 0b04 	vldr	d0, [sp, #16]
  36:	ed81 0b00 	vstr	d0, [r1]
  3a:	ed9d 1b02 	vldr	d1, [sp, #8]
  3e:	ed81 1b02 	vstr	d1, [r1, #8]
C:\druid-embedded\druid-shell\src\platform\embedded/window.rs:165
    }
  42:	b00a      	add	sp, #40	; 0x28
  44:	bd80      	pop	{r7, pc}
  46:	bf00      	nop
  48:	00000000 	.word	0x00000000
  4c:	406e0000 	.word	0x406e0000

Disassembly of section .text._ZN11druid_shell8platform8embedded6window29WindowBuilder$LT$THandler$GT$5build17hd840456430c07e5aE:

00000000 <_ZN11druid_shell8platform8embedded6window29WindowBuilder$LT$THandler$GT$5build17hd840456430c07e5aE>:
_ZN11druid_shell8platform8embedded6window29WindowBuilder$LT$THandler$GT$5build17hd840456430c07e5aE():
C:\druid-embedded\druid-shell\src\platform\embedded/window.rs:180

    pub fn set_size(&mut self, size: Size) {
        self.size = size;
    }

    pub fn build(self) -> Result<WindowHandle<THandler>, Error> { ////
   0:	b08a      	sub	sp, #40	; 0x28
C:\druid-embedded\druid-shell\src\platform\embedded/window.rs:182
    ////pub fn build(self) -> Result<WindowHandle, Error> {
        let window_id = self.window_id; ////
   2:	690a      	ldr	r2, [r1, #16]
   4:	9200      	str	r2, [sp, #0]
C:\druid-embedded\druid-shell\src\platform\embedded/window.rs:183
        let handler = self.handler; ////
   6:	6949      	ldr	r1, [r1, #20]
   8:	9101      	str	r1, [sp, #4]
C:\druid-embedded\druid-shell\src\platform\embedded/window.rs:185
        let state = WindowState {
            window_id, ////
   a:	9900      	ldr	r1, [sp, #0]
C:\druid-embedded\druid-shell\src\platform\embedded/window.rs:186
            handler, ////
   c:	9a01      	ldr	r2, [sp, #4]
C:\druid-embedded\druid-shell\src\platform\embedded/window.rs:184
        let state = WindowState {
   e:	9102      	str	r1, [sp, #8]
  10:	9203      	str	r2, [sp, #12]
C:\druid-embedded\druid-shell\src\platform\embedded/window.rs:189
        };
        let handle = WindowHandle {
            window_id, ////
  12:	9900      	ldr	r1, [sp, #0]
C:\druid-embedded\druid-shell\src\platform\embedded/window.rs:190
            state, ////
  14:	9a02      	ldr	r2, [sp, #8]
  16:	9b03      	ldr	r3, [sp, #12]
C:\druid-embedded\druid-shell\src\platform\embedded/window.rs:188
        let handle = WindowHandle {
  18:	9104      	str	r1, [sp, #16]
  1a:	9205      	str	r2, [sp, #20]
  1c:	9306      	str	r3, [sp, #24]
C:\druid-embedded\druid-shell\src\platform\embedded/window.rs:193
        };
        ////TODO handler.connect(&mut handle.into()); ////
        Ok(handle)
  1e:	9904      	ldr	r1, [sp, #16]
  20:	9a05      	ldr	r2, [sp, #20]
  22:	9b06      	ldr	r3, [sp, #24]
  24:	9309      	str	r3, [sp, #36]	; 0x24
  26:	9208      	str	r2, [sp, #32]
  28:	9107      	str	r1, [sp, #28]
  2a:	9907      	ldr	r1, [sp, #28]
  2c:	9a08      	ldr	r2, [sp, #32]
  2e:	9b09      	ldr	r3, [sp, #36]	; 0x24
  30:	60c3      	str	r3, [r0, #12]
  32:	6082      	str	r2, [r0, #8]
  34:	6041      	str	r1, [r0, #4]
  36:	2100      	movs	r1, #0
  38:	6001      	str	r1, [r0, #0]
C:\druid-embedded\druid-shell\src\platform\embedded/window.rs:365
                .handler
                ////.borrow_mut()
                .connect(&handle.into());
                ////.connect(&handle.clone().into());
        */ ////
    }
  3a:	b00a      	add	sp, #40	; 0x28
  3c:	4770      	bx	lr

Disassembly of section .text._ZN11druid_shell8platform8embedded6window29WindowBuilder$LT$THandler$GT$8set_size17h27bcba818af5aa8cE:

00000000 <_ZN11druid_shell8platform8embedded6window29WindowBuilder$LT$THandler$GT$8set_size17h27bcba818af5aa8cE>:
_ZN11druid_shell8platform8embedded6window29WindowBuilder$LT$THandler$GT$8set_size17h27bcba818af5aa8cE():
C:\druid-embedded\druid-shell\src\platform\embedded/window.rs:176
    pub fn set_size(&mut self, size: Size) {
   0:	b086      	sub	sp, #24
   2:	9001      	str	r0, [sp, #4]
   4:	ed8d 0b02 	vstr	d0, [sp, #8]
   8:	ed8d 1b04 	vstr	d1, [sp, #16]
C:\druid-embedded\druid-shell\src\platform\embedded/window.rs:177
        self.size = size;
   c:	ed9d 0b02 	vldr	d0, [sp, #8]
  10:	ed9d 1b04 	vldr	d1, [sp, #16]
  14:	9801      	ldr	r0, [sp, #4]
  16:	ed80 0b00 	vstr	d0, [r0]
  1a:	ed80 1b02 	vstr	d1, [r0, #8]
C:\druid-embedded\druid-shell\src\platform\embedded/window.rs:178
    }
  1e:	b006      	add	sp, #24
  20:	4770      	bx	lr

app-20d859f505b9d0c6.2bk048bah1k21iz3.rcgu.o:     file format elf32-littlearm

SYMBOL TABLE:
00000000 l    df *ABS*	00000000 2bk048bah1k21iz3
00000511 l       .debug_str	00000000 
00000e81 l       .debug_str	00000000 
00000e7c l       .debug_str	00000000 
00000e55 l       .debug_str	00000000 
00000e50 l       .debug_str	00000000 
00000e49 l       .debug_str	00000000 
00000e26 l       .debug_str	00000000 
00000e1c l       .debug_str	00000000 
00000e04 l       .debug_str	00000000 
00000ddd l       .debug_str	00000000 
00000dd3 l       .debug_str	00000000 
00000dc8 l       .debug_str	00000000 
00000efe l       .debug_str	00000000 
00000dbf l       .debug_str	00000000 
00000db6 l       .debug_str	00000000 
00000ef9 l       .debug_str	00000000 
00000d95 l       .debug_str	00000000 
00000d8d l       .debug_str	00000000 
00000d77 l       .debug_str	00000000 
00000d6c l       .debug_str	00000000 
00000eef l       .debug_str	00000000 
00000d56 l       .debug_str	00000000 
00000d30 l       .debug_str	00000000 
00000d27 l       .debug_str	00000000 
00000d1e l       .debug_str	00000000 
00000d14 l       .debug_str	00000000 
00000cfe l       .debug_str	00000000 
00000cef l       .debug_str	00000000 
00000ce2 l       .debug_str	00000000 
00000cd7 l       .debug_str	00000000 
00000cc9 l       .debug_str	00000000 
00000cb9 l       .debug_str	00000000 
00000c9b l       .debug_str	00000000 
00000c92 l       .debug_str	00000000 
00000c8a l       .debug_str	00000000 
00000c83 l       .debug_str	00000000 
00000c1d l       .debug_str	00000000 
00000bbf l       .debug_str	00000000 
00000b96 l       .debug_str	00000000 
00000b8e l       .debug_str	00000000 
00000b7e l       .debug_str	00000000 
00000b6e l       .debug_str	00000000 
00000b5f l       .debug_str	00000000 
00000b59 l       .debug_str	00000000 
00000b53 l       .debug_str	00000000 
00000b1e l       .debug_str	00000000 
00000af1 l       .debug_str	00000000 
00000aea l       .debug_str	00000000 
00000ae3 l       .debug_str	00000000 
00000add l       .debug_str	00000000 
00000ad3 l       .debug_str	00000000 
00000acb l       .debug_str	00000000 
00000ac3 l       .debug_str	00000000 
00000abc l       .debug_str	00000000 
00000ab3 l       .debug_str	00000000 
00000aa7 l       .debug_str	00000000 
00000a9c l       .debug_str	00000000 
00000a93 l       .debug_str	00000000 
00000a88 l       .debug_str	00000000 
00000a7e l       .debug_str	00000000 
00000a78 l       .debug_str	00000000 
00000a74 l       .debug_str	00000000 
00000a5e l       .debug_str	00000000 
00000ee1 l       .debug_str	00000000 
00000a54 l       .debug_str	00000000 
00000a3b l       .debug_str	00000000 
00000a1e l       .debug_str	00000000 
00000a13 l       .debug_str	00000000 
000009b5 l       .debug_str	00000000 
0000099b l       .debug_str	00000000 
00000991 l       .debug_str	00000000 
00000975 l       .debug_str	00000000 
00000951 l       .debug_str	00000000 
0000093a l       .debug_str	00000000 
00000ed2 l       .debug_str	00000000 
00000ecd l       .debug_str	00000000 
00000ec7 l       .debug_str	00000000 
00000ec0 l       .debug_str	00000000 
00000eba l       .debug_str	00000000 
00000eb3 l       .debug_str	00000000 
00000eab l       .debug_str	00000000 
00000ea9 l       .debug_str	00000000 
00000ea5 l       .debug_str	00000000 
00000e9e l       .debug_str	00000000 
00000e91 l       .debug_str	00000000 
00000e8d l       .debug_str	00000000 
00000000 l       .debug_str	00000000 
00000041 l       .debug_str	00000000 
00000055 l       .debug_str	00000000 
00000074 l       .debug_str	00000000 
00000078 l       .debug_str	00000000 
00000085 l       .debug_str	00000000 
00000091 l       .debug_str	00000000 
00000098 l       .debug_str	00000000 
0000009c l       .debug_str	00000000 
000000a0 l       .debug_str	00000000 
000000a4 l       .debug_str	00000000 
000000a9 l       .debug_str	00000000 
000000e0 l       .debug_str	00000000 
000000ec l       .debug_str	00000000 
000000f2 l       .debug_str	00000000 
00000129 l       .debug_str	00000000 
00000134 l       .debug_str	00000000 
0000013c l       .debug_str	00000000 
0000013e l       .debug_str	00000000 
00000142 l       .debug_str	00000000 
00000144 l       .debug_str	00000000 
0000014b l       .debug_str	00000000 
0000014e l       .debug_str	00000000 
00000155 l       .debug_str	00000000 
0000015e l       .debug_str	00000000 
00000163 l       .debug_str	00000000 
0000016d l       .debug_str	00000000 
00000181 l       .debug_str	00000000 
00000187 l       .debug_str	00000000 
00000191 l       .debug_str	00000000 
000001a0 l       .debug_str	00000000 
000001d6 l       .debug_str	00000000 
000001da l       .debug_str	00000000 
00000208 l       .debug_str	00000000 
00000214 l       .debug_str	00000000 
0000021b l       .debug_str	00000000 
0000021e l       .debug_str	00000000 
00000228 l       .debug_str	00000000 
0000022e l       .debug_str	00000000 
00000233 l       .debug_str	00000000 
0000023a l       .debug_str	00000000 
0000023e l       .debug_str	00000000 
00000243 l       .debug_str	00000000 
00000265 l       .debug_str	00000000 
0000029d l       .debug_str	00000000 
0000029f l       .debug_str	00000000 
000002a4 l       .debug_str	00000000 
000002a8 l       .debug_str	00000000 
000002e8 l       .debug_str	00000000 
000002ef l       .debug_str	00000000 
000002f3 l       .debug_str	00000000 
000002fe l       .debug_str	00000000 
00000309 l       .debug_str	00000000 
00000310 l       .debug_str	00000000 
00000327 l       .debug_str	00000000 
0000032f l       .debug_str	00000000 
00000339 l       .debug_str	00000000 
00000350 l       .debug_str	00000000 
00000359 l       .debug_str	00000000 
00000390 l       .debug_str	00000000 
00000399 l       .debug_str	00000000 
0000039c l       .debug_str	00000000 
000003a4 l       .debug_str	00000000 
000003a8 l       .debug_str	00000000 
000003af l       .debug_str	00000000 
000003b7 l       .debug_str	00000000 
000003cb l       .debug_str	00000000 
000003fe l       .debug_str	00000000 
00000409 l       .debug_str	00000000 
0000043f l       .debug_str	00000000 
00000446 l       .debug_str	00000000 
0000044e l       .debug_str	00000000 
00000459 l       .debug_str	00000000 
00000464 l       .debug_str	00000000 
00000471 l       .debug_str	00000000 
0000047c l       .debug_str	00000000 
00000484 l       .debug_str	00000000 
0000048f l       .debug_str	00000000 
0000049a l       .debug_str	00000000 
000004a4 l       .debug_str	00000000 
000004af l       .debug_str	00000000 
000004ba l       .debug_str	00000000 
000004c7 l       .debug_str	00000000 
000004d3 l       .debug_str	00000000 
000004e0 l       .debug_str	00000000 
000004ee l       .debug_str	00000000 
000004f8 l       .debug_str	00000000 
00000505 l       .debug_str	00000000 
00000932 l       .debug_str	00000000 
00000515 l       .debug_str	00000000 
00000518 l       .debug_str	00000000 
0000051b l       .debug_str	00000000 
00000520 l       .debug_str	00000000 
00000526 l       .debug_str	00000000 
0000052d l       .debug_str	00000000 
00000535 l       .debug_str	00000000 
0000053f l       .debug_str	00000000 
00000542 l       .debug_str	00000000 
00000546 l       .debug_str	00000000 
0000054d l       .debug_str	00000000 
0000058b l       .debug_str	00000000 
0000059e l       .debug_str	00000000 
000005a1 l       .debug_str	00000000 
000005a3 l       .debug_str	00000000 
000005cb l       .debug_str	00000000 
0000060e l       .debug_str	00000000 
00000626 l       .debug_str	00000000 
00000666 l       .debug_str	00000000 
0000067b l       .debug_str	00000000 
000006b5 l       .debug_str	00000000 
000006c4 l       .debug_str	00000000 
00000703 l       .debug_str	00000000 
00000717 l       .debug_str	00000000 
0000071b l       .debug_str	00000000 
0000071e l       .debug_str	00000000 
00000727 l       .debug_str	00000000 
0000072c l       .debug_str	00000000 
00000736 l       .debug_str	00000000 
0000073b l       .debug_str	00000000 
00000741 l       .debug_str	00000000 
00000746 l       .debug_str	00000000 
0000074b l       .debug_str	00000000 
00000752 l       .debug_str	00000000 
0000075b l       .debug_str	00000000 
00000765 l       .debug_str	00000000 
0000076c l       .debug_str	00000000 
00000772 l       .debug_str	00000000 
00000777 l       .debug_str	00000000 
00000783 l       .debug_str	00000000 
0000078b l       .debug_str	00000000 
00000794 l       .debug_str	00000000 
00000799 l       .debug_str	00000000 
0000079c l       .debug_str	00000000 
000007a5 l       .debug_str	00000000 
000007ac l       .debug_str	00000000 
000007b1 l       .debug_str	00000000 
000007b6 l       .debug_str	00000000 
000007bc l       .debug_str	00000000 
000007c2 l       .debug_str	00000000 
000007cc l       .debug_str	00000000 
000007cf l       .debug_str	00000000 
000007d5 l       .debug_str	00000000 
000007df l       .debug_str	00000000 
000007e7 l       .debug_str	00000000 
000007ed l       .debug_str	00000000 
000007f3 l       .debug_str	00000000 
000007fe l       .debug_str	00000000 
00000807 l       .debug_str	00000000 
0000082a l       .debug_str	00000000 
00000849 l       .debug_str	00000000 
00000870 l       .debug_str	00000000 
00000875 l       .debug_str	00000000 
0000087b l       .debug_str	00000000 
00000881 l       .debug_str	00000000 
00000890 l       .debug_str	00000000 
00000897 l       .debug_str	00000000 
0000089b l       .debug_str	00000000 
000008a4 l       .debug_str	00000000 
000008ac l       .debug_str	00000000 
000008b3 l       .debug_str	00000000 
000008bf l       .debug_str	00000000 
000008cb l       .debug_str	00000000 
000008e4 l       .debug_str	00000000 
000008e9 l       .debug_str	00000000 
000008fa l       .debug_str	00000000 
00000904 l       .debug_str	00000000 
00000912 l       .debug_str	00000000 
0000091d l       .debug_str	00000000 
00000924 l       .debug_str	00000000 
0000092a l       .debug_str	00000000 
0000092e l       .debug_str	00000000 
00000e87 l       .debug_str	00000000 
00000000 l     O .rodata..Lanon.4904c241fa42c850e77d796d128d2c00.0	00000012 .Lanon.4904c241fa42c850e77d796d128d2c00.0
00000000 l     O .rodata.cst4	00000004 .Lanon.4904c241fa42c850e77d796d128d2c00.1
00000000 l     O .rodata.cst8	00000008 .Lanon.4904c241fa42c850e77d796d128d2c00.10
00000000 l     O .rodata..Lanon.4904c241fa42c850e77d796d128d2c00.11	0000000e .Lanon.4904c241fa42c850e77d796d128d2c00.11
00000000 l     O .rodata..Lanon.4904c241fa42c850e77d796d128d2c00.12	00000013 .Lanon.4904c241fa42c850e77d796d128d2c00.12
00000000 l     O .rodata..Lanon.4904c241fa42c850e77d796d128d2c00.13	00000010 .Lanon.4904c241fa42c850e77d796d128d2c00.13
00000000 l     O .rodata..Lanon.4904c241fa42c850e77d796d128d2c00.14	00000010 .Lanon.4904c241fa42c850e77d796d128d2c00.14
00000000 l     O .rodata..Lanon.4904c241fa42c850e77d796d128d2c00.15	00000010 .Lanon.4904c241fa42c850e77d796d128d2c00.15
00000000 l     O .rodata..Lanon.4904c241fa42c850e77d796d128d2c00.16	00000010 .Lanon.4904c241fa42c850e77d796d128d2c00.16
00000000 l     O .rodata..Lanon.4904c241fa42c850e77d796d128d2c00.17	00000010 .Lanon.4904c241fa42c850e77d796d128d2c00.17
00000000 l     O .rodata..Lanon.4904c241fa42c850e77d796d128d2c00.18	00000010 .Lanon.4904c241fa42c850e77d796d128d2c00.18
00000000 l     O .rodata..Lanon.4904c241fa42c850e77d796d128d2c00.19	00000010 .Lanon.4904c241fa42c850e77d796d128d2c00.19
00000000 l     O .rodata..Lanon.4904c241fa42c850e77d796d128d2c00.20	00000010 .Lanon.4904c241fa42c850e77d796d128d2c00.20
00000000 l     O .rodata..Lanon.4904c241fa42c850e77d796d128d2c00.21	00000010 .Lanon.4904c241fa42c850e77d796d128d2c00.21
00000000 l     O .rodata..Lanon.4904c241fa42c850e77d796d128d2c00.22	00000010 .Lanon.4904c241fa42c850e77d796d128d2c00.22
00000000 l     O .rodata..Lanon.4904c241fa42c850e77d796d128d2c00.23	00000010 .Lanon.4904c241fa42c850e77d796d128d2c00.23
00000000 l     O .rodata..Lanon.4904c241fa42c850e77d796d128d2c00.24	00000010 .Lanon.4904c241fa42c850e77d796d128d2c00.24
00000000 l     O .rodata..Lanon.4904c241fa42c850e77d796d128d2c00.25	00000010 .Lanon.4904c241fa42c850e77d796d128d2c00.25
00000000 l     O .rodata..Lanon.4904c241fa42c850e77d796d128d2c00.26	00000010 .Lanon.4904c241fa42c850e77d796d128d2c00.26
00000000 l     O .rodata..Lanon.4904c241fa42c850e77d796d128d2c00.27	00000010 .Lanon.4904c241fa42c850e77d796d128d2c00.27
00000000 l     O .rodata..Lanon.4904c241fa42c850e77d796d128d2c00.28	00000010 .Lanon.4904c241fa42c850e77d796d128d2c00.28
00000000 l     O .rodata..Lanon.4904c241fa42c850e77d796d128d2c00.29	00000010 .Lanon.4904c241fa42c850e77d796d128d2c00.29
00000000 l     O .rodata..Lanon.4904c241fa42c850e77d796d128d2c00.30	00000010 .Lanon.4904c241fa42c850e77d796d128d2c00.30
00000000 l     O .rodata..Lanon.4904c241fa42c850e77d796d128d2c00.31	00000010 .Lanon.4904c241fa42c850e77d796d128d2c00.31
00000000 l     O .rodata..Lanon.4904c241fa42c850e77d796d128d2c00.32	00000010 .Lanon.4904c241fa42c850e77d796d128d2c00.32
00000000 l     O .rodata..Lanon.4904c241fa42c850e77d796d128d2c00.33	00000010 .Lanon.4904c241fa42c850e77d796d128d2c00.33
00000000 l     O .rodata..Lanon.4904c241fa42c850e77d796d128d2c00.34	00000010 .Lanon.4904c241fa42c850e77d796d128d2c00.34
00000000 l     O .rodata..Lanon.4904c241fa42c850e77d796d128d2c00.35	00000010 .Lanon.4904c241fa42c850e77d796d128d2c00.35
00000000 l     O .rodata..Lanon.4904c241fa42c850e77d796d128d2c00.36	00000010 .Lanon.4904c241fa42c850e77d796d128d2c00.36
00000000 l     O .rodata..Lanon.4904c241fa42c850e77d796d128d2c00.37	00000010 .Lanon.4904c241fa42c850e77d796d128d2c00.37
00000000 l     O .rodata..Lanon.4904c241fa42c850e77d796d128d2c00.38	00000010 .Lanon.4904c241fa42c850e77d796d128d2c00.38
00000000 l     O .rodata..Lanon.4904c241fa42c850e77d796d128d2c00.39	00000010 .Lanon.4904c241fa42c850e77d796d128d2c00.39
00000000 l     O .rodata..Lanon.4904c241fa42c850e77d796d128d2c00.40	00000010 .Lanon.4904c241fa42c850e77d796d128d2c00.40
00000000 l     O .rodata..Lanon.4904c241fa42c850e77d796d128d2c00.41	00000010 .Lanon.4904c241fa42c850e77d796d128d2c00.41
00000000 l     O .rodata..Lanon.4904c241fa42c850e77d796d128d2c00.42	00000010 .Lanon.4904c241fa42c850e77d796d128d2c00.42
00000000 l     O .rodata..Lanon.4904c241fa42c850e77d796d128d2c00.43	00000010 .Lanon.4904c241fa42c850e77d796d128d2c00.43
00000000 l     O .rodata..Lanon.4904c241fa42c850e77d796d128d2c00.44	00000010 .Lanon.4904c241fa42c850e77d796d128d2c00.44
00000000 l     O .rodata..Lanon.4904c241fa42c850e77d796d128d2c00.45	00000010 .Lanon.4904c241fa42c850e77d796d128d2c00.45
00000000 l     O .rodata..Lanon.4904c241fa42c850e77d796d128d2c00.46	00000010 .Lanon.4904c241fa42c850e77d796d128d2c00.46
00000000 l     O .rodata..Lanon.4904c241fa42c850e77d796d128d2c00.47	00000010 .Lanon.4904c241fa42c850e77d796d128d2c00.47
00000000 l     O .rodata..Lanon.4904c241fa42c850e77d796d128d2c00.48	00000010 .Lanon.4904c241fa42c850e77d796d128d2c00.48
00000000 l     O .rodata..Lanon.4904c241fa42c850e77d796d128d2c00.49	00000007 .Lanon.4904c241fa42c850e77d796d128d2c00.49
00000000 l     O .rodata..Lanon.4904c241fa42c850e77d796d128d2c00.5	00000018 .Lanon.4904c241fa42c850e77d796d128d2c00.5
00000000 l     O .rodata..Lanon.4904c241fa42c850e77d796d128d2c00.50	00000010 .Lanon.4904c241fa42c850e77d796d128d2c00.50
00000000 l     O .rodata..Lanon.4904c241fa42c850e77d796d128d2c00.51	00000010 .Lanon.4904c241fa42c850e77d796d128d2c00.51
00000008 l     O .rodata.cst8	00000008 .Lanon.4904c241fa42c850e77d796d128d2c00.52
00000000 l     O .rodata..Lanon.4904c241fa42c850e77d796d128d2c00.53	00000010 .Lanon.4904c241fa42c850e77d796d128d2c00.53
00000010 l     O .rodata.cst8	00000008 .Lanon.4904c241fa42c850e77d796d128d2c00.54
00000000 l     O .rodata..Lanon.4904c241fa42c850e77d796d128d2c00.55	00000010 .Lanon.4904c241fa42c850e77d796d128d2c00.55
00000000 l     O .rodata..Lanon.4904c241fa42c850e77d796d128d2c00.7	00000008 .Lanon.4904c241fa42c850e77d796d128d2c00.7
00000000 l     O .rodata..Lanon.4904c241fa42c850e77d796d128d2c00.9	00000010 .Lanon.4904c241fa42c850e77d796d128d2c00.9
00000000 l     O .bss._ZN3app12touch_sensor10I2C_BUFFER17hd996773a42c6a004E	00000001 _ZN3app12touch_sensor10I2C_BUFFER17hd996773a42c6a004E
00000000 l     O .bss._ZN3app12touch_sensor10TOUCH_DATA17h286a741ff13cc529E	00000052 _ZN3app12touch_sensor10TOUCH_DATA17h286a741ff13cc529E
00000000 l     O .bss._ZN3app12touch_sensor11TOUCH_DELAY17hb3b8bd1ca2be158bE	00000000 _ZN3app12touch_sensor11TOUCH_DELAY17hb3b8bd1ca2be158bE
00000000 l     O .bss._ZN3app12touch_sensor11TOUCH_EVENT17h23b9e73bae9da943E	00000010 _ZN3app12touch_sensor11TOUCH_EVENT17h23b9e73bae9da943E
00000000 l     O .bss._ZN3app12touch_sensor11TOUCH_RESET17h07181f2a12f1e309E	00000004 _ZN3app12touch_sensor11TOUCH_RESET17h07181f2a12f1e309E
00000000 l     F .text._ZN3app12touch_sensor14read_touchdata17h3c7e9990c9c3cab0E	00000786 _ZN3app12touch_sensor14read_touchdata17h3c7e9990c9c3cab0E
00000000 l     F .text._ZN3app12touch_sensor19read_register_range17hd493ce18c5da1364E	000001d4 _ZN3app12touch_sensor19read_register_range17hd493ce18c5da1364E
00000000 l     F .text._ZN3app12touch_sensor20touch_event_callback17hf06185e9fbf4073dE	00000056 _ZN3app12touch_sensor20touch_event_callback17hf06185e9fbf4073dE
00000000 l     F .text._ZN3app12touch_sensor23touch_interrupt_handler17h374990b319a4a610E	00000046 _ZN3app12touch_sensor23touch_interrupt_handler17h374990b319a4a610E
00000000 l     O .bss._ZN3app12touch_sensor3buf17h033c98556146a332E	0000003f _ZN3app12touch_sensor3buf17h033c98556146a332E
00000000 l     O .bss._ZN3app12touch_sensor8I2C_DATA17h28fd295103828f8aE	00000008 _ZN3app12touch_sensor8I2C_DATA17h28fd295103828f8aE
00000000 l     O .rodata.str.0	00000021 str.0
00000000 l     O .rodata.str.1	0000001c str.1
00000000 l    d  .text._ZN3app12touch_sensor18start_touch_sensor17hf2b3507dead70e2cE	00000000 .text._ZN3app12touch_sensor18start_touch_sensor17hf2b3507dead70e2cE
00000000 l    d  .text._ZN3app12touch_sensor23touch_interrupt_handler17h374990b319a4a610E	00000000 .text._ZN3app12touch_sensor23touch_interrupt_handler17h374990b319a4a610E
00000000 l    d  .text._ZN3app12touch_sensor20touch_event_callback17hf06185e9fbf4073dE	00000000 .text._ZN3app12touch_sensor20touch_event_callback17hf06185e9fbf4073dE
00000000 l    d  .text._ZN3app12touch_sensor14read_touchdata17h3c7e9990c9c3cab0E	00000000 .text._ZN3app12touch_sensor14read_touchdata17h3c7e9990c9c3cab0E
00000000 l    d  .text._ZN3app12touch_sensor19read_register_range17hd493ce18c5da1364E	00000000 .text._ZN3app12touch_sensor19read_register_range17hd493ce18c5da1364E
00000000 l    d  .bss._ZN3app12touch_sensor11TOUCH_RESET17h07181f2a12f1e309E	00000000 .bss._ZN3app12touch_sensor11TOUCH_RESET17h07181f2a12f1e309E
00000000 l    d  .bss._ZN3app12touch_sensor11TOUCH_DELAY17hb3b8bd1ca2be158bE	00000000 .bss._ZN3app12touch_sensor11TOUCH_DELAY17hb3b8bd1ca2be158bE
00000000 l    d  .rodata..Lanon.4904c241fa42c850e77d796d128d2c00.2	00000000 .rodata..Lanon.4904c241fa42c850e77d796d128d2c00.2
00000000 l    d  .rodata..Lanon.4904c241fa42c850e77d796d128d2c00.3	00000000 .rodata..Lanon.4904c241fa42c850e77d796d128d2c00.3
00000000 l    d  .rodata..Lanon.4904c241fa42c850e77d796d128d2c00.4	00000000 .rodata..Lanon.4904c241fa42c850e77d796d128d2c00.4
00000000 l    d  .rodata..Lanon.4904c241fa42c850e77d796d128d2c00.6	00000000 .rodata..Lanon.4904c241fa42c850e77d796d128d2c00.6
00000000 l    d  .rodata..Lanon.4904c241fa42c850e77d796d128d2c00.8	00000000 .rodata..Lanon.4904c241fa42c850e77d796d128d2c00.8
00000000 l    d  .bss._ZN3app12touch_sensor10TOUCH_DATA17h286a741ff13cc529E	00000000 .bss._ZN3app12touch_sensor10TOUCH_DATA17h286a741ff13cc529E
00000000 l    d  .bss._ZN3app12touch_sensor3buf17h033c98556146a332E	00000000 .bss._ZN3app12touch_sensor3buf17h033c98556146a332E
00000000 l    d  .bss._ZN3app12touch_sensor11TOUCH_EVENT17h23b9e73bae9da943E	00000000 .bss._ZN3app12touch_sensor11TOUCH_EVENT17h23b9e73bae9da943E
00000000 l    d  .bss._ZN3app12touch_sensor8I2C_DATA17h28fd295103828f8aE	00000000 .bss._ZN3app12touch_sensor8I2C_DATA17h28fd295103828f8aE
00000000 l    d  .bss._ZN3app12touch_sensor10I2C_BUFFER17hd996773a42c6a004E	00000000 .bss._ZN3app12touch_sensor10I2C_BUFFER17hd996773a42c6a004E
00000000 l    d  .debug_abbrev	00000000 .debug_abbrev
00000000 l    d  .debug_info	00000000 .debug_info
00000000 l    d  .debug_ranges	00000000 .debug_ranges
00000000 l    d  .debug_frame	00000000 .debug_frame
00000000 l    d  .debug_line	00000000 .debug_line
00000000 g     F .text._ZN3app12touch_sensor18start_touch_sensor17hf2b3507dead70e2cE	0000025c .hidden _ZN3app12touch_sensor18start_touch_sensor17hf2b3507dead70e2cE
00000000         *UND*	00000000 _ZN42_$LT$$RF$T$u20$as$u20$core..fmt..Debug$GT$3fmt17h99fe87e29e0ddda6E
00000000         *UND*	00000000 _ZN4core3fmt10ArgumentV13new17h0be67fc4543e9aa4E
00000000         *UND*	00000000 _ZN4core3fmt10ArgumentV13new17h7200433b07b66d26E
00000000         *UND*	00000000 .hidden _ZN4core3fmt9Arguments6new_v117h9d151c8d8345202dE
00000000         *UND*	00000000 _ZN4core4iter5range101_$LT$impl$u20$core..iter..traits..iterator..Iterator$u20$for$u20$core..ops..range..Range$LT$A$GT$$GT$4next17hcd80bd555cde1d96E
00000000         *UND*	00000000 _ZN4core5slice29_$LT$impl$u20$$u5b$T$u5d$$GT$10as_mut_ptr17h8349d103177e9aceE
00000000         *UND*	00000000 _ZN4core5slice29_$LT$impl$u20$$u5b$T$u5d$$GT$3len17h1861a2871aa7de03E
00000000         *UND*	00000000 _ZN4core6result19Result$LT$T$C$E$GT$6expect17h557b93805f6bd39bE
00000000         *UND*	00000000 _ZN4core6result19Result$LT$T$C$E$GT$6expect17hf56bd790b7bb02c4E
00000000         *UND*	00000000 _ZN4core9panicking18panic_bounds_check17hefada55beeee1c8fE
00000000         *UND*	00000000 _ZN4core9panicking5panic17hfdd0eecc44a682f8E
00000000         *UND*	00000000 _ZN4core9panicking9panic_fmt17h43d9d9156d2a3f54E
00000000         *UND*	00000000 _ZN50_$LT$T$u20$as$u20$core..convert..From$LT$T$GT$$GT$4from17h1a28f543ef3bd8bcE
00000000         *UND*	00000000 _ZN59_$LT$core..fmt..Arguments$u20$as$u20$core..fmt..Display$GT$3fmt17h99d4117dd4a31a31E
00000000         *UND*	00000000 _ZN5druid11win_handler12handle_touch17h79e6090555c16018E
00000000         *UND*	00000000 _ZN63_$LT$I$u20$as$u20$core..iter..traits..collect..IntoIterator$GT$9into_iter17h8f7502cef85c2e1bE
00000000         *UND*	00000000 _ZN6mynewt3hal4GPIO4init17hc605d861be8e705cE
00000000         *UND*	00000000 _ZN6mynewt3sys7console5print17hcde9599709a168ecE
00000000         *UND*	00000000 _ZN6mynewt6kernel2os15eventq_dflt_get17h801ed39ba6167dc8E
00000000         *UND*	00000000 _ZN73_$LT$core..result..Result$LT$T$C$E$GT$$u20$as$u20$core..ops..try..Try$GT$10from_error17h82883cbc71a62f35E
00000000         *UND*	00000000 _ZN73_$LT$core..result..Result$LT$T$C$E$GT$$u20$as$u20$core..ops..try..Try$GT$11into_result17h9239e9fc682870a0E
00000000         *UND*	00000000 _ZN74_$LT$mynewt..hal..GPIO$u20$as$u20$embedded_hal..digital..v2..OutputPin$GT$7set_low17hf5d9bbaf992a0046E
00000000         *UND*	00000000 _ZN74_$LT$mynewt..hal..GPIO$u20$as$u20$embedded_hal..digital..v2..OutputPin$GT$8set_high17h6c885466964abacbE
00000000         *UND*	00000000 _ZN87_$LT$mynewt..hal..Delay$u20$as$u20$embedded_hal..blocking..delay..DelayMs$LT$u8$GT$$GT$8delay_ms17h60986c60053782adE
00000000         *UND*	00000000 __aeabi_memclr
00000000         *UND*	00000000 __aeabi_memcpy
00000000         *UND*	00000000 hal_gpio_irq_enable
00000000         *UND*	00000000 hal_gpio_irq_init
00000000         *UND*	00000000 hal_i2c_master_read
00000000         *UND*	00000000 hal_i2c_master_write
00000000         *UND*	00000000 os_eventq_put



Disassembly of section .text._ZN3app12touch_sensor18start_touch_sensor17hf2b3507dead70e2cE:

00000000 <_ZN3app12touch_sensor18start_touch_sensor17hf2b3507dead70e2cE>:
_ZN3app12touch_sensor18start_touch_sensor17hf2b3507dead70e2cE():
c:\stm32bluepill-mynewt-sensor/rust\app\src/touch_sensor.rs:39
/// ```rust
/// let peripherals = nrf52::Peripherals::take().unwrap();
/// let nfcpins = peripherals.UICR.nfcpins.read().bits();
/// console::print("nfcpins = "); console::printhex(nfcpins as u8); console::print("\n");
/// ```
pub fn start_touch_sensor() -> MynewtResult<()> {
   0:	b5b0      	push	{r4, r5, r7, lr}
   2:	b0bc      	sub	sp, #240	; 0xf0
c:\stm32bluepill-mynewt-sensor/rust\app\src/touch_sensor.rs:40
    console::print("Rust touch sensor\n");
   4:	f240 0000 	movw	r0, #0
   8:	f2c0 0000 	movt	r0, #0
   c:	2112      	movs	r1, #18
   e:	f7ff fffe 	bl	0 <_ZN6mynewt3sys7console5print17hcde9599709a168ecE>
  12:	e7ff      	b.n	2 <_ZN3app12touch_sensor18start_touch_sensor17hf2b3507dead70e2cE+0x2>
c:\stm32bluepill-mynewt-sensor/rust\app\src/touch_sensor.rs:43

    //  Init GPIO for the Reset Pin
    unsafe { TOUCH_RESET.init(TOUCH_RESET_PIN) ? };
  14:	f240 0000 	movw	r0, #0
  18:	f2c0 0000 	movt	r0, #0
  1c:	210a      	movs	r1, #10
  1e:	f7ff fffe 	bl	0 <_ZN6mynewt3hal4GPIO4init17hc605d861be8e705cE>
  22:	900e      	str	r0, [sp, #56]	; 0x38
  24:	e7ff      	b.n	26 <_ZN3app12touch_sensor18start_touch_sensor17hf2b3507dead70e2cE+0x26>
  26:	980e      	ldr	r0, [sp, #56]	; 0x38
  28:	f7ff fffe 	bl	0 <_ZN73_$LT$core..result..Result$LT$T$C$E$GT$$u20$as$u20$core..ops..try..Try$GT$11into_result17h9239e9fc682870a0E>
  2c:	9010      	str	r0, [sp, #64]	; 0x40
  2e:	e7ff      	b.n	30 <_ZN3app12touch_sensor18start_touch_sensor17hf2b3507dead70e2cE+0x30>
  30:	9810      	ldr	r0, [sp, #64]	; 0x40
  32:	1e41      	subs	r1, r0, #1
  34:	bf18      	it	ne
  36:	2101      	movne	r1, #1
  38:	2801      	cmp	r0, #1
  3a:	d012      	beq.n	62 <_ZN3app12touch_sensor18start_touch_sensor17hf2b3507dead70e2cE+0x62>
  3c:	e7ff      	b.n	3e <_ZN3app12touch_sensor18start_touch_sensor17hf2b3507dead70e2cE+0x3e>
  3e:	e000      	b.n	42 <_ZN3app12touch_sensor18start_touch_sensor17hf2b3507dead70e2cE+0x42>
  40:	defe      	udf	#254	; 0xfe
  42:	9810      	ldr	r0, [sp, #64]	; 0x40
  44:	9011      	str	r0, [sp, #68]	; 0x44
  46:	9811      	ldr	r0, [sp, #68]	; 0x44
  48:	f7ff fffe 	bl	0 <_ZN50_$LT$T$u20$as$u20$core..convert..From$LT$T$GT$$GT$4from17h1a28f543ef3bd8bcE>
  4c:	900d      	str	r0, [sp, #52]	; 0x34
  4e:	e002      	b.n	56 <_ZN3app12touch_sensor18start_touch_sensor17hf2b3507dead70e2cE+0x56>
c:\stm32bluepill-mynewt-sensor/rust\app\src/touch_sensor.rs:69
    assert_eq!(rc, 0, "IRQ init fail");

    //  Start monitoring for touch controller interrupts
    unsafe { hal::hal_gpio_irq_enable(TOUCH_INTERRUPT_PIN) };
    Ok(())
}
  50:	980f      	ldr	r0, [sp, #60]	; 0x3c
  52:	b03c      	add	sp, #240	; 0xf0
  54:	bdb0      	pop	{r4, r5, r7, pc}
c:\stm32bluepill-mynewt-sensor/rust\app\src/touch_sensor.rs:43
    unsafe { TOUCH_RESET.init(TOUCH_RESET_PIN) ? };
  56:	980d      	ldr	r0, [sp, #52]	; 0x34
  58:	f7ff fffe 	bl	0 <_ZN73_$LT$core..result..Result$LT$T$C$E$GT$$u20$as$u20$core..ops..try..Try$GT$10from_error17h82883cbc71a62f35E>
  5c:	900f      	str	r0, [sp, #60]	; 0x3c
  5e:	e7ff      	b.n	60 <_ZN3app12touch_sensor18start_touch_sensor17hf2b3507dead70e2cE+0x60>
  60:	e7f6      	b.n	50 <_ZN3app12touch_sensor18start_touch_sensor17hf2b3507dead70e2cE+0x50>
c:\stm32bluepill-mynewt-sensor/rust\app\src/touch_sensor.rs:47
        TOUCH_RESET.set_low() ? ;
  62:	f240 0000 	movw	r0, #0
  66:	f2c0 0000 	movt	r0, #0
  6a:	f7ff fffe 	bl	0 <_ZN74_$LT$mynewt..hal..GPIO$u20$as$u20$embedded_hal..digital..v2..OutputPin$GT$7set_low17hf5d9bbaf992a0046E>
  6e:	900c      	str	r0, [sp, #48]	; 0x30
  70:	e7ff      	b.n	72 <_ZN3app12touch_sensor18start_touch_sensor17hf2b3507dead70e2cE+0x72>
  72:	980c      	ldr	r0, [sp, #48]	; 0x30
  74:	f7ff fffe 	bl	0 <_ZN73_$LT$core..result..Result$LT$T$C$E$GT$$u20$as$u20$core..ops..try..Try$GT$11into_result17h9239e9fc682870a0E>
  78:	9013      	str	r0, [sp, #76]	; 0x4c
  7a:	e7ff      	b.n	7c <_ZN3app12touch_sensor18start_touch_sensor17hf2b3507dead70e2cE+0x7c>
  7c:	9813      	ldr	r0, [sp, #76]	; 0x4c
  7e:	1e41      	subs	r1, r0, #1
  80:	bf18      	it	ne
  82:	2101      	movne	r1, #1
  84:	2801      	cmp	r0, #1
  86:	d010      	beq.n	aa <_ZN3app12touch_sensor18start_touch_sensor17hf2b3507dead70e2cE+0xaa>
  88:	e7ff      	b.n	8a <_ZN3app12touch_sensor18start_touch_sensor17hf2b3507dead70e2cE+0x8a>
  8a:	e000      	b.n	8e <_ZN3app12touch_sensor18start_touch_sensor17hf2b3507dead70e2cE+0x8e>
  8c:	defe      	udf	#254	; 0xfe
  8e:	9813      	ldr	r0, [sp, #76]	; 0x4c
  90:	9014      	str	r0, [sp, #80]	; 0x50
  92:	9814      	ldr	r0, [sp, #80]	; 0x50
  94:	f7ff fffe 	bl	0 <_ZN50_$LT$T$u20$as$u20$core..convert..From$LT$T$GT$$GT$4from17h1a28f543ef3bd8bcE>
  98:	900b      	str	r0, [sp, #44]	; 0x2c
  9a:	e7ff      	b.n	9c <_ZN3app12touch_sensor18start_touch_sensor17hf2b3507dead70e2cE+0x9c>
  9c:	980b      	ldr	r0, [sp, #44]	; 0x2c
  9e:	f7ff fffe 	bl	0 <_ZN73_$LT$core..result..Result$LT$T$C$E$GT$$u20$as$u20$core..ops..try..Try$GT$10from_error17h82883cbc71a62f35E>
  a2:	900f      	str	r0, [sp, #60]	; 0x3c
  a4:	e7ff      	b.n	a6 <_ZN3app12touch_sensor18start_touch_sensor17hf2b3507dead70e2cE+0xa6>
  a6:	e7ff      	b.n	a8 <_ZN3app12touch_sensor18start_touch_sensor17hf2b3507dead70e2cE+0xa8>
  a8:	e7d2      	b.n	50 <_ZN3app12touch_sensor18start_touch_sensor17hf2b3507dead70e2cE+0x50>
c:\stm32bluepill-mynewt-sensor/rust\app\src/touch_sensor.rs:48
        TOUCH_DELAY.delay_ms(20);
  aa:	f240 0000 	movw	r0, #0
  ae:	f2c0 0000 	movt	r0, #0
  b2:	2114      	movs	r1, #20
  b4:	f7ff fffe 	bl	0 <_ZN87_$LT$mynewt..hal..Delay$u20$as$u20$embedded_hal..blocking..delay..DelayMs$LT$u8$GT$$GT$8delay_ms17h60986c60053782adE>
  b8:	e7ff      	b.n	2 <_ZN3app12touch_sensor18start_touch_sensor17hf2b3507dead70e2cE+0x2>
c:\stm32bluepill-mynewt-sensor/rust\app\src/touch_sensor.rs:49
        TOUCH_RESET.set_high() ? ;
  ba:	f240 0000 	movw	r0, #0
  be:	f2c0 0000 	movt	r0, #0
  c2:	f7ff fffe 	bl	0 <_ZN74_$LT$mynewt..hal..GPIO$u20$as$u20$embedded_hal..digital..v2..OutputPin$GT$8set_high17h6c885466964abacbE>
  c6:	900a      	str	r0, [sp, #40]	; 0x28
  c8:	e7ff      	b.n	ca <_ZN3app12touch_sensor18start_touch_sensor17hf2b3507dead70e2cE+0xca>
  ca:	980a      	ldr	r0, [sp, #40]	; 0x28
  cc:	f7ff fffe 	bl	0 <_ZN73_$LT$core..result..Result$LT$T$C$E$GT$$u20$as$u20$core..ops..try..Try$GT$11into_result17h9239e9fc682870a0E>
  d0:	9016      	str	r0, [sp, #88]	; 0x58
  d2:	e7ff      	b.n	d4 <_ZN3app12touch_sensor18start_touch_sensor17hf2b3507dead70e2cE+0xd4>
  d4:	9816      	ldr	r0, [sp, #88]	; 0x58
  d6:	1e41      	subs	r1, r0, #1
  d8:	bf18      	it	ne
  da:	2101      	movne	r1, #1
  dc:	2801      	cmp	r0, #1
  de:	d00f      	beq.n	100 <_ZN3app12touch_sensor18start_touch_sensor17hf2b3507dead70e2cE+0x100>
  e0:	e7ff      	b.n	e2 <_ZN3app12touch_sensor18start_touch_sensor17hf2b3507dead70e2cE+0xe2>
  e2:	e000      	b.n	e6 <_ZN3app12touch_sensor18start_touch_sensor17hf2b3507dead70e2cE+0xe6>
  e4:	defe      	udf	#254	; 0xfe
  e6:	9816      	ldr	r0, [sp, #88]	; 0x58
  e8:	9017      	str	r0, [sp, #92]	; 0x5c
  ea:	9817      	ldr	r0, [sp, #92]	; 0x5c
  ec:	f7ff fffe 	bl	0 <_ZN50_$LT$T$u20$as$u20$core..convert..From$LT$T$GT$$GT$4from17h1a28f543ef3bd8bcE>
  f0:	9009      	str	r0, [sp, #36]	; 0x24
  f2:	e7ff      	b.n	f4 <_ZN3app12touch_sensor18start_touch_sensor17hf2b3507dead70e2cE+0xf4>
  f4:	9809      	ldr	r0, [sp, #36]	; 0x24
  f6:	f7ff fffe 	bl	0 <_ZN73_$LT$core..result..Result$LT$T$C$E$GT$$u20$as$u20$core..ops..try..Try$GT$10from_error17h82883cbc71a62f35E>
  fa:	900f      	str	r0, [sp, #60]	; 0x3c
  fc:	e7ff      	b.n	fe <_ZN3app12touch_sensor18start_touch_sensor17hf2b3507dead70e2cE+0xfe>
  fe:	e7d3      	b.n	a8 <_ZN3app12touch_sensor18start_touch_sensor17hf2b3507dead70e2cE+0xa8>
c:\stm32bluepill-mynewt-sensor/rust\app\src/touch_sensor.rs:50
        TOUCH_DELAY.delay_ms(200); TOUCH_DELAY.delay_ms(200);    
 100:	f240 0000 	movw	r0, #0
 104:	f2c0 0000 	movt	r0, #0
 108:	21c8      	movs	r1, #200	; 0xc8
 10a:	f7ff fffe 	bl	0 <_ZN87_$LT$mynewt..hal..Delay$u20$as$u20$embedded_hal..blocking..delay..DelayMs$LT$u8$GT$$GT$8delay_ms17h60986c60053782adE>
 10e:	e7ff      	b.n	2 <_ZN3app12touch_sensor18start_touch_sensor17hf2b3507dead70e2cE+0x2>
 110:	f240 0000 	movw	r0, #0
 114:	f2c0 0000 	movt	r0, #0
 118:	21c8      	movs	r1, #200	; 0xc8
 11a:	f7ff fffe 	bl	0 <_ZN87_$LT$mynewt..hal..Delay$u20$as$u20$embedded_hal..blocking..delay..DelayMs$LT$u8$GT$$GT$8delay_ms17h60986c60053782adE>
 11e:	e7ff      	b.n	2 <_ZN3app12touch_sensor18start_touch_sensor17hf2b3507dead70e2cE+0x2>
c:\stm32bluepill-mynewt-sensor/rust\app\src/touch_sensor.rs:54
    unsafe { TOUCH_EVENT.ev_cb = Some( touch_event_callback ) };
 120:	f240 0000 	movw	r0, #0
 124:	f2c0 0000 	movt	r0, #0
 128:	9019      	str	r0, [sp, #100]	; 0x64
 12a:	f240 0000 	movw	r0, #0
 12e:	f2c0 0000 	movt	r0, #0
 132:	901a      	str	r0, [sp, #104]	; 0x68
 134:	981a      	ldr	r0, [sp, #104]	; 0x68
 136:	9919      	ldr	r1, [sp, #100]	; 0x64
 138:	6041      	str	r1, [r0, #4]
c:\stm32bluepill-mynewt-sensor/rust\app\src/touch_sensor.rs:59
        Some( touch_interrupt_handler ),  //  Call `touch_interrupt_handler()` upon detecting interrupt
 13a:	f240 0000 	movw	r0, #0
 13e:	f2c0 0000 	movt	r0, #0
 142:	901c      	str	r0, [sp, #112]	; 0x70
c:\stm32bluepill-mynewt-sensor/rust\app\src/touch_sensor.rs:60
        core::ptr::null_mut(),            //  No arguments for `touch_interrupt_handler()`
 144:	e7ff      	b.n	146 <_ZN3app12touch_sensor18start_touch_sensor17hf2b3507dead70e2cE+0x146>
c:\stm32bluepill-mynewt-sensor/rust\app\src/touch_sensor.rs:57
    let rc = unsafe { hal::hal_gpio_irq_init(
 146:	991c      	ldr	r1, [sp, #112]	; 0x70
 148:	4668      	mov	r0, sp
 14a:	2201      	movs	r2, #1
 14c:	6002      	str	r2, [r0, #0]
 14e:	201c      	movs	r0, #28
 150:	2200      	movs	r2, #0
 152:	2302      	movs	r3, #2
 154:	f7ff fffe 	bl	0 <hal_gpio_irq_init>
 158:	901b      	str	r0, [sp, #108]	; 0x6c
 15a:	e7ff      	b.n	15c <_ZN3app12touch_sensor18start_touch_sensor17hf2b3507dead70e2cE+0x15c>
 15c:	a81b      	add	r0, sp, #108	; 0x6c
c:\stm32bluepill-mynewt-sensor/rust\app\src/touch_sensor.rs:64
    assert_eq!(rc, 0, "IRQ init fail");
 15e:	901d      	str	r0, [sp, #116]	; 0x74
 160:	f240 0000 	movw	r0, #0
 164:	f2c0 0000 	movt	r0, #0
 168:	901e      	str	r0, [sp, #120]	; 0x78
 16a:	981d      	ldr	r0, [sp, #116]	; 0x74
 16c:	901f      	str	r0, [sp, #124]	; 0x7c
 16e:	981e      	ldr	r0, [sp, #120]	; 0x78
 170:	9020      	str	r0, [sp, #128]	; 0x80
 172:	981f      	ldr	r0, [sp, #124]	; 0x7c
 174:	6800      	ldr	r0, [r0, #0]
 176:	9920      	ldr	r1, [sp, #128]	; 0x80
 178:	6809      	ldr	r1, [r1, #0]
 17a:	4288      	cmp	r0, r1
 17c:	d104      	bne.n	188 <_ZN3app12touch_sensor18start_touch_sensor17hf2b3507dead70e2cE+0x188>
 17e:	e7ff      	b.n	180 <_ZN3app12touch_sensor18start_touch_sensor17hf2b3507dead70e2cE+0x180>
 180:	201c      	movs	r0, #28
c:\stm32bluepill-mynewt-sensor/rust\app\src/touch_sensor.rs:67
    unsafe { hal::hal_gpio_irq_enable(TOUCH_INTERRUPT_PIN) };
 182:	f7ff fffe 	bl	0 <hal_gpio_irq_enable>
 186:	e064      	b.n	252 <_ZN3app12touch_sensor18start_touch_sensor17hf2b3507dead70e2cE+0x252>
c:\stm32bluepill-mynewt-sensor/rust\app\src/touch_sensor.rs:64
    assert_eq!(rc, 0, "IRQ init fail");
 188:	981f      	ldr	r0, [sp, #124]	; 0x7c
 18a:	9030      	str	r0, [sp, #192]	; 0xc0
 18c:	9820      	ldr	r0, [sp, #128]	; 0x80
 18e:	9031      	str	r0, [sp, #196]	; 0xc4
 190:	4668      	mov	r0, sp
 192:	2100      	movs	r1, #0
 194:	6001      	str	r1, [r0, #0]
 196:	f240 0100 	movw	r1, #0
 19a:	f2c0 0100 	movt	r1, #0
 19e:	a832      	add	r0, sp, #200	; 0xc8
 1a0:	2201      	movs	r2, #1
 1a2:	2304      	movs	r3, #4
 1a4:	f7ff fffe 	bl	0 <_ZN4core3fmt9Arguments6new_v117h9d151c8d8345202dE>
 1a8:	e7ff      	b.n	1aa <_ZN3app12touch_sensor18start_touch_sensor17hf2b3507dead70e2cE+0x1aa>
 1aa:	a830      	add	r0, sp, #192	; 0xc0
 1ac:	902d      	str	r0, [sp, #180]	; 0xb4
 1ae:	a831      	add	r0, sp, #196	; 0xc4
 1b0:	902e      	str	r0, [sp, #184]	; 0xb8
 1b2:	a832      	add	r0, sp, #200	; 0xc8
 1b4:	902f      	str	r0, [sp, #188]	; 0xbc
 1b6:	982d      	ldr	r0, [sp, #180]	; 0xb4
 1b8:	9038      	str	r0, [sp, #224]	; 0xe0
 1ba:	982e      	ldr	r0, [sp, #184]	; 0xb8
 1bc:	9039      	str	r0, [sp, #228]	; 0xe4
 1be:	982f      	ldr	r0, [sp, #188]	; 0xbc
 1c0:	903a      	str	r0, [sp, #232]	; 0xe8
 1c2:	9838      	ldr	r0, [sp, #224]	; 0xe0
 1c4:	f240 0100 	movw	r1, #0
 1c8:	f2c0 0100 	movt	r1, #0
 1cc:	f7ff fffe 	bl	0 <_ZN4core3fmt10ArgumentV13new17h7200433b07b66d26E>
 1d0:	9008      	str	r0, [sp, #32]
 1d2:	9107      	str	r1, [sp, #28]
 1d4:	e7ff      	b.n	1d6 <_ZN3app12touch_sensor18start_touch_sensor17hf2b3507dead70e2cE+0x1d6>
 1d6:	9839      	ldr	r0, [sp, #228]	; 0xe4
 1d8:	f240 0100 	movw	r1, #0
 1dc:	f2c0 0100 	movt	r1, #0
 1e0:	f7ff fffe 	bl	0 <_ZN4core3fmt10ArgumentV13new17h7200433b07b66d26E>
 1e4:	9006      	str	r0, [sp, #24]
 1e6:	9105      	str	r1, [sp, #20]
 1e8:	e7ff      	b.n	1ea <_ZN3app12touch_sensor18start_touch_sensor17hf2b3507dead70e2cE+0x1ea>
 1ea:	983a      	ldr	r0, [sp, #232]	; 0xe8
 1ec:	f240 0100 	movw	r1, #0
 1f0:	f2c0 0100 	movt	r1, #0
 1f4:	f7ff fffe 	bl	0 <_ZN4core3fmt10ArgumentV13new17h0be67fc4543e9aa4E>
 1f8:	9004      	str	r0, [sp, #16]
 1fa:	9103      	str	r1, [sp, #12]
 1fc:	e7ff      	b.n	1fe <_ZN3app12touch_sensor18start_touch_sensor17hf2b3507dead70e2cE+0x1fe>
 1fe:	9808      	ldr	r0, [sp, #32]
 200:	9027      	str	r0, [sp, #156]	; 0x9c
 202:	9907      	ldr	r1, [sp, #28]
 204:	9128      	str	r1, [sp, #160]	; 0xa0
 206:	9a06      	ldr	r2, [sp, #24]
 208:	9229      	str	r2, [sp, #164]	; 0xa4
 20a:	9b05      	ldr	r3, [sp, #20]
 20c:	932a      	str	r3, [sp, #168]	; 0xa8
 20e:	f8dd c010 	ldr.w	ip, [sp, #16]
 212:	f8cd c0ac 	str.w	ip, [sp, #172]	; 0xac
 216:	f8dd e00c 	ldr.w	lr, [sp, #12]
 21a:	f8cd e0b0 	str.w	lr, [sp, #176]	; 0xb0
 21e:	466c      	mov	r4, sp
 220:	2503      	movs	r5, #3
 222:	6025      	str	r5, [r4, #0]
 224:	f240 0100 	movw	r1, #0
 228:	f2c0 0100 	movt	r1, #0
 22c:	a821      	add	r0, sp, #132	; 0x84
 22e:	ab27      	add	r3, sp, #156	; 0x9c
 230:	462a      	mov	r2, r5
 232:	f7ff fffe 	bl	0 <_ZN4core3fmt9Arguments6new_v117h9d151c8d8345202dE>
 236:	e7ff      	b.n	2 <_ZN3app12touch_sensor18start_touch_sensor17hf2b3507dead70e2cE+0x2>
 238:	f240 0000 	movw	r0, #0
 23c:	f2c0 0000 	movt	r0, #0
 240:	903b      	str	r0, [sp, #236]	; 0xec
 242:	993b      	ldr	r1, [sp, #236]	; 0xec
 244:	9102      	str	r1, [sp, #8]
 246:	e7ff      	b.n	248 <_ZN3app12touch_sensor18start_touch_sensor17hf2b3507dead70e2cE+0x248>
 248:	a821      	add	r0, sp, #132	; 0x84
 24a:	9902      	ldr	r1, [sp, #8]
 24c:	f7ff fffe 	bl	0 <_ZN4core9panicking9panic_fmt17h43d9d9156d2a3f54E>
 250:	defe      	udf	#254	; 0xfe
 252:	2000      	movs	r0, #0
c:\stm32bluepill-mynewt-sensor/rust\app\src/touch_sensor.rs:68
    Ok(())
 254:	900f      	str	r0, [sp, #60]	; 0x3c
 256:	2001      	movs	r0, #1
 258:	900f      	str	r0, [sp, #60]	; 0x3c
c:\stm32bluepill-mynewt-sensor/rust\app\src/touch_sensor.rs:69
}
 25a:	e6f9      	b.n	50 <_ZN3app12touch_sensor18start_touch_sensor17hf2b3507dead70e2cE+0x50>

Disassembly of section .text._ZN3app12touch_sensor23touch_interrupt_handler17h374990b319a4a610E:

00000000 <_ZN3app12touch_sensor23touch_interrupt_handler17h374990b319a4a610E>:
_ZN3app12touch_sensor23touch_interrupt_handler17h374990b319a4a610E():
c:\stm32bluepill-mynewt-sensor/rust\app\src/touch_sensor.rs:72

/// Interrupt handler for the touch controller, triggered when a touch is detected
extern "C" fn touch_interrupt_handler(arg: *mut core::ffi::c_void) {
   0:	b580      	push	{r7, lr}
   2:	b086      	sub	sp, #24
   4:	9001      	str	r0, [sp, #4]
c:\stm32bluepill-mynewt-sensor/rust\app\src/touch_sensor.rs:74
    //  We forward a touch event to the Default Event Queue for deferred processing.  Don't do any processing here.
    unsafe { TOUCH_EVENT.ev_arg = arg };
   6:	9801      	ldr	r0, [sp, #4]
   8:	f240 0100 	movw	r1, #0
   c:	f2c0 0100 	movt	r1, #0
  10:	9102      	str	r1, [sp, #8]
  12:	9902      	ldr	r1, [sp, #8]
  14:	6088      	str	r0, [r1, #8]
  16:	a804      	add	r0, sp, #16
c:\stm32bluepill-mynewt-sensor/rust\app\src/touch_sensor.rs:76
    //  Fetch the Default Event Queue. TODO: Use dedicated Event Queue for higher priority processing.
    let queue = os::eventq_dflt_get()
  18:	f7ff fffe 	bl	0 <_ZN6mynewt6kernel2os15eventq_dflt_get17h801ed39ba6167dc8E>
  1c:	e7ff      	b.n	2 <_ZN3app12touch_sensor23touch_interrupt_handler17h374990b319a4a610E+0x2>
  1e:	f240 0100 	movw	r1, #0
  22:	f2c0 0100 	movt	r1, #0
  26:	a804      	add	r0, sp, #16
  28:	2208      	movs	r2, #8
  2a:	f7ff fffe 	bl	0 <_ZN4core6result19Result$LT$T$C$E$GT$6expect17h557b93805f6bd39bE>
  2e:	9003      	str	r0, [sp, #12]
  30:	e7ff      	b.n	32 <_ZN3app12touch_sensor23touch_interrupt_handler17h374990b319a4a610E+0x32>
c:\stm32bluepill-mynewt-sensor/rust\app\src/touch_sensor.rs:78
        .expect("GET fail");
	unsafe { os::os_eventq_put(queue, &mut TOUCH_EVENT) };  //  Trigger the callback function `touch_event_callback()`
  32:	9803      	ldr	r0, [sp, #12]
  34:	f240 0100 	movw	r1, #0
  38:	f2c0 0100 	movt	r1, #0
  3c:	f7ff fffe 	bl	0 <os_eventq_put>
  40:	e7ff      	b.n	42 <_ZN3app12touch_sensor23touch_interrupt_handler17h374990b319a4a610E+0x42>
c:\stm32bluepill-mynewt-sensor/rust\app\src/touch_sensor.rs:79
}
  42:	b006      	add	sp, #24
  44:	bd80      	pop	{r7, pc}

Disassembly of section .text._ZN3app12touch_sensor20touch_event_callback17hf06185e9fbf4073dE:

00000000 <_ZN3app12touch_sensor20touch_event_callback17hf06185e9fbf4073dE>:
_ZN3app12touch_sensor20touch_event_callback17hf06185e9fbf4073dE():
c:\stm32bluepill-mynewt-sensor/rust\app\src/touch_sensor.rs:82

/// Callback for the touch event that is triggered when a touch is detected
extern "C" fn touch_event_callback(_event: *mut os_event) {
   0:	b580      	push	{r7, lr}
   2:	b086      	sub	sp, #24
   4:	9001      	str	r0, [sp, #4]
c:\stm32bluepill-mynewt-sensor/rust\app\src/touch_sensor.rs:86
    //  console::printhex(unsafe { os::os_time_get() } as u8); console::print(" touch\n");
    unsafe { 
        //  Fetch the touch data from the touch controller
        read_touchdata(&mut TOUCH_DATA)
   6:	f240 0000 	movw	r0, #0
   a:	f2c0 0000 	movt	r0, #0
   e:	f7ff fffe 	bl	0 <_ZN3app12touch_sensor20touch_event_callback17hf06185e9fbf4073dE>
  12:	9000      	str	r0, [sp, #0]
  14:	e7ff      	b.n	16 <_ZN3app12touch_sensor20touch_event_callback17hf06185e9fbf4073dE+0x16>
  16:	f240 0100 	movw	r1, #0
  1a:	f2c0 0100 	movt	r1, #0
  1e:	220e      	movs	r2, #14
  20:	9800      	ldr	r0, [sp, #0]
  22:	f7ff fffe 	bl	0 <_ZN4core6result19Result$LT$T$C$E$GT$6expect17hf56bd790b7bb02c4E>
  26:	e7ff      	b.n	2 <_ZN3app12touch_sensor20touch_event_callback17hf06185e9fbf4073dE+0x2>
c:\stm32bluepill-mynewt-sensor/rust\app\src/touch_sensor.rs:88
            .expect("touchdata fail");
        let x = TOUCH_DATA.touches[0].x;
  28:	f240 0000 	movw	r0, #0
  2c:	f2c0 0000 	movt	r0, #0
  30:	9003      	str	r0, [sp, #12]
  32:	9903      	ldr	r1, [sp, #12]
  34:	8809      	ldrh	r1, [r1, #0]
  36:	f8ad 100a 	strh.w	r1, [sp, #10]
c:\stm32bluepill-mynewt-sensor/rust\app\src/touch_sensor.rs:89
        let y = TOUCH_DATA.touches[0].y;
  3a:	9005      	str	r0, [sp, #20]
  3c:	9805      	ldr	r0, [sp, #20]
  3e:	8840      	ldrh	r0, [r0, #2]
  40:	f8ad 0012 	strh.w	r0, [sp, #18]
c:\stm32bluepill-mynewt-sensor/rust\app\src/touch_sensor.rs:92

        //  Handle the touch data in the UI        
        druid::handle_touch(x, y);
  44:	f8bd 1012 	ldrh.w	r1, [sp, #18]
  48:	f8bd 000a 	ldrh.w	r0, [sp, #10]
  4c:	f7ff fffe 	bl	0 <_ZN5druid11win_handler12handle_touch17h79e6090555c16018E>
  50:	e7ff      	b.n	52 <_ZN3app12touch_sensor20touch_event_callback17hf06185e9fbf4073dE+0x52>
c:\stm32bluepill-mynewt-sensor/rust\app\src/touch_sensor.rs:101
    }
    //  Disable the console output because it slows down the rendering
    //  console::printint(unsafe { TOUCH_DATA.touches[0].x } as i32); console::print(", ");
    //  console::printint(unsafe { TOUCH_DATA.touches[0].y } as i32); console::print("\n");
    //  console::flush();   
}
  52:	b006      	add	sp, #24
  54:	bd80      	pop	{r7, pc}

Disassembly of section .text._ZN3app12touch_sensor14read_touchdata17h3c7e9990c9c3cab0E:

00000000 <_ZN3app12touch_sensor14read_touchdata17h3c7e9990c9c3cab0E>:
_ZN3app12touch_sensor14read_touchdata17h3c7e9990c9c3cab0E():
c:\stm32bluepill-mynewt-sensor/rust\app\src/touch_sensor.rs:108
/// Touch data will be populated here
static mut TOUCH_DATA: TouchEventInfo = fill_zero!(TouchEventInfo);

/// Read touch controller data. This only works when the screen has been tapped and the touch controller wakes up.
/// Ported from https://github.com/lupyuen/hynitron_i2c_cst0xxse/blob/master/cst0xx_core.c#L407-L466
fn read_touchdata(data: &mut TouchEventInfo) -> MynewtResult<()> {
   0:	b580      	push	{r7, lr}
   2:	b0f0      	sub	sp, #448	; 0x1c0
   4:	902d      	str	r0, [sp, #180]	; 0xb4
c:\stm32bluepill-mynewt-sensor/rust\app\src/touch_sensor.rs:109
    read_register_range(           //  Read the range of I2C registers...
   6:	4668      	mov	r0, sp
   8:	213f      	movs	r1, #63	; 0x3f
   a:	6001      	str	r1, [r0, #0]
   c:	f240 0300 	movw	r3, #0
  10:	f2c0 0300 	movt	r3, #0
  14:	2015      	movs	r0, #21
  16:	2200      	movs	r2, #0
  18:	912c      	str	r1, [sp, #176]	; 0xb0
  1a:	4611      	mov	r1, r2
  1c:	9a2c      	ldr	r2, [sp, #176]	; 0xb0
  1e:	f7ff fffe 	bl	0 <_ZN3app12touch_sensor14read_touchdata17h3c7e9990c9c3cab0E>
  22:	902b      	str	r0, [sp, #172]	; 0xac
  24:	e7ff      	b.n	26 <_ZN3app12touch_sensor14read_touchdata17h3c7e9990c9c3cab0E+0x26>
  26:	f240 0100 	movw	r1, #0
  2a:	f2c0 0100 	movt	r1, #0
  2e:	2213      	movs	r2, #19
  30:	982b      	ldr	r0, [sp, #172]	; 0xac
  32:	f7ff fffe 	bl	0 <_ZN4core6result19Result$LT$T$C$E$GT$6expect17hf56bd790b7bb02c4E>
  36:	e7ff      	b.n	38 <_ZN3app12touch_sensor14read_touchdata17h3c7e9990c9c3cab0E+0x38>
  38:	f50d 7085 	add.w	r0, sp, #266	; 0x10a
  3c:	2152      	movs	r1, #82	; 0x52
c:\stm32bluepill-mynewt-sensor/rust\app\src/touch_sensor.rs:115
        TOUCH_CONTROLLER_ADDRESS,  //  From the touch controller
        0,                         //  Starting from register 0
        POINT_READ_BUF as u8,      //  Number of registers to read
        unsafe { &mut buf }        //  Save the read data into `buf`
    ).expect("read touchdata fail");
    *data = fill_zero!(TouchEventInfo);
  3e:	902a      	str	r0, [sp, #168]	; 0xa8
  40:	9129      	str	r1, [sp, #164]	; 0xa4
  42:	f7ff fffe 	bl	0 <__aeabi_memclr>
  46:	a82e      	add	r0, sp, #184	; 0xb8
  48:	992a      	ldr	r1, [sp, #168]	; 0xa8
  4a:	9a29      	ldr	r2, [sp, #164]	; 0xa4
  4c:	f7ff fffe 	bl	0 <__aeabi_memcpy>
  50:	e7ff      	b.n	52 <_ZN3app12touch_sensor14read_touchdata17h3c7e9990c9c3cab0E+0x52>
  52:	982d      	ldr	r0, [sp, #180]	; 0xb4
  54:	a92e      	add	r1, sp, #184	; 0xb8
  56:	2252      	movs	r2, #82	; 0x52
  58:	f7ff fffe 	bl	0 <__aeabi_memcpy>
c:\stm32bluepill-mynewt-sensor/rust\app\src/touch_sensor.rs:116
    data.point_num = unsafe { buf[FT_TOUCH_POINT_NUM] & 0x0F };
  5c:	f240 0100 	movw	r1, #0
  60:	f2c0 0100 	movt	r1, #0
  64:	9157      	str	r1, [sp, #348]	; 0x15c
  66:	9957      	ldr	r1, [sp, #348]	; 0x15c
  68:	7889      	ldrb	r1, [r1, #2]
  6a:	f001 010f 	and.w	r1, r1, #15
  6e:	9a2d      	ldr	r2, [sp, #180]	; 0xb4
  70:	f882 1051 	strb.w	r1, [r2, #81]	; 0x51
c:\stm32bluepill-mynewt-sensor/rust\app\src/touch_sensor.rs:117
    data.count     = 0;
  74:	992d      	ldr	r1, [sp, #180]	; 0xb4
  76:	2200      	movs	r2, #0
  78:	f881 2050 	strb.w	r2, [r1, #80]	; 0x50
c:\stm32bluepill-mynewt-sensor/rust\app\src/touch_sensor.rs:120

    //  Populate the first 5 touch points
    for i in 0..CFG_MAX_TOUCH_POINTS {
  7c:	9258      	str	r2, [sp, #352]	; 0x160
  7e:	2105      	movs	r1, #5
  80:	9159      	str	r1, [sp, #356]	; 0x164
  82:	9958      	ldr	r1, [sp, #352]	; 0x160
  84:	9a59      	ldr	r2, [sp, #356]	; 0x164
  86:	9028      	str	r0, [sp, #160]	; 0xa0
  88:	4608      	mov	r0, r1
  8a:	4611      	mov	r1, r2
  8c:	f7ff fffe 	bl	0 <_ZN63_$LT$I$u20$as$u20$core..iter..traits..collect..IntoIterator$GT$9into_iter17h8f7502cef85c2e1bE>
  90:	9027      	str	r0, [sp, #156]	; 0x9c
  92:	9126      	str	r1, [sp, #152]	; 0x98
  94:	e7ff      	b.n	96 <_ZN3app12touch_sensor14read_touchdata17h3c7e9990c9c3cab0E+0x96>
  96:	9827      	ldr	r0, [sp, #156]	; 0x9c
  98:	905a      	str	r0, [sp, #360]	; 0x168
  9a:	9926      	ldr	r1, [sp, #152]	; 0x98
  9c:	915b      	str	r1, [sp, #364]	; 0x16c
  9e:	e7ff      	b.n	a0 <_ZN3app12touch_sensor14read_touchdata17h3c7e9990c9c3cab0E+0xa0>
  a0:	a85a      	add	r0, sp, #360	; 0x168
  a2:	f7ff fffe 	bl	0 <_ZN4core4iter5range101_$LT$impl$u20$core..iter..traits..iterator..Iterator$u20$for$u20$core..ops..range..Range$LT$A$GT$$GT$4next17hcd80bd555cde1d96E>
  a6:	915e      	str	r1, [sp, #376]	; 0x178
  a8:	905d      	str	r0, [sp, #372]	; 0x174
  aa:	e7ff      	b.n	ac <_ZN3app12touch_sensor14read_touchdata17h3c7e9990c9c3cab0E+0xac>
  ac:	985d      	ldr	r0, [sp, #372]	; 0x174
  ae:	2800      	cmp	r0, #0
  b0:	d001      	beq.n	b6 <_ZN3app12touch_sensor14read_touchdata17h3c7e9990c9c3cab0E+0xb6>
  b2:	e7ff      	b.n	b4 <_ZN3app12touch_sensor14read_touchdata17h3c7e9990c9c3cab0E+0xb4>
  b4:	e001      	b.n	ba <_ZN3app12touch_sensor14read_touchdata17h3c7e9990c9c3cab0E+0xba>
  b6:	e014      	b.n	e2 <_ZN3app12touch_sensor14read_touchdata17h3c7e9990c9c3cab0E+0xe2>
  b8:	defe      	udf	#254	; 0xfe
  ba:	985e      	ldr	r0, [sp, #376]	; 0x178
  bc:	905f      	str	r0, [sp, #380]	; 0x17c
  be:	985f      	ldr	r0, [sp, #380]	; 0x17c
  c0:	905c      	str	r0, [sp, #368]	; 0x170
  c2:	985c      	ldr	r0, [sp, #368]	; 0x170
  c4:	9060      	str	r0, [sp, #384]	; 0x180
c:\stm32bluepill-mynewt-sensor/rust\app\src/touch_sensor.rs:121
        let pointid = unsafe { buf[HYN_TOUCH_ID_POS + HYN_TOUCH_STEP * i] } >> 4;
  c6:	f240 0000 	movw	r0, #0
  ca:	f2c0 0000 	movt	r0, #0
  ce:	9062      	str	r0, [sp, #392]	; 0x188
  d0:	9860      	ldr	r0, [sp, #384]	; 0x180
  d2:	2106      	movs	r1, #6
  d4:	fba1 0100 	umull	r0, r1, r1, r0
  d8:	2900      	cmp	r1, #0
  da:	9025      	str	r0, [sp, #148]	; 0x94
  dc:	f040 81d6 	bne.w	48c <_ZN3app12touch_sensor14read_touchdata17h3c7e9990c9c3cab0E+0x48c>
  e0:	e002      	b.n	e8 <_ZN3app12touch_sensor14read_touchdata17h3c7e9990c9c3cab0E+0xe8>
  e2:	2001      	movs	r0, #1
c:\stm32bluepill-mynewt-sensor/rust\app\src/touch_sensor.rs:153
            && (data.point_num == 0) {
            break;
        }
    }
    Ok(())
}
  e4:	b070      	add	sp, #448	; 0x1c0
  e6:	bd80      	pop	{r7, pc}
c:\stm32bluepill-mynewt-sensor/rust\app\src/touch_sensor.rs:121
        let pointid = unsafe { buf[HYN_TOUCH_ID_POS + HYN_TOUCH_STEP * i] } >> 4;
  e8:	9825      	ldr	r0, [sp, #148]	; 0x94
  ea:	1d41      	adds	r1, r0, #5
  ec:	460a      	mov	r2, r1
  ee:	4281      	cmp	r1, r0
  f0:	9224      	str	r2, [sp, #144]	; 0x90
  f2:	f0c0 81d7 	bcc.w	4a4 <_ZN3app12touch_sensor14read_touchdata17h3c7e9990c9c3cab0E+0x4a4>
  f6:	e7ff      	b.n	f8 <_ZN3app12touch_sensor14read_touchdata17h3c7e9990c9c3cab0E+0xf8>
  f8:	9824      	ldr	r0, [sp, #144]	; 0x90
  fa:	283e      	cmp	r0, #62	; 0x3e
  fc:	f200 81de 	bhi.w	4bc <_ZN3app12touch_sensor14read_touchdata17h3c7e9990c9c3cab0E+0x4bc>
 100:	e7ff      	b.n	102 <_ZN3app12touch_sensor14read_touchdata17h3c7e9990c9c3cab0E+0x102>
 102:	9862      	ldr	r0, [sp, #392]	; 0x188
 104:	9924      	ldr	r1, [sp, #144]	; 0x90
 106:	5c40      	ldrb	r0, [r0, r1]
 108:	0900      	lsrs	r0, r0, #4
 10a:	9023      	str	r0, [sp, #140]	; 0x8c
 10c:	e7ff      	b.n	10e <_ZN3app12touch_sensor14read_touchdata17h3c7e9990c9c3cab0E+0x10e>
 10e:	9823      	ldr	r0, [sp, #140]	; 0x8c
 110:	f88d 0187 	strb.w	r0, [sp, #391]	; 0x187
c:\stm32bluepill-mynewt-sensor/rust\app\src/touch_sensor.rs:122
        if pointid >= HYN_MAX_ID { break; }
 114:	f89d 1187 	ldrb.w	r1, [sp, #391]	; 0x187
 118:	290e      	cmp	r1, #14
 11a:	d80b      	bhi.n	134 <_ZN3app12touch_sensor14read_touchdata17h3c7e9990c9c3cab0E+0x134>
 11c:	e7ff      	b.n	11e <_ZN3app12touch_sensor14read_touchdata17h3c7e9990c9c3cab0E+0x11e>
c:\stm32bluepill-mynewt-sensor/rust\app\src/touch_sensor.rs:125
        data.count += 1;
 11e:	982d      	ldr	r0, [sp, #180]	; 0xb4
 120:	f890 0050 	ldrb.w	r0, [r0, #80]	; 0x50
 124:	3001      	adds	r0, #1
 126:	b2c1      	uxtb	r1, r0
 128:	4602      	mov	r2, r0
 12a:	4281      	cmp	r1, r0
 12c:	9222      	str	r2, [sp, #136]	; 0x88
 12e:	f040 81ce 	bne.w	4ce <_ZN3app12touch_sensor14read_touchdata17h3c7e9990c9c3cab0E+0x4ce>
 132:	e001      	b.n	138 <_ZN3app12touch_sensor14read_touchdata17h3c7e9990c9c3cab0E+0x138>
c:\stm32bluepill-mynewt-sensor/rust\app\src/touch_sensor.rs:122
        if pointid >= HYN_MAX_ID { break; }
 134:	e7ff      	b.n	136 <_ZN3app12touch_sensor14read_touchdata17h3c7e9990c9c3cab0E+0x136>
 136:	e7d4      	b.n	e2 <_ZN3app12touch_sensor14read_touchdata17h3c7e9990c9c3cab0E+0xe2>
c:\stm32bluepill-mynewt-sensor/rust\app\src/touch_sensor.rs:125
        data.count += 1;
 138:	982d      	ldr	r0, [sp, #180]	; 0xb4
 13a:	9922      	ldr	r1, [sp, #136]	; 0x88
 13c:	f880 1050 	strb.w	r1, [r0, #80]	; 0x50
c:\stm32bluepill-mynewt-sensor/rust\app\src/touch_sensor.rs:126
        let x_high = unsafe { buf[HYN_TOUCH_X_H_POS + HYN_TOUCH_STEP * i] & 0x0F } as u16;
 140:	f240 0000 	movw	r0, #0
 144:	f2c0 0000 	movt	r0, #0
 148:	9064      	str	r0, [sp, #400]	; 0x190
 14a:	9860      	ldr	r0, [sp, #384]	; 0x180
 14c:	2206      	movs	r2, #6
 14e:	fba2 0200 	umull	r0, r2, r2, r0
 152:	2a00      	cmp	r2, #0
 154:	9021      	str	r0, [sp, #132]	; 0x84
 156:	f040 81c6 	bne.w	4e6 <_ZN3app12touch_sensor14read_touchdata17h3c7e9990c9c3cab0E+0x4e6>
 15a:	e7ff      	b.n	15c <_ZN3app12touch_sensor14read_touchdata17h3c7e9990c9c3cab0E+0x15c>
 15c:	9821      	ldr	r0, [sp, #132]	; 0x84
 15e:	1cc1      	adds	r1, r0, #3
 160:	460a      	mov	r2, r1
 162:	4281      	cmp	r1, r0
 164:	9220      	str	r2, [sp, #128]	; 0x80
 166:	f0c0 81ca 	bcc.w	4fe <_ZN3app12touch_sensor14read_touchdata17h3c7e9990c9c3cab0E+0x4fe>
 16a:	e7ff      	b.n	16c <_ZN3app12touch_sensor14read_touchdata17h3c7e9990c9c3cab0E+0x16c>
 16c:	9820      	ldr	r0, [sp, #128]	; 0x80
 16e:	283e      	cmp	r0, #62	; 0x3e
 170:	f200 81d1 	bhi.w	516 <_ZN3app12touch_sensor14read_touchdata17h3c7e9990c9c3cab0E+0x516>
 174:	e7ff      	b.n	176 <_ZN3app12touch_sensor14read_touchdata17h3c7e9990c9c3cab0E+0x176>
 176:	9864      	ldr	r0, [sp, #400]	; 0x190
 178:	9920      	ldr	r1, [sp, #128]	; 0x80
 17a:	5c40      	ldrb	r0, [r0, r1]
 17c:	f000 000f 	and.w	r0, r0, #15
 180:	f8ad 018e 	strh.w	r0, [sp, #398]	; 0x18e
c:\stm32bluepill-mynewt-sensor/rust\app\src/touch_sensor.rs:127
        let x_low  = unsafe { buf[HYN_TOUCH_X_L_POS + HYN_TOUCH_STEP * i] } as u16;
 184:	f240 0000 	movw	r0, #0
 188:	f2c0 0000 	movt	r0, #0
 18c:	9066      	str	r0, [sp, #408]	; 0x198
 18e:	9860      	ldr	r0, [sp, #384]	; 0x180
 190:	2206      	movs	r2, #6
 192:	fba2 0200 	umull	r0, r2, r2, r0
 196:	2a00      	cmp	r2, #0
 198:	901f      	str	r0, [sp, #124]	; 0x7c
 19a:	f040 81c5 	bne.w	528 <_ZN3app12touch_sensor14read_touchdata17h3c7e9990c9c3cab0E+0x528>
 19e:	e7ff      	b.n	1a0 <_ZN3app12touch_sensor14read_touchdata17h3c7e9990c9c3cab0E+0x1a0>
 1a0:	981f      	ldr	r0, [sp, #124]	; 0x7c
 1a2:	1d01      	adds	r1, r0, #4
 1a4:	460a      	mov	r2, r1
 1a6:	4281      	cmp	r1, r0
 1a8:	921e      	str	r2, [sp, #120]	; 0x78
 1aa:	f0c0 81c9 	bcc.w	540 <_ZN3app12touch_sensor14read_touchdata17h3c7e9990c9c3cab0E+0x540>
 1ae:	e7ff      	b.n	1b0 <_ZN3app12touch_sensor14read_touchdata17h3c7e9990c9c3cab0E+0x1b0>
 1b0:	981e      	ldr	r0, [sp, #120]	; 0x78
 1b2:	283e      	cmp	r0, #62	; 0x3e
 1b4:	f200 81d0 	bhi.w	558 <_ZN3app12touch_sensor14read_touchdata17h3c7e9990c9c3cab0E+0x558>
 1b8:	e7ff      	b.n	1ba <_ZN3app12touch_sensor14read_touchdata17h3c7e9990c9c3cab0E+0x1ba>
 1ba:	9866      	ldr	r0, [sp, #408]	; 0x198
 1bc:	991e      	ldr	r1, [sp, #120]	; 0x78
 1be:	5c40      	ldrb	r0, [r0, r1]
 1c0:	f8ad 0196 	strh.w	r0, [sp, #406]	; 0x196
c:\stm32bluepill-mynewt-sensor/rust\app\src/touch_sensor.rs:128
        data.touches[i].x  = (x_high << 8) | x_low;
 1c4:	f8bd 018e 	ldrh.w	r0, [sp, #398]	; 0x18e
 1c8:	0200      	lsls	r0, r0, #8
 1ca:	901d      	str	r0, [sp, #116]	; 0x74
 1cc:	e7ff      	b.n	1ce <_ZN3app12touch_sensor14read_touchdata17h3c7e9990c9c3cab0E+0x1ce>
 1ce:	f8bd 0196 	ldrh.w	r0, [sp, #406]	; 0x196
 1d2:	9960      	ldr	r1, [sp, #384]	; 0x180
 1d4:	2909      	cmp	r1, #9
 1d6:	901c      	str	r0, [sp, #112]	; 0x70
 1d8:	911b      	str	r1, [sp, #108]	; 0x6c
 1da:	f200 81c6 	bhi.w	56a <_ZN3app12touch_sensor14read_touchdata17h3c7e9990c9c3cab0E+0x56a>
 1de:	e7ff      	b.n	1e0 <_ZN3app12touch_sensor14read_touchdata17h3c7e9990c9c3cab0E+0x1e0>
 1e0:	982d      	ldr	r0, [sp, #180]	; 0xb4
 1e2:	991d      	ldr	r1, [sp, #116]	; 0x74
 1e4:	9a1c      	ldr	r2, [sp, #112]	; 0x70
 1e6:	ea41 0302 	orr.w	r3, r1, r2
 1ea:	f8dd c06c 	ldr.w	ip, [sp, #108]	; 0x6c
 1ee:	f820 303c 	strh.w	r3, [r0, ip, lsl #3]
c:\stm32bluepill-mynewt-sensor/rust\app\src/touch_sensor.rs:130
        let y_high = unsafe { buf[HYN_TOUCH_Y_H_POS + HYN_TOUCH_STEP * i] & 0x0F } as u16;
 1f2:	f240 0000 	movw	r0, #0
 1f6:	f2c0 0000 	movt	r0, #0
 1fa:	9068      	str	r0, [sp, #416]	; 0x1a0
 1fc:	9860      	ldr	r0, [sp, #384]	; 0x180
 1fe:	2306      	movs	r3, #6
 200:	fba3 0300 	umull	r0, r3, r3, r0
 204:	2b00      	cmp	r3, #0
 206:	901a      	str	r0, [sp, #104]	; 0x68
 208:	f040 81b8 	bne.w	57c <_ZN3app12touch_sensor14read_touchdata17h3c7e9990c9c3cab0E+0x57c>
 20c:	e7ff      	b.n	20e <_ZN3app12touch_sensor14read_touchdata17h3c7e9990c9c3cab0E+0x20e>
 20e:	981a      	ldr	r0, [sp, #104]	; 0x68
 210:	1d41      	adds	r1, r0, #5
 212:	460a      	mov	r2, r1
 214:	4281      	cmp	r1, r0
 216:	9219      	str	r2, [sp, #100]	; 0x64
 218:	f0c0 81bc 	bcc.w	594 <_ZN3app12touch_sensor14read_touchdata17h3c7e9990c9c3cab0E+0x594>
 21c:	e7ff      	b.n	21e <_ZN3app12touch_sensor14read_touchdata17h3c7e9990c9c3cab0E+0x21e>
 21e:	9819      	ldr	r0, [sp, #100]	; 0x64
 220:	283e      	cmp	r0, #62	; 0x3e
 222:	f200 81c3 	bhi.w	5ac <_ZN3app12touch_sensor14read_touchdata17h3c7e9990c9c3cab0E+0x5ac>
 226:	e7ff      	b.n	228 <_ZN3app12touch_sensor14read_touchdata17h3c7e9990c9c3cab0E+0x228>
 228:	9868      	ldr	r0, [sp, #416]	; 0x1a0
 22a:	9919      	ldr	r1, [sp, #100]	; 0x64
 22c:	5c40      	ldrb	r0, [r0, r1]
 22e:	f000 000f 	and.w	r0, r0, #15
 232:	f8ad 019e 	strh.w	r0, [sp, #414]	; 0x19e
c:\stm32bluepill-mynewt-sensor/rust\app\src/touch_sensor.rs:131
        let y_low  = unsafe { buf[HYN_TOUCH_Y_L_POS + HYN_TOUCH_STEP * i] } as u16;
 236:	f240 0000 	movw	r0, #0
 23a:	f2c0 0000 	movt	r0, #0
 23e:	906a      	str	r0, [sp, #424]	; 0x1a8
 240:	9860      	ldr	r0, [sp, #384]	; 0x180
 242:	2206      	movs	r2, #6
 244:	fba2 0200 	umull	r0, r2, r2, r0
 248:	2a00      	cmp	r2, #0
 24a:	9018      	str	r0, [sp, #96]	; 0x60
 24c:	f040 81b7 	bne.w	5be <_ZN3app12touch_sensor14read_touchdata17h3c7e9990c9c3cab0E+0x5be>
 250:	e7ff      	b.n	252 <_ZN3app12touch_sensor14read_touchdata17h3c7e9990c9c3cab0E+0x252>
 252:	9818      	ldr	r0, [sp, #96]	; 0x60
 254:	1d81      	adds	r1, r0, #6
 256:	460a      	mov	r2, r1
 258:	4281      	cmp	r1, r0
 25a:	9217      	str	r2, [sp, #92]	; 0x5c
 25c:	f0c0 81bb 	bcc.w	5d6 <_ZN3app12touch_sensor14read_touchdata17h3c7e9990c9c3cab0E+0x5d6>
 260:	e7ff      	b.n	262 <_ZN3app12touch_sensor14read_touchdata17h3c7e9990c9c3cab0E+0x262>
 262:	9817      	ldr	r0, [sp, #92]	; 0x5c
 264:	283e      	cmp	r0, #62	; 0x3e
 266:	f200 81c2 	bhi.w	5ee <_ZN3app12touch_sensor14read_touchdata17h3c7e9990c9c3cab0E+0x5ee>
 26a:	e7ff      	b.n	26c <_ZN3app12touch_sensor14read_touchdata17h3c7e9990c9c3cab0E+0x26c>
 26c:	986a      	ldr	r0, [sp, #424]	; 0x1a8
 26e:	9917      	ldr	r1, [sp, #92]	; 0x5c
 270:	5c40      	ldrb	r0, [r0, r1]
 272:	f8ad 01a6 	strh.w	r0, [sp, #422]	; 0x1a6
c:\stm32bluepill-mynewt-sensor/rust\app\src/touch_sensor.rs:132
        data.touches[i].y  = (y_high << 8) | y_low;
 276:	f8bd 019e 	ldrh.w	r0, [sp, #414]	; 0x19e
 27a:	0200      	lsls	r0, r0, #8
 27c:	9016      	str	r0, [sp, #88]	; 0x58
 27e:	e7ff      	b.n	280 <_ZN3app12touch_sensor14read_touchdata17h3c7e9990c9c3cab0E+0x280>
 280:	f8bd 01a6 	ldrh.w	r0, [sp, #422]	; 0x1a6
 284:	9960      	ldr	r1, [sp, #384]	; 0x180
 286:	2909      	cmp	r1, #9
 288:	9015      	str	r0, [sp, #84]	; 0x54
 28a:	9114      	str	r1, [sp, #80]	; 0x50
 28c:	f200 81b8 	bhi.w	600 <_ZN3app12touch_sensor14read_touchdata17h3c7e9990c9c3cab0E+0x600>
 290:	e7ff      	b.n	292 <_ZN3app12touch_sensor14read_touchdata17h3c7e9990c9c3cab0E+0x292>
 292:	982d      	ldr	r0, [sp, #180]	; 0xb4
 294:	9914      	ldr	r1, [sp, #80]	; 0x50
 296:	eb00 00c1 	add.w	r0, r0, r1, lsl #3
 29a:	9a16      	ldr	r2, [sp, #88]	; 0x58
 29c:	9b15      	ldr	r3, [sp, #84]	; 0x54
 29e:	ea42 0c03 	orr.w	ip, r2, r3
 2a2:	f8a0 c002 	strh.w	ip, [r0, #2]
c:\stm32bluepill-mynewt-sensor/rust\app\src/touch_sensor.rs:136
            unsafe { buf[HYN_TOUCH_EVENT_POS + HYN_TOUCH_STEP * i] } >> 6;
 2a6:	f240 0000 	movw	r0, #0
 2aa:	f2c0 0000 	movt	r0, #0
 2ae:	906b      	str	r0, [sp, #428]	; 0x1ac
 2b0:	9860      	ldr	r0, [sp, #384]	; 0x180
 2b2:	f04f 0c06 	mov.w	ip, #6
 2b6:	fbac 0c00 	umull	r0, ip, ip, r0
 2ba:	f1bc 0f00 	cmp.w	ip, #0
 2be:	9013      	str	r0, [sp, #76]	; 0x4c
 2c0:	f040 81a7 	bne.w	612 <_ZN3app12touch_sensor14read_touchdata17h3c7e9990c9c3cab0E+0x612>
 2c4:	e7ff      	b.n	2c6 <_ZN3app12touch_sensor14read_touchdata17h3c7e9990c9c3cab0E+0x2c6>
 2c6:	9813      	ldr	r0, [sp, #76]	; 0x4c
 2c8:	1cc1      	adds	r1, r0, #3
 2ca:	460a      	mov	r2, r1
 2cc:	4281      	cmp	r1, r0
 2ce:	9212      	str	r2, [sp, #72]	; 0x48
 2d0:	f0c0 81ab 	bcc.w	62a <_ZN3app12touch_sensor14read_touchdata17h3c7e9990c9c3cab0E+0x62a>
 2d4:	e7ff      	b.n	2d6 <_ZN3app12touch_sensor14read_touchdata17h3c7e9990c9c3cab0E+0x2d6>
 2d6:	9812      	ldr	r0, [sp, #72]	; 0x48
 2d8:	283e      	cmp	r0, #62	; 0x3e
 2da:	f200 81b2 	bhi.w	642 <_ZN3app12touch_sensor14read_touchdata17h3c7e9990c9c3cab0E+0x642>
 2de:	e7ff      	b.n	2e0 <_ZN3app12touch_sensor14read_touchdata17h3c7e9990c9c3cab0E+0x2e0>
 2e0:	986b      	ldr	r0, [sp, #428]	; 0x1ac
 2e2:	9912      	ldr	r1, [sp, #72]	; 0x48
 2e4:	5c40      	ldrb	r0, [r0, r1]
 2e6:	0980      	lsrs	r0, r0, #6
 2e8:	9011      	str	r0, [sp, #68]	; 0x44
 2ea:	e7ff      	b.n	2ec <_ZN3app12touch_sensor14read_touchdata17h3c7e9990c9c3cab0E+0x2ec>
c:\stm32bluepill-mynewt-sensor/rust\app\src/touch_sensor.rs:135
        data.touches[i].action =
 2ec:	9860      	ldr	r0, [sp, #384]	; 0x180
 2ee:	2809      	cmp	r0, #9
 2f0:	9010      	str	r0, [sp, #64]	; 0x40
 2f2:	f200 81af 	bhi.w	654 <_ZN3app12touch_sensor14read_touchdata17h3c7e9990c9c3cab0E+0x654>
 2f6:	e7ff      	b.n	2f8 <_ZN3app12touch_sensor14read_touchdata17h3c7e9990c9c3cab0E+0x2f8>
 2f8:	982d      	ldr	r0, [sp, #180]	; 0xb4
 2fa:	9910      	ldr	r1, [sp, #64]	; 0x40
 2fc:	eb00 00c1 	add.w	r0, r0, r1, lsl #3
 300:	9a11      	ldr	r2, [sp, #68]	; 0x44
 302:	7102      	strb	r2, [r0, #4]
c:\stm32bluepill-mynewt-sensor/rust\app\src/touch_sensor.rs:138
            unsafe { buf[HYN_TOUCH_ID_POS    + HYN_TOUCH_STEP * i] } >> 4;
 304:	f240 0000 	movw	r0, #0
 308:	f2c0 0000 	movt	r0, #0
 30c:	906c      	str	r0, [sp, #432]	; 0x1b0
 30e:	9860      	ldr	r0, [sp, #384]	; 0x180
 310:	2306      	movs	r3, #6
 312:	fba3 0300 	umull	r0, r3, r3, r0
 316:	2b00      	cmp	r3, #0
 318:	900f      	str	r0, [sp, #60]	; 0x3c
 31a:	f040 81a4 	bne.w	666 <_ZN3app12touch_sensor14read_touchdata17h3c7e9990c9c3cab0E+0x666>
 31e:	e7ff      	b.n	320 <_ZN3app12touch_sensor14read_touchdata17h3c7e9990c9c3cab0E+0x320>
 320:	980f      	ldr	r0, [sp, #60]	; 0x3c
 322:	1d41      	adds	r1, r0, #5
 324:	460a      	mov	r2, r1
 326:	4281      	cmp	r1, r0
 328:	920e      	str	r2, [sp, #56]	; 0x38
 32a:	f0c0 81a8 	bcc.w	67e <_ZN3app12touch_sensor14read_touchdata17h3c7e9990c9c3cab0E+0x67e>
 32e:	e7ff      	b.n	330 <_ZN3app12touch_sensor14read_touchdata17h3c7e9990c9c3cab0E+0x330>
 330:	980e      	ldr	r0, [sp, #56]	; 0x38
 332:	283e      	cmp	r0, #62	; 0x3e
 334:	f200 81af 	bhi.w	696 <_ZN3app12touch_sensor14read_touchdata17h3c7e9990c9c3cab0E+0x696>
 338:	e7ff      	b.n	33a <_ZN3app12touch_sensor14read_touchdata17h3c7e9990c9c3cab0E+0x33a>
 33a:	986c      	ldr	r0, [sp, #432]	; 0x1b0
 33c:	990e      	ldr	r1, [sp, #56]	; 0x38
 33e:	5c40      	ldrb	r0, [r0, r1]
 340:	0900      	lsrs	r0, r0, #4
 342:	900d      	str	r0, [sp, #52]	; 0x34
 344:	e7ff      	b.n	346 <_ZN3app12touch_sensor14read_touchdata17h3c7e9990c9c3cab0E+0x346>
c:\stm32bluepill-mynewt-sensor/rust\app\src/touch_sensor.rs:137
        data.touches[i].finger =
 346:	9860      	ldr	r0, [sp, #384]	; 0x180
 348:	2809      	cmp	r0, #9
 34a:	900c      	str	r0, [sp, #48]	; 0x30
 34c:	f200 81ac 	bhi.w	6a8 <_ZN3app12touch_sensor14read_touchdata17h3c7e9990c9c3cab0E+0x6a8>
 350:	e7ff      	b.n	352 <_ZN3app12touch_sensor14read_touchdata17h3c7e9990c9c3cab0E+0x352>
 352:	982d      	ldr	r0, [sp, #180]	; 0xb4
 354:	990c      	ldr	r1, [sp, #48]	; 0x30
 356:	eb00 00c1 	add.w	r0, r0, r1, lsl #3
 35a:	9a0d      	ldr	r2, [sp, #52]	; 0x34
 35c:	7142      	strb	r2, [r0, #5]
c:\stm32bluepill-mynewt-sensor/rust\app\src/touch_sensor.rs:142
            unsafe { buf[HYN_TOUCH_XY_POS + HYN_TOUCH_STEP * i] };  //  Can't be constant value
 35e:	f240 0000 	movw	r0, #0
 362:	f2c0 0000 	movt	r0, #0
 366:	906d      	str	r0, [sp, #436]	; 0x1b4
 368:	9860      	ldr	r0, [sp, #384]	; 0x180
 36a:	2306      	movs	r3, #6
 36c:	fba3 0300 	umull	r0, r3, r3, r0
 370:	2b00      	cmp	r3, #0
 372:	900b      	str	r0, [sp, #44]	; 0x2c
 374:	f040 81a1 	bne.w	6ba <_ZN3app12touch_sensor14read_touchdata17h3c7e9990c9c3cab0E+0x6ba>
 378:	e7ff      	b.n	37a <_ZN3app12touch_sensor14read_touchdata17h3c7e9990c9c3cab0E+0x37a>
 37a:	980b      	ldr	r0, [sp, #44]	; 0x2c
 37c:	1dc1      	adds	r1, r0, #7
 37e:	460a      	mov	r2, r1
 380:	4281      	cmp	r1, r0
 382:	920a      	str	r2, [sp, #40]	; 0x28
 384:	f0c0 81a5 	bcc.w	6d2 <_ZN3app12touch_sensor14read_touchdata17h3c7e9990c9c3cab0E+0x6d2>
 388:	e7ff      	b.n	38a <_ZN3app12touch_sensor14read_touchdata17h3c7e9990c9c3cab0E+0x38a>
 38a:	980a      	ldr	r0, [sp, #40]	; 0x28
 38c:	283e      	cmp	r0, #62	; 0x3e
 38e:	f200 81ac 	bhi.w	6ea <_ZN3app12touch_sensor14read_touchdata17h3c7e9990c9c3cab0E+0x6ea>
 392:	e7ff      	b.n	394 <_ZN3app12touch_sensor14read_touchdata17h3c7e9990c9c3cab0E+0x394>
 394:	986d      	ldr	r0, [sp, #436]	; 0x1b4
 396:	990a      	ldr	r1, [sp, #40]	; 0x28
 398:	5c40      	ldrb	r0, [r0, r1]
c:\stm32bluepill-mynewt-sensor/rust\app\src/touch_sensor.rs:141
        data.touches[i].pressure =
 39a:	9a60      	ldr	r2, [sp, #384]	; 0x180
 39c:	2a09      	cmp	r2, #9
 39e:	9009      	str	r0, [sp, #36]	; 0x24
 3a0:	9208      	str	r2, [sp, #32]
 3a2:	f200 81ab 	bhi.w	6fc <_ZN3app12touch_sensor14read_touchdata17h3c7e9990c9c3cab0E+0x6fc>
 3a6:	e7ff      	b.n	3a8 <_ZN3app12touch_sensor14read_touchdata17h3c7e9990c9c3cab0E+0x3a8>
 3a8:	982d      	ldr	r0, [sp, #180]	; 0xb4
 3aa:	9908      	ldr	r1, [sp, #32]
 3ac:	eb00 00c1 	add.w	r0, r0, r1, lsl #3
 3b0:	9a09      	ldr	r2, [sp, #36]	; 0x24
 3b2:	7182      	strb	r2, [r0, #6]
c:\stm32bluepill-mynewt-sensor/rust\app\src/touch_sensor.rs:144
            unsafe { buf[HYN_TOUCH_MISC   + HYN_TOUCH_STEP * i] } >> 4;
 3b4:	f240 0000 	movw	r0, #0
 3b8:	f2c0 0000 	movt	r0, #0
 3bc:	906e      	str	r0, [sp, #440]	; 0x1b8
 3be:	9860      	ldr	r0, [sp, #384]	; 0x180
 3c0:	2306      	movs	r3, #6
 3c2:	fba3 0300 	umull	r0, r3, r3, r0
 3c6:	2b00      	cmp	r3, #0
 3c8:	9007      	str	r0, [sp, #28]
 3ca:	f040 81a0 	bne.w	70e <_ZN3app12touch_sensor14read_touchdata17h3c7e9990c9c3cab0E+0x70e>
 3ce:	e7ff      	b.n	3d0 <_ZN3app12touch_sensor14read_touchdata17h3c7e9990c9c3cab0E+0x3d0>
 3d0:	9807      	ldr	r0, [sp, #28]
 3d2:	f100 0108 	add.w	r1, r0, #8
 3d6:	460a      	mov	r2, r1
 3d8:	4281      	cmp	r1, r0
 3da:	9206      	str	r2, [sp, #24]
 3dc:	f0c0 81a3 	bcc.w	726 <_ZN3app12touch_sensor14read_touchdata17h3c7e9990c9c3cab0E+0x726>
 3e0:	e7ff      	b.n	3e2 <_ZN3app12touch_sensor14read_touchdata17h3c7e9990c9c3cab0E+0x3e2>
 3e2:	9806      	ldr	r0, [sp, #24]
 3e4:	283e      	cmp	r0, #62	; 0x3e
 3e6:	f200 81aa 	bhi.w	73e <_ZN3app12touch_sensor14read_touchdata17h3c7e9990c9c3cab0E+0x73e>
 3ea:	e7ff      	b.n	3ec <_ZN3app12touch_sensor14read_touchdata17h3c7e9990c9c3cab0E+0x3ec>
 3ec:	986e      	ldr	r0, [sp, #440]	; 0x1b8
 3ee:	9906      	ldr	r1, [sp, #24]
 3f0:	5c40      	ldrb	r0, [r0, r1]
 3f2:	0900      	lsrs	r0, r0, #4
 3f4:	9005      	str	r0, [sp, #20]
 3f6:	e7ff      	b.n	3f8 <_ZN3app12touch_sensor14read_touchdata17h3c7e9990c9c3cab0E+0x3f8>
c:\stm32bluepill-mynewt-sensor/rust\app\src/touch_sensor.rs:143
        data.touches[i].area =
 3f8:	9860      	ldr	r0, [sp, #384]	; 0x180
 3fa:	2809      	cmp	r0, #9
 3fc:	9004      	str	r0, [sp, #16]
 3fe:	f200 81a7 	bhi.w	750 <_ZN3app12touch_sensor14read_touchdata17h3c7e9990c9c3cab0E+0x750>
 402:	e7ff      	b.n	404 <_ZN3app12touch_sensor14read_touchdata17h3c7e9990c9c3cab0E+0x404>
 404:	982d      	ldr	r0, [sp, #180]	; 0xb4
 406:	9904      	ldr	r1, [sp, #16]
 408:	eb00 00c1 	add.w	r0, r0, r1, lsl #3
 40c:	9a05      	ldr	r2, [sp, #20]
 40e:	71c2      	strb	r2, [r0, #7]
c:\stm32bluepill-mynewt-sensor/rust\app\src/touch_sensor.rs:147
        if (data.touches[i].action == 0 || data.touches[i].action == 2)  //  If touch is down or contact
 410:	9860      	ldr	r0, [sp, #384]	; 0x180
 412:	280a      	cmp	r0, #10
 414:	9003      	str	r0, [sp, #12]
 416:	d327      	bcc.n	468 <_ZN3app12touch_sensor14read_touchdata17h3c7e9990c9c3cab0E+0x468>
 418:	e1a3      	b.n	762 <_ZN3app12touch_sensor14read_touchdata17h3c7e9990c9c3cab0E+0x762>
 41a:	2001      	movs	r0, #1
 41c:	f88d 01be 	strb.w	r0, [sp, #446]	; 0x1be
 420:	e009      	b.n	436 <_ZN3app12touch_sensor14read_touchdata17h3c7e9990c9c3cab0E+0x436>
 422:	2000      	movs	r0, #0
 424:	f88d 01be 	strb.w	r0, [sp, #446]	; 0x1be
 428:	e005      	b.n	436 <_ZN3app12touch_sensor14read_touchdata17h3c7e9990c9c3cab0E+0x436>
c:\stm32bluepill-mynewt-sensor/rust\app\src/touch_sensor.rs:148
            && (data.point_num == 0) {
 42a:	982d      	ldr	r0, [sp, #180]	; 0xb4
 42c:	f890 0051 	ldrb.w	r0, [r0, #81]	; 0x51
c:\stm32bluepill-mynewt-sensor/rust\app\src/touch_sensor.rs:147
        if (data.touches[i].action == 0 || data.touches[i].action == 2)  //  If touch is down or contact
 430:	2800      	cmp	r0, #0
 432:	d0f2      	beq.n	41a <_ZN3app12touch_sensor14read_touchdata17h3c7e9990c9c3cab0E+0x41a>
 434:	e7f5      	b.n	422 <_ZN3app12touch_sensor14read_touchdata17h3c7e9990c9c3cab0E+0x422>
 436:	f89d 01be 	ldrb.w	r0, [sp, #446]	; 0x1be
 43a:	07c0      	lsls	r0, r0, #31
 43c:	2800      	cmp	r0, #0
 43e:	d124      	bne.n	48a <_ZN3app12touch_sensor14read_touchdata17h3c7e9990c9c3cab0E+0x48a>
 440:	e022      	b.n	488 <_ZN3app12touch_sensor14read_touchdata17h3c7e9990c9c3cab0E+0x488>
 442:	2001      	movs	r0, #1
 444:	f88d 01bf 	strb.w	r0, [sp, #447]	; 0x1bf
 448:	e008      	b.n	45c <_ZN3app12touch_sensor14read_touchdata17h3c7e9990c9c3cab0E+0x45c>
 44a:	2000      	movs	r0, #0
 44c:	f88d 01bf 	strb.w	r0, [sp, #447]	; 0x1bf
 450:	e004      	b.n	45c <_ZN3app12touch_sensor14read_touchdata17h3c7e9990c9c3cab0E+0x45c>
 452:	9860      	ldr	r0, [sp, #384]	; 0x180
 454:	280a      	cmp	r0, #10
 456:	9002      	str	r0, [sp, #8]
 458:	d30e      	bcc.n	478 <_ZN3app12touch_sensor14read_touchdata17h3c7e9990c9c3cab0E+0x478>
 45a:	e18b      	b.n	774 <_ZN3app12touch_sensor14read_touchdata17h3c7e9990c9c3cab0E+0x774>
 45c:	f89d 01bf 	ldrb.w	r0, [sp, #447]	; 0x1bf
 460:	07c0      	lsls	r0, r0, #31
 462:	2800      	cmp	r0, #0
 464:	d1e1      	bne.n	42a <_ZN3app12touch_sensor14read_touchdata17h3c7e9990c9c3cab0E+0x42a>
 466:	e7dc      	b.n	422 <_ZN3app12touch_sensor14read_touchdata17h3c7e9990c9c3cab0E+0x422>
 468:	982d      	ldr	r0, [sp, #180]	; 0xb4
 46a:	9903      	ldr	r1, [sp, #12]
 46c:	eb00 00c1 	add.w	r0, r0, r1, lsl #3
 470:	7900      	ldrb	r0, [r0, #4]
 472:	2800      	cmp	r0, #0
 474:	d0e5      	beq.n	442 <_ZN3app12touch_sensor14read_touchdata17h3c7e9990c9c3cab0E+0x442>
 476:	e7ec      	b.n	452 <_ZN3app12touch_sensor14read_touchdata17h3c7e9990c9c3cab0E+0x452>
 478:	982d      	ldr	r0, [sp, #180]	; 0xb4
 47a:	9902      	ldr	r1, [sp, #8]
 47c:	eb00 00c1 	add.w	r0, r0, r1, lsl #3
 480:	7900      	ldrb	r0, [r0, #4]
 482:	2802      	cmp	r0, #2
 484:	d0dd      	beq.n	442 <_ZN3app12touch_sensor14read_touchdata17h3c7e9990c9c3cab0E+0x442>
 486:	e7e0      	b.n	44a <_ZN3app12touch_sensor14read_touchdata17h3c7e9990c9c3cab0E+0x44a>
c:\stm32bluepill-mynewt-sensor/rust\app\src/touch_sensor.rs:120
    for i in 0..CFG_MAX_TOUCH_POINTS {
 488:	e60a      	b.n	a0 <_ZN3app12touch_sensor14read_touchdata17h3c7e9990c9c3cab0E+0xa0>
c:\stm32bluepill-mynewt-sensor/rust\app\src/touch_sensor.rs:149
            break;
 48a:	e654      	b.n	136 <_ZN3app12touch_sensor14read_touchdata17h3c7e9990c9c3cab0E+0x136>
c:\stm32bluepill-mynewt-sensor/rust\app\src/touch_sensor.rs:121
        let pointid = unsafe { buf[HYN_TOUCH_ID_POS + HYN_TOUCH_STEP * i] } >> 4;
 48c:	f240 0000 	movw	r0, #0
 490:	f2c0 0000 	movt	r0, #0
 494:	f240 0200 	movw	r2, #0
 498:	f2c0 0200 	movt	r2, #0
 49c:	2121      	movs	r1, #33	; 0x21
 49e:	f7ff fffe 	bl	0 <_ZN4core9panicking5panic17hfdd0eecc44a682f8E>
 4a2:	defe      	udf	#254	; 0xfe
 4a4:	f240 0000 	movw	r0, #0
 4a8:	f2c0 0000 	movt	r0, #0
 4ac:	f240 0200 	movw	r2, #0
 4b0:	f2c0 0200 	movt	r2, #0
 4b4:	211c      	movs	r1, #28
 4b6:	f7ff fffe 	bl	0 <_ZN4core9panicking5panic17hfdd0eecc44a682f8E>
 4ba:	defe      	udf	#254	; 0xfe
 4bc:	f240 0000 	movw	r0, #0
 4c0:	f2c0 0000 	movt	r0, #0
 4c4:	223f      	movs	r2, #63	; 0x3f
 4c6:	9924      	ldr	r1, [sp, #144]	; 0x90
 4c8:	f7ff fffe 	bl	0 <_ZN4core9panicking18panic_bounds_check17hefada55beeee1c8fE>
 4cc:	defe      	udf	#254	; 0xfe
c:\stm32bluepill-mynewt-sensor/rust\app\src/touch_sensor.rs:125
        data.count += 1;
 4ce:	f240 0000 	movw	r0, #0
 4d2:	f2c0 0000 	movt	r0, #0
 4d6:	f240 0200 	movw	r2, #0
 4da:	f2c0 0200 	movt	r2, #0
 4de:	211c      	movs	r1, #28
 4e0:	f7ff fffe 	bl	0 <_ZN4core9panicking5panic17hfdd0eecc44a682f8E>
 4e4:	defe      	udf	#254	; 0xfe
c:\stm32bluepill-mynewt-sensor/rust\app\src/touch_sensor.rs:126
        let x_high = unsafe { buf[HYN_TOUCH_X_H_POS + HYN_TOUCH_STEP * i] & 0x0F } as u16;
 4e6:	f240 0000 	movw	r0, #0
 4ea:	f2c0 0000 	movt	r0, #0
 4ee:	f240 0200 	movw	r2, #0
 4f2:	f2c0 0200 	movt	r2, #0
 4f6:	2121      	movs	r1, #33	; 0x21
 4f8:	f7ff fffe 	bl	0 <_ZN4core9panicking5panic17hfdd0eecc44a682f8E>
 4fc:	defe      	udf	#254	; 0xfe
 4fe:	f240 0000 	movw	r0, #0
 502:	f2c0 0000 	movt	r0, #0
 506:	f240 0200 	movw	r2, #0
 50a:	f2c0 0200 	movt	r2, #0
 50e:	211c      	movs	r1, #28
 510:	f7ff fffe 	bl	0 <_ZN4core9panicking5panic17hfdd0eecc44a682f8E>
 514:	defe      	udf	#254	; 0xfe
 516:	f240 0000 	movw	r0, #0
 51a:	f2c0 0000 	movt	r0, #0
 51e:	223f      	movs	r2, #63	; 0x3f
 520:	9920      	ldr	r1, [sp, #128]	; 0x80
 522:	f7ff fffe 	bl	0 <_ZN4core9panicking18panic_bounds_check17hefada55beeee1c8fE>
 526:	defe      	udf	#254	; 0xfe
c:\stm32bluepill-mynewt-sensor/rust\app\src/touch_sensor.rs:127
        let x_low  = unsafe { buf[HYN_TOUCH_X_L_POS + HYN_TOUCH_STEP * i] } as u16;
 528:	f240 0000 	movw	r0, #0
 52c:	f2c0 0000 	movt	r0, #0
 530:	f240 0200 	movw	r2, #0
 534:	f2c0 0200 	movt	r2, #0
 538:	2121      	movs	r1, #33	; 0x21
 53a:	f7ff fffe 	bl	0 <_ZN4core9panicking5panic17hfdd0eecc44a682f8E>
 53e:	defe      	udf	#254	; 0xfe
 540:	f240 0000 	movw	r0, #0
 544:	f2c0 0000 	movt	r0, #0
 548:	f240 0200 	movw	r2, #0
 54c:	f2c0 0200 	movt	r2, #0
 550:	211c      	movs	r1, #28
 552:	f7ff fffe 	bl	0 <_ZN4core9panicking5panic17hfdd0eecc44a682f8E>
 556:	defe      	udf	#254	; 0xfe
 558:	f240 0000 	movw	r0, #0
 55c:	f2c0 0000 	movt	r0, #0
 560:	223f      	movs	r2, #63	; 0x3f
 562:	991e      	ldr	r1, [sp, #120]	; 0x78
 564:	f7ff fffe 	bl	0 <_ZN4core9panicking18panic_bounds_check17hefada55beeee1c8fE>
 568:	defe      	udf	#254	; 0xfe
c:\stm32bluepill-mynewt-sensor/rust\app\src/touch_sensor.rs:128
        data.touches[i].x  = (x_high << 8) | x_low;
 56a:	f240 0000 	movw	r0, #0
 56e:	f2c0 0000 	movt	r0, #0
 572:	220a      	movs	r2, #10
 574:	991b      	ldr	r1, [sp, #108]	; 0x6c
 576:	f7ff fffe 	bl	0 <_ZN4core9panicking18panic_bounds_check17hefada55beeee1c8fE>
 57a:	defe      	udf	#254	; 0xfe
c:\stm32bluepill-mynewt-sensor/rust\app\src/touch_sensor.rs:130
        let y_high = unsafe { buf[HYN_TOUCH_Y_H_POS + HYN_TOUCH_STEP * i] & 0x0F } as u16;
 57c:	f240 0000 	movw	r0, #0
 580:	f2c0 0000 	movt	r0, #0
 584:	f240 0200 	movw	r2, #0
 588:	f2c0 0200 	movt	r2, #0
 58c:	2121      	movs	r1, #33	; 0x21
 58e:	f7ff fffe 	bl	0 <_ZN4core9panicking5panic17hfdd0eecc44a682f8E>
 592:	defe      	udf	#254	; 0xfe
 594:	f240 0000 	movw	r0, #0
 598:	f2c0 0000 	movt	r0, #0
 59c:	f240 0200 	movw	r2, #0
 5a0:	f2c0 0200 	movt	r2, #0
 5a4:	211c      	movs	r1, #28
 5a6:	f7ff fffe 	bl	0 <_ZN4core9panicking5panic17hfdd0eecc44a682f8E>
 5aa:	defe      	udf	#254	; 0xfe
 5ac:	f240 0000 	movw	r0, #0
 5b0:	f2c0 0000 	movt	r0, #0
 5b4:	223f      	movs	r2, #63	; 0x3f
 5b6:	9919      	ldr	r1, [sp, #100]	; 0x64
 5b8:	f7ff fffe 	bl	0 <_ZN4core9panicking18panic_bounds_check17hefada55beeee1c8fE>
 5bc:	defe      	udf	#254	; 0xfe
c:\stm32bluepill-mynewt-sensor/rust\app\src/touch_sensor.rs:131
        let y_low  = unsafe { buf[HYN_TOUCH_Y_L_POS + HYN_TOUCH_STEP * i] } as u16;
 5be:	f240 0000 	movw	r0, #0
 5c2:	f2c0 0000 	movt	r0, #0
 5c6:	f240 0200 	movw	r2, #0
 5ca:	f2c0 0200 	movt	r2, #0
 5ce:	2121      	movs	r1, #33	; 0x21
 5d0:	f7ff fffe 	bl	0 <_ZN4core9panicking5panic17hfdd0eecc44a682f8E>
 5d4:	defe      	udf	#254	; 0xfe
 5d6:	f240 0000 	movw	r0, #0
 5da:	f2c0 0000 	movt	r0, #0
 5de:	f240 0200 	movw	r2, #0
 5e2:	f2c0 0200 	movt	r2, #0
 5e6:	211c      	movs	r1, #28
 5e8:	f7ff fffe 	bl	0 <_ZN4core9panicking5panic17hfdd0eecc44a682f8E>
 5ec:	defe      	udf	#254	; 0xfe
 5ee:	f240 0000 	movw	r0, #0
 5f2:	f2c0 0000 	movt	r0, #0
 5f6:	223f      	movs	r2, #63	; 0x3f
 5f8:	9917      	ldr	r1, [sp, #92]	; 0x5c
 5fa:	f7ff fffe 	bl	0 <_ZN4core9panicking18panic_bounds_check17hefada55beeee1c8fE>
 5fe:	defe      	udf	#254	; 0xfe
c:\stm32bluepill-mynewt-sensor/rust\app\src/touch_sensor.rs:132
        data.touches[i].y  = (y_high << 8) | y_low;
 600:	f240 0000 	movw	r0, #0
 604:	f2c0 0000 	movt	r0, #0
 608:	220a      	movs	r2, #10
 60a:	9914      	ldr	r1, [sp, #80]	; 0x50
 60c:	f7ff fffe 	bl	0 <_ZN4core9panicking18panic_bounds_check17hefada55beeee1c8fE>
 610:	defe      	udf	#254	; 0xfe
c:\stm32bluepill-mynewt-sensor/rust\app\src/touch_sensor.rs:136
            unsafe { buf[HYN_TOUCH_EVENT_POS + HYN_TOUCH_STEP * i] } >> 6;
 612:	f240 0000 	movw	r0, #0
 616:	f2c0 0000 	movt	r0, #0
 61a:	f240 0200 	movw	r2, #0
 61e:	f2c0 0200 	movt	r2, #0
 622:	2121      	movs	r1, #33	; 0x21
 624:	f7ff fffe 	bl	0 <_ZN4core9panicking5panic17hfdd0eecc44a682f8E>
 628:	defe      	udf	#254	; 0xfe
 62a:	f240 0000 	movw	r0, #0
 62e:	f2c0 0000 	movt	r0, #0
 632:	f240 0200 	movw	r2, #0
 636:	f2c0 0200 	movt	r2, #0
 63a:	211c      	movs	r1, #28
 63c:	f7ff fffe 	bl	0 <_ZN4core9panicking5panic17hfdd0eecc44a682f8E>
 640:	defe      	udf	#254	; 0xfe
 642:	f240 0000 	movw	r0, #0
 646:	f2c0 0000 	movt	r0, #0
 64a:	223f      	movs	r2, #63	; 0x3f
 64c:	9912      	ldr	r1, [sp, #72]	; 0x48
 64e:	f7ff fffe 	bl	0 <_ZN4core9panicking18panic_bounds_check17hefada55beeee1c8fE>
 652:	defe      	udf	#254	; 0xfe
c:\stm32bluepill-mynewt-sensor/rust\app\src/touch_sensor.rs:135
        data.touches[i].action =
 654:	f240 0000 	movw	r0, #0
 658:	f2c0 0000 	movt	r0, #0
 65c:	220a      	movs	r2, #10
 65e:	9910      	ldr	r1, [sp, #64]	; 0x40
 660:	f7ff fffe 	bl	0 <_ZN4core9panicking18panic_bounds_check17hefada55beeee1c8fE>
 664:	defe      	udf	#254	; 0xfe
c:\stm32bluepill-mynewt-sensor/rust\app\src/touch_sensor.rs:138
            unsafe { buf[HYN_TOUCH_ID_POS    + HYN_TOUCH_STEP * i] } >> 4;
 666:	f240 0000 	movw	r0, #0
 66a:	f2c0 0000 	movt	r0, #0
 66e:	f240 0200 	movw	r2, #0
 672:	f2c0 0200 	movt	r2, #0
 676:	2121      	movs	r1, #33	; 0x21
 678:	f7ff fffe 	bl	0 <_ZN4core9panicking5panic17hfdd0eecc44a682f8E>
 67c:	defe      	udf	#254	; 0xfe
 67e:	f240 0000 	movw	r0, #0
 682:	f2c0 0000 	movt	r0, #0
 686:	f240 0200 	movw	r2, #0
 68a:	f2c0 0200 	movt	r2, #0
 68e:	211c      	movs	r1, #28
 690:	f7ff fffe 	bl	0 <_ZN4core9panicking5panic17hfdd0eecc44a682f8E>
 694:	defe      	udf	#254	; 0xfe
 696:	f240 0000 	movw	r0, #0
 69a:	f2c0 0000 	movt	r0, #0
 69e:	223f      	movs	r2, #63	; 0x3f
 6a0:	990e      	ldr	r1, [sp, #56]	; 0x38
 6a2:	f7ff fffe 	bl	0 <_ZN4core9panicking18panic_bounds_check17hefada55beeee1c8fE>
 6a6:	defe      	udf	#254	; 0xfe
c:\stm32bluepill-mynewt-sensor/rust\app\src/touch_sensor.rs:137
        data.touches[i].finger =
 6a8:	f240 0000 	movw	r0, #0
 6ac:	f2c0 0000 	movt	r0, #0
 6b0:	220a      	movs	r2, #10
 6b2:	990c      	ldr	r1, [sp, #48]	; 0x30
 6b4:	f7ff fffe 	bl	0 <_ZN4core9panicking18panic_bounds_check17hefada55beeee1c8fE>
 6b8:	defe      	udf	#254	; 0xfe
c:\stm32bluepill-mynewt-sensor/rust\app\src/touch_sensor.rs:142
            unsafe { buf[HYN_TOUCH_XY_POS + HYN_TOUCH_STEP * i] };  //  Can't be constant value
 6ba:	f240 0000 	movw	r0, #0
 6be:	f2c0 0000 	movt	r0, #0
 6c2:	f240 0200 	movw	r2, #0
 6c6:	f2c0 0200 	movt	r2, #0
 6ca:	2121      	movs	r1, #33	; 0x21
 6cc:	f7ff fffe 	bl	0 <_ZN4core9panicking5panic17hfdd0eecc44a682f8E>
 6d0:	defe      	udf	#254	; 0xfe
 6d2:	f240 0000 	movw	r0, #0
 6d6:	f2c0 0000 	movt	r0, #0
 6da:	f240 0200 	movw	r2, #0
 6de:	f2c0 0200 	movt	r2, #0
 6e2:	211c      	movs	r1, #28
 6e4:	f7ff fffe 	bl	0 <_ZN4core9panicking5panic17hfdd0eecc44a682f8E>
 6e8:	defe      	udf	#254	; 0xfe
 6ea:	f240 0000 	movw	r0, #0
 6ee:	f2c0 0000 	movt	r0, #0
 6f2:	223f      	movs	r2, #63	; 0x3f
 6f4:	990a      	ldr	r1, [sp, #40]	; 0x28
 6f6:	f7ff fffe 	bl	0 <_ZN4core9panicking18panic_bounds_check17hefada55beeee1c8fE>
 6fa:	defe      	udf	#254	; 0xfe
c:\stm32bluepill-mynewt-sensor/rust\app\src/touch_sensor.rs:141
        data.touches[i].pressure =
 6fc:	f240 0000 	movw	r0, #0
 700:	f2c0 0000 	movt	r0, #0
 704:	220a      	movs	r2, #10
 706:	9908      	ldr	r1, [sp, #32]
 708:	f7ff fffe 	bl	0 <_ZN4core9panicking18panic_bounds_check17hefada55beeee1c8fE>
 70c:	defe      	udf	#254	; 0xfe
c:\stm32bluepill-mynewt-sensor/rust\app\src/touch_sensor.rs:144
            unsafe { buf[HYN_TOUCH_MISC   + HYN_TOUCH_STEP * i] } >> 4;
 70e:	f240 0000 	movw	r0, #0
 712:	f2c0 0000 	movt	r0, #0
 716:	f240 0200 	movw	r2, #0
 71a:	f2c0 0200 	movt	r2, #0
 71e:	2121      	movs	r1, #33	; 0x21
 720:	f7ff fffe 	bl	0 <_ZN4core9panicking5panic17hfdd0eecc44a682f8E>
 724:	defe      	udf	#254	; 0xfe
 726:	f240 0000 	movw	r0, #0
 72a:	f2c0 0000 	movt	r0, #0
 72e:	f240 0200 	movw	r2, #0
 732:	f2c0 0200 	movt	r2, #0
 736:	211c      	movs	r1, #28
 738:	f7ff fffe 	bl	0 <_ZN4core9panicking5panic17hfdd0eecc44a682f8E>
 73c:	defe      	udf	#254	; 0xfe
 73e:	f240 0000 	movw	r0, #0
 742:	f2c0 0000 	movt	r0, #0
 746:	223f      	movs	r2, #63	; 0x3f
 748:	9906      	ldr	r1, [sp, #24]
 74a:	f7ff fffe 	bl	0 <_ZN4core9panicking18panic_bounds_check17hefada55beeee1c8fE>
 74e:	defe      	udf	#254	; 0xfe
c:\stm32bluepill-mynewt-sensor/rust\app\src/touch_sensor.rs:143
        data.touches[i].area =
 750:	f240 0000 	movw	r0, #0
 754:	f2c0 0000 	movt	r0, #0
 758:	220a      	movs	r2, #10
 75a:	9904      	ldr	r1, [sp, #16]
 75c:	f7ff fffe 	bl	0 <_ZN4core9panicking18panic_bounds_check17hefada55beeee1c8fE>
 760:	defe      	udf	#254	; 0xfe
c:\stm32bluepill-mynewt-sensor/rust\app\src/touch_sensor.rs:147
        if (data.touches[i].action == 0 || data.touches[i].action == 2)  //  If touch is down or contact
 762:	f240 0000 	movw	r0, #0
 766:	f2c0 0000 	movt	r0, #0
 76a:	220a      	movs	r2, #10
 76c:	9903      	ldr	r1, [sp, #12]
 76e:	f7ff fffe 	bl	0 <_ZN4core9panicking18panic_bounds_check17hefada55beeee1c8fE>
 772:	defe      	udf	#254	; 0xfe
 774:	f240 0000 	movw	r0, #0
 778:	f2c0 0000 	movt	r0, #0
 77c:	220a      	movs	r2, #10
 77e:	9902      	ldr	r1, [sp, #8]
 780:	f7ff fffe 	bl	0 <_ZN4core9panicking18panic_bounds_check17hefada55beeee1c8fE>
 784:	defe      	udf	#254	; 0xfe

Disassembly of section .text._ZN3app12touch_sensor19read_register_range17hd493ce18c5da1364E:

00000000 <_ZN3app12touch_sensor19read_register_range17hd493ce18c5da1364E>:
_ZN3app12touch_sensor19read_register_range17hd493ce18c5da1364E():
c:\stm32bluepill-mynewt-sensor/rust\app\src/touch_sensor.rs:212

/// Event that will be forwarded to the Event Queue when a touch interrupt is triggered
static mut TOUCH_EVENT: os_event = fill_zero!(os_event);  //  Init all fields to 0 or NULL

/// Read a range of I2C registers from the I2C address `addr` (7-bit address), starting at `start_register` for count `num_registers`. Save into `buffer`.
fn read_register_range(addr: u8, start_register: u8, num_registers: u8, buffer: &mut[u8]) -> MynewtResult<()> {
   0:	b5b0      	push	{r4, r5, r7, lr}
   2:	b0a0      	sub	sp, #128	; 0x80
   4:	f8dd c090 	ldr.w	ip, [sp, #144]	; 0x90
   8:	4696      	mov	lr, r2
   a:	460c      	mov	r4, r1
   c:	4605      	mov	r5, r0
   e:	f88d 003d 	strb.w	r0, [sp, #61]	; 0x3d
  12:	f88d 103e 	strb.w	r1, [sp, #62]	; 0x3e
  16:	f88d 203f 	strb.w	r2, [sp, #63]	; 0x3f
  1a:	9310      	str	r3, [sp, #64]	; 0x40
  1c:	f8cd c044 	str.w	ip, [sp, #68]	; 0x44
c:\stm32bluepill-mynewt-sensor/rust\app\src/touch_sensor.rs:213
    assert!(buffer.len() >= num_registers as usize, "i2c buf");  //  Buffer too small
  20:	9810      	ldr	r0, [sp, #64]	; 0x40
  22:	9911      	ldr	r1, [sp, #68]	; 0x44
  24:	f8cd e038 	str.w	lr, [sp, #56]	; 0x38
  28:	940d      	str	r4, [sp, #52]	; 0x34
  2a:	950c      	str	r5, [sp, #48]	; 0x30
  2c:	f7ff fffe 	bl	0 <_ZN4core5slice29_$LT$impl$u20$$u5b$T$u5d$$GT$3len17h1861a2871aa7de03E>
  30:	900b      	str	r0, [sp, #44]	; 0x2c
  32:	e7ff      	b.n	34 <_ZN3app12touch_sensor19read_register_range17hd493ce18c5da1364E+0x34>
  34:	f89d 003f 	ldrb.w	r0, [sp, #63]	; 0x3f
  38:	990b      	ldr	r1, [sp, #44]	; 0x2c
  3a:	4281      	cmp	r1, r0
  3c:	d30c      	bcc.n	58 <_ZN3app12touch_sensor19read_register_range17hd493ce18c5da1364E+0x58>
  3e:	e7ff      	b.n	40 <_ZN3app12touch_sensor19read_register_range17hd493ce18c5da1364E+0x40>
c:\stm32bluepill-mynewt-sensor/rust\app\src/touch_sensor.rs:214
    assert!(start_register + num_registers < 128, "i2c addr");   //  Not 7-bit address
  40:	f89d 003e 	ldrb.w	r0, [sp, #62]	; 0x3e
  44:	f89d 103f 	ldrb.w	r1, [sp, #63]	; 0x3f
  48:	4408      	add	r0, r1
  4a:	b2c1      	uxtb	r1, r0
  4c:	4602      	mov	r2, r0
  4e:	4281      	cmp	r1, r0
  50:	920a      	str	r2, [sp, #40]	; 0x28
  52:	f040 80b3 	bne.w	1bc <_ZN3app12touch_sensor19read_register_range17hd493ce18c5da1364E+0x1bc>
  56:	e010      	b.n	24 <_ZN3app12touch_sensor19read_register_range17hd493ce18c5da1364E+0x24>
c:\stm32bluepill-mynewt-sensor/rust\app\src/touch_sensor.rs:213
    assert!(buffer.len() >= num_registers as usize, "i2c buf");  //  Buffer too small
  58:	f240 0000 	movw	r0, #0
  5c:	f2c0 0000 	movt	r0, #0
  60:	901d      	str	r0, [sp, #116]	; 0x74
  62:	9a1d      	ldr	r2, [sp, #116]	; 0x74
  64:	9209      	str	r2, [sp, #36]	; 0x24
  66:	e7ff      	b.n	68 <_ZN3app12touch_sensor19read_register_range17hd493ce18c5da1364E+0x68>
  68:	f240 0000 	movw	r0, #0
  6c:	f2c0 0000 	movt	r0, #0
  70:	2107      	movs	r1, #7
  72:	9a09      	ldr	r2, [sp, #36]	; 0x24
  74:	f7ff fffe 	bl	0 <_ZN4core9panicking5panic17hfdd0eecc44a682f8E>
  78:	defe      	udf	#254	; 0xfe
c:\stm32bluepill-mynewt-sensor/rust\app\src/touch_sensor.rs:214
    assert!(start_register + num_registers < 128, "i2c addr");   //  Not 7-bit address
  7a:	980a      	ldr	r0, [sp, #40]	; 0x28
  7c:	b241      	sxtb	r1, r0
  7e:	2900      	cmp	r1, #0
  80:	d41a      	bmi.n	b8 <_ZN3app12touch_sensor19read_register_range17hd493ce18c5da1364E+0xb8>
  82:	e7ff      	b.n	84 <_ZN3app12touch_sensor19read_register_range17hd493ce18c5da1364E+0x84>
c:\stm32bluepill-mynewt-sensor/rust\app\src/touch_sensor.rs:223
    //    Send the Start Condition (High to Low SDA Transition)...
    //    Followed by I2C Address (7 bits)...
    //    Followed by Write Mode (1 bit, value 0)...
    //    Followed by starting Register Number (8 bits)
    unsafe { 
        I2C_BUFFER[0] = start_register;  //  I2C Packet buffer contains starting Register Number (1 byte)
  84:	f89d 003e 	ldrb.w	r0, [sp, #62]	; 0x3e
  88:	f240 0100 	movw	r1, #0
  8c:	f2c0 0100 	movt	r1, #0
  90:	9113      	str	r1, [sp, #76]	; 0x4c
  92:	9a13      	ldr	r2, [sp, #76]	; 0x4c
  94:	7010      	strb	r0, [r2, #0]
c:\stm32bluepill-mynewt-sensor/rust\app\src/touch_sensor.rs:224
        I2C_DATA.address = addr;         //  I2C Packet address (7 bits)
  96:	f89d 003d 	ldrb.w	r0, [sp, #61]	; 0x3d
  9a:	f240 0200 	movw	r2, #0
  9e:	f2c0 0200 	movt	r2, #0
  a2:	9214      	str	r2, [sp, #80]	; 0x50
  a4:	9a14      	ldr	r2, [sp, #80]	; 0x50
  a6:	7010      	strb	r0, [r2, #0]
  a8:	2001      	movs	r0, #1
c:\stm32bluepill-mynewt-sensor/rust\app\src/touch_sensor.rs:225
        I2C_DATA.len = I2C_BUFFER.len() as u16;     //  I2C Packet data size is 1 byte
  aa:	9008      	str	r0, [sp, #32]
  ac:	4608      	mov	r0, r1
  ae:	9908      	ldr	r1, [sp, #32]
  b0:	f7ff fffe 	bl	0 <_ZN4core5slice29_$LT$impl$u20$$u5b$T$u5d$$GT$3len17h1861a2871aa7de03E>
  b4:	9007      	str	r0, [sp, #28]
  b6:	e010      	b.n	da <_ZN3app12touch_sensor19read_register_range17hd493ce18c5da1364E+0xda>
c:\stm32bluepill-mynewt-sensor/rust\app\src/touch_sensor.rs:214
    assert!(start_register + num_registers < 128, "i2c addr");   //  Not 7-bit address
  b8:	f240 0000 	movw	r0, #0
  bc:	f2c0 0000 	movt	r0, #0
  c0:	901e      	str	r0, [sp, #120]	; 0x78
  c2:	9a1e      	ldr	r2, [sp, #120]	; 0x78
  c4:	9206      	str	r2, [sp, #24]
  c6:	e7ff      	b.n	c8 <_ZN3app12touch_sensor19read_register_range17hd493ce18c5da1364E+0xc8>
  c8:	f240 0000 	movw	r0, #0
  cc:	f2c0 0000 	movt	r0, #0
  d0:	2108      	movs	r1, #8
  d2:	9a06      	ldr	r2, [sp, #24]
  d4:	f7ff fffe 	bl	0 <_ZN4core9panicking5panic17hfdd0eecc44a682f8E>
  d8:	defe      	udf	#254	; 0xfe
c:\stm32bluepill-mynewt-sensor/rust\app\src/touch_sensor.rs:225
        I2C_DATA.len = I2C_BUFFER.len() as u16;     //  I2C Packet data size is 1 byte
  da:	f240 0000 	movw	r0, #0
  de:	f2c0 0000 	movt	r0, #0
  e2:	9015      	str	r0, [sp, #84]	; 0x54
  e4:	9815      	ldr	r0, [sp, #84]	; 0x54
  e6:	9907      	ldr	r1, [sp, #28]
  e8:	8041      	strh	r1, [r0, #2]
c:\stm32bluepill-mynewt-sensor/rust\app\src/touch_sensor.rs:226
        I2C_DATA.buffer = I2C_BUFFER.as_mut_ptr();  //  I2C Packet data points to packet buffer
  ea:	f240 0000 	movw	r0, #0
  ee:	f2c0 0000 	movt	r0, #0
  f2:	2101      	movs	r1, #1
  f4:	f7ff fffe 	bl	0 <_ZN4core5slice29_$LT$impl$u20$$u5b$T$u5d$$GT$10as_mut_ptr17h8349d103177e9aceE>
  f8:	9005      	str	r0, [sp, #20]
  fa:	e7ff      	b.n	fc <_ZN3app12touch_sensor19read_register_range17hd493ce18c5da1364E+0xfc>
  fc:	f240 0000 	movw	r0, #0
 100:	f2c0 0000 	movt	r0, #0
 104:	9016      	str	r0, [sp, #88]	; 0x58
 106:	9916      	ldr	r1, [sp, #88]	; 0x58
 108:	9a05      	ldr	r2, [sp, #20]
 10a:	604a      	str	r2, [r1, #4]
 10c:	2101      	movs	r1, #1
 10e:	f44f 727a 	mov.w	r2, #1000	; 0x3e8
 112:	2300      	movs	r3, #0
c:\stm32bluepill-mynewt-sensor/rust\app\src/touch_sensor.rs:228
    };
    let _rc1 = unsafe { hal::hal_i2c_master_write(1, &mut I2C_DATA, 1000, 0) };  //  No stop yet, must continue even if we hit an error
 114:	9004      	str	r0, [sp, #16]
 116:	4608      	mov	r0, r1
 118:	9904      	ldr	r1, [sp, #16]
 11a:	f7ff fffe 	bl	0 <hal_i2c_master_write>
 11e:	9017      	str	r0, [sp, #92]	; 0x5c
 120:	e7ff      	b.n	122 <_ZN3app12touch_sensor19read_register_range17hd493ce18c5da1364E+0x122>
c:\stm32bluepill-mynewt-sensor/rust\app\src/touch_sensor.rs:234
    //  Step 3: Prepare to receive the stream of I2C Device Register values...
    //    Send the Start Condition (High to Low SDA Transition)...
    //    Followed by I2C Address (7 bits)...
    //    Followed by Read Mode (1 bit, value 1)
    unsafe { 
        I2C_BUFFER[0] = 0x00;     //  I2C Packet buffer should be empty (provided by caller)
 122:	f240 0000 	movw	r0, #0
 126:	f2c0 0000 	movt	r0, #0
 12a:	9018      	str	r0, [sp, #96]	; 0x60
 12c:	9818      	ldr	r0, [sp, #96]	; 0x60
 12e:	2100      	movs	r1, #0
 130:	7001      	strb	r1, [r0, #0]
c:\stm32bluepill-mynewt-sensor/rust\app\src/touch_sensor.rs:235
        I2C_DATA.address = addr;  //  I2C Packet address (7 bits)
 132:	f89d 003d 	ldrb.w	r0, [sp, #61]	; 0x3d
 136:	f240 0100 	movw	r1, #0
 13a:	f2c0 0100 	movt	r1, #0
 13e:	9119      	str	r1, [sp, #100]	; 0x64
 140:	9a19      	ldr	r2, [sp, #100]	; 0x64
 142:	7010      	strb	r0, [r2, #0]
c:\stm32bluepill-mynewt-sensor/rust\app\src/touch_sensor.rs:236
        I2C_DATA.len = num_registers as u16;    //  I2C Packet data size is number of Registers to read
 144:	f89d 003f 	ldrb.w	r0, [sp, #63]	; 0x3f
 148:	911a      	str	r1, [sp, #104]	; 0x68
 14a:	991a      	ldr	r1, [sp, #104]	; 0x68
 14c:	8048      	strh	r0, [r1, #2]
c:\stm32bluepill-mynewt-sensor/rust\app\src/touch_sensor.rs:237
        I2C_DATA.buffer = buffer.as_mut_ptr();  //  I2C Packet data points to packet buffer
 14e:	9810      	ldr	r0, [sp, #64]	; 0x40
 150:	9911      	ldr	r1, [sp, #68]	; 0x44
 152:	f7ff fffe 	bl	0 <_ZN4core5slice29_$LT$impl$u20$$u5b$T$u5d$$GT$10as_mut_ptr17h8349d103177e9aceE>
 156:	9003      	str	r0, [sp, #12]
 158:	e7ff      	b.n	15a <_ZN3app12touch_sensor19read_register_range17hd493ce18c5da1364E+0x15a>
 15a:	f240 0000 	movw	r0, #0
 15e:	f2c0 0000 	movt	r0, #0
 162:	901b      	str	r0, [sp, #108]	; 0x6c
 164:	991b      	ldr	r1, [sp, #108]	; 0x6c
 166:	9a03      	ldr	r2, [sp, #12]
 168:	604a      	str	r2, [r1, #4]
 16a:	f44f 727a 	mov.w	r2, #1000	; 0x3e8
 16e:	2101      	movs	r1, #1
c:\stm32bluepill-mynewt-sensor/rust\app\src/touch_sensor.rs:241
    };
    //  Step 4: Receive the requested number of Register values from I2C Device (1 byte per register)
    //  Step 5: Send the Stop Condition (Low to High SDA Transition)
    let rc2 = unsafe { hal::hal_i2c_master_read(1, &mut I2C_DATA, 1000, 1) };
 170:	9002      	str	r0, [sp, #8]
 172:	4608      	mov	r0, r1
 174:	9b02      	ldr	r3, [sp, #8]
 176:	9101      	str	r1, [sp, #4]
 178:	4619      	mov	r1, r3
 17a:	9b01      	ldr	r3, [sp, #4]
 17c:	f7ff fffe 	bl	0 <hal_i2c_master_read>
 180:	901c      	str	r0, [sp, #112]	; 0x70
 182:	e7ff      	b.n	184 <_ZN3app12touch_sensor19read_register_range17hd493ce18c5da1364E+0x184>
c:\stm32bluepill-mynewt-sensor/rust\app\src/touch_sensor.rs:242
    if rc2 == hal::HAL_I2C_ERR_ADDR_NACK as i32 {
 184:	981c      	ldr	r0, [sp, #112]	; 0x70
 186:	2804      	cmp	r0, #4
 188:	d007      	beq.n	19a <_ZN3app12touch_sensor19read_register_range17hd493ce18c5da1364E+0x19a>
 18a:	e7ff      	b.n	18c <_ZN3app12touch_sensor19read_register_range17hd493ce18c5da1364E+0x18c>
 18c:	2000      	movs	r0, #0
c:\stm32bluepill-mynewt-sensor/rust\app\src/touch_sensor.rs:246
        assert!(false, "i2c fail");  //  I2C read failed
        return Ok(());               //  TODO: Return an error
    }
    Ok(())
 18e:	9012      	str	r0, [sp, #72]	; 0x48
 190:	2001      	movs	r0, #1
 192:	9012      	str	r0, [sp, #72]	; 0x48
c:\stm32bluepill-mynewt-sensor/rust\app\src/touch_sensor.rs:247
}
 194:	9812      	ldr	r0, [sp, #72]	; 0x48
 196:	b020      	add	sp, #128	; 0x80
 198:	bdb0      	pop	{r4, r5, r7, pc}
c:\stm32bluepill-mynewt-sensor/rust\app\src/touch_sensor.rs:243
        assert!(false, "i2c fail");  //  I2C read failed
 19a:	f240 0000 	movw	r0, #0
 19e:	f2c0 0000 	movt	r0, #0
 1a2:	901f      	str	r0, [sp, #124]	; 0x7c
 1a4:	9a1f      	ldr	r2, [sp, #124]	; 0x7c
 1a6:	9200      	str	r2, [sp, #0]
 1a8:	e7ff      	b.n	1aa <_ZN3app12touch_sensor19read_register_range17hd493ce18c5da1364E+0x1aa>
 1aa:	f240 0000 	movw	r0, #0
 1ae:	f2c0 0000 	movt	r0, #0
 1b2:	2108      	movs	r1, #8
 1b4:	9a00      	ldr	r2, [sp, #0]
 1b6:	f7ff fffe 	bl	0 <_ZN4core9panicking5panic17hfdd0eecc44a682f8E>
 1ba:	defe      	udf	#254	; 0xfe
c:\stm32bluepill-mynewt-sensor/rust\app\src/touch_sensor.rs:214
    assert!(start_register + num_registers < 128, "i2c addr");   //  Not 7-bit address
 1bc:	f240 0000 	movw	r0, #0
 1c0:	f2c0 0000 	movt	r0, #0
 1c4:	f240 0200 	movw	r2, #0
 1c8:	f2c0 0200 	movt	r2, #0
 1cc:	211c      	movs	r1, #28
 1ce:	f7ff fffe 	bl	0 <_ZN4core9panicking5panic17hfdd0eecc44a682f8E>
 1d2:	defe      	udf	#254	; 0xfe

app-20d859f505b9d0c6.2qnjvvnwarsulmau.rcgu.o:     file format elf32-littlearm

SYMBOL TABLE:
00000000 l    df *ABS*	00000000 2qnjvvnwarsulmau
00000206 l       .debug_str	00000000 
00001006 l       .debug_str	00000000 
00000000 l       .debug_str	00000000 
00000041 l       .debug_str	00000000 
00000055 l       .debug_str	00000000 
00000074 l       .debug_str	00000000 
00000079 l       .debug_str	00000000 
00000080 l       .debug_str	00000000 
00000083 l       .debug_str	00000000 
00000088 l       .debug_str	00000000 
0000008d l       .debug_str	00000000 
00000094 l       .debug_str	00000000 
0000009a l       .debug_str	00000000 
000000a1 l       .debug_str	00000000 
000000a6 l       .debug_str	00000000 
000000b1 l       .debug_str	00000000 
000000ba l       .debug_str	00000000 
000000bf l       .debug_str	00000000 
000000c6 l       .debug_str	00000000 
000000cb l       .debug_str	00000000 
000000d1 l       .debug_str	00000000 
000000dd l       .debug_str	00000000 
000000e3 l       .debug_str	00000000 
000000e8 l       .debug_str	00000000 
000000eb l       .debug_str	00000000 
000000ef l       .debug_str	00000000 
000000f2 l       .debug_str	00000000 
000000f5 l       .debug_str	00000000 
000000f8 l       .debug_str	00000000 
000000fd l       .debug_str	00000000 
00000109 l       .debug_str	00000000 
0000010e l       .debug_str	00000000 
00000115 l       .debug_str	00000000 
0000011f l       .debug_str	00000000 
0000012a l       .debug_str	00000000 
00000137 l       .debug_str	00000000 
00000145 l       .debug_str	00000000 
0000014f l       .debug_str	00000000 
0000015d l       .debug_str	00000000 
00000167 l       .debug_str	00000000 
00000170 l       .debug_str	00000000 
00000174 l       .debug_str	00000000 
00000176 l       .debug_str	00000000 
0000017a l       .debug_str	00000000 
00000186 l       .debug_str	00000000 
0000018a l       .debug_str	00000000 
00000190 l       .debug_str	00000000 
00000193 l       .debug_str	00000000 
0000019d l       .debug_str	00000000 
000001a6 l       .debug_str	00000000 
000001af l       .debug_str	00000000 
000001b3 l       .debug_str	00000000 
000001b5 l       .debug_str	00000000 
000001bc l       .debug_str	00000000 
000001c0 l       .debug_str	00000000 
000001cd l       .debug_str	00000000 
000001d4 l       .debug_str	00000000 
000001d7 l       .debug_str	00000000 
000001dd l       .debug_str	00000000 
000001eb l       .debug_str	00000000 
000001f9 l       .debug_str	00000000 
000001fe l       .debug_str	00000000 
00000fda l       .debug_str	00000000 
0000020e l       .debug_str	00000000 
00000218 l       .debug_str	00000000 
0000021c l       .debug_str	00000000 
00000223 l       .debug_str	00000000 
00000234 l       .debug_str	00000000 
00000236 l       .debug_str	00000000 
00000245 l       .debug_str	00000000 
00000247 l       .debug_str	00000000 
00000280 l       .debug_str	00000000 
00000287 l       .debug_str	00000000 
0000028e l       .debug_str	00000000 
0000029f l       .debug_str	00000000 
000002a1 l       .debug_str	00000000 
000002e0 l       .debug_str	00000000 
000002e8 l       .debug_str	00000000 
0000031b l       .debug_str	00000000 
000003a6 l       .debug_str	00000000 
0000047d l       .debug_str	00000000 
000005a0 l       .debug_str	00000000 
000005a8 l       .debug_str	00000000 
000005ad l       .debug_str	00000000 
000005b3 l       .debug_str	00000000 
000005b7 l       .debug_str	00000000 
000005ba l       .debug_str	00000000 
000005e3 l       .debug_str	00000000 
00000619 l       .debug_str	00000000 
0000061b l       .debug_str	00000000 
00000648 l       .debug_str	00000000 
0000064b l       .debug_str	00000000 
0000069b l       .debug_str	00000000 
000006f8 l       .debug_str	00000000 
0000074c l       .debug_str	00000000 
000007c3 l       .debug_str	00000000 
00000847 l       .debug_str	00000000 
000008c2 l       .debug_str	00000000 
00000960 l       .debug_str	00000000 
00000a0b l       .debug_str	00000000 
00000aad l       .debug_str	00000000 
00000b93 l       .debug_str	00000000 
00000c96 l       .debug_str	00000000 
00000d98 l       .debug_str	00000000 
00000d9c l       .debug_str	00000000 
00000da2 l       .debug_str	00000000 
00000da4 l       .debug_str	00000000 
00000e9e l       .debug_str	00000000 
00000ea0 l       .debug_str	00000000 
00000f7d l       .debug_str	00000000 
00000f87 l       .debug_str	00000000 
00000fb6 l       .debug_str	00000000 
00000fbb l       .debug_str	00000000 
00000fc1 l       .debug_str	00000000 
00000fc8 l       .debug_str	00000000 
00000fcd l       .debug_str	00000000 
00001044 l       .debug_str	00000000 
00000000 l    d  .text._ZN5druid6window19Window$LT$T$C$W$GT$3new17hde78442d3ca97b30E	00000000 .text._ZN5druid6window19Window$LT$T$C$W$GT$3new17hde78442d3ca97b30E
00000000 l    d  .debug_loc	00000000 .debug_loc
00000000 l    d  .debug_abbrev	00000000 .debug_abbrev
00000000 l    d  .debug_info	00000000 .debug_info
00000000 l    d  .debug_frame	00000000 .debug_frame
00000000 l    d  .debug_line	00000000 .debug_line
00000000         *UND*	00000000 _ZN5druid22WidgetPod$LT$T$C$W$GT$3new17h96c3a4dda7d14c48E
00000000 g     F .text._ZN5druid6window19Window$LT$T$C$W$GT$3new17hde78442d3ca97b30E	00000066 _ZN5druid6window19Window$LT$T$C$W$GT$3new17hde78442d3ca97b30E
00000000         *UND*	00000000 __aeabi_memcpy8



Disassembly of section .text._ZN5druid6window19Window$LT$T$C$W$GT$3new17hde78442d3ca97b30E:

00000000 <_ZN5druid6window19Window$LT$T$C$W$GT$3new17hde78442d3ca97b30E>:
_ZN5druid6window19Window$LT$T$C$W$GT$3new17hde78442d3ca97b30E():
C:\druid-embedded\druid\src/window.rs:54
    // delegate?
}

impl<T: Data + 'static + Default, W: Widget<T> + 'static> Window<T, W> { ////
////impl<T: Data> Window<T> {
    pub fn new(
   0:	b580      	push	{r7, lr}
   2:	f5ad 6d8f 	sub.w	sp, sp, #1144	; 0x478
C:\druid-embedded\druid\src/window.rs:55
        root: W,
   6:	f50d 628d 	add.w	r2, sp, #1128	; 0x468
   a:	ab96      	add	r3, sp, #600	; 0x258
   c:	f44f 7c04 	mov.w	ip, #528	; 0x210
C:\druid-embedded\druid\src/window.rs:61
        ////root: &dyn Widget<T>,
        ////title: LocalizedString<T>,
        ////menu: Option<MenuDesc<T>>,
    ) -> Self {
        Window {
            root: WidgetPod::new(root), ////
  10:	9003      	str	r0, [sp, #12]
  12:	4618      	mov	r0, r3
  14:	9202      	str	r2, [sp, #8]
  16:	4662      	mov	r2, ip
  18:	9301      	str	r3, [sp, #4]
  1a:	f7ff fffe 	bl	0 <__aeabi_memcpy8>
  1e:	a804      	add	r0, sp, #16
  20:	9901      	ldr	r1, [sp, #4]
  22:	f7ff fffe 	bl	0 <_ZN5druid22WidgetPod$LT$T$C$W$GT$3new17h96c3a4dda7d14c48E>
  26:	e7ff      	b.n	28 <_ZN5druid6window19Window$LT$T$C$W$GT$3new17hde78442d3ca97b30E+0x28>
  28:	2000      	movs	r0, #0
  2a:	f2c4 006e 	movt	r0, #16494	; 0x406e
C:\druid-embedded\druid\src/window.rs:64
            ////root: WidgetPod::new(WidgetBox::new(root)), ////
            ////root: WidgetPod::new(Box::new(root)),
            size: Size { //// TODO: Allow auto size
  2e:	f8cd 046c 	str.w	r0, [sp, #1132]	; 0x46c
  32:	2100      	movs	r1, #0
  34:	f8cd 1468 	str.w	r1, [sp, #1128]	; 0x468
  38:	f8cd 0474 	str.w	r0, [sp, #1140]	; 0x474
  3c:	f8cd 1470 	str.w	r1, [sp, #1136]	; 0x470
  40:	a904      	add	r1, sp, #16
  42:	f44f 7212 	mov.w	r2, #584	; 0x248
C:\druid-embedded\druid\src/window.rs:60
        Window {
  46:	9803      	ldr	r0, [sp, #12]
  48:	f7ff fffe 	bl	0 <__aeabi_memcpy8>
  4c:	9802      	ldr	r0, [sp, #8]
  4e:	ed90 0b00 	vldr	d0, [r0]
  52:	ed90 1b02 	vldr	d1, [r0, #8]
  56:	9903      	ldr	r1, [sp, #12]
  58:	ed81 0b92 	vstr	d0, [r1, #584]	; 0x248
  5c:	ed81 1b94 	vstr	d1, [r1, #592]	; 0x250
C:\druid-embedded\druid\src/window.rs:74
            ////title,
            ////menu,
            ////context_menu: None,
            phantom_data: PhantomData, ////
        }
    }
  60:	f50d 6d8f 	add.w	sp, sp, #1144	; 0x478
  64:	bd80      	pop	{r7, pc}

app-20d859f505b9d0c6.2r9gkoiocrjag5it.rcgu.o:     file format elf32-littlearm

SYMBOL TABLE:
00000000 l    df *ABS*	00000000 2r9gkoiocrjag5it
000000c7 l       .debug_str	00000000 
000001b9 l       .debug_str	00000000 
000001f5 l       .debug_str	00000000 
00000168 l       .debug_str	00000000 
00000000 l       .debug_str	00000000 
00000041 l       .debug_str	00000000 
00000055 l       .debug_str	00000000 
00000074 l       .debug_str	00000000 
00000079 l       .debug_str	00000000 
00000081 l       .debug_str	00000000 
0000008a l       .debug_str	00000000 
00000096 l       .debug_str	00000000 
0000009c l       .debug_str	00000000 
000000a0 l       .debug_str	00000000 
000000a6 l       .debug_str	00000000 
000000aa l       .debug_str	00000000 
000000b3 l       .debug_str	00000000 
000000b6 l       .debug_str	00000000 
000000c0 l       .debug_str	00000000 
00000166 l       .debug_str	00000000 
000000cd l       .debug_str	00000000 
000000d2 l       .debug_str	00000000 
000000db l       .debug_str	00000000 
000000e4 l       .debug_str	00000000 
000000ed l       .debug_str	00000000 
000000f3 l       .debug_str	00000000 
000000f5 l       .debug_str	00000000 
00000146 l       .debug_str	00000000 
000001f3 l       .debug_str	00000000 
00000000 l    d  .text._ZN50_$LT$T$u20$as$u20$core..convert..From$LT$T$GT$$GT$4from17h5dd53b46cffc75d9E	00000000 .text._ZN50_$LT$T$u20$as$u20$core..convert..From$LT$T$GT$$GT$4from17h5dd53b46cffc75d9E
00000000 l    d  .text._ZN50_$LT$T$u20$as$u20$core..convert..Into$LT$U$GT$$GT$4into17he2b5e9c739375f62E	00000000 .text._ZN50_$LT$T$u20$as$u20$core..convert..Into$LT$U$GT$$GT$4into17he2b5e9c739375f62E
00000000 l    d  .debug_abbrev	00000000 .debug_abbrev
00000000 l    d  .debug_info	00000000 .debug_info
00000000 l    d  .debug_ranges	00000000 .debug_ranges
00000000 l    d  .debug_frame	00000000 .debug_frame
00000000 l    d  .debug_line	00000000 .debug_line
00000000 g     F .text._ZN50_$LT$T$u20$as$u20$core..convert..From$LT$T$GT$$GT$4from17h5dd53b46cffc75d9E	0000000e _ZN50_$LT$T$u20$as$u20$core..convert..From$LT$T$GT$$GT$4from17h5dd53b46cffc75d9E
00000000 g     F .text._ZN50_$LT$T$u20$as$u20$core..convert..Into$LT$U$GT$$GT$4into17he2b5e9c739375f62E	0000001e _ZN50_$LT$T$u20$as$u20$core..convert..Into$LT$U$GT$$GT$4into17he2b5e9c739375f62E



Disassembly of section .text._ZN50_$LT$T$u20$as$u20$core..convert..From$LT$T$GT$$GT$4from17h5dd53b46cffc75d9E:

00000000 <_ZN50_$LT$T$u20$as$u20$core..convert..From$LT$T$GT$$GT$4from17h5dd53b46cffc75d9E>:
_ZN50_$LT$T$u20$as$u20$core..convert..From$LT$T$GT$$GT$4from17h5dd53b46cffc75d9E():
/rustc/412f43ac5b4ae8c3599e71c6972112e9be4758fa/src/libcore/convert.rs:546
   0:	b082      	sub	sp, #8
   2:	9000      	str	r0, [sp, #0]
   4:	9101      	str	r1, [sp, #4]
   6:	9800      	ldr	r0, [sp, #0]
   8:	9901      	ldr	r1, [sp, #4]
   a:	b002      	add	sp, #8
   c:	4770      	bx	lr

Disassembly of section .text._ZN50_$LT$T$u20$as$u20$core..convert..Into$LT$U$GT$$GT$4into17he2b5e9c739375f62E:

00000000 <_ZN50_$LT$T$u20$as$u20$core..convert..Into$LT$U$GT$$GT$4into17he2b5e9c739375f62E>:
_ZN50_$LT$T$u20$as$u20$core..convert..Into$LT$U$GT$$GT$4into17he2b5e9c739375f62E():
/rustc/412f43ac5b4ae8c3599e71c6972112e9be4758fa/src/libcore/convert.rs:538
   0:	b580      	push	{r7, lr}
   2:	b084      	sub	sp, #16
   4:	9002      	str	r0, [sp, #8]
   6:	9103      	str	r1, [sp, #12]
/rustc/412f43ac5b4ae8c3599e71c6972112e9be4758fa/src/libcore/convert.rs:539
   8:	9802      	ldr	r0, [sp, #8]
   a:	9903      	ldr	r1, [sp, #12]
   c:	f7ff fffe 	bl	0 <_ZN50_$LT$T$u20$as$u20$core..convert..Into$LT$U$GT$$GT$4into17he2b5e9c739375f62E>
  10:	9001      	str	r0, [sp, #4]
  12:	9100      	str	r1, [sp, #0]
  14:	e7ff      	b.n	16 <_ZN50_$LT$T$u20$as$u20$core..convert..Into$LT$U$GT$$GT$4into17he2b5e9c739375f62E+0x16>
/rustc/412f43ac5b4ae8c3599e71c6972112e9be4758fa/src/libcore/convert.rs:540
  16:	9801      	ldr	r0, [sp, #4]
  18:	9900      	ldr	r1, [sp, #0]
  1a:	b004      	add	sp, #16
  1c:	bd80      	pop	{r7, pc}

app-20d859f505b9d0c6.2t32q96bler6915q.rcgu.o:     file format elf32-littlearm

SYMBOL TABLE:
00000000 l    df *ABS*	00000000 2t32q96bler6915q
00000086 l       .debug_str	00000000 
000000fa l       .debug_str	00000000 
00000000 l       .debug_str	00000000 
00000041 l       .debug_str	00000000 
00000055 l       .debug_str	00000000 
00000074 l       .debug_str	00000000 
00000079 l       .debug_str	00000000 
0000007d l       .debug_str	00000000 
000000f4 l       .debug_str	00000000 
000000ef l       .debug_str	00000000 
00000100 l       .debug_str	00000000 
00000000 l    d  .text._ZN4core3num65_$LT$impl$u20$core..convert..From$LT$u8$GT$$u20$for$u20$usize$GT$4from17hf5d3a6ccb9a5639bE	00000000 .text._ZN4core3num65_$LT$impl$u20$core..convert..From$LT$u8$GT$$u20$for$u20$usize$GT$4from17hf5d3a6ccb9a5639bE
00000000 l    d  .debug_abbrev	00000000 .debug_abbrev
00000000 l    d  .debug_info	00000000 .debug_info
00000000 l    d  .debug_frame	00000000 .debug_frame
00000000 l    d  .debug_line	00000000 .debug_line
00000000 g     F .text._ZN4core3num65_$LT$impl$u20$core..convert..From$LT$u8$GT$$u20$for$u20$usize$GT$4from17hf5d3a6ccb9a5639bE	00000010 .hidden _ZN4core3num65_$LT$impl$u20$core..convert..From$LT$u8$GT$$u20$for$u20$usize$GT$4from17hf5d3a6ccb9a5639bE



Disassembly of section .text._ZN4core3num65_$LT$impl$u20$core..convert..From$LT$u8$GT$$u20$for$u20$usize$GT$4from17hf5d3a6ccb9a5639bE:

00000000 <_ZN4core3num65_$LT$impl$u20$core..convert..From$LT$u8$GT$$u20$for$u20$usize$GT$4from17hf5d3a6ccb9a5639bE>:
_ZN4core3num65_$LT$impl$u20$core..convert..From$LT$u8$GT$$u20$for$u20$usize$GT$4from17hf5d3a6ccb9a5639bE():
/rustc/412f43ac5b4ae8c3599e71c6972112e9be4758fa/src/libcore/num/mod.rs:5123
   0:	b081      	sub	sp, #4
   2:	4601      	mov	r1, r0
   4:	f88d 0003 	strb.w	r0, [sp, #3]
/rustc/412f43ac5b4ae8c3599e71c6972112e9be4758fa/src/libcore/num/mod.rs:5124
   8:	f89d 0003 	ldrb.w	r0, [sp, #3]
/rustc/412f43ac5b4ae8c3599e71c6972112e9be4758fa/src/libcore/num/mod.rs:5125
   c:	b001      	add	sp, #4
   e:	4770      	bx	lr

app-20d859f505b9d0c6.2u91xbdak6zk0bqa.rcgu.o:     file format elf32-littlearm

SYMBOL TABLE:
00000000 l    df *ABS*	00000000 2u91xbdak6zk0bqa
00000107 l       .debug_str	00000000 
000001d3 l       .debug_str	00000000 
000001e0 l       .debug_str	00000000 
00000176 l       .debug_str	00000000 
00000000 l       .debug_str	00000000 
00000041 l       .debug_str	00000000 
00000055 l       .debug_str	00000000 
00000074 l       .debug_str	00000000 
0000007a l       .debug_str	00000000 
00000083 l       .debug_str	00000000 
000000da l       .debug_str	00000000 
000000e0 l       .debug_str	00000000 
000000ec l       .debug_str	00000000 
000000f2 l       .debug_str	00000000 
000000f7 l       .debug_str	00000000 
000000fa l       .debug_str	00000000 
000000fe l       .debug_str	00000000 
00000101 l       .debug_str	00000000 
00000104 l       .debug_str	00000000 
0000016c l       .debug_str	00000000 
0000010c l       .debug_str	00000000 
00000118 l       .debug_str	00000000 
0000011d l       .debug_str	00000000 
00000124 l       .debug_str	00000000 
0000012e l       .debug_str	00000000 
00000139 l       .debug_str	00000000 
00000146 l       .debug_str	00000000 
00000154 l       .debug_str	00000000 
0000015e l       .debug_str	00000000 
000001db l       .debug_str	00000000 
00000000 l    d  .text._ZN55_$LT$druid..BaseState$u20$as$u20$core..clone..Clone$GT$5clone17h005ad23d36c035d1E	00000000 .text._ZN55_$LT$druid..BaseState$u20$as$u20$core..clone..Clone$GT$5clone17h005ad23d36c035d1E
00000000 l    d  .text._ZN59_$LT$druid..BaseState$u20$as$u20$core..default..Default$GT$7default17h1e58a11643cb952dE	00000000 .text._ZN59_$LT$druid..BaseState$u20$as$u20$core..default..Default$GT$7default17h1e58a11643cb952dE
00000000 l    d  .debug_abbrev	00000000 .debug_abbrev
00000000 l    d  .debug_info	00000000 .debug_info
00000000 l    d  .debug_ranges	00000000 .debug_ranges
00000000 l    d  .debug_frame	00000000 .debug_frame
00000000 l    d  .debug_line	00000000 .debug_line
00000000         *UND*	00000000 .hidden _ZN47_$LT$bool$u20$as$u20$core..default..Default$GT$7default17h0948b648d53cd1d8E
00000000 g     F .text._ZN55_$LT$druid..BaseState$u20$as$u20$core..clone..Clone$GT$5clone17h005ad23d36c035d1E	0000001c .hidden _ZN55_$LT$druid..BaseState$u20$as$u20$core..clone..Clone$GT$5clone17h005ad23d36c035d1E
00000000 g     F .text._ZN59_$LT$druid..BaseState$u20$as$u20$core..default..Default$GT$7default17h1e58a11643cb952dE	000000be .hidden _ZN59_$LT$druid..BaseState$u20$as$u20$core..default..Default$GT$7default17h1e58a11643cb952dE
00000000         *UND*	00000000 .hidden _ZN60_$LT$kurbo..rect..Rect$u20$as$u20$core..default..Default$GT$7default17hd861f8b18277cf1bE



Disassembly of section .text._ZN55_$LT$druid..BaseState$u20$as$u20$core..clone..Clone$GT$5clone17h005ad23d36c035d1E:

00000000 <_ZN55_$LT$druid..BaseState$u20$as$u20$core..clone..Clone$GT$5clone17h005ad23d36c035d1E>:
_ZN55_$LT$druid..BaseState$u20$as$u20$core..clone..Clone$GT$5clone17h005ad23d36c035d1E():
C:\druid-embedded\druid\src/lib.rs:122
/// that, widgets will generally not interact with it directly,
/// but it is an important part of the [`WidgetPod`] struct.
///
/// [`paint`]: trait.Widget.html#tymethod.paint
/// [`WidgetPod`]: struct.WidgetPod.html
#[derive(Clone, Copy, Default)] ////
   0:	b510      	push	{r4, lr}
   2:	b081      	sub	sp, #4
   4:	9100      	str	r1, [sp, #0]
   6:	9900      	ldr	r1, [sp, #0]
   8:	e8b1 501c 	ldmia.w	r1!, {r2, r3, r4, ip, lr}
   c:	e8a0 501c 	stmia.w	r0!, {r2, r3, r4, ip, lr}
  10:	e891 501c 	ldmia.w	r1, {r2, r3, r4, ip, lr}
  14:	e880 501c 	stmia.w	r0, {r2, r3, r4, ip, lr}
  18:	b001      	add	sp, #4
  1a:	bd10      	pop	{r4, pc}

Disassembly of section .text._ZN59_$LT$druid..BaseState$u20$as$u20$core..default..Default$GT$7default17h1e58a11643cb952dE:

00000000 <_ZN59_$LT$druid..BaseState$u20$as$u20$core..default..Default$GT$7default17h1e58a11643cb952dE>:
_ZN59_$LT$druid..BaseState$u20$as$u20$core..default..Default$GT$7default17h1e58a11643cb952dE():
C:\druid-embedded\druid\src/lib.rs:122
   0:	b5f0      	push	{r4, r5, r6, r7, lr}
   2:	b093      	sub	sp, #76	; 0x4c
   4:	a90a      	add	r1, sp, #40	; 0x28
C:\druid-embedded\druid\src/lib.rs:125
////#[derive(Default)]
pub struct BaseState {
    layout_rect: Rect,
   6:	9009      	str	r0, [sp, #36]	; 0x24
   8:	4608      	mov	r0, r1
   a:	f7ff fffe 	bl	0 <_ZN60_$LT$kurbo..rect..Rect$u20$as$u20$core..default..Default$GT$7default17hd861f8b18277cf1bE>
   e:	e7ff      	b.n	2 <_ZN47_$LT$bool$u20$as$u20$core..default..Default$GT$7default17h0948b648d53cd1d8E+0x2>
C:\druid-embedded\druid\src/lib.rs:130

    // TODO: consider using bitflags for the booleans.

    // This should become an invalidation rect.
    needs_inval: bool,
  10:	f7ff fffe 	bl	0 <_ZN47_$LT$bool$u20$as$u20$core..default..Default$GT$7default17h0948b648d53cd1d8E>
  14:	9008      	str	r0, [sp, #32]
  16:	e7ff      	b.n	18 <_ZN59_$LT$druid..BaseState$u20$as$u20$core..default..Default$GT$7default17h1e58a11643cb952dE+0x18>
C:\druid-embedded\druid\src/lib.rs:132

    is_hot: bool,
  18:	f7ff fffe 	bl	0 <_ZN47_$LT$bool$u20$as$u20$core..default..Default$GT$7default17h0948b648d53cd1d8E>
  1c:	9007      	str	r0, [sp, #28]
  1e:	e7ff      	b.n	20 <_ZN59_$LT$druid..BaseState$u20$as$u20$core..default..Default$GT$7default17h1e58a11643cb952dE+0x20>
C:\druid-embedded\druid\src/lib.rs:134

    is_active: bool,
  20:	f7ff fffe 	bl	0 <_ZN47_$LT$bool$u20$as$u20$core..default..Default$GT$7default17h0948b648d53cd1d8E>
  24:	9006      	str	r0, [sp, #24]
  26:	e7ff      	b.n	28 <_ZN59_$LT$druid..BaseState$u20$as$u20$core..default..Default$GT$7default17h1e58a11643cb952dE+0x28>
C:\druid-embedded\druid\src/lib.rs:137

    /// Any descendant is active.
    has_active: bool,
  28:	f7ff fffe 	bl	0 <_ZN47_$LT$bool$u20$as$u20$core..default..Default$GT$7default17h0948b648d53cd1d8E>
  2c:	9005      	str	r0, [sp, #20]
  2e:	e7ff      	b.n	30 <_ZN59_$LT$druid..BaseState$u20$as$u20$core..default..Default$GT$7default17h1e58a11643cb952dE+0x30>
C:\druid-embedded\druid\src/lib.rs:140

    /// Any descendant has requested an animation frame.
    request_anim: bool,
  30:	f7ff fffe 	bl	0 <_ZN47_$LT$bool$u20$as$u20$core..default..Default$GT$7default17h0948b648d53cd1d8E>
  34:	9004      	str	r0, [sp, #16]
  36:	e7ff      	b.n	38 <_ZN59_$LT$druid..BaseState$u20$as$u20$core..default..Default$GT$7default17h1e58a11643cb952dE+0x38>
C:\druid-embedded\druid\src/lib.rs:146

    /// Any descendant has requested a timer.
    ///
    /// Note: we don't have any way of clearing this request, as it's
    /// likely not worth the complexity.
    request_timer: bool,
  38:	f7ff fffe 	bl	0 <_ZN47_$LT$bool$u20$as$u20$core..default..Default$GT$7default17h0948b648d53cd1d8E>
  3c:	9003      	str	r0, [sp, #12]
  3e:	e7ff      	b.n	40 <_ZN59_$LT$druid..BaseState$u20$as$u20$core..default..Default$GT$7default17h1e58a11643cb952dE+0x40>
C:\druid-embedded\druid\src/lib.rs:149

    /// This widget or a descendant has focus.
    has_focus: bool,
  40:	f7ff fffe 	bl	0 <_ZN47_$LT$bool$u20$as$u20$core..default..Default$GT$7default17h0948b648d53cd1d8E>
  44:	9002      	str	r0, [sp, #8]
  46:	e7ff      	b.n	48 <_ZN59_$LT$druid..BaseState$u20$as$u20$core..default..Default$GT$7default17h1e58a11643cb952dE+0x48>
C:\druid-embedded\druid\src/lib.rs:152

    /// This widget or a descendant has requested focus.
    request_focus: bool,
  48:	f7ff fffe 	bl	0 <_ZN47_$LT$bool$u20$as$u20$core..default..Default$GT$7default17h0948b648d53cd1d8E>
  4c:	9001      	str	r0, [sp, #4]
  4e:	e7ff      	b.n	50 <_ZN59_$LT$druid..BaseState$u20$as$u20$core..default..Default$GT$7default17h1e58a11643cb952dE+0x50>
  50:	a80a      	add	r0, sp, #40	; 0x28
C:\druid-embedded\druid\src/lib.rs:122
#[derive(Clone, Copy, Default)] ////
  52:	9909      	ldr	r1, [sp, #36]	; 0x24
  54:	e8b0 500c 	ldmia.w	r0!, {r2, r3, ip, lr}
  58:	e8a1 500c 	stmia.w	r1!, {r2, r3, ip, lr}
  5c:	e890 500c 	ldmia.w	r0, {r2, r3, ip, lr}
  60:	e881 500c 	stmia.w	r1, {r2, r3, ip, lr}
  64:	9808      	ldr	r0, [sp, #32]
  66:	f000 0101 	and.w	r1, r0, #1
  6a:	9a09      	ldr	r2, [sp, #36]	; 0x24
  6c:	f882 1020 	strb.w	r1, [r2, #32]
  70:	9907      	ldr	r1, [sp, #28]
  72:	f001 0301 	and.w	r3, r1, #1
  76:	f882 3021 	strb.w	r3, [r2, #33]	; 0x21
  7a:	9b06      	ldr	r3, [sp, #24]
  7c:	f003 0c01 	and.w	ip, r3, #1
  80:	f882 c022 	strb.w	ip, [r2, #34]	; 0x22
  84:	f8dd c014 	ldr.w	ip, [sp, #20]
  88:	f00c 0e01 	and.w	lr, ip, #1
  8c:	f882 e023 	strb.w	lr, [r2, #35]	; 0x23
  90:	f8dd e010 	ldr.w	lr, [sp, #16]
  94:	f00e 0401 	and.w	r4, lr, #1
  98:	f882 4024 	strb.w	r4, [r2, #36]	; 0x24
  9c:	9c03      	ldr	r4, [sp, #12]
  9e:	f004 0501 	and.w	r5, r4, #1
  a2:	f882 5025 	strb.w	r5, [r2, #37]	; 0x25
  a6:	9d02      	ldr	r5, [sp, #8]
  a8:	f005 0601 	and.w	r6, r5, #1
  ac:	f882 6026 	strb.w	r6, [r2, #38]	; 0x26
  b0:	9e01      	ldr	r6, [sp, #4]
  b2:	f006 0701 	and.w	r7, r6, #1
  b6:	f882 7027 	strb.w	r7, [r2, #39]	; 0x27
  ba:	b013      	add	sp, #76	; 0x4c
  bc:	bdf0      	pop	{r4, r5, r6, r7, pc}

app-20d859f505b9d0c6.2vvdwpgnhermo2sv.rcgu.o:     file format elf32-littlearm

SYMBOL TABLE:
00000000 l    df *ABS*	00000000 2vvdwpgnhermo2sv
000007cc l       .debug_str	00000000 
00002671 l       .debug_str	00000000 
00002718 l       .debug_str	00000000 
00002644 l       .debug_str	00000000 
000026e7 l       .debug_str	00000000 
0000261d l       .debug_str	00000000 
000026e3 l       .debug_str	00000000 
000025ea l       .debug_str	00000000 
000026df l       .debug_str	00000000 
000025c3 l       .debug_str	00000000 
000026db l       .debug_str	00000000 
00002597 l       .debug_str	00000000 
00000000 l       .debug_str	00000000 
00000041 l       .debug_str	00000000 
00000055 l       .debug_str	00000000 
00000074 l       .debug_str	00000000 
0000007a l       .debug_str	00000000 
00000081 l       .debug_str	00000000 
00000086 l       .debug_str	00000000 
00000089 l       .debug_str	00000000 
00000094 l       .debug_str	00000000 
0000009d l       .debug_str	00000000 
000000a2 l       .debug_str	00000000 
000000a7 l       .debug_str	00000000 
000000ae l       .debug_str	00000000 
000000b3 l       .debug_str	00000000 
000000b8 l       .debug_str	00000000 
000000bf l       .debug_str	00000000 
000000c3 l       .debug_str	00000000 
000000c7 l       .debug_str	00000000 
000000d4 l       .debug_str	00000000 
000000db l       .debug_str	00000000 
000000de l       .debug_str	00000000 
000000e4 l       .debug_str	00000000 
000000f2 l       .debug_str	00000000 
000000f6 l       .debug_str	00000000 
00000103 l       .debug_str	00000000 
00000106 l       .debug_str	00000000 
0000010a l       .debug_str	00000000 
00000114 l       .debug_str	00000000 
0000011d l       .debug_str	00000000 
00000126 l       .debug_str	00000000 
0000012a l       .debug_str	00000000 
0000012e l       .debug_str	00000000 
00000130 l       .debug_str	00000000 
00000137 l       .debug_str	00000000 
00000145 l       .debug_str	00000000 
0000014a l       .debug_str	00000000 
00000152 l       .debug_str	00000000 
0000015a l       .debug_str	00000000 
00000160 l       .debug_str	00000000 
0000016c l       .debug_str	00000000 
00000172 l       .debug_str	00000000 
00000177 l       .debug_str	00000000 
0000017a l       .debug_str	00000000 
0000017e l       .debug_str	00000000 
00000181 l       .debug_str	00000000 
00000184 l       .debug_str	00000000 
00000187 l       .debug_str	00000000 
0000018c l       .debug_str	00000000 
00000198 l       .debug_str	00000000 
0000019d l       .debug_str	00000000 
000001a4 l       .debug_str	00000000 
000001ae l       .debug_str	00000000 
000001b9 l       .debug_str	00000000 
000001c6 l       .debug_str	00000000 
000001d4 l       .debug_str	00000000 
000001de l       .debug_str	00000000 
000001ec l       .debug_str	00000000 
000001f6 l       .debug_str	00000000 
000001ff l       .debug_str	00000000 
00000201 l       .debug_str	00000000 
0000020d l       .debug_str	00000000 
00000211 l       .debug_str	00000000 
00000217 l       .debug_str	00000000 
00000221 l       .debug_str	00000000 
00000225 l       .debug_str	00000000 
0000022c l       .debug_str	00000000 
0000023d l       .debug_str	00000000 
0000023f l       .debug_str	00000000 
0000024e l       .debug_str	00000000 
00000250 l       .debug_str	00000000 
00000289 l       .debug_str	00000000 
00000290 l       .debug_str	00000000 
00000297 l       .debug_str	00000000 
000002a8 l       .debug_str	00000000 
000002aa l       .debug_str	00000000 
000002e9 l       .debug_str	00000000 
000002f1 l       .debug_str	00000000 
00000324 l       .debug_str	00000000 
000003af l       .debug_str	00000000 
00000486 l       .debug_str	00000000 
000005a9 l       .debug_str	00000000 
000005b1 l       .debug_str	00000000 
000005b6 l       .debug_str	00000000 
000005bc l       .debug_str	00000000 
000005c0 l       .debug_str	00000000 
000005c3 l       .debug_str	00000000 
000005ec l       .debug_str	00000000 
00000622 l       .debug_str	00000000 
00000624 l       .debug_str	00000000 
00000651 l       .debug_str	00000000 
00000654 l       .debug_str	00000000 
000006a4 l       .debug_str	00000000 
00000701 l       .debug_str	00000000 
00000755 l       .debug_str	00000000 
00002588 l       .debug_str	00000000 
00000850 l       .debug_str	00000000 
000008cb l       .debug_str	00000000 
00000969 l       .debug_str	00000000 
00000a14 l       .debug_str	00000000 
00000ab6 l       .debug_str	00000000 
00000b9c l       .debug_str	00000000 
00000c9f l       .debug_str	00000000 
00000da1 l       .debug_str	00000000 
00000da5 l       .debug_str	00000000 
00000dab l       .debug_str	00000000 
00000dad l       .debug_str	00000000 
00000ea7 l       .debug_str	00000000 
00000ea9 l       .debug_str	00000000 
00000f86 l       .debug_str	00000000 
00000f90 l       .debug_str	00000000 
00000fb7 l       .debug_str	00000000 
00000fbc l       .debug_str	00000000 
00000fc0 l       .debug_str	00000000 
00000fc6 l       .debug_str	00000000 
00000fcd l       .debug_str	00000000 
00000fd2 l       .debug_str	00000000 
00000fec l       .debug_str	00000000 
00000ff3 l       .debug_str	00000000 
00000ffc l       .debug_str	00000000 
00001009 l       .debug_str	00000000 
00001039 l       .debug_str	00000000 
00001083 l       .debug_str	00000000 
000010cc l       .debug_str	00000000 
0000111d l       .debug_str	00000000 
00001165 l       .debug_str	00000000 
000011a6 l       .debug_str	00000000 
000011ab l       .debug_str	00000000 
00001212 l       .debug_str	00000000 
0000121b l       .debug_str	00000000 
0000129d l       .debug_str	00000000 
000012e4 l       .debug_str	00000000 
00001325 l       .debug_str	00000000 
0000138e l       .debug_str	00000000 
000013e0 l       .debug_str	00000000 
00001429 l       .debug_str	00000000 
0000147c l       .debug_str	00000000 
000014c4 l       .debug_str	00000000 
000014c9 l       .debug_str	00000000 
00001500 l       .debug_str	00000000 
00001552 l       .debug_str	00000000 
0000155b l       .debug_str	00000000 
0000159e l       .debug_str	00000000 
000015a5 l       .debug_str	00000000 
000015ea l       .debug_str	00000000 
00001625 l       .debug_str	00000000 
0000167b l       .debug_str	00000000 
000016be l       .debug_str	00000000 
000016e4 l       .debug_str	00000000 
00001726 l       .debug_str	00000000 
00001730 l       .debug_str	00000000 
00001735 l       .debug_str	00000000 
00001742 l       .debug_str	00000000 
0000174b l       .debug_str	00000000 
00001752 l       .debug_str	00000000 
00001759 l       .debug_str	00000000 
00001775 l       .debug_str	00000000 
00001785 l       .debug_str	00000000 
000017ca l       .debug_str	00000000 
00001837 l       .debug_str	00000000 
000018cd l       .debug_str	00000000 
0000198c l       .debug_str	00000000 
00001a03 l       .debug_str	00000000 
00001a87 l       .debug_str	00000000 
00001b02 l       .debug_str	00000000 
00001ba0 l       .debug_str	00000000 
00001c4b l       .debug_str	00000000 
00001ced l       .debug_str	00000000 
00001db2 l       .debug_str	00000000 
00001e84 l       .debug_str	00000000 
00001f4d l       .debug_str	00000000 
00002037 l       .debug_str	00000000 
0000213e l       .debug_str	00000000 
00002244 l       .debug_str	00000000 
00002342 l       .debug_str	00000000 
00002443 l       .debug_str	00000000 
00002523 l       .debug_str	00000000 
00002527 l       .debug_str	00000000 
0000252d l       .debug_str	00000000 
00002536 l       .debug_str	00000000 
0000253b l       .debug_str	00000000 
0000253f l       .debug_str	00000000 
00002550 l       .debug_str	00000000 
00002698 l       .debug_str	00000000 
00000000 l    d  .text._ZN4core3ptr20slice_from_raw_parts17haabc99850963e995E	00000000 .text._ZN4core3ptr20slice_from_raw_parts17haabc99850963e995E
00000000 l    d  .text._ZN4core3ptr24slice_from_raw_parts_mut17hf072568f5c22159dE	00000000 .text._ZN4core3ptr24slice_from_raw_parts_mut17hf072568f5c22159dE
00000000 l    d  .text._ZN4core3ptr4read17hc89a8b81e4503514E	00000000 .text._ZN4core3ptr4read17hc89a8b81e4503514E
00000000 l    d  .text._ZN4core3ptr5write17hc8f1006fd17213f0E	00000000 .text._ZN4core3ptr5write17hc8f1006fd17213f0E
00000000 l    d  .text._ZN4core3ptr5write17hdfcb3f93f0d20c56E	00000000 .text._ZN4core3ptr5write17hdfcb3f93f0d20c56E
00000000 l    d  .text._ZN4core3ptr5write17he1aa9de21aade0ceE	00000000 .text._ZN4core3ptr5write17he1aa9de21aade0ceE
00000000 l    d  .debug_loc	00000000 .debug_loc
00000000 l    d  .debug_abbrev	00000000 .debug_abbrev
00000000 l    d  .debug_info	00000000 .debug_info
00000000 l    d  .debug_ranges	00000000 .debug_ranges
00000000 l    d  .debug_frame	00000000 .debug_frame
00000000 l    d  .debug_line	00000000 .debug_line
00000000         *UND*	00000000 _ZN4core10intrinsics19copy_nonoverlapping17hd28b236651bf1950E
00000000 g     F .text._ZN4core3ptr20slice_from_raw_parts17haabc99850963e995E	0000001e _ZN4core3ptr20slice_from_raw_parts17haabc99850963e995E
00000000 g     F .text._ZN4core3ptr24slice_from_raw_parts_mut17hf072568f5c22159dE	0000001e _ZN4core3ptr24slice_from_raw_parts_mut17hf072568f5c22159dE
00000000 g     F .text._ZN4core3ptr4read17hc89a8b81e4503514E	0000006a _ZN4core3ptr4read17hc89a8b81e4503514E
00000000 g     F .text._ZN4core3ptr5write17hc8f1006fd17213f0E	00000016 _ZN4core3ptr5write17hc8f1006fd17213f0E
00000000 g     F .text._ZN4core3ptr5write17hdfcb3f93f0d20c56E	00000024 _ZN4core3ptr5write17hdfcb3f93f0d20c56E
00000000 g     F .text._ZN4core3ptr5write17he1aa9de21aade0ceE	0000001c _ZN4core3ptr5write17he1aa9de21aade0ceE



Disassembly of section .text._ZN4core3ptr20slice_from_raw_parts17haabc99850963e995E:

00000000 <_ZN4core3ptr20slice_from_raw_parts17haabc99850963e995E>:
_ZN4core3ptr20slice_from_raw_parts17haabc99850963e995E():
/rustc/412f43ac5b4ae8c3599e71c6972112e9be4758fa/src/libcore/ptr/mod.rs:253
   0:	b086      	sub	sp, #24
   2:	9000      	str	r0, [sp, #0]
   4:	9101      	str	r1, [sp, #4]
/rustc/412f43ac5b4ae8c3599e71c6972112e9be4758fa/src/libcore/ptr/mod.rs:254
   6:	9800      	ldr	r0, [sp, #0]
   8:	9901      	ldr	r1, [sp, #4]
   a:	9004      	str	r0, [sp, #16]
   c:	9105      	str	r1, [sp, #20]
   e:	9804      	ldr	r0, [sp, #16]
  10:	9905      	ldr	r1, [sp, #20]
  12:	9002      	str	r0, [sp, #8]
  14:	9103      	str	r1, [sp, #12]
  16:	9802      	ldr	r0, [sp, #8]
  18:	9903      	ldr	r1, [sp, #12]
/rustc/412f43ac5b4ae8c3599e71c6972112e9be4758fa/src/libcore/ptr/mod.rs:255
  1a:	b006      	add	sp, #24
  1c:	4770      	bx	lr

Disassembly of section .text._ZN4core3ptr24slice_from_raw_parts_mut17hf072568f5c22159dE:

00000000 <_ZN4core3ptr24slice_from_raw_parts_mut17hf072568f5c22159dE>:
_ZN4core3ptr24slice_from_raw_parts_mut17hf072568f5c22159dE():
/rustc/412f43ac5b4ae8c3599e71c6972112e9be4758fa/src/libcore/ptr/mod.rs:269
   0:	b086      	sub	sp, #24
   2:	9000      	str	r0, [sp, #0]
   4:	9101      	str	r1, [sp, #4]
/rustc/412f43ac5b4ae8c3599e71c6972112e9be4758fa/src/libcore/ptr/mod.rs:270
   6:	9800      	ldr	r0, [sp, #0]
   8:	9901      	ldr	r1, [sp, #4]
   a:	9004      	str	r0, [sp, #16]
   c:	9105      	str	r1, [sp, #20]
   e:	9804      	ldr	r0, [sp, #16]
  10:	9905      	ldr	r1, [sp, #20]
  12:	9002      	str	r0, [sp, #8]
  14:	9103      	str	r1, [sp, #12]
  16:	9802      	ldr	r0, [sp, #8]
  18:	9903      	ldr	r1, [sp, #12]
/rustc/412f43ac5b4ae8c3599e71c6972112e9be4758fa/src/libcore/ptr/mod.rs:271
  1a:	b006      	add	sp, #24
  1c:	4770      	bx	lr

Disassembly of section .text._ZN4core3ptr4read17hc89a8b81e4503514E:

00000000 <_ZN4core3ptr4read17hc89a8b81e4503514E>:
_ZN4core3ptr4read17hc89a8b81e4503514E():
/rustc/412f43ac5b4ae8c3599e71c6972112e9be4758fa/src/libcore/ptr/mod.rs:614
   0:	b510      	push	{r4, lr}
   2:	b09e      	sub	sp, #120	; 0x78
   4:	9103      	str	r1, [sp, #12]
/rustc/412f43ac5b4ae8c3599e71c6972112e9be4758fa/src/libcore/ptr/mod.rs:615
   6:	9002      	str	r0, [sp, #8]
   8:	e7ff      	b.n	a <_ZN4core3ptr4read17hc89a8b81e4503514E+0xa>
/rustc/412f43ac5b4ae8c3599e71c6972112e9be4758fa/src/libcore/ptr/mod.rs:616
   a:	9803      	ldr	r0, [sp, #12]
   c:	a904      	add	r1, sp, #16
   e:	911c      	str	r1, [sp, #112]	; 0x70
_ZN4core3mem12maybe_uninit20MaybeUninit$LT$T$GT$10as_mut_ptr17hc032e9b4a2feca91E():
/rustc/412f43ac5b4ae8c3599e71c6972112e9be4758fa/src/libcore/mem/maybe_uninit.rs:436
  10:	991c      	ldr	r1, [sp, #112]	; 0x70
  12:	911d      	str	r1, [sp, #116]	; 0x74
_ZN94_$LT$core..mem..manually_drop..ManuallyDrop$LT$T$GT$$u20$as$u20$core..ops..deref..DerefMut$GT$9deref_mut17ha27ef3c7389aad40E():
/rustc/412f43ac5b4ae8c3599e71c6972112e9be4758fa/src/libcore/mem/manually_drop.rs:146
  14:	991d      	ldr	r1, [sp, #116]	; 0x74
_ZN4core3ptr4read17hc89a8b81e4503514E():
/rustc/412f43ac5b4ae8c3599e71c6972112e9be4758fa/src/libcore/ptr/mod.rs:616
  16:	9001      	str	r0, [sp, #4]
  18:	9100      	str	r1, [sp, #0]
  1a:	e7ff      	b.n	1c <_ZN4core3ptr4read17hc89a8b81e4503514E+0x1c>
  1c:	2201      	movs	r2, #1
  1e:	9801      	ldr	r0, [sp, #4]
  20:	9900      	ldr	r1, [sp, #0]
  22:	f7ff fffe 	bl	0 <_ZN4core10intrinsics19copy_nonoverlapping17hd28b236651bf1950E>
  26:	e7ff      	b.n	28 <_ZN4core3ptr4read17hc89a8b81e4503514E+0x28>
  28:	a804      	add	r0, sp, #16
  2a:	a90c      	add	r1, sp, #48	; 0x30
/rustc/412f43ac5b4ae8c3599e71c6972112e9be4758fa/src/libcore/ptr/mod.rs:617
  2c:	460a      	mov	r2, r1
  2e:	e8b0 5018 	ldmia.w	r0!, {r3, r4, ip, lr}
  32:	e8a2 5018 	stmia.w	r2!, {r3, r4, ip, lr}
  36:	e890 5018 	ldmia.w	r0, {r3, r4, ip, lr}
  3a:	e882 5018 	stmia.w	r2, {r3, r4, ip, lr}
  3e:	a814      	add	r0, sp, #80	; 0x50
_ZN4core3mem12maybe_uninit20MaybeUninit$LT$T$GT$11assume_init17h699f9a3d14f7475cE():
/rustc/412f43ac5b4ae8c3599e71c6972112e9be4758fa/src/libcore/mem/maybe_uninit.rs:487
  40:	4602      	mov	r2, r0
  42:	e8b1 5018 	ldmia.w	r1!, {r3, r4, ip, lr}
  46:	e8a2 5018 	stmia.w	r2!, {r3, r4, ip, lr}
  4a:	e891 5018 	ldmia.w	r1, {r3, r4, ip, lr}
  4e:	e882 5018 	stmia.w	r2, {r3, r4, ip, lr}
_ZN4core3mem13manually_drop21ManuallyDrop$LT$T$GT$10into_inner17h7edcf4d906ca3d29E():
/rustc/412f43ac5b4ae8c3599e71c6972112e9be4758fa/src/libcore/mem/manually_drop.rs:85
  52:	9902      	ldr	r1, [sp, #8]
  54:	e8b0 500c 	ldmia.w	r0!, {r2, r3, ip, lr}
  58:	e8a1 500c 	stmia.w	r1!, {r2, r3, ip, lr}
  5c:	e890 500c 	ldmia.w	r0, {r2, r3, ip, lr}
  60:	e881 500c 	stmia.w	r1, {r2, r3, ip, lr}
_ZN4core3ptr4read17hc89a8b81e4503514E():
/rustc/412f43ac5b4ae8c3599e71c6972112e9be4758fa/src/libcore/ptr/mod.rs:617
  64:	e7ff      	b.n	66 <_ZN4core3ptr4read17hc89a8b81e4503514E+0x66>
/rustc/412f43ac5b4ae8c3599e71c6972112e9be4758fa/src/libcore/ptr/mod.rs:618
  66:	b01e      	add	sp, #120	; 0x78
  68:	bd10      	pop	{r4, pc}

Disassembly of section .text._ZN4core3ptr5write17hc8f1006fd17213f0E:

00000000 <_ZN4core3ptr5write17hc8f1006fd17213f0E>:
_ZN4core3ptr5write17hc8f1006fd17213f0E():
/rustc/412f43ac5b4ae8c3599e71c6972112e9be4758fa/src/libcore/ptr/mod.rs:799
   0:	b081      	sub	sp, #4
   2:	9000      	str	r0, [sp, #0]
/rustc/412f43ac5b4ae8c3599e71c6972112e9be4758fa/src/libcore/ptr/mod.rs:800
   4:	9800      	ldr	r0, [sp, #0]
   6:	680a      	ldr	r2, [r1, #0]
   8:	684b      	ldr	r3, [r1, #4]
   a:	6889      	ldr	r1, [r1, #8]
   c:	6081      	str	r1, [r0, #8]
   e:	6043      	str	r3, [r0, #4]
  10:	6002      	str	r2, [r0, #0]
/rustc/412f43ac5b4ae8c3599e71c6972112e9be4758fa/src/libcore/ptr/mod.rs:801
  12:	b001      	add	sp, #4
  14:	4770      	bx	lr

Disassembly of section .text._ZN4core3ptr5write17hdfcb3f93f0d20c56E:

00000000 <_ZN4core3ptr5write17hdfcb3f93f0d20c56E>:
_ZN4core3ptr5write17hdfcb3f93f0d20c56E():
/rustc/412f43ac5b4ae8c3599e71c6972112e9be4758fa/src/libcore/ptr/mod.rs:799
   0:	b5b0      	push	{r4, r5, r7, lr}
   2:	b081      	sub	sp, #4
   4:	9000      	str	r0, [sp, #0]
/rustc/412f43ac5b4ae8c3599e71c6972112e9be4758fa/src/libcore/ptr/mod.rs:800
   6:	9800      	ldr	r0, [sp, #0]
   8:	e8b1 501c 	ldmia.w	r1!, {r2, r3, r4, ip, lr}
   c:	e8a0 501c 	stmia.w	r0!, {r2, r3, r4, ip, lr}
  10:	e8b1 501c 	ldmia.w	r1!, {r2, r3, r4, ip, lr}
  14:	e8a0 501c 	stmia.w	r0!, {r2, r3, r4, ip, lr}
  18:	e891 503c 	ldmia.w	r1, {r2, r3, r4, r5, ip, lr}
  1c:	e880 503c 	stmia.w	r0, {r2, r3, r4, r5, ip, lr}
/rustc/412f43ac5b4ae8c3599e71c6972112e9be4758fa/src/libcore/ptr/mod.rs:801
  20:	b001      	add	sp, #4
  22:	bdb0      	pop	{r4, r5, r7, pc}

Disassembly of section .text._ZN4core3ptr5write17he1aa9de21aade0ceE:

00000000 <_ZN4core3ptr5write17he1aa9de21aade0ceE>:
_ZN4core3ptr5write17he1aa9de21aade0ceE():
/rustc/412f43ac5b4ae8c3599e71c6972112e9be4758fa/src/libcore/ptr/mod.rs:799
   0:	b580      	push	{r7, lr}
   2:	b081      	sub	sp, #4
   4:	9000      	str	r0, [sp, #0]
/rustc/412f43ac5b4ae8c3599e71c6972112e9be4758fa/src/libcore/ptr/mod.rs:800
   6:	9800      	ldr	r0, [sp, #0]
   8:	e8b1 500c 	ldmia.w	r1!, {r2, r3, ip, lr}
   c:	e8a0 500c 	stmia.w	r0!, {r2, r3, ip, lr}
  10:	e891 500c 	ldmia.w	r1, {r2, r3, ip, lr}
  14:	e880 500c 	stmia.w	r0, {r2, r3, ip, lr}
/rustc/412f43ac5b4ae8c3599e71c6972112e9be4758fa/src/libcore/ptr/mod.rs:801
  18:	b001      	add	sp, #4
  1a:	bd80      	pop	{r7, pc}

app-20d859f505b9d0c6.2w4n0dwo1ca74y13.rcgu.o:     file format elf32-littlearm

SYMBOL TABLE:
00000000 l    df *ABS*	00000000 2w4n0dwo1ca74y13
00002656 l       .debug_str	00000000 
00004d30 l       .debug_str	00000000 
00005089 l       .debug_str	00000000 
00004d1b l       .debug_str	00000000 
00004d14 l       .debug_str	00000000 
00005085 l       .debug_str	00000000 
00004cff l       .debug_str	00000000 
00004cec l       .debug_str	00000000 
00005080 l       .debug_str	00000000 
00004cd7 l       .debug_str	00000000 
00004ca4 l       .debug_str	00000000 
0000507e l       .debug_str	00000000 
00004c94 l       .debug_str	00000000 
00004c76 l       .debug_str	00000000 
0000507c l       .debug_str	00000000 
00004c6e l       .debug_str	00000000 
00004c67 l       .debug_str	00000000 
00005079 l       .debug_str	00000000 
00004bfb l       .debug_str	00000000 
0000504f l       .debug_str	00000000 
00004b97 l       .debug_str	00000000 
00005021 l       .debug_str	00000000 
00004b8f l       .debug_str	00000000 
00004fb1 l       .debug_str	00000000 
00004b7a l       .debug_str	00000000 
00004f5e l       .debug_str	00000000 
00004b6a l       .debug_str	00000000 
00004f07 l       .debug_str	00000000 
00004b60 l       .debug_str	00000000 
00004e97 l       .debug_str	00000000 
00004afb l       .debug_str	00000000 
00004e87 l       .debug_str	00000000 
00004e69 l       .debug_str	00000000 
00004e61 l       .debug_str	00000000 
00004e5a l       .debug_str	00000000 
00004dd6 l       .debug_str	00000000 
00000000 l       .debug_str	00000000 
00000041 l       .debug_str	00000000 
00000055 l       .debug_str	00000000 
00000074 l       .debug_str	00000000 
0000007b l       .debug_str	00000000 
0000007f l       .debug_str	00000000 
00000088 l       .debug_str	00000000 
0000008b l       .debug_str	00000000 
00000095 l       .debug_str	00000000 
0000009c l       .debug_str	00000000 
000000a2 l       .debug_str	00000000 
000000a7 l       .debug_str	00000000 
000000ab l       .debug_str	00000000 
000000b1 l       .debug_str	00000000 
000000be l       .debug_str	00000000 
000000c7 l       .debug_str	00000000 
000000cb l       .debug_str	00000000 
000000d2 l       .debug_str	00000000 
000000db l       .debug_str	00000000 
000000e2 l       .debug_str	00000000 
000000e4 l       .debug_str	00000000 
000000e8 l       .debug_str	00000000 
000000ef l       .debug_str	00000000 
000000f4 l       .debug_str	00000000 
000000f8 l       .debug_str	00000000 
00000105 l       .debug_str	00000000 
0000010c l       .debug_str	00000000 
0000010f l       .debug_str	00000000 
00000115 l       .debug_str	00000000 
00000123 l       .debug_str	00000000 
00000131 l       .debug_str	00000000 
00000136 l       .debug_str	00000000 
0000013e l       .debug_str	00000000 
00000146 l       .debug_str	00000000 
00000148 l       .debug_str	00000000 
0000014a l       .debug_str	00000000 
00000166 l       .debug_str	00000000 
0000016e l       .debug_str	00000000 
00000175 l       .debug_str	00000000 
00000185 l       .debug_str	00000000 
000001ca l       .debug_str	00000000 
00000237 l       .debug_str	00000000 
000002cd l       .debug_str	00000000 
0000038c l       .debug_str	00000000 
00000394 l       .debug_str	00000000 
00000399 l       .debug_str	00000000 
0000039f l       .debug_str	00000000 
000003a3 l       .debug_str	00000000 
000003a6 l       .debug_str	00000000 
000003cf l       .debug_str	00000000 
00000405 l       .debug_str	00000000 
00000407 l       .debug_str	00000000 
00000434 l       .debug_str	00000000 
00000437 l       .debug_str	00000000 
00000487 l       .debug_str	00000000 
000004e4 l       .debug_str	00000000 
00000538 l       .debug_str	00000000 
000005af l       .debug_str	00000000 
00000633 l       .debug_str	00000000 
000006ae l       .debug_str	00000000 
0000074c l       .debug_str	00000000 
000007f7 l       .debug_str	00000000 
00000899 l       .debug_str	00000000 
0000095e l       .debug_str	00000000 
00000a30 l       .debug_str	00000000 
00000af9 l       .debug_str	00000000 
00000be3 l       .debug_str	00000000 
00000cea l       .debug_str	00000000 
00000df0 l       .debug_str	00000000 
00000df4 l       .debug_str	00000000 
00000df6 l       .debug_str	00000000 
00000ef4 l       .debug_str	00000000 
00000ff5 l       .debug_str	00000000 
00000ff7 l       .debug_str	00000000 
000010d7 l       .debug_str	00000000 
000010db l       .debug_str	00000000 
000010e1 l       .debug_str	00000000 
000010e6 l       .debug_str	00000000 
000010ef l       .debug_str	00000000 
000010f4 l       .debug_str	00000000 
000010f8 l       .debug_str	00000000 
000010fc l       .debug_str	00000000 
0000110d l       .debug_str	00000000 
00001145 l       .debug_str	00000000 
00001154 l       .debug_str	00000000 
00001180 l       .debug_str	00000000 
00001187 l       .debug_str	00000000 
0000118e l       .debug_str	00000000 
00001192 l       .debug_str	00000000 
0000119a l       .debug_str	00000000 
000011a5 l       .debug_str	00000000 
000011b0 l       .debug_str	00000000 
000011bd l       .debug_str	00000000 
000011c8 l       .debug_str	00000000 
000011d0 l       .debug_str	00000000 
000011db l       .debug_str	00000000 
000011e6 l       .debug_str	00000000 
000011f0 l       .debug_str	00000000 
000011fb l       .debug_str	00000000 
00001206 l       .debug_str	00000000 
00001213 l       .debug_str	00000000 
0000121f l       .debug_str	00000000 
0000122c l       .debug_str	00000000 
0000123a l       .debug_str	00000000 
00001244 l       .debug_str	00000000 
00001251 l       .debug_str	00000000 
0000125d l       .debug_str	00000000 
00001264 l       .debug_str	00000000 
00001269 l       .debug_str	00000000 
0000126f l       .debug_str	00000000 
0000127b l       .debug_str	00000000 
00001281 l       .debug_str	00000000 
00001286 l       .debug_str	00000000 
00001289 l       .debug_str	00000000 
0000128d l       .debug_str	00000000 
00001290 l       .debug_str	00000000 
00001293 l       .debug_str	00000000 
00001296 l       .debug_str	00000000 
0000129b l       .debug_str	00000000 
000012a7 l       .debug_str	00000000 
000012ac l       .debug_str	00000000 
000012b3 l       .debug_str	00000000 
000012bd l       .debug_str	00000000 
000012c8 l       .debug_str	00000000 
000012d5 l       .debug_str	00000000 
000012e3 l       .debug_str	00000000 
000012ed l       .debug_str	00000000 
000012fb l       .debug_str	00000000 
00001305 l       .debug_str	00000000 
0000130e l       .debug_str	00000000 
00001315 l       .debug_str	00000000 
0000131a l       .debug_str	00000000 
00001326 l       .debug_str	00000000 
0000132d l       .debug_str	00000000 
00001333 l       .debug_str	00000000 
0000133d l       .debug_str	00000000 
0000134e l       .debug_str	00000000 
00001350 l       .debug_str	00000000 
0000135f l       .debug_str	00000000 
00001361 l       .debug_str	00000000 
0000139a l       .debug_str	00000000 
000013a1 l       .debug_str	00000000 
000013a8 l       .debug_str	00000000 
000013b9 l       .debug_str	00000000 
000013bd l       .debug_str	00000000 
000013ca l       .debug_str	00000000 
000013cd l       .debug_str	00000000 
000013d7 l       .debug_str	00000000 
000013e2 l       .debug_str	00000000 
000013eb l       .debug_str	00000000 
000013f0 l       .debug_str	00000000 
000013f9 l       .debug_str	00000000 
00001438 l       .debug_str	00000000 
0000146b l       .debug_str	00000000 
000014f6 l       .debug_str	00000000 
000015cd l       .debug_str	00000000 
000016f0 l       .debug_str	00000000 
00001767 l       .debug_str	00000000 
000017eb l       .debug_str	00000000 
00001866 l       .debug_str	00000000 
00001904 l       .debug_str	00000000 
000019af l       .debug_str	00000000 
00001a51 l       .debug_str	00000000 
00001b37 l       .debug_str	00000000 
00001c3a l       .debug_str	00000000 
00001d3c l       .debug_str	00000000 
00001e36 l       .debug_str	00000000 
00001f13 l       .debug_str	00000000 
00001f1d l       .debug_str	00000000 
00001f44 l       .debug_str	00000000 
00001f49 l       .debug_str	00000000 
00001f4d l       .debug_str	00000000 
00001f53 l       .debug_str	00000000 
00001f5a l       .debug_str	00000000 
00001f5f l       .debug_str	00000000 
00001f79 l       .debug_str	00000000 
00001f80 l       .debug_str	00000000 
00001f89 l       .debug_str	00000000 
00001f96 l       .debug_str	00000000 
00001fc6 l       .debug_str	00000000 
00001fd2 l       .debug_str	00000000 
00001fd8 l       .debug_str	00000000 
00001fde l       .debug_str	00000000 
00001fe7 l       .debug_str	00000000 
00001ff0 l       .debug_str	00000000 
00001ff9 l       .debug_str	00000000 
00001ffd l       .debug_str	00000000 
00002008 l       .debug_str	00000000 
00002013 l       .debug_str	00000000 
0000201a l       .debug_str	00000000 
0000201d l       .debug_str	00000000 
00002027 l       .debug_str	00000000 
0000202f l       .debug_str	00000000 
0000203b l       .debug_str	00000000 
00002043 l       .debug_str	00000000 
00002055 l       .debug_str	00000000 
0000205e l       .debug_str	00000000 
00002091 l       .debug_str	00000000 
000020c5 l       .debug_str	00000000 
000020c7 l       .debug_str	00000000 
000020cb l       .debug_str	00000000 
0000214b l       .debug_str	00000000 
00002183 l       .debug_str	00000000 
0000218a l       .debug_str	00000000 
0000218d l       .debug_str	00000000 
00002197 l       .debug_str	00000000 
000021a2 l       .debug_str	00000000 
000021ab l       .debug_str	00000000 
000021b6 l       .debug_str	00000000 
000021c2 l       .debug_str	00000000 
000021c6 l       .debug_str	00000000 
000021cf l       .debug_str	00000000 
000021d6 l       .debug_str	00000000 
000021de l       .debug_str	00000000 
000021e6 l       .debug_str	00000000 
000021f0 l       .debug_str	00000000 
000021f6 l       .debug_str	00000000 
000021fd l       .debug_str	00000000 
00002204 l       .debug_str	00000000 
0000221b l       .debug_str	00000000 
00002248 l       .debug_str	00000000 
0000227d l       .debug_str	00000000 
00002283 l       .debug_str	00000000 
00002289 l       .debug_str	00000000 
00002298 l       .debug_str	00000000 
000022a8 l       .debug_str	00000000 
000022b8 l       .debug_str	00000000 
000022c0 l       .debug_str	00000000 
000022e9 l       .debug_str	00000000 
00002347 l       .debug_str	00000000 
000023ad l       .debug_str	00000000 
000023b4 l       .debug_str	00000000 
000023bc l       .debug_str	00000000 
000023c5 l       .debug_str	00000000 
000023e3 l       .debug_str	00000000 
000023f3 l       .debug_str	00000000 
00002401 l       .debug_str	00000000 
0000240c l       .debug_str	00000000 
00002419 l       .debug_str	00000000 
00002428 l       .debug_str	00000000 
00002432 l       .debug_str	00000000 
00002448 l       .debug_str	00000000 
00002452 l       .debug_str	00000000 
0000245b l       .debug_str	00000000 
00002464 l       .debug_str	00000000 
0000248a l       .debug_str	00000000 
000024a0 l       .debug_str	00000000 
000024ab l       .debug_str	00000000 
000024c1 l       .debug_str	00000000 
000024c9 l       .debug_str	00000000 
000024ea l       .debug_str	00000000 
000024f3 l       .debug_str	00000000 
000024fc l       .debug_str	00000000 
00002507 l       .debug_str	00000000 
00002511 l       .debug_str	00000000 
00002517 l       .debug_str	00000000 
0000254f l       .debug_str	00000000 
0000258f l       .debug_str	00000000 
00002596 l       .debug_str	00000000 
0000259e l       .debug_str	00000000 
000025b5 l       .debug_str	00000000 
000025be l       .debug_str	00000000 
000025e0 l       .debug_str	00000000 
000025ea l       .debug_str	00000000 
00002611 l       .debug_str	00000000 
00002629 l       .debug_str	00000000 
00002633 l       .debug_str	00000000 
00004a9e l       .debug_str	00000000 
0000269e l       .debug_str	00000000 
000026d0 l       .debug_str	00000000 
00002718 l       .debug_str	00000000 
0000273e l       .debug_str	00000000 
00002766 l       .debug_str	00000000 
000027d2 l       .debug_str	00000000 
000027db l       .debug_str	00000000 
00002888 l       .debug_str	00000000 
0000288a l       .debug_str	00000000 
000028c7 l       .debug_str	00000000 
00002a39 l       .debug_str	00000000 
00002a79 l       .debug_str	00000000 
00002ab0 l       .debug_str	00000000 
00002af0 l       .debug_str	00000000 
00002b37 l       .debug_str	00000000 
00002b77 l       .debug_str	00000000 
00002ba8 l       .debug_str	00000000 
00002be8 l       .debug_str	00000000 
00002c2f l       .debug_str	00000000 
00002c6f l       .debug_str	00000000 
00002c94 l       .debug_str	00000000 
00002cd4 l       .debug_str	00000000 
00002cfb l       .debug_str	00000000 
00002d36 l       .debug_str	00000000 
00002d38 l       .debug_str	00000000 
00002d79 l       .debug_str	00000000 
00002e3a l       .debug_str	00000000 
00002ea9 l       .debug_str	00000000 
00002ed2 l       .debug_str	00000000 
00002f42 l       .debug_str	00000000 
00002fb2 l       .debug_str	00000000 
00002fb6 l       .debug_str	00000000 
00002fbe l       .debug_str	00000000 
00002fc4 l       .debug_str	00000000 
00002fc9 l       .debug_str	00000000 
00002fd1 l       .debug_str	00000000 
00002fd6 l       .debug_str	00000000 
00003046 l       .debug_str	00000000 
0000307c l       .debug_str	00000000 
000030ae l       .debug_str	00000000 
000030b1 l       .debug_str	00000000 
000030b8 l       .debug_str	00000000 
000030c1 l       .debug_str	00000000 
000030d0 l       .debug_str	00000000 
000030d4 l       .debug_str	00000000 
000030dc l       .debug_str	00000000 
000030e2 l       .debug_str	00000000 
000030ee l       .debug_str	00000000 
000030f6 l       .debug_str	00000000 
00003150 l       .debug_str	00000000 
000031b2 l       .debug_str	00000000 
000031bd l       .debug_str	00000000 
00003204 l       .debug_str	00000000 
00003253 l       .debug_str	00000000 
0000325d l       .debug_str	00000000 
0000329a l       .debug_str	00000000 
000032df l       .debug_str	00000000 
000032e8 l       .debug_str	00000000 
000032f8 l       .debug_str	00000000 
00003300 l       .debug_str	00000000 
00003355 l       .debug_str	00000000 
000033b2 l       .debug_str	00000000 
000033be l       .debug_str	00000000 
000033c7 l       .debug_str	00000000 
000033d3 l       .debug_str	00000000 
000033df l       .debug_str	00000000 
000033e8 l       .debug_str	00000000 
000033f0 l       .debug_str	00000000 
000033f8 l       .debug_str	00000000 
0000340d l       .debug_str	00000000 
00003414 l       .debug_str	00000000 
00003434 l       .debug_str	00000000 
0000343b l       .debug_str	00000000 
00003443 l       .debug_str	00000000 
0000344d l       .debug_str	00000000 
00003464 l       .debug_str	00000000 
00003469 l       .debug_str	00000000 
00003471 l       .debug_str	00000000 
0000347a l       .debug_str	00000000 
00003483 l       .debug_str	00000000 
0000348c l       .debug_str	00000000 
00003494 l       .debug_str	00000000 
0000349b l       .debug_str	00000000 
000034a7 l       .debug_str	00000000 
000034b2 l       .debug_str	00000000 
000034ba l       .debug_str	00000000 
000034c2 l       .debug_str	00000000 
000035be l       .debug_str	00000000 
000036c2 l       .debug_str	00000000 
000036d0 l       .debug_str	00000000 
000036db l       .debug_str	00000000 
000036e5 l       .debug_str	00000000 
000036f9 l       .debug_str	00000000 
00003704 l       .debug_str	00000000 
00003732 l       .debug_str	00000000 
000037ad l       .debug_str	00000000 
00003830 l       .debug_str	00000000 
0000383e l       .debug_str	00000000 
0000389d l       .debug_str	00000000 
00003904 l       .debug_str	00000000 
0000391a l       .debug_str	00000000 
0000392a l       .debug_str	00000000 
00003939 l       .debug_str	00000000 
0000393d l       .debug_str	00000000 
00003943 l       .debug_str	00000000 
00003947 l       .debug_str	00000000 
0000394d l       .debug_str	00000000 
00003953 l       .debug_str	00000000 
0000395f l       .debug_str	00000000 
00003967 l       .debug_str	00000000 
0000396d l       .debug_str	00000000 
00003975 l       .debug_str	00000000 
0000397b l       .debug_str	00000000 
0000399e l       .debug_str	00000000 
000039ae l       .debug_str	00000000 
000039e1 l       .debug_str	00000000 
00003a21 l       .debug_str	00000000 
00003a69 l       .debug_str	00000000 
00003a6d l       .debug_str	00000000 
00003a73 l       .debug_str	00000000 
00003a79 l       .debug_str	00000000 
00003a7f l       .debug_str	00000000 
00003a91 l       .debug_str	00000000 
00003ac6 l       .debug_str	00000000 
00003b08 l       .debug_str	00000000 
00003b52 l       .debug_str	00000000 
00003b56 l       .debug_str	00000000 
00003b5c l       .debug_str	00000000 
00003b62 l       .debug_str	00000000 
00003b68 l       .debug_str	00000000 
00003b7a l       .debug_str	00000000 
00003baf l       .debug_str	00000000 
00003bf1 l       .debug_str	00000000 
00003c3b l       .debug_str	00000000 
00003c3f l       .debug_str	00000000 
00003c45 l       .debug_str	00000000 
00003c4b l       .debug_str	00000000 
00003c51 l       .debug_str	00000000 
00003c57 l       .debug_str	00000000 
00003c68 l       .debug_str	00000000 
00003c9c l       .debug_str	00000000 
00003cdd l       .debug_str	00000000 
00003d26 l       .debug_str	00000000 
00003d2b l       .debug_str	00000000 
00003d30 l       .debug_str	00000000 
00003d34 l       .debug_str	00000000 
00003d3a l       .debug_str	00000000 
00003d40 l       .debug_str	00000000 
00003d46 l       .debug_str	00000000 
00003d57 l       .debug_str	00000000 
00003d8b l       .debug_str	00000000 
00003dcc l       .debug_str	00000000 
00003e15 l       .debug_str	00000000 
00003e19 l       .debug_str	00000000 
00003e22 l       .debug_str	00000000 
00003e33 l       .debug_str	00000000 
00003e67 l       .debug_str	00000000 
00003ea8 l       .debug_str	00000000 
00003ef1 l       .debug_str	00000000 
00003ef6 l       .debug_str	00000000 
00003efa l       .debug_str	00000000 
00003f03 l       .debug_str	00000000 
00003f0a l       .debug_str	00000000 
00003f12 l       .debug_str	00000000 
00003f24 l       .debug_str	00000000 
00003f59 l       .debug_str	00000000 
00003f9b l       .debug_str	00000000 
00003fe5 l       .debug_str	00000000 
00003fe9 l       .debug_str	00000000 
00003fef l       .debug_str	00000000 
00003ff5 l       .debug_str	00000000 
00003ffb l       .debug_str	00000000 
00004001 l       .debug_str	00000000 
00004009 l       .debug_str	00000000 
00004017 l       .debug_str	00000000 
00004026 l       .debug_str	00000000 
00004037 l       .debug_str	00000000 
00004042 l       .debug_str	00000000 
0000404d l       .debug_str	00000000 
00004058 l       .debug_str	00000000 
0000405f l       .debug_str	00000000 
00004082 l       .debug_str	00000000 
00004094 l       .debug_str	00000000 
000040c9 l       .debug_str	00000000 
0000410b l       .debug_str	00000000 
00004155 l       .debug_str	00000000 
00004159 l       .debug_str	00000000 
00004163 l       .debug_str	00000000 
00004175 l       .debug_str	00000000 
000041aa l       .debug_str	00000000 
000041ec l       .debug_str	00000000 
00004236 l       .debug_str	00000000 
0000423b l       .debug_str	00000000 
00004245 l       .debug_str	00000000 
00004257 l       .debug_str	00000000 
0000428c l       .debug_str	00000000 
000042ce l       .debug_str	00000000 
00004318 l       .debug_str	00000000 
0000432c l       .debug_str	00000000 
0000433a l       .debug_str	00000000 
0000434a l       .debug_str	00000000 
00004353 l       .debug_str	00000000 
0000435e l       .debug_str	00000000 
0000436d l       .debug_str	00000000 
00004382 l       .debug_str	00000000 
000043b3 l       .debug_str	00000000 
00004450 l       .debug_str	00000000 
000044f5 l       .debug_str	00000000 
00004500 l       .debug_str	00000000 
00004509 l       .debug_str	00000000 
0000452a l       .debug_str	00000000 
0000453d l       .debug_str	00000000 
00004573 l       .debug_str	00000000 
000045f6 l       .debug_str	00000000 
00004681 l       .debug_str	00000000 
0000469d l       .debug_str	00000000 
000046e9 l       .debug_str	00000000 
0000473d l       .debug_str	00000000 
0000475a l       .debug_str	00000000 
0000476e l       .debug_str	00000000 
000047ba l       .debug_str	00000000 
0000480e l       .debug_str	00000000 
00004824 l       .debug_str	00000000 
00004838 l       .debug_str	00000000 
0000487f l       .debug_str	00000000 
000048ce l       .debug_str	00000000 
000048d7 l       .debug_str	00000000 
000048e5 l       .debug_str	00000000 
00004916 l       .debug_str	00000000 
0000491c l       .debug_str	00000000 
00004924 l       .debug_str	00000000 
0000492b l       .debug_str	00000000 
00004933 l       .debug_str	00000000 
0000493e l       .debug_str	00000000 
00004946 l       .debug_str	00000000 
00004955 l       .debug_str	00000000 
00004959 l       .debug_str	00000000 
00004964 l       .debug_str	00000000 
00004970 l       .debug_str	00000000 
0000497b l       .debug_str	00000000 
0000498c l       .debug_str	00000000 
00004992 l       .debug_str	00000000 
0000499a l       .debug_str	00000000 
000049a1 l       .debug_str	00000000 
000049ab l       .debug_str	00000000 
000049b3 l       .debug_str	00000000 
000049bb l       .debug_str	00000000 
000049dd l       .debug_str	00000000 
000049e8 l       .debug_str	00000000 
000049f4 l       .debug_str	00000000 
000049fc l       .debug_str	00000000 
00004a05 l       .debug_str	00000000 
00004a10 l       .debug_str	00000000 
00004a17 l       .debug_str	00000000 
00004a22 l       .debug_str	00000000 
00004a2d l       .debug_str	00000000 
00004a3d l       .debug_str	00000000 
00004a4d l       .debug_str	00000000 
00004a80 l       .debug_str	00000000 
00004a95 l       .debug_str	00000000 
00004d5a l       .debug_str	00000000 
00000000 l     O .rodata..Lanon.17f9406a13b248cfed45d13cb2d0e0af.0	00000010 .Lanon.17f9406a13b248cfed45d13cb2d0e0af.0
00000000 l     O .rodata..Lanon.17f9406a13b248cfed45d13cb2d0e0af.1	00000010 .Lanon.17f9406a13b248cfed45d13cb2d0e0af.1
00000000 l     O .rodata..Lanon.17f9406a13b248cfed45d13cb2d0e0af.2	00000010 .Lanon.17f9406a13b248cfed45d13cb2d0e0af.2
00000000 l     O .rodata..Lanon.17f9406a13b248cfed45d13cb2d0e0af.3	00000010 .Lanon.17f9406a13b248cfed45d13cb2d0e0af.3
00000000 l     O .rodata..Lanon.17f9406a13b248cfed45d13cb2d0e0af.4	00000010 .Lanon.17f9406a13b248cfed45d13cb2d0e0af.4
00000000 l    d  .text._ZN4core6result19Result$LT$T$C$E$GT$3map17h7cf550ff2fcaa9beE	00000000 .text._ZN4core6result19Result$LT$T$C$E$GT$3map17h7cf550ff2fcaa9beE
00000000 l    d  .text._ZN4core6result19Result$LT$T$C$E$GT$6expect17h108621878da58221E	00000000 .text._ZN4core6result19Result$LT$T$C$E$GT$6expect17h108621878da58221E
00000000 l    d  .text._ZN4core6result19Result$LT$T$C$E$GT$6expect17h557b93805f6bd39bE	00000000 .text._ZN4core6result19Result$LT$T$C$E$GT$6expect17h557b93805f6bd39bE
00000000 l    d  .text._ZN4core6result19Result$LT$T$C$E$GT$6expect17hac5c96ca2c5fc078E	00000000 .text._ZN4core6result19Result$LT$T$C$E$GT$6expect17hac5c96ca2c5fc078E
00000000 l    d  .text._ZN4core6result19Result$LT$T$C$E$GT$6expect17hd6c0bd1c70af5673E	00000000 .text._ZN4core6result19Result$LT$T$C$E$GT$6expect17hd6c0bd1c70af5673E
00000000 l    d  .text._ZN4core6result19Result$LT$T$C$E$GT$6expect17he4559283b3def769E	00000000 .text._ZN4core6result19Result$LT$T$C$E$GT$6expect17he4559283b3def769E
00000000 l    d  .text._ZN4core6result19Result$LT$T$C$E$GT$6expect17hf56bd790b7bb02c4E	00000000 .text._ZN4core6result19Result$LT$T$C$E$GT$6expect17hf56bd790b7bb02c4E
00000000 l    d  .text._ZN4core6result19Result$LT$T$C$E$GT$7map_err17haeeea911c5fb8ea0E	00000000 .text._ZN4core6result19Result$LT$T$C$E$GT$7map_err17haeeea911c5fb8ea0E
00000000 l    d  .text._ZN73_$LT$core..result..Result$LT$T$C$E$GT$$u20$as$u20$core..ops..try..Try$GT$10from_error17h5bc6406c6cace9efE	00000000 .text._ZN73_$LT$core..result..Result$LT$T$C$E$GT$$u20$as$u20$core..ops..try..Try$GT$10from_error17h5bc6406c6cace9efE
00000000 l    d  .text._ZN73_$LT$core..result..Result$LT$T$C$E$GT$$u20$as$u20$core..ops..try..Try$GT$11into_result17h57571c46b08616a2E	00000000 .text._ZN73_$LT$core..result..Result$LT$T$C$E$GT$$u20$as$u20$core..ops..try..Try$GT$11into_result17h57571c46b08616a2E
00000000 l    d  .text._ZN73_$LT$core..result..Result$LT$T$C$E$GT$$u20$as$u20$core..ops..try..Try$GT$11into_result17h596a53411daa407fE	00000000 .text._ZN73_$LT$core..result..Result$LT$T$C$E$GT$$u20$as$u20$core..ops..try..Try$GT$11into_result17h596a53411daa407fE
00000000 l    d  .text._ZN73_$LT$core..result..Result$LT$T$C$E$GT$$u20$as$u20$core..ops..try..Try$GT$11into_result17h722565ad5f964da6E	00000000 .text._ZN73_$LT$core..result..Result$LT$T$C$E$GT$$u20$as$u20$core..ops..try..Try$GT$11into_result17h722565ad5f964da6E
00000000 l    d  .text._ZN73_$LT$core..result..Result$LT$T$C$E$GT$$u20$as$u20$core..ops..try..Try$GT$11into_result17h817c29b95c5b7ad6E	00000000 .text._ZN73_$LT$core..result..Result$LT$T$C$E$GT$$u20$as$u20$core..ops..try..Try$GT$11into_result17h817c29b95c5b7ad6E
00000000 l    d  .rodata..Lanon.17f9406a13b248cfed45d13cb2d0e0af.0	00000000 .rodata..Lanon.17f9406a13b248cfed45d13cb2d0e0af.0
00000000 l    d  .rodata..Lanon.17f9406a13b248cfed45d13cb2d0e0af.1	00000000 .rodata..Lanon.17f9406a13b248cfed45d13cb2d0e0af.1
00000000 l    d  .rodata..Lanon.17f9406a13b248cfed45d13cb2d0e0af.2	00000000 .rodata..Lanon.17f9406a13b248cfed45d13cb2d0e0af.2
00000000 l    d  .rodata..Lanon.17f9406a13b248cfed45d13cb2d0e0af.3	00000000 .rodata..Lanon.17f9406a13b248cfed45d13cb2d0e0af.3
00000000 l    d  .rodata..Lanon.17f9406a13b248cfed45d13cb2d0e0af.4	00000000 .rodata..Lanon.17f9406a13b248cfed45d13cb2d0e0af.4
00000000 l    d  .debug_loc	00000000 .debug_loc
00000000 l    d  .debug_abbrev	00000000 .debug_abbrev
00000000 l    d  .debug_info	00000000 .debug_info
00000000 l    d  .debug_ranges	00000000 .debug_ranges
00000000 l    d  .debug_frame	00000000 .debug_frame
00000000 l    d  .debug_line	00000000 .debug_line
00000000         *UND*	00000000 _ZN4core3ops8function6FnOnce9call_once17he3238a55969275e0E
00000000         *UND*	00000000 _ZN4core3ops8function6FnOnce9call_once17hf0bfda2e675dde0bE
00000000         *UND*	00000000 _ZN4core3ptr18real_drop_in_place17h41ca6ccaa2e6b8cbE
00000000         *UND*	00000000 _ZN4core3ptr18real_drop_in_place17h4535dffa1a73d84fE
00000000         *UND*	00000000 _ZN4core3ptr18real_drop_in_place17h6cf72b56b2bcd0c4E
00000000         *UND*	00000000 _ZN4core3ptr18real_drop_in_place17ha5cf28763c41a7efE
00000000         *UND*	00000000 _ZN4core3ptr18real_drop_in_place17hfd29428cefd2c20bE
00000000         *UND*	00000000 _ZN4core6result13unwrap_failed17h7251308ec569cdc6E
00000000 g     F .text._ZN4core6result19Result$LT$T$C$E$GT$3map17h7cf550ff2fcaa9beE	000000ec _ZN4core6result19Result$LT$T$C$E$GT$3map17h7cf550ff2fcaa9beE
00000000 g     F .text._ZN4core6result19Result$LT$T$C$E$GT$6expect17h108621878da58221E	0000004e _ZN4core6result19Result$LT$T$C$E$GT$6expect17h108621878da58221E
00000000 g     F .text._ZN4core6result19Result$LT$T$C$E$GT$6expect17h557b93805f6bd39bE	0000004a _ZN4core6result19Result$LT$T$C$E$GT$6expect17h557b93805f6bd39bE
00000000 g     F .text._ZN4core6result19Result$LT$T$C$E$GT$6expect17hac5c96ca2c5fc078E	00000064 _ZN4core6result19Result$LT$T$C$E$GT$6expect17hac5c96ca2c5fc078E
00000000 g     F .text._ZN4core6result19Result$LT$T$C$E$GT$6expect17hd6c0bd1c70af5673E	0000006e _ZN4core6result19Result$LT$T$C$E$GT$6expect17hd6c0bd1c70af5673E
00000000 g     F .text._ZN4core6result19Result$LT$T$C$E$GT$6expect17he4559283b3def769E	00000042 _ZN4core6result19Result$LT$T$C$E$GT$6expect17he4559283b3def769E
00000000 g     F .text._ZN4core6result19Result$LT$T$C$E$GT$6expect17hf56bd790b7bb02c4E	00000040 _ZN4core6result19Result$LT$T$C$E$GT$6expect17hf56bd790b7bb02c4E
00000000 g     F .text._ZN4core6result19Result$LT$T$C$E$GT$7map_err17haeeea911c5fb8ea0E	000000fa _ZN4core6result19Result$LT$T$C$E$GT$7map_err17haeeea911c5fb8ea0E
00000000         *UND*	00000000 _ZN59_$LT$$LP$T10$C$$u20$T11$RP$$u20$as$u20$core..fmt..Debug$GT$3fmt17h5487519a4e1c0582E
00000000         *UND*	00000000 _ZN62_$LT$druid_shell..error..Error$u20$as$u20$core..fmt..Debug$GT$3fmt17h2304bdf8c821777bE
00000000         *UND*	00000000 _ZN64_$LT$mynewt..result..MynewtError$u20$as$u20$core..fmt..Debug$GT$3fmt17h5b13f0412774a3b3E
00000000         *UND*	00000000 _ZN72_$LT$druid..app..WindowDesc$LT$T$C$W$GT$$u20$as$u20$core..fmt..Debug$GT$3fmt17h119b79ab6a0f5548E
00000000 g     F .text._ZN73_$LT$core..result..Result$LT$T$C$E$GT$$u20$as$u20$core..ops..try..Try$GT$10from_error17h5bc6406c6cace9efE	00000016 _ZN73_$LT$core..result..Result$LT$T$C$E$GT$$u20$as$u20$core..ops..try..Try$GT$10from_error17h5bc6406c6cace9efE
00000000 g     F .text._ZN73_$LT$core..result..Result$LT$T$C$E$GT$$u20$as$u20$core..ops..try..Try$GT$11into_result17h57571c46b08616a2E	00000016 _ZN73_$LT$core..result..Result$LT$T$C$E$GT$$u20$as$u20$core..ops..try..Try$GT$11into_result17h57571c46b08616a2E
00000000 g     F .text._ZN73_$LT$core..result..Result$LT$T$C$E$GT$$u20$as$u20$core..ops..try..Try$GT$11into_result17h596a53411daa407fE	00000016 _ZN73_$LT$core..result..Result$LT$T$C$E$GT$$u20$as$u20$core..ops..try..Try$GT$11into_result17h596a53411daa407fE
00000000 g     F .text._ZN73_$LT$core..result..Result$LT$T$C$E$GT$$u20$as$u20$core..ops..try..Try$GT$11into_result17h722565ad5f964da6E	00000014 _ZN73_$LT$core..result..Result$LT$T$C$E$GT$$u20$as$u20$core..ops..try..Try$GT$11into_result17h722565ad5f964da6E
00000000 g     F .text._ZN73_$LT$core..result..Result$LT$T$C$E$GT$$u20$as$u20$core..ops..try..Try$GT$11into_result17h817c29b95c5b7ad6E	0000000a _ZN73_$LT$core..result..Result$LT$T$C$E$GT$$u20$as$u20$core..ops..try..Try$GT$11into_result17h817c29b95c5b7ad6E
00000000         *UND*	00000000 _ZN78_$LT$druid..widget..flex..ChildWidget$LT$T$GT$$u20$as$u20$core..fmt..Debug$GT$3fmt17h4da880c3844c23feE



Disassembly of section .text._ZN4core6result19Result$LT$T$C$E$GT$3map17h7cf550ff2fcaa9beE:

00000000 <_ZN4core6result19Result$LT$T$C$E$GT$3map17h7cf550ff2fcaa9beE>:
_ZN4core6result19Result$LT$T$C$E$GT$3map17h7cf550ff2fcaa9beE():
/rustc/412f43ac5b4ae8c3599e71c6972112e9be4758fa/src/libcore/result.rs:510
   0:	b580      	push	{r7, lr}
   2:	b092      	sub	sp, #72	; 0x48
   4:	2200      	movs	r2, #0
/rustc/412f43ac5b4ae8c3599e71c6972112e9be4758fa/src/libcore/result.rs:512
   6:	f88d 2047 	strb.w	r2, [sp, #71]	; 0x47
   a:	f88d 2045 	strb.w	r2, [sp, #69]	; 0x45
   e:	f88d 2046 	strb.w	r2, [sp, #70]	; 0x46
  12:	2201      	movs	r2, #1
  14:	f88d 2046 	strb.w	r2, [sp, #70]	; 0x46
  18:	f88d 2047 	strb.w	r2, [sp, #71]	; 0x47
  1c:	f88d 2045 	strb.w	r2, [sp, #69]	; 0x45
  20:	680a      	ldr	r2, [r1, #0]
  22:	2a00      	cmp	r2, #0
  24:	9101      	str	r1, [sp, #4]
  26:	9000      	str	r0, [sp, #0]
  28:	d002      	beq.n	30 <_ZN4core6result19Result$LT$T$C$E$GT$3map17h7cf550ff2fcaa9beE+0x30>
  2a:	e7ff      	b.n	2c <_ZN4core6result19Result$LT$T$C$E$GT$3map17h7cf550ff2fcaa9beE+0x2c>
  2c:	e029      	b.n	82 <_ZN4core6result19Result$LT$T$C$E$GT$3map17h7cf550ff2fcaa9beE+0x82>
/rustc/412f43ac5b4ae8c3599e71c6972112e9be4758fa/src/libcore/result.rs:511
  2e:	defe      	udf	#254	; 0xfe
  30:	2000      	movs	r0, #0
/rustc/412f43ac5b4ae8c3599e71c6972112e9be4758fa/src/libcore/result.rs:512
  32:	f88d 0047 	strb.w	r0, [sp, #71]	; 0x47
  36:	9901      	ldr	r1, [sp, #4]
  38:	684a      	ldr	r2, [r1, #4]
  3a:	688b      	ldr	r3, [r1, #8]
  3c:	f8d1 c00c 	ldr.w	ip, [r1, #12]
  40:	f8cd c014 	str.w	ip, [sp, #20]
  44:	9304      	str	r3, [sp, #16]
  46:	9203      	str	r2, [sp, #12]
  48:	f88d 0045 	strb.w	r0, [sp, #69]	; 0x45
  4c:	9803      	ldr	r0, [sp, #12]
  4e:	9a04      	ldr	r2, [sp, #16]
  50:	9b05      	ldr	r3, [sp, #20]
  52:	930e      	str	r3, [sp, #56]	; 0x38
  54:	920d      	str	r2, [sp, #52]	; 0x34
  56:	900c      	str	r0, [sp, #48]	; 0x30
  58:	980c      	ldr	r0, [sp, #48]	; 0x30
  5a:	9a0d      	ldr	r2, [sp, #52]	; 0x34
  5c:	9b0e      	ldr	r3, [sp, #56]	; 0x38
  5e:	930b      	str	r3, [sp, #44]	; 0x2c
  60:	920a      	str	r2, [sp, #40]	; 0x28
  62:	9009      	str	r0, [sp, #36]	; 0x24
  64:	a806      	add	r0, sp, #24
  66:	a909      	add	r1, sp, #36	; 0x24
  68:	f7ff fffe 	bl	0 <_ZN4core3ops8function6FnOnce9call_once17hf0bfda2e675dde0bE>
  6c:	e7ff      	b.n	6e <_ZN4core6result19Result$LT$T$C$E$GT$3map17h7cf550ff2fcaa9beE+0x6e>
  6e:	9806      	ldr	r0, [sp, #24]
  70:	9907      	ldr	r1, [sp, #28]
  72:	9a08      	ldr	r2, [sp, #32]
  74:	9b00      	ldr	r3, [sp, #0]
  76:	60da      	str	r2, [r3, #12]
  78:	6099      	str	r1, [r3, #8]
  7a:	6058      	str	r0, [r3, #4]
  7c:	2000      	movs	r0, #0
  7e:	6018      	str	r0, [r3, #0]
/rustc/412f43ac5b4ae8c3599e71c6972112e9be4758fa/src/libcore/result.rs:511
  80:	e00f      	b.n	a2 <_ZN4core6result19Result$LT$T$C$E$GT$3map17h7cf550ff2fcaa9beE+0xa2>
  82:	2000      	movs	r0, #0
/rustc/412f43ac5b4ae8c3599e71c6972112e9be4758fa/src/libcore/result.rs:513
  84:	f88d 0046 	strb.w	r0, [sp, #70]	; 0x46
  88:	9801      	ldr	r0, [sp, #4]
  8a:	6841      	ldr	r1, [r0, #4]
  8c:	6882      	ldr	r2, [r0, #8]
  8e:	910f      	str	r1, [sp, #60]	; 0x3c
  90:	9210      	str	r2, [sp, #64]	; 0x40
  92:	990f      	ldr	r1, [sp, #60]	; 0x3c
  94:	9a10      	ldr	r2, [sp, #64]	; 0x40
  96:	9b00      	ldr	r3, [sp, #0]
  98:	6059      	str	r1, [r3, #4]
  9a:	609a      	str	r2, [r3, #8]
  9c:	2101      	movs	r1, #1
  9e:	6019      	str	r1, [r3, #0]
/rustc/412f43ac5b4ae8c3599e71c6972112e9be4758fa/src/libcore/result.rs:511
  a0:	e7ff      	b.n	a2 <_ZN4core6result19Result$LT$T$C$E$GT$3map17h7cf550ff2fcaa9beE+0xa2>
/rustc/412f43ac5b4ae8c3599e71c6972112e9be4758fa/src/libcore/result.rs:515
  a2:	f89d 0045 	ldrb.w	r0, [sp, #69]	; 0x45
  a6:	07c0      	lsls	r0, r0, #31
  a8:	2800      	cmp	r0, #0
  aa:	d105      	bne.n	b8 <_ZN4core6result19Result$LT$T$C$E$GT$3map17h7cf550ff2fcaa9beE+0xb8>
  ac:	e7ff      	b.n	ae <_ZN4core6result19Result$LT$T$C$E$GT$3map17h7cf550ff2fcaa9beE+0xae>
  ae:	9801      	ldr	r0, [sp, #4]
  b0:	6801      	ldr	r1, [r0, #0]
  b2:	2900      	cmp	r1, #0
  b4:	d006      	beq.n	c4 <_ZN4core6result19Result$LT$T$C$E$GT$3map17h7cf550ff2fcaa9beE+0xc4>
  b6:	e00f      	b.n	d8 <_ZN4core6result19Result$LT$T$C$E$GT$3map17h7cf550ff2fcaa9beE+0xd8>
  b8:	2000      	movs	r0, #0
  ba:	f88d 0045 	strb.w	r0, [sp, #69]	; 0x45
  be:	e7f6      	b.n	ae <_ZN4core6result19Result$LT$T$C$E$GT$3map17h7cf550ff2fcaa9beE+0xae>
  c0:	b012      	add	sp, #72	; 0x48
  c2:	bd80      	pop	{r7, pc}
  c4:	f89d 0047 	ldrb.w	r0, [sp, #71]	; 0x47
  c8:	07c0      	lsls	r0, r0, #31
  ca:	2800      	cmp	r0, #0
  cc:	d0f8      	beq.n	c0 <_ZN4core6result19Result$LT$T$C$E$GT$3map17h7cf550ff2fcaa9beE+0xc0>
  ce:	e7ff      	b.n	d0 <_ZN4core6result19Result$LT$T$C$E$GT$3map17h7cf550ff2fcaa9beE+0xd0>
  d0:	2000      	movs	r0, #0
  d2:	f88d 0047 	strb.w	r0, [sp, #71]	; 0x47
  d6:	e7f3      	b.n	c0 <_ZN4core6result19Result$LT$T$C$E$GT$3map17h7cf550ff2fcaa9beE+0xc0>
  d8:	f89d 0046 	ldrb.w	r0, [sp, #70]	; 0x46
  dc:	07c0      	lsls	r0, r0, #31
  de:	2800      	cmp	r0, #0
  e0:	d0ee      	beq.n	c0 <_ZN4core6result19Result$LT$T$C$E$GT$3map17h7cf550ff2fcaa9beE+0xc0>
  e2:	e7ff      	b.n	e4 <_ZN4core6result19Result$LT$T$C$E$GT$3map17h7cf550ff2fcaa9beE+0xe4>
  e4:	2000      	movs	r0, #0
  e6:	f88d 0046 	strb.w	r0, [sp, #70]	; 0x46
  ea:	e7e9      	b.n	c0 <_ZN4core6result19Result$LT$T$C$E$GT$3map17h7cf550ff2fcaa9beE+0xc0>

Disassembly of section .text._ZN4core6result19Result$LT$T$C$E$GT$6expect17h108621878da58221E:

00000000 <_ZN4core6result19Result$LT$T$C$E$GT$6expect17h108621878da58221E>:
_ZN4core6result19Result$LT$T$C$E$GT$6expect17h108621878da58221E():
/rustc/412f43ac5b4ae8c3599e71c6972112e9be4758fa/src/libcore/result.rs:981
   0:	b088      	sub	sp, #32
   2:	9102      	str	r1, [sp, #8]
   4:	9203      	str	r2, [sp, #12]
/rustc/412f43ac5b4ae8c3599e71c6972112e9be4758fa/src/libcore/result.rs:983
   6:	6801      	ldr	r1, [r0, #0]
   8:	2900      	cmp	r1, #0
   a:	460a      	mov	r2, r1
   c:	bf18      	it	ne
   e:	2201      	movne	r2, #1
  10:	2900      	cmp	r1, #0
  12:	9001      	str	r0, [sp, #4]
  14:	d002      	beq.n	1c <_ZN4core6result19Result$LT$T$C$E$GT$6expect17h108621878da58221E+0x1c>
  16:	e7ff      	b.n	18 <_ZN4core6result19Result$LT$T$C$E$GT$6expect17h108621878da58221E+0x18>
  18:	e005      	b.n	26 <_ZN4core6result19Result$LT$T$C$E$GT$6expect17h108621878da58221E+0x26>
/rustc/412f43ac5b4ae8c3599e71c6972112e9be4758fa/src/libcore/result.rs:982
  1a:	defe      	udf	#254	; 0xfe
/rustc/412f43ac5b4ae8c3599e71c6972112e9be4758fa/src/libcore/result.rs:986
  1c:	9801      	ldr	r0, [sp, #4]
  1e:	6801      	ldr	r1, [r0, #0]
  20:	2900      	cmp	r1, #0
  22:	d011      	beq.n	48 <_ZN4core6result19Result$LT$T$C$E$GT$6expect17h108621878da58221E+0x48>
  24:	e012      	b.n	4c <_ZN4core6result19Result$LT$T$C$E$GT$6expect17h108621878da58221E+0x4c>
/rustc/412f43ac5b4ae8c3599e71c6972112e9be4758fa/src/libcore/result.rs:984
  26:	9801      	ldr	r0, [sp, #4]
  28:	6801      	ldr	r1, [r0, #0]
  2a:	6842      	ldr	r2, [r0, #4]
  2c:	6883      	ldr	r3, [r0, #8]
  2e:	9307      	str	r3, [sp, #28]
  30:	9206      	str	r2, [sp, #24]
  32:	9105      	str	r1, [sp, #20]
  34:	9802      	ldr	r0, [sp, #8]
  36:	9903      	ldr	r1, [sp, #12]
  38:	f240 0300 	movw	r3, #0
  3c:	f2c0 0300 	movt	r3, #0
  40:	aa05      	add	r2, sp, #20
  42:	f7ff fffe 	bl	0 <_ZN4core6result13unwrap_failed17h7251308ec569cdc6E>
  46:	defe      	udf	#254	; 0xfe
/rustc/412f43ac5b4ae8c3599e71c6972112e9be4758fa/src/libcore/result.rs:986
  48:	b008      	add	sp, #32
  4a:	4770      	bx	lr
  4c:	e7fc      	b.n	48 <_ZN4core6result19Result$LT$T$C$E$GT$6expect17h108621878da58221E+0x48>

Disassembly of section .text._ZN4core6result19Result$LT$T$C$E$GT$6expect17h557b93805f6bd39bE:

00000000 <_ZN4core6result19Result$LT$T$C$E$GT$6expect17h557b93805f6bd39bE>:
_ZN4core6result19Result$LT$T$C$E$GT$6expect17h557b93805f6bd39bE():
/rustc/412f43ac5b4ae8c3599e71c6972112e9be4758fa/src/libcore/result.rs:981
   0:	b086      	sub	sp, #24
   2:	9102      	str	r1, [sp, #8]
   4:	9203      	str	r2, [sp, #12]
/rustc/412f43ac5b4ae8c3599e71c6972112e9be4758fa/src/libcore/result.rs:983
   6:	6801      	ldr	r1, [r0, #0]
   8:	2900      	cmp	r1, #0
   a:	9001      	str	r0, [sp, #4]
   c:	d002      	beq.n	14 <_ZN4core6result19Result$LT$T$C$E$GT$6expect17h557b93805f6bd39bE+0x14>
   e:	e7ff      	b.n	10 <_ZN4core6result19Result$LT$T$C$E$GT$6expect17h557b93805f6bd39bE+0x10>
  10:	e00a      	b.n	28 <_ZN4core6result19Result$LT$T$C$E$GT$6expect17h557b93805f6bd39bE+0x28>
/rustc/412f43ac5b4ae8c3599e71c6972112e9be4758fa/src/libcore/result.rs:982
  12:	defe      	udf	#254	; 0xfe
/rustc/412f43ac5b4ae8c3599e71c6972112e9be4758fa/src/libcore/result.rs:983
  14:	9801      	ldr	r0, [sp, #4]
  16:	6841      	ldr	r1, [r0, #4]
  18:	9104      	str	r1, [sp, #16]
  1a:	9804      	ldr	r0, [sp, #16]
/rustc/412f43ac5b4ae8c3599e71c6972112e9be4758fa/src/libcore/result.rs:986
  1c:	9901      	ldr	r1, [sp, #4]
  1e:	680a      	ldr	r2, [r1, #0]
  20:	2a00      	cmp	r2, #0
  22:	9000      	str	r0, [sp, #0]
  24:	d00d      	beq.n	42 <_ZN4core6result19Result$LT$T$C$E$GT$6expect17h557b93805f6bd39bE+0x42>
  26:	e00f      	b.n	48 <_ZN4core6result19Result$LT$T$C$E$GT$6expect17h557b93805f6bd39bE+0x48>
/rustc/412f43ac5b4ae8c3599e71c6972112e9be4758fa/src/libcore/result.rs:984
  28:	9801      	ldr	r0, [sp, #4]
  2a:	6841      	ldr	r1, [r0, #4]
  2c:	9105      	str	r1, [sp, #20]
  2e:	9802      	ldr	r0, [sp, #8]
  30:	9903      	ldr	r1, [sp, #12]
  32:	f240 0300 	movw	r3, #0
  36:	f2c0 0300 	movt	r3, #0
  3a:	aa05      	add	r2, sp, #20
  3c:	f7ff fffe 	bl	0 <_ZN4core6result13unwrap_failed17h7251308ec569cdc6E>
  40:	defe      	udf	#254	; 0xfe
/rustc/412f43ac5b4ae8c3599e71c6972112e9be4758fa/src/libcore/result.rs:986
  42:	9800      	ldr	r0, [sp, #0]
  44:	b006      	add	sp, #24
  46:	4770      	bx	lr
  48:	e7fb      	b.n	42 <_ZN4core6result19Result$LT$T$C$E$GT$6expect17h557b93805f6bd39bE+0x42>

Disassembly of section .text._ZN4core6result19Result$LT$T$C$E$GT$6expect17hac5c96ca2c5fc078E:

00000000 <_ZN4core6result19Result$LT$T$C$E$GT$6expect17hac5c96ca2c5fc078E>:
_ZN4core6result19Result$LT$T$C$E$GT$6expect17hac5c96ca2c5fc078E():
/rustc/412f43ac5b4ae8c3599e71c6972112e9be4758fa/src/libcore/result.rs:981
   0:	b570      	push	{r4, r5, r6, lr}
   2:	b096      	sub	sp, #88	; 0x58
   4:	9103      	str	r1, [sp, #12]
   6:	9204      	str	r2, [sp, #16]
/rustc/412f43ac5b4ae8c3599e71c6972112e9be4758fa/src/libcore/result.rs:983
   8:	6a81      	ldr	r1, [r0, #40]	; 0x28
   a:	1e8a      	subs	r2, r1, #2
   c:	bf18      	it	ne
   e:	2201      	movne	r2, #1
  10:	2902      	cmp	r1, #2
  12:	9002      	str	r0, [sp, #8]
  14:	d002      	beq.n	1c <_ZN4core6result19Result$LT$T$C$E$GT$6expect17hac5c96ca2c5fc078E+0x1c>
  16:	e7ff      	b.n	18 <_ZN4core6result19Result$LT$T$C$E$GT$6expect17hac5c96ca2c5fc078E+0x18>
  18:	e005      	b.n	26 <_ZN4core6result19Result$LT$T$C$E$GT$6expect17hac5c96ca2c5fc078E+0x26>
/rustc/412f43ac5b4ae8c3599e71c6972112e9be4758fa/src/libcore/result.rs:982
  1a:	defe      	udf	#254	; 0xfe
/rustc/412f43ac5b4ae8c3599e71c6972112e9be4758fa/src/libcore/result.rs:986
  1c:	9802      	ldr	r0, [sp, #8]
  1e:	6a81      	ldr	r1, [r0, #40]	; 0x28
  20:	2902      	cmp	r1, #2
  22:	d01c      	beq.n	5e <_ZN4core6result19Result$LT$T$C$E$GT$6expect17hac5c96ca2c5fc078E+0x5e>
  24:	e01d      	b.n	62 <_ZN4core6result19Result$LT$T$C$E$GT$6expect17hac5c96ca2c5fc078E+0x62>
  26:	a806      	add	r0, sp, #24
/rustc/412f43ac5b4ae8c3599e71c6972112e9be4758fa/src/libcore/result.rs:984
  28:	9902      	ldr	r1, [sp, #8]
  2a:	4602      	mov	r2, r0
  2c:	e8b1 5038 	ldmia.w	r1!, {r3, r4, r5, ip, lr}
  30:	e8a2 5038 	stmia.w	r2!, {r3, r4, r5, ip, lr}
  34:	e8b1 5038 	ldmia.w	r1!, {r3, r4, r5, ip, lr}
  38:	e8a2 5038 	stmia.w	r2!, {r3, r4, r5, ip, lr}
  3c:	e891 5078 	ldmia.w	r1, {r3, r4, r5, r6, ip, lr}
  40:	e882 5078 	stmia.w	r2, {r3, r4, r5, r6, ip, lr}
  44:	9903      	ldr	r1, [sp, #12]
  46:	9a04      	ldr	r2, [sp, #16]
  48:	f240 0300 	movw	r3, #0
  4c:	f2c0 0300 	movt	r3, #0
  50:	9001      	str	r0, [sp, #4]
  52:	4608      	mov	r0, r1
  54:	4611      	mov	r1, r2
  56:	9a01      	ldr	r2, [sp, #4]
  58:	f7ff fffe 	bl	0 <_ZN4core6result13unwrap_failed17h7251308ec569cdc6E>
  5c:	defe      	udf	#254	; 0xfe
/rustc/412f43ac5b4ae8c3599e71c6972112e9be4758fa/src/libcore/result.rs:986
  5e:	b016      	add	sp, #88	; 0x58
  60:	bd70      	pop	{r4, r5, r6, pc}
  62:	e7fc      	b.n	5e <_ZN4core6result19Result$LT$T$C$E$GT$6expect17hac5c96ca2c5fc078E+0x5e>

Disassembly of section .text._ZN4core6result19Result$LT$T$C$E$GT$6expect17hd6c0bd1c70af5673E:

00000000 <_ZN4core6result19Result$LT$T$C$E$GT$6expect17hd6c0bd1c70af5673E>:
_ZN4core6result19Result$LT$T$C$E$GT$6expect17hd6c0bd1c70af5673E():
/rustc/412f43ac5b4ae8c3599e71c6972112e9be4758fa/src/libcore/result.rs:981
   0:	b510      	push	{r4, lr}
   2:	b08e      	sub	sp, #56	; 0x38
   4:	9103      	str	r1, [sp, #12]
   6:	9204      	str	r2, [sp, #16]
/rustc/412f43ac5b4ae8c3599e71c6972112e9be4758fa/src/libcore/result.rs:983
   8:	6801      	ldr	r1, [r0, #0]
   a:	6842      	ldr	r2, [r0, #4]
   c:	f081 0102 	eor.w	r1, r1, #2
  10:	4311      	orrs	r1, r2
  12:	2900      	cmp	r1, #0
  14:	460a      	mov	r2, r1
  16:	bf18      	it	ne
  18:	2201      	movne	r2, #1
  1a:	2900      	cmp	r1, #0
  1c:	9002      	str	r0, [sp, #8]
  1e:	d002      	beq.n	26 <_ZN4core6result19Result$LT$T$C$E$GT$6expect17hd6c0bd1c70af5673E+0x26>
  20:	e7ff      	b.n	22 <_ZN4core6result19Result$LT$T$C$E$GT$6expect17hd6c0bd1c70af5673E+0x22>
  22:	e009      	b.n	38 <_ZN4core6result19Result$LT$T$C$E$GT$6expect17hd6c0bd1c70af5673E+0x38>
/rustc/412f43ac5b4ae8c3599e71c6972112e9be4758fa/src/libcore/result.rs:982
  24:	defe      	udf	#254	; 0xfe
/rustc/412f43ac5b4ae8c3599e71c6972112e9be4758fa/src/libcore/result.rs:986
  26:	9802      	ldr	r0, [sp, #8]
  28:	6801      	ldr	r1, [r0, #0]
  2a:	6842      	ldr	r2, [r0, #4]
  2c:	f081 0102 	eor.w	r1, r1, #2
  30:	4311      	orrs	r1, r2
  32:	2900      	cmp	r1, #0
  34:	d018      	beq.n	68 <_ZN4core6result19Result$LT$T$C$E$GT$6expect17hd6c0bd1c70af5673E+0x68>
  36:	e019      	b.n	6c <_ZN4core6result19Result$LT$T$C$E$GT$6expect17hd6c0bd1c70af5673E+0x6c>
  38:	a806      	add	r0, sp, #24
/rustc/412f43ac5b4ae8c3599e71c6972112e9be4758fa/src/libcore/result.rs:984
  3a:	9902      	ldr	r1, [sp, #8]
  3c:	4602      	mov	r2, r0
  3e:	e8b1 5018 	ldmia.w	r1!, {r3, r4, ip, lr}
  42:	e8a2 5018 	stmia.w	r2!, {r3, r4, ip, lr}
  46:	e891 5018 	ldmia.w	r1, {r3, r4, ip, lr}
  4a:	e882 5018 	stmia.w	r2, {r3, r4, ip, lr}
  4e:	9903      	ldr	r1, [sp, #12]
  50:	9a04      	ldr	r2, [sp, #16]
  52:	f240 0300 	movw	r3, #0
  56:	f2c0 0300 	movt	r3, #0
  5a:	9001      	str	r0, [sp, #4]
  5c:	4608      	mov	r0, r1
  5e:	4611      	mov	r1, r2
  60:	9a01      	ldr	r2, [sp, #4]
  62:	f7ff fffe 	bl	0 <_ZN4core6result13unwrap_failed17h7251308ec569cdc6E>
  66:	defe      	udf	#254	; 0xfe
/rustc/412f43ac5b4ae8c3599e71c6972112e9be4758fa/src/libcore/result.rs:986
  68:	b00e      	add	sp, #56	; 0x38
  6a:	bd10      	pop	{r4, pc}
  6c:	e7fc      	b.n	68 <_ZN4core6result19Result$LT$T$C$E$GT$6expect17hd6c0bd1c70af5673E+0x68>

Disassembly of section .text._ZN4core6result19Result$LT$T$C$E$GT$6expect17he4559283b3def769E:

00000000 <_ZN4core6result19Result$LT$T$C$E$GT$6expect17he4559283b3def769E>:
_ZN4core6result19Result$LT$T$C$E$GT$6expect17he4559283b3def769E():
/rustc/412f43ac5b4ae8c3599e71c6972112e9be4758fa/src/libcore/result.rs:981
   0:	b086      	sub	sp, #24
   2:	9101      	str	r1, [sp, #4]
   4:	9202      	str	r2, [sp, #8]
/rustc/412f43ac5b4ae8c3599e71c6972112e9be4758fa/src/libcore/result.rs:983
   6:	6801      	ldr	r1, [r0, #0]
   8:	2900      	cmp	r1, #0
   a:	9000      	str	r0, [sp, #0]
   c:	d002      	beq.n	14 <_ZN4core6result19Result$LT$T$C$E$GT$6expect17he4559283b3def769E+0x14>
   e:	e7ff      	b.n	10 <_ZN4core6result19Result$LT$T$C$E$GT$6expect17he4559283b3def769E+0x10>
  10:	e005      	b.n	1e <_ZN4core6result19Result$LT$T$C$E$GT$6expect17he4559283b3def769E+0x1e>
/rustc/412f43ac5b4ae8c3599e71c6972112e9be4758fa/src/libcore/result.rs:982
  12:	defe      	udf	#254	; 0xfe
/rustc/412f43ac5b4ae8c3599e71c6972112e9be4758fa/src/libcore/result.rs:986
  14:	9800      	ldr	r0, [sp, #0]
  16:	6801      	ldr	r1, [r0, #0]
  18:	2900      	cmp	r1, #0
  1a:	d00f      	beq.n	3c <_ZN4core6result19Result$LT$T$C$E$GT$6expect17he4559283b3def769E+0x3c>
  1c:	e010      	b.n	40 <_ZN4core6result19Result$LT$T$C$E$GT$6expect17he4559283b3def769E+0x40>
/rustc/412f43ac5b4ae8c3599e71c6972112e9be4758fa/src/libcore/result.rs:984
  1e:	9800      	ldr	r0, [sp, #0]
  20:	6841      	ldr	r1, [r0, #4]
  22:	6882      	ldr	r2, [r0, #8]
  24:	9104      	str	r1, [sp, #16]
  26:	9205      	str	r2, [sp, #20]
  28:	9801      	ldr	r0, [sp, #4]
  2a:	9902      	ldr	r1, [sp, #8]
  2c:	f240 0300 	movw	r3, #0
  30:	f2c0 0300 	movt	r3, #0
  34:	aa04      	add	r2, sp, #16
  36:	f7ff fffe 	bl	0 <_ZN4core6result13unwrap_failed17h7251308ec569cdc6E>
  3a:	defe      	udf	#254	; 0xfe
/rustc/412f43ac5b4ae8c3599e71c6972112e9be4758fa/src/libcore/result.rs:986
  3c:	b006      	add	sp, #24
  3e:	4770      	bx	lr
  40:	e7fc      	b.n	3c <_ZN4core6result19Result$LT$T$C$E$GT$6expect17he4559283b3def769E+0x3c>

Disassembly of section .text._ZN4core6result19Result$LT$T$C$E$GT$6expect17hf56bd790b7bb02c4E:

00000000 <_ZN4core6result19Result$LT$T$C$E$GT$6expect17hf56bd790b7bb02c4E>:
_ZN4core6result19Result$LT$T$C$E$GT$6expect17hf56bd790b7bb02c4E():
/rustc/412f43ac5b4ae8c3599e71c6972112e9be4758fa/src/libcore/result.rs:981
   0:	b086      	sub	sp, #24
   2:	9001      	str	r0, [sp, #4]
   4:	9102      	str	r1, [sp, #8]
   6:	9203      	str	r2, [sp, #12]
/rustc/412f43ac5b4ae8c3599e71c6972112e9be4758fa/src/libcore/result.rs:983
   8:	9801      	ldr	r0, [sp, #4]
   a:	1e41      	subs	r1, r0, #1
   c:	bf18      	it	ne
   e:	2101      	movne	r1, #1
  10:	2801      	cmp	r0, #1
  12:	d002      	beq.n	1a <_ZN4core6result19Result$LT$T$C$E$GT$6expect17hf56bd790b7bb02c4E+0x1a>
  14:	e7ff      	b.n	16 <_ZN4core6result19Result$LT$T$C$E$GT$6expect17hf56bd790b7bb02c4E+0x16>
  16:	e004      	b.n	22 <_ZN4core6result19Result$LT$T$C$E$GT$6expect17hf56bd790b7bb02c4E+0x22>
/rustc/412f43ac5b4ae8c3599e71c6972112e9be4758fa/src/libcore/result.rs:982
  18:	defe      	udf	#254	; 0xfe
/rustc/412f43ac5b4ae8c3599e71c6972112e9be4758fa/src/libcore/result.rs:986
  1a:	9801      	ldr	r0, [sp, #4]
  1c:	2801      	cmp	r0, #1
  1e:	d00c      	beq.n	3a <_ZN4core6result19Result$LT$T$C$E$GT$6expect17hf56bd790b7bb02c4E+0x3a>
  20:	e00d      	b.n	3e <_ZN4core6result19Result$LT$T$C$E$GT$6expect17hf56bd790b7bb02c4E+0x3e>
/rustc/412f43ac5b4ae8c3599e71c6972112e9be4758fa/src/libcore/result.rs:984
  22:	9801      	ldr	r0, [sp, #4]
  24:	9005      	str	r0, [sp, #20]
  26:	9802      	ldr	r0, [sp, #8]
  28:	9903      	ldr	r1, [sp, #12]
  2a:	f240 0300 	movw	r3, #0
  2e:	f2c0 0300 	movt	r3, #0
  32:	aa05      	add	r2, sp, #20
  34:	f7ff fffe 	bl	0 <_ZN4core6result13unwrap_failed17h7251308ec569cdc6E>
  38:	defe      	udf	#254	; 0xfe
/rustc/412f43ac5b4ae8c3599e71c6972112e9be4758fa/src/libcore/result.rs:986
  3a:	b006      	add	sp, #24
  3c:	4770      	bx	lr
  3e:	e7fc      	b.n	3a <_ZN4core6result19Result$LT$T$C$E$GT$6expect17hf56bd790b7bb02c4E+0x3a>

Disassembly of section .text._ZN4core6result19Result$LT$T$C$E$GT$7map_err17haeeea911c5fb8ea0E:

00000000 <_ZN4core6result19Result$LT$T$C$E$GT$7map_err17haeeea911c5fb8ea0E>:
_ZN4core6result19Result$LT$T$C$E$GT$7map_err17haeeea911c5fb8ea0E():
/rustc/412f43ac5b4ae8c3599e71c6972112e9be4758fa/src/libcore/result.rs:595
   0:	b580      	push	{r7, lr}
   2:	b090      	sub	sp, #64	; 0x40
   4:	2200      	movs	r2, #0
/rustc/412f43ac5b4ae8c3599e71c6972112e9be4758fa/src/libcore/result.rs:597
   6:	f88d 203f 	strb.w	r2, [sp, #63]	; 0x3f
   a:	f88d 203d 	strb.w	r2, [sp, #61]	; 0x3d
   e:	f88d 203e 	strb.w	r2, [sp, #62]	; 0x3e
  12:	2201      	movs	r2, #1
  14:	f88d 203e 	strb.w	r2, [sp, #62]	; 0x3e
  18:	f88d 203f 	strb.w	r2, [sp, #63]	; 0x3f
  1c:	f88d 203d 	strb.w	r2, [sp, #61]	; 0x3d
  20:	680a      	ldr	r2, [r1, #0]
  22:	2a00      	cmp	r2, #0
  24:	9103      	str	r1, [sp, #12]
  26:	9002      	str	r0, [sp, #8]
  28:	d002      	beq.n	30 <_ZN4core6result19Result$LT$T$C$E$GT$7map_err17haeeea911c5fb8ea0E+0x30>
  2a:	e7ff      	b.n	2c <_ZN4core6result19Result$LT$T$C$E$GT$7map_err17haeeea911c5fb8ea0E+0x2c>
  2c:	e023      	b.n	76 <_ZN4core6result19Result$LT$T$C$E$GT$7map_err17haeeea911c5fb8ea0E+0x76>
/rustc/412f43ac5b4ae8c3599e71c6972112e9be4758fa/src/libcore/result.rs:596
  2e:	defe      	udf	#254	; 0xfe
  30:	2000      	movs	r0, #0
/rustc/412f43ac5b4ae8c3599e71c6972112e9be4758fa/src/libcore/result.rs:597
  32:	f88d 003f 	strb.w	r0, [sp, #63]	; 0x3f
  36:	9903      	ldr	r1, [sp, #12]
  38:	684a      	ldr	r2, [r1, #4]
  3a:	688b      	ldr	r3, [r1, #8]
  3c:	f8d1 c00c 	ldr.w	ip, [r1, #12]
  40:	f8cd c01c 	str.w	ip, [sp, #28]
  44:	9306      	str	r3, [sp, #24]
  46:	9205      	str	r2, [sp, #20]
  48:	9a05      	ldr	r2, [sp, #20]
  4a:	9b06      	ldr	r3, [sp, #24]
  4c:	f8dd c01c 	ldr.w	ip, [sp, #28]
  50:	f8cd c028 	str.w	ip, [sp, #40]	; 0x28
  54:	9309      	str	r3, [sp, #36]	; 0x24
  56:	9208      	str	r2, [sp, #32]
  58:	9a08      	ldr	r2, [sp, #32]
  5a:	9b09      	ldr	r3, [sp, #36]	; 0x24
  5c:	f8dd c028 	ldr.w	ip, [sp, #40]	; 0x28
  60:	f8dd e008 	ldr.w	lr, [sp, #8]
  64:	f8ce c00c 	str.w	ip, [lr, #12]
  68:	f8ce 3008 	str.w	r3, [lr, #8]
  6c:	f8ce 2004 	str.w	r2, [lr, #4]
  70:	f8ce 0000 	str.w	r0, [lr]
/rustc/412f43ac5b4ae8c3599e71c6972112e9be4758fa/src/libcore/result.rs:596
  74:	e01c      	b.n	b0 <_ZN4core6result19Result$LT$T$C$E$GT$7map_err17haeeea911c5fb8ea0E+0xb0>
  76:	2000      	movs	r0, #0
/rustc/412f43ac5b4ae8c3599e71c6972112e9be4758fa/src/libcore/result.rs:598
  78:	f88d 003e 	strb.w	r0, [sp, #62]	; 0x3e
  7c:	9903      	ldr	r1, [sp, #12]
  7e:	684a      	ldr	r2, [r1, #4]
  80:	688b      	ldr	r3, [r1, #8]
  82:	920b      	str	r2, [sp, #44]	; 0x2c
  84:	930c      	str	r3, [sp, #48]	; 0x30
  86:	f88d 003d 	strb.w	r0, [sp, #61]	; 0x3d
  8a:	980b      	ldr	r0, [sp, #44]	; 0x2c
  8c:	9a0c      	ldr	r2, [sp, #48]	; 0x30
  8e:	900d      	str	r0, [sp, #52]	; 0x34
  90:	920e      	str	r2, [sp, #56]	; 0x38
  92:	980d      	ldr	r0, [sp, #52]	; 0x34
  94:	990e      	ldr	r1, [sp, #56]	; 0x38
  96:	f7ff fffe 	bl	0 <_ZN4core3ops8function6FnOnce9call_once17he3238a55969275e0E>
  9a:	9001      	str	r0, [sp, #4]
  9c:	9100      	str	r1, [sp, #0]
  9e:	e7ff      	b.n	a0 <_ZN4core6result19Result$LT$T$C$E$GT$7map_err17haeeea911c5fb8ea0E+0xa0>
  a0:	9801      	ldr	r0, [sp, #4]
  a2:	9902      	ldr	r1, [sp, #8]
  a4:	6048      	str	r0, [r1, #4]
  a6:	9a00      	ldr	r2, [sp, #0]
  a8:	608a      	str	r2, [r1, #8]
  aa:	2301      	movs	r3, #1
  ac:	600b      	str	r3, [r1, #0]
/rustc/412f43ac5b4ae8c3599e71c6972112e9be4758fa/src/libcore/result.rs:596
  ae:	e7ff      	b.n	b0 <_ZN4core6result19Result$LT$T$C$E$GT$7map_err17haeeea911c5fb8ea0E+0xb0>
/rustc/412f43ac5b4ae8c3599e71c6972112e9be4758fa/src/libcore/result.rs:600
  b0:	f89d 003d 	ldrb.w	r0, [sp, #61]	; 0x3d
  b4:	07c0      	lsls	r0, r0, #31
  b6:	2800      	cmp	r0, #0
  b8:	d105      	bne.n	c6 <_ZN4core6result19Result$LT$T$C$E$GT$7map_err17haeeea911c5fb8ea0E+0xc6>
  ba:	e7ff      	b.n	bc <_ZN4core6result19Result$LT$T$C$E$GT$7map_err17haeeea911c5fb8ea0E+0xbc>
  bc:	9803      	ldr	r0, [sp, #12]
  be:	6801      	ldr	r1, [r0, #0]
  c0:	2900      	cmp	r1, #0
  c2:	d006      	beq.n	d2 <_ZN4core6result19Result$LT$T$C$E$GT$7map_err17haeeea911c5fb8ea0E+0xd2>
  c4:	e00f      	b.n	e6 <_ZN4core6result19Result$LT$T$C$E$GT$7map_err17haeeea911c5fb8ea0E+0xe6>
  c6:	2000      	movs	r0, #0
  c8:	f88d 003d 	strb.w	r0, [sp, #61]	; 0x3d
  cc:	e7f6      	b.n	bc <_ZN4core6result19Result$LT$T$C$E$GT$7map_err17haeeea911c5fb8ea0E+0xbc>
  ce:	b010      	add	sp, #64	; 0x40
  d0:	bd80      	pop	{r7, pc}
  d2:	f89d 003f 	ldrb.w	r0, [sp, #63]	; 0x3f
  d6:	07c0      	lsls	r0, r0, #31
  d8:	2800      	cmp	r0, #0
  da:	d0f8      	beq.n	ce <_ZN4core6result19Result$LT$T$C$E$GT$7map_err17haeeea911c5fb8ea0E+0xce>
  dc:	e7ff      	b.n	de <_ZN4core6result19Result$LT$T$C$E$GT$7map_err17haeeea911c5fb8ea0E+0xde>
  de:	2000      	movs	r0, #0
  e0:	f88d 003f 	strb.w	r0, [sp, #63]	; 0x3f
  e4:	e7f3      	b.n	ce <_ZN4core6result19Result$LT$T$C$E$GT$7map_err17haeeea911c5fb8ea0E+0xce>
  e6:	f89d 003e 	ldrb.w	r0, [sp, #62]	; 0x3e
  ea:	07c0      	lsls	r0, r0, #31
  ec:	2800      	cmp	r0, #0
  ee:	d0ee      	beq.n	ce <_ZN4core6result19Result$LT$T$C$E$GT$7map_err17haeeea911c5fb8ea0E+0xce>
  f0:	e7ff      	b.n	f2 <_ZN4core6result19Result$LT$T$C$E$GT$7map_err17haeeea911c5fb8ea0E+0xf2>
  f2:	2000      	movs	r0, #0
  f4:	f88d 003e 	strb.w	r0, [sp, #62]	; 0x3e
  f8:	e7e9      	b.n	ce <_ZN4core6result19Result$LT$T$C$E$GT$7map_err17haeeea911c5fb8ea0E+0xce>

Disassembly of section .text._ZN73_$LT$core..result..Result$LT$T$C$E$GT$$u20$as$u20$core..ops..try..Try$GT$10from_error17h5bc6406c6cace9efE:

00000000 <_ZN73_$LT$core..result..Result$LT$T$C$E$GT$$u20$as$u20$core..ops..try..Try$GT$10from_error17h5bc6406c6cace9efE>:
_ZN73_$LT$core..result..Result$LT$T$C$E$GT$$u20$as$u20$core..ops..try..Try$GT$10from_error17h5bc6406c6cace9efE():
/rustc/412f43ac5b4ae8c3599e71c6972112e9be4758fa/src/libcore/result.rs:1471
   0:	b082      	sub	sp, #8
   2:	9100      	str	r1, [sp, #0]
   4:	9201      	str	r2, [sp, #4]
/rustc/412f43ac5b4ae8c3599e71c6972112e9be4758fa/src/libcore/result.rs:1472
   6:	9900      	ldr	r1, [sp, #0]
   8:	9a01      	ldr	r2, [sp, #4]
   a:	6041      	str	r1, [r0, #4]
   c:	6082      	str	r2, [r0, #8]
   e:	2101      	movs	r1, #1
  10:	6001      	str	r1, [r0, #0]
/rustc/412f43ac5b4ae8c3599e71c6972112e9be4758fa/src/libcore/result.rs:1473
  12:	b002      	add	sp, #8
  14:	4770      	bx	lr

Disassembly of section .text._ZN73_$LT$core..result..Result$LT$T$C$E$GT$$u20$as$u20$core..ops..try..Try$GT$11into_result17h57571c46b08616a2E:

00000000 <_ZN73_$LT$core..result..Result$LT$T$C$E$GT$$u20$as$u20$core..ops..try..Try$GT$11into_result17h57571c46b08616a2E>:
_ZN73_$LT$core..result..Result$LT$T$C$E$GT$$u20$as$u20$core..ops..try..Try$GT$11into_result17h57571c46b08616a2E():
/rustc/412f43ac5b4ae8c3599e71c6972112e9be4758fa/src/libcore/result.rs:1462
   0:	680a      	ldr	r2, [r1, #0]
   2:	684b      	ldr	r3, [r1, #4]
   4:	f8d1 c008 	ldr.w	ip, [r1, #8]
   8:	68c9      	ldr	r1, [r1, #12]
   a:	60c1      	str	r1, [r0, #12]
   c:	f8c0 c008 	str.w	ip, [r0, #8]
  10:	6043      	str	r3, [r0, #4]
  12:	6002      	str	r2, [r0, #0]
/rustc/412f43ac5b4ae8c3599e71c6972112e9be4758fa/src/libcore/result.rs:1463
  14:	4770      	bx	lr

Disassembly of section .text._ZN73_$LT$core..result..Result$LT$T$C$E$GT$$u20$as$u20$core..ops..try..Try$GT$11into_result17h596a53411daa407fE:

00000000 <_ZN73_$LT$core..result..Result$LT$T$C$E$GT$$u20$as$u20$core..ops..try..Try$GT$11into_result17h596a53411daa407fE>:
_ZN73_$LT$core..result..Result$LT$T$C$E$GT$$u20$as$u20$core..ops..try..Try$GT$11into_result17h596a53411daa407fE():
/rustc/412f43ac5b4ae8c3599e71c6972112e9be4758fa/src/libcore/result.rs:1462
   0:	680a      	ldr	r2, [r1, #0]
   2:	684b      	ldr	r3, [r1, #4]
   4:	f8d1 c008 	ldr.w	ip, [r1, #8]
   8:	68c9      	ldr	r1, [r1, #12]
   a:	60c1      	str	r1, [r0, #12]
   c:	f8c0 c008 	str.w	ip, [r0, #8]
  10:	6043      	str	r3, [r0, #4]
  12:	6002      	str	r2, [r0, #0]
/rustc/412f43ac5b4ae8c3599e71c6972112e9be4758fa/src/libcore/result.rs:1463
  14:	4770      	bx	lr

Disassembly of section .text._ZN73_$LT$core..result..Result$LT$T$C$E$GT$$u20$as$u20$core..ops..try..Try$GT$11into_result17h722565ad5f964da6E:

00000000 <_ZN73_$LT$core..result..Result$LT$T$C$E$GT$$u20$as$u20$core..ops..try..Try$GT$11into_result17h722565ad5f964da6E>:
_ZN73_$LT$core..result..Result$LT$T$C$E$GT$$u20$as$u20$core..ops..try..Try$GT$11into_result17h722565ad5f964da6E():
/rustc/412f43ac5b4ae8c3599e71c6972112e9be4758fa/src/libcore/result.rs:1461
   0:	b580      	push	{r7, lr}
/rustc/412f43ac5b4ae8c3599e71c6972112e9be4758fa/src/libcore/result.rs:1462
   2:	e8b1 500c 	ldmia.w	r1!, {r2, r3, ip, lr}
   6:	e8a0 500c 	stmia.w	r0!, {r2, r3, ip, lr}
   a:	e891 500c 	ldmia.w	r1, {r2, r3, ip, lr}
   e:	e880 500c 	stmia.w	r0, {r2, r3, ip, lr}
/rustc/412f43ac5b4ae8c3599e71c6972112e9be4758fa/src/libcore/result.rs:1463
  12:	bd80      	pop	{r7, pc}

Disassembly of section .text._ZN73_$LT$core..result..Result$LT$T$C$E$GT$$u20$as$u20$core..ops..try..Try$GT$11into_result17h817c29b95c5b7ad6E:

00000000 <_ZN73_$LT$core..result..Result$LT$T$C$E$GT$$u20$as$u20$core..ops..try..Try$GT$11into_result17h817c29b95c5b7ad6E>:
_ZN73_$LT$core..result..Result$LT$T$C$E$GT$$u20$as$u20$core..ops..try..Try$GT$11into_result17h817c29b95c5b7ad6E():
/rustc/412f43ac5b4ae8c3599e71c6972112e9be4758fa/src/libcore/result.rs:1462
   0:	680a      	ldr	r2, [r1, #0]
   2:	6849      	ldr	r1, [r1, #4]
   4:	6041      	str	r1, [r0, #4]
   6:	6002      	str	r2, [r0, #0]
/rustc/412f43ac5b4ae8c3599e71c6972112e9be4758fa/src/libcore/result.rs:1463
   8:	4770      	bx	lr

app-20d859f505b9d0c6.2wbpmy5mrje627rx.rcgu.o:     file format elf32-littlearm

SYMBOL TABLE:
00000000 l    df *ABS*	00000000 2wbpmy5mrje627rx
00000e2e l       .debug_str	00000000 
0000141e l       .debug_str	00000000 
00001448 l       .debug_str	00000000 
00001416 l       .debug_str	00000000 
0000140b l       .debug_str	00000000 
00001400 l       .debug_str	00000000 
0000142e l       .debug_str	00000000 
00000000 l       .debug_str	00000000 
00000041 l       .debug_str	00000000 
00000055 l       .debug_str	00000000 
00000074 l       .debug_str	00000000 
00000078 l       .debug_str	00000000 
0000007e l       .debug_str	00000000 
00000089 l       .debug_str	00000000 
000000d5 l       .debug_str	00000000 
000000e1 l       .debug_str	00000000 
000000e7 l       .debug_str	00000000 
000000f0 l       .debug_str	00000000 
000000f4 l       .debug_str	00000000 
000000fb l       .debug_str	00000000 
000000ff l       .debug_str	00000000 
00000108 l       .debug_str	00000000 
0000010f l       .debug_str	00000000 
00000111 l       .debug_str	00000000 
00000115 l       .debug_str	00000000 
0000011c l       .debug_str	00000000 
00000121 l       .debug_str	00000000 
00000125 l       .debug_str	00000000 
00000132 l       .debug_str	00000000 
00000139 l       .debug_str	00000000 
0000013c l       .debug_str	00000000 
00000142 l       .debug_str	00000000 
00000150 l       .debug_str	00000000 
0000015e l       .debug_str	00000000 
00000163 l       .debug_str	00000000 
0000016b l       .debug_str	00000000 
00000173 l       .debug_str	00000000 
00000176 l       .debug_str	00000000 
00000178 l       .debug_str	00000000 
0000017a l       .debug_str	00000000 
00000196 l       .debug_str	00000000 
0000019e l       .debug_str	00000000 
000001a5 l       .debug_str	00000000 
000001b5 l       .debug_str	00000000 
000001fa l       .debug_str	00000000 
00000267 l       .debug_str	00000000 
000002fd l       .debug_str	00000000 
000003bc l       .debug_str	00000000 
000003c4 l       .debug_str	00000000 
000003c9 l       .debug_str	00000000 
000003cf l       .debug_str	00000000 
000003d3 l       .debug_str	00000000 
000003d7 l       .debug_str	00000000 
000003da l       .debug_str	00000000 
00000403 l       .debug_str	00000000 
00000439 l       .debug_str	00000000 
0000043b l       .debug_str	00000000 
00000468 l       .debug_str	00000000 
0000046b l       .debug_str	00000000 
000004bb l       .debug_str	00000000 
00000518 l       .debug_str	00000000 
0000056c l       .debug_str	00000000 
000005e3 l       .debug_str	00000000 
00000667 l       .debug_str	00000000 
000006e2 l       .debug_str	00000000 
00000780 l       .debug_str	00000000 
0000082b l       .debug_str	00000000 
000008cd l       .debug_str	00000000 
00000992 l       .debug_str	00000000 
00000a64 l       .debug_str	00000000 
00000b2d l       .debug_str	00000000 
00000c17 l       .debug_str	00000000 
00000d1e l       .debug_str	00000000 
00000e24 l       .debug_str	00000000 
00000e28 l       .debug_str	00000000 
000013ea l       .debug_str	00000000 
00000e30 l       .debug_str	00000000 
00000f2e l       .debug_str	00000000 
0000102f l       .debug_str	00000000 
00001031 l       .debug_str	00000000 
00001111 l       .debug_str	00000000 
00001115 l       .debug_str	00000000 
0000111b l       .debug_str	00000000 
00001120 l       .debug_str	00000000 
00001129 l       .debug_str	00000000 
00001175 l       .debug_str	00000000 
0000117f l       .debug_str	00000000 
0000118a l       .debug_str	00000000 
0000118f l       .debug_str	00000000 
00001194 l       .debug_str	00000000 
00001198 l       .debug_str	00000000 
0000119c l       .debug_str	00000000 
000011ad l       .debug_str	00000000 
000011b7 l       .debug_str	00000000 
000011c2 l       .debug_str	00000000 
000011c7 l       .debug_str	00000000 
000011cf l       .debug_str	00000000 
000011db l       .debug_str	00000000 
000011e2 l       .debug_str	00000000 
000011ea l       .debug_str	00000000 
000011f2 l       .debug_str	00000000 
000011f9 l       .debug_str	00000000 
0000120d l       .debug_str	00000000 
00001219 l       .debug_str	00000000 
00001225 l       .debug_str	00000000 
0000122f l       .debug_str	00000000 
00001238 l       .debug_str	00000000 
00001241 l       .debug_str	00000000 
0000124a l       .debug_str	00000000 
00001250 l       .debug_str	00000000 
00001258 l       .debug_str	00000000 
00001264 l       .debug_str	00000000 
0000126c l       .debug_str	00000000 
0000127d l       .debug_str	00000000 
0000128f l       .debug_str	00000000 
00001298 l       .debug_str	00000000 
000012cb l       .debug_str	00000000 
000012ff l       .debug_str	00000000 
00001349 l       .debug_str	00000000 
00001354 l       .debug_str	00000000 
00001360 l       .debug_str	00000000 
00001366 l       .debug_str	00000000 
0000136b l       .debug_str	00000000 
0000136e l       .debug_str	00000000 
00001372 l       .debug_str	00000000 
00001375 l       .debug_str	00000000 
00001378 l       .debug_str	00000000 
0000137b l       .debug_str	00000000 
00001380 l       .debug_str	00000000 
0000138c l       .debug_str	00000000 
00001391 l       .debug_str	00000000 
00001398 l       .debug_str	00000000 
000013a2 l       .debug_str	00000000 
000013ad l       .debug_str	00000000 
000013ba l       .debug_str	00000000 
000013c8 l       .debug_str	00000000 
000013d2 l       .debug_str	00000000 
000013e0 l       .debug_str	00000000 
00001420 l       .debug_str	00000000 
00000000 l     O .rodata..Lanon.bbf8e9c5bcdaf2b2d5f3a1536d9f0ae5.1	00000010 .Lanon.bbf8e9c5bcdaf2b2d5f3a1536d9f0ae5.1
00000000 l     O .rodata.str.0	0000001c str.0
00000000 l    d  .text._ZN3app5hello10ui_builder28_$u7b$$u7b$closure$u7d$$u7d$17hc068cc10622a5755E	00000000 .text._ZN3app5hello10ui_builder28_$u7b$$u7b$closure$u7d$$u7d$17hc068cc10622a5755E
00000000 l    d  .text._ZN3app5hello10ui_builder28_$u7b$$u7b$closure$u7d$$u7d$17h0edc9eaa13c84860E	00000000 .text._ZN3app5hello10ui_builder28_$u7b$$u7b$closure$u7d$$u7d$17h0edc9eaa13c84860E
00000000 l    d  .rodata..Lanon.bbf8e9c5bcdaf2b2d5f3a1536d9f0ae5.0	00000000 .rodata..Lanon.bbf8e9c5bcdaf2b2d5f3a1536d9f0ae5.0
00000000 l    d  .debug_abbrev	00000000 .debug_abbrev
00000000 l    d  .debug_info	00000000 .debug_info
00000000 l    d  .debug_ranges	00000000 .debug_ranges
00000000 l    d  .debug_frame	00000000 .debug_frame
00000000 l    d  .debug_line	00000000 .debug_line
00000000 g     F .text._ZN3app5hello10ui_builder28_$u7b$$u7b$closure$u7d$$u7d$17h0edc9eaa13c84860E	0000003c .hidden _ZN3app5hello10ui_builder28_$u7b$$u7b$closure$u7d$$u7d$17h0edc9eaa13c84860E
00000000 g     F .text._ZN3app5hello10ui_builder28_$u7b$$u7b$closure$u7d$$u7d$17hc068cc10622a5755E	00000018 .hidden _ZN3app5hello10ui_builder28_$u7b$$u7b$closure$u7d$$u7d$17hc068cc10622a5755E
00000000         *UND*	00000000 _ZN4core9panicking5panic17hfdd0eecc44a682f8E
00000000         *UND*	00000000 _ZN50_$LT$T$u20$as$u20$core..convert..Into$LT$U$GT$$GT$4into17h8d2caa14206491a0E



Disassembly of section .text._ZN3app5hello10ui_builder28_$u7b$$u7b$closure$u7d$$u7d$17hc068cc10622a5755E:

00000000 <_ZN3app5hello10ui_builder28_$u7b$$u7b$closure$u7d$$u7d$17hc068cc10622a5755E>:
_ZN3app5hello10ui_builder28_$u7b$$u7b$closure$u7d$$u7d$17hc068cc10622a5755E():
c:\stm32bluepill-mynewt-sensor/rust\app\src/hello.rs:39
    let text =
        LocalizedString::new("hello-counter")
        .with_arg(
            "count", 
            //  Closure that will fetch the counter value...
            | data: &u32, _env |  //  Closure will receive the application state and environment
   0:	b580      	push	{r7, lr}
   2:	b084      	sub	sp, #16
   4:	9101      	str	r1, [sp, #4]
   6:	9202      	str	r2, [sp, #8]
   8:	9303      	str	r3, [sp, #12]
c:\stm32bluepill-mynewt-sensor/rust\app\src/hello.rs:40
                (*data).into()    //  We return the counter value in the application state
   a:	9902      	ldr	r1, [sp, #8]
   c:	6809      	ldr	r1, [r1, #0]
   e:	f7ff fffe 	bl	0 <_ZN50_$LT$T$u20$as$u20$core..convert..Into$LT$U$GT$$GT$4into17h8d2caa14206491a0E>
  12:	e7ff      	b.n	14 <_ZN3app5hello10ui_builder28_$u7b$$u7b$closure$u7d$$u7d$17hc068cc10622a5755E+0x14>
  14:	b004      	add	sp, #16
  16:	bd80      	pop	{r7, pc}

Disassembly of section .text._ZN3app5hello10ui_builder28_$u7b$$u7b$closure$u7d$$u7d$17h0edc9eaa13c84860E:

00000000 <_ZN3app5hello10ui_builder28_$u7b$$u7b$closure$u7d$$u7d$17h0edc9eaa13c84860E>:
_ZN3app5hello10ui_builder28_$u7b$$u7b$closure$u7d$$u7d$17h0edc9eaa13c84860E():
c:\stm32bluepill-mynewt-sensor/rust\app\src/hello.rs:48
    let label = Label::new(text);
    //  Create a button widget to increment the counter
    let button = Button::new(
        "increment",  //  Text to be shown
        //  Closure that will be called when button is tapped...
        | _ctx, data, _env |  //  Closure will receive the context, application state and environment
   0:	b086      	sub	sp, #24
   2:	9002      	str	r0, [sp, #8]
   4:	9103      	str	r1, [sp, #12]
   6:	9204      	str	r2, [sp, #16]
   8:	9305      	str	r3, [sp, #20]
c:\stm32bluepill-mynewt-sensor/rust\app\src/hello.rs:49
            *data += 1        //  We increment the counter
   a:	9804      	ldr	r0, [sp, #16]
   c:	6800      	ldr	r0, [r0, #0]
   e:	1c41      	adds	r1, r0, #1
  10:	460a      	mov	r2, r1
  12:	4281      	cmp	r1, r0
  14:	9201      	str	r2, [sp, #4]
  16:	d305      	bcc.n	24 <_ZN3app5hello10ui_builder28_$u7b$$u7b$closure$u7d$$u7d$17h0edc9eaa13c84860E+0x24>
  18:	e7ff      	b.n	1a <_ZN3app5hello10ui_builder28_$u7b$$u7b$closure$u7d$$u7d$17h0edc9eaa13c84860E+0x1a>
  1a:	9804      	ldr	r0, [sp, #16]
  1c:	9901      	ldr	r1, [sp, #4]
  1e:	6001      	str	r1, [r0, #0]
  20:	b006      	add	sp, #24
  22:	4770      	bx	lr
  24:	f240 0000 	movw	r0, #0
  28:	f2c0 0000 	movt	r0, #0
  2c:	f240 0200 	movw	r2, #0
  30:	f2c0 0200 	movt	r2, #0
  34:	211c      	movs	r1, #28
  36:	f7ff fffe 	bl	0 <_ZN4core9panicking5panic17hfdd0eecc44a682f8E>
  3a:	defe      	udf	#254	; 0xfe

app-20d859f505b9d0c6.31u1tg8zos31rgt1.rcgu.o:     file format elf32-littlearm

SYMBOL TABLE:
00000000 l    df *ABS*	00000000 31u1tg8zos31rgt1
00000087 l       .debug_str	00000000 
000000e7 l       .debug_str	00000000 
00000000 l       .debug_str	00000000 
00000041 l       .debug_str	00000000 
00000055 l       .debug_str	00000000 
00000074 l       .debug_str	00000000 
0000007a l       .debug_str	00000000 
0000007e l       .debug_str	00000000 
000000e3 l       .debug_str	00000000 
000000dd l       .debug_str	00000000 
000000ec l       .debug_str	00000000 
00000000 l    d  .text._ZN54_$LT$druid..env..Env$u20$as$u20$core..clone..Clone$GT$5clone17h517d6633c620ef92E	00000000 .text._ZN54_$LT$druid..env..Env$u20$as$u20$core..clone..Clone$GT$5clone17h517d6633c620ef92E
00000000 l    d  .debug_abbrev	00000000 .debug_abbrev
00000000 l    d  .debug_info	00000000 .debug_info
00000000 l    d  .debug_frame	00000000 .debug_frame
00000000 l    d  .debug_line	00000000 .debug_line
00000000 g     F .text._ZN54_$LT$druid..env..Env$u20$as$u20$core..clone..Clone$GT$5clone17h517d6633c620ef92E	00000008 .hidden _ZN54_$LT$druid..env..Env$u20$as$u20$core..clone..Clone$GT$5clone17h517d6633c620ef92E



Disassembly of section .text._ZN54_$LT$druid..env..Env$u20$as$u20$core..clone..Clone$GT$5clone17h517d6633c620ef92E:

00000000 <_ZN54_$LT$druid..env..Env$u20$as$u20$core..clone..Clone$GT$5clone17h517d6633c620ef92E>:
_ZN54_$LT$druid..env..Env$u20$as$u20$core..clone..Clone$GT$5clone17h517d6633c620ef92E():
C:\druid-embedded\druid\src/env.rs:40
/// A widget can retrieve theme parameters (colors, dimensions, etc.). In
/// addition, it can pass custom data down to all descendants. An important
/// example of the latter is setting a value for enabled/disabled status
/// so that an entire subtree can be disabled ("grayed out") with one
/// setting.
#[derive(Clone, Copy)] ////
   0:	b081      	sub	sp, #4
   2:	9000      	str	r0, [sp, #0]
   4:	b001      	add	sp, #4
   6:	4770      	bx	lr

app-20d859f505b9d0c6.37bppyefbmrtw3yv.rcgu.o:     file format elf32-littlearm

SYMBOL TABLE:
00000000 l    df *ABS*	00000000 37bppyefbmrtw3yv
00000081 l       .debug_str	00000000 
000000de l       .debug_str	00000000 
000000da l       .debug_str	00000000 
00000183 l       .debug_str	00000000 
0000008a l       .debug_str	00000000 
00000132 l       .debug_str	00000000 
00000079 l       .debug_str	00000000 
00000000 l       .debug_str	00000000 
00000041 l       .debug_str	00000000 
00000055 l       .debug_str	00000000 
00000074 l       .debug_str	00000000 
0000012e l       .debug_str	00000000 
00000000 l    d  .text._ZN46_$LT$f64$u20$as$u20$core..default..Default$GT$7default17h302e2cdc47a4b058E	00000000 .text._ZN46_$LT$f64$u20$as$u20$core..default..Default$GT$7default17h302e2cdc47a4b058E
00000000 l    d  .text._ZN46_$LT$u32$u20$as$u20$core..default..Default$GT$7default17hbf28fcb27ef32f7cE	00000000 .text._ZN46_$LT$u32$u20$as$u20$core..default..Default$GT$7default17hbf28fcb27ef32f7cE
00000000 l    d  .text._ZN47_$LT$bool$u20$as$u20$core..default..Default$GT$7default17h0948b648d53cd1d8E	00000000 .text._ZN47_$LT$bool$u20$as$u20$core..default..Default$GT$7default17h0948b648d53cd1d8E
00000000 l    d  .debug_abbrev	00000000 .debug_abbrev
00000000 l    d  .debug_info	00000000 .debug_info
00000000 l    d  .debug_ranges	00000000 .debug_ranges
00000000 l    d  .debug_frame	00000000 .debug_frame
00000000 l    d  .debug_line	00000000 .debug_line
00000000 g     F .text._ZN46_$LT$f64$u20$as$u20$core..default..Default$GT$7default17h302e2cdc47a4b058E	00000010 .hidden _ZN46_$LT$f64$u20$as$u20$core..default..Default$GT$7default17h302e2cdc47a4b058E
00000000 g     F .text._ZN46_$LT$u32$u20$as$u20$core..default..Default$GT$7default17hbf28fcb27ef32f7cE	00000004 .hidden _ZN46_$LT$u32$u20$as$u20$core..default..Default$GT$7default17hbf28fcb27ef32f7cE
00000000 g     F .text._ZN47_$LT$bool$u20$as$u20$core..default..Default$GT$7default17h0948b648d53cd1d8E	00000004 .hidden _ZN47_$LT$bool$u20$as$u20$core..default..Default$GT$7default17h0948b648d53cd1d8E



Disassembly of section .text._ZN46_$LT$f64$u20$as$u20$core..default..Default$GT$7default17h302e2cdc47a4b058E:

00000000 <_ZN46_$LT$f64$u20$as$u20$core..default..Default$GT$7default17h302e2cdc47a4b058E>:
_ZN46_$LT$f64$u20$as$u20$core..default..Default$GT$7default17h302e2cdc47a4b058E():
/rustc/412f43ac5b4ae8c3599e71c6972112e9be4758fa/src/libcore/default.rs:130
   0:	ed9f 0b01 	vldr	d0, [pc, #4]	; 8 <_ZN46_$LT$f64$u20$as$u20$core..default..Default$GT$7default17h302e2cdc47a4b058E+0x8>
   4:	4770      	bx	lr
   6:	bf00      	nop
	...

Disassembly of section .text._ZN46_$LT$u32$u20$as$u20$core..default..Default$GT$7default17hbf28fcb27ef32f7cE:

00000000 <_ZN46_$LT$u32$u20$as$u20$core..default..Default$GT$7default17hbf28fcb27ef32f7cE>:
_ZN46_$LT$u32$u20$as$u20$core..default..Default$GT$7default17hbf28fcb27ef32f7cE():
/rustc/412f43ac5b4ae8c3599e71c6972112e9be4758fa/src/libcore/default.rs:130
   0:	2000      	movs	r0, #0
   2:	4770      	bx	lr

Disassembly of section .text._ZN47_$LT$bool$u20$as$u20$core..default..Default$GT$7default17h0948b648d53cd1d8E:

00000000 <_ZN47_$LT$bool$u20$as$u20$core..default..Default$GT$7default17h0948b648d53cd1d8E>:
_ZN47_$LT$bool$u20$as$u20$core..default..Default$GT$7default17h0948b648d53cd1d8E():
/rustc/412f43ac5b4ae8c3599e71c6972112e9be4758fa/src/libcore/default.rs:130
   0:	2000      	movs	r0, #0
   2:	4770      	bx	lr

app-20d859f505b9d0c6.3drzcqhmrdcch23u.rcgu.o:     file format elf32-littlearm

SYMBOL TABLE:
00000000 l    df *ABS*	00000000 3drzcqhmrdcch23u
00000243 l       .debug_str	00000000 
000011a2 l       .debug_str	00000000 
000011df l       .debug_str	00000000 
00001187 l       .debug_str	00000000 
000011d4 l       .debug_str	00000000 
0000117c l       .debug_str	00000000 
00000000 l       .debug_str	00000000 
00000041 l       .debug_str	00000000 
00000055 l       .debug_str	00000000 
00000074 l       .debug_str	00000000 
00000079 l       .debug_str	00000000 
00000080 l       .debug_str	00000000 
00000083 l       .debug_str	00000000 
00000088 l       .debug_str	00000000 
0000008d l       .debug_str	00000000 
00000094 l       .debug_str	00000000 
0000009a l       .debug_str	00000000 
000000a1 l       .debug_str	00000000 
000000a6 l       .debug_str	00000000 
000000b1 l       .debug_str	00000000 
000000ba l       .debug_str	00000000 
000000bf l       .debug_str	00000000 
000000c5 l       .debug_str	00000000 
000000d1 l       .debug_str	00000000 
000000d7 l       .debug_str	00000000 
000000dc l       .debug_str	00000000 
000000df l       .debug_str	00000000 
000000e3 l       .debug_str	00000000 
000000e6 l       .debug_str	00000000 
000000e9 l       .debug_str	00000000 
000000ec l       .debug_str	00000000 
000000f1 l       .debug_str	00000000 
000000fd l       .debug_str	00000000 
00000102 l       .debug_str	00000000 
00000109 l       .debug_str	00000000 
00000113 l       .debug_str	00000000 
0000011e l       .debug_str	00000000 
0000012b l       .debug_str	00000000 
00000139 l       .debug_str	00000000 
00000143 l       .debug_str	00000000 
00000151 l       .debug_str	00000000 
0000015b l       .debug_str	00000000 
00000164 l       .debug_str	00000000 
00000168 l       .debug_str	00000000 
0000016a l       .debug_str	00000000 
0000016e l       .debug_str	00000000 
0000017a l       .debug_str	00000000 
0000017e l       .debug_str	00000000 
00000184 l       .debug_str	00000000 
0000018e l       .debug_str	00000000 
00000192 l       .debug_str	00000000 
00000199 l       .debug_str	00000000 
000001aa l       .debug_str	00000000 
000001ac l       .debug_str	00000000 
000001bb l       .debug_str	00000000 
000001bd l       .debug_str	00000000 
000001f6 l       .debug_str	00000000 
000001f9 l       .debug_str	00000000 
00000203 l       .debug_str	00000000 
0000020c l       .debug_str	00000000 
00000215 l       .debug_str	00000000 
00000219 l       .debug_str	00000000 
0000021b l       .debug_str	00000000 
00000222 l       .debug_str	00000000 
00000226 l       .debug_str	00000000 
00000233 l       .debug_str	00000000 
0000023a l       .debug_str	00000000 
0000023d l       .debug_str	00000000 
0000116a l       .debug_str	00000000 
00000251 l       .debug_str	00000000 
0000025f l       .debug_str	00000000 
00000264 l       .debug_str	00000000 
0000026c l       .debug_str	00000000 
00000274 l       .debug_str	00000000 
0000027b l       .debug_str	00000000 
00000282 l       .debug_str	00000000 
00000293 l       .debug_str	00000000 
00000295 l       .debug_str	00000000 
000002d4 l       .debug_str	00000000 
000002dc l       .debug_str	00000000 
0000030f l       .debug_str	00000000 
0000039a l       .debug_str	00000000 
00000471 l       .debug_str	00000000 
00000594 l       .debug_str	00000000 
0000059c l       .debug_str	00000000 
000005a1 l       .debug_str	00000000 
000005a7 l       .debug_str	00000000 
000005ab l       .debug_str	00000000 
000005ae l       .debug_str	00000000 
000005d7 l       .debug_str	00000000 
0000060d l       .debug_str	00000000 
0000060f l       .debug_str	00000000 
0000063c l       .debug_str	00000000 
0000063f l       .debug_str	00000000 
0000068f l       .debug_str	00000000 
000006ec l       .debug_str	00000000 
00000740 l       .debug_str	00000000 
000007b7 l       .debug_str	00000000 
0000083b l       .debug_str	00000000 
000008b6 l       .debug_str	00000000 
00000954 l       .debug_str	00000000 
000009ff l       .debug_str	00000000 
00000aa1 l       .debug_str	00000000 
00000b87 l       .debug_str	00000000 
00000c8a l       .debug_str	00000000 
00000d8c l       .debug_str	00000000 
00000d90 l       .debug_str	00000000 
00000d96 l       .debug_str	00000000 
00000d98 l       .debug_str	00000000 
00000e92 l       .debug_str	00000000 
00000e94 l       .debug_str	00000000 
00000f71 l       .debug_str	00000000 
00000f7b l       .debug_str	00000000 
00000faa l       .debug_str	00000000 
00000fb3 l       .debug_str	00000000 
00000fed l       .debug_str	00000000 
0000101f l       .debug_str	00000000 
00001059 l       .debug_str	00000000 
00001081 l       .debug_str	00000000 
000010e5 l       .debug_str	00000000 
00001119 l       .debug_str	00000000 
0000111e l       .debug_str	00000000 
0000115f l       .debug_str	00000000 
000011ad l       .debug_str	00000000 
00000000 l    d  .text._ZN5druid22WidgetPod$LT$T$C$W$GT$3new17h2ac355bd34c07ccaE	00000000 .text._ZN5druid22WidgetPod$LT$T$C$W$GT$3new17h2ac355bd34c07ccaE
00000000 l    d  .text._ZN5druid22WidgetPod$LT$T$C$W$GT$3new17h96c3a4dda7d14c48E	00000000 .text._ZN5druid22WidgetPod$LT$T$C$W$GT$3new17h96c3a4dda7d14c48E
00000000 l    d  .text._ZN68_$LT$druid..WidgetPod$LT$T$C$W$GT$$u20$as$u20$core..clone..Clone$GT$5clone17hf0eedee77df69b8fE	00000000 .text._ZN68_$LT$druid..WidgetPod$LT$T$C$W$GT$$u20$as$u20$core..clone..Clone$GT$5clone17hf0eedee77df69b8fE
00000000 l    d  .debug_loc	00000000 .debug_loc
00000000 l    d  .debug_abbrev	00000000 .debug_abbrev
00000000 l    d  .debug_info	00000000 .debug_info
00000000 l    d  .debug_ranges	00000000 .debug_ranges
00000000 l    d  .debug_frame	00000000 .debug_frame
00000000 l    d  .debug_line	00000000 .debug_line
00000000         *UND*	00000000 .hidden _ZN55_$LT$druid..BaseState$u20$as$u20$core..clone..Clone$GT$5clone17h005ad23d36c035d1E
00000000         *UND*	00000000 .hidden _ZN59_$LT$druid..BaseState$u20$as$u20$core..default..Default$GT$7default17h1e58a11643cb952dE
00000000 g     F .text._ZN5druid22WidgetPod$LT$T$C$W$GT$3new17h2ac355bd34c07ccaE	00000048 _ZN5druid22WidgetPod$LT$T$C$W$GT$3new17h2ac355bd34c07ccaE
00000000 g     F .text._ZN5druid22WidgetPod$LT$T$C$W$GT$3new17h96c3a4dda7d14c48E	0000006c _ZN5druid22WidgetPod$LT$T$C$W$GT$3new17h96c3a4dda7d14c48E
00000000         *UND*	00000000 _ZN68_$LT$core..option..Option$LT$T$GT$$u20$as$u20$core..clone..Clone$GT$5clone17h8d881debde4691ceE
00000000         *UND*	00000000 _ZN68_$LT$core..option..Option$LT$T$GT$$u20$as$u20$core..clone..Clone$GT$5clone17ha683ed4b4b52525aE
00000000 g     F .text._ZN68_$LT$druid..WidgetPod$LT$T$C$W$GT$$u20$as$u20$core..clone..Clone$GT$5clone17hf0eedee77df69b8fE	0000007e _ZN68_$LT$druid..WidgetPod$LT$T$C$W$GT$$u20$as$u20$core..clone..Clone$GT$5clone17hf0eedee77df69b8fE
00000000         *UND*	00000000 _ZN83_$LT$druid..widget..widgetbox..WidgetBox$LT$D$GT$$u20$as$u20$core..clone..Clone$GT$5clone17h8e35b69503584243E
00000000         *UND*	00000000 __aeabi_memcpy8



Disassembly of section .text._ZN5druid22WidgetPod$LT$T$C$W$GT$3new17h2ac355bd34c07ccaE:

00000000 <_ZN5druid22WidgetPod$LT$T$C$W$GT$3new17h2ac355bd34c07ccaE>:
_ZN5druid22WidgetPod$LT$T$C$W$GT$3new17h2ac355bd34c07ccaE():
C:\druid-embedded\druid\src/lib.rs:455
    /// Create a new widget pod.
    ///
    /// In a widget hierarchy, each widget is wrapped in a `WidgetPod`
    /// so it can participate in layout and event flow. The process of
    /// adding a child widget to a container should call this method.
    pub fn new(inner: W) -> WidgetPod<T, W> {
   0:	b5b0      	push	{r4, r5, r7, lr}
   2:	b090      	sub	sp, #64	; 0x40
   4:	9101      	str	r1, [sp, #4]
   6:	a902      	add	r1, sp, #8
C:\druid-embedded\druid\src/lib.rs:457
        WidgetPod {
            state: Default::default(),
   8:	9000      	str	r0, [sp, #0]
   a:	4608      	mov	r0, r1
   c:	f7ff fffe 	bl	0 <_ZN59_$LT$druid..BaseState$u20$as$u20$core..default..Default$GT$7default17h1e58a11643cb952dE>
  10:	e7ff      	b.n	12 <_ZN5druid22WidgetPod$LT$T$C$W$GT$3new17h2ac355bd34c07ccaE+0x12>
  12:	2000      	movs	r0, #0
C:\druid-embedded\druid\src/lib.rs:458
            old_data: None,
  14:	900d      	str	r0, [sp, #52]	; 0x34
C:\druid-embedded\druid\src/lib.rs:459
            env: None,
  16:	f88d 003f 	strb.w	r0, [sp, #63]	; 0x3f
C:\druid-embedded\druid\src/lib.rs:460
            inner,
  1a:	9801      	ldr	r0, [sp, #4]
  1c:	a902      	add	r1, sp, #8
C:\druid-embedded\druid\src/lib.rs:456
        WidgetPod {
  1e:	9a00      	ldr	r2, [sp, #0]
  20:	e8b1 5038 	ldmia.w	r1!, {r3, r4, r5, ip, lr}
  24:	e8a2 5038 	stmia.w	r2!, {r3, r4, r5, ip, lr}
  28:	e891 5038 	ldmia.w	r1, {r3, r4, r5, ip, lr}
  2c:	e882 5038 	stmia.w	r2, {r3, r4, r5, ip, lr}
  30:	990d      	ldr	r1, [sp, #52]	; 0x34
  32:	9a0e      	ldr	r2, [sp, #56]	; 0x38
  34:	9b00      	ldr	r3, [sp, #0]
  36:	6299      	str	r1, [r3, #40]	; 0x28
  38:	62da      	str	r2, [r3, #44]	; 0x2c
  3a:	f89d 103f 	ldrb.w	r1, [sp, #63]	; 0x3f
  3e:	f883 1034 	strb.w	r1, [r3, #52]	; 0x34
  42:	6318      	str	r0, [r3, #48]	; 0x30
C:\druid-embedded\druid\src/lib.rs:462
        }
    }
  44:	b010      	add	sp, #64	; 0x40
  46:	bdb0      	pop	{r4, r5, r7, pc}

Disassembly of section .text._ZN5druid22WidgetPod$LT$T$C$W$GT$3new17h96c3a4dda7d14c48E:

00000000 <_ZN5druid22WidgetPod$LT$T$C$W$GT$3new17h96c3a4dda7d14c48E>:
_ZN5druid22WidgetPod$LT$T$C$W$GT$3new17h96c3a4dda7d14c48E():
C:\druid-embedded\druid\src/lib.rs:455
    pub fn new(inner: W) -> WidgetPod<T, W> {
   0:	b510      	push	{r4, lr}
   2:	f5ad 7d16 	sub.w	sp, sp, #600	; 0x258
   6:	aa04      	add	r2, sp, #16
C:\druid-embedded\druid\src/lib.rs:457
            state: Default::default(),
   8:	9003      	str	r0, [sp, #12]
   a:	4610      	mov	r0, r2
   c:	9102      	str	r1, [sp, #8]
   e:	f7ff fffe 	bl	0 <_ZN59_$LT$druid..BaseState$u20$as$u20$core..default..Default$GT$7default17h1e58a11643cb952dE>
  12:	e7ff      	b.n	14 <_ZN5druid22WidgetPod$LT$T$C$W$GT$3new17h96c3a4dda7d14c48E+0x14>
  14:	2000      	movs	r0, #0
C:\druid-embedded\druid\src/lib.rs:458
            old_data: None,
  16:	900f      	str	r0, [sp, #60]	; 0x3c
C:\druid-embedded\druid\src/lib.rs:459
            env: None,
  18:	f88d 0047 	strb.w	r0, [sp, #71]	; 0x47
  1c:	a812      	add	r0, sp, #72	; 0x48
  1e:	f44f 7104 	mov.w	r1, #528	; 0x210
C:\druid-embedded\druid\src/lib.rs:460
            inner,
  22:	9001      	str	r0, [sp, #4]
  24:	9a02      	ldr	r2, [sp, #8]
  26:	9100      	str	r1, [sp, #0]
  28:	4611      	mov	r1, r2
  2a:	9a00      	ldr	r2, [sp, #0]
  2c:	f7ff fffe 	bl	0 <__aeabi_memcpy8>
  30:	a804      	add	r0, sp, #16
C:\druid-embedded\druid\src/lib.rs:456
        WidgetPod {
  32:	9903      	ldr	r1, [sp, #12]
  34:	e8b0 501c 	ldmia.w	r0!, {r2, r3, r4, ip, lr}
  38:	e8a1 501c 	stmia.w	r1!, {r2, r3, r4, ip, lr}
  3c:	e890 501c 	ldmia.w	r0, {r2, r3, r4, ip, lr}
  40:	e881 501c 	stmia.w	r1, {r2, r3, r4, ip, lr}
  44:	980f      	ldr	r0, [sp, #60]	; 0x3c
  46:	9910      	ldr	r1, [sp, #64]	; 0x40
  48:	9a03      	ldr	r2, [sp, #12]
  4a:	f8c2 0238 	str.w	r0, [r2, #568]	; 0x238
  4e:	f8c2 123c 	str.w	r1, [r2, #572]	; 0x23c
  52:	f89d 0047 	ldrb.w	r0, [sp, #71]	; 0x47
  56:	f882 0240 	strb.w	r0, [r2, #576]	; 0x240
  5a:	f102 0028 	add.w	r0, r2, #40	; 0x28
  5e:	9901      	ldr	r1, [sp, #4]
  60:	9a00      	ldr	r2, [sp, #0]
  62:	f7ff fffe 	bl	0 <__aeabi_memcpy8>
C:\druid-embedded\druid\src/lib.rs:462
    }
  66:	f50d 7d16 	add.w	sp, sp, #600	; 0x258
  6a:	bd10      	pop	{r4, pc}

Disassembly of section .text._ZN68_$LT$druid..WidgetPod$LT$T$C$W$GT$$u20$as$u20$core..clone..Clone$GT$5clone17hf0eedee77df69b8fE:

00000000 <_ZN68_$LT$druid..WidgetPod$LT$T$C$W$GT$$u20$as$u20$core..clone..Clone$GT$5clone17hf0eedee77df69b8fE>:
_ZN68_$LT$druid..WidgetPod$LT$T$C$W$GT$$u20$as$u20$core..clone..Clone$GT$5clone17hf0eedee77df69b8fE():
C:\druid-embedded\druid\src/lib.rs:93
#[derive(Clone, Copy, Default)] ////
   0:	b510      	push	{r4, lr}
   2:	b094      	sub	sp, #80	; 0x50
   4:	9105      	str	r1, [sp, #20]
C:\druid-embedded\druid\src/lib.rs:96
    state: BaseState,
   6:	9905      	ldr	r1, [sp, #20]
   8:	9106      	str	r1, [sp, #24]
C:\druid-embedded\druid\src/lib.rs:97
    old_data: Option<T>,
   a:	9905      	ldr	r1, [sp, #20]
   c:	3128      	adds	r1, #40	; 0x28
   e:	9107      	str	r1, [sp, #28]
C:\druid-embedded\druid\src/lib.rs:98
    env: Option<Env>,
  10:	9905      	ldr	r1, [sp, #20]
  12:	3134      	adds	r1, #52	; 0x34
  14:	9108      	str	r1, [sp, #32]
C:\druid-embedded\druid\src/lib.rs:99
    inner: W,
  16:	9905      	ldr	r1, [sp, #20]
  18:	3130      	adds	r1, #48	; 0x30
  1a:	9109      	str	r1, [sp, #36]	; 0x24
C:\druid-embedded\druid\src/lib.rs:96
    state: BaseState,
  1c:	9906      	ldr	r1, [sp, #24]
  1e:	aa0a      	add	r2, sp, #40	; 0x28
  20:	9004      	str	r0, [sp, #16]
  22:	4610      	mov	r0, r2
  24:	f7ff fffe 	bl	0 <_ZN55_$LT$druid..BaseState$u20$as$u20$core..clone..Clone$GT$5clone17h005ad23d36c035d1E>
  28:	e7ff      	b.n	2a <_ZN68_$LT$druid..WidgetPod$LT$T$C$W$GT$$u20$as$u20$core..clone..Clone$GT$5clone17hf0eedee77df69b8fE+0x2a>
C:\druid-embedded\druid\src/lib.rs:97
    old_data: Option<T>,
  2a:	9807      	ldr	r0, [sp, #28]
  2c:	f7ff fffe 	bl	0 <_ZN68_$LT$core..option..Option$LT$T$GT$$u20$as$u20$core..clone..Clone$GT$5clone17ha683ed4b4b52525aE>
  30:	9003      	str	r0, [sp, #12]
  32:	9102      	str	r1, [sp, #8]
  34:	e7ff      	b.n	36 <_ZN68_$LT$druid..WidgetPod$LT$T$C$W$GT$$u20$as$u20$core..clone..Clone$GT$5clone17hf0eedee77df69b8fE+0x36>
C:\druid-embedded\druid\src/lib.rs:98
    env: Option<Env>,
  36:	9808      	ldr	r0, [sp, #32]
  38:	f7ff fffe 	bl	0 <_ZN68_$LT$core..option..Option$LT$T$GT$$u20$as$u20$core..clone..Clone$GT$5clone17h8d881debde4691ceE>
  3c:	9001      	str	r0, [sp, #4]
  3e:	e7ff      	b.n	40 <_ZN68_$LT$druid..WidgetPod$LT$T$C$W$GT$$u20$as$u20$core..clone..Clone$GT$5clone17hf0eedee77df69b8fE+0x40>
C:\druid-embedded\druid\src/lib.rs:99
    inner: W,
  40:	9809      	ldr	r0, [sp, #36]	; 0x24
  42:	f7ff fffe 	bl	0 <_ZN83_$LT$druid..widget..widgetbox..WidgetBox$LT$D$GT$$u20$as$u20$core..clone..Clone$GT$5clone17h8e35b69503584243E>
  46:	9000      	str	r0, [sp, #0]
  48:	e7ff      	b.n	4a <_ZN68_$LT$druid..WidgetPod$LT$T$C$W$GT$$u20$as$u20$core..clone..Clone$GT$5clone17hf0eedee77df69b8fE+0x4a>
  4a:	a80a      	add	r0, sp, #40	; 0x28
C:\druid-embedded\druid\src/lib.rs:93
#[derive(Clone, Copy, Default)] ////
  4c:	9904      	ldr	r1, [sp, #16]
  4e:	e8b0 501c 	ldmia.w	r0!, {r2, r3, r4, ip, lr}
  52:	e8a1 501c 	stmia.w	r1!, {r2, r3, r4, ip, lr}
  56:	e890 501c 	ldmia.w	r0, {r2, r3, r4, ip, lr}
  5a:	e881 501c 	stmia.w	r1, {r2, r3, r4, ip, lr}
  5e:	9803      	ldr	r0, [sp, #12]
  60:	9904      	ldr	r1, [sp, #16]
  62:	6288      	str	r0, [r1, #40]	; 0x28
  64:	9a02      	ldr	r2, [sp, #8]
  66:	62ca      	str	r2, [r1, #44]	; 0x2c
  68:	9b01      	ldr	r3, [sp, #4]
  6a:	f003 0c01 	and.w	ip, r3, #1
  6e:	f881 c034 	strb.w	ip, [r1, #52]	; 0x34
  72:	f8dd c000 	ldr.w	ip, [sp]
  76:	f8c1 c030 	str.w	ip, [r1, #48]	; 0x30
  7a:	b014      	add	sp, #80	; 0x50
  7c:	bd10      	pop	{r4, pc}

app-20d859f505b9d0c6.3izqp046dmdire0c.rcgu.o:     file format elf32-littlearm

SYMBOL TABLE:
00000000 l    df *ABS*	00000000 3izqp046dmdire0c
00001848 l       .debug_str	00000000 
00002b8d l       .debug_str	00000000 
00002c45 l       .debug_str	00000000 
00002b88 l       .debug_str	00000000 
00002b84 l       .debug_str	00000000 
00002c1a l       .debug_str	00000000 
00002b06 l       .debug_str	00000000 
00002c11 l       .debug_str	00000000 
00002a97 l       .debug_str	00000000 
00002bf6 l       .debug_str	00000000 
00002a87 l       .debug_str	00000000 
00002beb l       .debug_str	00000000 
00002a7a l       .debug_str	00000000 
00002bc5 l       .debug_str	00000000 
00002a73 l       .debug_str	00000000 
00002bba l       .debug_str	00000000 
00002a6f l       .debug_str	00000000 
00002a69 l       .debug_str	00000000 
00000000 l       .debug_str	00000000 
00000041 l       .debug_str	00000000 
00000055 l       .debug_str	00000000 
00000074 l       .debug_str	00000000 
00000079 l       .debug_str	00000000 
00000080 l       .debug_str	00000000 
00000083 l       .debug_str	00000000 
00000088 l       .debug_str	00000000 
0000008d l       .debug_str	00000000 
00000094 l       .debug_str	00000000 
0000009a l       .debug_str	00000000 
000000a1 l       .debug_str	00000000 
000000a6 l       .debug_str	00000000 
000000b1 l       .debug_str	00000000 
000000ba l       .debug_str	00000000 
000000bf l       .debug_str	00000000 
000000c5 l       .debug_str	00000000 
000000ce l       .debug_str	00000000 
000000d1 l       .debug_str	00000000 
000000d5 l       .debug_str	00000000 
000000da l       .debug_str	00000000 
000000e4 l       .debug_str	00000000 
000000e8 l       .debug_str	00000000 
000000f5 l       .debug_str	00000000 
000000f9 l       .debug_str	00000000 
00000102 l       .debug_str	00000000 
0000010c l       .debug_str	00000000 
00000113 l       .debug_str	00000000 
00000119 l       .debug_str	00000000 
0000011e l       .debug_str	00000000 
0000012a l       .debug_str	00000000 
00000133 l       .debug_str	00000000 
0000013a l       .debug_str	00000000 
0000013c l       .debug_str	00000000 
00000140 l       .debug_str	00000000 
00000147 l       .debug_str	00000000 
0000014b l       .debug_str	00000000 
00000158 l       .debug_str	00000000 
0000015f l       .debug_str	00000000 
00000162 l       .debug_str	00000000 
00000168 l       .debug_str	00000000 
00000176 l       .debug_str	00000000 
00000184 l       .debug_str	00000000 
00000189 l       .debug_str	00000000 
00000191 l       .debug_str	00000000 
00000199 l       .debug_str	00000000 
0000019b l       .debug_str	00000000 
0000019d l       .debug_str	00000000 
000001b9 l       .debug_str	00000000 
000001c1 l       .debug_str	00000000 
000001c8 l       .debug_str	00000000 
000001d8 l       .debug_str	00000000 
0000021d l       .debug_str	00000000 
0000028a l       .debug_str	00000000 
00000320 l       .debug_str	00000000 
000003df l       .debug_str	00000000 
000003e7 l       .debug_str	00000000 
000003ec l       .debug_str	00000000 
000003f2 l       .debug_str	00000000 
000003f6 l       .debug_str	00000000 
000003fa l       .debug_str	00000000 
000003fd l       .debug_str	00000000 
00000426 l       .debug_str	00000000 
0000045c l       .debug_str	00000000 
0000045e l       .debug_str	00000000 
0000048b l       .debug_str	00000000 
0000048e l       .debug_str	00000000 
000004de l       .debug_str	00000000 
0000053b l       .debug_str	00000000 
0000058f l       .debug_str	00000000 
00000606 l       .debug_str	00000000 
0000068a l       .debug_str	00000000 
00000705 l       .debug_str	00000000 
000007a3 l       .debug_str	00000000 
0000084e l       .debug_str	00000000 
000008f0 l       .debug_str	00000000 
000009b5 l       .debug_str	00000000 
00000a87 l       .debug_str	00000000 
00000b50 l       .debug_str	00000000 
00000c3a l       .debug_str	00000000 
00000d41 l       .debug_str	00000000 
00000e47 l       .debug_str	00000000 
00000e4b l       .debug_str	00000000 
00000e4d l       .debug_str	00000000 
00000f4b l       .debug_str	00000000 
0000104c l       .debug_str	00000000 
0000104e l       .debug_str	00000000 
0000112e l       .debug_str	00000000 
00001228 l       .debug_str	00000000 
0000122d l       .debug_str	00000000 
00001236 l       .debug_str	00000000 
0000123d l       .debug_str	00000000 
00001241 l       .debug_str	00000000 
00001247 l       .debug_str	00000000 
00001250 l       .debug_str	00000000 
00001255 l       .debug_str	00000000 
00001259 l       .debug_str	00000000 
0000125d l       .debug_str	00000000 
0000126e l       .debug_str	00000000 
000012a6 l       .debug_str	00000000 
000012b5 l       .debug_str	00000000 
000012e1 l       .debug_str	00000000 
00001326 l       .debug_str	00000000 
0000135f l       .debug_str	00000000 
000013f6 l       .debug_str	00000000 
00001494 l       .debug_str	00000000 
0000154f l       .debug_str	00000000 
00001609 l       .debug_str	00000000 
000016bb l       .debug_str	00000000 
00001750 l       .debug_str	00000000 
000017fc l       .debug_str	00000000 
00001805 l       .debug_str	00000000 
0000181a l       .debug_str	00000000 
00001823 l       .debug_str	00000000 
00001832 l       .debug_str	00000000 
00001838 l       .debug_str	00000000 
0000183d l       .debug_str	00000000 
00001846 l       .debug_str	00000000 
00002a64 l       .debug_str	00000000 
0000184c l       .debug_str	00000000 
0000184e l       .debug_str	00000000 
00001858 l       .debug_str	00000000 
00001863 l       .debug_str	00000000 
00001908 l       .debug_str	00000000 
00001912 l       .debug_str	00000000 
0000192a l       .debug_str	00000000 
00001969 l       .debug_str	00000000 
0000199c l       .debug_str	00000000 
000019df l       .debug_str	00000000 
000019f1 l       .debug_str	00000000 
00001a5c l       .debug_str	00000000 
00001a67 l       .debug_str	00000000 
00001ad7 l       .debug_str	00000000 
00001ae3 l       .debug_str	00000000 
00001b54 l       .debug_str	00000000 
00001b61 l       .debug_str	00000000 
00001b6b l       .debug_str	00000000 
00001b6f l       .debug_str	00000000 
00001b71 l       .debug_str	00000000 
00001b77 l       .debug_str	00000000 
00001b7d l       .debug_str	00000000 
00001b83 l       .debug_str	00000000 
00001b8f l       .debug_str	00000000 
00001b95 l       .debug_str	00000000 
00001b9a l       .debug_str	00000000 
00001b9d l       .debug_str	00000000 
00001ba0 l       .debug_str	00000000 
00001ba3 l       .debug_str	00000000 
00001ba6 l       .debug_str	00000000 
00001bab l       .debug_str	00000000 
00001bb7 l       .debug_str	00000000 
00001bbc l       .debug_str	00000000 
00001bc3 l       .debug_str	00000000 
00001bcd l       .debug_str	00000000 
00001bd8 l       .debug_str	00000000 
00001be5 l       .debug_str	00000000 
00001bf3 l       .debug_str	00000000 
00001bfd l       .debug_str	00000000 
00001c0b l       .debug_str	00000000 
00001c15 l       .debug_str	00000000 
00001c1e l       .debug_str	00000000 
00001c2a l       .debug_str	00000000 
00001c30 l       .debug_str	00000000 
00001c41 l       .debug_str	00000000 
00001c50 l       .debug_str	00000000 
00001c52 l       .debug_str	00000000 
00001c8b l       .debug_str	00000000 
00001c98 l       .debug_str	00000000 
00001ca4 l       .debug_str	00000000 
00001cb2 l       .debug_str	00000000 
00001cbd l       .debug_str	00000000 
00001cc4 l       .debug_str	00000000 
00001ccb l       .debug_str	00000000 
00001cd2 l       .debug_str	00000000 
00001cda l       .debug_str	00000000 
00001ce6 l       .debug_str	00000000 
00001ced l       .debug_str	00000000 
00001cf5 l       .debug_str	00000000 
00001cfd l       .debug_str	00000000 
00001d04 l       .debug_str	00000000 
00001d18 l       .debug_str	00000000 
00001d24 l       .debug_str	00000000 
00001d30 l       .debug_str	00000000 
00001d3a l       .debug_str	00000000 
00001d43 l       .debug_str	00000000 
00001d4c l       .debug_str	00000000 
00001d55 l       .debug_str	00000000 
00001d5d l       .debug_str	00000000 
00001d69 l       .debug_str	00000000 
00001d71 l       .debug_str	00000000 
00001d83 l       .debug_str	00000000 
00001d8c l       .debug_str	00000000 
00001dbf l       .debug_str	00000000 
00001df3 l       .debug_str	00000000 
00001e3d l       .debug_str	00000000 
00001e48 l       .debug_str	00000000 
00001e5e l       .debug_str	00000000 
00001e69 l       .debug_str	00000000 
00001e74 l       .debug_str	00000000 
00001e7c l       .debug_str	00000000 
00001e8a l       .debug_str	00000000 
00001ea4 l       .debug_str	00000000 
00001ead l       .debug_str	00000000 
00001ee7 l       .debug_str	00000000 
00001ef3 l       .debug_str	00000000 
00001ef8 l       .debug_str	00000000 
00001f02 l       .debug_str	00000000 
00001f0b l       .debug_str	00000000 
00001f12 l       .debug_str	00000000 
00001f19 l       .debug_str	00000000 
00001f2a l       .debug_str	00000000 
00001f69 l       .debug_str	00000000 
00001f9c l       .debug_str	00000000 
00002027 l       .debug_str	00000000 
000020fe l       .debug_str	00000000 
00002221 l       .debug_str	00000000 
00002298 l       .debug_str	00000000 
0000231c l       .debug_str	00000000 
00002397 l       .debug_str	00000000 
00002435 l       .debug_str	00000000 
000024e0 l       .debug_str	00000000 
00002582 l       .debug_str	00000000 
00002668 l       .debug_str	00000000 
0000276b l       .debug_str	00000000 
0000286d l       .debug_str	00000000 
00002967 l       .debug_str	00000000 
00002a44 l       .debug_str	00000000 
00002a4e l       .debug_str	00000000 
00002a54 l       .debug_str	00000000 
00002a5c l       .debug_str	00000000 
00002baf l       .debug_str	00000000 
00000000 l     O .rodata.cst16	00000010 .Lanon.558c37a84ba59d5097a5860613c895b9.0
00000000 l     O .rodata..Lanon.558c37a84ba59d5097a5860613c895b9.1	0000000f .Lanon.558c37a84ba59d5097a5860613c895b9.1
00000000 l    d  .text._ZN133_$LT$druid..widget..label..LabelText$LT$T$GT$$u20$as$u20$core..convert..From$LT$druid..localization..LocalizedString$LT$T$GT$$GT$$GT$4from17hcc1073563aa0b486E	00000000 .text._ZN133_$LT$druid..widget..label..LabelText$LT$T$GT$$u20$as$u20$core..convert..From$LT$druid..localization..LocalizedString$LT$T$GT$$GT$$GT$4from17hcc1073563aa0b486E
00000000 l    d  .text._ZN5druid6widget5label14Label$LT$T$GT$3new17h051720152bc729aeE	00000000 .text._ZN5druid6widget5label14Label$LT$T$GT$3new17h051720152bc729aeE
00000000 l    d  .text._ZN5druid6widget5label14Label$LT$T$GT$7aligned17hd95ba9e9af78d151E	00000000 .text._ZN5druid6widget5label14Label$LT$T$GT$7aligned17hd95ba9e9af78d151E
00000000 l    d  .text._ZN75_$LT$druid..widget..label..Label$LT$T$GT$$u20$as$u20$core..clone..Clone$GT$5clone17hcf16d333f98f0c7bE	00000000 .text._ZN75_$LT$druid..widget..label..Label$LT$T$GT$$u20$as$u20$core..clone..Clone$GT$5clone17hcf16d333f98f0c7bE
00000000 l    d  .text._ZN79_$LT$druid..widget..label..Label$LT$T$GT$$u20$as$u20$druid..Widget$LT$T$GT$$GT$6get_id17h395f800cf4d9a120E	00000000 .text._ZN79_$LT$druid..widget..label..Label$LT$T$GT$$u20$as$u20$druid..Widget$LT$T$GT$$GT$6get_id17h395f800cf4d9a120E
00000000 l    d  .text._ZN79_$LT$druid..widget..label..Label$LT$T$GT$$u20$as$u20$druid..Widget$LT$T$GT$$GT$7to_type17h774283aaee5a5f8cE	00000000 .text._ZN79_$LT$druid..widget..label..Label$LT$T$GT$$u20$as$u20$druid..Widget$LT$T$GT$$GT$7to_type17h774283aaee5a5f8cE
00000000 l    d  .text._ZN79_$LT$druid..widget..label..LabelText$LT$T$GT$$u20$as$u20$core..clone..Clone$GT$5clone17h4d4906155a5dbe95E	00000000 .text._ZN79_$LT$druid..widget..label..LabelText$LT$T$GT$$u20$as$u20$core..clone..Clone$GT$5clone17h4d4906155a5dbe95E
00000000 l    d  .text._ZN95_$LT$druid..widget..label..LabelText$LT$T$GT$$u20$as$u20$core..convert..From$LT$$RF$str$GT$$GT$4from17hc4c01e3b31d2e34cE	00000000 .text._ZN95_$LT$druid..widget..label..LabelText$LT$T$GT$$u20$as$u20$core..convert..From$LT$$RF$str$GT$$GT$4from17hc4c01e3b31d2e34cE
00000000 l    d  .debug_loc	00000000 .debug_loc
00000000 l    d  .debug_abbrev	00000000 .debug_abbrev
00000000 l    d  .debug_info	00000000 .debug_info
00000000 l    d  .debug_ranges	00000000 .debug_ranges
00000000 l    d  .debug_frame	00000000 .debug_frame
00000000 l    d  .debug_line	00000000 .debug_line
00000000 g     F .text._ZN133_$LT$druid..widget..label..LabelText$LT$T$GT$$u20$as$u20$core..convert..From$LT$druid..localization..LocalizedString$LT$T$GT$$GT$$GT$4from17hcc1073563aa0b486E	0000002c _ZN133_$LT$druid..widget..label..LabelText$LT$T$GT$$u20$as$u20$core..convert..From$LT$druid..localization..LocalizedString$LT$T$GT$$GT$$GT$4from17hcc1073563aa0b486E
00000000         *UND*	00000000 _ZN4core3ptr18real_drop_in_place17hcf7d06efdf2906fcE
00000000         *UND*	00000000 .hidden _ZN4core5clone5impls52_$LT$impl$u20$core..clone..Clone$u20$for$u20$u32$GT$5clone17h4ab28dfacb141a1cE
00000000         *UND*	00000000 _ZN4core6result19Result$LT$T$C$E$GT$6expect17h62e09cc752cbd89dE
00000000         *UND*	00000000 _ZN50_$LT$T$u20$as$u20$core..convert..Into$LT$U$GT$$GT$4into17h11b2e1b68545cdc7E
00000000         *UND*	00000000 _ZN50_$LT$T$u20$as$u20$core..convert..Into$LT$U$GT$$GT$4into17h1860988384d57231E
00000000         *UND*	00000000 _ZN5druid6widget13get_widget_id17h9c14066043a9a7f2E
00000000 g     F .text._ZN5druid6widget5label14Label$LT$T$GT$3new17h051720152bc729aeE	00000056 _ZN5druid6widget5label14Label$LT$T$GT$3new17h051720152bc729aeE
00000000 g     F .text._ZN5druid6widget5label14Label$LT$T$GT$7aligned17hd95ba9e9af78d151E	0000005e _ZN5druid6widget5label14Label$LT$T$GT$7aligned17hd95ba9e9af78d151E
00000000         *UND*	00000000 .hidden _ZN64_$LT$piet..gradient..UnitPoint$u20$as$u20$core..clone..Clone$GT$5clone17h850cb2a7b0f5ab97E
00000000         *UND*	00000000 _ZN72_$LT$heapless..string..String$LT$N$GT$$u20$as$u20$core..clone..Clone$GT$5clone17hc124d0dca8e09f9aE
00000000         *UND*	00000000 _ZN72_$LT$heapless..string..String$LT$N$GT$$u20$as$u20$core..str..FromStr$GT$8from_str17h5605f043a6a612e7E
00000000 g     F .text._ZN75_$LT$druid..widget..label..Label$LT$T$GT$$u20$as$u20$core..clone..Clone$GT$5clone17hcf16d333f98f0c7bE	00000066 _ZN75_$LT$druid..widget..label..Label$LT$T$GT$$u20$as$u20$core..clone..Clone$GT$5clone17hcf16d333f98f0c7bE
00000000 g     F .text._ZN79_$LT$druid..widget..label..Label$LT$T$GT$$u20$as$u20$druid..Widget$LT$T$GT$$GT$6get_id17h395f800cf4d9a120E	00000014 _ZN79_$LT$druid..widget..label..Label$LT$T$GT$$u20$as$u20$druid..Widget$LT$T$GT$$GT$6get_id17h395f800cf4d9a120E
00000000 g     F .text._ZN79_$LT$druid..widget..label..Label$LT$T$GT$$u20$as$u20$druid..Widget$LT$T$GT$$GT$7to_type17h774283aaee5a5f8cE	00000030 _ZN79_$LT$druid..widget..label..Label$LT$T$GT$$u20$as$u20$druid..Widget$LT$T$GT$$GT$7to_type17h774283aaee5a5f8cE
00000000 g     F .text._ZN79_$LT$druid..widget..label..LabelText$LT$T$GT$$u20$as$u20$core..clone..Clone$GT$5clone17h4d4906155a5dbe95E	00000066 _ZN79_$LT$druid..widget..label..LabelText$LT$T$GT$$u20$as$u20$core..clone..Clone$GT$5clone17h4d4906155a5dbe95E
00000000         *UND*	00000000 _ZN84_$LT$druid..localization..LocalizedString$LT$T$GT$$u20$as$u20$core..clone..Clone$GT$5clone17h651d5c83fac4e301E
00000000 g     F .text._ZN95_$LT$druid..widget..label..LabelText$LT$T$GT$$u20$as$u20$core..convert..From$LT$$RF$str$GT$$GT$4from17hc4c01e3b31d2e34cE	00000042 _ZN95_$LT$druid..widget..label..LabelText$LT$T$GT$$u20$as$u20$core..convert..From$LT$$RF$str$GT$$GT$4from17hc4c01e3b31d2e34cE
00000000         *UND*	00000000 __aeabi_memcpy4
00000000         *UND*	00000000 __aeabi_memcpy8



Disassembly of section .text._ZN133_$LT$druid..widget..label..LabelText$LT$T$GT$$u20$as$u20$core..convert..From$LT$druid..localization..LocalizedString$LT$T$GT$$GT$$GT$4from17hcc1073563aa0b486E:

00000000 <_ZN133_$LT$druid..widget..label..LabelText$LT$T$GT$$u20$as$u20$core..convert..From$LT$druid..localization..LocalizedString$LT$T$GT$$GT$$GT$4from17hcc1073563aa0b486E>:
_ZN133_$LT$druid..widget..label..LabelText$LT$T$GT$$u20$as$u20$core..convert..From$LT$druid..localization..LocalizedString$LT$T$GT$$GT$$GT$4from17hcc1073563aa0b486E():
C:\druid-embedded\druid\src\widget/label.rs:256
        ////LabelText::Specific(src.to_string())
    }
}

impl<T> From<LocalizedString<T>> for LabelText<T> {
    fn from(src: LocalizedString<T>) -> LabelText<T> {
   0:	b580      	push	{r7, lr}
   2:	b09c      	sub	sp, #112	; 0x70
   4:	aa04      	add	r2, sp, #16
   6:	2360      	movs	r3, #96	; 0x60
C:\druid-embedded\druid\src\widget/label.rs:257
        LabelText::Localized(src)
   8:	9003      	str	r0, [sp, #12]
   a:	4610      	mov	r0, r2
   c:	9202      	str	r2, [sp, #8]
   e:	461a      	mov	r2, r3
  10:	9301      	str	r3, [sp, #4]
  12:	f7ff fffe 	bl	0 <__aeabi_memcpy4>
  16:	9803      	ldr	r0, [sp, #12]
  18:	3004      	adds	r0, #4
  1a:	9902      	ldr	r1, [sp, #8]
  1c:	9a01      	ldr	r2, [sp, #4]
  1e:	f7ff fffe 	bl	0 <__aeabi_memcpy4>
  22:	2000      	movs	r0, #0
  24:	9903      	ldr	r1, [sp, #12]
  26:	6008      	str	r0, [r1, #0]
C:\druid-embedded\druid\src\widget/label.rs:258
    }
  28:	b01c      	add	sp, #112	; 0x70
  2a:	bd80      	pop	{r7, pc}

Disassembly of section .text._ZN5druid6widget5label14Label$LT$T$GT$3new17h051720152bc729aeE:

00000000 <_ZN5druid6widget5label14Label$LT$T$GT$3new17h051720152bc729aeE>:
_ZN5druid6widget5label14Label$LT$T$GT$3new17h051720152bc729aeE():
C:\druid-embedded\druid\src\widget/label.rs:68
    pub fn new(text: impl Into<LabelText<T>>) -> Self {
   0:	b580      	push	{r7, lr}
   2:	b0b6      	sub	sp, #216	; 0xd8
C:\druid-embedded\druid\src\widget/label.rs:70
            id: super::get_widget_id(), ////
   4:	9104      	str	r1, [sp, #16]
   6:	9003      	str	r0, [sp, #12]
   8:	f7ff fffe 	bl	0 <_ZN5druid6widget13get_widget_id17h9c14066043a9a7f2E>
   c:	9002      	str	r0, [sp, #8]
   e:	e7ff      	b.n	10 <_ZN5druid6widget5label14Label$LT$T$GT$3new17h051720152bc729aeE+0x10>
  10:	a81e      	add	r0, sp, #120	; 0x78
  12:	2260      	movs	r2, #96	; 0x60
C:\druid-embedded\druid\src\widget/label.rs:71
            text: text.into(),
  14:	9001      	str	r0, [sp, #4]
  16:	9904      	ldr	r1, [sp, #16]
  18:	f7ff fffe 	bl	0 <__aeabi_memcpy4>
  1c:	a805      	add	r0, sp, #20
  1e:	9901      	ldr	r1, [sp, #4]
  20:	f7ff fffe 	bl	0 <_ZN50_$LT$T$u20$as$u20$core..convert..Into$LT$U$GT$$GT$4into17h1860988384d57231E>
  24:	e7ff      	b.n	26 <_ZN5druid6widget5label14Label$LT$T$GT$3new17h051720152bc729aeE+0x26>
C:\druid-embedded\druid\src\widget/label.rs:69
        Label {
  26:	9802      	ldr	r0, [sp, #8]
  28:	9903      	ldr	r1, [sp, #12]
  2a:	6108      	str	r0, [r1, #16]
  2c:	f101 0014 	add.w	r0, r1, #20
  30:	a905      	add	r1, sp, #20
  32:	2264      	movs	r2, #100	; 0x64
  34:	f7ff fffe 	bl	0 <__aeabi_memcpy4>
  38:	f240 0000 	movw	r0, #0
  3c:	f2c0 0000 	movt	r0, #0
  40:	ed90 0b00 	vldr	d0, [r0]
  44:	ed90 1b02 	vldr	d1, [r0, #8]
  48:	9803      	ldr	r0, [sp, #12]
  4a:	ed80 0b00 	vstr	d0, [r0]
  4e:	ed80 1b02 	vstr	d1, [r0, #8]
C:\druid-embedded\druid\src\widget/label.rs:74
    }
  52:	b036      	add	sp, #216	; 0xd8
  54:	bd80      	pop	{r7, pc}

Disassembly of section .text._ZN5druid6widget5label14Label$LT$T$GT$7aligned17hd95ba9e9af78d151E:

00000000 <_ZN5druid6widget5label14Label$LT$T$GT$7aligned17hd95ba9e9af78d151E>:
_ZN5druid6widget5label14Label$LT$T$GT$7aligned17hd95ba9e9af78d151E():
C:\druid-embedded\druid\src\widget/label.rs:76
    pub fn aligned(text: impl Into<LabelText<T>>, align: UnitPoint) -> Self {
   0:	b580      	push	{r7, lr}
   2:	b0a6      	sub	sp, #152	; 0x98
   4:	9106      	str	r1, [sp, #24]
   6:	9207      	str	r2, [sp, #28]
   8:	ed8d 0b08 	vstr	d0, [sp, #32]
   c:	ed8d 1b0a 	vstr	d1, [sp, #40]	; 0x28
C:\druid-embedded\druid\src\widget/label.rs:78
            id: super::get_widget_id(), ////
  10:	9005      	str	r0, [sp, #20]
  12:	f7ff fffe 	bl	0 <_ZN5druid6widget13get_widget_id17h9c14066043a9a7f2E>
  16:	9004      	str	r0, [sp, #16]
  18:	e7ff      	b.n	1a <_ZN5druid6widget5label14Label$LT$T$GT$7aligned17hd95ba9e9af78d151E+0x1a>
C:\druid-embedded\druid\src\widget/label.rs:79
            text: text.into(),
  1a:	9906      	ldr	r1, [sp, #24]
  1c:	9a07      	ldr	r2, [sp, #28]
  1e:	a80d      	add	r0, sp, #52	; 0x34
  20:	f7ff fffe 	bl	0 <_ZN50_$LT$T$u20$as$u20$core..convert..Into$LT$U$GT$$GT$4into17h11b2e1b68545cdc7E>
  24:	e7ff      	b.n	26 <_ZN5druid6widget5label14Label$LT$T$GT$7aligned17hd95ba9e9af78d151E+0x26>
C:\druid-embedded\druid\src\widget/label.rs:80
            align,
  26:	ed9d 0b08 	vldr	d0, [sp, #32]
  2a:	ed9d 1b0a 	vldr	d1, [sp, #40]	; 0x28
C:\druid-embedded\druid\src\widget/label.rs:77
        Label {
  2e:	9804      	ldr	r0, [sp, #16]
  30:	9905      	ldr	r1, [sp, #20]
  32:	6108      	str	r0, [r1, #16]
  34:	f101 0014 	add.w	r0, r1, #20
  38:	a90d      	add	r1, sp, #52	; 0x34
  3a:	2264      	movs	r2, #100	; 0x64
  3c:	ed8d 0b02 	vstr	d0, [sp, #8]
  40:	ed8d 1b00 	vstr	d1, [sp]
  44:	f7ff fffe 	bl	0 <__aeabi_memcpy4>
  48:	ed9d 0b02 	vldr	d0, [sp, #8]
  4c:	9805      	ldr	r0, [sp, #20]
  4e:	ed80 0b00 	vstr	d0, [r0]
  52:	ed9d 0b00 	vldr	d0, [sp]
  56:	ed80 0b02 	vstr	d0, [r0, #8]
C:\druid-embedded\druid\src\widget/label.rs:82
    }
  5a:	b026      	add	sp, #152	; 0x98
  5c:	bd80      	pop	{r7, pc}

Disassembly of section .text._ZN75_$LT$druid..widget..label..Label$LT$T$GT$$u20$as$u20$core..clone..Clone$GT$5clone17hcf16d333f98f0c7bE:

00000000 <_ZN75_$LT$druid..widget..label..Label$LT$T$GT$$u20$as$u20$core..clone..Clone$GT$5clone17hcf16d333f98f0c7bE>:
_ZN75_$LT$druid..widget..label..Label$LT$T$GT$$u20$as$u20$core..clone..Clone$GT$5clone17hcf16d333f98f0c7bE():
C:\druid-embedded\druid\src\widget/label.rs:46
#[derive(Clone)] ////
   0:	b580      	push	{r7, lr}
   2:	b0a4      	sub	sp, #144	; 0x90
   4:	9107      	str	r1, [sp, #28]
C:\druid-embedded\druid\src\widget/label.rs:48
    id: u32, //// Unique Widget ID
   6:	9907      	ldr	r1, [sp, #28]
   8:	3110      	adds	r1, #16
   a:	9108      	str	r1, [sp, #32]
C:\druid-embedded\druid\src\widget/label.rs:49
    text: LabelText<T>,
   c:	9907      	ldr	r1, [sp, #28]
   e:	3114      	adds	r1, #20
  10:	9109      	str	r1, [sp, #36]	; 0x24
C:\druid-embedded\druid\src\widget/label.rs:50
    align: UnitPoint,
  12:	9907      	ldr	r1, [sp, #28]
  14:	910a      	str	r1, [sp, #40]	; 0x28
C:\druid-embedded\druid\src\widget/label.rs:48
    id: u32, //// Unique Widget ID
  16:	9908      	ldr	r1, [sp, #32]
  18:	9006      	str	r0, [sp, #24]
  1a:	4608      	mov	r0, r1
  1c:	f7ff fffe 	bl	0 <_ZN4core5clone5impls52_$LT$impl$u20$core..clone..Clone$u20$for$u20$u32$GT$5clone17h4ab28dfacb141a1cE>
  20:	9005      	str	r0, [sp, #20]
  22:	e7ff      	b.n	24 <_ZN75_$LT$druid..widget..label..Label$LT$T$GT$$u20$as$u20$core..clone..Clone$GT$5clone17hcf16d333f98f0c7bE+0x24>
C:\druid-embedded\druid\src\widget/label.rs:49
    text: LabelText<T>,
  24:	9909      	ldr	r1, [sp, #36]	; 0x24
  26:	a80b      	add	r0, sp, #44	; 0x2c
  28:	f7ff fffe 	bl	0 <_ZN75_$LT$druid..widget..label..Label$LT$T$GT$$u20$as$u20$core..clone..Clone$GT$5clone17hcf16d333f98f0c7bE>
  2c:	e7ff      	b.n	2e <_ZN75_$LT$druid..widget..label..Label$LT$T$GT$$u20$as$u20$core..clone..Clone$GT$5clone17hcf16d333f98f0c7bE+0x2e>
C:\druid-embedded\druid\src\widget/label.rs:50
    align: UnitPoint,
  2e:	980a      	ldr	r0, [sp, #40]	; 0x28
  30:	f7ff fffe 	bl	0 <_ZN64_$LT$piet..gradient..UnitPoint$u20$as$u20$core..clone..Clone$GT$5clone17h850cb2a7b0f5ab97E>
  34:	ed8d 0b02 	vstr	d0, [sp, #8]
  38:	ed8d 1b00 	vstr	d1, [sp]
  3c:	e7ff      	b.n	3e <_ZN75_$LT$druid..widget..label..Label$LT$T$GT$$u20$as$u20$core..clone..Clone$GT$5clone17hcf16d333f98f0c7bE+0x3e>
C:\druid-embedded\druid\src\widget/label.rs:46
#[derive(Clone)] ////
  3e:	9805      	ldr	r0, [sp, #20]
  40:	9906      	ldr	r1, [sp, #24]
  42:	6108      	str	r0, [r1, #16]
  44:	f101 0014 	add.w	r0, r1, #20
  48:	a90b      	add	r1, sp, #44	; 0x2c
  4a:	2264      	movs	r2, #100	; 0x64
  4c:	f7ff fffe 	bl	0 <__aeabi_memcpy4>
  50:	ed9d 0b02 	vldr	d0, [sp, #8]
  54:	9806      	ldr	r0, [sp, #24]
  56:	ed80 0b00 	vstr	d0, [r0]
  5a:	ed9d 1b00 	vldr	d1, [sp]
  5e:	ed80 1b02 	vstr	d1, [r0, #8]
  62:	b024      	add	sp, #144	; 0x90
  64:	bd80      	pop	{r7, pc}

Disassembly of section .text._ZN79_$LT$druid..widget..label..Label$LT$T$GT$$u20$as$u20$druid..Widget$LT$T$GT$$GT$6get_id17h395f800cf4d9a120E:

00000000 <_ZN79_$LT$druid..widget..label..Label$LT$T$GT$$u20$as$u20$druid..Widget$LT$T$GT$$GT$6get_id17h395f800cf4d9a120E>:
_ZN79_$LT$druid..widget..label..Label$LT$T$GT$$u20$as$u20$druid..Widget$LT$T$GT$$GT$6get_id17h395f800cf4d9a120E():
C:\druid-embedded\druid\src\widget/label.rs:154
    fn get_id(self) -> u32 { ////
   0:	b580      	push	{r7, lr}
   2:	b082      	sub	sp, #8
C:\druid-embedded\druid\src\widget/label.rs:155
        self.id
   4:	6901      	ldr	r1, [r0, #16]
C:\druid-embedded\druid\src\widget/label.rs:156
    }
   6:	9101      	str	r1, [sp, #4]
   8:	f7ff fffe 	bl	0 <_ZN4core3ptr18real_drop_in_place17hcf7d06efdf2906fcE>
   c:	e7ff      	b.n	e <_ZN79_$LT$druid..widget..label..Label$LT$T$GT$$u20$as$u20$druid..Widget$LT$T$GT$$GT$6get_id17h395f800cf4d9a120E+0xe>
   e:	9801      	ldr	r0, [sp, #4]
  10:	b002      	add	sp, #8
  12:	bd80      	pop	{r7, pc}

Disassembly of section .text._ZN79_$LT$druid..widget..label..Label$LT$T$GT$$u20$as$u20$druid..Widget$LT$T$GT$$GT$7to_type17h774283aaee5a5f8cE:

00000000 <_ZN79_$LT$druid..widget..label..Label$LT$T$GT$$u20$as$u20$druid..Widget$LT$T$GT$$GT$7to_type17h774283aaee5a5f8cE>:
_ZN79_$LT$druid..widget..label..Label$LT$T$GT$$u20$as$u20$druid..Widget$LT$T$GT$$GT$7to_type17h774283aaee5a5f8cE():
C:\druid-embedded\druid\src\widget/label.rs:146
    fn to_type(self) -> WidgetType<T> { ////
   0:	b580      	push	{r7, lr}
   2:	b0a2      	sub	sp, #136	; 0x88
   4:	aa04      	add	r2, sp, #16
   6:	2378      	movs	r3, #120	; 0x78
C:\druid-embedded\druid\src\widget/label.rs:147
        WidgetType::Label(self)
   8:	9003      	str	r0, [sp, #12]
   a:	4610      	mov	r0, r2
   c:	9202      	str	r2, [sp, #8]
   e:	461a      	mov	r2, r3
  10:	9301      	str	r3, [sp, #4]
  12:	f7ff fffe 	bl	0 <__aeabi_memcpy8>
  16:	9803      	ldr	r0, [sp, #12]
  18:	3008      	adds	r0, #8
  1a:	9902      	ldr	r1, [sp, #8]
  1c:	9a01      	ldr	r2, [sp, #4]
  1e:	f7ff fffe 	bl	0 <__aeabi_memcpy8>
  22:	2000      	movs	r0, #0
  24:	9903      	ldr	r1, [sp, #12]
  26:	6048      	str	r0, [r1, #4]
  28:	2004      	movs	r0, #4
  2a:	6008      	str	r0, [r1, #0]
C:\druid-embedded\druid\src\widget/label.rs:148
    }
  2c:	b022      	add	sp, #136	; 0x88
  2e:	bd80      	pop	{r7, pc}

Disassembly of section .text._ZN79_$LT$druid..widget..label..LabelText$LT$T$GT$$u20$as$u20$core..clone..Clone$GT$5clone17h4d4906155a5dbe95E:

00000000 <_ZN79_$LT$druid..widget..label..LabelText$LT$T$GT$$u20$as$u20$core..clone..Clone$GT$5clone17h4d4906155a5dbe95E>:
_ZN79_$LT$druid..widget..label..LabelText$LT$T$GT$$u20$as$u20$core..clone..Clone$GT$5clone17h4d4906155a5dbe95E():
C:\druid-embedded\druid\src\widget/label.rs:39
#[derive(Clone)] ////
   0:	b570      	push	{r4, r5, r6, lr}
   2:	b0a4      	sub	sp, #144	; 0x90
   4:	9102      	str	r1, [sp, #8]
   6:	9902      	ldr	r1, [sp, #8]
   8:	9103      	str	r1, [sp, #12]
   a:	9903      	ldr	r1, [sp, #12]
   c:	6809      	ldr	r1, [r1, #0]
   e:	2900      	cmp	r1, #0
  10:	9001      	str	r0, [sp, #4]
  12:	d002      	beq.n	1a <_ZN79_$LT$druid..widget..label..LabelText$LT$T$GT$$u20$as$u20$core..clone..Clone$GT$5clone17h4d4906155a5dbe95E+0x1a>
  14:	e7ff      	b.n	16 <_ZN79_$LT$druid..widget..label..LabelText$LT$T$GT$$u20$as$u20$core..clone..Clone$GT$5clone17h4d4906155a5dbe95E+0x16>
  16:	e012      	b.n	3e <_ZN79_$LT$druid..widget..label..LabelText$LT$T$GT$$u20$as$u20$core..clone..Clone$GT$5clone17h4d4906155a5dbe95E+0x3e>
  18:	defe      	udf	#254	; 0xfe
C:\druid-embedded\druid\src\widget/label.rs:41
    Localized(LocalizedString<T>),
  1a:	9803      	ldr	r0, [sp, #12]
  1c:	3004      	adds	r0, #4
  1e:	9004      	str	r0, [sp, #16]
  20:	9904      	ldr	r1, [sp, #16]
  22:	a805      	add	r0, sp, #20
  24:	f7ff fffe 	bl	0 <_ZN84_$LT$druid..localization..LocalizedString$LT$T$GT$$u20$as$u20$core..clone..Clone$GT$5clone17h651d5c83fac4e301E>
  28:	e7ff      	b.n	2a <_ZN79_$LT$druid..widget..label..LabelText$LT$T$GT$$u20$as$u20$core..clone..Clone$GT$5clone17h4d4906155a5dbe95E+0x2a>
C:\druid-embedded\druid\src\widget/label.rs:39
#[derive(Clone)] ////
  2a:	9801      	ldr	r0, [sp, #4]
  2c:	3004      	adds	r0, #4
  2e:	a905      	add	r1, sp, #20
  30:	2260      	movs	r2, #96	; 0x60
  32:	f7ff fffe 	bl	0 <__aeabi_memcpy4>
  36:	2000      	movs	r0, #0
  38:	9901      	ldr	r1, [sp, #4]
  3a:	6008      	str	r0, [r1, #0]
  3c:	e011      	b.n	62 <_ZN79_$LT$druid..widget..label..LabelText$LT$T$GT$$u20$as$u20$core..clone..Clone$GT$5clone17h4d4906155a5dbe95E+0x62>
C:\druid-embedded\druid\src\widget/label.rs:42
    Specific(String),
  3e:	9803      	ldr	r0, [sp, #12]
  40:	3004      	adds	r0, #4
  42:	901d      	str	r0, [sp, #116]	; 0x74
  44:	991d      	ldr	r1, [sp, #116]	; 0x74
  46:	a81e      	add	r0, sp, #120	; 0x78
  48:	f7ff fffe 	bl	0 <_ZN72_$LT$heapless..string..String$LT$N$GT$$u20$as$u20$core..clone..Clone$GT$5clone17hc124d0dca8e09f9aE>
  4c:	e7ff      	b.n	4e <_ZN79_$LT$druid..widget..label..LabelText$LT$T$GT$$u20$as$u20$core..clone..Clone$GT$5clone17h4d4906155a5dbe95E+0x4e>
C:\druid-embedded\druid\src\widget/label.rs:39
#[derive(Clone)] ////
  4e:	9801      	ldr	r0, [sp, #4]
  50:	1d01      	adds	r1, r0, #4
  52:	aa1e      	add	r2, sp, #120	; 0x78
  54:	e892 5078 	ldmia.w	r2, {r3, r4, r5, r6, ip, lr}
  58:	e881 5078 	stmia.w	r1, {r3, r4, r5, r6, ip, lr}
  5c:	2101      	movs	r1, #1
  5e:	6001      	str	r1, [r0, #0]
  60:	e7ff      	b.n	62 <_ZN79_$LT$druid..widget..label..LabelText$LT$T$GT$$u20$as$u20$core..clone..Clone$GT$5clone17h4d4906155a5dbe95E+0x62>
  62:	b024      	add	sp, #144	; 0x90
  64:	bd70      	pop	{r4, r5, r6, pc}

Disassembly of section .text._ZN95_$LT$druid..widget..label..LabelText$LT$T$GT$$u20$as$u20$core..convert..From$LT$$RF$str$GT$$GT$4from17hc4c01e3b31d2e34cE:

00000000 <_ZN95_$LT$druid..widget..label..LabelText$LT$T$GT$$u20$as$u20$core..convert..From$LT$$RF$str$GT$$GT$4from17hc4c01e3b31d2e34cE>:
_ZN95_$LT$druid..widget..label..LabelText$LT$T$GT$$u20$as$u20$core..convert..From$LT$$RF$str$GT$$GT$4from17hc4c01e3b31d2e34cE():
C:\druid-embedded\druid\src\widget/label.rs:249
    fn from(src: &str) -> LabelText<T> {
   0:	b570      	push	{r4, r5, r6, lr}
   2:	b090      	sub	sp, #64	; 0x40
   4:	9101      	str	r1, [sp, #4]
   6:	9202      	str	r2, [sp, #8]
C:\druid-embedded\druid\src\widget/label.rs:250
        LabelText::Specific(String::from_str(src).expect("label text fail")) ////
   8:	9901      	ldr	r1, [sp, #4]
   a:	9a02      	ldr	r2, [sp, #8]
   c:	ab09      	add	r3, sp, #36	; 0x24
   e:	9000      	str	r0, [sp, #0]
  10:	4618      	mov	r0, r3
  12:	f7ff fffe 	bl	0 <_ZN72_$LT$heapless..string..String$LT$N$GT$$u20$as$u20$core..str..FromStr$GT$8from_str17h5605f043a6a612e7E>
  16:	e7ff      	b.n	2 <_ZN95_$LT$druid..widget..label..LabelText$LT$T$GT$$u20$as$u20$core..convert..From$LT$$RF$str$GT$$GT$4from17hc4c01e3b31d2e34cE+0x2>
  18:	f240 0200 	movw	r2, #0
  1c:	f2c0 0200 	movt	r2, #0
  20:	a803      	add	r0, sp, #12
  22:	a909      	add	r1, sp, #36	; 0x24
  24:	230f      	movs	r3, #15
  26:	f7ff fffe 	bl	0 <_ZN4core6result19Result$LT$T$C$E$GT$6expect17h62e09cc752cbd89dE>
  2a:	e7ff      	b.n	2c <_ZN95_$LT$druid..widget..label..LabelText$LT$T$GT$$u20$as$u20$core..convert..From$LT$$RF$str$GT$$GT$4from17hc4c01e3b31d2e34cE+0x2c>
  2c:	9800      	ldr	r0, [sp, #0]
  2e:	1d01      	adds	r1, r0, #4
  30:	aa03      	add	r2, sp, #12
  32:	e892 5078 	ldmia.w	r2, {r3, r4, r5, r6, ip, lr}
  36:	e881 5078 	stmia.w	r1, {r3, r4, r5, r6, ip, lr}
  3a:	2101      	movs	r1, #1
  3c:	6001      	str	r1, [r0, #0]
C:\druid-embedded\druid\src\widget/label.rs:252
    }
  3e:	b010      	add	sp, #64	; 0x40
  40:	bd70      	pop	{r4, r5, r6, pc}

app-20d859f505b9d0c6.3ks5fngbhepa7hh1.rcgu.o:     file format elf32-littlearm

SYMBOL TABLE:
00000000 l    df *ABS*	00000000 3ks5fngbhepa7hh1
0000119e l       .debug_str	00000000 
000021d6 l       .debug_str	00000000 
00002457 l       .debug_str	00000000 
000021a7 l       .debug_str	00000000 
0000239c l       .debug_str	00000000 
000021a1 l       .debug_str	00000000 
00002391 l       .debug_str	00000000 
0000219d l       .debug_str	00000000 
00002288 l       .debug_str	00000000 
00002197 l       .debug_str	00000000 
0000227d l       .debug_str	00000000 
0000217d l       .debug_str	00000000 
00002252 l       .debug_str	00000000 
00002173 l       .debug_str	00000000 
0000215a l       .debug_str	00000000 
0000213e l       .debug_str	00000000 
0000211a l       .debug_str	00000000 
00002219 l       .debug_str	00000000 
00002103 l       .debug_str	00000000 
0000220e l       .debug_str	00000000 
000020e6 l       .debug_str	00000000 
000020db l       .debug_str	00000000 
00002209 l       .debug_str	00000000 
0000207d l       .debug_str	00000000 
000021fe l       .debug_str	00000000 
00002073 l       .debug_str	00000000 
000021f9 l       .debug_str	00000000 
00002062 l       .debug_str	00000000 
000021ee l       .debug_str	00000000 
000021e7 l       .debug_str	00000000 
00000000 l       .debug_str	00000000 
00000041 l       .debug_str	00000000 
00000055 l       .debug_str	00000000 
00000074 l       .debug_str	00000000 
0000007b l       .debug_str	00000000 
00000084 l       .debug_str	00000000 
00000087 l       .debug_str	00000000 
00000091 l       .debug_str	00000000 
00000098 l       .debug_str	00000000 
0000009e l       .debug_str	00000000 
000000a3 l       .debug_str	00000000 
000000a9 l       .debug_str	00000000 
000000af l       .debug_str	00000000 
000000bc l       .debug_str	00000000 
000000c0 l       .debug_str	00000000 
000000c9 l       .debug_str	00000000 
000000cd l       .debug_str	00000000 
000000d4 l       .debug_str	00000000 
000000dd l       .debug_str	00000000 
000000e4 l       .debug_str	00000000 
000000e6 l       .debug_str	00000000 
000000ea l       .debug_str	00000000 
000000f1 l       .debug_str	00000000 
000000f6 l       .debug_str	00000000 
000000fa l       .debug_str	00000000 
00000107 l       .debug_str	00000000 
0000010e l       .debug_str	00000000 
00000111 l       .debug_str	00000000 
00000117 l       .debug_str	00000000 
00000125 l       .debug_str	00000000 
00000133 l       .debug_str	00000000 
00000138 l       .debug_str	00000000 
00000140 l       .debug_str	00000000 
00000148 l       .debug_str	00000000 
0000014a l       .debug_str	00000000 
0000014c l       .debug_str	00000000 
00000168 l       .debug_str	00000000 
00000170 l       .debug_str	00000000 
00000177 l       .debug_str	00000000 
00000187 l       .debug_str	00000000 
000001cc l       .debug_str	00000000 
00000239 l       .debug_str	00000000 
000002cf l       .debug_str	00000000 
0000038e l       .debug_str	00000000 
00000396 l       .debug_str	00000000 
0000039b l       .debug_str	00000000 
000003a1 l       .debug_str	00000000 
000003a5 l       .debug_str	00000000 
000003a9 l       .debug_str	00000000 
000003ac l       .debug_str	00000000 
000003d5 l       .debug_str	00000000 
0000040b l       .debug_str	00000000 
0000040d l       .debug_str	00000000 
0000043a l       .debug_str	00000000 
0000043d l       .debug_str	00000000 
0000048d l       .debug_str	00000000 
000004ea l       .debug_str	00000000 
0000053e l       .debug_str	00000000 
000005b5 l       .debug_str	00000000 
00000639 l       .debug_str	00000000 
000006b4 l       .debug_str	00000000 
00000752 l       .debug_str	00000000 
000007fd l       .debug_str	00000000 
0000089f l       .debug_str	00000000 
00000964 l       .debug_str	00000000 
00000a36 l       .debug_str	00000000 
00000aff l       .debug_str	00000000 
00000be9 l       .debug_str	00000000 
00000cf0 l       .debug_str	00000000 
00000df6 l       .debug_str	00000000 
00000dfa l       .debug_str	00000000 
00000dfc l       .debug_str	00000000 
00000efa l       .debug_str	00000000 
00000ffb l       .debug_str	00000000 
00000ffd l       .debug_str	00000000 
000010dd l       .debug_str	00000000 
000010e1 l       .debug_str	00000000 
000010e7 l       .debug_str	00000000 
000010ec l       .debug_str	00000000 
000010f5 l       .debug_str	00000000 
000010fa l       .debug_str	00000000 
000010fe l       .debug_str	00000000 
00001102 l       .debug_str	00000000 
00001113 l       .debug_str	00000000 
0000114b l       .debug_str	00000000 
0000115a l       .debug_str	00000000 
0000117f l       .debug_str	00000000 
00001186 l       .debug_str	00000000 
00001189 l       .debug_str	00000000 
0000118d l       .debug_str	00000000 
00001194 l       .debug_str	00000000 
00001198 l       .debug_str	00000000 
0000119b l       .debug_str	00000000 
0000205d l       .debug_str	00000000 
000011a3 l       .debug_str	00000000 
000011a9 l       .debug_str	00000000 
000011b0 l       .debug_str	00000000 
000011b8 l       .debug_str	00000000 
000011c2 l       .debug_str	00000000 
000011cb l       .debug_str	00000000 
000011cf l       .debug_str	00000000 
000011d5 l       .debug_str	00000000 
000011dd l       .debug_str	00000000 
000011e1 l       .debug_str	00000000 
000011ed l       .debug_str	00000000 
000011f4 l       .debug_str	00000000 
000011f9 l       .debug_str	00000000 
000012f3 l       .debug_str	00000000 
000012f8 l       .debug_str	00000000 
00001324 l       .debug_str	00000000 
00001369 l       .debug_str	00000000 
000013a2 l       .debug_str	00000000 
00001439 l       .debug_str	00000000 
000014d7 l       .debug_str	00000000 
00001592 l       .debug_str	00000000 
0000164c l       .debug_str	00000000 
000016fe l       .debug_str	00000000 
00001793 l       .debug_str	00000000 
0000183f l       .debug_str	00000000 
00001848 l       .debug_str	00000000 
0000185d l       .debug_str	00000000 
000018a5 l       .debug_str	00000000 
000018ce l       .debug_str	00000000 
00001914 l       .debug_str	00000000 
00001945 l       .debug_str	00000000 
00001976 l       .debug_str	00000000 
000019be l       .debug_str	00000000 
000019f1 l       .debug_str	00000000 
00001a3a l       .debug_str	00000000 
00001a6e l       .debug_str	00000000 
00001af4 l       .debug_str	00000000 
00001b2b l       .debug_str	00000000 
00001b5e l       .debug_str	00000000 
00001b62 l       .debug_str	00000000 
00001b8f l       .debug_str	00000000 
00001bc9 l       .debug_str	00000000 
00001bfb l       .debug_str	00000000 
00001c02 l       .debug_str	00000000 
00001c08 l       .debug_str	00000000 
00001c12 l       .debug_str	00000000 
00001c1b l       .debug_str	00000000 
00001c2a l       .debug_str	00000000 
00001c7b l       .debug_str	00000000 
00001cd0 l       .debug_str	00000000 
00001cd4 l       .debug_str	00000000 
00001cd8 l       .debug_str	00000000 
00001d31 l       .debug_str	00000000 
00001d5f l       .debug_str	00000000 
00001da9 l       .debug_str	00000000 
00001db2 l       .debug_str	00000000 
00001e01 l       .debug_str	00000000 
00001e0f l       .debug_str	00000000 
00001e79 l       .debug_str	00000000 
00001e82 l       .debug_str	00000000 
00001ef0 l       .debug_str	00000000 
00001efb l       .debug_str	00000000 
00001f6f l       .debug_str	00000000 
00001f74 l       .debug_str	00000000 
00001f9a l       .debug_str	00000000 
00001f9c l       .debug_str	00000000 
00001fa2 l       .debug_str	00000000 
00001fa7 l       .debug_str	00000000 
00001fac l       .debug_str	00000000 
00001fb2 l       .debug_str	00000000 
00001fb8 l       .debug_str	00000000 
00001fc6 l       .debug_str	00000000 
00001fd0 l       .debug_str	00000000 
00001fd4 l       .debug_str	00000000 
00001fdc l       .debug_str	00000000 
00001fe4 l       .debug_str	00000000 
00001ff8 l       .debug_str	00000000 
00002004 l       .debug_str	00000000 
0000200f l       .debug_str	00000000 
00002016 l       .debug_str	00000000 
0000201c l       .debug_str	00000000 
0000202b l       .debug_str	00000000 
0000202f l       .debug_str	00000000 
00002038 l       .debug_str	00000000 
00002044 l       .debug_str	00000000 
000021de l       .debug_str	00000000 
00000000 l     O .rodata..Lanon.496647a28e3d803a512ab84c3f75fd99.0	00000000 .Lanon.496647a28e3d803a512ab84c3f75fd99.0
00000000 l     O .rodata..Lanon.496647a28e3d803a512ab84c3f75fd99.1	00000010 .Lanon.496647a28e3d803a512ab84c3f75fd99.1
00000000 l     O .rodata..Lanon.496647a28e3d803a512ab84c3f75fd99.2	00000010 .Lanon.496647a28e3d803a512ab84c3f75fd99.2
00000000 l     O .rodata..Lanon.496647a28e3d803a512ab84c3f75fd99.3	0000000f .Lanon.496647a28e3d803a512ab84c3f75fd99.3
00000000 l    d  .text._ZN42_$LT$$RF$T$u20$as$u20$core..fmt..Debug$GT$3fmt17h0401b352b26b4daeE	00000000 .text._ZN42_$LT$$RF$T$u20$as$u20$core..fmt..Debug$GT$3fmt17h0401b352b26b4daeE
00000000 l    d  .text._ZN4core3ptr31_$LT$impl$u20$$BP$mut$u20$T$GT$3add17h54d7a988c720ee7cE	00000000 .text._ZN4core3ptr31_$LT$impl$u20$$BP$mut$u20$T$GT$3add17h54d7a988c720ee7cE
00000000 l    d  .text._ZN4core3ptr31_$LT$impl$u20$$BP$mut$u20$T$GT$5write17h03b017d96e3ab5bfE	00000000 .text._ZN4core3ptr31_$LT$impl$u20$$BP$mut$u20$T$GT$5write17h03b017d96e3ab5bfE
00000000 l    d  .text._ZN4core3ptr31_$LT$impl$u20$$BP$mut$u20$T$GT$6offset17hd49acbc7147213b5E	00000000 .text._ZN4core3ptr31_$LT$impl$u20$$BP$mut$u20$T$GT$6offset17hd49acbc7147213b5E
00000000 l    d  .text._ZN4core5slice87_$LT$impl$u20$core..iter..traits..collect..IntoIterator$u20$for$u20$$RF$$u5b$T$u5d$$GT$9into_iter17he129093a62c90e54E	00000000 .text._ZN4core5slice87_$LT$impl$u20$core..iter..traits..collect..IntoIterator$u20$for$u20$$RF$$u5b$T$u5d$$GT$9into_iter17he129093a62c90e54E
00000000 l    d  .text._ZN50_$LT$T$u20$as$u20$core..convert..Into$LT$U$GT$$GT$4into17h1860988384d57231E	00000000 .text._ZN50_$LT$T$u20$as$u20$core..convert..Into$LT$U$GT$$GT$4into17h1860988384d57231E
00000000 l    d  .text._ZN59_$LT$$LP$T10$C$$u20$T11$RP$$u20$as$u20$core..fmt..Debug$GT$3fmt17h5487519a4e1c0582E	00000000 .text._ZN59_$LT$$LP$T10$C$$u20$T11$RP$$u20$as$u20$core..fmt..Debug$GT$3fmt17h5487519a4e1c0582E
00000000 l    d  .text._ZN5druid12localization24LocalizedString$LT$T$GT$3new17hd476398c63fdfa35E	00000000 .text._ZN5druid12localization24LocalizedString$LT$T$GT$3new17hd476398c63fdfa35E
00000000 l    d  .text._ZN5druid12localization24LocalizedString$LT$T$GT$8with_arg17h78f2b50bc74c391bE	00000000 .text._ZN5druid12localization24LocalizedString$LT$T$GT$8with_arg17h78f2b50bc74c391bE
00000000 l    d  .text._ZN76_$LT$druid..localization..ArgSource$LT$T$GT$$u20$as$u20$core..fmt..Debug$GT$3fmt17h325eb8b6196a6ff7E	00000000 .text._ZN76_$LT$druid..localization..ArgSource$LT$T$GT$$u20$as$u20$core..fmt..Debug$GT$3fmt17h325eb8b6196a6ff7E
00000000 l    d  .text._ZN78_$LT$druid..localization..ArgSource$LT$T$GT$$u20$as$u20$core..clone..Clone$GT$5clone17h00830903e890502fE	00000000 .text._ZN78_$LT$druid..localization..ArgSource$LT$T$GT$$u20$as$u20$core..clone..Clone$GT$5clone17h00830903e890502fE
00000000 l    d  .text._ZN84_$LT$druid..localization..LocalizedString$LT$T$GT$$u20$as$u20$core..clone..Clone$GT$5clone17h651d5c83fac4e301E	00000000 .text._ZN84_$LT$druid..localization..LocalizedString$LT$T$GT$$u20$as$u20$core..clone..Clone$GT$5clone17h651d5c83fac4e301E
00000000 l    d  .rodata..Lanon.496647a28e3d803a512ab84c3f75fd99.1	00000000 .rodata..Lanon.496647a28e3d803a512ab84c3f75fd99.1
00000000 l    d  .rodata..Lanon.496647a28e3d803a512ab84c3f75fd99.2	00000000 .rodata..Lanon.496647a28e3d803a512ab84c3f75fd99.2
00000000 l    d  .debug_loc	00000000 .debug_loc
00000000 l    d  .debug_abbrev	00000000 .debug_abbrev
00000000 l    d  .debug_info	00000000 .debug_info
00000000 l    d  .debug_ranges	00000000 .debug_ranges
00000000 l    d  .debug_frame	00000000 .debug_frame
00000000 l    d  .debug_line	00000000 .debug_line
00000000         *UND*	00000000 _ZN133_$LT$druid..widget..label..LabelText$LT$T$GT$$u20$as$u20$core..convert..From$LT$druid..localization..LocalizedString$LT$T$GT$$GT$$GT$4from17hcc1073563aa0b486E
00000000 g     F .text._ZN42_$LT$$RF$T$u20$as$u20$core..fmt..Debug$GT$3fmt17h0401b352b26b4daeE	00000020 _ZN42_$LT$$RF$T$u20$as$u20$core..fmt..Debug$GT$3fmt17h0401b352b26b4daeE
00000000         *UND*	00000000 _ZN42_$LT$$RF$T$u20$as$u20$core..fmt..Debug$GT$3fmt17hc729df6fb54f8c8cE
00000000         *UND*	00000000 _ZN4core3fmt8builders10DebugTuple5field17h9f7eec6202f4b739E
00000000         *UND*	00000000 _ZN4core3fmt8builders10DebugTuple6finish17h77cbaad5d6af8efeE
00000000         *UND*	00000000 _ZN4core3fmt9Formatter11debug_tuple17hdbbbcdc6421753adE
00000000         *UND*	00000000 _ZN4core3ptr18real_drop_in_place17h85d93fe77eef3dabE
00000000         *UND*	00000000 _ZN4core3ptr18real_drop_in_place17hcddb86ac259c4372E
00000000 g     F .text._ZN4core3ptr31_$LT$impl$u20$$BP$mut$u20$T$GT$3add17h54d7a988c720ee7cE	0000001a _ZN4core3ptr31_$LT$impl$u20$$BP$mut$u20$T$GT$3add17h54d7a988c720ee7cE
00000000 g     F .text._ZN4core3ptr31_$LT$impl$u20$$BP$mut$u20$T$GT$5write17h03b017d96e3ab5bfE	00000020 _ZN4core3ptr31_$LT$impl$u20$$BP$mut$u20$T$GT$5write17h03b017d96e3ab5bfE
00000000 g     F .text._ZN4core3ptr31_$LT$impl$u20$$BP$mut$u20$T$GT$6offset17hd49acbc7147213b5E	00000020 _ZN4core3ptr31_$LT$impl$u20$$BP$mut$u20$T$GT$6offset17hd49acbc7147213b5E
00000000         *UND*	00000000 _ZN4core3ptr5write17hc8f1006fd17213f0E
00000000         *UND*	00000000 _ZN4core5clone5Clone5clone17hd470976df669b1edE
00000000         *UND*	00000000 _ZN4core5clone5impls54_$LT$impl$u20$core..clone..Clone$u20$for$u20$$RF$T$GT$5clone17h1e37ad60f71bec3aE
00000000         *UND*	00000000 _ZN4core5slice29_$LT$impl$u20$$u5b$T$u5d$$GT$4iter17h1f49f188099bbda1E
00000000 g     F .text._ZN4core5slice87_$LT$impl$u20$core..iter..traits..collect..IntoIterator$u20$for$u20$$RF$$u5b$T$u5d$$GT$9into_iter17he129093a62c90e54E	0000001e _ZN4core5slice87_$LT$impl$u20$core..iter..traits..collect..IntoIterator$u20$for$u20$$RF$$u5b$T$u5d$$GT$9into_iter17he129093a62c90e54E
00000000         *UND*	00000000 _ZN4core6option15Option$LT$T$GT$13get_or_insert17h41cc8435958c5849E
00000000         *UND*	00000000 _ZN4core6result19Result$LT$T$C$E$GT$6expect17h108621878da58221E
00000000 g     F .text._ZN50_$LT$T$u20$as$u20$core..convert..Into$LT$U$GT$$GT$4into17h1860988384d57231E	00000022 _ZN50_$LT$T$u20$as$u20$core..convert..Into$LT$U$GT$$GT$4into17h1860988384d57231E
00000000 g     F .text._ZN59_$LT$$LP$T10$C$$u20$T11$RP$$u20$as$u20$core..fmt..Debug$GT$3fmt17h5487519a4e1c0582E	0000005e _ZN59_$LT$$LP$T10$C$$u20$T11$RP$$u20$as$u20$core..fmt..Debug$GT$3fmt17h5487519a4e1c0582E
00000000 g     F .text._ZN5druid12localization24LocalizedString$LT$T$GT$3new17hd476398c63fdfa35E	0000005c _ZN5druid12localization24LocalizedString$LT$T$GT$3new17hd476398c63fdfa35E
00000000 g     F .text._ZN5druid12localization24LocalizedString$LT$T$GT$8with_arg17h78f2b50bc74c391bE	0000006c _ZN5druid12localization24LocalizedString$LT$T$GT$8with_arg17h78f2b50bc74c391bE
00000000         *UND*	00000000 _ZN68_$LT$core..option..Option$LT$T$GT$$u20$as$u20$core..clone..Clone$GT$5clone17h461a9fbd0c934ef1E
00000000         *UND*	00000000 _ZN68_$LT$core..option..Option$LT$T$GT$$u20$as$u20$core..clone..Clone$GT$5clone17h942f762d66dee206E
00000000 g     F .text._ZN76_$LT$druid..localization..ArgSource$LT$T$GT$$u20$as$u20$core..fmt..Debug$GT$3fmt17h325eb8b6196a6ff7E	0000000c _ZN76_$LT$druid..localization..ArgSource$LT$T$GT$$u20$as$u20$core..fmt..Debug$GT$3fmt17h325eb8b6196a6ff7E
00000000 g     F .text._ZN78_$LT$druid..localization..ArgSource$LT$T$GT$$u20$as$u20$core..clone..Clone$GT$5clone17h00830903e890502fE	0000001e _ZN78_$LT$druid..localization..ArgSource$LT$T$GT$$u20$as$u20$core..clone..Clone$GT$5clone17h00830903e890502fE
00000000 g     F .text._ZN84_$LT$druid..localization..LocalizedString$LT$T$GT$$u20$as$u20$core..clone..Clone$GT$5clone17h651d5c83fac4e301E	000000a0 _ZN84_$LT$druid..localization..LocalizedString$LT$T$GT$$u20$as$u20$core..clone..Clone$GT$5clone17h651d5c83fac4e301E
00000000         *UND*	00000000 _ZN8heapless3vec16Vec$LT$T$C$N$GT$3new17hdbd398b25826ebf9E
00000000         *UND*	00000000 _ZN8heapless3vec16Vec$LT$T$C$N$GT$4push17h17702fe91ee2d920E
00000000         *UND*	00000000 __aeabi_memcpy4



Disassembly of section .text._ZN42_$LT$$RF$T$u20$as$u20$core..fmt..Debug$GT$3fmt17h0401b352b26b4daeE:

00000000 <_ZN42_$LT$$RF$T$u20$as$u20$core..fmt..Debug$GT$3fmt17h0401b352b26b4daeE>:
_ZN42_$LT$$RF$T$u20$as$u20$core..fmt..Debug$GT$3fmt17h0401b352b26b4daeE():
/rustc/412f43ac5b4ae8c3599e71c6972112e9be4758fa/src/libcore/fmt/mod.rs:1926
   0:	b580      	push	{r7, lr}
   2:	b084      	sub	sp, #16
   4:	9002      	str	r0, [sp, #8]
   6:	9103      	str	r1, [sp, #12]
   8:	9802      	ldr	r0, [sp, #8]
   a:	6800      	ldr	r0, [r0, #0]
   c:	9903      	ldr	r1, [sp, #12]
   e:	f7ff fffe 	bl	0 <_ZN42_$LT$$RF$T$u20$as$u20$core..fmt..Debug$GT$3fmt17h0401b352b26b4daeE>
  12:	9001      	str	r0, [sp, #4]
  14:	e7ff      	b.n	16 <_ZN42_$LT$$RF$T$u20$as$u20$core..fmt..Debug$GT$3fmt17h0401b352b26b4daeE+0x16>
  16:	9801      	ldr	r0, [sp, #4]
  18:	f000 0001 	and.w	r0, r0, #1
  1c:	b004      	add	sp, #16
  1e:	bd80      	pop	{r7, pc}

Disassembly of section .text._ZN4core3ptr31_$LT$impl$u20$$BP$mut$u20$T$GT$3add17h54d7a988c720ee7cE:

00000000 <_ZN4core3ptr31_$LT$impl$u20$$BP$mut$u20$T$GT$3add17h54d7a988c720ee7cE>:
_ZN4core3ptr31_$LT$impl$u20$$BP$mut$u20$T$GT$3add17h54d7a988c720ee7cE():
/rustc/412f43ac5b4ae8c3599e71c6972112e9be4758fa/src/libcore/ptr/mod.rs:2129
   0:	b580      	push	{r7, lr}
   2:	b084      	sub	sp, #16
   4:	9002      	str	r0, [sp, #8]
   6:	9103      	str	r1, [sp, #12]
/rustc/412f43ac5b4ae8c3599e71c6972112e9be4758fa/src/libcore/ptr/mod.rs:2132
   8:	9802      	ldr	r0, [sp, #8]
   a:	9903      	ldr	r1, [sp, #12]
   c:	f7ff fffe 	bl	0 <_ZN4core3ptr31_$LT$impl$u20$$BP$mut$u20$T$GT$3add17h54d7a988c720ee7cE>
  10:	9001      	str	r0, [sp, #4]
  12:	e7ff      	b.n	14 <_ZN4core3ptr31_$LT$impl$u20$$BP$mut$u20$T$GT$3add17h54d7a988c720ee7cE+0x14>
/rustc/412f43ac5b4ae8c3599e71c6972112e9be4758fa/src/libcore/ptr/mod.rs:2133
  14:	9801      	ldr	r0, [sp, #4]
  16:	b004      	add	sp, #16
  18:	bd80      	pop	{r7, pc}

Disassembly of section .text._ZN4core3ptr31_$LT$impl$u20$$BP$mut$u20$T$GT$5write17h03b017d96e3ab5bfE:

00000000 <_ZN4core3ptr31_$LT$impl$u20$$BP$mut$u20$T$GT$5write17h03b017d96e3ab5bfE>:
_ZN4core3ptr31_$LT$impl$u20$$BP$mut$u20$T$GT$5write17h03b017d96e3ab5bfE():
/rustc/412f43ac5b4ae8c3599e71c6972112e9be4758fa/src/libcore/ptr/mod.rs:2434
   0:	b580      	push	{r7, lr}
   2:	b084      	sub	sp, #16
   4:	9000      	str	r0, [sp, #0]
/rustc/412f43ac5b4ae8c3599e71c6972112e9be4758fa/src/libcore/ptr/mod.rs:2437
   6:	9800      	ldr	r0, [sp, #0]
   8:	680a      	ldr	r2, [r1, #0]
   a:	684b      	ldr	r3, [r1, #4]
   c:	6889      	ldr	r1, [r1, #8]
   e:	9103      	str	r1, [sp, #12]
  10:	9302      	str	r3, [sp, #8]
  12:	9201      	str	r2, [sp, #4]
  14:	a901      	add	r1, sp, #4
  16:	f7ff fffe 	bl	0 <_ZN4core3ptr5write17hc8f1006fd17213f0E>
  1a:	e7ff      	b.n	1c <_ZN4core3ptr31_$LT$impl$u20$$BP$mut$u20$T$GT$5write17h03b017d96e3ab5bfE+0x1c>
/rustc/412f43ac5b4ae8c3599e71c6972112e9be4758fa/src/libcore/ptr/mod.rs:2438
  1c:	b004      	add	sp, #16
  1e:	bd80      	pop	{r7, pc}

Disassembly of section .text._ZN4core3ptr31_$LT$impl$u20$$BP$mut$u20$T$GT$6offset17hd49acbc7147213b5E:

00000000 <_ZN4core3ptr31_$LT$impl$u20$$BP$mut$u20$T$GT$6offset17hd49acbc7147213b5E>:
_ZN4core3ptr31_$LT$impl$u20$$BP$mut$u20$T$GT$6offset17hd49acbc7147213b5E():
/rustc/412f43ac5b4ae8c3599e71c6972112e9be4758fa/src/libcore/ptr/mod.rs:1863
   0:	b084      	sub	sp, #16
   2:	9001      	str	r0, [sp, #4]
   4:	9102      	str	r1, [sp, #8]
/rustc/412f43ac5b4ae8c3599e71c6972112e9be4758fa/src/libcore/ptr/mod.rs:1864
   6:	9801      	ldr	r0, [sp, #4]
   8:	9902      	ldr	r1, [sp, #8]
   a:	eb01 0141 	add.w	r1, r1, r1, lsl #1
   e:	eb00 0081 	add.w	r0, r0, r1, lsl #2
  12:	9003      	str	r0, [sp, #12]
  14:	9803      	ldr	r0, [sp, #12]
  16:	9000      	str	r0, [sp, #0]
  18:	e7ff      	b.n	1a <_ZN4core3ptr31_$LT$impl$u20$$BP$mut$u20$T$GT$6offset17hd49acbc7147213b5E+0x1a>
/rustc/412f43ac5b4ae8c3599e71c6972112e9be4758fa/src/libcore/ptr/mod.rs:1865
  1a:	9800      	ldr	r0, [sp, #0]
  1c:	b004      	add	sp, #16
  1e:	4770      	bx	lr

Disassembly of section .text._ZN4core5slice87_$LT$impl$u20$core..iter..traits..collect..IntoIterator$u20$for$u20$$RF$$u5b$T$u5d$$GT$9into_iter17he129093a62c90e54E:

00000000 <_ZN4core5slice87_$LT$impl$u20$core..iter..traits..collect..IntoIterator$u20$for$u20$$RF$$u5b$T$u5d$$GT$9into_iter17he129093a62c90e54E>:
_ZN4core5slice87_$LT$impl$u20$core..iter..traits..collect..IntoIterator$u20$for$u20$$RF$$u5b$T$u5d$$GT$9into_iter17he129093a62c90e54E():
/rustc/412f43ac5b4ae8c3599e71c6972112e9be4758fa/src/libcore/slice/mod.rs:3073
   0:	b580      	push	{r7, lr}
   2:	b084      	sub	sp, #16
   4:	9002      	str	r0, [sp, #8]
   6:	9103      	str	r1, [sp, #12]
/rustc/412f43ac5b4ae8c3599e71c6972112e9be4758fa/src/libcore/slice/mod.rs:3074
   8:	9802      	ldr	r0, [sp, #8]
   a:	9903      	ldr	r1, [sp, #12]
   c:	f7ff fffe 	bl	0 <_ZN4core5slice29_$LT$impl$u20$$u5b$T$u5d$$GT$4iter17h1f49f188099bbda1E>
  10:	9001      	str	r0, [sp, #4]
  12:	9100      	str	r1, [sp, #0]
  14:	e7ff      	b.n	16 <_ZN4core5slice87_$LT$impl$u20$core..iter..traits..collect..IntoIterator$u20$for$u20$$RF$$u5b$T$u5d$$GT$9into_iter17he129093a62c90e54E+0x16>
/rustc/412f43ac5b4ae8c3599e71c6972112e9be4758fa/src/libcore/slice/mod.rs:3075
  16:	9801      	ldr	r0, [sp, #4]
  18:	9900      	ldr	r1, [sp, #0]
  1a:	b004      	add	sp, #16
  1c:	bd80      	pop	{r7, pc}

Disassembly of section .text._ZN50_$LT$T$u20$as$u20$core..convert..Into$LT$U$GT$$GT$4into17h1860988384d57231E:

00000000 <_ZN50_$LT$T$u20$as$u20$core..convert..Into$LT$U$GT$$GT$4into17h1860988384d57231E>:
_ZN50_$LT$T$u20$as$u20$core..convert..Into$LT$U$GT$$GT$4into17h1860988384d57231E():
/rustc/412f43ac5b4ae8c3599e71c6972112e9be4758fa/src/libcore/convert.rs:538
   0:	b580      	push	{r7, lr}
   2:	b09a      	sub	sp, #104	; 0x68
   4:	aa02      	add	r2, sp, #8
   6:	2360      	movs	r3, #96	; 0x60
/rustc/412f43ac5b4ae8c3599e71c6972112e9be4758fa/src/libcore/convert.rs:539
   8:	9001      	str	r0, [sp, #4]
   a:	4610      	mov	r0, r2
   c:	9200      	str	r2, [sp, #0]
   e:	461a      	mov	r2, r3
  10:	f7ff fffe 	bl	0 <__aeabi_memcpy4>
  14:	9801      	ldr	r0, [sp, #4]
  16:	9900      	ldr	r1, [sp, #0]
  18:	f7ff fffe 	bl	0 <_ZN133_$LT$druid..widget..label..LabelText$LT$T$GT$$u20$as$u20$core..convert..From$LT$druid..localization..LocalizedString$LT$T$GT$$GT$$GT$4from17hcc1073563aa0b486E>
  1c:	e7ff      	b.n	1e <_ZN50_$LT$T$u20$as$u20$core..convert..Into$LT$U$GT$$GT$4into17h1860988384d57231E+0x1e>
/rustc/412f43ac5b4ae8c3599e71c6972112e9be4758fa/src/libcore/convert.rs:540
  1e:	b01a      	add	sp, #104	; 0x68
  20:	bd80      	pop	{r7, pc}

Disassembly of section .text._ZN59_$LT$$LP$T10$C$$u20$T11$RP$$u20$as$u20$core..fmt..Debug$GT$3fmt17h5487519a4e1c0582E:

00000000 <_ZN59_$LT$$LP$T10$C$$u20$T11$RP$$u20$as$u20$core..fmt..Debug$GT$3fmt17h5487519a4e1c0582E>:
_ZN59_$LT$$LP$T10$C$$u20$T11$RP$$u20$as$u20$core..fmt..Debug$GT$3fmt17h5487519a4e1c0582E():
/rustc/412f43ac5b4ae8c3599e71c6972112e9be4758fa/src/libcore/fmt/mod.rs:2087
   0:	b580      	push	{r7, lr}
   2:	b088      	sub	sp, #32
   4:	9001      	str	r0, [sp, #4]
   6:	9102      	str	r1, [sp, #8]
/rustc/412f43ac5b4ae8c3599e71c6972112e9be4758fa/src/libcore/fmt/mod.rs:2088
   8:	9902      	ldr	r1, [sp, #8]
   a:	f240 0200 	movw	r2, #0
   e:	f2c0 0200 	movt	r2, #0
  12:	a803      	add	r0, sp, #12
  14:	2300      	movs	r3, #0
  16:	f7ff fffe 	bl	0 <_ZN4core3fmt9Formatter11debug_tuple17hdbbbcdc6421753adE>
  1a:	e7ff      	b.n	1c <_ZN59_$LT$$LP$T10$C$$u20$T11$RP$$u20$as$u20$core..fmt..Debug$GT$3fmt17h5487519a4e1c0582E+0x1c>
/rustc/412f43ac5b4ae8c3599e71c6972112e9be4758fa/src/libcore/fmt/mod.rs:2089
  1c:	9801      	ldr	r0, [sp, #4]
  1e:	9006      	str	r0, [sp, #24]
  20:	9801      	ldr	r0, [sp, #4]
  22:	3008      	adds	r0, #8
  24:	9007      	str	r0, [sp, #28]
/rustc/412f43ac5b4ae8c3599e71c6972112e9be4758fa/src/libcore/fmt/mod.rs:2091
  26:	f240 0200 	movw	r2, #0
  2a:	f2c0 0200 	movt	r2, #0
  2e:	a803      	add	r0, sp, #12
  30:	a906      	add	r1, sp, #24
  32:	f7ff fffe 	bl	0 <_ZN4core3fmt8builders10DebugTuple5field17h9f7eec6202f4b739E>
  36:	e7ff      	b.n	2 <_ZN59_$LT$$LP$T10$C$$u20$T11$RP$$u20$as$u20$core..fmt..Debug$GT$3fmt17h5487519a4e1c0582E+0x2>
  38:	f240 0200 	movw	r2, #0
  3c:	f2c0 0200 	movt	r2, #0
  40:	a803      	add	r0, sp, #12
  42:	a907      	add	r1, sp, #28
  44:	f7ff fffe 	bl	0 <_ZN4core3fmt8builders10DebugTuple5field17h9f7eec6202f4b739E>
  48:	e7ff      	b.n	4a <_ZN59_$LT$$LP$T10$C$$u20$T11$RP$$u20$as$u20$core..fmt..Debug$GT$3fmt17h5487519a4e1c0582E+0x4a>
  4a:	a803      	add	r0, sp, #12
/rustc/412f43ac5b4ae8c3599e71c6972112e9be4758fa/src/libcore/fmt/mod.rs:2094
  4c:	f7ff fffe 	bl	0 <_ZN4core3fmt8builders10DebugTuple6finish17h77cbaad5d6af8efeE>
  50:	9000      	str	r0, [sp, #0]
  52:	e7ff      	b.n	54 <_ZN59_$LT$$LP$T10$C$$u20$T11$RP$$u20$as$u20$core..fmt..Debug$GT$3fmt17h5487519a4e1c0582E+0x54>
/rustc/412f43ac5b4ae8c3599e71c6972112e9be4758fa/src/libcore/fmt/mod.rs:2095
  54:	9800      	ldr	r0, [sp, #0]
  56:	f000 0001 	and.w	r0, r0, #1
  5a:	b008      	add	sp, #32
  5c:	bd80      	pop	{r7, pc}

Disassembly of section .text._ZN5druid12localization24LocalizedString$LT$T$GT$3new17hd476398c63fdfa35E:

00000000 <_ZN5druid12localization24LocalizedString$LT$T$GT$3new17hd476398c63fdfa35E>:
_ZN5druid12localization24LocalizedString$LT$T$GT$3new17hd476398c63fdfa35E():
C:\druid-embedded\druid\src/localization.rs:314
    }
*/ ////

impl<T> LocalizedString<T> {
    /// Create a new `LocalizedString` with the given key.
    pub const fn new(key: &'static str) -> Self {
   0:	b510      	push	{r4, lr}
   2:	b098      	sub	sp, #96	; 0x60
   4:	9100      	str	r1, [sp, #0]
   6:	9201      	str	r2, [sp, #4]
C:\druid-embedded\druid\src/localization.rs:316
        LocalizedString {
            key,
   8:	9900      	ldr	r1, [sp, #0]
   a:	9a01      	ldr	r2, [sp, #4]
   c:	2300      	movs	r3, #0
C:\druid-embedded\druid\src/localization.rs:317
            args: None,
   e:	9302      	str	r3, [sp, #8]
C:\druid-embedded\druid\src/localization.rs:318
            placeholder: None,
  10:	930a      	str	r3, [sp, #40]	; 0x28
C:\druid-embedded\druid\src/localization.rs:319
            resolved: None,
  12:	9311      	str	r3, [sp, #68]	; 0x44
C:\druid-embedded\druid\src/localization.rs:315
        LocalizedString {
  14:	6001      	str	r1, [r0, #0]
  16:	6042      	str	r2, [r0, #4]
  18:	f100 0108 	add.w	r1, r0, #8
  1c:	aa0a      	add	r2, sp, #40	; 0x28
  1e:	e8b2 5008 	ldmia.w	r2!, {r3, ip, lr}
  22:	e8a1 5008 	stmia.w	r1!, {r3, ip, lr}
  26:	e892 5018 	ldmia.w	r2, {r3, r4, ip, lr}
  2a:	e881 5018 	stmia.w	r1, {r3, r4, ip, lr}
  2e:	f100 0124 	add.w	r1, r0, #36	; 0x24
  32:	aa02      	add	r2, sp, #8
  34:	e8b2 5018 	ldmia.w	r2!, {r3, r4, ip, lr}
  38:	e8a1 5018 	stmia.w	r1!, {r3, r4, ip, lr}
  3c:	e892 5018 	ldmia.w	r2, {r3, r4, ip, lr}
  40:	e881 5018 	stmia.w	r1, {r3, r4, ip, lr}
  44:	3044      	adds	r0, #68	; 0x44
  46:	a911      	add	r1, sp, #68	; 0x44
  48:	e8b1 100c 	ldmia.w	r1!, {r2, r3, ip}
  4c:	e8a0 100c 	stmia.w	r0!, {r2, r3, ip}
  50:	e891 500c 	ldmia.w	r1, {r2, r3, ip, lr}
  54:	e880 500c 	stmia.w	r0, {r2, r3, ip, lr}
C:\druid-embedded\druid\src/localization.rs:322
            ////resolved_lang: None,
        }
    }
  58:	b018      	add	sp, #96	; 0x60
  5a:	bd10      	pop	{r4, pc}

Disassembly of section .text._ZN5druid12localization24LocalizedString$LT$T$GT$8with_arg17h78f2b50bc74c391bE:

00000000 <_ZN5druid12localization24LocalizedString$LT$T$GT$8with_arg17h78f2b50bc74c391bE>:
_ZN5druid12localization24LocalizedString$LT$T$GT$8with_arg17h78f2b50bc74c391bE():
C:\druid-embedded\druid\src/localization.rs:358
    /// Add a named argument and a corresponding [`ArgClosure`]. This closure
    /// is a function that will return a value for the given key from the current
    /// environment and data.
    ///
    /// [`ArgClosure`]: type.ArgClosure.html
    pub fn with_arg(
   0:	b580      	push	{r7, lr}
   2:	b096      	sub	sp, #88	; 0x58
   4:	f8dd c060 	ldr.w	ip, [sp, #96]	; 0x60
   8:	9206      	str	r2, [sp, #24]
   a:	9307      	str	r3, [sp, #28]
C:\druid-embedded\druid\src/localization.rs:364
        mut self,
        key: &'static str,
        f: fn(&T, &Env) -> ArgValue, ////
        ////f: impl Fn(&T, &Env) -> FluentValue<'static> + 'static,
    ) -> Self {
        self.args
   c:	f101 0224 	add.w	r2, r1, #36	; 0x24
  10:	ab0b      	add	r3, sp, #44	; 0x2c
C:\druid-embedded\druid\src/localization.rs:365
            .get_or_insert(Vec::new())
  12:	9005      	str	r0, [sp, #20]
  14:	4618      	mov	r0, r3
  16:	9104      	str	r1, [sp, #16]
  18:	f8cd c00c 	str.w	ip, [sp, #12]
  1c:	9202      	str	r2, [sp, #8]
  1e:	f7ff fffe 	bl	0 <_ZN8heapless3vec16Vec$LT$T$C$N$GT$3new17hdbd398b25826ebf9E>
  22:	e7ff      	b.n	24 <_ZN5druid12localization24LocalizedString$LT$T$GT$8with_arg17h78f2b50bc74c391bE+0x24>
  24:	a90b      	add	r1, sp, #44	; 0x2c
C:\druid-embedded\druid\src/localization.rs:364
        self.args
  26:	9802      	ldr	r0, [sp, #8]
  28:	f7ff fffe 	bl	0 <_ZN4core6option15Option$LT$T$GT$13get_or_insert17h41cc8435958c5849E>
  2c:	9001      	str	r0, [sp, #4]
  2e:	e7ff      	b.n	30 <_ZN5druid12localization24LocalizedString$LT$T$GT$8with_arg17h78f2b50bc74c391bE+0x30>
C:\druid-embedded\druid\src/localization.rs:366
            .push((key, ArgSource(f)))
  30:	9806      	ldr	r0, [sp, #24]
  32:	9907      	ldr	r1, [sp, #28]
  34:	9a18      	ldr	r2, [sp, #96]	; 0x60
  36:	9215      	str	r2, [sp, #84]	; 0x54
  38:	9012      	str	r0, [sp, #72]	; 0x48
  3a:	9113      	str	r1, [sp, #76]	; 0x4c
  3c:	9815      	ldr	r0, [sp, #84]	; 0x54
  3e:	9014      	str	r0, [sp, #80]	; 0x50
  40:	a808      	add	r0, sp, #32
  42:	aa12      	add	r2, sp, #72	; 0x48
C:\druid-embedded\druid\src/localization.rs:364
        self.args
  44:	9901      	ldr	r1, [sp, #4]
  46:	f7ff fffe 	bl	0 <_ZN8heapless3vec16Vec$LT$T$C$N$GT$4push17h17702fe91ee2d920E>
  4a:	e7ff      	b.n	2 <_ZN5druid12localization24LocalizedString$LT$T$GT$8with_arg17h78f2b50bc74c391bE+0x2>
  4c:	f240 0100 	movw	r1, #0
  50:	f2c0 0100 	movt	r1, #0
  54:	a808      	add	r0, sp, #32
  56:	220f      	movs	r2, #15
  58:	f7ff fffe 	bl	0 <_ZN4core6result19Result$LT$T$C$E$GT$6expect17h108621878da58221E>
  5c:	e7ff      	b.n	5e <_ZN5druid12localization24LocalizedString$LT$T$GT$8with_arg17h78f2b50bc74c391bE+0x5e>
  5e:	2260      	movs	r2, #96	; 0x60
C:\druid-embedded\druid\src/localization.rs:369
            .expect("with arg failed"); ////
            ////.push((key, ArgSource(Arc::new(f))));
        self
  60:	9805      	ldr	r0, [sp, #20]
  62:	9904      	ldr	r1, [sp, #16]
  64:	f7ff fffe 	bl	0 <__aeabi_memcpy4>
C:\druid-embedded\druid\src/localization.rs:370
    }
  68:	b016      	add	sp, #88	; 0x58
  6a:	bd80      	pop	{r7, pc}

Disassembly of section .text._ZN76_$LT$druid..localization..ArgSource$LT$T$GT$$u20$as$u20$core..fmt..Debug$GT$3fmt17h325eb8b6196a6ff7E:

00000000 <_ZN76_$LT$druid..localization..ArgSource$LT$T$GT$$u20$as$u20$core..fmt..Debug$GT$3fmt17h325eb8b6196a6ff7E>:
_ZN76_$LT$druid..localization..ArgSource$LT$T$GT$$u20$as$u20$core..fmt..Debug$GT$3fmt17h325eb8b6196a6ff7E():
C:\druid-embedded\druid\src/localization.rs:486
    }
*/ ////

/// Implement formatted output for ArgSource
impl<T> core::fmt::Debug for ArgSource<T> { ////
    fn fmt(&self, _fmt: &mut ::core::fmt::Formatter<'_>) -> ::core::fmt::Result {
   0:	b082      	sub	sp, #8
   2:	9000      	str	r0, [sp, #0]
   4:	9101      	str	r1, [sp, #4]
   6:	2000      	movs	r0, #0
C:\druid-embedded\druid\src/localization.rs:489
        //  TODO
        Ok(())
    }
   8:	b002      	add	sp, #8
   a:	4770      	bx	lr

Disassembly of section .text._ZN78_$LT$druid..localization..ArgSource$LT$T$GT$$u20$as$u20$core..clone..Clone$GT$5clone17h00830903e890502fE:

00000000 <_ZN78_$LT$druid..localization..ArgSource$LT$T$GT$$u20$as$u20$core..clone..Clone$GT$5clone17h00830903e890502fE>:
_ZN78_$LT$druid..localization..ArgSource$LT$T$GT$$u20$as$u20$core..clone..Clone$GT$5clone17h00830903e890502fE():
C:\druid-embedded\druid\src/localization.rs:100
#[derive(Clone)]
   0:	b580      	push	{r7, lr}
   2:	b084      	sub	sp, #16
   4:	9001      	str	r0, [sp, #4]
C:\druid-embedded\druid\src/localization.rs:101
struct ArgSource<T>(ArgClosure<T>);
   6:	9801      	ldr	r0, [sp, #4]
   8:	9003      	str	r0, [sp, #12]
   a:	9803      	ldr	r0, [sp, #12]
   c:	f7ff fffe 	bl	0 <_ZN4core5clone5Clone5clone17hd470976df669b1edE>
  10:	9000      	str	r0, [sp, #0]
  12:	e7ff      	b.n	14 <_ZN78_$LT$druid..localization..ArgSource$LT$T$GT$$u20$as$u20$core..clone..Clone$GT$5clone17h00830903e890502fE+0x14>
C:\druid-embedded\druid\src/localization.rs:100
#[derive(Clone)]
  14:	9800      	ldr	r0, [sp, #0]
  16:	9002      	str	r0, [sp, #8]
  18:	9802      	ldr	r0, [sp, #8]
  1a:	b004      	add	sp, #16
  1c:	bd80      	pop	{r7, pc}

Disassembly of section .text._ZN84_$LT$druid..localization..LocalizedString$LT$T$GT$$u20$as$u20$core..clone..Clone$GT$5clone17h651d5c83fac4e301E:

00000000 <_ZN84_$LT$druid..localization..LocalizedString$LT$T$GT$$u20$as$u20$core..clone..Clone$GT$5clone17h651d5c83fac4e301E>:
_ZN84_$LT$druid..localization..LocalizedString$LT$T$GT$$u20$as$u20$core..clone..Clone$GT$5clone17h651d5c83fac4e301E():
C:\druid-embedded\druid\src/localization.rs:107
#[derive(Clone)]////
   0:	b570      	push	{r4, r5, r6, lr}
   2:	b09e      	sub	sp, #120	; 0x78
   4:	9103      	str	r1, [sp, #12]
C:\druid-embedded\druid\src/localization.rs:110
    pub(crate) key: &'static str,
   6:	9903      	ldr	r1, [sp, #12]
   8:	9104      	str	r1, [sp, #16]
C:\druid-embedded\druid\src/localization.rs:111
    placeholder: Option<String>,
   a:	9903      	ldr	r1, [sp, #12]
   c:	3108      	adds	r1, #8
   e:	9105      	str	r1, [sp, #20]
C:\druid-embedded\druid\src/localization.rs:112
    args: Option<Vec<(&'static str, ArgSource<T>)>>,
  10:	9903      	ldr	r1, [sp, #12]
  12:	3124      	adds	r1, #36	; 0x24
  14:	9106      	str	r1, [sp, #24]
C:\druid-embedded\druid\src/localization.rs:113
    resolved: Option<String>,
  16:	9903      	ldr	r1, [sp, #12]
  18:	3144      	adds	r1, #68	; 0x44
  1a:	9107      	str	r1, [sp, #28]
C:\druid-embedded\druid\src/localization.rs:110
    pub(crate) key: &'static str,
  1c:	9904      	ldr	r1, [sp, #16]
  1e:	9002      	str	r0, [sp, #8]
  20:	4608      	mov	r0, r1
  22:	f7ff fffe 	bl	0 <_ZN4core5clone5impls54_$LT$impl$u20$core..clone..Clone$u20$for$u20$$RF$T$GT$5clone17h1e37ad60f71bec3aE>
  26:	9001      	str	r0, [sp, #4]
  28:	9100      	str	r1, [sp, #0]
  2a:	e7ff      	b.n	2c <_ZN84_$LT$druid..localization..LocalizedString$LT$T$GT$$u20$as$u20$core..clone..Clone$GT$5clone17h651d5c83fac4e301E+0x2c>
C:\druid-embedded\druid\src/localization.rs:111
    placeholder: Option<String>,
  2c:	9905      	ldr	r1, [sp, #20]
  2e:	a808      	add	r0, sp, #32
  30:	f7ff fffe 	bl	0 <_ZN68_$LT$core..option..Option$LT$T$GT$$u20$as$u20$core..clone..Clone$GT$5clone17h942f762d66dee206E>
  34:	e7ff      	b.n	36 <_ZN84_$LT$druid..localization..LocalizedString$LT$T$GT$$u20$as$u20$core..clone..Clone$GT$5clone17h651d5c83fac4e301E+0x36>
C:\druid-embedded\druid\src/localization.rs:112
    args: Option<Vec<(&'static str, ArgSource<T>)>>,
  36:	9906      	ldr	r1, [sp, #24]
  38:	a80f      	add	r0, sp, #60	; 0x3c
  3a:	f7ff fffe 	bl	0 <_ZN68_$LT$core..option..Option$LT$T$GT$$u20$as$u20$core..clone..Clone$GT$5clone17h461a9fbd0c934ef1E>
  3e:	e7ff      	b.n	40 <_ZN84_$LT$druid..localization..LocalizedString$LT$T$GT$$u20$as$u20$core..clone..Clone$GT$5clone17h651d5c83fac4e301E+0x40>
C:\druid-embedded\druid\src/localization.rs:113
    resolved: Option<String>,
  40:	9907      	ldr	r1, [sp, #28]
  42:	a817      	add	r0, sp, #92	; 0x5c
  44:	f7ff fffe 	bl	0 <_ZN68_$LT$core..option..Option$LT$T$GT$$u20$as$u20$core..clone..Clone$GT$5clone17h942f762d66dee206E>
  48:	e7ff      	b.n	4a <_ZN84_$LT$druid..localization..LocalizedString$LT$T$GT$$u20$as$u20$core..clone..Clone$GT$5clone17h651d5c83fac4e301E+0x4a>
C:\druid-embedded\druid\src/localization.rs:107
#[derive(Clone)]////
  4a:	9801      	ldr	r0, [sp, #4]
  4c:	9902      	ldr	r1, [sp, #8]
  4e:	6008      	str	r0, [r1, #0]
  50:	9a00      	ldr	r2, [sp, #0]
  52:	604a      	str	r2, [r1, #4]
  54:	f101 0308 	add.w	r3, r1, #8
  58:	f10d 0c20 	add.w	ip, sp, #32
  5c:	e8bc 4030 	ldmia.w	ip!, {r4, r5, lr}
  60:	e8a3 4030 	stmia.w	r3!, {r4, r5, lr}
  64:	e89c 4070 	ldmia.w	ip, {r4, r5, r6, lr}
  68:	e883 4070 	stmia.w	r3, {r4, r5, r6, lr}
  6c:	f101 0324 	add.w	r3, r1, #36	; 0x24
  70:	f10d 0c3c 	add.w	ip, sp, #60	; 0x3c
  74:	e8bc 4070 	ldmia.w	ip!, {r4, r5, r6, lr}
  78:	e8a3 4070 	stmia.w	r3!, {r4, r5, r6, lr}
  7c:	e89c 4070 	ldmia.w	ip, {r4, r5, r6, lr}
  80:	e883 4070 	stmia.w	r3, {r4, r5, r6, lr}
  84:	f101 0344 	add.w	r3, r1, #68	; 0x44
  88:	f10d 0c5c 	add.w	ip, sp, #92	; 0x5c
  8c:	e8bc 4030 	ldmia.w	ip!, {r4, r5, lr}
  90:	e8a3 4030 	stmia.w	r3!, {r4, r5, lr}
  94:	e89c 4070 	ldmia.w	ip, {r4, r5, r6, lr}
  98:	e883 4070 	stmia.w	r3, {r4, r5, r6, lr}
  9c:	b01e      	add	sp, #120	; 0x78
  9e:	bd70      	pop	{r4, r5, r6, pc}

app-20d859f505b9d0c6.3lwk3gvkgwylqx46.rcgu.o:     file format elf32-littlearm

SYMBOL TABLE:
00000000 l    df *ABS*	00000000 3lwk3gvkgwylqx46
000000ee l       .debug_str	00000000 
000000fb l       .debug_str	00000000 
00000000 l       .debug_str	00000000 
00000041 l       .debug_str	00000000 
00000055 l       .debug_str	00000000 
00000074 l       .debug_str	00000000 
0000007a l       .debug_str	00000000 
0000007f l       .debug_str	00000000 
00000088 l       .debug_str	00000000 
000000e6 l       .debug_str	00000000 
000000f8 l       .debug_str	00000000 
000000f1 l       .debug_str	00000000 
000000f5 l       .debug_str	00000000 
000000fe l       .debug_str	00000000 
00000000 l    d  .text._ZN60_$LT$kurbo..rect..Rect$u20$as$u20$core..default..Default$GT$7default17hd861f8b18277cf1bE	00000000 .text._ZN60_$LT$kurbo..rect..Rect$u20$as$u20$core..default..Default$GT$7default17hd861f8b18277cf1bE
00000000 l    d  .debug_abbrev	00000000 .debug_abbrev
00000000 l    d  .debug_info	00000000 .debug_info
00000000 l    d  .debug_frame	00000000 .debug_frame
00000000 l    d  .debug_line	00000000 .debug_line
00000000         *UND*	00000000 .hidden _ZN46_$LT$f64$u20$as$u20$core..default..Default$GT$7default17h302e2cdc47a4b058E
00000000 g     F .text._ZN60_$LT$kurbo..rect..Rect$u20$as$u20$core..default..Default$GT$7default17hd861f8b18277cf1bE	00000054 .hidden _ZN60_$LT$kurbo..rect..Rect$u20$as$u20$core..default..Default$GT$7default17hd861f8b18277cf1bE



Disassembly of section .text._ZN60_$LT$kurbo..rect..Rect$u20$as$u20$core..default..Default$GT$7default17hd861f8b18277cf1bE:

00000000 <_ZN60_$LT$kurbo..rect..Rect$u20$as$u20$core..default..Default$GT$7default17hd861f8b18277cf1bE>:
_ZN60_$LT$kurbo..rect..Rect$u20$as$u20$core..default..Default$GT$7default17hd861f8b18277cf1bE():
C:\kurbo-embedded\src/rect.rs:10
////use std::ops::{Add, Sub};

use crate::{Insets, PathEl, Point, RoundedRect, Shape, Size, Vec2};

/// A rectangle.
#[derive(Clone, Copy, Default, Debug)]
   0:	b580      	push	{r7, lr}
   2:	b08a      	sub	sp, #40	; 0x28
C:\kurbo-embedded\src/rect.rs:13
pub struct Rect {
    /// The minimum x coordinate (left edge).
    pub x0: f64,
   4:	9009      	str	r0, [sp, #36]	; 0x24
   6:	f7ff fffe 	bl	0 <_ZN46_$LT$f64$u20$as$u20$core..default..Default$GT$7default17h302e2cdc47a4b058E>
   a:	ed8d 0b06 	vstr	d0, [sp, #24]
   e:	e7ff      	b.n	2 <_ZN46_$LT$f64$u20$as$u20$core..default..Default$GT$7default17h302e2cdc47a4b058E+0x2>
C:\kurbo-embedded\src/rect.rs:15
    /// The minimum y coordinate (top edge in y-down spaces).
    pub y0: f64,
  10:	f7ff fffe 	bl	0 <_ZN46_$LT$f64$u20$as$u20$core..default..Default$GT$7default17h302e2cdc47a4b058E>
  14:	ed8d 0b04 	vstr	d0, [sp, #16]
  18:	e7ff      	b.n	2 <_ZN46_$LT$f64$u20$as$u20$core..default..Default$GT$7default17h302e2cdc47a4b058E+0x2>
C:\kurbo-embedded\src/rect.rs:17
    /// The maximum x coordinate (right edge).
    pub x1: f64,
  1a:	f7ff fffe 	bl	0 <_ZN46_$LT$f64$u20$as$u20$core..default..Default$GT$7default17h302e2cdc47a4b058E>
  1e:	ed8d 0b02 	vstr	d0, [sp, #8]
  22:	e7ff      	b.n	2 <_ZN46_$LT$f64$u20$as$u20$core..default..Default$GT$7default17h302e2cdc47a4b058E+0x2>
C:\kurbo-embedded\src/rect.rs:19
    /// The maximum y coordinate (bottom edge in y-down spaces).
    pub y1: f64,
  24:	f7ff fffe 	bl	0 <_ZN46_$LT$f64$u20$as$u20$core..default..Default$GT$7default17h302e2cdc47a4b058E>
  28:	ed8d 0b00 	vstr	d0, [sp]
  2c:	e7ff      	b.n	2e <_ZN60_$LT$kurbo..rect..Rect$u20$as$u20$core..default..Default$GT$7default17hd861f8b18277cf1bE+0x2e>
C:\kurbo-embedded\src/rect.rs:10
#[derive(Clone, Copy, Default, Debug)]
  2e:	ed9d 0b06 	vldr	d0, [sp, #24]
  32:	9809      	ldr	r0, [sp, #36]	; 0x24
  34:	ed80 0b00 	vstr	d0, [r0]
  38:	ed9d 1b04 	vldr	d1, [sp, #16]
  3c:	ed80 1b02 	vstr	d1, [r0, #8]
  40:	ed9d 2b02 	vldr	d2, [sp, #8]
  44:	ed80 2b04 	vstr	d2, [r0, #16]
  48:	ed9d 3b00 	vldr	d3, [sp]
  4c:	ed80 3b06 	vstr	d3, [r0, #24]
  50:	b00a      	add	sp, #40	; 0x28
  52:	bd80      	pop	{r7, pc}

app-20d859f505b9d0c6.3pa7j3n7bqpysygv.rcgu.o:     file format elf32-littlearm

SYMBOL TABLE:
00000000 l    df *ABS*	00000000 3pa7j3n7bqpysygv
000023c9 l       .debug_str	00000000 
00004376 l       .debug_str	00000000 
0000473b l       .debug_str	00000000 
00004374 l       .debug_str	00000000 
00004720 l       .debug_str	00000000 
000042b5 l       .debug_str	00000000 
00004705 l       .debug_str	00000000 
000042b0 l       .debug_str	00000000 
00004612 l       .debug_str	00000000 
000042a4 l       .debug_str	00000000 
00004299 l       .debug_str	00000000 
00004235 l       .debug_str	00000000 
00004509 l       .debug_str	00000000 
00004231 l       .debug_str	00000000 
000044e2 l       .debug_str	00000000 
00004225 l       .debug_str	00000000 
0000443d l       .debug_str	00000000 
0000421a l       .debug_str	00000000 
0000443b l       .debug_str	00000000 
000041b6 l       .debug_str	00000000 
00004380 l       .debug_str	00000000 
000040bc l       .debug_str	00000000 
0000437c l       .debug_str	00000000 
00000000 l       .debug_str	00000000 
00000041 l       .debug_str	00000000 
00000055 l       .debug_str	00000000 
00000074 l       .debug_str	00000000 
00000079 l       .debug_str	00000000 
0000007d l       .debug_str	00000000 
00000080 l       .debug_str	00000000 
0000008b l       .debug_str	00000000 
00000096 l       .debug_str	00000000 
0000009d l       .debug_str	00000000 
000000a4 l       .debug_str	00000000 
000000a9 l       .debug_str	00000000 
000000ae l       .debug_str	00000000 
000000b5 l       .debug_str	00000000 
000000b9 l       .debug_str	00000000 
000000c2 l       .debug_str	00000000 
000000c6 l       .debug_str	00000000 
000000ca l       .debug_str	00000000 
000000cc l       .debug_str	00000000 
000000d3 l       .debug_str	00000000 
000000d7 l       .debug_str	00000000 
000000e4 l       .debug_str	00000000 
000000eb l       .debug_str	00000000 
000000ee l       .debug_str	00000000 
000000f4 l       .debug_str	00000000 
00000102 l       .debug_str	00000000 
00000110 l       .debug_str	00000000 
00000115 l       .debug_str	00000000 
0000011d l       .debug_str	00000000 
00000125 l       .debug_str	00000000 
0000012e l       .debug_str	00000000 
00000138 l       .debug_str	00000000 
0000013f l       .debug_str	00000000 
00000145 l       .debug_str	00000000 
0000014a l       .debug_str	00000000 
0000014e l       .debug_str	00000000 
00000154 l       .debug_str	00000000 
00000161 l       .debug_str	00000000 
0000016a l       .debug_str	00000000 
00000171 l       .debug_str	00000000 
00000178 l       .debug_str	00000000 
0000017a l       .debug_str	00000000 
0000017c l       .debug_str	00000000 
00000198 l       .debug_str	00000000 
000001a0 l       .debug_str	00000000 
000001a7 l       .debug_str	00000000 
000001b7 l       .debug_str	00000000 
000001fc l       .debug_str	00000000 
00000269 l       .debug_str	00000000 
000002ff l       .debug_str	00000000 
000003be l       .debug_str	00000000 
000003c6 l       .debug_str	00000000 
000003cb l       .debug_str	00000000 
000003d1 l       .debug_str	00000000 
000003d5 l       .debug_str	00000000 
000003d8 l       .debug_str	00000000 
00000401 l       .debug_str	00000000 
00000437 l       .debug_str	00000000 
00000439 l       .debug_str	00000000 
00000466 l       .debug_str	00000000 
00000469 l       .debug_str	00000000 
000004b9 l       .debug_str	00000000 
00000516 l       .debug_str	00000000 
0000056a l       .debug_str	00000000 
000005e1 l       .debug_str	00000000 
00000665 l       .debug_str	00000000 
000006e0 l       .debug_str	00000000 
0000077e l       .debug_str	00000000 
00000829 l       .debug_str	00000000 
000008cb l       .debug_str	00000000 
00000990 l       .debug_str	00000000 
00000a62 l       .debug_str	00000000 
00000b2b l       .debug_str	00000000 
00000c15 l       .debug_str	00000000 
00000d1c l       .debug_str	00000000 
00000e22 l       .debug_str	00000000 
00000e26 l       .debug_str	00000000 
00000e28 l       .debug_str	00000000 
00000f26 l       .debug_str	00000000 
00001027 l       .debug_str	00000000 
00001029 l       .debug_str	00000000 
00001109 l       .debug_str	00000000 
0000110d l       .debug_str	00000000 
00001113 l       .debug_str	00000000 
0000111c l       .debug_str	00000000 
00001121 l       .debug_str	00000000 
00001125 l       .debug_str	00000000 
00001129 l       .debug_str	00000000 
0000113a l       .debug_str	00000000 
00001172 l       .debug_str	00000000 
00001181 l       .debug_str	00000000 
000011ad l       .debug_str	00000000 
000011f2 l       .debug_str	00000000 
0000122b l       .debug_str	00000000 
000012c2 l       .debug_str	00000000 
00001360 l       .debug_str	00000000 
0000141b l       .debug_str	00000000 
000014d5 l       .debug_str	00000000 
00001587 l       .debug_str	00000000 
0000161c l       .debug_str	00000000 
000016c8 l       .debug_str	00000000 
000016d1 l       .debug_str	00000000 
000016df l       .debug_str	00000000 
000016e6 l       .debug_str	00000000 
000016e9 l       .debug_str	00000000 
000016f0 l       .debug_str	00000000 
000016f9 l       .debug_str	00000000 
000016ff l       .debug_str	00000000 
00001706 l       .debug_str	00000000 
00001709 l       .debug_str	00000000 
00001715 l       .debug_str	00000000 
0000171d l       .debug_str	00000000 
00001721 l       .debug_str	00000000 
00001738 l       .debug_str	00000000 
00001792 l       .debug_str	00000000 
000017f4 l       .debug_str	00000000 
000017ff l       .debug_str	00000000 
00001846 l       .debug_str	00000000 
00001895 l       .debug_str	00000000 
0000189f l       .debug_str	00000000 
000018dc l       .debug_str	00000000 
00001921 l       .debug_str	00000000 
0000192a l       .debug_str	00000000 
0000193a l       .debug_str	00000000 
00001942 l       .debug_str	00000000 
00001997 l       .debug_str	00000000 
000019f4 l       .debug_str	00000000 
00001a00 l       .debug_str	00000000 
00001a09 l       .debug_str	00000000 
00001a15 l       .debug_str	00000000 
00001a21 l       .debug_str	00000000 
00001a2a l       .debug_str	00000000 
00001a32 l       .debug_str	00000000 
00001a3a l       .debug_str	00000000 
00001a44 l       .debug_str	00000000 
00001a59 l       .debug_str	00000000 
00001a60 l       .debug_str	00000000 
00001a80 l       .debug_str	00000000 
00001a87 l       .debug_str	00000000 
00001a8f l       .debug_str	00000000 
00001a99 l       .debug_str	00000000 
00001aa4 l       .debug_str	00000000 
00001aad l       .debug_str	00000000 
00001ab8 l       .debug_str	00000000 
00001ac4 l       .debug_str	00000000 
00001ac8 l       .debug_str	00000000 
00001ad1 l       .debug_str	00000000 
00001ad8 l       .debug_str	00000000 
00001ae0 l       .debug_str	00000000 
00001ae8 l       .debug_str	00000000 
00001af2 l       .debug_str	00000000 
00001af8 l       .debug_str	00000000 
00001aff l       .debug_str	00000000 
00001b06 l       .debug_str	00000000 
00001b33 l       .debug_str	00000000 
00001b68 l       .debug_str	00000000 
00001b6e l       .debug_str	00000000 
00001b74 l       .debug_str	00000000 
00001b83 l       .debug_str	00000000 
00001b93 l       .debug_str	00000000 
00001ba3 l       .debug_str	00000000 
00001bab l       .debug_str	00000000 
00001bd4 l       .debug_str	00000000 
00001c32 l       .debug_str	00000000 
00001c98 l       .debug_str	00000000 
00001c9f l       .debug_str	00000000 
00001ca7 l       .debug_str	00000000 
00001cb0 l       .debug_str	00000000 
00001cce l       .debug_str	00000000 
00001cde l       .debug_str	00000000 
00001cec l       .debug_str	00000000 
00001cf7 l       .debug_str	00000000 
00001d04 l       .debug_str	00000000 
00001d13 l       .debug_str	00000000 
00001d29 l       .debug_str	00000000 
00001d33 l       .debug_str	00000000 
00001d3c l       .debug_str	00000000 
00001d45 l       .debug_str	00000000 
00001d6b l       .debug_str	00000000 
00001d81 l       .debug_str	00000000 
00001d8c l       .debug_str	00000000 
00001da2 l       .debug_str	00000000 
00001daa l       .debug_str	00000000 
00001dcb l       .debug_str	00000000 
00001de2 l       .debug_str	00000000 
00001de7 l       .debug_str	00000000 
00001def l       .debug_str	00000000 
00001df8 l       .debug_str	00000000 
00001e01 l       .debug_str	00000000 
00001e0a l       .debug_str	00000000 
00001e12 l       .debug_str	00000000 
00001e16 l       .debug_str	00000000 
00001e1d l       .debug_str	00000000 
00001e29 l       .debug_str	00000000 
00001e34 l       .debug_str	00000000 
00001e3c l       .debug_str	00000000 
00001e44 l       .debug_str	00000000 
00001ec0 l       .debug_str	00000000 
00001f44 l       .debug_str	00000000 
00002040 l       .debug_str	00000000 
00002144 l       .debug_str	00000000 
00002152 l       .debug_str	00000000 
0000215d l       .debug_str	00000000 
00002167 l       .debug_str	00000000 
0000217b l       .debug_str	00000000 
00002186 l       .debug_str	00000000 
000021b4 l       .debug_str	00000000 
0000222f l       .debug_str	00000000 
000022b2 l       .debug_str	00000000 
000022c0 l       .debug_str	00000000 
0000231f l       .debug_str	00000000 
00002386 l       .debug_str	00000000 
0000239c l       .debug_str	00000000 
000023ac l       .debug_str	00000000 
000023bb l       .debug_str	00000000 
000023bf l       .debug_str	00000000 
000023c5 l       .debug_str	00000000 
00003fc3 l       .debug_str	00000000 
000023cf l       .debug_str	00000000 
000023d5 l       .debug_str	00000000 
000023e1 l       .debug_str	00000000 
000023e9 l       .debug_str	00000000 
000023ef l       .debug_str	00000000 
000023f7 l       .debug_str	00000000 
000023fd l       .debug_str	00000000 
00002420 l       .debug_str	00000000 
00002430 l       .debug_str	00000000 
00002463 l       .debug_str	00000000 
000024a3 l       .debug_str	00000000 
000024eb l       .debug_str	00000000 
000024ef l       .debug_str	00000000 
000024f5 l       .debug_str	00000000 
000024fb l       .debug_str	00000000 
00002501 l       .debug_str	00000000 
00002513 l       .debug_str	00000000 
00002548 l       .debug_str	00000000 
0000258a l       .debug_str	00000000 
000025d4 l       .debug_str	00000000 
000025d8 l       .debug_str	00000000 
000025de l       .debug_str	00000000 
000025e4 l       .debug_str	00000000 
000025ea l       .debug_str	00000000 
000025fc l       .debug_str	00000000 
00002631 l       .debug_str	00000000 
00002673 l       .debug_str	00000000 
000026bd l       .debug_str	00000000 
000026c1 l       .debug_str	00000000 
000026c7 l       .debug_str	00000000 
000026cd l       .debug_str	00000000 
000026d3 l       .debug_str	00000000 
000026d9 l       .debug_str	00000000 
000026ea l       .debug_str	00000000 
0000271e l       .debug_str	00000000 
0000275f l       .debug_str	00000000 
000027a8 l       .debug_str	00000000 
000027ad l       .debug_str	00000000 
000027b2 l       .debug_str	00000000 
000027b6 l       .debug_str	00000000 
000027bc l       .debug_str	00000000 
000027c2 l       .debug_str	00000000 
000027c8 l       .debug_str	00000000 
000027d9 l       .debug_str	00000000 
0000280d l       .debug_str	00000000 
0000284e l       .debug_str	00000000 
00002897 l       .debug_str	00000000 
0000289b l       .debug_str	00000000 
000028a4 l       .debug_str	00000000 
000028b5 l       .debug_str	00000000 
000028e9 l       .debug_str	00000000 
0000292a l       .debug_str	00000000 
00002973 l       .debug_str	00000000 
00002978 l       .debug_str	00000000 
0000297c l       .debug_str	00000000 
00002985 l       .debug_str	00000000 
0000298c l       .debug_str	00000000 
00002994 l       .debug_str	00000000 
000029a6 l       .debug_str	00000000 
000029db l       .debug_str	00000000 
00002a1d l       .debug_str	00000000 
00002a67 l       .debug_str	00000000 
00002a6b l       .debug_str	00000000 
00002a71 l       .debug_str	00000000 
00002a77 l       .debug_str	00000000 
00002a7d l       .debug_str	00000000 
00002a83 l       .debug_str	00000000 
00002a8b l       .debug_str	00000000 
00002a99 l       .debug_str	00000000 
00002aa8 l       .debug_str	00000000 
00002ab9 l       .debug_str	00000000 
00002ac4 l       .debug_str	00000000 
00002acf l       .debug_str	00000000 
00002ada l       .debug_str	00000000 
00002ae1 l       .debug_str	00000000 
00002b04 l       .debug_str	00000000 
00002b16 l       .debug_str	00000000 
00002b4b l       .debug_str	00000000 
00002b8d l       .debug_str	00000000 
00002bd7 l       .debug_str	00000000 
00002bdb l       .debug_str	00000000 
00002be5 l       .debug_str	00000000 
00002bf7 l       .debug_str	00000000 
00002c2c l       .debug_str	00000000 
00002c6e l       .debug_str	00000000 
00002cb8 l       .debug_str	00000000 
00002cbd l       .debug_str	00000000 
00002cc7 l       .debug_str	00000000 
00002cd9 l       .debug_str	00000000 
00002d0e l       .debug_str	00000000 
00002d50 l       .debug_str	00000000 
00002d9a l       .debug_str	00000000 
00002dae l       .debug_str	00000000 
00002db2 l       .debug_str	00000000 
00002dc0 l       .debug_str	00000000 
00002dd0 l       .debug_str	00000000 
00002dd9 l       .debug_str	00000000 
00002de4 l       .debug_str	00000000 
00002df3 l       .debug_str	00000000 
00002e08 l       .debug_str	00000000 
00002e39 l       .debug_str	00000000 
00002ed6 l       .debug_str	00000000 
00002f7b l       .debug_str	00000000 
00002f86 l       .debug_str	00000000 
00002f8f l       .debug_str	00000000 
00002fb0 l       .debug_str	00000000 
00002fc3 l       .debug_str	00000000 
00002ff9 l       .debug_str	00000000 
0000307c l       .debug_str	00000000 
00003107 l       .debug_str	00000000 
00003123 l       .debug_str	00000000 
0000316f l       .debug_str	00000000 
000031c3 l       .debug_str	00000000 
000031e0 l       .debug_str	00000000 
000031f4 l       .debug_str	00000000 
00003240 l       .debug_str	00000000 
00003294 l       .debug_str	00000000 
000032aa l       .debug_str	00000000 
000032be l       .debug_str	00000000 
00003305 l       .debug_str	00000000 
00003354 l       .debug_str	00000000 
0000335d l       .debug_str	00000000 
0000336b l       .debug_str	00000000 
0000339c l       .debug_str	00000000 
000033a2 l       .debug_str	00000000 
000033aa l       .debug_str	00000000 
000033b1 l       .debug_str	00000000 
000033b9 l       .debug_str	00000000 
000033c4 l       .debug_str	00000000 
000033cc l       .debug_str	00000000 
000033db l       .debug_str	00000000 
000033df l       .debug_str	00000000 
000033ea l       .debug_str	00000000 
000033f6 l       .debug_str	00000000 
00003401 l       .debug_str	00000000 
00003412 l       .debug_str	00000000 
00003418 l       .debug_str	00000000 
00003420 l       .debug_str	00000000 
00003427 l       .debug_str	00000000 
00003431 l       .debug_str	00000000 
00003439 l       .debug_str	00000000 
00003441 l       .debug_str	00000000 
00003463 l       .debug_str	00000000 
0000346e l       .debug_str	00000000 
0000347a l       .debug_str	00000000 
00003482 l       .debug_str	00000000 
0000348b l       .debug_str	00000000 
00003496 l       .debug_str	00000000 
0000349d l       .debug_str	00000000 
000034a8 l       .debug_str	00000000 
000034b3 l       .debug_str	00000000 
000034c3 l       .debug_str	00000000 
000034cd l       .debug_str	00000000 
000034d3 l       .debug_str	00000000 
000034f5 l       .debug_str	00000000 
0000352d l       .debug_str	00000000 
0000356d l       .debug_str	00000000 
00003574 l       .debug_str	00000000 
0000357c l       .debug_str	00000000 
00003593 l       .debug_str	00000000 
0000359c l       .debug_str	00000000 
000035ac l       .debug_str	00000000 
000035bb l       .debug_str	00000000 
000035c3 l       .debug_str	00000000 
000035ca l       .debug_str	00000000 
000035d2 l       .debug_str	00000000 
000035f0 l       .debug_str	00000000 
00003600 l       .debug_str	00000000 
00003633 l       .debug_str	00000000 
00003648 l       .debug_str	00000000 
00003651 l       .debug_str	00000000 
000036ae l       .debug_str	00000000 
00003713 l       .debug_str	00000000 
0000371d l       .debug_str	00000000 
0000372d l       .debug_str	00000000 
00003742 l       .debug_str	00000000 
0000374a l       .debug_str	00000000 
000037ae l       .debug_str	00000000 
0000381a l       .debug_str	00000000 
00003821 l       .debug_str	00000000 
00003829 l       .debug_str	00000000 
00003847 l       .debug_str	00000000 
00003857 l       .debug_str	00000000 
0000388a l       .debug_str	00000000 
0000389f l       .debug_str	00000000 
000038b2 l       .debug_str	00000000 
000038c7 l       .debug_str	00000000 
000038ce l       .debug_str	00000000 
000038e3 l       .debug_str	00000000 
0000390d l       .debug_str	00000000 
0000393f l       .debug_str	00000000 
00003945 l       .debug_str	00000000 
00003953 l       .debug_str	00000000 
00003997 l       .debug_str	00000000 
00003a4a l       .debug_str	00000000 
00003af3 l       .debug_str	00000000 
00003b55 l       .debug_str	00000000 
00003c06 l       .debug_str	00000000 
00003c10 l       .debug_str	00000000 
00003c12 l       .debug_str	00000000 
00003c5b l       .debug_str	00000000 
00003d1d l       .debug_str	00000000 
00003d59 l       .debug_str	00000000 
00003d8b l       .debug_str	00000000 
00003dc7 l       .debug_str	00000000 
00003dd5 l       .debug_str	00000000 
00003e39 l       .debug_str	00000000 
00003ee4 l       .debug_str	00000000 
00003f48 l       .debug_str	00000000 
00003f5f l       .debug_str	00000000 
00004378 l       .debug_str	00000000 
00000000 l     O .rodata..Lanon.1af16db3486267b709dc4da8180ba79f.0	0000002b .Lanon.1af16db3486267b709dc4da8180ba79f.0
00000000 l     O .rodata..Lanon.1af16db3486267b709dc4da8180ba79f.2	00000010 .Lanon.1af16db3486267b709dc4da8180ba79f.2
00000000 l    d  .text._ZN4core6option15Option$LT$T$GT$13get_or_insert17h41cc8435958c5849E	00000000 .text._ZN4core6option15Option$LT$T$GT$13get_or_insert17h41cc8435958c5849E
00000000 l    d  .text._ZN4core6option15Option$LT$T$GT$13get_or_insert28_$u7b$$u7b$closure$u7d$$u7d$17h0a5ec7ea2b2527beE	00000000 .text._ZN4core6option15Option$LT$T$GT$13get_or_insert28_$u7b$$u7b$closure$u7d$$u7d$17h0a5ec7ea2b2527beE
00000000 l    d  .text._ZN4core6option15Option$LT$T$GT$18get_or_insert_with17h47db32647b5a4b05E	00000000 .text._ZN4core6option15Option$LT$T$GT$18get_or_insert_with17h47db32647b5a4b05E
00000000 l    d  .text._ZN4core6option15Option$LT$T$GT$6expect17h3c6c58cb25d23bacE	00000000 .text._ZN4core6option15Option$LT$T$GT$6expect17h3c6c58cb25d23bacE
00000000 l    d  .text._ZN4core6option15Option$LT$T$GT$6unwrap17hc3ea0e65f4370e8aE	00000000 .text._ZN4core6option15Option$LT$T$GT$6unwrap17hc3ea0e65f4370e8aE
00000000 l    d  .text._ZN68_$LT$core..option..Option$LT$T$GT$$u20$as$u20$core..clone..Clone$GT$5clone17h461a9fbd0c934ef1E	00000000 .text._ZN68_$LT$core..option..Option$LT$T$GT$$u20$as$u20$core..clone..Clone$GT$5clone17h461a9fbd0c934ef1E
00000000 l    d  .text._ZN68_$LT$core..option..Option$LT$T$GT$$u20$as$u20$core..clone..Clone$GT$5clone17h8d881debde4691ceE	00000000 .text._ZN68_$LT$core..option..Option$LT$T$GT$$u20$as$u20$core..clone..Clone$GT$5clone17h8d881debde4691ceE
00000000 l    d  .text._ZN68_$LT$core..option..Option$LT$T$GT$$u20$as$u20$core..clone..Clone$GT$5clone17h942f762d66dee206E	00000000 .text._ZN68_$LT$core..option..Option$LT$T$GT$$u20$as$u20$core..clone..Clone$GT$5clone17h942f762d66dee206E
00000000 l    d  .text._ZN68_$LT$core..option..Option$LT$T$GT$$u20$as$u20$core..clone..Clone$GT$5clone17ha683ed4b4b52525aE	00000000 .text._ZN68_$LT$core..option..Option$LT$T$GT$$u20$as$u20$core..clone..Clone$GT$5clone17ha683ed4b4b52525aE
00000000 l    d  .text._ZN68_$LT$core..option..Option$LT$T$GT$$u20$as$u20$core..clone..Clone$GT$5clone17hdd16c8db13934a5fE	00000000 .text._ZN68_$LT$core..option..Option$LT$T$GT$$u20$as$u20$core..clone..Clone$GT$5clone17hdd16c8db13934a5fE
00000000 l    d  .rodata..Lanon.1af16db3486267b709dc4da8180ba79f.1	00000000 .rodata..Lanon.1af16db3486267b709dc4da8180ba79f.1
00000000 l    d  .debug_loc	00000000 .debug_loc
00000000 l    d  .debug_abbrev	00000000 .debug_abbrev
00000000 l    d  .debug_info	00000000 .debug_info
00000000 l    d  .debug_ranges	00000000 .debug_ranges
00000000 l    d  .debug_frame	00000000 .debug_frame
00000000 l    d  .debug_line	00000000 .debug_line
00000000         *UND*	00000000 _ZN4core3ptr18real_drop_in_place17h0f1df9dfccd8e8e0E
00000000         *UND*	00000000 _ZN4core3ptr18real_drop_in_place17h4f830d78be4150a4E
00000000         *UND*	00000000 .hidden _ZN4core4hint21unreachable_unchecked17h80f296390f374d78E
00000000         *UND*	00000000 .hidden _ZN4core5clone5impls52_$LT$impl$u20$core..clone..Clone$u20$for$u20$f64$GT$5clone17he4621b811c931d8dE
00000000         *UND*	00000000 .hidden _ZN4core5clone5impls52_$LT$impl$u20$core..clone..Clone$u20$for$u20$u32$GT$5clone17h4ab28dfacb141a1cE
00000000         *UND*	00000000 _ZN4core6option13expect_failed17hf5665627dddd4106E
00000000 g     F .text._ZN4core6option15Option$LT$T$GT$13get_or_insert17h41cc8435958c5849E	0000002c _ZN4core6option15Option$LT$T$GT$13get_or_insert17h41cc8435958c5849E
00000000 g     F .text._ZN4core6option15Option$LT$T$GT$13get_or_insert28_$u7b$$u7b$closure$u7d$$u7d$17h0a5ec7ea2b2527beE	00000014 _ZN4core6option15Option$LT$T$GT$13get_or_insert28_$u7b$$u7b$closure$u7d$$u7d$17h0a5ec7ea2b2527beE
00000000 g     F .text._ZN4core6option15Option$LT$T$GT$18get_or_insert_with17h47db32647b5a4b05E	000000be _ZN4core6option15Option$LT$T$GT$18get_or_insert_with17h47db32647b5a4b05E
00000000 g     F .text._ZN4core6option15Option$LT$T$GT$6expect17h3c6c58cb25d23bacE	00000038 _ZN4core6option15Option$LT$T$GT$6expect17h3c6c58cb25d23bacE
00000000 g     F .text._ZN4core6option15Option$LT$T$GT$6unwrap17hc3ea0e65f4370e8aE	00000052 _ZN4core6option15Option$LT$T$GT$6unwrap17hc3ea0e65f4370e8aE
00000000         *UND*	00000000 _ZN4core9panicking5panic17hfdd0eecc44a682f8E
00000000         *UND*	00000000 .hidden _ZN54_$LT$druid..env..Env$u20$as$u20$core..clone..Clone$GT$5clone17h517d6633c620ef92E
00000000 g     F .text._ZN68_$LT$core..option..Option$LT$T$GT$$u20$as$u20$core..clone..Clone$GT$5clone17h461a9fbd0c934ef1E	0000004e _ZN68_$LT$core..option..Option$LT$T$GT$$u20$as$u20$core..clone..Clone$GT$5clone17h461a9fbd0c934ef1E
00000000 g     F .text._ZN68_$LT$core..option..Option$LT$T$GT$$u20$as$u20$core..clone..Clone$GT$5clone17h8d881debde4691ceE	0000003c _ZN68_$LT$core..option..Option$LT$T$GT$$u20$as$u20$core..clone..Clone$GT$5clone17h8d881debde4691ceE
00000000 g     F .text._ZN68_$LT$core..option..Option$LT$T$GT$$u20$as$u20$core..clone..Clone$GT$5clone17h942f762d66dee206E	00000046 _ZN68_$LT$core..option..Option$LT$T$GT$$u20$as$u20$core..clone..Clone$GT$5clone17h942f762d66dee206E
00000000 g     F .text._ZN68_$LT$core..option..Option$LT$T$GT$$u20$as$u20$core..clone..Clone$GT$5clone17ha683ed4b4b52525aE	0000003c _ZN68_$LT$core..option..Option$LT$T$GT$$u20$as$u20$core..clone..Clone$GT$5clone17ha683ed4b4b52525aE
00000000 g     F .text._ZN68_$LT$core..option..Option$LT$T$GT$$u20$as$u20$core..clone..Clone$GT$5clone17hdd16c8db13934a5fE	0000004c _ZN68_$LT$core..option..Option$LT$T$GT$$u20$as$u20$core..clone..Clone$GT$5clone17hdd16c8db13934a5fE
00000000         *UND*	00000000 _ZN70_$LT$heapless..vec..Vec$LT$T$C$N$GT$$u20$as$u20$core..clone..Clone$GT$5clone17h1d6e84718449764aE
00000000         *UND*	00000000 _ZN72_$LT$heapless..string..String$LT$N$GT$$u20$as$u20$core..clone..Clone$GT$5clone17hc124d0dca8e09f9aE



Disassembly of section .text._ZN4core6option15Option$LT$T$GT$13get_or_insert17h41cc8435958c5849E:

00000000 <_ZN4core6option15Option$LT$T$GT$13get_or_insert17h41cc8435958c5849E>:
_ZN4core6option15Option$LT$T$GT$13get_or_insert17h41cc8435958c5849E():
/rustc/412f43ac5b4ae8c3599e71c6972112e9be4758fa/src/libcore/option.rs:816
   0:	b5b0      	push	{r4, r5, r7, lr}
   2:	b08a      	sub	sp, #40	; 0x28
   4:	9002      	str	r0, [sp, #8]
/rustc/412f43ac5b4ae8c3599e71c6972112e9be4758fa/src/libcore/option.rs:817
   6:	9802      	ldr	r0, [sp, #8]
   8:	aa03      	add	r2, sp, #12
   a:	4613      	mov	r3, r2
   c:	e8b1 5010 	ldmia.w	r1!, {r4, ip, lr}
  10:	e8a3 5010 	stmia.w	r3!, {r4, ip, lr}
  14:	e891 5030 	ldmia.w	r1, {r4, r5, ip, lr}
  18:	e883 5030 	stmia.w	r3, {r4, r5, ip, lr}
  1c:	4611      	mov	r1, r2
  1e:	f7ff fffe 	bl	0 <_ZN4core6option15Option$LT$T$GT$13get_or_insert17h41cc8435958c5849E>
  22:	9001      	str	r0, [sp, #4]
  24:	e7ff      	b.n	26 <_ZN4core6option15Option$LT$T$GT$13get_or_insert17h41cc8435958c5849E+0x26>
/rustc/412f43ac5b4ae8c3599e71c6972112e9be4758fa/src/libcore/option.rs:818
  26:	9801      	ldr	r0, [sp, #4]
  28:	b00a      	add	sp, #40	; 0x28
  2a:	bdb0      	pop	{r4, r5, r7, pc}

Disassembly of section .text._ZN4core6option15Option$LT$T$GT$13get_or_insert28_$u7b$$u7b$closure$u7d$$u7d$17h0a5ec7ea2b2527beE:

00000000 <_ZN4core6option15Option$LT$T$GT$13get_or_insert28_$u7b$$u7b$closure$u7d$$u7d$17h0a5ec7ea2b2527beE>:
_ZN4core6option15Option$LT$T$GT$13get_or_insert28_$u7b$$u7b$closure$u7d$$u7d$17h0a5ec7ea2b2527beE():
/rustc/412f43ac5b4ae8c3599e71c6972112e9be4758fa/src/libcore/option.rs:817
   0:	b580      	push	{r7, lr}
   2:	e8b1 100c 	ldmia.w	r1!, {r2, r3, ip}
   6:	e8a0 100c 	stmia.w	r0!, {r2, r3, ip}
   a:	e891 500c 	ldmia.w	r1, {r2, r3, ip, lr}
   e:	e880 500c 	stmia.w	r0, {r2, r3, ip, lr}
  12:	bd80      	pop	{r7, pc}

Disassembly of section .text._ZN4core6option15Option$LT$T$GT$18get_or_insert_with17h47db32647b5a4b05E:

00000000 <_ZN4core6option15Option$LT$T$GT$18get_or_insert_with17h47db32647b5a4b05E>:
_ZN4core6option15Option$LT$T$GT$18get_or_insert_with17h47db32647b5a4b05E():
/rustc/412f43ac5b4ae8c3599e71c6972112e9be4758fa/src/libcore/option.rs:841
   0:	b510      	push	{r4, lr}
   2:	b09c      	sub	sp, #112	; 0x70
   4:	9003      	str	r0, [sp, #12]
   6:	2000      	movs	r0, #0
/rustc/412f43ac5b4ae8c3599e71c6972112e9be4758fa/src/libcore/option.rs:846
   8:	f88d 006f 	strb.w	r0, [sp, #111]	; 0x6f
   c:	2001      	movs	r0, #1
   e:	f88d 006f 	strb.w	r0, [sp, #111]	; 0x6f
/rustc/412f43ac5b4ae8c3599e71c6972112e9be4758fa/src/libcore/option.rs:842
  12:	9803      	ldr	r0, [sp, #12]
  14:	6800      	ldr	r0, [r0, #0]
  16:	2800      	cmp	r0, #0
  18:	9102      	str	r1, [sp, #8]
  1a:	d126      	bne.n	6a <_ZN4core6option15Option$LT$T$GT$18get_or_insert_with17h47db32647b5a4b05E+0x6a>
  1c:	e7ff      	b.n	1e <_ZN4core6option15Option$LT$T$GT$18get_or_insert_with17h47db32647b5a4b05E+0x1e>
  1e:	2000      	movs	r0, #0
/rustc/412f43ac5b4ae8c3599e71c6972112e9be4758fa/src/libcore/option.rs:843
  20:	f88d 006f 	strb.w	r0, [sp, #111]	; 0x6f
  24:	a813      	add	r0, sp, #76	; 0x4c
  26:	4601      	mov	r1, r0
  28:	9a02      	ldr	r2, [sp, #8]
  2a:	e8b2 5008 	ldmia.w	r2!, {r3, ip, lr}
  2e:	e8a1 5008 	stmia.w	r1!, {r3, ip, lr}
  32:	e892 5018 	ldmia.w	r2, {r3, r4, ip, lr}
  36:	e881 5018 	stmia.w	r1, {r3, r4, ip, lr}
  3a:	a90c      	add	r1, sp, #48	; 0x30
  3c:	9001      	str	r0, [sp, #4]
  3e:	4608      	mov	r0, r1
  40:	9901      	ldr	r1, [sp, #4]
  42:	f7ff fffe 	bl	0 <_ZN4core6option15Option$LT$T$GT$18get_or_insert_with17h47db32647b5a4b05E>
  46:	e7ff      	b.n	48 <_ZN4core6option15Option$LT$T$GT$18get_or_insert_with17h47db32647b5a4b05E+0x48>
  48:	a804      	add	r0, sp, #16
  4a:	3004      	adds	r0, #4
  4c:	a90c      	add	r1, sp, #48	; 0x30
  4e:	e8b1 100c 	ldmia.w	r1!, {r2, r3, ip}
  52:	e8a0 100c 	stmia.w	r0!, {r2, r3, ip}
  56:	e891 500c 	ldmia.w	r1, {r2, r3, ip, lr}
  5a:	e880 500c 	stmia.w	r0, {r2, r3, ip, lr}
  5e:	2001      	movs	r0, #1
  60:	9004      	str	r0, [sp, #16]
  62:	9803      	ldr	r0, [sp, #12]
  64:	f7ff fffe 	bl	0 <_ZN4core3ptr18real_drop_in_place17h4f830d78be4150a4E>
  68:	e017      	b.n	9a <_ZN4core6option15Option$LT$T$GT$18get_or_insert_with17h47db32647b5a4b05E+0x9a>
/rustc/412f43ac5b4ae8c3599e71c6972112e9be4758fa/src/libcore/option.rs:847
  6a:	9803      	ldr	r0, [sp, #12]
  6c:	6800      	ldr	r0, [r0, #0]
  6e:	2800      	cmp	r0, #0
  70:	d001      	beq.n	76 <_ZN4core6option15Option$LT$T$GT$18get_or_insert_with17h47db32647b5a4b05E+0x76>
  72:	e7ff      	b.n	74 <_ZN4core6option15Option$LT$T$GT$18get_or_insert_with17h47db32647b5a4b05E+0x74>
  74:	e003      	b.n	7e <_ZN4core6option15Option$LT$T$GT$18get_or_insert_with17h47db32647b5a4b05E+0x7e>
/rustc/412f43ac5b4ae8c3599e71c6972112e9be4758fa/src/libcore/option.rs:848
  76:	f7ff fffe 	bl	0 <_ZN4core4hint21unreachable_unchecked17h80f296390f374d78E>
  7a:	defe      	udf	#254	; 0xfe
/rustc/412f43ac5b4ae8c3599e71c6972112e9be4758fa/src/libcore/option.rs:846
  7c:	defe      	udf	#254	; 0xfe
/rustc/412f43ac5b4ae8c3599e71c6972112e9be4758fa/src/libcore/option.rs:847
  7e:	9803      	ldr	r0, [sp, #12]
  80:	3004      	adds	r0, #4
  82:	901a      	str	r0, [sp, #104]	; 0x68
  84:	981a      	ldr	r0, [sp, #104]	; 0x68
/rustc/412f43ac5b4ae8c3599e71c6972112e9be4758fa/src/libcore/option.rs:850
  86:	f89d 106f 	ldrb.w	r1, [sp, #111]	; 0x6f
  8a:	07c9      	lsls	r1, r1, #31
  8c:	2900      	cmp	r1, #0
  8e:	9000      	str	r0, [sp, #0]
  90:	d10e      	bne.n	b0 <_ZN4core6option15Option$LT$T$GT$18get_or_insert_with17h47db32647b5a4b05E+0xb0>
  92:	e7ff      	b.n	94 <_ZN4core6option15Option$LT$T$GT$18get_or_insert_with17h47db32647b5a4b05E+0x94>
  94:	9800      	ldr	r0, [sp, #0]
  96:	b01c      	add	sp, #112	; 0x70
  98:	bd10      	pop	{r4, pc}
/rustc/412f43ac5b4ae8c3599e71c6972112e9be4758fa/src/libcore/option.rs:843
  9a:	9803      	ldr	r0, [sp, #12]
  9c:	a904      	add	r1, sp, #16
  9e:	e8b1 500c 	ldmia.w	r1!, {r2, r3, ip, lr}
  a2:	e8a0 500c 	stmia.w	r0!, {r2, r3, ip, lr}
  a6:	e891 500c 	ldmia.w	r1, {r2, r3, ip, lr}
  aa:	e880 500c 	stmia.w	r0, {r2, r3, ip, lr}
/rustc/412f43ac5b4ae8c3599e71c6972112e9be4758fa/src/libcore/option.rs:842
  ae:	e7dc      	b.n	6a <_ZN4core6option15Option$LT$T$GT$18get_or_insert_with17h47db32647b5a4b05E+0x6a>
  b0:	2000      	movs	r0, #0
/rustc/412f43ac5b4ae8c3599e71c6972112e9be4758fa/src/libcore/option.rs:850
  b2:	f88d 006f 	strb.w	r0, [sp, #111]	; 0x6f
  b6:	9802      	ldr	r0, [sp, #8]
  b8:	f7ff fffe 	bl	0 <_ZN4core3ptr18real_drop_in_place17h0f1df9dfccd8e8e0E>
  bc:	e7ea      	b.n	94 <_ZN4core6option15Option$LT$T$GT$18get_or_insert_with17h47db32647b5a4b05E+0x94>

Disassembly of section .text._ZN4core6option15Option$LT$T$GT$6expect17h3c6c58cb25d23bacE:

00000000 <_ZN4core6option15Option$LT$T$GT$6expect17h3c6c58cb25d23bacE>:
_ZN4core6option15Option$LT$T$GT$6expect17h3c6c58cb25d23bacE():
/rustc/412f43ac5b4ae8c3599e71c6972112e9be4758fa/src/libcore/option.rs:344
   0:	b086      	sub	sp, #24
   2:	9001      	str	r0, [sp, #4]
   4:	9102      	str	r1, [sp, #8]
   6:	9203      	str	r2, [sp, #12]
   8:	9304      	str	r3, [sp, #16]
/rustc/412f43ac5b4ae8c3599e71c6972112e9be4758fa/src/libcore/option.rs:346
   a:	9801      	ldr	r0, [sp, #4]
   c:	2800      	cmp	r0, #0
   e:	d001      	beq.n	14 <_ZN4core6option15Option$LT$T$GT$6expect17h3c6c58cb25d23bacE+0x14>
  10:	e7ff      	b.n	12 <_ZN4core6option15Option$LT$T$GT$6expect17h3c6c58cb25d23bacE+0x12>
  12:	e005      	b.n	20 <_ZN4core6option15Option$LT$T$GT$6expect17h3c6c58cb25d23bacE+0x20>
/rustc/412f43ac5b4ae8c3599e71c6972112e9be4758fa/src/libcore/option.rs:347
  14:	9803      	ldr	r0, [sp, #12]
  16:	9904      	ldr	r1, [sp, #16]
  18:	f7ff fffe 	bl	0 <_ZN4core6option13expect_failed17hf5665627dddd4106E>
  1c:	defe      	udf	#254	; 0xfe
/rustc/412f43ac5b4ae8c3599e71c6972112e9be4758fa/src/libcore/option.rs:345
  1e:	defe      	udf	#254	; 0xfe
/rustc/412f43ac5b4ae8c3599e71c6972112e9be4758fa/src/libcore/option.rs:346
  20:	9802      	ldr	r0, [sp, #8]
  22:	9005      	str	r0, [sp, #20]
  24:	9805      	ldr	r0, [sp, #20]
/rustc/412f43ac5b4ae8c3599e71c6972112e9be4758fa/src/libcore/option.rs:349
  26:	9901      	ldr	r1, [sp, #4]
  28:	2901      	cmp	r1, #1
  2a:	9000      	str	r0, [sp, #0]
  2c:	d103      	bne.n	36 <_ZN4core6option15Option$LT$T$GT$6expect17h3c6c58cb25d23bacE+0x36>
  2e:	e7ff      	b.n	30 <_ZN4core6option15Option$LT$T$GT$6expect17h3c6c58cb25d23bacE+0x30>
  30:	9800      	ldr	r0, [sp, #0]
  32:	b006      	add	sp, #24
  34:	4770      	bx	lr
  36:	e7fb      	b.n	30 <_ZN4core6option15Option$LT$T$GT$6expect17h3c6c58cb25d23bacE+0x30>

Disassembly of section .text._ZN4core6option15Option$LT$T$GT$6unwrap17hc3ea0e65f4370e8aE:

00000000 <_ZN4core6option15Option$LT$T$GT$6unwrap17hc3ea0e65f4370e8aE>:
_ZN4core6option15Option$LT$T$GT$6unwrap17hc3ea0e65f4370e8aE():
/rustc/412f43ac5b4ae8c3599e71c6972112e9be4758fa/src/libcore/option.rs:377
   0:	b086      	sub	sp, #24
   2:	9003      	str	r0, [sp, #12]
/rustc/412f43ac5b4ae8c3599e71c6972112e9be4758fa/src/libcore/option.rs:379
   4:	9803      	ldr	r0, [sp, #12]
   6:	2800      	cmp	r0, #0
   8:	4601      	mov	r1, r0
   a:	bf18      	it	ne
   c:	2101      	movne	r1, #1
   e:	2800      	cmp	r0, #0
  10:	d001      	beq.n	16 <_ZN4core6option15Option$LT$T$GT$6unwrap17hc3ea0e65f4370e8aE+0x16>
  12:	e7ff      	b.n	14 <_ZN4core6option15Option$LT$T$GT$6unwrap17hc3ea0e65f4370e8aE+0x14>
  14:	e008      	b.n	28 <_ZN4core6option15Option$LT$T$GT$6unwrap17hc3ea0e65f4370e8aE+0x28>
/rustc/412f43ac5b4ae8c3599e71c6972112e9be4758fa/src/libcore/macros/mod.rs:15
  16:	f240 0000 	movw	r0, #0
  1a:	f2c0 0000 	movt	r0, #0
  1e:	9005      	str	r0, [sp, #20]
  20:	9a05      	ldr	r2, [sp, #20]
  22:	9202      	str	r2, [sp, #8]
  24:	e008      	b.n	38 <_ZN4core6option15Option$LT$T$GT$6unwrap17hc3ea0e65f4370e8aE+0x38>
/rustc/412f43ac5b4ae8c3599e71c6972112e9be4758fa/src/libcore/option.rs:378
  26:	defe      	udf	#254	; 0xfe
/rustc/412f43ac5b4ae8c3599e71c6972112e9be4758fa/src/libcore/option.rs:379
  28:	9803      	ldr	r0, [sp, #12]
  2a:	9004      	str	r0, [sp, #16]
  2c:	9804      	ldr	r0, [sp, #16]
/rustc/412f43ac5b4ae8c3599e71c6972112e9be4758fa/src/libcore/option.rs:382
  2e:	9903      	ldr	r1, [sp, #12]
  30:	2900      	cmp	r1, #0
  32:	9001      	str	r0, [sp, #4]
  34:	d109      	bne.n	4a <_ZN4core6option15Option$LT$T$GT$6unwrap17hc3ea0e65f4370e8aE+0x4a>
  36:	e00b      	b.n	50 <_ZN4core6option15Option$LT$T$GT$6unwrap17hc3ea0e65f4370e8aE+0x50>
/rustc/412f43ac5b4ae8c3599e71c6972112e9be4758fa/src/libcore/macros/mod.rs:15
  38:	f240 0000 	movw	r0, #0
  3c:	f2c0 0000 	movt	r0, #0
  40:	212b      	movs	r1, #43	; 0x2b
  42:	9a02      	ldr	r2, [sp, #8]
  44:	f7ff fffe 	bl	0 <_ZN4core9panicking5panic17hfdd0eecc44a682f8E>
  48:	defe      	udf	#254	; 0xfe
/rustc/412f43ac5b4ae8c3599e71c6972112e9be4758fa/src/libcore/option.rs:382
  4a:	9801      	ldr	r0, [sp, #4]
  4c:	b006      	add	sp, #24
  4e:	4770      	bx	lr
  50:	e7fb      	b.n	4a <_ZN4core6option15Option$LT$T$GT$6unwrap17hc3ea0e65f4370e8aE+0x4a>

Disassembly of section .text._ZN68_$LT$core..option..Option$LT$T$GT$$u20$as$u20$core..clone..Clone$GT$5clone17h461a9fbd0c934ef1E:

00000000 <_ZN68_$LT$core..option..Option$LT$T$GT$$u20$as$u20$core..clone..Clone$GT$5clone17h461a9fbd0c934ef1E>:
_ZN68_$LT$core..option..Option$LT$T$GT$$u20$as$u20$core..clone..Clone$GT$5clone17h461a9fbd0c934ef1E():
/rustc/412f43ac5b4ae8c3599e71c6972112e9be4758fa/src/libcore/option.rs:1204
   0:	b510      	push	{r4, lr}
   2:	b08a      	sub	sp, #40	; 0x28
   4:	9101      	str	r1, [sp, #4]
/rustc/412f43ac5b4ae8c3599e71c6972112e9be4758fa/src/libcore/option.rs:1206
   6:	9901      	ldr	r1, [sp, #4]
   8:	6809      	ldr	r1, [r1, #0]
   a:	2900      	cmp	r1, #0
   c:	9000      	str	r0, [sp, #0]
   e:	d001      	beq.n	14 <_ZN68_$LT$core..option..Option$LT$T$GT$$u20$as$u20$core..clone..Clone$GT$5clone17h461a9fbd0c934ef1E+0x14>
  10:	e7ff      	b.n	12 <_ZN68_$LT$core..option..Option$LT$T$GT$$u20$as$u20$core..clone..Clone$GT$5clone17h461a9fbd0c934ef1E+0x12>
  12:	e004      	b.n	1e <_ZN68_$LT$core..option..Option$LT$T$GT$$u20$as$u20$core..clone..Clone$GT$5clone17h461a9fbd0c934ef1E+0x1e>
  14:	2000      	movs	r0, #0
/rustc/412f43ac5b4ae8c3599e71c6972112e9be4758fa/src/libcore/option.rs:1207
  16:	9900      	ldr	r1, [sp, #0]
  18:	6008      	str	r0, [r1, #0]
/rustc/412f43ac5b4ae8c3599e71c6972112e9be4758fa/src/libcore/option.rs:1205
  1a:	e016      	b.n	4a <_ZN68_$LT$core..option..Option$LT$T$GT$$u20$as$u20$core..clone..Clone$GT$5clone17h461a9fbd0c934ef1E+0x4a>
  1c:	defe      	udf	#254	; 0xfe
/rustc/412f43ac5b4ae8c3599e71c6972112e9be4758fa/src/libcore/option.rs:1206
  1e:	9801      	ldr	r0, [sp, #4]
  20:	3004      	adds	r0, #4
  22:	9002      	str	r0, [sp, #8]
  24:	9902      	ldr	r1, [sp, #8]
  26:	a803      	add	r0, sp, #12
  28:	f7ff fffe 	bl	0 <_ZN70_$LT$heapless..vec..Vec$LT$T$C$N$GT$$u20$as$u20$core..clone..Clone$GT$5clone17h1d6e84718449764aE>
  2c:	e7ff      	b.n	2e <_ZN68_$LT$core..option..Option$LT$T$GT$$u20$as$u20$core..clone..Clone$GT$5clone17h461a9fbd0c934ef1E+0x2e>
  2e:	9800      	ldr	r0, [sp, #0]
  30:	1d01      	adds	r1, r0, #4
  32:	aa03      	add	r2, sp, #12
  34:	e8b2 5008 	ldmia.w	r2!, {r3, ip, lr}
  38:	e8a1 5008 	stmia.w	r1!, {r3, ip, lr}
  3c:	e892 5018 	ldmia.w	r2, {r3, r4, ip, lr}
  40:	e881 5018 	stmia.w	r1, {r3, r4, ip, lr}
  44:	2101      	movs	r1, #1
  46:	6001      	str	r1, [r0, #0]
/rustc/412f43ac5b4ae8c3599e71c6972112e9be4758fa/src/libcore/option.rs:1205
  48:	e7ff      	b.n	4a <_ZN68_$LT$core..option..Option$LT$T$GT$$u20$as$u20$core..clone..Clone$GT$5clone17h461a9fbd0c934ef1E+0x4a>
/rustc/412f43ac5b4ae8c3599e71c6972112e9be4758fa/src/libcore/option.rs:1209
  4a:	b00a      	add	sp, #40	; 0x28
  4c:	bd10      	pop	{r4, pc}

Disassembly of section .text._ZN68_$LT$core..option..Option$LT$T$GT$$u20$as$u20$core..clone..Clone$GT$5clone17h8d881debde4691ceE:

00000000 <_ZN68_$LT$core..option..Option$LT$T$GT$$u20$as$u20$core..clone..Clone$GT$5clone17h8d881debde4691ceE>:
_ZN68_$LT$core..option..Option$LT$T$GT$$u20$as$u20$core..clone..Clone$GT$5clone17h8d881debde4691ceE():
/rustc/412f43ac5b4ae8c3599e71c6972112e9be4758fa/src/libcore/option.rs:1204
   0:	b580      	push	{r7, lr}
   2:	b084      	sub	sp, #16
   4:	9001      	str	r0, [sp, #4]
/rustc/412f43ac5b4ae8c3599e71c6972112e9be4758fa/src/libcore/option.rs:1206
   6:	9801      	ldr	r0, [sp, #4]
   8:	7800      	ldrb	r0, [r0, #0]
   a:	07c1      	lsls	r1, r0, #31
   c:	2900      	cmp	r1, #0
   e:	d001      	beq.n	14 <_ZN68_$LT$core..option..Option$LT$T$GT$$u20$as$u20$core..clone..Clone$GT$5clone17h8d881debde4691ceE+0x14>
  10:	e7ff      	b.n	12 <_ZN68_$LT$core..option..Option$LT$T$GT$$u20$as$u20$core..clone..Clone$GT$5clone17h8d881debde4691ceE+0x12>
  12:	e004      	b.n	1e <_ZN68_$LT$core..option..Option$LT$T$GT$$u20$as$u20$core..clone..Clone$GT$5clone17h8d881debde4691ceE+0x1e>
  14:	2000      	movs	r0, #0
/rustc/412f43ac5b4ae8c3599e71c6972112e9be4758fa/src/libcore/option.rs:1207
  16:	f88d 000b 	strb.w	r0, [sp, #11]
/rustc/412f43ac5b4ae8c3599e71c6972112e9be4758fa/src/libcore/option.rs:1205
  1a:	e00b      	b.n	34 <_ZN68_$LT$core..option..Option$LT$T$GT$$u20$as$u20$core..clone..Clone$GT$5clone17h8d881debde4691ceE+0x34>
  1c:	defe      	udf	#254	; 0xfe
/rustc/412f43ac5b4ae8c3599e71c6972112e9be4758fa/src/libcore/option.rs:1206
  1e:	9801      	ldr	r0, [sp, #4]
  20:	3001      	adds	r0, #1
  22:	9003      	str	r0, [sp, #12]
  24:	9803      	ldr	r0, [sp, #12]
  26:	f7ff fffe 	bl	0 <_ZN54_$LT$druid..env..Env$u20$as$u20$core..clone..Clone$GT$5clone17h517d6633c620ef92E>
  2a:	e7ff      	b.n	2c <_ZN68_$LT$core..option..Option$LT$T$GT$$u20$as$u20$core..clone..Clone$GT$5clone17h8d881debde4691ceE+0x2c>
  2c:	2001      	movs	r0, #1
  2e:	f88d 000b 	strb.w	r0, [sp, #11]
/rustc/412f43ac5b4ae8c3599e71c6972112e9be4758fa/src/libcore/option.rs:1205
  32:	e7ff      	b.n	34 <_ZN68_$LT$core..option..Option$LT$T$GT$$u20$as$u20$core..clone..Clone$GT$5clone17h8d881debde4691ceE+0x34>
/rustc/412f43ac5b4ae8c3599e71c6972112e9be4758fa/src/libcore/option.rs:1209
  34:	f89d 000b 	ldrb.w	r0, [sp, #11]
  38:	b004      	add	sp, #16
  3a:	bd80      	pop	{r7, pc}

Disassembly of section .text._ZN68_$LT$core..option..Option$LT$T$GT$$u20$as$u20$core..clone..Clone$GT$5clone17h942f762d66dee206E:

00000000 <_ZN68_$LT$core..option..Option$LT$T$GT$$u20$as$u20$core..clone..Clone$GT$5clone17h942f762d66dee206E>:
_ZN68_$LT$core..option..Option$LT$T$GT$$u20$as$u20$core..clone..Clone$GT$5clone17h942f762d66dee206E():
/rustc/412f43ac5b4ae8c3599e71c6972112e9be4758fa/src/libcore/option.rs:1204
   0:	b570      	push	{r4, r5, r6, lr}
   2:	b08a      	sub	sp, #40	; 0x28
   4:	9102      	str	r1, [sp, #8]
/rustc/412f43ac5b4ae8c3599e71c6972112e9be4758fa/src/libcore/option.rs:1206
   6:	9902      	ldr	r1, [sp, #8]
   8:	6809      	ldr	r1, [r1, #0]
   a:	2900      	cmp	r1, #0
   c:	9001      	str	r0, [sp, #4]
   e:	d001      	beq.n	14 <_ZN68_$LT$core..option..Option$LT$T$GT$$u20$as$u20$core..clone..Clone$GT$5clone17h942f762d66dee206E+0x14>
  10:	e7ff      	b.n	12 <_ZN68_$LT$core..option..Option$LT$T$GT$$u20$as$u20$core..clone..Clone$GT$5clone17h942f762d66dee206E+0x12>
  12:	e004      	b.n	1e <_ZN68_$LT$core..option..Option$LT$T$GT$$u20$as$u20$core..clone..Clone$GT$5clone17h942f762d66dee206E+0x1e>
  14:	2000      	movs	r0, #0
/rustc/412f43ac5b4ae8c3599e71c6972112e9be4758fa/src/libcore/option.rs:1207
  16:	9901      	ldr	r1, [sp, #4]
  18:	6008      	str	r0, [r1, #0]
/rustc/412f43ac5b4ae8c3599e71c6972112e9be4758fa/src/libcore/option.rs:1205
  1a:	e012      	b.n	42 <_ZN68_$LT$core..option..Option$LT$T$GT$$u20$as$u20$core..clone..Clone$GT$5clone17h942f762d66dee206E+0x42>
  1c:	defe      	udf	#254	; 0xfe
/rustc/412f43ac5b4ae8c3599e71c6972112e9be4758fa/src/libcore/option.rs:1206
  1e:	9802      	ldr	r0, [sp, #8]
  20:	3004      	adds	r0, #4
  22:	9003      	str	r0, [sp, #12]
  24:	9903      	ldr	r1, [sp, #12]
  26:	a804      	add	r0, sp, #16
  28:	f7ff fffe 	bl	0 <_ZN72_$LT$heapless..string..String$LT$N$GT$$u20$as$u20$core..clone..Clone$GT$5clone17hc124d0dca8e09f9aE>
  2c:	e7ff      	b.n	2e <_ZN68_$LT$core..option..Option$LT$T$GT$$u20$as$u20$core..clone..Clone$GT$5clone17h942f762d66dee206E+0x2e>
  2e:	9801      	ldr	r0, [sp, #4]
  30:	1d01      	adds	r1, r0, #4
  32:	aa04      	add	r2, sp, #16
  34:	e892 5078 	ldmia.w	r2, {r3, r4, r5, r6, ip, lr}
  38:	e881 5078 	stmia.w	r1, {r3, r4, r5, r6, ip, lr}
  3c:	2101      	movs	r1, #1
  3e:	6001      	str	r1, [r0, #0]
/rustc/412f43ac5b4ae8c3599e71c6972112e9be4758fa/src/libcore/option.rs:1205
  40:	e7ff      	b.n	42 <_ZN68_$LT$core..option..Option$LT$T$GT$$u20$as$u20$core..clone..Clone$GT$5clone17h942f762d66dee206E+0x42>
/rustc/412f43ac5b4ae8c3599e71c6972112e9be4758fa/src/libcore/option.rs:1209
  42:	b00a      	add	sp, #40	; 0x28
  44:	bd70      	pop	{r4, r5, r6, pc}

Disassembly of section .text._ZN68_$LT$core..option..Option$LT$T$GT$$u20$as$u20$core..clone..Clone$GT$5clone17ha683ed4b4b52525aE:

00000000 <_ZN68_$LT$core..option..Option$LT$T$GT$$u20$as$u20$core..clone..Clone$GT$5clone17ha683ed4b4b52525aE>:
_ZN68_$LT$core..option..Option$LT$T$GT$$u20$as$u20$core..clone..Clone$GT$5clone17ha683ed4b4b52525aE():
/rustc/412f43ac5b4ae8c3599e71c6972112e9be4758fa/src/libcore/option.rs:1204
   0:	b580      	push	{r7, lr}
   2:	b086      	sub	sp, #24
   4:	9002      	str	r0, [sp, #8]
/rustc/412f43ac5b4ae8c3599e71c6972112e9be4758fa/src/libcore/option.rs:1206
   6:	9802      	ldr	r0, [sp, #8]
   8:	6800      	ldr	r0, [r0, #0]
   a:	2800      	cmp	r0, #0
   c:	d001      	beq.n	12 <_ZN68_$LT$core..option..Option$LT$T$GT$$u20$as$u20$core..clone..Clone$GT$5clone17ha683ed4b4b52525aE+0x12>
   e:	e7ff      	b.n	10 <_ZN68_$LT$core..option..Option$LT$T$GT$$u20$as$u20$core..clone..Clone$GT$5clone17ha683ed4b4b52525aE+0x10>
  10:	e003      	b.n	1a <_ZN68_$LT$core..option..Option$LT$T$GT$$u20$as$u20$core..clone..Clone$GT$5clone17ha683ed4b4b52525aE+0x1a>
  12:	2000      	movs	r0, #0
/rustc/412f43ac5b4ae8c3599e71c6972112e9be4758fa/src/libcore/option.rs:1207
  14:	9003      	str	r0, [sp, #12]
/rustc/412f43ac5b4ae8c3599e71c6972112e9be4758fa/src/libcore/option.rs:1205
  16:	e00d      	b.n	34 <_ZN68_$LT$core..option..Option$LT$T$GT$$u20$as$u20$core..clone..Clone$GT$5clone17ha683ed4b4b52525aE+0x34>
  18:	defe      	udf	#254	; 0xfe
/rustc/412f43ac5b4ae8c3599e71c6972112e9be4758fa/src/libcore/option.rs:1206
  1a:	9802      	ldr	r0, [sp, #8]
  1c:	3004      	adds	r0, #4
  1e:	9005      	str	r0, [sp, #20]
  20:	9805      	ldr	r0, [sp, #20]
  22:	f7ff fffe 	bl	0 <_ZN4core5clone5impls52_$LT$impl$u20$core..clone..Clone$u20$for$u20$u32$GT$5clone17h4ab28dfacb141a1cE>
  26:	9001      	str	r0, [sp, #4]
  28:	e7ff      	b.n	2a <_ZN68_$LT$core..option..Option$LT$T$GT$$u20$as$u20$core..clone..Clone$GT$5clone17ha683ed4b4b52525aE+0x2a>
  2a:	9801      	ldr	r0, [sp, #4]
  2c:	9004      	str	r0, [sp, #16]
  2e:	2101      	movs	r1, #1
  30:	9103      	str	r1, [sp, #12]
/rustc/412f43ac5b4ae8c3599e71c6972112e9be4758fa/src/libcore/option.rs:1205
  32:	e7ff      	b.n	34 <_ZN68_$LT$core..option..Option$LT$T$GT$$u20$as$u20$core..clone..Clone$GT$5clone17ha683ed4b4b52525aE+0x34>
/rustc/412f43ac5b4ae8c3599e71c6972112e9be4758fa/src/libcore/option.rs:1209
  34:	9803      	ldr	r0, [sp, #12]
  36:	9904      	ldr	r1, [sp, #16]
  38:	b006      	add	sp, #24
  3a:	bd80      	pop	{r7, pc}

Disassembly of section .text._ZN68_$LT$core..option..Option$LT$T$GT$$u20$as$u20$core..clone..Clone$GT$5clone17hdd16c8db13934a5fE:

00000000 <_ZN68_$LT$core..option..Option$LT$T$GT$$u20$as$u20$core..clone..Clone$GT$5clone17hdd16c8db13934a5fE>:
_ZN68_$LT$core..option..Option$LT$T$GT$$u20$as$u20$core..clone..Clone$GT$5clone17hdd16c8db13934a5fE():
/rustc/412f43ac5b4ae8c3599e71c6972112e9be4758fa/src/libcore/option.rs:1204
   0:	b580      	push	{r7, lr}
   2:	b08a      	sub	sp, #40	; 0x28
   4:	9003      	str	r0, [sp, #12]
/rustc/412f43ac5b4ae8c3599e71c6972112e9be4758fa/src/libcore/option.rs:1206
   6:	9803      	ldr	r0, [sp, #12]
   8:	6800      	ldr	r0, [r0, #0]
   a:	2800      	cmp	r0, #0
   c:	d001      	beq.n	12 <_ZN68_$LT$core..option..Option$LT$T$GT$$u20$as$u20$core..clone..Clone$GT$5clone17hdd16c8db13934a5fE+0x12>
   e:	e7ff      	b.n	10 <_ZN68_$LT$core..option..Option$LT$T$GT$$u20$as$u20$core..clone..Clone$GT$5clone17hdd16c8db13934a5fE+0x10>
  10:	e004      	b.n	1c <_ZN68_$LT$core..option..Option$LT$T$GT$$u20$as$u20$core..clone..Clone$GT$5clone17hdd16c8db13934a5fE+0x1c>
  12:	2000      	movs	r0, #0
/rustc/412f43ac5b4ae8c3599e71c6972112e9be4758fa/src/libcore/option.rs:1207
  14:	9005      	str	r0, [sp, #20]
  16:	9004      	str	r0, [sp, #16]
/rustc/412f43ac5b4ae8c3599e71c6972112e9be4758fa/src/libcore/option.rs:1205
  18:	e012      	b.n	40 <_ZN68_$LT$core..option..Option$LT$T$GT$$u20$as$u20$core..clone..Clone$GT$5clone17hdd16c8db13934a5fE+0x40>
  1a:	defe      	udf	#254	; 0xfe
/rustc/412f43ac5b4ae8c3599e71c6972112e9be4758fa/src/libcore/option.rs:1206
  1c:	9803      	ldr	r0, [sp, #12]
  1e:	3008      	adds	r0, #8
  20:	9009      	str	r0, [sp, #36]	; 0x24
  22:	9809      	ldr	r0, [sp, #36]	; 0x24
  24:	f7ff fffe 	bl	0 <_ZN4core5clone5impls52_$LT$impl$u20$core..clone..Clone$u20$for$u20$f64$GT$5clone17he4621b811c931d8dE>
  28:	ed8d 0b00 	vstr	d0, [sp]
  2c:	e7ff      	b.n	2e <_ZN68_$LT$core..option..Option$LT$T$GT$$u20$as$u20$core..clone..Clone$GT$5clone17hdd16c8db13934a5fE+0x2e>
  2e:	ed9d 0b00 	vldr	d0, [sp]
  32:	ed8d 0b06 	vstr	d0, [sp, #24]
  36:	2000      	movs	r0, #0
  38:	9005      	str	r0, [sp, #20]
  3a:	2001      	movs	r0, #1
  3c:	9004      	str	r0, [sp, #16]
/rustc/412f43ac5b4ae8c3599e71c6972112e9be4758fa/src/libcore/option.rs:1205
  3e:	e7ff      	b.n	40 <_ZN68_$LT$core..option..Option$LT$T$GT$$u20$as$u20$core..clone..Clone$GT$5clone17hdd16c8db13934a5fE+0x40>
/rustc/412f43ac5b4ae8c3599e71c6972112e9be4758fa/src/libcore/option.rs:1209
  40:	9804      	ldr	r0, [sp, #16]
  42:	9905      	ldr	r1, [sp, #20]
  44:	ed9d 0b06 	vldr	d0, [sp, #24]
  48:	b00a      	add	sp, #40	; 0x28
  4a:	bd80      	pop	{r7, pc}

app-20d859f505b9d0c6.3pndmrs1t1kke272.rcgu.o:     file format elf32-littlearm

SYMBOL TABLE:
00000000 l    df *ABS*	00000000 3pndmrs1t1kke272
0000019f l       .debug_str	00000000 
000004d5 l       .debug_str	00000000 
00000618 l       .debug_str	00000000 
000004d3 l       .debug_str	00000000 
000005ce l       .debug_str	00000000 
000004cd l       .debug_str	00000000 
000005c9 l       .debug_str	00000000 
000004c4 l       .debug_str	00000000 
00000599 l       .debug_str	00000000 
000004bf l       .debug_str	00000000 
00000545 l       .debug_str	00000000 
000004b9 l       .debug_str	00000000 
00000000 l       .debug_str	00000000 
00000041 l       .debug_str	00000000 
00000055 l       .debug_str	00000000 
00000074 l       .debug_str	00000000 
00000080 l       .debug_str	00000000 
00000087 l       .debug_str	00000000 
00000094 l       .debug_str	00000000 
00000098 l       .debug_str	00000000 
000000a1 l       .debug_str	00000000 
000000aa l       .debug_str	00000000 
000000b4 l       .debug_str	00000000 
000000b8 l       .debug_str	00000000 
000000be l       .debug_str	00000000 
000000c6 l       .debug_str	00000000 
000000cc l       .debug_str	00000000 
000000d8 l       .debug_str	00000000 
000000e1 l       .debug_str	00000000 
000000e9 l       .debug_str	00000000 
000000ee l       .debug_str	00000000 
000000f5 l       .debug_str	00000000 
000000f7 l       .debug_str	00000000 
00000108 l       .debug_str	00000000 
0000011a l       .debug_str	00000000 
00000123 l       .debug_str	00000000 
00000156 l       .debug_str	00000000 
0000018a l       .debug_str	00000000 
0000018f l       .debug_str	00000000 
00000195 l       .debug_str	00000000 
0000019b l       .debug_str	00000000 
000004b2 l       .debug_str	00000000 
000001a6 l       .debug_str	00000000 
000001ab l       .debug_str	00000000 
000001de l       .debug_str	00000000 
00000213 l       .debug_str	00000000 
00000217 l       .debug_str	00000000 
00000251 l       .debug_str	00000000 
00000288 l       .debug_str	00000000 
000002d7 l       .debug_str	00000000 
00000303 l       .debug_str	00000000 
0000035b l       .debug_str	00000000 
0000038e l       .debug_str	00000000 
000003dd l       .debug_str	00000000 
00000408 l       .debug_str	00000000 
00000459 l       .debug_str	00000000 
00000486 l       .debug_str	00000000 
0000048d l       .debug_str	00000000 
00000490 l       .debug_str	00000000 
00000496 l       .debug_str	00000000 
0000049c l       .debug_str	00000000 
000004a5 l       .debug_str	00000000 
000004a8 l       .debug_str	00000000 
000004d9 l       .debug_str	00000000 
00000000 l    d  .text._ZN11druid_shell6window12WindowHandle17h043415122793ea5bE	00000000 .text._ZN11druid_shell6window12WindowHandle17h043415122793ea5bE
00000000 l    d  .text._ZN11druid_shell6window28WindowHandle$LT$THandler$GT$4show17h9af61d23457cc3bbE	00000000 .text._ZN11druid_shell6window28WindowHandle$LT$THandler$GT$4show17h9af61d23457cc3bbE
00000000 l    d  .text._ZN11druid_shell6window29WindowBuilder$LT$THandler$GT$11set_handler17h67933d86f8f12933E	00000000 .text._ZN11druid_shell6window29WindowBuilder$LT$THandler$GT$11set_handler17h67933d86f8f12933E
00000000 l    d  .text._ZN11druid_shell6window29WindowBuilder$LT$THandler$GT$3new17h4406d208b44714d8E	00000000 .text._ZN11druid_shell6window29WindowBuilder$LT$THandler$GT$3new17h4406d208b44714d8E
00000000 l    d  .text._ZN11druid_shell6window29WindowBuilder$LT$THandler$GT$5build17h872a7ee8a7b6109aE	00000000 .text._ZN11druid_shell6window29WindowBuilder$LT$THandler$GT$5build17h872a7ee8a7b6109aE
00000000 l    d  .text._ZN11druid_shell6window29WindowBuilder$LT$THandler$GT$8set_size17h0b2954efa66d167fE	00000000 .text._ZN11druid_shell6window29WindowBuilder$LT$THandler$GT$8set_size17h0b2954efa66d167fE
00000000 l    d  .debug_loc	00000000 .debug_loc
00000000 l    d  .debug_abbrev	00000000 .debug_abbrev
00000000 l    d  .debug_info	00000000 .debug_info
00000000 l    d  .debug_ranges	00000000 .debug_ranges
00000000 l    d  .debug_frame	00000000 .debug_frame
00000000 l    d  .debug_line	00000000 .debug_line
00000000 g     F .text._ZN11druid_shell6window12WindowHandle17h043415122793ea5bE	0000000e _ZN11druid_shell6window12WindowHandle17h043415122793ea5bE
00000000 g     F .text._ZN11druid_shell6window28WindowHandle$LT$THandler$GT$4show17h9af61d23457cc3bbE	00000012 _ZN11druid_shell6window28WindowHandle$LT$THandler$GT$4show17h9af61d23457cc3bbE
00000000 g     F .text._ZN11druid_shell6window29WindowBuilder$LT$THandler$GT$11set_handler17h67933d86f8f12933E	00000016 _ZN11druid_shell6window29WindowBuilder$LT$THandler$GT$11set_handler17h67933d86f8f12933E
00000000 g     F .text._ZN11druid_shell6window29WindowBuilder$LT$THandler$GT$3new17h4406d208b44714d8E	00000020 _ZN11druid_shell6window29WindowBuilder$LT$THandler$GT$3new17h4406d208b44714d8E
00000000 g     F .text._ZN11druid_shell6window29WindowBuilder$LT$THandler$GT$5build17h872a7ee8a7b6109aE	00000036 _ZN11druid_shell6window29WindowBuilder$LT$THandler$GT$5build17h872a7ee8a7b6109aE
00000000 g     F .text._ZN11druid_shell6window29WindowBuilder$LT$THandler$GT$8set_size17h0b2954efa66d167fE	00000022 _ZN11druid_shell6window29WindowBuilder$LT$THandler$GT$8set_size17h0b2954efa66d167fE
00000000         *UND*	00000000 _ZN11druid_shell8platform8embedded6window28WindowHandle$LT$THandler$GT$4show17h2b29b778cd31ab0dE
00000000         *UND*	00000000 _ZN11druid_shell8platform8embedded6window29WindowBuilder$LT$THandler$GT$11set_handler17he6d25920559607ecE
00000000         *UND*	00000000 _ZN11druid_shell8platform8embedded6window29WindowBuilder$LT$THandler$GT$3new17h483bf444a03bc0c1E
00000000         *UND*	00000000 _ZN11druid_shell8platform8embedded6window29WindowBuilder$LT$THandler$GT$5build17hd840456430c07e5aE
00000000         *UND*	00000000 _ZN11druid_shell8platform8embedded6window29WindowBuilder$LT$THandler$GT$8set_size17h27bcba818af5aa8cE
00000000         *UND*	00000000 _ZN4core6result19Result$LT$T$C$E$GT$3map17h7cf550ff2fcaa9beE
00000000         *UND*	00000000 _ZN4core6result19Result$LT$T$C$E$GT$7map_err17haeeea911c5fb8ea0E



Disassembly of section .text._ZN11druid_shell6window12WindowHandle17h043415122793ea5bE:

00000000 <_ZN11druid_shell6window12WindowHandle17h043415122793ea5bE>:
_ZN11druid_shell6window12WindowHandle17h043415122793ea5bE():
C:\druid-embedded\druid-shell\src/window.rs:77
    }
*/ ////

/// A handle to a platform window object.
#[derive(Clone, Default)]
pub struct WindowHandle<THandler: WinHandler<THandler> + Clone + Default> (  ////  THandler is DruidHandler<T: Data + 'static>
   0:	680a      	ldr	r2, [r1, #0]
   2:	684b      	ldr	r3, [r1, #4]
   4:	6889      	ldr	r1, [r1, #8]
   6:	6081      	str	r1, [r0, #8]
   8:	6043      	str	r3, [r0, #4]
   a:	6002      	str	r2, [r0, #0]
   c:	4770      	bx	lr

Disassembly of section .text._ZN11druid_shell6window28WindowHandle$LT$THandler$GT$4show17h9af61d23457cc3bbE:

00000000 <_ZN11druid_shell6window28WindowHandle$LT$THandler$GT$4show17h9af61d23457cc3bbE>:
_ZN11druid_shell6window28WindowHandle$LT$THandler$GT$4show17h9af61d23457cc3bbE():
C:\druid-embedded\druid-shell\src/window.rs:87
impl<THandler: WinHandler<THandler> + Clone + Default> WindowHandle<THandler> {  ////  THandler is DruidHandler<T: Data + 'static>
    /// Make this window visible.
    ///
    /// This is part of the initialization process; it should only be called
    /// once, when a window is first created.
    pub fn show(&self) {
   0:	b580      	push	{r7, lr}
   2:	b082      	sub	sp, #8
   4:	9001      	str	r0, [sp, #4]
C:\druid-embedded\druid-shell\src/window.rs:88
        self.0.show()
   6:	9801      	ldr	r0, [sp, #4]
   8:	f7ff fffe 	bl	0 <_ZN11druid_shell8platform8embedded6window28WindowHandle$LT$THandler$GT$4show17h2b29b778cd31ab0dE>
   c:	e7ff      	b.n	e <_ZN11druid_shell6window28WindowHandle$LT$THandler$GT$4show17h9af61d23457cc3bbE+0xe>
C:\druid-embedded\druid-shell\src/window.rs:89
    }
   e:	b002      	add	sp, #8
  10:	bd80      	pop	{r7, pc}

Disassembly of section .text._ZN11druid_shell6window29WindowBuilder$LT$THandler$GT$11set_handler17h67933d86f8f12933E:

00000000 <_ZN11druid_shell6window29WindowBuilder$LT$THandler$GT$11set_handler17h67933d86f8f12933E>:
_ZN11druid_shell6window29WindowBuilder$LT$THandler$GT$11set_handler17h67933d86f8f12933E():
C:\druid-embedded\druid-shell\src/window.rs:160

    /// Set the [`WinHandler`]. This is the object that will receive
    /// callbacks from this window.
    ///
    /// [`WinHandler`]: trait.WinHandler.html
    pub fn set_handler(&mut self, handler: THandler) { ////
   0:	b580      	push	{r7, lr}
   2:	b082      	sub	sp, #8
   4:	9000      	str	r0, [sp, #0]
   6:	9101      	str	r1, [sp, #4]
C:\druid-embedded\druid-shell\src/window.rs:162
    ////pub fn set_handler(&mut self, handler: Box<dyn WinHandler>) {
        self.0.set_handler(handler)
   8:	9800      	ldr	r0, [sp, #0]
   a:	9901      	ldr	r1, [sp, #4]
   c:	f7ff fffe 	bl	0 <_ZN11druid_shell8platform8embedded6window29WindowBuilder$LT$THandler$GT$11set_handler17he6d25920559607ecE>
  10:	e7ff      	b.n	12 <_ZN11druid_shell6window29WindowBuilder$LT$THandler$GT$11set_handler17h67933d86f8f12933E+0x12>
C:\druid-embedded\druid-shell\src/window.rs:163
    }
  12:	b002      	add	sp, #8
  14:	bd80      	pop	{r7, pc}

Disassembly of section .text._ZN11druid_shell6window29WindowBuilder$LT$THandler$GT$3new17h4406d208b44714d8E:

00000000 <_ZN11druid_shell6window29WindowBuilder$LT$THandler$GT$3new17h4406d208b44714d8E>:
_ZN11druid_shell6window29WindowBuilder$LT$THandler$GT$3new17h4406d208b44714d8E():
C:\druid-embedded\druid-shell\src/window.rs:148
    pub fn new() -> Self { ////
   0:	b5b0      	push	{r4, r5, r7, lr}
   2:	b088      	sub	sp, #32
   4:	a902      	add	r1, sp, #8
C:\druid-embedded\druid-shell\src/window.rs:151
            platform::WindowBuilder::new(),
   6:	9001      	str	r0, [sp, #4]
   8:	4608      	mov	r0, r1
   a:	f7ff fffe 	bl	0 <_ZN11druid_shell8platform8embedded6window29WindowBuilder$LT$THandler$GT$3new17h483bf444a03bc0c1E>
   e:	e7ff      	b.n	10 <_ZN11druid_shell6window29WindowBuilder$LT$THandler$GT$3new17h4406d208b44714d8E+0x10>
  10:	a802      	add	r0, sp, #8
C:\druid-embedded\druid-shell\src/window.rs:150
        WindowBuilder(
  12:	9901      	ldr	r1, [sp, #4]
  14:	e890 503c 	ldmia.w	r0, {r2, r3, r4, r5, ip, lr}
  18:	e881 503c 	stmia.w	r1, {r2, r3, r4, r5, ip, lr}
C:\druid-embedded\druid-shell\src/window.rs:154
    }
  1c:	b008      	add	sp, #32
  1e:	bdb0      	pop	{r4, r5, r7, pc}

Disassembly of section .text._ZN11druid_shell6window29WindowBuilder$LT$THandler$GT$5build17h872a7ee8a7b6109aE:

00000000 <_ZN11druid_shell6window29WindowBuilder$LT$THandler$GT$5build17h872a7ee8a7b6109aE>:
_ZN11druid_shell6window29WindowBuilder$LT$THandler$GT$5build17h872a7ee8a7b6109aE():
C:\druid-embedded\druid-shell\src/window.rs:185
    */ ////

    /// Attempt to construct the platform window.
    ///
    /// If this fails, your application should exit.
    pub fn build(self) -> Result<WindowHandle<THandler>, Error> { ////
   0:	b5f0      	push	{r4, r5, r6, r7, lr}
   2:	b091      	sub	sp, #68	; 0x44
   4:	aa0a      	add	r2, sp, #40	; 0x28
C:\druid-embedded\druid-shell\src/window.rs:187
    ////pub fn build(self) -> Result<WindowHandle, Error> {
        self.0.build().map(WindowHandle).map_err(Into::into)
   6:	4613      	mov	r3, r2
   8:	e891 50f0 	ldmia.w	r1, {r4, r5, r6, r7, ip, lr}
   c:	e883 50f0 	stmia.w	r3, {r4, r5, r6, r7, ip, lr}
  10:	a906      	add	r1, sp, #24
  12:	9001      	str	r0, [sp, #4]
  14:	4608      	mov	r0, r1
  16:	4611      	mov	r1, r2
  18:	f7ff fffe 	bl	0 <_ZN11druid_shell8platform8embedded6window29WindowBuilder$LT$THandler$GT$5build17hd840456430c07e5aE>
  1c:	e7ff      	b.n	1e <_ZN11druid_shell6window29WindowBuilder$LT$THandler$GT$5build17h872a7ee8a7b6109aE+0x1e>
  1e:	a802      	add	r0, sp, #8
  20:	a906      	add	r1, sp, #24
  22:	f7ff fffe 	bl	0 <_ZN4core6result19Result$LT$T$C$E$GT$3map17h7cf550ff2fcaa9beE>
  26:	e7ff      	b.n	28 <_ZN11druid_shell6window29WindowBuilder$LT$THandler$GT$5build17h872a7ee8a7b6109aE+0x28>
  28:	a902      	add	r1, sp, #8
  2a:	9801      	ldr	r0, [sp, #4]
  2c:	f7ff fffe 	bl	0 <_ZN4core6result19Result$LT$T$C$E$GT$7map_err17haeeea911c5fb8ea0E>
  30:	e7ff      	b.n	32 <_ZN11druid_shell6window29WindowBuilder$LT$THandler$GT$5build17h872a7ee8a7b6109aE+0x32>
C:\druid-embedded\druid-shell\src/window.rs:188
    }
  32:	b011      	add	sp, #68	; 0x44
  34:	bdf0      	pop	{r4, r5, r6, r7, pc}

Disassembly of section .text._ZN11druid_shell6window29WindowBuilder$LT$THandler$GT$8set_size17h0b2954efa66d167fE:

00000000 <_ZN11druid_shell6window29WindowBuilder$LT$THandler$GT$8set_size17h0b2954efa66d167fE>:
_ZN11druid_shell6window29WindowBuilder$LT$THandler$GT$8set_size17h0b2954efa66d167fE():
C:\druid-embedded\druid-shell\src/window.rs:166
    pub fn set_size(&mut self, size: Size) {
   0:	b580      	push	{r7, lr}
   2:	b086      	sub	sp, #24
   4:	9001      	str	r0, [sp, #4]
   6:	ed8d 0b02 	vstr	d0, [sp, #8]
   a:	ed8d 1b04 	vstr	d1, [sp, #16]
C:\druid-embedded\druid-shell\src/window.rs:167
        self.0.set_size(size)
   e:	9801      	ldr	r0, [sp, #4]
  10:	ed9d 0b02 	vldr	d0, [sp, #8]
  14:	ed9d 1b04 	vldr	d1, [sp, #16]
  18:	f7ff fffe 	bl	0 <_ZN11druid_shell8platform8embedded6window29WindowBuilder$LT$THandler$GT$8set_size17h27bcba818af5aa8cE>
  1c:	e7ff      	b.n	1e <_ZN11druid_shell6window29WindowBuilder$LT$THandler$GT$8set_size17h0b2954efa66d167fE+0x1e>
C:\druid-embedded\druid-shell\src/window.rs:168
    }
  1e:	b006      	add	sp, #24
  20:	bd80      	pop	{r7, pc}

app-20d859f505b9d0c6.3y1014uox59w8glo.rcgu.o:     file format elf32-littlearm

SYMBOL TABLE:
00000000 l    df *ABS*	00000000 3y1014uox59w8glo
000001c9 l       .debug_str	00000000 
000003c1 l       .debug_str	00000000 
000003ad l       .debug_str	00000000 
000003ce l       .debug_str	00000000 
0000039b l       .debug_str	00000000 
0000038d l       .debug_str	00000000 
00000384 l       .debug_str	00000000 
0000037f l       .debug_str	00000000 
0000037c l       .debug_str	00000000 
00000378 l       .debug_str	00000000 
0000036e l       .debug_str	00000000 
0000036c l       .debug_str	00000000 
00000368 l       .debug_str	00000000 
00000347 l       .debug_str	00000000 
0000033b l       .debug_str	00000000 
00000337 l       .debug_str	00000000 
00000327 l       .debug_str	00000000 
00000322 l       .debug_str	00000000 
0000031d l       .debug_str	00000000 
00000317 l       .debug_str	00000000 
00000000 l       .debug_str	00000000 
00000041 l       .debug_str	00000000 
00000055 l       .debug_str	00000000 
00000074 l       .debug_str	00000000 
0000007b l       .debug_str	00000000 
00000082 l       .debug_str	00000000 
00000086 l       .debug_str	00000000 
0000008e l       .debug_str	00000000 
00000099 l       .debug_str	00000000 
000000a4 l       .debug_str	00000000 
000000b1 l       .debug_str	00000000 
000000bc l       .debug_str	00000000 
000000c4 l       .debug_str	00000000 
000000cf l       .debug_str	00000000 
000000da l       .debug_str	00000000 
000000e4 l       .debug_str	00000000 
000000ef l       .debug_str	00000000 
000000fa l       .debug_str	00000000 
00000107 l       .debug_str	00000000 
00000113 l       .debug_str	00000000 
00000120 l       .debug_str	00000000 
0000012e l       .debug_str	00000000 
00000138 l       .debug_str	00000000 
00000145 l       .debug_str	00000000 
00000151 l       .debug_str	00000000 
00000155 l       .debug_str	00000000 
00000161 l       .debug_str	00000000 
00000166 l       .debug_str	00000000 
0000016a l       .debug_str	00000000 
00000173 l       .debug_str	00000000 
000001b4 l       .debug_str	00000000 
000001bd l       .debug_str	00000000 
000001c6 l       .debug_str	00000000 
00000309 l       .debug_str	00000000 
000001d3 l       .debug_str	00000000 
000001da l       .debug_str	00000000 
000001e0 l       .debug_str	00000000 
000001e6 l       .debug_str	00000000 
000001eb l       .debug_str	00000000 
000001f0 l       .debug_str	00000000 
00000230 l       .debug_str	00000000 
00000246 l       .debug_str	00000000 
0000024a l       .debug_str	00000000 
0000024d l       .debug_str	00000000 
00000251 l       .debug_str	00000000 
00000254 l       .debug_str	00000000 
00000256 l       .debug_str	00000000 
00000258 l       .debug_str	00000000 
0000025c l       .debug_str	00000000 
00000284 l       .debug_str	00000000 
000002bf l       .debug_str	00000000 
000002d0 l       .debug_str	00000000 
000002dd l       .debug_str	00000000 
000002e0 l       .debug_str	00000000 
000002e7 l       .debug_str	00000000 
000002eb l       .debug_str	00000000 
000002ef l       .debug_str	00000000 
000002f7 l       .debug_str	00000000 
000002fc l       .debug_str	00000000 
00000304 l       .debug_str	00000000 
000003c5 l       .debug_str	00000000 
00000000 l     O .rodata..Lanon.d0c2926620f56b73f306cc65450476c4.0	00000017 .Lanon.d0c2926620f56b73f306cc65450476c4.0
00000000 l     O .rodata..Lanon.d0c2926620f56b73f306cc65450476c4.1	00000001 .Lanon.d0c2926620f56b73f306cc65450476c4.1
00000000 l     O .rodata..Lanon.d0c2926620f56b73f306cc65450476c4.10	00000005 .Lanon.d0c2926620f56b73f306cc65450476c4.10
00000008 l     O .rodata.cst4	00000004 .Lanon.d0c2926620f56b73f306cc65450476c4.11
00000000 l     O .rodata..Lanon.d0c2926620f56b73f306cc65450476c4.12	00000007 .Lanon.d0c2926620f56b73f306cc65450476c4.12
00000000 l     O .rodata..Lanon.d0c2926620f56b73f306cc65450476c4.13	00000006 .Lanon.d0c2926620f56b73f306cc65450476c4.13
00000000 l     O .rodata..Lanon.d0c2926620f56b73f306cc65450476c4.14	00000048 .Lanon.d0c2926620f56b73f306cc65450476c4.14
00000000 l     O .rodata..Lanon.d0c2926620f56b73f306cc65450476c4.2	00000001 .Lanon.d0c2926620f56b73f306cc65450476c4.2
00000000 l     O .rodata..Lanon.d0c2926620f56b73f306cc65450476c4.3	00000001 .Lanon.d0c2926620f56b73f306cc65450476c4.3
00000000 l     O .rodata..Lanon.d0c2926620f56b73f306cc65450476c4.4	00000007 .Lanon.d0c2926620f56b73f306cc65450476c4.4
00000000 l     O .rodata..Lanon.d0c2926620f56b73f306cc65450476c4.5	0000000d .Lanon.d0c2926620f56b73f306cc65450476c4.5
00000000 l     O .rodata..Lanon.d0c2926620f56b73f306cc65450476c4.6	00000003 .Lanon.d0c2926620f56b73f306cc65450476c4.6
00000000 l     O .rodata..Lanon.d0c2926620f56b73f306cc65450476c4.7	00000005 .Lanon.d0c2926620f56b73f306cc65450476c4.7
00000000 l     O .rodata.cst4	00000004 .Lanon.d0c2926620f56b73f306cc65450476c4.8
00000004 l     O .rodata.cst4	00000004 .Lanon.d0c2926620f56b73f306cc65450476c4.9
00000000 l     F .text._ZN3app11app_network16send_sensor_data17h0bef8045eaaaacccE	0000057c _ZN3app11app_network16send_sensor_data17h0bef8045eaaaacccE
00000000 l    d  .text._ZN3app11app_network21aggregate_sensor_data17hbca12eab887e2347E	00000000 .text._ZN3app11app_network21aggregate_sensor_data17hbca12eab887e2347E
00000000 l    d  .text._ZN3app11app_network16send_sensor_data17h0bef8045eaaaacccE	00000000 .text._ZN3app11app_network16send_sensor_data17h0bef8045eaaaacccE
00000000 l    d  .debug_abbrev	00000000 .debug_abbrev
00000000 l    d  .debug_info	00000000 .debug_info
00000000 l    d  .debug_ranges	00000000 .debug_ranges
00000000 l    d  .debug_frame	00000000 .debug_frame
00000000 l    d  .debug_line	00000000 .debug_line
00000000 g     F .text._ZN3app11app_network21aggregate_sensor_data17hbca12eab887e2347E	00000016 .hidden _ZN3app11app_network21aggregate_sensor_data17hbca12eab887e2347E
00000000         *UND*	00000000 _ZN50_$LT$T$u20$as$u20$core..convert..From$LT$T$GT$$GT$4from17h1a28f543ef3bd8bcE
00000000         *UND*	00000000 _ZN6mynewt3sys7console10print_strn17h50f49973560dfec7E
00000000         *UND*	00000000 _ZN6mynewt3sys7console5flush17h36e149ac70bdbc29E
00000000         *UND*	00000000 _ZN6mynewt3sys7console5print17hcde9599709a168ecE
00000000         *UND*	00000000 _ZN6mynewt3sys7console8printint17h3d3ba7480adce0aeE
00000000         *UND*	00000000 _ZN6mynewt4Strn3new17h967a68cba91966afE
00000000         *UND*	00000000 _ZN6mynewt4libs14sensor_network12prepare_post17h435099775e173a90E
00000000         *UND*	00000000 _ZN6mynewt4libs14sensor_network13get_device_id17h470e56272b178615E
00000000         *UND*	00000000 _ZN6mynewt4libs14sensor_network14do_server_post17h8ffe958fc370a59aE
00000000         *UND*	00000000 _ZN6mynewt4libs14sensor_network16init_server_post17h70cfe7c99ec30e38E
00000000         *UND*	00000000 _ZN6mynewt8encoding12coap_context11CoapContext11key_to_cstr17h50826129d4e22b23E
00000000         *UND*	00000000 _ZN6mynewt8encoding12coap_context11CoapContext11to_void_ptr17hfa11a0011d3b28dcE
00000000         *UND*	00000000 _ZN6mynewt8encoding12coap_context11CoapContext13value_to_cstr17h412955ee92f5306bE
00000000         *UND*	00000000 _ZN6mynewt8encoding12coap_context11CoapContext20json_set_geolocation17hf0ec0aba9c24e9b6E
00000000         *UND*	00000000 _ZN6mynewt8encoding12coap_context11CoapContext20json_set_text_string17h1e9480c68764dd27E
00000000         *UND*	00000000 _ZN6mynewt8encoding12coap_context11CoapContext4fail17hccf379c8cf4b1f33E
00000000         *UND*	00000000 _ZN6mynewt8encoding12coap_context12COAP_CONTEXT17h48d3a6a2376484d2E
00000000         *UND*	00000000 _ZN73_$LT$core..result..Result$LT$T$C$E$GT$$u20$as$u20$core..ops..try..Try$GT$10from_error17h82883cbc71a62f35E
00000000         *UND*	00000000 _ZN73_$LT$core..result..Result$LT$T$C$E$GT$$u20$as$u20$core..ops..try..Try$GT$11into_result17h596a53411daa407fE
00000000         *UND*	00000000 _ZN73_$LT$core..result..Result$LT$T$C$E$GT$$u20$as$u20$core..ops..try..Try$GT$11into_result17h817c29b95c5b7ad6E
00000000         *UND*	00000000 _ZN75_$LT$str$u20$as$u20$mynewt..encoding..coap_context..ToBytesOptionalNull$GT$21to_bytes_optional_nul17ha77a212807fb2a9bE
00000000         *UND*	00000000 _ZN84_$LT$mynewt..Strn$u20$as$u20$mynewt..encoding..coap_context..ToBytesOptionalNull$GT$21to_bytes_optional_nul17h149111f72f17ab3dE
00000000         *UND*	00000000 json_helper_close_array
00000000         *UND*	00000000 json_helper_object_array_end_item
00000000         *UND*	00000000 json_helper_object_array_start_item
00000000         *UND*	00000000 json_helper_set_array
00000000         *UND*	00000000 json_helper_set_int
00000000         *UND*	00000000 json_helper_set_text_string
00000000         *UND*	00000000 json_rep_end_root_object
00000000         *UND*	00000000 json_rep_start_root_object



Disassembly of section .text._ZN3app11app_network21aggregate_sensor_data17hbca12eab887e2347E:

00000000 <_ZN3app11app_network21aggregate_sensor_data17hbca12eab887e2347E>:
_ZN3app11app_network21aggregate_sensor_data17hbca12eab887e2347E():
c:\stm32bluepill-mynewt-sensor/rust\app\src/app_network.rs:59
        send_sensor_data(&transmit_value)
    }
}

#[cfg(not(feature = "use_float"))]  //  If floating-point and geolocation are disabled, send sensor data without geolocation
pub fn aggregate_sensor_data(sensor_value: &SensorValue) -> MynewtResult<()>  {  //  Returns an error code upon error.
   0:	b580      	push	{r7, lr}
   2:	b082      	sub	sp, #8
   4:	9001      	str	r0, [sp, #4]
c:\stm32bluepill-mynewt-sensor/rust\app\src/app_network.rs:61
    //  Transmit sensor value without geolocation and return the result
    send_sensor_data(sensor_value)
   6:	9801      	ldr	r0, [sp, #4]
   8:	f7ff fffe 	bl	0 <_ZN3app11app_network21aggregate_sensor_data17hbca12eab887e2347E>
   c:	9000      	str	r0, [sp, #0]
   e:	e7ff      	b.n	10 <_ZN3app11app_network21aggregate_sensor_data17hbca12eab887e2347E+0x10>
c:\stm32bluepill-mynewt-sensor/rust\app\src/app_network.rs:62
}
  10:	9800      	ldr	r0, [sp, #0]
  12:	b002      	add	sp, #8
  14:	bd80      	pop	{r7, pc}

Disassembly of section .text._ZN3app11app_network16send_sensor_data17h0bef8045eaaaacccE:

00000000 <_ZN3app11app_network16send_sensor_data17h0bef8045eaaaacccE>:
_ZN3app11app_network16send_sensor_data17h0bef8045eaaaacccE():
c:\stm32bluepill-mynewt-sensor/rust\app\src/app_network.rs:75
/// {"values":[
///   {"key":"t",      "value":1715, "geo": { "lat": ..., "long": ... }},
///   {"key":"device", "value":"0102030405060708090a0b0c0d0e0f10"}
/// ]}
/// ```
fn send_sensor_data(val: &SensorValue) -> MynewtResult<()>  {  //  Returns an error code upon error.
   0:	b580      	push	{r7, lr}
   2:	f5ad 7d16 	sub.w	sp, sp, #600	; 0x258
   6:	9025      	str	r0, [sp, #148]	; 0x94
c:\stm32bluepill-mynewt-sensor/rust\app\src/app_network.rs:76
    console::print("Rust send_sensor_data: ");
   8:	f240 0000 	movw	r0, #0
   c:	f2c0 0000 	movt	r0, #0
  10:	2117      	movs	r1, #23
  12:	f7ff fffe 	bl	0 <_ZN6mynewt3sys7console5print17hcde9599709a168ecE>
  16:	e7ff      	b.n	18 <_ZN3app11app_network16send_sensor_data17h0bef8045eaaaacccE+0x18>
c:\stm32bluepill-mynewt-sensor/rust\app\src/app_network.rs:77
    if let SensorValueType::Uint(i) = val.value {
  18:	9825      	ldr	r0, [sp, #148]	; 0x94
  1a:	6840      	ldr	r0, [r0, #4]
  1c:	2801      	cmp	r0, #1
  1e:	d115      	bne.n	4c <_ZN3app11app_network16send_sensor_data17h0bef8045eaaaacccE+0x4c>
  20:	e7ff      	b.n	22 <_ZN3app11app_network16send_sensor_data17h0bef8045eaaaacccE+0x22>
  22:	9825      	ldr	r0, [sp, #148]	; 0x94
  24:	6880      	ldr	r0, [r0, #8]
  26:	9027      	str	r0, [sp, #156]	; 0x9c
c:\stm32bluepill-mynewt-sensor/rust\app\src/app_network.rs:78
        console::print_strn(val.key);
  28:	9825      	ldr	r0, [sp, #148]	; 0x94
  2a:	6800      	ldr	r0, [r0, #0]
  2c:	f7ff fffe 	bl	0 <_ZN6mynewt3sys7console10print_strn17h50f49973560dfec7E>
  30:	e7ff      	b.n	2 <_ZN3app11app_network16send_sensor_data17h0bef8045eaaaacccE+0x2>
c:\stm32bluepill-mynewt-sensor/rust\app\src/app_network.rs:79
        console::print("=");
  32:	f240 0000 	movw	r0, #0
  36:	f2c0 0000 	movt	r0, #0
  3a:	2101      	movs	r1, #1
  3c:	f7ff fffe 	bl	0 <_ZN6mynewt3sys7console5print17hcde9599709a168ecE>
  40:	e7ff      	b.n	42 <_ZN3app11app_network16send_sensor_data17h0bef8045eaaaacccE+0x42>
c:\stm32bluepill-mynewt-sensor/rust\app\src/app_network.rs:80
        console::printint(i as i32);
  42:	9827      	ldr	r0, [sp, #156]	; 0x9c
  44:	f7ff fffe 	bl	0 <_ZN6mynewt3sys7console8printint17h3d3ba7480adce0aeE>
  48:	e7ff      	b.n	4a <_ZN3app11app_network16send_sensor_data17h0bef8045eaaaacccE+0x4a>
c:\stm32bluepill-mynewt-sensor/rust\app\src/app_network.rs:77
    if let SensorValueType::Uint(i) = val.value {
  4a:	e7ff      	b.n	4c <_ZN3app11app_network16send_sensor_data17h0bef8045eaaaacccE+0x4c>
c:\stm32bluepill-mynewt-sensor/rust\app\src/app_network.rs:82
    }
    console::print("\n");
  4c:	f240 0000 	movw	r0, #0
  50:	f2c0 0000 	movt	r0, #0
  54:	2101      	movs	r1, #1
  56:	f7ff fffe 	bl	0 <_ZN6mynewt3sys7console5print17hcde9599709a168ecE>
  5a:	e7ff      	b.n	2 <_ZN6mynewt3sys7console5flush17h36e149ac70bdbc29E+0x2>
c:\stm32bluepill-mynewt-sensor/rust\app\src/app_network.rs:83
    console::flush(); ////
  5c:	f7ff fffe 	bl	0 <_ZN6mynewt3sys7console5flush17h36e149ac70bdbc29E>
  60:	e7ff      	b.n	62 <_ZN3app11app_network16send_sensor_data17h0bef8045eaaaacccE+0x62>
  62:	a82f      	add	r0, sp, #188	; 0xbc
c:\stm32bluepill-mynewt-sensor/rust\app\src/app_network.rs:86

    //  Get a randomly-generated device ID that changes each time we restart the device.
    let device_id = sensor_network::get_device_id() ? ;
  64:	f7ff fffe 	bl	0 <_ZN6mynewt4libs14sensor_network13get_device_id17h470e56272b178615E>
  68:	e7ff      	b.n	6a <_ZN3app11app_network16send_sensor_data17h0bef8045eaaaacccE+0x6a>
  6a:	a82b      	add	r0, sp, #172	; 0xac
  6c:	a92f      	add	r1, sp, #188	; 0xbc
  6e:	f7ff fffe 	bl	0 <_ZN73_$LT$core..result..Result$LT$T$C$E$GT$$u20$as$u20$core..ops..try..Try$GT$11into_result17h596a53411daa407fE>
  72:	e7ff      	b.n	74 <_ZN3app11app_network16send_sensor_data17h0bef8045eaaaacccE+0x74>
  74:	982b      	ldr	r0, [sp, #172]	; 0xac
  76:	2800      	cmp	r0, #0
  78:	d014      	beq.n	a4 <_ZN3app11app_network16send_sensor_data17h0bef8045eaaaacccE+0xa4>
  7a:	e7ff      	b.n	7c <_ZN3app11app_network16send_sensor_data17h0bef8045eaaaacccE+0x7c>
  7c:	e000      	b.n	80 <_ZN3app11app_network16send_sensor_data17h0bef8045eaaaacccE+0x80>
  7e:	defe      	udf	#254	; 0xfe
  80:	982c      	ldr	r0, [sp, #176]	; 0xb0
  82:	9033      	str	r0, [sp, #204]	; 0xcc
  84:	9833      	ldr	r0, [sp, #204]	; 0xcc
  86:	f7ff fffe 	bl	0 <_ZN50_$LT$T$u20$as$u20$core..convert..From$LT$T$GT$$GT$4from17h1a28f543ef3bd8bcE>
  8a:	9024      	str	r0, [sp, #144]	; 0x90
  8c:	e003      	b.n	96 <_ZN3app11app_network16send_sensor_data17h0bef8045eaaaacccE+0x96>
c:\stm32bluepill-mynewt-sensor/rust\app\src/app_network.rs:121
    console::print("NET view your sensor at \nhttps://blue-pill-geolocate.appspot.com?device=");
    console::print_strn(&device_id); console::print("\n");

    //  The CoAP Background Task will transmit the message in the background.
    Ok(())
}
  8e:	9826      	ldr	r0, [sp, #152]	; 0x98
  90:	f50d 7d16 	add.w	sp, sp, #600	; 0x258
  94:	bd80      	pop	{r7, pc}
c:\stm32bluepill-mynewt-sensor/rust\app\src/app_network.rs:86
    let device_id = sensor_network::get_device_id() ? ;
  96:	9824      	ldr	r0, [sp, #144]	; 0x90
  98:	f7ff fffe 	bl	0 <_ZN73_$LT$core..result..Result$LT$T$C$E$GT$$u20$as$u20$core..ops..try..Try$GT$10from_error17h82883cbc71a62f35E>
  9c:	9026      	str	r0, [sp, #152]	; 0x98
  9e:	e7ff      	b.n	a0 <_ZN3app11app_network16send_sensor_data17h0bef8045eaaaacccE+0xa0>
  a0:	e7ff      	b.n	a2 <_ZN3app11app_network16send_sensor_data17h0bef8045eaaaacccE+0xa2>
  a2:	e7f4      	b.n	8e <_ZN3app11app_network16send_sensor_data17h0bef8045eaaaacccE+0x8e>
  a4:	982c      	ldr	r0, [sp, #176]	; 0xb0
  a6:	992d      	ldr	r1, [sp, #180]	; 0xb4
  a8:	9a2e      	ldr	r2, [sp, #184]	; 0xb8
  aa:	9236      	str	r2, [sp, #216]	; 0xd8
  ac:	9135      	str	r1, [sp, #212]	; 0xd4
  ae:	9034      	str	r0, [sp, #208]	; 0xd0
  b0:	9834      	ldr	r0, [sp, #208]	; 0xd0
  b2:	9935      	ldr	r1, [sp, #212]	; 0xd4
  b4:	9a36      	ldr	r2, [sp, #216]	; 0xd8
  b6:	922a      	str	r2, [sp, #168]	; 0xa8
  b8:	9129      	str	r1, [sp, #164]	; 0xa4
  ba:	9028      	str	r0, [sp, #160]	; 0xa0
c:\stm32bluepill-mynewt-sensor/rust\app\src/app_network.rs:91
    let rc = sensor_network::init_server_post( strn!(()) ) ? ;  //  `strn!(())` means use default CoAP URI in `syscfg.yml`
  bc:	f240 0100 	movw	r1, #0
  c0:	f2c0 0100 	movt	r1, #0
  c4:	a83c      	add	r0, sp, #240	; 0xf0
  c6:	2201      	movs	r2, #1
  c8:	f7ff fffe 	bl	0 <_ZN6mynewt4Strn3new17h967a68cba91966afE>
  cc:	e7ff      	b.n	ce <_ZN3app11app_network16send_sensor_data17h0bef8045eaaaacccE+0xce>
  ce:	a83a      	add	r0, sp, #232	; 0xe8
  d0:	a93c      	add	r1, sp, #240	; 0xf0
  d2:	f7ff fffe 	bl	0 <_ZN6mynewt4libs14sensor_network16init_server_post17h70cfe7c99ec30e38E>
  d6:	e7ff      	b.n	d8 <_ZN3app11app_network16send_sensor_data17h0bef8045eaaaacccE+0xd8>
  d8:	a838      	add	r0, sp, #224	; 0xe0
  da:	a93a      	add	r1, sp, #232	; 0xe8
  dc:	f7ff fffe 	bl	0 <_ZN73_$LT$core..result..Result$LT$T$C$E$GT$$u20$as$u20$core..ops..try..Try$GT$11into_result17h817c29b95c5b7ad6E>
  e0:	e7ff      	b.n	e2 <_ZN3app11app_network16send_sensor_data17h0bef8045eaaaacccE+0xe2>
  e2:	f89d 00e0 	ldrb.w	r0, [sp, #224]	; 0xe0
  e6:	07c1      	lsls	r1, r0, #31
  e8:	2900      	cmp	r1, #0
  ea:	d010      	beq.n	10e <_ZN3app11app_network16send_sensor_data17h0bef8045eaaaacccE+0x10e>
  ec:	e7ff      	b.n	ee <_ZN3app11app_network16send_sensor_data17h0bef8045eaaaacccE+0xee>
  ee:	e000      	b.n	f2 <_ZN3app11app_network16send_sensor_data17h0bef8045eaaaacccE+0xf2>
  f0:	defe      	udf	#254	; 0xfe
  f2:	9839      	ldr	r0, [sp, #228]	; 0xe4
  f4:	903f      	str	r0, [sp, #252]	; 0xfc
  f6:	983f      	ldr	r0, [sp, #252]	; 0xfc
  f8:	f7ff fffe 	bl	0 <_ZN50_$LT$T$u20$as$u20$core..convert..From$LT$T$GT$$GT$4from17h1a28f543ef3bd8bcE>
  fc:	9023      	str	r0, [sp, #140]	; 0x8c
  fe:	e7ff      	b.n	100 <_ZN3app11app_network16send_sensor_data17h0bef8045eaaaacccE+0x100>
 100:	9823      	ldr	r0, [sp, #140]	; 0x8c
 102:	f7ff fffe 	bl	0 <_ZN73_$LT$core..result..Result$LT$T$C$E$GT$$u20$as$u20$core..ops..try..Try$GT$10from_error17h82883cbc71a62f35E>
 106:	9026      	str	r0, [sp, #152]	; 0x98
 108:	e7ff      	b.n	10a <_ZN3app11app_network16send_sensor_data17h0bef8045eaaaacccE+0x10a>
 10a:	e7ff      	b.n	10c <_ZN3app11app_network16send_sensor_data17h0bef8045eaaaacccE+0x10c>
 10c:	e7c9      	b.n	a2 <_ZN3app11app_network16send_sensor_data17h0bef8045eaaaacccE+0xa2>
 10e:	f89d 00e1 	ldrb.w	r0, [sp, #225]	; 0xe1
 112:	f88d 0103 	strb.w	r0, [sp, #259]	; 0x103
 116:	f89d 0103 	ldrb.w	r0, [sp, #259]	; 0x103
 11a:	f88d 00df 	strb.w	r0, [sp, #223]	; 0xdf
c:\stm32bluepill-mynewt-sensor/rust\app\src/app_network.rs:94
    if !rc { return Err(MynewtError::SYS_EAGAIN); }
 11e:	f89d 00df 	ldrb.w	r0, [sp, #223]	; 0xdf
 122:	07c0      	lsls	r0, r0, #31
 124:	2800      	cmp	r0, #0
 126:	d005      	beq.n	134 <_ZN3app11app_network16send_sensor_data17h0bef8045eaaaacccE+0x134>
 128:	e7ff      	b.n	12a <_ZN3app11app_network16send_sensor_data17h0bef8045eaaaacccE+0x12a>
 12a:	a845      	add	r0, sp, #276	; 0x114
 12c:	2132      	movs	r1, #50	; 0x32
c:\stm32bluepill-mynewt-sensor/rust\app\src/app_network.rs:98
    let _payload = coap!( @json {        
 12e:	f7ff fffe 	bl	0 <_ZN6mynewt4libs14sensor_network12prepare_post17h435099775e173a90E>
 132:	e005      	b.n	140 <_ZN3app11app_network16send_sensor_data17h0bef8045eaaaacccE+0x140>
 134:	f06f 0005 	mvn.w	r0, #5
c:\stm32bluepill-mynewt-sensor/rust\app\src/app_network.rs:94
    if !rc { return Err(MynewtError::SYS_EAGAIN); }
 138:	9041      	str	r0, [sp, #260]	; 0x104
 13a:	9841      	ldr	r0, [sp, #260]	; 0x104
 13c:	9026      	str	r0, [sp, #152]	; 0x98
 13e:	e7e5      	b.n	10c <_ZN3app11app_network16send_sensor_data17h0bef8045eaaaacccE+0x10c>
 140:	a843      	add	r0, sp, #268	; 0x10c
 142:	a945      	add	r1, sp, #276	; 0x114
c:\stm32bluepill-mynewt-sensor/rust\app\src/app_network.rs:98
    let _payload = coap!( @json {        
 144:	f7ff fffe 	bl	0 <_ZN73_$LT$core..result..Result$LT$T$C$E$GT$$u20$as$u20$core..ops..try..Try$GT$11into_result17h817c29b95c5b7ad6E>
 148:	e7ff      	b.n	14a <_ZN3app11app_network16send_sensor_data17h0bef8045eaaaacccE+0x14a>
 14a:	f89d 010c 	ldrb.w	r0, [sp, #268]	; 0x10c
 14e:	07c1      	lsls	r1, r0, #31
 150:	2900      	cmp	r1, #0
 152:	d010      	beq.n	176 <_ZN3app11app_network16send_sensor_data17h0bef8045eaaaacccE+0x176>
 154:	e7ff      	b.n	156 <_ZN3app11app_network16send_sensor_data17h0bef8045eaaaacccE+0x156>
 156:	e000      	b.n	15a <_ZN3app11app_network16send_sensor_data17h0bef8045eaaaacccE+0x15a>
 158:	defe      	udf	#254	; 0xfe
 15a:	9844      	ldr	r0, [sp, #272]	; 0x110
 15c:	9047      	str	r0, [sp, #284]	; 0x11c
 15e:	9847      	ldr	r0, [sp, #284]	; 0x11c
 160:	f7ff fffe 	bl	0 <_ZN50_$LT$T$u20$as$u20$core..convert..From$LT$T$GT$$GT$4from17h1a28f543ef3bd8bcE>
 164:	9022      	str	r0, [sp, #136]	; 0x88
 166:	e7ff      	b.n	168 <_ZN3app11app_network16send_sensor_data17h0bef8045eaaaacccE+0x168>
 168:	9822      	ldr	r0, [sp, #136]	; 0x88
 16a:	f7ff fffe 	bl	0 <_ZN73_$LT$core..result..Result$LT$T$C$E$GT$$u20$as$u20$core..ops..try..Try$GT$10from_error17h82883cbc71a62f35E>
 16e:	9026      	str	r0, [sp, #152]	; 0x98
 170:	e7ff      	b.n	172 <_ZN3app11app_network16send_sensor_data17h0bef8045eaaaacccE+0x172>
 172:	e7ff      	b.n	174 <_ZN3app11app_network16send_sensor_data17h0bef8045eaaaacccE+0x174>
 174:	e7ca      	b.n	10c <_ZN3app11app_network16send_sensor_data17h0bef8045eaaaacccE+0x10c>
 176:	f89d 010d 	ldrb.w	r0, [sp, #269]	; 0x10d
 17a:	f88d 0123 	strb.w	r0, [sp, #291]	; 0x123
 17e:	f7ff fffe 	bl	0 <json_rep_start_root_object>
 182:	e7ff      	b.n	2 <_ZN3app11app_network16send_sensor_data17h0bef8045eaaaacccE+0x2>
 184:	f240 0000 	movw	r0, #0
 188:	f2c0 0000 	movt	r0, #0
 18c:	9049      	str	r0, [sp, #292]	; 0x124
 18e:	2007      	movs	r0, #7
 190:	904a      	str	r0, [sp, #296]	; 0x128
 192:	f240 0000 	movw	r0, #0
 196:	f2c0 0000 	movt	r0, #0
 19a:	f7ff fffe 	bl	0 <_ZN6mynewt8encoding12coap_context11CoapContext11to_void_ptr17hfa11a0011d3b28dcE>
 19e:	9021      	str	r0, [sp, #132]	; 0x84
 1a0:	e7ff      	b.n	1a2 <_ZN3app11app_network16send_sensor_data17h0bef8045eaaaacccE+0x1a2>
 1a2:	9849      	ldr	r0, [sp, #292]	; 0x124
 1a4:	994a      	ldr	r1, [sp, #296]	; 0x128
 1a6:	907e      	str	r0, [sp, #504]	; 0x1f8
 1a8:	917f      	str	r1, [sp, #508]	; 0x1fc
_ZN4core3str21_$LT$impl$u20$str$GT$8as_bytes17h724e50c34863b638E():
/rustc/412f43ac5b4ae8c3599e71c6972112e9be4758fa/src/libcore/str/mod.rs:2179
 1aa:	987e      	ldr	r0, [sp, #504]	; 0x1f8
 1ac:	997f      	ldr	r1, [sp, #508]	; 0x1fc
 1ae:	9080      	str	r0, [sp, #512]	; 0x200
 1b0:	9181      	str	r1, [sp, #516]	; 0x204
 1b2:	9980      	ldr	r1, [sp, #512]	; 0x200
 1b4:	9a81      	ldr	r2, [sp, #516]	; 0x204
_ZN3app11app_network16send_sensor_data17h0bef8045eaaaacccE():
c:\stm32bluepill-mynewt-sensor/rust\app\src/app_network.rs:98
 1b6:	9120      	str	r1, [sp, #128]	; 0x80
 1b8:	921f      	str	r2, [sp, #124]	; 0x7c
 1ba:	e7ff      	b.n	1bc <_ZN3app11app_network16send_sensor_data17h0bef8045eaaaacccE+0x1bc>
 1bc:	f240 0000 	movw	r0, #0
 1c0:	f2c0 0000 	movt	r0, #0
 1c4:	9920      	ldr	r1, [sp, #128]	; 0x80
 1c6:	9a1f      	ldr	r2, [sp, #124]	; 0x7c
 1c8:	f7ff fffe 	bl	0 <_ZN6mynewt8encoding12coap_context11CoapContext11key_to_cstr17h50826129d4e22b23E>
 1cc:	901e      	str	r0, [sp, #120]	; 0x78
 1ce:	e7ff      	b.n	1d0 <_ZN3app11app_network16send_sensor_data17h0bef8045eaaaacccE+0x1d0>
 1d0:	9821      	ldr	r0, [sp, #132]	; 0x84
 1d2:	991e      	ldr	r1, [sp, #120]	; 0x78
 1d4:	f7ff fffe 	bl	0 <json_helper_set_array>
 1d8:	e7ff      	b.n	1da <_ZN3app11app_network16send_sensor_data17h0bef8045eaaaacccE+0x1da>
 1da:	9825      	ldr	r0, [sp, #148]	; 0x94
 1dc:	68c1      	ldr	r1, [r0, #12]
 1de:	6900      	ldr	r0, [r0, #16]
 1e0:	914b      	str	r1, [sp, #300]	; 0x12c
 1e2:	904c      	str	r0, [sp, #304]	; 0x130
 1e4:	9825      	ldr	r0, [sp, #148]	; 0x94
 1e6:	6840      	ldr	r0, [r0, #4]
 1e8:	2801      	cmp	r0, #1
 1ea:	d00c      	beq.n	206 <_ZN3app11app_network16send_sensor_data17h0bef8045eaaaacccE+0x206>
 1ec:	e7ff      	b.n	1ee <_ZN3app11app_network16send_sensor_data17h0bef8045eaaaacccE+0x1ee>
 1ee:	2001      	movs	r0, #1
 1f0:	f88d 0193 	strb.w	r0, [sp, #403]	; 0x193
 1f4:	f89d 1193 	ldrb.w	r1, [sp, #403]	; 0x193
 1f8:	f240 0000 	movw	r0, #0
 1fc:	f2c0 0000 	movt	r0, #0
 200:	f7ff fffe 	bl	0 <_ZN6mynewt8encoding12coap_context11CoapContext4fail17hccf379c8cf4b1f33E>
 204:	e0d7      	b.n	3b6 <_ZN3app11app_network16send_sensor_data17h0bef8045eaaaacccE+0x3b6>
 206:	9825      	ldr	r0, [sp, #148]	; 0x94
 208:	6880      	ldr	r0, [r0, #8]
 20a:	904d      	str	r0, [sp, #308]	; 0x134
 20c:	f240 0000 	movw	r0, #0
 210:	f2c0 0000 	movt	r0, #0
 214:	904e      	str	r0, [sp, #312]	; 0x138
 216:	200d      	movs	r0, #13
 218:	904f      	str	r0, [sp, #316]	; 0x13c
 21a:	984e      	ldr	r0, [sp, #312]	; 0x138
 21c:	994f      	ldr	r1, [sp, #316]	; 0x13c
 21e:	9092      	str	r0, [sp, #584]	; 0x248
 220:	9193      	str	r1, [sp, #588]	; 0x24c
_ZN4core3str21_$LT$impl$u20$str$GT$8as_bytes17h724e50c34863b638E():
/rustc/412f43ac5b4ae8c3599e71c6972112e9be4758fa/src/libcore/str/mod.rs:2179
 222:	9892      	ldr	r0, [sp, #584]	; 0x248
 224:	9993      	ldr	r1, [sp, #588]	; 0x24c
 226:	9094      	str	r0, [sp, #592]	; 0x250
 228:	9195      	str	r1, [sp, #596]	; 0x254
 22a:	9994      	ldr	r1, [sp, #592]	; 0x250
 22c:	9a95      	ldr	r2, [sp, #596]	; 0x254
_ZN3app11app_network16send_sensor_data17h0bef8045eaaaacccE():
c:\stm32bluepill-mynewt-sensor/rust\app\src/app_network.rs:98
 22e:	911d      	str	r1, [sp, #116]	; 0x74
 230:	921c      	str	r2, [sp, #112]	; 0x70
 232:	e7ff      	b.n	234 <_ZN3app11app_network16send_sensor_data17h0bef8045eaaaacccE+0x234>
 234:	f240 0000 	movw	r0, #0
 238:	f2c0 0000 	movt	r0, #0
 23c:	991d      	ldr	r1, [sp, #116]	; 0x74
 23e:	9a1c      	ldr	r2, [sp, #112]	; 0x70
 240:	f7ff fffe 	bl	0 <_ZN6mynewt8encoding12coap_context11CoapContext11key_to_cstr17h50826129d4e22b23E>
 244:	901b      	str	r0, [sp, #108]	; 0x6c
 246:	e7ff      	b.n	248 <_ZN3app11app_network16send_sensor_data17h0bef8045eaaaacccE+0x248>
 248:	981b      	ldr	r0, [sp, #108]	; 0x6c
 24a:	f7ff fffe 	bl	0 <json_helper_object_array_start_item>
 24e:	e7ff      	b.n	2 <_ZN3app11app_network16send_sensor_data17h0bef8045eaaaacccE+0x2>
 250:	f240 0000 	movw	r0, #0
 254:	f2c0 0000 	movt	r0, #0
 258:	2103      	movs	r1, #3
 25a:	f7ff fffe 	bl	0 <_ZN75_$LT$str$u20$as$u20$mynewt..encoding..coap_context..ToBytesOptionalNull$GT$21to_bytes_optional_nul17ha77a212807fb2a9bE>
 25e:	901a      	str	r0, [sp, #104]	; 0x68
 260:	9119      	str	r1, [sp, #100]	; 0x64
 262:	e7ff      	b.n	264 <_ZN3app11app_network16send_sensor_data17h0bef8045eaaaacccE+0x264>
 264:	981a      	ldr	r0, [sp, #104]	; 0x68
 266:	9050      	str	r0, [sp, #320]	; 0x140
 268:	9919      	ldr	r1, [sp, #100]	; 0x64
 26a:	9151      	str	r1, [sp, #324]	; 0x144
 26c:	9a25      	ldr	r2, [sp, #148]	; 0x94
 26e:	6810      	ldr	r0, [r2, #0]
 270:	f7ff fffe 	bl	0 <_ZN84_$LT$mynewt..Strn$u20$as$u20$mynewt..encoding..coap_context..ToBytesOptionalNull$GT$21to_bytes_optional_nul17h149111f72f17ab3dE>
 274:	9018      	str	r0, [sp, #96]	; 0x60
 276:	9117      	str	r1, [sp, #92]	; 0x5c
 278:	e7ff      	b.n	27a <_ZN3app11app_network16send_sensor_data17h0bef8045eaaaacccE+0x27a>
 27a:	9818      	ldr	r0, [sp, #96]	; 0x60
 27c:	9052      	str	r0, [sp, #328]	; 0x148
 27e:	9917      	ldr	r1, [sp, #92]	; 0x5c
 280:	9153      	str	r1, [sp, #332]	; 0x14c
 282:	f240 0000 	movw	r0, #0
 286:	f2c0 0000 	movt	r0, #0
 28a:	f7ff fffe 	bl	0 <_ZN6mynewt8encoding12coap_context11CoapContext11to_void_ptr17hfa11a0011d3b28dcE>
 28e:	9016      	str	r0, [sp, #88]	; 0x58
 290:	e7ff      	b.n	292 <_ZN3app11app_network16send_sensor_data17h0bef8045eaaaacccE+0x292>
 292:	9950      	ldr	r1, [sp, #320]	; 0x140
 294:	9a51      	ldr	r2, [sp, #324]	; 0x144
 296:	f240 0000 	movw	r0, #0
 29a:	f2c0 0000 	movt	r0, #0
 29e:	f7ff fffe 	bl	0 <_ZN6mynewt8encoding12coap_context11CoapContext11key_to_cstr17h50826129d4e22b23E>
 2a2:	9015      	str	r0, [sp, #84]	; 0x54
 2a4:	e7ff      	b.n	2a6 <_ZN3app11app_network16send_sensor_data17h0bef8045eaaaacccE+0x2a6>
 2a6:	9952      	ldr	r1, [sp, #328]	; 0x148
 2a8:	9a53      	ldr	r2, [sp, #332]	; 0x14c
 2aa:	f240 0000 	movw	r0, #0
 2ae:	f2c0 0000 	movt	r0, #0
 2b2:	f7ff fffe 	bl	0 <_ZN6mynewt8encoding12coap_context11CoapContext13value_to_cstr17h412955ee92f5306bE>
 2b6:	9014      	str	r0, [sp, #80]	; 0x50
 2b8:	e7ff      	b.n	2ba <_ZN3app11app_network16send_sensor_data17h0bef8045eaaaacccE+0x2ba>
 2ba:	9816      	ldr	r0, [sp, #88]	; 0x58
 2bc:	9915      	ldr	r1, [sp, #84]	; 0x54
 2be:	9a14      	ldr	r2, [sp, #80]	; 0x50
 2c0:	f7ff fffe 	bl	0 <json_helper_set_text_string>
 2c4:	e7ff      	b.n	2 <_ZN3app11app_network16send_sensor_data17h0bef8045eaaaacccE+0x2>
 2c6:	f240 0000 	movw	r0, #0
 2ca:	f2c0 0000 	movt	r0, #0
 2ce:	2105      	movs	r1, #5
 2d0:	f7ff fffe 	bl	0 <_ZN75_$LT$str$u20$as$u20$mynewt..encoding..coap_context..ToBytesOptionalNull$GT$21to_bytes_optional_nul17ha77a212807fb2a9bE>
 2d4:	9013      	str	r0, [sp, #76]	; 0x4c
 2d6:	9112      	str	r1, [sp, #72]	; 0x48
 2d8:	e7ff      	b.n	2da <_ZN3app11app_network16send_sensor_data17h0bef8045eaaaacccE+0x2da>
 2da:	9813      	ldr	r0, [sp, #76]	; 0x4c
 2dc:	9054      	str	r0, [sp, #336]	; 0x150
 2de:	9912      	ldr	r1, [sp, #72]	; 0x48
 2e0:	9155      	str	r1, [sp, #340]	; 0x154
 2e2:	9a4d      	ldr	r2, [sp, #308]	; 0x134
 2e4:	2300      	movs	r3, #0
 2e6:	9357      	str	r3, [sp, #348]	; 0x15c
 2e8:	9256      	str	r2, [sp, #344]	; 0x158
 2ea:	f240 0000 	movw	r0, #0
 2ee:	f2c0 0000 	movt	r0, #0
 2f2:	f7ff fffe 	bl	0 <_ZN6mynewt8encoding12coap_context11CoapContext11to_void_ptr17hfa11a0011d3b28dcE>
 2f6:	9011      	str	r0, [sp, #68]	; 0x44
 2f8:	e7ff      	b.n	2fa <_ZN3app11app_network16send_sensor_data17h0bef8045eaaaacccE+0x2fa>
 2fa:	9954      	ldr	r1, [sp, #336]	; 0x150
 2fc:	9a55      	ldr	r2, [sp, #340]	; 0x154
 2fe:	f240 0000 	movw	r0, #0
 302:	f2c0 0000 	movt	r0, #0
 306:	f7ff fffe 	bl	0 <_ZN6mynewt8encoding12coap_context11CoapContext11key_to_cstr17h50826129d4e22b23E>
 30a:	9010      	str	r0, [sp, #64]	; 0x40
 30c:	e7ff      	b.n	30e <_ZN3app11app_network16send_sensor_data17h0bef8045eaaaacccE+0x30e>
 30e:	9a56      	ldr	r2, [sp, #344]	; 0x158
 310:	9b57      	ldr	r3, [sp, #348]	; 0x15c
 312:	9811      	ldr	r0, [sp, #68]	; 0x44
 314:	9910      	ldr	r1, [sp, #64]	; 0x40
 316:	f7ff fffe 	bl	0 <json_helper_set_int>
 31a:	e7ff      	b.n	2 <_ZN3app11app_network16send_sensor_data17h0bef8045eaaaacccE+0x2>
 31c:	f240 0100 	movw	r1, #0
 320:	f2c0 0100 	movt	r1, #0
 324:	a859      	add	r0, sp, #356	; 0x164
 326:	2204      	movs	r2, #4
 328:	f7ff fffe 	bl	0 <_ZN6mynewt4Strn3new17h967a68cba91966afE>
 32c:	e7ff      	b.n	6 <_ZN3app11app_network16send_sensor_data17h0bef8045eaaaacccE+0x6>
 32e:	f240 0100 	movw	r1, #0
 332:	f2c0 0100 	movt	r1, #0
 336:	a85c      	add	r0, sp, #368	; 0x170
 338:	2204      	movs	r2, #4
 33a:	f7ff fffe 	bl	0 <_ZN6mynewt4Strn3new17h967a68cba91966afE>
 33e:	e7ff      	b.n	2 <_ZN3app11app_network16send_sensor_data17h0bef8045eaaaacccE+0x2>
 340:	f240 0100 	movw	r1, #0
 344:	f2c0 0100 	movt	r1, #0
 348:	a85f      	add	r0, sp, #380	; 0x17c
 34a:	2205      	movs	r2, #5
 34c:	f7ff fffe 	bl	0 <_ZN6mynewt4Strn3new17h967a68cba91966afE>
 350:	e7ff      	b.n	352 <_ZN3app11app_network16send_sensor_data17h0bef8045eaaaacccE+0x352>
 352:	984b      	ldr	r0, [sp, #300]	; 0x12c
 354:	994c      	ldr	r1, [sp, #304]	; 0x130
 356:	466a      	mov	r2, sp
 358:	6051      	str	r1, [r2, #4]
 35a:	6010      	str	r0, [r2, #0]
 35c:	f240 0000 	movw	r0, #0
 360:	f2c0 0000 	movt	r0, #0
 364:	a959      	add	r1, sp, #356	; 0x164
 366:	aa5c      	add	r2, sp, #368	; 0x170
 368:	ab5f      	add	r3, sp, #380	; 0x17c
 36a:	f7ff fffe 	bl	0 <_ZN6mynewt8encoding12coap_context11CoapContext20json_set_geolocation17hf0ec0aba9c24e9b6E>
 36e:	e7ff      	b.n	2 <_ZN3app11app_network16send_sensor_data17h0bef8045eaaaacccE+0x2>
 370:	f240 0000 	movw	r0, #0
 374:	f2c0 0000 	movt	r0, #0
 378:	9062      	str	r0, [sp, #392]	; 0x188
 37a:	200d      	movs	r0, #13
 37c:	9063      	str	r0, [sp, #396]	; 0x18c
 37e:	9862      	ldr	r0, [sp, #392]	; 0x188
 380:	9963      	ldr	r1, [sp, #396]	; 0x18c
 382:	908e      	str	r0, [sp, #568]	; 0x238
 384:	918f      	str	r1, [sp, #572]	; 0x23c
_ZN4core3str21_$LT$impl$u20$str$GT$8as_bytes17h724e50c34863b638E():
/rustc/412f43ac5b4ae8c3599e71c6972112e9be4758fa/src/libcore/str/mod.rs:2179
 386:	988e      	ldr	r0, [sp, #568]	; 0x238
 388:	998f      	ldr	r1, [sp, #572]	; 0x23c
 38a:	9090      	str	r0, [sp, #576]	; 0x240
 38c:	9191      	str	r1, [sp, #580]	; 0x244
 38e:	9990      	ldr	r1, [sp, #576]	; 0x240
 390:	9a91      	ldr	r2, [sp, #580]	; 0x244
_ZN3app11app_network16send_sensor_data17h0bef8045eaaaacccE():
c:\stm32bluepill-mynewt-sensor/rust\app\src/app_network.rs:98
 392:	910f      	str	r1, [sp, #60]	; 0x3c
 394:	920e      	str	r2, [sp, #56]	; 0x38
 396:	e7ff      	b.n	398 <_ZN3app11app_network16send_sensor_data17h0bef8045eaaaacccE+0x398>
 398:	f240 0000 	movw	r0, #0
 39c:	f2c0 0000 	movt	r0, #0
 3a0:	990f      	ldr	r1, [sp, #60]	; 0x3c
 3a2:	9a0e      	ldr	r2, [sp, #56]	; 0x38
 3a4:	f7ff fffe 	bl	0 <_ZN6mynewt8encoding12coap_context11CoapContext11key_to_cstr17h50826129d4e22b23E>
 3a8:	900d      	str	r0, [sp, #52]	; 0x34
 3aa:	e7ff      	b.n	3ac <_ZN3app11app_network16send_sensor_data17h0bef8045eaaaacccE+0x3ac>
 3ac:	980d      	ldr	r0, [sp, #52]	; 0x34
 3ae:	f7ff fffe 	bl	0 <json_helper_object_array_end_item>
 3b2:	e7ff      	b.n	3b4 <_ZN3app11app_network16send_sensor_data17h0bef8045eaaaacccE+0x3b4>
 3b4:	e000      	b.n	3b8 <_ZN3app11app_network16send_sensor_data17h0bef8045eaaaacccE+0x3b8>
 3b6:	e7ff      	b.n	3b8 <_ZN3app11app_network16send_sensor_data17h0bef8045eaaaacccE+0x3b8>
 3b8:	f240 0000 	movw	r0, #0
 3bc:	f2c0 0000 	movt	r0, #0
 3c0:	9065      	str	r0, [sp, #404]	; 0x194
 3c2:	200d      	movs	r0, #13
 3c4:	9066      	str	r0, [sp, #408]	; 0x198
 3c6:	9865      	ldr	r0, [sp, #404]	; 0x194
 3c8:	9966      	ldr	r1, [sp, #408]	; 0x198
 3ca:	908a      	str	r0, [sp, #552]	; 0x228
 3cc:	918b      	str	r1, [sp, #556]	; 0x22c
_ZN4core3str21_$LT$impl$u20$str$GT$8as_bytes17h724e50c34863b638E():
/rustc/412f43ac5b4ae8c3599e71c6972112e9be4758fa/src/libcore/str/mod.rs:2179
 3ce:	988a      	ldr	r0, [sp, #552]	; 0x228
 3d0:	998b      	ldr	r1, [sp, #556]	; 0x22c
 3d2:	908c      	str	r0, [sp, #560]	; 0x230
 3d4:	918d      	str	r1, [sp, #564]	; 0x234
 3d6:	998c      	ldr	r1, [sp, #560]	; 0x230
 3d8:	9a8d      	ldr	r2, [sp, #564]	; 0x234
_ZN3app11app_network16send_sensor_data17h0bef8045eaaaacccE():
c:\stm32bluepill-mynewt-sensor/rust\app\src/app_network.rs:98
 3da:	910c      	str	r1, [sp, #48]	; 0x30
 3dc:	920b      	str	r2, [sp, #44]	; 0x2c
 3de:	e7ff      	b.n	3e0 <_ZN3app11app_network16send_sensor_data17h0bef8045eaaaacccE+0x3e0>
 3e0:	f240 0000 	movw	r0, #0
 3e4:	f2c0 0000 	movt	r0, #0
 3e8:	990c      	ldr	r1, [sp, #48]	; 0x30
 3ea:	9a0b      	ldr	r2, [sp, #44]	; 0x2c
 3ec:	f7ff fffe 	bl	0 <_ZN6mynewt8encoding12coap_context11CoapContext11key_to_cstr17h50826129d4e22b23E>
 3f0:	900a      	str	r0, [sp, #40]	; 0x28
 3f2:	e7ff      	b.n	3f4 <_ZN3app11app_network16send_sensor_data17h0bef8045eaaaacccE+0x3f4>
 3f4:	980a      	ldr	r0, [sp, #40]	; 0x28
 3f6:	f7ff fffe 	bl	0 <json_helper_object_array_start_item>
 3fa:	e7ff      	b.n	a <_ZN3app11app_network16send_sensor_data17h0bef8045eaaaacccE+0xa>
 3fc:	f240 0100 	movw	r1, #0
 400:	f2c0 0100 	movt	r1, #0
 404:	a868      	add	r0, sp, #416	; 0x1a0
 406:	2204      	movs	r2, #4
 408:	f7ff fffe 	bl	0 <_ZN6mynewt4Strn3new17h967a68cba91966afE>
 40c:	e7ff      	b.n	40e <_ZN3app11app_network16send_sensor_data17h0bef8045eaaaacccE+0x40e>
 40e:	a868      	add	r0, sp, #416	; 0x1a0
 410:	9067      	str	r0, [sp, #412]	; 0x19c
 412:	f240 0100 	movw	r1, #0
 416:	f2c0 0100 	movt	r1, #0
 41a:	a86c      	add	r0, sp, #432	; 0x1b0
 41c:	2207      	movs	r2, #7
 41e:	f7ff fffe 	bl	0 <_ZN6mynewt4Strn3new17h967a68cba91966afE>
 422:	e7ff      	b.n	424 <_ZN3app11app_network16send_sensor_data17h0bef8045eaaaacccE+0x424>
 424:	a86c      	add	r0, sp, #432	; 0x1b0
 426:	906b      	str	r0, [sp, #428]	; 0x1ac
 428:	9967      	ldr	r1, [sp, #412]	; 0x19c
 42a:	9a6b      	ldr	r2, [sp, #428]	; 0x1ac
 42c:	f240 0000 	movw	r0, #0
 430:	f2c0 0000 	movt	r0, #0
 434:	f7ff fffe 	bl	0 <_ZN6mynewt8encoding12coap_context11CoapContext20json_set_text_string17h1e9480c68764dd27E>
 438:	e7ff      	b.n	2 <_ZN3app11app_network16send_sensor_data17h0bef8045eaaaacccE+0x2>
 43a:	f240 0100 	movw	r1, #0
 43e:	f2c0 0100 	movt	r1, #0
 442:	a870      	add	r0, sp, #448	; 0x1c0
 444:	2206      	movs	r2, #6
 446:	f7ff fffe 	bl	0 <_ZN6mynewt4Strn3new17h967a68cba91966afE>
 44a:	e7ff      	b.n	44c <_ZN3app11app_network16send_sensor_data17h0bef8045eaaaacccE+0x44c>
 44c:	a870      	add	r0, sp, #448	; 0x1c0
 44e:	906f      	str	r0, [sp, #444]	; 0x1bc
 450:	a828      	add	r0, sp, #160	; 0xa0
c:\stm32bluepill-mynewt-sensor/rust\app\src/app_network.rs:107
        "device": &device_id,
 452:	9073      	str	r0, [sp, #460]	; 0x1cc
c:\stm32bluepill-mynewt-sensor/rust\app\src/app_network.rs:98
    let _payload = coap!( @json {        
 454:	996f      	ldr	r1, [sp, #444]	; 0x1bc
 456:	9a73      	ldr	r2, [sp, #460]	; 0x1cc
 458:	f240 0000 	movw	r0, #0
 45c:	f2c0 0000 	movt	r0, #0
 460:	f7ff fffe 	bl	0 <_ZN6mynewt8encoding12coap_context11CoapContext20json_set_text_string17h1e9480c68764dd27E>
 464:	e7ff      	b.n	2 <_ZN3app11app_network16send_sensor_data17h0bef8045eaaaacccE+0x2>
 466:	f240 0000 	movw	r0, #0
 46a:	f2c0 0000 	movt	r0, #0
 46e:	9074      	str	r0, [sp, #464]	; 0x1d0
 470:	200d      	movs	r0, #13
 472:	9075      	str	r0, [sp, #468]	; 0x1d4
 474:	9874      	ldr	r0, [sp, #464]	; 0x1d0
 476:	9975      	ldr	r1, [sp, #468]	; 0x1d4
 478:	9086      	str	r0, [sp, #536]	; 0x218
 47a:	9187      	str	r1, [sp, #540]	; 0x21c
_ZN4core3str21_$LT$impl$u20$str$GT$8as_bytes17h724e50c34863b638E():
/rustc/412f43ac5b4ae8c3599e71c6972112e9be4758fa/src/libcore/str/mod.rs:2179
 47c:	9886      	ldr	r0, [sp, #536]	; 0x218
 47e:	9987      	ldr	r1, [sp, #540]	; 0x21c
 480:	9088      	str	r0, [sp, #544]	; 0x220
 482:	9189      	str	r1, [sp, #548]	; 0x224
 484:	9988      	ldr	r1, [sp, #544]	; 0x220
 486:	9a89      	ldr	r2, [sp, #548]	; 0x224
_ZN3app11app_network16send_sensor_data17h0bef8045eaaaacccE():
c:\stm32bluepill-mynewt-sensor/rust\app\src/app_network.rs:98
 488:	9109      	str	r1, [sp, #36]	; 0x24
 48a:	9208      	str	r2, [sp, #32]
 48c:	e7ff      	b.n	48e <_ZN3app11app_network16send_sensor_data17h0bef8045eaaaacccE+0x48e>
 48e:	f240 0000 	movw	r0, #0
 492:	f2c0 0000 	movt	r0, #0
 496:	9909      	ldr	r1, [sp, #36]	; 0x24
 498:	9a08      	ldr	r2, [sp, #32]
 49a:	f7ff fffe 	bl	0 <_ZN6mynewt8encoding12coap_context11CoapContext11key_to_cstr17h50826129d4e22b23E>
 49e:	9007      	str	r0, [sp, #28]
 4a0:	e7ff      	b.n	4a2 <_ZN3app11app_network16send_sensor_data17h0bef8045eaaaacccE+0x4a2>
 4a2:	9807      	ldr	r0, [sp, #28]
 4a4:	f7ff fffe 	bl	0 <json_helper_object_array_end_item>
 4a8:	e7ff      	b.n	2 <_ZN3app11app_network16send_sensor_data17h0bef8045eaaaacccE+0x2>
 4aa:	f240 0000 	movw	r0, #0
 4ae:	f2c0 0000 	movt	r0, #0
 4b2:	9076      	str	r0, [sp, #472]	; 0x1d8
 4b4:	2007      	movs	r0, #7
 4b6:	9077      	str	r0, [sp, #476]	; 0x1dc
 4b8:	f240 0000 	movw	r0, #0
 4bc:	f2c0 0000 	movt	r0, #0
 4c0:	f7ff fffe 	bl	0 <_ZN6mynewt8encoding12coap_context11CoapContext11to_void_ptr17hfa11a0011d3b28dcE>
 4c4:	9006      	str	r0, [sp, #24]
 4c6:	e7ff      	b.n	4c8 <_ZN3app11app_network16send_sensor_data17h0bef8045eaaaacccE+0x4c8>
 4c8:	9876      	ldr	r0, [sp, #472]	; 0x1d8
 4ca:	9977      	ldr	r1, [sp, #476]	; 0x1dc
 4cc:	9082      	str	r0, [sp, #520]	; 0x208
 4ce:	9183      	str	r1, [sp, #524]	; 0x20c
_ZN4core3str21_$LT$impl$u20$str$GT$8as_bytes17h724e50c34863b638E():
/rustc/412f43ac5b4ae8c3599e71c6972112e9be4758fa/src/libcore/str/mod.rs:2179
 4d0:	9882      	ldr	r0, [sp, #520]	; 0x208
 4d2:	9983      	ldr	r1, [sp, #524]	; 0x20c
 4d4:	9084      	str	r0, [sp, #528]	; 0x210
 4d6:	9185      	str	r1, [sp, #532]	; 0x214
 4d8:	9984      	ldr	r1, [sp, #528]	; 0x210
 4da:	9a85      	ldr	r2, [sp, #532]	; 0x214
_ZN3app11app_network16send_sensor_data17h0bef8045eaaaacccE():
c:\stm32bluepill-mynewt-sensor/rust\app\src/app_network.rs:98
 4dc:	9105      	str	r1, [sp, #20]
 4de:	9204      	str	r2, [sp, #16]
 4e0:	e7ff      	b.n	4e2 <_ZN3app11app_network16send_sensor_data17h0bef8045eaaaacccE+0x4e2>
 4e2:	f240 0000 	movw	r0, #0
 4e6:	f2c0 0000 	movt	r0, #0
 4ea:	9905      	ldr	r1, [sp, #20]
 4ec:	9a04      	ldr	r2, [sp, #16]
 4ee:	f7ff fffe 	bl	0 <_ZN6mynewt8encoding12coap_context11CoapContext11key_to_cstr17h50826129d4e22b23E>
 4f2:	9003      	str	r0, [sp, #12]
 4f4:	e7ff      	b.n	4f6 <_ZN3app11app_network16send_sensor_data17h0bef8045eaaaacccE+0x4f6>
 4f6:	9806      	ldr	r0, [sp, #24]
 4f8:	9903      	ldr	r1, [sp, #12]
 4fa:	f7ff fffe 	bl	0 <json_helper_close_array>
 4fe:	e7ff      	b.n	2 <json_rep_end_root_object+0x2>
 500:	f7ff fffe 	bl	0 <json_rep_end_root_object>
 504:	e7ff      	b.n	506 <_ZN3app11app_network16send_sensor_data17h0bef8045eaaaacccE+0x506>
 506:	a87a      	add	r0, sp, #488	; 0x1e8
c:\stm32bluepill-mynewt-sensor/rust\app\src/app_network.rs:113
    sensor_network::do_server_post() ? ;
 508:	f7ff fffe 	bl	0 <_ZN6mynewt4libs14sensor_network14do_server_post17h8ffe958fc370a59aE>
 50c:	e7ff      	b.n	50e <_ZN3app11app_network16send_sensor_data17h0bef8045eaaaacccE+0x50e>
 50e:	a878      	add	r0, sp, #480	; 0x1e0
 510:	a97a      	add	r1, sp, #488	; 0x1e8
 512:	f7ff fffe 	bl	0 <_ZN73_$LT$core..result..Result$LT$T$C$E$GT$$u20$as$u20$core..ops..try..Try$GT$11into_result17h817c29b95c5b7ad6E>
 516:	e7ff      	b.n	518 <_ZN3app11app_network16send_sensor_data17h0bef8045eaaaacccE+0x518>
 518:	f89d 01e0 	ldrb.w	r0, [sp, #480]	; 0x1e0
 51c:	07c1      	lsls	r1, r0, #31
 51e:	2900      	cmp	r1, #0
 520:	d00f      	beq.n	542 <_ZN3app11app_network16send_sensor_data17h0bef8045eaaaacccE+0x542>
 522:	e7ff      	b.n	524 <_ZN3app11app_network16send_sensor_data17h0bef8045eaaaacccE+0x524>
 524:	e000      	b.n	528 <_ZN3app11app_network16send_sensor_data17h0bef8045eaaaacccE+0x528>
 526:	defe      	udf	#254	; 0xfe
 528:	9879      	ldr	r0, [sp, #484]	; 0x1e4
 52a:	907c      	str	r0, [sp, #496]	; 0x1f0
 52c:	987c      	ldr	r0, [sp, #496]	; 0x1f0
 52e:	f7ff fffe 	bl	0 <_ZN50_$LT$T$u20$as$u20$core..convert..From$LT$T$GT$$GT$4from17h1a28f543ef3bd8bcE>
 532:	9002      	str	r0, [sp, #8]
 534:	e7ff      	b.n	536 <_ZN3app11app_network16send_sensor_data17h0bef8045eaaaacccE+0x536>
 536:	9802      	ldr	r0, [sp, #8]
 538:	f7ff fffe 	bl	0 <_ZN73_$LT$core..result..Result$LT$T$C$E$GT$$u20$as$u20$core..ops..try..Try$GT$10from_error17h82883cbc71a62f35E>
 53c:	9026      	str	r0, [sp, #152]	; 0x98
 53e:	e7ff      	b.n	540 <_ZN3app11app_network16send_sensor_data17h0bef8045eaaaacccE+0x540>
 540:	e618      	b.n	174 <_ZN3app11app_network16send_sensor_data17h0bef8045eaaaacccE+0x174>
 542:	f89d 01e1 	ldrb.w	r0, [sp, #481]	; 0x1e1
 546:	f88d 01f7 	strb.w	r0, [sp, #503]	; 0x1f7
c:\stm32bluepill-mynewt-sensor/rust\app\src/app_network.rs:116
    console::print("NET view your sensor at \nhttps://blue-pill-geolocate.appspot.com?device=");
 54a:	f240 0000 	movw	r0, #0
 54e:	f2c0 0000 	movt	r0, #0
 552:	2148      	movs	r1, #72	; 0x48
 554:	f7ff fffe 	bl	0 <_ZN6mynewt3sys7console5print17hcde9599709a168ecE>
 558:	e7ff      	b.n	55a <_ZN3app11app_network16send_sensor_data17h0bef8045eaaaacccE+0x55a>
 55a:	a828      	add	r0, sp, #160	; 0xa0
c:\stm32bluepill-mynewt-sensor/rust\app\src/app_network.rs:117
    console::print_strn(&device_id); console::print("\n");
 55c:	f7ff fffe 	bl	0 <_ZN6mynewt3sys7console10print_strn17h50f49973560dfec7E>
 560:	e7ff      	b.n	2 <_ZN3app11app_network16send_sensor_data17h0bef8045eaaaacccE+0x2>
 562:	f240 0000 	movw	r0, #0
 566:	f2c0 0000 	movt	r0, #0
 56a:	2101      	movs	r1, #1
 56c:	f7ff fffe 	bl	0 <_ZN6mynewt3sys7console5print17hcde9599709a168ecE>
 570:	e7ff      	b.n	572 <_ZN3app11app_network16send_sensor_data17h0bef8045eaaaacccE+0x572>
 572:	2000      	movs	r0, #0
c:\stm32bluepill-mynewt-sensor/rust\app\src/app_network.rs:120
    Ok(())
 574:	9026      	str	r0, [sp, #152]	; 0x98
 576:	2001      	movs	r0, #1
 578:	9026      	str	r0, [sp, #152]	; 0x98
c:\stm32bluepill-mynewt-sensor/rust\app\src/app_network.rs:121
}
 57a:	e588      	b.n	8e <_ZN3app11app_network16send_sensor_data17h0bef8045eaaaacccE+0x8e>

app-20d859f505b9d0c6.41fhcs94hgkk74dx.rcgu.o:     file format elf32-littlearm

SYMBOL TABLE:
00000000 l    df *ABS*	00000000 41fhcs94hgkk74dx
00000089 l       .debug_str	00000000 
000000fe l       .debug_str	00000000 
00000000 l       .debug_str	00000000 
00000041 l       .debug_str	00000000 
00000055 l       .debug_str	00000000 
00000074 l       .debug_str	00000000 
00000079 l       .debug_str	00000000 
00000080 l       .debug_str	00000000 
0000008f l       .debug_str	00000000 
0000008d l       .debug_str	00000000 
0000010b l       .debug_str	00000000 
00000000 l    d  .text._ZN77_$LT$core..marker..PhantomData$LT$T$GT$$u20$as$u20$core..default..Default$GT$7default17h8523ed2c4c050effE	00000000 .text._ZN77_$LT$core..marker..PhantomData$LT$T$GT$$u20$as$u20$core..default..Default$GT$7default17h8523ed2c4c050effE
00000000 l    d  .debug_abbrev	00000000 .debug_abbrev
00000000 l    d  .debug_info	00000000 .debug_info
00000000 l    d  .debug_frame	00000000 .debug_frame
00000000 l    d  .debug_line	00000000 .debug_line
00000000 g     F .text._ZN77_$LT$core..marker..PhantomData$LT$T$GT$$u20$as$u20$core..default..Default$GT$7default17h8523ed2c4c050effE	00000002 _ZN77_$LT$core..marker..PhantomData$LT$T$GT$$u20$as$u20$core..default..Default$GT$7default17h8523ed2c4c050effE



Disassembly of section .text._ZN77_$LT$core..marker..PhantomData$LT$T$GT$$u20$as$u20$core..default..Default$GT$7default17h8523ed2c4c050effE:

00000000 <_ZN77_$LT$core..marker..PhantomData$LT$T$GT$$u20$as$u20$core..default..Default$GT$7default17h8523ed2c4c050effE>:
_ZN77_$LT$core..marker..PhantomData$LT$T$GT$$u20$as$u20$core..default..Default$GT$7default17h8523ed2c4c050effE():
/rustc/412f43ac5b4ae8c3599e71c6972112e9be4758fa/src/libcore/marker.rs:515
   0:	4770      	bx	lr

app-20d859f505b9d0c6.43lx8lpxo4acwo7o.rcgu.o:     file format elf32-littlearm

SYMBOL TABLE:
00000000 l    df *ABS*	00000000 43lx8lpxo4acwo7o
00001461 l       .debug_str	00000000 
00003c86 l       .debug_str	00000000 
000042a6 l       .debug_str	00000000 
00003c57 l       .debug_str	00000000 
0000426b l       .debug_str	00000000 
00003c17 l       .debug_str	00000000 
0000423e l       .debug_str	00000000 
00003be2 l       .debug_str	00000000 
0000420d l       .debug_str	00000000 
00003bad l       .debug_str	00000000 
00003b78 l       .debug_str	00000000 
000041e7 l       .debug_str	00000000 
00003b5e l       .debug_str	00000000 
00003b29 l       .debug_str	00000000 
000041dc l       .debug_str	00000000 
00003b23 l       .debug_str	00000000 
00003ad3 l       .debug_str	00000000 
0000419b l       .debug_str	00000000 
00003a9e l       .debug_str	00000000 
000040f2 l       .debug_str	00000000 
000039e6 l       .debug_str	00000000 
000040c8 l       .debug_str	00000000 
000039b1 l       .debug_str	00000000 
0000400a l       .debug_str	00000000 
00003978 l       .debug_str	00000000 
00003fe0 l       .debug_str	00000000 
00003943 l       .debug_str	00000000 
00003fc1 l       .debug_str	00000000 
0000391e l       .debug_str	00000000 
00003851 l       .debug_str	00000000 
00003f02 l       .debug_str	00000000 
0000381c l       .debug_str	00000000 
00003ed7 l       .debug_str	00000000 
00003772 l       .debug_str	00000000 
00003eaf l       .debug_str	00000000 
0000376d l       .debug_str	00000000 
00003e8e l       .debug_str	00000000 
00003734 l       .debug_str	00000000 
00003dd5 l       .debug_str	00000000 
000036ff l       .debug_str	00000000 
00003da6 l       .debug_str	00000000 
000036d1 l       .debug_str	00000000 
00003d97 l       .debug_str	00000000 
0000369c l       .debug_str	00000000 
00003d58 l       .debug_str	00000000 
000035ce l       .debug_str	00000000 
00003d29 l       .debug_str	00000000 
00003599 l       .debug_str	00000000 
00003ce8 l       .debug_str	00000000 
0000355f l       .debug_str	00000000 
00000000 l       .debug_str	00000000 
00000041 l       .debug_str	00000000 
00000055 l       .debug_str	00000000 
00000074 l       .debug_str	00000000 
0000007a l       .debug_str	00000000 
00000081 l       .debug_str	00000000 
00000086 l       .debug_str	00000000 
00000089 l       .debug_str	00000000 
00000094 l       .debug_str	00000000 
0000009d l       .debug_str	00000000 
000000a2 l       .debug_str	00000000 
000000a7 l       .debug_str	00000000 
000000ae l       .debug_str	00000000 
000000b3 l       .debug_str	00000000 
000000b8 l       .debug_str	00000000 
000000bf l       .debug_str	00000000 
000000c6 l       .debug_str	00000000 
000000cd l       .debug_str	00000000 
000000d1 l       .debug_str	00000000 
000000d9 l       .debug_str	00000000 
000000e4 l       .debug_str	00000000 
000000ef l       .debug_str	00000000 
000000fc l       .debug_str	00000000 
00000107 l       .debug_str	00000000 
0000010f l       .debug_str	00000000 
0000011a l       .debug_str	00000000 
00000125 l       .debug_str	00000000 
0000012f l       .debug_str	00000000 
0000013a l       .debug_str	00000000 
00000145 l       .debug_str	00000000 
00000152 l       .debug_str	00000000 
0000015e l       .debug_str	00000000 
0000016b l       .debug_str	00000000 
00000179 l       .debug_str	00000000 
00000183 l       .debug_str	00000000 
00000190 l       .debug_str	00000000 
0000019c l       .debug_str	00000000 
000001a0 l       .debug_str	00000000 
000001a9 l       .debug_str	00000000 
000001b0 l       .debug_str	00000000 
000001b4 l       .debug_str	00000000 
000001ba l       .debug_str	00000000 
000001c0 l       .debug_str	00000000 
000001c4 l       .debug_str	00000000 
000001ca l       .debug_str	00000000 
000001d5 l       .debug_str	00000000 
000001df l       .debug_str	00000000 
000001e4 l       .debug_str	00000000 
000001e8 l       .debug_str	00000000 
000001ec l       .debug_str	00000000 
000001f1 l       .debug_str	00000000 
000001f5 l       .debug_str	00000000 
000001f9 l       .debug_str	00000000 
000001fd l       .debug_str	00000000 
0000020e l       .debug_str	00000000 
00000227 l       .debug_str	00000000 
0000022c l       .debug_str	00000000 
00000267 l       .debug_str	00000000 
00000295 l       .debug_str	00000000 
0000029e l       .debug_str	00000000 
000002a5 l       .debug_str	00000000 
000002ae l       .debug_str	00000000 
000002b5 l       .debug_str	00000000 
000002b7 l       .debug_str	00000000 
000002bb l       .debug_str	00000000 
000002c2 l       .debug_str	00000000 
000002c6 l       .debug_str	00000000 
000002d3 l       .debug_str	00000000 
000002da l       .debug_str	00000000 
000002dd l       .debug_str	00000000 
000002e3 l       .debug_str	00000000 
000002f1 l       .debug_str	00000000 
000002ff l       .debug_str	00000000 
00000304 l       .debug_str	00000000 
0000030c l       .debug_str	00000000 
00000314 l       .debug_str	00000000 
00000316 l       .debug_str	00000000 
00000318 l       .debug_str	00000000 
00000334 l       .debug_str	00000000 
0000033c l       .debug_str	00000000 
00000343 l       .debug_str	00000000 
00000353 l       .debug_str	00000000 
00000398 l       .debug_str	00000000 
00000405 l       .debug_str	00000000 
0000049b l       .debug_str	00000000 
0000055a l       .debug_str	00000000 
00000562 l       .debug_str	00000000 
00000567 l       .debug_str	00000000 
0000056d l       .debug_str	00000000 
00000571 l       .debug_str	00000000 
00000574 l       .debug_str	00000000 
0000059d l       .debug_str	00000000 
000005d3 l       .debug_str	00000000 
000005d5 l       .debug_str	00000000 
00000602 l       .debug_str	00000000 
00000605 l       .debug_str	00000000 
00000655 l       .debug_str	00000000 
000006b2 l       .debug_str	00000000 
00000706 l       .debug_str	00000000 
0000077d l       .debug_str	00000000 
00000801 l       .debug_str	00000000 
0000087c l       .debug_str	00000000 
0000091a l       .debug_str	00000000 
000009c5 l       .debug_str	00000000 
00000a67 l       .debug_str	00000000 
00000b2c l       .debug_str	00000000 
00000bfe l       .debug_str	00000000 
00000cc7 l       .debug_str	00000000 
00000db1 l       .debug_str	00000000 
00000eb8 l       .debug_str	00000000 
00000fbe l       .debug_str	00000000 
00000fc2 l       .debug_str	00000000 
00000fc8 l       .debug_str	00000000 
00000fca l       .debug_str	00000000 
000010c8 l       .debug_str	00000000 
000011c9 l       .debug_str	00000000 
000011cb l       .debug_str	00000000 
000012ab l       .debug_str	00000000 
000012af l       .debug_str	00000000 
000012b5 l       .debug_str	00000000 
000012be l       .debug_str	00000000 
000012c8 l       .debug_str	00000000 
000012d0 l       .debug_str	00000000 
000012dc l       .debug_str	00000000 
000012e3 l       .debug_str	00000000 
000012eb l       .debug_str	00000000 
000012f3 l       .debug_str	00000000 
000012fa l       .debug_str	00000000 
0000130e l       .debug_str	00000000 
0000131a l       .debug_str	00000000 
00001326 l       .debug_str	00000000 
00001330 l       .debug_str	00000000 
00001339 l       .debug_str	00000000 
00001342 l       .debug_str	00000000 
0000134b l       .debug_str	00000000 
00001351 l       .debug_str	00000000 
00001359 l       .debug_str	00000000 
00001365 l       .debug_str	00000000 
0000136d l       .debug_str	00000000 
0000137e l       .debug_str	00000000 
00001390 l       .debug_str	00000000 
00001399 l       .debug_str	00000000 
000013cc l       .debug_str	00000000 
00001400 l       .debug_str	00000000 
0000144a l       .debug_str	00000000 
00001455 l       .debug_str	00000000 
0000352a l       .debug_str	00000000 
00001467 l       .debug_str	00000000 
0000146c l       .debug_str	00000000 
0000146f l       .debug_str	00000000 
00001473 l       .debug_str	00000000 
00001476 l       .debug_str	00000000 
00001479 l       .debug_str	00000000 
0000147c l       .debug_str	00000000 
00001481 l       .debug_str	00000000 
0000148d l       .debug_str	00000000 
00001492 l       .debug_str	00000000 
00001499 l       .debug_str	00000000 
000014a3 l       .debug_str	00000000 
000014ae l       .debug_str	00000000 
000014bb l       .debug_str	00000000 
000014c9 l       .debug_str	00000000 
000014d3 l       .debug_str	00000000 
000014e1 l       .debug_str	00000000 
000014eb l       .debug_str	00000000 
00001501 l       .debug_str	00000000 
0000150c l       .debug_str	00000000 
00001517 l       .debug_str	00000000 
0000151f l       .debug_str	00000000 
00001521 l       .debug_str	00000000 
0000152f l       .debug_str	00000000 
00001549 l       .debug_str	00000000 
00001552 l       .debug_str	00000000 
00001556 l       .debug_str	00000000 
0000158e l       .debug_str	00000000 
000015c9 l       .debug_str	00000000 
00001616 l       .debug_str	00000000 
0000161c l       .debug_str	00000000 
00001622 l       .debug_str	00000000 
0000162b l       .debug_str	00000000 
00001635 l       .debug_str	00000000 
0000163c l       .debug_str	00000000 
00001641 l       .debug_str	00000000 
0000164a l       .debug_str	00000000 
00001685 l       .debug_str	00000000 
000016a1 l       .debug_str	00000000 
000016dc l       .debug_str	00000000 
0000173e l       .debug_str	00000000 
000017eb l       .debug_str	00000000 
0000184a l       .debug_str	00000000 
00001885 l       .debug_str	00000000 
0000199c l       .debug_str	00000000 
000019a5 l       .debug_str	00000000 
000019b3 l       .debug_str	00000000 
000019c0 l       .debug_str	00000000 
000019f8 l       .debug_str	00000000 
00001a07 l       .debug_str	00000000 
00001a33 l       .debug_str	00000000 
00001a78 l       .debug_str	00000000 
00001ab1 l       .debug_str	00000000 
00001b48 l       .debug_str	00000000 
00001be6 l       .debug_str	00000000 
00001ca1 l       .debug_str	00000000 
00001d5b l       .debug_str	00000000 
00001e0d l       .debug_str	00000000 
00001ea2 l       .debug_str	00000000 
00001ed7 l       .debug_str	00000000 
00001ef5 l       .debug_str	00000000 
00001ef9 l       .debug_str	00000000 
00001f05 l       .debug_str	00000000 
00001fff l       .debug_str	00000000 
00002004 l       .debug_str	00000000 
000020b0 l       .debug_str	00000000 
000020b9 l       .debug_str	00000000 
000020ce l       .debug_str	00000000 
00002103 l       .debug_str	00000000 
00002141 l       .debug_str	00000000 
0000214e l       .debug_str	00000000 
00002151 l       .debug_str	00000000 
0000215b l       .debug_str	00000000 
00002164 l       .debug_str	00000000 
0000216d l       .debug_str	00000000 
00002179 l       .debug_str	00000000 
0000217f l       .debug_str	00000000 
00002189 l       .debug_str	00000000 
00002198 l       .debug_str	00000000 
0000219a l       .debug_str	00000000 
000021d3 l       .debug_str	00000000 
000021da l       .debug_str	00000000 
000021e1 l       .debug_str	00000000 
000021f2 l       .debug_str	00000000 
00002231 l       .debug_str	00000000 
00002264 l       .debug_str	00000000 
000022ef l       .debug_str	00000000 
000023c6 l       .debug_str	00000000 
000024e9 l       .debug_str	00000000 
00002560 l       .debug_str	00000000 
000025e4 l       .debug_str	00000000 
0000265f l       .debug_str	00000000 
000026fd l       .debug_str	00000000 
000027a8 l       .debug_str	00000000 
0000284a l       .debug_str	00000000 
00002930 l       .debug_str	00000000 
00002a33 l       .debug_str	00000000 
00002b35 l       .debug_str	00000000 
00002c2f l       .debug_str	00000000 
00002d0c l       .debug_str	00000000 
00002d16 l       .debug_str	00000000 
00002d3d l       .debug_str	00000000 
00002d42 l       .debug_str	00000000 
00002d46 l       .debug_str	00000000 
00002d4c l       .debug_str	00000000 
00002d53 l       .debug_str	00000000 
00002d58 l       .debug_str	00000000 
00002d72 l       .debug_str	00000000 
00002d7f l       .debug_str	00000000 
00002daf l       .debug_str	00000000 
00002e04 l       .debug_str	00000000 
00002e4d l       .debug_str	00000000 
00002f04 l       .debug_str	00000000 
00002fb2 l       .debug_str	00000000 
0000307d l       .debug_str	00000000 
00003147 l       .debug_str	00000000 
00003209 l       .debug_str	00000000 
000032ae l       .debug_str	00000000 
000032e3 l       .debug_str	00000000 
000033ab l       .debug_str	00000000 
000033e0 l       .debug_str	00000000 
00003410 l       .debug_str	00000000 
00003417 l       .debug_str	00000000 
0000341d l       .debug_str	00000000 
00003422 l       .debug_str	00000000 
0000342c l       .debug_str	00000000 
00003435 l       .debug_str	00000000 
00003444 l       .debug_str	00000000 
0000344a l       .debug_str	00000000 
0000344f l       .debug_str	00000000 
00003458 l       .debug_str	00000000 
0000345a l       .debug_str	00000000 
0000345c l       .debug_str	00000000 
00003466 l       .debug_str	00000000 
00003471 l       .debug_str	00000000 
00003478 l       .debug_str	00000000 
000034b2 l       .debug_str	00000000 
000034be l       .debug_str	00000000 
000034f3 l       .debug_str	00000000 
00003cb9 l       .debug_str	00000000 
00000000 l     F .text._ZN4core3ptr18real_drop_in_place17h29863cb406ac12e1E	00000014 _ZN4core3ptr18real_drop_in_place17h29863cb406ac12e1E
00000000 l     F .text._ZN4core3ptr18real_drop_in_place17h3df4a8cb0c88f013E	00000012 _ZN4core3ptr18real_drop_in_place17h3df4a8cb0c88f013E
00000000 l     F .text._ZN4core3ptr18real_drop_in_place17h7915e12ce44b9701E	0000001e _ZN4core3ptr18real_drop_in_place17h7915e12ce44b9701E
00000000 l     F .text._ZN4core3ptr18real_drop_in_place17h9809a22048daef9eE	00000012 _ZN4core3ptr18real_drop_in_place17h9809a22048daef9eE
00000000 l    d  .text._ZN4core3ops8function6FnOnce9call_once17h24c010e6e1623cc4E	00000000 .text._ZN4core3ops8function6FnOnce9call_once17h24c010e6e1623cc4E
00000000 l    d  .text._ZN4core3ops8function6FnOnce9call_once17hdf8990ceac9c694cE	00000000 .text._ZN4core3ops8function6FnOnce9call_once17hdf8990ceac9c694cE
00000000 l    d  .text._ZN4core3ops8function6FnOnce9call_once17he3238a55969275e0E	00000000 .text._ZN4core3ops8function6FnOnce9call_once17he3238a55969275e0E
00000000 l    d  .text._ZN4core3ops8function6FnOnce9call_once17hf0bfda2e675dde0bE	00000000 .text._ZN4core3ops8function6FnOnce9call_once17hf0bfda2e675dde0bE
00000000 l    d  .text._ZN4core3ptr18real_drop_in_place17h0f1df9dfccd8e8e0E	00000000 .text._ZN4core3ptr18real_drop_in_place17h0f1df9dfccd8e8e0E
00000000 l    d  .text._ZN4core3ptr18real_drop_in_place17h29863cb406ac12e1E	00000000 .text._ZN4core3ptr18real_drop_in_place17h29863cb406ac12e1E
00000000 l    d  .text._ZN4core3ptr18real_drop_in_place17h3df4a8cb0c88f013E	00000000 .text._ZN4core3ptr18real_drop_in_place17h3df4a8cb0c88f013E
00000000 l    d  .text._ZN4core3ptr18real_drop_in_place17h41ca6ccaa2e6b8cbE	00000000 .text._ZN4core3ptr18real_drop_in_place17h41ca6ccaa2e6b8cbE
00000000 l    d  .text._ZN4core3ptr18real_drop_in_place17h43d2527d930e489cE	00000000 .text._ZN4core3ptr18real_drop_in_place17h43d2527d930e489cE
00000000 l    d  .text._ZN4core3ptr18real_drop_in_place17h4535dffa1a73d84fE	00000000 .text._ZN4core3ptr18real_drop_in_place17h4535dffa1a73d84fE
00000000 l    d  .text._ZN4core3ptr18real_drop_in_place17h4f830d78be4150a4E	00000000 .text._ZN4core3ptr18real_drop_in_place17h4f830d78be4150a4E
00000000 l    d  .text._ZN4core3ptr18real_drop_in_place17h6cf72b56b2bcd0c4E	00000000 .text._ZN4core3ptr18real_drop_in_place17h6cf72b56b2bcd0c4E
00000000 l    d  .text._ZN4core3ptr18real_drop_in_place17h7915e12ce44b9701E	00000000 .text._ZN4core3ptr18real_drop_in_place17h7915e12ce44b9701E
00000000 l    d  .text._ZN4core3ptr18real_drop_in_place17h8206fef70e9b44abE	00000000 .text._ZN4core3ptr18real_drop_in_place17h8206fef70e9b44abE
00000000 l    d  .text._ZN4core3ptr18real_drop_in_place17h85d93fe77eef3dabE	00000000 .text._ZN4core3ptr18real_drop_in_place17h85d93fe77eef3dabE
00000000 l    d  .text._ZN4core3ptr18real_drop_in_place17h9809a22048daef9eE	00000000 .text._ZN4core3ptr18real_drop_in_place17h9809a22048daef9eE
00000000 l    d  .text._ZN4core3ptr18real_drop_in_place17ha5cf28763c41a7efE	00000000 .text._ZN4core3ptr18real_drop_in_place17ha5cf28763c41a7efE
00000000 l    d  .text._ZN4core3ptr18real_drop_in_place17hcddb86ac259c4372E	00000000 .text._ZN4core3ptr18real_drop_in_place17hcddb86ac259c4372E
00000000 l    d  .text._ZN4core3ptr18real_drop_in_place17hcf7d06efdf2906fcE	00000000 .text._ZN4core3ptr18real_drop_in_place17hcf7d06efdf2906fcE
00000000 l    d  .text._ZN4core3ptr18real_drop_in_place17hfd29428cefd2c20bE	00000000 .text._ZN4core3ptr18real_drop_in_place17hfd29428cefd2c20bE
00000000 l    d  .text._ZN4core5clone5Clone5clone17h106374a95124ca8eE	00000000 .text._ZN4core5clone5Clone5clone17h106374a95124ca8eE
00000000 l    d  .text._ZN4core5clone5Clone5clone17h24e960e3b8af3f40E	00000000 .text._ZN4core5clone5Clone5clone17h24e960e3b8af3f40E
00000000 l    d  .text._ZN4core5clone5Clone5clone17hd470976df669b1edE	00000000 .text._ZN4core5clone5Clone5clone17hd470976df669b1edE
00000000 l    d  .debug_abbrev	00000000 .debug_abbrev
00000000 l    d  .debug_info	00000000 .debug_info
00000000 l    d  .debug_ranges	00000000 .debug_ranges
00000000 l    d  .debug_frame	00000000 .debug_frame
00000000 l    d  .debug_line	00000000 .debug_line
00000000         *UND*	00000000 _ZN11druid_shell6window12WindowHandle17h043415122793ea5bE
00000000         *UND*	00000000 .hidden _ZN3app5hello10ui_builder28_$u7b$$u7b$closure$u7d$$u7d$17h0edc9eaa13c84860E
00000000         *UND*	00000000 .hidden _ZN3app5hello10ui_builder28_$u7b$$u7b$closure$u7d$$u7d$17hc068cc10622a5755E
00000000 g     F .text._ZN4core3ops8function6FnOnce9call_once17h24c010e6e1623cc4E	0000001a .hidden _ZN4core3ops8function6FnOnce9call_once17h24c010e6e1623cc4E
00000000 g     F .text._ZN4core3ops8function6FnOnce9call_once17hdf8990ceac9c694cE	0000001e .hidden _ZN4core3ops8function6FnOnce9call_once17hdf8990ceac9c694cE
00000000 g     F .text._ZN4core3ops8function6FnOnce9call_once17he3238a55969275e0E	0000001e .hidden _ZN4core3ops8function6FnOnce9call_once17he3238a55969275e0E
00000000 g     F .text._ZN4core3ops8function6FnOnce9call_once17hf0bfda2e675dde0bE	0000001c .hidden _ZN4core3ops8function6FnOnce9call_once17hf0bfda2e675dde0bE
00000000 g     F .text._ZN4core3ptr18real_drop_in_place17h0f1df9dfccd8e8e0E	00000012 .hidden _ZN4core3ptr18real_drop_in_place17h0f1df9dfccd8e8e0E
00000000 g     F .text._ZN4core3ptr18real_drop_in_place17h41ca6ccaa2e6b8cbE	00000008 .hidden _ZN4core3ptr18real_drop_in_place17h41ca6ccaa2e6b8cbE
00000000 g     F .text._ZN4core3ptr18real_drop_in_place17h43d2527d930e489cE	00000012 .hidden _ZN4core3ptr18real_drop_in_place17h43d2527d930e489cE
00000000 g     F .text._ZN4core3ptr18real_drop_in_place17h4535dffa1a73d84fE	00000008 .hidden _ZN4core3ptr18real_drop_in_place17h4535dffa1a73d84fE
00000000 g     F .text._ZN4core3ptr18real_drop_in_place17h4f830d78be4150a4E	0000001e .hidden _ZN4core3ptr18real_drop_in_place17h4f830d78be4150a4E
00000000 g     F .text._ZN4core3ptr18real_drop_in_place17h6cf72b56b2bcd0c4E	00000008 .hidden _ZN4core3ptr18real_drop_in_place17h6cf72b56b2bcd0c4E
00000000 g     F .text._ZN4core3ptr18real_drop_in_place17h8206fef70e9b44abE	0000001a .hidden _ZN4core3ptr18real_drop_in_place17h8206fef70e9b44abE
00000000 g     F .text._ZN4core3ptr18real_drop_in_place17h85d93fe77eef3dabE	00000008 .hidden _ZN4core3ptr18real_drop_in_place17h85d93fe77eef3dabE
00000000 g     F .text._ZN4core3ptr18real_drop_in_place17ha5cf28763c41a7efE	00000008 .hidden _ZN4core3ptr18real_drop_in_place17ha5cf28763c41a7efE
00000000 g     F .text._ZN4core3ptr18real_drop_in_place17hcddb86ac259c4372E	00000008 .hidden _ZN4core3ptr18real_drop_in_place17hcddb86ac259c4372E
00000000 g     F .text._ZN4core3ptr18real_drop_in_place17hcf7d06efdf2906fcE	00000014 .hidden _ZN4core3ptr18real_drop_in_place17hcf7d06efdf2906fcE
00000000 g     F .text._ZN4core3ptr18real_drop_in_place17hfd29428cefd2c20bE	00000008 .hidden _ZN4core3ptr18real_drop_in_place17hfd29428cefd2c20bE
00000000 g     F .text._ZN4core5clone5Clone5clone17h106374a95124ca8eE	0000002a .hidden _ZN4core5clone5Clone5clone17h106374a95124ca8eE
00000000 g     F .text._ZN4core5clone5Clone5clone17h24e960e3b8af3f40E	0000000c .hidden _ZN4core5clone5Clone5clone17h24e960e3b8af3f40E
00000000 g     F .text._ZN4core5clone5Clone5clone17hd470976df669b1edE	0000000c .hidden _ZN4core5clone5Clone5clone17hd470976df669b1edE
00000000         *UND*	00000000 _ZN4core5clone5impls54_$LT$impl$u20$core..clone..Clone$u20$for$u20$$RF$T$GT$5clone17h1e37ad60f71bec3aE
00000000         *UND*	00000000 _ZN50_$LT$T$u20$as$u20$core..convert..Into$LT$U$GT$$GT$4into17he2b5e9c739375f62E
00000000         *UND*	00000000 _ZN73_$LT$heapless..vec..Vec$LT$T$C$N$GT$$u20$as$u20$core..ops..drop..Drop$GT$4drop17h36dcc6356d78c880E
00000000         *UND*	00000000 _ZN73_$LT$heapless..vec..Vec$LT$T$C$N$GT$$u20$as$u20$core..ops..drop..Drop$GT$4drop17heb8a41f44558116fE
00000000         *UND*	00000000 _ZN78_$LT$druid..localization..ArgSource$LT$T$GT$$u20$as$u20$core..clone..Clone$GT$5clone17h00830903e890502fE
00000000         *UND*	00000000 _ZN78_$LT$heapless..vec..IntoIter$LT$T$C$N$GT$$u20$as$u20$core..ops..drop..Drop$GT$4drop17hdb2a15b98b0ef58dE



Disassembly of section .text._ZN4core3ops8function6FnOnce9call_once17h24c010e6e1623cc4E:

00000000 <_ZN4core3ops8function6FnOnce9call_once17h24c010e6e1623cc4E>:
_ZN4core3ops8function6FnOnce9call_once17h24c010e6e1623cc4E():
/rustc/412f43ac5b4ae8c3599e71c6972112e9be4758fa/src/libcore/ops/function.rs:223
   0:	b580      	push	{r7, lr}
   2:	b084      	sub	sp, #16
   4:	9102      	str	r1, [sp, #8]
   6:	9203      	str	r2, [sp, #12]
   8:	9a02      	ldr	r2, [sp, #8]
   a:	9b03      	ldr	r3, [sp, #12]
   c:	a901      	add	r1, sp, #4
   e:	f7ff fffe 	bl	0 <_ZN3app5hello10ui_builder28_$u7b$$u7b$closure$u7d$$u7d$17hc068cc10622a5755E>
  12:	e7ff      	b.n	14 <_ZN4core3ops8function6FnOnce9call_once17h24c010e6e1623cc4E+0x14>
  14:	e7ff      	b.n	16 <_ZN4core3ops8function6FnOnce9call_once17h24c010e6e1623cc4E+0x16>
  16:	b004      	add	sp, #16
  18:	bd80      	pop	{r7, pc}

Disassembly of section .text._ZN4core3ops8function6FnOnce9call_once17hdf8990ceac9c694cE:

00000000 <_ZN4core3ops8function6FnOnce9call_once17hdf8990ceac9c694cE>:
_ZN4core3ops8function6FnOnce9call_once17hdf8990ceac9c694cE():
/rustc/412f43ac5b4ae8c3599e71c6972112e9be4758fa/src/libcore/ops/function.rs:223
   0:	b580      	push	{r7, lr}
   2:	b084      	sub	sp, #16
   4:	9001      	str	r0, [sp, #4]
   6:	9102      	str	r1, [sp, #8]
   8:	9203      	str	r2, [sp, #12]
   a:	9901      	ldr	r1, [sp, #4]
   c:	9a02      	ldr	r2, [sp, #8]
   e:	9b03      	ldr	r3, [sp, #12]
  10:	4668      	mov	r0, sp
  12:	f7ff fffe 	bl	0 <_ZN3app5hello10ui_builder28_$u7b$$u7b$closure$u7d$$u7d$17h0edc9eaa13c84860E>
  16:	e7ff      	b.n	18 <_ZN4core3ops8function6FnOnce9call_once17hdf8990ceac9c694cE+0x18>
  18:	e7ff      	b.n	1a <_ZN4core3ops8function6FnOnce9call_once17hdf8990ceac9c694cE+0x1a>
  1a:	b004      	add	sp, #16
  1c:	bd80      	pop	{r7, pc}

Disassembly of section .text._ZN4core3ops8function6FnOnce9call_once17he3238a55969275e0E:

00000000 <_ZN4core3ops8function6FnOnce9call_once17he3238a55969275e0E>:
_ZN4core3ops8function6FnOnce9call_once17he3238a55969275e0E():
/rustc/412f43ac5b4ae8c3599e71c6972112e9be4758fa/src/libcore/ops/function.rs:223
   0:	b580      	push	{r7, lr}
   2:	b086      	sub	sp, #24
   4:	9004      	str	r0, [sp, #16]
   6:	9105      	str	r1, [sp, #20]
   8:	9804      	ldr	r0, [sp, #16]
   a:	9905      	ldr	r1, [sp, #20]
   c:	f7ff fffe 	bl	0 <_ZN50_$LT$T$u20$as$u20$core..convert..Into$LT$U$GT$$GT$4into17he2b5e9c739375f62E>
  10:	9002      	str	r0, [sp, #8]
  12:	9101      	str	r1, [sp, #4]
  14:	e7ff      	b.n	16 <_ZN4core3ops8function6FnOnce9call_once17he3238a55969275e0E+0x16>
  16:	9802      	ldr	r0, [sp, #8]
  18:	9901      	ldr	r1, [sp, #4]
  1a:	b006      	add	sp, #24
  1c:	bd80      	pop	{r7, pc}

Disassembly of section .text._ZN4core3ops8function6FnOnce9call_once17hf0bfda2e675dde0bE:

00000000 <_ZN4core3ops8function6FnOnce9call_once17hf0bfda2e675dde0bE>:
_ZN4core3ops8function6FnOnce9call_once17hf0bfda2e675dde0bE():
/rustc/412f43ac5b4ae8c3599e71c6972112e9be4758fa/src/libcore/ops/function.rs:223
   0:	b580      	push	{r7, lr}
   2:	b084      	sub	sp, #16
   4:	680a      	ldr	r2, [r1, #0]
   6:	684b      	ldr	r3, [r1, #4]
   8:	6889      	ldr	r1, [r1, #8]
   a:	9103      	str	r1, [sp, #12]
   c:	9302      	str	r3, [sp, #8]
   e:	9201      	str	r2, [sp, #4]
  10:	a901      	add	r1, sp, #4
  12:	f7ff fffe 	bl	0 <_ZN11druid_shell6window12WindowHandle17h043415122793ea5bE>
  16:	e7ff      	b.n	18 <_ZN4core3ops8function6FnOnce9call_once17hf0bfda2e675dde0bE+0x18>
  18:	b004      	add	sp, #16
  1a:	bd80      	pop	{r7, pc}

Disassembly of section .text._ZN4core3ptr18real_drop_in_place17h0f1df9dfccd8e8e0E:

00000000 <_ZN4core3ptr18real_drop_in_place17h0f1df9dfccd8e8e0E>:
_ZN4core3ptr18real_drop_in_place17h0f1df9dfccd8e8e0E():
/rustc/412f43ac5b4ae8c3599e71c6972112e9be4758fa/src/libcore/ptr/mod.rs:181
   0:	b580      	push	{r7, lr}
   2:	b082      	sub	sp, #8
   4:	9001      	str	r0, [sp, #4]
   6:	9801      	ldr	r0, [sp, #4]
   8:	f7ff fffe 	bl	0 <_ZN4core3ptr18real_drop_in_place17h0f1df9dfccd8e8e0E>
   c:	e7ff      	b.n	e <_ZN4core3ptr18real_drop_in_place17h0f1df9dfccd8e8e0E+0xe>
   e:	b002      	add	sp, #8
  10:	bd80      	pop	{r7, pc}

Disassembly of section .text._ZN4core3ptr18real_drop_in_place17h29863cb406ac12e1E:

00000000 <_ZN4core3ptr18real_drop_in_place17h29863cb406ac12e1E>:
_ZN4core3ptr18real_drop_in_place17h29863cb406ac12e1E():
/rustc/412f43ac5b4ae8c3599e71c6972112e9be4758fa/src/libcore/ptr/mod.rs:181
   0:	b580      	push	{r7, lr}
   2:	b082      	sub	sp, #8
   4:	9001      	str	r0, [sp, #4]
   6:	9801      	ldr	r0, [sp, #4]
   8:	3024      	adds	r0, #36	; 0x24
   a:	f7ff fffe 	bl	0 <_ZN4core3ptr18real_drop_in_place17h29863cb406ac12e1E>
   e:	e7ff      	b.n	10 <_ZN4core3ptr18real_drop_in_place17h29863cb406ac12e1E+0x10>
  10:	b002      	add	sp, #8
  12:	bd80      	pop	{r7, pc}

Disassembly of section .text._ZN4core3ptr18real_drop_in_place17h3df4a8cb0c88f013E:

00000000 <_ZN4core3ptr18real_drop_in_place17h3df4a8cb0c88f013E>:
_ZN4core3ptr18real_drop_in_place17h3df4a8cb0c88f013E():
/rustc/412f43ac5b4ae8c3599e71c6972112e9be4758fa/src/libcore/ptr/mod.rs:181
   0:	b580      	push	{r7, lr}
   2:	b082      	sub	sp, #8
   4:	9001      	str	r0, [sp, #4]
   6:	9801      	ldr	r0, [sp, #4]
   8:	f7ff fffe 	bl	0 <_ZN73_$LT$heapless..vec..Vec$LT$T$C$N$GT$$u20$as$u20$core..ops..drop..Drop$GT$4drop17heb8a41f44558116fE>
   c:	e7ff      	b.n	e <_ZN4core3ptr18real_drop_in_place17h3df4a8cb0c88f013E+0xe>
   e:	b002      	add	sp, #8
  10:	bd80      	pop	{r7, pc}

Disassembly of section .text._ZN4core3ptr18real_drop_in_place17h41ca6ccaa2e6b8cbE:

00000000 <_ZN4core3ptr18real_drop_in_place17h41ca6ccaa2e6b8cbE>:
_ZN4core3ptr18real_drop_in_place17h41ca6ccaa2e6b8cbE():
/rustc/412f43ac5b4ae8c3599e71c6972112e9be4758fa/src/libcore/ptr/mod.rs:181
   0:	b081      	sub	sp, #4
   2:	9000      	str	r0, [sp, #0]
   4:	b001      	add	sp, #4
   6:	4770      	bx	lr

Disassembly of section .text._ZN4core3ptr18real_drop_in_place17h43d2527d930e489cE:

00000000 <_ZN4core3ptr18real_drop_in_place17h43d2527d930e489cE>:
_ZN4core3ptr18real_drop_in_place17h43d2527d930e489cE():
/rustc/412f43ac5b4ae8c3599e71c6972112e9be4758fa/src/libcore/ptr/mod.rs:181
   0:	b580      	push	{r7, lr}
   2:	b082      	sub	sp, #8
   4:	9001      	str	r0, [sp, #4]
   6:	9801      	ldr	r0, [sp, #4]
   8:	f7ff fffe 	bl	0 <_ZN4core3ptr18real_drop_in_place17h43d2527d930e489cE>
   c:	e7ff      	b.n	e <_ZN4core3ptr18real_drop_in_place17h43d2527d930e489cE+0xe>
   e:	b002      	add	sp, #8
  10:	bd80      	pop	{r7, pc}

Disassembly of section .text._ZN4core3ptr18real_drop_in_place17h4535dffa1a73d84fE:

00000000 <_ZN4core3ptr18real_drop_in_place17h4535dffa1a73d84fE>:
_ZN4core3ptr18real_drop_in_place17h4535dffa1a73d84fE():
/rustc/412f43ac5b4ae8c3599e71c6972112e9be4758fa/src/libcore/ptr/mod.rs:181
   0:	b081      	sub	sp, #4
   2:	9000      	str	r0, [sp, #0]
   4:	b001      	add	sp, #4
   6:	4770      	bx	lr

Disassembly of section .text._ZN4core3ptr18real_drop_in_place17h4f830d78be4150a4E:

00000000 <_ZN4core3ptr18real_drop_in_place17h4f830d78be4150a4E>:
_ZN4core3ptr18real_drop_in_place17h4f830d78be4150a4E():
/rustc/412f43ac5b4ae8c3599e71c6972112e9be4758fa/src/libcore/ptr/mod.rs:181
   0:	b580      	push	{r7, lr}
   2:	b082      	sub	sp, #8
   4:	9001      	str	r0, [sp, #4]
   6:	9801      	ldr	r0, [sp, #4]
   8:	6800      	ldr	r0, [r0, #0]
   a:	2800      	cmp	r0, #0
   c:	d102      	bne.n	14 <_ZN4core3ptr18real_drop_in_place17h4f830d78be4150a4E+0x14>
   e:	e7ff      	b.n	10 <_ZN4core3ptr18real_drop_in_place17h4f830d78be4150a4E+0x10>
  10:	b002      	add	sp, #8
  12:	bd80      	pop	{r7, pc}
  14:	9801      	ldr	r0, [sp, #4]
  16:	3004      	adds	r0, #4
  18:	f7ff fffe 	bl	0 <_ZN4core3ptr18real_drop_in_place17h4f830d78be4150a4E>
  1c:	e7f8      	b.n	10 <_ZN4core3ptr18real_drop_in_place17h4f830d78be4150a4E+0x10>

Disassembly of section .text._ZN4core3ptr18real_drop_in_place17h6cf72b56b2bcd0c4E:

00000000 <_ZN4core3ptr18real_drop_in_place17h6cf72b56b2bcd0c4E>:
_ZN4core3ptr18real_drop_in_place17h6cf72b56b2bcd0c4E():
/rustc/412f43ac5b4ae8c3599e71c6972112e9be4758fa/src/libcore/ptr/mod.rs:181
   0:	b081      	sub	sp, #4
   2:	9000      	str	r0, [sp, #0]
   4:	b001      	add	sp, #4
   6:	4770      	bx	lr

Disassembly of section .text._ZN4core3ptr18real_drop_in_place17h7915e12ce44b9701E:

00000000 <_ZN4core3ptr18real_drop_in_place17h7915e12ce44b9701E>:
_ZN4core3ptr18real_drop_in_place17h7915e12ce44b9701E():
/rustc/412f43ac5b4ae8c3599e71c6972112e9be4758fa/src/libcore/ptr/mod.rs:181
   0:	b580      	push	{r7, lr}
   2:	b082      	sub	sp, #8
   4:	9001      	str	r0, [sp, #4]
   6:	9801      	ldr	r0, [sp, #4]
   8:	6800      	ldr	r0, [r0, #0]
   a:	2800      	cmp	r0, #0
   c:	d002      	beq.n	14 <_ZN4core3ptr18real_drop_in_place17h7915e12ce44b9701E+0x14>
   e:	e7ff      	b.n	10 <_ZN4core3ptr18real_drop_in_place17h7915e12ce44b9701E+0x10>
  10:	b002      	add	sp, #8
  12:	bd80      	pop	{r7, pc}
  14:	9801      	ldr	r0, [sp, #4]
  16:	3004      	adds	r0, #4
  18:	f7ff fffe 	bl	0 <_ZN4core3ptr18real_drop_in_place17h7915e12ce44b9701E>
  1c:	e7f8      	b.n	10 <_ZN4core3ptr18real_drop_in_place17h7915e12ce44b9701E+0x10>

Disassembly of section .text._ZN4core3ptr18real_drop_in_place17h8206fef70e9b44abE:

00000000 <_ZN4core3ptr18real_drop_in_place17h8206fef70e9b44abE>:
_ZN4core3ptr18real_drop_in_place17h8206fef70e9b44abE():
/rustc/412f43ac5b4ae8c3599e71c6972112e9be4758fa/src/libcore/ptr/mod.rs:181
   0:	b580      	push	{r7, lr}
   2:	b082      	sub	sp, #8
   4:	9001      	str	r0, [sp, #4]
   6:	9801      	ldr	r0, [sp, #4]
   8:	f7ff fffe 	bl	0 <_ZN78_$LT$heapless..vec..IntoIter$LT$T$C$N$GT$$u20$as$u20$core..ops..drop..Drop$GT$4drop17hdb2a15b98b0ef58dE>
   c:	e001      	b.n	12 <_ZN4core3ptr18real_drop_in_place17h8206fef70e9b44abE+0x12>
   e:	b002      	add	sp, #8
  10:	bd80      	pop	{r7, pc}
  12:	9801      	ldr	r0, [sp, #4]
  14:	f7ff fffe 	bl	0 <_ZN4core3ptr18real_drop_in_place17h8206fef70e9b44abE>
  18:	e7f9      	b.n	e <_ZN4core3ptr18real_drop_in_place17h8206fef70e9b44abE+0xe>

Disassembly of section .text._ZN4core3ptr18real_drop_in_place17h85d93fe77eef3dabE:

00000000 <_ZN4core3ptr18real_drop_in_place17h85d93fe77eef3dabE>:
_ZN4core3ptr18real_drop_in_place17h85d93fe77eef3dabE():
/rustc/412f43ac5b4ae8c3599e71c6972112e9be4758fa/src/libcore/ptr/mod.rs:181
   0:	b081      	sub	sp, #4
   2:	9000      	str	r0, [sp, #0]
   4:	b001      	add	sp, #4
   6:	4770      	bx	lr

Disassembly of section .text._ZN4core3ptr18real_drop_in_place17h9809a22048daef9eE:

00000000 <_ZN4core3ptr18real_drop_in_place17h9809a22048daef9eE>:
_ZN4core3ptr18real_drop_in_place17h9809a22048daef9eE():
/rustc/412f43ac5b4ae8c3599e71c6972112e9be4758fa/src/libcore/ptr/mod.rs:181
   0:	b580      	push	{r7, lr}
   2:	b082      	sub	sp, #8
   4:	9001      	str	r0, [sp, #4]
   6:	9801      	ldr	r0, [sp, #4]
   8:	f7ff fffe 	bl	0 <_ZN73_$LT$heapless..vec..Vec$LT$T$C$N$GT$$u20$as$u20$core..ops..drop..Drop$GT$4drop17h36dcc6356d78c880E>
   c:	e7ff      	b.n	e <_ZN4core3ptr18real_drop_in_place17h9809a22048daef9eE+0xe>
   e:	b002      	add	sp, #8
  10:	bd80      	pop	{r7, pc}

Disassembly of section .text._ZN4core3ptr18real_drop_in_place17ha5cf28763c41a7efE:

00000000 <_ZN4core3ptr18real_drop_in_place17ha5cf28763c41a7efE>:
_ZN4core3ptr18real_drop_in_place17ha5cf28763c41a7efE():
/rustc/412f43ac5b4ae8c3599e71c6972112e9be4758fa/src/libcore/ptr/mod.rs:181
   0:	b081      	sub	sp, #4
   2:	9000      	str	r0, [sp, #0]
   4:	b001      	add	sp, #4
   6:	4770      	bx	lr

Disassembly of section .text._ZN4core3ptr18real_drop_in_place17hcddb86ac259c4372E:

00000000 <_ZN4core3ptr18real_drop_in_place17hcddb86ac259c4372E>:
_ZN4core3ptr18real_drop_in_place17hcddb86ac259c4372E():
/rustc/412f43ac5b4ae8c3599e71c6972112e9be4758fa/src/libcore/ptr/mod.rs:181
   0:	b081      	sub	sp, #4
   2:	9000      	str	r0, [sp, #0]
   4:	b001      	add	sp, #4
   6:	4770      	bx	lr

Disassembly of section .text._ZN4core3ptr18real_drop_in_place17hcf7d06efdf2906fcE:

00000000 <_ZN4core3ptr18real_drop_in_place17hcf7d06efdf2906fcE>:
_ZN4core3ptr18real_drop_in_place17hcf7d06efdf2906fcE():
/rustc/412f43ac5b4ae8c3599e71c6972112e9be4758fa/src/libcore/ptr/mod.rs:181
   0:	b580      	push	{r7, lr}
   2:	b082      	sub	sp, #8
   4:	9001      	str	r0, [sp, #4]
   6:	9801      	ldr	r0, [sp, #4]
   8:	3014      	adds	r0, #20
   a:	f7ff fffe 	bl	0 <_ZN4core3ptr18real_drop_in_place17hcf7d06efdf2906fcE>
   e:	e7ff      	b.n	10 <_ZN4core3ptr18real_drop_in_place17hcf7d06efdf2906fcE+0x10>
  10:	b002      	add	sp, #8
  12:	bd80      	pop	{r7, pc}

Disassembly of section .text._ZN4core3ptr18real_drop_in_place17hfd29428cefd2c20bE:

00000000 <_ZN4core3ptr18real_drop_in_place17hfd29428cefd2c20bE>:
_ZN4core3ptr18real_drop_in_place17hfd29428cefd2c20bE():
/rustc/412f43ac5b4ae8c3599e71c6972112e9be4758fa/src/libcore/ptr/mod.rs:181
   0:	b081      	sub	sp, #4
   2:	9000      	str	r0, [sp, #0]
   4:	b001      	add	sp, #4
   6:	4770      	bx	lr

Disassembly of section .text._ZN4core5clone5Clone5clone17h106374a95124ca8eE:

00000000 <_ZN4core5clone5Clone5clone17h106374a95124ca8eE>:
_ZN4core5clone5Clone5clone17h106374a95124ca8eE():
/rustc/412f43ac5b4ae8c3599e71c6972112e9be4758fa/src/libcore/clone.rs:122
   0:	b580      	push	{r7, lr}
   2:	b082      	sub	sp, #8
   4:	9101      	str	r1, [sp, #4]
   6:	9901      	ldr	r1, [sp, #4]
   8:	9000      	str	r0, [sp, #0]
   a:	4608      	mov	r0, r1
   c:	f7ff fffe 	bl	0 <_ZN4core5clone5impls54_$LT$impl$u20$core..clone..Clone$u20$for$u20$$RF$T$GT$5clone17h1e37ad60f71bec3aE>
  10:	9a00      	ldr	r2, [sp, #0]
  12:	6051      	str	r1, [r2, #4]
  14:	6010      	str	r0, [r2, #0]
  16:	e7ff      	b.n	18 <_ZN4core5clone5Clone5clone17h106374a95124ca8eE+0x18>
  18:	9801      	ldr	r0, [sp, #4]
  1a:	3008      	adds	r0, #8
  1c:	f7ff fffe 	bl	0 <_ZN78_$LT$druid..localization..ArgSource$LT$T$GT$$u20$as$u20$core..clone..Clone$GT$5clone17h00830903e890502fE>
  20:	9900      	ldr	r1, [sp, #0]
  22:	6088      	str	r0, [r1, #8]
  24:	e7ff      	b.n	26 <_ZN4core5clone5Clone5clone17h106374a95124ca8eE+0x26>
  26:	b002      	add	sp, #8
  28:	bd80      	pop	{r7, pc}

Disassembly of section .text._ZN4core5clone5Clone5clone17h24e960e3b8af3f40E:

00000000 <_ZN4core5clone5Clone5clone17h24e960e3b8af3f40E>:
_ZN4core5clone5Clone5clone17h24e960e3b8af3f40E():
/rustc/412f43ac5b4ae8c3599e71c6972112e9be4758fa/src/libcore/clone.rs:122
   0:	b081      	sub	sp, #4
   2:	9000      	str	r0, [sp, #0]
   4:	9800      	ldr	r0, [sp, #0]
   6:	6800      	ldr	r0, [r0, #0]
   8:	b001      	add	sp, #4
   a:	4770      	bx	lr

Disassembly of section .text._ZN4core5clone5Clone5clone17hd470976df669b1edE:

00000000 <_ZN4core5clone5Clone5clone17hd470976df669b1edE>:
_ZN4core5clone5Clone5clone17hd470976df669b1edE():
/rustc/412f43ac5b4ae8c3599e71c6972112e9be4758fa/src/libcore/clone.rs:122
   0:	b081      	sub	sp, #4
   2:	9000      	str	r0, [sp, #0]
   4:	9800      	ldr	r0, [sp, #0]
   6:	6800      	ldr	r0, [r0, #0]
   8:	b001      	add	sp, #4
   a:	4770      	bx	lr

app-20d859f505b9d0c6.4jbqdaedptl3ag34.rcgu.o:     file format elf32-littlearm

SYMBOL TABLE:
00000000 l    df *ABS*	00000000 4jbqdaedptl3ag34
00001045 l       .debug_str	00000000 
00002554 l       .debug_str	00000000 
000026ab l       .debug_str	00000000 
00002545 l       .debug_str	00000000 
000026a1 l       .debug_str	00000000 
0000253f l       .debug_str	00000000 
00002688 l       .debug_str	00000000 
00002538 l       .debug_str	00000000 
00002683 l       .debug_str	00000000 
0000252d l       .debug_str	00000000 
00002667 l       .debug_str	00000000 
00002521 l       .debug_str	00000000 
00002643 l       .debug_str	00000000 
0000250d l       .debug_str	00000000 
0000262c l       .debug_str	00000000 
00002506 l       .debug_str	00000000 
00002628 l       .debug_str	00000000 
000024fe l       .debug_str	00000000 
0000260b l       .debug_str	00000000 
000024f6 l       .debug_str	00000000 
00002600 l       .debug_str	00000000 
000024f2 l       .debug_str	00000000 
000025a2 l       .debug_str	00000000 
000024e8 l       .debug_str	00000000 
00002598 l       .debug_str	00000000 
000024da l       .debug_str	00000000 
000024d5 l       .debug_str	00000000 
00002587 l       .debug_str	00000000 
000024d0 l       .debug_str	00000000 
00002582 l       .debug_str	00000000 
000024ca l       .debug_str	00000000 
00002569 l       .debug_str	00000000 
000024c5 l       .debug_str	00000000 
00000000 l       .debug_str	00000000 
00000041 l       .debug_str	00000000 
00000055 l       .debug_str	00000000 
00000074 l       .debug_str	00000000 
0000007a l       .debug_str	00000000 
00000081 l       .debug_str	00000000 
00000086 l       .debug_str	00000000 
00000089 l       .debug_str	00000000 
00000094 l       .debug_str	00000000 
0000009d l       .debug_str	00000000 
000000a2 l       .debug_str	00000000 
000000a7 l       .debug_str	00000000 
000000ae l       .debug_str	00000000 
000000b3 l       .debug_str	00000000 
000000b8 l       .debug_str	00000000 
000000bf l       .debug_str	00000000 
000000c6 l       .debug_str	00000000 
000000c9 l       .debug_str	00000000 
000000cd l       .debug_str	00000000 
000000d4 l       .debug_str	00000000 
000000d8 l       .debug_str	00000000 
000000db l       .debug_str	00000000 
000000de l       .debug_str	00000000 
000000e3 l       .debug_str	00000000 
000000e9 l       .debug_str	00000000 
000000f0 l       .debug_str	00000000 
000000f8 l       .debug_str	00000000 
00000102 l       .debug_str	00000000 
00000106 l       .debug_str	00000000 
0000010f l       .debug_str	00000000 
00000115 l       .debug_str	00000000 
00000119 l       .debug_str	00000000 
00000126 l       .debug_str	00000000 
00000129 l       .debug_str	00000000 
0000012d l       .debug_str	00000000 
00000137 l       .debug_str	00000000 
00000140 l       .debug_str	00000000 
00000149 l       .debug_str	00000000 
0000014d l       .debug_str	00000000 
00000151 l       .debug_str	00000000 
00000153 l       .debug_str	00000000 
0000015a l       .debug_str	00000000 
0000015e l       .debug_str	00000000 
0000016b l       .debug_str	00000000 
00000172 l       .debug_str	00000000 
00000175 l       .debug_str	00000000 
0000017b l       .debug_str	00000000 
00000189 l       .debug_str	00000000 
00000197 l       .debug_str	00000000 
0000019c l       .debug_str	00000000 
000001a4 l       .debug_str	00000000 
000001ac l       .debug_str	00000000 
000001b2 l       .debug_str	00000000 
000001be l       .debug_str	00000000 
000001c4 l       .debug_str	00000000 
000001c9 l       .debug_str	00000000 
000001cc l       .debug_str	00000000 
000001d0 l       .debug_str	00000000 
000001d3 l       .debug_str	00000000 
000001d6 l       .debug_str	00000000 
000001d9 l       .debug_str	00000000 
000001de l       .debug_str	00000000 
000001ea l       .debug_str	00000000 
000001ef l       .debug_str	00000000 
000001f6 l       .debug_str	00000000 
00000200 l       .debug_str	00000000 
0000020b l       .debug_str	00000000 
00000218 l       .debug_str	00000000 
00000226 l       .debug_str	00000000 
00000230 l       .debug_str	00000000 
0000023e l       .debug_str	00000000 
00000248 l       .debug_str	00000000 
00000251 l       .debug_str	00000000 
00000253 l       .debug_str	00000000 
0000025f l       .debug_str	00000000 
00000263 l       .debug_str	00000000 
00000269 l       .debug_str	00000000 
00000273 l       .debug_str	00000000 
00000277 l       .debug_str	00000000 
0000027e l       .debug_str	00000000 
0000028f l       .debug_str	00000000 
00000291 l       .debug_str	00000000 
000002a0 l       .debug_str	00000000 
000002a2 l       .debug_str	00000000 
000002db l       .debug_str	00000000 
000002e2 l       .debug_str	00000000 
000002e9 l       .debug_str	00000000 
000002fa l       .debug_str	00000000 
000002fc l       .debug_str	00000000 
0000033b l       .debug_str	00000000 
00000343 l       .debug_str	00000000 
00000376 l       .debug_str	00000000 
00000401 l       .debug_str	00000000 
000004d8 l       .debug_str	00000000 
000005fb l       .debug_str	00000000 
00000603 l       .debug_str	00000000 
00000608 l       .debug_str	00000000 
0000060e l       .debug_str	00000000 
00000612 l       .debug_str	00000000 
00000615 l       .debug_str	00000000 
0000063e l       .debug_str	00000000 
00000674 l       .debug_str	00000000 
00000676 l       .debug_str	00000000 
000006a3 l       .debug_str	00000000 
000006a6 l       .debug_str	00000000 
000006f6 l       .debug_str	00000000 
00000753 l       .debug_str	00000000 
000007a7 l       .debug_str	00000000 
0000081e l       .debug_str	00000000 
000008a2 l       .debug_str	00000000 
0000091d l       .debug_str	00000000 
000009bb l       .debug_str	00000000 
00000a66 l       .debug_str	00000000 
00000b08 l       .debug_str	00000000 
00000bee l       .debug_str	00000000 
00000cf1 l       .debug_str	00000000 
00000df3 l       .debug_str	00000000 
00000df7 l       .debug_str	00000000 
00000dfd l       .debug_str	00000000 
00000dff l       .debug_str	00000000 
00000ef9 l       .debug_str	00000000 
00000efb l       .debug_str	00000000 
00000fd8 l       .debug_str	00000000 
00000fe2 l       .debug_str	00000000 
00001009 l       .debug_str	00000000 
0000100e l       .debug_str	00000000 
00001012 l       .debug_str	00000000 
00001018 l       .debug_str	00000000 
0000101f l       .debug_str	00000000 
00001024 l       .debug_str	00000000 
0000103e l       .debug_str	00000000 
000024c1 l       .debug_str	00000000 
0000104e l       .debug_str	00000000 
0000105b l       .debug_str	00000000 
0000108b l       .debug_str	00000000 
00001093 l       .debug_str	00000000 
000010e8 l       .debug_str	00000000 
00001131 l       .debug_str	00000000 
000011e8 l       .debug_str	00000000 
00001296 l       .debug_str	00000000 
00001361 l       .debug_str	00000000 
0000142b l       .debug_str	00000000 
000014ed l       .debug_str	00000000 
00001592 l       .debug_str	00000000 
000015c3 l       .debug_str	00000000 
00001609 l       .debug_str	00000000 
0000164a l       .debug_str	00000000 
0000168b l       .debug_str	00000000 
000016d3 l       .debug_str	00000000 
00001716 l       .debug_str	00000000 
0000175f l       .debug_str	00000000 
000017a3 l       .debug_str	00000000 
000017eb l       .debug_str	00000000 
0000182e l       .debug_str	00000000 
00001877 l       .debug_str	00000000 
000018b9 l       .debug_str	00000000 
00001904 l       .debug_str	00000000 
00001952 l       .debug_str	00000000 
0000199a l       .debug_str	00000000 
000019e0 l       .debug_str	00000000 
00001a21 l       .debug_str	00000000 
00001a25 l       .debug_str	00000000 
00001a2b l       .debug_str	00000000 
00001a31 l       .debug_str	00000000 
00001a35 l       .debug_str	00000000 
00001a46 l       .debug_str	00000000 
00001a48 l       .debug_str	00000000 
00001ac4 l       .debug_str	00000000 
00001b2e l       .debug_str	00000000 
00001b37 l       .debug_str	00000000 
00001b3e l       .debug_str	00000000 
00001b81 l       .debug_str	00000000 
00001b8b l       .debug_str	00000000 
00001c07 l       .debug_str	00000000 
00001c6a l       .debug_str	00000000 
00001cb3 l       .debug_str	00000000 
00001ce4 l       .debug_str	00000000 
00001cf0 l       .debug_str	00000000 
00001cf9 l       .debug_str	00000000 
00001d02 l       .debug_str	00000000 
00001d0c l       .debug_str	00000000 
00001d14 l       .debug_str	00000000 
00001d20 l       .debug_str	00000000 
00001d28 l       .debug_str	00000000 
00001d3a l       .debug_str	00000000 
00001d43 l       .debug_str	00000000 
00001d76 l       .debug_str	00000000 
00001daa l       .debug_str	00000000 
00001db0 l       .debug_str	00000000 
00001db6 l       .debug_str	00000000 
00001dc0 l       .debug_str	00000000 
00001dc5 l       .debug_str	00000000 
00001dce l       .debug_str	00000000 
00001dd4 l       .debug_str	00000000 
00001dd6 l       .debug_str	00000000 
00001e42 l       .debug_str	00000000 
00001e81 l       .debug_str	00000000 
00001ea9 l       .debug_str	00000000 
00001ef2 l       .debug_str	00000000 
00001f22 l       .debug_str	00000000 
00001f71 l       .debug_str	00000000 
00001fa7 l       .debug_str	00000000 
00001fea l       .debug_str	00000000 
00002015 l       .debug_str	00000000 
0000203b l       .debug_str	00000000 
000020a1 l       .debug_str	00000000 
000020c9 l       .debug_str	00000000 
000020ce l       .debug_str	00000000 
000020d4 l       .debug_str	00000000 
000020d8 l       .debug_str	00000000 
000020de l       .debug_str	00000000 
0000211d l       .debug_str	00000000 
00002123 l       .debug_str	00000000 
00002160 l       .debug_str	00000000 
0000216e l       .debug_str	00000000 
00002195 l       .debug_str	00000000 
0000219d l       .debug_str	00000000 
000021d0 l       .debug_str	00000000 
00002205 l       .debug_str	00000000 
00002211 l       .debug_str	00000000 
0000221a l       .debug_str	00000000 
00002224 l       .debug_str	00000000 
0000222a l       .debug_str	00000000 
0000222f l       .debug_str	00000000 
00002235 l       .debug_str	00000000 
0000223a l       .debug_str	00000000 
00002243 l       .debug_str	00000000 
00002245 l       .debug_str	00000000 
00002247 l       .debug_str	00000000 
00002251 l       .debug_str	00000000 
00002257 l       .debug_str	00000000 
00002264 l       .debug_str	00000000 
00002270 l       .debug_str	00000000 
0000227e l       .debug_str	00000000 
00002289 l       .debug_str	00000000 
000022ba l       .debug_str	00000000 
000022e8 l       .debug_str	00000000 
000022ed l       .debug_str	00000000 
0000231c l       .debug_str	00000000 
00002348 l       .debug_str	00000000 
00002350 l       .debug_str	00000000 
00002358 l       .debug_str	00000000 
0000235d l       .debug_str	00000000 
00002363 l       .debug_str	00000000 
00002367 l       .debug_str	00000000 
0000236e l       .debug_str	00000000 
0000237b l       .debug_str	00000000 
000023b0 l       .debug_str	00000000 
000023e2 l       .debug_str	00000000 
000023f2 l       .debug_str	00000000 
00002401 l       .debug_str	00000000 
00002406 l       .debug_str	00000000 
0000240b l       .debug_str	00000000 
000024b5 l       .debug_str	00000000 
000024bc l       .debug_str	00000000 
0000255d l       .debug_str	00000000 
00000000 l     O .rodata..Lanon.c1f3292563529e54678d69800f924b88.0	00000012 .Lanon.c1f3292563529e54678d69800f924b88.0
00000000 l    d  .text._ZN4core3ptr31_$LT$impl$u20$$BP$mut$u20$T$GT$3add17hbb03a50b722c5582E	00000000 .text._ZN4core3ptr31_$LT$impl$u20$$BP$mut$u20$T$GT$3add17hbb03a50b722c5582E
00000000 l    d  .text._ZN4core3ptr31_$LT$impl$u20$$BP$mut$u20$T$GT$5write17hae450ee785200527E	00000000 .text._ZN4core3ptr31_$LT$impl$u20$$BP$mut$u20$T$GT$5write17hae450ee785200527E
00000000 l    d  .text._ZN4core3ptr31_$LT$impl$u20$$BP$mut$u20$T$GT$6offset17h50c03f4d2e60c6c6E	00000000 .text._ZN4core3ptr31_$LT$impl$u20$$BP$mut$u20$T$GT$6offset17h50c03f4d2e60c6c6E
00000000 l    d  .text._ZN4core3ptr33_$LT$impl$u20$$BP$const$u20$T$GT$3add17h65f45b864166c53aE	00000000 .text._ZN4core3ptr33_$LT$impl$u20$$BP$const$u20$T$GT$3add17h65f45b864166c53aE
00000000 l    d  .text._ZN4core3ptr33_$LT$impl$u20$$BP$const$u20$T$GT$4read17hb08fea9eeab742dbE	00000000 .text._ZN4core3ptr33_$LT$impl$u20$$BP$const$u20$T$GT$4read17hb08fea9eeab742dbE
00000000 l    d  .text._ZN4core3ptr33_$LT$impl$u20$$BP$const$u20$T$GT$6offset17h1b94085f4e6ecde4E	00000000 .text._ZN4core3ptr33_$LT$impl$u20$$BP$const$u20$T$GT$6offset17h1b94085f4e6ecde4E
00000000 l    d  .text._ZN4core5slice29_$LT$impl$u20$$u5b$T$u5d$$GT$10as_mut_ptr17h3da301929880590aE	00000000 .text._ZN4core5slice29_$LT$impl$u20$$u5b$T$u5d$$GT$10as_mut_ptr17h3da301929880590aE
00000000 l    d  .text._ZN4core5slice29_$LT$impl$u20$$u5b$T$u5d$$GT$3len17h934eb670dc520e39E	00000000 .text._ZN4core5slice29_$LT$impl$u20$$u5b$T$u5d$$GT$3len17h934eb670dc520e39E
00000000 l    d  .text._ZN4core5slice77_$LT$impl$u20$core..ops..index..IndexMut$LT$I$GT$$u20$for$u20$$u5b$T$u5d$$GT$9index_mut17h17ce9873d8f79650E	00000000 .text._ZN4core5slice77_$LT$impl$u20$core..ops..index..IndexMut$LT$I$GT$$u20$for$u20$$u5b$T$u5d$$GT$9index_mut17h17ce9873d8f79650E
00000000 l    d  .text._ZN4core5slice77_$LT$impl$u20$core..ops..index..IndexMut$LT$I$GT$$u20$for$u20$$u5b$T$u5d$$GT$9index_mut17h3f554153400ee708E	00000000 .text._ZN4core5slice77_$LT$impl$u20$core..ops..index..IndexMut$LT$I$GT$$u20$for$u20$$u5b$T$u5d$$GT$9index_mut17h3f554153400ee708E
00000000 l    d  .text._ZN5druid3app23WindowDesc$LT$T$C$W$GT$12build_native17haa46b3fa82d3a7eaE	00000000 .text._ZN5druid3app23WindowDesc$LT$T$C$W$GT$12build_native17haa46b3fa82d3a7eaE
00000000 l    d  .text._ZN5druid3app23WindowDesc$LT$T$C$W$GT$3new17hb74ea992949a2f1cE	00000000 .text._ZN5druid3app23WindowDesc$LT$T$C$W$GT$3new17hb74ea992949a2f1cE
00000000 l    d  .text._ZN5druid3app24AppLauncher$LT$T$C$W$GT$11with_window17he0d9cd9ed1b5cde8E	00000000 .text._ZN5druid3app24AppLauncher$LT$T$C$W$GT$11with_window17he0d9cd9ed1b5cde8E
00000000 l    d  .text._ZN5druid3app24AppLauncher$LT$T$C$W$GT$17use_simple_logger17hf9c4f2b9606c2189E	00000000 .text._ZN5druid3app24AppLauncher$LT$T$C$W$GT$17use_simple_logger17hf9c4f2b9606c2189E
00000000 l    d  .text._ZN5druid3app24AppLauncher$LT$T$C$W$GT$6launch17h2f422de7155fd22bE	00000000 .text._ZN5druid3app24AppLauncher$LT$T$C$W$GT$6launch17h2f422de7155fd22bE
00000000 l    d  .text._ZN72_$LT$druid..app..WindowDesc$LT$T$C$W$GT$$u20$as$u20$core..fmt..Debug$GT$3fmt17h119b79ab6a0f5548E	00000000 .text._ZN72_$LT$druid..app..WindowDesc$LT$T$C$W$GT$$u20$as$u20$core..fmt..Debug$GT$3fmt17h119b79ab6a0f5548E
00000000 l    d  .debug_loc	00000000 .debug_loc
00000000 l    d  .debug_abbrev	00000000 .debug_abbrev
00000000 l    d  .debug_info	00000000 .debug_info
00000000 l    d  .debug_ranges	00000000 .debug_ranges
00000000 l    d  .debug_frame	00000000 .debug_frame
00000000 l    d  .debug_line	00000000 .debug_line
00000000         *UND*	00000000 _ZN103_$LT$core..ops..range..RangeFrom$LT$usize$GT$$u20$as$u20$core..slice..SliceIndex$LT$$u5b$T$u5d$$GT$$GT$9index_mut17h1688c2271ef0612fE
00000000         *UND*	00000000 _ZN104_$LT$druid..win_handler..AppState$LT$u32$GT$$u20$as$u20$druid..win_handler..GlobalWindows$LT$u32$GT$$GT$10add_window17hf4db2d725a4ba53fE
00000000         *UND*	00000000 _ZN104_$LT$druid..win_handler..AppState$LT$u32$GT$$u20$as$u20$druid..win_handler..GlobalWindows$LT$u32$GT$$GT$8set_data17h978504425f19340bE
00000000         *UND*	00000000 _ZN11druid_shell11application11Application4init17h1500f638bc187b88E
00000000         *UND*	00000000 _ZN11druid_shell6window28WindowHandle$LT$THandler$GT$4show17h9af61d23457cc3bbE
00000000         *UND*	00000000 _ZN11druid_shell6window29WindowBuilder$LT$THandler$GT$11set_handler17h67933d86f8f12933E
00000000         *UND*	00000000 _ZN11druid_shell6window29WindowBuilder$LT$THandler$GT$3new17h4406d208b44714d8E
00000000         *UND*	00000000 _ZN11druid_shell6window29WindowBuilder$LT$THandler$GT$5build17h872a7ee8a7b6109aE
00000000         *UND*	00000000 _ZN11druid_shell6window29WindowBuilder$LT$THandler$GT$8set_size17h0b2954efa66d167fE
00000000         *UND*	00000000 _ZN4core3ptr18real_drop_in_place17h8206fef70e9b44abE
00000000 g     F .text._ZN4core3ptr31_$LT$impl$u20$$BP$mut$u20$T$GT$3add17hbb03a50b722c5582E	0000001a _ZN4core3ptr31_$LT$impl$u20$$BP$mut$u20$T$GT$3add17hbb03a50b722c5582E
00000000 g     F .text._ZN4core3ptr31_$LT$impl$u20$$BP$mut$u20$T$GT$5write17hae450ee785200527E	00000028 _ZN4core3ptr31_$LT$impl$u20$$BP$mut$u20$T$GT$5write17hae450ee785200527E
00000000 g     F .text._ZN4core3ptr31_$LT$impl$u20$$BP$mut$u20$T$GT$6offset17h50c03f4d2e60c6c6E	0000001c _ZN4core3ptr31_$LT$impl$u20$$BP$mut$u20$T$GT$6offset17h50c03f4d2e60c6c6E
00000000 g     F .text._ZN4core3ptr33_$LT$impl$u20$$BP$const$u20$T$GT$3add17h65f45b864166c53aE	0000001a _ZN4core3ptr33_$LT$impl$u20$$BP$const$u20$T$GT$3add17h65f45b864166c53aE
00000000 g     F .text._ZN4core3ptr33_$LT$impl$u20$$BP$const$u20$T$GT$4read17hb08fea9eeab742dbE	00000012 _ZN4core3ptr33_$LT$impl$u20$$BP$const$u20$T$GT$4read17hb08fea9eeab742dbE
00000000 g     F .text._ZN4core3ptr33_$LT$impl$u20$$BP$const$u20$T$GT$6offset17h1b94085f4e6ecde4E	0000001c _ZN4core3ptr33_$LT$impl$u20$$BP$const$u20$T$GT$6offset17h1b94085f4e6ecde4E
00000000         *UND*	00000000 _ZN4core3ptr4read17hc89a8b81e4503514E
00000000         *UND*	00000000 _ZN4core3ptr5write17he1aa9de21aade0ceE
00000000 g     F .text._ZN4core5slice29_$LT$impl$u20$$u5b$T$u5d$$GT$10as_mut_ptr17h3da301929880590aE	0000000c _ZN4core5slice29_$LT$impl$u20$$u5b$T$u5d$$GT$10as_mut_ptr17h3da301929880590aE
00000000 g     F .text._ZN4core5slice29_$LT$impl$u20$$u5b$T$u5d$$GT$3len17h934eb670dc520e39E	00000014 _ZN4core5slice29_$LT$impl$u20$$u5b$T$u5d$$GT$3len17h934eb670dc520e39E
00000000 g     F .text._ZN4core5slice77_$LT$impl$u20$core..ops..index..IndexMut$LT$I$GT$$u20$for$u20$$u5b$T$u5d$$GT$9index_mut17h17ce9873d8f79650E	00000022 _ZN4core5slice77_$LT$impl$u20$core..ops..index..IndexMut$LT$I$GT$$u20$for$u20$$u5b$T$u5d$$GT$9index_mut17h17ce9873d8f79650E
00000000 g     F .text._ZN4core5slice77_$LT$impl$u20$core..ops..index..IndexMut$LT$I$GT$$u20$for$u20$$u5b$T$u5d$$GT$9index_mut17h3f554153400ee708E	0000001e _ZN4core5slice77_$LT$impl$u20$core..ops..index..IndexMut$LT$I$GT$$u20$for$u20$$u5b$T$u5d$$GT$9index_mut17h3f554153400ee708E
00000000         *UND*	00000000 _ZN4core6result19Result$LT$T$C$E$GT$6expect17hd6c0bd1c70af5673E
00000000         *UND*	00000000 _ZN50_$LT$T$u20$as$u20$core..convert..From$LT$T$GT$$GT$4from17h5dd53b46cffc75d9E
00000000         *UND*	00000000 _ZN5druid11win_handler17AppState$LT$T$GT$3new17h0289786462ef0c23E
00000000         *UND*	00000000 _ZN5druid11win_handler21DruidHandler$LT$T$GT$10new_shared17hddc849675439212bE
00000000 g     F .text._ZN5druid3app23WindowDesc$LT$T$C$W$GT$12build_native17haa46b3fa82d3a7eaE	000000d6 _ZN5druid3app23WindowDesc$LT$T$C$W$GT$12build_native17haa46b3fa82d3a7eaE
00000000 g     F .text._ZN5druid3app23WindowDesc$LT$T$C$W$GT$3new17hb74ea992949a2f1cE	00000038 _ZN5druid3app23WindowDesc$LT$T$C$W$GT$3new17hb74ea992949a2f1cE
00000000 g     F .text._ZN5druid3app24AppLauncher$LT$T$C$W$GT$11with_window17he0d9cd9ed1b5cde8E	00000068 _ZN5druid3app24AppLauncher$LT$T$C$W$GT$11with_window17he0d9cd9ed1b5cde8E
00000000 g     F .text._ZN5druid3app24AppLauncher$LT$T$C$W$GT$17use_simple_logger17hf9c4f2b9606c2189E	0000000a _ZN5druid3app24AppLauncher$LT$T$C$W$GT$17use_simple_logger17hf9c4f2b9606c2189E
00000000 g     F .text._ZN5druid3app24AppLauncher$LT$T$C$W$GT$6launch17h2f422de7155fd22bE	00000142 _ZN5druid3app24AppLauncher$LT$T$C$W$GT$6launch17h2f422de7155fd22bE
00000000         *UND*	00000000 _ZN5druid6window8WindowId4next17h3c50c7f486f24d5fE
00000000 g     F .text._ZN72_$LT$druid..app..WindowDesc$LT$T$C$W$GT$$u20$as$u20$core..fmt..Debug$GT$3fmt17h119b79ab6a0f5548E	0000000c _ZN72_$LT$druid..app..WindowDesc$LT$T$C$W$GT$$u20$as$u20$core..fmt..Debug$GT$3fmt17h119b79ab6a0f5548E
00000000         *UND*	00000000 _ZN73_$LT$core..result..Result$LT$T$C$E$GT$$u20$as$u20$core..ops..try..Try$GT$10from_error17h5bc6406c6cace9efE
00000000         *UND*	00000000 _ZN73_$LT$core..result..Result$LT$T$C$E$GT$$u20$as$u20$core..ops..try..Try$GT$11into_result17h57571c46b08616a2E
00000000         *UND*	00000000 _ZN77_$LT$druid..widget..flex..Flex$LT$T$GT$$u20$as$u20$druid..Widget$LT$T$GT$$GT$10new_window17h51cfd56021c14b43E
00000000         *UND*	00000000 _ZN8heapless3vec16Vec$LT$T$C$N$GT$3new17h59d2849eb7762666E
00000000         *UND*	00000000 _ZN8heapless3vec16Vec$LT$T$C$N$GT$4push17h74669bce2d9d33e7E
00000000         *UND*	00000000 _ZN90_$LT$core..ops..range..RangeFull$u20$as$u20$core..slice..SliceIndex$LT$$u5b$T$u5d$$GT$$GT$9index_mut17h6d90ce6def0c309aE
00000000         *UND*	00000000 _ZN93_$LT$heapless..vec..Vec$LT$T$C$N$GT$$u20$as$u20$core..iter..traits..collect..IntoIterator$GT$9into_iter17hbbf8d269dd5dae83E
00000000         *UND*	00000000 _ZN95_$LT$heapless..vec..IntoIter$LT$T$C$N$GT$$u20$as$u20$core..iter..traits..iterator..Iterator$GT$4next17hd319174a1aa81015E
00000000         *UND*	00000000 __aeabi_memcpy8



Disassembly of section .text._ZN4core3ptr31_$LT$impl$u20$$BP$mut$u20$T$GT$3add17hbb03a50b722c5582E:

00000000 <_ZN4core3ptr31_$LT$impl$u20$$BP$mut$u20$T$GT$3add17hbb03a50b722c5582E>:
_ZN4core3ptr31_$LT$impl$u20$$BP$mut$u20$T$GT$3add17hbb03a50b722c5582E():
/rustc/412f43ac5b4ae8c3599e71c6972112e9be4758fa/src/libcore/ptr/mod.rs:2129
   0:	b580      	push	{r7, lr}
   2:	b084      	sub	sp, #16
   4:	9002      	str	r0, [sp, #8]
   6:	9103      	str	r1, [sp, #12]
/rustc/412f43ac5b4ae8c3599e71c6972112e9be4758fa/src/libcore/ptr/mod.rs:2132
   8:	9802      	ldr	r0, [sp, #8]
   a:	9903      	ldr	r1, [sp, #12]
   c:	f7ff fffe 	bl	0 <_ZN4core3ptr31_$LT$impl$u20$$BP$mut$u20$T$GT$3add17hbb03a50b722c5582E>
  10:	9001      	str	r0, [sp, #4]
  12:	e7ff      	b.n	14 <_ZN4core3ptr31_$LT$impl$u20$$BP$mut$u20$T$GT$3add17hbb03a50b722c5582E+0x14>
/rustc/412f43ac5b4ae8c3599e71c6972112e9be4758fa/src/libcore/ptr/mod.rs:2133
  14:	9801      	ldr	r0, [sp, #4]
  16:	b004      	add	sp, #16
  18:	bd80      	pop	{r7, pc}

Disassembly of section .text._ZN4core3ptr31_$LT$impl$u20$$BP$mut$u20$T$GT$5write17hae450ee785200527E:

00000000 <_ZN4core3ptr31_$LT$impl$u20$$BP$mut$u20$T$GT$5write17hae450ee785200527E>:
_ZN4core3ptr31_$LT$impl$u20$$BP$mut$u20$T$GT$5write17hae450ee785200527E():
/rustc/412f43ac5b4ae8c3599e71c6972112e9be4758fa/src/libcore/ptr/mod.rs:2434
   0:	b5b0      	push	{r4, r5, r7, lr}
   2:	b08a      	sub	sp, #40	; 0x28
   4:	9001      	str	r0, [sp, #4]
/rustc/412f43ac5b4ae8c3599e71c6972112e9be4758fa/src/libcore/ptr/mod.rs:2437
   6:	9801      	ldr	r0, [sp, #4]
   8:	aa02      	add	r2, sp, #8
   a:	4613      	mov	r3, r2
   c:	e8b1 5030 	ldmia.w	r1!, {r4, r5, ip, lr}
  10:	e8a3 5030 	stmia.w	r3!, {r4, r5, ip, lr}
  14:	e891 5030 	ldmia.w	r1, {r4, r5, ip, lr}
  18:	e883 5030 	stmia.w	r3, {r4, r5, ip, lr}
  1c:	4611      	mov	r1, r2
  1e:	f7ff fffe 	bl	0 <_ZN4core3ptr5write17he1aa9de21aade0ceE>
  22:	e7ff      	b.n	24 <_ZN4core3ptr31_$LT$impl$u20$$BP$mut$u20$T$GT$5write17hae450ee785200527E+0x24>
/rustc/412f43ac5b4ae8c3599e71c6972112e9be4758fa/src/libcore/ptr/mod.rs:2438
  24:	b00a      	add	sp, #40	; 0x28
  26:	bdb0      	pop	{r4, r5, r7, pc}

Disassembly of section .text._ZN4core3ptr31_$LT$impl$u20$$BP$mut$u20$T$GT$6offset17h50c03f4d2e60c6c6E:

00000000 <_ZN4core3ptr31_$LT$impl$u20$$BP$mut$u20$T$GT$6offset17h50c03f4d2e60c6c6E>:
_ZN4core3ptr31_$LT$impl$u20$$BP$mut$u20$T$GT$6offset17h50c03f4d2e60c6c6E():
/rustc/412f43ac5b4ae8c3599e71c6972112e9be4758fa/src/libcore/ptr/mod.rs:1863
   0:	b084      	sub	sp, #16
   2:	9001      	str	r0, [sp, #4]
   4:	9102      	str	r1, [sp, #8]
/rustc/412f43ac5b4ae8c3599e71c6972112e9be4758fa/src/libcore/ptr/mod.rs:1864
   6:	9801      	ldr	r0, [sp, #4]
   8:	9902      	ldr	r1, [sp, #8]
   a:	eb00 1041 	add.w	r0, r0, r1, lsl #5
   e:	9003      	str	r0, [sp, #12]
  10:	9803      	ldr	r0, [sp, #12]
  12:	9000      	str	r0, [sp, #0]
  14:	e7ff      	b.n	16 <_ZN4core3ptr31_$LT$impl$u20$$BP$mut$u20$T$GT$6offset17h50c03f4d2e60c6c6E+0x16>
/rustc/412f43ac5b4ae8c3599e71c6972112e9be4758fa/src/libcore/ptr/mod.rs:1865
  16:	9800      	ldr	r0, [sp, #0]
  18:	b004      	add	sp, #16
  1a:	4770      	bx	lr

Disassembly of section .text._ZN4core3ptr33_$LT$impl$u20$$BP$const$u20$T$GT$3add17h65f45b864166c53aE:

00000000 <_ZN4core3ptr33_$LT$impl$u20$$BP$const$u20$T$GT$3add17h65f45b864166c53aE>:
_ZN4core3ptr33_$LT$impl$u20$$BP$const$u20$T$GT$3add17h65f45b864166c53aE():
/rustc/412f43ac5b4ae8c3599e71c6972112e9be4758fa/src/libcore/ptr/mod.rs:1412
   0:	b580      	push	{r7, lr}
   2:	b084      	sub	sp, #16
   4:	9002      	str	r0, [sp, #8]
   6:	9103      	str	r1, [sp, #12]
/rustc/412f43ac5b4ae8c3599e71c6972112e9be4758fa/src/libcore/ptr/mod.rs:1415
   8:	9802      	ldr	r0, [sp, #8]
   a:	9903      	ldr	r1, [sp, #12]
   c:	f7ff fffe 	bl	0 <_ZN4core3ptr33_$LT$impl$u20$$BP$const$u20$T$GT$3add17h65f45b864166c53aE>
  10:	9001      	str	r0, [sp, #4]
  12:	e7ff      	b.n	14 <_ZN4core3ptr33_$LT$impl$u20$$BP$const$u20$T$GT$3add17h65f45b864166c53aE+0x14>
/rustc/412f43ac5b4ae8c3599e71c6972112e9be4758fa/src/libcore/ptr/mod.rs:1416
  14:	9801      	ldr	r0, [sp, #4]
  16:	b004      	add	sp, #16
  18:	bd80      	pop	{r7, pc}

Disassembly of section .text._ZN4core3ptr33_$LT$impl$u20$$BP$const$u20$T$GT$4read17hb08fea9eeab742dbE:

00000000 <_ZN4core3ptr33_$LT$impl$u20$$BP$const$u20$T$GT$4read17hb08fea9eeab742dbE>:
_ZN4core3ptr33_$LT$impl$u20$$BP$const$u20$T$GT$4read17hb08fea9eeab742dbE():
/rustc/412f43ac5b4ae8c3599e71c6972112e9be4758fa/src/libcore/ptr/mod.rs:1594
   0:	b580      	push	{r7, lr}
   2:	b082      	sub	sp, #8
   4:	9101      	str	r1, [sp, #4]
/rustc/412f43ac5b4ae8c3599e71c6972112e9be4758fa/src/libcore/ptr/mod.rs:1597
   6:	9901      	ldr	r1, [sp, #4]
   8:	f7ff fffe 	bl	0 <_ZN4core3ptr4read17hc89a8b81e4503514E>
   c:	e7ff      	b.n	e <_ZN4core3ptr33_$LT$impl$u20$$BP$const$u20$T$GT$4read17hb08fea9eeab742dbE+0xe>
/rustc/412f43ac5b4ae8c3599e71c6972112e9be4758fa/src/libcore/ptr/mod.rs:1598
   e:	b002      	add	sp, #8
  10:	bd80      	pop	{r7, pc}

Disassembly of section .text._ZN4core3ptr33_$LT$impl$u20$$BP$const$u20$T$GT$6offset17h1b94085f4e6ecde4E:

00000000 <_ZN4core3ptr33_$LT$impl$u20$$BP$const$u20$T$GT$6offset17h1b94085f4e6ecde4E>:
_ZN4core3ptr33_$LT$impl$u20$$BP$const$u20$T$GT$6offset17h1b94085f4e6ecde4E():
/rustc/412f43ac5b4ae8c3599e71c6972112e9be4758fa/src/libcore/ptr/mod.rs:1180
   0:	b084      	sub	sp, #16
   2:	9001      	str	r0, [sp, #4]
   4:	9102      	str	r1, [sp, #8]
/rustc/412f43ac5b4ae8c3599e71c6972112e9be4758fa/src/libcore/ptr/mod.rs:1181
   6:	9801      	ldr	r0, [sp, #4]
   8:	9902      	ldr	r1, [sp, #8]
   a:	eb00 1041 	add.w	r0, r0, r1, lsl #5
   e:	9003      	str	r0, [sp, #12]
  10:	9803      	ldr	r0, [sp, #12]
  12:	9000      	str	r0, [sp, #0]
  14:	e7ff      	b.n	16 <_ZN4core3ptr33_$LT$impl$u20$$BP$const$u20$T$GT$6offset17h1b94085f4e6ecde4E+0x16>
/rustc/412f43ac5b4ae8c3599e71c6972112e9be4758fa/src/libcore/ptr/mod.rs:1182
  16:	9800      	ldr	r0, [sp, #0]
  18:	b004      	add	sp, #16
  1a:	4770      	bx	lr

Disassembly of section .text._ZN4core5slice29_$LT$impl$u20$$u5b$T$u5d$$GT$10as_mut_ptr17h3da301929880590aE:

00000000 <_ZN4core5slice29_$LT$impl$u20$$u5b$T$u5d$$GT$10as_mut_ptr17h3da301929880590aE>:
_ZN4core5slice29_$LT$impl$u20$$u5b$T$u5d$$GT$10as_mut_ptr17h3da301929880590aE():
/rustc/412f43ac5b4ae8c3599e71c6972112e9be4758fa/src/libcore/slice/mod.rs:407
   0:	b082      	sub	sp, #8
   2:	9000      	str	r0, [sp, #0]
   4:	9101      	str	r1, [sp, #4]
/rustc/412f43ac5b4ae8c3599e71c6972112e9be4758fa/src/libcore/slice/mod.rs:408
   6:	9800      	ldr	r0, [sp, #0]
/rustc/412f43ac5b4ae8c3599e71c6972112e9be4758fa/src/libcore/slice/mod.rs:409
   8:	b002      	add	sp, #8
   a:	4770      	bx	lr

Disassembly of section .text._ZN4core5slice29_$LT$impl$u20$$u5b$T$u5d$$GT$3len17h934eb670dc520e39E:

00000000 <_ZN4core5slice29_$LT$impl$u20$$u5b$T$u5d$$GT$3len17h934eb670dc520e39E>:
_ZN4core5slice29_$LT$impl$u20$$u5b$T$u5d$$GT$3len17h934eb670dc520e39E():
/rustc/412f43ac5b4ae8c3599e71c6972112e9be4758fa/src/libcore/slice/mod.rs:69
   0:	b084      	sub	sp, #16
   2:	9000      	str	r0, [sp, #0]
   4:	9101      	str	r1, [sp, #4]
/rustc/412f43ac5b4ae8c3599e71c6972112e9be4758fa/src/libcore/slice/mod.rs:71
   6:	9800      	ldr	r0, [sp, #0]
   8:	9901      	ldr	r1, [sp, #4]
   a:	9002      	str	r0, [sp, #8]
   c:	9103      	str	r1, [sp, #12]
   e:	9803      	ldr	r0, [sp, #12]
/rustc/412f43ac5b4ae8c3599e71c6972112e9be4758fa/src/libcore/slice/mod.rs:73
  10:	b004      	add	sp, #16
  12:	4770      	bx	lr

Disassembly of section .text._ZN4core5slice77_$LT$impl$u20$core..ops..index..IndexMut$LT$I$GT$$u20$for$u20$$u5b$T$u5d$$GT$9index_mut17h17ce9873d8f79650E:

00000000 <_ZN4core5slice77_$LT$impl$u20$core..ops..index..IndexMut$LT$I$GT$$u20$for$u20$$u5b$T$u5d$$GT$9index_mut17h17ce9873d8f79650E>:
_ZN4core5slice77_$LT$impl$u20$core..ops..index..IndexMut$LT$I$GT$$u20$for$u20$$u5b$T$u5d$$GT$9index_mut17h17ce9873d8f79650E():
/rustc/412f43ac5b4ae8c3599e71c6972112e9be4758fa/src/libcore/slice/mod.rs:2657
   0:	b580      	push	{r7, lr}
   2:	b086      	sub	sp, #24
   4:	9003      	str	r0, [sp, #12]
   6:	9104      	str	r1, [sp, #16]
   8:	9205      	str	r2, [sp, #20]
/rustc/412f43ac5b4ae8c3599e71c6972112e9be4758fa/src/libcore/slice/mod.rs:2658
   a:	9805      	ldr	r0, [sp, #20]
   c:	9903      	ldr	r1, [sp, #12]
   e:	9a04      	ldr	r2, [sp, #16]
  10:	f7ff fffe 	bl	0 <_ZN103_$LT$core..ops..range..RangeFrom$LT$usize$GT$$u20$as$u20$core..slice..SliceIndex$LT$$u5b$T$u5d$$GT$$GT$9index_mut17h1688c2271ef0612fE>
  14:	9002      	str	r0, [sp, #8]
  16:	9101      	str	r1, [sp, #4]
  18:	e7ff      	b.n	1a <_ZN4core5slice77_$LT$impl$u20$core..ops..index..IndexMut$LT$I$GT$$u20$for$u20$$u5b$T$u5d$$GT$9index_mut17h17ce9873d8f79650E+0x1a>
/rustc/412f43ac5b4ae8c3599e71c6972112e9be4758fa/src/libcore/slice/mod.rs:2659
  1a:	9802      	ldr	r0, [sp, #8]
  1c:	9901      	ldr	r1, [sp, #4]
  1e:	b006      	add	sp, #24
  20:	bd80      	pop	{r7, pc}

Disassembly of section .text._ZN4core5slice77_$LT$impl$u20$core..ops..index..IndexMut$LT$I$GT$$u20$for$u20$$u5b$T$u5d$$GT$9index_mut17h3f554153400ee708E:

00000000 <_ZN4core5slice77_$LT$impl$u20$core..ops..index..IndexMut$LT$I$GT$$u20$for$u20$$u5b$T$u5d$$GT$9index_mut17h3f554153400ee708E>:
_ZN4core5slice77_$LT$impl$u20$core..ops..index..IndexMut$LT$I$GT$$u20$for$u20$$u5b$T$u5d$$GT$9index_mut17h3f554153400ee708E():
/rustc/412f43ac5b4ae8c3599e71c6972112e9be4758fa/src/libcore/slice/mod.rs:2657
   0:	b580      	push	{r7, lr}
   2:	b086      	sub	sp, #24
   4:	9003      	str	r0, [sp, #12]
   6:	9104      	str	r1, [sp, #16]
/rustc/412f43ac5b4ae8c3599e71c6972112e9be4758fa/src/libcore/slice/mod.rs:2658
   8:	9803      	ldr	r0, [sp, #12]
   a:	9904      	ldr	r1, [sp, #16]
   c:	f7ff fffe 	bl	0 <_ZN90_$LT$core..ops..range..RangeFull$u20$as$u20$core..slice..SliceIndex$LT$$u5b$T$u5d$$GT$$GT$9index_mut17h6d90ce6def0c309aE>
  10:	9002      	str	r0, [sp, #8]
  12:	9101      	str	r1, [sp, #4]
  14:	e7ff      	b.n	16 <_ZN4core5slice77_$LT$impl$u20$core..ops..index..IndexMut$LT$I$GT$$u20$for$u20$$u5b$T$u5d$$GT$9index_mut17h3f554153400ee708E+0x16>
/rustc/412f43ac5b4ae8c3599e71c6972112e9be4758fa/src/libcore/slice/mod.rs:2659
  16:	9802      	ldr	r0, [sp, #8]
  18:	9901      	ldr	r1, [sp, #4]
  1a:	b006      	add	sp, #24
  1c:	bd80      	pop	{r7, pc}

Disassembly of section .text._ZN5druid3app23WindowDesc$LT$T$C$W$GT$12build_native17haa46b3fa82d3a7eaE:

00000000 <_ZN5druid3app23WindowDesc$LT$T$C$W$GT$12build_native17haa46b3fa82d3a7eaE>:
_ZN5druid3app23WindowDesc$LT$T$C$W$GT$12build_native17haa46b3fa82d3a7eaE():
C:\druid-embedded\druid\src/app.rs:197
        self.size = Some(size.into());
        self
    }

    /// Attempt to create a platform window from this `WindowDesc`.
    pub(crate) fn build_native(
   0:	e92d 41f0 	stmdb	sp!, {r4, r5, r6, r7, r8, lr}
   4:	f5ad 6d14 	sub.w	sp, sp, #2368	; 0x940
   8:	b082      	sub	sp, #8
   a:	9107      	str	r1, [sp, #28]
   c:	9208      	str	r2, [sp, #32]
C:\druid-embedded\druid\src/app.rs:215
        let platform_menu = menu
            .as_mut()
            .map(|m| m.build_window_menu(&state.borrow().data, &state.borrow().env));
        */ ////

        let mut handler: DruidHandler<T> = DruidHandler::new_shared(self.id); ////
   e:	9907      	ldr	r1, [sp, #28]
  10:	69c9      	ldr	r1, [r1, #28]
  12:	9006      	str	r0, [sp, #24]
  14:	4608      	mov	r0, r1
  16:	f7ff fffe 	bl	0 <_ZN5druid11win_handler21DruidHandler$LT$T$GT$10new_shared17hddc849675439212bE>
  1a:	9009      	str	r0, [sp, #36]	; 0x24
  1c:	e7ff      	b.n	1e <_ZN5druid3app23WindowDesc$LT$T$C$W$GT$12build_native17haa46b3fa82d3a7eaE+0x1e>
  1e:	a80a      	add	r0, sp, #40	; 0x28
C:\druid-embedded\druid\src/app.rs:218
        ////let handler = DruidHandler::new_shared(state.clone(), self.id);

        let mut builder: WindowBuilder<DruidHandler<T>> = WindowBuilder::new();
  20:	f7ff fffe 	bl	0 <_ZN11druid_shell6window29WindowBuilder$LT$THandler$GT$3new17h4406d208b44714d8E>
  24:	e7ff      	b.n	26 <_ZN5druid3app23WindowDesc$LT$T$C$W$GT$12build_native17haa46b3fa82d3a7eaE+0x26>
C:\druid-embedded\druid\src/app.rs:219
        builder.set_handler(handler); ////
  26:	9909      	ldr	r1, [sp, #36]	; 0x24
  28:	a80a      	add	r0, sp, #40	; 0x28
  2a:	f7ff fffe 	bl	0 <_ZN11druid_shell6window29WindowBuilder$LT$THandler$GT$11set_handler17h67933d86f8f12933E>
  2e:	e7ff      	b.n	30 <_ZN5druid3app23WindowDesc$LT$T$C$W$GT$12build_native17haa46b3fa82d3a7eaE+0x30>
C:\druid-embedded\druid\src/app.rs:221
        ////builder.set_handler(Box::new(handler));
        if let Some(size) = self.size {
  30:	9807      	ldr	r0, [sp, #28]
  32:	6800      	ldr	r0, [r0, #0]
  34:	2801      	cmp	r0, #1
  36:	d112      	bne.n	5e <_ZN5druid3app23WindowDesc$LT$T$C$W$GT$12build_native17haa46b3fa82d3a7eaE+0x5e>
  38:	e7ff      	b.n	3a <_ZN5druid3app23WindowDesc$LT$T$C$W$GT$12build_native17haa46b3fa82d3a7eaE+0x3a>
  3a:	9807      	ldr	r0, [sp, #28]
  3c:	ed90 0b02 	vldr	d0, [r0, #8]
  40:	ed90 1b04 	vldr	d1, [r0, #16]
  44:	ed8d 0b10 	vstr	d0, [sp, #64]	; 0x40
  48:	ed8d 1b12 	vstr	d1, [sp, #72]	; 0x48
C:\druid-embedded\druid\src/app.rs:222
            builder.set_size(size);
  4c:	ed9d 0b10 	vldr	d0, [sp, #64]	; 0x40
  50:	ed9d 1b12 	vldr	d1, [sp, #72]	; 0x48
  54:	a80a      	add	r0, sp, #40	; 0x28
  56:	f7ff fffe 	bl	0 <_ZN11druid_shell6window29WindowBuilder$LT$THandler$GT$8set_size17h0b2954efa66d167fE>
  5a:	e7ff      	b.n	5c <_ZN5druid3app23WindowDesc$LT$T$C$W$GT$12build_native17haa46b3fa82d3a7eaE+0x5c>
C:\druid-embedded\druid\src/app.rs:221
        if let Some(size) = self.size {
  5c:	e7ff      	b.n	5e <_ZN5druid3app23WindowDesc$LT$T$C$W$GT$12build_native17haa46b3fa82d3a7eaE+0x5e>
C:\druid-embedded\druid\src/app.rs:231
        if let Some(menu) = platform_menu {
            builder.set_menu(menu);
        }
        */ ////

        let root_widget = (self.root_builder)(); ////
  5e:	9807      	ldr	r0, [sp, #28]
  60:	6980      	ldr	r0, [r0, #24]
  62:	a914      	add	r1, sp, #80	; 0x50
  64:	9005      	str	r0, [sp, #20]
  66:	4608      	mov	r0, r1
  68:	9905      	ldr	r1, [sp, #20]
  6a:	4788      	blx	r1
  6c:	e7ff      	b.n	6e <_ZN5druid3app23WindowDesc$LT$T$C$W$GT$12build_native17haa46b3fa82d3a7eaE+0x6e>
  6e:	f50d 6098 	add.w	r0, sp, #1216	; 0x4c0
  72:	a914      	add	r1, sp, #80	; 0x50
  74:	f44f 7204 	mov.w	r2, #528	; 0x210
C:\druid-embedded\druid\src/app.rs:232
        let root_box = root_widget.new_window(); ////
  78:	9004      	str	r0, [sp, #16]
  7a:	f7ff fffe 	bl	0 <__aeabi_memcpy8>
  7e:	a898      	add	r0, sp, #608	; 0x260
  80:	9904      	ldr	r1, [sp, #16]
  82:	f7ff fffe 	bl	0 <_ZN77_$LT$druid..widget..flex..Flex$LT$T$GT$$u20$as$u20$druid..Widget$LT$T$GT$$GT$10new_window17h51cfd56021c14b43E>
  86:	e7ff      	b.n	88 <_ZN5druid3app23WindowDesc$LT$T$C$W$GT$12build_native17haa46b3fa82d3a7eaE+0x88>
C:\druid-embedded\druid\src/app.rs:236
        //let root_win = Window::new(root_widget); ////
        //let root_box = WindowBox::new(&mut root_win); ////
        ////let root = (self.root_builder)();
        state
  88:	9808      	ldr	r0, [sp, #32]
C:\druid-embedded\druid\src/app.rs:238
            ////.borrow_mut()
            .add_window(self.id, root_box); ////
  8a:	9907      	ldr	r1, [sp, #28]
  8c:	69c9      	ldr	r1, [r1, #28]
  8e:	f50d 62da 	add.w	r2, sp, #1744	; 0x6d0
  92:	ab98      	add	r3, sp, #608	; 0x260
  94:	f44f 7c18 	mov.w	ip, #608	; 0x260
  98:	9003      	str	r0, [sp, #12]
  9a:	4610      	mov	r0, r2
  9c:	9102      	str	r1, [sp, #8]
  9e:	4619      	mov	r1, r3
  a0:	9201      	str	r2, [sp, #4]
  a2:	4662      	mov	r2, ip
  a4:	f7ff fffe 	bl	0 <__aeabi_memcpy8>
C:\druid-embedded\druid\src/app.rs:236
        state
  a8:	9803      	ldr	r0, [sp, #12]
  aa:	9902      	ldr	r1, [sp, #8]
  ac:	9a01      	ldr	r2, [sp, #4]
  ae:	f7ff fffe 	bl	0 <_ZN104_$LT$druid..win_handler..AppState$LT$u32$GT$$u20$as$u20$druid..win_handler..GlobalWindows$LT$u32$GT$$GT$10add_window17hf4db2d725a4ba53fE>
  b2:	e7ff      	b.n	b4 <_ZN5druid3app23WindowDesc$LT$T$C$W$GT$12build_native17haa46b3fa82d3a7eaE+0xb4>
  b4:	a80a      	add	r0, sp, #40	; 0x28
  b6:	f50d 6113 	add.w	r1, sp, #2352	; 0x930
C:\druid-embedded\druid\src/app.rs:241
            ////.add_window(self.id, Window::new(root, title, menu));

        builder.build()
  ba:	460a      	mov	r2, r1
  bc:	e890 5078 	ldmia.w	r0, {r3, r4, r5, r6, ip, lr}
  c0:	e882 5078 	stmia.w	r2, {r3, r4, r5, r6, ip, lr}
  c4:	9806      	ldr	r0, [sp, #24]
  c6:	f7ff fffe 	bl	0 <_ZN11druid_shell6window29WindowBuilder$LT$THandler$GT$5build17h872a7ee8a7b6109aE>
  ca:	e7ff      	b.n	cc <_ZN5druid3app23WindowDesc$LT$T$C$W$GT$12build_native17haa46b3fa82d3a7eaE+0xcc>
C:\druid-embedded\druid\src/app.rs:242
    }
  cc:	f50d 6d14 	add.w	sp, sp, #2368	; 0x940
  d0:	b002      	add	sp, #8
  d2:	e8bd 81f0 	ldmia.w	sp!, {r4, r5, r6, r7, r8, pc}

Disassembly of section .text._ZN5druid3app23WindowDesc$LT$T$C$W$GT$3new17hb74ea992949a2f1cE:

00000000 <_ZN5druid3app23WindowDesc$LT$T$C$W$GT$3new17hb74ea992949a2f1cE>:
_ZN5druid3app23WindowDesc$LT$T$C$W$GT$3new17hb74ea992949a2f1cE():
C:\druid-embedded\druid\src/app.rs:152
    pub fn new(root: fn() -> W) -> WindowDesc<T, W> ////
   0:	b570      	push	{r4, r5, r6, lr}
   2:	b08c      	sub	sp, #48	; 0x30
   4:	9104      	str	r1, [sp, #16]
C:\druid-embedded\druid\src/app.rs:160
        let root_builder = root; ////
   6:	9904      	ldr	r1, [sp, #16]
   8:	9105      	str	r1, [sp, #20]
C:\druid-embedded\druid\src/app.rs:163
            root_builder,
   a:	9905      	ldr	r1, [sp, #20]
   c:	2200      	movs	r2, #0
C:\druid-embedded\druid\src/app.rs:164
            size: None,
   e:	9207      	str	r2, [sp, #28]
  10:	9206      	str	r2, [sp, #24]
C:\druid-embedded\druid\src/app.rs:169
            id: WindowId::next(),
  12:	9003      	str	r0, [sp, #12]
  14:	9102      	str	r1, [sp, #8]
  16:	f7ff fffe 	bl	0 <_ZN5druid6window8WindowId4next17h3c50c7f486f24d5fE>
  1a:	9001      	str	r0, [sp, #4]
  1c:	e7ff      	b.n	1e <_ZN5druid3app23WindowDesc$LT$T$C$W$GT$3new17hb74ea992949a2f1cE+0x1e>
C:\druid-embedded\druid\src/app.rs:162
        WindowDesc {
  1e:	9802      	ldr	r0, [sp, #8]
  20:	9903      	ldr	r1, [sp, #12]
  22:	6188      	str	r0, [r1, #24]
  24:	aa06      	add	r2, sp, #24
  26:	e892 5078 	ldmia.w	r2, {r3, r4, r5, r6, ip, lr}
  2a:	e881 5078 	stmia.w	r1, {r3, r4, r5, r6, ip, lr}
  2e:	9901      	ldr	r1, [sp, #4]
  30:	9a03      	ldr	r2, [sp, #12]
  32:	61d1      	str	r1, [r2, #28]
C:\druid-embedded\druid\src/app.rs:172
    }
  34:	b00c      	add	sp, #48	; 0x30
  36:	bd70      	pop	{r4, r5, r6, pc}

Disassembly of section .text._ZN5druid3app24AppLauncher$LT$T$C$W$GT$11with_window17he0d9cd9ed1b5cde8E:

00000000 <_ZN5druid3app24AppLauncher$LT$T$C$W$GT$11with_window17he0d9cd9ed1b5cde8E>:
_ZN5druid3app24AppLauncher$LT$T$C$W$GT$11with_window17he0d9cd9ed1b5cde8E():
C:\druid-embedded\druid\src/app.rs:74
    pub fn with_window(window: WindowDesc<T, W>) -> Self { ////
   0:	b510      	push	{r4, lr}
   2:	b0ba      	sub	sp, #232	; 0xe8
   4:	aa06      	add	r2, sp, #24
C:\druid-embedded\druid\src/app.rs:76
        let mut windows = Vec::new(); ////
   6:	9005      	str	r0, [sp, #20]
   8:	4610      	mov	r0, r2
   a:	9104      	str	r1, [sp, #16]
   c:	f7ff fffe 	bl	0 <_ZN8heapless3vec16Vec$LT$T$C$N$GT$3new17h59d2849eb7762666E>
  10:	e7ff      	b.n	12 <_ZN5druid3app24AppLauncher$LT$T$C$W$GT$11with_window17he0d9cd9ed1b5cde8E+0x12>
  12:	a820      	add	r0, sp, #128	; 0x80
C:\druid-embedded\druid\src/app.rs:77
        windows.push(window)
  14:	9904      	ldr	r1, [sp, #16]
  16:	4602      	mov	r2, r0
  18:	e8b1 5018 	ldmia.w	r1!, {r3, r4, ip, lr}
  1c:	e8a2 5018 	stmia.w	r2!, {r3, r4, ip, lr}
  20:	e891 5018 	ldmia.w	r1, {r3, r4, ip, lr}
  24:	e882 5018 	stmia.w	r2, {r3, r4, ip, lr}
  28:	a918      	add	r1, sp, #96	; 0x60
  2a:	aa06      	add	r2, sp, #24
  2c:	9003      	str	r0, [sp, #12]
  2e:	4608      	mov	r0, r1
  30:	4611      	mov	r1, r2
  32:	9a03      	ldr	r2, [sp, #12]
  34:	f7ff fffe 	bl	0 <_ZN8heapless3vec16Vec$LT$T$C$N$GT$4push17h74669bce2d9d33e7E>
  38:	e7ff      	b.n	2 <_ZN5druid3app24AppLauncher$LT$T$C$W$GT$11with_window17he0d9cd9ed1b5cde8E+0x2>
  3a:	f240 0100 	movw	r1, #0
  3e:	f2c0 0100 	movt	r1, #0
  42:	a818      	add	r0, sp, #96	; 0x60
  44:	2212      	movs	r2, #18
  46:	f7ff fffe 	bl	0 <_ZN4core6result19Result$LT$T$C$E$GT$6expect17hd6c0bd1c70af5673E>
  4a:	e7ff      	b.n	4c <_ZN5druid3app24AppLauncher$LT$T$C$W$GT$11with_window17he0d9cd9ed1b5cde8E+0x4c>
  4c:	a828      	add	r0, sp, #160	; 0xa0
  4e:	a906      	add	r1, sp, #24
  50:	2248      	movs	r2, #72	; 0x48
C:\druid-embedded\druid\src/app.rs:80
            windows, ////
  52:	9002      	str	r0, [sp, #8]
  54:	9201      	str	r2, [sp, #4]
  56:	f7ff fffe 	bl	0 <__aeabi_memcpy8>
C:\druid-embedded\druid\src/app.rs:79
        AppLauncher {
  5a:	9805      	ldr	r0, [sp, #20]
  5c:	9902      	ldr	r1, [sp, #8]
  5e:	9a01      	ldr	r2, [sp, #4]
  60:	f7ff fffe 	bl	0 <__aeabi_memcpy8>
C:\druid-embedded\druid\src/app.rs:88
    }
  64:	b03a      	add	sp, #232	; 0xe8
  66:	bd10      	pop	{r4, pc}

Disassembly of section .text._ZN5druid3app24AppLauncher$LT$T$C$W$GT$17use_simple_logger17hf9c4f2b9606c2189E:

00000000 <_ZN5druid3app24AppLauncher$LT$T$C$W$GT$17use_simple_logger17hf9c4f2b9606c2189E>:
_ZN5druid3app24AppLauncher$LT$T$C$W$GT$17use_simple_logger17hf9c4f2b9606c2189E():
C:\druid-embedded\druid\src/app.rs:112
    pub fn use_simple_logger(self) -> Self {
   0:	b580      	push	{r7, lr}
   2:	2248      	movs	r2, #72	; 0x48
C:\druid-embedded\druid\src/app.rs:114
        self
   4:	f7ff fffe 	bl	0 <__aeabi_memcpy8>
C:\druid-embedded\druid\src/app.rs:115
    }
   8:	bd80      	pop	{r7, pc}

Disassembly of section .text._ZN5druid3app24AppLauncher$LT$T$C$W$GT$6launch17h2f422de7155fd22bE:

00000000 <_ZN5druid3app24AppLauncher$LT$T$C$W$GT$6launch17h2f422de7155fd22bE>:
_ZN5druid3app24AppLauncher$LT$T$C$W$GT$6launch17h2f422de7155fd22bE():
C:\druid-embedded\druid\src/app.rs:121
    pub fn launch(mut self, data: T) -> Result<(), PlatformError> {
   0:	b510      	push	{r4, lr}
   2:	b0fa      	sub	sp, #488	; 0x1e8
   4:	9206      	str	r2, [sp, #24]
C:\druid-embedded\druid\src/app.rs:122
        Application::init();
   6:	9105      	str	r1, [sp, #20]
   8:	9004      	str	r0, [sp, #16]
   a:	f7ff fffe 	bl	0 <_ZN11druid_shell11application11Application4init17h1500f638bc187b88E>
   e:	e7ff      	b.n	2 <_ZN5druid11win_handler17AppState$LT$T$GT$3new17h0289786462ef0c23E+0x2>
C:\druid-embedded\druid\src/app.rs:131
        let mut state = AppState::<T>::new(); ////
  10:	f7ff fffe 	bl	0 <_ZN5druid11win_handler17AppState$LT$T$GT$3new17h0289786462ef0c23E>
  14:	e7ff      	b.n	16 <_ZN5druid3app24AppLauncher$LT$T$C$W$GT$6launch17h2f422de7155fd22bE+0x16>
C:\druid-embedded\druid\src/app.rs:132
        state.set_data(data); ////
  16:	9906      	ldr	r1, [sp, #24]
  18:	a807      	add	r0, sp, #28
  1a:	f7ff fffe 	bl	0 <_ZN104_$LT$druid..win_handler..AppState$LT$u32$GT$$u20$as$u20$druid..win_handler..GlobalWindows$LT$u32$GT$$GT$8set_data17h978504425f19340bE>
  1e:	e7ff      	b.n	20 <_ZN5druid3app24AppLauncher$LT$T$C$W$GT$6launch17h2f422de7155fd22bE+0x20>
  20:	a81c      	add	r0, sp, #112	; 0x70
  22:	2248      	movs	r2, #72	; 0x48
C:\druid-embedded\druid\src/app.rs:135
        for desc in self.windows {
  24:	9003      	str	r0, [sp, #12]
  26:	9905      	ldr	r1, [sp, #20]
  28:	f7ff fffe 	bl	0 <__aeabi_memcpy8>
  2c:	a808      	add	r0, sp, #32
  2e:	9903      	ldr	r1, [sp, #12]
  30:	f7ff fffe 	bl	0 <_ZN93_$LT$heapless..vec..Vec$LT$T$C$N$GT$$u20$as$u20$core..iter..traits..collect..IntoIterator$GT$9into_iter17hbbf8d269dd5dae83E>
  34:	e7ff      	b.n	36 <_ZN5druid3app24AppLauncher$LT$T$C$W$GT$6launch17h2f422de7155fd22bE+0x36>
  36:	a82e      	add	r0, sp, #184	; 0xb8
  38:	a908      	add	r1, sp, #32
  3a:	2250      	movs	r2, #80	; 0x50
  3c:	f7ff fffe 	bl	0 <__aeabi_memcpy8>
  40:	e7ff      	b.n	42 <_ZN5druid3app24AppLauncher$LT$T$C$W$GT$6launch17h2f422de7155fd22bE+0x42>
  42:	a84a      	add	r0, sp, #296	; 0x128
  44:	a92e      	add	r1, sp, #184	; 0xb8
  46:	f7ff fffe 	bl	0 <_ZN95_$LT$heapless..vec..IntoIter$LT$T$C$N$GT$$u20$as$u20$core..iter..traits..iterator..Iterator$GT$4next17hd319174a1aa81015E>
  4a:	e7ff      	b.n	4c <_ZN5druid3app24AppLauncher$LT$T$C$W$GT$6launch17h2f422de7155fd22bE+0x4c>
  4c:	984a      	ldr	r0, [sp, #296]	; 0x128
  4e:	994b      	ldr	r1, [sp, #300]	; 0x12c
  50:	f080 0002 	eor.w	r0, r0, #2
  54:	4308      	orrs	r0, r1
  56:	2800      	cmp	r0, #0
  58:	4601      	mov	r1, r0
  5a:	bf18      	it	ne
  5c:	2101      	movne	r1, #1
  5e:	2800      	cmp	r0, #0
  60:	d001      	beq.n	66 <_ZN5druid3app24AppLauncher$LT$T$C$W$GT$6launch17h2f422de7155fd22bE+0x66>
  62:	e7ff      	b.n	64 <_ZN5druid3app24AppLauncher$LT$T$C$W$GT$6launch17h2f422de7155fd22bE+0x64>
  64:	e004      	b.n	70 <_ZN5druid3app24AppLauncher$LT$T$C$W$GT$6launch17h2f422de7155fd22bE+0x70>
  66:	a82e      	add	r0, sp, #184	; 0xb8
C:\druid-embedded\druid\src/app.rs:138
        }
  68:	f7ff fffe 	bl	0 <_ZN4core3ptr18real_drop_in_place17h8206fef70e9b44abE>
  6c:	e065      	b.n	13a <_ZN5druid3app24AppLauncher$LT$T$C$W$GT$6launch17h2f422de7155fd22bE+0x13a>
C:\druid-embedded\druid\src/app.rs:135
        for desc in self.windows {
  6e:	defe      	udf	#254	; 0xfe
  70:	a84a      	add	r0, sp, #296	; 0x128
  72:	a952      	add	r1, sp, #328	; 0x148
  74:	460a      	mov	r2, r1
  76:	e8b0 5018 	ldmia.w	r0!, {r3, r4, ip, lr}
  7a:	e8a2 5018 	stmia.w	r2!, {r3, r4, ip, lr}
  7e:	e890 5018 	ldmia.w	r0, {r3, r4, ip, lr}
  82:	e882 5018 	stmia.w	r2, {r3, r4, ip, lr}
  86:	a85a      	add	r0, sp, #360	; 0x168
  88:	4602      	mov	r2, r0
  8a:	e8b1 5018 	ldmia.w	r1!, {r3, r4, ip, lr}
  8e:	e8a2 5018 	stmia.w	r2!, {r3, r4, ip, lr}
  92:	e891 5018 	ldmia.w	r1, {r3, r4, ip, lr}
  96:	e882 5018 	stmia.w	r2, {r3, r4, ip, lr}
  9a:	a942      	add	r1, sp, #264	; 0x108
  9c:	460a      	mov	r2, r1
  9e:	e8b0 5018 	ldmia.w	r0!, {r3, r4, ip, lr}
  a2:	e8a2 5018 	stmia.w	r2!, {r3, r4, ip, lr}
  a6:	e890 5018 	ldmia.w	r0, {r3, r4, ip, lr}
  aa:	e882 5018 	stmia.w	r2, {r3, r4, ip, lr}
  ae:	a862      	add	r0, sp, #392	; 0x188
  b0:	4602      	mov	r2, r0
  b2:	e8b1 5018 	ldmia.w	r1!, {r3, r4, ip, lr}
  b6:	e8a2 5018 	stmia.w	r2!, {r3, r4, ip, lr}
  ba:	e891 5018 	ldmia.w	r1, {r3, r4, ip, lr}
  be:	e882 5018 	stmia.w	r2, {r3, r4, ip, lr}
  c2:	a971      	add	r1, sp, #452	; 0x1c4
  c4:	aa07      	add	r2, sp, #28
C:\druid-embedded\druid\src/app.rs:136
            let window = desc.build_native(&mut state)?;
  c6:	9002      	str	r0, [sp, #8]
  c8:	4608      	mov	r0, r1
  ca:	9902      	ldr	r1, [sp, #8]
  cc:	f7ff fffe 	bl	0 <_ZN5druid3app24AppLauncher$LT$T$C$W$GT$6launch17h2f422de7155fd22bE>
  d0:	e7ff      	b.n	d2 <_ZN5druid3app24AppLauncher$LT$T$C$W$GT$6launch17h2f422de7155fd22bE+0xd2>
  d2:	a86d      	add	r0, sp, #436	; 0x1b4
  d4:	a971      	add	r1, sp, #452	; 0x1c4
  d6:	f7ff fffe 	bl	0 <_ZN73_$LT$core..result..Result$LT$T$C$E$GT$$u20$as$u20$core..ops..try..Try$GT$11into_result17h57571c46b08616a2E>
  da:	e7ff      	b.n	dc <_ZN5druid3app24AppLauncher$LT$T$C$W$GT$6launch17h2f422de7155fd22bE+0xdc>
  dc:	986d      	ldr	r0, [sp, #436]	; 0x1b4
  de:	2800      	cmp	r0, #0
  e0:	d01a      	beq.n	118 <_ZN5druid3app24AppLauncher$LT$T$C$W$GT$6launch17h2f422de7155fd22bE+0x118>
  e2:	e7ff      	b.n	e4 <_ZN5druid3app24AppLauncher$LT$T$C$W$GT$6launch17h2f422de7155fd22bE+0xe4>
  e4:	e000      	b.n	e8 <_ZN5druid3app24AppLauncher$LT$T$C$W$GT$6launch17h2f422de7155fd22bE+0xe8>
  e6:	defe      	udf	#254	; 0xfe
  e8:	986e      	ldr	r0, [sp, #440]	; 0x1b8
  ea:	996f      	ldr	r1, [sp, #444]	; 0x1bc
  ec:	9075      	str	r0, [sp, #468]	; 0x1d4
  ee:	9176      	str	r1, [sp, #472]	; 0x1d8
  f0:	9875      	ldr	r0, [sp, #468]	; 0x1d4
  f2:	9976      	ldr	r1, [sp, #472]	; 0x1d8
  f4:	f7ff fffe 	bl	0 <_ZN50_$LT$T$u20$as$u20$core..convert..From$LT$T$GT$$GT$4from17h5dd53b46cffc75d9E>
  f8:	9001      	str	r0, [sp, #4]
  fa:	9100      	str	r1, [sp, #0]
  fc:	e001      	b.n	102 <_ZN5druid3app24AppLauncher$LT$T$C$W$GT$6launch17h2f422de7155fd22bE+0x102>
C:\druid-embedded\druid\src/app.rs:142
    }
  fe:	b07a      	add	sp, #488	; 0x1e8
 100:	bd10      	pop	{r4, pc}
C:\druid-embedded\druid\src/app.rs:136
            let window = desc.build_native(&mut state)?;
 102:	9804      	ldr	r0, [sp, #16]
 104:	9901      	ldr	r1, [sp, #4]
 106:	9a00      	ldr	r2, [sp, #0]
 108:	f7ff fffe 	bl	0 <_ZN73_$LT$core..result..Result$LT$T$C$E$GT$$u20$as$u20$core..ops..try..Try$GT$10from_error17h5bc6406c6cace9efE>
 10c:	e7ff      	b.n	10e <_ZN5druid3app24AppLauncher$LT$T$C$W$GT$6launch17h2f422de7155fd22bE+0x10e>
 10e:	a82e      	add	r0, sp, #184	; 0xb8
C:\druid-embedded\druid\src/app.rs:138
        }
 110:	f7ff fffe 	bl	0 <_ZN4core3ptr18real_drop_in_place17h8206fef70e9b44abE>
 114:	e7ff      	b.n	116 <_ZN5druid3app24AppLauncher$LT$T$C$W$GT$6launch17h2f422de7155fd22bE+0x116>
C:\druid-embedded\druid\src/app.rs:142
    }
 116:	e7f2      	b.n	fe <_ZN5druid3app24AppLauncher$LT$T$C$W$GT$6launch17h2f422de7155fd22bE+0xfe>
C:\druid-embedded\druid\src/app.rs:136
            let window = desc.build_native(&mut state)?;
 118:	986e      	ldr	r0, [sp, #440]	; 0x1b8
 11a:	996f      	ldr	r1, [sp, #444]	; 0x1bc
 11c:	9a70      	ldr	r2, [sp, #448]	; 0x1c0
 11e:	9279      	str	r2, [sp, #484]	; 0x1e4
 120:	9178      	str	r1, [sp, #480]	; 0x1e0
 122:	9077      	str	r0, [sp, #476]	; 0x1dc
 124:	9877      	ldr	r0, [sp, #476]	; 0x1dc
 126:	9978      	ldr	r1, [sp, #480]	; 0x1e0
 128:	9a79      	ldr	r2, [sp, #484]	; 0x1e4
 12a:	926c      	str	r2, [sp, #432]	; 0x1b0
 12c:	916b      	str	r1, [sp, #428]	; 0x1ac
 12e:	906a      	str	r0, [sp, #424]	; 0x1a8
 130:	a86a      	add	r0, sp, #424	; 0x1a8
C:\druid-embedded\druid\src/app.rs:137
            window.show();
 132:	f7ff fffe 	bl	0 <_ZN11druid_shell6window28WindowHandle$LT$THandler$GT$4show17h9af61d23457cc3bbE>
 136:	e7ff      	b.n	138 <_ZN5druid3app24AppLauncher$LT$T$C$W$GT$6launch17h2f422de7155fd22bE+0x138>
C:\druid-embedded\druid\src/app.rs:135
        for desc in self.windows {
 138:	e783      	b.n	42 <_ZN5druid3app24AppLauncher$LT$T$C$W$GT$6launch17h2f422de7155fd22bE+0x42>
 13a:	2000      	movs	r0, #0
C:\druid-embedded\druid\src/app.rs:141
        Ok(())
 13c:	9904      	ldr	r1, [sp, #16]
 13e:	6008      	str	r0, [r1, #0]
C:\druid-embedded\druid\src/app.rs:142
    }
 140:	e7dd      	b.n	fe <_ZN5druid3app24AppLauncher$LT$T$C$W$GT$6launch17h2f422de7155fd22bE+0xfe>

Disassembly of section .text._ZN72_$LT$druid..app..WindowDesc$LT$T$C$W$GT$$u20$as$u20$core..fmt..Debug$GT$3fmt17h119b79ab6a0f5548E:

00000000 <_ZN72_$LT$druid..app..WindowDesc$LT$T$C$W$GT$$u20$as$u20$core..fmt..Debug$GT$3fmt17h119b79ab6a0f5548E>:
_ZN72_$LT$druid..app..WindowDesc$LT$T$C$W$GT$$u20$as$u20$core..fmt..Debug$GT$3fmt17h119b79ab6a0f5548E():
C:\druid-embedded\druid\src/app.rs:255
    */ ////
}

/// Implement formatted output for WindowDesc
impl<T: Data + Default, W: Widget<T>> core::fmt::Debug for WindowDesc<T, W> { ////
    fn fmt(&self, _fmt: &mut ::core::fmt::Formatter<'_>) -> ::core::fmt::Result {
   0:	b082      	sub	sp, #8
   2:	9000      	str	r0, [sp, #0]
   4:	9101      	str	r1, [sp, #4]
   6:	2000      	movs	r0, #0
C:\druid-embedded\druid\src/app.rs:258
        //  TODO
        Ok(())
    }
   8:	b002      	add	sp, #8
   a:	4770      	bx	lr

app-20d859f505b9d0c6.4m27peu8onmrwx89.rcgu.o:     file format elf32-littlearm

SYMBOL TABLE:
00000000 l    df *ABS*	00000000 4m27peu8onmrwx89
00000511 l       .debug_str	00000000 
00001903 l       .debug_str	00000000 
00001998 l       .debug_str	00000000 
000018b2 l       .debug_str	00000000 
00001974 l       .debug_str	00000000 
000018ab l       .debug_str	00000000 
00000000 l       .debug_str	00000000 
00000041 l       .debug_str	00000000 
00000055 l       .debug_str	00000000 
00000074 l       .debug_str	00000000 
00000079 l       .debug_str	00000000 
00000081 l       .debug_str	00000000 
0000008a l       .debug_str	00000000 
00000093 l       .debug_str	00000000 
00000096 l       .debug_str	00000000 
000000a0 l       .debug_str	00000000 
000000a7 l       .debug_str	00000000 
000000ad l       .debug_str	00000000 
000000b2 l       .debug_str	00000000 
000000b4 l       .debug_str	00000000 
000000ba l       .debug_str	00000000 
000000c1 l       .debug_str	00000000 
000000c7 l       .debug_str	00000000 
000000cb l       .debug_str	00000000 
000000d5 l       .debug_str	00000000 
000000d9 l       .debug_str	00000000 
000000e6 l       .debug_str	00000000 
000000ea l       .debug_str	00000000 
000000f6 l       .debug_str	00000000 
000000fd l       .debug_str	00000000 
00000102 l       .debug_str	00000000 
0000010b l       .debug_str	00000000 
00000112 l       .debug_str	00000000 
00000114 l       .debug_str	00000000 
00000118 l       .debug_str	00000000 
0000011f l       .debug_str	00000000 
00000123 l       .debug_str	00000000 
00000130 l       .debug_str	00000000 
00000137 l       .debug_str	00000000 
0000013a l       .debug_str	00000000 
00000140 l       .debug_str	00000000 
0000014e l       .debug_str	00000000 
0000015c l       .debug_str	00000000 
00000161 l       .debug_str	00000000 
00000169 l       .debug_str	00000000 
00000171 l       .debug_str	00000000 
00000173 l       .debug_str	00000000 
0000018f l       .debug_str	00000000 
00000197 l       .debug_str	00000000 
0000019e l       .debug_str	00000000 
000001ae l       .debug_str	00000000 
000001f3 l       .debug_str	00000000 
00000260 l       .debug_str	00000000 
000002f6 l       .debug_str	00000000 
000003b5 l       .debug_str	00000000 
000003bd l       .debug_str	00000000 
000003c2 l       .debug_str	00000000 
000003c8 l       .debug_str	00000000 
000003cc l       .debug_str	00000000 
000003d0 l       .debug_str	00000000 
000003d3 l       .debug_str	00000000 
000003fc l       .debug_str	00000000 
00000432 l       .debug_str	00000000 
00000434 l       .debug_str	00000000 
00000461 l       .debug_str	00000000 
00000464 l       .debug_str	00000000 
000004b4 l       .debug_str	00000000 
000018a8 l       .debug_str	00000000 
00000565 l       .debug_str	00000000 
000005dc l       .debug_str	00000000 
00000660 l       .debug_str	00000000 
000006db l       .debug_str	00000000 
00000779 l       .debug_str	00000000 
00000824 l       .debug_str	00000000 
000008c6 l       .debug_str	00000000 
0000098b l       .debug_str	00000000 
00000a5d l       .debug_str	00000000 
00000b26 l       .debug_str	00000000 
00000c10 l       .debug_str	00000000 
00000d17 l       .debug_str	00000000 
00000e1d l       .debug_str	00000000 
00000e21 l       .debug_str	00000000 
00000e23 l       .debug_str	00000000 
00000f21 l       .debug_str	00000000 
00001022 l       .debug_str	00000000 
00001024 l       .debug_str	00000000 
00001104 l       .debug_str	00000000 
00001109 l       .debug_str	00000000 
00001203 l       .debug_str	00000000 
00001208 l       .debug_str	00000000 
00001211 l       .debug_str	00000000 
00001218 l       .debug_str	00000000 
0000121c l       .debug_str	00000000 
00001222 l       .debug_str	00000000 
0000122b l       .debug_str	00000000 
00001230 l       .debug_str	00000000 
00001234 l       .debug_str	00000000 
00001238 l       .debug_str	00000000 
00001249 l       .debug_str	00000000 
00001281 l       .debug_str	00000000 
00001290 l       .debug_str	00000000 
000012bc l       .debug_str	00000000 
00001301 l       .debug_str	00000000 
0000133a l       .debug_str	00000000 
000013d1 l       .debug_str	00000000 
0000146f l       .debug_str	00000000 
0000152a l       .debug_str	00000000 
000015e4 l       .debug_str	00000000 
00001696 l       .debug_str	00000000 
0000172b l       .debug_str	00000000 
000017d7 l       .debug_str	00000000 
000017e0 l       .debug_str	00000000 
000017f5 l       .debug_str	00000000 
000017fe l       .debug_str	00000000 
0000180d l       .debug_str	00000000 
0000185e l       .debug_str	00000000 
0000188e l       .debug_str	00000000 
00001892 l       .debug_str	00000000 
00001898 l       .debug_str	00000000 
0000189f l       .debug_str	00000000 
000018a2 l       .debug_str	00000000 
000018a5 l       .debug_str	00000000 
00001923 l       .debug_str	00000000 
00000000 l    d  .text._ZN50_$LT$T$u20$as$u20$core..convert..Into$LT$U$GT$$GT$4into17h11b2e1b68545cdc7E	00000000 .text._ZN50_$LT$T$u20$as$u20$core..convert..Into$LT$U$GT$$GT$4into17h11b2e1b68545cdc7E
00000000 l    d  .text._ZN50_$LT$T$u20$as$u20$core..convert..Into$LT$U$GT$$GT$4into17h835420f3e4ae39bfE	00000000 .text._ZN50_$LT$T$u20$as$u20$core..convert..Into$LT$U$GT$$GT$4into17h835420f3e4ae39bfE
00000000 l    d  .text._ZN50_$LT$T$u20$as$u20$core..convert..Into$LT$U$GT$$GT$4into17h8d2caa14206491a0E	00000000 .text._ZN50_$LT$T$u20$as$u20$core..convert..Into$LT$U$GT$$GT$4into17h8d2caa14206491a0E
00000000 l    d  .debug_abbrev	00000000 .debug_abbrev
00000000 l    d  .debug_info	00000000 .debug_info
00000000 l    d  .debug_ranges	00000000 .debug_ranges
00000000 l    d  .debug_frame	00000000 .debug_frame
00000000 l    d  .debug_line	00000000 .debug_line
00000000 g     F .text._ZN50_$LT$T$u20$as$u20$core..convert..Into$LT$U$GT$$GT$4into17h11b2e1b68545cdc7E	00000016 _ZN50_$LT$T$u20$as$u20$core..convert..Into$LT$U$GT$$GT$4into17h11b2e1b68545cdc7E
00000000 g     F .text._ZN50_$LT$T$u20$as$u20$core..convert..Into$LT$U$GT$$GT$4into17h835420f3e4ae39bfE	00000016 _ZN50_$LT$T$u20$as$u20$core..convert..Into$LT$U$GT$$GT$4into17h835420f3e4ae39bfE
00000000 g     F .text._ZN50_$LT$T$u20$as$u20$core..convert..Into$LT$U$GT$$GT$4into17h8d2caa14206491a0E	00000012 _ZN50_$LT$T$u20$as$u20$core..convert..Into$LT$U$GT$$GT$4into17h8d2caa14206491a0E
00000000         *UND*	00000000 _ZN72_$LT$kurbo..insets..Insets$u20$as$u20$core..convert..From$LT$f64$GT$$GT$4from17h61bf047a5fe5b858E
00000000         *UND*	00000000 _ZN76_$LT$druid..argvalue..ArgValue$u20$as$u20$core..convert..From$LT$u32$GT$$GT$4from17h0644c2a7092efa4cE
00000000         *UND*	00000000 _ZN95_$LT$druid..widget..label..LabelText$LT$T$GT$$u20$as$u20$core..convert..From$LT$$RF$str$GT$$GT$4from17hc4c01e3b31d2e34cE



Disassembly of section .text._ZN50_$LT$T$u20$as$u20$core..convert..Into$LT$U$GT$$GT$4into17h11b2e1b68545cdc7E:

00000000 <_ZN50_$LT$T$u20$as$u20$core..convert..Into$LT$U$GT$$GT$4into17h11b2e1b68545cdc7E>:
_ZN50_$LT$T$u20$as$u20$core..convert..Into$LT$U$GT$$GT$4into17h11b2e1b68545cdc7E():
/rustc/412f43ac5b4ae8c3599e71c6972112e9be4758fa/src/libcore/convert.rs:538
   0:	b580      	push	{r7, lr}
   2:	b082      	sub	sp, #8
   4:	9100      	str	r1, [sp, #0]
   6:	9201      	str	r2, [sp, #4]
/rustc/412f43ac5b4ae8c3599e71c6972112e9be4758fa/src/libcore/convert.rs:539
   8:	9900      	ldr	r1, [sp, #0]
   a:	9a01      	ldr	r2, [sp, #4]
   c:	f7ff fffe 	bl	0 <_ZN95_$LT$druid..widget..label..LabelText$LT$T$GT$$u20$as$u20$core..convert..From$LT$$RF$str$GT$$GT$4from17hc4c01e3b31d2e34cE>
  10:	e7ff      	b.n	12 <_ZN50_$LT$T$u20$as$u20$core..convert..Into$LT$U$GT$$GT$4into17h11b2e1b68545cdc7E+0x12>
/rustc/412f43ac5b4ae8c3599e71c6972112e9be4758fa/src/libcore/convert.rs:540
  12:	b002      	add	sp, #8
  14:	bd80      	pop	{r7, pc}

Disassembly of section .text._ZN50_$LT$T$u20$as$u20$core..convert..Into$LT$U$GT$$GT$4into17h835420f3e4ae39bfE:

00000000 <_ZN50_$LT$T$u20$as$u20$core..convert..Into$LT$U$GT$$GT$4into17h835420f3e4ae39bfE>:
_ZN50_$LT$T$u20$as$u20$core..convert..Into$LT$U$GT$$GT$4into17h835420f3e4ae39bfE():
/rustc/412f43ac5b4ae8c3599e71c6972112e9be4758fa/src/libcore/convert.rs:538
   0:	b580      	push	{r7, lr}
   2:	b082      	sub	sp, #8
   4:	ed8d 0b00 	vstr	d0, [sp]
/rustc/412f43ac5b4ae8c3599e71c6972112e9be4758fa/src/libcore/convert.rs:539
   8:	ed9d 0b00 	vldr	d0, [sp]
   c:	f7ff fffe 	bl	0 <_ZN72_$LT$kurbo..insets..Insets$u20$as$u20$core..convert..From$LT$f64$GT$$GT$4from17h61bf047a5fe5b858E>
  10:	e7ff      	b.n	12 <_ZN50_$LT$T$u20$as$u20$core..convert..Into$LT$U$GT$$GT$4into17h835420f3e4ae39bfE+0x12>
/rustc/412f43ac5b4ae8c3599e71c6972112e9be4758fa/src/libcore/convert.rs:540
  12:	b002      	add	sp, #8
  14:	bd80      	pop	{r7, pc}

Disassembly of section .text._ZN50_$LT$T$u20$as$u20$core..convert..Into$LT$U$GT$$GT$4into17h8d2caa14206491a0E:

00000000 <_ZN50_$LT$T$u20$as$u20$core..convert..Into$LT$U$GT$$GT$4into17h8d2caa14206491a0E>:
_ZN50_$LT$T$u20$as$u20$core..convert..Into$LT$U$GT$$GT$4into17h8d2caa14206491a0E():
/rustc/412f43ac5b4ae8c3599e71c6972112e9be4758fa/src/libcore/convert.rs:538
   0:	b580      	push	{r7, lr}
   2:	b082      	sub	sp, #8
   4:	9101      	str	r1, [sp, #4]
/rustc/412f43ac5b4ae8c3599e71c6972112e9be4758fa/src/libcore/convert.rs:539
   6:	9901      	ldr	r1, [sp, #4]
   8:	f7ff fffe 	bl	0 <_ZN76_$LT$druid..argvalue..ArgValue$u20$as$u20$core..convert..From$LT$u32$GT$$GT$4from17h0644c2a7092efa4cE>
   c:	e7ff      	b.n	e <_ZN50_$LT$T$u20$as$u20$core..convert..Into$LT$U$GT$$GT$4into17h8d2caa14206491a0E+0xe>
/rustc/412f43ac5b4ae8c3599e71c6972112e9be4758fa/src/libcore/convert.rs:540
   e:	b002      	add	sp, #8
  10:	bd80      	pop	{r7, pc}

app-20d859f505b9d0c6.4qubbvb0k4a1aveq.rcgu.o:     file format elf32-littlearm

SYMBOL TABLE:
00000000 l    df *ABS*	00000000 4qubbvb0k4a1aveq
0000007e l       .debug_str	00000000 
000000b7 l       .debug_str	00000000 
00000000 l       .debug_str	00000000 
00000041 l       .debug_str	00000000 
00000055 l       .debug_str	00000000 
00000074 l       .debug_str	00000000 
00000079 l       .debug_str	00000000 
000000cd l       .debug_str	00000000 
00000000 l    d  .text._ZN4core4hint21unreachable_unchecked17h80f296390f374d78E	00000000 .text._ZN4core4hint21unreachable_unchecked17h80f296390f374d78E
00000000 l    d  .debug_abbrev	00000000 .debug_abbrev
00000000 l    d  .debug_info	00000000 .debug_info
00000000 l    d  .debug_frame	00000000 .debug_frame
00000000 l    d  .debug_line	00000000 .debug_line
00000000 g     F .text._ZN4core4hint21unreachable_unchecked17h80f296390f374d78E	00000002 .hidden _ZN4core4hint21unreachable_unchecked17h80f296390f374d78E



Disassembly of section .text._ZN4core4hint21unreachable_unchecked17h80f296390f374d78E:

00000000 <_ZN4core4hint21unreachable_unchecked17h80f296390f374d78E>:
_ZN4core4hint21unreachable_unchecked17h80f296390f374d78E():
/rustc/412f43ac5b4ae8c3599e71c6972112e9be4758fa/src/libcore/hint.rs:51
   0:	defe      	udf	#254	; 0xfe

app-20d859f505b9d0c6.4sulcnmjmmdggl00.rcgu.o:     file format elf32-littlearm

SYMBOL TABLE:
00000000 l    df *ABS*	00000000 4sulcnmjmmdggl00
00000080 l       .debug_str	00000000 
000000e9 l       .debug_str	00000000 
00000000 l       .debug_str	00000000 
00000041 l       .debug_str	00000000 
00000055 l       .debug_str	00000000 
00000074 l       .debug_str	00000000 
0000007c l       .debug_str	00000000 
00000089 l       .debug_str	00000000 
000000ef l       .debug_str	00000000 
00000000 l    d  .text._ZN64_$LT$typenum..bit..B0$u20$as$u20$typenum..marker_traits..Bit$GT$5to_u817h3156553424aa131bE	00000000 .text._ZN64_$LT$typenum..bit..B0$u20$as$u20$typenum..marker_traits..Bit$GT$5to_u817h3156553424aa131bE
00000000 l    d  .debug_abbrev	00000000 .debug_abbrev
00000000 l    d  .debug_info	00000000 .debug_info
00000000 l    d  .debug_frame	00000000 .debug_frame
00000000 l    d  .debug_line	00000000 .debug_line
00000000 g     F .text._ZN64_$LT$typenum..bit..B0$u20$as$u20$typenum..marker_traits..Bit$GT$5to_u817h3156553424aa131bE	00000004 .hidden _ZN64_$LT$typenum..bit..B0$u20$as$u20$typenum..marker_traits..Bit$GT$5to_u817h3156553424aa131bE



Disassembly of section .text._ZN64_$LT$typenum..bit..B0$u20$as$u20$typenum..marker_traits..Bit$GT$5to_u817h3156553424aa131bE:

00000000 <_ZN64_$LT$typenum..bit..B0$u20$as$u20$typenum..marker_traits..Bit$GT$5to_u817h3156553424aa131bE>:
_ZN64_$LT$typenum..bit..B0$u20$as$u20$typenum..marker_traits..Bit$GT$5to_u817h3156553424aa131bE():
C:\Users\guppy\.cargo\registry\src\github.com-1ecc6299db9ec823\typenum-1.10.0\src/bit.rs:47
impl Bit for B0 {
    const U8: u8 = 0;
    const BOOL: bool = false;

    #[inline]
    fn to_u8() -> u8 {
   0:	2000      	movs	r0, #0
C:\Users\guppy\.cargo\registry\src\github.com-1ecc6299db9ec823\typenum-1.10.0\src/bit.rs:49
        0
    }
   2:	4770      	bx	lr

app-20d859f505b9d0c6.4z077sm664w3gj5j.rcgu.o:     file format elf32-littlearm

SYMBOL TABLE:
00000000 l    df *ABS*	00000000 4z077sm664w3gj5j
000000b9 l       .debug_str	00000000 
000002da l       .debug_str	00000000 
00000389 l       .debug_str	00000000 
000002ca l       .debug_str	00000000 
00000362 l       .debug_str	00000000 
0000027c l       .debug_str	00000000 
0000035d l       .debug_str	00000000 
00000269 l       .debug_str	00000000 
00000000 l       .debug_str	00000000 
00000041 l       .debug_str	00000000 
00000055 l       .debug_str	00000000 
00000074 l       .debug_str	00000000 
0000007a l       .debug_str	00000000 
00000086 l       .debug_str	00000000 
0000008f l       .debug_str	00000000 
00000099 l       .debug_str	00000000 
000000a0 l       .debug_str	00000000 
000000a4 l       .debug_str	00000000 
000000a8 l       .debug_str	00000000 
000000b1 l       .debug_str	00000000 
000001b1 l       .debug_str	00000000 
000000be l       .debug_str	00000000 
000000c5 l       .debug_str	00000000 
000000c7 l       .debug_str	00000000 
000000d8 l       .debug_str	00000000 
000000ea l       .debug_str	00000000 
000001a0 l       .debug_str	00000000 
00000350 l       .debug_str	00000000 
00000000 l    d  .text._ZN142_$LT$druid..win_handler..DruidHandler$LT$T$GT$$u20$as$u20$druid_shell..window..WinHandler$LT$druid..win_handler..DruidHandler$LT$T$GT$$GT$$GT$11add_handler17h2f617130c64cdd40E	00000000 .text._ZN142_$LT$druid..win_handler..DruidHandler$LT$T$GT$$u20$as$u20$druid_shell..window..WinHandler$LT$druid..win_handler..DruidHandler$LT$T$GT$$GT$$GT$11add_handler17h2f617130c64cdd40E
00000000 l    d  .text._ZN142_$LT$druid..win_handler..DruidHandler$LT$T$GT$$u20$as$u20$druid_shell..window..WinHandler$LT$druid..win_handler..DruidHandler$LT$T$GT$$GT$$GT$13get_window_id17hd9fa23b7a5c1420fE	00000000 .text._ZN142_$LT$druid..win_handler..DruidHandler$LT$T$GT$$u20$as$u20$druid_shell..window..WinHandler$LT$druid..win_handler..DruidHandler$LT$T$GT$$GT$$GT$13get_window_id17hd9fa23b7a5c1420fE
00000000 l    d  .text._ZN5druid11win_handler21DruidHandler$LT$T$GT$10new_shared17hddc849675439212bE	00000000 .text._ZN5druid11win_handler21DruidHandler$LT$T$GT$10new_shared17hddc849675439212bE
00000000 l    d  .text._ZN84_$LT$druid..win_handler..DruidHandler$LT$T$GT$$u20$as$u20$core..default..Default$GT$7default17hb14b8e70ddd1e5c4E	00000000 .text._ZN84_$LT$druid..win_handler..DruidHandler$LT$T$GT$$u20$as$u20$core..default..Default$GT$7default17hb14b8e70ddd1e5c4E
00000000 l    d  .debug_abbrev	00000000 .debug_abbrev
00000000 l    d  .debug_info	00000000 .debug_info
00000000 l    d  .debug_ranges	00000000 .debug_ranges
00000000 l    d  .debug_frame	00000000 .debug_frame
00000000 l    d  .debug_line	00000000 .debug_line
00000000         *UND*	00000000 _ZN104_$LT$druid..win_handler..AppState$LT$u32$GT$$u20$as$u20$druid..win_handler..GlobalWindows$LT$u32$GT$$GT$11add_handler17h0de96c8671a0881bE
00000000 g     F .text._ZN142_$LT$druid..win_handler..DruidHandler$LT$T$GT$$u20$as$u20$druid_shell..window..WinHandler$LT$druid..win_handler..DruidHandler$LT$T$GT$$GT$$GT$11add_handler17h2f617130c64cdd40E	00000024 _ZN142_$LT$druid..win_handler..DruidHandler$LT$T$GT$$u20$as$u20$druid_shell..window..WinHandler$LT$druid..win_handler..DruidHandler$LT$T$GT$$GT$$GT$11add_handler17h2f617130c64cdd40E
00000000 g     F .text._ZN142_$LT$druid..win_handler..DruidHandler$LT$T$GT$$u20$as$u20$druid_shell..window..WinHandler$LT$druid..win_handler..DruidHandler$LT$T$GT$$GT$$GT$13get_window_id17hd9fa23b7a5c1420fE	0000000c _ZN142_$LT$druid..win_handler..DruidHandler$LT$T$GT$$u20$as$u20$druid_shell..window..WinHandler$LT$druid..win_handler..DruidHandler$LT$T$GT$$GT$$GT$13get_window_id17hd9fa23b7a5c1420fE
00000000         *UND*	00000000 _ZN5druid11win_handler17AppState$LT$T$GT$3new17h0289786462ef0c23E
00000000 g     F .text._ZN5druid11win_handler21DruidHandler$LT$T$GT$10new_shared17hddc849675439212bE	0000000e _ZN5druid11win_handler21DruidHandler$LT$T$GT$10new_shared17hddc849675439212bE
00000000         *UND*	00000000 .hidden _ZN66_$LT$druid..window..WindowId$u20$as$u20$core..default..Default$GT$7default17h1e3f141508bd68c7E
00000000         *UND*	00000000 _ZN77_$LT$core..marker..PhantomData$LT$T$GT$$u20$as$u20$core..default..Default$GT$7default17h8523ed2c4c050effE
00000000 g     F .text._ZN84_$LT$druid..win_handler..DruidHandler$LT$T$GT$$u20$as$u20$core..default..Default$GT$7default17hb14b8e70ddd1e5c4E	0000001c _ZN84_$LT$druid..win_handler..DruidHandler$LT$T$GT$$u20$as$u20$core..default..Default$GT$7default17hb14b8e70ddd1e5c4E



Disassembly of section .text._ZN142_$LT$druid..win_handler..DruidHandler$LT$T$GT$$u20$as$u20$druid_shell..window..WinHandler$LT$druid..win_handler..DruidHandler$LT$T$GT$$GT$$GT$11add_handler17h2f617130c64cdd40E:

00000000 <_ZN142_$LT$druid..win_handler..DruidHandler$LT$T$GT$$u20$as$u20$druid_shell..window..WinHandler$LT$druid..win_handler..DruidHandler$LT$T$GT$$GT$$GT$11add_handler17h2f617130c64cdd40E>:
_ZN142_$LT$druid..win_handler..DruidHandler$LT$T$GT$$u20$as$u20$druid_shell..window..WinHandler$LT$druid..win_handler..DruidHandler$LT$T$GT$$GT$$GT$11add_handler17h2f617130c64cdd40E():
C:\druid-embedded\druid\src/win_handler.rs:994

    fn get_window_id(&self) -> u32 { ////
        self.window_id.0
    }

    fn add_handler(&self, window_id: u32, handler: DruidHandler<T>) { ////
   0:	b580      	push	{r7, lr}
   2:	b086      	sub	sp, #24
   4:	9001      	str	r0, [sp, #4]
   6:	9102      	str	r1, [sp, #8]
   8:	9203      	str	r2, [sp, #12]
C:\druid-embedded\druid\src/win_handler.rs:995
        AppState::<T>::new().add_handler(WindowId(window_id), handler);
   a:	f7ff fffe 	bl	0 <_ZN5druid11win_handler17AppState$LT$T$GT$3new17h0289786462ef0c23E>
   e:	e7ff      	b.n	10 <_ZN142_$LT$druid..win_handler..DruidHandler$LT$T$GT$$u20$as$u20$druid_shell..window..WinHandler$LT$druid..win_handler..DruidHandler$LT$T$GT$$GT$$GT$11add_handler17h2f617130c64cdd40E+0x10>
  10:	9802      	ldr	r0, [sp, #8]
  12:	9005      	str	r0, [sp, #20]
  14:	9a03      	ldr	r2, [sp, #12]
  16:	9905      	ldr	r1, [sp, #20]
  18:	a804      	add	r0, sp, #16
  1a:	f7ff fffe 	bl	0 <_ZN104_$LT$druid..win_handler..AppState$LT$u32$GT$$u20$as$u20$druid..win_handler..GlobalWindows$LT$u32$GT$$GT$11add_handler17h0de96c8671a0881bE>
  1e:	e7ff      	b.n	20 <_ZN142_$LT$druid..win_handler..DruidHandler$LT$T$GT$$u20$as$u20$druid_shell..window..WinHandler$LT$druid..win_handler..DruidHandler$LT$T$GT$$GT$$GT$11add_handler17h2f617130c64cdd40E+0x20>
C:\druid-embedded\druid\src/win_handler.rs:996
    }
  20:	b006      	add	sp, #24
  22:	bd80      	pop	{r7, pc}

Disassembly of section .text._ZN142_$LT$druid..win_handler..DruidHandler$LT$T$GT$$u20$as$u20$druid_shell..window..WinHandler$LT$druid..win_handler..DruidHandler$LT$T$GT$$GT$$GT$13get_window_id17hd9fa23b7a5c1420fE:

00000000 <_ZN142_$LT$druid..win_handler..DruidHandler$LT$T$GT$$u20$as$u20$druid_shell..window..WinHandler$LT$druid..win_handler..DruidHandler$LT$T$GT$$GT$$GT$13get_window_id17hd9fa23b7a5c1420fE>:
_ZN142_$LT$druid..win_handler..DruidHandler$LT$T$GT$$u20$as$u20$druid_shell..window..WinHandler$LT$druid..win_handler..DruidHandler$LT$T$GT$$GT$$GT$13get_window_id17hd9fa23b7a5c1420fE():
C:\druid-embedded\druid\src/win_handler.rs:990
    fn get_window_id(&self) -> u32 { ////
   0:	b081      	sub	sp, #4
   2:	9000      	str	r0, [sp, #0]
C:\druid-embedded\druid\src/win_handler.rs:991
        self.window_id.0
   4:	9800      	ldr	r0, [sp, #0]
   6:	6800      	ldr	r0, [r0, #0]
C:\druid-embedded\druid\src/win_handler.rs:992
    }
   8:	b001      	add	sp, #4
   a:	4770      	bx	lr

Disassembly of section .text._ZN5druid11win_handler21DruidHandler$LT$T$GT$10new_shared17hddc849675439212bE:

00000000 <_ZN5druid11win_handler21DruidHandler$LT$T$GT$10new_shared17hddc849675439212bE>:
_ZN5druid11win_handler21DruidHandler$LT$T$GT$10new_shared17hddc849675439212bE():
C:\druid-embedded\druid\src/win_handler.rs:774
    pub(crate) fn new_shared(
   0:	b082      	sub	sp, #8
   2:	9000      	str	r0, [sp, #0]
C:\druid-embedded\druid\src/win_handler.rs:780
            window_id,
   4:	9800      	ldr	r0, [sp, #0]
C:\druid-embedded\druid\src/win_handler.rs:779
        DruidHandler {
   6:	9001      	str	r0, [sp, #4]
C:\druid-embedded\druid\src/win_handler.rs:783
    }
   8:	9801      	ldr	r0, [sp, #4]
   a:	b002      	add	sp, #8
   c:	4770      	bx	lr

Disassembly of section .text._ZN84_$LT$druid..win_handler..DruidHandler$LT$T$GT$$u20$as$u20$core..default..Default$GT$7default17hb14b8e70ddd1e5c4E:

00000000 <_ZN84_$LT$druid..win_handler..DruidHandler$LT$T$GT$$u20$as$u20$core..default..Default$GT$7default17hb14b8e70ddd1e5c4E>:
_ZN84_$LT$druid..win_handler..DruidHandler$LT$T$GT$$u20$as$u20$core..default..Default$GT$7default17hb14b8e70ddd1e5c4E():
C:\druid-embedded\druid\src/win_handler.rs:272
#[derive(Clone, Default)] ////
   0:	b580      	push	{r7, lr}
   2:	b082      	sub	sp, #8
C:\druid-embedded\druid\src/win_handler.rs:279
    window_id: WindowId,
   4:	f7ff fffe 	bl	0 <_ZN66_$LT$druid..window..WindowId$u20$as$u20$core..default..Default$GT$7default17h1e3f141508bd68c7E>
   8:	9000      	str	r0, [sp, #0]
   a:	e7ff      	b.n	c <_ZN84_$LT$druid..win_handler..DruidHandler$LT$T$GT$$u20$as$u20$core..default..Default$GT$7default17hb14b8e70ddd1e5c4E+0xc>
C:\druid-embedded\druid\src/win_handler.rs:280
    phantom: PhantomData<T>,  ////  Needed to do compile-time checking for `Data`
   c:	f7ff fffe 	bl	0 <_ZN77_$LT$core..marker..PhantomData$LT$T$GT$$u20$as$u20$core..default..Default$GT$7default17h8523ed2c4c050effE>
  10:	e7ff      	b.n	12 <_ZN84_$LT$druid..win_handler..DruidHandler$LT$T$GT$$u20$as$u20$core..default..Default$GT$7default17hb14b8e70ddd1e5c4E+0x12>
C:\druid-embedded\druid\src/win_handler.rs:272
#[derive(Clone, Default)] ////
  12:	9800      	ldr	r0, [sp, #0]
  14:	9001      	str	r0, [sp, #4]
  16:	9801      	ldr	r0, [sp, #4]
  18:	b002      	add	sp, #8
  1a:	bd80      	pop	{r7, pc}

app-20d859f505b9d0c6.55nxjr7bqya17eux.rcgu.o:     file format elf32-littlearm

SYMBOL TABLE:
00000000 l    df *ABS*	00000000 55nxjr7bqya17eux
00001003 l       .debug_str	00000000 
000024a1 l       .debug_str	00000000 
0000249a l       .debug_str	00000000 
00002485 l       .debug_str	00000000 
00002472 l       .debug_str	00000000 
0000245d l       .debug_str	00000000 
000024ed l       .debug_str	00000000 
000024e4 l       .debug_str	00000000 
000024e0 l       .debug_str	00000000 
00000000 l       .debug_str	00000000 
00000041 l       .debug_str	00000000 
00000055 l       .debug_str	00000000 
00000074 l       .debug_str	00000000 
00000078 l       .debug_str	00000000 
00000083 l       .debug_str	00000000 
00000091 l       .debug_str	00000000 
00000098 l       .debug_str	00000000 
0000009c l       .debug_str	00000000 
0000009f l       .debug_str	00000000 
000000a7 l       .debug_str	00000000 
000000ab l       .debug_str	00000000 
000000b4 l       .debug_str	00000000 
000000be l       .debug_str	00000000 
000000c5 l       .debug_str	00000000 
000000cb l       .debug_str	00000000 
000000d1 l       .debug_str	00000000 
000000d6 l       .debug_str	00000000 
000000de l       .debug_str	00000000 
000000e3 l       .debug_str	00000000 
0000011a l       .debug_str	00000000 
00000121 l       .debug_str	00000000 
00000125 l       .debug_str	00000000 
0000012d l       .debug_str	00000000 
00000138 l       .debug_str	00000000 
00000143 l       .debug_str	00000000 
00000150 l       .debug_str	00000000 
0000015b l       .debug_str	00000000 
00000163 l       .debug_str	00000000 
0000016e l       .debug_str	00000000 
00000179 l       .debug_str	00000000 
00000183 l       .debug_str	00000000 
0000018e l       .debug_str	00000000 
00000199 l       .debug_str	00000000 
000001a6 l       .debug_str	00000000 
000001b2 l       .debug_str	00000000 
000001bf l       .debug_str	00000000 
000001cd l       .debug_str	00000000 
000001d7 l       .debug_str	00000000 
000001e4 l       .debug_str	00000000 
000001f0 l       .debug_str	00000000 
000001f5 l       .debug_str	00000000 
000001f9 l       .debug_str	00000000 
00000204 l       .debug_str	00000000 
0000020f l       .debug_str	00000000 
00000216 l       .debug_str	00000000 
00000255 l       .debug_str	00000000 
0000026b l       .debug_str	00000000 
0000026f l       .debug_str	00000000 
00000272 l       .debug_str	00000000 
00000275 l       .debug_str	00000000 
00000277 l       .debug_str	00000000 
00000279 l       .debug_str	00000000 
0000027d l       .debug_str	00000000 
000002a5 l       .debug_str	00000000 
000002ac l       .debug_str	00000000 
000002af l       .debug_str	00000000 
000002b8 l       .debug_str	00000000 
000002be l       .debug_str	00000000 
000002c5 l       .debug_str	00000000 
000002c8 l       .debug_str	00000000 
000002d4 l       .debug_str	00000000 
000002dc l       .debug_str	00000000 
000002e3 l       .debug_str	00000000 
000002e8 l       .debug_str	00000000 
000002ff l       .debug_str	00000000 
00000359 l       .debug_str	00000000 
0000035e l       .debug_str	00000000 
000003c0 l       .debug_str	00000000 
000003cb l       .debug_str	00000000 
00000412 l       .debug_str	00000000 
00000461 l       .debug_str	00000000 
0000046b l       .debug_str	00000000 
000004a8 l       .debug_str	00000000 
000004ed l       .debug_str	00000000 
000004f6 l       .debug_str	00000000 
00000506 l       .debug_str	00000000 
0000050e l       .debug_str	00000000 
00000563 l       .debug_str	00000000 
000005c0 l       .debug_str	00000000 
000005cc l       .debug_str	00000000 
000005d5 l       .debug_str	00000000 
000005e1 l       .debug_str	00000000 
000005ed l       .debug_str	00000000 
000005f6 l       .debug_str	00000000 
000005fe l       .debug_str	00000000 
00000606 l       .debug_str	00000000 
00000610 l       .debug_str	00000000 
00000625 l       .debug_str	00000000 
0000062c l       .debug_str	00000000 
0000064c l       .debug_str	00000000 
00000653 l       .debug_str	00000000 
0000065b l       .debug_str	00000000 
00000665 l       .debug_str	00000000 
00000670 l       .debug_str	00000000 
00000679 l       .debug_str	00000000 
00000684 l       .debug_str	00000000 
00000690 l       .debug_str	00000000 
00000694 l       .debug_str	00000000 
0000069d l       .debug_str	00000000 
000006a4 l       .debug_str	00000000 
000006ac l       .debug_str	00000000 
000006b4 l       .debug_str	00000000 
000006be l       .debug_str	00000000 
000006c4 l       .debug_str	00000000 
000006cb l       .debug_str	00000000 
000006d2 l       .debug_str	00000000 
000006ff l       .debug_str	00000000 
00000734 l       .debug_str	00000000 
0000073a l       .debug_str	00000000 
00000740 l       .debug_str	00000000 
0000074f l       .debug_str	00000000 
0000075f l       .debug_str	00000000 
0000076f l       .debug_str	00000000 
00000777 l       .debug_str	00000000 
000007a0 l       .debug_str	00000000 
000007fe l       .debug_str	00000000 
00000864 l       .debug_str	00000000 
0000086b l       .debug_str	00000000 
00000873 l       .debug_str	00000000 
0000087c l       .debug_str	00000000 
0000089a l       .debug_str	00000000 
000008aa l       .debug_str	00000000 
000008b8 l       .debug_str	00000000 
000008c3 l       .debug_str	00000000 
000008d0 l       .debug_str	00000000 
000008df l       .debug_str	00000000 
000008f5 l       .debug_str	00000000 
000008ff l       .debug_str	00000000 
00000908 l       .debug_str	00000000 
00000911 l       .debug_str	00000000 
00000937 l       .debug_str	00000000 
0000094d l       .debug_str	00000000 
00000958 l       .debug_str	00000000 
0000096e l       .debug_str	00000000 
00000976 l       .debug_str	00000000 
00000997 l       .debug_str	00000000 
000009ae l       .debug_str	00000000 
000009b3 l       .debug_str	00000000 
000009bb l       .debug_str	00000000 
000009c4 l       .debug_str	00000000 
000009cd l       .debug_str	00000000 
000009d6 l       .debug_str	00000000 
000009de l       .debug_str	00000000 
000009e2 l       .debug_str	00000000 
000009e9 l       .debug_str	00000000 
000009f5 l       .debug_str	00000000 
00000a00 l       .debug_str	00000000 
00000a08 l       .debug_str	00000000 
00000a10 l       .debug_str	00000000 
00000a8c l       .debug_str	00000000 
00000b10 l       .debug_str	00000000 
00000c0c l       .debug_str	00000000 
00000d10 l       .debug_str	00000000 
00000d1e l       .debug_str	00000000 
00000d29 l       .debug_str	00000000 
00000d33 l       .debug_str	00000000 
00000d47 l       .debug_str	00000000 
00000d52 l       .debug_str	00000000 
00000d80 l       .debug_str	00000000 
00000dfb l       .debug_str	00000000 
00000e7e l       .debug_str	00000000 
00000e8c l       .debug_str	00000000 
00000eeb l       .debug_str	00000000 
00000f52 l       .debug_str	00000000 
00000f68 l       .debug_str	00000000 
00000f78 l       .debug_str	00000000 
00000f87 l       .debug_str	00000000 
00000f8b l       .debug_str	00000000 
00000f92 l       .debug_str	00000000 
00000f98 l       .debug_str	00000000 
00000f9c l       .debug_str	00000000 
00000fa2 l       .debug_str	00000000 
00000fa8 l       .debug_str	00000000 
00000fb4 l       .debug_str	00000000 
00000fbc l       .debug_str	00000000 
00000fc2 l       .debug_str	00000000 
00000fca l       .debug_str	00000000 
00000fd0 l       .debug_str	00000000 
00000ff3 l       .debug_str	00000000 
0000242a l       .debug_str	00000000 
00001036 l       .debug_str	00000000 
00001076 l       .debug_str	00000000 
000010be l       .debug_str	00000000 
000010c2 l       .debug_str	00000000 
000010c8 l       .debug_str	00000000 
000010ce l       .debug_str	00000000 
000010d4 l       .debug_str	00000000 
000010e6 l       .debug_str	00000000 
0000111b l       .debug_str	00000000 
0000115d l       .debug_str	00000000 
000011a7 l       .debug_str	00000000 
000011ab l       .debug_str	00000000 
000011b1 l       .debug_str	00000000 
000011b7 l       .debug_str	00000000 
000011bd l       .debug_str	00000000 
000011cf l       .debug_str	00000000 
00001204 l       .debug_str	00000000 
00001246 l       .debug_str	00000000 
00001290 l       .debug_str	00000000 
00001294 l       .debug_str	00000000 
0000129a l       .debug_str	00000000 
000012a0 l       .debug_str	00000000 
000012a6 l       .debug_str	00000000 
000012ac l       .debug_str	00000000 
000012bd l       .debug_str	00000000 
000012f1 l       .debug_str	00000000 
00001332 l       .debug_str	00000000 
0000137b l       .debug_str	00000000 
00001380 l       .debug_str	00000000 
00001385 l       .debug_str	00000000 
00001389 l       .debug_str	00000000 
0000138f l       .debug_str	00000000 
00001395 l       .debug_str	00000000 
0000139b l       .debug_str	00000000 
000013ac l       .debug_str	00000000 
000013e0 l       .debug_str	00000000 
00001421 l       .debug_str	00000000 
0000146a l       .debug_str	00000000 
0000146e l       .debug_str	00000000 
00001477 l       .debug_str	00000000 
00001488 l       .debug_str	00000000 
000014bc l       .debug_str	00000000 
000014fd l       .debug_str	00000000 
00001546 l       .debug_str	00000000 
0000154b l       .debug_str	00000000 
0000154f l       .debug_str	00000000 
00001558 l       .debug_str	00000000 
0000155f l       .debug_str	00000000 
00001567 l       .debug_str	00000000 
00001579 l       .debug_str	00000000 
000015ae l       .debug_str	00000000 
000015f0 l       .debug_str	00000000 
0000163a l       .debug_str	00000000 
0000163e l       .debug_str	00000000 
00001644 l       .debug_str	00000000 
0000164a l       .debug_str	00000000 
00001650 l       .debug_str	00000000 
00001656 l       .debug_str	00000000 
0000165e l       .debug_str	00000000 
0000166c l       .debug_str	00000000 
0000167b l       .debug_str	00000000 
0000168c l       .debug_str	00000000 
00001697 l       .debug_str	00000000 
000016a2 l       .debug_str	00000000 
000016ad l       .debug_str	00000000 
000016b4 l       .debug_str	00000000 
000016d7 l       .debug_str	00000000 
000016e9 l       .debug_str	00000000 
0000171e l       .debug_str	00000000 
00001760 l       .debug_str	00000000 
000017aa l       .debug_str	00000000 
000017ae l       .debug_str	00000000 
000017b8 l       .debug_str	00000000 
000017ca l       .debug_str	00000000 
000017ff l       .debug_str	00000000 
00001841 l       .debug_str	00000000 
0000188b l       .debug_str	00000000 
00001890 l       .debug_str	00000000 
0000189a l       .debug_str	00000000 
000018ac l       .debug_str	00000000 
000018e1 l       .debug_str	00000000 
00001923 l       .debug_str	00000000 
0000196d l       .debug_str	00000000 
00001981 l       .debug_str	00000000 
00001985 l       .debug_str	00000000 
00001993 l       .debug_str	00000000 
000019a3 l       .debug_str	00000000 
000019ac l       .debug_str	00000000 
000019b7 l       .debug_str	00000000 
000019c6 l       .debug_str	00000000 
000019db l       .debug_str	00000000 
00001a0c l       .debug_str	00000000 
00001aa9 l       .debug_str	00000000 
00001b4e l       .debug_str	00000000 
00001b59 l       .debug_str	00000000 
00001b62 l       .debug_str	00000000 
00001b83 l       .debug_str	00000000 
00001b96 l       .debug_str	00000000 
00001bcc l       .debug_str	00000000 
00001c4f l       .debug_str	00000000 
00001cda l       .debug_str	00000000 
00001cf6 l       .debug_str	00000000 
00001d42 l       .debug_str	00000000 
00001d96 l       .debug_str	00000000 
00001db3 l       .debug_str	00000000 
00001dc7 l       .debug_str	00000000 
00001e13 l       .debug_str	00000000 
00001e67 l       .debug_str	00000000 
00001e7d l       .debug_str	00000000 
00001e91 l       .debug_str	00000000 
00001ed8 l       .debug_str	00000000 
00001f27 l       .debug_str	00000000 
00001f30 l       .debug_str	00000000 
00001f3e l       .debug_str	00000000 
00001f6f l       .debug_str	00000000 
00001f75 l       .debug_str	00000000 
00001f7d l       .debug_str	00000000 
00001f84 l       .debug_str	00000000 
00001f8c l       .debug_str	00000000 
00001f97 l       .debug_str	00000000 
00001f9f l       .debug_str	00000000 
00001fae l       .debug_str	00000000 
00001fb2 l       .debug_str	00000000 
00001fbd l       .debug_str	00000000 
00001fc9 l       .debug_str	00000000 
00001fd4 l       .debug_str	00000000 
00001fe5 l       .debug_str	00000000 
00001feb l       .debug_str	00000000 
00001ff3 l       .debug_str	00000000 
00001ffa l       .debug_str	00000000 
00002004 l       .debug_str	00000000 
0000200c l       .debug_str	00000000 
00002014 l       .debug_str	00000000 
00002036 l       .debug_str	00000000 
00002041 l       .debug_str	00000000 
0000204d l       .debug_str	00000000 
00002055 l       .debug_str	00000000 
0000205e l       .debug_str	00000000 
00002069 l       .debug_str	00000000 
00002070 l       .debug_str	00000000 
0000207b l       .debug_str	00000000 
00002086 l       .debug_str	00000000 
00002096 l       .debug_str	00000000 
000020a0 l       .debug_str	00000000 
000020a6 l       .debug_str	00000000 
000020c8 l       .debug_str	00000000 
00002100 l       .debug_str	00000000 
00002140 l       .debug_str	00000000 
00002147 l       .debug_str	00000000 
0000214f l       .debug_str	00000000 
00002166 l       .debug_str	00000000 
0000216f l       .debug_str	00000000 
0000217f l       .debug_str	00000000 
0000218e l       .debug_str	00000000 
00002196 l       .debug_str	00000000 
0000219d l       .debug_str	00000000 
000021a5 l       .debug_str	00000000 
000021c3 l       .debug_str	00000000 
000021d3 l       .debug_str	00000000 
00002206 l       .debug_str	00000000 
0000221b l       .debug_str	00000000 
00002224 l       .debug_str	00000000 
00002281 l       .debug_str	00000000 
000022e6 l       .debug_str	00000000 
000022f0 l       .debug_str	00000000 
00002300 l       .debug_str	00000000 
00002315 l       .debug_str	00000000 
0000231d l       .debug_str	00000000 
00002381 l       .debug_str	00000000 
000023ed l       .debug_str	00000000 
000023f4 l       .debug_str	00000000 
000023fc l       .debug_str	00000000 
0000241a l       .debug_str	00000000 
000024b6 l       .debug_str	00000000 
00000000 l     O .rodata..Lanon.1a02c9a740ca37f6906b94c75dd2522b.1	0000000e .Lanon.1a02c9a740ca37f6906b94c75dd2522b.1
00000000 l     O .rodata..Lanon.1a02c9a740ca37f6906b94c75dd2522b.2	00000006 .Lanon.1a02c9a740ca37f6906b94c75dd2522b.2
00000000 l     O .rodata..Lanon.1a02c9a740ca37f6906b94c75dd2522b.4	0000000c .Lanon.1a02c9a740ca37f6906b94c75dd2522b.4
00000000 l     O .rodata._ZN3app10app_sensor13SENSOR_DEVICE17h894c09a22f5b1b0fE	0000000c _ZN3app10app_sensor13SENSOR_DEVICE17h894c09a22f5b1b0fE
00000000 l    d  .text._ZN3app10app_sensor21start_sensor_listener17h66bcc19d5c7e224eE	00000000 .text._ZN3app10app_sensor21start_sensor_listener17h66bcc19d5c7e224eE
00000000 l    d  .rodata..Lanon.1a02c9a740ca37f6906b94c75dd2522b.0	00000000 .rodata..Lanon.1a02c9a740ca37f6906b94c75dd2522b.0
00000000 l    d  .rodata._ZN3app10app_sensor13SENSOR_DEVICE17h894c09a22f5b1b0fE	00000000 .rodata._ZN3app10app_sensor13SENSOR_DEVICE17h894c09a22f5b1b0fE
00000000 l    d  .rodata..Lanon.1a02c9a740ca37f6906b94c75dd2522b.3	00000000 .rodata..Lanon.1a02c9a740ca37f6906b94c75dd2522b.3
00000000 l    d  .debug_abbrev	00000000 .debug_abbrev
00000000 l    d  .debug_info	00000000 .debug_info
00000000 l    d  .debug_ranges	00000000 .debug_ranges
00000000 l    d  .debug_frame	00000000 .debug_frame
00000000 l    d  .debug_line	00000000 .debug_line
00000000 g     F .text._ZN3app10app_sensor21start_sensor_listener17h66bcc19d5c7e224eE	00000162 .hidden _ZN3app10app_sensor21start_sensor_listener17h66bcc19d5c7e224eE
00000000         *UND*	00000000 .hidden _ZN3app11app_network21aggregate_sensor_data17hbca12eab887e2347E
00000000         *UND*	00000000 _ZN4core6option15Option$LT$T$GT$6expect17h3c6c58cb25d23bacE
00000000         *UND*	00000000 _ZN50_$LT$T$u20$as$u20$core..convert..From$LT$T$GT$$GT$4from17h1a28f543ef3bd8bcE
00000000         *UND*	00000000 _ZN6mynewt2hw10sensor_mgr14find_bydevname17h2b8e3f1879191a18E
00000000         *UND*	00000000 _ZN6mynewt2hw6sensor17register_listener17ha0fd06124b5acd54E
00000000         *UND*	00000000 _ZN6mynewt2hw6sensor19new_sensor_listener17h4eee544ae3914ce7E
00000000         *UND*	00000000 _ZN6mynewt2hw6sensor8bindings16set_poll_rate_ms17h93d36ef5aab4e64cE
00000000         *UND*	00000000 _ZN6mynewt3sys7console5print17hcde9599709a168ecE
00000000         *UND*	00000000 _ZN73_$LT$core..result..Result$LT$T$C$E$GT$$u20$as$u20$core..ops..try..Try$GT$10from_error17h82883cbc71a62f35E
00000000         *UND*	00000000 _ZN73_$LT$core..result..Result$LT$T$C$E$GT$$u20$as$u20$core..ops..try..Try$GT$11into_result17h722565ad5f964da6E
00000000         *UND*	00000000 _ZN73_$LT$core..result..Result$LT$T$C$E$GT$$u20$as$u20$core..ops..try..Try$GT$11into_result17h9239e9fc682870a0E
00000000         *UND*	00000000 _ZN99_$LT$mynewt..hw..sensor_mgr..SensorsByDevname$u20$as$u20$core..iter..traits..iterator..Iterator$GT$4next17h0c4d3a79a172d1a4E



Disassembly of section .text._ZN3app10app_sensor21start_sensor_listener17h66bcc19d5c7e224eE:

00000000 <_ZN3app10app_sensor21start_sensor_listener17h66bcc19d5c7e224eE>:
_ZN3app10app_sensor21start_sensor_listener17h66bcc19d5c7e224eE():
c:\stm32bluepill-mynewt-sensor/rust\app\src/app_sensor.rs:46
///  Type of sensor: Raw temperature sensor (integer sensor values 0 to 4095)
const TEMP_SENSOR_TYPE: sensor_type_t = sensor::SENSOR_TYPE_AMBIENT_TEMPERATURE_RAW;

///  Ask Mynewt to poll or read the temperature sensor and call `aggregate_sensor_data()`
///  Return `Ok()` if successful, else return `Err()` with `MynewtError` error code inside.
pub fn start_sensor_listener() -> MynewtResult<()>  {  //  Returns an error code upon error.
   0:	b5f0      	push	{r4, r5, r6, r7, lr}
   2:	b0bb      	sub	sp, #236	; 0xec
c:\stm32bluepill-mynewt-sensor/rust\app\src/app_sensor.rs:47
    console::print("Rust TMP poll\n");
   4:	f240 0000 	movw	r0, #0
   8:	f2c0 0000 	movt	r0, #0
   c:	210e      	movs	r1, #14
   e:	f7ff fffe 	bl	0 <_ZN6mynewt3sys7console5print17hcde9599709a168ecE>
  12:	e7ff      	b.n	2 <_ZN3app10app_sensor21start_sensor_listener17h66bcc19d5c7e224eE+0x2>
c:\stm32bluepill-mynewt-sensor/rust\app\src/app_sensor.rs:50

    //  Fetch the sensor by name.
    let sensor = sensor_mgr::find_bydevname(&SENSOR_DEVICE)
  14:	f240 0100 	movw	r1, #0
  18:	f2c0 0100 	movt	r1, #0
  1c:	a80b      	add	r0, sp, #44	; 0x2c
  1e:	f7ff fffe 	bl	0 <_ZN6mynewt2hw10sensor_mgr14find_bydevname17h2b8e3f1879191a18E>
  22:	e7ff      	b.n	24 <_ZN3app10app_sensor21start_sensor_listener17h66bcc19d5c7e224eE+0x24>
  24:	a80b      	add	r0, sp, #44	; 0x2c
  26:	f7ff fffe 	bl	0 <_ZN99_$LT$mynewt..hw..sensor_mgr..SensorsByDevname$u20$as$u20$core..iter..traits..iterator..Iterator$GT$4next17h0c4d3a79a172d1a4E>
  2a:	9008      	str	r0, [sp, #32]
  2c:	9107      	str	r1, [sp, #28]
  2e:	e7ff      	b.n	30 <_ZN3app10app_sensor21start_sensor_listener17h66bcc19d5c7e224eE+0x30>
  30:	f240 0200 	movw	r2, #0
  34:	f2c0 0200 	movt	r2, #0
  38:	2306      	movs	r3, #6
  3a:	9808      	ldr	r0, [sp, #32]
  3c:	9907      	ldr	r1, [sp, #28]
  3e:	f7ff fffe 	bl	0 <_ZN4core6option15Option$LT$T$GT$6expect17h3c6c58cb25d23bacE>
  42:	900a      	str	r0, [sp, #40]	; 0x28
  44:	e7ff      	b.n	46 <_ZN3app10app_sensor21start_sensor_listener17h66bcc19d5c7e224eE+0x46>
c:\stm32bluepill-mynewt-sensor/rust\app\src/app_sensor.rs:55
        .next()             //  Fetch the first sensor that matches
        .expect("no TMP");  //  Stop if no sensor found

    //  At power on, we ask Mynewt to poll our temperature sensor every 10 seconds.
    sensor::set_poll_rate_ms(&SENSOR_DEVICE, SENSOR_POLL_TIME) ? ;
  46:	f240 0000 	movw	r0, #0
  4a:	f2c0 0000 	movt	r0, #0
  4e:	f247 5130 	movw	r1, #30000	; 0x7530
  52:	f7ff fffe 	bl	0 <_ZN6mynewt2hw6sensor8bindings16set_poll_rate_ms17h93d36ef5aab4e64cE>
  56:	9006      	str	r0, [sp, #24]
  58:	e7ff      	b.n	5a <_ZN3app10app_sensor21start_sensor_listener17h66bcc19d5c7e224eE+0x5a>
  5a:	9806      	ldr	r0, [sp, #24]
  5c:	f7ff fffe 	bl	0 <_ZN73_$LT$core..result..Result$LT$T$C$E$GT$$u20$as$u20$core..ops..try..Try$GT$11into_result17h9239e9fc682870a0E>
  60:	900f      	str	r0, [sp, #60]	; 0x3c
  62:	e7ff      	b.n	64 <_ZN3app10app_sensor21start_sensor_listener17h66bcc19d5c7e224eE+0x64>
  64:	980f      	ldr	r0, [sp, #60]	; 0x3c
  66:	1e41      	subs	r1, r0, #1
  68:	bf18      	it	ne
  6a:	2101      	movne	r1, #1
  6c:	2801      	cmp	r0, #1
  6e:	d013      	beq.n	98 <_ZN3app10app_sensor21start_sensor_listener17h66bcc19d5c7e224eE+0x98>
  70:	e7ff      	b.n	72 <_ZN3app10app_sensor21start_sensor_listener17h66bcc19d5c7e224eE+0x72>
  72:	e000      	b.n	76 <_ZN3app10app_sensor21start_sensor_listener17h66bcc19d5c7e224eE+0x76>
  74:	defe      	udf	#254	; 0xfe
  76:	980f      	ldr	r0, [sp, #60]	; 0x3c
  78:	9010      	str	r0, [sp, #64]	; 0x40
  7a:	9810      	ldr	r0, [sp, #64]	; 0x40
  7c:	f7ff fffe 	bl	0 <_ZN50_$LT$T$u20$as$u20$core..convert..From$LT$T$GT$$GT$4from17h1a28f543ef3bd8bcE>
  80:	9005      	str	r0, [sp, #20]
  82:	e002      	b.n	8a <_ZN3app10app_sensor21start_sensor_listener17h66bcc19d5c7e224eE+0x8a>
c:\stm32bluepill-mynewt-sensor/rust\app\src/app_sensor.rs:69
    //  Register the Listener Function to be called with the polled sensor data.
    sensor::register_listener(sensor, listener) ? ;  //  `?` means in case of error, return error now.

    //  Return `Ok()` to indicate success.  This line should not end with a semicolon (;).
    Ok(())
  84:	9809      	ldr	r0, [sp, #36]	; 0x24
  86:	b03b      	add	sp, #236	; 0xec
  88:	bdf0      	pop	{r4, r5, r6, r7, pc}
c:\stm32bluepill-mynewt-sensor/rust\app\src/app_sensor.rs:55
    sensor::set_poll_rate_ms(&SENSOR_DEVICE, SENSOR_POLL_TIME) ? ;
  8a:	9805      	ldr	r0, [sp, #20]
  8c:	f7ff fffe 	bl	0 <_ZN73_$LT$core..result..Result$LT$T$C$E$GT$$u20$as$u20$core..ops..try..Try$GT$10from_error17h82883cbc71a62f35E>
  90:	9009      	str	r0, [sp, #36]	; 0x24
  92:	e7ff      	b.n	94 <_ZN3app10app_sensor21start_sensor_listener17h66bcc19d5c7e224eE+0x94>
  94:	e7ff      	b.n	96 <_ZN3app10app_sensor21start_sensor_listener17h66bcc19d5c7e224eE+0x96>
  96:	e7f5      	b.n	84 <_ZN3app10app_sensor21start_sensor_listener17h66bcc19d5c7e224eE+0x84>
c:\stm32bluepill-mynewt-sensor/rust\app\src/app_sensor.rs:58
    let listener = sensor::new_sensor_listener(
  98:	f240 0000 	movw	r0, #0
  9c:	f2c0 0000 	movt	r0, #0
  a0:	4669      	mov	r1, sp
  a2:	6008      	str	r0, [r1, #0]
  a4:	f240 0100 	movw	r1, #0
  a8:	f2c0 0100 	movt	r1, #0
  ac:	a820      	add	r0, sp, #128	; 0x80
  ae:	f04f 6280 	mov.w	r2, #67108864	; 0x4000000
  b2:	2300      	movs	r3, #0
  b4:	f7ff fffe 	bl	0 <_ZN6mynewt2hw6sensor19new_sensor_listener17h4eee544ae3914ce7E>
  b8:	e7ff      	b.n	ba <_ZN3app10app_sensor21start_sensor_listener17h66bcc19d5c7e224eE+0xba>
  ba:	a818      	add	r0, sp, #96	; 0x60
  bc:	a920      	add	r1, sp, #128	; 0x80
  be:	f7ff fffe 	bl	0 <_ZN73_$LT$core..result..Result$LT$T$C$E$GT$$u20$as$u20$core..ops..try..Try$GT$11into_result17h722565ad5f964da6E>
  c2:	e7ff      	b.n	c4 <_ZN3app10app_sensor21start_sensor_listener17h66bcc19d5c7e224eE+0xc4>
c:\stm32bluepill-mynewt-sensor/rust\app\src/app_sensor.rs:62
    ) ? ;
  c4:	9818      	ldr	r0, [sp, #96]	; 0x60
  c6:	2800      	cmp	r0, #0
  c8:	d010      	beq.n	ec <_ZN3app10app_sensor21start_sensor_listener17h66bcc19d5c7e224eE+0xec>
  ca:	e7ff      	b.n	cc <_ZN3app10app_sensor21start_sensor_listener17h66bcc19d5c7e224eE+0xcc>
  cc:	e000      	b.n	d0 <_ZN3app10app_sensor21start_sensor_listener17h66bcc19d5c7e224eE+0xd0>
c:\stm32bluepill-mynewt-sensor/rust\app\src/app_sensor.rs:58
    let listener = sensor::new_sensor_listener(
  ce:	defe      	udf	#254	; 0xfe
c:\stm32bluepill-mynewt-sensor/rust\app\src/app_sensor.rs:62
    ) ? ;
  d0:	9819      	ldr	r0, [sp, #100]	; 0x64
  d2:	9029      	str	r0, [sp, #164]	; 0xa4
  d4:	9829      	ldr	r0, [sp, #164]	; 0xa4
  d6:	f7ff fffe 	bl	0 <_ZN50_$LT$T$u20$as$u20$core..convert..From$LT$T$GT$$GT$4from17h1a28f543ef3bd8bcE>
  da:	9004      	str	r0, [sp, #16]
  dc:	e7ff      	b.n	de <_ZN3app10app_sensor21start_sensor_listener17h66bcc19d5c7e224eE+0xde>
  de:	9804      	ldr	r0, [sp, #16]
  e0:	f7ff fffe 	bl	0 <_ZN73_$LT$core..result..Result$LT$T$C$E$GT$$u20$as$u20$core..ops..try..Try$GT$10from_error17h82883cbc71a62f35E>
  e4:	9009      	str	r0, [sp, #36]	; 0x24
  e6:	e7ff      	b.n	e8 <_ZN3app10app_sensor21start_sensor_listener17h66bcc19d5c7e224eE+0xe8>
  e8:	e7ff      	b.n	ea <_ZN3app10app_sensor21start_sensor_listener17h66bcc19d5c7e224eE+0xea>
  ea:	e7d4      	b.n	96 <_ZN3app10app_sensor21start_sensor_listener17h66bcc19d5c7e224eE+0x96>
  ec:	a818      	add	r0, sp, #96	; 0x60
c:\stm32bluepill-mynewt-sensor/rust\app\src/app_sensor.rs:58
    let listener = sensor::new_sensor_listener(
  ee:	3008      	adds	r0, #8
  f0:	a92a      	add	r1, sp, #168	; 0xa8
  f2:	460a      	mov	r2, r1
  f4:	e890 5078 	ldmia.w	r0, {r3, r4, r5, r6, ip, lr}
  f8:	e882 5078 	stmia.w	r2, {r3, r4, r5, r6, ip, lr}
  fc:	a812      	add	r0, sp, #72	; 0x48
  fe:	4602      	mov	r2, r0
 100:	e891 5078 	ldmia.w	r1, {r3, r4, r5, r6, ip, lr}
 104:	e882 5078 	stmia.w	r2, {r3, r4, r5, r6, ip, lr}
c:\stm32bluepill-mynewt-sensor/rust\app\src/app_sensor.rs:65
    sensor::register_listener(sensor, listener) ? ;  //  `?` means in case of error, return error now.
 108:	990a      	ldr	r1, [sp, #40]	; 0x28
 10a:	aa32      	add	r2, sp, #200	; 0xc8
 10c:	4613      	mov	r3, r2
 10e:	e890 50f0 	ldmia.w	r0, {r4, r5, r6, r7, ip, lr}
 112:	e883 50f0 	stmia.w	r3, {r4, r5, r6, r7, ip, lr}
 116:	4608      	mov	r0, r1
 118:	4611      	mov	r1, r2
 11a:	f7ff fffe 	bl	0 <_ZN6mynewt2hw6sensor17register_listener17ha0fd06124b5acd54E>
 11e:	9003      	str	r0, [sp, #12]
 120:	e7ff      	b.n	122 <_ZN3app10app_sensor21start_sensor_listener17h66bcc19d5c7e224eE+0x122>
 122:	9803      	ldr	r0, [sp, #12]
 124:	f7ff fffe 	bl	0 <_ZN73_$LT$core..result..Result$LT$T$C$E$GT$$u20$as$u20$core..ops..try..Try$GT$11into_result17h9239e9fc682870a0E>
 128:	9031      	str	r0, [sp, #196]	; 0xc4
 12a:	e7ff      	b.n	12c <_ZN3app10app_sensor21start_sensor_listener17h66bcc19d5c7e224eE+0x12c>
 12c:	9831      	ldr	r0, [sp, #196]	; 0xc4
 12e:	1e41      	subs	r1, r0, #1
 130:	bf18      	it	ne
 132:	2101      	movne	r1, #1
 134:	2801      	cmp	r0, #1
 136:	d00f      	beq.n	158 <_ZN3app10app_sensor21start_sensor_listener17h66bcc19d5c7e224eE+0x158>
 138:	e7ff      	b.n	13a <_ZN3app10app_sensor21start_sensor_listener17h66bcc19d5c7e224eE+0x13a>
 13a:	e000      	b.n	13e <_ZN3app10app_sensor21start_sensor_listener17h66bcc19d5c7e224eE+0x13e>
 13c:	defe      	udf	#254	; 0xfe
 13e:	9831      	ldr	r0, [sp, #196]	; 0xc4
 140:	9039      	str	r0, [sp, #228]	; 0xe4
 142:	9839      	ldr	r0, [sp, #228]	; 0xe4
 144:	f7ff fffe 	bl	0 <_ZN50_$LT$T$u20$as$u20$core..convert..From$LT$T$GT$$GT$4from17h1a28f543ef3bd8bcE>
 148:	9002      	str	r0, [sp, #8]
 14a:	e7ff      	b.n	14c <_ZN3app10app_sensor21start_sensor_listener17h66bcc19d5c7e224eE+0x14c>
 14c:	9802      	ldr	r0, [sp, #8]
 14e:	f7ff fffe 	bl	0 <_ZN73_$LT$core..result..Result$LT$T$C$E$GT$$u20$as$u20$core..ops..try..Try$GT$10from_error17h82883cbc71a62f35E>
 152:	9009      	str	r0, [sp, #36]	; 0x24
 154:	e7ff      	b.n	156 <_ZN3app10app_sensor21start_sensor_listener17h66bcc19d5c7e224eE+0x156>
 156:	e7c8      	b.n	ea <_ZN3app10app_sensor21start_sensor_listener17h66bcc19d5c7e224eE+0xea>
 158:	2000      	movs	r0, #0
c:\stm32bluepill-mynewt-sensor/rust\app\src/app_sensor.rs:68
    Ok(())
 15a:	9009      	str	r0, [sp, #36]	; 0x24
 15c:	2001      	movs	r0, #1
 15e:	9009      	str	r0, [sp, #36]	; 0x24
c:\stm32bluepill-mynewt-sensor/rust\app\src/app_sensor.rs:69
 160:	e790      	b.n	84 <_ZN3app10app_sensor21start_sensor_listener17h66bcc19d5c7e224eE+0x84>

app-20d859f505b9d0c6.56146cruwwpkvvs9.rcgu.o:     file format elf32-littlearm

SYMBOL TABLE:
00000000 l    df *ABS*	00000000 56146cruwwpkvvs9
000001d8 l       .debug_str	00000000 
000004df l       .debug_str	00000000 
000004db l       .debug_str	00000000 
000004d6 l       .debug_str	00000000 
000004d1 l       .debug_str	00000000 
000004c8 l       .debug_str	00000000 
000004aa l       .debug_str	00000000 
00000494 l       .debug_str	00000000 
0000048a l       .debug_str	00000000 
00000509 l       .debug_str	00000000 
00000471 l       .debug_str	00000000 
00000454 l       .debug_str	00000000 
00000449 l       .debug_str	00000000 
000003eb l       .debug_str	00000000 
000003d1 l       .debug_str	00000000 
000003c7 l       .debug_str	00000000 
000004ff l       .debug_str	00000000 
00000000 l       .debug_str	00000000 
00000041 l       .debug_str	00000000 
00000055 l       .debug_str	00000000 
00000074 l       .debug_str	00000000 
00000079 l       .debug_str	00000000 
0000007d l       .debug_str	00000000 
00000080 l       .debug_str	00000000 
00000083 l       .debug_str	00000000 
00000086 l       .debug_str	00000000 
0000008b l       .debug_str	00000000 
00000091 l       .debug_str	00000000 
00000098 l       .debug_str	00000000 
000000a0 l       .debug_str	00000000 
000000aa l       .debug_str	00000000 
000000b1 l       .debug_str	00000000 
000000b4 l       .debug_str	00000000 
000000b8 l       .debug_str	00000000 
000000bf l       .debug_str	00000000 
000000c3 l       .debug_str	00000000 
000000cc l       .debug_str	00000000 
000000d0 l       .debug_str	00000000 
000000fa l       .debug_str	00000000 
000000ff l       .debug_str	00000000 
00000104 l       .debug_str	00000000 
00000106 l       .debug_str	00000000 
00000118 l       .debug_str	00000000 
0000011e l       .debug_str	00000000 
00000121 l       .debug_str	00000000 
00000125 l       .debug_str	00000000 
0000012a l       .debug_str	00000000 
00000132 l       .debug_str	00000000 
00000136 l       .debug_str	00000000 
0000013e l       .debug_str	00000000 
00000146 l       .debug_str	00000000 
0000014d l       .debug_str	00000000 
00000153 l       .debug_str	00000000 
00000167 l       .debug_str	00000000 
00000173 l       .debug_str	00000000 
00000178 l       .debug_str	00000000 
00000180 l       .debug_str	00000000 
00000187 l       .debug_str	00000000 
0000018b l       .debug_str	00000000 
00000190 l       .debug_str	00000000 
00000197 l       .debug_str	00000000 
000001a0 l       .debug_str	00000000 
000001aa l       .debug_str	00000000 
000001b1 l       .debug_str	00000000 
000001b6 l       .debug_str	00000000 
000001c2 l       .debug_str	00000000 
000001ca l       .debug_str	00000000 
000001d3 l       .debug_str	00000000 
000003ab l       .debug_str	00000000 
000001db l       .debug_str	00000000 
000001df l       .debug_str	00000000 
000001e8 l       .debug_str	00000000 
000001ef l       .debug_str	00000000 
000001f4 l       .debug_str	00000000 
000001f9 l       .debug_str	00000000 
000001ff l       .debug_str	00000000 
00000205 l       .debug_str	00000000 
0000020f l       .debug_str	00000000 
00000212 l       .debug_str	00000000 
00000218 l       .debug_str	00000000 
00000222 l       .debug_str	00000000 
0000022a l       .debug_str	00000000 
00000230 l       .debug_str	00000000 
00000236 l       .debug_str	00000000 
00000241 l       .debug_str	00000000 
0000024a l       .debug_str	00000000 
0000026d l       .debug_str	00000000 
0000028c l       .debug_str	00000000 
0000028e l       .debug_str	00000000 
00000293 l       .debug_str	00000000 
000002ba l       .debug_str	00000000 
000002bf l       .debug_str	00000000 
000002c5 l       .debug_str	00000000 
000002cb l       .debug_str	00000000 
000002ce l       .debug_str	00000000 
000002dd l       .debug_str	00000000 
000002e4 l       .debug_str	00000000 
000002e8 l       .debug_str	00000000 
000002f1 l       .debug_str	00000000 
000002fd l       .debug_str	00000000 
00000316 l       .debug_str	00000000 
0000031b l       .debug_str	00000000 
0000032c l       .debug_str	00000000 
00000336 l       .debug_str	00000000 
00000344 l       .debug_str	00000000 
00000348 l       .debug_str	00000000 
00000353 l       .debug_str	00000000 
0000035a l       .debug_str	00000000 
00000360 l       .debug_str	00000000 
00000364 l       .debug_str	00000000 
00000368 l       .debug_str	00000000 
00000370 l       .debug_str	00000000 
00000387 l       .debug_str	00000000 
000004e8 l       .debug_str	00000000 
00000000 l     O .rodata.cst8	00000008 .Lanon.3ed011473997af99b525cde47c9eaaac.0
00000008 l     O .rodata.cst8	00000008 .Lanon.3ed011473997af99b525cde47c9eaaac.1
00000000 l     O .rodata..Lanon.3ed011473997af99b525cde47c9eaaac.10	00000003 .Lanon.3ed011473997af99b525cde47c9eaaac.10
00000000 l     O .rodata..Lanon.3ed011473997af99b525cde47c9eaaac.11	00000006 .Lanon.3ed011473997af99b525cde47c9eaaac.11
00000000 l     O .rodata..Lanon.3ed011473997af99b525cde47c9eaaac.12	00000001 .Lanon.3ed011473997af99b525cde47c9eaaac.12
00000000 l     O .rodata..Lanon.3ed011473997af99b525cde47c9eaaac.3	00000010 .Lanon.3ed011473997af99b525cde47c9eaaac.3
00000010 l     O .rodata.cst8	00000008 .Lanon.3ed011473997af99b525cde47c9eaaac.4
00000018 l     O .rodata.cst8	00000008 .Lanon.3ed011473997af99b525cde47c9eaaac.5
00000020 l     O .rodata.cst8	00000008 .Lanon.3ed011473997af99b525cde47c9eaaac.6
00000028 l     O .rodata.cst8	00000008 .Lanon.3ed011473997af99b525cde47c9eaaac.7
00000000 l     O .rodata..Lanon.3ed011473997af99b525cde47c9eaaac.8	00000006 .Lanon.3ed011473997af99b525cde47c9eaaac.8
00000000 l     O .rodata..Lanon.3ed011473997af99b525cde47c9eaaac.9	00000007 .Lanon.3ed011473997af99b525cde47c9eaaac.9
00000000 l    d  .text.main	00000000 .text.main
00000000 l    d  .text.rust_begin_unwind	00000000 .text.rust_begin_unwind
00000000 l    d  .rodata..Lanon.3ed011473997af99b525cde47c9eaaac.2	00000000 .rodata..Lanon.3ed011473997af99b525cde47c9eaaac.2
00000000 l    d  .debug_abbrev	00000000 .debug_abbrev
00000000 l    d  .debug_info	00000000 .debug_info
00000000 l    d  .debug_ranges	00000000 .debug_ranges
00000000 l    d  .debug_frame	00000000 .debug_frame
00000000 l    d  .debug_line	00000000 .debug_line
00000000         *UND*	00000000 _ZN22piet_embedded_graphics7display13start_display17h5f89cd4d70728399E
00000000         *UND*	00000000 .hidden _ZN3app10app_sensor21start_sensor_listener17h66bcc19d5c7e224eE
00000000         *UND*	00000000 .hidden _ZN3app12touch_sensor18start_touch_sensor17hf2b3507dead70e2cE
00000000         *UND*	00000000 .hidden _ZN3app5hello6launch17h47592726fdb5c1aeE
00000000         *UND*	00000000 _ZN4core5panic8Location4file17hb5b09c8924a65fc3E
00000000         *UND*	00000000 _ZN4core5panic8Location4line17h367a930005b08c12E
00000000         *UND*	00000000 _ZN4core5panic9PanicInfo7payload17h0ba779b66a5d0935E
00000000         *UND*	00000000 _ZN4core5panic9PanicInfo8location17h080d51c1ed5f8f03E
00000000         *UND*	00000000 _ZN4core6option15Option$LT$T$GT$6unwrap17hc3ea0e65f4370e8aE
00000000         *UND*	00000000 _ZN4core6result19Result$LT$T$C$E$GT$6expect17h557b93805f6bd39bE
00000000         *UND*	00000000 _ZN4core6result19Result$LT$T$C$E$GT$6expect17hf56bd790b7bb02c4E
00000000         *UND*	00000000 _ZN4core9panicking5panic17hfdd0eecc44a682f8E
00000000         *UND*	00000000 _ZN54_$LT$dyn$u20$core..any..Any$u2b$core..marker..Send$GT$12downcast_ref17h2cd40e9b3790b53aE
00000000         *UND*	00000000 _ZN6mynewt3sys7console5flush17h36e149ac70bdbc29E
00000000         *UND*	00000000 _ZN6mynewt3sys7console5print17hcde9599709a168ecE
00000000         *UND*	00000000 _ZN6mynewt3sys7console6buffer17h0cbe395279430d55E
00000000         *UND*	00000000 _ZN6mynewt3sys7console8printint17h3d3ba7480adce0aeE
00000000         *UND*	00000000 _ZN6mynewt6kernel2os10eventq_run17h5b39c2b36d5da8a7E
00000000         *UND*	00000000 _ZN6mynewt6kernel2os15eventq_dflt_get17h801ed39ba6167dc8E
00000000         *UND*	00000000 _ZN6mynewt7sysinit17hd3f4e60754cc91d7E
00000000 g     F .text.main	000000ca main
00000000 g     F .text.rust_begin_unwind	000000f0 rust_begin_unwind
00000000         *UND*	00000000 start_ble



Disassembly of section .text.main:

00000000 <main>:
main():
c:\stm32bluepill-mynewt-sensor/rust\app\src/lib.rs:53
};

///  Main program that initialises the sensor, network driver and starts reading and sending sensor data in the background.
///  main() will be called at Mynewt startup. It replaces the C version of the main() function.
#[no_mangle]                 //  Don't mangle the name "main"
extern "C" fn main() -> ! {  //  Declare extern "C" because it will be called by Mynewt
   0:	b08a      	sub	sp, #40	; 0x28
c:\stm32bluepill-mynewt-sensor/rust\app\src/lib.rs:58
    //  Initialise the Mynewt packages and internal temperature sensor driver. Any startup
    //  functions defined in pkg.yml of our custom drivers and libraries will be called by 
    //  sysinit().  Here are the startup functions consolidated by Mynewt:
    //  bin/targets/nrf52_my_sensor/generated/src/nrf52_my_sensor-sysinit-app.c
    mynewt::sysinit();
   2:	f7ff fffe 	bl	0 <_ZN6mynewt7sysinit17hd3f4e60754cc91d7E>
   6:	e7ff      	b.n	2 <_ZN3app10app_sensor21start_sensor_listener17h66bcc19d5c7e224eE+0x2>
c:\stm32bluepill-mynewt-sensor/rust\app\src/lib.rs:66
    //  sensor_network::start_server_transport()
    //    .expect("NET fail");

    //  Start polling the simulated temperature sensor every 10 seconds in the background.
    //  TODO: Replace by touch handler.
    app_sensor::start_sensor_listener()
   8:	f7ff fffe 	bl	0 <_ZN3app10app_sensor21start_sensor_listener17h66bcc19d5c7e224eE>
   c:	9005      	str	r0, [sp, #20]
   e:	e7ff      	b.n	10 <main+0x10>
  10:	f240 0100 	movw	r1, #0
  14:	f2c0 0100 	movt	r1, #0
  18:	2208      	movs	r2, #8
  1a:	9805      	ldr	r0, [sp, #20]
  1c:	f7ff fffe 	bl	0 <_ZN4core6result19Result$LT$T$C$E$GT$6expect17hf56bd790b7bb02c4E>
  20:	e7ff      	b.n	2 <start_ble+0x2>
c:\stm32bluepill-mynewt-sensor/rust\app\src/lib.rs:71
        .expect("TMP fail");

    //  Start Bluetooth Beacon.  TODO: Create a safe wrapper for starting Bluetooth LE.
    extern { fn start_ble() -> i32; }
    let rc = unsafe { start_ble() };
  22:	f7ff fffe 	bl	0 <start_ble>
  26:	9006      	str	r0, [sp, #24]
  28:	e7ff      	b.n	2a <main+0x2a>
c:\stm32bluepill-mynewt-sensor/rust\app\src/lib.rs:72
    assert!(rc == 0, "BLE fail");
  2a:	9806      	ldr	r0, [sp, #24]
  2c:	2800      	cmp	r0, #0
  2e:	d104      	bne.n	3a <main+0x3a>
  30:	e7ff      	b.n	32 <main+0x32>
c:\stm32bluepill-mynewt-sensor/rust\app\src/lib.rs:75

    //  Start the display
    druid::start_display()
  32:	f7ff fffe 	bl	0 <_ZN22piet_embedded_graphics7display13start_display17h5f89cd4d70728399E>
  36:	9004      	str	r0, [sp, #16]
  38:	e010      	b.n	5c <main+0x5c>
c:\stm32bluepill-mynewt-sensor/rust\app\src/lib.rs:72
    assert!(rc == 0, "BLE fail");
  3a:	f240 0000 	movw	r0, #0
  3e:	f2c0 0000 	movt	r0, #0
  42:	9009      	str	r0, [sp, #36]	; 0x24
  44:	9a09      	ldr	r2, [sp, #36]	; 0x24
  46:	9203      	str	r2, [sp, #12]
  48:	e7ff      	b.n	4a <main+0x4a>
  4a:	f240 0000 	movw	r0, #0
  4e:	f2c0 0000 	movt	r0, #0
  52:	2108      	movs	r1, #8
  54:	9a03      	ldr	r2, [sp, #12]
  56:	f7ff fffe 	bl	0 <_ZN4core9panicking5panic17hfdd0eecc44a682f8E>
  5a:	defe      	udf	#254	; 0xfe
c:\stm32bluepill-mynewt-sensor/rust\app\src/lib.rs:75
    druid::start_display()
  5c:	f240 0100 	movw	r1, #0
  60:	f2c0 0100 	movt	r1, #0
  64:	2208      	movs	r2, #8
  66:	9804      	ldr	r0, [sp, #16]
  68:	f7ff fffe 	bl	0 <_ZN4core6result19Result$LT$T$C$E$GT$6expect17hf56bd790b7bb02c4E>
  6c:	e7ff      	b.n	2 <_ZN3app12touch_sensor18start_touch_sensor17hf2b3507dead70e2cE+0x2>
c:\stm32bluepill-mynewt-sensor/rust\app\src/lib.rs:83
    //  Test the display
    //  druid::test_display()
    //      .expect("DSP test fail");

    //  Start the touch sensor
    touch_sensor::start_touch_sensor()
  6e:	f7ff fffe 	bl	0 <_ZN3app12touch_sensor18start_touch_sensor17hf2b3507dead70e2cE>
  72:	9002      	str	r0, [sp, #8]
  74:	e7ff      	b.n	76 <main+0x76>
  76:	f240 0100 	movw	r1, #0
  7a:	f2c0 0100 	movt	r1, #0
  7e:	2208      	movs	r2, #8
  80:	9802      	ldr	r0, [sp, #8]
  82:	f7ff fffe 	bl	0 <_ZN4core6result19Result$LT$T$C$E$GT$6expect17hf56bd790b7bb02c4E>
  86:	e7ff      	b.n	2 <_ZN3app5hello6launch17h47592726fdb5c1aeE+0x2>
c:\stm32bluepill-mynewt-sensor/rust\app\src/lib.rs:91
    //  Test the touch sensor
    //  touch_sensor::test()
    //      .expect("TCH test fail");

    //  Launch the Druid UI
    hello::launch();
  88:	f7ff fffe 	bl	0 <_ZN3app5hello6launch17h47592726fdb5c1aeE>
  8c:	e7ff      	b.n	8e <main+0x8e>
c:\stm32bluepill-mynewt-sensor/rust\app\src/lib.rs:94

    //  Main event loop
    loop {                            //  Loop forever...
  8e:	e7ff      	b.n	90 <main+0x90>
  90:	a807      	add	r0, sp, #28
c:\stm32bluepill-mynewt-sensor/rust\app\src/lib.rs:96
        os::eventq_run(               //  Processing events...
            os::eventq_dflt_get()     //  From default event queue.
  92:	f7ff fffe 	bl	0 <_ZN6mynewt6kernel2os15eventq_dflt_get17h801ed39ba6167dc8E>
  96:	e7ff      	b.n	22 <main+0x22>
  98:	f240 0100 	movw	r1, #0
  9c:	f2c0 0100 	movt	r1, #0
  a0:	a807      	add	r0, sp, #28
  a2:	2208      	movs	r2, #8
  a4:	f7ff fffe 	bl	0 <_ZN4core6result19Result$LT$T$C$E$GT$6expect17h557b93805f6bd39bE>
  a8:	9001      	str	r0, [sp, #4]
  aa:	e7ff      	b.n	ac <main+0xac>
c:\stm32bluepill-mynewt-sensor/rust\app\src/lib.rs:95
        os::eventq_run(               //  Processing events...
  ac:	9801      	ldr	r0, [sp, #4]
  ae:	f7ff fffe 	bl	0 <_ZN6mynewt6kernel2os10eventq_run17h5b39c2b36d5da8a7E>
  b2:	9000      	str	r0, [sp, #0]
  b4:	e7ff      	b.n	b6 <main+0xb6>
  b6:	f240 0100 	movw	r1, #0
  ba:	f2c0 0100 	movt	r1, #0
  be:	2208      	movs	r2, #8
  c0:	9800      	ldr	r0, [sp, #0]
  c2:	f7ff fffe 	bl	0 <_ZN4core6result19Result$LT$T$C$E$GT$6expect17hf56bd790b7bb02c4E>
  c6:	e7ff      	b.n	c8 <main+0xc8>
c:\stm32bluepill-mynewt-sensor/rust\app\src/lib.rs:94
    loop {                            //  Loop forever...
  c8:	e7e2      	b.n	90 <main+0x90>

Disassembly of section .text.rust_begin_unwind:

00000000 <rust_begin_unwind>:
rust_begin_unwind():
c:\stm32bluepill-mynewt-sensor/rust\app\src/lib.rs:105
    //  Never comes here
}

///  This function is called on panic, like an assertion failure. We display the filename and line number and pause in the debugger. From https://os.phil-opp.com/freestanding-rust-binary/
#[panic_handler]
fn panic(info: &PanicInfo) -> ! {
   0:	b08a      	sub	sp, #40	; 0x28
   2:	9004      	str	r0, [sp, #16]
c:\stm32bluepill-mynewt-sensor/rust\app\src/lib.rs:107
    //  Display the filename and line number to the Semihosting Console.
    console::print("panic ");
   4:	f240 0000 	movw	r0, #0
   8:	f2c0 0000 	movt	r0, #0
   c:	2106      	movs	r1, #6
   e:	f7ff fffe 	bl	0 <_ZN6mynewt3sys7console5print17hcde9599709a168ecE>
  12:	e7ff      	b.n	14 <rust_begin_unwind+0x14>
c:\stm32bluepill-mynewt-sensor/rust\app\src/lib.rs:108
    if let Some(location) = info.location() {
  14:	9804      	ldr	r0, [sp, #16]
  16:	f7ff fffe 	bl	0 <_ZN4core5panic9PanicInfo8location17h080d51c1ed5f8f03E>
  1a:	9005      	str	r0, [sp, #20]
  1c:	e7ff      	b.n	1e <rust_begin_unwind+0x1e>
  1e:	9805      	ldr	r0, [sp, #20]
  20:	2800      	cmp	r0, #0
  22:	d108      	bne.n	36 <rust_begin_unwind+0x36>
  24:	e7ff      	b.n	26 <rust_begin_unwind+0x26>
c:\stm32bluepill-mynewt-sensor/rust\app\src/lib.rs:115
        let line = location.line();
        console::print("at ");       console::buffer(&file);
        console::print(" line ");    console::printint(line as i32);
        console::print("\n");        console::flush();
    } else {
        console::print("no loc\n");  console::flush();
  26:	f240 0000 	movw	r0, #0
  2a:	f2c0 0000 	movt	r0, #0
  2e:	2107      	movs	r1, #7
  30:	f7ff fffe 	bl	0 <_ZN6mynewt3sys7console5print17hcde9599709a168ecE>
  34:	e031      	b.n	9a <rust_begin_unwind+0x9a>
c:\stm32bluepill-mynewt-sensor/rust\app\src/lib.rs:108
    if let Some(location) = info.location() {
  36:	9805      	ldr	r0, [sp, #20]
  38:	9006      	str	r0, [sp, #24]
c:\stm32bluepill-mynewt-sensor/rust\app\src/lib.rs:109
        let file = location.file();
  3a:	9806      	ldr	r0, [sp, #24]
  3c:	f7ff fffe 	bl	0 <_ZN4core5panic8Location4file17hb5b09c8924a65fc3E>
  40:	9108      	str	r1, [sp, #32]
  42:	9007      	str	r0, [sp, #28]
  44:	e7ff      	b.n	46 <rust_begin_unwind+0x46>
c:\stm32bluepill-mynewt-sensor/rust\app\src/lib.rs:110
        let line = location.line();
  46:	9806      	ldr	r0, [sp, #24]
  48:	f7ff fffe 	bl	0 <_ZN4core5panic8Location4line17h367a930005b08c12E>
  4c:	9009      	str	r0, [sp, #36]	; 0x24
  4e:	e7ff      	b.n	50 <rust_begin_unwind+0x50>
c:\stm32bluepill-mynewt-sensor/rust\app\src/lib.rs:111
        console::print("at ");       console::buffer(&file);
  50:	f240 0000 	movw	r0, #0
  54:	f2c0 0000 	movt	r0, #0
  58:	2103      	movs	r1, #3
  5a:	f7ff fffe 	bl	0 <_ZN6mynewt3sys7console5print17hcde9599709a168ecE>
  5e:	e7ff      	b.n	60 <rust_begin_unwind+0x60>
  60:	9807      	ldr	r0, [sp, #28]
  62:	9908      	ldr	r1, [sp, #32]
  64:	f7ff fffe 	bl	0 <_ZN6mynewt3sys7console6buffer17h0cbe395279430d55E>
  68:	e7ff      	b.n	2 <rust_begin_unwind+0x2>
c:\stm32bluepill-mynewt-sensor/rust\app\src/lib.rs:112
        console::print(" line ");    console::printint(line as i32);
  6a:	f240 0000 	movw	r0, #0
  6e:	f2c0 0000 	movt	r0, #0
  72:	2106      	movs	r1, #6
  74:	f7ff fffe 	bl	0 <_ZN6mynewt3sys7console5print17hcde9599709a168ecE>
  78:	e7ff      	b.n	7a <rust_begin_unwind+0x7a>
  7a:	9809      	ldr	r0, [sp, #36]	; 0x24
  7c:	f7ff fffe 	bl	0 <_ZN6mynewt3sys7console8printint17h3d3ba7480adce0aeE>
  80:	e7ff      	b.n	2 <rust_begin_unwind+0x2>
c:\stm32bluepill-mynewt-sensor/rust\app\src/lib.rs:113
        console::print("\n");        console::flush();
  82:	f240 0000 	movw	r0, #0
  86:	f2c0 0000 	movt	r0, #0
  8a:	2101      	movs	r1, #1
  8c:	f7ff fffe 	bl	0 <_ZN6mynewt3sys7console5print17hcde9599709a168ecE>
  90:	e7ff      	b.n	2 <_ZN6mynewt3sys7console5flush17h36e149ac70bdbc29E+0x2>
  92:	f7ff fffe 	bl	0 <_ZN6mynewt3sys7console5flush17h36e149ac70bdbc29E>
  96:	e7ff      	b.n	98 <rust_begin_unwind+0x98>
c:\stm32bluepill-mynewt-sensor/rust\app\src/lib.rs:108
    if let Some(location) = info.location() {
  98:	e003      	b.n	a2 <rust_begin_unwind+0xa2>
c:\stm32bluepill-mynewt-sensor/rust\app\src/lib.rs:115
        console::print("no loc\n");  console::flush();
  9a:	f7ff fffe 	bl	0 <_ZN6mynewt3sys7console5flush17h36e149ac70bdbc29E>
  9e:	e7ff      	b.n	a0 <rust_begin_unwind+0xa0>
c:\stm32bluepill-mynewt-sensor/rust\app\src/lib.rs:108
    if let Some(location) = info.location() {
  a0:	e7ff      	b.n	a2 <rust_begin_unwind+0xa2>
_ZN8cortex_m3asm4bkpt17h618533fd6e1d8d58E():
C:\Users\guppy\.cargo\registry\src\github.com-1ecc6299db9ec823\cortex-m-0.6.1\src/asm.rs:11
/// exception.
#[inline(always)]
pub fn bkpt() {
    match () {
        #[cfg(all(cortex_m, feature = "inline-asm"))]
        () => unsafe { asm!("bkpt" :::: "volatile") },
  a2:	be00      	bkpt	0x0000
rust_begin_unwind():
c:\stm32bluepill-mynewt-sensor/rust\app\src/lib.rs:118
    }
    //  Pause in the debugger.
    bkpt();
  a4:	e7ff      	b.n	a6 <rust_begin_unwind+0xa6>
c:\stm32bluepill-mynewt-sensor/rust\app\src/lib.rs:120
    //  Display the payload.
    console::print(info.payload().downcast_ref::<&str>().unwrap());
  a6:	9804      	ldr	r0, [sp, #16]
  a8:	f7ff fffe 	bl	0 <_ZN4core5panic9PanicInfo7payload17h0ba779b66a5d0935E>
  ac:	9003      	str	r0, [sp, #12]
  ae:	9102      	str	r1, [sp, #8]
  b0:	e7ff      	b.n	b2 <rust_begin_unwind+0xb2>
  b2:	9803      	ldr	r0, [sp, #12]
  b4:	9902      	ldr	r1, [sp, #8]
  b6:	f7ff fffe 	bl	0 <_ZN54_$LT$dyn$u20$core..any..Any$u2b$core..marker..Send$GT$12downcast_ref17h2cd40e9b3790b53aE>
  ba:	9001      	str	r0, [sp, #4]
  bc:	e7ff      	b.n	be <rust_begin_unwind+0xbe>
  be:	9801      	ldr	r0, [sp, #4]
  c0:	f7ff fffe 	bl	0 <_ZN4core6option15Option$LT$T$GT$6unwrap17hc3ea0e65f4370e8aE>
  c4:	9000      	str	r0, [sp, #0]
  c6:	e7ff      	b.n	c8 <rust_begin_unwind+0xc8>
  c8:	9800      	ldr	r0, [sp, #0]
  ca:	6800      	ldr	r0, [r0, #0]
  cc:	9900      	ldr	r1, [sp, #0]
  ce:	6849      	ldr	r1, [r1, #4]
  d0:	f7ff fffe 	bl	0 <_ZN6mynewt3sys7console5print17hcde9599709a168ecE>
  d4:	e7ff      	b.n	2 <rust_begin_unwind+0x2>
c:\stm32bluepill-mynewt-sensor/rust\app\src/lib.rs:121
    console::print("\n");  console::flush();
  d6:	f240 0000 	movw	r0, #0
  da:	f2c0 0000 	movt	r0, #0
  de:	2101      	movs	r1, #1
  e0:	f7ff fffe 	bl	0 <_ZN6mynewt3sys7console5print17hcde9599709a168ecE>
  e4:	e7ff      	b.n	2 <_ZN6mynewt3sys7console5flush17h36e149ac70bdbc29E+0x2>
  e6:	f7ff fffe 	bl	0 <_ZN6mynewt3sys7console5flush17h36e149ac70bdbc29E>
  ea:	e7ff      	b.n	ec <rust_begin_unwind+0xec>
c:\stm32bluepill-mynewt-sensor/rust\app\src/lib.rs:123
    //  Loop forever so that device won't restart.
    loop {}
  ec:	e7ff      	b.n	ee <rust_begin_unwind+0xee>
  ee:	e7fe      	b.n	ee <rust_begin_unwind+0xee>

app-20d859f505b9d0c6.8rqydsc4z3htl2w.rcgu.o:     file format elf32-littlearm

SYMBOL TABLE:
00000000 l    df *ABS*	00000000 8rqydsc4z3htl2w
0000008a l       .debug_str	00000000 
000000fa l       .debug_str	00000000 
00000000 l       .debug_str	00000000 
00000041 l       .debug_str	00000000 
00000055 l       .debug_str	00000000 
00000074 l       .debug_str	00000000 
0000007a l       .debug_str	00000000 
00000081 l       .debug_str	00000000 
000000f6 l       .debug_str	00000000 
000000ee l       .debug_str	00000000 
000000fe l       .debug_str	00000000 
00000000 l    d  .text._ZN66_$LT$druid..window..WindowId$u20$as$u20$core..default..Default$GT$7default17h1e3f141508bd68c7E	00000000 .text._ZN66_$LT$druid..window..WindowId$u20$as$u20$core..default..Default$GT$7default17h1e3f141508bd68c7E
00000000 l    d  .debug_abbrev	00000000 .debug_abbrev
00000000 l    d  .debug_info	00000000 .debug_info
00000000 l    d  .debug_frame	00000000 .debug_frame
00000000 l    d  .debug_line	00000000 .debug_line
00000000         *UND*	00000000 .hidden _ZN46_$LT$u32$u20$as$u20$core..default..Default$GT$7default17hbf28fcb27ef32f7cE
00000000 g     F .text._ZN66_$LT$druid..window..WindowId$u20$as$u20$core..default..Default$GT$7default17h1e3f141508bd68c7E	00000016 .hidden _ZN66_$LT$druid..window..WindowId$u20$as$u20$core..default..Default$GT$7default17h1e3f141508bd68c7E



Disassembly of section .text._ZN66_$LT$druid..window..WindowId$u20$as$u20$core..default..Default$GT$7default17h1e3f141508bd68c7E:

00000000 <_ZN66_$LT$druid..window..WindowId$u20$as$u20$core..default..Default$GT$7default17h1e3f141508bd68c7E>:
_ZN66_$LT$druid..window..WindowId$u20$as$u20$core..default..Default$GT$7default17h1e3f141508bd68c7E():
C:\druid-embedded\druid\src/window.rs:30
    PaintCtx, UpdateCtx, Widget, WidgetPod,
    widget::WidgetBox, WindowBox, WindowType, ////
};

/// A unique identifier for a window.
#[derive(Clone, Copy, Debug, Default, PartialEq, Eq, Hash, PartialOrd, Ord)] ////
   0:	b580      	push	{r7, lr}
   2:	b082      	sub	sp, #8
C:\druid-embedded\druid\src/window.rs:32
////#[derive(Clone, Copy, Debug, PartialEq, Eq, Hash, PartialOrd, Ord)]
pub struct WindowId(pub u32); ////
   4:	f7ff fffe 	bl	0 <_ZN46_$LT$u32$u20$as$u20$core..default..Default$GT$7default17hbf28fcb27ef32f7cE>
   8:	9000      	str	r0, [sp, #0]
   a:	e7ff      	b.n	c <_ZN66_$LT$druid..window..WindowId$u20$as$u20$core..default..Default$GT$7default17h1e3f141508bd68c7E+0xc>
C:\druid-embedded\druid\src/window.rs:30
#[derive(Clone, Copy, Debug, Default, PartialEq, Eq, Hash, PartialOrd, Ord)] ////
   c:	9800      	ldr	r0, [sp, #0]
   e:	9001      	str	r0, [sp, #4]
  10:	9801      	ldr	r0, [sp, #4]
  12:	b002      	add	sp, #8
  14:	bd80      	pop	{r7, pc}

app-20d859f505b9d0c6.al2dp3ouwmb9i6e.rcgu.o:     file format elf32-littlearm

SYMBOL TABLE:
00000000 l    df *ABS*	00000000 al2dp3ouwmb9i6e
0000010e l       .debug_str	00000000 
00000141 l       .debug_str	00000000 
00000000 l       .debug_str	00000000 
00000041 l       .debug_str	00000000 
00000055 l       .debug_str	00000000 
00000074 l       .debug_str	00000000 
00000079 l       .debug_str	00000000 
0000007f l       .debug_str	00000000 
00000085 l       .debug_str	00000000 
0000008e l       .debug_str	00000000 
00000091 l       .debug_str	00000000 
000000a5 l       .debug_str	00000000 
000000a7 l       .debug_str	00000000 
0000013c l       .debug_str	00000000 
00000119 l       .debug_str	00000000 
00000122 l       .debug_str	00000000 
00000125 l       .debug_str	00000000 
0000012f l       .debug_str	00000000 
00000136 l       .debug_str	00000000 
00000146 l       .debug_str	00000000 
00000000 l    d  .text._ZN4core5clone5impls54_$LT$impl$u20$core..clone..Clone$u20$for$u20$$RF$T$GT$5clone17h1e37ad60f71bec3aE	00000000 .text._ZN4core5clone5impls54_$LT$impl$u20$core..clone..Clone$u20$for$u20$$RF$T$GT$5clone17h1e37ad60f71bec3aE
00000000 l    d  .debug_abbrev	00000000 .debug_abbrev
00000000 l    d  .debug_info	00000000 .debug_info
00000000 l    d  .debug_frame	00000000 .debug_frame
00000000 l    d  .debug_line	00000000 .debug_line
00000000 g     F .text._ZN4core5clone5impls54_$LT$impl$u20$core..clone..Clone$u20$for$u20$$RF$T$GT$5clone17h1e37ad60f71bec3aE	00000014 _ZN4core5clone5impls54_$LT$impl$u20$core..clone..Clone$u20$for$u20$$RF$T$GT$5clone17h1e37ad60f71bec3aE



Disassembly of section .text._ZN4core5clone5impls54_$LT$impl$u20$core..clone..Clone$u20$for$u20$$RF$T$GT$5clone17h1e37ad60f71bec3aE:

00000000 <_ZN4core5clone5impls54_$LT$impl$u20$core..clone..Clone$u20$for$u20$$RF$T$GT$5clone17h1e37ad60f71bec3aE>:
_ZN4core5clone5impls54_$LT$impl$u20$core..clone..Clone$u20$for$u20$$RF$T$GT$5clone17h1e37ad60f71bec3aE():
/rustc/412f43ac5b4ae8c3599e71c6972112e9be4758fa/src/libcore/clone.rs:216
   0:	b082      	sub	sp, #8
   2:	9001      	str	r0, [sp, #4]
/rustc/412f43ac5b4ae8c3599e71c6972112e9be4758fa/src/libcore/clone.rs:217
   4:	9801      	ldr	r0, [sp, #4]
   6:	6801      	ldr	r1, [r0, #0]
   8:	6840      	ldr	r0, [r0, #4]
/rustc/412f43ac5b4ae8c3599e71c6972112e9be4758fa/src/libcore/clone.rs:218
   a:	9000      	str	r0, [sp, #0]
   c:	4608      	mov	r0, r1
   e:	9900      	ldr	r1, [sp, #0]
  10:	b002      	add	sp, #8
  12:	4770      	bx	lr

app-20d859f505b9d0c6.ejraglwzx9qsx3x.rcgu.o:     file format elf32-littlearm

SYMBOL TABLE:
00000000 l    df *ABS*	00000000 ejraglwzx9qsx3x
0000024a l       .debug_str	00000000 
000013a6 l       .debug_str	00000000 
000013c9 l       .debug_str	00000000 
000013a0 l       .debug_str	00000000 
000013c5 l       .debug_str	00000000 
0000139a l       .debug_str	00000000 
000013bb l       .debug_str	00000000 
00001396 l       .debug_str	00000000 
00000000 l       .debug_str	00000000 
00000041 l       .debug_str	00000000 
00000055 l       .debug_str	00000000 
00000074 l       .debug_str	00000000 
0000007a l       .debug_str	00000000 
00000081 l       .debug_str	00000000 
00000086 l       .debug_str	00000000 
00000089 l       .debug_str	00000000 
00000094 l       .debug_str	00000000 
0000009d l       .debug_str	00000000 
000000a2 l       .debug_str	00000000 
000000a7 l       .debug_str	00000000 
000000ae l       .debug_str	00000000 
000000b3 l       .debug_str	00000000 
000000b8 l       .debug_str	00000000 
000000bf l       .debug_str	00000000 
000000c5 l       .debug_str	00000000 
000000ce l       .debug_str	00000000 
000000d2 l       .debug_str	00000000 
000000df l       .debug_str	00000000 
000000e2 l       .debug_str	00000000 
000000e6 l       .debug_str	00000000 
000000f0 l       .debug_str	00000000 
000000f9 l       .debug_str	00000000 
00000102 l       .debug_str	00000000 
00000106 l       .debug_str	00000000 
0000010a l       .debug_str	00000000 
0000010c l       .debug_str	00000000 
00000113 l       .debug_str	00000000 
00000117 l       .debug_str	00000000 
00000124 l       .debug_str	00000000 
0000012b l       .debug_str	00000000 
0000012e l       .debug_str	00000000 
00000134 l       .debug_str	00000000 
00000142 l       .debug_str	00000000 
00000150 l       .debug_str	00000000 
00000155 l       .debug_str	00000000 
0000015d l       .debug_str	00000000 
00000165 l       .debug_str	00000000 
0000016b l       .debug_str	00000000 
00000177 l       .debug_str	00000000 
0000017d l       .debug_str	00000000 
00000182 l       .debug_str	00000000 
00000185 l       .debug_str	00000000 
00000189 l       .debug_str	00000000 
0000018c l       .debug_str	00000000 
0000018f l       .debug_str	00000000 
00000192 l       .debug_str	00000000 
00000197 l       .debug_str	00000000 
000001a3 l       .debug_str	00000000 
000001a8 l       .debug_str	00000000 
000001af l       .debug_str	00000000 
000001b9 l       .debug_str	00000000 
000001c4 l       .debug_str	00000000 
000001d1 l       .debug_str	00000000 
000001df l       .debug_str	00000000 
000001e9 l       .debug_str	00000000 
000001f7 l       .debug_str	00000000 
00000201 l       .debug_str	00000000 
0000020a l       .debug_str	00000000 
0000020c l       .debug_str	00000000 
00000218 l       .debug_str	00000000 
0000021c l       .debug_str	00000000 
00000222 l       .debug_str	00000000 
0000022c l       .debug_str	00000000 
00000230 l       .debug_str	00000000 
00000237 l       .debug_str	00000000 
00000248 l       .debug_str	00000000 
00001391 l       .debug_str	00000000 
00000259 l       .debug_str	00000000 
0000025b l       .debug_str	00000000 
00000294 l       .debug_str	00000000 
0000029b l       .debug_str	00000000 
000002a2 l       .debug_str	00000000 
000002b3 l       .debug_str	00000000 
000002b5 l       .debug_str	00000000 
000002f4 l       .debug_str	00000000 
000002fc l       .debug_str	00000000 
0000032f l       .debug_str	00000000 
000003ba l       .debug_str	00000000 
00000491 l       .debug_str	00000000 
000005b4 l       .debug_str	00000000 
000005bc l       .debug_str	00000000 
000005c1 l       .debug_str	00000000 
000005c7 l       .debug_str	00000000 
000005cb l       .debug_str	00000000 
000005ce l       .debug_str	00000000 
000005f7 l       .debug_str	00000000 
0000062d l       .debug_str	00000000 
0000062f l       .debug_str	00000000 
0000065c l       .debug_str	00000000 
0000065f l       .debug_str	00000000 
000006af l       .debug_str	00000000 
0000070c l       .debug_str	00000000 
00000760 l       .debug_str	00000000 
000007d7 l       .debug_str	00000000 
0000085b l       .debug_str	00000000 
000008d6 l       .debug_str	00000000 
00000974 l       .debug_str	00000000 
00000a1f l       .debug_str	00000000 
00000ac1 l       .debug_str	00000000 
00000ba7 l       .debug_str	00000000 
00000caa l       .debug_str	00000000 
00000dac l       .debug_str	00000000 
00000db0 l       .debug_str	00000000 
00000db6 l       .debug_str	00000000 
00000db8 l       .debug_str	00000000 
00000eb2 l       .debug_str	00000000 
00000eb4 l       .debug_str	00000000 
00000f91 l       .debug_str	00000000 
00000f9b l       .debug_str	00000000 
00000fc2 l       .debug_str	00000000 
00000fc7 l       .debug_str	00000000 
00000fcb l       .debug_str	00000000 
00000fd1 l       .debug_str	00000000 
00000fd8 l       .debug_str	00000000 
00000fdd l       .debug_str	00000000 
00000ff7 l       .debug_str	00000000 
00000ffe l       .debug_str	00000000 
00001007 l       .debug_str	00000000 
00001014 l       .debug_str	00000000 
00001044 l       .debug_str	00000000 
000010d0 l       .debug_str	00000000 
00001117 l       .debug_str	00000000 
00001120 l       .debug_str	00000000 
00001163 l       .debug_str	00000000 
0000116a l       .debug_str	00000000 
000011ad l       .debug_str	00000000 
0000122b l       .debug_str	00000000 
000012bb l       .debug_str	00000000 
0000130a l       .debug_str	00000000 
000013aa l       .debug_str	00000000 
00000000 l    d  .text._ZN103_$LT$core..ops..range..RangeFrom$LT$usize$GT$$u20$as$u20$core..slice..SliceIndex$LT$$u5b$T$u5d$$GT$$GT$9index_mut17h1688c2271ef0612fE	00000000 .text._ZN103_$LT$core..ops..range..RangeFrom$LT$usize$GT$$u20$as$u20$core..slice..SliceIndex$LT$$u5b$T$u5d$$GT$$GT$9index_mut17h1688c2271ef0612fE
00000000 l    d  .text._ZN90_$LT$core..ops..range..RangeFull$u20$as$u20$core..slice..SliceIndex$LT$$u5b$T$u5d$$GT$$GT$9index_mut17h6d90ce6def0c309aE	00000000 .text._ZN90_$LT$core..ops..range..RangeFull$u20$as$u20$core..slice..SliceIndex$LT$$u5b$T$u5d$$GT$$GT$9index_mut17h6d90ce6def0c309aE
00000000 l    d  .text._ZN99_$LT$core..ops..range..Range$LT$usize$GT$$u20$as$u20$core..slice..SliceIndex$LT$$u5b$T$u5d$$GT$$GT$17get_unchecked_mut17h097b50c82e478a76E	00000000 .text._ZN99_$LT$core..ops..range..Range$LT$usize$GT$$u20$as$u20$core..slice..SliceIndex$LT$$u5b$T$u5d$$GT$$GT$17get_unchecked_mut17h097b50c82e478a76E
00000000 l    d  .text._ZN99_$LT$core..ops..range..Range$LT$usize$GT$$u20$as$u20$core..slice..SliceIndex$LT$$u5b$T$u5d$$GT$$GT$9index_mut17h5eb820cc27bc7ac4E	00000000 .text._ZN99_$LT$core..ops..range..Range$LT$usize$GT$$u20$as$u20$core..slice..SliceIndex$LT$$u5b$T$u5d$$GT$$GT$9index_mut17h5eb820cc27bc7ac4E
00000000 l    d  .debug_abbrev	00000000 .debug_abbrev
00000000 l    d  .debug_info	00000000 .debug_info
00000000 l    d  .debug_ranges	00000000 .debug_ranges
00000000 l    d  .debug_frame	00000000 .debug_frame
00000000 l    d  .debug_line	00000000 .debug_line
00000000 g     F .text._ZN103_$LT$core..ops..range..RangeFrom$LT$usize$GT$$u20$as$u20$core..slice..SliceIndex$LT$$u5b$T$u5d$$GT$$GT$9index_mut17h1688c2271ef0612fE	00000040 _ZN103_$LT$core..ops..range..RangeFrom$LT$usize$GT$$u20$as$u20$core..slice..SliceIndex$LT$$u5b$T$u5d$$GT$$GT$9index_mut17h1688c2271ef0612fE
00000000         *UND*	00000000 _ZN4core3ptr31_$LT$impl$u20$$BP$mut$u20$T$GT$3add17hbb03a50b722c5582E
00000000         *UND*	00000000 _ZN4core5slice18from_raw_parts_mut17h66990f4ddfd606a3E
00000000         *UND*	00000000 _ZN4core5slice20slice_index_len_fail17h7ac73a11c3a53e02E
00000000         *UND*	00000000 _ZN4core5slice22slice_index_order_fail17hca0f713f2dfc7080E
00000000         *UND*	00000000 _ZN4core5slice29_$LT$impl$u20$$u5b$T$u5d$$GT$10as_mut_ptr17h3da301929880590aE
00000000         *UND*	00000000 _ZN4core5slice29_$LT$impl$u20$$u5b$T$u5d$$GT$3len17h934eb670dc520e39E
00000000 g     F .text._ZN90_$LT$core..ops..range..RangeFull$u20$as$u20$core..slice..SliceIndex$LT$$u5b$T$u5d$$GT$$GT$9index_mut17h6d90ce6def0c309aE	0000000e _ZN90_$LT$core..ops..range..RangeFull$u20$as$u20$core..slice..SliceIndex$LT$$u5b$T$u5d$$GT$$GT$9index_mut17h6d90ce6def0c309aE
00000000 g     F .text._ZN99_$LT$core..ops..range..Range$LT$usize$GT$$u20$as$u20$core..slice..SliceIndex$LT$$u5b$T$u5d$$GT$$GT$17get_unchecked_mut17h097b50c82e478a76E	0000003e _ZN99_$LT$core..ops..range..Range$LT$usize$GT$$u20$as$u20$core..slice..SliceIndex$LT$$u5b$T$u5d$$GT$$GT$17get_unchecked_mut17h097b50c82e478a76E
00000000 g     F .text._ZN99_$LT$core..ops..range..Range$LT$usize$GT$$u20$as$u20$core..slice..SliceIndex$LT$$u5b$T$u5d$$GT$$GT$9index_mut17h5eb820cc27bc7ac4E	00000076 _ZN99_$LT$core..ops..range..Range$LT$usize$GT$$u20$as$u20$core..slice..SliceIndex$LT$$u5b$T$u5d$$GT$$GT$9index_mut17h5eb820cc27bc7ac4E



Disassembly of section .text._ZN103_$LT$core..ops..range..RangeFrom$LT$usize$GT$$u20$as$u20$core..slice..SliceIndex$LT$$u5b$T$u5d$$GT$$GT$9index_mut17h1688c2271ef0612fE:

00000000 <_ZN103_$LT$core..ops..range..RangeFrom$LT$usize$GT$$u20$as$u20$core..slice..SliceIndex$LT$$u5b$T$u5d$$GT$$GT$9index_mut17h1688c2271ef0612fE>:
_ZN103_$LT$core..ops..range..RangeFrom$LT$usize$GT$$u20$as$u20$core..slice..SliceIndex$LT$$u5b$T$u5d$$GT$$GT$9index_mut17h1688c2271ef0612fE():
/rustc/412f43ac5b4ae8c3599e71c6972112e9be4758fa/src/libcore/slice/mod.rs:2933
   0:	b580      	push	{r7, lr}
   2:	b08a      	sub	sp, #40	; 0x28
   4:	9005      	str	r0, [sp, #20]
   6:	9106      	str	r1, [sp, #24]
   8:	9207      	str	r2, [sp, #28]
/rustc/412f43ac5b4ae8c3599e71c6972112e9be4758fa/src/libcore/slice/mod.rs:2934
   a:	9805      	ldr	r0, [sp, #20]
   c:	9906      	ldr	r1, [sp, #24]
   e:	9a07      	ldr	r2, [sp, #28]
  10:	9004      	str	r0, [sp, #16]
  12:	4608      	mov	r0, r1
  14:	4611      	mov	r1, r2
  16:	f7ff fffe 	bl	0 <_ZN4core5slice29_$LT$impl$u20$$u5b$T$u5d$$GT$3len17h934eb670dc520e39E>
  1a:	9003      	str	r0, [sp, #12]
  1c:	e7ff      	b.n	1e <_ZN103_$LT$core..ops..range..RangeFrom$LT$usize$GT$$u20$as$u20$core..slice..SliceIndex$LT$$u5b$T$u5d$$GT$$GT$9index_mut17h1688c2271ef0612fE+0x1e>
  1e:	9804      	ldr	r0, [sp, #16]
  20:	9008      	str	r0, [sp, #32]
  22:	9903      	ldr	r1, [sp, #12]
  24:	9109      	str	r1, [sp, #36]	; 0x24
  26:	9a06      	ldr	r2, [sp, #24]
  28:	9b07      	ldr	r3, [sp, #28]
  2a:	9808      	ldr	r0, [sp, #32]
  2c:	9909      	ldr	r1, [sp, #36]	; 0x24
  2e:	f7ff fffe 	bl	0 <_ZN103_$LT$core..ops..range..RangeFrom$LT$usize$GT$$u20$as$u20$core..slice..SliceIndex$LT$$u5b$T$u5d$$GT$$GT$9index_mut17h1688c2271ef0612fE>
  32:	9002      	str	r0, [sp, #8]
  34:	9101      	str	r1, [sp, #4]
  36:	e7ff      	b.n	38 <_ZN103_$LT$core..ops..range..RangeFrom$LT$usize$GT$$u20$as$u20$core..slice..SliceIndex$LT$$u5b$T$u5d$$GT$$GT$9index_mut17h1688c2271ef0612fE+0x38>
/rustc/412f43ac5b4ae8c3599e71c6972112e9be4758fa/src/libcore/slice/mod.rs:2935
  38:	9802      	ldr	r0, [sp, #8]
  3a:	9901      	ldr	r1, [sp, #4]
  3c:	b00a      	add	sp, #40	; 0x28
  3e:	bd80      	pop	{r7, pc}

Disassembly of section .text._ZN90_$LT$core..ops..range..RangeFull$u20$as$u20$core..slice..SliceIndex$LT$$u5b$T$u5d$$GT$$GT$9index_mut17h6d90ce6def0c309aE:

00000000 <_ZN90_$LT$core..ops..range..RangeFull$u20$as$u20$core..slice..SliceIndex$LT$$u5b$T$u5d$$GT$$GT$9index_mut17h6d90ce6def0c309aE>:
_ZN90_$LT$core..ops..range..RangeFull$u20$as$u20$core..slice..SliceIndex$LT$$u5b$T$u5d$$GT$$GT$9index_mut17h6d90ce6def0c309aE():
/rustc/412f43ac5b4ae8c3599e71c6972112e9be4758fa/src/libcore/slice/mod.rs:2968
   0:	b083      	sub	sp, #12
   2:	9001      	str	r0, [sp, #4]
   4:	9102      	str	r1, [sp, #8]
/rustc/412f43ac5b4ae8c3599e71c6972112e9be4758fa/src/libcore/slice/mod.rs:2969
   6:	9801      	ldr	r0, [sp, #4]
   8:	9902      	ldr	r1, [sp, #8]
/rustc/412f43ac5b4ae8c3599e71c6972112e9be4758fa/src/libcore/slice/mod.rs:2970
   a:	b003      	add	sp, #12
   c:	4770      	bx	lr

Disassembly of section .text._ZN99_$LT$core..ops..range..Range$LT$usize$GT$$u20$as$u20$core..slice..SliceIndex$LT$$u5b$T$u5d$$GT$$GT$17get_unchecked_mut17h097b50c82e478a76E:

00000000 <_ZN99_$LT$core..ops..range..Range$LT$usize$GT$$u20$as$u20$core..slice..SliceIndex$LT$$u5b$T$u5d$$GT$$GT$17get_unchecked_mut17h097b50c82e478a76E>:
_ZN99_$LT$core..ops..range..Range$LT$usize$GT$$u20$as$u20$core..slice..SliceIndex$LT$$u5b$T$u5d$$GT$$GT$17get_unchecked_mut17h097b50c82e478a76E():
/rustc/412f43ac5b4ae8c3599e71c6972112e9be4758fa/src/libcore/slice/mod.rs:2839
   0:	b580      	push	{r7, lr}
   2:	b088      	sub	sp, #32
   4:	9004      	str	r0, [sp, #16]
   6:	9105      	str	r1, [sp, #20]
   8:	9206      	str	r2, [sp, #24]
   a:	9307      	str	r3, [sp, #28]
/rustc/412f43ac5b4ae8c3599e71c6972112e9be4758fa/src/libcore/slice/mod.rs:2840
   c:	9806      	ldr	r0, [sp, #24]
   e:	9907      	ldr	r1, [sp, #28]
  10:	f7ff fffe 	bl	0 <_ZN4core5slice29_$LT$impl$u20$$u5b$T$u5d$$GT$10as_mut_ptr17h3da301929880590aE>
  14:	9003      	str	r0, [sp, #12]
  16:	e7ff      	b.n	18 <_ZN99_$LT$core..ops..range..Range$LT$usize$GT$$u20$as$u20$core..slice..SliceIndex$LT$$u5b$T$u5d$$GT$$GT$17get_unchecked_mut17h097b50c82e478a76E+0x18>
  18:	9904      	ldr	r1, [sp, #16]
  1a:	9803      	ldr	r0, [sp, #12]
  1c:	f7ff fffe 	bl	0 <_ZN4core3ptr31_$LT$impl$u20$$BP$mut$u20$T$GT$3add17hbb03a50b722c5582E>
  20:	9002      	str	r0, [sp, #8]
  22:	e7ff      	b.n	24 <_ZN99_$LT$core..ops..range..Range$LT$usize$GT$$u20$as$u20$core..slice..SliceIndex$LT$$u5b$T$u5d$$GT$$GT$17get_unchecked_mut17h097b50c82e478a76E+0x24>
  24:	9804      	ldr	r0, [sp, #16]
  26:	9905      	ldr	r1, [sp, #20]
  28:	1a09      	subs	r1, r1, r0
  2a:	9802      	ldr	r0, [sp, #8]
  2c:	f7ff fffe 	bl	0 <_ZN4core5slice18from_raw_parts_mut17h66990f4ddfd606a3E>
  30:	9001      	str	r0, [sp, #4]
  32:	9100      	str	r1, [sp, #0]
  34:	e7ff      	b.n	36 <_ZN99_$LT$core..ops..range..Range$LT$usize$GT$$u20$as$u20$core..slice..SliceIndex$LT$$u5b$T$u5d$$GT$$GT$17get_unchecked_mut17h097b50c82e478a76E+0x36>
/rustc/412f43ac5b4ae8c3599e71c6972112e9be4758fa/src/libcore/slice/mod.rs:2841
  36:	9801      	ldr	r0, [sp, #4]
  38:	9900      	ldr	r1, [sp, #0]
  3a:	b008      	add	sp, #32
  3c:	bd80      	pop	{r7, pc}

Disassembly of section .text._ZN99_$LT$core..ops..range..Range$LT$usize$GT$$u20$as$u20$core..slice..SliceIndex$LT$$u5b$T$u5d$$GT$$GT$9index_mut17h5eb820cc27bc7ac4E:

00000000 <_ZN99_$LT$core..ops..range..Range$LT$usize$GT$$u20$as$u20$core..slice..SliceIndex$LT$$u5b$T$u5d$$GT$$GT$9index_mut17h5eb820cc27bc7ac4E>:
_ZN99_$LT$core..ops..range..Range$LT$usize$GT$$u20$as$u20$core..slice..SliceIndex$LT$$u5b$T$u5d$$GT$$GT$9index_mut17h5eb820cc27bc7ac4E():
/rustc/412f43ac5b4ae8c3599e71c6972112e9be4758fa/src/libcore/slice/mod.rs:2856
   0:	b580      	push	{r7, lr}
   2:	b08a      	sub	sp, #40	; 0x28
   4:	9006      	str	r0, [sp, #24]
   6:	9107      	str	r1, [sp, #28]
   8:	9208      	str	r2, [sp, #32]
   a:	9309      	str	r3, [sp, #36]	; 0x24
/rustc/412f43ac5b4ae8c3599e71c6972112e9be4758fa/src/libcore/slice/mod.rs:2857
   c:	9806      	ldr	r0, [sp, #24]
   e:	9907      	ldr	r1, [sp, #28]
  10:	4288      	cmp	r0, r1
  12:	d80a      	bhi.n	2a <_ZN99_$LT$core..ops..range..Range$LT$usize$GT$$u20$as$u20$core..slice..SliceIndex$LT$$u5b$T$u5d$$GT$$GT$9index_mut17h5eb820cc27bc7ac4E+0x2a>
  14:	e7ff      	b.n	16 <_ZN99_$LT$core..ops..range..Range$LT$usize$GT$$u20$as$u20$core..slice..SliceIndex$LT$$u5b$T$u5d$$GT$$GT$9index_mut17h5eb820cc27bc7ac4E+0x16>
/rustc/412f43ac5b4ae8c3599e71c6972112e9be4758fa/src/libcore/slice/mod.rs:2859
  16:	9807      	ldr	r0, [sp, #28]
  18:	9908      	ldr	r1, [sp, #32]
  1a:	9a09      	ldr	r2, [sp, #36]	; 0x24
  1c:	9005      	str	r0, [sp, #20]
  1e:	4608      	mov	r0, r1
  20:	4611      	mov	r1, r2
  22:	f7ff fffe 	bl	0 <_ZN4core5slice29_$LT$impl$u20$$u5b$T$u5d$$GT$3len17h934eb670dc520e39E>
  26:	9004      	str	r0, [sp, #16]
  28:	e004      	b.n	34 <_ZN99_$LT$core..ops..range..Range$LT$usize$GT$$u20$as$u20$core..slice..SliceIndex$LT$$u5b$T$u5d$$GT$$GT$9index_mut17h5eb820cc27bc7ac4E+0x34>
/rustc/412f43ac5b4ae8c3599e71c6972112e9be4758fa/src/libcore/slice/mod.rs:2858
  2a:	9806      	ldr	r0, [sp, #24]
  2c:	9907      	ldr	r1, [sp, #28]
  2e:	f7ff fffe 	bl	0 <_ZN4core5slice22slice_index_order_fail17hca0f713f2dfc7080E>
  32:	defe      	udf	#254	; 0xfe
/rustc/412f43ac5b4ae8c3599e71c6972112e9be4758fa/src/libcore/slice/mod.rs:2859
  34:	9805      	ldr	r0, [sp, #20]
  36:	9904      	ldr	r1, [sp, #16]
  38:	4288      	cmp	r0, r1
  3a:	d809      	bhi.n	50 <_ZN99_$LT$core..ops..range..Range$LT$usize$GT$$u20$as$u20$core..slice..SliceIndex$LT$$u5b$T$u5d$$GT$$GT$9index_mut17h5eb820cc27bc7ac4E+0x50>
  3c:	e7ff      	b.n	3e <_ZN99_$LT$core..ops..range..Range$LT$usize$GT$$u20$as$u20$core..slice..SliceIndex$LT$$u5b$T$u5d$$GT$$GT$9index_mut17h5eb820cc27bc7ac4E+0x3e>
/rustc/412f43ac5b4ae8c3599e71c6972112e9be4758fa/src/libcore/slice/mod.rs:2863
  3e:	9806      	ldr	r0, [sp, #24]
  40:	9907      	ldr	r1, [sp, #28]
  42:	9a08      	ldr	r2, [sp, #32]
  44:	9b09      	ldr	r3, [sp, #36]	; 0x24
  46:	f7ff fffe 	bl	0 <_ZN99_$LT$core..ops..range..Range$LT$usize$GT$$u20$as$u20$core..slice..SliceIndex$LT$$u5b$T$u5d$$GT$$GT$9index_mut17h5eb820cc27bc7ac4E>
  4a:	9003      	str	r0, [sp, #12]
  4c:	9102      	str	r1, [sp, #8]
  4e:	e00e      	b.n	6e <_ZN99_$LT$core..ops..range..Range$LT$usize$GT$$u20$as$u20$core..slice..SliceIndex$LT$$u5b$T$u5d$$GT$$GT$9index_mut17h5eb820cc27bc7ac4E+0x6e>
/rustc/412f43ac5b4ae8c3599e71c6972112e9be4758fa/src/libcore/slice/mod.rs:2860
  50:	9807      	ldr	r0, [sp, #28]
  52:	9908      	ldr	r1, [sp, #32]
  54:	9a09      	ldr	r2, [sp, #36]	; 0x24
  56:	9001      	str	r0, [sp, #4]
  58:	4608      	mov	r0, r1
  5a:	4611      	mov	r1, r2
  5c:	f7ff fffe 	bl	0 <_ZN4core5slice29_$LT$impl$u20$$u5b$T$u5d$$GT$3len17h934eb670dc520e39E>
  60:	9000      	str	r0, [sp, #0]
  62:	e7ff      	b.n	64 <_ZN99_$LT$core..ops..range..Range$LT$usize$GT$$u20$as$u20$core..slice..SliceIndex$LT$$u5b$T$u5d$$GT$$GT$9index_mut17h5eb820cc27bc7ac4E+0x64>
  64:	9801      	ldr	r0, [sp, #4]
  66:	9900      	ldr	r1, [sp, #0]
  68:	f7ff fffe 	bl	0 <_ZN4core5slice20slice_index_len_fail17h7ac73a11c3a53e02E>
  6c:	defe      	udf	#254	; 0xfe
/rustc/412f43ac5b4ae8c3599e71c6972112e9be4758fa/src/libcore/slice/mod.rs:2865
  6e:	9803      	ldr	r0, [sp, #12]
  70:	9902      	ldr	r1, [sp, #8]
  72:	b00a      	add	sp, #40	; 0x28
  74:	bd80      	pop	{r7, pc}

app-20d859f505b9d0c6.gxb0z20mefxkovh.rcgu.o:     file format elf32-littlearm

SYMBOL TABLE:
00000000 l    df *ABS*	00000000 gxb0z20mefxkovh
000000ea l       .debug_str	00000000 
0000011b l       .debug_str	00000000 
00000000 l       .debug_str	00000000 
00000041 l       .debug_str	00000000 
00000055 l       .debug_str	00000000 
00000074 l       .debug_str	00000000 
00000079 l       .debug_str	00000000 
0000007d l       .debug_str	00000000 
00000086 l       .debug_str	00000000 
000000dd l       .debug_str	00000000 
000000e0 l       .debug_str	00000000 
000000e5 l       .debug_str	00000000 
00000110 l       .debug_str	00000000 
000000ec l       .debug_str	00000000 
000000f0 l       .debug_str	00000000 
000000f7 l       .debug_str	00000000 
0000010a l       .debug_str	00000000 
00000120 l       .debug_str	00000000 
00000000 l    d  .text._ZN58_$LT$core..any..TypeId$u20$as$u20$core..cmp..PartialEq$GT$2eq17haabda23117aebb75E	00000000 .text._ZN58_$LT$core..any..TypeId$u20$as$u20$core..cmp..PartialEq$GT$2eq17haabda23117aebb75E
00000000 l    d  .debug_abbrev	00000000 .debug_abbrev
00000000 l    d  .debug_info	00000000 .debug_info
00000000 l    d  .debug_frame	00000000 .debug_frame
00000000 l    d  .debug_line	00000000 .debug_line
00000000 g     F .text._ZN58_$LT$core..any..TypeId$u20$as$u20$core..cmp..PartialEq$GT$2eq17haabda23117aebb75E	0000002a .hidden _ZN58_$LT$core..any..TypeId$u20$as$u20$core..cmp..PartialEq$GT$2eq17haabda23117aebb75E



Disassembly of section .text._ZN58_$LT$core..any..TypeId$u20$as$u20$core..cmp..PartialEq$GT$2eq17haabda23117aebb75E:

00000000 <_ZN58_$LT$core..any..TypeId$u20$as$u20$core..cmp..PartialEq$GT$2eq17haabda23117aebb75E>:
_ZN58_$LT$core..any..TypeId$u20$as$u20$core..cmp..PartialEq$GT$2eq17haabda23117aebb75E():
/rustc/412f43ac5b4ae8c3599e71c6972112e9be4758fa/src/libcore/any.rs:403
   0:	b084      	sub	sp, #16
   2:	9000      	str	r0, [sp, #0]
   4:	9101      	str	r1, [sp, #4]
/rustc/412f43ac5b4ae8c3599e71c6972112e9be4758fa/src/libcore/any.rs:406
   6:	9801      	ldr	r0, [sp, #4]
   8:	9002      	str	r0, [sp, #8]
   a:	9800      	ldr	r0, [sp, #0]
   c:	9003      	str	r0, [sp, #12]
   e:	9803      	ldr	r0, [sp, #12]
  10:	6801      	ldr	r1, [r0, #0]
  12:	6840      	ldr	r0, [r0, #4]
  14:	9a02      	ldr	r2, [sp, #8]
  16:	6813      	ldr	r3, [r2, #0]
  18:	6852      	ldr	r2, [r2, #4]
  1a:	4050      	eors	r0, r2
  1c:	4059      	eors	r1, r3
  1e:	4308      	orrs	r0, r1
  20:	fab0 f080 	clz	r0, r0
  24:	0940      	lsrs	r0, r0, #5
/rustc/412f43ac5b4ae8c3599e71c6972112e9be4758fa/src/libcore/any.rs:403
  26:	b004      	add	sp, #16
  28:	4770      	bx	lr

app-20d859f505b9d0c6.h5sa2b63nb2rpd9.rcgu.o:     file format elf32-littlearm

SYMBOL TABLE:
00000000 l    df *ABS*	00000000 h5sa2b63nb2rpd9
0000073c l       .debug_str	00000000 
000016b3 l       .debug_str	00000000 
00001707 l       .debug_str	00000000 
0000168f l       .debug_str	00000000 
00001678 l       .debug_str	00000000 
000016fd l       .debug_str	00000000 
00001674 l       .debug_str	00000000 
000016e4 l       .debug_str	00000000 
00001657 l       .debug_str	00000000 
000016dd l       .debug_str	00000000 
0000164c l       .debug_str	00000000 
000016d4 l       .debug_str	00000000 
000015ee l       .debug_str	00000000 
00000000 l       .debug_str	00000000 
00000041 l       .debug_str	00000000 
00000055 l       .debug_str	00000000 
00000074 l       .debug_str	00000000 
00000079 l       .debug_str	00000000 
00000080 l       .debug_str	00000000 
00000083 l       .debug_str	00000000 
00000088 l       .debug_str	00000000 
0000008d l       .debug_str	00000000 
00000094 l       .debug_str	00000000 
0000009a l       .debug_str	00000000 
000000a1 l       .debug_str	00000000 
000000a6 l       .debug_str	00000000 
000000b1 l       .debug_str	00000000 
000000ba l       .debug_str	00000000 
000000bf l       .debug_str	00000000 
000000c6 l       .debug_str	00000000 
000000c9 l       .debug_str	00000000 
000000cd l       .debug_str	00000000 
000000d4 l       .debug_str	00000000 
000000d8 l       .debug_str	00000000 
000000db l       .debug_str	00000000 
000000de l       .debug_str	00000000 
000000e3 l       .debug_str	00000000 
000000e9 l       .debug_str	00000000 
000000f0 l       .debug_str	00000000 
000000f8 l       .debug_str	00000000 
00000102 l       .debug_str	00000000 
00000106 l       .debug_str	00000000 
0000010f l       .debug_str	00000000 
00000112 l       .debug_str	00000000 
00000116 l       .debug_str	00000000 
00000120 l       .debug_str	00000000 
00000129 l       .debug_str	00000000 
00000132 l       .debug_str	00000000 
00000136 l       .debug_str	00000000 
0000013a l       .debug_str	00000000 
0000013c l       .debug_str	00000000 
00000143 l       .debug_str	00000000 
00000147 l       .debug_str	00000000 
00000154 l       .debug_str	00000000 
0000015b l       .debug_str	00000000 
0000015e l       .debug_str	00000000 
00000164 l       .debug_str	00000000 
00000172 l       .debug_str	00000000 
00000180 l       .debug_str	00000000 
00000185 l       .debug_str	00000000 
0000018d l       .debug_str	00000000 
00000195 l       .debug_str	00000000 
0000019b l       .debug_str	00000000 
000001a7 l       .debug_str	00000000 
000001ad l       .debug_str	00000000 
000001b2 l       .debug_str	00000000 
000001b5 l       .debug_str	00000000 
000001b9 l       .debug_str	00000000 
000001bc l       .debug_str	00000000 
000001bf l       .debug_str	00000000 
000001c2 l       .debug_str	00000000 
000001c7 l       .debug_str	00000000 
000001d3 l       .debug_str	00000000 
000001d8 l       .debug_str	00000000 
000001df l       .debug_str	00000000 
000001e9 l       .debug_str	00000000 
000001f4 l       .debug_str	00000000 
00000201 l       .debug_str	00000000 
0000020f l       .debug_str	00000000 
00000219 l       .debug_str	00000000 
00000227 l       .debug_str	00000000 
00000231 l       .debug_str	00000000 
0000023a l       .debug_str	00000000 
0000023c l       .debug_str	00000000 
00000248 l       .debug_str	00000000 
0000024c l       .debug_str	00000000 
00000252 l       .debug_str	00000000 
0000025c l       .debug_str	00000000 
00000260 l       .debug_str	00000000 
00000267 l       .debug_str	00000000 
00000278 l       .debug_str	00000000 
0000027a l       .debug_str	00000000 
00000289 l       .debug_str	00000000 
0000028b l       .debug_str	00000000 
000002c4 l       .debug_str	00000000 
000002cb l       .debug_str	00000000 
000002d2 l       .debug_str	00000000 
000002e3 l       .debug_str	00000000 
000002e5 l       .debug_str	00000000 
00000324 l       .debug_str	00000000 
0000032c l       .debug_str	00000000 
0000035f l       .debug_str	00000000 
000003ea l       .debug_str	00000000 
000004c1 l       .debug_str	00000000 
000005e4 l       .debug_str	00000000 
000005ec l       .debug_str	00000000 
000005f1 l       .debug_str	00000000 
000005f7 l       .debug_str	00000000 
000005fb l       .debug_str	00000000 
000005fe l       .debug_str	00000000 
00000627 l       .debug_str	00000000 
0000065d l       .debug_str	00000000 
0000065f l       .debug_str	00000000 
0000068c l       .debug_str	00000000 
0000068f l       .debug_str	00000000 
000006df l       .debug_str	00000000 
000015e4 l       .debug_str	00000000 
00000790 l       .debug_str	00000000 
00000807 l       .debug_str	00000000 
0000088b l       .debug_str	00000000 
00000906 l       .debug_str	00000000 
000009a4 l       .debug_str	00000000 
00000a4f l       .debug_str	00000000 
00000af1 l       .debug_str	00000000 
00000bd7 l       .debug_str	00000000 
00000cda l       .debug_str	00000000 
00000ddc l       .debug_str	00000000 
00000de0 l       .debug_str	00000000 
00000de6 l       .debug_str	00000000 
00000de8 l       .debug_str	00000000 
00000ee2 l       .debug_str	00000000 
00000ee4 l       .debug_str	00000000 
00000fc1 l       .debug_str	00000000 
00000fcb l       .debug_str	00000000 
00000fd2 l       .debug_str	00000000 
0000101a l       .debug_str	00000000 
00001047 l       .debug_str	00000000 
0000104d l       .debug_str	00000000 
00001052 l       .debug_str	00000000 
0000105b l       .debug_str	00000000 
0000105d l       .debug_str	00000000 
0000105f l       .debug_str	00000000 
00001069 l       .debug_str	00000000 
0000106f l       .debug_str	00000000 
0000107c l       .debug_str	00000000 
00001080 l       .debug_str	00000000 
0000108c l       .debug_str	00000000 
0000109a l       .debug_str	00000000 
000010a5 l       .debug_str	00000000 
000010e8 l       .debug_str	00000000 
00001118 l       .debug_str	00000000 
00001120 l       .debug_str	00000000 
00001125 l       .debug_str	00000000 
0000112b l       .debug_str	00000000 
0000112f l       .debug_str	00000000 
00001136 l       .debug_str	00000000 
00001143 l       .debug_str	00000000 
00001186 l       .debug_str	00000000 
000011ba l       .debug_str	00000000 
000011ef l       .debug_str	00000000 
000011f8 l       .debug_str	00000000 
0000126b l       .debug_str	00000000 
0000127b l       .debug_str	00000000 
00001285 l       .debug_str	00000000 
0000128b l       .debug_str	00000000 
00001292 l       .debug_str	00000000 
00001297 l       .debug_str	00000000 
000012c8 l       .debug_str	00000000 
000012cd l       .debug_str	00000000 
000012d3 l       .debug_str	00000000 
000012da l       .debug_str	00000000 
000012df l       .debug_str	00000000 
000012ec l       .debug_str	00000000 
0000131a l       .debug_str	00000000 
0000131f l       .debug_str	00000000 
0000134e l       .debug_str	00000000 
0000137a l       .debug_str	00000000 
00001382 l       .debug_str	00000000 
000013b7 l       .debug_str	00000000 
000013e9 l       .debug_str	00000000 
000013f9 l       .debug_str	00000000 
00001408 l       .debug_str	00000000 
00001474 l       .debug_str	00000000 
0000147d l       .debug_str	00000000 
00001482 l       .debug_str	00000000 
000014ad l       .debug_str	00000000 
000014b1 l       .debug_str	00000000 
000014d5 l       .debug_str	00000000 
000014e0 l       .debug_str	00000000 
00001507 l       .debug_str	00000000 
0000150c l       .debug_str	00000000 
00001512 l       .debug_str	00000000 
00001517 l       .debug_str	00000000 
0000151c l       .debug_str	00000000 
0000152a l       .debug_str	00000000 
00001534 l       .debug_str	00000000 
00001538 l       .debug_str	00000000 
00001540 l       .debug_str	00000000 
00001548 l       .debug_str	00000000 
0000154f l       .debug_str	00000000 
00001563 l       .debug_str	00000000 
0000156f l       .debug_str	00000000 
0000157a l       .debug_str	00000000 
00001581 l       .debug_str	00000000 
00001587 l       .debug_str	00000000 
0000158d l       .debug_str	00000000 
0000159c l       .debug_str	00000000 
000015a0 l       .debug_str	00000000 
000015a9 l       .debug_str	00000000 
000015b5 l       .debug_str	00000000 
000015ce l       .debug_str	00000000 
000015d3 l       .debug_str	00000000 
000016cf l       .debug_str	00000000 
00000000 l     O .rodata..Lanon.191cfcf3941e3448c303a0a13771432e.0	0000000e .Lanon.191cfcf3941e3448c303a0a13771432e.0
00000000 l    d  .text._ZN4core3ptr31_$LT$impl$u20$$BP$mut$u20$T$GT$5write17hc6b68f076a3ba46aE	00000000 .text._ZN4core3ptr31_$LT$impl$u20$$BP$mut$u20$T$GT$5write17hc6b68f076a3ba46aE
00000000 l    d  .text._ZN5druid6widget4flex13Flex$LT$T$GT$9add_child17h122fdaeb1ec3f2ccE	00000000 .text._ZN5druid6widget4flex13Flex$LT$T$GT$9add_child17h122fdaeb1ec3f2ccE
00000000 l    d  .text._ZN5druid6widget4flex13Flex$LT$T$GT$9add_child17h1bcaf104bf0afa70E	00000000 .text._ZN5druid6widget4flex13Flex$LT$T$GT$9add_child17h1bcaf104bf0afa70E
00000000 l    d  .text._ZN5druid6widget4flex6Column3new17h2acca85105ed520fE	00000000 .text._ZN5druid6widget4flex6Column3new17h2acca85105ed520fE
00000000 l    d  .text._ZN77_$LT$druid..widget..flex..Flex$LT$T$GT$$u20$as$u20$druid..Widget$LT$T$GT$$GT$10new_window17h51cfd56021c14b43E	00000000 .text._ZN77_$LT$druid..widget..flex..Flex$LT$T$GT$$u20$as$u20$druid..Widget$LT$T$GT$$GT$10new_window17h51cfd56021c14b43E
00000000 l    d  .text._ZN78_$LT$druid..widget..flex..ChildWidget$LT$T$GT$$u20$as$u20$core..fmt..Debug$GT$3fmt17h4da880c3844c23feE	00000000 .text._ZN78_$LT$druid..widget..flex..ChildWidget$LT$T$GT$$u20$as$u20$core..fmt..Debug$GT$3fmt17h4da880c3844c23feE
00000000 l    d  .debug_loc	00000000 .debug_loc
00000000 l    d  .debug_abbrev	00000000 .debug_abbrev
00000000 l    d  .debug_info	00000000 .debug_info
00000000 l    d  .debug_ranges	00000000 .debug_ranges
00000000 l    d  .debug_frame	00000000 .debug_frame
00000000 l    d  .debug_line	00000000 .debug_line
00000000 g     F .text._ZN4core3ptr31_$LT$impl$u20$$BP$mut$u20$T$GT$5write17hc6b68f076a3ba46aE	00000030 _ZN4core3ptr31_$LT$impl$u20$$BP$mut$u20$T$GT$5write17hc6b68f076a3ba46aE
00000000         *UND*	00000000 _ZN4core3ptr5write17hdfcb3f93f0d20c56E
00000000         *UND*	00000000 _ZN4core6result19Result$LT$T$C$E$GT$6expect17hac5c96ca2c5fc078E
00000000         *UND*	00000000 _ZN5druid22WidgetPod$LT$T$C$W$GT$3new17h2ac355bd34c07ccaE
00000000         *UND*	00000000 _ZN5druid6widget13get_widget_id17h9c14066043a9a7f2E
00000000 g     F .text._ZN5druid6widget4flex13Flex$LT$T$GT$9add_child17h122fdaeb1ec3f2ccE	00000098 _ZN5druid6widget4flex13Flex$LT$T$GT$9add_child17h122fdaeb1ec3f2ccE
00000000 g     F .text._ZN5druid6widget4flex13Flex$LT$T$GT$9add_child17h1bcaf104bf0afa70E	00000098 _ZN5druid6widget4flex13Flex$LT$T$GT$9add_child17h1bcaf104bf0afa70E
00000000 g     F .text._ZN5druid6widget4flex6Column3new17h2acca85105ed520fE	00000040 _ZN5druid6widget4flex6Column3new17h2acca85105ed520fE
00000000         *UND*	00000000 _ZN5druid6widget9widgetbox18WidgetBox$LT$D$GT$3new17h0c4e9b2911c13a75E
00000000         *UND*	00000000 _ZN5druid6widget9widgetbox18WidgetBox$LT$D$GT$3new17h5625da0e7209a390E
00000000         *UND*	00000000 _ZN5druid6window19Window$LT$T$C$W$GT$3new17hde78442d3ca97b30E
00000000 g     F .text._ZN77_$LT$druid..widget..flex..Flex$LT$T$GT$$u20$as$u20$druid..Widget$LT$T$GT$$GT$10new_window17h51cfd56021c14b43E	0000007a _ZN77_$LT$druid..widget..flex..Flex$LT$T$GT$$u20$as$u20$druid..Widget$LT$T$GT$$GT$10new_window17h51cfd56021c14b43E
00000000 g     F .text._ZN78_$LT$druid..widget..flex..ChildWidget$LT$T$GT$$u20$as$u20$core..fmt..Debug$GT$3fmt17h4da880c3844c23feE	0000000c _ZN78_$LT$druid..widget..flex..ChildWidget$LT$T$GT$$u20$as$u20$core..fmt..Debug$GT$3fmt17h4da880c3844c23feE
00000000         *UND*	00000000 _ZN8heapless3vec16Vec$LT$T$C$N$GT$3new17hcccdad619d5d98a2E
00000000         *UND*	00000000 _ZN8heapless3vec16Vec$LT$T$C$N$GT$4push17h01e225df4ca1cc32E
00000000         *UND*	00000000 __aeabi_memcpy8



Disassembly of section .text._ZN4core3ptr31_$LT$impl$u20$$BP$mut$u20$T$GT$5write17hc6b68f076a3ba46aE:

00000000 <_ZN4core3ptr31_$LT$impl$u20$$BP$mut$u20$T$GT$5write17hc6b68f076a3ba46aE>:
_ZN4core3ptr31_$LT$impl$u20$$BP$mut$u20$T$GT$5write17hc6b68f076a3ba46aE():
/rustc/412f43ac5b4ae8c3599e71c6972112e9be4758fa/src/libcore/ptr/mod.rs:2434
   0:	b5f0      	push	{r4, r5, r6, r7, lr}
   2:	b093      	sub	sp, #76	; 0x4c
   4:	9001      	str	r0, [sp, #4]
/rustc/412f43ac5b4ae8c3599e71c6972112e9be4758fa/src/libcore/ptr/mod.rs:2437
   6:	9801      	ldr	r0, [sp, #4]
   8:	aa02      	add	r2, sp, #8
   a:	4613      	mov	r3, r2
   c:	e8b1 5070 	ldmia.w	r1!, {r4, r5, r6, ip, lr}
  10:	e8a3 5070 	stmia.w	r3!, {r4, r5, r6, ip, lr}
  14:	e8b1 5070 	ldmia.w	r1!, {r4, r5, r6, ip, lr}
  18:	e8a3 5070 	stmia.w	r3!, {r4, r5, r6, ip, lr}
  1c:	e891 50f0 	ldmia.w	r1, {r4, r5, r6, r7, ip, lr}
  20:	e883 50f0 	stmia.w	r3, {r4, r5, r6, r7, ip, lr}
  24:	4611      	mov	r1, r2
  26:	f7ff fffe 	bl	0 <_ZN4core3ptr5write17hdfcb3f93f0d20c56E>
  2a:	e7ff      	b.n	2c <_ZN4core3ptr31_$LT$impl$u20$$BP$mut$u20$T$GT$5write17hc6b68f076a3ba46aE+0x2c>
/rustc/412f43ac5b4ae8c3599e71c6972112e9be4758fa/src/libcore/ptr/mod.rs:2438
  2c:	b013      	add	sp, #76	; 0x4c
  2e:	bdf0      	pop	{r4, r5, r6, r7, pc}

Disassembly of section .text._ZN5druid6widget4flex13Flex$LT$T$GT$9add_child17h122fdaeb1ec3f2ccE:

00000000 <_ZN5druid6widget4flex13Flex$LT$T$GT$9add_child17h122fdaeb1ec3f2ccE>:
_ZN5druid6widget4flex13Flex$LT$T$GT$9add_child17h122fdaeb1ec3f2ccE():
C:\druid-embedded\druid\src\widget/flex.rs:137
    /// "major axis".
    ///
    /// If `flex` is non-zero, then all the space left over after layout of
    /// the non-flex children is divided up, in proportion to the `flex` value,
    /// among the flex children.
    pub fn add_child<W: Widget<T> + Clone>(&mut self, child: W, flex: f64) { ////
   0:	b5f0      	push	{r4, r5, r6, r7, lr}
   2:	b0e3      	sub	sp, #396	; 0x18c
   4:	9003      	str	r0, [sp, #12]
   6:	ed8d 0b04 	vstr	d0, [sp, #16]
C:\druid-embedded\druid\src\widget/flex.rs:139
    ////pub fn add_child(&mut self, child: impl Widget<T> + 'static, flex: f64) {
        let params = Params { flex };
   a:	ed9d 0b04 	vldr	d0, [sp, #16]
   e:	ed8d 0b06 	vstr	d0, [sp, #24]
  12:	a826      	add	r0, sp, #152	; 0x98
  14:	2270      	movs	r2, #112	; 0x70
C:\druid-embedded\druid\src\widget/flex.rs:142
        let child = ChildWidget {
            widget: WidgetPod::new( ////
                WidgetBox::<T>::new(child)
  16:	9002      	str	r0, [sp, #8]
  18:	f7ff fffe 	bl	0 <__aeabi_memcpy8>
  1c:	9802      	ldr	r0, [sp, #8]
  1e:	f7ff fffe 	bl	0 <_ZN5druid6widget9widgetbox18WidgetBox$LT$D$GT$3new17h0c4e9b2911c13a75E>
  22:	9001      	str	r0, [sp, #4]
  24:	e7ff      	b.n	26 <_ZN5druid6widget4flex13Flex$LT$T$GT$9add_child17h122fdaeb1ec3f2ccE+0x26>
  26:	a818      	add	r0, sp, #96	; 0x60
C:\druid-embedded\druid\src\widget/flex.rs:141
            widget: WidgetPod::new( ////
  28:	9901      	ldr	r1, [sp, #4]
  2a:	f7ff fffe 	bl	0 <_ZN5druid22WidgetPod$LT$T$C$W$GT$3new17h2ac355bd34c07ccaE>
  2e:	e7ff      	b.n	30 <_ZN5druid6widget4flex13Flex$LT$T$GT$9add_child17h122fdaeb1ec3f2ccE+0x30>
C:\druid-embedded\druid\src\widget/flex.rs:145
            ),
            ////widget: WidgetPod::new(child).boxed(),
            params,
  30:	ed9d 0b06 	vldr	d0, [sp, #24]
  34:	a818      	add	r0, sp, #96	; 0x60
  36:	a908      	add	r1, sp, #32
C:\druid-embedded\druid\src\widget/flex.rs:140
        let child = ChildWidget {
  38:	460a      	mov	r2, r1
  3a:	e8b0 5018 	ldmia.w	r0!, {r3, r4, ip, lr}
  3e:	e8a2 5018 	stmia.w	r2!, {r3, r4, ip, lr}
  42:	e8b0 5038 	ldmia.w	r0!, {r3, r4, r5, ip, lr}
  46:	e8a2 5038 	stmia.w	r2!, {r3, r4, r5, ip, lr}
  4a:	e890 5038 	ldmia.w	r0, {r3, r4, r5, ip, lr}
  4e:	e882 5038 	stmia.w	r2, {r3, r4, r5, ip, lr}
  52:	ed8d 0b16 	vstr	d0, [sp, #88]	; 0x58
C:\druid-embedded\druid\src\widget/flex.rs:147
        };
        self.children.push(child)
  56:	9803      	ldr	r0, [sp, #12]
  58:	aa52      	add	r2, sp, #328	; 0x148
  5a:	4613      	mov	r3, r2
  5c:	e8b1 5070 	ldmia.w	r1!, {r4, r5, r6, ip, lr}
  60:	e8a3 5070 	stmia.w	r3!, {r4, r5, r6, ip, lr}
  64:	e8b1 5070 	ldmia.w	r1!, {r4, r5, r6, ip, lr}
  68:	e8a3 5070 	stmia.w	r3!, {r4, r5, r6, ip, lr}
  6c:	e891 50f0 	ldmia.w	r1, {r4, r5, r6, r7, ip, lr}
  70:	e883 50f0 	stmia.w	r3, {r4, r5, r6, r7, ip, lr}
  74:	a942      	add	r1, sp, #264	; 0x108
  76:	9000      	str	r0, [sp, #0]
  78:	4608      	mov	r0, r1
  7a:	9900      	ldr	r1, [sp, #0]
  7c:	f7ff fffe 	bl	0 <_ZN8heapless3vec16Vec$LT$T$C$N$GT$4push17h01e225df4ca1cc32E>
  80:	e7ff      	b.n	2 <_ZN5druid6widget4flex13Flex$LT$T$GT$9add_child17h122fdaeb1ec3f2ccE+0x2>
  82:	f240 0100 	movw	r1, #0
  86:	f2c0 0100 	movt	r1, #0
  8a:	a842      	add	r0, sp, #264	; 0x108
  8c:	220e      	movs	r2, #14
  8e:	f7ff fffe 	bl	0 <_ZN4core6result19Result$LT$T$C$E$GT$6expect17hac5c96ca2c5fc078E>
  92:	e7ff      	b.n	94 <_ZN5druid6widget4flex13Flex$LT$T$GT$9add_child17h122fdaeb1ec3f2ccE+0x94>
C:\druid-embedded\druid\src\widget/flex.rs:150
            .expect("add child fail"); ////
        ////self.children.push(child);
    }
  94:	b063      	add	sp, #396	; 0x18c
  96:	bdf0      	pop	{r4, r5, r6, r7, pc}

Disassembly of section .text._ZN5druid6widget4flex13Flex$LT$T$GT$9add_child17h1bcaf104bf0afa70E:

00000000 <_ZN5druid6widget4flex13Flex$LT$T$GT$9add_child17h1bcaf104bf0afa70E>:
_ZN5druid6widget4flex13Flex$LT$T$GT$9add_child17h1bcaf104bf0afa70E():
C:\druid-embedded\druid\src\widget/flex.rs:137
    pub fn add_child<W: Widget<T> + Clone>(&mut self, child: W, flex: f64) { ////
   0:	b5f0      	push	{r4, r5, r6, r7, lr}
   2:	b0df      	sub	sp, #380	; 0x17c
   4:	9003      	str	r0, [sp, #12]
   6:	ed8d 0b04 	vstr	d0, [sp, #16]
C:\druid-embedded\druid\src\widget/flex.rs:139
        let params = Params { flex };
   a:	ed9d 0b04 	vldr	d0, [sp, #16]
   e:	ed8d 0b06 	vstr	d0, [sp, #24]
  12:	a826      	add	r0, sp, #152	; 0x98
  14:	2260      	movs	r2, #96	; 0x60
C:\druid-embedded\druid\src\widget/flex.rs:142
                WidgetBox::<T>::new(child)
  16:	9002      	str	r0, [sp, #8]
  18:	f7ff fffe 	bl	0 <__aeabi_memcpy8>
  1c:	9802      	ldr	r0, [sp, #8]
  1e:	f7ff fffe 	bl	0 <_ZN5druid6widget9widgetbox18WidgetBox$LT$D$GT$3new17h5625da0e7209a390E>
  22:	9001      	str	r0, [sp, #4]
  24:	e7ff      	b.n	26 <_ZN5druid6widget4flex13Flex$LT$T$GT$9add_child17h1bcaf104bf0afa70E+0x26>
  26:	a818      	add	r0, sp, #96	; 0x60
C:\druid-embedded\druid\src\widget/flex.rs:141
            widget: WidgetPod::new( ////
  28:	9901      	ldr	r1, [sp, #4]
  2a:	f7ff fffe 	bl	0 <_ZN5druid22WidgetPod$LT$T$C$W$GT$3new17h2ac355bd34c07ccaE>
  2e:	e7ff      	b.n	30 <_ZN5druid6widget4flex13Flex$LT$T$GT$9add_child17h1bcaf104bf0afa70E+0x30>
C:\druid-embedded\druid\src\widget/flex.rs:145
            params,
  30:	ed9d 0b06 	vldr	d0, [sp, #24]
  34:	a818      	add	r0, sp, #96	; 0x60
  36:	a908      	add	r1, sp, #32
C:\druid-embedded\druid\src\widget/flex.rs:140
        let child = ChildWidget {
  38:	460a      	mov	r2, r1
  3a:	e8b0 5018 	ldmia.w	r0!, {r3, r4, ip, lr}
  3e:	e8a2 5018 	stmia.w	r2!, {r3, r4, ip, lr}
  42:	e8b0 5038 	ldmia.w	r0!, {r3, r4, r5, ip, lr}
  46:	e8a2 5038 	stmia.w	r2!, {r3, r4, r5, ip, lr}
  4a:	e890 5038 	ldmia.w	r0, {r3, r4, r5, ip, lr}
  4e:	e882 5038 	stmia.w	r2, {r3, r4, r5, ip, lr}
  52:	ed8d 0b16 	vstr	d0, [sp, #88]	; 0x58
C:\druid-embedded\druid\src\widget/flex.rs:147
        self.children.push(child)
  56:	9803      	ldr	r0, [sp, #12]
  58:	aa4e      	add	r2, sp, #312	; 0x138
  5a:	4613      	mov	r3, r2
  5c:	e8b1 5070 	ldmia.w	r1!, {r4, r5, r6, ip, lr}
  60:	e8a3 5070 	stmia.w	r3!, {r4, r5, r6, ip, lr}
  64:	e8b1 5070 	ldmia.w	r1!, {r4, r5, r6, ip, lr}
  68:	e8a3 5070 	stmia.w	r3!, {r4, r5, r6, ip, lr}
  6c:	e891 50f0 	ldmia.w	r1, {r4, r5, r6, r7, ip, lr}
  70:	e883 50f0 	stmia.w	r3, {r4, r5, r6, r7, ip, lr}
  74:	a93e      	add	r1, sp, #248	; 0xf8
  76:	9000      	str	r0, [sp, #0]
  78:	4608      	mov	r0, r1
  7a:	9900      	ldr	r1, [sp, #0]
  7c:	f7ff fffe 	bl	0 <_ZN8heapless3vec16Vec$LT$T$C$N$GT$4push17h01e225df4ca1cc32E>
  80:	e7ff      	b.n	2 <_ZN5druid6widget4flex13Flex$LT$T$GT$9add_child17h1bcaf104bf0afa70E+0x2>
  82:	f240 0100 	movw	r1, #0
  86:	f2c0 0100 	movt	r1, #0
  8a:	a83e      	add	r0, sp, #248	; 0xf8
  8c:	220e      	movs	r2, #14
  8e:	f7ff fffe 	bl	0 <_ZN4core6result19Result$LT$T$C$E$GT$6expect17hac5c96ca2c5fc078E>
  92:	e7ff      	b.n	94 <_ZN5druid6widget4flex13Flex$LT$T$GT$9add_child17h1bcaf104bf0afa70E+0x94>
C:\druid-embedded\druid\src\widget/flex.rs:150
    }
  94:	b05f      	add	sp, #380	; 0x17c
  96:	bdf0      	pop	{r4, r5, r6, r7, pc}

Disassembly of section .text._ZN5druid6widget4flex6Column3new17h2acca85105ed520fE:

00000000 <_ZN5druid6widget4flex6Column3new17h2acca85105ed520fE>:
_ZN5druid6widget4flex6Column3new17h2acca85105ed520fE():
C:\druid-embedded\druid\src\widget/flex.rs:115
    pub fn new<T: Data + 'static + Default>() -> Flex<T> { ////
   0:	b580      	push	{r7, lr}
   2:	f5ad 7d06 	sub.w	sp, sp, #536	; 0x218
C:\druid-embedded\druid\src\widget/flex.rs:118
            id: super::get_widget_id(), ////
   6:	9002      	str	r0, [sp, #8]
   8:	f7ff fffe 	bl	0 <_ZN5druid6widget13get_widget_id17h9c14066043a9a7f2E>
   c:	9001      	str	r0, [sp, #4]
   e:	e7ff      	b.n	10 <_ZN5druid6widget4flex6Column3new17h2acca85105ed520fE+0x10>
  10:	2001      	movs	r0, #1
C:\druid-embedded\druid\src\widget/flex.rs:119
            direction: Axis::Vertical,
  12:	f88d 000f 	strb.w	r0, [sp, #15]
  16:	a804      	add	r0, sp, #16
C:\druid-embedded\druid\src\widget/flex.rs:121
            children: Vec::new(),
  18:	f7ff fffe 	bl	0 <_ZN8heapless3vec16Vec$LT$T$C$N$GT$3new17hcccdad619d5d98a2E>
  1c:	e7ff      	b.n	1e <_ZN5druid6widget4flex6Column3new17h2acca85105ed520fE+0x1e>
C:\druid-embedded\druid\src\widget/flex.rs:117
        Flex {
  1e:	9801      	ldr	r0, [sp, #4]
  20:	9902      	ldr	r1, [sp, #8]
  22:	f8c1 0208 	str.w	r0, [r1, #520]	; 0x208
  26:	f89d 200f 	ldrb.w	r2, [sp, #15]
  2a:	f881 220c 	strb.w	r2, [r1, #524]	; 0x20c
  2e:	a904      	add	r1, sp, #16
  30:	f44f 7202 	mov.w	r2, #520	; 0x208
  34:	9802      	ldr	r0, [sp, #8]
  36:	f7ff fffe 	bl	0 <__aeabi_memcpy8>
C:\druid-embedded\druid\src\widget/flex.rs:123
    }
  3a:	f50d 7d06 	add.w	sp, sp, #536	; 0x218
  3e:	bd80      	pop	{r7, pc}

Disassembly of section .text._ZN77_$LT$druid..widget..flex..Flex$LT$T$GT$$u20$as$u20$druid..Widget$LT$T$GT$$GT$10new_window17h51cfd56021c14b43E:

00000000 <_ZN77_$LT$druid..widget..flex..Flex$LT$T$GT$$u20$as$u20$druid..Widget$LT$T$GT$$GT$10new_window17h51cfd56021c14b43E>:
_ZN77_$LT$druid..widget..flex..Flex$LT$T$GT$$u20$as$u20$druid..Widget$LT$T$GT$$GT$10new_window17h51cfd56021c14b43E():
C:\druid-embedded\druid\src\widget/flex.rs:267

    fn to_type(self) -> WidgetType<T> { ////
        WidgetType::Flex(self)
    }

    fn new_window(self) -> WindowBox<T> { ////
   0:	b580      	push	{r7, lr}
   2:	f5ad 6d3a 	sub.w	sp, sp, #2976	; 0xba0
   6:	aa9e      	add	r2, sp, #632	; 0x278
   8:	f44f 7304 	mov.w	r3, #528	; 0x210
C:\druid-embedded\druid\src\widget/flex.rs:268
        let window = Window::new(self);
   c:	9007      	str	r0, [sp, #28]
   e:	4610      	mov	r0, r2
  10:	9206      	str	r2, [sp, #24]
  12:	461a      	mov	r2, r3
  14:	f7ff fffe 	bl	0 <__aeabi_memcpy8>
  18:	a808      	add	r0, sp, #32
  1a:	9906      	ldr	r1, [sp, #24]
  1c:	f7ff fffe 	bl	0 <_ZN5druid6window19Window$LT$T$C$W$GT$3new17hde78442d3ca97b30E>
  20:	e7ff      	b.n	22 <_ZN77_$LT$druid..widget..flex..Flex$LT$T$GT$$u20$as$u20$druid..Widget$LT$T$GT$$GT$10new_window17h51cfd56021c14b43E+0x22>
  22:	f60d 1048 	addw	r0, sp, #2376	; 0x948
  26:	a908      	add	r1, sp, #32
  28:	f44f 7216 	mov.w	r2, #600	; 0x258
C:\druid-embedded\druid\src\widget/flex.rs:270
        let window_box = WindowBox(
            WindowType::Flex(window),
  2c:	9005      	str	r0, [sp, #20]
  2e:	9204      	str	r2, [sp, #16]
  30:	f7ff fffe 	bl	0 <__aeabi_memcpy8>
  34:	f50d 60dd 	add.w	r0, sp, #1768	; 0x6e8
  38:	f100 0108 	add.w	r1, r0, #8
  3c:	9003      	str	r0, [sp, #12]
  3e:	4608      	mov	r0, r1
  40:	9905      	ldr	r1, [sp, #20]
  42:	9a04      	ldr	r2, [sp, #16]
  44:	f7ff fffe 	bl	0 <__aeabi_memcpy8>
  48:	2000      	movs	r0, #0
  4a:	f8cd 06ec 	str.w	r0, [sp, #1772]	; 0x6ec
  4e:	2002      	movs	r0, #2
  50:	f8cd 06e8 	str.w	r0, [sp, #1768]	; 0x6e8
  54:	f50d 6091 	add.w	r0, sp, #1160	; 0x488
  58:	f44f 7118 	mov.w	r1, #608	; 0x260
C:\druid-embedded\druid\src\widget/flex.rs:269
        let window_box = WindowBox(
  5c:	9002      	str	r0, [sp, #8]
  5e:	9a03      	ldr	r2, [sp, #12]
  60:	9101      	str	r1, [sp, #4]
  62:	4611      	mov	r1, r2
  64:	9a01      	ldr	r2, [sp, #4]
  66:	f7ff fffe 	bl	0 <__aeabi_memcpy8>
C:\druid-embedded\druid\src\widget/flex.rs:273
            //PhantomData,
        );
        window_box
  6a:	9807      	ldr	r0, [sp, #28]
  6c:	9902      	ldr	r1, [sp, #8]
  6e:	9a01      	ldr	r2, [sp, #4]
  70:	f7ff fffe 	bl	0 <__aeabi_memcpy8>
C:\druid-embedded\druid\src\widget/flex.rs:274
    }
  74:	f50d 6d3a 	add.w	sp, sp, #2976	; 0xba0
  78:	bd80      	pop	{r7, pc}

Disassembly of section .text._ZN78_$LT$druid..widget..flex..ChildWidget$LT$T$GT$$u20$as$u20$core..fmt..Debug$GT$3fmt17h4da880c3844c23feE:

00000000 <_ZN78_$LT$druid..widget..flex..ChildWidget$LT$T$GT$$u20$as$u20$core..fmt..Debug$GT$3fmt17h4da880c3844c23feE>:
_ZN78_$LT$druid..widget..flex..ChildWidget$LT$T$GT$$u20$as$u20$core..fmt..Debug$GT$3fmt17h4da880c3844c23feE():
C:\druid-embedded\druid\src\widget/flex.rs:283
    }
}

/// Implement formatted output for ChildWidget
impl<T: Data + Default> core::fmt::Debug for ChildWidget<T> { ////
    fn fmt(&self, _fmt: &mut ::core::fmt::Formatter<'_>) -> ::core::fmt::Result {
   0:	b082      	sub	sp, #8
   2:	9000      	str	r0, [sp, #0]
   4:	9101      	str	r1, [sp, #4]
   6:	2000      	movs	r0, #0
C:\druid-embedded\druid\src\widget/flex.rs:286
        //  TODO
        Ok(())
    }
   8:	b002      	add	sp, #8
   a:	4770      	bx	lr

app-20d859f505b9d0c6.jaa5pqxq4kn074o.rcgu.o:     file format elf32-littlearm

SYMBOL TABLE:
00000000 l    df *ABS*	00000000 jaa5pqxq4kn074o
00000e0b l       .debug_str	00000000 
000027d8 l       .debug_str	00000000 
000027cf l       .debug_str	00000000 
000027b5 l       .debug_str	00000000 
0000281e l       .debug_str	00000000 
000027a7 l       .debug_str	00000000 
0000279f l       .debug_str	00000000 
00002794 l       .debug_str	00000000 
00002789 l       .debug_str	00000000 
00002773 l       .debug_str	00000000 
00000000 l       .debug_str	00000000 
00000041 l       .debug_str	00000000 
00000055 l       .debug_str	00000000 
00000074 l       .debug_str	00000000 
0000007a l       .debug_str	00000000 
00000081 l       .debug_str	00000000 
00000086 l       .debug_str	00000000 
00000089 l       .debug_str	00000000 
00000094 l       .debug_str	00000000 
0000009d l       .debug_str	00000000 
000000a2 l       .debug_str	00000000 
000000a7 l       .debug_str	00000000 
000000ae l       .debug_str	00000000 
000000b3 l       .debug_str	00000000 
000000b8 l       .debug_str	00000000 
000000bf l       .debug_str	00000000 
000000c3 l       .debug_str	00000000 
000000c9 l       .debug_str	00000000 
000000f2 l       .debug_str	00000000 
000000f9 l       .debug_str	00000000 
00000127 l       .debug_str	00000000 
00000132 l       .debug_str	00000000 
00000135 l       .debug_str	00000000 
00000139 l       .debug_str	00000000 
00000143 l       .debug_str	00000000 
0000014c l       .debug_str	00000000 
00000155 l       .debug_str	00000000 
00000159 l       .debug_str	00000000 
0000015d l       .debug_str	00000000 
0000015f l       .debug_str	00000000 
00000166 l       .debug_str	00000000 
0000016a l       .debug_str	00000000 
00000177 l       .debug_str	00000000 
0000017e l       .debug_str	00000000 
00000181 l       .debug_str	00000000 
00000187 l       .debug_str	00000000 
00000195 l       .debug_str	00000000 
000001a3 l       .debug_str	00000000 
000001a8 l       .debug_str	00000000 
000001b0 l       .debug_str	00000000 
000001b8 l       .debug_str	00000000 
000001be l       .debug_str	00000000 
000001ca l       .debug_str	00000000 
000001d0 l       .debug_str	00000000 
000001d5 l       .debug_str	00000000 
000001d8 l       .debug_str	00000000 
000001dc l       .debug_str	00000000 
000001df l       .debug_str	00000000 
000001e2 l       .debug_str	00000000 
000001e5 l       .debug_str	00000000 
000001ea l       .debug_str	00000000 
000001f6 l       .debug_str	00000000 
000001fb l       .debug_str	00000000 
00000202 l       .debug_str	00000000 
0000020c l       .debug_str	00000000 
00000217 l       .debug_str	00000000 
00000224 l       .debug_str	00000000 
00000232 l       .debug_str	00000000 
0000023c l       .debug_str	00000000 
0000024a l       .debug_str	00000000 
00000254 l       .debug_str	00000000 
0000025d l       .debug_str	00000000 
0000025f l       .debug_str	00000000 
0000026b l       .debug_str	00000000 
0000026f l       .debug_str	00000000 
00000275 l       .debug_str	00000000 
0000027f l       .debug_str	00000000 
00000283 l       .debug_str	00000000 
0000028a l       .debug_str	00000000 
0000029b l       .debug_str	00000000 
0000029d l       .debug_str	00000000 
000002ac l       .debug_str	00000000 
000002ae l       .debug_str	00000000 
000002e7 l       .debug_str	00000000 
000002ee l       .debug_str	00000000 
000002f5 l       .debug_str	00000000 
00000306 l       .debug_str	00000000 
00000308 l       .debug_str	00000000 
00000347 l       .debug_str	00000000 
0000034f l       .debug_str	00000000 
00000382 l       .debug_str	00000000 
0000040d l       .debug_str	00000000 
000004e4 l       .debug_str	00000000 
00000607 l       .debug_str	00000000 
0000060f l       .debug_str	00000000 
00000614 l       .debug_str	00000000 
0000061a l       .debug_str	00000000 
0000061e l       .debug_str	00000000 
00000621 l       .debug_str	00000000 
0000064a l       .debug_str	00000000 
00000680 l       .debug_str	00000000 
00000682 l       .debug_str	00000000 
000006af l       .debug_str	00000000 
000006b2 l       .debug_str	00000000 
00000702 l       .debug_str	00000000 
0000075f l       .debug_str	00000000 
000007b3 l       .debug_str	00000000 
0000082a l       .debug_str	00000000 
000008ae l       .debug_str	00000000 
00000929 l       .debug_str	00000000 
000009c7 l       .debug_str	00000000 
00000a72 l       .debug_str	00000000 
00000b14 l       .debug_str	00000000 
00000bfa l       .debug_str	00000000 
00000cfd l       .debug_str	00000000 
00000dff l       .debug_str	00000000 
00000e03 l       .debug_str	00000000 
00000e09 l       .debug_str	00000000 
00002768 l       .debug_str	00000000 
00000f05 l       .debug_str	00000000 
00000f07 l       .debug_str	00000000 
00000fe4 l       .debug_str	00000000 
00000fee l       .debug_str	00000000 
00000ffa l       .debug_str	00000000 
00001007 l       .debug_str	00000000 
0000102e l       .debug_str	00000000 
00001033 l       .debug_str	00000000 
00001037 l       .debug_str	00000000 
0000103d l       .debug_str	00000000 
00001044 l       .debug_str	00000000 
00001049 l       .debug_str	00000000 
00001063 l       .debug_str	00000000 
0000106a l       .debug_str	00000000 
00001073 l       .debug_str	00000000 
00001080 l       .debug_str	00000000 
000010b0 l       .debug_str	00000000 
000010b5 l       .debug_str	00000000 
000010c2 l       .debug_str	00000000 
000010c6 l       .debug_str	00000000 
000010cf l       .debug_str	00000000 
000010d9 l       .debug_str	00000000 
000010e0 l       .debug_str	00000000 
000010e5 l       .debug_str	00000000 
000010f1 l       .debug_str	00000000 
000010f8 l       .debug_str	00000000 
00001114 l       .debug_str	00000000 
00001124 l       .debug_str	00000000 
00001169 l       .debug_str	00000000 
000011d6 l       .debug_str	00000000 
0000126c l       .debug_str	00000000 
0000132b l       .debug_str	00000000 
000013a2 l       .debug_str	00000000 
00001426 l       .debug_str	00000000 
000014a1 l       .debug_str	00000000 
0000153f l       .debug_str	00000000 
000015ea l       .debug_str	00000000 
0000168c l       .debug_str	00000000 
00001751 l       .debug_str	00000000 
00001823 l       .debug_str	00000000 
000018ec l       .debug_str	00000000 
000019d6 l       .debug_str	00000000 
00001add l       .debug_str	00000000 
00001be3 l       .debug_str	00000000 
00001ce1 l       .debug_str	00000000 
00001de2 l       .debug_str	00000000 
00001ec2 l       .debug_str	00000000 
00001fbc l       .debug_str	00000000 
00001fc1 l       .debug_str	00000000 
00001fca l       .debug_str	00000000 
00001fd1 l       .debug_str	00000000 
00001fd5 l       .debug_str	00000000 
00001fdb l       .debug_str	00000000 
00001fe4 l       .debug_str	00000000 
00001fe9 l       .debug_str	00000000 
00001fed l       .debug_str	00000000 
00001ffe l       .debug_str	00000000 
00002036 l       .debug_str	00000000 
00002045 l       .debug_str	00000000 
00002071 l       .debug_str	00000000 
000020b6 l       .debug_str	00000000 
000020ef l       .debug_str	00000000 
00002186 l       .debug_str	00000000 
00002224 l       .debug_str	00000000 
000022df l       .debug_str	00000000 
00002399 l       .debug_str	00000000 
0000244b l       .debug_str	00000000 
000024e0 l       .debug_str	00000000 
0000258c l       .debug_str	00000000 
00002595 l       .debug_str	00000000 
000025aa l       .debug_str	00000000 
000025b0 l       .debug_str	00000000 
000025ba l       .debug_str	00000000 
000025c3 l       .debug_str	00000000 
000025d2 l       .debug_str	00000000 
000025d8 l       .debug_str	00000000 
000025dd l       .debug_str	00000000 
000025e6 l       .debug_str	00000000 
000025e8 l       .debug_str	00000000 
000025ea l       .debug_str	00000000 
000025f4 l       .debug_str	00000000 
000025ff l       .debug_str	00000000 
00002606 l       .debug_str	00000000 
0000260d l       .debug_str	00000000 
00002615 l       .debug_str	00000000 
00002621 l       .debug_str	00000000 
00002629 l       .debug_str	00000000 
00002631 l       .debug_str	00000000 
00002638 l       .debug_str	00000000 
0000264c l       .debug_str	00000000 
00002658 l       .debug_str	00000000 
00002664 l       .debug_str	00000000 
0000266e l       .debug_str	00000000 
00002677 l       .debug_str	00000000 
00002680 l       .debug_str	00000000 
00002688 l       .debug_str	00000000 
00002694 l       .debug_str	00000000 
0000269c l       .debug_str	00000000 
000026ae l       .debug_str	00000000 
000026b7 l       .debug_str	00000000 
000026ea l       .debug_str	00000000 
0000271e l       .debug_str	00000000 
00002812 l       .debug_str	00000000 
00000000 l     O .rodata..Lanon.cdeb65a6cebac95ecab706e1613858e1.0	0000000d .Lanon.cdeb65a6cebac95ecab706e1613858e1.0
00000000 l     O .rodata..Lanon.cdeb65a6cebac95ecab706e1613858e1.1	0000000d .Lanon.cdeb65a6cebac95ecab706e1613858e1.1
00000000 l     O .rodata..Lanon.cdeb65a6cebac95ecab706e1613858e1.2	00000005 .Lanon.cdeb65a6cebac95ecab706e1613858e1.2
00000000 l     O .rodata..Lanon.cdeb65a6cebac95ecab706e1613858e1.3	00000009 .Lanon.cdeb65a6cebac95ecab706e1613858e1.3
00000000 l     F .text._ZN3app5hello10ui_builder17h4ec8f3ccede85a86E	00000108 _ZN3app5hello10ui_builder17h4ec8f3ccede85a86E
00000000 l    d  .text._ZN3app5hello6launch17h47592726fdb5c1aeE	00000000 .text._ZN3app5hello6launch17h47592726fdb5c1aeE
00000000 l    d  .text._ZN3app5hello10ui_builder17h4ec8f3ccede85a86E	00000000 .text._ZN3app5hello10ui_builder17h4ec8f3ccede85a86E
00000000 l    d  .debug_abbrev	00000000 .debug_abbrev
00000000 l    d  .debug_info	00000000 .debug_info
00000000 l    d  .debug_ranges	00000000 .debug_ranges
00000000 l    d  .debug_frame	00000000 .debug_frame
00000000 l    d  .debug_line	00000000 .debug_line
00000000 g     F .text._ZN3app5hello6launch17h47592726fdb5c1aeE	00000062 .hidden _ZN3app5hello6launch17h47592726fdb5c1aeE
00000000         *UND*	00000000 _ZN4core3ops8function6FnOnce9call_once17h24c010e6e1623cc4E
00000000         *UND*	00000000 _ZN4core3ops8function6FnOnce9call_once17hdf8990ceac9c694cE
00000000         *UND*	00000000 _ZN4core6result19Result$LT$T$C$E$GT$6expect17he4559283b3def769E
00000000         *UND*	00000000 _ZN5druid12localization24LocalizedString$LT$T$GT$3new17hd476398c63fdfa35E
00000000         *UND*	00000000 _ZN5druid12localization24LocalizedString$LT$T$GT$8with_arg17h78f2b50bc74c391bE
00000000         *UND*	00000000 _ZN5druid3app23WindowDesc$LT$T$C$W$GT$3new17hb74ea992949a2f1cE
00000000         *UND*	00000000 _ZN5druid3app24AppLauncher$LT$T$C$W$GT$11with_window17he0d9cd9ed1b5cde8E
00000000         *UND*	00000000 _ZN5druid3app24AppLauncher$LT$T$C$W$GT$17use_simple_logger17hf9c4f2b9606c2189E
00000000         *UND*	00000000 _ZN5druid3app24AppLauncher$LT$T$C$W$GT$6launch17h2f422de7155fd22bE
00000000         *UND*	00000000 _ZN5druid6widget4flex13Flex$LT$T$GT$9add_child17h122fdaeb1ec3f2ccE
00000000         *UND*	00000000 _ZN5druid6widget4flex13Flex$LT$T$GT$9add_child17h1bcaf104bf0afa70E
00000000         *UND*	00000000 _ZN5druid6widget4flex6Column3new17h2acca85105ed520fE
00000000         *UND*	00000000 _ZN5druid6widget5align14Align$LT$T$GT$8centered17h94f2e07be09be50fE
00000000         *UND*	00000000 _ZN5druid6widget5label14Label$LT$T$GT$3new17h051720152bc729aeE
00000000         *UND*	00000000 _ZN5druid6widget6button15Button$LT$T$GT$3new17h67bda0711e6f0540E
00000000         *UND*	00000000 _ZN5druid6widget7padding16Padding$LT$T$GT$3new17h787e8889b090bc7dE
00000000         *UND*	00000000 _ZN5druid6widget7padding16Padding$LT$T$GT$3new17hbc501ec179081349E
00000000         *UND*	00000000 __aeabi_memcpy4
00000000         *UND*	00000000 __aeabi_memcpy8



Disassembly of section .text._ZN3app5hello6launch17h47592726fdb5c1aeE:

00000000 <_ZN3app5hello6launch17h47592726fdb5c1aeE>:
_ZN3app5hello6launch17h47592726fdb5c1aeE():
c:\stm32bluepill-mynewt-sensor/rust\app\src/hello.rs:19

#![no_std]  //  This program will run on embedded platforms
use druid::widget::{Align, Button, Column, Label, Padding};
use druid::{AppLauncher, LocalizedString, Widget, WindowDesc};

pub fn launch() {
   0:	b510      	push	{r4, lr}
   2:	b0b8      	sub	sp, #224	; 0xe0
c:\stm32bluepill-mynewt-sensor/rust\app\src/hello.rs:21
    //  Build a new window
    let main_window = WindowDesc::new(ui_builder);
   4:	f240 0100 	movw	r1, #0
   8:	f2c0 0100 	movt	r1, #0
   c:	4668      	mov	r0, sp
   e:	f7ff fffe 	bl	0 <_ZN5druid3app23WindowDesc$LT$T$C$W$GT$3new17hb74ea992949a2f1cE>
  12:	e7ff      	b.n	14 <_ZN3app5hello6launch17h47592726fdb5c1aeE+0x14>
  14:	2000      	movs	r0, #0
c:\stm32bluepill-mynewt-sensor/rust\app\src/hello.rs:23
    //  Application state is initially 0
    let data = 0_u32;
  16:	9008      	str	r0, [sp, #32]
  18:	4668      	mov	r0, sp
  1a:	a930      	add	r1, sp, #192	; 0xc0
c:\stm32bluepill-mynewt-sensor/rust\app\src/hello.rs:25
    //  Launch the window with the initial application state
    AppLauncher::with_window(main_window)
  1c:	460a      	mov	r2, r1
  1e:	e8b0 5018 	ldmia.w	r0!, {r3, r4, ip, lr}
  22:	e8a2 5018 	stmia.w	r2!, {r3, r4, ip, lr}
  26:	e890 5018 	ldmia.w	r0, {r3, r4, ip, lr}
  2a:	e882 5018 	stmia.w	r2, {r3, r4, ip, lr}
  2e:	a81e      	add	r0, sp, #120	; 0x78
  30:	f7ff fffe 	bl	0 <_ZN5druid3app24AppLauncher$LT$T$C$W$GT$11with_window17he0d9cd9ed1b5cde8E>
  34:	e7ff      	b.n	36 <_ZN3app5hello6launch17h47592726fdb5c1aeE+0x36>
  36:	a80c      	add	r0, sp, #48	; 0x30
  38:	a91e      	add	r1, sp, #120	; 0x78
  3a:	f7ff fffe 	bl	0 <_ZN5druid3app24AppLauncher$LT$T$C$W$GT$17use_simple_logger17hf9c4f2b9606c2189E>
  3e:	e7ff      	b.n	40 <_ZN3app5hello6launch17h47592726fdb5c1aeE+0x40>
c:\stm32bluepill-mynewt-sensor/rust\app\src/hello.rs:27
        .use_simple_logger()
        .launch(data)
  40:	9a08      	ldr	r2, [sp, #32]
  42:	a809      	add	r0, sp, #36	; 0x24
  44:	a90c      	add	r1, sp, #48	; 0x30
c:\stm32bluepill-mynewt-sensor/rust\app\src/hello.rs:25
    AppLauncher::with_window(main_window)
  46:	f7ff fffe 	bl	0 <_ZN5druid3app24AppLauncher$LT$T$C$W$GT$6launch17h2f422de7155fd22bE>
  4a:	e7ff      	b.n	2 <_ZN3app5hello6launch17h47592726fdb5c1aeE+0x2>
  4c:	f240 0100 	movw	r1, #0
  50:	f2c0 0100 	movt	r1, #0
  54:	a809      	add	r0, sp, #36	; 0x24
  56:	220d      	movs	r2, #13
  58:	f7ff fffe 	bl	0 <_ZN4core6result19Result$LT$T$C$E$GT$6expect17he4559283b3def769E>
  5c:	e7ff      	b.n	5e <_ZN3app5hello6launch17h47592726fdb5c1aeE+0x5e>
c:\stm32bluepill-mynewt-sensor/rust\app\src/hello.rs:29
        .expect("launch failed");
}
  5e:	b038      	add	sp, #224	; 0xe0
  60:	bd10      	pop	{r4, pc}

Disassembly of section .text._ZN3app5hello10ui_builder17h4ec8f3ccede85a86E:

00000000 <_ZN3app5hello10ui_builder17h4ec8f3ccede85a86E>:
_ZN3app5hello10ui_builder17h4ec8f3ccede85a86E():
c:\stm32bluepill-mynewt-sensor/rust\app\src/hello.rs:32

/// Build the UI for the window. The application state consists of 1 value: `count` of type `u32`.
fn ui_builder() -> impl Widget<u32> {  //  `u32` is the application state
   0:	b580      	push	{r7, lr}
   2:	f5ad 6dcd 	sub.w	sp, sp, #1640	; 0x668
c:\stm32bluepill-mynewt-sensor/rust\app\src/hello.rs:35
    //  Create a line of text based on a counter value
    let text =
        LocalizedString::new("hello-counter")
   6:	f240 0100 	movw	r1, #0
   a:	f2c0 0100 	movt	r1, #0
   e:	aa1e      	add	r2, sp, #120	; 0x78
  10:	230d      	movs	r3, #13
  12:	9005      	str	r0, [sp, #20]
  14:	4610      	mov	r0, r2
  16:	461a      	mov	r2, r3
  18:	f7ff fffe 	bl	0 <_ZN5druid12localization24LocalizedString$LT$T$GT$3new17hd476398c63fdfa35E>
  1c:	e7ff      	b.n	2 <_ZN4core3ops8function6FnOnce9call_once17h24c010e6e1623cc4E+0x2>
  1e:	f240 0000 	movw	r0, #0
  22:	f2c0 0000 	movt	r0, #0
  26:	4669      	mov	r1, sp
  28:	6008      	str	r0, [r1, #0]
  2a:	f240 0200 	movw	r2, #0
  2e:	f2c0 0200 	movt	r2, #0
  32:	a806      	add	r0, sp, #24
  34:	a91e      	add	r1, sp, #120	; 0x78
  36:	2305      	movs	r3, #5
  38:	f7ff fffe 	bl	0 <_ZN5druid12localization24LocalizedString$LT$T$GT$8with_arg17h78f2b50bc74c391bE>
  3c:	e7ff      	b.n	3e <_ZN3app5hello10ui_builder17h4ec8f3ccede85a86E+0x3e>
  3e:	a854      	add	r0, sp, #336	; 0x150
  40:	a906      	add	r1, sp, #24
  42:	2260      	movs	r2, #96	; 0x60
c:\stm32bluepill-mynewt-sensor/rust\app\src/hello.rs:43
            //  Closure that will fetch the counter value...
            | data: &u32, _env |  //  Closure will receive the application state and environment
                (*data).into()    //  We return the counter value in the application state
        );
    //  Create a label widget to display the text
    let label = Label::new(text);
  44:	9004      	str	r0, [sp, #16]
  46:	f7ff fffe 	bl	0 <__aeabi_memcpy4>
  4a:	a836      	add	r0, sp, #216	; 0xd8
  4c:	9904      	ldr	r1, [sp, #16]
  4e:	f7ff fffe 	bl	0 <_ZN5druid6widget5label14Label$LT$T$GT$3new17h051720152bc729aeE>
  52:	e7ff      	b.n	2 <_ZN3app5hello10ui_builder17h4ec8f3ccede85a86E+0x2>
c:\stm32bluepill-mynewt-sensor/rust\app\src/hello.rs:45
    //  Create a button widget to increment the counter
    let button = Button::new(
  54:	f240 0100 	movw	r1, #0
  58:	f2c0 0100 	movt	r1, #0
  5c:	f240 0300 	movw	r3, #0
  60:	f2c0 0300 	movt	r3, #0
  64:	a86c      	add	r0, sp, #432	; 0x1b0
  66:	2209      	movs	r2, #9
  68:	f7ff fffe 	bl	0 <_ZN5druid6widget6button15Button$LT$T$GT$3new17h67bda0711e6f0540E>
  6c:	e7ff      	b.n	6e <_ZN3app5hello10ui_builder17h4ec8f3ccede85a86E+0x6e>
  6e:	a88c      	add	r0, sp, #560	; 0x230
c:\stm32bluepill-mynewt-sensor/rust\app\src/hello.rs:53
        | _ctx, data, _env |  //  Closure will receive the context, application state and environment
            *data += 1        //  We increment the counter
    );

    //  Create a column for the UI
    let mut col = Column::new();
  70:	f7ff fffe 	bl	0 <_ZN5druid6widget4flex6Column3new17h2acca85105ed520fE>
  74:	e7ff      	b.n	76 <_ZN3app5hello10ui_builder17h4ec8f3ccede85a86E+0x76>
  76:	f50d 60a2 	add.w	r0, sp, #1296	; 0x510
  7a:	a936      	add	r1, sp, #216	; 0xd8
  7c:	2278      	movs	r2, #120	; 0x78
c:\stm32bluepill-mynewt-sensor/rust\app\src/hello.rs:57
    //  Add the label widget to the column, centered with padding
    col.add_child(
        Align::centered(
            Padding::new(5.0, label)
  7e:	9003      	str	r0, [sp, #12]
  80:	f7ff fffe 	bl	0 <__aeabi_memcpy8>
  84:	f50d 6096 	add.w	r0, sp, #1200	; 0x4b0
  88:	ed9f 0b1b 	vldr	d0, [pc, #108]	; f8 <_ZN3app5hello10ui_builder17h4ec8f3ccede85a86E+0xf8>
  8c:	9903      	ldr	r1, [sp, #12]
  8e:	f7ff fffe 	bl	0 <_ZN5druid6widget7padding16Padding$LT$T$GT$3new17hbc501ec179081349E>
  92:	e7ff      	b.n	94 <_ZN3app5hello10ui_builder17h4ec8f3ccede85a86E+0x94>
  94:	f50d 6088 	add.w	r0, sp, #1088	; 0x440
  98:	f50d 6196 	add.w	r1, sp, #1200	; 0x4b0
c:\stm32bluepill-mynewt-sensor/rust\app\src/hello.rs:56
        Align::centered(
  9c:	f7ff fffe 	bl	0 <_ZN5druid6widget5align14Align$LT$T$GT$8centered17h94f2e07be09be50fE>
  a0:	e7ff      	b.n	a2 <_ZN3app5hello10ui_builder17h4ec8f3ccede85a86E+0xa2>
  a2:	a88c      	add	r0, sp, #560	; 0x230
  a4:	f50d 6188 	add.w	r1, sp, #1088	; 0x440
  a8:	ed9f 0b15 	vldr	d0, [pc, #84]	; 100 <_ZN3app5hello10ui_builder17h4ec8f3ccede85a86E+0x100>
c:\stm32bluepill-mynewt-sensor/rust\app\src/hello.rs:55
    col.add_child(
  ac:	f7ff fffe 	bl	0 <_ZN5druid6widget4flex13Flex$LT$T$GT$9add_child17h122fdaeb1ec3f2ccE>
  b0:	e7ff      	b.n	b2 <_ZN3app5hello10ui_builder17h4ec8f3ccede85a86E+0xb2>
  b2:	f50d 60bd 	add.w	r0, sp, #1512	; 0x5e8
  b6:	a96c      	add	r1, sp, #432	; 0x1b0
  b8:	2280      	movs	r2, #128	; 0x80
c:\stm32bluepill-mynewt-sensor/rust\app\src/hello.rs:63
        ),
        1.0
    );
    //  Add the button widget to the column, with padding
    col.add_child(
        Padding::new(5.0, button), 
  ba:	9002      	str	r0, [sp, #8]
  bc:	f7ff fffe 	bl	0 <__aeabi_memcpy8>
  c0:	f50d 60b1 	add.w	r0, sp, #1416	; 0x588
  c4:	ed9f 0b0c 	vldr	d0, [pc, #48]	; f8 <_ZN3app5hello10ui_builder17h4ec8f3ccede85a86E+0xf8>
  c8:	9902      	ldr	r1, [sp, #8]
  ca:	f7ff fffe 	bl	0 <_ZN5druid6widget7padding16Padding$LT$T$GT$3new17h787e8889b090bc7dE>
  ce:	e7ff      	b.n	d0 <_ZN3app5hello10ui_builder17h4ec8f3ccede85a86E+0xd0>
  d0:	a88c      	add	r0, sp, #560	; 0x230
  d2:	f50d 61b1 	add.w	r1, sp, #1416	; 0x588
  d6:	ed9f 0b0a 	vldr	d0, [pc, #40]	; 100 <_ZN3app5hello10ui_builder17h4ec8f3ccede85a86E+0x100>
c:\stm32bluepill-mynewt-sensor/rust\app\src/hello.rs:62
    col.add_child(
  da:	f7ff fffe 	bl	0 <_ZN5druid6widget4flex13Flex$LT$T$GT$9add_child17h1bcaf104bf0afa70E>
  de:	e7ff      	b.n	e0 <_ZN3app5hello10ui_builder17h4ec8f3ccede85a86E+0xe0>
  e0:	a98c      	add	r1, sp, #560	; 0x230
  e2:	f44f 7204 	mov.w	r2, #528	; 0x210
c:\stm32bluepill-mynewt-sensor/rust\app\src/hello.rs:67
        1.0
    );
    //  Return the column containing the label and button widgets
    col
  e6:	9805      	ldr	r0, [sp, #20]
  e8:	f7ff fffe 	bl	0 <__aeabi_memcpy8>
c:\stm32bluepill-mynewt-sensor/rust\app\src/hello.rs:68
  ec:	f50d 6dcd 	add.w	sp, sp, #1640	; 0x668
  f0:	bd80      	pop	{r7, pc}
  f2:	bf00      	nop
  f4:	bf00      	nop
  f6:	bf00      	nop
  f8:	00000000 	.word	0x00000000
  fc:	40140000 	.word	0x40140000
 100:	00000000 	.word	0x00000000
 104:	3ff00000 	.word	0x3ff00000

app-20d859f505b9d0c6.la2waq912fl0o34.rcgu.o:     file format elf32-littlearm

SYMBOL TABLE:
00000000 l    df *ABS*	00000000 la2waq912fl0o34
00000117 l       .debug_str	00000000 
00000235 l       .debug_str	00000000 
00000261 l       .debug_str	00000000 
0000022d l       .debug_str	00000000 
0000025c l       .debug_str	00000000 
00000225 l       .debug_str	00000000 
00000250 l       .debug_str	00000000 
00000220 l       .debug_str	00000000 
00000000 l       .debug_str	00000000 
00000041 l       .debug_str	00000000 
00000055 l       .debug_str	00000000 
00000074 l       .debug_str	00000000 
00000079 l       .debug_str	00000000 
0000007d l       .debug_str	00000000 
00000086 l       .debug_str	00000000 
00000088 l       .debug_str	00000000 
0000008c l       .debug_str	00000000 
00000093 l       .debug_str	00000000 
0000009c l       .debug_str	00000000 
0000009f l       .debug_str	00000000 
000000a9 l       .debug_str	00000000 
000000b0 l       .debug_str	00000000 
000000b6 l       .debug_str	00000000 
000000bb l       .debug_str	00000000 
000000bd l       .debug_str	00000000 
00000104 l       .debug_str	00000000 
000001c2 l       .debug_str	00000000 
0000011e l       .debug_str	00000000 
00000122 l       .debug_str	00000000 
00000127 l       .debug_str	00000000 
0000012d l       .debug_str	00000000 
00000132 l       .debug_str	00000000 
00000136 l       .debug_str	00000000 
00000144 l       .debug_str	00000000 
00000180 l       .debug_str	00000000 
00000189 l       .debug_str	00000000 
0000018e l       .debug_str	00000000 
000001b9 l       .debug_str	00000000 
0000023c l       .debug_str	00000000 
00000000 l    d  .text._ZN31_$LT$dyn$u20$core..any..Any$GT$12downcast_ref17he42563882c07b1e2E	00000000 .text._ZN31_$LT$dyn$u20$core..any..Any$GT$12downcast_ref17he42563882c07b1e2E
00000000 l    d  .text._ZN31_$LT$dyn$u20$core..any..Any$GT$2is17h2423e45f3ca19c1cE	00000000 .text._ZN31_$LT$dyn$u20$core..any..Any$GT$2is17h2423e45f3ca19c1cE
00000000 l    d  .text._ZN4core3any6TypeId2of17hdeba3b9552f96d9fE	00000000 .text._ZN4core3any6TypeId2of17hdeba3b9552f96d9fE
00000000 l    d  .text._ZN54_$LT$dyn$u20$core..any..Any$u2b$core..marker..Send$GT$12downcast_ref17h2cd40e9b3790b53aE	00000000 .text._ZN54_$LT$dyn$u20$core..any..Any$u2b$core..marker..Send$GT$12downcast_ref17h2cd40e9b3790b53aE
00000000 l    d  .debug_abbrev	00000000 .debug_abbrev
00000000 l    d  .debug_info	00000000 .debug_info
00000000 l    d  .debug_ranges	00000000 .debug_ranges
00000000 l    d  .debug_frame	00000000 .debug_frame
00000000 l    d  .debug_line	00000000 .debug_line
00000000 g     F .text._ZN31_$LT$dyn$u20$core..any..Any$GT$12downcast_ref17he42563882c07b1e2E	00000030 _ZN31_$LT$dyn$u20$core..any..Any$GT$12downcast_ref17he42563882c07b1e2E
00000000 g     F .text._ZN31_$LT$dyn$u20$core..any..Any$GT$2is17h2423e45f3ca19c1cE	00000036 _ZN31_$LT$dyn$u20$core..any..Any$GT$2is17h2423e45f3ca19c1cE
00000000 g     F .text._ZN4core3any6TypeId2of17hdeba3b9552f96d9fE	00000030 _ZN4core3any6TypeId2of17hdeba3b9552f96d9fE
00000000 g     F .text._ZN54_$LT$dyn$u20$core..any..Any$u2b$core..marker..Send$GT$12downcast_ref17h2cd40e9b3790b53aE	0000001a _ZN54_$LT$dyn$u20$core..any..Any$u2b$core..marker..Send$GT$12downcast_ref17h2cd40e9b3790b53aE
00000000         *UND*	00000000 .hidden _ZN58_$LT$core..any..TypeId$u20$as$u20$core..cmp..PartialEq$GT$2eq17haabda23117aebb75E



Disassembly of section .text._ZN31_$LT$dyn$u20$core..any..Any$GT$12downcast_ref17he42563882c07b1e2E:

00000000 <_ZN31_$LT$dyn$u20$core..any..Any$GT$12downcast_ref17he42563882c07b1e2E>:
_ZN31_$LT$dyn$u20$core..any..Any$GT$12downcast_ref17he42563882c07b1e2E():
/rustc/412f43ac5b4ae8c3599e71c6972112e9be4758fa/src/libcore/any.rs:183
   0:	b580      	push	{r7, lr}
   2:	b084      	sub	sp, #16
   4:	9001      	str	r0, [sp, #4]
   6:	9102      	str	r1, [sp, #8]
/rustc/412f43ac5b4ae8c3599e71c6972112e9be4758fa/src/libcore/any.rs:184
   8:	9801      	ldr	r0, [sp, #4]
   a:	9902      	ldr	r1, [sp, #8]
   c:	f7ff fffe 	bl	0 <_ZN31_$LT$dyn$u20$core..any..Any$GT$12downcast_ref17he42563882c07b1e2E>
  10:	9000      	str	r0, [sp, #0]
  12:	e7ff      	b.n	14 <_ZN31_$LT$dyn$u20$core..any..Any$GT$12downcast_ref17he42563882c07b1e2E+0x14>
  14:	9800      	ldr	r0, [sp, #0]
  16:	07c1      	lsls	r1, r0, #31
  18:	2900      	cmp	r1, #0
  1a:	d103      	bne.n	24 <_ZN31_$LT$dyn$u20$core..any..Any$GT$12downcast_ref17he42563882c07b1e2E+0x24>
  1c:	e7ff      	b.n	1e <_ZN31_$LT$dyn$u20$core..any..Any$GT$12downcast_ref17he42563882c07b1e2E+0x1e>
  1e:	2000      	movs	r0, #0
/rustc/412f43ac5b4ae8c3599e71c6972112e9be4758fa/src/libcore/any.rs:190
  20:	9003      	str	r0, [sp, #12]
/rustc/412f43ac5b4ae8c3599e71c6972112e9be4758fa/src/libcore/any.rs:184
  22:	e002      	b.n	2a <_ZN31_$LT$dyn$u20$core..any..Any$GT$12downcast_ref17he42563882c07b1e2E+0x2a>
/rustc/412f43ac5b4ae8c3599e71c6972112e9be4758fa/src/libcore/any.rs:187
  24:	9801      	ldr	r0, [sp, #4]
  26:	9003      	str	r0, [sp, #12]
/rustc/412f43ac5b4ae8c3599e71c6972112e9be4758fa/src/libcore/any.rs:184
  28:	e7ff      	b.n	2a <_ZN31_$LT$dyn$u20$core..any..Any$GT$12downcast_ref17he42563882c07b1e2E+0x2a>
/rustc/412f43ac5b4ae8c3599e71c6972112e9be4758fa/src/libcore/any.rs:192
  2a:	9803      	ldr	r0, [sp, #12]
  2c:	b004      	add	sp, #16
  2e:	bd80      	pop	{r7, pc}

Disassembly of section .text._ZN31_$LT$dyn$u20$core..any..Any$GT$2is17h2423e45f3ca19c1cE:

00000000 <_ZN31_$LT$dyn$u20$core..any..Any$GT$2is17h2423e45f3ca19c1cE>:
_ZN31_$LT$dyn$u20$core..any..Any$GT$2is17h2423e45f3ca19c1cE():
/rustc/412f43ac5b4ae8c3599e71c6972112e9be4758fa/src/libcore/any.rs:151
   0:	b580      	push	{r7, lr}
   2:	b088      	sub	sp, #32
   4:	9002      	str	r0, [sp, #8]
   6:	9103      	str	r1, [sp, #12]
/rustc/412f43ac5b4ae8c3599e71c6972112e9be4758fa/src/libcore/any.rs:153
   8:	f7ff fffe 	bl	0 <_ZN31_$LT$dyn$u20$core..any..Any$GT$2is17h2423e45f3ca19c1cE>
   c:	9105      	str	r1, [sp, #20]
   e:	9004      	str	r0, [sp, #16]
  10:	e7ff      	b.n	12 <_ZN31_$LT$dyn$u20$core..any..Any$GT$2is17h2423e45f3ca19c1cE+0x12>
/rustc/412f43ac5b4ae8c3599e71c6972112e9be4758fa/src/libcore/any.rs:156
  12:	9802      	ldr	r0, [sp, #8]
  14:	9903      	ldr	r1, [sp, #12]
  16:	68c9      	ldr	r1, [r1, #12]
  18:	4788      	blx	r1
  1a:	9107      	str	r1, [sp, #28]
  1c:	9006      	str	r0, [sp, #24]
  1e:	e7ff      	b.n	20 <_ZN31_$LT$dyn$u20$core..any..Any$GT$2is17h2423e45f3ca19c1cE+0x20>
  20:	a804      	add	r0, sp, #16
  22:	a906      	add	r1, sp, #24
/rustc/412f43ac5b4ae8c3599e71c6972112e9be4758fa/src/libcore/any.rs:159
  24:	f7ff fffe 	bl	0 <_ZN58_$LT$core..any..TypeId$u20$as$u20$core..cmp..PartialEq$GT$2eq17haabda23117aebb75E>
  28:	9001      	str	r0, [sp, #4]
  2a:	e7ff      	b.n	2c <_ZN31_$LT$dyn$u20$core..any..Any$GT$2is17h2423e45f3ca19c1cE+0x2c>
/rustc/412f43ac5b4ae8c3599e71c6972112e9be4758fa/src/libcore/any.rs:160
  2c:	9801      	ldr	r0, [sp, #4]
  2e:	f000 0001 	and.w	r0, r0, #1
  32:	b008      	add	sp, #32
  34:	bd80      	pop	{r7, pc}

Disassembly of section .text._ZN4core3any6TypeId2of17hdeba3b9552f96d9fE:

00000000 <_ZN4core3any6TypeId2of17hdeba3b9552f96d9fE>:
_ZN4core3any6TypeId2of17hdeba3b9552f96d9fE():
/rustc/412f43ac5b4ae8c3599e71c6972112e9be4758fa/src/libcore/any.rs:427
   0:	b086      	sub	sp, #24
   2:	f249 40d9 	movw	r0, #38105	; 0x94d9
   6:	f2c1 1010 	movt	r0, #4368	; 0x1110
/rustc/412f43ac5b4ae8c3599e71c6972112e9be4758fa/src/libcore/any.rs:433
   a:	9005      	str	r0, [sp, #20]
   c:	f249 7064 	movw	r0, #38756	; 0x9764
  10:	f2c7 00b0 	movt	r0, #28848	; 0x70b0
  14:	9004      	str	r0, [sp, #16]
  16:	9804      	ldr	r0, [sp, #16]
  18:	9905      	ldr	r1, [sp, #20]
  1a:	9001      	str	r0, [sp, #4]
  1c:	9100      	str	r1, [sp, #0]
  1e:	e7ff      	b.n	20 <_ZN4core3any6TypeId2of17hdeba3b9552f96d9fE+0x20>
/rustc/412f43ac5b4ae8c3599e71c6972112e9be4758fa/src/libcore/any.rs:428
  20:	9801      	ldr	r0, [sp, #4]
  22:	9002      	str	r0, [sp, #8]
  24:	9900      	ldr	r1, [sp, #0]
  26:	9103      	str	r1, [sp, #12]
/rustc/412f43ac5b4ae8c3599e71c6972112e9be4758fa/src/libcore/any.rs:435
  28:	9802      	ldr	r0, [sp, #8]
  2a:	9903      	ldr	r1, [sp, #12]
  2c:	b006      	add	sp, #24
  2e:	4770      	bx	lr

Disassembly of section .text._ZN54_$LT$dyn$u20$core..any..Any$u2b$core..marker..Send$GT$12downcast_ref17h2cd40e9b3790b53aE:

00000000 <_ZN54_$LT$dyn$u20$core..any..Any$u2b$core..marker..Send$GT$12downcast_ref17h2cd40e9b3790b53aE>:
_ZN54_$LT$dyn$u20$core..any..Any$u2b$core..marker..Send$GT$12downcast_ref17h2cd40e9b3790b53aE():
/rustc/412f43ac5b4ae8c3599e71c6972112e9be4758fa/src/libcore/any.rs:276
   0:	b580      	push	{r7, lr}
   2:	b084      	sub	sp, #16
   4:	9002      	str	r0, [sp, #8]
   6:	9103      	str	r1, [sp, #12]
/rustc/412f43ac5b4ae8c3599e71c6972112e9be4758fa/src/libcore/any.rs:277
   8:	9802      	ldr	r0, [sp, #8]
   a:	9903      	ldr	r1, [sp, #12]
   c:	f7ff fffe 	bl	0 <_ZN54_$LT$dyn$u20$core..any..Any$u2b$core..marker..Send$GT$12downcast_ref17h2cd40e9b3790b53aE>
  10:	9001      	str	r0, [sp, #4]
  12:	e7ff      	b.n	14 <_ZN54_$LT$dyn$u20$core..any..Any$u2b$core..marker..Send$GT$12downcast_ref17h2cd40e9b3790b53aE+0x14>
/rustc/412f43ac5b4ae8c3599e71c6972112e9be4758fa/src/libcore/any.rs:278
  14:	9801      	ldr	r0, [sp, #4]
  16:	b004      	add	sp, #16
  18:	bd80      	pop	{r7, pc}

app-20d859f505b9d0c6.pfizz5lzkxsqe1q.rcgu.o:     file format elf32-littlearm

SYMBOL TABLE:
00000000 l    df *ABS*	00000000 pfizz5lzkxsqe1q
00000803 l       .debug_str	00000000 
00002a2a l       .debug_str	00000000 
00002ab7 l       .debug_str	00000000 
00002a1f l       .debug_str	00000000 
00002a14 l       .debug_str	00000000 
00002a9c l       .debug_str	00000000 
000029f2 l       .debug_str	00000000 
00002a91 l       .debug_str	00000000 
000029ed l       .debug_str	00000000 
00002a50 l       .debug_str	00000000 
000029dd l       .debug_str	00000000 
00000000 l       .debug_str	00000000 
00000041 l       .debug_str	00000000 
00000055 l       .debug_str	00000000 
00000074 l       .debug_str	00000000 
00000079 l       .debug_str	00000000 
00000080 l       .debug_str	00000000 
00000083 l       .debug_str	00000000 
00000088 l       .debug_str	00000000 
0000008d l       .debug_str	00000000 
00000094 l       .debug_str	00000000 
0000009a l       .debug_str	00000000 
000000a1 l       .debug_str	00000000 
000000a6 l       .debug_str	00000000 
000000b1 l       .debug_str	00000000 
000000ba l       .debug_str	00000000 
000000bf l       .debug_str	00000000 
000000c5 l       .debug_str	00000000 
000000c8 l       .debug_str	00000000 
000000cc l       .debug_str	00000000 
000000d1 l       .debug_str	00000000 
000000da l       .debug_str	00000000 
000000dc l       .debug_str	00000000 
000000e0 l       .debug_str	00000000 
000000e2 l       .debug_str	00000000 
000000ec l       .debug_str	00000000 
000000f2 l       .debug_str	00000000 
000000f8 l       .debug_str	00000000 
00000104 l       .debug_str	00000000 
0000010a l       .debug_str	00000000 
0000010f l       .debug_str	00000000 
00000112 l       .debug_str	00000000 
00000115 l       .debug_str	00000000 
00000118 l       .debug_str	00000000 
0000011b l       .debug_str	00000000 
00000120 l       .debug_str	00000000 
0000012c l       .debug_str	00000000 
00000131 l       .debug_str	00000000 
00000138 l       .debug_str	00000000 
00000142 l       .debug_str	00000000 
0000014d l       .debug_str	00000000 
0000015a l       .debug_str	00000000 
00000168 l       .debug_str	00000000 
00000172 l       .debug_str	00000000 
00000180 l       .debug_str	00000000 
0000018a l       .debug_str	00000000 
00000193 l       .debug_str	00000000 
00000195 l       .debug_str	00000000 
00000199 l       .debug_str	00000000 
000001a5 l       .debug_str	00000000 
000001a9 l       .debug_str	00000000 
000001af l       .debug_str	00000000 
000001b9 l       .debug_str	00000000 
000001bd l       .debug_str	00000000 
000001c4 l       .debug_str	00000000 
000001d5 l       .debug_str	00000000 
000001d7 l       .debug_str	00000000 
000001e6 l       .debug_str	00000000 
000001e8 l       .debug_str	00000000 
00000221 l       .debug_str	00000000 
0000022e l       .debug_str	00000000 
00000232 l       .debug_str	00000000 
0000023e l       .debug_str	00000000 
0000024c l       .debug_str	00000000 
00000257 l       .debug_str	00000000 
00000260 l       .debug_str	00000000 
00000268 l       .debug_str	00000000 
0000026d l       .debug_str	00000000 
00000273 l       .debug_str	00000000 
00000277 l       .debug_str	00000000 
0000027e l       .debug_str	00000000 
0000028b l       .debug_str	00000000 
000002ca l       .debug_str	00000000 
000002f8 l       .debug_str	00000000 
0000033c l       .debug_str	00000000 
0000036f l       .debug_str	00000000 
000003da l       .debug_str	00000000 
000003e5 l       .debug_str	00000000 
00000455 l       .debug_str	00000000 
00000461 l       .debug_str	00000000 
000004d2 l       .debug_str	00000000 
000004df l       .debug_str	00000000 
000004e5 l       .debug_str	00000000 
000004ec l       .debug_str	00000000 
000004f3 l       .debug_str	00000000 
000004f9 l       .debug_str	00000000 
000004fe l       .debug_str	00000000 
00000508 l       .debug_str	00000000 
00000515 l       .debug_str	00000000 
00000519 l       .debug_str	00000000 
00000522 l       .debug_str	00000000 
0000052c l       .debug_str	00000000 
00000533 l       .debug_str	00000000 
00000539 l       .debug_str	00000000 
0000053e l       .debug_str	00000000 
0000054a l       .debug_str	00000000 
00000553 l       .debug_str	00000000 
0000055a l       .debug_str	00000000 
0000055c l       .debug_str	00000000 
00000560 l       .debug_str	00000000 
00000567 l       .debug_str	00000000 
0000056b l       .debug_str	00000000 
00000578 l       .debug_str	00000000 
0000057f l       .debug_str	00000000 
00000582 l       .debug_str	00000000 
00000588 l       .debug_str	00000000 
00000596 l       .debug_str	00000000 
000005a4 l       .debug_str	00000000 
000005a9 l       .debug_str	00000000 
000005b1 l       .debug_str	00000000 
000005b9 l       .debug_str	00000000 
000005bb l       .debug_str	00000000 
000005d7 l       .debug_str	00000000 
000005df l       .debug_str	00000000 
000005ef l       .debug_str	00000000 
00000634 l       .debug_str	00000000 
000006a1 l       .debug_str	00000000 
00000737 l       .debug_str	00000000 
000007f6 l       .debug_str	00000000 
000007fe l       .debug_str	00000000 
000029d5 l       .debug_str	00000000 
00000809 l       .debug_str	00000000 
0000080d l       .debug_str	00000000 
00000810 l       .debug_str	00000000 
00000839 l       .debug_str	00000000 
0000086f l       .debug_str	00000000 
00000871 l       .debug_str	00000000 
0000089e l       .debug_str	00000000 
000008a1 l       .debug_str	00000000 
000008f1 l       .debug_str	00000000 
0000094e l       .debug_str	00000000 
000009a2 l       .debug_str	00000000 
00000a19 l       .debug_str	00000000 
00000a9d l       .debug_str	00000000 
00000b18 l       .debug_str	00000000 
00000bb6 l       .debug_str	00000000 
00000c61 l       .debug_str	00000000 
00000d03 l       .debug_str	00000000 
00000dc8 l       .debug_str	00000000 
00000e9a l       .debug_str	00000000 
00000f63 l       .debug_str	00000000 
0000104d l       .debug_str	00000000 
00001154 l       .debug_str	00000000 
0000125a l       .debug_str	00000000 
0000125e l       .debug_str	00000000 
00001260 l       .debug_str	00000000 
0000135e l       .debug_str	00000000 
0000145f l       .debug_str	00000000 
00001461 l       .debug_str	00000000 
00001541 l       .debug_str	00000000 
0000163b l       .debug_str	00000000 
00001640 l       .debug_str	00000000 
00001649 l       .debug_str	00000000 
00001650 l       .debug_str	00000000 
00001654 l       .debug_str	00000000 
0000165a l       .debug_str	00000000 
00001663 l       .debug_str	00000000 
00001668 l       .debug_str	00000000 
0000166c l       .debug_str	00000000 
0000167d l       .debug_str	00000000 
000016b5 l       .debug_str	00000000 
000016c4 l       .debug_str	00000000 
000016f0 l       .debug_str	00000000 
00001735 l       .debug_str	00000000 
0000176e l       .debug_str	00000000 
00001805 l       .debug_str	00000000 
000018a3 l       .debug_str	00000000 
0000195e l       .debug_str	00000000 
00001a18 l       .debug_str	00000000 
00001aca l       .debug_str	00000000 
00001b5f l       .debug_str	00000000 
00001c0b l       .debug_str	00000000 
00001c14 l       .debug_str	00000000 
00001c29 l       .debug_str	00000000 
00001c32 l       .debug_str	00000000 
00001c41 l       .debug_str	00000000 
00001c4c l       .debug_str	00000000 
00001c53 l       .debug_str	00000000 
00001c5b l       .debug_str	00000000 
00001c67 l       .debug_str	00000000 
00001c6e l       .debug_str	00000000 
00001c76 l       .debug_str	00000000 
00001c7e l       .debug_str	00000000 
00001c85 l       .debug_str	00000000 
00001c99 l       .debug_str	00000000 
00001ca5 l       .debug_str	00000000 
00001cb1 l       .debug_str	00000000 
00001cbb l       .debug_str	00000000 
00001cc4 l       .debug_str	00000000 
00001ccd l       .debug_str	00000000 
00001cd6 l       .debug_str	00000000 
00001cde l       .debug_str	00000000 
00001cea l       .debug_str	00000000 
00001cf2 l       .debug_str	00000000 
00001d04 l       .debug_str	00000000 
00001d0d l       .debug_str	00000000 
00001d40 l       .debug_str	00000000 
00001d74 l       .debug_str	00000000 
00001dbe l       .debug_str	00000000 
00001dc9 l       .debug_str	00000000 
00001ddf l       .debug_str	00000000 
00001dea l       .debug_str	00000000 
00001df5 l       .debug_str	00000000 
00001dfd l       .debug_str	00000000 
00001e0b l       .debug_str	00000000 
00001e25 l       .debug_str	00000000 
00001e2e l       .debug_str	00000000 
00001e68 l       .debug_str	00000000 
00001e74 l       .debug_str	00000000 
00001e79 l       .debug_str	00000000 
00001e83 l       .debug_str	00000000 
00001e8c l       .debug_str	00000000 
00001e93 l       .debug_str	00000000 
00001e9a l       .debug_str	00000000 
00001eab l       .debug_str	00000000 
00001eea l       .debug_str	00000000 
00001f1d l       .debug_str	00000000 
00001fa8 l       .debug_str	00000000 
0000207f l       .debug_str	00000000 
000021a2 l       .debug_str	00000000 
00002219 l       .debug_str	00000000 
0000229d l       .debug_str	00000000 
00002318 l       .debug_str	00000000 
000023b6 l       .debug_str	00000000 
00002461 l       .debug_str	00000000 
00002503 l       .debug_str	00000000 
000025e9 l       .debug_str	00000000 
000026ec l       .debug_str	00000000 
000027ee l       .debug_str	00000000 
000028e8 l       .debug_str	00000000 
000029c5 l       .debug_str	00000000 
000029cf l       .debug_str	00000000 
00002a45 l       .debug_str	00000000 
00000000 l     O .rodata.cst16	00000010 .Lanon.328cac60c1c7007dc22132d40fee212e.0
00000000 l    d  .text._ZN5druid6widget5align14Align$LT$T$GT$3new17h3a6bc14861269efcE	00000000 .text._ZN5druid6widget5align14Align$LT$T$GT$3new17h3a6bc14861269efcE
00000000 l    d  .text._ZN5druid6widget5align14Align$LT$T$GT$8centered17h94f2e07be09be50fE	00000000 .text._ZN5druid6widget5align14Align$LT$T$GT$8centered17h94f2e07be09be50fE
00000000 l    d  .text._ZN75_$LT$druid..widget..align..Align$LT$T$GT$$u20$as$u20$core..clone..Clone$GT$5clone17hd77e56ced3301779E	00000000 .text._ZN75_$LT$druid..widget..align..Align$LT$T$GT$$u20$as$u20$core..clone..Clone$GT$5clone17hd77e56ced3301779E
00000000 l    d  .text._ZN79_$LT$druid..widget..align..Align$LT$T$GT$$u20$as$u20$druid..Widget$LT$T$GT$$GT$6get_id17haaf3069bb0456830E	00000000 .text._ZN79_$LT$druid..widget..align..Align$LT$T$GT$$u20$as$u20$druid..Widget$LT$T$GT$$GT$6get_id17haaf3069bb0456830E
00000000 l    d  .text._ZN79_$LT$druid..widget..align..Align$LT$T$GT$$u20$as$u20$druid..Widget$LT$T$GT$$GT$7to_type17hfb67a2bd11e889deE	00000000 .text._ZN79_$LT$druid..widget..align..Align$LT$T$GT$$u20$as$u20$druid..Widget$LT$T$GT$$GT$7to_type17hfb67a2bd11e889deE
00000000 l    d  .debug_loc	00000000 .debug_loc
00000000 l    d  .debug_abbrev	00000000 .debug_abbrev
00000000 l    d  .debug_info	00000000 .debug_info
00000000 l    d  .debug_ranges	00000000 .debug_ranges
00000000 l    d  .debug_frame	00000000 .debug_frame
00000000 l    d  .debug_line	00000000 .debug_line
00000000         *UND*	00000000 .hidden _ZN4core5clone5impls52_$LT$impl$u20$core..clone..Clone$u20$for$u20$u32$GT$5clone17h4ab28dfacb141a1cE
00000000         *UND*	00000000 _ZN5druid22WidgetPod$LT$T$C$W$GT$3new17h2ac355bd34c07ccaE
00000000         *UND*	00000000 _ZN5druid6widget13get_widget_id17h9c14066043a9a7f2E
00000000 g     F .text._ZN5druid6widget5align14Align$LT$T$GT$3new17h3a6bc14861269efcE	000000aa _ZN5druid6widget5align14Align$LT$T$GT$3new17h3a6bc14861269efcE
00000000 g     F .text._ZN5druid6widget5align14Align$LT$T$GT$8centered17h94f2e07be09be50fE	00000032 _ZN5druid6widget5align14Align$LT$T$GT$8centered17h94f2e07be09be50fE
00000000         *UND*	00000000 _ZN5druid6widget9widgetbox18WidgetBox$LT$D$GT$3new17h5625da0e7209a390E
00000000         *UND*	00000000 .hidden _ZN64_$LT$piet..gradient..UnitPoint$u20$as$u20$core..clone..Clone$GT$5clone17h850cb2a7b0f5ab97E
00000000         *UND*	00000000 _ZN68_$LT$core..option..Option$LT$T$GT$$u20$as$u20$core..clone..Clone$GT$5clone17hdd16c8db13934a5fE
00000000         *UND*	00000000 _ZN68_$LT$druid..WidgetPod$LT$T$C$W$GT$$u20$as$u20$core..clone..Clone$GT$5clone17hf0eedee77df69b8fE
00000000 g     F .text._ZN75_$LT$druid..widget..align..Align$LT$T$GT$$u20$as$u20$core..clone..Clone$GT$5clone17hd77e56ced3301779E	000000ca _ZN75_$LT$druid..widget..align..Align$LT$T$GT$$u20$as$u20$core..clone..Clone$GT$5clone17hd77e56ced3301779E
00000000 g     F .text._ZN79_$LT$druid..widget..align..Align$LT$T$GT$$u20$as$u20$druid..Widget$LT$T$GT$$GT$6get_id17haaf3069bb0456830E	0000000e _ZN79_$LT$druid..widget..align..Align$LT$T$GT$$u20$as$u20$druid..Widget$LT$T$GT$$GT$6get_id17haaf3069bb0456830E
00000000 g     F .text._ZN79_$LT$druid..widget..align..Align$LT$T$GT$$u20$as$u20$druid..Widget$LT$T$GT$$GT$7to_type17hfb67a2bd11e889deE	00000030 _ZN79_$LT$druid..widget..align..Align$LT$T$GT$$u20$as$u20$druid..Widget$LT$T$GT$$GT$7to_type17hfb67a2bd11e889deE
00000000         *UND*	00000000 __aeabi_memcpy8



Disassembly of section .text._ZN5druid6widget5align14Align$LT$T$GT$3new17h3a6bc14861269efcE:

00000000 <_ZN5druid6widget5align14Align$LT$T$GT$3new17h3a6bc14861269efcE>:
_ZN5druid6widget5align14Align$LT$T$GT$3new17h3a6bc14861269efcE():
C:\druid-embedded\druid\src\widget/align.rs:44
    /// Create widget with alignment.
    ///
    /// Note that the `align` parameter is specified as a `UnitPoint` in
    /// terms of left and right. This is inadequate for bidi-aware layout
    /// and thus the API will change when druid gains bidi capability.
    pub fn new<W: Widget<T> + Clone>(align: UnitPoint, child: W) -> Align<T> { ////
   0:	b570      	push	{r4, r5, r6, lr}
   2:	b0bc      	sub	sp, #240	; 0xf0
   4:	ed8d 0b0a 	vstr	d0, [sp, #40]	; 0x28
   8:	ed8d 1b0c 	vstr	d1, [sp, #48]	; 0x30
C:\druid-embedded\druid\src\widget/align.rs:47
    ////pub fn new(align: UnitPoint, child: impl Widget<T> + 'static) -> Align<T> {
        Align {
            id: super::get_widget_id(), ////
   c:	9109      	str	r1, [sp, #36]	; 0x24
   e:	9008      	str	r0, [sp, #32]
  10:	f7ff fffe 	bl	0 <_ZN5druid6widget13get_widget_id17h9c14066043a9a7f2E>
  14:	9007      	str	r0, [sp, #28]
  16:	e7ff      	b.n	18 <_ZN5druid6widget5align14Align$LT$T$GT$3new17h3a6bc14861269efcE+0x18>
C:\druid-embedded\druid\src\widget/align.rs:48
            align,
  18:	ed9d 0b0a 	vldr	d0, [sp, #40]	; 0x28
  1c:	ed9d 1b0c 	vldr	d1, [sp, #48]	; 0x30
  20:	a81c      	add	r0, sp, #112	; 0x70
  22:	2260      	movs	r2, #96	; 0x60
C:\druid-embedded\druid\src\widget/align.rs:50
            child: WidgetPod::new( ////
                WidgetBox::<T>::new(child)
  24:	9006      	str	r0, [sp, #24]
  26:	9909      	ldr	r1, [sp, #36]	; 0x24
  28:	ed8d 0b04 	vstr	d0, [sp, #16]
  2c:	ed8d 1b02 	vstr	d1, [sp, #8]
  30:	f7ff fffe 	bl	0 <__aeabi_memcpy8>
  34:	9806      	ldr	r0, [sp, #24]
  36:	f7ff fffe 	bl	0 <_ZN5druid6widget9widgetbox18WidgetBox$LT$D$GT$3new17h5625da0e7209a390E>
  3a:	9001      	str	r0, [sp, #4]
  3c:	e7ff      	b.n	3e <_ZN5druid6widget5align14Align$LT$T$GT$3new17h3a6bc14861269efcE+0x3e>
  3e:	a80e      	add	r0, sp, #56	; 0x38
C:\druid-embedded\druid\src\widget/align.rs:49
            child: WidgetPod::new( ////
  40:	9901      	ldr	r1, [sp, #4]
  42:	f7ff fffe 	bl	0 <_ZN5druid22WidgetPod$LT$T$C$W$GT$3new17h2ac355bd34c07ccaE>
  46:	e7ff      	b.n	48 <_ZN5druid6widget5align14Align$LT$T$GT$3new17h3a6bc14861269efcE+0x48>
  48:	2000      	movs	r0, #0
C:\druid-embedded\druid\src\widget/align.rs:53
            ),
            ////child: WidgetPod::new(child).boxed(),
            width_factor: None,
  4a:	9035      	str	r0, [sp, #212]	; 0xd4
  4c:	9034      	str	r0, [sp, #208]	; 0xd0
C:\druid-embedded\druid\src\widget/align.rs:54
            height_factor: None,
  4e:	9039      	str	r0, [sp, #228]	; 0xe4
  50:	9038      	str	r0, [sp, #224]	; 0xe0
C:\druid-embedded\druid\src\widget/align.rs:46
        Align {
  52:	9807      	ldr	r0, [sp, #28]
  54:	9908      	ldr	r1, [sp, #32]
  56:	6688      	str	r0, [r1, #104]	; 0x68
  58:	ed9d 0b04 	vldr	d0, [sp, #16]
  5c:	ed81 0b00 	vstr	d0, [r1]
  60:	ed9d 1b02 	vldr	d1, [sp, #8]
  64:	ed81 1b02 	vstr	d1, [r1, #8]
  68:	f101 0210 	add.w	r2, r1, #16
  6c:	ab0e      	add	r3, sp, #56	; 0x38
  6e:	e8b3 5030 	ldmia.w	r3!, {r4, r5, ip, lr}
  72:	e8a2 5030 	stmia.w	r2!, {r4, r5, ip, lr}
  76:	e8b3 5070 	ldmia.w	r3!, {r4, r5, r6, ip, lr}
  7a:	e8a2 5070 	stmia.w	r2!, {r4, r5, r6, ip, lr}
  7e:	e893 5070 	ldmia.w	r3, {r4, r5, r6, ip, lr}
  82:	e882 5070 	stmia.w	r2, {r4, r5, r6, ip, lr}
  86:	9a34      	ldr	r2, [sp, #208]	; 0xd0
  88:	9b35      	ldr	r3, [sp, #212]	; 0xd4
  8a:	ed9d 2b36 	vldr	d2, [sp, #216]	; 0xd8
  8e:	64cb      	str	r3, [r1, #76]	; 0x4c
  90:	648a      	str	r2, [r1, #72]	; 0x48
  92:	ed81 2b14 	vstr	d2, [r1, #80]	; 0x50
  96:	9a38      	ldr	r2, [sp, #224]	; 0xe0
  98:	9b39      	ldr	r3, [sp, #228]	; 0xe4
  9a:	ed9d 2b3a 	vldr	d2, [sp, #232]	; 0xe8
  9e:	65cb      	str	r3, [r1, #92]	; 0x5c
  a0:	658a      	str	r2, [r1, #88]	; 0x58
  a2:	ed81 2b18 	vstr	d2, [r1, #96]	; 0x60
C:\druid-embedded\druid\src\widget/align.rs:56
        }
    }
  a6:	b03c      	add	sp, #240	; 0xf0
  a8:	bd70      	pop	{r4, r5, r6, pc}

Disassembly of section .text._ZN5druid6widget5align14Align$LT$T$GT$8centered17h94f2e07be09be50fE:

00000000 <_ZN5druid6widget5align14Align$LT$T$GT$8centered17h94f2e07be09be50fE>:
_ZN5druid6widget5align14Align$LT$T$GT$8centered17h94f2e07be09be50fE():
C:\druid-embedded\druid\src\widget/align.rs:59

    /// Create centered widget.
    pub fn centered<W: Widget<T> + Clone>(child: W) -> Align<T> { ////
   0:	b580      	push	{r7, lr}
   2:	b09a      	sub	sp, #104	; 0x68
   4:	aa02      	add	r2, sp, #8
   6:	2360      	movs	r3, #96	; 0x60
C:\druid-embedded\druid\src\widget/align.rs:61
    ////pub fn centered(child: impl Widget<T> + 'static) -> Align<T> {
        Align::new(UnitPoint::CENTER, child)
   8:	9001      	str	r0, [sp, #4]
   a:	4610      	mov	r0, r2
   c:	9200      	str	r2, [sp, #0]
   e:	461a      	mov	r2, r3
  10:	f7ff fffe 	bl	0 <__aeabi_memcpy8>
  14:	f240 0000 	movw	r0, #0
  18:	f2c0 0000 	movt	r0, #0
  1c:	ed90 0b00 	vldr	d0, [r0]
  20:	ed90 1b02 	vldr	d1, [r0, #8]
  24:	9801      	ldr	r0, [sp, #4]
  26:	9900      	ldr	r1, [sp, #0]
  28:	f7ff fffe 	bl	0 <_ZN5druid6widget5align14Align$LT$T$GT$8centered17h94f2e07be09be50fE>
  2c:	e7ff      	b.n	2e <_ZN5druid6widget5align14Align$LT$T$GT$8centered17h94f2e07be09be50fE+0x2e>
C:\druid-embedded\druid\src\widget/align.rs:62
    }
  2e:	b01a      	add	sp, #104	; 0x68
  30:	bd80      	pop	{r7, pc}

Disassembly of section .text._ZN75_$LT$druid..widget..align..Align$LT$T$GT$$u20$as$u20$core..clone..Clone$GT$5clone17hd77e56ced3301779E:

00000000 <_ZN75_$LT$druid..widget..align..Align$LT$T$GT$$u20$as$u20$core..clone..Clone$GT$5clone17hd77e56ced3301779E>:
_ZN75_$LT$druid..widget..align..Align$LT$T$GT$$u20$as$u20$core..clone..Clone$GT$5clone17hd77e56ced3301779E():
C:\druid-embedded\druid\src\widget/align.rs:26
#[derive(Clone)] ////
   0:	b570      	push	{r4, r5, r6, lr}
   2:	b0a2      	sub	sp, #136	; 0x88
   4:	910e      	str	r1, [sp, #56]	; 0x38
C:\druid-embedded\druid\src\widget/align.rs:29
    id: u32, //// Unique Widget ID
   6:	990e      	ldr	r1, [sp, #56]	; 0x38
   8:	3168      	adds	r1, #104	; 0x68
   a:	910f      	str	r1, [sp, #60]	; 0x3c
C:\druid-embedded\druid\src\widget/align.rs:30
    align: UnitPoint,
   c:	990e      	ldr	r1, [sp, #56]	; 0x38
   e:	9110      	str	r1, [sp, #64]	; 0x40
C:\druid-embedded\druid\src\widget/align.rs:31
    child: WidgetPod<T, WidgetBox<T>>, ////
  10:	990e      	ldr	r1, [sp, #56]	; 0x38
  12:	3110      	adds	r1, #16
  14:	9111      	str	r1, [sp, #68]	; 0x44
C:\druid-embedded\druid\src\widget/align.rs:33
    width_factor: Option<f64>,
  16:	990e      	ldr	r1, [sp, #56]	; 0x38
  18:	3148      	adds	r1, #72	; 0x48
  1a:	9112      	str	r1, [sp, #72]	; 0x48
C:\druid-embedded\druid\src\widget/align.rs:34
    height_factor: Option<f64>,
  1c:	990e      	ldr	r1, [sp, #56]	; 0x38
  1e:	3158      	adds	r1, #88	; 0x58
  20:	9113      	str	r1, [sp, #76]	; 0x4c
C:\druid-embedded\druid\src\widget/align.rs:29
    id: u32, //// Unique Widget ID
  22:	990f      	ldr	r1, [sp, #60]	; 0x3c
  24:	900d      	str	r0, [sp, #52]	; 0x34
  26:	4608      	mov	r0, r1
  28:	f7ff fffe 	bl	0 <_ZN4core5clone5impls52_$LT$impl$u20$core..clone..Clone$u20$for$u20$u32$GT$5clone17h4ab28dfacb141a1cE>
  2c:	900c      	str	r0, [sp, #48]	; 0x30
  2e:	e7ff      	b.n	30 <_ZN75_$LT$druid..widget..align..Align$LT$T$GT$$u20$as$u20$core..clone..Clone$GT$5clone17hd77e56ced3301779E+0x30>
C:\druid-embedded\druid\src\widget/align.rs:30
    align: UnitPoint,
  30:	9810      	ldr	r0, [sp, #64]	; 0x40
  32:	f7ff fffe 	bl	0 <_ZN64_$LT$piet..gradient..UnitPoint$u20$as$u20$core..clone..Clone$GT$5clone17h850cb2a7b0f5ab97E>
  36:	ed8d 0b0a 	vstr	d0, [sp, #40]	; 0x28
  3a:	ed8d 1b08 	vstr	d1, [sp, #32]
  3e:	e7ff      	b.n	40 <_ZN75_$LT$druid..widget..align..Align$LT$T$GT$$u20$as$u20$core..clone..Clone$GT$5clone17hd77e56ced3301779E+0x40>
C:\druid-embedded\druid\src\widget/align.rs:31
    child: WidgetPod<T, WidgetBox<T>>, ////
  40:	9911      	ldr	r1, [sp, #68]	; 0x44
  42:	a814      	add	r0, sp, #80	; 0x50
  44:	f7ff fffe 	bl	0 <_ZN68_$LT$druid..WidgetPod$LT$T$C$W$GT$$u20$as$u20$core..clone..Clone$GT$5clone17hf0eedee77df69b8fE>
  48:	e7ff      	b.n	4a <_ZN75_$LT$druid..widget..align..Align$LT$T$GT$$u20$as$u20$core..clone..Clone$GT$5clone17hd77e56ced3301779E+0x4a>
C:\druid-embedded\druid\src\widget/align.rs:33
    width_factor: Option<f64>,
  4a:	9812      	ldr	r0, [sp, #72]	; 0x48
  4c:	f7ff fffe 	bl	0 <_ZN68_$LT$core..option..Option$LT$T$GT$$u20$as$u20$core..clone..Clone$GT$5clone17hdd16c8db13934a5fE>
  50:	9107      	str	r1, [sp, #28]
  52:	9006      	str	r0, [sp, #24]
  54:	ed8d 0b04 	vstr	d0, [sp, #16]
  58:	e7ff      	b.n	5a <_ZN75_$LT$druid..widget..align..Align$LT$T$GT$$u20$as$u20$core..clone..Clone$GT$5clone17hd77e56ced3301779E+0x5a>
C:\druid-embedded\druid\src\widget/align.rs:34
    height_factor: Option<f64>,
  5a:	9813      	ldr	r0, [sp, #76]	; 0x4c
  5c:	f7ff fffe 	bl	0 <_ZN68_$LT$core..option..Option$LT$T$GT$$u20$as$u20$core..clone..Clone$GT$5clone17hdd16c8db13934a5fE>
  60:	9103      	str	r1, [sp, #12]
  62:	9002      	str	r0, [sp, #8]
  64:	ed8d 0b00 	vstr	d0, [sp]
  68:	e7ff      	b.n	6a <_ZN75_$LT$druid..widget..align..Align$LT$T$GT$$u20$as$u20$core..clone..Clone$GT$5clone17hd77e56ced3301779E+0x6a>
C:\druid-embedded\druid\src\widget/align.rs:26
#[derive(Clone)] ////
  6a:	980c      	ldr	r0, [sp, #48]	; 0x30
  6c:	990d      	ldr	r1, [sp, #52]	; 0x34
  6e:	6688      	str	r0, [r1, #104]	; 0x68
  70:	ed9d 0b0a 	vldr	d0, [sp, #40]	; 0x28
  74:	ed81 0b00 	vstr	d0, [r1]
  78:	ed9d 1b08 	vldr	d1, [sp, #32]
  7c:	ed81 1b02 	vstr	d1, [r1, #8]
  80:	f101 0210 	add.w	r2, r1, #16
  84:	ab14      	add	r3, sp, #80	; 0x50
  86:	e8b3 5030 	ldmia.w	r3!, {r4, r5, ip, lr}
  8a:	e8a2 5030 	stmia.w	r2!, {r4, r5, ip, lr}
  8e:	e8b3 5070 	ldmia.w	r3!, {r4, r5, r6, ip, lr}
  92:	e8a2 5070 	stmia.w	r2!, {r4, r5, r6, ip, lr}
  96:	e893 5070 	ldmia.w	r3, {r4, r5, r6, ip, lr}
  9a:	e882 5070 	stmia.w	r2, {r4, r5, r6, ip, lr}
  9e:	9a07      	ldr	r2, [sp, #28]
  a0:	64ca      	str	r2, [r1, #76]	; 0x4c
  a2:	9b06      	ldr	r3, [sp, #24]
  a4:	648b      	str	r3, [r1, #72]	; 0x48
  a6:	ed9d 2b04 	vldr	d2, [sp, #16]
  aa:	ed81 2b14 	vstr	d2, [r1, #80]	; 0x50
  ae:	f8dd c00c 	ldr.w	ip, [sp, #12]
  b2:	f8c1 c05c 	str.w	ip, [r1, #92]	; 0x5c
  b6:	f8dd e008 	ldr.w	lr, [sp, #8]
  ba:	f8c1 e058 	str.w	lr, [r1, #88]	; 0x58
  be:	ed9d 3b00 	vldr	d3, [sp]
  c2:	ed81 3b18 	vstr	d3, [r1, #96]	; 0x60
  c6:	b022      	add	sp, #136	; 0x88
  c8:	bd70      	pop	{r4, r5, r6, pc}

Disassembly of section .text._ZN79_$LT$druid..widget..align..Align$LT$T$GT$$u20$as$u20$druid..Widget$LT$T$GT$$GT$6get_id17haaf3069bb0456830E:

00000000 <_ZN79_$LT$druid..widget..align..Align$LT$T$GT$$u20$as$u20$druid..Widget$LT$T$GT$$GT$6get_id17haaf3069bb0456830E>:
_ZN79_$LT$druid..widget..align..Align$LT$T$GT$$u20$as$u20$druid..Widget$LT$T$GT$$GT$6get_id17haaf3069bb0456830E():
C:\druid-embedded\druid\src\widget/align.rs:170
            WindowType::Align(window),
        );
        window_box
    }

    fn get_id(self) -> u32 { ////
   0:	b081      	sub	sp, #4
C:\druid-embedded\druid\src\widget/align.rs:171
        self.id
   2:	6e80      	ldr	r0, [r0, #104]	; 0x68
C:\druid-embedded\druid\src\widget/align.rs:172
    }
   4:	9000      	str	r0, [sp, #0]
   6:	e7ff      	b.n	8 <_ZN79_$LT$druid..widget..align..Align$LT$T$GT$$u20$as$u20$druid..Widget$LT$T$GT$$GT$6get_id17haaf3069bb0456830E+0x8>
   8:	9800      	ldr	r0, [sp, #0]
   a:	b001      	add	sp, #4
   c:	4770      	bx	lr

Disassembly of section .text._ZN79_$LT$druid..widget..align..Align$LT$T$GT$$u20$as$u20$druid..Widget$LT$T$GT$$GT$7to_type17hfb67a2bd11e889deE:

00000000 <_ZN79_$LT$druid..widget..align..Align$LT$T$GT$$u20$as$u20$druid..Widget$LT$T$GT$$GT$7to_type17hfb67a2bd11e889deE>:
_ZN79_$LT$druid..widget..align..Align$LT$T$GT$$u20$as$u20$druid..Widget$LT$T$GT$$GT$7to_type17hfb67a2bd11e889deE():
C:\druid-embedded\druid\src\widget/align.rs:158
    fn to_type(self) -> WidgetType<T> { ////
   0:	b580      	push	{r7, lr}
   2:	b0a0      	sub	sp, #128	; 0x80
   4:	aa04      	add	r2, sp, #16
   6:	2370      	movs	r3, #112	; 0x70
C:\druid-embedded\druid\src\widget/align.rs:159
        WidgetType::Align(self)
   8:	9003      	str	r0, [sp, #12]
   a:	4610      	mov	r0, r2
   c:	9202      	str	r2, [sp, #8]
   e:	461a      	mov	r2, r3
  10:	9301      	str	r3, [sp, #4]
  12:	f7ff fffe 	bl	0 <__aeabi_memcpy8>
  16:	9803      	ldr	r0, [sp, #12]
  18:	3008      	adds	r0, #8
  1a:	9902      	ldr	r1, [sp, #8]
  1c:	9a01      	ldr	r2, [sp, #4]
  1e:	f7ff fffe 	bl	0 <__aeabi_memcpy8>
  22:	2000      	movs	r0, #0
  24:	9903      	ldr	r1, [sp, #12]
  26:	6048      	str	r0, [r1, #4]
  28:	2001      	movs	r0, #1
  2a:	6008      	str	r0, [r1, #0]
C:\druid-embedded\druid\src\widget/align.rs:160
    }
  2c:	b020      	add	sp, #128	; 0x80
  2e:	bd80      	pop	{r7, pc}
arm-none-eabi-objdump: lib.rmeta: File format not recognized
arm-none-eabi-objdump: app-20d859f505b9d0c6.14082d7ltf3d6dwg.rcgu.bc.z: File format not recognized
arm-none-eabi-objdump: app-20d859f505b9d0c6.14p2q1kwod7oja8t.rcgu.bc.z: File format not recognized
arm-none-eabi-objdump: app-20d859f505b9d0c6.18n7iqgy528nsvjt.rcgu.bc.z: File format not recognized
arm-none-eabi-objdump: app-20d859f505b9d0c6.19dwc2mnbbgim6jc.rcgu.bc.z: File format not recognized
arm-none-eabi-objdump: app-20d859f505b9d0c6.1a6f8bephvk1fr4g.rcgu.bc.z: File format not recognized
arm-none-eabi-objdump: app-20d859f505b9d0c6.1b98kkshwcc04tut.rcgu.bc.z: File format not recognized
arm-none-eabi-objdump: app-20d859f505b9d0c6.1ed7rosnndxp10vg.rcgu.bc.z: File format not recognized
arm-none-eabi-objdump: app-20d859f505b9d0c6.1eo19gfrh6vnwbmr.rcgu.bc.z: File format not recognized
arm-none-eabi-objdump: app-20d859f505b9d0c6.1g4oe7m47eory3y5.rcgu.bc.z: File format not recognized
arm-none-eabi-objdump: app-20d859f505b9d0c6.1xdts4xl296y509p.rcgu.bc.z: File format not recognized
arm-none-eabi-objdump: app-20d859f505b9d0c6.1yhao51du9mcqh5y.rcgu.bc.z: File format not recognized
arm-none-eabi-objdump: app-20d859f505b9d0c6.1zqip1qc0o74ogd5.rcgu.bc.z: File format not recognized
arm-none-eabi-objdump: app-20d859f505b9d0c6.2bdqsc3eyi3sjequ.rcgu.bc.z: File format not recognized
arm-none-eabi-objdump: app-20d859f505b9d0c6.2bk048bah1k21iz3.rcgu.bc.z: File format not recognized
arm-none-eabi-objdump: app-20d859f505b9d0c6.2qnjvvnwarsulmau.rcgu.bc.z: File format not recognized
arm-none-eabi-objdump: app-20d859f505b9d0c6.2r9gkoiocrjag5it.rcgu.bc.z: File format not recognized
arm-none-eabi-objdump: app-20d859f505b9d0c6.2t32q96bler6915q.rcgu.bc.z: File format not recognized
arm-none-eabi-objdump: app-20d859f505b9d0c6.2u91xbdak6zk0bqa.rcgu.bc.z: File format not recognized
arm-none-eabi-objdump: app-20d859f505b9d0c6.2vvdwpgnhermo2sv.rcgu.bc.z: File format not recognized
arm-none-eabi-objdump: app-20d859f505b9d0c6.2w4n0dwo1ca74y13.rcgu.bc.z: File format not recognized
arm-none-eabi-objdump: app-20d859f505b9d0c6.2wbpmy5mrje627rx.rcgu.bc.z: File format not recognized
arm-none-eabi-objdump: app-20d859f505b9d0c6.31u1tg8zos31rgt1.rcgu.bc.z: File format not recognized
arm-none-eabi-objdump: app-20d859f505b9d0c6.37bppyefbmrtw3yv.rcgu.bc.z: File format not recognized
arm-none-eabi-objdump: app-20d859f505b9d0c6.3drzcqhmrdcch23u.rcgu.bc.z: File format not recognized
arm-none-eabi-objdump: app-20d859f505b9d0c6.3izqp046dmdire0c.rcgu.bc.z: File format not recognized
arm-none-eabi-objdump: app-20d859f505b9d0c6.3ks5fngbhepa7hh1.rcgu.bc.z: File format not recognized
arm-none-eabi-objdump: app-20d859f505b9d0c6.3lwk3gvkgwylqx46.rcgu.bc.z: File format not recognized
arm-none-eabi-objdump: app-20d859f505b9d0c6.3pa7j3n7bqpysygv.rcgu.bc.z: File format not recognized
arm-none-eabi-objdump: app-20d859f505b9d0c6.3pndmrs1t1kke272.rcgu.bc.z: File format not recognized
arm-none-eabi-objdump: app-20d859f505b9d0c6.3y1014uox59w8glo.rcgu.bc.z: File format not recognized
arm-none-eabi-objdump: app-20d859f505b9d0c6.41fhcs94hgkk74dx.rcgu.bc.z: File format not recognized
arm-none-eabi-objdump: app-20d859f505b9d0c6.43lx8lpxo4acwo7o.rcgu.bc.z: File format not recognized
arm-none-eabi-objdump: app-20d859f505b9d0c6.4jbqdaedptl3ag34.rcgu.bc.z: File format not recognized
arm-none-eabi-objdump: app-20d859f505b9d0c6.4m27peu8onmrwx89.rcgu.bc.z: File format not recognized
arm-none-eabi-objdump: app-20d859f505b9d0c6.4qubbvb0k4a1aveq.rcgu.bc.z: File format not recognized
arm-none-eabi-objdump: app-20d859f505b9d0c6.4sulcnmjmmdggl00.rcgu.bc.z: File format not recognized
arm-none-eabi-objdump: app-20d859f505b9d0c6.4z077sm664w3gj5j.rcgu.bc.z: File format not recognized
arm-none-eabi-objdump: app-20d859f505b9d0c6.55nxjr7bqya17eux.rcgu.bc.z: File format not recognized
arm-none-eabi-objdump: app-20d859f505b9d0c6.56146cruwwpkvvs9.rcgu.bc.z: File format not recognized
arm-none-eabi-objdump: app-20d859f505b9d0c6.8rqydsc4z3htl2w.rcgu.bc.z: File format not recognized
arm-none-eabi-objdump: app-20d859f505b9d0c6.al2dp3ouwmb9i6e.rcgu.bc.z: File format not recognized
arm-none-eabi-objdump: app-20d859f505b9d0c6.ejraglwzx9qsx3x.rcgu.bc.z: File format not recognized
arm-none-eabi-objdump: app-20d859f505b9d0c6.gxb0z20mefxkovh.rcgu.bc.z: File format not recognized
arm-none-eabi-objdump: app-20d859f505b9d0c6.h5sa2b63nb2rpd9.rcgu.bc.z: File format not recognized
arm-none-eabi-objdump: app-20d859f505b9d0c6.jaa5pqxq4kn074o.rcgu.bc.z: File format not recognized
arm-none-eabi-objdump: app-20d859f505b9d0c6.la2waq912fl0o34.rcgu.bc.z: File format not recognized
arm-none-eabi-objdump: app-20d859f505b9d0c6.pfizz5lzkxsqe1q.rcgu.bc.z: File format not recognized
