In archive target/thumbv7em-none-eabihf/debug/libapp.rlib:

app-d559bf047a1af437.125z955wkyaej2kl.rcgu.o:     file format elf32-littlearm

SYMBOL TABLE:
00000000 l    df *ABS*	00000000 125z955wkyaej2kl
00004e0c l       .debug_str	00000000 
00005054 l       .debug_str	00000000 
000051b5 l       .debug_str	00000000 
0000523e l       .debug_str	00000000 
00005378 l       .debug_str	00000000 
00005404 l       .debug_str	00000000 
00005568 l       .debug_str	00000000 
000055f4 l       .debug_str	00000000 
00005731 l       .debug_str	00000000 
000057af l       .debug_str	00000000 
000058df l       .debug_str	00000000 
000058e1 l       .debug_str	00000000 
000058f1 l       .debug_str	00000000 
00005970 l       .debug_str	00000000 
00005ac8 l       .debug_str	00000000 
00005b47 l       .debug_str	00000000 
00005c78 l       .debug_str	00000000 
00005cf7 l       .debug_str	00000000 
00005e4f l       .debug_str	00000000 
00005ece l       .debug_str	00000000 
00005fff l       .debug_str	00000000 
00006081 l       .debug_str	00000000 
000061dc l       .debug_str	00000000 
000061e3 l       .debug_str	00000000 
00006265 l       .debug_str	00000000 
00006399 l       .debug_str	00000000 
0000641b l       .debug_str	00000000 
0000654f l       .debug_str	00000000 
000065d1 l       .debug_str	00000000 
0000672c l       .debug_str	00000000 
000067ae l       .debug_str	00000000 
000068e2 l       .debug_str	00000000 
00006964 l       .debug_str	00000000 
00006abf l       .debug_str	00000000 
00006c45 l       .debug_str	00000000 
00006da4 l       .debug_str	00000000 
00006da9 l       .debug_str	00000000 
00006daf l       .debug_str	00000000 
00006db4 l       .debug_str	00000000 
00006dba l       .debug_str	00000000 
00006dbe l       .debug_str	00000000 
00006dc2 l       .debug_str	00000000 
00006dc7 l       .debug_str	00000000 
00006dd9 l       .debug_str	00000000 
00006de3 l       .debug_str	00000000 
00006dea l       .debug_str	00000000 
00006dee l       .debug_str	00000000 
00006df3 l       .debug_str	00000000 
00006f75 l       .debug_str	00000000 
00006f79 l       .debug_str	00000000 
00000000 l       .debug_str	00000000 
00000041 l       .debug_str	00000000 
00000055 l       .debug_str	00000000 
00000080 l       .debug_str	00000000 
00000085 l       .debug_str	00000000 
0000008c l       .debug_str	00000000 
0000008f l       .debug_str	00000000 
00000092 l       .debug_str	00000000 
00000096 l       .debug_str	00000000 
0000009d l       .debug_str	00000000 
000000a6 l       .debug_str	00000000 
000000a8 l       .debug_str	00000000 
000000af l       .debug_str	00000000 
000000b3 l       .debug_str	00000000 
000000c0 l       .debug_str	00000000 
000000c7 l       .debug_str	00000000 
000000ca l       .debug_str	00000000 
000000d0 l       .debug_str	00000000 
000000de l       .debug_str	00000000 
000000ec l       .debug_str	00000000 
000000f1 l       .debug_str	00000000 
000000f9 l       .debug_str	00000000 
00000101 l       .debug_str	00000000 
00000105 l       .debug_str	00000000 
00000107 l       .debug_str	00000000 
00000109 l       .debug_str	00000000 
00000126 l       .debug_str	00000000 
0000016c l       .debug_str	00000000 
00000174 l       .debug_str	00000000 
0000017b l       .debug_str	00000000 
0000018c l       .debug_str	00000000 
000001fc l       .debug_str	00000000 
00000296 l       .debug_str	00000000 
00000359 l       .debug_str	00000000 
00000446 l       .debug_str	00000000 
0000055d l       .debug_str	00000000 
00000565 l       .debug_str	00000000 
0000056a l       .debug_str	00000000 
0000056e l       .debug_str	00000000 
00000574 l       .debug_str	00000000 
00000578 l       .debug_str	00000000 
0000057c l       .debug_str	00000000 
0000057f l       .debug_str	00000000 
000005a8 l       .debug_str	00000000 
000005de l       .debug_str	00000000 
000005e0 l       .debug_str	00000000 
0000060d l       .debug_str	00000000 
0000065d l       .debug_str	00000000 
000006ba l       .debug_str	00000000 
0000070e l       .debug_str	00000000 
00000711 l       .debug_str	00000000 
00000788 l       .debug_str	00000000 
0000080c l       .debug_str	00000000 
00000887 l       .debug_str	00000000 
00000925 l       .debug_str	00000000 
000009d0 l       .debug_str	00000000 
00000a72 l       .debug_str	00000000 
00000b37 l       .debug_str	00000000 
00000c09 l       .debug_str	00000000 
00000cd2 l       .debug_str	00000000 
00000dbe l       .debug_str	00000000 
00000eb7 l       .debug_str	00000000 
00000fa7 l       .debug_str	00000000 
000010ba l       .debug_str	00000000 
000011da l       .debug_str	00000000 
000012f1 l       .debug_str	00000000 
0000142a l       .debug_str	00000000 
00001580 l       .debug_str	00000000 
000016d5 l       .debug_str	00000000 
000016d9 l       .debug_str	00000000 
000016df l       .debug_str	00000000 
000016e1 l       .debug_str	00000000 
0000182e l       .debug_str	00000000 
0000196f l       .debug_str	00000000 
00001aa9 l       .debug_str	00000000 
00001bf0 l       .debug_str	00000000 
00001d2e l       .debug_str	00000000 
00001e8e l       .debug_str	00000000 
0000200b l       .debug_str	00000000 
00002187 l       .debug_str	00000000 
000022fb l       .debug_str	00000000 
0000234c l       .debug_str	00000000 
000024c7 l       .debug_str	00000000 
0000263b l       .debug_str	00000000 
00002640 l       .debug_str	00000000 
000027da l       .debug_str	00000000 
000027e3 l       .debug_str	00000000 
00002865 l       .debug_str	00000000 
000029df l       .debug_str	00000000 
00002b53 l       .debug_str	00000000 
00002cef l       .debug_str	00000000 
00002d40 l       .debug_str	00000000 
00002e94 l       .debug_str	00000000 
00002fe1 l       .debug_str	00000000 
00003154 l       .debug_str	00000000 
000031d6 l       .debug_str	00000000 
00003329 l       .debug_str	00000000 
00003476 l       .debug_str	00000000 
000035eb l       .debug_str	00000000 
00003637 l       .debug_str	00000000 
000037ae l       .debug_str	00000000 
00003924 l       .debug_str	00000000 
00003aba l       .debug_str	00000000 
00003b35 l       .debug_str	00000000 
00003cab l       .debug_str	00000000 
00003e1b l       .debug_str	00000000 
00003fb3 l       .debug_str	00000000 
00003fff l       .debug_str	00000000 
0000414f l       .debug_str	00000000 
0000429e l       .debug_str	00000000 
0000440d l       .debug_str	00000000 
00004488 l       .debug_str	00000000 
000045d7 l       .debug_str	00000000 
00004720 l       .debug_str	00000000 
00004891 l       .debug_str	00000000 
000048e7 l       .debug_str	00000000 
00004a34 l       .debug_str	00000000 
00004a8a l       .debug_str	00000000 
00004bfe l       .debug_str	00000000 
00004c00 l       .debug_str	00000000 
00004c87 l       .debug_str	00000000 
00004de6 l       .debug_str	00000000 
00004def l       .debug_str	00000000 
00004dfa l       .debug_str	00000000 
00004e01 l       .debug_str	00000000 
00004e93 l       .debug_str	00000000 
00004fcb l       .debug_str	00000000 
00000000 l     O .rodata..Lanon.d0daa521ae3efb17c3d5e162c2ae116a.1	00000010 .Lanon.d0daa521ae3efb17c3d5e162c2ae116a.1
00000000 l     O .rodata..Lanon.d0daa521ae3efb17c3d5e162c2ae116a.2	00000010 .Lanon.d0daa521ae3efb17c3d5e162c2ae116a.2
00000000 l     O .rodata..Lanon.d0daa521ae3efb17c3d5e162c2ae116a.3	00000010 .Lanon.d0daa521ae3efb17c3d5e162c2ae116a.3
00000000 l     O .rodata.str.0	0000001c str.0
00000000 l     O .rodata.str.1	00000021 str.1
00000000 l    d  .text._ZN8heapless3vec43_$LT$impl$u20$heapless..i..Vec$LT$A$GT$$GT$3new17hf2c77cfb64444d10E	00000000 .text._ZN8heapless3vec43_$LT$impl$u20$heapless..i..Vec$LT$A$GT$$GT$3new17hf2c77cfb64444d10E
00000000 l    d  .text._ZN8heapless3vec43_$LT$impl$u20$heapless..i..Vec$LT$A$GT$$GT$3new17hfde44305ea230d20E	00000000 .text._ZN8heapless3vec43_$LT$impl$u20$heapless..i..Vec$LT$A$GT$$GT$3new17hfde44305ea230d20E
00000000 l    d  .text._ZN8heapless3vec82_$LT$impl$u20$heapless..i..Vec$LT$generic_array..GenericArray$LT$T$C$N$GT$$GT$$GT$12as_mut_slice17h1395397f126a8061E	00000000 .text._ZN8heapless3vec82_$LT$impl$u20$heapless..i..Vec$LT$generic_array..GenericArray$LT$T$C$N$GT$$GT$$GT$12as_mut_slice17h1395397f126a8061E
00000000 l    d  .text._ZN8heapless3vec82_$LT$impl$u20$heapless..i..Vec$LT$generic_array..GenericArray$LT$T$C$N$GT$$GT$$GT$12as_mut_slice17h35aa43a9fa6afa81E	00000000 .text._ZN8heapless3vec82_$LT$impl$u20$heapless..i..Vec$LT$generic_array..GenericArray$LT$T$C$N$GT$$GT$$GT$12as_mut_slice17h35aa43a9fa6afa81E
00000000 l    d  .text._ZN8heapless3vec82_$LT$impl$u20$heapless..i..Vec$LT$generic_array..GenericArray$LT$T$C$N$GT$$GT$$GT$14push_unchecked17h597974fe4e3db3e0E	00000000 .text._ZN8heapless3vec82_$LT$impl$u20$heapless..i..Vec$LT$generic_array..GenericArray$LT$T$C$N$GT$$GT$$GT$14push_unchecked17h597974fe4e3db3e0E
00000000 l    d  .text._ZN8heapless3vec82_$LT$impl$u20$heapless..i..Vec$LT$generic_array..GenericArray$LT$T$C$N$GT$$GT$$GT$14push_unchecked17ha605224459eb3545E	00000000 .text._ZN8heapless3vec82_$LT$impl$u20$heapless..i..Vec$LT$generic_array..GenericArray$LT$T$C$N$GT$$GT$$GT$14push_unchecked17ha605224459eb3545E
00000000 l    d  .text._ZN8heapless3vec82_$LT$impl$u20$heapless..i..Vec$LT$generic_array..GenericArray$LT$T$C$N$GT$$GT$$GT$17extend_from_slice17h355de8794eb61a4fE	00000000 .text._ZN8heapless3vec82_$LT$impl$u20$heapless..i..Vec$LT$generic_array..GenericArray$LT$T$C$N$GT$$GT$$GT$17extend_from_slice17h355de8794eb61a4fE
00000000 l    d  .text._ZN8heapless3vec82_$LT$impl$u20$heapless..i..Vec$LT$generic_array..GenericArray$LT$T$C$N$GT$$GT$$GT$17extend_from_slice17hfd062b19d5c0b2a5E	00000000 .text._ZN8heapless3vec82_$LT$impl$u20$heapless..i..Vec$LT$generic_array..GenericArray$LT$T$C$N$GT$$GT$$GT$17extend_from_slice17hfd062b19d5c0b2a5E
00000000 l    d  .text._ZN8heapless3vec82_$LT$impl$u20$heapless..i..Vec$LT$generic_array..GenericArray$LT$T$C$N$GT$$GT$$GT$4push17h2c8d4450d2d21b42E	00000000 .text._ZN8heapless3vec82_$LT$impl$u20$heapless..i..Vec$LT$generic_array..GenericArray$LT$T$C$N$GT$$GT$$GT$4push17h2c8d4450d2d21b42E
00000000 l    d  .text._ZN8heapless3vec82_$LT$impl$u20$heapless..i..Vec$LT$generic_array..GenericArray$LT$T$C$N$GT$$GT$$GT$5clear17h1c6bbb44953392d5E	00000000 .text._ZN8heapless3vec82_$LT$impl$u20$heapless..i..Vec$LT$generic_array..GenericArray$LT$T$C$N$GT$$GT$$GT$5clear17h1c6bbb44953392d5E
00000000 l    d  .text._ZN8heapless3vec82_$LT$impl$u20$heapless..i..Vec$LT$generic_array..GenericArray$LT$T$C$N$GT$$GT$$GT$5clear17h9f3863271060db58E	00000000 .text._ZN8heapless3vec82_$LT$impl$u20$heapless..i..Vec$LT$generic_array..GenericArray$LT$T$C$N$GT$$GT$$GT$5clear17h9f3863271060db58E
00000000 l    d  .text._ZN8heapless3vec82_$LT$impl$u20$heapless..i..Vec$LT$generic_array..GenericArray$LT$T$C$N$GT$$GT$$GT$5clone17h78785df9f5b91c80E	00000000 .text._ZN8heapless3vec82_$LT$impl$u20$heapless..i..Vec$LT$generic_array..GenericArray$LT$T$C$N$GT$$GT$$GT$5clone17h78785df9f5b91c80E
00000000 l    d  .text._ZN8heapless3vec82_$LT$impl$u20$heapless..i..Vec$LT$generic_array..GenericArray$LT$T$C$N$GT$$GT$$GT$5clone17h87daf501b534bd09E	00000000 .text._ZN8heapless3vec82_$LT$impl$u20$heapless..i..Vec$LT$generic_array..GenericArray$LT$T$C$N$GT$$GT$$GT$5clone17h87daf501b534bd09E
00000000 l    d  .text._ZN8heapless3vec82_$LT$impl$u20$heapless..i..Vec$LT$generic_array..GenericArray$LT$T$C$N$GT$$GT$$GT$8as_slice17h985735f6efcb889dE	00000000 .text._ZN8heapless3vec82_$LT$impl$u20$heapless..i..Vec$LT$generic_array..GenericArray$LT$T$C$N$GT$$GT$$GT$8as_slice17h985735f6efcb889dE
00000000 l    d  .text._ZN8heapless3vec82_$LT$impl$u20$heapless..i..Vec$LT$generic_array..GenericArray$LT$T$C$N$GT$$GT$$GT$8as_slice17ha3de71d2d5bcddf0E	00000000 .text._ZN8heapless3vec82_$LT$impl$u20$heapless..i..Vec$LT$generic_array..GenericArray$LT$T$C$N$GT$$GT$$GT$8as_slice17ha3de71d2d5bcddf0E
00000000 l    d  .text._ZN8heapless3vec82_$LT$impl$u20$heapless..i..Vec$LT$generic_array..GenericArray$LT$T$C$N$GT$$GT$$GT$8capacity17h06fb15f61eb4a864E	00000000 .text._ZN8heapless3vec82_$LT$impl$u20$heapless..i..Vec$LT$generic_array..GenericArray$LT$T$C$N$GT$$GT$$GT$8capacity17h06fb15f61eb4a864E
00000000 l    d  .text._ZN8heapless3vec82_$LT$impl$u20$heapless..i..Vec$LT$generic_array..GenericArray$LT$T$C$N$GT$$GT$$GT$8capacity17h8b720ce8f2f3a92bE	00000000 .text._ZN8heapless3vec82_$LT$impl$u20$heapless..i..Vec$LT$generic_array..GenericArray$LT$T$C$N$GT$$GT$$GT$8capacity17h8b720ce8f2f3a92bE
00000000 l    d  .text._ZN8heapless3vec82_$LT$impl$u20$heapless..i..Vec$LT$generic_array..GenericArray$LT$T$C$N$GT$$GT$$GT$8truncate17h855d8c95ac112ff8E	00000000 .text._ZN8heapless3vec82_$LT$impl$u20$heapless..i..Vec$LT$generic_array..GenericArray$LT$T$C$N$GT$$GT$$GT$8truncate17h855d8c95ac112ff8E
00000000 l    d  .text._ZN8heapless3vec82_$LT$impl$u20$heapless..i..Vec$LT$generic_array..GenericArray$LT$T$C$N$GT$$GT$$GT$8truncate17hb5de800e567fd477E	00000000 .text._ZN8heapless3vec82_$LT$impl$u20$heapless..i..Vec$LT$generic_array..GenericArray$LT$T$C$N$GT$$GT$$GT$8truncate17hb5de800e567fd477E
00000000 l    d  .rodata..Lanon.d0daa521ae3efb17c3d5e162c2ae116a.0	00000000 .rodata..Lanon.d0daa521ae3efb17c3d5e162c2ae116a.0
00000000 l    d  .debug_abbrev	00000000 .debug_abbrev
00000000 l    d  .debug_info	00000000 .debug_info
00000000 l    d  .debug_ranges	00000000 .debug_ranges
00000000 l    d  .debug_frame	00000000 .debug_frame
00000000 l    d  .debug_line	00000000 .debug_line
00000000         *UND*	00000000 _ZN4core3ptr31_$LT$impl$u20$$BP$mut$u20$T$GT$3add17h09274fa84f17fc51E
00000000         *UND*	00000000 _ZN4core3ptr31_$LT$impl$u20$$BP$mut$u20$T$GT$5write17hc9e3c69d1773365fE
00000000         *UND*	00000000 .hidden _ZN4core5clone5impls52_$LT$impl$u20$core..clone..Clone$u20$for$u20$u16$GT$5clone17hd35e6a09f17cd236E
00000000         *UND*	00000000 _ZN4core5slice14from_raw_parts17h6372457b1792e8a7E
00000000         *UND*	00000000 _ZN4core5slice18from_raw_parts_mut17h1d5045ad499056c8E
00000000         *UND*	00000000 _ZN4core5slice29_$LT$impl$u20$$u5b$T$u5d$$GT$17get_unchecked_mut17h5c2513eff6cc5949E
00000000         *UND*	00000000 _ZN4core5slice29_$LT$impl$u20$$u5b$T$u5d$$GT$3len17hd3eda1934930eeedE
00000000         *UND*	00000000 _ZN4core5slice87_$LT$impl$u20$core..iter..traits..collect..IntoIterator$u20$for$u20$$RF$$u5b$T$u5d$$GT$9into_iter17h1629c2afecbc6d14E
00000000         *UND*	00000000 _ZN4core6result19Result$LT$T$C$E$GT$6unwrap17h80b57905ee84ba70E
00000000         *UND*	00000000 _ZN4core9panicking5panic17hfdd0eecc44a682f8E
00000000         *UND*	00000000 _ZN85_$LT$core..slice..Iter$LT$T$GT$$u20$as$u20$core..iter..traits..iterator..Iterator$GT$4next17hf56afd57b5d987b6E
00000000         *UND*	00000000 _ZN85_$LT$typenum..uint..UInt$LT$U$C$B$GT$$u20$as$u20$typenum..marker_traits..Unsigned$GT$8to_usize17h28bf06d25ecb0985E
00000000         *UND*	00000000 _ZN85_$LT$typenum..uint..UInt$LT$U$C$B$GT$$u20$as$u20$typenum..marker_traits..Unsigned$GT$8to_usize17he82ef61bf1a4ba28E
00000000 g     F .text._ZN8heapless3vec43_$LT$impl$u20$heapless..i..Vec$LT$A$GT$$GT$3new17hf2c77cfb64444d10E	0000001e _ZN8heapless3vec43_$LT$impl$u20$heapless..i..Vec$LT$A$GT$$GT$3new17hf2c77cfb64444d10E
00000000 g     F .text._ZN8heapless3vec43_$LT$impl$u20$heapless..i..Vec$LT$A$GT$$GT$3new17hfde44305ea230d20E	00000020 _ZN8heapless3vec43_$LT$impl$u20$heapless..i..Vec$LT$A$GT$$GT$3new17hfde44305ea230d20E
00000000 g     F .text._ZN8heapless3vec82_$LT$impl$u20$heapless..i..Vec$LT$generic_array..GenericArray$LT$T$C$N$GT$$GT$$GT$12as_mut_slice17h1395397f126a8061E	0000002e _ZN8heapless3vec82_$LT$impl$u20$heapless..i..Vec$LT$generic_array..GenericArray$LT$T$C$N$GT$$GT$$GT$12as_mut_slice17h1395397f126a8061E
00000000 g     F .text._ZN8heapless3vec82_$LT$impl$u20$heapless..i..Vec$LT$generic_array..GenericArray$LT$T$C$N$GT$$GT$$GT$12as_mut_slice17h35aa43a9fa6afa81E	0000002e _ZN8heapless3vec82_$LT$impl$u20$heapless..i..Vec$LT$generic_array..GenericArray$LT$T$C$N$GT$$GT$$GT$12as_mut_slice17h35aa43a9fa6afa81E
00000000 g     F .text._ZN8heapless3vec82_$LT$impl$u20$heapless..i..Vec$LT$generic_array..GenericArray$LT$T$C$N$GT$$GT$$GT$14push_unchecked17h597974fe4e3db3e0E	00000068 _ZN8heapless3vec82_$LT$impl$u20$heapless..i..Vec$LT$generic_array..GenericArray$LT$T$C$N$GT$$GT$$GT$14push_unchecked17h597974fe4e3db3e0E
00000000 g     F .text._ZN8heapless3vec82_$LT$impl$u20$heapless..i..Vec$LT$generic_array..GenericArray$LT$T$C$N$GT$$GT$$GT$14push_unchecked17ha605224459eb3545E	00000068 _ZN8heapless3vec82_$LT$impl$u20$heapless..i..Vec$LT$generic_array..GenericArray$LT$T$C$N$GT$$GT$$GT$14push_unchecked17ha605224459eb3545E
00000000 g     F .text._ZN8heapless3vec82_$LT$impl$u20$heapless..i..Vec$LT$generic_array..GenericArray$LT$T$C$N$GT$$GT$$GT$17extend_from_slice17h355de8794eb61a4fE	000000d2 _ZN8heapless3vec82_$LT$impl$u20$heapless..i..Vec$LT$generic_array..GenericArray$LT$T$C$N$GT$$GT$$GT$17extend_from_slice17h355de8794eb61a4fE
00000000 g     F .text._ZN8heapless3vec82_$LT$impl$u20$heapless..i..Vec$LT$generic_array..GenericArray$LT$T$C$N$GT$$GT$$GT$17extend_from_slice17hfd062b19d5c0b2a5E	000000d2 _ZN8heapless3vec82_$LT$impl$u20$heapless..i..Vec$LT$generic_array..GenericArray$LT$T$C$N$GT$$GT$$GT$17extend_from_slice17hfd062b19d5c0b2a5E
00000000 g     F .text._ZN8heapless3vec82_$LT$impl$u20$heapless..i..Vec$LT$generic_array..GenericArray$LT$T$C$N$GT$$GT$$GT$4push17h2c8d4450d2d21b42E	00000056 _ZN8heapless3vec82_$LT$impl$u20$heapless..i..Vec$LT$generic_array..GenericArray$LT$T$C$N$GT$$GT$$GT$4push17h2c8d4450d2d21b42E
00000000 g     F .text._ZN8heapless3vec82_$LT$impl$u20$heapless..i..Vec$LT$generic_array..GenericArray$LT$T$C$N$GT$$GT$$GT$5clear17h1c6bbb44953392d5E	00000014 _ZN8heapless3vec82_$LT$impl$u20$heapless..i..Vec$LT$generic_array..GenericArray$LT$T$C$N$GT$$GT$$GT$5clear17h1c6bbb44953392d5E
00000000 g     F .text._ZN8heapless3vec82_$LT$impl$u20$heapless..i..Vec$LT$generic_array..GenericArray$LT$T$C$N$GT$$GT$$GT$5clear17h9f3863271060db58E	00000014 _ZN8heapless3vec82_$LT$impl$u20$heapless..i..Vec$LT$generic_array..GenericArray$LT$T$C$N$GT$$GT$$GT$5clear17h9f3863271060db58E
00000000 g     F .text._ZN8heapless3vec82_$LT$impl$u20$heapless..i..Vec$LT$generic_array..GenericArray$LT$T$C$N$GT$$GT$$GT$5clone17h78785df9f5b91c80E	00000048 _ZN8heapless3vec82_$LT$impl$u20$heapless..i..Vec$LT$generic_array..GenericArray$LT$T$C$N$GT$$GT$$GT$5clone17h78785df9f5b91c80E
00000000 g     F .text._ZN8heapless3vec82_$LT$impl$u20$heapless..i..Vec$LT$generic_array..GenericArray$LT$T$C$N$GT$$GT$$GT$5clone17h87daf501b534bd09E	00000046 _ZN8heapless3vec82_$LT$impl$u20$heapless..i..Vec$LT$generic_array..GenericArray$LT$T$C$N$GT$$GT$$GT$5clone17h87daf501b534bd09E
00000000 g     F .text._ZN8heapless3vec82_$LT$impl$u20$heapless..i..Vec$LT$generic_array..GenericArray$LT$T$C$N$GT$$GT$$GT$8as_slice17h985735f6efcb889dE	0000002e _ZN8heapless3vec82_$LT$impl$u20$heapless..i..Vec$LT$generic_array..GenericArray$LT$T$C$N$GT$$GT$$GT$8as_slice17h985735f6efcb889dE
00000000 g     F .text._ZN8heapless3vec82_$LT$impl$u20$heapless..i..Vec$LT$generic_array..GenericArray$LT$T$C$N$GT$$GT$$GT$8as_slice17ha3de71d2d5bcddf0E	0000002e _ZN8heapless3vec82_$LT$impl$u20$heapless..i..Vec$LT$generic_array..GenericArray$LT$T$C$N$GT$$GT$$GT$8as_slice17ha3de71d2d5bcddf0E
00000000 g     F .text._ZN8heapless3vec82_$LT$impl$u20$heapless..i..Vec$LT$generic_array..GenericArray$LT$T$C$N$GT$$GT$$GT$8capacity17h06fb15f61eb4a864E	00000014 _ZN8heapless3vec82_$LT$impl$u20$heapless..i..Vec$LT$generic_array..GenericArray$LT$T$C$N$GT$$GT$$GT$8capacity17h06fb15f61eb4a864E
00000000 g     F .text._ZN8heapless3vec82_$LT$impl$u20$heapless..i..Vec$LT$generic_array..GenericArray$LT$T$C$N$GT$$GT$$GT$8capacity17h8b720ce8f2f3a92bE	00000014 _ZN8heapless3vec82_$LT$impl$u20$heapless..i..Vec$LT$generic_array..GenericArray$LT$T$C$N$GT$$GT$$GT$8capacity17h8b720ce8f2f3a92bE
00000000 g     F .text._ZN8heapless3vec82_$LT$impl$u20$heapless..i..Vec$LT$generic_array..GenericArray$LT$T$C$N$GT$$GT$$GT$8truncate17h855d8c95ac112ff8E	0000006e _ZN8heapless3vec82_$LT$impl$u20$heapless..i..Vec$LT$generic_array..GenericArray$LT$T$C$N$GT$$GT$$GT$8truncate17h855d8c95ac112ff8E
00000000 g     F .text._ZN8heapless3vec82_$LT$impl$u20$heapless..i..Vec$LT$generic_array..GenericArray$LT$T$C$N$GT$$GT$$GT$8truncate17hb5de800e567fd477E	0000006e _ZN8heapless3vec82_$LT$impl$u20$heapless..i..Vec$LT$generic_array..GenericArray$LT$T$C$N$GT$$GT$$GT$8truncate17hb5de800e567fd477E
00000000         *UND*	00000000 __aeabi_memcpy
00000000         *UND*	00000000 __aeabi_memcpy4



Disassembly of section .text._ZN8heapless3vec43_$LT$impl$u20$heapless..i..Vec$LT$A$GT$$GT$3new17hf2c77cfb64444d10E:

00000000 <_ZN8heapless3vec43_$LT$impl$u20$heapless..i..Vec$LT$A$GT$$GT$3new17hf2c77cfb64444d10E>:
_ZN8heapless3vec43_$LT$impl$u20$heapless..i..Vec$LT$A$GT$$GT$3new17hf2c77cfb64444d10E():
/Users/Luppy/.cargo/registry/src/github.com-1ecc6299db9ec823/heapless-0.5.1/src/vec.rs:8
use generic_array::{ArrayLength, GenericArray};
use hash32;

impl<A> crate::i::Vec<A> {
    /// `Vec` `const` constructor; wrap the returned value in [`Vec`](../struct.Vec.html)
    pub const fn new() -> Self {
   0:	b580      	push	{r7, lr}
   2:	b0b4      	sub	sp, #208	; 0xd0
/Users/Luppy/.cargo/registry/src/github.com-1ecc6299db9ec823/heapless-0.5.1/src/vec.rs:10
        Self {
            buffer: MaybeUninit::uninit(),
   4:	9001      	str	r0, [sp, #4]
   6:	e7ff      	b.n	8 <_ZN8heapless3vec43_$LT$impl$u20$heapless..i..Vec$LT$A$GT$$GT$3new17hf2c77cfb64444d10E+0x8>
/Users/Luppy/.cargo/registry/src/github.com-1ecc6299db9ec823/heapless-0.5.1/src/vec.rs:9
        Self {
   8:	9801      	ldr	r0, [sp, #4]
   a:	3004      	adds	r0, #4
   c:	a902      	add	r1, sp, #8
   e:	22c8      	movs	r2, #200	; 0xc8
  10:	f7ff fffe 	bl	0 <__aeabi_memcpy>
  14:	2100      	movs	r1, #0
  16:	9a01      	ldr	r2, [sp, #4]
  18:	6011      	str	r1, [r2, #0]
/Users/Luppy/.cargo/registry/src/github.com-1ecc6299db9ec823/heapless-0.5.1/src/vec.rs:13
            len: 0,
        }
    }
  1a:	b034      	add	sp, #208	; 0xd0
  1c:	bd80      	pop	{r7, pc}

Disassembly of section .text._ZN8heapless3vec43_$LT$impl$u20$heapless..i..Vec$LT$A$GT$$GT$3new17hfde44305ea230d20E:

00000000 <_ZN8heapless3vec43_$LT$impl$u20$heapless..i..Vec$LT$A$GT$$GT$3new17hfde44305ea230d20E>:
_ZN8heapless3vec43_$LT$impl$u20$heapless..i..Vec$LT$A$GT$$GT$3new17hfde44305ea230d20E():
/Users/Luppy/.cargo/registry/src/github.com-1ecc6299db9ec823/heapless-0.5.1/src/vec.rs:8
    pub const fn new() -> Self {
   0:	b580      	push	{r7, lr}
   2:	b0e6      	sub	sp, #408	; 0x198
/Users/Luppy/.cargo/registry/src/github.com-1ecc6299db9ec823/heapless-0.5.1/src/vec.rs:10
            buffer: MaybeUninit::uninit(),
   4:	9001      	str	r0, [sp, #4]
   6:	e7ff      	b.n	8 <_ZN8heapless3vec43_$LT$impl$u20$heapless..i..Vec$LT$A$GT$$GT$3new17hfde44305ea230d20E+0x8>
/Users/Luppy/.cargo/registry/src/github.com-1ecc6299db9ec823/heapless-0.5.1/src/vec.rs:9
        Self {
   8:	9801      	ldr	r0, [sp, #4]
   a:	3004      	adds	r0, #4
   c:	a902      	add	r1, sp, #8
   e:	f44f 72c8 	mov.w	r2, #400	; 0x190
  12:	f7ff fffe 	bl	0 <__aeabi_memcpy>
  16:	2100      	movs	r1, #0
  18:	9a01      	ldr	r2, [sp, #4]
  1a:	6011      	str	r1, [r2, #0]
/Users/Luppy/.cargo/registry/src/github.com-1ecc6299db9ec823/heapless-0.5.1/src/vec.rs:13
    }
  1c:	b066      	add	sp, #408	; 0x198
  1e:	bd80      	pop	{r7, pc}

Disassembly of section .text._ZN8heapless3vec82_$LT$impl$u20$heapless..i..Vec$LT$generic_array..GenericArray$LT$T$C$N$GT$$GT$$GT$12as_mut_slice17h1395397f126a8061E:

00000000 <_ZN8heapless3vec82_$LT$impl$u20$heapless..i..Vec$LT$generic_array..GenericArray$LT$T$C$N$GT$$GT$$GT$12as_mut_slice17h1395397f126a8061E>:
_ZN8heapless3vec82_$LT$impl$u20$heapless..i..Vec$LT$generic_array..GenericArray$LT$T$C$N$GT$$GT$$GT$12as_mut_slice17h1395397f126a8061E():
/Users/Luppy/.cargo/registry/src/github.com-1ecc6299db9ec823/heapless-0.5.1/src/vec.rs:26
        // NOTE(unsafe) avoid bound checks in the slicing operation
        // &buffer[..self.len]
        unsafe { slice::from_raw_parts(self.buffer.as_ptr() as *const T, self.len) }
    }

    pub(crate) fn as_mut_slice(&mut self) -> &mut [T] {
   0:	b580      	push	{r7, lr}
   2:	b086      	sub	sp, #24
   4:	9003      	str	r0, [sp, #12]
/Users/Luppy/.cargo/registry/src/github.com-1ecc6299db9ec823/heapless-0.5.1/src/vec.rs:29
        // NOTE(unsafe) avoid bound checks in the slicing operation
        // &mut buffer[..len]
        unsafe { slice::from_raw_parts_mut(self.buffer.as_mut_ptr() as *mut T, self.len) }
   6:	9803      	ldr	r0, [sp, #12]
   8:	3004      	adds	r0, #4
   a:	9004      	str	r0, [sp, #16]
_ZN4core3mem12maybe_uninit20MaybeUninit$LT$T$GT$10as_mut_ptr17h23d3c975891da763E():
/rustc/412f43ac5b4ae8c3599e71c6972112e9be4758fa/src/libcore/mem/maybe_uninit.rs:436
   c:	9804      	ldr	r0, [sp, #16]
   e:	9005      	str	r0, [sp, #20]
_ZN94_$LT$core..mem..manually_drop..ManuallyDrop$LT$T$GT$$u20$as$u20$core..ops..deref..DerefMut$GT$9deref_mut17h201cfeff331c5bd5E():
/rustc/412f43ac5b4ae8c3599e71c6972112e9be4758fa/src/libcore/mem/manually_drop.rs:146
  10:	9805      	ldr	r0, [sp, #20]
_ZN8heapless3vec82_$LT$impl$u20$heapless..i..Vec$LT$generic_array..GenericArray$LT$T$C$N$GT$$GT$$GT$12as_mut_slice17h1395397f126a8061E():
/Users/Luppy/.cargo/registry/src/github.com-1ecc6299db9ec823/heapless-0.5.1/src/vec.rs:29
  12:	9002      	str	r0, [sp, #8]
  14:	e7ff      	b.n	16 <_ZN8heapless3vec82_$LT$impl$u20$heapless..i..Vec$LT$generic_array..GenericArray$LT$T$C$N$GT$$GT$$GT$12as_mut_slice17h1395397f126a8061E+0x16>
  16:	9803      	ldr	r0, [sp, #12]
  18:	6801      	ldr	r1, [r0, #0]
  1a:	9802      	ldr	r0, [sp, #8]
  1c:	f7ff fffe 	bl	0 <_ZN4core5slice18from_raw_parts_mut17h1d5045ad499056c8E>
  20:	9001      	str	r0, [sp, #4]
  22:	9100      	str	r1, [sp, #0]
  24:	e7ff      	b.n	26 <_ZN8heapless3vec82_$LT$impl$u20$heapless..i..Vec$LT$generic_array..GenericArray$LT$T$C$N$GT$$GT$$GT$12as_mut_slice17h1395397f126a8061E+0x26>
/Users/Luppy/.cargo/registry/src/github.com-1ecc6299db9ec823/heapless-0.5.1/src/vec.rs:30
    }
  26:	9801      	ldr	r0, [sp, #4]
  28:	9900      	ldr	r1, [sp, #0]
  2a:	b006      	add	sp, #24
  2c:	bd80      	pop	{r7, pc}

Disassembly of section .text._ZN8heapless3vec82_$LT$impl$u20$heapless..i..Vec$LT$generic_array..GenericArray$LT$T$C$N$GT$$GT$$GT$12as_mut_slice17h35aa43a9fa6afa81E:

00000000 <_ZN8heapless3vec82_$LT$impl$u20$heapless..i..Vec$LT$generic_array..GenericArray$LT$T$C$N$GT$$GT$$GT$12as_mut_slice17h35aa43a9fa6afa81E>:
_ZN8heapless3vec82_$LT$impl$u20$heapless..i..Vec$LT$generic_array..GenericArray$LT$T$C$N$GT$$GT$$GT$12as_mut_slice17h35aa43a9fa6afa81E():
/Users/Luppy/.cargo/registry/src/github.com-1ecc6299db9ec823/heapless-0.5.1/src/vec.rs:26
    pub(crate) fn as_mut_slice(&mut self) -> &mut [T] {
   0:	b580      	push	{r7, lr}
   2:	b086      	sub	sp, #24
   4:	9003      	str	r0, [sp, #12]
/Users/Luppy/.cargo/registry/src/github.com-1ecc6299db9ec823/heapless-0.5.1/src/vec.rs:29
        unsafe { slice::from_raw_parts_mut(self.buffer.as_mut_ptr() as *mut T, self.len) }
   6:	9803      	ldr	r0, [sp, #12]
   8:	3004      	adds	r0, #4
   a:	9004      	str	r0, [sp, #16]
_ZN4core3mem12maybe_uninit20MaybeUninit$LT$T$GT$10as_mut_ptr17h18232b37986b8434E():
/rustc/412f43ac5b4ae8c3599e71c6972112e9be4758fa/src/libcore/mem/maybe_uninit.rs:436
   c:	9804      	ldr	r0, [sp, #16]
   e:	9005      	str	r0, [sp, #20]
_ZN94_$LT$core..mem..manually_drop..ManuallyDrop$LT$T$GT$$u20$as$u20$core..ops..deref..DerefMut$GT$9deref_mut17h2da4a4527867dca4E():
/rustc/412f43ac5b4ae8c3599e71c6972112e9be4758fa/src/libcore/mem/manually_drop.rs:146
  10:	9805      	ldr	r0, [sp, #20]
_ZN8heapless3vec82_$LT$impl$u20$heapless..i..Vec$LT$generic_array..GenericArray$LT$T$C$N$GT$$GT$$GT$12as_mut_slice17h35aa43a9fa6afa81E():
/Users/Luppy/.cargo/registry/src/github.com-1ecc6299db9ec823/heapless-0.5.1/src/vec.rs:29
  12:	9002      	str	r0, [sp, #8]
  14:	e7ff      	b.n	16 <_ZN8heapless3vec82_$LT$impl$u20$heapless..i..Vec$LT$generic_array..GenericArray$LT$T$C$N$GT$$GT$$GT$12as_mut_slice17h35aa43a9fa6afa81E+0x16>
  16:	9803      	ldr	r0, [sp, #12]
  18:	6801      	ldr	r1, [r0, #0]
  1a:	9802      	ldr	r0, [sp, #8]
  1c:	f7ff fffe 	bl	0 <_ZN4core5slice18from_raw_parts_mut17h1d5045ad499056c8E>
  20:	9001      	str	r0, [sp, #4]
  22:	9100      	str	r1, [sp, #0]
  24:	e7ff      	b.n	26 <_ZN8heapless3vec82_$LT$impl$u20$heapless..i..Vec$LT$generic_array..GenericArray$LT$T$C$N$GT$$GT$$GT$12as_mut_slice17h35aa43a9fa6afa81E+0x26>
/Users/Luppy/.cargo/registry/src/github.com-1ecc6299db9ec823/heapless-0.5.1/src/vec.rs:30
    }
  26:	9801      	ldr	r0, [sp, #4]
  28:	9900      	ldr	r1, [sp, #0]
  2a:	b006      	add	sp, #24
  2c:	bd80      	pop	{r7, pc}

Disassembly of section .text._ZN8heapless3vec82_$LT$impl$u20$heapless..i..Vec$LT$generic_array..GenericArray$LT$T$C$N$GT$$GT$$GT$14push_unchecked17h597974fe4e3db3e0E:

00000000 <_ZN8heapless3vec82_$LT$impl$u20$heapless..i..Vec$LT$generic_array..GenericArray$LT$T$C$N$GT$$GT$$GT$14push_unchecked17h597974fe4e3db3e0E>:
_ZN8heapless3vec82_$LT$impl$u20$heapless..i..Vec$LT$generic_array..GenericArray$LT$T$C$N$GT$$GT$$GT$14push_unchecked17h597974fe4e3db3e0E():
/Users/Luppy/.cargo/registry/src/github.com-1ecc6299db9ec823/heapless-0.5.1/src/vec.rs:95
        } else {
            Err(item)
        }
    }

    pub(crate) unsafe fn push_unchecked(&mut self, item: T) {
   0:	b580      	push	{r7, lr}
   2:	b088      	sub	sp, #32
   4:	460a      	mov	r2, r1
   6:	9004      	str	r0, [sp, #16]
   8:	f8ad 1016 	strh.w	r1, [sp, #22]
/Users/Luppy/.cargo/registry/src/github.com-1ecc6299db9ec823/heapless-0.5.1/src/vec.rs:98
        // NOTE(ptr::write) the memory slot that we are about to write to is uninitialized. We
        // use `ptr::write` to avoid running `T`'s destructor on the uninitialized memory
        (self.buffer.as_mut_ptr() as *mut T)
   c:	9804      	ldr	r0, [sp, #16]
   e:	3004      	adds	r0, #4
  10:	9006      	str	r0, [sp, #24]
_ZN4core3mem12maybe_uninit20MaybeUninit$LT$T$GT$10as_mut_ptr17h23d3c975891da763E():
/rustc/412f43ac5b4ae8c3599e71c6972112e9be4758fa/src/libcore/mem/maybe_uninit.rs:436
  12:	9806      	ldr	r0, [sp, #24]
  14:	9007      	str	r0, [sp, #28]
_ZN94_$LT$core..mem..manually_drop..ManuallyDrop$LT$T$GT$$u20$as$u20$core..ops..deref..DerefMut$GT$9deref_mut17h201cfeff331c5bd5E():
/rustc/412f43ac5b4ae8c3599e71c6972112e9be4758fa/src/libcore/mem/manually_drop.rs:146
  16:	9807      	ldr	r0, [sp, #28]
_ZN8heapless3vec82_$LT$impl$u20$heapless..i..Vec$LT$generic_array..GenericArray$LT$T$C$N$GT$$GT$$GT$14push_unchecked17h597974fe4e3db3e0E():
/Users/Luppy/.cargo/registry/src/github.com-1ecc6299db9ec823/heapless-0.5.1/src/vec.rs:98
  18:	9003      	str	r0, [sp, #12]
  1a:	e7ff      	b.n	1c <_ZN8heapless3vec82_$LT$impl$u20$heapless..i..Vec$LT$generic_array..GenericArray$LT$T$C$N$GT$$GT$$GT$14push_unchecked17h597974fe4e3db3e0E+0x1c>
/Users/Luppy/.cargo/registry/src/github.com-1ecc6299db9ec823/heapless-0.5.1/src/vec.rs:99
            .add(self.len)
  1c:	9804      	ldr	r0, [sp, #16]
  1e:	6801      	ldr	r1, [r0, #0]
/Users/Luppy/.cargo/registry/src/github.com-1ecc6299db9ec823/heapless-0.5.1/src/vec.rs:98
        (self.buffer.as_mut_ptr() as *mut T)
  20:	9803      	ldr	r0, [sp, #12]
  22:	f7ff fffe 	bl	0 <_ZN4core3ptr31_$LT$impl$u20$$BP$mut$u20$T$GT$3add17h09274fa84f17fc51E>
  26:	9002      	str	r0, [sp, #8]
  28:	e7ff      	b.n	2a <_ZN8heapless3vec82_$LT$impl$u20$heapless..i..Vec$LT$generic_array..GenericArray$LT$T$C$N$GT$$GT$$GT$14push_unchecked17h597974fe4e3db3e0E+0x2a>
  2a:	f8bd 1016 	ldrh.w	r1, [sp, #22]
  2e:	9802      	ldr	r0, [sp, #8]
  30:	f7ff fffe 	bl	0 <_ZN4core3ptr31_$LT$impl$u20$$BP$mut$u20$T$GT$5write17hc9e3c69d1773365fE>
  34:	e7ff      	b.n	36 <_ZN8heapless3vec82_$LT$impl$u20$heapless..i..Vec$LT$generic_array..GenericArray$LT$T$C$N$GT$$GT$$GT$14push_unchecked17h597974fe4e3db3e0E+0x36>
/Users/Luppy/.cargo/registry/src/github.com-1ecc6299db9ec823/heapless-0.5.1/src/vec.rs:102
            .write(item);

        self.len += 1;
  36:	9804      	ldr	r0, [sp, #16]
  38:	6800      	ldr	r0, [r0, #0]
  3a:	1c41      	adds	r1, r0, #1
  3c:	460a      	mov	r2, r1
  3e:	4281      	cmp	r1, r0
  40:	9201      	str	r2, [sp, #4]
  42:	d305      	bcc.n	50 <_ZN8heapless3vec82_$LT$impl$u20$heapless..i..Vec$LT$generic_array..GenericArray$LT$T$C$N$GT$$GT$$GT$14push_unchecked17h597974fe4e3db3e0E+0x50>
  44:	e7ff      	b.n	46 <_ZN8heapless3vec82_$LT$impl$u20$heapless..i..Vec$LT$generic_array..GenericArray$LT$T$C$N$GT$$GT$$GT$14push_unchecked17h597974fe4e3db3e0E+0x46>
  46:	9804      	ldr	r0, [sp, #16]
  48:	9901      	ldr	r1, [sp, #4]
  4a:	6001      	str	r1, [r0, #0]
/Users/Luppy/.cargo/registry/src/github.com-1ecc6299db9ec823/heapless-0.5.1/src/vec.rs:103
    }
  4c:	b008      	add	sp, #32
  4e:	bd80      	pop	{r7, pc}
/Users/Luppy/.cargo/registry/src/github.com-1ecc6299db9ec823/heapless-0.5.1/src/vec.rs:102
        self.len += 1;
  50:	f240 0000 	movw	r0, #0
  54:	f2c0 0000 	movt	r0, #0
  58:	f240 0200 	movw	r2, #0
  5c:	f2c0 0200 	movt	r2, #0
  60:	211c      	movs	r1, #28
  62:	f7ff fffe 	bl	0 <_ZN4core9panicking5panic17hfdd0eecc44a682f8E>
  66:	defe      	udf	#254	; 0xfe

Disassembly of section .text._ZN8heapless3vec82_$LT$impl$u20$heapless..i..Vec$LT$generic_array..GenericArray$LT$T$C$N$GT$$GT$$GT$14push_unchecked17ha605224459eb3545E:

00000000 <_ZN8heapless3vec82_$LT$impl$u20$heapless..i..Vec$LT$generic_array..GenericArray$LT$T$C$N$GT$$GT$$GT$14push_unchecked17ha605224459eb3545E>:
_ZN8heapless3vec82_$LT$impl$u20$heapless..i..Vec$LT$generic_array..GenericArray$LT$T$C$N$GT$$GT$$GT$14push_unchecked17ha605224459eb3545E():
/Users/Luppy/.cargo/registry/src/github.com-1ecc6299db9ec823/heapless-0.5.1/src/vec.rs:95
    pub(crate) unsafe fn push_unchecked(&mut self, item: T) {
   0:	b580      	push	{r7, lr}
   2:	b088      	sub	sp, #32
   4:	460a      	mov	r2, r1
   6:	9004      	str	r0, [sp, #16]
   8:	f8ad 1016 	strh.w	r1, [sp, #22]
/Users/Luppy/.cargo/registry/src/github.com-1ecc6299db9ec823/heapless-0.5.1/src/vec.rs:98
        (self.buffer.as_mut_ptr() as *mut T)
   c:	9804      	ldr	r0, [sp, #16]
   e:	3004      	adds	r0, #4
  10:	9006      	str	r0, [sp, #24]
_ZN4core3mem12maybe_uninit20MaybeUninit$LT$T$GT$10as_mut_ptr17h18232b37986b8434E():
/rustc/412f43ac5b4ae8c3599e71c6972112e9be4758fa/src/libcore/mem/maybe_uninit.rs:436
  12:	9806      	ldr	r0, [sp, #24]
  14:	9007      	str	r0, [sp, #28]
_ZN94_$LT$core..mem..manually_drop..ManuallyDrop$LT$T$GT$$u20$as$u20$core..ops..deref..DerefMut$GT$9deref_mut17h2da4a4527867dca4E():
/rustc/412f43ac5b4ae8c3599e71c6972112e9be4758fa/src/libcore/mem/manually_drop.rs:146
  16:	9807      	ldr	r0, [sp, #28]
_ZN8heapless3vec82_$LT$impl$u20$heapless..i..Vec$LT$generic_array..GenericArray$LT$T$C$N$GT$$GT$$GT$14push_unchecked17ha605224459eb3545E():
/Users/Luppy/.cargo/registry/src/github.com-1ecc6299db9ec823/heapless-0.5.1/src/vec.rs:98
  18:	9003      	str	r0, [sp, #12]
  1a:	e7ff      	b.n	1c <_ZN8heapless3vec82_$LT$impl$u20$heapless..i..Vec$LT$generic_array..GenericArray$LT$T$C$N$GT$$GT$$GT$14push_unchecked17ha605224459eb3545E+0x1c>
/Users/Luppy/.cargo/registry/src/github.com-1ecc6299db9ec823/heapless-0.5.1/src/vec.rs:99
            .add(self.len)
  1c:	9804      	ldr	r0, [sp, #16]
  1e:	6801      	ldr	r1, [r0, #0]
/Users/Luppy/.cargo/registry/src/github.com-1ecc6299db9ec823/heapless-0.5.1/src/vec.rs:98
        (self.buffer.as_mut_ptr() as *mut T)
  20:	9803      	ldr	r0, [sp, #12]
  22:	f7ff fffe 	bl	0 <_ZN4core3ptr31_$LT$impl$u20$$BP$mut$u20$T$GT$3add17h09274fa84f17fc51E>
  26:	9002      	str	r0, [sp, #8]
  28:	e7ff      	b.n	2a <_ZN8heapless3vec82_$LT$impl$u20$heapless..i..Vec$LT$generic_array..GenericArray$LT$T$C$N$GT$$GT$$GT$14push_unchecked17ha605224459eb3545E+0x2a>
  2a:	f8bd 1016 	ldrh.w	r1, [sp, #22]
  2e:	9802      	ldr	r0, [sp, #8]
  30:	f7ff fffe 	bl	0 <_ZN4core3ptr31_$LT$impl$u20$$BP$mut$u20$T$GT$5write17hc9e3c69d1773365fE>
  34:	e7ff      	b.n	36 <_ZN8heapless3vec82_$LT$impl$u20$heapless..i..Vec$LT$generic_array..GenericArray$LT$T$C$N$GT$$GT$$GT$14push_unchecked17ha605224459eb3545E+0x36>
/Users/Luppy/.cargo/registry/src/github.com-1ecc6299db9ec823/heapless-0.5.1/src/vec.rs:102
        self.len += 1;
  36:	9804      	ldr	r0, [sp, #16]
  38:	6800      	ldr	r0, [r0, #0]
  3a:	1c41      	adds	r1, r0, #1
  3c:	460a      	mov	r2, r1
  3e:	4281      	cmp	r1, r0
  40:	9201      	str	r2, [sp, #4]
  42:	d305      	bcc.n	50 <_ZN8heapless3vec82_$LT$impl$u20$heapless..i..Vec$LT$generic_array..GenericArray$LT$T$C$N$GT$$GT$$GT$14push_unchecked17ha605224459eb3545E+0x50>
  44:	e7ff      	b.n	46 <_ZN8heapless3vec82_$LT$impl$u20$heapless..i..Vec$LT$generic_array..GenericArray$LT$T$C$N$GT$$GT$$GT$14push_unchecked17ha605224459eb3545E+0x46>
  46:	9804      	ldr	r0, [sp, #16]
  48:	9901      	ldr	r1, [sp, #4]
  4a:	6001      	str	r1, [r0, #0]
/Users/Luppy/.cargo/registry/src/github.com-1ecc6299db9ec823/heapless-0.5.1/src/vec.rs:103
    }
  4c:	b008      	add	sp, #32
  4e:	bd80      	pop	{r7, pc}
/Users/Luppy/.cargo/registry/src/github.com-1ecc6299db9ec823/heapless-0.5.1/src/vec.rs:102
        self.len += 1;
  50:	f240 0000 	movw	r0, #0
  54:	f2c0 0000 	movt	r0, #0
  58:	f240 0200 	movw	r2, #0
  5c:	f2c0 0200 	movt	r2, #0
  60:	211c      	movs	r1, #28
  62:	f7ff fffe 	bl	0 <_ZN4core9panicking5panic17hfdd0eecc44a682f8E>
  66:	defe      	udf	#254	; 0xfe

Disassembly of section .text._ZN8heapless3vec82_$LT$impl$u20$heapless..i..Vec$LT$generic_array..GenericArray$LT$T$C$N$GT$$GT$$GT$17extend_from_slice17h355de8794eb61a4fE:

00000000 <_ZN8heapless3vec82_$LT$impl$u20$heapless..i..Vec$LT$generic_array..GenericArray$LT$T$C$N$GT$$GT$$GT$17extend_from_slice17h355de8794eb61a4fE>:
_ZN8heapless3vec82_$LT$impl$u20$heapless..i..Vec$LT$generic_array..GenericArray$LT$T$C$N$GT$$GT$$GT$17extend_from_slice17h355de8794eb61a4fE():
/Users/Luppy/.cargo/registry/src/github.com-1ecc6299db9ec823/heapless-0.5.1/src/vec.rs:58
    pub(crate) fn extend_from_slice(&mut self, other: &[T]) -> Result<(), ()>
   0:	b580      	push	{r7, lr}
   2:	b092      	sub	sp, #72	; 0x48
   4:	9008      	str	r0, [sp, #32]
   6:	9109      	str	r1, [sp, #36]	; 0x24
   8:	920a      	str	r2, [sp, #40]	; 0x28
/Users/Luppy/.cargo/registry/src/github.com-1ecc6299db9ec823/heapless-0.5.1/src/vec.rs:62
        if self.len + other.len() > self.capacity() {
   a:	9808      	ldr	r0, [sp, #32]
   c:	6800      	ldr	r0, [r0, #0]
   e:	9909      	ldr	r1, [sp, #36]	; 0x24
  10:	9a0a      	ldr	r2, [sp, #40]	; 0x28
  12:	9007      	str	r0, [sp, #28]
  14:	4608      	mov	r0, r1
  16:	4611      	mov	r1, r2
  18:	f7ff fffe 	bl	0 <_ZN4core5slice29_$LT$impl$u20$$u5b$T$u5d$$GT$3len17hd3eda1934930eeedE>
  1c:	9006      	str	r0, [sp, #24]
  1e:	e7ff      	b.n	20 <_ZN8heapless3vec82_$LT$impl$u20$heapless..i..Vec$LT$generic_array..GenericArray$LT$T$C$N$GT$$GT$$GT$17extend_from_slice17h355de8794eb61a4fE+0x20>
  20:	9807      	ldr	r0, [sp, #28]
  22:	9906      	ldr	r1, [sp, #24]
  24:	1842      	adds	r2, r0, r1
  26:	4613      	mov	r3, r2
  28:	4282      	cmp	r2, r0
  2a:	9305      	str	r3, [sp, #20]
  2c:	d345      	bcc.n	ba <_ZN8heapless3vec82_$LT$impl$u20$heapless..i..Vec$LT$generic_array..GenericArray$LT$T$C$N$GT$$GT$$GT$17extend_from_slice17h355de8794eb61a4fE+0xba>
  2e:	e7ff      	b.n	30 <_ZN8heapless3vec82_$LT$impl$u20$heapless..i..Vec$LT$generic_array..GenericArray$LT$T$C$N$GT$$GT$$GT$17extend_from_slice17h355de8794eb61a4fE+0x30>
  30:	9808      	ldr	r0, [sp, #32]
  32:	f7ff fffe 	bl	0 <_ZN8heapless3vec82_$LT$impl$u20$heapless..i..Vec$LT$generic_array..GenericArray$LT$T$C$N$GT$$GT$$GT$17extend_from_slice17h355de8794eb61a4fE>
  36:	9004      	str	r0, [sp, #16]
  38:	e7ff      	b.n	3a <_ZN8heapless3vec82_$LT$impl$u20$heapless..i..Vec$LT$generic_array..GenericArray$LT$T$C$N$GT$$GT$$GT$17extend_from_slice17h355de8794eb61a4fE+0x3a>
  3a:	9805      	ldr	r0, [sp, #20]
  3c:	9904      	ldr	r1, [sp, #16]
  3e:	4288      	cmp	r0, r1
  40:	d807      	bhi.n	52 <_ZN8heapless3vec82_$LT$impl$u20$heapless..i..Vec$LT$generic_array..GenericArray$LT$T$C$N$GT$$GT$$GT$17extend_from_slice17h355de8794eb61a4fE+0x52>
  42:	e7ff      	b.n	44 <_ZN8heapless3vec82_$LT$impl$u20$heapless..i..Vec$LT$generic_array..GenericArray$LT$T$C$N$GT$$GT$$GT$17extend_from_slice17h355de8794eb61a4fE+0x44>
/Users/Luppy/.cargo/registry/src/github.com-1ecc6299db9ec823/heapless-0.5.1/src/vec.rs:66
            for elem in other {
  44:	9809      	ldr	r0, [sp, #36]	; 0x24
  46:	990a      	ldr	r1, [sp, #40]	; 0x28
  48:	f7ff fffe 	bl	0 <_ZN4core5slice87_$LT$impl$u20$core..iter..traits..collect..IntoIterator$u20$for$u20$$RF$$u5b$T$u5d$$GT$9into_iter17h1629c2afecbc6d14E>
  4c:	9003      	str	r0, [sp, #12]
  4e:	9102      	str	r1, [sp, #8]
  50:	e003      	b.n	5a <_ZN8heapless3vec82_$LT$impl$u20$heapless..i..Vec$LT$generic_array..GenericArray$LT$T$C$N$GT$$GT$$GT$17extend_from_slice17h355de8794eb61a4fE+0x5a>
  52:	2001      	movs	r0, #1
/Users/Luppy/.cargo/registry/src/github.com-1ecc6299db9ec823/heapless-0.5.1/src/vec.rs:64
            Err(())
  54:	f88d 002f 	strb.w	r0, [sp, #47]	; 0x2f
/Users/Luppy/.cargo/registry/src/github.com-1ecc6299db9ec823/heapless-0.5.1/src/vec.rs:62
        if self.len + other.len() > self.capacity() {
  58:	e02b      	b.n	b2 <_ZN8heapless3vec82_$LT$impl$u20$heapless..i..Vec$LT$generic_array..GenericArray$LT$T$C$N$GT$$GT$$GT$17extend_from_slice17h355de8794eb61a4fE+0xb2>
/Users/Luppy/.cargo/registry/src/github.com-1ecc6299db9ec823/heapless-0.5.1/src/vec.rs:66
            for elem in other {
  5a:	9803      	ldr	r0, [sp, #12]
  5c:	900c      	str	r0, [sp, #48]	; 0x30
  5e:	9902      	ldr	r1, [sp, #8]
  60:	910d      	str	r1, [sp, #52]	; 0x34
  62:	e7ff      	b.n	64 <_ZN8heapless3vec82_$LT$impl$u20$heapless..i..Vec$LT$generic_array..GenericArray$LT$T$C$N$GT$$GT$$GT$17extend_from_slice17h355de8794eb61a4fE+0x64>
  64:	a80c      	add	r0, sp, #48	; 0x30
  66:	f7ff fffe 	bl	0 <_ZN85_$LT$core..slice..Iter$LT$T$GT$$u20$as$u20$core..iter..traits..iterator..Iterator$GT$4next17hf56afd57b5d987b6E>
  6a:	900f      	str	r0, [sp, #60]	; 0x3c
  6c:	e7ff      	b.n	6e <_ZN8heapless3vec82_$LT$impl$u20$heapless..i..Vec$LT$generic_array..GenericArray$LT$T$C$N$GT$$GT$$GT$17extend_from_slice17h355de8794eb61a4fE+0x6e>
  6e:	980f      	ldr	r0, [sp, #60]	; 0x3c
  70:	2800      	cmp	r0, #0
  72:	4601      	mov	r1, r0
  74:	bf18      	it	ne
  76:	2101      	movne	r1, #1
  78:	2800      	cmp	r0, #0
  7a:	d001      	beq.n	80 <_ZN8heapless3vec82_$LT$impl$u20$heapless..i..Vec$LT$generic_array..GenericArray$LT$T$C$N$GT$$GT$$GT$17extend_from_slice17h355de8794eb61a4fE+0x80>
  7c:	e7ff      	b.n	7e <_ZN8heapless3vec82_$LT$impl$u20$heapless..i..Vec$LT$generic_array..GenericArray$LT$T$C$N$GT$$GT$$GT$17extend_from_slice17h355de8794eb61a4fE+0x7e>
  7e:	e004      	b.n	8a <_ZN8heapless3vec82_$LT$impl$u20$heapless..i..Vec$LT$generic_array..GenericArray$LT$T$C$N$GT$$GT$$GT$17extend_from_slice17h355de8794eb61a4fE+0x8a>
  80:	2000      	movs	r0, #0
/Users/Luppy/.cargo/registry/src/github.com-1ecc6299db9ec823/heapless-0.5.1/src/vec.rs:71
            Ok(())
  82:	f88d 002f 	strb.w	r0, [sp, #47]	; 0x2f
/Users/Luppy/.cargo/registry/src/github.com-1ecc6299db9ec823/heapless-0.5.1/src/vec.rs:62
        if self.len + other.len() > self.capacity() {
  86:	e014      	b.n	b2 <_ZN8heapless3vec82_$LT$impl$u20$heapless..i..Vec$LT$generic_array..GenericArray$LT$T$C$N$GT$$GT$$GT$17extend_from_slice17h355de8794eb61a4fE+0xb2>
/Users/Luppy/.cargo/registry/src/github.com-1ecc6299db9ec823/heapless-0.5.1/src/vec.rs:66
            for elem in other {
  88:	defe      	udf	#254	; 0xfe
  8a:	980f      	ldr	r0, [sp, #60]	; 0x3c
  8c:	9010      	str	r0, [sp, #64]	; 0x40
  8e:	9810      	ldr	r0, [sp, #64]	; 0x40
  90:	900e      	str	r0, [sp, #56]	; 0x38
  92:	980e      	ldr	r0, [sp, #56]	; 0x38
  94:	9011      	str	r0, [sp, #68]	; 0x44
/Users/Luppy/.cargo/registry/src/github.com-1ecc6299db9ec823/heapless-0.5.1/src/vec.rs:68
                    self.push_unchecked(elem.clone());
  96:	9808      	ldr	r0, [sp, #32]
  98:	9911      	ldr	r1, [sp, #68]	; 0x44
  9a:	9001      	str	r0, [sp, #4]
  9c:	4608      	mov	r0, r1
  9e:	f7ff fffe 	bl	0 <_ZN4core5clone5impls52_$LT$impl$u20$core..clone..Clone$u20$for$u20$u16$GT$5clone17hd35e6a09f17cd236E>
  a2:	9000      	str	r0, [sp, #0]
  a4:	e7ff      	b.n	a6 <_ZN8heapless3vec82_$LT$impl$u20$heapless..i..Vec$LT$generic_array..GenericArray$LT$T$C$N$GT$$GT$$GT$17extend_from_slice17h355de8794eb61a4fE+0xa6>
  a6:	9801      	ldr	r0, [sp, #4]
  a8:	9900      	ldr	r1, [sp, #0]
  aa:	f7ff fffe 	bl	0 <_ZN8heapless3vec82_$LT$impl$u20$heapless..i..Vec$LT$generic_array..GenericArray$LT$T$C$N$GT$$GT$$GT$17extend_from_slice17h355de8794eb61a4fE>
  ae:	e7ff      	b.n	b0 <_ZN8heapless3vec82_$LT$impl$u20$heapless..i..Vec$LT$generic_array..GenericArray$LT$T$C$N$GT$$GT$$GT$17extend_from_slice17h355de8794eb61a4fE+0xb0>
/Users/Luppy/.cargo/registry/src/github.com-1ecc6299db9ec823/heapless-0.5.1/src/vec.rs:66
            for elem in other {
  b0:	e7d8      	b.n	64 <_ZN8heapless3vec82_$LT$impl$u20$heapless..i..Vec$LT$generic_array..GenericArray$LT$T$C$N$GT$$GT$$GT$17extend_from_slice17h355de8794eb61a4fE+0x64>
/Users/Luppy/.cargo/registry/src/github.com-1ecc6299db9ec823/heapless-0.5.1/src/vec.rs:73
    }
  b2:	f89d 002f 	ldrb.w	r0, [sp, #47]	; 0x2f
  b6:	b012      	add	sp, #72	; 0x48
  b8:	bd80      	pop	{r7, pc}
/Users/Luppy/.cargo/registry/src/github.com-1ecc6299db9ec823/heapless-0.5.1/src/vec.rs:62
        if self.len + other.len() > self.capacity() {
  ba:	f240 0000 	movw	r0, #0
  be:	f2c0 0000 	movt	r0, #0
  c2:	f240 0200 	movw	r2, #0
  c6:	f2c0 0200 	movt	r2, #0
  ca:	211c      	movs	r1, #28
  cc:	f7ff fffe 	bl	0 <_ZN4core9panicking5panic17hfdd0eecc44a682f8E>
  d0:	defe      	udf	#254	; 0xfe

Disassembly of section .text._ZN8heapless3vec82_$LT$impl$u20$heapless..i..Vec$LT$generic_array..GenericArray$LT$T$C$N$GT$$GT$$GT$17extend_from_slice17hfd062b19d5c0b2a5E:

00000000 <_ZN8heapless3vec82_$LT$impl$u20$heapless..i..Vec$LT$generic_array..GenericArray$LT$T$C$N$GT$$GT$$GT$17extend_from_slice17hfd062b19d5c0b2a5E>:
_ZN8heapless3vec82_$LT$impl$u20$heapless..i..Vec$LT$generic_array..GenericArray$LT$T$C$N$GT$$GT$$GT$17extend_from_slice17hfd062b19d5c0b2a5E():
/Users/Luppy/.cargo/registry/src/github.com-1ecc6299db9ec823/heapless-0.5.1/src/vec.rs:58
    pub(crate) fn extend_from_slice(&mut self, other: &[T]) -> Result<(), ()>
   0:	b580      	push	{r7, lr}
   2:	b092      	sub	sp, #72	; 0x48
   4:	9008      	str	r0, [sp, #32]
   6:	9109      	str	r1, [sp, #36]	; 0x24
   8:	920a      	str	r2, [sp, #40]	; 0x28
/Users/Luppy/.cargo/registry/src/github.com-1ecc6299db9ec823/heapless-0.5.1/src/vec.rs:62
        if self.len + other.len() > self.capacity() {
   a:	9808      	ldr	r0, [sp, #32]
   c:	6800      	ldr	r0, [r0, #0]
   e:	9909      	ldr	r1, [sp, #36]	; 0x24
  10:	9a0a      	ldr	r2, [sp, #40]	; 0x28
  12:	9007      	str	r0, [sp, #28]
  14:	4608      	mov	r0, r1
  16:	4611      	mov	r1, r2
  18:	f7ff fffe 	bl	0 <_ZN4core5slice29_$LT$impl$u20$$u5b$T$u5d$$GT$3len17hd3eda1934930eeedE>
  1c:	9006      	str	r0, [sp, #24]
  1e:	e7ff      	b.n	20 <_ZN8heapless3vec82_$LT$impl$u20$heapless..i..Vec$LT$generic_array..GenericArray$LT$T$C$N$GT$$GT$$GT$17extend_from_slice17hfd062b19d5c0b2a5E+0x20>
  20:	9807      	ldr	r0, [sp, #28]
  22:	9906      	ldr	r1, [sp, #24]
  24:	1842      	adds	r2, r0, r1
  26:	4613      	mov	r3, r2
  28:	4282      	cmp	r2, r0
  2a:	9305      	str	r3, [sp, #20]
  2c:	d345      	bcc.n	ba <_ZN8heapless3vec82_$LT$impl$u20$heapless..i..Vec$LT$generic_array..GenericArray$LT$T$C$N$GT$$GT$$GT$17extend_from_slice17hfd062b19d5c0b2a5E+0xba>
  2e:	e7ff      	b.n	30 <_ZN8heapless3vec82_$LT$impl$u20$heapless..i..Vec$LT$generic_array..GenericArray$LT$T$C$N$GT$$GT$$GT$17extend_from_slice17hfd062b19d5c0b2a5E+0x30>
  30:	9808      	ldr	r0, [sp, #32]
  32:	f7ff fffe 	bl	0 <_ZN8heapless3vec82_$LT$impl$u20$heapless..i..Vec$LT$generic_array..GenericArray$LT$T$C$N$GT$$GT$$GT$17extend_from_slice17hfd062b19d5c0b2a5E>
  36:	9004      	str	r0, [sp, #16]
  38:	e7ff      	b.n	3a <_ZN8heapless3vec82_$LT$impl$u20$heapless..i..Vec$LT$generic_array..GenericArray$LT$T$C$N$GT$$GT$$GT$17extend_from_slice17hfd062b19d5c0b2a5E+0x3a>
  3a:	9805      	ldr	r0, [sp, #20]
  3c:	9904      	ldr	r1, [sp, #16]
  3e:	4288      	cmp	r0, r1
  40:	d807      	bhi.n	52 <_ZN8heapless3vec82_$LT$impl$u20$heapless..i..Vec$LT$generic_array..GenericArray$LT$T$C$N$GT$$GT$$GT$17extend_from_slice17hfd062b19d5c0b2a5E+0x52>
  42:	e7ff      	b.n	44 <_ZN8heapless3vec82_$LT$impl$u20$heapless..i..Vec$LT$generic_array..GenericArray$LT$T$C$N$GT$$GT$$GT$17extend_from_slice17hfd062b19d5c0b2a5E+0x44>
/Users/Luppy/.cargo/registry/src/github.com-1ecc6299db9ec823/heapless-0.5.1/src/vec.rs:66
            for elem in other {
  44:	9809      	ldr	r0, [sp, #36]	; 0x24
  46:	990a      	ldr	r1, [sp, #40]	; 0x28
  48:	f7ff fffe 	bl	0 <_ZN4core5slice87_$LT$impl$u20$core..iter..traits..collect..IntoIterator$u20$for$u20$$RF$$u5b$T$u5d$$GT$9into_iter17h1629c2afecbc6d14E>
  4c:	9003      	str	r0, [sp, #12]
  4e:	9102      	str	r1, [sp, #8]
  50:	e003      	b.n	5a <_ZN8heapless3vec82_$LT$impl$u20$heapless..i..Vec$LT$generic_array..GenericArray$LT$T$C$N$GT$$GT$$GT$17extend_from_slice17hfd062b19d5c0b2a5E+0x5a>
  52:	2001      	movs	r0, #1
/Users/Luppy/.cargo/registry/src/github.com-1ecc6299db9ec823/heapless-0.5.1/src/vec.rs:64
            Err(())
  54:	f88d 002f 	strb.w	r0, [sp, #47]	; 0x2f
/Users/Luppy/.cargo/registry/src/github.com-1ecc6299db9ec823/heapless-0.5.1/src/vec.rs:62
        if self.len + other.len() > self.capacity() {
  58:	e02b      	b.n	b2 <_ZN8heapless3vec82_$LT$impl$u20$heapless..i..Vec$LT$generic_array..GenericArray$LT$T$C$N$GT$$GT$$GT$17extend_from_slice17hfd062b19d5c0b2a5E+0xb2>
/Users/Luppy/.cargo/registry/src/github.com-1ecc6299db9ec823/heapless-0.5.1/src/vec.rs:66
            for elem in other {
  5a:	9803      	ldr	r0, [sp, #12]
  5c:	900c      	str	r0, [sp, #48]	; 0x30
  5e:	9902      	ldr	r1, [sp, #8]
  60:	910d      	str	r1, [sp, #52]	; 0x34
  62:	e7ff      	b.n	64 <_ZN8heapless3vec82_$LT$impl$u20$heapless..i..Vec$LT$generic_array..GenericArray$LT$T$C$N$GT$$GT$$GT$17extend_from_slice17hfd062b19d5c0b2a5E+0x64>
  64:	a80c      	add	r0, sp, #48	; 0x30
  66:	f7ff fffe 	bl	0 <_ZN85_$LT$core..slice..Iter$LT$T$GT$$u20$as$u20$core..iter..traits..iterator..Iterator$GT$4next17hf56afd57b5d987b6E>
  6a:	900f      	str	r0, [sp, #60]	; 0x3c
  6c:	e7ff      	b.n	6e <_ZN8heapless3vec82_$LT$impl$u20$heapless..i..Vec$LT$generic_array..GenericArray$LT$T$C$N$GT$$GT$$GT$17extend_from_slice17hfd062b19d5c0b2a5E+0x6e>
  6e:	980f      	ldr	r0, [sp, #60]	; 0x3c
  70:	2800      	cmp	r0, #0
  72:	4601      	mov	r1, r0
  74:	bf18      	it	ne
  76:	2101      	movne	r1, #1
  78:	2800      	cmp	r0, #0
  7a:	d001      	beq.n	80 <_ZN8heapless3vec82_$LT$impl$u20$heapless..i..Vec$LT$generic_array..GenericArray$LT$T$C$N$GT$$GT$$GT$17extend_from_slice17hfd062b19d5c0b2a5E+0x80>
  7c:	e7ff      	b.n	7e <_ZN8heapless3vec82_$LT$impl$u20$heapless..i..Vec$LT$generic_array..GenericArray$LT$T$C$N$GT$$GT$$GT$17extend_from_slice17hfd062b19d5c0b2a5E+0x7e>
  7e:	e004      	b.n	8a <_ZN8heapless3vec82_$LT$impl$u20$heapless..i..Vec$LT$generic_array..GenericArray$LT$T$C$N$GT$$GT$$GT$17extend_from_slice17hfd062b19d5c0b2a5E+0x8a>
  80:	2000      	movs	r0, #0
/Users/Luppy/.cargo/registry/src/github.com-1ecc6299db9ec823/heapless-0.5.1/src/vec.rs:71
            Ok(())
  82:	f88d 002f 	strb.w	r0, [sp, #47]	; 0x2f
/Users/Luppy/.cargo/registry/src/github.com-1ecc6299db9ec823/heapless-0.5.1/src/vec.rs:62
        if self.len + other.len() > self.capacity() {
  86:	e014      	b.n	b2 <_ZN8heapless3vec82_$LT$impl$u20$heapless..i..Vec$LT$generic_array..GenericArray$LT$T$C$N$GT$$GT$$GT$17extend_from_slice17hfd062b19d5c0b2a5E+0xb2>
/Users/Luppy/.cargo/registry/src/github.com-1ecc6299db9ec823/heapless-0.5.1/src/vec.rs:66
            for elem in other {
  88:	defe      	udf	#254	; 0xfe
  8a:	980f      	ldr	r0, [sp, #60]	; 0x3c
  8c:	9010      	str	r0, [sp, #64]	; 0x40
  8e:	9810      	ldr	r0, [sp, #64]	; 0x40
  90:	900e      	str	r0, [sp, #56]	; 0x38
  92:	980e      	ldr	r0, [sp, #56]	; 0x38
  94:	9011      	str	r0, [sp, #68]	; 0x44
/Users/Luppy/.cargo/registry/src/github.com-1ecc6299db9ec823/heapless-0.5.1/src/vec.rs:68
                    self.push_unchecked(elem.clone());
  96:	9808      	ldr	r0, [sp, #32]
  98:	9911      	ldr	r1, [sp, #68]	; 0x44
  9a:	9001      	str	r0, [sp, #4]
  9c:	4608      	mov	r0, r1
  9e:	f7ff fffe 	bl	0 <_ZN4core5clone5impls52_$LT$impl$u20$core..clone..Clone$u20$for$u20$u16$GT$5clone17hd35e6a09f17cd236E>
  a2:	9000      	str	r0, [sp, #0]
  a4:	e7ff      	b.n	a6 <_ZN8heapless3vec82_$LT$impl$u20$heapless..i..Vec$LT$generic_array..GenericArray$LT$T$C$N$GT$$GT$$GT$17extend_from_slice17hfd062b19d5c0b2a5E+0xa6>
  a6:	9801      	ldr	r0, [sp, #4]
  a8:	9900      	ldr	r1, [sp, #0]
  aa:	f7ff fffe 	bl	0 <_ZN8heapless3vec82_$LT$impl$u20$heapless..i..Vec$LT$generic_array..GenericArray$LT$T$C$N$GT$$GT$$GT$17extend_from_slice17hfd062b19d5c0b2a5E>
  ae:	e7ff      	b.n	b0 <_ZN8heapless3vec82_$LT$impl$u20$heapless..i..Vec$LT$generic_array..GenericArray$LT$T$C$N$GT$$GT$$GT$17extend_from_slice17hfd062b19d5c0b2a5E+0xb0>
/Users/Luppy/.cargo/registry/src/github.com-1ecc6299db9ec823/heapless-0.5.1/src/vec.rs:66
            for elem in other {
  b0:	e7d8      	b.n	64 <_ZN8heapless3vec82_$LT$impl$u20$heapless..i..Vec$LT$generic_array..GenericArray$LT$T$C$N$GT$$GT$$GT$17extend_from_slice17hfd062b19d5c0b2a5E+0x64>
/Users/Luppy/.cargo/registry/src/github.com-1ecc6299db9ec823/heapless-0.5.1/src/vec.rs:73
    }
  b2:	f89d 002f 	ldrb.w	r0, [sp, #47]	; 0x2f
  b6:	b012      	add	sp, #72	; 0x48
  b8:	bd80      	pop	{r7, pc}
/Users/Luppy/.cargo/registry/src/github.com-1ecc6299db9ec823/heapless-0.5.1/src/vec.rs:62
        if self.len + other.len() > self.capacity() {
  ba:	f240 0000 	movw	r0, #0
  be:	f2c0 0000 	movt	r0, #0
  c2:	f240 0200 	movw	r2, #0
  c6:	f2c0 0200 	movt	r2, #0
  ca:	211c      	movs	r1, #28
  cc:	f7ff fffe 	bl	0 <_ZN4core9panicking5panic17hfdd0eecc44a682f8E>
  d0:	defe      	udf	#254	; 0xfe

Disassembly of section .text._ZN8heapless3vec82_$LT$impl$u20$heapless..i..Vec$LT$generic_array..GenericArray$LT$T$C$N$GT$$GT$$GT$4push17h2c8d4450d2d21b42E:

00000000 <_ZN8heapless3vec82_$LT$impl$u20$heapless..i..Vec$LT$generic_array..GenericArray$LT$T$C$N$GT$$GT$$GT$4push17h2c8d4450d2d21b42E>:
_ZN8heapless3vec82_$LT$impl$u20$heapless..i..Vec$LT$generic_array..GenericArray$LT$T$C$N$GT$$GT$$GT$4push17h2c8d4450d2d21b42E():
/Users/Luppy/.cargo/registry/src/github.com-1ecc6299db9ec823/heapless-0.5.1/src/vec.rs:86
    pub(crate) fn push(&mut self, item: T) -> Result<(), T> {
   0:	b580      	push	{r7, lr}
   2:	b086      	sub	sp, #24
   4:	460a      	mov	r2, r1
   6:	9003      	str	r0, [sp, #12]
   8:	f8ad 1012 	strh.w	r1, [sp, #18]
/Users/Luppy/.cargo/registry/src/github.com-1ecc6299db9ec823/heapless-0.5.1/src/vec.rs:87
        if self.len < self.capacity() {
   c:	9803      	ldr	r0, [sp, #12]
   e:	6801      	ldr	r1, [r0, #0]
  10:	9202      	str	r2, [sp, #8]
  12:	9101      	str	r1, [sp, #4]
  14:	f7ff fffe 	bl	0 <_ZN8heapless3vec82_$LT$impl$u20$heapless..i..Vec$LT$generic_array..GenericArray$LT$T$C$N$GT$$GT$$GT$4push17h2c8d4450d2d21b42E>
  18:	9000      	str	r0, [sp, #0]
  1a:	e7ff      	b.n	1c <_ZN8heapless3vec82_$LT$impl$u20$heapless..i..Vec$LT$generic_array..GenericArray$LT$T$C$N$GT$$GT$$GT$4push17h2c8d4450d2d21b42E+0x1c>
  1c:	9801      	ldr	r0, [sp, #4]
  1e:	9900      	ldr	r1, [sp, #0]
  20:	4288      	cmp	r0, r1
  22:	d308      	bcc.n	36 <_ZN8heapless3vec82_$LT$impl$u20$heapless..i..Vec$LT$generic_array..GenericArray$LT$T$C$N$GT$$GT$$GT$4push17h2c8d4450d2d21b42E+0x36>
  24:	e7ff      	b.n	26 <_ZN8heapless3vec82_$LT$impl$u20$heapless..i..Vec$LT$generic_array..GenericArray$LT$T$C$N$GT$$GT$$GT$4push17h2c8d4450d2d21b42E+0x26>
/Users/Luppy/.cargo/registry/src/github.com-1ecc6299db9ec823/heapless-0.5.1/src/vec.rs:91
            Err(item)
  26:	f8bd 0012 	ldrh.w	r0, [sp, #18]
  2a:	f8ad 0016 	strh.w	r0, [sp, #22]
  2e:	2001      	movs	r0, #1
  30:	f8ad 0014 	strh.w	r0, [sp, #20]
/Users/Luppy/.cargo/registry/src/github.com-1ecc6299db9ec823/heapless-0.5.1/src/vec.rs:87
        if self.len < self.capacity() {
  34:	e009      	b.n	4a <_ZN8heapless3vec82_$LT$impl$u20$heapless..i..Vec$LT$generic_array..GenericArray$LT$T$C$N$GT$$GT$$GT$4push17h2c8d4450d2d21b42E+0x4a>
/Users/Luppy/.cargo/registry/src/github.com-1ecc6299db9ec823/heapless-0.5.1/src/vec.rs:88
            unsafe { self.push_unchecked(item) }
  36:	9803      	ldr	r0, [sp, #12]
  38:	f8bd 1012 	ldrh.w	r1, [sp, #18]
  3c:	f7ff fffe 	bl	0 <_ZN8heapless3vec82_$LT$impl$u20$heapless..i..Vec$LT$generic_array..GenericArray$LT$T$C$N$GT$$GT$$GT$4push17h2c8d4450d2d21b42E>
  40:	e7ff      	b.n	42 <_ZN8heapless3vec82_$LT$impl$u20$heapless..i..Vec$LT$generic_array..GenericArray$LT$T$C$N$GT$$GT$$GT$4push17h2c8d4450d2d21b42E+0x42>
  42:	2000      	movs	r0, #0
/Users/Luppy/.cargo/registry/src/github.com-1ecc6299db9ec823/heapless-0.5.1/src/vec.rs:89
            Ok(())
  44:	f8ad 0014 	strh.w	r0, [sp, #20]
/Users/Luppy/.cargo/registry/src/github.com-1ecc6299db9ec823/heapless-0.5.1/src/vec.rs:87
        if self.len < self.capacity() {
  48:	e7ff      	b.n	4a <_ZN8heapless3vec82_$LT$impl$u20$heapless..i..Vec$LT$generic_array..GenericArray$LT$T$C$N$GT$$GT$$GT$4push17h2c8d4450d2d21b42E+0x4a>
/Users/Luppy/.cargo/registry/src/github.com-1ecc6299db9ec823/heapless-0.5.1/src/vec.rs:93
    }
  4a:	f8bd 0014 	ldrh.w	r0, [sp, #20]
  4e:	f8bd 1016 	ldrh.w	r1, [sp, #22]
  52:	b006      	add	sp, #24
  54:	bd80      	pop	{r7, pc}

Disassembly of section .text._ZN8heapless3vec82_$LT$impl$u20$heapless..i..Vec$LT$generic_array..GenericArray$LT$T$C$N$GT$$GT$$GT$5clear17h1c6bbb44953392d5E:

00000000 <_ZN8heapless3vec82_$LT$impl$u20$heapless..i..Vec$LT$generic_array..GenericArray$LT$T$C$N$GT$$GT$$GT$5clear17h1c6bbb44953392d5E>:
_ZN8heapless3vec82_$LT$impl$u20$heapless..i..Vec$LT$generic_array..GenericArray$LT$T$C$N$GT$$GT$$GT$5clear17h1c6bbb44953392d5E():
/Users/Luppy/.cargo/registry/src/github.com-1ecc6299db9ec823/heapless-0.5.1/src/vec.rs:36
    pub(crate) fn clear(&mut self) {
   0:	b580      	push	{r7, lr}
   2:	b082      	sub	sp, #8
   4:	9001      	str	r0, [sp, #4]
/Users/Luppy/.cargo/registry/src/github.com-1ecc6299db9ec823/heapless-0.5.1/src/vec.rs:37
        self.truncate(0);
   6:	9801      	ldr	r0, [sp, #4]
   8:	2100      	movs	r1, #0
   a:	f7ff fffe 	bl	0 <_ZN8heapless3vec82_$LT$impl$u20$heapless..i..Vec$LT$generic_array..GenericArray$LT$T$C$N$GT$$GT$$GT$5clear17h1c6bbb44953392d5E>
   e:	e7ff      	b.n	10 <_ZN8heapless3vec82_$LT$impl$u20$heapless..i..Vec$LT$generic_array..GenericArray$LT$T$C$N$GT$$GT$$GT$5clear17h1c6bbb44953392d5E+0x10>
/Users/Luppy/.cargo/registry/src/github.com-1ecc6299db9ec823/heapless-0.5.1/src/vec.rs:38
    }
  10:	b002      	add	sp, #8
  12:	bd80      	pop	{r7, pc}

Disassembly of section .text._ZN8heapless3vec82_$LT$impl$u20$heapless..i..Vec$LT$generic_array..GenericArray$LT$T$C$N$GT$$GT$$GT$5clear17h9f3863271060db58E:

00000000 <_ZN8heapless3vec82_$LT$impl$u20$heapless..i..Vec$LT$generic_array..GenericArray$LT$T$C$N$GT$$GT$$GT$5clear17h9f3863271060db58E>:
_ZN8heapless3vec82_$LT$impl$u20$heapless..i..Vec$LT$generic_array..GenericArray$LT$T$C$N$GT$$GT$$GT$5clear17h9f3863271060db58E():
/Users/Luppy/.cargo/registry/src/github.com-1ecc6299db9ec823/heapless-0.5.1/src/vec.rs:36
    pub(crate) fn clear(&mut self) {
   0:	b580      	push	{r7, lr}
   2:	b082      	sub	sp, #8
   4:	9001      	str	r0, [sp, #4]
/Users/Luppy/.cargo/registry/src/github.com-1ecc6299db9ec823/heapless-0.5.1/src/vec.rs:37
        self.truncate(0);
   6:	9801      	ldr	r0, [sp, #4]
   8:	2100      	movs	r1, #0
   a:	f7ff fffe 	bl	0 <_ZN8heapless3vec82_$LT$impl$u20$heapless..i..Vec$LT$generic_array..GenericArray$LT$T$C$N$GT$$GT$$GT$5clear17h9f3863271060db58E>
   e:	e7ff      	b.n	10 <_ZN8heapless3vec82_$LT$impl$u20$heapless..i..Vec$LT$generic_array..GenericArray$LT$T$C$N$GT$$GT$$GT$5clear17h9f3863271060db58E+0x10>
/Users/Luppy/.cargo/registry/src/github.com-1ecc6299db9ec823/heapless-0.5.1/src/vec.rs:38
    }
  10:	b002      	add	sp, #8
  12:	bd80      	pop	{r7, pc}

Disassembly of section .text._ZN8heapless3vec82_$LT$impl$u20$heapless..i..Vec$LT$generic_array..GenericArray$LT$T$C$N$GT$$GT$$GT$5clone17h78785df9f5b91c80E:

00000000 <_ZN8heapless3vec82_$LT$impl$u20$heapless..i..Vec$LT$generic_array..GenericArray$LT$T$C$N$GT$$GT$$GT$5clone17h78785df9f5b91c80E>:
_ZN8heapless3vec82_$LT$impl$u20$heapless..i..Vec$LT$generic_array..GenericArray$LT$T$C$N$GT$$GT$$GT$5clone17h78785df9f5b91c80E():
/Users/Luppy/.cargo/registry/src/github.com-1ecc6299db9ec823/heapless-0.5.1/src/vec.rs:40
    pub(crate) fn clone(&self) -> Self
   0:	b580      	push	{r7, lr}
   2:	b0ea      	sub	sp, #424	; 0x1a8
   4:	9104      	str	r1, [sp, #16]
   6:	a905      	add	r1, sp, #20
/Users/Luppy/.cargo/registry/src/github.com-1ecc6299db9ec823/heapless-0.5.1/src/vec.rs:44
        let mut new = Self::new();
   8:	9003      	str	r0, [sp, #12]
   a:	4608      	mov	r0, r1
   c:	f7ff fffe 	bl	0 <_ZN8heapless3vec82_$LT$impl$u20$heapless..i..Vec$LT$generic_array..GenericArray$LT$T$C$N$GT$$GT$$GT$5clone17h78785df9f5b91c80E>
  10:	e7ff      	b.n	12 <_ZN8heapless3vec82_$LT$impl$u20$heapless..i..Vec$LT$generic_array..GenericArray$LT$T$C$N$GT$$GT$$GT$5clone17h78785df9f5b91c80E+0x12>
/Users/Luppy/.cargo/registry/src/github.com-1ecc6299db9ec823/heapless-0.5.1/src/vec.rs:45
        new.extend_from_slice(self.as_slice()).unwrap();
  12:	9804      	ldr	r0, [sp, #16]
  14:	f7ff fffe 	bl	0 <_ZN8heapless3vec82_$LT$impl$u20$heapless..i..Vec$LT$generic_array..GenericArray$LT$T$C$N$GT$$GT$$GT$5clone17h78785df9f5b91c80E>
  18:	9002      	str	r0, [sp, #8]
  1a:	9101      	str	r1, [sp, #4]
  1c:	e7ff      	b.n	1e <_ZN8heapless3vec82_$LT$impl$u20$heapless..i..Vec$LT$generic_array..GenericArray$LT$T$C$N$GT$$GT$$GT$5clone17h78785df9f5b91c80E+0x1e>
  1e:	a805      	add	r0, sp, #20
  20:	9902      	ldr	r1, [sp, #8]
  22:	9a01      	ldr	r2, [sp, #4]
  24:	f7ff fffe 	bl	0 <_ZN8heapless3vec82_$LT$impl$u20$heapless..i..Vec$LT$generic_array..GenericArray$LT$T$C$N$GT$$GT$$GT$5clone17h78785df9f5b91c80E>
  28:	9000      	str	r0, [sp, #0]
  2a:	e7ff      	b.n	2c <_ZN8heapless3vec82_$LT$impl$u20$heapless..i..Vec$LT$generic_array..GenericArray$LT$T$C$N$GT$$GT$$GT$5clone17h78785df9f5b91c80E+0x2c>
  2c:	9800      	ldr	r0, [sp, #0]
  2e:	f000 0001 	and.w	r0, r0, #1
  32:	f7ff fffe 	bl	0 <_ZN4core6result19Result$LT$T$C$E$GT$6unwrap17h80b57905ee84ba70E>
  36:	e7ff      	b.n	38 <_ZN8heapless3vec82_$LT$impl$u20$heapless..i..Vec$LT$generic_array..GenericArray$LT$T$C$N$GT$$GT$$GT$5clone17h78785df9f5b91c80E+0x38>
  38:	a905      	add	r1, sp, #20
  3a:	f44f 72ca 	mov.w	r2, #404	; 0x194
/Users/Luppy/.cargo/registry/src/github.com-1ecc6299db9ec823/heapless-0.5.1/src/vec.rs:46
        new
  3e:	9803      	ldr	r0, [sp, #12]
  40:	f7ff fffe 	bl	0 <__aeabi_memcpy4>
/Users/Luppy/.cargo/registry/src/github.com-1ecc6299db9ec823/heapless-0.5.1/src/vec.rs:47
    }
  44:	b06a      	add	sp, #424	; 0x1a8
  46:	bd80      	pop	{r7, pc}

Disassembly of section .text._ZN8heapless3vec82_$LT$impl$u20$heapless..i..Vec$LT$generic_array..GenericArray$LT$T$C$N$GT$$GT$$GT$5clone17h87daf501b534bd09E:

00000000 <_ZN8heapless3vec82_$LT$impl$u20$heapless..i..Vec$LT$generic_array..GenericArray$LT$T$C$N$GT$$GT$$GT$5clone17h87daf501b534bd09E>:
_ZN8heapless3vec82_$LT$impl$u20$heapless..i..Vec$LT$generic_array..GenericArray$LT$T$C$N$GT$$GT$$GT$5clone17h87daf501b534bd09E():
/Users/Luppy/.cargo/registry/src/github.com-1ecc6299db9ec823/heapless-0.5.1/src/vec.rs:40
    pub(crate) fn clone(&self) -> Self
   0:	b580      	push	{r7, lr}
   2:	b0b8      	sub	sp, #224	; 0xe0
   4:	9104      	str	r1, [sp, #16]
   6:	a905      	add	r1, sp, #20
/Users/Luppy/.cargo/registry/src/github.com-1ecc6299db9ec823/heapless-0.5.1/src/vec.rs:44
        let mut new = Self::new();
   8:	9003      	str	r0, [sp, #12]
   a:	4608      	mov	r0, r1
   c:	f7ff fffe 	bl	0 <_ZN8heapless3vec82_$LT$impl$u20$heapless..i..Vec$LT$generic_array..GenericArray$LT$T$C$N$GT$$GT$$GT$5clone17h87daf501b534bd09E>
  10:	e7ff      	b.n	12 <_ZN8heapless3vec82_$LT$impl$u20$heapless..i..Vec$LT$generic_array..GenericArray$LT$T$C$N$GT$$GT$$GT$5clone17h87daf501b534bd09E+0x12>
/Users/Luppy/.cargo/registry/src/github.com-1ecc6299db9ec823/heapless-0.5.1/src/vec.rs:45
        new.extend_from_slice(self.as_slice()).unwrap();
  12:	9804      	ldr	r0, [sp, #16]
  14:	f7ff fffe 	bl	0 <_ZN8heapless3vec82_$LT$impl$u20$heapless..i..Vec$LT$generic_array..GenericArray$LT$T$C$N$GT$$GT$$GT$5clone17h87daf501b534bd09E>
  18:	9002      	str	r0, [sp, #8]
  1a:	9101      	str	r1, [sp, #4]
  1c:	e7ff      	b.n	1e <_ZN8heapless3vec82_$LT$impl$u20$heapless..i..Vec$LT$generic_array..GenericArray$LT$T$C$N$GT$$GT$$GT$5clone17h87daf501b534bd09E+0x1e>
  1e:	a805      	add	r0, sp, #20
  20:	9902      	ldr	r1, [sp, #8]
  22:	9a01      	ldr	r2, [sp, #4]
  24:	f7ff fffe 	bl	0 <_ZN8heapless3vec82_$LT$impl$u20$heapless..i..Vec$LT$generic_array..GenericArray$LT$T$C$N$GT$$GT$$GT$5clone17h87daf501b534bd09E>
  28:	9000      	str	r0, [sp, #0]
  2a:	e7ff      	b.n	2c <_ZN8heapless3vec82_$LT$impl$u20$heapless..i..Vec$LT$generic_array..GenericArray$LT$T$C$N$GT$$GT$$GT$5clone17h87daf501b534bd09E+0x2c>
  2c:	9800      	ldr	r0, [sp, #0]
  2e:	f000 0001 	and.w	r0, r0, #1
  32:	f7ff fffe 	bl	0 <_ZN4core6result19Result$LT$T$C$E$GT$6unwrap17h80b57905ee84ba70E>
  36:	e7ff      	b.n	38 <_ZN8heapless3vec82_$LT$impl$u20$heapless..i..Vec$LT$generic_array..GenericArray$LT$T$C$N$GT$$GT$$GT$5clone17h87daf501b534bd09E+0x38>
  38:	a905      	add	r1, sp, #20
  3a:	22cc      	movs	r2, #204	; 0xcc
/Users/Luppy/.cargo/registry/src/github.com-1ecc6299db9ec823/heapless-0.5.1/src/vec.rs:46
        new
  3c:	9803      	ldr	r0, [sp, #12]
  3e:	f7ff fffe 	bl	0 <__aeabi_memcpy4>
/Users/Luppy/.cargo/registry/src/github.com-1ecc6299db9ec823/heapless-0.5.1/src/vec.rs:47
    }
  42:	b038      	add	sp, #224	; 0xe0
  44:	bd80      	pop	{r7, pc}

Disassembly of section .text._ZN8heapless3vec82_$LT$impl$u20$heapless..i..Vec$LT$generic_array..GenericArray$LT$T$C$N$GT$$GT$$GT$8as_slice17h985735f6efcb889dE:

00000000 <_ZN8heapless3vec82_$LT$impl$u20$heapless..i..Vec$LT$generic_array..GenericArray$LT$T$C$N$GT$$GT$$GT$8as_slice17h985735f6efcb889dE>:
_ZN8heapless3vec82_$LT$impl$u20$heapless..i..Vec$LT$generic_array..GenericArray$LT$T$C$N$GT$$GT$$GT$8as_slice17h985735f6efcb889dE():
/Users/Luppy/.cargo/registry/src/github.com-1ecc6299db9ec823/heapless-0.5.1/src/vec.rs:20
    pub(crate) fn as_slice(&self) -> &[T] {
   0:	b580      	push	{r7, lr}
   2:	b086      	sub	sp, #24
   4:	9003      	str	r0, [sp, #12]
/Users/Luppy/.cargo/registry/src/github.com-1ecc6299db9ec823/heapless-0.5.1/src/vec.rs:23
        unsafe { slice::from_raw_parts(self.buffer.as_ptr() as *const T, self.len) }
   6:	9803      	ldr	r0, [sp, #12]
   8:	3004      	adds	r0, #4
   a:	9004      	str	r0, [sp, #16]
_ZN4core3mem12maybe_uninit20MaybeUninit$LT$T$GT$6as_ptr17h1b58c1c9dbc3dad3E():
/rustc/412f43ac5b4ae8c3599e71c6972112e9be4758fa/src/libcore/mem/maybe_uninit.rs:399
   c:	9804      	ldr	r0, [sp, #16]
   e:	9005      	str	r0, [sp, #20]
_ZN91_$LT$core..mem..manually_drop..ManuallyDrop$LT$T$GT$$u20$as$u20$core..ops..deref..Deref$GT$5deref17hc2d8c6eb7d7047ccE():
/rustc/412f43ac5b4ae8c3599e71c6972112e9be4758fa/src/libcore/mem/manually_drop.rs:138
  10:	9805      	ldr	r0, [sp, #20]
_ZN8heapless3vec82_$LT$impl$u20$heapless..i..Vec$LT$generic_array..GenericArray$LT$T$C$N$GT$$GT$$GT$8as_slice17h985735f6efcb889dE():
/Users/Luppy/.cargo/registry/src/github.com-1ecc6299db9ec823/heapless-0.5.1/src/vec.rs:23
  12:	9002      	str	r0, [sp, #8]
  14:	e7ff      	b.n	16 <_ZN8heapless3vec82_$LT$impl$u20$heapless..i..Vec$LT$generic_array..GenericArray$LT$T$C$N$GT$$GT$$GT$8as_slice17h985735f6efcb889dE+0x16>
  16:	9803      	ldr	r0, [sp, #12]
  18:	6801      	ldr	r1, [r0, #0]
  1a:	9802      	ldr	r0, [sp, #8]
  1c:	f7ff fffe 	bl	0 <_ZN4core5slice14from_raw_parts17h6372457b1792e8a7E>
  20:	9001      	str	r0, [sp, #4]
  22:	9100      	str	r1, [sp, #0]
  24:	e7ff      	b.n	26 <_ZN8heapless3vec82_$LT$impl$u20$heapless..i..Vec$LT$generic_array..GenericArray$LT$T$C$N$GT$$GT$$GT$8as_slice17h985735f6efcb889dE+0x26>
/Users/Luppy/.cargo/registry/src/github.com-1ecc6299db9ec823/heapless-0.5.1/src/vec.rs:24
    }
  26:	9801      	ldr	r0, [sp, #4]
  28:	9900      	ldr	r1, [sp, #0]
  2a:	b006      	add	sp, #24
  2c:	bd80      	pop	{r7, pc}

Disassembly of section .text._ZN8heapless3vec82_$LT$impl$u20$heapless..i..Vec$LT$generic_array..GenericArray$LT$T$C$N$GT$$GT$$GT$8as_slice17ha3de71d2d5bcddf0E:

00000000 <_ZN8heapless3vec82_$LT$impl$u20$heapless..i..Vec$LT$generic_array..GenericArray$LT$T$C$N$GT$$GT$$GT$8as_slice17ha3de71d2d5bcddf0E>:
_ZN8heapless3vec82_$LT$impl$u20$heapless..i..Vec$LT$generic_array..GenericArray$LT$T$C$N$GT$$GT$$GT$8as_slice17ha3de71d2d5bcddf0E():
/Users/Luppy/.cargo/registry/src/github.com-1ecc6299db9ec823/heapless-0.5.1/src/vec.rs:20
    pub(crate) fn as_slice(&self) -> &[T] {
   0:	b580      	push	{r7, lr}
   2:	b086      	sub	sp, #24
   4:	9003      	str	r0, [sp, #12]
/Users/Luppy/.cargo/registry/src/github.com-1ecc6299db9ec823/heapless-0.5.1/src/vec.rs:23
        unsafe { slice::from_raw_parts(self.buffer.as_ptr() as *const T, self.len) }
   6:	9803      	ldr	r0, [sp, #12]
   8:	3004      	adds	r0, #4
   a:	9004      	str	r0, [sp, #16]
_ZN4core3mem12maybe_uninit20MaybeUninit$LT$T$GT$6as_ptr17h7c2c63cb242852b7E():
/rustc/412f43ac5b4ae8c3599e71c6972112e9be4758fa/src/libcore/mem/maybe_uninit.rs:399
   c:	9804      	ldr	r0, [sp, #16]
   e:	9005      	str	r0, [sp, #20]
_ZN91_$LT$core..mem..manually_drop..ManuallyDrop$LT$T$GT$$u20$as$u20$core..ops..deref..Deref$GT$5deref17h00b4fc7530de1524E():
/rustc/412f43ac5b4ae8c3599e71c6972112e9be4758fa/src/libcore/mem/manually_drop.rs:138
  10:	9805      	ldr	r0, [sp, #20]
_ZN8heapless3vec82_$LT$impl$u20$heapless..i..Vec$LT$generic_array..GenericArray$LT$T$C$N$GT$$GT$$GT$8as_slice17ha3de71d2d5bcddf0E():
/Users/Luppy/.cargo/registry/src/github.com-1ecc6299db9ec823/heapless-0.5.1/src/vec.rs:23
  12:	9002      	str	r0, [sp, #8]
  14:	e7ff      	b.n	16 <_ZN8heapless3vec82_$LT$impl$u20$heapless..i..Vec$LT$generic_array..GenericArray$LT$T$C$N$GT$$GT$$GT$8as_slice17ha3de71d2d5bcddf0E+0x16>
  16:	9803      	ldr	r0, [sp, #12]
  18:	6801      	ldr	r1, [r0, #0]
  1a:	9802      	ldr	r0, [sp, #8]
  1c:	f7ff fffe 	bl	0 <_ZN4core5slice14from_raw_parts17h6372457b1792e8a7E>
  20:	9001      	str	r0, [sp, #4]
  22:	9100      	str	r1, [sp, #0]
  24:	e7ff      	b.n	26 <_ZN8heapless3vec82_$LT$impl$u20$heapless..i..Vec$LT$generic_array..GenericArray$LT$T$C$N$GT$$GT$$GT$8as_slice17ha3de71d2d5bcddf0E+0x26>
/Users/Luppy/.cargo/registry/src/github.com-1ecc6299db9ec823/heapless-0.5.1/src/vec.rs:24
    }
  26:	9801      	ldr	r0, [sp, #4]
  28:	9900      	ldr	r1, [sp, #0]
  2a:	b006      	add	sp, #24
  2c:	bd80      	pop	{r7, pc}

Disassembly of section .text._ZN8heapless3vec82_$LT$impl$u20$heapless..i..Vec$LT$generic_array..GenericArray$LT$T$C$N$GT$$GT$$GT$8capacity17h06fb15f61eb4a864E:

00000000 <_ZN8heapless3vec82_$LT$impl$u20$heapless..i..Vec$LT$generic_array..GenericArray$LT$T$C$N$GT$$GT$$GT$8capacity17h06fb15f61eb4a864E>:
_ZN8heapless3vec82_$LT$impl$u20$heapless..i..Vec$LT$generic_array..GenericArray$LT$T$C$N$GT$$GT$$GT$8capacity17h06fb15f61eb4a864E():
/Users/Luppy/.cargo/registry/src/github.com-1ecc6299db9ec823/heapless-0.5.1/src/vec.rs:32
    pub(crate) fn capacity(&self) -> usize {
   0:	b580      	push	{r7, lr}
   2:	b082      	sub	sp, #8
   4:	9001      	str	r0, [sp, #4]
/Users/Luppy/.cargo/registry/src/github.com-1ecc6299db9ec823/heapless-0.5.1/src/vec.rs:33
        N::to_usize()
   6:	f7ff fffe 	bl	0 <_ZN85_$LT$typenum..uint..UInt$LT$U$C$B$GT$$u20$as$u20$typenum..marker_traits..Unsigned$GT$8to_usize17he82ef61bf1a4ba28E>
   a:	9000      	str	r0, [sp, #0]
   c:	e7ff      	b.n	e <_ZN8heapless3vec82_$LT$impl$u20$heapless..i..Vec$LT$generic_array..GenericArray$LT$T$C$N$GT$$GT$$GT$8capacity17h06fb15f61eb4a864E+0xe>
/Users/Luppy/.cargo/registry/src/github.com-1ecc6299db9ec823/heapless-0.5.1/src/vec.rs:34
    }
   e:	9800      	ldr	r0, [sp, #0]
  10:	b002      	add	sp, #8
  12:	bd80      	pop	{r7, pc}

Disassembly of section .text._ZN8heapless3vec82_$LT$impl$u20$heapless..i..Vec$LT$generic_array..GenericArray$LT$T$C$N$GT$$GT$$GT$8capacity17h8b720ce8f2f3a92bE:

00000000 <_ZN8heapless3vec82_$LT$impl$u20$heapless..i..Vec$LT$generic_array..GenericArray$LT$T$C$N$GT$$GT$$GT$8capacity17h8b720ce8f2f3a92bE>:
_ZN8heapless3vec82_$LT$impl$u20$heapless..i..Vec$LT$generic_array..GenericArray$LT$T$C$N$GT$$GT$$GT$8capacity17h8b720ce8f2f3a92bE():
/Users/Luppy/.cargo/registry/src/github.com-1ecc6299db9ec823/heapless-0.5.1/src/vec.rs:32
    pub(crate) fn capacity(&self) -> usize {
   0:	b580      	push	{r7, lr}
   2:	b082      	sub	sp, #8
   4:	9001      	str	r0, [sp, #4]
/Users/Luppy/.cargo/registry/src/github.com-1ecc6299db9ec823/heapless-0.5.1/src/vec.rs:33
        N::to_usize()
   6:	f7ff fffe 	bl	0 <_ZN85_$LT$typenum..uint..UInt$LT$U$C$B$GT$$u20$as$u20$typenum..marker_traits..Unsigned$GT$8to_usize17h28bf06d25ecb0985E>
   a:	9000      	str	r0, [sp, #0]
   c:	e7ff      	b.n	e <_ZN8heapless3vec82_$LT$impl$u20$heapless..i..Vec$LT$generic_array..GenericArray$LT$T$C$N$GT$$GT$$GT$8capacity17h8b720ce8f2f3a92bE+0xe>
/Users/Luppy/.cargo/registry/src/github.com-1ecc6299db9ec823/heapless-0.5.1/src/vec.rs:34
    }
   e:	9800      	ldr	r0, [sp, #0]
  10:	b002      	add	sp, #8
  12:	bd80      	pop	{r7, pc}

Disassembly of section .text._ZN8heapless3vec82_$LT$impl$u20$heapless..i..Vec$LT$generic_array..GenericArray$LT$T$C$N$GT$$GT$$GT$8truncate17h855d8c95ac112ff8E:

00000000 <_ZN8heapless3vec82_$LT$impl$u20$heapless..i..Vec$LT$generic_array..GenericArray$LT$T$C$N$GT$$GT$$GT$8truncate17h855d8c95ac112ff8E>:
_ZN8heapless3vec82_$LT$impl$u20$heapless..i..Vec$LT$generic_array..GenericArray$LT$T$C$N$GT$$GT$$GT$8truncate17h855d8c95ac112ff8E():
/Users/Luppy/.cargo/registry/src/github.com-1ecc6299db9ec823/heapless-0.5.1/src/vec.rs:120
    pub(crate) fn swap_remove(&mut self, index: usize) -> T {
        assert!(index < self.len);
        unsafe { self.swap_remove_unchecked(index) }
    }

    pub(crate) fn truncate(&mut self, len: usize) {
   0:	b580      	push	{r7, lr}
   2:	b088      	sub	sp, #32
   4:	9004      	str	r0, [sp, #16]
   6:	9105      	str	r1, [sp, #20]
   8:	e7ff      	b.n	a <_ZN8heapless3vec82_$LT$impl$u20$heapless..i..Vec$LT$generic_array..GenericArray$LT$T$C$N$GT$$GT$$GT$8truncate17h855d8c95ac112ff8E+0xa>
/Users/Luppy/.cargo/registry/src/github.com-1ecc6299db9ec823/heapless-0.5.1/src/vec.rs:123
        unsafe {
            // drop any extra elements
            while len < self.len {
   a:	9805      	ldr	r0, [sp, #20]
   c:	9904      	ldr	r1, [sp, #16]
   e:	6809      	ldr	r1, [r1, #0]
  10:	4288      	cmp	r0, r1
  12:	d302      	bcc.n	1a <_ZN8heapless3vec82_$LT$impl$u20$heapless..i..Vec$LT$generic_array..GenericArray$LT$T$C$N$GT$$GT$$GT$8truncate17h855d8c95ac112ff8E+0x1a>
  14:	e7ff      	b.n	16 <_ZN8heapless3vec82_$LT$impl$u20$heapless..i..Vec$LT$generic_array..GenericArray$LT$T$C$N$GT$$GT$$GT$8truncate17h855d8c95ac112ff8E+0x16>
/Users/Luppy/.cargo/registry/src/github.com-1ecc6299db9ec823/heapless-0.5.1/src/vec.rs:131
                self.len -= 1;
                let len = self.len;
                ptr::drop_in_place(self.as_mut_slice().get_unchecked_mut(len));
            }
        }
    }
  16:	b008      	add	sp, #32
  18:	bd80      	pop	{r7, pc}
/Users/Luppy/.cargo/registry/src/github.com-1ecc6299db9ec823/heapless-0.5.1/src/vec.rs:126
                self.len -= 1;
  1a:	9804      	ldr	r0, [sp, #16]
  1c:	6800      	ldr	r0, [r0, #0]
  1e:	1e41      	subs	r1, r0, #1
  20:	2801      	cmp	r0, #1
  22:	9103      	str	r1, [sp, #12]
  24:	d317      	bcc.n	56 <_ZN8heapless3vec82_$LT$impl$u20$heapless..i..Vec$LT$generic_array..GenericArray$LT$T$C$N$GT$$GT$$GT$8truncate17h855d8c95ac112ff8E+0x56>
  26:	e7ff      	b.n	28 <_ZN8heapless3vec82_$LT$impl$u20$heapless..i..Vec$LT$generic_array..GenericArray$LT$T$C$N$GT$$GT$$GT$8truncate17h855d8c95ac112ff8E+0x28>
  28:	9804      	ldr	r0, [sp, #16]
  2a:	9903      	ldr	r1, [sp, #12]
  2c:	6001      	str	r1, [r0, #0]
/Users/Luppy/.cargo/registry/src/github.com-1ecc6299db9ec823/heapless-0.5.1/src/vec.rs:127
                let len = self.len;
  2e:	9804      	ldr	r0, [sp, #16]
  30:	6800      	ldr	r0, [r0, #0]
  32:	9006      	str	r0, [sp, #24]
/Users/Luppy/.cargo/registry/src/github.com-1ecc6299db9ec823/heapless-0.5.1/src/vec.rs:128
                ptr::drop_in_place(self.as_mut_slice().get_unchecked_mut(len));
  34:	9804      	ldr	r0, [sp, #16]
  36:	f7ff fffe 	bl	0 <_ZN8heapless3vec82_$LT$impl$u20$heapless..i..Vec$LT$generic_array..GenericArray$LT$T$C$N$GT$$GT$$GT$8truncate17h855d8c95ac112ff8E>
  3a:	9002      	str	r0, [sp, #8]
  3c:	9101      	str	r1, [sp, #4]
  3e:	e7ff      	b.n	40 <_ZN8heapless3vec82_$LT$impl$u20$heapless..i..Vec$LT$generic_array..GenericArray$LT$T$C$N$GT$$GT$$GT$8truncate17h855d8c95ac112ff8E+0x40>
  40:	9a06      	ldr	r2, [sp, #24]
  42:	9802      	ldr	r0, [sp, #8]
  44:	9901      	ldr	r1, [sp, #4]
  46:	f7ff fffe 	bl	0 <_ZN4core5slice29_$LT$impl$u20$$u5b$T$u5d$$GT$17get_unchecked_mut17h5c2513eff6cc5949E>
  4a:	9000      	str	r0, [sp, #0]
  4c:	e7ff      	b.n	4e <_ZN8heapless3vec82_$LT$impl$u20$heapless..i..Vec$LT$generic_array..GenericArray$LT$T$C$N$GT$$GT$$GT$8truncate17h855d8c95ac112ff8E+0x4e>
  4e:	9800      	ldr	r0, [sp, #0]
  50:	9007      	str	r0, [sp, #28]
  52:	e7ff      	b.n	54 <_ZN8heapless3vec82_$LT$impl$u20$heapless..i..Vec$LT$generic_array..GenericArray$LT$T$C$N$GT$$GT$$GT$8truncate17h855d8c95ac112ff8E+0x54>
/Users/Luppy/.cargo/registry/src/github.com-1ecc6299db9ec823/heapless-0.5.1/src/vec.rs:123
            while len < self.len {
  54:	e7d9      	b.n	a <_ZN8heapless3vec82_$LT$impl$u20$heapless..i..Vec$LT$generic_array..GenericArray$LT$T$C$N$GT$$GT$$GT$8truncate17h855d8c95ac112ff8E+0xa>
/Users/Luppy/.cargo/registry/src/github.com-1ecc6299db9ec823/heapless-0.5.1/src/vec.rs:126
                self.len -= 1;
  56:	f240 0000 	movw	r0, #0
  5a:	f2c0 0000 	movt	r0, #0
  5e:	f240 0200 	movw	r2, #0
  62:	f2c0 0200 	movt	r2, #0
  66:	2121      	movs	r1, #33	; 0x21
  68:	f7ff fffe 	bl	0 <_ZN4core9panicking5panic17hfdd0eecc44a682f8E>
  6c:	defe      	udf	#254	; 0xfe

Disassembly of section .text._ZN8heapless3vec82_$LT$impl$u20$heapless..i..Vec$LT$generic_array..GenericArray$LT$T$C$N$GT$$GT$$GT$8truncate17hb5de800e567fd477E:

00000000 <_ZN8heapless3vec82_$LT$impl$u20$heapless..i..Vec$LT$generic_array..GenericArray$LT$T$C$N$GT$$GT$$GT$8truncate17hb5de800e567fd477E>:
_ZN8heapless3vec82_$LT$impl$u20$heapless..i..Vec$LT$generic_array..GenericArray$LT$T$C$N$GT$$GT$$GT$8truncate17hb5de800e567fd477E():
/Users/Luppy/.cargo/registry/src/github.com-1ecc6299db9ec823/heapless-0.5.1/src/vec.rs:120
    pub(crate) fn truncate(&mut self, len: usize) {
   0:	b580      	push	{r7, lr}
   2:	b088      	sub	sp, #32
   4:	9004      	str	r0, [sp, #16]
   6:	9105      	str	r1, [sp, #20]
   8:	e7ff      	b.n	a <_ZN8heapless3vec82_$LT$impl$u20$heapless..i..Vec$LT$generic_array..GenericArray$LT$T$C$N$GT$$GT$$GT$8truncate17hb5de800e567fd477E+0xa>
/Users/Luppy/.cargo/registry/src/github.com-1ecc6299db9ec823/heapless-0.5.1/src/vec.rs:123
            while len < self.len {
   a:	9805      	ldr	r0, [sp, #20]
   c:	9904      	ldr	r1, [sp, #16]
   e:	6809      	ldr	r1, [r1, #0]
  10:	4288      	cmp	r0, r1
  12:	d302      	bcc.n	1a <_ZN8heapless3vec82_$LT$impl$u20$heapless..i..Vec$LT$generic_array..GenericArray$LT$T$C$N$GT$$GT$$GT$8truncate17hb5de800e567fd477E+0x1a>
  14:	e7ff      	b.n	16 <_ZN8heapless3vec82_$LT$impl$u20$heapless..i..Vec$LT$generic_array..GenericArray$LT$T$C$N$GT$$GT$$GT$8truncate17hb5de800e567fd477E+0x16>
/Users/Luppy/.cargo/registry/src/github.com-1ecc6299db9ec823/heapless-0.5.1/src/vec.rs:131
    }
  16:	b008      	add	sp, #32
  18:	bd80      	pop	{r7, pc}
/Users/Luppy/.cargo/registry/src/github.com-1ecc6299db9ec823/heapless-0.5.1/src/vec.rs:126
                self.len -= 1;
  1a:	9804      	ldr	r0, [sp, #16]
  1c:	6800      	ldr	r0, [r0, #0]
  1e:	1e41      	subs	r1, r0, #1
  20:	2801      	cmp	r0, #1
  22:	9103      	str	r1, [sp, #12]
  24:	d317      	bcc.n	56 <_ZN8heapless3vec82_$LT$impl$u20$heapless..i..Vec$LT$generic_array..GenericArray$LT$T$C$N$GT$$GT$$GT$8truncate17hb5de800e567fd477E+0x56>
  26:	e7ff      	b.n	28 <_ZN8heapless3vec82_$LT$impl$u20$heapless..i..Vec$LT$generic_array..GenericArray$LT$T$C$N$GT$$GT$$GT$8truncate17hb5de800e567fd477E+0x28>
  28:	9804      	ldr	r0, [sp, #16]
  2a:	9903      	ldr	r1, [sp, #12]
  2c:	6001      	str	r1, [r0, #0]
/Users/Luppy/.cargo/registry/src/github.com-1ecc6299db9ec823/heapless-0.5.1/src/vec.rs:127
                let len = self.len;
  2e:	9804      	ldr	r0, [sp, #16]
  30:	6800      	ldr	r0, [r0, #0]
  32:	9006      	str	r0, [sp, #24]
/Users/Luppy/.cargo/registry/src/github.com-1ecc6299db9ec823/heapless-0.5.1/src/vec.rs:128
                ptr::drop_in_place(self.as_mut_slice().get_unchecked_mut(len));
  34:	9804      	ldr	r0, [sp, #16]
  36:	f7ff fffe 	bl	0 <_ZN8heapless3vec82_$LT$impl$u20$heapless..i..Vec$LT$generic_array..GenericArray$LT$T$C$N$GT$$GT$$GT$8truncate17hb5de800e567fd477E>
  3a:	9002      	str	r0, [sp, #8]
  3c:	9101      	str	r1, [sp, #4]
  3e:	e7ff      	b.n	40 <_ZN8heapless3vec82_$LT$impl$u20$heapless..i..Vec$LT$generic_array..GenericArray$LT$T$C$N$GT$$GT$$GT$8truncate17hb5de800e567fd477E+0x40>
  40:	9a06      	ldr	r2, [sp, #24]
  42:	9802      	ldr	r0, [sp, #8]
  44:	9901      	ldr	r1, [sp, #4]
  46:	f7ff fffe 	bl	0 <_ZN4core5slice29_$LT$impl$u20$$u5b$T$u5d$$GT$17get_unchecked_mut17h5c2513eff6cc5949E>
  4a:	9000      	str	r0, [sp, #0]
  4c:	e7ff      	b.n	4e <_ZN8heapless3vec82_$LT$impl$u20$heapless..i..Vec$LT$generic_array..GenericArray$LT$T$C$N$GT$$GT$$GT$8truncate17hb5de800e567fd477E+0x4e>
  4e:	9800      	ldr	r0, [sp, #0]
  50:	9007      	str	r0, [sp, #28]
  52:	e7ff      	b.n	54 <_ZN8heapless3vec82_$LT$impl$u20$heapless..i..Vec$LT$generic_array..GenericArray$LT$T$C$N$GT$$GT$$GT$8truncate17hb5de800e567fd477E+0x54>
/Users/Luppy/.cargo/registry/src/github.com-1ecc6299db9ec823/heapless-0.5.1/src/vec.rs:123
            while len < self.len {
  54:	e7d9      	b.n	a <_ZN8heapless3vec82_$LT$impl$u20$heapless..i..Vec$LT$generic_array..GenericArray$LT$T$C$N$GT$$GT$$GT$8truncate17hb5de800e567fd477E+0xa>
/Users/Luppy/.cargo/registry/src/github.com-1ecc6299db9ec823/heapless-0.5.1/src/vec.rs:126
                self.len -= 1;
  56:	f240 0000 	movw	r0, #0
  5a:	f2c0 0000 	movt	r0, #0
  5e:	f240 0200 	movw	r2, #0
  62:	f2c0 0200 	movt	r2, #0
  66:	2121      	movs	r1, #33	; 0x21
  68:	f7ff fffe 	bl	0 <_ZN4core9panicking5panic17hfdd0eecc44a682f8E>
  6c:	defe      	udf	#254	; 0xfe

app-d559bf047a1af437.1azcbzubtci62mj1.rcgu.o:     file format elf32-littlearm

SYMBOL TABLE:
00000000 l    df *ABS*	00000000 1azcbzubtci62mj1
0000031c l       .debug_str	00000000 
00000156 l       .debug_str	00000000 
00000161 l       .debug_str	00000000 
000001df l       .debug_str	00000000 
0000026f l       .debug_str	00000000 
00000286 l       .debug_str	00000000 
0000030d l       .debug_str	00000000 
00000312 l       .debug_str	00000000 
00000316 l       .debug_str	00000000 
00000322 l       .debug_str	00000000 
00000326 l       .debug_str	00000000 
00000337 l       .debug_str	00000000 
00000341 l       .debug_str	00000000 
00000345 l       .debug_str	00000000 
00000000 l       .debug_str	00000000 
00000041 l       .debug_str	00000000 
00000055 l       .debug_str	00000000 
00000080 l       .debug_str	00000000 
00000085 l       .debug_str	00000000 
0000008b l       .debug_str	00000000 
00000094 l       .debug_str	00000000 
00000098 l       .debug_str	00000000 
0000009a l       .debug_str	00000000 
00000126 l       .debug_str	00000000 
00000135 l       .debug_str	00000000 
0000013e l       .debug_str	00000000 
00000149 l       .debug_str	00000000 
00000150 l       .debug_str	00000000 
00000000 l    d  .text._ZN103_$LT$core..ops..range..RangeFrom$LT$usize$GT$$u20$as$u20$core..slice..SliceIndex$LT$$u5b$T$u5d$$GT$$GT$9index_mut17h0156c4efe8d58200E	00000000 .text._ZN103_$LT$core..ops..range..RangeFrom$LT$usize$GT$$u20$as$u20$core..slice..SliceIndex$LT$$u5b$T$u5d$$GT$$GT$9index_mut17h0156c4efe8d58200E
00000000 l    d  .text._ZN90_$LT$core..ops..range..RangeFull$u20$as$u20$core..slice..SliceIndex$LT$$u5b$T$u5d$$GT$$GT$9index_mut17hc2efb7814cc9ca6cE	00000000 .text._ZN90_$LT$core..ops..range..RangeFull$u20$as$u20$core..slice..SliceIndex$LT$$u5b$T$u5d$$GT$$GT$9index_mut17hc2efb7814cc9ca6cE
00000000 l    d  .text._ZN99_$LT$core..ops..range..Range$LT$usize$GT$$u20$as$u20$core..slice..SliceIndex$LT$$u5b$T$u5d$$GT$$GT$17get_unchecked_mut17h2c6fa9ba21e16da2E	00000000 .text._ZN99_$LT$core..ops..range..Range$LT$usize$GT$$u20$as$u20$core..slice..SliceIndex$LT$$u5b$T$u5d$$GT$$GT$17get_unchecked_mut17h2c6fa9ba21e16da2E
00000000 l    d  .text._ZN99_$LT$core..ops..range..Range$LT$usize$GT$$u20$as$u20$core..slice..SliceIndex$LT$$u5b$T$u5d$$GT$$GT$9index_mut17hf0c6e563a0620a68E	00000000 .text._ZN99_$LT$core..ops..range..Range$LT$usize$GT$$u20$as$u20$core..slice..SliceIndex$LT$$u5b$T$u5d$$GT$$GT$9index_mut17hf0c6e563a0620a68E
00000000 l    d  .debug_abbrev	00000000 .debug_abbrev
00000000 l    d  .debug_info	00000000 .debug_info
00000000 l    d  .debug_ranges	00000000 .debug_ranges
00000000 l    d  .debug_frame	00000000 .debug_frame
00000000 l    d  .debug_line	00000000 .debug_line
00000000 g     F .text._ZN103_$LT$core..ops..range..RangeFrom$LT$usize$GT$$u20$as$u20$core..slice..SliceIndex$LT$$u5b$T$u5d$$GT$$GT$9index_mut17h0156c4efe8d58200E	00000040 _ZN103_$LT$core..ops..range..RangeFrom$LT$usize$GT$$u20$as$u20$core..slice..SliceIndex$LT$$u5b$T$u5d$$GT$$GT$9index_mut17h0156c4efe8d58200E
00000000         *UND*	00000000 _ZN4core3ptr31_$LT$impl$u20$$BP$mut$u20$T$GT$3add17h09274fa84f17fc51E
00000000         *UND*	00000000 _ZN4core5slice18from_raw_parts_mut17h1d5045ad499056c8E
00000000         *UND*	00000000 _ZN4core5slice20slice_index_len_fail17h7ac73a11c3a53e02E
00000000         *UND*	00000000 _ZN4core5slice22slice_index_order_fail17hca0f713f2dfc7080E
00000000         *UND*	00000000 _ZN4core5slice29_$LT$impl$u20$$u5b$T$u5d$$GT$10as_mut_ptr17h7f6f3efbfd1e109bE
00000000         *UND*	00000000 _ZN4core5slice29_$LT$impl$u20$$u5b$T$u5d$$GT$3len17hd3eda1934930eeedE
00000000 g     F .text._ZN90_$LT$core..ops..range..RangeFull$u20$as$u20$core..slice..SliceIndex$LT$$u5b$T$u5d$$GT$$GT$9index_mut17hc2efb7814cc9ca6cE	0000000e _ZN90_$LT$core..ops..range..RangeFull$u20$as$u20$core..slice..SliceIndex$LT$$u5b$T$u5d$$GT$$GT$9index_mut17hc2efb7814cc9ca6cE
00000000 g     F .text._ZN99_$LT$core..ops..range..Range$LT$usize$GT$$u20$as$u20$core..slice..SliceIndex$LT$$u5b$T$u5d$$GT$$GT$17get_unchecked_mut17h2c6fa9ba21e16da2E	0000003e _ZN99_$LT$core..ops..range..Range$LT$usize$GT$$u20$as$u20$core..slice..SliceIndex$LT$$u5b$T$u5d$$GT$$GT$17get_unchecked_mut17h2c6fa9ba21e16da2E
00000000 g     F .text._ZN99_$LT$core..ops..range..Range$LT$usize$GT$$u20$as$u20$core..slice..SliceIndex$LT$$u5b$T$u5d$$GT$$GT$9index_mut17hf0c6e563a0620a68E	00000076 _ZN99_$LT$core..ops..range..Range$LT$usize$GT$$u20$as$u20$core..slice..SliceIndex$LT$$u5b$T$u5d$$GT$$GT$9index_mut17hf0c6e563a0620a68E



Disassembly of section .text._ZN103_$LT$core..ops..range..RangeFrom$LT$usize$GT$$u20$as$u20$core..slice..SliceIndex$LT$$u5b$T$u5d$$GT$$GT$9index_mut17h0156c4efe8d58200E:

00000000 <_ZN103_$LT$core..ops..range..RangeFrom$LT$usize$GT$$u20$as$u20$core..slice..SliceIndex$LT$$u5b$T$u5d$$GT$$GT$9index_mut17h0156c4efe8d58200E>:
_ZN103_$LT$core..ops..range..RangeFrom$LT$usize$GT$$u20$as$u20$core..slice..SliceIndex$LT$$u5b$T$u5d$$GT$$GT$9index_mut17h0156c4efe8d58200E():
/rustc/412f43ac5b4ae8c3599e71c6972112e9be4758fa/src/libcore/slice/mod.rs:2933
   0:	b580      	push	{r7, lr}
   2:	b08a      	sub	sp, #40	; 0x28
   4:	9005      	str	r0, [sp, #20]
   6:	9106      	str	r1, [sp, #24]
   8:	9207      	str	r2, [sp, #28]
/rustc/412f43ac5b4ae8c3599e71c6972112e9be4758fa/src/libcore/slice/mod.rs:2934
   a:	9805      	ldr	r0, [sp, #20]
   c:	9906      	ldr	r1, [sp, #24]
   e:	9a07      	ldr	r2, [sp, #28]
  10:	9004      	str	r0, [sp, #16]
  12:	4608      	mov	r0, r1
  14:	4611      	mov	r1, r2
  16:	f7ff fffe 	bl	0 <_ZN4core5slice29_$LT$impl$u20$$u5b$T$u5d$$GT$3len17hd3eda1934930eeedE>
  1a:	9003      	str	r0, [sp, #12]
  1c:	e7ff      	b.n	1e <_ZN103_$LT$core..ops..range..RangeFrom$LT$usize$GT$$u20$as$u20$core..slice..SliceIndex$LT$$u5b$T$u5d$$GT$$GT$9index_mut17h0156c4efe8d58200E+0x1e>
  1e:	9804      	ldr	r0, [sp, #16]
  20:	9008      	str	r0, [sp, #32]
  22:	9903      	ldr	r1, [sp, #12]
  24:	9109      	str	r1, [sp, #36]	; 0x24
  26:	9a06      	ldr	r2, [sp, #24]
  28:	9b07      	ldr	r3, [sp, #28]
  2a:	9808      	ldr	r0, [sp, #32]
  2c:	9909      	ldr	r1, [sp, #36]	; 0x24
  2e:	f7ff fffe 	bl	0 <_ZN103_$LT$core..ops..range..RangeFrom$LT$usize$GT$$u20$as$u20$core..slice..SliceIndex$LT$$u5b$T$u5d$$GT$$GT$9index_mut17h0156c4efe8d58200E>
  32:	9002      	str	r0, [sp, #8]
  34:	9101      	str	r1, [sp, #4]
  36:	e7ff      	b.n	38 <_ZN103_$LT$core..ops..range..RangeFrom$LT$usize$GT$$u20$as$u20$core..slice..SliceIndex$LT$$u5b$T$u5d$$GT$$GT$9index_mut17h0156c4efe8d58200E+0x38>
/rustc/412f43ac5b4ae8c3599e71c6972112e9be4758fa/src/libcore/slice/mod.rs:2935
  38:	9802      	ldr	r0, [sp, #8]
  3a:	9901      	ldr	r1, [sp, #4]
  3c:	b00a      	add	sp, #40	; 0x28
  3e:	bd80      	pop	{r7, pc}

Disassembly of section .text._ZN90_$LT$core..ops..range..RangeFull$u20$as$u20$core..slice..SliceIndex$LT$$u5b$T$u5d$$GT$$GT$9index_mut17hc2efb7814cc9ca6cE:

00000000 <_ZN90_$LT$core..ops..range..RangeFull$u20$as$u20$core..slice..SliceIndex$LT$$u5b$T$u5d$$GT$$GT$9index_mut17hc2efb7814cc9ca6cE>:
_ZN90_$LT$core..ops..range..RangeFull$u20$as$u20$core..slice..SliceIndex$LT$$u5b$T$u5d$$GT$$GT$9index_mut17hc2efb7814cc9ca6cE():
/rustc/412f43ac5b4ae8c3599e71c6972112e9be4758fa/src/libcore/slice/mod.rs:2968
   0:	b083      	sub	sp, #12
   2:	9001      	str	r0, [sp, #4]
   4:	9102      	str	r1, [sp, #8]
/rustc/412f43ac5b4ae8c3599e71c6972112e9be4758fa/src/libcore/slice/mod.rs:2969
   6:	9801      	ldr	r0, [sp, #4]
   8:	9902      	ldr	r1, [sp, #8]
/rustc/412f43ac5b4ae8c3599e71c6972112e9be4758fa/src/libcore/slice/mod.rs:2970
   a:	b003      	add	sp, #12
   c:	4770      	bx	lr

Disassembly of section .text._ZN99_$LT$core..ops..range..Range$LT$usize$GT$$u20$as$u20$core..slice..SliceIndex$LT$$u5b$T$u5d$$GT$$GT$17get_unchecked_mut17h2c6fa9ba21e16da2E:

00000000 <_ZN99_$LT$core..ops..range..Range$LT$usize$GT$$u20$as$u20$core..slice..SliceIndex$LT$$u5b$T$u5d$$GT$$GT$17get_unchecked_mut17h2c6fa9ba21e16da2E>:
_ZN99_$LT$core..ops..range..Range$LT$usize$GT$$u20$as$u20$core..slice..SliceIndex$LT$$u5b$T$u5d$$GT$$GT$17get_unchecked_mut17h2c6fa9ba21e16da2E():
/rustc/412f43ac5b4ae8c3599e71c6972112e9be4758fa/src/libcore/slice/mod.rs:2839
   0:	b580      	push	{r7, lr}
   2:	b088      	sub	sp, #32
   4:	9004      	str	r0, [sp, #16]
   6:	9105      	str	r1, [sp, #20]
   8:	9206      	str	r2, [sp, #24]
   a:	9307      	str	r3, [sp, #28]
/rustc/412f43ac5b4ae8c3599e71c6972112e9be4758fa/src/libcore/slice/mod.rs:2840
   c:	9806      	ldr	r0, [sp, #24]
   e:	9907      	ldr	r1, [sp, #28]
  10:	f7ff fffe 	bl	0 <_ZN4core5slice29_$LT$impl$u20$$u5b$T$u5d$$GT$10as_mut_ptr17h7f6f3efbfd1e109bE>
  14:	9003      	str	r0, [sp, #12]
  16:	e7ff      	b.n	18 <_ZN99_$LT$core..ops..range..Range$LT$usize$GT$$u20$as$u20$core..slice..SliceIndex$LT$$u5b$T$u5d$$GT$$GT$17get_unchecked_mut17h2c6fa9ba21e16da2E+0x18>
  18:	9904      	ldr	r1, [sp, #16]
  1a:	9803      	ldr	r0, [sp, #12]
  1c:	f7ff fffe 	bl	0 <_ZN4core3ptr31_$LT$impl$u20$$BP$mut$u20$T$GT$3add17h09274fa84f17fc51E>
  20:	9002      	str	r0, [sp, #8]
  22:	e7ff      	b.n	24 <_ZN99_$LT$core..ops..range..Range$LT$usize$GT$$u20$as$u20$core..slice..SliceIndex$LT$$u5b$T$u5d$$GT$$GT$17get_unchecked_mut17h2c6fa9ba21e16da2E+0x24>
  24:	9804      	ldr	r0, [sp, #16]
  26:	9905      	ldr	r1, [sp, #20]
  28:	1a09      	subs	r1, r1, r0
  2a:	9802      	ldr	r0, [sp, #8]
  2c:	f7ff fffe 	bl	0 <_ZN4core5slice18from_raw_parts_mut17h1d5045ad499056c8E>
  30:	9001      	str	r0, [sp, #4]
  32:	9100      	str	r1, [sp, #0]
  34:	e7ff      	b.n	36 <_ZN99_$LT$core..ops..range..Range$LT$usize$GT$$u20$as$u20$core..slice..SliceIndex$LT$$u5b$T$u5d$$GT$$GT$17get_unchecked_mut17h2c6fa9ba21e16da2E+0x36>
/rustc/412f43ac5b4ae8c3599e71c6972112e9be4758fa/src/libcore/slice/mod.rs:2841
  36:	9801      	ldr	r0, [sp, #4]
  38:	9900      	ldr	r1, [sp, #0]
  3a:	b008      	add	sp, #32
  3c:	bd80      	pop	{r7, pc}

Disassembly of section .text._ZN99_$LT$core..ops..range..Range$LT$usize$GT$$u20$as$u20$core..slice..SliceIndex$LT$$u5b$T$u5d$$GT$$GT$9index_mut17hf0c6e563a0620a68E:

00000000 <_ZN99_$LT$core..ops..range..Range$LT$usize$GT$$u20$as$u20$core..slice..SliceIndex$LT$$u5b$T$u5d$$GT$$GT$9index_mut17hf0c6e563a0620a68E>:
_ZN99_$LT$core..ops..range..Range$LT$usize$GT$$u20$as$u20$core..slice..SliceIndex$LT$$u5b$T$u5d$$GT$$GT$9index_mut17hf0c6e563a0620a68E():
/rustc/412f43ac5b4ae8c3599e71c6972112e9be4758fa/src/libcore/slice/mod.rs:2856
   0:	b580      	push	{r7, lr}
   2:	b08a      	sub	sp, #40	; 0x28
   4:	9006      	str	r0, [sp, #24]
   6:	9107      	str	r1, [sp, #28]
   8:	9208      	str	r2, [sp, #32]
   a:	9309      	str	r3, [sp, #36]	; 0x24
/rustc/412f43ac5b4ae8c3599e71c6972112e9be4758fa/src/libcore/slice/mod.rs:2857
   c:	9806      	ldr	r0, [sp, #24]
   e:	9907      	ldr	r1, [sp, #28]
  10:	4288      	cmp	r0, r1
  12:	d80a      	bhi.n	2a <_ZN99_$LT$core..ops..range..Range$LT$usize$GT$$u20$as$u20$core..slice..SliceIndex$LT$$u5b$T$u5d$$GT$$GT$9index_mut17hf0c6e563a0620a68E+0x2a>
  14:	e7ff      	b.n	16 <_ZN99_$LT$core..ops..range..Range$LT$usize$GT$$u20$as$u20$core..slice..SliceIndex$LT$$u5b$T$u5d$$GT$$GT$9index_mut17hf0c6e563a0620a68E+0x16>
/rustc/412f43ac5b4ae8c3599e71c6972112e9be4758fa/src/libcore/slice/mod.rs:2859
  16:	9807      	ldr	r0, [sp, #28]
  18:	9908      	ldr	r1, [sp, #32]
  1a:	9a09      	ldr	r2, [sp, #36]	; 0x24
  1c:	9005      	str	r0, [sp, #20]
  1e:	4608      	mov	r0, r1
  20:	4611      	mov	r1, r2
  22:	f7ff fffe 	bl	0 <_ZN4core5slice29_$LT$impl$u20$$u5b$T$u5d$$GT$3len17hd3eda1934930eeedE>
  26:	9004      	str	r0, [sp, #16]
  28:	e004      	b.n	34 <_ZN99_$LT$core..ops..range..Range$LT$usize$GT$$u20$as$u20$core..slice..SliceIndex$LT$$u5b$T$u5d$$GT$$GT$9index_mut17hf0c6e563a0620a68E+0x34>
/rustc/412f43ac5b4ae8c3599e71c6972112e9be4758fa/src/libcore/slice/mod.rs:2858
  2a:	9806      	ldr	r0, [sp, #24]
  2c:	9907      	ldr	r1, [sp, #28]
  2e:	f7ff fffe 	bl	0 <_ZN4core5slice22slice_index_order_fail17hca0f713f2dfc7080E>
  32:	defe      	udf	#254	; 0xfe
/rustc/412f43ac5b4ae8c3599e71c6972112e9be4758fa/src/libcore/slice/mod.rs:2859
  34:	9805      	ldr	r0, [sp, #20]
  36:	9904      	ldr	r1, [sp, #16]
  38:	4288      	cmp	r0, r1
  3a:	d809      	bhi.n	50 <_ZN99_$LT$core..ops..range..Range$LT$usize$GT$$u20$as$u20$core..slice..SliceIndex$LT$$u5b$T$u5d$$GT$$GT$9index_mut17hf0c6e563a0620a68E+0x50>
  3c:	e7ff      	b.n	3e <_ZN99_$LT$core..ops..range..Range$LT$usize$GT$$u20$as$u20$core..slice..SliceIndex$LT$$u5b$T$u5d$$GT$$GT$9index_mut17hf0c6e563a0620a68E+0x3e>
/rustc/412f43ac5b4ae8c3599e71c6972112e9be4758fa/src/libcore/slice/mod.rs:2863
  3e:	9806      	ldr	r0, [sp, #24]
  40:	9907      	ldr	r1, [sp, #28]
  42:	9a08      	ldr	r2, [sp, #32]
  44:	9b09      	ldr	r3, [sp, #36]	; 0x24
  46:	f7ff fffe 	bl	0 <_ZN99_$LT$core..ops..range..Range$LT$usize$GT$$u20$as$u20$core..slice..SliceIndex$LT$$u5b$T$u5d$$GT$$GT$9index_mut17hf0c6e563a0620a68E>
  4a:	9003      	str	r0, [sp, #12]
  4c:	9102      	str	r1, [sp, #8]
  4e:	e00e      	b.n	6e <_ZN99_$LT$core..ops..range..Range$LT$usize$GT$$u20$as$u20$core..slice..SliceIndex$LT$$u5b$T$u5d$$GT$$GT$9index_mut17hf0c6e563a0620a68E+0x6e>
/rustc/412f43ac5b4ae8c3599e71c6972112e9be4758fa/src/libcore/slice/mod.rs:2860
  50:	9807      	ldr	r0, [sp, #28]
  52:	9908      	ldr	r1, [sp, #32]
  54:	9a09      	ldr	r2, [sp, #36]	; 0x24
  56:	9001      	str	r0, [sp, #4]
  58:	4608      	mov	r0, r1
  5a:	4611      	mov	r1, r2
  5c:	f7ff fffe 	bl	0 <_ZN4core5slice29_$LT$impl$u20$$u5b$T$u5d$$GT$3len17hd3eda1934930eeedE>
  60:	9000      	str	r0, [sp, #0]
  62:	e7ff      	b.n	64 <_ZN99_$LT$core..ops..range..Range$LT$usize$GT$$u20$as$u20$core..slice..SliceIndex$LT$$u5b$T$u5d$$GT$$GT$9index_mut17hf0c6e563a0620a68E+0x64>
  64:	9801      	ldr	r0, [sp, #4]
  66:	9900      	ldr	r1, [sp, #0]
  68:	f7ff fffe 	bl	0 <_ZN4core5slice20slice_index_len_fail17h7ac73a11c3a53e02E>
  6c:	defe      	udf	#254	; 0xfe
/rustc/412f43ac5b4ae8c3599e71c6972112e9be4758fa/src/libcore/slice/mod.rs:2865
  6e:	9803      	ldr	r0, [sp, #12]
  70:	9902      	ldr	r1, [sp, #8]
  72:	b00a      	add	sp, #40	; 0x28
  74:	bd80      	pop	{r7, pc}

app-d559bf047a1af437.1w1kiq5qai6r4hqv.rcgu.o:     file format elf32-littlearm

SYMBOL TABLE:
00000000 l    df *ABS*	00000000 1w1kiq5qai6r4hqv
00000364 l       .debug_str	00000000 
000003e9 l       .debug_str	00000000 
000003ef l       .debug_str	00000000 
000003f6 l       .debug_str	00000000 
00000400 l       .debug_str	00000000 
0000040e l       .debug_str	00000000 
0000044e l       .debug_str	00000000 
00000453 l       .debug_str	00000000 
00000000 l       .debug_str	00000000 
00000041 l       .debug_str	00000000 
00000055 l       .debug_str	00000000 
00000080 l       .debug_str	00000000 
00000087 l       .debug_str	00000000 
0000008e l       .debug_str	00000000 
00000092 l       .debug_str	00000000 
0000009a l       .debug_str	00000000 
000000a5 l       .debug_str	00000000 
000000b0 l       .debug_str	00000000 
000000bd l       .debug_str	00000000 
000000c8 l       .debug_str	00000000 
000000d0 l       .debug_str	00000000 
000000db l       .debug_str	00000000 
000000e6 l       .debug_str	00000000 
000000f0 l       .debug_str	00000000 
000000fb l       .debug_str	00000000 
00000106 l       .debug_str	00000000 
00000113 l       .debug_str	00000000 
0000011f l       .debug_str	00000000 
0000012c l       .debug_str	00000000 
0000013a l       .debug_str	00000000 
00000144 l       .debug_str	00000000 
00000151 l       .debug_str	00000000 
0000015d l       .debug_str	00000000 
00000161 l       .debug_str	00000000 
00000169 l       .debug_str	00000000 
0000019b l       .debug_str	00000000 
000001a8 l       .debug_str	00000000 
000001ad l       .debug_str	00000000 
000001b1 l       .debug_str	00000000 
000001b4 l       .debug_str	00000000 
000001b8 l       .debug_str	00000000 
000001bb l       .debug_str	00000000 
000001bd l       .debug_str	00000000 
000001bf l       .debug_str	00000000 
000001c3 l       .debug_str	00000000 
000001eb l       .debug_str	00000000 
000001f6 l       .debug_str	00000000 
00000208 l       .debug_str	00000000 
00000213 l       .debug_str	00000000 
0000021d l       .debug_str	00000000 
00000226 l       .debug_str	00000000 
0000022c l       .debug_str	00000000 
0000023b l       .debug_str	00000000 
0000023f l       .debug_str	00000000 
00000245 l       .debug_str	00000000 
00000252 l       .debug_str	00000000 
00000258 l       .debug_str	00000000 
00000263 l       .debug_str	00000000 
0000026a l       .debug_str	00000000 
0000026e l       .debug_str	00000000 
00000273 l       .debug_str	00000000 
0000027e l       .debug_str	00000000 
00000285 l       .debug_str	00000000 
0000028c l       .debug_str	00000000 
00000291 l       .debug_str	00000000 
000002c7 l       .debug_str	00000000 
000002d4 l       .debug_str	00000000 
000002e1 l       .debug_str	00000000 
000002e4 l       .debug_str	00000000 
000002e6 l       .debug_str	00000000 
0000031b l       .debug_str	00000000 
0000031d l       .debug_str	00000000 
00000356 l       .debug_str	00000000 
0000035d l       .debug_str	00000000 
0000036b l       .debug_str	00000000 
000003a1 l       .debug_str	00000000 
000003a8 l       .debug_str	00000000 
000003ad l       .debug_str	00000000 
000003b3 l       .debug_str	00000000 
000003c0 l       .debug_str	00000000 
000003c4 l       .debug_str	00000000 
000003cd l       .debug_str	00000000 
000003d7 l       .debug_str	00000000 
000003de l       .debug_str	00000000 
000003e4 l       .debug_str	00000000 
00000000 l     O .rodata..Lanon.535bb3c3aa8231aa26bae559f0ad512d.0	0000000d .Lanon.535bb3c3aa8231aa26bae559f0ad512d.0
00000000 l    d  .text._ZN3app7display12test_display17h3a2b5249d93d345eE	00000000 .text._ZN3app7display12test_display17h3a2b5249d93d345eE
00000000 l    d  .debug_abbrev	00000000 .debug_abbrev
00000000 l    d  .debug_info	00000000 .debug_info
00000000 l    d  .debug_frame	00000000 .debug_frame
00000000 l    d  .debug_line	00000000 .debug_line
00000000         *UND*	00000000 _ZN119_$LT$embedded_graphics..primitives..circle..Circle$LT$C$GT$$u20$as$u20$embedded_graphics..style..WithStyle$LT$C$GT$$GT$4fill17h3e93264c3e4e60edE
00000000         *UND*	00000000 _ZN123_$LT$embedded_graphics..pixelcolor..rgb565..Rgb565$u20$as$u20$core..convert..From$LT$$LP$u8$C$$u20$u8$C$$u20$u8$RP$$GT$$GT$4from17hef6b76a507f632f1E
00000000         *UND*	00000000 _ZN125_$LT$embedded_graphics..primitives..rectangle..Rectangle$LT$C$GT$$u20$as$u20$embedded_graphics..style..WithStyle$LT$C$GT$$GT$4fill17h80dff45f29022eafE
00000000         *UND*	00000000 _ZN127_$LT$embedded_graphics..fonts..font_builder..FontBuilder$LT$C$C$Conf$GT$$u20$as$u20$embedded_graphics..fonts..Font$LT$C$GT$$GT$10render_str17he8fbfdb434099f6dE
00000000         *UND*	00000000 _ZN127_$LT$embedded_graphics..fonts..font_builder..FontBuilder$LT$C$C$Conf$GT$$u20$as$u20$embedded_graphics..transform..Transform$GT$9translate17h6081851f80e8a13bE
00000000         *UND*	00000000 _ZN132_$LT$embedded_graphics..fonts..font_builder..FontBuilder$LT$C$C$Conf$GT$$u20$as$u20$embedded_graphics..style..WithStyle$LT$C$GT$$GT$4fill17h43897e68e6174723E
00000000         *UND*	00000000 _ZN132_$LT$embedded_graphics..fonts..font_builder..FontBuilder$LT$C$C$Conf$GT$$u20$as$u20$embedded_graphics..style..WithStyle$LT$C$GT$$GT$6stroke17he3a98d61e2ed9d87E
00000000         *UND*	00000000 _ZN17embedded_graphics10primitives6circle15Circle$LT$C$GT$3new17h919718b5bd96a6bbE
00000000         *UND*	00000000 _ZN17embedded_graphics10primitives9rectangle18Rectangle$LT$C$GT$3new17hb10b8ce5aecb39f5E
00000000         *UND*	00000000 _ZN17embedded_graphics5coord14internal_coord5Coord3new17h337630cfd7cf8814E
00000000         *UND*	00000000 _ZN22piet_embedded_graphics7display15draw_to_display17h2681b1ea4540d259E
00000000         *UND*	00000000 _ZN22piet_embedded_graphics7display15draw_to_display17h8f053d084b2d9a5cE
00000000         *UND*	00000000 _ZN22piet_embedded_graphics7display15draw_to_display17hfbbfebae406ebcf9E
00000000 g     F .text._ZN3app7display12test_display17h3a2b5249d93d345eE	00000278 .hidden _ZN3app7display12test_display17h3a2b5249d93d345eE



Disassembly of section .text._ZN3app7display12test_display17h3a2b5249d93d345eE:

00000000 <_ZN3app7display12test_display17h3a2b5249d93d345eE>:
_ZN3app7display12test_display17h3a2b5249d93d345eE():
/Users/Luppy/PineTime/pinetime-rust-mynewt/rust/app/src/display.rs:16
use mynewt::{
    result::*,
};

/// Render some graphics and text to the PineTime display. `start_display()` must have been called earlier.
pub fn test_display() -> MynewtResult<()> {
   0:	b570      	push	{r4, r5, r6, lr}
   2:	f5ad 7d00 	sub.w	sp, sp, #512	; 0x200
   6:	2000      	movs	r0, #0
/Users/Luppy/PineTime/pinetime-rust-mynewt/rust/app/src/display.rs:19
    //  Create black background
    let background = Rectangle::<Rgb565>
        ::new( Coord::new( 0, 0 ), Coord::new( 239, 239 ) )   //  Rectangle coordinates
   8:	9016      	str	r0, [sp, #88]	; 0x58
   a:	9916      	ldr	r1, [sp, #88]	; 0x58
   c:	f7ff fffe 	bl	0 <_ZN17embedded_graphics5coord14internal_coord5Coord3new17h337630cfd7cf8814E>
  10:	9015      	str	r0, [sp, #84]	; 0x54
  12:	9114      	str	r1, [sp, #80]	; 0x50
  14:	e7ff      	b.n	16 <_ZN3app7display12test_display17h3a2b5249d93d345eE+0x16>
  16:	20ef      	movs	r0, #239	; 0xef
  18:	9013      	str	r0, [sp, #76]	; 0x4c
  1a:	9913      	ldr	r1, [sp, #76]	; 0x4c
  1c:	f7ff fffe 	bl	0 <_ZN17embedded_graphics5coord14internal_coord5Coord3new17h337630cfd7cf8814E>
  20:	9012      	str	r0, [sp, #72]	; 0x48
  22:	9111      	str	r1, [sp, #68]	; 0x44
  24:	e7ff      	b.n	26 <_ZN3app7display12test_display17h3a2b5249d93d345eE+0x26>
/Users/Luppy/PineTime/pinetime-rust-mynewt/rust/app/src/display.rs:18
    let background = Rectangle::<Rgb565>
  26:	4668      	mov	r0, sp
  28:	9911      	ldr	r1, [sp, #68]	; 0x44
  2a:	6001      	str	r1, [r0, #0]
  2c:	a81e      	add	r0, sp, #120	; 0x78
  2e:	9915      	ldr	r1, [sp, #84]	; 0x54
  30:	9a14      	ldr	r2, [sp, #80]	; 0x50
  32:	9b12      	ldr	r3, [sp, #72]	; 0x48
  34:	f7ff fffe 	bl	0 <_ZN17embedded_graphics10primitives9rectangle18Rectangle$LT$C$GT$3new17hb10b8ce5aecb39f5E>
  38:	e7ff      	b.n	3a <_ZN3app7display12test_display17h3a2b5249d93d345eE+0x3a>
  3a:	2000      	movs	r0, #0
/Users/Luppy/PineTime/pinetime-rust-mynewt/rust/app/src/display.rs:20
        .fill( Some( Rgb565::from(( 0x00, 0x00, 0x00 )) ) );  //  Black
  3c:	f88d 0098 	strb.w	r0, [sp, #152]	; 0x98
  40:	f88d 0099 	strb.w	r0, [sp, #153]	; 0x99
  44:	f88d 009a 	strb.w	r0, [sp, #154]	; 0x9a
  48:	f89d 009a 	ldrb.w	r0, [sp, #154]	; 0x9a
  4c:	f8bd 1098 	ldrh.w	r1, [sp, #152]	; 0x98
  50:	ea41 4000 	orr.w	r0, r1, r0, lsl #16
  54:	f7ff fffe 	bl	0 <_ZN123_$LT$embedded_graphics..pixelcolor..rgb565..Rgb565$u20$as$u20$core..convert..From$LT$$LP$u8$C$$u20$u8$C$$u20$u8$RP$$GT$$GT$4from17hef6b76a507f632f1E>
  58:	9010      	str	r0, [sp, #64]	; 0x40
  5a:	e7ff      	b.n	5c <_ZN3app7display12test_display17h3a2b5249d93d345eE+0x5c>
  5c:	9810      	ldr	r0, [sp, #64]	; 0x40
  5e:	f8ad 0096 	strh.w	r0, [sp, #150]	; 0x96
  62:	2101      	movs	r1, #1
  64:	f8ad 1094 	strh.w	r1, [sp, #148]	; 0x94
/Users/Luppy/PineTime/pinetime-rust-mynewt/rust/app/src/display.rs:18
    let background = Rectangle::<Rgb565>
  68:	f8bd 3096 	ldrh.w	r3, [sp, #150]	; 0x96
  6c:	f8bd 2094 	ldrh.w	r2, [sp, #148]	; 0x94
  70:	a817      	add	r0, sp, #92	; 0x5c
  72:	a91e      	add	r1, sp, #120	; 0x78
  74:	f7ff fffe 	bl	0 <_ZN125_$LT$embedded_graphics..primitives..rectangle..Rectangle$LT$C$GT$$u20$as$u20$embedded_graphics..style..WithStyle$LT$C$GT$$GT$4fill17h80dff45f29022eafE>
  78:	e7ff      	b.n	7a <_ZN3app7display12test_display17h3a2b5249d93d345eE+0x7a>
  7a:	2028      	movs	r0, #40	; 0x28
/Users/Luppy/PineTime/pinetime-rust-mynewt/rust/app/src/display.rs:24

    //  Create circle
    let circle = Circle::<Rgb565>
        ::new( Coord::new( 40, 40 ), 40 )                     //  Circle centre and radius
  7c:	900f      	str	r0, [sp, #60]	; 0x3c
  7e:	990f      	ldr	r1, [sp, #60]	; 0x3c
  80:	f7ff fffe 	bl	0 <_ZN17embedded_graphics5coord14internal_coord5Coord3new17h337630cfd7cf8814E>
  84:	900e      	str	r0, [sp, #56]	; 0x38
  86:	910d      	str	r1, [sp, #52]	; 0x34
  88:	e7ff      	b.n	8a <_ZN3app7display12test_display17h3a2b5249d93d345eE+0x8a>
  8a:	a82d      	add	r0, sp, #180	; 0xb4
  8c:	2328      	movs	r3, #40	; 0x28
/Users/Luppy/PineTime/pinetime-rust-mynewt/rust/app/src/display.rs:23
    let circle = Circle::<Rgb565>
  8e:	990e      	ldr	r1, [sp, #56]	; 0x38
  90:	9a0d      	ldr	r2, [sp, #52]	; 0x34
  92:	f7ff fffe 	bl	0 <_ZN17embedded_graphics10primitives6circle15Circle$LT$C$GT$3new17h919718b5bd96a6bbE>
  96:	e7ff      	b.n	98 <_ZN3app7display12test_display17h3a2b5249d93d345eE+0x98>
  98:	20ff      	movs	r0, #255	; 0xff
/Users/Luppy/PineTime/pinetime-rust-mynewt/rust/app/src/display.rs:25
        .fill( Some( Rgb565::from(( 0xff, 0x00, 0xff )) ) );  //  Magenta
  9a:	f88d 00d0 	strb.w	r0, [sp, #208]	; 0xd0
  9e:	2100      	movs	r1, #0
  a0:	f88d 10d1 	strb.w	r1, [sp, #209]	; 0xd1
  a4:	f88d 00d2 	strb.w	r0, [sp, #210]	; 0xd2
  a8:	f89d 00d2 	ldrb.w	r0, [sp, #210]	; 0xd2
  ac:	f8bd 10d0 	ldrh.w	r1, [sp, #208]	; 0xd0
  b0:	ea41 4000 	orr.w	r0, r1, r0, lsl #16
  b4:	f7ff fffe 	bl	0 <_ZN123_$LT$embedded_graphics..pixelcolor..rgb565..Rgb565$u20$as$u20$core..convert..From$LT$$LP$u8$C$$u20$u8$C$$u20$u8$RP$$GT$$GT$4from17hef6b76a507f632f1E>
  b8:	900c      	str	r0, [sp, #48]	; 0x30
  ba:	e7ff      	b.n	bc <_ZN3app7display12test_display17h3a2b5249d93d345eE+0xbc>
  bc:	980c      	ldr	r0, [sp, #48]	; 0x30
  be:	f8ad 00ce 	strh.w	r0, [sp, #206]	; 0xce
  c2:	2101      	movs	r1, #1
  c4:	f8ad 10cc 	strh.w	r1, [sp, #204]	; 0xcc
/Users/Luppy/PineTime/pinetime-rust-mynewt/rust/app/src/display.rs:23
    let circle = Circle::<Rgb565>
  c8:	f8bd 30ce 	ldrh.w	r3, [sp, #206]	; 0xce
  cc:	f8bd 20cc 	ldrh.w	r2, [sp, #204]	; 0xcc
  d0:	a827      	add	r0, sp, #156	; 0x9c
  d2:	a92d      	add	r1, sp, #180	; 0xb4
  d4:	f7ff fffe 	bl	0 <_ZN119_$LT$embedded_graphics..primitives..circle..Circle$LT$C$GT$$u20$as$u20$embedded_graphics..style..WithStyle$LT$C$GT$$GT$4fill17h3e93264c3e4e60edE>
  d8:	e7ff      	b.n	da <_ZN3app7display12test_display17h3a2b5249d93d345eE+0xda>
  da:	203c      	movs	r0, #60	; 0x3c
/Users/Luppy/PineTime/pinetime-rust-mynewt/rust/app/src/display.rs:29

    //  Create square
    let square = Rectangle::<Rgb565>
        ::new( Coord::new( 60, 60 ), Coord::new( 150, 150 ) ) //  Square coordinates
  dc:	900b      	str	r0, [sp, #44]	; 0x2c
  de:	990b      	ldr	r1, [sp, #44]	; 0x2c
  e0:	f7ff fffe 	bl	0 <_ZN17embedded_graphics5coord14internal_coord5Coord3new17h337630cfd7cf8814E>
  e4:	900a      	str	r0, [sp, #40]	; 0x28
  e6:	9109      	str	r1, [sp, #36]	; 0x24
  e8:	e7ff      	b.n	ea <_ZN3app7display12test_display17h3a2b5249d93d345eE+0xea>
  ea:	2096      	movs	r0, #150	; 0x96
  ec:	9008      	str	r0, [sp, #32]
  ee:	9908      	ldr	r1, [sp, #32]
  f0:	f7ff fffe 	bl	0 <_ZN17embedded_graphics5coord14internal_coord5Coord3new17h337630cfd7cf8814E>
  f4:	9007      	str	r0, [sp, #28]
  f6:	9106      	str	r1, [sp, #24]
  f8:	e7ff      	b.n	fa <_ZN3app7display12test_display17h3a2b5249d93d345eE+0xfa>
/Users/Luppy/PineTime/pinetime-rust-mynewt/rust/app/src/display.rs:28
    let square = Rectangle::<Rgb565>
  fa:	4668      	mov	r0, sp
  fc:	9906      	ldr	r1, [sp, #24]
  fe:	6001      	str	r1, [r0, #0]
 100:	a83c      	add	r0, sp, #240	; 0xf0
 102:	990a      	ldr	r1, [sp, #40]	; 0x28
 104:	9a09      	ldr	r2, [sp, #36]	; 0x24
 106:	9b07      	ldr	r3, [sp, #28]
 108:	f7ff fffe 	bl	0 <_ZN17embedded_graphics10primitives9rectangle18Rectangle$LT$C$GT$3new17hb10b8ce5aecb39f5E>
 10c:	e7ff      	b.n	10e <_ZN3app7display12test_display17h3a2b5249d93d345eE+0x10e>
 10e:	2000      	movs	r0, #0
/Users/Luppy/PineTime/pinetime-rust-mynewt/rust/app/src/display.rs:30
        .fill( Some( Rgb565::from(( 0x00, 0x00, 0xff )) ) );  //  Blue
 110:	f88d 0110 	strb.w	r0, [sp, #272]	; 0x110
 114:	f88d 0111 	strb.w	r0, [sp, #273]	; 0x111
 118:	20ff      	movs	r0, #255	; 0xff
 11a:	f88d 0112 	strb.w	r0, [sp, #274]	; 0x112
 11e:	f89d 0112 	ldrb.w	r0, [sp, #274]	; 0x112
 122:	f8bd 1110 	ldrh.w	r1, [sp, #272]	; 0x110
 126:	ea41 4000 	orr.w	r0, r1, r0, lsl #16
 12a:	f7ff fffe 	bl	0 <_ZN123_$LT$embedded_graphics..pixelcolor..rgb565..Rgb565$u20$as$u20$core..convert..From$LT$$LP$u8$C$$u20$u8$C$$u20$u8$RP$$GT$$GT$4from17hef6b76a507f632f1E>
 12e:	9005      	str	r0, [sp, #20]
 130:	e7ff      	b.n	132 <_ZN3app7display12test_display17h3a2b5249d93d345eE+0x132>
 132:	9805      	ldr	r0, [sp, #20]
 134:	f8ad 010e 	strh.w	r0, [sp, #270]	; 0x10e
 138:	2101      	movs	r1, #1
 13a:	f8ad 110c 	strh.w	r1, [sp, #268]	; 0x10c
/Users/Luppy/PineTime/pinetime-rust-mynewt/rust/app/src/display.rs:28
    let square = Rectangle::<Rgb565>
 13e:	f8bd 310e 	ldrh.w	r3, [sp, #270]	; 0x10e
 142:	f8bd 210c 	ldrh.w	r2, [sp, #268]	; 0x10c
 146:	a835      	add	r0, sp, #212	; 0xd4
 148:	a93c      	add	r1, sp, #240	; 0xf0
 14a:	f7ff fffe 	bl	0 <_ZN125_$LT$embedded_graphics..primitives..rectangle..Rectangle$LT$C$GT$$u20$as$u20$embedded_graphics..style..WithStyle$LT$C$GT$$GT$4fill17h80dff45f29022eafE>
 14e:	e7ff      	b.n	2 <_ZN3app7display12test_display17h3a2b5249d93d345eE+0x2>
/Users/Luppy/PineTime/pinetime-rust-mynewt/rust/app/src/display.rs:33

    //  Create text
    let text = fonts::Font12x16::<Rgb565>
 150:	f240 0100 	movw	r1, #0
 154:	f2c0 0100 	movt	r1, #0
 158:	a85a      	add	r0, sp, #360	; 0x168
 15a:	220d      	movs	r2, #13
 15c:	f7ff fffe 	bl	0 <_ZN127_$LT$embedded_graphics..fonts..font_builder..FontBuilder$LT$C$C$Conf$GT$$u20$as$u20$embedded_graphics..fonts..Font$LT$C$GT$$GT$10render_str17he8fbfdb434099f6dE>
 160:	e7ff      	b.n	162 <_ZN3app7display12test_display17h3a2b5249d93d345eE+0x162>
 162:	2000      	movs	r0, #0
/Users/Luppy/PineTime/pinetime-rust-mynewt/rust/app/src/display.rs:35
        ::render_str("I AM PINETIME")                          //  Text to be rendered
        .stroke( Some( Rgb565::from(( 0x00, 0x00, 0x00 )) ) )  //  Black
 164:	f88d 0188 	strb.w	r0, [sp, #392]	; 0x188
 168:	f88d 0189 	strb.w	r0, [sp, #393]	; 0x189
 16c:	f88d 018a 	strb.w	r0, [sp, #394]	; 0x18a
 170:	f89d 018a 	ldrb.w	r0, [sp, #394]	; 0x18a
 174:	f8bd 1188 	ldrh.w	r1, [sp, #392]	; 0x188
 178:	ea41 4000 	orr.w	r0, r1, r0, lsl #16
 17c:	f7ff fffe 	bl	0 <_ZN123_$LT$embedded_graphics..pixelcolor..rgb565..Rgb565$u20$as$u20$core..convert..From$LT$$LP$u8$C$$u20$u8$C$$u20$u8$RP$$GT$$GT$4from17hef6b76a507f632f1E>
 180:	9004      	str	r0, [sp, #16]
 182:	e7ff      	b.n	184 <_ZN3app7display12test_display17h3a2b5249d93d345eE+0x184>
 184:	9804      	ldr	r0, [sp, #16]
 186:	f8ad 0186 	strh.w	r0, [sp, #390]	; 0x186
 18a:	2101      	movs	r1, #1
 18c:	f8ad 1184 	strh.w	r1, [sp, #388]	; 0x184
/Users/Luppy/PineTime/pinetime-rust-mynewt/rust/app/src/display.rs:33
    let text = fonts::Font12x16::<Rgb565>
 190:	f8bd 3186 	ldrh.w	r3, [sp, #390]	; 0x186
 194:	f8bd 2184 	ldrh.w	r2, [sp, #388]	; 0x184
 198:	a853      	add	r0, sp, #332	; 0x14c
 19a:	a95a      	add	r1, sp, #360	; 0x168
 19c:	f7ff fffe 	bl	0 <_ZN132_$LT$embedded_graphics..fonts..font_builder..FontBuilder$LT$C$C$Conf$GT$$u20$as$u20$embedded_graphics..style..WithStyle$LT$C$GT$$GT$6stroke17he3a98d61e2ed9d87E>
 1a0:	e7ff      	b.n	1a2 <_ZN3app7display12test_display17h3a2b5249d93d345eE+0x1a2>
 1a2:	20ff      	movs	r0, #255	; 0xff
/Users/Luppy/PineTime/pinetime-rust-mynewt/rust/app/src/display.rs:36
        .fill( Some( Rgb565::from((   0xff, 0xff, 0x00 )) ) )  //  Yellow
 1a4:	f88d 0190 	strb.w	r0, [sp, #400]	; 0x190
 1a8:	f88d 0191 	strb.w	r0, [sp, #401]	; 0x191
 1ac:	2000      	movs	r0, #0
 1ae:	f88d 0192 	strb.w	r0, [sp, #402]	; 0x192
 1b2:	f89d 0192 	ldrb.w	r0, [sp, #402]	; 0x192
 1b6:	f8bd 1190 	ldrh.w	r1, [sp, #400]	; 0x190
 1ba:	ea41 4000 	orr.w	r0, r1, r0, lsl #16
 1be:	f7ff fffe 	bl	0 <_ZN123_$LT$embedded_graphics..pixelcolor..rgb565..Rgb565$u20$as$u20$core..convert..From$LT$$LP$u8$C$$u20$u8$C$$u20$u8$RP$$GT$$GT$4from17hef6b76a507f632f1E>
 1c2:	9003      	str	r0, [sp, #12]
 1c4:	e7ff      	b.n	1c6 <_ZN3app7display12test_display17h3a2b5249d93d345eE+0x1c6>
 1c6:	9803      	ldr	r0, [sp, #12]
 1c8:	f8ad 018e 	strh.w	r0, [sp, #398]	; 0x18e
 1cc:	2101      	movs	r1, #1
 1ce:	f8ad 118c 	strh.w	r1, [sp, #396]	; 0x18c
/Users/Luppy/PineTime/pinetime-rust-mynewt/rust/app/src/display.rs:33
    let text = fonts::Font12x16::<Rgb565>
 1d2:	f8bd 318e 	ldrh.w	r3, [sp, #398]	; 0x18e
 1d6:	f8bd 218c 	ldrh.w	r2, [sp, #396]	; 0x18c
 1da:	a84c      	add	r0, sp, #304	; 0x130
 1dc:	a953      	add	r1, sp, #332	; 0x14c
 1de:	f7ff fffe 	bl	0 <_ZN132_$LT$embedded_graphics..fonts..font_builder..FontBuilder$LT$C$C$Conf$GT$$u20$as$u20$embedded_graphics..style..WithStyle$LT$C$GT$$GT$4fill17h43897e68e6174723E>
 1e2:	e7ff      	b.n	1e4 <_ZN3app7display12test_display17h3a2b5249d93d345eE+0x1e4>
 1e4:	2014      	movs	r0, #20
 1e6:	2110      	movs	r1, #16
/Users/Luppy/PineTime/pinetime-rust-mynewt/rust/app/src/display.rs:37
        .translate( Coord::new( 20, 16 ));                     //  Move the text
 1e8:	f7ff fffe 	bl	0 <_ZN17embedded_graphics5coord14internal_coord5Coord3new17h337630cfd7cf8814E>
 1ec:	9002      	str	r0, [sp, #8]
 1ee:	9101      	str	r1, [sp, #4]
 1f0:	e7ff      	b.n	1f2 <_ZN3app7display12test_display17h3a2b5249d93d345eE+0x1f2>
 1f2:	a845      	add	r0, sp, #276	; 0x114
 1f4:	a94c      	add	r1, sp, #304	; 0x130
/Users/Luppy/PineTime/pinetime-rust-mynewt/rust/app/src/display.rs:33
    let text = fonts::Font12x16::<Rgb565>
 1f6:	9a02      	ldr	r2, [sp, #8]
 1f8:	9b01      	ldr	r3, [sp, #4]
 1fa:	f7ff fffe 	bl	0 <_ZN127_$LT$embedded_graphics..fonts..font_builder..FontBuilder$LT$C$C$Conf$GT$$u20$as$u20$embedded_graphics..transform..Transform$GT$9translate17h6081851f80e8a13bE>
 1fe:	e7ff      	b.n	200 <_ZN3app7display12test_display17h3a2b5249d93d345eE+0x200>
 200:	a817      	add	r0, sp, #92	; 0x5c
 202:	a965      	add	r1, sp, #404	; 0x194
/Users/Luppy/PineTime/pinetime-rust-mynewt/rust/app/src/display.rs:40

    //  Render background, circle, square and text to display
    druid::draw_to_display(background);
 204:	460a      	mov	r2, r1
 206:	e8b0 5008 	ldmia.w	r0!, {r3, ip, lr}
 20a:	e8a2 5008 	stmia.w	r2!, {r3, ip, lr}
 20e:	e890 5018 	ldmia.w	r0, {r3, r4, ip, lr}
 212:	e882 5018 	stmia.w	r2, {r3, r4, ip, lr}
 216:	4608      	mov	r0, r1
 218:	f7ff fffe 	bl	0 <_ZN22piet_embedded_graphics7display15draw_to_display17h8f053d084b2d9a5cE>
 21c:	e7ff      	b.n	21e <_ZN3app7display12test_display17h3a2b5249d93d345eE+0x21e>
 21e:	a827      	add	r0, sp, #156	; 0x9c
 220:	a96c      	add	r1, sp, #432	; 0x1b0
/Users/Luppy/PineTime/pinetime-rust-mynewt/rust/app/src/display.rs:41
    druid::draw_to_display(circle);
 222:	460a      	mov	r2, r1
 224:	e890 5078 	ldmia.w	r0, {r3, r4, r5, r6, ip, lr}
 228:	e882 5078 	stmia.w	r2, {r3, r4, r5, r6, ip, lr}
 22c:	4608      	mov	r0, r1
 22e:	f7ff fffe 	bl	0 <_ZN22piet_embedded_graphics7display15draw_to_display17h2681b1ea4540d259E>
 232:	e7ff      	b.n	234 <_ZN3app7display12test_display17h3a2b5249d93d345eE+0x234>
 234:	a835      	add	r0, sp, #212	; 0xd4
 236:	a972      	add	r1, sp, #456	; 0x1c8
/Users/Luppy/PineTime/pinetime-rust-mynewt/rust/app/src/display.rs:42
    druid::draw_to_display(square);
 238:	460a      	mov	r2, r1
 23a:	e8b0 5008 	ldmia.w	r0!, {r3, ip, lr}
 23e:	e8a2 5008 	stmia.w	r2!, {r3, ip, lr}
 242:	e890 5018 	ldmia.w	r0, {r3, r4, ip, lr}
 246:	e882 5018 	stmia.w	r2, {r3, r4, ip, lr}
 24a:	4608      	mov	r0, r1
 24c:	f7ff fffe 	bl	0 <_ZN22piet_embedded_graphics7display15draw_to_display17h8f053d084b2d9a5cE>
 250:	e7ff      	b.n	252 <_ZN3app7display12test_display17h3a2b5249d93d345eE+0x252>
 252:	a845      	add	r0, sp, #276	; 0x114
 254:	a979      	add	r1, sp, #484	; 0x1e4
/Users/Luppy/PineTime/pinetime-rust-mynewt/rust/app/src/display.rs:43
    druid::draw_to_display(text);    
 256:	460a      	mov	r2, r1
 258:	e8b0 5008 	ldmia.w	r0!, {r3, ip, lr}
 25c:	e8a2 5008 	stmia.w	r2!, {r3, ip, lr}
 260:	e890 5018 	ldmia.w	r0, {r3, r4, ip, lr}
 264:	e882 5018 	stmia.w	r2, {r3, r4, ip, lr}
 268:	4608      	mov	r0, r1
 26a:	f7ff fffe 	bl	0 <_ZN22piet_embedded_graphics7display15draw_to_display17hfbbfebae406ebcf9E>
 26e:	e7ff      	b.n	270 <_ZN3app7display12test_display17h3a2b5249d93d345eE+0x270>
 270:	2001      	movs	r0, #1
/Users/Luppy/PineTime/pinetime-rust-mynewt/rust/app/src/display.rs:47

    //  Return success to the caller
    Ok(())
 272:	f50d 7d00 	add.w	sp, sp, #512	; 0x200
 276:	bd70      	pop	{r4, r5, r6, pc}

app-d559bf047a1af437.2bxzo9r06w54kjdx.rcgu.o:     file format elf32-littlearm

SYMBOL TABLE:
00000000 l    df *ABS*	00000000 2bxzo9r06w54kjdx
000002b4 l       .debug_str	00000000 
000003d1 l       .debug_str	00000000 
000003dc l       .debug_str	00000000 
000003f9 l       .debug_str	00000000 
00000412 l       .debug_str	00000000 
0000041c l       .debug_str	00000000 
0000044e l       .debug_str	00000000 
00000000 l       .debug_str	00000000 
00000041 l       .debug_str	00000000 
00000055 l       .debug_str	00000000 
00000080 l       .debug_str	00000000 
00000085 l       .debug_str	00000000 
00000089 l       .debug_str	00000000 
0000008c l       .debug_str	00000000 
0000008f l       .debug_str	00000000 
00000092 l       .debug_str	00000000 
00000097 l       .debug_str	00000000 
0000009d l       .debug_str	00000000 
000000a4 l       .debug_str	00000000 
000000ac l       .debug_str	00000000 
000000b6 l       .debug_str	00000000 
000000bd l       .debug_str	00000000 
000000c0 l       .debug_str	00000000 
000000c4 l       .debug_str	00000000 
000000cb l       .debug_str	00000000 
000000d2 l       .debug_str	00000000 
000000db l       .debug_str	00000000 
000000e5 l       .debug_str	00000000 
000000ec l       .debug_str	00000000 
000000f2 l       .debug_str	00000000 
000000f7 l       .debug_str	00000000 
00000103 l       .debug_str	00000000 
0000010b l       .debug_str	00000000 
00000112 l       .debug_str	00000000 
00000116 l       .debug_str	00000000 
0000011b l       .debug_str	00000000 
00000124 l       .debug_str	00000000 
00000129 l       .debug_str	00000000 
0000012c l       .debug_str	00000000 
00000130 l       .debug_str	00000000 
00000139 l       .debug_str	00000000 
00000140 l       .debug_str	00000000 
00000145 l       .debug_str	00000000 
0000014a l       .debug_str	00000000 
00000150 l       .debug_str	00000000 
00000156 l       .debug_str	00000000 
00000160 l       .debug_str	00000000 
00000163 l       .debug_str	00000000 
00000169 l       .debug_str	00000000 
00000173 l       .debug_str	00000000 
0000017b l       .debug_str	00000000 
00000181 l       .debug_str	00000000 
00000187 l       .debug_str	00000000 
00000192 l       .debug_str	00000000 
0000019b l       .debug_str	00000000 
000001be l       .debug_str	00000000 
000001dd l       .debug_str	00000000 
000001df l       .debug_str	00000000 
000001e4 l       .debug_str	00000000 
0000020b l       .debug_str	00000000 
00000210 l       .debug_str	00000000 
00000216 l       .debug_str	00000000 
0000021c l       .debug_str	00000000 
0000021f l       .debug_str	00000000 
0000022e l       .debug_str	00000000 
00000235 l       .debug_str	00000000 
00000239 l       .debug_str	00000000 
00000242 l       .debug_str	00000000 
0000024a l       .debug_str	00000000 
00000252 l       .debug_str	00000000 
00000259 l       .debug_str	00000000 
0000026d l       .debug_str	00000000 
00000279 l       .debug_str	00000000 
00000285 l       .debug_str	00000000 
0000029e l       .debug_str	00000000 
000002a3 l       .debug_str	00000000 
000002be l       .debug_str	00000000 
000002cc l       .debug_str	00000000 
000002d0 l       .debug_str	00000000 
000002db l       .debug_str	00000000 
000002e2 l       .debug_str	00000000 
000002e8 l       .debug_str	00000000 
000002ec l       .debug_str	00000000 
000002f0 l       .debug_str	00000000 
000002f8 l       .debug_str	00000000 
0000030f l       .debug_str	00000000 
00000333 l       .debug_str	00000000 
0000034f l       .debug_str	00000000 
00000359 l       .debug_str	00000000 
00000373 l       .debug_str	00000000 
00000000 l    d  .text._ZN4core3fmt9Arguments6new_v117h8bd7606948c16060E	00000000 .text._ZN4core3fmt9Arguments6new_v117h8bd7606948c16060E
00000000 l    d  .debug_abbrev	00000000 .debug_abbrev
00000000 l    d  .debug_info	00000000 .debug_info
00000000 l    d  .debug_frame	00000000 .debug_frame
00000000 l    d  .debug_line	00000000 .debug_line
00000000 g     F .text._ZN4core3fmt9Arguments6new_v117h8bd7606948c16060E	00000038 .hidden _ZN4core3fmt9Arguments6new_v117h8bd7606948c16060E



Disassembly of section .text._ZN4core3fmt9Arguments6new_v117h8bd7606948c16060E:

00000000 <_ZN4core3fmt9Arguments6new_v117h8bd7606948c16060E>:
_ZN4core3fmt9Arguments6new_v117h8bd7606948c16060E():
/rustc/412f43ac5b4ae8c3599e71c6972112e9be4758fa/src/libcore/fmt/mod.rs:316
   0:	b086      	sub	sp, #24
   2:	f8dd c018 	ldr.w	ip, [sp, #24]
   6:	9100      	str	r1, [sp, #0]
   8:	9201      	str	r2, [sp, #4]
   a:	9302      	str	r3, [sp, #8]
   c:	f8cd c00c 	str.w	ip, [sp, #12]
/rustc/412f43ac5b4ae8c3599e71c6972112e9be4758fa/src/libcore/fmt/mod.rs:319
  10:	9900      	ldr	r1, [sp, #0]
  12:	9a01      	ldr	r2, [sp, #4]
  14:	2300      	movs	r3, #0
/rustc/412f43ac5b4ae8c3599e71c6972112e9be4758fa/src/libcore/fmt/mod.rs:320
  16:	9305      	str	r3, [sp, #20]
  18:	9304      	str	r3, [sp, #16]
  1a:	9304      	str	r3, [sp, #16]
/rustc/412f43ac5b4ae8c3599e71c6972112e9be4758fa/src/libcore/fmt/mod.rs:321
  1c:	9b02      	ldr	r3, [sp, #8]
  1e:	f8dd c00c 	ldr.w	ip, [sp, #12]
/rustc/412f43ac5b4ae8c3599e71c6972112e9be4758fa/src/libcore/fmt/mod.rs:318
  22:	6001      	str	r1, [r0, #0]
  24:	6042      	str	r2, [r0, #4]
  26:	9904      	ldr	r1, [sp, #16]
  28:	9a05      	ldr	r2, [sp, #20]
  2a:	6081      	str	r1, [r0, #8]
  2c:	60c2      	str	r2, [r0, #12]
  2e:	6103      	str	r3, [r0, #16]
  30:	f8c0 c014 	str.w	ip, [r0, #20]
/rustc/412f43ac5b4ae8c3599e71c6972112e9be4758fa/src/libcore/fmt/mod.rs:323
  34:	b006      	add	sp, #24
  36:	4770      	bx	lr

app-d559bf047a1af437.2oxkclz2dm5og9fj.rcgu.o:     file format elf32-littlearm

SYMBOL TABLE:
00000000 l    df *ABS*	00000000 2oxkclz2dm5og9fj
000037e1 l       .debug_str	00000000 
00003675 l       .debug_str	00000000 
000037cd l       .debug_str	00000000 
000037d6 l       .debug_str	00000000 
000037e8 l       .debug_str	00000000 
000037ef l       .debug_str	00000000 
0000385a l       .debug_str	00000000 
0000398b l       .debug_str	00000000 
000039f8 l       .debug_str	00000000 
00003a6a l       .debug_str	00000000 
00003bc6 l       .debug_str	00000000 
00003bd1 l       .debug_str	00000000 
00003c43 l       .debug_str	00000000 
00003d78 l       .debug_str	00000000 
00003dc2 l       .debug_str	00000000 
00003f26 l       .debug_str	00000000 
00003f61 l       .debug_str	00000000 
00004090 l       .debug_str	00000000 
000040cb l       .debug_str	00000000 
00004221 l       .debug_str	00000000 
0000425d l       .debug_str	00000000 
0000438d l       .debug_str	00000000 
0000438f l       .debug_str	00000000 
0000439f l       .debug_str	00000000 
000043dc l       .debug_str	00000000 
0000450d l       .debug_str	00000000 
0000454a l       .debug_str	00000000 
000046a2 l       .debug_str	00000000 
00004723 l       .debug_str	00000000 
0000487f l       .debug_str	00000000 
00004884 l       .debug_str	00000000 
000049e0 l       .debug_str	00000000 
00004a5e l       .debug_str	00000000 
00004bb5 l       .debug_str	00000000 
00004bbc l       .debug_str	00000000 
00004bc1 l       .debug_str	00000000 
00004bc6 l       .debug_str	00000000 
00004bd2 l       .debug_str	00000000 
00004d39 l       .debug_str	00000000 
00004e79 l       .debug_str	00000000 
00004fe4 l       .debug_str	00000000 
00005128 l       .debug_str	00000000 
00005298 l       .debug_str	00000000 
0000529e l       .debug_str	00000000 
00000000 l       .debug_str	00000000 
00000041 l       .debug_str	00000000 
00000055 l       .debug_str	00000000 
00000080 l       .debug_str	00000000 
00000085 l       .debug_str	00000000 
0000008c l       .debug_str	00000000 
0000008f l       .debug_str	00000000 
00000092 l       .debug_str	00000000 
00000096 l       .debug_str	00000000 
0000009d l       .debug_str	00000000 
000000a6 l       .debug_str	00000000 
000000aa l       .debug_str	00000000 
000000b3 l       .debug_str	00000000 
000000b7 l       .debug_str	00000000 
000000b9 l       .debug_str	00000000 
000000c0 l       .debug_str	00000000 
000000c4 l       .debug_str	00000000 
000000d1 l       .debug_str	00000000 
000000d8 l       .debug_str	00000000 
000000db l       .debug_str	00000000 
000000e1 l       .debug_str	00000000 
000000ef l       .debug_str	00000000 
000000fd l       .debug_str	00000000 
00000102 l       .debug_str	00000000 
0000010a l       .debug_str	00000000 
00000112 l       .debug_str	00000000 
00000116 l       .debug_str	00000000 
00000118 l       .debug_str	00000000 
0000011a l       .debug_str	00000000 
00000137 l       .debug_str	00000000 
0000017d l       .debug_str	00000000 
00000185 l       .debug_str	00000000 
0000018c l       .debug_str	00000000 
0000019d l       .debug_str	00000000 
0000020d l       .debug_str	00000000 
000002a7 l       .debug_str	00000000 
0000036a l       .debug_str	00000000 
00000457 l       .debug_str	00000000 
0000056e l       .debug_str	00000000 
000006af l       .debug_str	00000000 
000006b7 l       .debug_str	00000000 
000006bc l       .debug_str	00000000 
000006c2 l       .debug_str	00000000 
000006c6 l       .debug_str	00000000 
000006ca l       .debug_str	00000000 
000006cd l       .debug_str	00000000 
000006f6 l       .debug_str	00000000 
0000072c l       .debug_str	00000000 
0000072e l       .debug_str	00000000 
0000075b l       .debug_str	00000000 
000007ab l       .debug_str	00000000 
00000808 l       .debug_str	00000000 
0000085c l       .debug_str	00000000 
0000085f l       .debug_str	00000000 
000008d6 l       .debug_str	00000000 
0000095a l       .debug_str	00000000 
000009d5 l       .debug_str	00000000 
00000a73 l       .debug_str	00000000 
00000b1e l       .debug_str	00000000 
00000bc0 l       .debug_str	00000000 
00000c85 l       .debug_str	00000000 
00000d57 l       .debug_str	00000000 
00000e20 l       .debug_str	00000000 
00000f0c l       .debug_str	00000000 
00001005 l       .debug_str	00000000 
000010f5 l       .debug_str	00000000 
00001208 l       .debug_str	00000000 
00001328 l       .debug_str	00000000 
0000143f l       .debug_str	00000000 
00001579 l       .debug_str	00000000 
000016c0 l       .debug_str	00000000 
000017fe l       .debug_str	00000000 
0000195e l       .debug_str	00000000 
00001adb l       .debug_str	00000000 
00001c57 l       .debug_str	00000000 
00001c5b l       .debug_str	00000000 
00001c61 l       .debug_str	00000000 
00001c63 l       .debug_str	00000000 
00001dd7 l       .debug_str	00000000 
00001dd9 l       .debug_str	00000000 
00001f30 l       .debug_str	00000000 
00002069 l       .debug_str	00000000 
000021bf l       .debug_str	00000000 
00002314 l       .debug_str	00000000 
00002461 l       .debug_str	00000000 
00002591 l       .debug_str	00000000 
000025dd l       .debug_str	00000000 
00002754 l       .debug_str	00000000 
000028ca l       .debug_str	00000000 
000028cf l       .debug_str	00000000 
00002a65 l       .debug_str	00000000 
00002ae0 l       .debug_str	00000000 
00002c56 l       .debug_str	00000000 
00002dc6 l       .debug_str	00000000 
00002f5e l       .debug_str	00000000 
00002fc4 l       .debug_str	00000000 
0000311c l       .debug_str	00000000 
00003182 l       .debug_str	00000000 
000032b3 l       .debug_str	00000000 
0000331b l       .debug_str	00000000 
00003472 l       .debug_str	00000000 
000034da l       .debug_str	00000000 
0000360a l       .debug_str	00000000 
00000000 l     O .rodata..Lanon.513adaaa13b0aaca002949bf0668ae11.1	00000010 .Lanon.513adaaa13b0aaca002949bf0668ae11.1
00000000 l     O .rodata.str.0	0000001c str.0
00000000 l    d  .text._ZN70_$LT$heapless..vec..Vec$LT$T$C$N$GT$$u20$as$u20$core..clone..Clone$GT$5clone17h06de5d43137c8e8cE	00000000 .text._ZN70_$LT$heapless..vec..Vec$LT$T$C$N$GT$$u20$as$u20$core..clone..Clone$GT$5clone17h06de5d43137c8e8cE
00000000 l    d  .text._ZN70_$LT$heapless..vec..Vec$LT$T$C$N$GT$$u20$as$u20$core..clone..Clone$GT$5clone17hca841008de44ea41E	00000000 .text._ZN70_$LT$heapless..vec..Vec$LT$T$C$N$GT$$u20$as$u20$core..clone..Clone$GT$5clone17hca841008de44ea41E
00000000 l    d  .text._ZN73_$LT$heapless..vec..Vec$LT$T$C$N$GT$$u20$as$u20$core..ops..drop..Drop$GT$4drop17h0a4f8fd95d5c2f6bE	00000000 .text._ZN73_$LT$heapless..vec..Vec$LT$T$C$N$GT$$u20$as$u20$core..ops..drop..Drop$GT$4drop17h0a4f8fd95d5c2f6bE
00000000 l    d  .text._ZN73_$LT$heapless..vec..Vec$LT$T$C$N$GT$$u20$as$u20$core..ops..drop..Drop$GT$4drop17h6da2bc5e93599c02E	00000000 .text._ZN73_$LT$heapless..vec..Vec$LT$T$C$N$GT$$u20$as$u20$core..ops..drop..Drop$GT$4drop17h6da2bc5e93599c02E
00000000 l    d  .text._ZN75_$LT$heapless..vec..Vec$LT$T$C$N$GT$$u20$as$u20$core..ops..deref..Deref$GT$5deref17h1a6a938c93756f77E	00000000 .text._ZN75_$LT$heapless..vec..Vec$LT$T$C$N$GT$$u20$as$u20$core..ops..deref..Deref$GT$5deref17h1a6a938c93756f77E
00000000 l    d  .text._ZN75_$LT$heapless..vec..Vec$LT$T$C$N$GT$$u20$as$u20$core..ops..deref..Deref$GT$5deref17h26cfc6056df07241E	00000000 .text._ZN75_$LT$heapless..vec..Vec$LT$T$C$N$GT$$u20$as$u20$core..ops..deref..Deref$GT$5deref17h26cfc6056df07241E
00000000 l    d  .text._ZN78_$LT$heapless..vec..IntoIter$LT$T$C$N$GT$$u20$as$u20$core..ops..drop..Drop$GT$4drop17he041b80b2a2967b7E	00000000 .text._ZN78_$LT$heapless..vec..IntoIter$LT$T$C$N$GT$$u20$as$u20$core..ops..drop..Drop$GT$4drop17he041b80b2a2967b7E
00000000 l    d  .text._ZN78_$LT$heapless..vec..Vec$LT$T$C$N$GT$$u20$as$u20$core..ops..deref..DerefMut$GT$9deref_mut17h55f69fb805a84bbfE	00000000 .text._ZN78_$LT$heapless..vec..Vec$LT$T$C$N$GT$$u20$as$u20$core..ops..deref..DerefMut$GT$9deref_mut17h55f69fb805a84bbfE
00000000 l    d  .text._ZN78_$LT$heapless..vec..Vec$LT$T$C$N$GT$$u20$as$u20$core..ops..deref..DerefMut$GT$9deref_mut17he9edcdcf733d4da8E	00000000 .text._ZN78_$LT$heapless..vec..Vec$LT$T$C$N$GT$$u20$as$u20$core..ops..deref..DerefMut$GT$9deref_mut17he9edcdcf733d4da8E
00000000 l    d  .text._ZN8heapless3vec16Vec$LT$T$C$N$GT$17extend_from_slice17h13d4385adab264f0E	00000000 .text._ZN8heapless3vec16Vec$LT$T$C$N$GT$17extend_from_slice17h13d4385adab264f0E
00000000 l    d  .text._ZN8heapless3vec16Vec$LT$T$C$N$GT$3new17h2de058a16b3a9b38E	00000000 .text._ZN8heapless3vec16Vec$LT$T$C$N$GT$3new17h2de058a16b3a9b38E
00000000 l    d  .text._ZN8heapless3vec16Vec$LT$T$C$N$GT$3new17h5ac6dca824738de3E	00000000 .text._ZN8heapless3vec16Vec$LT$T$C$N$GT$3new17h5ac6dca824738de3E
00000000 l    d  .text._ZN8heapless3vec16Vec$LT$T$C$N$GT$4push17h6f527a384316b252E	00000000 .text._ZN8heapless3vec16Vec$LT$T$C$N$GT$4push17h6f527a384316b252E
00000000 l    d  .text._ZN8heapless3vec16Vec$LT$T$C$N$GT$5clear17h2f7841f03661f139E	00000000 .text._ZN8heapless3vec16Vec$LT$T$C$N$GT$5clear17h2f7841f03661f139E
00000000 l    d  .text._ZN8heapless3vec16Vec$LT$T$C$N$GT$5clear17hfd39c9763fef61d4E	00000000 .text._ZN8heapless3vec16Vec$LT$T$C$N$GT$5clear17hfd39c9763fef61d4E
00000000 l    d  .text._ZN93_$LT$heapless..vec..Vec$LT$T$C$N$GT$$u20$as$u20$core..iter..traits..collect..IntoIterator$GT$9into_iter17h594546a696844f02E	00000000 .text._ZN93_$LT$heapless..vec..Vec$LT$T$C$N$GT$$u20$as$u20$core..iter..traits..collect..IntoIterator$GT$9into_iter17h594546a696844f02E
00000000 l    d  .text._ZN95_$LT$heapless..vec..IntoIter$LT$T$C$N$GT$$u20$as$u20$core..iter..traits..iterator..Iterator$GT$4next17hc222d745b483a5c5E	00000000 .text._ZN95_$LT$heapless..vec..IntoIter$LT$T$C$N$GT$$u20$as$u20$core..iter..traits..iterator..Iterator$GT$4next17hc222d745b483a5c5E
00000000 l    d  .rodata..Lanon.513adaaa13b0aaca002949bf0668ae11.0	00000000 .rodata..Lanon.513adaaa13b0aaca002949bf0668ae11.0
00000000 l    d  .debug_loc	00000000 .debug_loc
00000000 l    d  .debug_abbrev	00000000 .debug_abbrev
00000000 l    d  .debug_info	00000000 .debug_info
00000000 l    d  .debug_ranges	00000000 .debug_ranges
00000000 l    d  .debug_frame	00000000 .debug_frame
00000000 l    d  .debug_line	00000000 .debug_line
00000000         *UND*	00000000 _ZN4core3ptr33_$LT$impl$u20$$BP$const$u20$T$GT$3add17hc7070bbca87f8170E
00000000         *UND*	00000000 _ZN4core3ptr33_$LT$impl$u20$$BP$const$u20$T$GT$4read17h220cab28cb6d63c7E
00000000         *UND*	00000000 _ZN4core5slice29_$LT$impl$u20$$u5b$T$u5d$$GT$3len17hd3eda1934930eeedE
00000000         *UND*	00000000 _ZN4core5slice77_$LT$impl$u20$core..ops..index..IndexMut$LT$I$GT$$u20$for$u20$$u5b$T$u5d$$GT$9index_mut17h3e6a02a0c7a3a5e7E
00000000         *UND*	00000000 _ZN4core5slice77_$LT$impl$u20$core..ops..index..IndexMut$LT$I$GT$$u20$for$u20$$u5b$T$u5d$$GT$9index_mut17h73a5aedf5cff0b8dE
00000000         *UND*	00000000 _ZN4core9panicking5panic17hfdd0eecc44a682f8E
00000000 g     F .text._ZN70_$LT$heapless..vec..Vec$LT$T$C$N$GT$$u20$as$u20$core..clone..Clone$GT$5clone17h06de5d43137c8e8cE	00000024 _ZN70_$LT$heapless..vec..Vec$LT$T$C$N$GT$$u20$as$u20$core..clone..Clone$GT$5clone17h06de5d43137c8e8cE
00000000 g     F .text._ZN70_$LT$heapless..vec..Vec$LT$T$C$N$GT$$u20$as$u20$core..clone..Clone$GT$5clone17hca841008de44ea41E	00000022 _ZN70_$LT$heapless..vec..Vec$LT$T$C$N$GT$$u20$as$u20$core..clone..Clone$GT$5clone17hca841008de44ea41E
00000000 g     F .text._ZN73_$LT$heapless..vec..Vec$LT$T$C$N$GT$$u20$as$u20$core..ops..drop..Drop$GT$4drop17h0a4f8fd95d5c2f6bE	0000002e _ZN73_$LT$heapless..vec..Vec$LT$T$C$N$GT$$u20$as$u20$core..ops..drop..Drop$GT$4drop17h0a4f8fd95d5c2f6bE
00000000 g     F .text._ZN73_$LT$heapless..vec..Vec$LT$T$C$N$GT$$u20$as$u20$core..ops..drop..Drop$GT$4drop17h6da2bc5e93599c02E	0000002e _ZN73_$LT$heapless..vec..Vec$LT$T$C$N$GT$$u20$as$u20$core..ops..drop..Drop$GT$4drop17h6da2bc5e93599c02E
00000000 g     F .text._ZN75_$LT$heapless..vec..Vec$LT$T$C$N$GT$$u20$as$u20$core..ops..deref..Deref$GT$5deref17h1a6a938c93756f77E	0000001a _ZN75_$LT$heapless..vec..Vec$LT$T$C$N$GT$$u20$as$u20$core..ops..deref..Deref$GT$5deref17h1a6a938c93756f77E
00000000 g     F .text._ZN75_$LT$heapless..vec..Vec$LT$T$C$N$GT$$u20$as$u20$core..ops..deref..Deref$GT$5deref17h26cfc6056df07241E	0000001a _ZN75_$LT$heapless..vec..Vec$LT$T$C$N$GT$$u20$as$u20$core..ops..deref..Deref$GT$5deref17h26cfc6056df07241E
00000000 g     F .text._ZN78_$LT$heapless..vec..IntoIter$LT$T$C$N$GT$$u20$as$u20$core..ops..drop..Drop$GT$4drop17he041b80b2a2967b7E	0000003e _ZN78_$LT$heapless..vec..IntoIter$LT$T$C$N$GT$$u20$as$u20$core..ops..drop..Drop$GT$4drop17he041b80b2a2967b7E
00000000 g     F .text._ZN78_$LT$heapless..vec..Vec$LT$T$C$N$GT$$u20$as$u20$core..ops..deref..DerefMut$GT$9deref_mut17h55f69fb805a84bbfE	0000001a _ZN78_$LT$heapless..vec..Vec$LT$T$C$N$GT$$u20$as$u20$core..ops..deref..DerefMut$GT$9deref_mut17h55f69fb805a84bbfE
00000000 g     F .text._ZN78_$LT$heapless..vec..Vec$LT$T$C$N$GT$$u20$as$u20$core..ops..deref..DerefMut$GT$9deref_mut17he9edcdcf733d4da8E	0000001a _ZN78_$LT$heapless..vec..Vec$LT$T$C$N$GT$$u20$as$u20$core..ops..deref..DerefMut$GT$9deref_mut17he9edcdcf733d4da8E
00000000 g     F .text._ZN8heapless3vec16Vec$LT$T$C$N$GT$17extend_from_slice17h13d4385adab264f0E	00000022 _ZN8heapless3vec16Vec$LT$T$C$N$GT$17extend_from_slice17h13d4385adab264f0E
00000000 g     F .text._ZN8heapless3vec16Vec$LT$T$C$N$GT$3new17h2de058a16b3a9b38E	0000001e _ZN8heapless3vec16Vec$LT$T$C$N$GT$3new17h2de058a16b3a9b38E
00000000 g     F .text._ZN8heapless3vec16Vec$LT$T$C$N$GT$3new17h5ac6dca824738de3E	00000020 _ZN8heapless3vec16Vec$LT$T$C$N$GT$3new17h5ac6dca824738de3E
00000000 g     F .text._ZN8heapless3vec16Vec$LT$T$C$N$GT$4push17h6f527a384316b252E	00000026 _ZN8heapless3vec16Vec$LT$T$C$N$GT$4push17h6f527a384316b252E
00000000 g     F .text._ZN8heapless3vec16Vec$LT$T$C$N$GT$5clear17h2f7841f03661f139E	00000012 _ZN8heapless3vec16Vec$LT$T$C$N$GT$5clear17h2f7841f03661f139E
00000000 g     F .text._ZN8heapless3vec16Vec$LT$T$C$N$GT$5clear17hfd39c9763fef61d4E	00000012 _ZN8heapless3vec16Vec$LT$T$C$N$GT$5clear17hfd39c9763fef61d4E
00000000         *UND*	00000000 _ZN8heapless3vec43_$LT$impl$u20$heapless..i..Vec$LT$A$GT$$GT$3new17hf2c77cfb64444d10E
00000000         *UND*	00000000 _ZN8heapless3vec43_$LT$impl$u20$heapless..i..Vec$LT$A$GT$$GT$3new17hfde44305ea230d20E
00000000         *UND*	00000000 _ZN8heapless3vec82_$LT$impl$u20$heapless..i..Vec$LT$generic_array..GenericArray$LT$T$C$N$GT$$GT$$GT$12as_mut_slice17h1395397f126a8061E
00000000         *UND*	00000000 _ZN8heapless3vec82_$LT$impl$u20$heapless..i..Vec$LT$generic_array..GenericArray$LT$T$C$N$GT$$GT$$GT$12as_mut_slice17h35aa43a9fa6afa81E
00000000         *UND*	00000000 _ZN8heapless3vec82_$LT$impl$u20$heapless..i..Vec$LT$generic_array..GenericArray$LT$T$C$N$GT$$GT$$GT$17extend_from_slice17h355de8794eb61a4fE
00000000         *UND*	00000000 _ZN8heapless3vec82_$LT$impl$u20$heapless..i..Vec$LT$generic_array..GenericArray$LT$T$C$N$GT$$GT$$GT$4push17h2c8d4450d2d21b42E
00000000         *UND*	00000000 _ZN8heapless3vec82_$LT$impl$u20$heapless..i..Vec$LT$generic_array..GenericArray$LT$T$C$N$GT$$GT$$GT$5clear17h1c6bbb44953392d5E
00000000         *UND*	00000000 _ZN8heapless3vec82_$LT$impl$u20$heapless..i..Vec$LT$generic_array..GenericArray$LT$T$C$N$GT$$GT$$GT$5clear17h9f3863271060db58E
00000000         *UND*	00000000 _ZN8heapless3vec82_$LT$impl$u20$heapless..i..Vec$LT$generic_array..GenericArray$LT$T$C$N$GT$$GT$$GT$5clone17h78785df9f5b91c80E
00000000         *UND*	00000000 _ZN8heapless3vec82_$LT$impl$u20$heapless..i..Vec$LT$generic_array..GenericArray$LT$T$C$N$GT$$GT$$GT$5clone17h87daf501b534bd09E
00000000         *UND*	00000000 _ZN8heapless3vec82_$LT$impl$u20$heapless..i..Vec$LT$generic_array..GenericArray$LT$T$C$N$GT$$GT$$GT$8as_slice17h985735f6efcb889dE
00000000         *UND*	00000000 _ZN8heapless3vec82_$LT$impl$u20$heapless..i..Vec$LT$generic_array..GenericArray$LT$T$C$N$GT$$GT$$GT$8as_slice17ha3de71d2d5bcddf0E
00000000 g     F .text._ZN93_$LT$heapless..vec..Vec$LT$T$C$N$GT$$u20$as$u20$core..iter..traits..collect..IntoIterator$GT$9into_iter17h594546a696844f02E	0000002e _ZN93_$LT$heapless..vec..Vec$LT$T$C$N$GT$$u20$as$u20$core..iter..traits..collect..IntoIterator$GT$9into_iter17h594546a696844f02E
00000000 g     F .text._ZN95_$LT$heapless..vec..IntoIter$LT$T$C$N$GT$$u20$as$u20$core..iter..traits..iterator..Iterator$GT$4next17hc222d745b483a5c5E	000000b0 _ZN95_$LT$heapless..vec..IntoIter$LT$T$C$N$GT$$u20$as$u20$core..iter..traits..iterator..Iterator$GT$4next17hc222d745b483a5c5E
00000000         *UND*	00000000 __aeabi_memcpy4



Disassembly of section .text._ZN70_$LT$heapless..vec..Vec$LT$T$C$N$GT$$u20$as$u20$core..clone..Clone$GT$5clone17h06de5d43137c8e8cE:

00000000 <_ZN70_$LT$heapless..vec..Vec$LT$T$C$N$GT$$u20$as$u20$core..clone..Clone$GT$5clone17h06de5d43137c8e8cE>:
_ZN70_$LT$heapless..vec..Vec$LT$T$C$N$GT$$u20$as$u20$core..clone..Clone$GT$5clone17h06de5d43137c8e8cE():
/Users/Luppy/.cargo/registry/src/github.com-1ecc6299db9ec823/heapless-0.5.1/src/vec.rs:172
impl<T, N> Clone for Vec<T, N>
where
    N: ArrayLength<T>,
    T: Clone,
{
    fn clone(&self) -> Self {
   0:	b580      	push	{r7, lr}
   2:	b0e8      	sub	sp, #416	; 0x1a0
   4:	9102      	str	r1, [sp, #8]
/Users/Luppy/.cargo/registry/src/github.com-1ecc6299db9ec823/heapless-0.5.1/src/vec.rs:173
        Vec(self.0.clone())
   6:	9902      	ldr	r1, [sp, #8]
   8:	aa03      	add	r2, sp, #12
   a:	9001      	str	r0, [sp, #4]
   c:	4610      	mov	r0, r2
   e:	f7ff fffe 	bl	0 <_ZN8heapless3vec82_$LT$impl$u20$heapless..i..Vec$LT$generic_array..GenericArray$LT$T$C$N$GT$$GT$$GT$5clone17h78785df9f5b91c80E>
  12:	e7ff      	b.n	14 <_ZN70_$LT$heapless..vec..Vec$LT$T$C$N$GT$$u20$as$u20$core..clone..Clone$GT$5clone17h06de5d43137c8e8cE+0x14>
  14:	a903      	add	r1, sp, #12
  16:	f44f 72ca 	mov.w	r2, #404	; 0x194
  1a:	9801      	ldr	r0, [sp, #4]
  1c:	f7ff fffe 	bl	0 <__aeabi_memcpy4>
/Users/Luppy/.cargo/registry/src/github.com-1ecc6299db9ec823/heapless-0.5.1/src/vec.rs:174
    }
  20:	b068      	add	sp, #416	; 0x1a0
  22:	bd80      	pop	{r7, pc}

Disassembly of section .text._ZN70_$LT$heapless..vec..Vec$LT$T$C$N$GT$$u20$as$u20$core..clone..Clone$GT$5clone17hca841008de44ea41E:

00000000 <_ZN70_$LT$heapless..vec..Vec$LT$T$C$N$GT$$u20$as$u20$core..clone..Clone$GT$5clone17hca841008de44ea41E>:
_ZN70_$LT$heapless..vec..Vec$LT$T$C$N$GT$$u20$as$u20$core..clone..Clone$GT$5clone17hca841008de44ea41E():
/Users/Luppy/.cargo/registry/src/github.com-1ecc6299db9ec823/heapless-0.5.1/src/vec.rs:172
    fn clone(&self) -> Self {
   0:	b580      	push	{r7, lr}
   2:	b0b6      	sub	sp, #216	; 0xd8
   4:	9102      	str	r1, [sp, #8]
/Users/Luppy/.cargo/registry/src/github.com-1ecc6299db9ec823/heapless-0.5.1/src/vec.rs:173
        Vec(self.0.clone())
   6:	9902      	ldr	r1, [sp, #8]
   8:	aa03      	add	r2, sp, #12
   a:	9001      	str	r0, [sp, #4]
   c:	4610      	mov	r0, r2
   e:	f7ff fffe 	bl	0 <_ZN8heapless3vec82_$LT$impl$u20$heapless..i..Vec$LT$generic_array..GenericArray$LT$T$C$N$GT$$GT$$GT$5clone17h87daf501b534bd09E>
  12:	e7ff      	b.n	14 <_ZN70_$LT$heapless..vec..Vec$LT$T$C$N$GT$$u20$as$u20$core..clone..Clone$GT$5clone17hca841008de44ea41E+0x14>
  14:	a903      	add	r1, sp, #12
  16:	22cc      	movs	r2, #204	; 0xcc
  18:	9801      	ldr	r0, [sp, #4]
  1a:	f7ff fffe 	bl	0 <__aeabi_memcpy4>
/Users/Luppy/.cargo/registry/src/github.com-1ecc6299db9ec823/heapless-0.5.1/src/vec.rs:174
    }
  1e:	b036      	add	sp, #216	; 0xd8
  20:	bd80      	pop	{r7, pc}

Disassembly of section .text._ZN73_$LT$heapless..vec..Vec$LT$T$C$N$GT$$u20$as$u20$core..ops..drop..Drop$GT$4drop17h0a4f8fd95d5c2f6bE:

00000000 <_ZN73_$LT$heapless..vec..Vec$LT$T$C$N$GT$$u20$as$u20$core..ops..drop..Drop$GT$4drop17h0a4f8fd95d5c2f6bE>:
_ZN73_$LT$heapless..vec..Vec$LT$T$C$N$GT$$u20$as$u20$core..ops..drop..Drop$GT$4drop17h0a4f8fd95d5c2f6bE():
/Users/Luppy/.cargo/registry/src/github.com-1ecc6299db9ec823/heapless-0.5.1/src/vec.rs:372

impl<T, N> Drop for Vec<T, N>
where
    N: ArrayLength<T>,
{
    fn drop(&mut self) {
   0:	b580      	push	{r7, lr}
   2:	b088      	sub	sp, #32
   4:	9005      	str	r0, [sp, #20]
/Users/Luppy/.cargo/registry/src/github.com-1ecc6299db9ec823/heapless-0.5.1/src/vec.rs:373
        unsafe { ptr::drop_in_place(&mut self[..]) }
   6:	9805      	ldr	r0, [sp, #20]
   8:	f7ff fffe 	bl	0 <_ZN73_$LT$heapless..vec..Vec$LT$T$C$N$GT$$u20$as$u20$core..ops..drop..Drop$GT$4drop17h0a4f8fd95d5c2f6bE>
   c:	9004      	str	r0, [sp, #16]
   e:	9103      	str	r1, [sp, #12]
  10:	e7ff      	b.n	12 <_ZN73_$LT$heapless..vec..Vec$LT$T$C$N$GT$$u20$as$u20$core..ops..drop..Drop$GT$4drop17h0a4f8fd95d5c2f6bE+0x12>
  12:	9804      	ldr	r0, [sp, #16]
  14:	9903      	ldr	r1, [sp, #12]
  16:	f7ff fffe 	bl	0 <_ZN4core5slice77_$LT$impl$u20$core..ops..index..IndexMut$LT$I$GT$$u20$for$u20$$u5b$T$u5d$$GT$9index_mut17h3e6a02a0c7a3a5e7E>
  1a:	9002      	str	r0, [sp, #8]
  1c:	9101      	str	r1, [sp, #4]
  1e:	e7ff      	b.n	20 <_ZN73_$LT$heapless..vec..Vec$LT$T$C$N$GT$$u20$as$u20$core..ops..drop..Drop$GT$4drop17h0a4f8fd95d5c2f6bE+0x20>
  20:	9802      	ldr	r0, [sp, #8]
  22:	9006      	str	r0, [sp, #24]
  24:	9901      	ldr	r1, [sp, #4]
  26:	9107      	str	r1, [sp, #28]
  28:	e7ff      	b.n	2a <_ZN73_$LT$heapless..vec..Vec$LT$T$C$N$GT$$u20$as$u20$core..ops..drop..Drop$GT$4drop17h0a4f8fd95d5c2f6bE+0x2a>
/Users/Luppy/.cargo/registry/src/github.com-1ecc6299db9ec823/heapless-0.5.1/src/vec.rs:374
    }
  2a:	b008      	add	sp, #32
  2c:	bd80      	pop	{r7, pc}

Disassembly of section .text._ZN73_$LT$heapless..vec..Vec$LT$T$C$N$GT$$u20$as$u20$core..ops..drop..Drop$GT$4drop17h6da2bc5e93599c02E:

00000000 <_ZN73_$LT$heapless..vec..Vec$LT$T$C$N$GT$$u20$as$u20$core..ops..drop..Drop$GT$4drop17h6da2bc5e93599c02E>:
_ZN73_$LT$heapless..vec..Vec$LT$T$C$N$GT$$u20$as$u20$core..ops..drop..Drop$GT$4drop17h6da2bc5e93599c02E():
/Users/Luppy/.cargo/registry/src/github.com-1ecc6299db9ec823/heapless-0.5.1/src/vec.rs:372
    fn drop(&mut self) {
   0:	b580      	push	{r7, lr}
   2:	b088      	sub	sp, #32
   4:	9005      	str	r0, [sp, #20]
/Users/Luppy/.cargo/registry/src/github.com-1ecc6299db9ec823/heapless-0.5.1/src/vec.rs:373
        unsafe { ptr::drop_in_place(&mut self[..]) }
   6:	9805      	ldr	r0, [sp, #20]
   8:	f7ff fffe 	bl	0 <_ZN73_$LT$heapless..vec..Vec$LT$T$C$N$GT$$u20$as$u20$core..ops..drop..Drop$GT$4drop17h6da2bc5e93599c02E>
   c:	9004      	str	r0, [sp, #16]
   e:	9103      	str	r1, [sp, #12]
  10:	e7ff      	b.n	12 <_ZN73_$LT$heapless..vec..Vec$LT$T$C$N$GT$$u20$as$u20$core..ops..drop..Drop$GT$4drop17h6da2bc5e93599c02E+0x12>
  12:	9804      	ldr	r0, [sp, #16]
  14:	9903      	ldr	r1, [sp, #12]
  16:	f7ff fffe 	bl	0 <_ZN4core5slice77_$LT$impl$u20$core..ops..index..IndexMut$LT$I$GT$$u20$for$u20$$u5b$T$u5d$$GT$9index_mut17h3e6a02a0c7a3a5e7E>
  1a:	9002      	str	r0, [sp, #8]
  1c:	9101      	str	r1, [sp, #4]
  1e:	e7ff      	b.n	20 <_ZN73_$LT$heapless..vec..Vec$LT$T$C$N$GT$$u20$as$u20$core..ops..drop..Drop$GT$4drop17h6da2bc5e93599c02E+0x20>
  20:	9802      	ldr	r0, [sp, #8]
  22:	9006      	str	r0, [sp, #24]
  24:	9901      	ldr	r1, [sp, #4]
  26:	9107      	str	r1, [sp, #28]
  28:	e7ff      	b.n	2a <_ZN73_$LT$heapless..vec..Vec$LT$T$C$N$GT$$u20$as$u20$core..ops..drop..Drop$GT$4drop17h6da2bc5e93599c02E+0x2a>
/Users/Luppy/.cargo/registry/src/github.com-1ecc6299db9ec823/heapless-0.5.1/src/vec.rs:374
    }
  2a:	b008      	add	sp, #32
  2c:	bd80      	pop	{r7, pc}

Disassembly of section .text._ZN75_$LT$heapless..vec..Vec$LT$T$C$N$GT$$u20$as$u20$core..ops..deref..Deref$GT$5deref17h1a6a938c93756f77E:

00000000 <_ZN75_$LT$heapless..vec..Vec$LT$T$C$N$GT$$u20$as$u20$core..ops..deref..Deref$GT$5deref17h1a6a938c93756f77E>:
_ZN75_$LT$heapless..vec..Vec$LT$T$C$N$GT$$u20$as$u20$core..ops..deref..Deref$GT$5deref17h1a6a938c93756f77E():
/Users/Luppy/.cargo/registry/src/github.com-1ecc6299db9ec823/heapless-0.5.1/src/vec.rs:591
where
    N: ArrayLength<T>,
{
    type Target = [T];

    fn deref(&self) -> &[T] {
   0:	b580      	push	{r7, lr}
   2:	b084      	sub	sp, #16
   4:	9003      	str	r0, [sp, #12]
/Users/Luppy/.cargo/registry/src/github.com-1ecc6299db9ec823/heapless-0.5.1/src/vec.rs:592
        self.0.as_slice()
   6:	9803      	ldr	r0, [sp, #12]
   8:	f7ff fffe 	bl	0 <_ZN8heapless3vec82_$LT$impl$u20$heapless..i..Vec$LT$generic_array..GenericArray$LT$T$C$N$GT$$GT$$GT$8as_slice17h985735f6efcb889dE>
   c:	9002      	str	r0, [sp, #8]
   e:	9101      	str	r1, [sp, #4]
  10:	e7ff      	b.n	12 <_ZN75_$LT$heapless..vec..Vec$LT$T$C$N$GT$$u20$as$u20$core..ops..deref..Deref$GT$5deref17h1a6a938c93756f77E+0x12>
/Users/Luppy/.cargo/registry/src/github.com-1ecc6299db9ec823/heapless-0.5.1/src/vec.rs:593
    }
  12:	9802      	ldr	r0, [sp, #8]
  14:	9901      	ldr	r1, [sp, #4]
  16:	b004      	add	sp, #16
  18:	bd80      	pop	{r7, pc}

Disassembly of section .text._ZN75_$LT$heapless..vec..Vec$LT$T$C$N$GT$$u20$as$u20$core..ops..deref..Deref$GT$5deref17h26cfc6056df07241E:

00000000 <_ZN75_$LT$heapless..vec..Vec$LT$T$C$N$GT$$u20$as$u20$core..ops..deref..Deref$GT$5deref17h26cfc6056df07241E>:
_ZN75_$LT$heapless..vec..Vec$LT$T$C$N$GT$$u20$as$u20$core..ops..deref..Deref$GT$5deref17h26cfc6056df07241E():
/Users/Luppy/.cargo/registry/src/github.com-1ecc6299db9ec823/heapless-0.5.1/src/vec.rs:591
    fn deref(&self) -> &[T] {
   0:	b580      	push	{r7, lr}
   2:	b084      	sub	sp, #16
   4:	9003      	str	r0, [sp, #12]
/Users/Luppy/.cargo/registry/src/github.com-1ecc6299db9ec823/heapless-0.5.1/src/vec.rs:592
        self.0.as_slice()
   6:	9803      	ldr	r0, [sp, #12]
   8:	f7ff fffe 	bl	0 <_ZN8heapless3vec82_$LT$impl$u20$heapless..i..Vec$LT$generic_array..GenericArray$LT$T$C$N$GT$$GT$$GT$8as_slice17ha3de71d2d5bcddf0E>
   c:	9002      	str	r0, [sp, #8]
   e:	9101      	str	r1, [sp, #4]
  10:	e7ff      	b.n	12 <_ZN75_$LT$heapless..vec..Vec$LT$T$C$N$GT$$u20$as$u20$core..ops..deref..Deref$GT$5deref17h26cfc6056df07241E+0x12>
/Users/Luppy/.cargo/registry/src/github.com-1ecc6299db9ec823/heapless-0.5.1/src/vec.rs:593
    }
  12:	9802      	ldr	r0, [sp, #8]
  14:	9901      	ldr	r1, [sp, #4]
  16:	b004      	add	sp, #16
  18:	bd80      	pop	{r7, pc}

Disassembly of section .text._ZN78_$LT$heapless..vec..IntoIter$LT$T$C$N$GT$$u20$as$u20$core..ops..drop..Drop$GT$4drop17he041b80b2a2967b7E:

00000000 <_ZN78_$LT$heapless..vec..IntoIter$LT$T$C$N$GT$$u20$as$u20$core..ops..drop..Drop$GT$4drop17he041b80b2a2967b7E>:
_ZN78_$LT$heapless..vec..IntoIter$LT$T$C$N$GT$$u20$as$u20$core..ops..drop..Drop$GT$4drop17he041b80b2a2967b7E():
/Users/Luppy/.cargo/registry/src/github.com-1ecc6299db9ec823/heapless-0.5.1/src/vec.rs:513
    fn drop(&mut self) {
   0:	b580      	push	{r7, lr}
   2:	b088      	sub	sp, #32
   4:	9004      	str	r0, [sp, #16]
/Users/Luppy/.cargo/registry/src/github.com-1ecc6299db9ec823/heapless-0.5.1/src/vec.rs:516
            ptr::drop_in_place(&mut self.vec[self.next..]);
   6:	9804      	ldr	r0, [sp, #16]
   8:	f7ff fffe 	bl	0 <_ZN78_$LT$heapless..vec..IntoIter$LT$T$C$N$GT$$u20$as$u20$core..ops..drop..Drop$GT$4drop17he041b80b2a2967b7E>
   c:	9003      	str	r0, [sp, #12]
   e:	9102      	str	r1, [sp, #8]
  10:	e7ff      	b.n	12 <_ZN78_$LT$heapless..vec..IntoIter$LT$T$C$N$GT$$u20$as$u20$core..ops..drop..Drop$GT$4drop17he041b80b2a2967b7E+0x12>
  12:	9804      	ldr	r0, [sp, #16]
  14:	f8d0 0194 	ldr.w	r0, [r0, #404]	; 0x194
  18:	9005      	str	r0, [sp, #20]
  1a:	9a05      	ldr	r2, [sp, #20]
  1c:	9803      	ldr	r0, [sp, #12]
  1e:	9902      	ldr	r1, [sp, #8]
  20:	f7ff fffe 	bl	0 <_ZN4core5slice77_$LT$impl$u20$core..ops..index..IndexMut$LT$I$GT$$u20$for$u20$$u5b$T$u5d$$GT$9index_mut17h73a5aedf5cff0b8dE>
  24:	9001      	str	r0, [sp, #4]
  26:	9100      	str	r1, [sp, #0]
  28:	e7ff      	b.n	2a <_ZN78_$LT$heapless..vec..IntoIter$LT$T$C$N$GT$$u20$as$u20$core..ops..drop..Drop$GT$4drop17he041b80b2a2967b7E+0x2a>
  2a:	9801      	ldr	r0, [sp, #4]
  2c:	9006      	str	r0, [sp, #24]
  2e:	9900      	ldr	r1, [sp, #0]
  30:	9107      	str	r1, [sp, #28]
  32:	e7ff      	b.n	34 <_ZN78_$LT$heapless..vec..IntoIter$LT$T$C$N$GT$$u20$as$u20$core..ops..drop..Drop$GT$4drop17he041b80b2a2967b7E+0x34>
/Users/Luppy/.cargo/registry/src/github.com-1ecc6299db9ec823/heapless-0.5.1/src/vec.rs:518
            self.vec.0.len = 0;
  34:	9804      	ldr	r0, [sp, #16]
  36:	2100      	movs	r1, #0
  38:	6001      	str	r1, [r0, #0]
/Users/Luppy/.cargo/registry/src/github.com-1ecc6299db9ec823/heapless-0.5.1/src/vec.rs:520
    }
  3a:	b008      	add	sp, #32
  3c:	bd80      	pop	{r7, pc}

Disassembly of section .text._ZN78_$LT$heapless..vec..Vec$LT$T$C$N$GT$$u20$as$u20$core..ops..deref..DerefMut$GT$9deref_mut17h55f69fb805a84bbfE:

00000000 <_ZN78_$LT$heapless..vec..Vec$LT$T$C$N$GT$$u20$as$u20$core..ops..deref..DerefMut$GT$9deref_mut17h55f69fb805a84bbfE>:
_ZN78_$LT$heapless..vec..Vec$LT$T$C$N$GT$$u20$as$u20$core..ops..deref..DerefMut$GT$9deref_mut17h55f69fb805a84bbfE():
/Users/Luppy/.cargo/registry/src/github.com-1ecc6299db9ec823/heapless-0.5.1/src/vec.rs:600

impl<T, N> ops::DerefMut for Vec<T, N>
where
    N: ArrayLength<T>,
{
    fn deref_mut(&mut self) -> &mut [T] {
   0:	b580      	push	{r7, lr}
   2:	b084      	sub	sp, #16
   4:	9003      	str	r0, [sp, #12]
/Users/Luppy/.cargo/registry/src/github.com-1ecc6299db9ec823/heapless-0.5.1/src/vec.rs:601
        self.0.as_mut_slice()
   6:	9803      	ldr	r0, [sp, #12]
   8:	f7ff fffe 	bl	0 <_ZN8heapless3vec82_$LT$impl$u20$heapless..i..Vec$LT$generic_array..GenericArray$LT$T$C$N$GT$$GT$$GT$12as_mut_slice17h1395397f126a8061E>
   c:	9002      	str	r0, [sp, #8]
   e:	9101      	str	r1, [sp, #4]
  10:	e7ff      	b.n	12 <_ZN78_$LT$heapless..vec..Vec$LT$T$C$N$GT$$u20$as$u20$core..ops..deref..DerefMut$GT$9deref_mut17h55f69fb805a84bbfE+0x12>
/Users/Luppy/.cargo/registry/src/github.com-1ecc6299db9ec823/heapless-0.5.1/src/vec.rs:602
    }
  12:	9802      	ldr	r0, [sp, #8]
  14:	9901      	ldr	r1, [sp, #4]
  16:	b004      	add	sp, #16
  18:	bd80      	pop	{r7, pc}

Disassembly of section .text._ZN78_$LT$heapless..vec..Vec$LT$T$C$N$GT$$u20$as$u20$core..ops..deref..DerefMut$GT$9deref_mut17he9edcdcf733d4da8E:

00000000 <_ZN78_$LT$heapless..vec..Vec$LT$T$C$N$GT$$u20$as$u20$core..ops..deref..DerefMut$GT$9deref_mut17he9edcdcf733d4da8E>:
_ZN78_$LT$heapless..vec..Vec$LT$T$C$N$GT$$u20$as$u20$core..ops..deref..DerefMut$GT$9deref_mut17he9edcdcf733d4da8E():
/Users/Luppy/.cargo/registry/src/github.com-1ecc6299db9ec823/heapless-0.5.1/src/vec.rs:600
    fn deref_mut(&mut self) -> &mut [T] {
   0:	b580      	push	{r7, lr}
   2:	b084      	sub	sp, #16
   4:	9003      	str	r0, [sp, #12]
/Users/Luppy/.cargo/registry/src/github.com-1ecc6299db9ec823/heapless-0.5.1/src/vec.rs:601
        self.0.as_mut_slice()
   6:	9803      	ldr	r0, [sp, #12]
   8:	f7ff fffe 	bl	0 <_ZN8heapless3vec82_$LT$impl$u20$heapless..i..Vec$LT$generic_array..GenericArray$LT$T$C$N$GT$$GT$$GT$12as_mut_slice17h35aa43a9fa6afa81E>
   c:	9002      	str	r0, [sp, #8]
   e:	9101      	str	r1, [sp, #4]
  10:	e7ff      	b.n	12 <_ZN78_$LT$heapless..vec..Vec$LT$T$C$N$GT$$u20$as$u20$core..ops..deref..DerefMut$GT$9deref_mut17he9edcdcf733d4da8E+0x12>
/Users/Luppy/.cargo/registry/src/github.com-1ecc6299db9ec823/heapless-0.5.1/src/vec.rs:602
    }
  12:	9802      	ldr	r0, [sp, #8]
  14:	9901      	ldr	r1, [sp, #4]
  16:	b004      	add	sp, #16
  18:	bd80      	pop	{r7, pc}

Disassembly of section .text._ZN8heapless3vec16Vec$LT$T$C$N$GT$17extend_from_slice17h13d4385adab264f0E:

00000000 <_ZN8heapless3vec16Vec$LT$T$C$N$GT$17extend_from_slice17h13d4385adab264f0E>:
_ZN8heapless3vec16Vec$LT$T$C$N$GT$17extend_from_slice17h13d4385adab264f0E():
/Users/Luppy/.cargo/registry/src/github.com-1ecc6299db9ec823/heapless-0.5.1/src/vec.rs:227
    pub fn extend_from_slice(&mut self, other: &[T]) -> Result<(), ()>
   0:	b580      	push	{r7, lr}
   2:	b084      	sub	sp, #16
   4:	9001      	str	r0, [sp, #4]
   6:	9102      	str	r1, [sp, #8]
   8:	9203      	str	r2, [sp, #12]
/Users/Luppy/.cargo/registry/src/github.com-1ecc6299db9ec823/heapless-0.5.1/src/vec.rs:231
        self.0.extend_from_slice(other)
   a:	9801      	ldr	r0, [sp, #4]
   c:	9902      	ldr	r1, [sp, #8]
   e:	9a03      	ldr	r2, [sp, #12]
  10:	f7ff fffe 	bl	0 <_ZN8heapless3vec82_$LT$impl$u20$heapless..i..Vec$LT$generic_array..GenericArray$LT$T$C$N$GT$$GT$$GT$17extend_from_slice17h355de8794eb61a4fE>
  14:	9000      	str	r0, [sp, #0]
  16:	e7ff      	b.n	18 <_ZN8heapless3vec16Vec$LT$T$C$N$GT$17extend_from_slice17h13d4385adab264f0E+0x18>
/Users/Luppy/.cargo/registry/src/github.com-1ecc6299db9ec823/heapless-0.5.1/src/vec.rs:232
    }
  18:	9800      	ldr	r0, [sp, #0]
  1a:	f000 0001 	and.w	r0, r0, #1
  1e:	b004      	add	sp, #16
  20:	bd80      	pop	{r7, pc}

Disassembly of section .text._ZN8heapless3vec16Vec$LT$T$C$N$GT$3new17h2de058a16b3a9b38E:

00000000 <_ZN8heapless3vec16Vec$LT$T$C$N$GT$3new17h2de058a16b3a9b38E>:
_ZN8heapless3vec16Vec$LT$T$C$N$GT$3new17h2de058a16b3a9b38E():
/Users/Luppy/.cargo/registry/src/github.com-1ecc6299db9ec823/heapless-0.5.1/src/vec.rs:196
    pub fn new() -> Self {
   0:	b580      	push	{r7, lr}
   2:	b0b4      	sub	sp, #208	; 0xd0
   4:	a901      	add	r1, sp, #4
/Users/Luppy/.cargo/registry/src/github.com-1ecc6299db9ec823/heapless-0.5.1/src/vec.rs:197
        Vec(crate::i::Vec::new())
   6:	9000      	str	r0, [sp, #0]
   8:	4608      	mov	r0, r1
   a:	f7ff fffe 	bl	0 <_ZN8heapless3vec43_$LT$impl$u20$heapless..i..Vec$LT$A$GT$$GT$3new17hf2c77cfb64444d10E>
   e:	e7ff      	b.n	10 <_ZN8heapless3vec16Vec$LT$T$C$N$GT$3new17h2de058a16b3a9b38E+0x10>
  10:	a901      	add	r1, sp, #4
  12:	22cc      	movs	r2, #204	; 0xcc
  14:	9800      	ldr	r0, [sp, #0]
  16:	f7ff fffe 	bl	0 <__aeabi_memcpy4>
/Users/Luppy/.cargo/registry/src/github.com-1ecc6299db9ec823/heapless-0.5.1/src/vec.rs:198
    }
  1a:	b034      	add	sp, #208	; 0xd0
  1c:	bd80      	pop	{r7, pc}

Disassembly of section .text._ZN8heapless3vec16Vec$LT$T$C$N$GT$3new17h5ac6dca824738de3E:

00000000 <_ZN8heapless3vec16Vec$LT$T$C$N$GT$3new17h5ac6dca824738de3E>:
_ZN8heapless3vec16Vec$LT$T$C$N$GT$3new17h5ac6dca824738de3E():
/Users/Luppy/.cargo/registry/src/github.com-1ecc6299db9ec823/heapless-0.5.1/src/vec.rs:196
    pub fn new() -> Self {
   0:	b580      	push	{r7, lr}
   2:	b0e6      	sub	sp, #408	; 0x198
   4:	a901      	add	r1, sp, #4
/Users/Luppy/.cargo/registry/src/github.com-1ecc6299db9ec823/heapless-0.5.1/src/vec.rs:197
        Vec(crate::i::Vec::new())
   6:	9000      	str	r0, [sp, #0]
   8:	4608      	mov	r0, r1
   a:	f7ff fffe 	bl	0 <_ZN8heapless3vec43_$LT$impl$u20$heapless..i..Vec$LT$A$GT$$GT$3new17hfde44305ea230d20E>
   e:	e7ff      	b.n	10 <_ZN8heapless3vec16Vec$LT$T$C$N$GT$3new17h5ac6dca824738de3E+0x10>
  10:	a901      	add	r1, sp, #4
  12:	f44f 72ca 	mov.w	r2, #404	; 0x194
  16:	9800      	ldr	r0, [sp, #0]
  18:	f7ff fffe 	bl	0 <__aeabi_memcpy4>
/Users/Luppy/.cargo/registry/src/github.com-1ecc6299db9ec823/heapless-0.5.1/src/vec.rs:198
    }
  1c:	b066      	add	sp, #408	; 0x198
  1e:	bd80      	pop	{r7, pc}

Disassembly of section .text._ZN8heapless3vec16Vec$LT$T$C$N$GT$4push17h6f527a384316b252E:

00000000 <_ZN8heapless3vec16Vec$LT$T$C$N$GT$4push17h6f527a384316b252E>:
_ZN8heapless3vec16Vec$LT$T$C$N$GT$4push17h6f527a384316b252E():
/Users/Luppy/.cargo/registry/src/github.com-1ecc6299db9ec823/heapless-0.5.1/src/vec.rs:246
    pub fn push(&mut self, item: T) -> Result<(), T> {
   0:	b580      	push	{r7, lr}
   2:	b086      	sub	sp, #24
   4:	460a      	mov	r2, r1
   6:	9004      	str	r0, [sp, #16]
   8:	f8ad 1016 	strh.w	r1, [sp, #22]
/Users/Luppy/.cargo/registry/src/github.com-1ecc6299db9ec823/heapless-0.5.1/src/vec.rs:247
        self.0.push(item)
   c:	9804      	ldr	r0, [sp, #16]
   e:	f8bd 1016 	ldrh.w	r1, [sp, #22]
  12:	9203      	str	r2, [sp, #12]
  14:	f7ff fffe 	bl	0 <_ZN8heapless3vec82_$LT$impl$u20$heapless..i..Vec$LT$generic_array..GenericArray$LT$T$C$N$GT$$GT$$GT$4push17h2c8d4450d2d21b42E>
  18:	9002      	str	r0, [sp, #8]
  1a:	9101      	str	r1, [sp, #4]
  1c:	e7ff      	b.n	1e <_ZN8heapless3vec16Vec$LT$T$C$N$GT$4push17h6f527a384316b252E+0x1e>
/Users/Luppy/.cargo/registry/src/github.com-1ecc6299db9ec823/heapless-0.5.1/src/vec.rs:248
    }
  1e:	9802      	ldr	r0, [sp, #8]
  20:	9901      	ldr	r1, [sp, #4]
  22:	b006      	add	sp, #24
  24:	bd80      	pop	{r7, pc}

Disassembly of section .text._ZN8heapless3vec16Vec$LT$T$C$N$GT$5clear17h2f7841f03661f139E:

00000000 <_ZN8heapless3vec16Vec$LT$T$C$N$GT$5clear17h2f7841f03661f139E>:
_ZN8heapless3vec16Vec$LT$T$C$N$GT$5clear17h2f7841f03661f139E():
/Users/Luppy/.cargo/registry/src/github.com-1ecc6299db9ec823/heapless-0.5.1/src/vec.rs:207
    pub fn clear(&mut self) {
   0:	b580      	push	{r7, lr}
   2:	b082      	sub	sp, #8
   4:	9001      	str	r0, [sp, #4]
/Users/Luppy/.cargo/registry/src/github.com-1ecc6299db9ec823/heapless-0.5.1/src/vec.rs:208
        self.0.clear()
   6:	9801      	ldr	r0, [sp, #4]
   8:	f7ff fffe 	bl	0 <_ZN8heapless3vec82_$LT$impl$u20$heapless..i..Vec$LT$generic_array..GenericArray$LT$T$C$N$GT$$GT$$GT$5clear17h9f3863271060db58E>
   c:	e7ff      	b.n	e <_ZN8heapless3vec16Vec$LT$T$C$N$GT$5clear17h2f7841f03661f139E+0xe>
/Users/Luppy/.cargo/registry/src/github.com-1ecc6299db9ec823/heapless-0.5.1/src/vec.rs:209
    }
   e:	b002      	add	sp, #8
  10:	bd80      	pop	{r7, pc}

Disassembly of section .text._ZN8heapless3vec16Vec$LT$T$C$N$GT$5clear17hfd39c9763fef61d4E:

00000000 <_ZN8heapless3vec16Vec$LT$T$C$N$GT$5clear17hfd39c9763fef61d4E>:
_ZN8heapless3vec16Vec$LT$T$C$N$GT$5clear17hfd39c9763fef61d4E():
/Users/Luppy/.cargo/registry/src/github.com-1ecc6299db9ec823/heapless-0.5.1/src/vec.rs:207
    pub fn clear(&mut self) {
   0:	b580      	push	{r7, lr}
   2:	b082      	sub	sp, #8
   4:	9001      	str	r0, [sp, #4]
/Users/Luppy/.cargo/registry/src/github.com-1ecc6299db9ec823/heapless-0.5.1/src/vec.rs:208
        self.0.clear()
   6:	9801      	ldr	r0, [sp, #4]
   8:	f7ff fffe 	bl	0 <_ZN8heapless3vec82_$LT$impl$u20$heapless..i..Vec$LT$generic_array..GenericArray$LT$T$C$N$GT$$GT$$GT$5clear17h1c6bbb44953392d5E>
   c:	e7ff      	b.n	e <_ZN8heapless3vec16Vec$LT$T$C$N$GT$5clear17hfd39c9763fef61d4E+0xe>
/Users/Luppy/.cargo/registry/src/github.com-1ecc6299db9ec823/heapless-0.5.1/src/vec.rs:209
    }
   e:	b002      	add	sp, #8
  10:	bd80      	pop	{r7, pc}

Disassembly of section .text._ZN93_$LT$heapless..vec..Vec$LT$T$C$N$GT$$u20$as$u20$core..iter..traits..collect..IntoIterator$GT$9into_iter17h594546a696844f02E:

00000000 <_ZN93_$LT$heapless..vec..Vec$LT$T$C$N$GT$$u20$as$u20$core..iter..traits..collect..IntoIterator$GT$9into_iter17h594546a696844f02E>:
_ZN93_$LT$heapless..vec..Vec$LT$T$C$N$GT$$u20$as$u20$core..iter..traits..collect..IntoIterator$GT$9into_iter17h594546a696844f02E():
/Users/Luppy/.cargo/registry/src/github.com-1ecc6299db9ec823/heapless-0.5.1/src/vec.rs:530
    fn into_iter(self) -> Self::IntoIter {
   0:	b580      	push	{r7, lr}
   2:	b0e8      	sub	sp, #416	; 0x1a0
   4:	aa03      	add	r2, sp, #12
   6:	f44f 73ca 	mov.w	r3, #404	; 0x194
/Users/Luppy/.cargo/registry/src/github.com-1ecc6299db9ec823/heapless-0.5.1/src/vec.rs:531
        IntoIter { vec: self, next: 0 }
   a:	9002      	str	r0, [sp, #8]
   c:	4610      	mov	r0, r2
   e:	9201      	str	r2, [sp, #4]
  10:	461a      	mov	r2, r3
  12:	9300      	str	r3, [sp, #0]
  14:	f7ff fffe 	bl	0 <__aeabi_memcpy4>
  18:	9802      	ldr	r0, [sp, #8]
  1a:	9901      	ldr	r1, [sp, #4]
  1c:	9a00      	ldr	r2, [sp, #0]
  1e:	f7ff fffe 	bl	0 <__aeabi_memcpy4>
  22:	2000      	movs	r0, #0
  24:	9902      	ldr	r1, [sp, #8]
  26:	f8c1 0194 	str.w	r0, [r1, #404]	; 0x194
/Users/Luppy/.cargo/registry/src/github.com-1ecc6299db9ec823/heapless-0.5.1/src/vec.rs:532
    }
  2a:	b068      	add	sp, #416	; 0x1a0
  2c:	bd80      	pop	{r7, pc}

Disassembly of section .text._ZN95_$LT$heapless..vec..IntoIter$LT$T$C$N$GT$$u20$as$u20$core..iter..traits..iterator..Iterator$GT$4next17hc222d745b483a5c5E:

00000000 <_ZN95_$LT$heapless..vec..IntoIter$LT$T$C$N$GT$$u20$as$u20$core..iter..traits..iterator..Iterator$GT$4next17hc222d745b483a5c5E>:
_ZN95_$LT$heapless..vec..IntoIter$LT$T$C$N$GT$$u20$as$u20$core..iter..traits..iterator..Iterator$GT$4next17hc222d745b483a5c5E():
/Users/Luppy/.cargo/registry/src/github.com-1ecc6299db9ec823/heapless-0.5.1/src/vec.rs:481
    fn next(&mut self) -> Option<Self::Item> {
   0:	b580      	push	{r7, lr}
   2:	b08c      	sub	sp, #48	; 0x30
   4:	9007      	str	r0, [sp, #28]
/Users/Luppy/.cargo/registry/src/github.com-1ecc6299db9ec823/heapless-0.5.1/src/vec.rs:482
        if self.next < self.vec.len() {
   6:	9807      	ldr	r0, [sp, #28]
   8:	f8d0 1194 	ldr.w	r1, [r0, #404]	; 0x194
   c:	9106      	str	r1, [sp, #24]
   e:	f7ff fffe 	bl	0 <_ZN95_$LT$heapless..vec..IntoIter$LT$T$C$N$GT$$u20$as$u20$core..iter..traits..iterator..Iterator$GT$4next17hc222d745b483a5c5E>
  12:	9005      	str	r0, [sp, #20]
  14:	9104      	str	r1, [sp, #16]
  16:	e7ff      	b.n	18 <_ZN95_$LT$heapless..vec..IntoIter$LT$T$C$N$GT$$u20$as$u20$core..iter..traits..iterator..Iterator$GT$4next17hc222d745b483a5c5E+0x18>
  18:	9805      	ldr	r0, [sp, #20]
  1a:	9904      	ldr	r1, [sp, #16]
  1c:	f7ff fffe 	bl	0 <_ZN4core5slice29_$LT$impl$u20$$u5b$T$u5d$$GT$3len17hd3eda1934930eeedE>
  20:	9003      	str	r0, [sp, #12]
  22:	e7ff      	b.n	24 <_ZN95_$LT$heapless..vec..IntoIter$LT$T$C$N$GT$$u20$as$u20$core..iter..traits..iterator..Iterator$GT$4next17hc222d745b483a5c5E+0x24>
  24:	9806      	ldr	r0, [sp, #24]
  26:	9903      	ldr	r1, [sp, #12]
  28:	4288      	cmp	r0, r1
  2a:	d304      	bcc.n	36 <_ZN95_$LT$heapless..vec..IntoIter$LT$T$C$N$GT$$u20$as$u20$core..iter..traits..iterator..Iterator$GT$4next17hc222d745b483a5c5E+0x36>
  2c:	e7ff      	b.n	2e <_ZN95_$LT$heapless..vec..IntoIter$LT$T$C$N$GT$$u20$as$u20$core..iter..traits..iterator..Iterator$GT$4next17hc222d745b483a5c5E+0x2e>
  2e:	2000      	movs	r0, #0
/Users/Luppy/.cargo/registry/src/github.com-1ecc6299db9ec823/heapless-0.5.1/src/vec.rs:491
            None
  30:	f8ad 0020 	strh.w	r0, [sp, #32]
/Users/Luppy/.cargo/registry/src/github.com-1ecc6299db9ec823/heapless-0.5.1/src/vec.rs:482
        if self.next < self.vec.len() {
  34:	e02a      	b.n	8c <_ZN95_$LT$heapless..vec..IntoIter$LT$T$C$N$GT$$u20$as$u20$core..iter..traits..iterator..Iterator$GT$4next17hc222d745b483a5c5E+0x8c>
/Users/Luppy/.cargo/registry/src/github.com-1ecc6299db9ec823/heapless-0.5.1/src/vec.rs:484
                (self.vec.0.buffer.as_ptr() as *const T)
  36:	9807      	ldr	r0, [sp, #28]
  38:	3004      	adds	r0, #4
  3a:	900a      	str	r0, [sp, #40]	; 0x28
_ZN4core3mem12maybe_uninit20MaybeUninit$LT$T$GT$6as_ptr17h1b58c1c9dbc3dad3E():
/rustc/412f43ac5b4ae8c3599e71c6972112e9be4758fa/src/libcore/mem/maybe_uninit.rs:399
  3c:	980a      	ldr	r0, [sp, #40]	; 0x28
  3e:	900b      	str	r0, [sp, #44]	; 0x2c
_ZN91_$LT$core..mem..manually_drop..ManuallyDrop$LT$T$GT$$u20$as$u20$core..ops..deref..Deref$GT$5deref17hc2d8c6eb7d7047ccE():
/rustc/412f43ac5b4ae8c3599e71c6972112e9be4758fa/src/libcore/mem/manually_drop.rs:138
  40:	980b      	ldr	r0, [sp, #44]	; 0x2c
_ZN95_$LT$heapless..vec..IntoIter$LT$T$C$N$GT$$u20$as$u20$core..iter..traits..iterator..Iterator$GT$4next17hc222d745b483a5c5E():
/Users/Luppy/.cargo/registry/src/github.com-1ecc6299db9ec823/heapless-0.5.1/src/vec.rs:484
  42:	9002      	str	r0, [sp, #8]
  44:	e7ff      	b.n	46 <_ZN95_$LT$heapless..vec..IntoIter$LT$T$C$N$GT$$u20$as$u20$core..iter..traits..iterator..Iterator$GT$4next17hc222d745b483a5c5E+0x46>
/Users/Luppy/.cargo/registry/src/github.com-1ecc6299db9ec823/heapless-0.5.1/src/vec.rs:485
                    .add(self.next)
  46:	9807      	ldr	r0, [sp, #28]
  48:	f8d0 1194 	ldr.w	r1, [r0, #404]	; 0x194
/Users/Luppy/.cargo/registry/src/github.com-1ecc6299db9ec823/heapless-0.5.1/src/vec.rs:484
                (self.vec.0.buffer.as_ptr() as *const T)
  4c:	9802      	ldr	r0, [sp, #8]
  4e:	f7ff fffe 	bl	0 <_ZN4core3ptr33_$LT$impl$u20$$BP$const$u20$T$GT$3add17hc7070bbca87f8170E>
  52:	9001      	str	r0, [sp, #4]
  54:	e7ff      	b.n	56 <_ZN95_$LT$heapless..vec..IntoIter$LT$T$C$N$GT$$u20$as$u20$core..iter..traits..iterator..Iterator$GT$4next17hc222d745b483a5c5E+0x56>
  56:	9801      	ldr	r0, [sp, #4]
  58:	f7ff fffe 	bl	0 <_ZN4core3ptr33_$LT$impl$u20$$BP$const$u20$T$GT$4read17h220cab28cb6d63c7E>
  5c:	f8ad 0026 	strh.w	r0, [sp, #38]	; 0x26
  60:	e7ff      	b.n	62 <_ZN95_$LT$heapless..vec..IntoIter$LT$T$C$N$GT$$u20$as$u20$core..iter..traits..iterator..Iterator$GT$4next17hc222d745b483a5c5E+0x62>
/Users/Luppy/.cargo/registry/src/github.com-1ecc6299db9ec823/heapless-0.5.1/src/vec.rs:488
            self.next += 1;
  62:	9807      	ldr	r0, [sp, #28]
  64:	f8d0 0194 	ldr.w	r0, [r0, #404]	; 0x194
  68:	1c41      	adds	r1, r0, #1
  6a:	460a      	mov	r2, r1
  6c:	4281      	cmp	r1, r0
  6e:	9200      	str	r2, [sp, #0]
  70:	d312      	bcc.n	98 <_ZN95_$LT$heapless..vec..IntoIter$LT$T$C$N$GT$$u20$as$u20$core..iter..traits..iterator..Iterator$GT$4next17hc222d745b483a5c5E+0x98>
  72:	e7ff      	b.n	74 <_ZN95_$LT$heapless..vec..IntoIter$LT$T$C$N$GT$$u20$as$u20$core..iter..traits..iterator..Iterator$GT$4next17hc222d745b483a5c5E+0x74>
  74:	9807      	ldr	r0, [sp, #28]
  76:	9900      	ldr	r1, [sp, #0]
  78:	f8c0 1194 	str.w	r1, [r0, #404]	; 0x194
/Users/Luppy/.cargo/registry/src/github.com-1ecc6299db9ec823/heapless-0.5.1/src/vec.rs:489
            Some(item)
  7c:	f8bd 0026 	ldrh.w	r0, [sp, #38]	; 0x26
  80:	f8ad 0022 	strh.w	r0, [sp, #34]	; 0x22
  84:	2001      	movs	r0, #1
  86:	f8ad 0020 	strh.w	r0, [sp, #32]
/Users/Luppy/.cargo/registry/src/github.com-1ecc6299db9ec823/heapless-0.5.1/src/vec.rs:482
        if self.next < self.vec.len() {
  8a:	e7ff      	b.n	8c <_ZN95_$LT$heapless..vec..IntoIter$LT$T$C$N$GT$$u20$as$u20$core..iter..traits..iterator..Iterator$GT$4next17hc222d745b483a5c5E+0x8c>
/Users/Luppy/.cargo/registry/src/github.com-1ecc6299db9ec823/heapless-0.5.1/src/vec.rs:493
    }
  8c:	f8bd 0020 	ldrh.w	r0, [sp, #32]
  90:	f8bd 1022 	ldrh.w	r1, [sp, #34]	; 0x22
  94:	b00c      	add	sp, #48	; 0x30
  96:	bd80      	pop	{r7, pc}
/Users/Luppy/.cargo/registry/src/github.com-1ecc6299db9ec823/heapless-0.5.1/src/vec.rs:488
            self.next += 1;
  98:	f240 0000 	movw	r0, #0
  9c:	f2c0 0000 	movt	r0, #0
  a0:	f240 0200 	movw	r2, #0
  a4:	f2c0 0200 	movt	r2, #0
  a8:	211c      	movs	r1, #28
  aa:	f7ff fffe 	bl	0 <_ZN4core9panicking5panic17hfdd0eecc44a682f8E>
  ae:	defe      	udf	#254	; 0xfe

app-d559bf047a1af437.2s0elry69xzxndax.rcgu.o:     file format elf32-littlearm

SYMBOL TABLE:
00000000 l    df *ABS*	00000000 2s0elry69xzxndax
00001b5a l       .debug_str	00000000 
000023f9 l       .debug_str	00000000 
00002400 l       .debug_str	00000000 
00002408 l       .debug_str	00000000 
00002426 l       .debug_str	00000000 
00002436 l       .debug_str	00000000 
00002469 l       .debug_str	00000000 
0000247e l       .debug_str	00000000 
00002491 l       .debug_str	00000000 
000024a6 l       .debug_str	00000000 
000024ad l       .debug_str	00000000 
000024c2 l       .debug_str	00000000 
000024ec l       .debug_str	00000000 
000024f0 l       .debug_str	00000000 
000024f9 l       .debug_str	00000000 
00000000 l       .debug_str	00000000 
00000041 l       .debug_str	00000000 
00000055 l       .debug_str	00000000 
00000080 l       .debug_str	00000000 
00000084 l       .debug_str	00000000 
0000008f l       .debug_str	00000000 
0000009d l       .debug_str	00000000 
000000a4 l       .debug_str	00000000 
000000a8 l       .debug_str	00000000 
000000ab l       .debug_str	00000000 
000000b3 l       .debug_str	00000000 
000000b7 l       .debug_str	00000000 
000000c0 l       .debug_str	00000000 
000000ca l       .debug_str	00000000 
000000d1 l       .debug_str	00000000 
000000d7 l       .debug_str	00000000 
000000dd l       .debug_str	00000000 
000000e2 l       .debug_str	00000000 
000000ea l       .debug_str	00000000 
000000ef l       .debug_str	00000000 
00000126 l       .debug_str	00000000 
0000012d l       .debug_str	00000000 
00000131 l       .debug_str	00000000 
00000139 l       .debug_str	00000000 
00000144 l       .debug_str	00000000 
0000014f l       .debug_str	00000000 
0000015c l       .debug_str	00000000 
00000167 l       .debug_str	00000000 
0000016f l       .debug_str	00000000 
0000017a l       .debug_str	00000000 
00000185 l       .debug_str	00000000 
0000018f l       .debug_str	00000000 
0000019a l       .debug_str	00000000 
000001a5 l       .debug_str	00000000 
000001b2 l       .debug_str	00000000 
000001be l       .debug_str	00000000 
000001cb l       .debug_str	00000000 
000001d9 l       .debug_str	00000000 
000001e3 l       .debug_str	00000000 
000001f0 l       .debug_str	00000000 
000001fc l       .debug_str	00000000 
00000201 l       .debug_str	00000000 
00000205 l       .debug_str	00000000 
00000210 l       .debug_str	00000000 
0000021b l       .debug_str	00000000 
00000222 l       .debug_str	00000000 
00000261 l       .debug_str	00000000 
00000277 l       .debug_str	00000000 
0000027b l       .debug_str	00000000 
0000027e l       .debug_str	00000000 
00000281 l       .debug_str	00000000 
00000283 l       .debug_str	00000000 
00000285 l       .debug_str	00000000 
00000289 l       .debug_str	00000000 
000002b1 l       .debug_str	00000000 
000002b8 l       .debug_str	00000000 
000002bb l       .debug_str	00000000 
000002c4 l       .debug_str	00000000 
000002ca l       .debug_str	00000000 
000002d1 l       .debug_str	00000000 
000002d4 l       .debug_str	00000000 
000002e0 l       .debug_str	00000000 
000002e8 l       .debug_str	00000000 
000002ef l       .debug_str	00000000 
000002f4 l       .debug_str	00000000 
0000030b l       .debug_str	00000000 
00000365 l       .debug_str	00000000 
0000036a l       .debug_str	00000000 
000003cc l       .debug_str	00000000 
000003d7 l       .debug_str	00000000 
0000041e l       .debug_str	00000000 
0000046d l       .debug_str	00000000 
00000477 l       .debug_str	00000000 
000004b4 l       .debug_str	00000000 
000004f9 l       .debug_str	00000000 
00000502 l       .debug_str	00000000 
00000512 l       .debug_str	00000000 
0000051a l       .debug_str	00000000 
0000056f l       .debug_str	00000000 
000005cc l       .debug_str	00000000 
000005d8 l       .debug_str	00000000 
000005e1 l       .debug_str	00000000 
000005ed l       .debug_str	00000000 
000005f9 l       .debug_str	00000000 
00000602 l       .debug_str	00000000 
0000060a l       .debug_str	00000000 
00000612 l       .debug_str	00000000 
0000061c l       .debug_str	00000000 
00000631 l       .debug_str	00000000 
00000638 l       .debug_str	00000000 
00000658 l       .debug_str	00000000 
0000065f l       .debug_str	00000000 
00000667 l       .debug_str	00000000 
00000671 l       .debug_str	00000000 
0000067c l       .debug_str	00000000 
00000685 l       .debug_str	00000000 
00000690 l       .debug_str	00000000 
0000069c l       .debug_str	00000000 
000006a0 l       .debug_str	00000000 
000006a9 l       .debug_str	00000000 
000006b0 l       .debug_str	00000000 
000006b8 l       .debug_str	00000000 
000006c0 l       .debug_str	00000000 
000006ca l       .debug_str	00000000 
000006d0 l       .debug_str	00000000 
000006d7 l       .debug_str	00000000 
000006de l       .debug_str	00000000 
0000070b l       .debug_str	00000000 
00000740 l       .debug_str	00000000 
00000746 l       .debug_str	00000000 
0000074c l       .debug_str	00000000 
0000075b l       .debug_str	00000000 
0000076b l       .debug_str	00000000 
0000077b l       .debug_str	00000000 
00000783 l       .debug_str	00000000 
000007ac l       .debug_str	00000000 
0000080a l       .debug_str	00000000 
00000870 l       .debug_str	00000000 
00000877 l       .debug_str	00000000 
0000087f l       .debug_str	00000000 
00000888 l       .debug_str	00000000 
000008a6 l       .debug_str	00000000 
000008b6 l       .debug_str	00000000 
000008c4 l       .debug_str	00000000 
000008cf l       .debug_str	00000000 
000008dc l       .debug_str	00000000 
000008eb l       .debug_str	00000000 
00000901 l       .debug_str	00000000 
0000090b l       .debug_str	00000000 
00000914 l       .debug_str	00000000 
0000091d l       .debug_str	00000000 
00000943 l       .debug_str	00000000 
00000959 l       .debug_str	00000000 
00000964 l       .debug_str	00000000 
0000097a l       .debug_str	00000000 
00000982 l       .debug_str	00000000 
000009a3 l       .debug_str	00000000 
000009ba l       .debug_str	00000000 
000009bf l       .debug_str	00000000 
000009c7 l       .debug_str	00000000 
000009d0 l       .debug_str	00000000 
000009d9 l       .debug_str	00000000 
000009e2 l       .debug_str	00000000 
000009ea l       .debug_str	00000000 
000009ee l       .debug_str	00000000 
000009f5 l       .debug_str	00000000 
00000a01 l       .debug_str	00000000 
00000a0c l       .debug_str	00000000 
00000a14 l       .debug_str	00000000 
00000a1c l       .debug_str	00000000 
00000a98 l       .debug_str	00000000 
00000b1c l       .debug_str	00000000 
00000c18 l       .debug_str	00000000 
00000d1c l       .debug_str	00000000 
00000d2a l       .debug_str	00000000 
00000d35 l       .debug_str	00000000 
00000d3f l       .debug_str	00000000 
00000d53 l       .debug_str	00000000 
00000d5e l       .debug_str	00000000 
00000d8c l       .debug_str	00000000 
00000e07 l       .debug_str	00000000 
00000e8a l       .debug_str	00000000 
00000e98 l       .debug_str	00000000 
00000ef7 l       .debug_str	00000000 
00000f5e l       .debug_str	00000000 
00000f74 l       .debug_str	00000000 
00000f84 l       .debug_str	00000000 
00000f93 l       .debug_str	00000000 
00000f97 l       .debug_str	00000000 
00000f9e l       .debug_str	00000000 
00000fa4 l       .debug_str	00000000 
00000fa8 l       .debug_str	00000000 
00000fae l       .debug_str	00000000 
00000fb4 l       .debug_str	00000000 
00000fc0 l       .debug_str	00000000 
00000fc8 l       .debug_str	00000000 
00000fce l       .debug_str	00000000 
00000fd6 l       .debug_str	00000000 
00000fdc l       .debug_str	00000000 
00000fff l       .debug_str	00000000 
0000100f l       .debug_str	00000000 
00001042 l       .debug_str	00000000 
00001082 l       .debug_str	00000000 
000010ca l       .debug_str	00000000 
000010ce l       .debug_str	00000000 
000010d4 l       .debug_str	00000000 
000010da l       .debug_str	00000000 
000010e0 l       .debug_str	00000000 
000010f2 l       .debug_str	00000000 
00001127 l       .debug_str	00000000 
00001169 l       .debug_str	00000000 
000011b3 l       .debug_str	00000000 
000011b7 l       .debug_str	00000000 
000011bd l       .debug_str	00000000 
000011c3 l       .debug_str	00000000 
000011c9 l       .debug_str	00000000 
000011db l       .debug_str	00000000 
00001210 l       .debug_str	00000000 
00001252 l       .debug_str	00000000 
0000129c l       .debug_str	00000000 
000012a0 l       .debug_str	00000000 
000012a6 l       .debug_str	00000000 
000012ac l       .debug_str	00000000 
000012b2 l       .debug_str	00000000 
000012b8 l       .debug_str	00000000 
000012c9 l       .debug_str	00000000 
000012fd l       .debug_str	00000000 
0000133e l       .debug_str	00000000 
00001387 l       .debug_str	00000000 
0000138c l       .debug_str	00000000 
00001391 l       .debug_str	00000000 
00001395 l       .debug_str	00000000 
0000139b l       .debug_str	00000000 
000013a1 l       .debug_str	00000000 
000013a7 l       .debug_str	00000000 
000013b8 l       .debug_str	00000000 
000013ec l       .debug_str	00000000 
0000142d l       .debug_str	00000000 
00001476 l       .debug_str	00000000 
0000147a l       .debug_str	00000000 
00001483 l       .debug_str	00000000 
00001494 l       .debug_str	00000000 
000014c8 l       .debug_str	00000000 
00001509 l       .debug_str	00000000 
00001552 l       .debug_str	00000000 
00001557 l       .debug_str	00000000 
0000155b l       .debug_str	00000000 
00001564 l       .debug_str	00000000 
0000156b l       .debug_str	00000000 
00001573 l       .debug_str	00000000 
00001585 l       .debug_str	00000000 
000015ba l       .debug_str	00000000 
000015fc l       .debug_str	00000000 
00001646 l       .debug_str	00000000 
0000164a l       .debug_str	00000000 
00001650 l       .debug_str	00000000 
00001656 l       .debug_str	00000000 
0000165c l       .debug_str	00000000 
00001662 l       .debug_str	00000000 
0000166a l       .debug_str	00000000 
00001678 l       .debug_str	00000000 
00001687 l       .debug_str	00000000 
00001698 l       .debug_str	00000000 
000016a3 l       .debug_str	00000000 
000016ae l       .debug_str	00000000 
000016b9 l       .debug_str	00000000 
000016c0 l       .debug_str	00000000 
000016e3 l       .debug_str	00000000 
000016f5 l       .debug_str	00000000 
0000172a l       .debug_str	00000000 
0000176c l       .debug_str	00000000 
000017b6 l       .debug_str	00000000 
000017ba l       .debug_str	00000000 
000017c4 l       .debug_str	00000000 
000017d6 l       .debug_str	00000000 
0000180b l       .debug_str	00000000 
0000184d l       .debug_str	00000000 
00001897 l       .debug_str	00000000 
0000189c l       .debug_str	00000000 
000018a6 l       .debug_str	00000000 
000018b8 l       .debug_str	00000000 
000018ed l       .debug_str	00000000 
0000192f l       .debug_str	00000000 
00001979 l       .debug_str	00000000 
0000198d l       .debug_str	00000000 
00001991 l       .debug_str	00000000 
0000199f l       .debug_str	00000000 
000019af l       .debug_str	00000000 
000019b8 l       .debug_str	00000000 
000019c3 l       .debug_str	00000000 
000019d2 l       .debug_str	00000000 
000019e7 l       .debug_str	00000000 
00001a18 l       .debug_str	00000000 
00001ab5 l       .debug_str	00000000 
00001b65 l       .debug_str	00000000 
00001b6e l       .debug_str	00000000 
00001b8f l       .debug_str	00000000 
00001ba2 l       .debug_str	00000000 
00001bd8 l       .debug_str	00000000 
00001c5b l       .debug_str	00000000 
00001ce6 l       .debug_str	00000000 
00001d02 l       .debug_str	00000000 
00001d4e l       .debug_str	00000000 
00001da2 l       .debug_str	00000000 
00001dbf l       .debug_str	00000000 
00001dd3 l       .debug_str	00000000 
00001e1f l       .debug_str	00000000 
00001e73 l       .debug_str	00000000 
00001e89 l       .debug_str	00000000 
00001e9d l       .debug_str	00000000 
00001ee4 l       .debug_str	00000000 
00001f33 l       .debug_str	00000000 
00001f3c l       .debug_str	00000000 
00001f4a l       .debug_str	00000000 
00001f7b l       .debug_str	00000000 
00001f81 l       .debug_str	00000000 
00001f89 l       .debug_str	00000000 
00001f90 l       .debug_str	00000000 
00001f98 l       .debug_str	00000000 
00001fa3 l       .debug_str	00000000 
00001fab l       .debug_str	00000000 
00001fba l       .debug_str	00000000 
00001fbe l       .debug_str	00000000 
00001fc9 l       .debug_str	00000000 
00001fd5 l       .debug_str	00000000 
00001fe0 l       .debug_str	00000000 
00001ff1 l       .debug_str	00000000 
00001ff7 l       .debug_str	00000000 
00001fff l       .debug_str	00000000 
00002006 l       .debug_str	00000000 
00002010 l       .debug_str	00000000 
00002018 l       .debug_str	00000000 
00002020 l       .debug_str	00000000 
00002042 l       .debug_str	00000000 
0000204d l       .debug_str	00000000 
00002059 l       .debug_str	00000000 
00002061 l       .debug_str	00000000 
0000206a l       .debug_str	00000000 
00002075 l       .debug_str	00000000 
0000207c l       .debug_str	00000000 
00002087 l       .debug_str	00000000 
00002092 l       .debug_str	00000000 
000020a2 l       .debug_str	00000000 
000020ac l       .debug_str	00000000 
000020b2 l       .debug_str	00000000 
000020d4 l       .debug_str	00000000 
0000210c l       .debug_str	00000000 
0000214c l       .debug_str	00000000 
00002153 l       .debug_str	00000000 
0000215b l       .debug_str	00000000 
00002172 l       .debug_str	00000000 
0000217b l       .debug_str	00000000 
0000218b l       .debug_str	00000000 
0000219a l       .debug_str	00000000 
000021a2 l       .debug_str	00000000 
000021a9 l       .debug_str	00000000 
000021b1 l       .debug_str	00000000 
000021cf l       .debug_str	00000000 
000021df l       .debug_str	00000000 
00002212 l       .debug_str	00000000 
00002227 l       .debug_str	00000000 
00002230 l       .debug_str	00000000 
0000228d l       .debug_str	00000000 
000022f2 l       .debug_str	00000000 
000022fc l       .debug_str	00000000 
0000230c l       .debug_str	00000000 
00002321 l       .debug_str	00000000 
00002329 l       .debug_str	00000000 
0000238d l       .debug_str	00000000 
00000000 l     O .rodata..Lanon.02e5de6d92f2b06020ba7e8bbd3b0a10.1	0000000e .Lanon.02e5de6d92f2b06020ba7e8bbd3b0a10.1
00000000 l     O .rodata..Lanon.02e5de6d92f2b06020ba7e8bbd3b0a10.2	00000006 .Lanon.02e5de6d92f2b06020ba7e8bbd3b0a10.2
00000000 l     O .rodata..Lanon.02e5de6d92f2b06020ba7e8bbd3b0a10.4	0000000c .Lanon.02e5de6d92f2b06020ba7e8bbd3b0a10.4
00000000 l     O .rodata._ZN3app10app_sensor13SENSOR_DEVICE17h660d57a50658176bE	0000000c _ZN3app10app_sensor13SENSOR_DEVICE17h660d57a50658176bE
00000000 l    d  .text._ZN3app10app_sensor21start_sensor_listener17h6c0dc9a587e98e7dE	00000000 .text._ZN3app10app_sensor21start_sensor_listener17h6c0dc9a587e98e7dE
00000000 l    d  .rodata..Lanon.02e5de6d92f2b06020ba7e8bbd3b0a10.0	00000000 .rodata..Lanon.02e5de6d92f2b06020ba7e8bbd3b0a10.0
00000000 l    d  .rodata._ZN3app10app_sensor13SENSOR_DEVICE17h660d57a50658176bE	00000000 .rodata._ZN3app10app_sensor13SENSOR_DEVICE17h660d57a50658176bE
00000000 l    d  .rodata..Lanon.02e5de6d92f2b06020ba7e8bbd3b0a10.3	00000000 .rodata..Lanon.02e5de6d92f2b06020ba7e8bbd3b0a10.3
00000000 l    d  .debug_abbrev	00000000 .debug_abbrev
00000000 l    d  .debug_info	00000000 .debug_info
00000000 l    d  .debug_ranges	00000000 .debug_ranges
00000000 l    d  .debug_frame	00000000 .debug_frame
00000000 l    d  .debug_line	00000000 .debug_line
00000000 g     F .text._ZN3app10app_sensor21start_sensor_listener17h6c0dc9a587e98e7dE	00000162 .hidden _ZN3app10app_sensor21start_sensor_listener17h6c0dc9a587e98e7dE
00000000         *UND*	00000000 .hidden _ZN3app11app_network21aggregate_sensor_data17h9a0bc2e462ddea14E
00000000         *UND*	00000000 _ZN4core6option15Option$LT$T$GT$6expect17hb3a65af939a919baE
00000000         *UND*	00000000 _ZN50_$LT$T$u20$as$u20$core..convert..From$LT$T$GT$$GT$4from17h2ece7be01fdee8faE
00000000         *UND*	00000000 _ZN6mynewt2hw10sensor_mgr14find_bydevname17haa740c072dd563deE
00000000         *UND*	00000000 _ZN6mynewt2hw6sensor17register_listener17h790fe3b095cc4881E
00000000         *UND*	00000000 _ZN6mynewt2hw6sensor19new_sensor_listener17ha8f035329ec8f4e4E
00000000         *UND*	00000000 _ZN6mynewt2hw6sensor8bindings16set_poll_rate_ms17h6f78c4355186e18dE
00000000         *UND*	00000000 _ZN6mynewt3sys7console5print17h67a3059d9eb8a82eE
00000000         *UND*	00000000 _ZN73_$LT$core..result..Result$LT$T$C$E$GT$$u20$as$u20$core..ops..try..Try$GT$10from_error17h8ca7b6780f95f931E
00000000         *UND*	00000000 _ZN73_$LT$core..result..Result$LT$T$C$E$GT$$u20$as$u20$core..ops..try..Try$GT$11into_result17h2dd827ac295b6133E
00000000         *UND*	00000000 _ZN73_$LT$core..result..Result$LT$T$C$E$GT$$u20$as$u20$core..ops..try..Try$GT$11into_result17h8c871956df004589E
00000000         *UND*	00000000 _ZN99_$LT$mynewt..hw..sensor_mgr..SensorsByDevname$u20$as$u20$core..iter..traits..iterator..Iterator$GT$4next17hdb4aa531ec89330aE



Disassembly of section .text._ZN3app10app_sensor21start_sensor_listener17h6c0dc9a587e98e7dE:

00000000 <_ZN3app10app_sensor21start_sensor_listener17h6c0dc9a587e98e7dE>:
_ZN3app10app_sensor21start_sensor_listener17h6c0dc9a587e98e7dE():
/Users/Luppy/PineTime/pinetime-rust-mynewt/rust/app/src/app_sensor.rs:46
///  Type of sensor: Raw temperature sensor (integer sensor values 0 to 4095)
const TEMP_SENSOR_TYPE: sensor_type_t = sensor::SENSOR_TYPE_AMBIENT_TEMPERATURE_RAW;

///  Ask Mynewt to poll or read the temperature sensor and call `aggregate_sensor_data()`
///  Return `Ok()` if successful, else return `Err()` with `MynewtError` error code inside.
pub fn start_sensor_listener() -> MynewtResult<()>  {  //  Returns an error code upon error.
   0:	b5f0      	push	{r4, r5, r6, r7, lr}
   2:	b0bb      	sub	sp, #236	; 0xec
/Users/Luppy/PineTime/pinetime-rust-mynewt/rust/app/src/app_sensor.rs:47
    console::print("Rust TMP poll\n");
   4:	f240 0000 	movw	r0, #0
   8:	f2c0 0000 	movt	r0, #0
   c:	210e      	movs	r1, #14
   e:	f7ff fffe 	bl	0 <_ZN6mynewt3sys7console5print17h67a3059d9eb8a82eE>
  12:	e7ff      	b.n	2 <_ZN3app10app_sensor21start_sensor_listener17h6c0dc9a587e98e7dE+0x2>
/Users/Luppy/PineTime/pinetime-rust-mynewt/rust/app/src/app_sensor.rs:50

    //  Fetch the sensor by name.
    let sensor = sensor_mgr::find_bydevname(&SENSOR_DEVICE)
  14:	f240 0100 	movw	r1, #0
  18:	f2c0 0100 	movt	r1, #0
  1c:	a80b      	add	r0, sp, #44	; 0x2c
  1e:	f7ff fffe 	bl	0 <_ZN6mynewt2hw10sensor_mgr14find_bydevname17haa740c072dd563deE>
  22:	e7ff      	b.n	24 <_ZN3app10app_sensor21start_sensor_listener17h6c0dc9a587e98e7dE+0x24>
  24:	a80b      	add	r0, sp, #44	; 0x2c
  26:	f7ff fffe 	bl	0 <_ZN99_$LT$mynewt..hw..sensor_mgr..SensorsByDevname$u20$as$u20$core..iter..traits..iterator..Iterator$GT$4next17hdb4aa531ec89330aE>
  2a:	9008      	str	r0, [sp, #32]
  2c:	9107      	str	r1, [sp, #28]
  2e:	e7ff      	b.n	30 <_ZN3app10app_sensor21start_sensor_listener17h6c0dc9a587e98e7dE+0x30>
  30:	f240 0200 	movw	r2, #0
  34:	f2c0 0200 	movt	r2, #0
  38:	2306      	movs	r3, #6
  3a:	9808      	ldr	r0, [sp, #32]
  3c:	9907      	ldr	r1, [sp, #28]
  3e:	f7ff fffe 	bl	0 <_ZN4core6option15Option$LT$T$GT$6expect17hb3a65af939a919baE>
  42:	900a      	str	r0, [sp, #40]	; 0x28
  44:	e7ff      	b.n	46 <_ZN3app10app_sensor21start_sensor_listener17h6c0dc9a587e98e7dE+0x46>
/Users/Luppy/PineTime/pinetime-rust-mynewt/rust/app/src/app_sensor.rs:55
        .next()             //  Fetch the first sensor that matches
        .expect("no TMP");  //  Stop if no sensor found

    //  At power on, we ask Mynewt to poll our temperature sensor every 10 seconds.
    sensor::set_poll_rate_ms(&SENSOR_DEVICE, SENSOR_POLL_TIME) ? ;
  46:	f240 0000 	movw	r0, #0
  4a:	f2c0 0000 	movt	r0, #0
  4e:	f247 5130 	movw	r1, #30000	; 0x7530
  52:	f7ff fffe 	bl	0 <_ZN6mynewt2hw6sensor8bindings16set_poll_rate_ms17h6f78c4355186e18dE>
  56:	9006      	str	r0, [sp, #24]
  58:	e7ff      	b.n	5a <_ZN3app10app_sensor21start_sensor_listener17h6c0dc9a587e98e7dE+0x5a>
  5a:	9806      	ldr	r0, [sp, #24]
  5c:	f7ff fffe 	bl	0 <_ZN73_$LT$core..result..Result$LT$T$C$E$GT$$u20$as$u20$core..ops..try..Try$GT$11into_result17h8c871956df004589E>
  60:	900f      	str	r0, [sp, #60]	; 0x3c
  62:	e7ff      	b.n	64 <_ZN3app10app_sensor21start_sensor_listener17h6c0dc9a587e98e7dE+0x64>
  64:	980f      	ldr	r0, [sp, #60]	; 0x3c
  66:	1e41      	subs	r1, r0, #1
  68:	bf18      	it	ne
  6a:	2101      	movne	r1, #1
  6c:	2801      	cmp	r0, #1
  6e:	d013      	beq.n	98 <_ZN3app10app_sensor21start_sensor_listener17h6c0dc9a587e98e7dE+0x98>
  70:	e7ff      	b.n	72 <_ZN3app10app_sensor21start_sensor_listener17h6c0dc9a587e98e7dE+0x72>
  72:	e000      	b.n	76 <_ZN3app10app_sensor21start_sensor_listener17h6c0dc9a587e98e7dE+0x76>
  74:	defe      	udf	#254	; 0xfe
  76:	980f      	ldr	r0, [sp, #60]	; 0x3c
  78:	9010      	str	r0, [sp, #64]	; 0x40
  7a:	9810      	ldr	r0, [sp, #64]	; 0x40
  7c:	f7ff fffe 	bl	0 <_ZN50_$LT$T$u20$as$u20$core..convert..From$LT$T$GT$$GT$4from17h2ece7be01fdee8faE>
  80:	9005      	str	r0, [sp, #20]
  82:	e002      	b.n	8a <_ZN3app10app_sensor21start_sensor_listener17h6c0dc9a587e98e7dE+0x8a>
/Users/Luppy/PineTime/pinetime-rust-mynewt/rust/app/src/app_sensor.rs:69
    //  Register the Listener Function to be called with the polled sensor data.
    sensor::register_listener(sensor, listener) ? ;  //  `?` means in case of error, return error now.

    //  Return `Ok()` to indicate success.  This line should not end with a semicolon (;).
    Ok(())
  84:	9809      	ldr	r0, [sp, #36]	; 0x24
  86:	b03b      	add	sp, #236	; 0xec
  88:	bdf0      	pop	{r4, r5, r6, r7, pc}
/Users/Luppy/PineTime/pinetime-rust-mynewt/rust/app/src/app_sensor.rs:55
    sensor::set_poll_rate_ms(&SENSOR_DEVICE, SENSOR_POLL_TIME) ? ;
  8a:	9805      	ldr	r0, [sp, #20]
  8c:	f7ff fffe 	bl	0 <_ZN73_$LT$core..result..Result$LT$T$C$E$GT$$u20$as$u20$core..ops..try..Try$GT$10from_error17h8ca7b6780f95f931E>
  90:	9009      	str	r0, [sp, #36]	; 0x24
  92:	e7ff      	b.n	94 <_ZN3app10app_sensor21start_sensor_listener17h6c0dc9a587e98e7dE+0x94>
  94:	e7ff      	b.n	96 <_ZN3app10app_sensor21start_sensor_listener17h6c0dc9a587e98e7dE+0x96>
  96:	e7f5      	b.n	84 <_ZN3app10app_sensor21start_sensor_listener17h6c0dc9a587e98e7dE+0x84>
/Users/Luppy/PineTime/pinetime-rust-mynewt/rust/app/src/app_sensor.rs:58
    let listener = sensor::new_sensor_listener(
  98:	f240 0000 	movw	r0, #0
  9c:	f2c0 0000 	movt	r0, #0
  a0:	4669      	mov	r1, sp
  a2:	6008      	str	r0, [r1, #0]
  a4:	f240 0100 	movw	r1, #0
  a8:	f2c0 0100 	movt	r1, #0
  ac:	a820      	add	r0, sp, #128	; 0x80
  ae:	f04f 6280 	mov.w	r2, #67108864	; 0x4000000
  b2:	2300      	movs	r3, #0
  b4:	f7ff fffe 	bl	0 <_ZN6mynewt2hw6sensor19new_sensor_listener17ha8f035329ec8f4e4E>
  b8:	e7ff      	b.n	ba <_ZN3app10app_sensor21start_sensor_listener17h6c0dc9a587e98e7dE+0xba>
  ba:	a818      	add	r0, sp, #96	; 0x60
  bc:	a920      	add	r1, sp, #128	; 0x80
  be:	f7ff fffe 	bl	0 <_ZN73_$LT$core..result..Result$LT$T$C$E$GT$$u20$as$u20$core..ops..try..Try$GT$11into_result17h2dd827ac295b6133E>
  c2:	e7ff      	b.n	c4 <_ZN3app10app_sensor21start_sensor_listener17h6c0dc9a587e98e7dE+0xc4>
/Users/Luppy/PineTime/pinetime-rust-mynewt/rust/app/src/app_sensor.rs:62
    ) ? ;
  c4:	9818      	ldr	r0, [sp, #96]	; 0x60
  c6:	2800      	cmp	r0, #0
  c8:	d010      	beq.n	ec <_ZN3app10app_sensor21start_sensor_listener17h6c0dc9a587e98e7dE+0xec>
  ca:	e7ff      	b.n	cc <_ZN3app10app_sensor21start_sensor_listener17h6c0dc9a587e98e7dE+0xcc>
  cc:	e000      	b.n	d0 <_ZN3app10app_sensor21start_sensor_listener17h6c0dc9a587e98e7dE+0xd0>
/Users/Luppy/PineTime/pinetime-rust-mynewt/rust/app/src/app_sensor.rs:58
    let listener = sensor::new_sensor_listener(
  ce:	defe      	udf	#254	; 0xfe
/Users/Luppy/PineTime/pinetime-rust-mynewt/rust/app/src/app_sensor.rs:62
    ) ? ;
  d0:	9819      	ldr	r0, [sp, #100]	; 0x64
  d2:	9029      	str	r0, [sp, #164]	; 0xa4
  d4:	9829      	ldr	r0, [sp, #164]	; 0xa4
  d6:	f7ff fffe 	bl	0 <_ZN50_$LT$T$u20$as$u20$core..convert..From$LT$T$GT$$GT$4from17h2ece7be01fdee8faE>
  da:	9004      	str	r0, [sp, #16]
  dc:	e7ff      	b.n	de <_ZN3app10app_sensor21start_sensor_listener17h6c0dc9a587e98e7dE+0xde>
  de:	9804      	ldr	r0, [sp, #16]
  e0:	f7ff fffe 	bl	0 <_ZN73_$LT$core..result..Result$LT$T$C$E$GT$$u20$as$u20$core..ops..try..Try$GT$10from_error17h8ca7b6780f95f931E>
  e4:	9009      	str	r0, [sp, #36]	; 0x24
  e6:	e7ff      	b.n	e8 <_ZN3app10app_sensor21start_sensor_listener17h6c0dc9a587e98e7dE+0xe8>
  e8:	e7ff      	b.n	ea <_ZN3app10app_sensor21start_sensor_listener17h6c0dc9a587e98e7dE+0xea>
  ea:	e7d4      	b.n	96 <_ZN3app10app_sensor21start_sensor_listener17h6c0dc9a587e98e7dE+0x96>
  ec:	a818      	add	r0, sp, #96	; 0x60
/Users/Luppy/PineTime/pinetime-rust-mynewt/rust/app/src/app_sensor.rs:58
    let listener = sensor::new_sensor_listener(
  ee:	3008      	adds	r0, #8
  f0:	a92a      	add	r1, sp, #168	; 0xa8
  f2:	460a      	mov	r2, r1
  f4:	e890 5078 	ldmia.w	r0, {r3, r4, r5, r6, ip, lr}
  f8:	e882 5078 	stmia.w	r2, {r3, r4, r5, r6, ip, lr}
  fc:	a812      	add	r0, sp, #72	; 0x48
  fe:	4602      	mov	r2, r0
 100:	e891 5078 	ldmia.w	r1, {r3, r4, r5, r6, ip, lr}
 104:	e882 5078 	stmia.w	r2, {r3, r4, r5, r6, ip, lr}
/Users/Luppy/PineTime/pinetime-rust-mynewt/rust/app/src/app_sensor.rs:65
    sensor::register_listener(sensor, listener) ? ;  //  `?` means in case of error, return error now.
 108:	990a      	ldr	r1, [sp, #40]	; 0x28
 10a:	aa32      	add	r2, sp, #200	; 0xc8
 10c:	4613      	mov	r3, r2
 10e:	e890 50f0 	ldmia.w	r0, {r4, r5, r6, r7, ip, lr}
 112:	e883 50f0 	stmia.w	r3, {r4, r5, r6, r7, ip, lr}
 116:	4608      	mov	r0, r1
 118:	4611      	mov	r1, r2
 11a:	f7ff fffe 	bl	0 <_ZN6mynewt2hw6sensor17register_listener17h790fe3b095cc4881E>
 11e:	9003      	str	r0, [sp, #12]
 120:	e7ff      	b.n	122 <_ZN3app10app_sensor21start_sensor_listener17h6c0dc9a587e98e7dE+0x122>
 122:	9803      	ldr	r0, [sp, #12]
 124:	f7ff fffe 	bl	0 <_ZN73_$LT$core..result..Result$LT$T$C$E$GT$$u20$as$u20$core..ops..try..Try$GT$11into_result17h8c871956df004589E>
 128:	9031      	str	r0, [sp, #196]	; 0xc4
 12a:	e7ff      	b.n	12c <_ZN3app10app_sensor21start_sensor_listener17h6c0dc9a587e98e7dE+0x12c>
 12c:	9831      	ldr	r0, [sp, #196]	; 0xc4
 12e:	1e41      	subs	r1, r0, #1
 130:	bf18      	it	ne
 132:	2101      	movne	r1, #1
 134:	2801      	cmp	r0, #1
 136:	d00f      	beq.n	158 <_ZN3app10app_sensor21start_sensor_listener17h6c0dc9a587e98e7dE+0x158>
 138:	e7ff      	b.n	13a <_ZN3app10app_sensor21start_sensor_listener17h6c0dc9a587e98e7dE+0x13a>
 13a:	e000      	b.n	13e <_ZN3app10app_sensor21start_sensor_listener17h6c0dc9a587e98e7dE+0x13e>
 13c:	defe      	udf	#254	; 0xfe
 13e:	9831      	ldr	r0, [sp, #196]	; 0xc4
 140:	9039      	str	r0, [sp, #228]	; 0xe4
 142:	9839      	ldr	r0, [sp, #228]	; 0xe4
 144:	f7ff fffe 	bl	0 <_ZN50_$LT$T$u20$as$u20$core..convert..From$LT$T$GT$$GT$4from17h2ece7be01fdee8faE>
 148:	9002      	str	r0, [sp, #8]
 14a:	e7ff      	b.n	14c <_ZN3app10app_sensor21start_sensor_listener17h6c0dc9a587e98e7dE+0x14c>
 14c:	9802      	ldr	r0, [sp, #8]
 14e:	f7ff fffe 	bl	0 <_ZN73_$LT$core..result..Result$LT$T$C$E$GT$$u20$as$u20$core..ops..try..Try$GT$10from_error17h8ca7b6780f95f931E>
 152:	9009      	str	r0, [sp, #36]	; 0x24
 154:	e7ff      	b.n	156 <_ZN3app10app_sensor21start_sensor_listener17h6c0dc9a587e98e7dE+0x156>
 156:	e7c8      	b.n	ea <_ZN3app10app_sensor21start_sensor_listener17h6c0dc9a587e98e7dE+0xea>
 158:	2000      	movs	r0, #0
/Users/Luppy/PineTime/pinetime-rust-mynewt/rust/app/src/app_sensor.rs:68
    Ok(())
 15a:	9009      	str	r0, [sp, #36]	; 0x24
 15c:	2001      	movs	r0, #1
 15e:	9009      	str	r0, [sp, #36]	; 0x24
/Users/Luppy/PineTime/pinetime-rust-mynewt/rust/app/src/app_sensor.rs:69
 160:	e790      	b.n	84 <_ZN3app10app_sensor21start_sensor_listener17h6c0dc9a587e98e7dE+0x84>

app-d559bf047a1af437.2u62yo4q2gvpd9jb.rcgu.o:     file format elf32-littlearm

SYMBOL TABLE:
00000000 l    df *ABS*	00000000 2u62yo4q2gvpd9jb
00000400 l       .debug_str	00000000 
000003f6 l       .debug_str	00000000 
00000407 l       .debug_str	00000000 
0000040d l       .debug_str	00000000 
00000412 l       .debug_str	00000000 
00000418 l       .debug_str	00000000 
0000041f l       .debug_str	00000000 
00000429 l       .debug_str	00000000 
00000437 l       .debug_str	00000000 
00000477 l       .debug_str	00000000 
0000047c l       .debug_str	00000000 
000004eb l       .debug_str	00000000 
00000534 l       .debug_str	00000000 
000005dc l       .debug_str	00000000 
00000000 l       .debug_str	00000000 
00000041 l       .debug_str	00000000 
00000055 l       .debug_str	00000000 
00000080 l       .debug_str	00000000 
00000097 l       .debug_str	00000000 
0000009f l       .debug_str	00000000 
000000b1 l       .debug_str	00000000 
000000bc l       .debug_str	00000000 
000000c3 l       .debug_str	00000000 
000000ca l       .debug_str	00000000 
000000d0 l       .debug_str	00000000 
000000df l       .debug_str	00000000 
000000e3 l       .debug_str	00000000 
000000e7 l       .debug_str	00000000 
000000eb l       .debug_str	00000000 
000000f1 l       .debug_str	00000000 
000000f8 l       .debug_str	00000000 
000000fc l       .debug_str	00000000 
00000102 l       .debug_str	00000000 
0000010d l       .debug_str	00000000 
00000112 l       .debug_str	00000000 
00000119 l       .debug_str	00000000 
0000011d l       .debug_str	00000000 
00000122 l       .debug_str	00000000 
0000012d l       .debug_str	00000000 
00000134 l       .debug_str	00000000 
0000013b l       .debug_str	00000000 
0000013d l       .debug_str	00000000 
00000142 l       .debug_str	00000000 
00000178 l       .debug_str	00000000 
00000185 l       .debug_str	00000000 
00000192 l       .debug_str	00000000 
00000195 l       .debug_str	00000000 
00000197 l       .debug_str	00000000 
000001cc l       .debug_str	00000000 
000001ce l       .debug_str	00000000 
00000204 l       .debug_str	00000000 
0000024d l       .debug_str	00000000 
000002bb l       .debug_str	00000000 
000002c5 l       .debug_str	00000000 
000002ce l       .debug_str	00000000 
000002db l       .debug_str	00000000 
00000314 l       .debug_str	00000000 
0000035d l       .debug_str	00000000 
000003d1 l       .debug_str	00000000 
000003d7 l       .debug_str	00000000 
000003e4 l       .debug_str	00000000 
000003e8 l       .debug_str	00000000 
000003ed l       .debug_str	00000000 
00000000 l     O .rodata.cst16	00000010 .Lanon.d8cacd1848bc50fa123834431cee545d.0
00000000 l    d  .text._ZN22piet_embedded_graphics7display15draw_to_display17h2681b1ea4540d259E	00000000 .text._ZN22piet_embedded_graphics7display15draw_to_display17h2681b1ea4540d259E
00000000 l    d  .text._ZN22piet_embedded_graphics7display15draw_to_display17h8f053d084b2d9a5cE	00000000 .text._ZN22piet_embedded_graphics7display15draw_to_display17h8f053d084b2d9a5cE
00000000 l    d  .text._ZN22piet_embedded_graphics7display15draw_to_display17hfbbfebae406ebcf9E	00000000 .text._ZN22piet_embedded_graphics7display15draw_to_display17hfbbfebae406ebcf9E
00000000 l    d  .debug_loc	00000000 .debug_loc
00000000 l    d  .debug_abbrev	00000000 .debug_abbrev
00000000 l    d  .debug_info	00000000 .debug_info
00000000 l    d  .debug_ranges	00000000 .debug_ranges
00000000 l    d  .debug_frame	00000000 .debug_frame
00000000 l    d  .debug_line	00000000 .debug_line
00000000         *UND*	00000000 _ZN22piet_embedded_graphics5batch11draw_blocks17h5d78b46cb1920384E
00000000         *UND*	00000000 _ZN22piet_embedded_graphics5batch11draw_blocks17h76e692a8937a783bE
00000000         *UND*	00000000 _ZN22piet_embedded_graphics5batch11draw_blocks17hc4ad7ca5e60facd2E
00000000 g     F .text._ZN22piet_embedded_graphics7display15draw_to_display17h2681b1ea4540d259E	0000003a _ZN22piet_embedded_graphics7display15draw_to_display17h2681b1ea4540d259E
00000000 g     F .text._ZN22piet_embedded_graphics7display15draw_to_display17h8f053d084b2d9a5cE	00000042 _ZN22piet_embedded_graphics7display15draw_to_display17h8f053d084b2d9a5cE
00000000 g     F .text._ZN22piet_embedded_graphics7display15draw_to_display17hfbbfebae406ebcf9E	00000042 _ZN22piet_embedded_graphics7display15draw_to_display17hfbbfebae406ebcf9E
00000000         *UND*	00000000 _ZN22piet_embedded_graphics7display7DISPLAY17h81f4501a71239880E
00000000         *UND*	00000000 _ZN4core6result19Result$LT$T$C$E$GT$6expect17hf3746b868183a82aE



Disassembly of section .text._ZN22piet_embedded_graphics7display15draw_to_display17h2681b1ea4540d259E:

00000000 <_ZN22piet_embedded_graphics7display15draw_to_display17h2681b1ea4540d259E>:
_ZN22piet_embedded_graphics7display15draw_to_display17h2681b1ea4540d259E():
/Users/Luppy/PineTime/pinetime-rust-mynewt/rust/piet-embedded/piet-embedded-graphics/src/display.rs:126
    }
    Ok(())
}

/// Draw the item to the display
pub fn draw_to_display<T>(item: T)
   0:	b570      	push	{r4, r5, r6, lr}
   2:	b088      	sub	sp, #32
   4:	a902      	add	r1, sp, #8
/Users/Luppy/PineTime/pinetime-rust-mynewt/rust/piet-embedded/piet-embedded-graphics/src/display.rs:134
    unsafe { DISPLAY.draw(item) };        //  Draw text or graphics the usual slow way

    #[cfg(feature = "noblock_spi")]       //  If batching is enabled...
    super::batch::draw_blocks(            //  Draw text or graphics the new faster way, as pixel blocks
        unsafe { &mut DISPLAY },
        item
   6:	460a      	mov	r2, r1
   8:	e890 5078 	ldmia.w	r0, {r3, r4, r5, r6, ip, lr}
   c:	e882 5078 	stmia.w	r2, {r3, r4, r5, r6, ip, lr}
/Users/Luppy/PineTime/pinetime-rust-mynewt/rust/piet-embedded/piet-embedded-graphics/src/display.rs:132
    super::batch::draw_blocks(            //  Draw text or graphics the new faster way, as pixel blocks
  10:	f240 0000 	movw	r0, #0
  14:	f2c0 0000 	movt	r0, #0
  18:	f7ff fffe 	bl	0 <_ZN22piet_embedded_graphics5batch11draw_blocks17hc4ad7ca5e60facd2E>
  1c:	9001      	str	r0, [sp, #4]
  1e:	e7ff      	b.n	20 <_ZN22piet_embedded_graphics7display15draw_to_display17h2681b1ea4540d259E+0x20>
  20:	9801      	ldr	r0, [sp, #4]
  22:	f000 0001 	and.w	r0, r0, #1
  26:	f240 0100 	movw	r1, #0
  2a:	f2c0 0100 	movt	r1, #0
  2e:	2210      	movs	r2, #16
  30:	f7ff fffe 	bl	0 <_ZN4core6result19Result$LT$T$C$E$GT$6expect17hf3746b868183a82aE>
  34:	e7ff      	b.n	36 <_ZN22piet_embedded_graphics7display15draw_to_display17h2681b1ea4540d259E+0x36>
/Users/Luppy/PineTime/pinetime-rust-mynewt/rust/piet-embedded/piet-embedded-graphics/src/display.rs:136
    ).expect("draw blocks fail");
}
  36:	b008      	add	sp, #32
  38:	bd70      	pop	{r4, r5, r6, pc}

Disassembly of section .text._ZN22piet_embedded_graphics7display15draw_to_display17h8f053d084b2d9a5cE:

00000000 <_ZN22piet_embedded_graphics7display15draw_to_display17h8f053d084b2d9a5cE>:
_ZN22piet_embedded_graphics7display15draw_to_display17h8f053d084b2d9a5cE():
/Users/Luppy/PineTime/pinetime-rust-mynewt/rust/piet-embedded/piet-embedded-graphics/src/display.rs:126
pub fn draw_to_display<T>(item: T)
   0:	b510      	push	{r4, lr}
   2:	b088      	sub	sp, #32
   4:	a901      	add	r1, sp, #4
/Users/Luppy/PineTime/pinetime-rust-mynewt/rust/piet-embedded/piet-embedded-graphics/src/display.rs:134
        item
   6:	460a      	mov	r2, r1
   8:	e8b0 5008 	ldmia.w	r0!, {r3, ip, lr}
   c:	e8a2 5008 	stmia.w	r2!, {r3, ip, lr}
  10:	e890 5018 	ldmia.w	r0, {r3, r4, ip, lr}
  14:	e882 5018 	stmia.w	r2, {r3, r4, ip, lr}
/Users/Luppy/PineTime/pinetime-rust-mynewt/rust/piet-embedded/piet-embedded-graphics/src/display.rs:132
    super::batch::draw_blocks(            //  Draw text or graphics the new faster way, as pixel blocks
  18:	f240 0000 	movw	r0, #0
  1c:	f2c0 0000 	movt	r0, #0
  20:	f7ff fffe 	bl	0 <_ZN22piet_embedded_graphics5batch11draw_blocks17h76e692a8937a783bE>
  24:	9000      	str	r0, [sp, #0]
  26:	e7ff      	b.n	28 <_ZN22piet_embedded_graphics7display15draw_to_display17h8f053d084b2d9a5cE+0x28>
  28:	9800      	ldr	r0, [sp, #0]
  2a:	f000 0001 	and.w	r0, r0, #1
  2e:	f240 0100 	movw	r1, #0
  32:	f2c0 0100 	movt	r1, #0
  36:	2210      	movs	r2, #16
  38:	f7ff fffe 	bl	0 <_ZN4core6result19Result$LT$T$C$E$GT$6expect17hf3746b868183a82aE>
  3c:	e7ff      	b.n	3e <_ZN22piet_embedded_graphics7display15draw_to_display17h8f053d084b2d9a5cE+0x3e>
/Users/Luppy/PineTime/pinetime-rust-mynewt/rust/piet-embedded/piet-embedded-graphics/src/display.rs:136
}
  3e:	b008      	add	sp, #32
  40:	bd10      	pop	{r4, pc}

Disassembly of section .text._ZN22piet_embedded_graphics7display15draw_to_display17hfbbfebae406ebcf9E:

00000000 <_ZN22piet_embedded_graphics7display15draw_to_display17hfbbfebae406ebcf9E>:
_ZN22piet_embedded_graphics7display15draw_to_display17hfbbfebae406ebcf9E():
/Users/Luppy/PineTime/pinetime-rust-mynewt/rust/piet-embedded/piet-embedded-graphics/src/display.rs:126
pub fn draw_to_display<T>(item: T)
   0:	b510      	push	{r4, lr}
   2:	b088      	sub	sp, #32
   4:	a901      	add	r1, sp, #4
/Users/Luppy/PineTime/pinetime-rust-mynewt/rust/piet-embedded/piet-embedded-graphics/src/display.rs:134
        item
   6:	460a      	mov	r2, r1
   8:	e8b0 5008 	ldmia.w	r0!, {r3, ip, lr}
   c:	e8a2 5008 	stmia.w	r2!, {r3, ip, lr}
  10:	e890 5018 	ldmia.w	r0, {r3, r4, ip, lr}
  14:	e882 5018 	stmia.w	r2, {r3, r4, ip, lr}
/Users/Luppy/PineTime/pinetime-rust-mynewt/rust/piet-embedded/piet-embedded-graphics/src/display.rs:132
    super::batch::draw_blocks(            //  Draw text or graphics the new faster way, as pixel blocks
  18:	f240 0000 	movw	r0, #0
  1c:	f2c0 0000 	movt	r0, #0
  20:	f7ff fffe 	bl	0 <_ZN22piet_embedded_graphics5batch11draw_blocks17h5d78b46cb1920384E>
  24:	9000      	str	r0, [sp, #0]
  26:	e7ff      	b.n	28 <_ZN22piet_embedded_graphics7display15draw_to_display17hfbbfebae406ebcf9E+0x28>
  28:	9800      	ldr	r0, [sp, #0]
  2a:	f000 0001 	and.w	r0, r0, #1
  2e:	f240 0100 	movw	r1, #0
  32:	f2c0 0100 	movt	r1, #0
  36:	2210      	movs	r2, #16
  38:	f7ff fffe 	bl	0 <_ZN4core6result19Result$LT$T$C$E$GT$6expect17hf3746b868183a82aE>
  3c:	e7ff      	b.n	3e <_ZN22piet_embedded_graphics7display15draw_to_display17hfbbfebae406ebcf9E+0x3e>
/Users/Luppy/PineTime/pinetime-rust-mynewt/rust/piet-embedded/piet-embedded-graphics/src/display.rs:136
}
  3e:	b008      	add	sp, #32
  40:	bd10      	pop	{r4, pc}

app-d559bf047a1af437.2w2zizcw79hzrabw.rcgu.o:     file format elf32-littlearm

SYMBOL TABLE:
00000000 l    df *ABS*	00000000 2w2zizcw79hzrabw
00000106 l       .debug_str	00000000 
00000000 l       .debug_str	00000000 
00000041 l       .debug_str	00000000 
00000055 l       .debug_str	00000000 
00000080 l       .debug_str	00000000 
00000085 l       .debug_str	00000000 
00000089 l       .debug_str	00000000 
0000010c l       .debug_str	00000000 
00000092 l       .debug_str	00000000 
000000fb l       .debug_str	00000000 
00000100 l       .debug_str	00000000 
00000000 l    d  .text._ZN4core3num65_$LT$impl$u20$core..convert..From$LT$u8$GT$$u20$for$u20$usize$GT$4from17hc1cde53dba4c8d86E	00000000 .text._ZN4core3num65_$LT$impl$u20$core..convert..From$LT$u8$GT$$u20$for$u20$usize$GT$4from17hc1cde53dba4c8d86E
00000000 l    d  .debug_abbrev	00000000 .debug_abbrev
00000000 l    d  .debug_info	00000000 .debug_info
00000000 l    d  .debug_frame	00000000 .debug_frame
00000000 l    d  .debug_line	00000000 .debug_line
00000000 g     F .text._ZN4core3num65_$LT$impl$u20$core..convert..From$LT$u8$GT$$u20$for$u20$usize$GT$4from17hc1cde53dba4c8d86E	00000010 .hidden _ZN4core3num65_$LT$impl$u20$core..convert..From$LT$u8$GT$$u20$for$u20$usize$GT$4from17hc1cde53dba4c8d86E



Disassembly of section .text._ZN4core3num65_$LT$impl$u20$core..convert..From$LT$u8$GT$$u20$for$u20$usize$GT$4from17hc1cde53dba4c8d86E:

00000000 <_ZN4core3num65_$LT$impl$u20$core..convert..From$LT$u8$GT$$u20$for$u20$usize$GT$4from17hc1cde53dba4c8d86E>:
_ZN4core3num65_$LT$impl$u20$core..convert..From$LT$u8$GT$$u20$for$u20$usize$GT$4from17hc1cde53dba4c8d86E():
/rustc/412f43ac5b4ae8c3599e71c6972112e9be4758fa/src/libcore/num/mod.rs:5123
   0:	b081      	sub	sp, #4
   2:	4601      	mov	r1, r0
   4:	f88d 0003 	strb.w	r0, [sp, #3]
/rustc/412f43ac5b4ae8c3599e71c6972112e9be4758fa/src/libcore/num/mod.rs:5124
   8:	f89d 0003 	ldrb.w	r0, [sp, #3]
/rustc/412f43ac5b4ae8c3599e71c6972112e9be4758fa/src/libcore/num/mod.rs:5125
   c:	b001      	add	sp, #4
   e:	4770      	bx	lr

app-d559bf047a1af437.39ck45ax7pi2diy2.rcgu.o:     file format elf32-littlearm

SYMBOL TABLE:
00000000 l    df *ABS*	00000000 39ck45ax7pi2diy2
00000ead l       .debug_str	00000000 
00000902 l       .debug_str	00000000 
000009fb l       .debug_str	00000000 
00000aeb l       .debug_str	00000000 
00000bfe l       .debug_str	00000000 
00000d1e l       .debug_str	00000000 
00000e35 l       .debug_str	00000000 
00000fee l       .debug_str	00000000 
00000ff4 l       .debug_str	00000000 
0000106c l       .debug_str	00000000 
000010c3 l       .debug_str	00000000 
0000113b l       .debug_str	00000000 
000011e0 l       .debug_str	00000000 
00001258 l       .debug_str	00000000 
0000134b l       .debug_str	00000000 
000013c3 l       .debug_str	00000000 
000014dd l       .debug_str	00000000 
00001555 l       .debug_str	00000000 
00001621 l       .debug_str	00000000 
00001699 l       .debug_str	00000000 
00000000 l       .debug_str	00000000 
00000041 l       .debug_str	00000000 
00000055 l       .debug_str	00000000 
00000080 l       .debug_str	00000000 
00000088 l       .debug_str	00000000 
0000008d l       .debug_str	00000000 
00000096 l       .debug_str	00000000 
0000009e l       .debug_str	00000000 
000000a3 l       .debug_str	00000000 
000000aa l       .debug_str	00000000 
000000ae l       .debug_str	00000000 
000000b4 l       .debug_str	00000000 
000000b8 l       .debug_str	00000000 
000000bc l       .debug_str	00000000 
000000bf l       .debug_str	00000000 
000000e8 l       .debug_str	00000000 
000000ea l       .debug_str	00000000 
00000120 l       .debug_str	00000000 
00000122 l       .debug_str	00000000 
00000124 l       .debug_str	00000000 
00000151 l       .debug_str	00000000 
000001a1 l       .debug_str	00000000 
000001fe l       .debug_str	00000000 
00000252 l       .debug_str	00000000 
00000255 l       .debug_str	00000000 
000002cc l       .debug_str	00000000 
00000350 l       .debug_str	00000000 
000003cb l       .debug_str	00000000 
00000469 l       .debug_str	00000000 
00000514 l       .debug_str	00000000 
000005b6 l       .debug_str	00000000 
0000067b l       .debug_str	00000000 
0000074d l       .debug_str	00000000 
00000816 l       .debug_str	00000000 
00000000 l    d  .text._ZN85_$LT$typenum..uint..UInt$LT$U$C$B$GT$$u20$as$u20$typenum..marker_traits..Unsigned$GT$8to_usize17h28bf06d25ecb0985E	00000000 .text._ZN85_$LT$typenum..uint..UInt$LT$U$C$B$GT$$u20$as$u20$typenum..marker_traits..Unsigned$GT$8to_usize17h28bf06d25ecb0985E
00000000 l    d  .text._ZN85_$LT$typenum..uint..UInt$LT$U$C$B$GT$$u20$as$u20$typenum..marker_traits..Unsigned$GT$8to_usize17h50efb3db0ca8444aE	00000000 .text._ZN85_$LT$typenum..uint..UInt$LT$U$C$B$GT$$u20$as$u20$typenum..marker_traits..Unsigned$GT$8to_usize17h50efb3db0ca8444aE
00000000 l    d  .text._ZN85_$LT$typenum..uint..UInt$LT$U$C$B$GT$$u20$as$u20$typenum..marker_traits..Unsigned$GT$8to_usize17h7caa7849374e3bc0E	00000000 .text._ZN85_$LT$typenum..uint..UInt$LT$U$C$B$GT$$u20$as$u20$typenum..marker_traits..Unsigned$GT$8to_usize17h7caa7849374e3bc0E
00000000 l    d  .text._ZN85_$LT$typenum..uint..UInt$LT$U$C$B$GT$$u20$as$u20$typenum..marker_traits..Unsigned$GT$8to_usize17hcf3565d543091b90E	00000000 .text._ZN85_$LT$typenum..uint..UInt$LT$U$C$B$GT$$u20$as$u20$typenum..marker_traits..Unsigned$GT$8to_usize17hcf3565d543091b90E
00000000 l    d  .text._ZN85_$LT$typenum..uint..UInt$LT$U$C$B$GT$$u20$as$u20$typenum..marker_traits..Unsigned$GT$8to_usize17he82ef61bf1a4ba28E	00000000 .text._ZN85_$LT$typenum..uint..UInt$LT$U$C$B$GT$$u20$as$u20$typenum..marker_traits..Unsigned$GT$8to_usize17he82ef61bf1a4ba28E
00000000 l    d  .text._ZN85_$LT$typenum..uint..UInt$LT$U$C$B$GT$$u20$as$u20$typenum..marker_traits..Unsigned$GT$8to_usize17hf416accb1e35b3cdE	00000000 .text._ZN85_$LT$typenum..uint..UInt$LT$U$C$B$GT$$u20$as$u20$typenum..marker_traits..Unsigned$GT$8to_usize17hf416accb1e35b3cdE
00000000 l    d  .text._ZN85_$LT$typenum..uint..UInt$LT$U$C$B$GT$$u20$as$u20$typenum..marker_traits..Unsigned$GT$8to_usize17hfdf255d293ee268cE	00000000 .text._ZN85_$LT$typenum..uint..UInt$LT$U$C$B$GT$$u20$as$u20$typenum..marker_traits..Unsigned$GT$8to_usize17hfdf255d293ee268cE
00000000 l    d  .debug_abbrev	00000000 .debug_abbrev
00000000 l    d  .debug_info	00000000 .debug_info
00000000 l    d  .debug_ranges	00000000 .debug_ranges
00000000 l    d  .debug_frame	00000000 .debug_frame
00000000 l    d  .debug_line	00000000 .debug_line
00000000         *UND*	00000000 .hidden _ZN4core3num65_$LT$impl$u20$core..convert..From$LT$u8$GT$$u20$for$u20$usize$GT$4from17hc1cde53dba4c8d86E
00000000         *UND*	00000000 .hidden _ZN64_$LT$typenum..bit..B0$u20$as$u20$typenum..marker_traits..Bit$GT$5to_u817hdd54f55e60c55433E
00000000         *UND*	00000000 .hidden _ZN64_$LT$typenum..bit..B1$u20$as$u20$typenum..marker_traits..Bit$GT$5to_u817h6523a6b2bba0f415E
00000000 g     F .text._ZN85_$LT$typenum..uint..UInt$LT$U$C$B$GT$$u20$as$u20$typenum..marker_traits..Unsigned$GT$8to_usize17h28bf06d25ecb0985E	00000030 _ZN85_$LT$typenum..uint..UInt$LT$U$C$B$GT$$u20$as$u20$typenum..marker_traits..Unsigned$GT$8to_usize17h28bf06d25ecb0985E
00000000 g     F .text._ZN85_$LT$typenum..uint..UInt$LT$U$C$B$GT$$u20$as$u20$typenum..marker_traits..Unsigned$GT$8to_usize17h50efb3db0ca8444aE	00000030 _ZN85_$LT$typenum..uint..UInt$LT$U$C$B$GT$$u20$as$u20$typenum..marker_traits..Unsigned$GT$8to_usize17h50efb3db0ca8444aE
00000000         *UND*	00000000 _ZN85_$LT$typenum..uint..UInt$LT$U$C$B$GT$$u20$as$u20$typenum..marker_traits..Unsigned$GT$8to_usize17h59c68b0fa8e474b8E
00000000 g     F .text._ZN85_$LT$typenum..uint..UInt$LT$U$C$B$GT$$u20$as$u20$typenum..marker_traits..Unsigned$GT$8to_usize17h7caa7849374e3bc0E	00000030 _ZN85_$LT$typenum..uint..UInt$LT$U$C$B$GT$$u20$as$u20$typenum..marker_traits..Unsigned$GT$8to_usize17h7caa7849374e3bc0E
00000000 g     F .text._ZN85_$LT$typenum..uint..UInt$LT$U$C$B$GT$$u20$as$u20$typenum..marker_traits..Unsigned$GT$8to_usize17hcf3565d543091b90E	00000030 _ZN85_$LT$typenum..uint..UInt$LT$U$C$B$GT$$u20$as$u20$typenum..marker_traits..Unsigned$GT$8to_usize17hcf3565d543091b90E
00000000 g     F .text._ZN85_$LT$typenum..uint..UInt$LT$U$C$B$GT$$u20$as$u20$typenum..marker_traits..Unsigned$GT$8to_usize17he82ef61bf1a4ba28E	00000030 _ZN85_$LT$typenum..uint..UInt$LT$U$C$B$GT$$u20$as$u20$typenum..marker_traits..Unsigned$GT$8to_usize17he82ef61bf1a4ba28E
00000000 g     F .text._ZN85_$LT$typenum..uint..UInt$LT$U$C$B$GT$$u20$as$u20$typenum..marker_traits..Unsigned$GT$8to_usize17hf416accb1e35b3cdE	00000030 _ZN85_$LT$typenum..uint..UInt$LT$U$C$B$GT$$u20$as$u20$typenum..marker_traits..Unsigned$GT$8to_usize17hf416accb1e35b3cdE
00000000 g     F .text._ZN85_$LT$typenum..uint..UInt$LT$U$C$B$GT$$u20$as$u20$typenum..marker_traits..Unsigned$GT$8to_usize17hfdf255d293ee268cE	00000030 _ZN85_$LT$typenum..uint..UInt$LT$U$C$B$GT$$u20$as$u20$typenum..marker_traits..Unsigned$GT$8to_usize17hfdf255d293ee268cE



Disassembly of section .text._ZN85_$LT$typenum..uint..UInt$LT$U$C$B$GT$$u20$as$u20$typenum..marker_traits..Unsigned$GT$8to_usize17h28bf06d25ecb0985E:

00000000 <_ZN85_$LT$typenum..uint..UInt$LT$U$C$B$GT$$u20$as$u20$typenum..marker_traits..Unsigned$GT$8to_usize17h28bf06d25ecb0985E>:
_ZN85_$LT$typenum..uint..UInt$LT$U$C$B$GT$$u20$as$u20$typenum..marker_traits..Unsigned$GT$8to_usize17h28bf06d25ecb0985E():
/Users/Luppy/.cargo/registry/src/github.com-1ecc6299db9ec823/typenum-1.11.2/src/uint.rs:204
    #[inline]
    fn to_u128() -> u128 {
        u128::from(B::to_u8()) | U::to_u128() << 1
    }
    #[inline]
    fn to_usize() -> usize {
   0:	b580      	push	{r7, lr}
   2:	b084      	sub	sp, #16
/Users/Luppy/.cargo/registry/src/github.com-1ecc6299db9ec823/typenum-1.11.2/src/uint.rs:205
        usize::from(B::to_u8()) | U::to_usize() << 1
   4:	f7ff fffe 	bl	0 <_ZN64_$LT$typenum..bit..B0$u20$as$u20$typenum..marker_traits..Bit$GT$5to_u817hdd54f55e60c55433E>
   8:	9003      	str	r0, [sp, #12]
   a:	e7ff      	b.n	c <_ZN85_$LT$typenum..uint..UInt$LT$U$C$B$GT$$u20$as$u20$typenum..marker_traits..Unsigned$GT$8to_usize17h28bf06d25ecb0985E+0xc>
   c:	9803      	ldr	r0, [sp, #12]
   e:	f7ff fffe 	bl	0 <_ZN4core3num65_$LT$impl$u20$core..convert..From$LT$u8$GT$$u20$for$u20$usize$GT$4from17hc1cde53dba4c8d86E>
  12:	9002      	str	r0, [sp, #8]
  14:	e7ff      	b.n	16 <_ZN85_$LT$typenum..uint..UInt$LT$U$C$B$GT$$u20$as$u20$typenum..marker_traits..Unsigned$GT$8to_usize17h28bf06d25ecb0985E+0x16>
  16:	f7ff fffe 	bl	0 <_ZN85_$LT$typenum..uint..UInt$LT$U$C$B$GT$$u20$as$u20$typenum..marker_traits..Unsigned$GT$8to_usize17h28bf06d25ecb0985E>
  1a:	9001      	str	r0, [sp, #4]
  1c:	e7ff      	b.n	1e <_ZN85_$LT$typenum..uint..UInt$LT$U$C$B$GT$$u20$as$u20$typenum..marker_traits..Unsigned$GT$8to_usize17h28bf06d25ecb0985E+0x1e>
  1e:	9801      	ldr	r0, [sp, #4]
  20:	0041      	lsls	r1, r0, #1
  22:	9100      	str	r1, [sp, #0]
  24:	e7ff      	b.n	26 <_ZN85_$LT$typenum..uint..UInt$LT$U$C$B$GT$$u20$as$u20$typenum..marker_traits..Unsigned$GT$8to_usize17h28bf06d25ecb0985E+0x26>
  26:	9802      	ldr	r0, [sp, #8]
  28:	9900      	ldr	r1, [sp, #0]
  2a:	4308      	orrs	r0, r1
/Users/Luppy/.cargo/registry/src/github.com-1ecc6299db9ec823/typenum-1.11.2/src/uint.rs:206
    }
  2c:	b004      	add	sp, #16
  2e:	bd80      	pop	{r7, pc}

Disassembly of section .text._ZN85_$LT$typenum..uint..UInt$LT$U$C$B$GT$$u20$as$u20$typenum..marker_traits..Unsigned$GT$8to_usize17h50efb3db0ca8444aE:

00000000 <_ZN85_$LT$typenum..uint..UInt$LT$U$C$B$GT$$u20$as$u20$typenum..marker_traits..Unsigned$GT$8to_usize17h50efb3db0ca8444aE>:
_ZN85_$LT$typenum..uint..UInt$LT$U$C$B$GT$$u20$as$u20$typenum..marker_traits..Unsigned$GT$8to_usize17h50efb3db0ca8444aE():
/Users/Luppy/.cargo/registry/src/github.com-1ecc6299db9ec823/typenum-1.11.2/src/uint.rs:204
    fn to_usize() -> usize {
   0:	b580      	push	{r7, lr}
   2:	b084      	sub	sp, #16
/Users/Luppy/.cargo/registry/src/github.com-1ecc6299db9ec823/typenum-1.11.2/src/uint.rs:205
        usize::from(B::to_u8()) | U::to_usize() << 1
   4:	f7ff fffe 	bl	0 <_ZN64_$LT$typenum..bit..B1$u20$as$u20$typenum..marker_traits..Bit$GT$5to_u817h6523a6b2bba0f415E>
   8:	9003      	str	r0, [sp, #12]
   a:	e7ff      	b.n	c <_ZN85_$LT$typenum..uint..UInt$LT$U$C$B$GT$$u20$as$u20$typenum..marker_traits..Unsigned$GT$8to_usize17h50efb3db0ca8444aE+0xc>
   c:	9803      	ldr	r0, [sp, #12]
   e:	f7ff fffe 	bl	0 <_ZN4core3num65_$LT$impl$u20$core..convert..From$LT$u8$GT$$u20$for$u20$usize$GT$4from17hc1cde53dba4c8d86E>
  12:	9002      	str	r0, [sp, #8]
  14:	e7ff      	b.n	16 <_ZN85_$LT$typenum..uint..UInt$LT$U$C$B$GT$$u20$as$u20$typenum..marker_traits..Unsigned$GT$8to_usize17h50efb3db0ca8444aE+0x16>
  16:	f7ff fffe 	bl	0 <_ZN85_$LT$typenum..uint..UInt$LT$U$C$B$GT$$u20$as$u20$typenum..marker_traits..Unsigned$GT$8to_usize17h59c68b0fa8e474b8E>
  1a:	9001      	str	r0, [sp, #4]
  1c:	e7ff      	b.n	1e <_ZN85_$LT$typenum..uint..UInt$LT$U$C$B$GT$$u20$as$u20$typenum..marker_traits..Unsigned$GT$8to_usize17h50efb3db0ca8444aE+0x1e>
  1e:	9801      	ldr	r0, [sp, #4]
  20:	0041      	lsls	r1, r0, #1
  22:	9100      	str	r1, [sp, #0]
  24:	e7ff      	b.n	26 <_ZN85_$LT$typenum..uint..UInt$LT$U$C$B$GT$$u20$as$u20$typenum..marker_traits..Unsigned$GT$8to_usize17h50efb3db0ca8444aE+0x26>
  26:	9802      	ldr	r0, [sp, #8]
  28:	9900      	ldr	r1, [sp, #0]
  2a:	4308      	orrs	r0, r1
/Users/Luppy/.cargo/registry/src/github.com-1ecc6299db9ec823/typenum-1.11.2/src/uint.rs:206
    }
  2c:	b004      	add	sp, #16
  2e:	bd80      	pop	{r7, pc}

Disassembly of section .text._ZN85_$LT$typenum..uint..UInt$LT$U$C$B$GT$$u20$as$u20$typenum..marker_traits..Unsigned$GT$8to_usize17h7caa7849374e3bc0E:

00000000 <_ZN85_$LT$typenum..uint..UInt$LT$U$C$B$GT$$u20$as$u20$typenum..marker_traits..Unsigned$GT$8to_usize17h7caa7849374e3bc0E>:
_ZN85_$LT$typenum..uint..UInt$LT$U$C$B$GT$$u20$as$u20$typenum..marker_traits..Unsigned$GT$8to_usize17h7caa7849374e3bc0E():
/Users/Luppy/.cargo/registry/src/github.com-1ecc6299db9ec823/typenum-1.11.2/src/uint.rs:204
    fn to_usize() -> usize {
   0:	b580      	push	{r7, lr}
   2:	b084      	sub	sp, #16
/Users/Luppy/.cargo/registry/src/github.com-1ecc6299db9ec823/typenum-1.11.2/src/uint.rs:205
        usize::from(B::to_u8()) | U::to_usize() << 1
   4:	f7ff fffe 	bl	0 <_ZN64_$LT$typenum..bit..B0$u20$as$u20$typenum..marker_traits..Bit$GT$5to_u817hdd54f55e60c55433E>
   8:	9003      	str	r0, [sp, #12]
   a:	e7ff      	b.n	c <_ZN85_$LT$typenum..uint..UInt$LT$U$C$B$GT$$u20$as$u20$typenum..marker_traits..Unsigned$GT$8to_usize17h7caa7849374e3bc0E+0xc>
   c:	9803      	ldr	r0, [sp, #12]
   e:	f7ff fffe 	bl	0 <_ZN4core3num65_$LT$impl$u20$core..convert..From$LT$u8$GT$$u20$for$u20$usize$GT$4from17hc1cde53dba4c8d86E>
  12:	9002      	str	r0, [sp, #8]
  14:	e7ff      	b.n	16 <_ZN85_$LT$typenum..uint..UInt$LT$U$C$B$GT$$u20$as$u20$typenum..marker_traits..Unsigned$GT$8to_usize17h7caa7849374e3bc0E+0x16>
  16:	f7ff fffe 	bl	0 <_ZN85_$LT$typenum..uint..UInt$LT$U$C$B$GT$$u20$as$u20$typenum..marker_traits..Unsigned$GT$8to_usize17h7caa7849374e3bc0E>
  1a:	9001      	str	r0, [sp, #4]
  1c:	e7ff      	b.n	1e <_ZN85_$LT$typenum..uint..UInt$LT$U$C$B$GT$$u20$as$u20$typenum..marker_traits..Unsigned$GT$8to_usize17h7caa7849374e3bc0E+0x1e>
  1e:	9801      	ldr	r0, [sp, #4]
  20:	0041      	lsls	r1, r0, #1
  22:	9100      	str	r1, [sp, #0]
  24:	e7ff      	b.n	26 <_ZN85_$LT$typenum..uint..UInt$LT$U$C$B$GT$$u20$as$u20$typenum..marker_traits..Unsigned$GT$8to_usize17h7caa7849374e3bc0E+0x26>
  26:	9802      	ldr	r0, [sp, #8]
  28:	9900      	ldr	r1, [sp, #0]
  2a:	4308      	orrs	r0, r1
/Users/Luppy/.cargo/registry/src/github.com-1ecc6299db9ec823/typenum-1.11.2/src/uint.rs:206
    }
  2c:	b004      	add	sp, #16
  2e:	bd80      	pop	{r7, pc}

Disassembly of section .text._ZN85_$LT$typenum..uint..UInt$LT$U$C$B$GT$$u20$as$u20$typenum..marker_traits..Unsigned$GT$8to_usize17hcf3565d543091b90E:

00000000 <_ZN85_$LT$typenum..uint..UInt$LT$U$C$B$GT$$u20$as$u20$typenum..marker_traits..Unsigned$GT$8to_usize17hcf3565d543091b90E>:
_ZN85_$LT$typenum..uint..UInt$LT$U$C$B$GT$$u20$as$u20$typenum..marker_traits..Unsigned$GT$8to_usize17hcf3565d543091b90E():
/Users/Luppy/.cargo/registry/src/github.com-1ecc6299db9ec823/typenum-1.11.2/src/uint.rs:204
    fn to_usize() -> usize {
   0:	b580      	push	{r7, lr}
   2:	b084      	sub	sp, #16
/Users/Luppy/.cargo/registry/src/github.com-1ecc6299db9ec823/typenum-1.11.2/src/uint.rs:205
        usize::from(B::to_u8()) | U::to_usize() << 1
   4:	f7ff fffe 	bl	0 <_ZN64_$LT$typenum..bit..B0$u20$as$u20$typenum..marker_traits..Bit$GT$5to_u817hdd54f55e60c55433E>
   8:	9003      	str	r0, [sp, #12]
   a:	e7ff      	b.n	c <_ZN85_$LT$typenum..uint..UInt$LT$U$C$B$GT$$u20$as$u20$typenum..marker_traits..Unsigned$GT$8to_usize17hcf3565d543091b90E+0xc>
   c:	9803      	ldr	r0, [sp, #12]
   e:	f7ff fffe 	bl	0 <_ZN4core3num65_$LT$impl$u20$core..convert..From$LT$u8$GT$$u20$for$u20$usize$GT$4from17hc1cde53dba4c8d86E>
  12:	9002      	str	r0, [sp, #8]
  14:	e7ff      	b.n	16 <_ZN85_$LT$typenum..uint..UInt$LT$U$C$B$GT$$u20$as$u20$typenum..marker_traits..Unsigned$GT$8to_usize17hcf3565d543091b90E+0x16>
  16:	f7ff fffe 	bl	0 <_ZN85_$LT$typenum..uint..UInt$LT$U$C$B$GT$$u20$as$u20$typenum..marker_traits..Unsigned$GT$8to_usize17hcf3565d543091b90E>
  1a:	9001      	str	r0, [sp, #4]
  1c:	e7ff      	b.n	1e <_ZN85_$LT$typenum..uint..UInt$LT$U$C$B$GT$$u20$as$u20$typenum..marker_traits..Unsigned$GT$8to_usize17hcf3565d543091b90E+0x1e>
  1e:	9801      	ldr	r0, [sp, #4]
  20:	0041      	lsls	r1, r0, #1
  22:	9100      	str	r1, [sp, #0]
  24:	e7ff      	b.n	26 <_ZN85_$LT$typenum..uint..UInt$LT$U$C$B$GT$$u20$as$u20$typenum..marker_traits..Unsigned$GT$8to_usize17hcf3565d543091b90E+0x26>
  26:	9802      	ldr	r0, [sp, #8]
  28:	9900      	ldr	r1, [sp, #0]
  2a:	4308      	orrs	r0, r1
/Users/Luppy/.cargo/registry/src/github.com-1ecc6299db9ec823/typenum-1.11.2/src/uint.rs:206
    }
  2c:	b004      	add	sp, #16
  2e:	bd80      	pop	{r7, pc}

Disassembly of section .text._ZN85_$LT$typenum..uint..UInt$LT$U$C$B$GT$$u20$as$u20$typenum..marker_traits..Unsigned$GT$8to_usize17he82ef61bf1a4ba28E:

00000000 <_ZN85_$LT$typenum..uint..UInt$LT$U$C$B$GT$$u20$as$u20$typenum..marker_traits..Unsigned$GT$8to_usize17he82ef61bf1a4ba28E>:
_ZN85_$LT$typenum..uint..UInt$LT$U$C$B$GT$$u20$as$u20$typenum..marker_traits..Unsigned$GT$8to_usize17he82ef61bf1a4ba28E():
/Users/Luppy/.cargo/registry/src/github.com-1ecc6299db9ec823/typenum-1.11.2/src/uint.rs:204
    fn to_usize() -> usize {
   0:	b580      	push	{r7, lr}
   2:	b084      	sub	sp, #16
/Users/Luppy/.cargo/registry/src/github.com-1ecc6299db9ec823/typenum-1.11.2/src/uint.rs:205
        usize::from(B::to_u8()) | U::to_usize() << 1
   4:	f7ff fffe 	bl	0 <_ZN64_$LT$typenum..bit..B0$u20$as$u20$typenum..marker_traits..Bit$GT$5to_u817hdd54f55e60c55433E>
   8:	9003      	str	r0, [sp, #12]
   a:	e7ff      	b.n	c <_ZN85_$LT$typenum..uint..UInt$LT$U$C$B$GT$$u20$as$u20$typenum..marker_traits..Unsigned$GT$8to_usize17he82ef61bf1a4ba28E+0xc>
   c:	9803      	ldr	r0, [sp, #12]
   e:	f7ff fffe 	bl	0 <_ZN4core3num65_$LT$impl$u20$core..convert..From$LT$u8$GT$$u20$for$u20$usize$GT$4from17hc1cde53dba4c8d86E>
  12:	9002      	str	r0, [sp, #8]
  14:	e7ff      	b.n	16 <_ZN85_$LT$typenum..uint..UInt$LT$U$C$B$GT$$u20$as$u20$typenum..marker_traits..Unsigned$GT$8to_usize17he82ef61bf1a4ba28E+0x16>
  16:	f7ff fffe 	bl	0 <_ZN85_$LT$typenum..uint..UInt$LT$U$C$B$GT$$u20$as$u20$typenum..marker_traits..Unsigned$GT$8to_usize17he82ef61bf1a4ba28E>
  1a:	9001      	str	r0, [sp, #4]
  1c:	e7ff      	b.n	1e <_ZN85_$LT$typenum..uint..UInt$LT$U$C$B$GT$$u20$as$u20$typenum..marker_traits..Unsigned$GT$8to_usize17he82ef61bf1a4ba28E+0x1e>
  1e:	9801      	ldr	r0, [sp, #4]
  20:	0041      	lsls	r1, r0, #1
  22:	9100      	str	r1, [sp, #0]
  24:	e7ff      	b.n	26 <_ZN85_$LT$typenum..uint..UInt$LT$U$C$B$GT$$u20$as$u20$typenum..marker_traits..Unsigned$GT$8to_usize17he82ef61bf1a4ba28E+0x26>
  26:	9802      	ldr	r0, [sp, #8]
  28:	9900      	ldr	r1, [sp, #0]
  2a:	4308      	orrs	r0, r1
/Users/Luppy/.cargo/registry/src/github.com-1ecc6299db9ec823/typenum-1.11.2/src/uint.rs:206
    }
  2c:	b004      	add	sp, #16
  2e:	bd80      	pop	{r7, pc}

Disassembly of section .text._ZN85_$LT$typenum..uint..UInt$LT$U$C$B$GT$$u20$as$u20$typenum..marker_traits..Unsigned$GT$8to_usize17hf416accb1e35b3cdE:

00000000 <_ZN85_$LT$typenum..uint..UInt$LT$U$C$B$GT$$u20$as$u20$typenum..marker_traits..Unsigned$GT$8to_usize17hf416accb1e35b3cdE>:
_ZN85_$LT$typenum..uint..UInt$LT$U$C$B$GT$$u20$as$u20$typenum..marker_traits..Unsigned$GT$8to_usize17hf416accb1e35b3cdE():
/Users/Luppy/.cargo/registry/src/github.com-1ecc6299db9ec823/typenum-1.11.2/src/uint.rs:204
    fn to_usize() -> usize {
   0:	b580      	push	{r7, lr}
   2:	b084      	sub	sp, #16
/Users/Luppy/.cargo/registry/src/github.com-1ecc6299db9ec823/typenum-1.11.2/src/uint.rs:205
        usize::from(B::to_u8()) | U::to_usize() << 1
   4:	f7ff fffe 	bl	0 <_ZN64_$LT$typenum..bit..B1$u20$as$u20$typenum..marker_traits..Bit$GT$5to_u817h6523a6b2bba0f415E>
   8:	9003      	str	r0, [sp, #12]
   a:	e7ff      	b.n	c <_ZN85_$LT$typenum..uint..UInt$LT$U$C$B$GT$$u20$as$u20$typenum..marker_traits..Unsigned$GT$8to_usize17hf416accb1e35b3cdE+0xc>
   c:	9803      	ldr	r0, [sp, #12]
   e:	f7ff fffe 	bl	0 <_ZN4core3num65_$LT$impl$u20$core..convert..From$LT$u8$GT$$u20$for$u20$usize$GT$4from17hc1cde53dba4c8d86E>
  12:	9002      	str	r0, [sp, #8]
  14:	e7ff      	b.n	16 <_ZN85_$LT$typenum..uint..UInt$LT$U$C$B$GT$$u20$as$u20$typenum..marker_traits..Unsigned$GT$8to_usize17hf416accb1e35b3cdE+0x16>
  16:	f7ff fffe 	bl	0 <_ZN85_$LT$typenum..uint..UInt$LT$U$C$B$GT$$u20$as$u20$typenum..marker_traits..Unsigned$GT$8to_usize17hf416accb1e35b3cdE>
  1a:	9001      	str	r0, [sp, #4]
  1c:	e7ff      	b.n	1e <_ZN85_$LT$typenum..uint..UInt$LT$U$C$B$GT$$u20$as$u20$typenum..marker_traits..Unsigned$GT$8to_usize17hf416accb1e35b3cdE+0x1e>
  1e:	9801      	ldr	r0, [sp, #4]
  20:	0041      	lsls	r1, r0, #1
  22:	9100      	str	r1, [sp, #0]
  24:	e7ff      	b.n	26 <_ZN85_$LT$typenum..uint..UInt$LT$U$C$B$GT$$u20$as$u20$typenum..marker_traits..Unsigned$GT$8to_usize17hf416accb1e35b3cdE+0x26>
  26:	9802      	ldr	r0, [sp, #8]
  28:	9900      	ldr	r1, [sp, #0]
  2a:	4308      	orrs	r0, r1
/Users/Luppy/.cargo/registry/src/github.com-1ecc6299db9ec823/typenum-1.11.2/src/uint.rs:206
    }
  2c:	b004      	add	sp, #16
  2e:	bd80      	pop	{r7, pc}

Disassembly of section .text._ZN85_$LT$typenum..uint..UInt$LT$U$C$B$GT$$u20$as$u20$typenum..marker_traits..Unsigned$GT$8to_usize17hfdf255d293ee268cE:

00000000 <_ZN85_$LT$typenum..uint..UInt$LT$U$C$B$GT$$u20$as$u20$typenum..marker_traits..Unsigned$GT$8to_usize17hfdf255d293ee268cE>:
_ZN85_$LT$typenum..uint..UInt$LT$U$C$B$GT$$u20$as$u20$typenum..marker_traits..Unsigned$GT$8to_usize17hfdf255d293ee268cE():
/Users/Luppy/.cargo/registry/src/github.com-1ecc6299db9ec823/typenum-1.11.2/src/uint.rs:204
    fn to_usize() -> usize {
   0:	b580      	push	{r7, lr}
   2:	b084      	sub	sp, #16
/Users/Luppy/.cargo/registry/src/github.com-1ecc6299db9ec823/typenum-1.11.2/src/uint.rs:205
        usize::from(B::to_u8()) | U::to_usize() << 1
   4:	f7ff fffe 	bl	0 <_ZN64_$LT$typenum..bit..B0$u20$as$u20$typenum..marker_traits..Bit$GT$5to_u817hdd54f55e60c55433E>
   8:	9003      	str	r0, [sp, #12]
   a:	e7ff      	b.n	c <_ZN85_$LT$typenum..uint..UInt$LT$U$C$B$GT$$u20$as$u20$typenum..marker_traits..Unsigned$GT$8to_usize17hfdf255d293ee268cE+0xc>
   c:	9803      	ldr	r0, [sp, #12]
   e:	f7ff fffe 	bl	0 <_ZN4core3num65_$LT$impl$u20$core..convert..From$LT$u8$GT$$u20$for$u20$usize$GT$4from17hc1cde53dba4c8d86E>
  12:	9002      	str	r0, [sp, #8]
  14:	e7ff      	b.n	16 <_ZN85_$LT$typenum..uint..UInt$LT$U$C$B$GT$$u20$as$u20$typenum..marker_traits..Unsigned$GT$8to_usize17hfdf255d293ee268cE+0x16>
  16:	f7ff fffe 	bl	0 <_ZN85_$LT$typenum..uint..UInt$LT$U$C$B$GT$$u20$as$u20$typenum..marker_traits..Unsigned$GT$8to_usize17hfdf255d293ee268cE>
  1a:	9001      	str	r0, [sp, #4]
  1c:	e7ff      	b.n	1e <_ZN85_$LT$typenum..uint..UInt$LT$U$C$B$GT$$u20$as$u20$typenum..marker_traits..Unsigned$GT$8to_usize17hfdf255d293ee268cE+0x1e>
  1e:	9801      	ldr	r0, [sp, #4]
  20:	0041      	lsls	r1, r0, #1
  22:	9100      	str	r1, [sp, #0]
  24:	e7ff      	b.n	26 <_ZN85_$LT$typenum..uint..UInt$LT$U$C$B$GT$$u20$as$u20$typenum..marker_traits..Unsigned$GT$8to_usize17hfdf255d293ee268cE+0x26>
  26:	9802      	ldr	r0, [sp, #8]
  28:	9900      	ldr	r1, [sp, #0]
  2a:	4308      	orrs	r0, r1
/Users/Luppy/.cargo/registry/src/github.com-1ecc6299db9ec823/typenum-1.11.2/src/uint.rs:206
    }
  2c:	b004      	add	sp, #16
  2e:	bd80      	pop	{r7, pc}

app-d559bf047a1af437.3ecelzj3s01iuwaz.rcgu.o:     file format elf32-littlearm

SYMBOL TABLE:
00000000 l    df *ABS*	00000000 3ecelzj3s01iuwaz
000009a7 l       .debug_str	00000000 
0000091e l       .debug_str	00000000 
00000929 l       .debug_str	00000000 
00000930 l       .debug_str	00000000 
00000936 l       .debug_str	00000000 
0000093a l       .debug_str	00000000 
0000093e l       .debug_str	00000000 
00000946 l       .debug_str	00000000 
0000095d l       .debug_str	00000000 
00000981 l       .debug_str	00000000 
0000099d l       .debug_str	00000000 
000009c1 l       .debug_str	00000000 
00000a1f l       .debug_str	00000000 
00000a2a l       .debug_str	00000000 
00000a47 l       .debug_str	00000000 
00000a60 l       .debug_str	00000000 
00000a6a l       .debug_str	00000000 
00000a80 l       .debug_str	00000000 
00000a84 l       .debug_str	00000000 
00000a8a l       .debug_str	00000000 
00000a94 l       .debug_str	00000000 
00000a9f l       .debug_str	00000000 
00000aa8 l       .debug_str	00000000 
00000ab3 l       .debug_str	00000000 
00000abf l       .debug_str	00000000 
00000ac8 l       .debug_str	00000000 
00000acf l       .debug_str	00000000 
00000ad7 l       .debug_str	00000000 
00000adf l       .debug_str	00000000 
00000ae9 l       .debug_str	00000000 
00000aef l       .debug_str	00000000 
00000af6 l       .debug_str	00000000 
00000afd l       .debug_str	00000000 
00000b2a l       .debug_str	00000000 
00000b5f l       .debug_str	00000000 
00000b65 l       .debug_str	00000000 
00000b6b l       .debug_str	00000000 
00000b7a l       .debug_str	00000000 
00000b8a l       .debug_str	00000000 
00000b9a l       .debug_str	00000000 
00000ba2 l       .debug_str	00000000 
00000bcb l       .debug_str	00000000 
00000c29 l       .debug_str	00000000 
00000c8f l       .debug_str	00000000 
00000c96 l       .debug_str	00000000 
00000c9e l       .debug_str	00000000 
00000ca7 l       .debug_str	00000000 
00000cc5 l       .debug_str	00000000 
00000cd5 l       .debug_str	00000000 
00000ce3 l       .debug_str	00000000 
00000cee l       .debug_str	00000000 
00000cfb l       .debug_str	00000000 
00000d0a l       .debug_str	00000000 
00000d20 l       .debug_str	00000000 
00000d2a l       .debug_str	00000000 
00000d33 l       .debug_str	00000000 
00000d3c l       .debug_str	00000000 
00000d62 l       .debug_str	00000000 
00000d78 l       .debug_str	00000000 
00000d83 l       .debug_str	00000000 
00000d99 l       .debug_str	00000000 
00000da1 l       .debug_str	00000000 
00000dc2 l       .debug_str	00000000 
00000dcb l       .debug_str	00000000 
00000dd4 l       .debug_str	00000000 
00000ddf l       .debug_str	00000000 
00000de9 l       .debug_str	00000000 
00000e10 l       .debug_str	00000000 
00000e28 l       .debug_str	00000000 
00000e32 l       .debug_str	00000000 
00000e55 l       .debug_str	00000000 
00000e5c l       .debug_str	00000000 
00000e61 l       .debug_str	00000000 
00000e88 l       .debug_str	00000000 
00000e8d l       .debug_str	00000000 
00000e93 l       .debug_str	00000000 
00000e99 l       .debug_str	00000000 
00000e9d l       .debug_str	00000000 
00000eaa l       .debug_str	00000000 
00000eb1 l       .debug_str	00000000 
00000eb5 l       .debug_str	00000000 
00000eb7 l       .debug_str	00000000 
00000ebf l       .debug_str	00000000 
00000ec6 l       .debug_str	00000000 
00000ecc l       .debug_str	00000000 
00000ed3 l       .debug_str	00000000 
00000ed9 l       .debug_str	00000000 
00000ede l       .debug_str	00000000 
00000eed l       .debug_str	00000000 
00000efb l       .debug_str	00000000 
00000f05 l       .debug_str	00000000 
00000f0a l       .debug_str	00000000 
00000000 l       .debug_str	00000000 
00000041 l       .debug_str	00000000 
00000055 l       .debug_str	00000000 
00000080 l       .debug_str	00000000 
00000084 l       .debug_str	00000000 
00000091 l       .debug_str	00000000 
0000009d l       .debug_str	00000000 
000000a4 l       .debug_str	00000000 
000000a8 l       .debug_str	00000000 
000000ac l       .debug_str	00000000 
000000b0 l       .debug_str	00000000 
000000b5 l       .debug_str	00000000 
000000ec l       .debug_str	00000000 
000000f8 l       .debug_str	00000000 
000000fe l       .debug_str	00000000 
00000135 l       .debug_str	00000000 
00000140 l       .debug_str	00000000 
00000148 l       .debug_str	00000000 
0000014a l       .debug_str	00000000 
0000014e l       .debug_str	00000000 
00000150 l       .debug_str	00000000 
00000157 l       .debug_str	00000000 
0000015a l       .debug_str	00000000 
00000161 l       .debug_str	00000000 
0000016a l       .debug_str	00000000 
0000016f l       .debug_str	00000000 
00000179 l       .debug_str	00000000 
0000018d l       .debug_str	00000000 
00000193 l       .debug_str	00000000 
0000019d l       .debug_str	00000000 
000001ac l       .debug_str	00000000 
000001e2 l       .debug_str	00000000 
000001e6 l       .debug_str	00000000 
00000214 l       .debug_str	00000000 
00000220 l       .debug_str	00000000 
00000227 l       .debug_str	00000000 
0000022a l       .debug_str	00000000 
00000234 l       .debug_str	00000000 
0000023a l       .debug_str	00000000 
0000023f l       .debug_str	00000000 
00000246 l       .debug_str	00000000 
0000024a l       .debug_str	00000000 
0000024f l       .debug_str	00000000 
00000271 l       .debug_str	00000000 
000002a9 l       .debug_str	00000000 
000002ab l       .debug_str	00000000 
000002b0 l       .debug_str	00000000 
000002b4 l       .debug_str	00000000 
000002f4 l       .debug_str	00000000 
000002fb l       .debug_str	00000000 
000002ff l       .debug_str	00000000 
0000030a l       .debug_str	00000000 
00000315 l       .debug_str	00000000 
0000031c l       .debug_str	00000000 
00000333 l       .debug_str	00000000 
0000033b l       .debug_str	00000000 
00000345 l       .debug_str	00000000 
0000035c l       .debug_str	00000000 
00000365 l       .debug_str	00000000 
0000039c l       .debug_str	00000000 
000003a5 l       .debug_str	00000000 
000003a8 l       .debug_str	00000000 
000003b0 l       .debug_str	00000000 
000003b4 l       .debug_str	00000000 
000003bb l       .debug_str	00000000 
000003c3 l       .debug_str	00000000 
000003d7 l       .debug_str	00000000 
0000040a l       .debug_str	00000000 
00000415 l       .debug_str	00000000 
0000044b l       .debug_str	00000000 
00000452 l       .debug_str	00000000 
0000045a l       .debug_str	00000000 
00000465 l       .debug_str	00000000 
00000470 l       .debug_str	00000000 
0000047d l       .debug_str	00000000 
00000488 l       .debug_str	00000000 
00000490 l       .debug_str	00000000 
0000049b l       .debug_str	00000000 
000004a6 l       .debug_str	00000000 
000004b0 l       .debug_str	00000000 
000004bb l       .debug_str	00000000 
000004c6 l       .debug_str	00000000 
000004d3 l       .debug_str	00000000 
000004df l       .debug_str	00000000 
000004ec l       .debug_str	00000000 
000004fa l       .debug_str	00000000 
00000504 l       .debug_str	00000000 
00000511 l       .debug_str	00000000 
0000051d l       .debug_str	00000000 
00000521 l       .debug_str	00000000 
00000524 l       .debug_str	00000000 
00000527 l       .debug_str	00000000 
0000052c l       .debug_str	00000000 
00000532 l       .debug_str	00000000 
00000539 l       .debug_str	00000000 
00000541 l       .debug_str	00000000 
0000054b l       .debug_str	00000000 
0000054e l       .debug_str	00000000 
00000552 l       .debug_str	00000000 
00000559 l       .debug_str	00000000 
00000597 l       .debug_str	00000000 
000005aa l       .debug_str	00000000 
000005ad l       .debug_str	00000000 
000005af l       .debug_str	00000000 
000005d7 l       .debug_str	00000000 
0000061a l       .debug_str	00000000 
00000632 l       .debug_str	00000000 
00000672 l       .debug_str	00000000 
00000687 l       .debug_str	00000000 
000006c1 l       .debug_str	00000000 
000006d0 l       .debug_str	00000000 
0000070f l       .debug_str	00000000 
00000723 l       .debug_str	00000000 
00000727 l       .debug_str	00000000 
0000072a l       .debug_str	00000000 
00000733 l       .debug_str	00000000 
00000738 l       .debug_str	00000000 
00000742 l       .debug_str	00000000 
00000747 l       .debug_str	00000000 
0000074d l       .debug_str	00000000 
00000752 l       .debug_str	00000000 
00000757 l       .debug_str	00000000 
0000075e l       .debug_str	00000000 
00000767 l       .debug_str	00000000 
00000771 l       .debug_str	00000000 
00000778 l       .debug_str	00000000 
0000077e l       .debug_str	00000000 
00000783 l       .debug_str	00000000 
0000078f l       .debug_str	00000000 
00000797 l       .debug_str	00000000 
000007a0 l       .debug_str	00000000 
000007a5 l       .debug_str	00000000 
000007a8 l       .debug_str	00000000 
000007b1 l       .debug_str	00000000 
000007b8 l       .debug_str	00000000 
000007bd l       .debug_str	00000000 
000007c2 l       .debug_str	00000000 
000007c8 l       .debug_str	00000000 
000007ce l       .debug_str	00000000 
000007d8 l       .debug_str	00000000 
000007db l       .debug_str	00000000 
000007e1 l       .debug_str	00000000 
000007eb l       .debug_str	00000000 
000007f3 l       .debug_str	00000000 
000007f9 l       .debug_str	00000000 
000007ff l       .debug_str	00000000 
0000080a l       .debug_str	00000000 
00000813 l       .debug_str	00000000 
00000836 l       .debug_str	00000000 
00000855 l       .debug_str	00000000 
0000087c l       .debug_str	00000000 
00000881 l       .debug_str	00000000 
00000887 l       .debug_str	00000000 
0000088d l       .debug_str	00000000 
0000089c l       .debug_str	00000000 
000008a3 l       .debug_str	00000000 
000008a7 l       .debug_str	00000000 
000008b0 l       .debug_str	00000000 
000008b8 l       .debug_str	00000000 
000008bf l       .debug_str	00000000 
000008cb l       .debug_str	00000000 
000008d7 l       .debug_str	00000000 
000008f0 l       .debug_str	00000000 
000008f5 l       .debug_str	00000000 
00000906 l       .debug_str	00000000 
00000910 l       .debug_str	00000000 
00000000 l     O .rodata..Lanon.14c7aff04d274c5a5d29763fdbf7dbd1.0	00000012 .Lanon.14c7aff04d274c5a5d29763fdbf7dbd1.0
00000000 l     O .rodata.cst4	00000004 .Lanon.14c7aff04d274c5a5d29763fdbf7dbd1.1
00000000 l     O .rodata.cst8	00000008 .Lanon.14c7aff04d274c5a5d29763fdbf7dbd1.10
00000000 l     O .rodata..Lanon.14c7aff04d274c5a5d29763fdbf7dbd1.11	0000000e .Lanon.14c7aff04d274c5a5d29763fdbf7dbd1.11
00000000 l     O .rodata..Lanon.14c7aff04d274c5a5d29763fdbf7dbd1.12	00000013 .Lanon.14c7aff04d274c5a5d29763fdbf7dbd1.12
00000000 l     O .rodata..Lanon.14c7aff04d274c5a5d29763fdbf7dbd1.13	00000010 .Lanon.14c7aff04d274c5a5d29763fdbf7dbd1.13
00000000 l     O .rodata..Lanon.14c7aff04d274c5a5d29763fdbf7dbd1.14	00000010 .Lanon.14c7aff04d274c5a5d29763fdbf7dbd1.14
00000000 l     O .rodata..Lanon.14c7aff04d274c5a5d29763fdbf7dbd1.15	00000010 .Lanon.14c7aff04d274c5a5d29763fdbf7dbd1.15
00000000 l     O .rodata..Lanon.14c7aff04d274c5a5d29763fdbf7dbd1.16	00000010 .Lanon.14c7aff04d274c5a5d29763fdbf7dbd1.16
00000000 l     O .rodata..Lanon.14c7aff04d274c5a5d29763fdbf7dbd1.17	00000010 .Lanon.14c7aff04d274c5a5d29763fdbf7dbd1.17
00000000 l     O .rodata..Lanon.14c7aff04d274c5a5d29763fdbf7dbd1.18	00000010 .Lanon.14c7aff04d274c5a5d29763fdbf7dbd1.18
00000000 l     O .rodata..Lanon.14c7aff04d274c5a5d29763fdbf7dbd1.19	00000010 .Lanon.14c7aff04d274c5a5d29763fdbf7dbd1.19
00000000 l     O .rodata..Lanon.14c7aff04d274c5a5d29763fdbf7dbd1.20	00000010 .Lanon.14c7aff04d274c5a5d29763fdbf7dbd1.20
00000000 l     O .rodata..Lanon.14c7aff04d274c5a5d29763fdbf7dbd1.21	00000010 .Lanon.14c7aff04d274c5a5d29763fdbf7dbd1.21
00000000 l     O .rodata..Lanon.14c7aff04d274c5a5d29763fdbf7dbd1.22	00000010 .Lanon.14c7aff04d274c5a5d29763fdbf7dbd1.22
00000000 l     O .rodata..Lanon.14c7aff04d274c5a5d29763fdbf7dbd1.23	00000010 .Lanon.14c7aff04d274c5a5d29763fdbf7dbd1.23
00000000 l     O .rodata..Lanon.14c7aff04d274c5a5d29763fdbf7dbd1.24	00000010 .Lanon.14c7aff04d274c5a5d29763fdbf7dbd1.24
00000000 l     O .rodata..Lanon.14c7aff04d274c5a5d29763fdbf7dbd1.25	00000010 .Lanon.14c7aff04d274c5a5d29763fdbf7dbd1.25
00000000 l     O .rodata..Lanon.14c7aff04d274c5a5d29763fdbf7dbd1.26	00000010 .Lanon.14c7aff04d274c5a5d29763fdbf7dbd1.26
00000000 l     O .rodata..Lanon.14c7aff04d274c5a5d29763fdbf7dbd1.27	00000010 .Lanon.14c7aff04d274c5a5d29763fdbf7dbd1.27
00000000 l     O .rodata..Lanon.14c7aff04d274c5a5d29763fdbf7dbd1.28	00000010 .Lanon.14c7aff04d274c5a5d29763fdbf7dbd1.28
00000000 l     O .rodata..Lanon.14c7aff04d274c5a5d29763fdbf7dbd1.29	00000010 .Lanon.14c7aff04d274c5a5d29763fdbf7dbd1.29
00000000 l     O .rodata..Lanon.14c7aff04d274c5a5d29763fdbf7dbd1.30	00000010 .Lanon.14c7aff04d274c5a5d29763fdbf7dbd1.30
00000000 l     O .rodata..Lanon.14c7aff04d274c5a5d29763fdbf7dbd1.31	00000010 .Lanon.14c7aff04d274c5a5d29763fdbf7dbd1.31
00000000 l     O .rodata..Lanon.14c7aff04d274c5a5d29763fdbf7dbd1.32	00000010 .Lanon.14c7aff04d274c5a5d29763fdbf7dbd1.32
00000000 l     O .rodata..Lanon.14c7aff04d274c5a5d29763fdbf7dbd1.33	00000010 .Lanon.14c7aff04d274c5a5d29763fdbf7dbd1.33
00000000 l     O .rodata..Lanon.14c7aff04d274c5a5d29763fdbf7dbd1.34	00000010 .Lanon.14c7aff04d274c5a5d29763fdbf7dbd1.34
00000000 l     O .rodata..Lanon.14c7aff04d274c5a5d29763fdbf7dbd1.35	00000010 .Lanon.14c7aff04d274c5a5d29763fdbf7dbd1.35
00000000 l     O .rodata..Lanon.14c7aff04d274c5a5d29763fdbf7dbd1.36	00000010 .Lanon.14c7aff04d274c5a5d29763fdbf7dbd1.36
00000000 l     O .rodata..Lanon.14c7aff04d274c5a5d29763fdbf7dbd1.37	00000010 .Lanon.14c7aff04d274c5a5d29763fdbf7dbd1.37
00000000 l     O .rodata..Lanon.14c7aff04d274c5a5d29763fdbf7dbd1.38	00000010 .Lanon.14c7aff04d274c5a5d29763fdbf7dbd1.38
00000000 l     O .rodata..Lanon.14c7aff04d274c5a5d29763fdbf7dbd1.39	00000010 .Lanon.14c7aff04d274c5a5d29763fdbf7dbd1.39
00000000 l     O .rodata..Lanon.14c7aff04d274c5a5d29763fdbf7dbd1.40	00000010 .Lanon.14c7aff04d274c5a5d29763fdbf7dbd1.40
00000000 l     O .rodata..Lanon.14c7aff04d274c5a5d29763fdbf7dbd1.41	00000010 .Lanon.14c7aff04d274c5a5d29763fdbf7dbd1.41
00000000 l     O .rodata..Lanon.14c7aff04d274c5a5d29763fdbf7dbd1.42	00000010 .Lanon.14c7aff04d274c5a5d29763fdbf7dbd1.42
00000000 l     O .rodata..Lanon.14c7aff04d274c5a5d29763fdbf7dbd1.43	00000010 .Lanon.14c7aff04d274c5a5d29763fdbf7dbd1.43
00000000 l     O .rodata..Lanon.14c7aff04d274c5a5d29763fdbf7dbd1.44	00000010 .Lanon.14c7aff04d274c5a5d29763fdbf7dbd1.44
00000000 l     O .rodata..Lanon.14c7aff04d274c5a5d29763fdbf7dbd1.45	00000010 .Lanon.14c7aff04d274c5a5d29763fdbf7dbd1.45
00000000 l     O .rodata..Lanon.14c7aff04d274c5a5d29763fdbf7dbd1.46	00000010 .Lanon.14c7aff04d274c5a5d29763fdbf7dbd1.46
00000000 l     O .rodata..Lanon.14c7aff04d274c5a5d29763fdbf7dbd1.47	00000010 .Lanon.14c7aff04d274c5a5d29763fdbf7dbd1.47
00000000 l     O .rodata..Lanon.14c7aff04d274c5a5d29763fdbf7dbd1.48	00000010 .Lanon.14c7aff04d274c5a5d29763fdbf7dbd1.48
00000000 l     O .rodata..Lanon.14c7aff04d274c5a5d29763fdbf7dbd1.49	00000007 .Lanon.14c7aff04d274c5a5d29763fdbf7dbd1.49
00000000 l     O .rodata..Lanon.14c7aff04d274c5a5d29763fdbf7dbd1.5	00000018 .Lanon.14c7aff04d274c5a5d29763fdbf7dbd1.5
00000000 l     O .rodata..Lanon.14c7aff04d274c5a5d29763fdbf7dbd1.50	00000010 .Lanon.14c7aff04d274c5a5d29763fdbf7dbd1.50
00000000 l     O .rodata..Lanon.14c7aff04d274c5a5d29763fdbf7dbd1.51	00000010 .Lanon.14c7aff04d274c5a5d29763fdbf7dbd1.51
00000008 l     O .rodata.cst8	00000008 .Lanon.14c7aff04d274c5a5d29763fdbf7dbd1.52
00000000 l     O .rodata..Lanon.14c7aff04d274c5a5d29763fdbf7dbd1.53	00000010 .Lanon.14c7aff04d274c5a5d29763fdbf7dbd1.53
00000010 l     O .rodata.cst8	00000008 .Lanon.14c7aff04d274c5a5d29763fdbf7dbd1.54
00000000 l     O .rodata..Lanon.14c7aff04d274c5a5d29763fdbf7dbd1.55	00000010 .Lanon.14c7aff04d274c5a5d29763fdbf7dbd1.55
00000000 l     O .rodata..Lanon.14c7aff04d274c5a5d29763fdbf7dbd1.7	00000008 .Lanon.14c7aff04d274c5a5d29763fdbf7dbd1.7
00000000 l     O .rodata..Lanon.14c7aff04d274c5a5d29763fdbf7dbd1.9	00000010 .Lanon.14c7aff04d274c5a5d29763fdbf7dbd1.9
00000000 l     O .bss._ZN3app12touch_sensor10I2C_BUFFER17hafdf35c8f484e8e8E	00000001 _ZN3app12touch_sensor10I2C_BUFFER17hafdf35c8f484e8e8E
00000000 l     O .bss._ZN3app12touch_sensor10TOUCH_DATA17h4e39ef9e9b93e594E	00000052 _ZN3app12touch_sensor10TOUCH_DATA17h4e39ef9e9b93e594E
00000000 l     O .bss._ZN3app12touch_sensor11TOUCH_DELAY17h172627091965312cE	00000000 _ZN3app12touch_sensor11TOUCH_DELAY17h172627091965312cE
00000000 l     O .bss._ZN3app12touch_sensor11TOUCH_EVENT17h66756949beea5b40E	00000010 _ZN3app12touch_sensor11TOUCH_EVENT17h66756949beea5b40E
00000000 l     O .bss._ZN3app12touch_sensor11TOUCH_RESET17hf506784fb252544cE	00000004 _ZN3app12touch_sensor11TOUCH_RESET17hf506784fb252544cE
00000000 l     F .text._ZN3app12touch_sensor14read_touchdata17hb195805fc80c394dE	00000786 _ZN3app12touch_sensor14read_touchdata17hb195805fc80c394dE
00000000 l     F .text._ZN3app12touch_sensor19read_register_range17h9eacd3aba86fd8acE	000001d4 _ZN3app12touch_sensor19read_register_range17h9eacd3aba86fd8acE
00000000 l     F .text._ZN3app12touch_sensor20touch_event_callback17h2335d27e4deeee0bE	00000056 _ZN3app12touch_sensor20touch_event_callback17h2335d27e4deeee0bE
00000000 l     F .text._ZN3app12touch_sensor23touch_interrupt_handler17h6494eef1274e0891E	00000046 _ZN3app12touch_sensor23touch_interrupt_handler17h6494eef1274e0891E
00000000 l     O .bss._ZN3app12touch_sensor3buf17h274a7e8c57af8507E	0000003f _ZN3app12touch_sensor3buf17h274a7e8c57af8507E
00000000 l     O .bss._ZN3app12touch_sensor8I2C_DATA17he2e6df867e8b1685E	00000008 _ZN3app12touch_sensor8I2C_DATA17he2e6df867e8b1685E
00000000 l     O .rodata.str.0	00000021 str.0
00000000 l     O .rodata.str.1	0000001c str.1
00000000 l    d  .text._ZN3app12touch_sensor18start_touch_sensor17h2fc4f052afb06613E	00000000 .text._ZN3app12touch_sensor18start_touch_sensor17h2fc4f052afb06613E
00000000 l    d  .text._ZN3app12touch_sensor23touch_interrupt_handler17h6494eef1274e0891E	00000000 .text._ZN3app12touch_sensor23touch_interrupt_handler17h6494eef1274e0891E
00000000 l    d  .text._ZN3app12touch_sensor20touch_event_callback17h2335d27e4deeee0bE	00000000 .text._ZN3app12touch_sensor20touch_event_callback17h2335d27e4deeee0bE
00000000 l    d  .text._ZN3app12touch_sensor14read_touchdata17hb195805fc80c394dE	00000000 .text._ZN3app12touch_sensor14read_touchdata17hb195805fc80c394dE
00000000 l    d  .text._ZN3app12touch_sensor19read_register_range17h9eacd3aba86fd8acE	00000000 .text._ZN3app12touch_sensor19read_register_range17h9eacd3aba86fd8acE
00000000 l    d  .bss._ZN3app12touch_sensor11TOUCH_RESET17hf506784fb252544cE	00000000 .bss._ZN3app12touch_sensor11TOUCH_RESET17hf506784fb252544cE
00000000 l    d  .bss._ZN3app12touch_sensor11TOUCH_DELAY17h172627091965312cE	00000000 .bss._ZN3app12touch_sensor11TOUCH_DELAY17h172627091965312cE
00000000 l    d  .rodata..Lanon.14c7aff04d274c5a5d29763fdbf7dbd1.2	00000000 .rodata..Lanon.14c7aff04d274c5a5d29763fdbf7dbd1.2
00000000 l    d  .rodata..Lanon.14c7aff04d274c5a5d29763fdbf7dbd1.3	00000000 .rodata..Lanon.14c7aff04d274c5a5d29763fdbf7dbd1.3
00000000 l    d  .rodata..Lanon.14c7aff04d274c5a5d29763fdbf7dbd1.4	00000000 .rodata..Lanon.14c7aff04d274c5a5d29763fdbf7dbd1.4
00000000 l    d  .rodata..Lanon.14c7aff04d274c5a5d29763fdbf7dbd1.6	00000000 .rodata..Lanon.14c7aff04d274c5a5d29763fdbf7dbd1.6
00000000 l    d  .rodata..Lanon.14c7aff04d274c5a5d29763fdbf7dbd1.8	00000000 .rodata..Lanon.14c7aff04d274c5a5d29763fdbf7dbd1.8
00000000 l    d  .bss._ZN3app12touch_sensor10TOUCH_DATA17h4e39ef9e9b93e594E	00000000 .bss._ZN3app12touch_sensor10TOUCH_DATA17h4e39ef9e9b93e594E
00000000 l    d  .bss._ZN3app12touch_sensor3buf17h274a7e8c57af8507E	00000000 .bss._ZN3app12touch_sensor3buf17h274a7e8c57af8507E
00000000 l    d  .bss._ZN3app12touch_sensor11TOUCH_EVENT17h66756949beea5b40E	00000000 .bss._ZN3app12touch_sensor11TOUCH_EVENT17h66756949beea5b40E
00000000 l    d  .bss._ZN3app12touch_sensor8I2C_DATA17he2e6df867e8b1685E	00000000 .bss._ZN3app12touch_sensor8I2C_DATA17he2e6df867e8b1685E
00000000 l    d  .bss._ZN3app12touch_sensor10I2C_BUFFER17hafdf35c8f484e8e8E	00000000 .bss._ZN3app12touch_sensor10I2C_BUFFER17hafdf35c8f484e8e8E
00000000 l    d  .debug_abbrev	00000000 .debug_abbrev
00000000 l    d  .debug_info	00000000 .debug_info
00000000 l    d  .debug_ranges	00000000 .debug_ranges
00000000 l    d  .debug_frame	00000000 .debug_frame
00000000 l    d  .debug_line	00000000 .debug_line
00000000 g     F .text._ZN3app12touch_sensor18start_touch_sensor17h2fc4f052afb06613E	0000025c .hidden _ZN3app12touch_sensor18start_touch_sensor17h2fc4f052afb06613E
00000000         *UND*	00000000 _ZN42_$LT$$RF$T$u20$as$u20$core..fmt..Debug$GT$3fmt17he0950914a7634b66E
00000000         *UND*	00000000 _ZN4core3fmt10ArgumentV13new17h02a93ea43fae82eeE
00000000         *UND*	00000000 _ZN4core3fmt10ArgumentV13new17hd2b4a4863fe4229cE
00000000         *UND*	00000000 .hidden _ZN4core3fmt9Arguments6new_v117h8bd7606948c16060E
00000000         *UND*	00000000 _ZN4core4iter5range101_$LT$impl$u20$core..iter..traits..iterator..Iterator$u20$for$u20$core..ops..range..Range$LT$A$GT$$GT$4next17h8f3bd0cd949cd295E
00000000         *UND*	00000000 _ZN4core5slice29_$LT$impl$u20$$u5b$T$u5d$$GT$10as_mut_ptr17ha8781b3442265f5fE
00000000         *UND*	00000000 _ZN4core5slice29_$LT$impl$u20$$u5b$T$u5d$$GT$3len17hfff8c41223f8c7cbE
00000000         *UND*	00000000 _ZN4core6result19Result$LT$T$C$E$GT$6expect17h47753e0abfe075d6E
00000000         *UND*	00000000 _ZN4core6result19Result$LT$T$C$E$GT$6expect17h5edf8d0f21db95a4E
00000000         *UND*	00000000 _ZN4core9panicking18panic_bounds_check17hefada55beeee1c8fE
00000000         *UND*	00000000 _ZN4core9panicking5panic17hfdd0eecc44a682f8E
00000000         *UND*	00000000 _ZN4core9panicking9panic_fmt17h43d9d9156d2a3f54E
00000000         *UND*	00000000 _ZN50_$LT$T$u20$as$u20$core..convert..From$LT$T$GT$$GT$4from17h2ece7be01fdee8faE
00000000         *UND*	00000000 _ZN59_$LT$core..fmt..Arguments$u20$as$u20$core..fmt..Display$GT$3fmt17h99d4117dd4a31a31E
00000000         *UND*	00000000 _ZN5druid11win_handler12handle_touch17h130ecff193a7bcaaE
00000000         *UND*	00000000 _ZN63_$LT$I$u20$as$u20$core..iter..traits..collect..IntoIterator$GT$9into_iter17hf288b23b2608be52E
00000000         *UND*	00000000 _ZN6mynewt3hal4GPIO4init17hab49dccac933dc5bE
00000000         *UND*	00000000 _ZN6mynewt3sys7console5print17h67a3059d9eb8a82eE
00000000         *UND*	00000000 _ZN6mynewt6kernel2os15eventq_dflt_get17h1dc1684b870eee8cE
00000000         *UND*	00000000 _ZN73_$LT$core..result..Result$LT$T$C$E$GT$$u20$as$u20$core..ops..try..Try$GT$10from_error17h8ca7b6780f95f931E
00000000         *UND*	00000000 _ZN73_$LT$core..result..Result$LT$T$C$E$GT$$u20$as$u20$core..ops..try..Try$GT$11into_result17h8c871956df004589E
00000000         *UND*	00000000 _ZN74_$LT$mynewt..hal..GPIO$u20$as$u20$embedded_hal..digital..v2..OutputPin$GT$7set_low17he82458501cbadd34E
00000000         *UND*	00000000 _ZN74_$LT$mynewt..hal..GPIO$u20$as$u20$embedded_hal..digital..v2..OutputPin$GT$8set_high17h39f2ca3fc4f2090cE
00000000         *UND*	00000000 _ZN87_$LT$mynewt..hal..Delay$u20$as$u20$embedded_hal..blocking..delay..DelayMs$LT$u8$GT$$GT$8delay_ms17hca2e136e682e542aE
00000000         *UND*	00000000 __aeabi_memclr
00000000         *UND*	00000000 __aeabi_memcpy
00000000         *UND*	00000000 hal_gpio_irq_enable
00000000         *UND*	00000000 hal_gpio_irq_init
00000000         *UND*	00000000 hal_i2c_master_read
00000000         *UND*	00000000 hal_i2c_master_write
00000000         *UND*	00000000 os_eventq_put



Disassembly of section .text._ZN3app12touch_sensor18start_touch_sensor17h2fc4f052afb06613E:

00000000 <_ZN3app12touch_sensor18start_touch_sensor17h2fc4f052afb06613E>:
_ZN3app12touch_sensor18start_touch_sensor17h2fc4f052afb06613E():
/Users/Luppy/PineTime/pinetime-rust-mynewt/rust/app/src/touch_sensor.rs:39
/// ```rust
/// let peripherals = nrf52::Peripherals::take().unwrap();
/// let nfcpins = peripherals.UICR.nfcpins.read().bits();
/// console::print("nfcpins = "); console::printhex(nfcpins as u8); console::print("\n");
/// ```
pub fn start_touch_sensor() -> MynewtResult<()> {
   0:	b5b0      	push	{r4, r5, r7, lr}
   2:	b0bc      	sub	sp, #240	; 0xf0
/Users/Luppy/PineTime/pinetime-rust-mynewt/rust/app/src/touch_sensor.rs:40
    console::print("Rust touch sensor\n");
   4:	f240 0000 	movw	r0, #0
   8:	f2c0 0000 	movt	r0, #0
   c:	2112      	movs	r1, #18
   e:	f7ff fffe 	bl	0 <_ZN6mynewt3sys7console5print17h67a3059d9eb8a82eE>
  12:	e7ff      	b.n	2 <_ZN3app12touch_sensor18start_touch_sensor17h2fc4f052afb06613E+0x2>
/Users/Luppy/PineTime/pinetime-rust-mynewt/rust/app/src/touch_sensor.rs:43

    //  Init GPIO for the Reset Pin
    unsafe { TOUCH_RESET.init(TOUCH_RESET_PIN) ? };
  14:	f240 0000 	movw	r0, #0
  18:	f2c0 0000 	movt	r0, #0
  1c:	210a      	movs	r1, #10
  1e:	f7ff fffe 	bl	0 <_ZN6mynewt3hal4GPIO4init17hab49dccac933dc5bE>
  22:	900e      	str	r0, [sp, #56]	; 0x38
  24:	e7ff      	b.n	26 <_ZN3app12touch_sensor18start_touch_sensor17h2fc4f052afb06613E+0x26>
  26:	980e      	ldr	r0, [sp, #56]	; 0x38
  28:	f7ff fffe 	bl	0 <_ZN73_$LT$core..result..Result$LT$T$C$E$GT$$u20$as$u20$core..ops..try..Try$GT$11into_result17h8c871956df004589E>
  2c:	9010      	str	r0, [sp, #64]	; 0x40
  2e:	e7ff      	b.n	30 <_ZN3app12touch_sensor18start_touch_sensor17h2fc4f052afb06613E+0x30>
  30:	9810      	ldr	r0, [sp, #64]	; 0x40
  32:	1e41      	subs	r1, r0, #1
  34:	bf18      	it	ne
  36:	2101      	movne	r1, #1
  38:	2801      	cmp	r0, #1
  3a:	d012      	beq.n	62 <_ZN3app12touch_sensor18start_touch_sensor17h2fc4f052afb06613E+0x62>
  3c:	e7ff      	b.n	3e <_ZN3app12touch_sensor18start_touch_sensor17h2fc4f052afb06613E+0x3e>
  3e:	e000      	b.n	42 <_ZN3app12touch_sensor18start_touch_sensor17h2fc4f052afb06613E+0x42>
  40:	defe      	udf	#254	; 0xfe
  42:	9810      	ldr	r0, [sp, #64]	; 0x40
  44:	9011      	str	r0, [sp, #68]	; 0x44
  46:	9811      	ldr	r0, [sp, #68]	; 0x44
  48:	f7ff fffe 	bl	0 <_ZN50_$LT$T$u20$as$u20$core..convert..From$LT$T$GT$$GT$4from17h2ece7be01fdee8faE>
  4c:	900d      	str	r0, [sp, #52]	; 0x34
  4e:	e002      	b.n	56 <_ZN3app12touch_sensor18start_touch_sensor17h2fc4f052afb06613E+0x56>
/Users/Luppy/PineTime/pinetime-rust-mynewt/rust/app/src/touch_sensor.rs:69
    assert_eq!(rc, 0, "IRQ init fail");

    //  Start monitoring for touch controller interrupts
    unsafe { hal::hal_gpio_irq_enable(TOUCH_INTERRUPT_PIN) };
    Ok(())
}
  50:	980f      	ldr	r0, [sp, #60]	; 0x3c
  52:	b03c      	add	sp, #240	; 0xf0
  54:	bdb0      	pop	{r4, r5, r7, pc}
/Users/Luppy/PineTime/pinetime-rust-mynewt/rust/app/src/touch_sensor.rs:43
    unsafe { TOUCH_RESET.init(TOUCH_RESET_PIN) ? };
  56:	980d      	ldr	r0, [sp, #52]	; 0x34
  58:	f7ff fffe 	bl	0 <_ZN73_$LT$core..result..Result$LT$T$C$E$GT$$u20$as$u20$core..ops..try..Try$GT$10from_error17h8ca7b6780f95f931E>
  5c:	900f      	str	r0, [sp, #60]	; 0x3c
  5e:	e7ff      	b.n	60 <_ZN3app12touch_sensor18start_touch_sensor17h2fc4f052afb06613E+0x60>
  60:	e7f6      	b.n	50 <_ZN3app12touch_sensor18start_touch_sensor17h2fc4f052afb06613E+0x50>
/Users/Luppy/PineTime/pinetime-rust-mynewt/rust/app/src/touch_sensor.rs:47
        TOUCH_RESET.set_low() ? ;
  62:	f240 0000 	movw	r0, #0
  66:	f2c0 0000 	movt	r0, #0
  6a:	f7ff fffe 	bl	0 <_ZN74_$LT$mynewt..hal..GPIO$u20$as$u20$embedded_hal..digital..v2..OutputPin$GT$7set_low17he82458501cbadd34E>
  6e:	900c      	str	r0, [sp, #48]	; 0x30
  70:	e7ff      	b.n	72 <_ZN3app12touch_sensor18start_touch_sensor17h2fc4f052afb06613E+0x72>
  72:	980c      	ldr	r0, [sp, #48]	; 0x30
  74:	f7ff fffe 	bl	0 <_ZN73_$LT$core..result..Result$LT$T$C$E$GT$$u20$as$u20$core..ops..try..Try$GT$11into_result17h8c871956df004589E>
  78:	9013      	str	r0, [sp, #76]	; 0x4c
  7a:	e7ff      	b.n	7c <_ZN3app12touch_sensor18start_touch_sensor17h2fc4f052afb06613E+0x7c>
  7c:	9813      	ldr	r0, [sp, #76]	; 0x4c
  7e:	1e41      	subs	r1, r0, #1
  80:	bf18      	it	ne
  82:	2101      	movne	r1, #1
  84:	2801      	cmp	r0, #1
  86:	d010      	beq.n	aa <_ZN3app12touch_sensor18start_touch_sensor17h2fc4f052afb06613E+0xaa>
  88:	e7ff      	b.n	8a <_ZN3app12touch_sensor18start_touch_sensor17h2fc4f052afb06613E+0x8a>
  8a:	e000      	b.n	8e <_ZN3app12touch_sensor18start_touch_sensor17h2fc4f052afb06613E+0x8e>
  8c:	defe      	udf	#254	; 0xfe
  8e:	9813      	ldr	r0, [sp, #76]	; 0x4c
  90:	9014      	str	r0, [sp, #80]	; 0x50
  92:	9814      	ldr	r0, [sp, #80]	; 0x50
  94:	f7ff fffe 	bl	0 <_ZN50_$LT$T$u20$as$u20$core..convert..From$LT$T$GT$$GT$4from17h2ece7be01fdee8faE>
  98:	900b      	str	r0, [sp, #44]	; 0x2c
  9a:	e7ff      	b.n	9c <_ZN3app12touch_sensor18start_touch_sensor17h2fc4f052afb06613E+0x9c>
  9c:	980b      	ldr	r0, [sp, #44]	; 0x2c
  9e:	f7ff fffe 	bl	0 <_ZN73_$LT$core..result..Result$LT$T$C$E$GT$$u20$as$u20$core..ops..try..Try$GT$10from_error17h8ca7b6780f95f931E>
  a2:	900f      	str	r0, [sp, #60]	; 0x3c
  a4:	e7ff      	b.n	a6 <_ZN3app12touch_sensor18start_touch_sensor17h2fc4f052afb06613E+0xa6>
  a6:	e7ff      	b.n	a8 <_ZN3app12touch_sensor18start_touch_sensor17h2fc4f052afb06613E+0xa8>
  a8:	e7d2      	b.n	50 <_ZN3app12touch_sensor18start_touch_sensor17h2fc4f052afb06613E+0x50>
/Users/Luppy/PineTime/pinetime-rust-mynewt/rust/app/src/touch_sensor.rs:48
        TOUCH_DELAY.delay_ms(20);
  aa:	f240 0000 	movw	r0, #0
  ae:	f2c0 0000 	movt	r0, #0
  b2:	2114      	movs	r1, #20
  b4:	f7ff fffe 	bl	0 <_ZN87_$LT$mynewt..hal..Delay$u20$as$u20$embedded_hal..blocking..delay..DelayMs$LT$u8$GT$$GT$8delay_ms17hca2e136e682e542aE>
  b8:	e7ff      	b.n	2 <_ZN3app12touch_sensor18start_touch_sensor17h2fc4f052afb06613E+0x2>
/Users/Luppy/PineTime/pinetime-rust-mynewt/rust/app/src/touch_sensor.rs:49
        TOUCH_RESET.set_high() ? ;
  ba:	f240 0000 	movw	r0, #0
  be:	f2c0 0000 	movt	r0, #0
  c2:	f7ff fffe 	bl	0 <_ZN74_$LT$mynewt..hal..GPIO$u20$as$u20$embedded_hal..digital..v2..OutputPin$GT$8set_high17h39f2ca3fc4f2090cE>
  c6:	900a      	str	r0, [sp, #40]	; 0x28
  c8:	e7ff      	b.n	ca <_ZN3app12touch_sensor18start_touch_sensor17h2fc4f052afb06613E+0xca>
  ca:	980a      	ldr	r0, [sp, #40]	; 0x28
  cc:	f7ff fffe 	bl	0 <_ZN73_$LT$core..result..Result$LT$T$C$E$GT$$u20$as$u20$core..ops..try..Try$GT$11into_result17h8c871956df004589E>
  d0:	9016      	str	r0, [sp, #88]	; 0x58
  d2:	e7ff      	b.n	d4 <_ZN3app12touch_sensor18start_touch_sensor17h2fc4f052afb06613E+0xd4>
  d4:	9816      	ldr	r0, [sp, #88]	; 0x58
  d6:	1e41      	subs	r1, r0, #1
  d8:	bf18      	it	ne
  da:	2101      	movne	r1, #1
  dc:	2801      	cmp	r0, #1
  de:	d00f      	beq.n	100 <_ZN3app12touch_sensor18start_touch_sensor17h2fc4f052afb06613E+0x100>
  e0:	e7ff      	b.n	e2 <_ZN3app12touch_sensor18start_touch_sensor17h2fc4f052afb06613E+0xe2>
  e2:	e000      	b.n	e6 <_ZN3app12touch_sensor18start_touch_sensor17h2fc4f052afb06613E+0xe6>
  e4:	defe      	udf	#254	; 0xfe
  e6:	9816      	ldr	r0, [sp, #88]	; 0x58
  e8:	9017      	str	r0, [sp, #92]	; 0x5c
  ea:	9817      	ldr	r0, [sp, #92]	; 0x5c
  ec:	f7ff fffe 	bl	0 <_ZN50_$LT$T$u20$as$u20$core..convert..From$LT$T$GT$$GT$4from17h2ece7be01fdee8faE>
  f0:	9009      	str	r0, [sp, #36]	; 0x24
  f2:	e7ff      	b.n	f4 <_ZN3app12touch_sensor18start_touch_sensor17h2fc4f052afb06613E+0xf4>
  f4:	9809      	ldr	r0, [sp, #36]	; 0x24
  f6:	f7ff fffe 	bl	0 <_ZN73_$LT$core..result..Result$LT$T$C$E$GT$$u20$as$u20$core..ops..try..Try$GT$10from_error17h8ca7b6780f95f931E>
  fa:	900f      	str	r0, [sp, #60]	; 0x3c
  fc:	e7ff      	b.n	fe <_ZN3app12touch_sensor18start_touch_sensor17h2fc4f052afb06613E+0xfe>
  fe:	e7d3      	b.n	a8 <_ZN3app12touch_sensor18start_touch_sensor17h2fc4f052afb06613E+0xa8>
/Users/Luppy/PineTime/pinetime-rust-mynewt/rust/app/src/touch_sensor.rs:50
        TOUCH_DELAY.delay_ms(200); TOUCH_DELAY.delay_ms(200);    
 100:	f240 0000 	movw	r0, #0
 104:	f2c0 0000 	movt	r0, #0
 108:	21c8      	movs	r1, #200	; 0xc8
 10a:	f7ff fffe 	bl	0 <_ZN87_$LT$mynewt..hal..Delay$u20$as$u20$embedded_hal..blocking..delay..DelayMs$LT$u8$GT$$GT$8delay_ms17hca2e136e682e542aE>
 10e:	e7ff      	b.n	2 <_ZN3app12touch_sensor18start_touch_sensor17h2fc4f052afb06613E+0x2>
 110:	f240 0000 	movw	r0, #0
 114:	f2c0 0000 	movt	r0, #0
 118:	21c8      	movs	r1, #200	; 0xc8
 11a:	f7ff fffe 	bl	0 <_ZN87_$LT$mynewt..hal..Delay$u20$as$u20$embedded_hal..blocking..delay..DelayMs$LT$u8$GT$$GT$8delay_ms17hca2e136e682e542aE>
 11e:	e7ff      	b.n	2 <_ZN3app12touch_sensor18start_touch_sensor17h2fc4f052afb06613E+0x2>
/Users/Luppy/PineTime/pinetime-rust-mynewt/rust/app/src/touch_sensor.rs:54
    unsafe { TOUCH_EVENT.ev_cb = Some( touch_event_callback ) };
 120:	f240 0000 	movw	r0, #0
 124:	f2c0 0000 	movt	r0, #0
 128:	9019      	str	r0, [sp, #100]	; 0x64
 12a:	f240 0000 	movw	r0, #0
 12e:	f2c0 0000 	movt	r0, #0
 132:	901a      	str	r0, [sp, #104]	; 0x68
 134:	981a      	ldr	r0, [sp, #104]	; 0x68
 136:	9919      	ldr	r1, [sp, #100]	; 0x64
 138:	6041      	str	r1, [r0, #4]
/Users/Luppy/PineTime/pinetime-rust-mynewt/rust/app/src/touch_sensor.rs:59
        Some( touch_interrupt_handler ),  //  Call `touch_interrupt_handler()` upon detecting interrupt
 13a:	f240 0000 	movw	r0, #0
 13e:	f2c0 0000 	movt	r0, #0
 142:	901c      	str	r0, [sp, #112]	; 0x70
/Users/Luppy/PineTime/pinetime-rust-mynewt/rust/app/src/touch_sensor.rs:60
        core::ptr::null_mut(),            //  No arguments for `touch_interrupt_handler()`
 144:	e7ff      	b.n	146 <_ZN3app12touch_sensor18start_touch_sensor17h2fc4f052afb06613E+0x146>
/Users/Luppy/PineTime/pinetime-rust-mynewt/rust/app/src/touch_sensor.rs:57
    let rc = unsafe { hal::hal_gpio_irq_init(
 146:	991c      	ldr	r1, [sp, #112]	; 0x70
 148:	4668      	mov	r0, sp
 14a:	2201      	movs	r2, #1
 14c:	6002      	str	r2, [r0, #0]
 14e:	201c      	movs	r0, #28
 150:	2200      	movs	r2, #0
 152:	2302      	movs	r3, #2
 154:	f7ff fffe 	bl	0 <hal_gpio_irq_init>
 158:	901b      	str	r0, [sp, #108]	; 0x6c
 15a:	e7ff      	b.n	15c <_ZN3app12touch_sensor18start_touch_sensor17h2fc4f052afb06613E+0x15c>
 15c:	a81b      	add	r0, sp, #108	; 0x6c
/Users/Luppy/PineTime/pinetime-rust-mynewt/rust/app/src/touch_sensor.rs:64
    assert_eq!(rc, 0, "IRQ init fail");
 15e:	901d      	str	r0, [sp, #116]	; 0x74
 160:	f240 0000 	movw	r0, #0
 164:	f2c0 0000 	movt	r0, #0
 168:	901e      	str	r0, [sp, #120]	; 0x78
 16a:	981d      	ldr	r0, [sp, #116]	; 0x74
 16c:	901f      	str	r0, [sp, #124]	; 0x7c
 16e:	981e      	ldr	r0, [sp, #120]	; 0x78
 170:	9020      	str	r0, [sp, #128]	; 0x80
 172:	981f      	ldr	r0, [sp, #124]	; 0x7c
 174:	6800      	ldr	r0, [r0, #0]
 176:	9920      	ldr	r1, [sp, #128]	; 0x80
 178:	6809      	ldr	r1, [r1, #0]
 17a:	4288      	cmp	r0, r1
 17c:	d104      	bne.n	188 <_ZN3app12touch_sensor18start_touch_sensor17h2fc4f052afb06613E+0x188>
 17e:	e7ff      	b.n	180 <_ZN3app12touch_sensor18start_touch_sensor17h2fc4f052afb06613E+0x180>
 180:	201c      	movs	r0, #28
/Users/Luppy/PineTime/pinetime-rust-mynewt/rust/app/src/touch_sensor.rs:67
    unsafe { hal::hal_gpio_irq_enable(TOUCH_INTERRUPT_PIN) };
 182:	f7ff fffe 	bl	0 <hal_gpio_irq_enable>
 186:	e064      	b.n	252 <_ZN3app12touch_sensor18start_touch_sensor17h2fc4f052afb06613E+0x252>
/Users/Luppy/PineTime/pinetime-rust-mynewt/rust/app/src/touch_sensor.rs:64
    assert_eq!(rc, 0, "IRQ init fail");
 188:	981f      	ldr	r0, [sp, #124]	; 0x7c
 18a:	9030      	str	r0, [sp, #192]	; 0xc0
 18c:	9820      	ldr	r0, [sp, #128]	; 0x80
 18e:	9031      	str	r0, [sp, #196]	; 0xc4
 190:	4668      	mov	r0, sp
 192:	2100      	movs	r1, #0
 194:	6001      	str	r1, [r0, #0]
 196:	f240 0100 	movw	r1, #0
 19a:	f2c0 0100 	movt	r1, #0
 19e:	a832      	add	r0, sp, #200	; 0xc8
 1a0:	2201      	movs	r2, #1
 1a2:	2304      	movs	r3, #4
 1a4:	f7ff fffe 	bl	0 <_ZN4core3fmt9Arguments6new_v117h8bd7606948c16060E>
 1a8:	e7ff      	b.n	1aa <_ZN3app12touch_sensor18start_touch_sensor17h2fc4f052afb06613E+0x1aa>
 1aa:	a830      	add	r0, sp, #192	; 0xc0
 1ac:	902d      	str	r0, [sp, #180]	; 0xb4
 1ae:	a831      	add	r0, sp, #196	; 0xc4
 1b0:	902e      	str	r0, [sp, #184]	; 0xb8
 1b2:	a832      	add	r0, sp, #200	; 0xc8
 1b4:	902f      	str	r0, [sp, #188]	; 0xbc
 1b6:	982d      	ldr	r0, [sp, #180]	; 0xb4
 1b8:	9038      	str	r0, [sp, #224]	; 0xe0
 1ba:	982e      	ldr	r0, [sp, #184]	; 0xb8
 1bc:	9039      	str	r0, [sp, #228]	; 0xe4
 1be:	982f      	ldr	r0, [sp, #188]	; 0xbc
 1c0:	903a      	str	r0, [sp, #232]	; 0xe8
 1c2:	9838      	ldr	r0, [sp, #224]	; 0xe0
 1c4:	f240 0100 	movw	r1, #0
 1c8:	f2c0 0100 	movt	r1, #0
 1cc:	f7ff fffe 	bl	0 <_ZN4core3fmt10ArgumentV13new17h02a93ea43fae82eeE>
 1d0:	9008      	str	r0, [sp, #32]
 1d2:	9107      	str	r1, [sp, #28]
 1d4:	e7ff      	b.n	1d6 <_ZN3app12touch_sensor18start_touch_sensor17h2fc4f052afb06613E+0x1d6>
 1d6:	9839      	ldr	r0, [sp, #228]	; 0xe4
 1d8:	f240 0100 	movw	r1, #0
 1dc:	f2c0 0100 	movt	r1, #0
 1e0:	f7ff fffe 	bl	0 <_ZN4core3fmt10ArgumentV13new17h02a93ea43fae82eeE>
 1e4:	9006      	str	r0, [sp, #24]
 1e6:	9105      	str	r1, [sp, #20]
 1e8:	e7ff      	b.n	1ea <_ZN3app12touch_sensor18start_touch_sensor17h2fc4f052afb06613E+0x1ea>
 1ea:	983a      	ldr	r0, [sp, #232]	; 0xe8
 1ec:	f240 0100 	movw	r1, #0
 1f0:	f2c0 0100 	movt	r1, #0
 1f4:	f7ff fffe 	bl	0 <_ZN4core3fmt10ArgumentV13new17hd2b4a4863fe4229cE>
 1f8:	9004      	str	r0, [sp, #16]
 1fa:	9103      	str	r1, [sp, #12]
 1fc:	e7ff      	b.n	1fe <_ZN3app12touch_sensor18start_touch_sensor17h2fc4f052afb06613E+0x1fe>
 1fe:	9808      	ldr	r0, [sp, #32]
 200:	9027      	str	r0, [sp, #156]	; 0x9c
 202:	9907      	ldr	r1, [sp, #28]
 204:	9128      	str	r1, [sp, #160]	; 0xa0
 206:	9a06      	ldr	r2, [sp, #24]
 208:	9229      	str	r2, [sp, #164]	; 0xa4
 20a:	9b05      	ldr	r3, [sp, #20]
 20c:	932a      	str	r3, [sp, #168]	; 0xa8
 20e:	f8dd c010 	ldr.w	ip, [sp, #16]
 212:	f8cd c0ac 	str.w	ip, [sp, #172]	; 0xac
 216:	f8dd e00c 	ldr.w	lr, [sp, #12]
 21a:	f8cd e0b0 	str.w	lr, [sp, #176]	; 0xb0
 21e:	466c      	mov	r4, sp
 220:	2503      	movs	r5, #3
 222:	6025      	str	r5, [r4, #0]
 224:	f240 0100 	movw	r1, #0
 228:	f2c0 0100 	movt	r1, #0
 22c:	a821      	add	r0, sp, #132	; 0x84
 22e:	ab27      	add	r3, sp, #156	; 0x9c
 230:	462a      	mov	r2, r5
 232:	f7ff fffe 	bl	0 <_ZN4core3fmt9Arguments6new_v117h8bd7606948c16060E>
 236:	e7ff      	b.n	2 <_ZN3app12touch_sensor18start_touch_sensor17h2fc4f052afb06613E+0x2>
 238:	f240 0000 	movw	r0, #0
 23c:	f2c0 0000 	movt	r0, #0
 240:	903b      	str	r0, [sp, #236]	; 0xec
 242:	993b      	ldr	r1, [sp, #236]	; 0xec
 244:	9102      	str	r1, [sp, #8]
 246:	e7ff      	b.n	248 <_ZN3app12touch_sensor18start_touch_sensor17h2fc4f052afb06613E+0x248>
 248:	a821      	add	r0, sp, #132	; 0x84
 24a:	9902      	ldr	r1, [sp, #8]
 24c:	f7ff fffe 	bl	0 <_ZN4core9panicking9panic_fmt17h43d9d9156d2a3f54E>
 250:	defe      	udf	#254	; 0xfe
 252:	2000      	movs	r0, #0
/Users/Luppy/PineTime/pinetime-rust-mynewt/rust/app/src/touch_sensor.rs:68
    Ok(())
 254:	900f      	str	r0, [sp, #60]	; 0x3c
 256:	2001      	movs	r0, #1
 258:	900f      	str	r0, [sp, #60]	; 0x3c
/Users/Luppy/PineTime/pinetime-rust-mynewt/rust/app/src/touch_sensor.rs:69
}
 25a:	e6f9      	b.n	50 <_ZN3app12touch_sensor18start_touch_sensor17h2fc4f052afb06613E+0x50>

Disassembly of section .text._ZN3app12touch_sensor23touch_interrupt_handler17h6494eef1274e0891E:

00000000 <_ZN3app12touch_sensor23touch_interrupt_handler17h6494eef1274e0891E>:
_ZN3app12touch_sensor23touch_interrupt_handler17h6494eef1274e0891E():
/Users/Luppy/PineTime/pinetime-rust-mynewt/rust/app/src/touch_sensor.rs:72

/// Interrupt handler for the touch controller, triggered when a touch is detected
extern "C" fn touch_interrupt_handler(arg: *mut core::ffi::c_void) {
   0:	b580      	push	{r7, lr}
   2:	b086      	sub	sp, #24
   4:	9001      	str	r0, [sp, #4]
/Users/Luppy/PineTime/pinetime-rust-mynewt/rust/app/src/touch_sensor.rs:74
    //  We forward a touch event to the Default Event Queue for deferred processing.  Don't do any processing here.
    unsafe { TOUCH_EVENT.ev_arg = arg };
   6:	9801      	ldr	r0, [sp, #4]
   8:	f240 0100 	movw	r1, #0
   c:	f2c0 0100 	movt	r1, #0
  10:	9102      	str	r1, [sp, #8]
  12:	9902      	ldr	r1, [sp, #8]
  14:	6088      	str	r0, [r1, #8]
  16:	a804      	add	r0, sp, #16
/Users/Luppy/PineTime/pinetime-rust-mynewt/rust/app/src/touch_sensor.rs:76
    //  Fetch the Default Event Queue. TODO: Use dedicated Event Queue for higher priority processing.
    let queue = os::eventq_dflt_get()
  18:	f7ff fffe 	bl	0 <_ZN6mynewt6kernel2os15eventq_dflt_get17h1dc1684b870eee8cE>
  1c:	e7ff      	b.n	2 <_ZN3app12touch_sensor23touch_interrupt_handler17h6494eef1274e0891E+0x2>
  1e:	f240 0100 	movw	r1, #0
  22:	f2c0 0100 	movt	r1, #0
  26:	a804      	add	r0, sp, #16
  28:	2208      	movs	r2, #8
  2a:	f7ff fffe 	bl	0 <_ZN4core6result19Result$LT$T$C$E$GT$6expect17h5edf8d0f21db95a4E>
  2e:	9003      	str	r0, [sp, #12]
  30:	e7ff      	b.n	32 <_ZN3app12touch_sensor23touch_interrupt_handler17h6494eef1274e0891E+0x32>
/Users/Luppy/PineTime/pinetime-rust-mynewt/rust/app/src/touch_sensor.rs:78
        .expect("GET fail");
	unsafe { os::os_eventq_put(queue, &mut TOUCH_EVENT) };  //  Trigger the callback function `touch_event_callback()`
  32:	9803      	ldr	r0, [sp, #12]
  34:	f240 0100 	movw	r1, #0
  38:	f2c0 0100 	movt	r1, #0
  3c:	f7ff fffe 	bl	0 <os_eventq_put>
  40:	e7ff      	b.n	42 <_ZN3app12touch_sensor23touch_interrupt_handler17h6494eef1274e0891E+0x42>
/Users/Luppy/PineTime/pinetime-rust-mynewt/rust/app/src/touch_sensor.rs:79
}
  42:	b006      	add	sp, #24
  44:	bd80      	pop	{r7, pc}

Disassembly of section .text._ZN3app12touch_sensor20touch_event_callback17h2335d27e4deeee0bE:

00000000 <_ZN3app12touch_sensor20touch_event_callback17h2335d27e4deeee0bE>:
_ZN3app12touch_sensor20touch_event_callback17h2335d27e4deeee0bE():
/Users/Luppy/PineTime/pinetime-rust-mynewt/rust/app/src/touch_sensor.rs:82

/// Callback for the touch event that is triggered when a touch is detected
extern "C" fn touch_event_callback(_event: *mut os_event) {
   0:	b580      	push	{r7, lr}
   2:	b086      	sub	sp, #24
   4:	9001      	str	r0, [sp, #4]
/Users/Luppy/PineTime/pinetime-rust-mynewt/rust/app/src/touch_sensor.rs:86
    //  console::printhex(unsafe { os::os_time_get() } as u8); console::print(" touch\n");
    unsafe { 
        //  Fetch the touch data from the touch controller
        read_touchdata(&mut TOUCH_DATA)
   6:	f240 0000 	movw	r0, #0
   a:	f2c0 0000 	movt	r0, #0
   e:	f7ff fffe 	bl	0 <_ZN3app12touch_sensor20touch_event_callback17h2335d27e4deeee0bE>
  12:	9000      	str	r0, [sp, #0]
  14:	e7ff      	b.n	16 <_ZN3app12touch_sensor20touch_event_callback17h2335d27e4deeee0bE+0x16>
  16:	f240 0100 	movw	r1, #0
  1a:	f2c0 0100 	movt	r1, #0
  1e:	220e      	movs	r2, #14
  20:	9800      	ldr	r0, [sp, #0]
  22:	f7ff fffe 	bl	0 <_ZN4core6result19Result$LT$T$C$E$GT$6expect17h47753e0abfe075d6E>
  26:	e7ff      	b.n	2 <_ZN3app12touch_sensor20touch_event_callback17h2335d27e4deeee0bE+0x2>
/Users/Luppy/PineTime/pinetime-rust-mynewt/rust/app/src/touch_sensor.rs:88
            .expect("touchdata fail");
        let x = TOUCH_DATA.touches[0].x;
  28:	f240 0000 	movw	r0, #0
  2c:	f2c0 0000 	movt	r0, #0
  30:	9003      	str	r0, [sp, #12]
  32:	9903      	ldr	r1, [sp, #12]
  34:	8809      	ldrh	r1, [r1, #0]
  36:	f8ad 100a 	strh.w	r1, [sp, #10]
/Users/Luppy/PineTime/pinetime-rust-mynewt/rust/app/src/touch_sensor.rs:89
        let y = TOUCH_DATA.touches[0].y;
  3a:	9005      	str	r0, [sp, #20]
  3c:	9805      	ldr	r0, [sp, #20]
  3e:	8840      	ldrh	r0, [r0, #2]
  40:	f8ad 0012 	strh.w	r0, [sp, #18]
/Users/Luppy/PineTime/pinetime-rust-mynewt/rust/app/src/touch_sensor.rs:92

        //  Handle the touch data in the UI        
        druid::handle_touch(x, y);
  44:	f8bd 1012 	ldrh.w	r1, [sp, #18]
  48:	f8bd 000a 	ldrh.w	r0, [sp, #10]
  4c:	f7ff fffe 	bl	0 <_ZN5druid11win_handler12handle_touch17h130ecff193a7bcaaE>
  50:	e7ff      	b.n	52 <_ZN3app12touch_sensor20touch_event_callback17h2335d27e4deeee0bE+0x52>
/Users/Luppy/PineTime/pinetime-rust-mynewt/rust/app/src/touch_sensor.rs:101
    }
    //  Disable the console output because it slows down the rendering
    //  console::printint(unsafe { TOUCH_DATA.touches[0].x } as i32); console::print(", ");
    //  console::printint(unsafe { TOUCH_DATA.touches[0].y } as i32); console::print("\n");
    //  console::flush();   
}
  52:	b006      	add	sp, #24
  54:	bd80      	pop	{r7, pc}

Disassembly of section .text._ZN3app12touch_sensor14read_touchdata17hb195805fc80c394dE:

00000000 <_ZN3app12touch_sensor14read_touchdata17hb195805fc80c394dE>:
_ZN3app12touch_sensor14read_touchdata17hb195805fc80c394dE():
/Users/Luppy/PineTime/pinetime-rust-mynewt/rust/app/src/touch_sensor.rs:108
/// Touch data will be populated here
static mut TOUCH_DATA: TouchEventInfo = fill_zero!(TouchEventInfo);

/// Read touch controller data. This only works when the screen has been tapped and the touch controller wakes up.
/// Ported from https://github.com/lupyuen/hynitron_i2c_cst0xxse/blob/master/cst0xx_core.c#L407-L466
fn read_touchdata(data: &mut TouchEventInfo) -> MynewtResult<()> {
   0:	b580      	push	{r7, lr}
   2:	b0f0      	sub	sp, #448	; 0x1c0
   4:	902d      	str	r0, [sp, #180]	; 0xb4
/Users/Luppy/PineTime/pinetime-rust-mynewt/rust/app/src/touch_sensor.rs:109
    read_register_range(           //  Read the range of I2C registers...
   6:	4668      	mov	r0, sp
   8:	213f      	movs	r1, #63	; 0x3f
   a:	6001      	str	r1, [r0, #0]
   c:	f240 0300 	movw	r3, #0
  10:	f2c0 0300 	movt	r3, #0
  14:	2015      	movs	r0, #21
  16:	2200      	movs	r2, #0
  18:	912c      	str	r1, [sp, #176]	; 0xb0
  1a:	4611      	mov	r1, r2
  1c:	9a2c      	ldr	r2, [sp, #176]	; 0xb0
  1e:	f7ff fffe 	bl	0 <_ZN3app12touch_sensor14read_touchdata17hb195805fc80c394dE>
  22:	902b      	str	r0, [sp, #172]	; 0xac
  24:	e7ff      	b.n	26 <_ZN3app12touch_sensor14read_touchdata17hb195805fc80c394dE+0x26>
  26:	f240 0100 	movw	r1, #0
  2a:	f2c0 0100 	movt	r1, #0
  2e:	2213      	movs	r2, #19
  30:	982b      	ldr	r0, [sp, #172]	; 0xac
  32:	f7ff fffe 	bl	0 <_ZN4core6result19Result$LT$T$C$E$GT$6expect17h47753e0abfe075d6E>
  36:	e7ff      	b.n	38 <_ZN3app12touch_sensor14read_touchdata17hb195805fc80c394dE+0x38>
  38:	f50d 7085 	add.w	r0, sp, #266	; 0x10a
  3c:	2152      	movs	r1, #82	; 0x52
/Users/Luppy/PineTime/pinetime-rust-mynewt/rust/app/src/touch_sensor.rs:115
        TOUCH_CONTROLLER_ADDRESS,  //  From the touch controller
        0,                         //  Starting from register 0
        POINT_READ_BUF as u8,      //  Number of registers to read
        unsafe { &mut buf }        //  Save the read data into `buf`
    ).expect("read touchdata fail");
    *data = fill_zero!(TouchEventInfo);
  3e:	902a      	str	r0, [sp, #168]	; 0xa8
  40:	9129      	str	r1, [sp, #164]	; 0xa4
  42:	f7ff fffe 	bl	0 <__aeabi_memclr>
  46:	a82e      	add	r0, sp, #184	; 0xb8
  48:	992a      	ldr	r1, [sp, #168]	; 0xa8
  4a:	9a29      	ldr	r2, [sp, #164]	; 0xa4
  4c:	f7ff fffe 	bl	0 <__aeabi_memcpy>
  50:	e7ff      	b.n	52 <_ZN3app12touch_sensor14read_touchdata17hb195805fc80c394dE+0x52>
  52:	982d      	ldr	r0, [sp, #180]	; 0xb4
  54:	a92e      	add	r1, sp, #184	; 0xb8
  56:	2252      	movs	r2, #82	; 0x52
  58:	f7ff fffe 	bl	0 <__aeabi_memcpy>
/Users/Luppy/PineTime/pinetime-rust-mynewt/rust/app/src/touch_sensor.rs:116
    data.point_num = unsafe { buf[FT_TOUCH_POINT_NUM] & 0x0F };
  5c:	f240 0100 	movw	r1, #0
  60:	f2c0 0100 	movt	r1, #0
  64:	9157      	str	r1, [sp, #348]	; 0x15c
  66:	9957      	ldr	r1, [sp, #348]	; 0x15c
  68:	7889      	ldrb	r1, [r1, #2]
  6a:	f001 010f 	and.w	r1, r1, #15
  6e:	9a2d      	ldr	r2, [sp, #180]	; 0xb4
  70:	f882 1051 	strb.w	r1, [r2, #81]	; 0x51
/Users/Luppy/PineTime/pinetime-rust-mynewt/rust/app/src/touch_sensor.rs:117
    data.count     = 0;
  74:	992d      	ldr	r1, [sp, #180]	; 0xb4
  76:	2200      	movs	r2, #0
  78:	f881 2050 	strb.w	r2, [r1, #80]	; 0x50
/Users/Luppy/PineTime/pinetime-rust-mynewt/rust/app/src/touch_sensor.rs:120

    //  Populate the first 5 touch points
    for i in 0..CFG_MAX_TOUCH_POINTS {
  7c:	9258      	str	r2, [sp, #352]	; 0x160
  7e:	2105      	movs	r1, #5
  80:	9159      	str	r1, [sp, #356]	; 0x164
  82:	9958      	ldr	r1, [sp, #352]	; 0x160
  84:	9a59      	ldr	r2, [sp, #356]	; 0x164
  86:	9028      	str	r0, [sp, #160]	; 0xa0
  88:	4608      	mov	r0, r1
  8a:	4611      	mov	r1, r2
  8c:	f7ff fffe 	bl	0 <_ZN63_$LT$I$u20$as$u20$core..iter..traits..collect..IntoIterator$GT$9into_iter17hf288b23b2608be52E>
  90:	9027      	str	r0, [sp, #156]	; 0x9c
  92:	9126      	str	r1, [sp, #152]	; 0x98
  94:	e7ff      	b.n	96 <_ZN3app12touch_sensor14read_touchdata17hb195805fc80c394dE+0x96>
  96:	9827      	ldr	r0, [sp, #156]	; 0x9c
  98:	905a      	str	r0, [sp, #360]	; 0x168
  9a:	9926      	ldr	r1, [sp, #152]	; 0x98
  9c:	915b      	str	r1, [sp, #364]	; 0x16c
  9e:	e7ff      	b.n	a0 <_ZN3app12touch_sensor14read_touchdata17hb195805fc80c394dE+0xa0>
  a0:	a85a      	add	r0, sp, #360	; 0x168
  a2:	f7ff fffe 	bl	0 <_ZN4core4iter5range101_$LT$impl$u20$core..iter..traits..iterator..Iterator$u20$for$u20$core..ops..range..Range$LT$A$GT$$GT$4next17h8f3bd0cd949cd295E>
  a6:	915e      	str	r1, [sp, #376]	; 0x178
  a8:	905d      	str	r0, [sp, #372]	; 0x174
  aa:	e7ff      	b.n	ac <_ZN3app12touch_sensor14read_touchdata17hb195805fc80c394dE+0xac>
  ac:	985d      	ldr	r0, [sp, #372]	; 0x174
  ae:	2800      	cmp	r0, #0
  b0:	d001      	beq.n	b6 <_ZN3app12touch_sensor14read_touchdata17hb195805fc80c394dE+0xb6>
  b2:	e7ff      	b.n	b4 <_ZN3app12touch_sensor14read_touchdata17hb195805fc80c394dE+0xb4>
  b4:	e001      	b.n	ba <_ZN3app12touch_sensor14read_touchdata17hb195805fc80c394dE+0xba>
  b6:	e014      	b.n	e2 <_ZN3app12touch_sensor14read_touchdata17hb195805fc80c394dE+0xe2>
  b8:	defe      	udf	#254	; 0xfe
  ba:	985e      	ldr	r0, [sp, #376]	; 0x178
  bc:	905f      	str	r0, [sp, #380]	; 0x17c
  be:	985f      	ldr	r0, [sp, #380]	; 0x17c
  c0:	905c      	str	r0, [sp, #368]	; 0x170
  c2:	985c      	ldr	r0, [sp, #368]	; 0x170
  c4:	9060      	str	r0, [sp, #384]	; 0x180
/Users/Luppy/PineTime/pinetime-rust-mynewt/rust/app/src/touch_sensor.rs:121
        let pointid = unsafe { buf[HYN_TOUCH_ID_POS + HYN_TOUCH_STEP * i] } >> 4;
  c6:	f240 0000 	movw	r0, #0
  ca:	f2c0 0000 	movt	r0, #0
  ce:	9062      	str	r0, [sp, #392]	; 0x188
  d0:	9860      	ldr	r0, [sp, #384]	; 0x180
  d2:	2106      	movs	r1, #6
  d4:	fba1 0100 	umull	r0, r1, r1, r0
  d8:	2900      	cmp	r1, #0
  da:	9025      	str	r0, [sp, #148]	; 0x94
  dc:	f040 81d6 	bne.w	48c <_ZN3app12touch_sensor14read_touchdata17hb195805fc80c394dE+0x48c>
  e0:	e002      	b.n	e8 <_ZN3app12touch_sensor14read_touchdata17hb195805fc80c394dE+0xe8>
  e2:	2001      	movs	r0, #1
/Users/Luppy/PineTime/pinetime-rust-mynewt/rust/app/src/touch_sensor.rs:153
            && (data.point_num == 0) {
            break;
        }
    }
    Ok(())
}
  e4:	b070      	add	sp, #448	; 0x1c0
  e6:	bd80      	pop	{r7, pc}
/Users/Luppy/PineTime/pinetime-rust-mynewt/rust/app/src/touch_sensor.rs:121
        let pointid = unsafe { buf[HYN_TOUCH_ID_POS + HYN_TOUCH_STEP * i] } >> 4;
  e8:	9825      	ldr	r0, [sp, #148]	; 0x94
  ea:	1d41      	adds	r1, r0, #5
  ec:	460a      	mov	r2, r1
  ee:	4281      	cmp	r1, r0
  f0:	9224      	str	r2, [sp, #144]	; 0x90
  f2:	f0c0 81d7 	bcc.w	4a4 <_ZN3app12touch_sensor14read_touchdata17hb195805fc80c394dE+0x4a4>
  f6:	e7ff      	b.n	f8 <_ZN3app12touch_sensor14read_touchdata17hb195805fc80c394dE+0xf8>
  f8:	9824      	ldr	r0, [sp, #144]	; 0x90
  fa:	283e      	cmp	r0, #62	; 0x3e
  fc:	f200 81de 	bhi.w	4bc <_ZN3app12touch_sensor14read_touchdata17hb195805fc80c394dE+0x4bc>
 100:	e7ff      	b.n	102 <_ZN3app12touch_sensor14read_touchdata17hb195805fc80c394dE+0x102>
 102:	9862      	ldr	r0, [sp, #392]	; 0x188
 104:	9924      	ldr	r1, [sp, #144]	; 0x90
 106:	5c40      	ldrb	r0, [r0, r1]
 108:	0900      	lsrs	r0, r0, #4
 10a:	9023      	str	r0, [sp, #140]	; 0x8c
 10c:	e7ff      	b.n	10e <_ZN3app12touch_sensor14read_touchdata17hb195805fc80c394dE+0x10e>
 10e:	9823      	ldr	r0, [sp, #140]	; 0x8c
 110:	f88d 0187 	strb.w	r0, [sp, #391]	; 0x187
/Users/Luppy/PineTime/pinetime-rust-mynewt/rust/app/src/touch_sensor.rs:122
        if pointid >= HYN_MAX_ID { break; }
 114:	f89d 1187 	ldrb.w	r1, [sp, #391]	; 0x187
 118:	290e      	cmp	r1, #14
 11a:	d80b      	bhi.n	134 <_ZN3app12touch_sensor14read_touchdata17hb195805fc80c394dE+0x134>
 11c:	e7ff      	b.n	11e <_ZN3app12touch_sensor14read_touchdata17hb195805fc80c394dE+0x11e>
/Users/Luppy/PineTime/pinetime-rust-mynewt/rust/app/src/touch_sensor.rs:125
        data.count += 1;
 11e:	982d      	ldr	r0, [sp, #180]	; 0xb4
 120:	f890 0050 	ldrb.w	r0, [r0, #80]	; 0x50
 124:	3001      	adds	r0, #1
 126:	b2c1      	uxtb	r1, r0
 128:	4602      	mov	r2, r0
 12a:	4281      	cmp	r1, r0
 12c:	9222      	str	r2, [sp, #136]	; 0x88
 12e:	f040 81ce 	bne.w	4ce <_ZN3app12touch_sensor14read_touchdata17hb195805fc80c394dE+0x4ce>
 132:	e001      	b.n	138 <_ZN3app12touch_sensor14read_touchdata17hb195805fc80c394dE+0x138>
/Users/Luppy/PineTime/pinetime-rust-mynewt/rust/app/src/touch_sensor.rs:122
        if pointid >= HYN_MAX_ID { break; }
 134:	e7ff      	b.n	136 <_ZN3app12touch_sensor14read_touchdata17hb195805fc80c394dE+0x136>
 136:	e7d4      	b.n	e2 <_ZN3app12touch_sensor14read_touchdata17hb195805fc80c394dE+0xe2>
/Users/Luppy/PineTime/pinetime-rust-mynewt/rust/app/src/touch_sensor.rs:125
        data.count += 1;
 138:	982d      	ldr	r0, [sp, #180]	; 0xb4
 13a:	9922      	ldr	r1, [sp, #136]	; 0x88
 13c:	f880 1050 	strb.w	r1, [r0, #80]	; 0x50
/Users/Luppy/PineTime/pinetime-rust-mynewt/rust/app/src/touch_sensor.rs:126
        let x_high = unsafe { buf[HYN_TOUCH_X_H_POS + HYN_TOUCH_STEP * i] & 0x0F } as u16;
 140:	f240 0000 	movw	r0, #0
 144:	f2c0 0000 	movt	r0, #0
 148:	9064      	str	r0, [sp, #400]	; 0x190
 14a:	9860      	ldr	r0, [sp, #384]	; 0x180
 14c:	2206      	movs	r2, #6
 14e:	fba2 0200 	umull	r0, r2, r2, r0
 152:	2a00      	cmp	r2, #0
 154:	9021      	str	r0, [sp, #132]	; 0x84
 156:	f040 81c6 	bne.w	4e6 <_ZN3app12touch_sensor14read_touchdata17hb195805fc80c394dE+0x4e6>
 15a:	e7ff      	b.n	15c <_ZN3app12touch_sensor14read_touchdata17hb195805fc80c394dE+0x15c>
 15c:	9821      	ldr	r0, [sp, #132]	; 0x84
 15e:	1cc1      	adds	r1, r0, #3
 160:	460a      	mov	r2, r1
 162:	4281      	cmp	r1, r0
 164:	9220      	str	r2, [sp, #128]	; 0x80
 166:	f0c0 81ca 	bcc.w	4fe <_ZN3app12touch_sensor14read_touchdata17hb195805fc80c394dE+0x4fe>
 16a:	e7ff      	b.n	16c <_ZN3app12touch_sensor14read_touchdata17hb195805fc80c394dE+0x16c>
 16c:	9820      	ldr	r0, [sp, #128]	; 0x80
 16e:	283e      	cmp	r0, #62	; 0x3e
 170:	f200 81d1 	bhi.w	516 <_ZN3app12touch_sensor14read_touchdata17hb195805fc80c394dE+0x516>
 174:	e7ff      	b.n	176 <_ZN3app12touch_sensor14read_touchdata17hb195805fc80c394dE+0x176>
 176:	9864      	ldr	r0, [sp, #400]	; 0x190
 178:	9920      	ldr	r1, [sp, #128]	; 0x80
 17a:	5c40      	ldrb	r0, [r0, r1]
 17c:	f000 000f 	and.w	r0, r0, #15
 180:	f8ad 018e 	strh.w	r0, [sp, #398]	; 0x18e
/Users/Luppy/PineTime/pinetime-rust-mynewt/rust/app/src/touch_sensor.rs:127
        let x_low  = unsafe { buf[HYN_TOUCH_X_L_POS + HYN_TOUCH_STEP * i] } as u16;
 184:	f240 0000 	movw	r0, #0
 188:	f2c0 0000 	movt	r0, #0
 18c:	9066      	str	r0, [sp, #408]	; 0x198
 18e:	9860      	ldr	r0, [sp, #384]	; 0x180
 190:	2206      	movs	r2, #6
 192:	fba2 0200 	umull	r0, r2, r2, r0
 196:	2a00      	cmp	r2, #0
 198:	901f      	str	r0, [sp, #124]	; 0x7c
 19a:	f040 81c5 	bne.w	528 <_ZN3app12touch_sensor14read_touchdata17hb195805fc80c394dE+0x528>
 19e:	e7ff      	b.n	1a0 <_ZN3app12touch_sensor14read_touchdata17hb195805fc80c394dE+0x1a0>
 1a0:	981f      	ldr	r0, [sp, #124]	; 0x7c
 1a2:	1d01      	adds	r1, r0, #4
 1a4:	460a      	mov	r2, r1
 1a6:	4281      	cmp	r1, r0
 1a8:	921e      	str	r2, [sp, #120]	; 0x78
 1aa:	f0c0 81c9 	bcc.w	540 <_ZN3app12touch_sensor14read_touchdata17hb195805fc80c394dE+0x540>
 1ae:	e7ff      	b.n	1b0 <_ZN3app12touch_sensor14read_touchdata17hb195805fc80c394dE+0x1b0>
 1b0:	981e      	ldr	r0, [sp, #120]	; 0x78
 1b2:	283e      	cmp	r0, #62	; 0x3e
 1b4:	f200 81d0 	bhi.w	558 <_ZN3app12touch_sensor14read_touchdata17hb195805fc80c394dE+0x558>
 1b8:	e7ff      	b.n	1ba <_ZN3app12touch_sensor14read_touchdata17hb195805fc80c394dE+0x1ba>
 1ba:	9866      	ldr	r0, [sp, #408]	; 0x198
 1bc:	991e      	ldr	r1, [sp, #120]	; 0x78
 1be:	5c40      	ldrb	r0, [r0, r1]
 1c0:	f8ad 0196 	strh.w	r0, [sp, #406]	; 0x196
/Users/Luppy/PineTime/pinetime-rust-mynewt/rust/app/src/touch_sensor.rs:128
        data.touches[i].x  = (x_high << 8) | x_low;
 1c4:	f8bd 018e 	ldrh.w	r0, [sp, #398]	; 0x18e
 1c8:	0200      	lsls	r0, r0, #8
 1ca:	901d      	str	r0, [sp, #116]	; 0x74
 1cc:	e7ff      	b.n	1ce <_ZN3app12touch_sensor14read_touchdata17hb195805fc80c394dE+0x1ce>
 1ce:	f8bd 0196 	ldrh.w	r0, [sp, #406]	; 0x196
 1d2:	9960      	ldr	r1, [sp, #384]	; 0x180
 1d4:	2909      	cmp	r1, #9
 1d6:	901c      	str	r0, [sp, #112]	; 0x70
 1d8:	911b      	str	r1, [sp, #108]	; 0x6c
 1da:	f200 81c6 	bhi.w	56a <_ZN3app12touch_sensor14read_touchdata17hb195805fc80c394dE+0x56a>
 1de:	e7ff      	b.n	1e0 <_ZN3app12touch_sensor14read_touchdata17hb195805fc80c394dE+0x1e0>
 1e0:	982d      	ldr	r0, [sp, #180]	; 0xb4
 1e2:	991d      	ldr	r1, [sp, #116]	; 0x74
 1e4:	9a1c      	ldr	r2, [sp, #112]	; 0x70
 1e6:	ea41 0302 	orr.w	r3, r1, r2
 1ea:	f8dd c06c 	ldr.w	ip, [sp, #108]	; 0x6c
 1ee:	f820 303c 	strh.w	r3, [r0, ip, lsl #3]
/Users/Luppy/PineTime/pinetime-rust-mynewt/rust/app/src/touch_sensor.rs:130
        let y_high = unsafe { buf[HYN_TOUCH_Y_H_POS + HYN_TOUCH_STEP * i] & 0x0F } as u16;
 1f2:	f240 0000 	movw	r0, #0
 1f6:	f2c0 0000 	movt	r0, #0
 1fa:	9068      	str	r0, [sp, #416]	; 0x1a0
 1fc:	9860      	ldr	r0, [sp, #384]	; 0x180
 1fe:	2306      	movs	r3, #6
 200:	fba3 0300 	umull	r0, r3, r3, r0
 204:	2b00      	cmp	r3, #0
 206:	901a      	str	r0, [sp, #104]	; 0x68
 208:	f040 81b8 	bne.w	57c <_ZN3app12touch_sensor14read_touchdata17hb195805fc80c394dE+0x57c>
 20c:	e7ff      	b.n	20e <_ZN3app12touch_sensor14read_touchdata17hb195805fc80c394dE+0x20e>
 20e:	981a      	ldr	r0, [sp, #104]	; 0x68
 210:	1d41      	adds	r1, r0, #5
 212:	460a      	mov	r2, r1
 214:	4281      	cmp	r1, r0
 216:	9219      	str	r2, [sp, #100]	; 0x64
 218:	f0c0 81bc 	bcc.w	594 <_ZN3app12touch_sensor14read_touchdata17hb195805fc80c394dE+0x594>
 21c:	e7ff      	b.n	21e <_ZN3app12touch_sensor14read_touchdata17hb195805fc80c394dE+0x21e>
 21e:	9819      	ldr	r0, [sp, #100]	; 0x64
 220:	283e      	cmp	r0, #62	; 0x3e
 222:	f200 81c3 	bhi.w	5ac <_ZN3app12touch_sensor14read_touchdata17hb195805fc80c394dE+0x5ac>
 226:	e7ff      	b.n	228 <_ZN3app12touch_sensor14read_touchdata17hb195805fc80c394dE+0x228>
 228:	9868      	ldr	r0, [sp, #416]	; 0x1a0
 22a:	9919      	ldr	r1, [sp, #100]	; 0x64
 22c:	5c40      	ldrb	r0, [r0, r1]
 22e:	f000 000f 	and.w	r0, r0, #15
 232:	f8ad 019e 	strh.w	r0, [sp, #414]	; 0x19e
/Users/Luppy/PineTime/pinetime-rust-mynewt/rust/app/src/touch_sensor.rs:131
        let y_low  = unsafe { buf[HYN_TOUCH_Y_L_POS + HYN_TOUCH_STEP * i] } as u16;
 236:	f240 0000 	movw	r0, #0
 23a:	f2c0 0000 	movt	r0, #0
 23e:	906a      	str	r0, [sp, #424]	; 0x1a8
 240:	9860      	ldr	r0, [sp, #384]	; 0x180
 242:	2206      	movs	r2, #6
 244:	fba2 0200 	umull	r0, r2, r2, r0
 248:	2a00      	cmp	r2, #0
 24a:	9018      	str	r0, [sp, #96]	; 0x60
 24c:	f040 81b7 	bne.w	5be <_ZN3app12touch_sensor14read_touchdata17hb195805fc80c394dE+0x5be>
 250:	e7ff      	b.n	252 <_ZN3app12touch_sensor14read_touchdata17hb195805fc80c394dE+0x252>
 252:	9818      	ldr	r0, [sp, #96]	; 0x60
 254:	1d81      	adds	r1, r0, #6
 256:	460a      	mov	r2, r1
 258:	4281      	cmp	r1, r0
 25a:	9217      	str	r2, [sp, #92]	; 0x5c
 25c:	f0c0 81bb 	bcc.w	5d6 <_ZN3app12touch_sensor14read_touchdata17hb195805fc80c394dE+0x5d6>
 260:	e7ff      	b.n	262 <_ZN3app12touch_sensor14read_touchdata17hb195805fc80c394dE+0x262>
 262:	9817      	ldr	r0, [sp, #92]	; 0x5c
 264:	283e      	cmp	r0, #62	; 0x3e
 266:	f200 81c2 	bhi.w	5ee <_ZN3app12touch_sensor14read_touchdata17hb195805fc80c394dE+0x5ee>
 26a:	e7ff      	b.n	26c <_ZN3app12touch_sensor14read_touchdata17hb195805fc80c394dE+0x26c>
 26c:	986a      	ldr	r0, [sp, #424]	; 0x1a8
 26e:	9917      	ldr	r1, [sp, #92]	; 0x5c
 270:	5c40      	ldrb	r0, [r0, r1]
 272:	f8ad 01a6 	strh.w	r0, [sp, #422]	; 0x1a6
/Users/Luppy/PineTime/pinetime-rust-mynewt/rust/app/src/touch_sensor.rs:132
        data.touches[i].y  = (y_high << 8) | y_low;
 276:	f8bd 019e 	ldrh.w	r0, [sp, #414]	; 0x19e
 27a:	0200      	lsls	r0, r0, #8
 27c:	9016      	str	r0, [sp, #88]	; 0x58
 27e:	e7ff      	b.n	280 <_ZN3app12touch_sensor14read_touchdata17hb195805fc80c394dE+0x280>
 280:	f8bd 01a6 	ldrh.w	r0, [sp, #422]	; 0x1a6
 284:	9960      	ldr	r1, [sp, #384]	; 0x180
 286:	2909      	cmp	r1, #9
 288:	9015      	str	r0, [sp, #84]	; 0x54
 28a:	9114      	str	r1, [sp, #80]	; 0x50
 28c:	f200 81b8 	bhi.w	600 <_ZN3app12touch_sensor14read_touchdata17hb195805fc80c394dE+0x600>
 290:	e7ff      	b.n	292 <_ZN3app12touch_sensor14read_touchdata17hb195805fc80c394dE+0x292>
 292:	982d      	ldr	r0, [sp, #180]	; 0xb4
 294:	9914      	ldr	r1, [sp, #80]	; 0x50
 296:	eb00 00c1 	add.w	r0, r0, r1, lsl #3
 29a:	9a16      	ldr	r2, [sp, #88]	; 0x58
 29c:	9b15      	ldr	r3, [sp, #84]	; 0x54
 29e:	ea42 0c03 	orr.w	ip, r2, r3
 2a2:	f8a0 c002 	strh.w	ip, [r0, #2]
/Users/Luppy/PineTime/pinetime-rust-mynewt/rust/app/src/touch_sensor.rs:136
            unsafe { buf[HYN_TOUCH_EVENT_POS + HYN_TOUCH_STEP * i] } >> 6;
 2a6:	f240 0000 	movw	r0, #0
 2aa:	f2c0 0000 	movt	r0, #0
 2ae:	906b      	str	r0, [sp, #428]	; 0x1ac
 2b0:	9860      	ldr	r0, [sp, #384]	; 0x180
 2b2:	f04f 0c06 	mov.w	ip, #6
 2b6:	fbac 0c00 	umull	r0, ip, ip, r0
 2ba:	f1bc 0f00 	cmp.w	ip, #0
 2be:	9013      	str	r0, [sp, #76]	; 0x4c
 2c0:	f040 81a7 	bne.w	612 <_ZN3app12touch_sensor14read_touchdata17hb195805fc80c394dE+0x612>
 2c4:	e7ff      	b.n	2c6 <_ZN3app12touch_sensor14read_touchdata17hb195805fc80c394dE+0x2c6>
 2c6:	9813      	ldr	r0, [sp, #76]	; 0x4c
 2c8:	1cc1      	adds	r1, r0, #3
 2ca:	460a      	mov	r2, r1
 2cc:	4281      	cmp	r1, r0
 2ce:	9212      	str	r2, [sp, #72]	; 0x48
 2d0:	f0c0 81ab 	bcc.w	62a <_ZN3app12touch_sensor14read_touchdata17hb195805fc80c394dE+0x62a>
 2d4:	e7ff      	b.n	2d6 <_ZN3app12touch_sensor14read_touchdata17hb195805fc80c394dE+0x2d6>
 2d6:	9812      	ldr	r0, [sp, #72]	; 0x48
 2d8:	283e      	cmp	r0, #62	; 0x3e
 2da:	f200 81b2 	bhi.w	642 <_ZN3app12touch_sensor14read_touchdata17hb195805fc80c394dE+0x642>
 2de:	e7ff      	b.n	2e0 <_ZN3app12touch_sensor14read_touchdata17hb195805fc80c394dE+0x2e0>
 2e0:	986b      	ldr	r0, [sp, #428]	; 0x1ac
 2e2:	9912      	ldr	r1, [sp, #72]	; 0x48
 2e4:	5c40      	ldrb	r0, [r0, r1]
 2e6:	0980      	lsrs	r0, r0, #6
 2e8:	9011      	str	r0, [sp, #68]	; 0x44
 2ea:	e7ff      	b.n	2ec <_ZN3app12touch_sensor14read_touchdata17hb195805fc80c394dE+0x2ec>
/Users/Luppy/PineTime/pinetime-rust-mynewt/rust/app/src/touch_sensor.rs:135
        data.touches[i].action =
 2ec:	9860      	ldr	r0, [sp, #384]	; 0x180
 2ee:	2809      	cmp	r0, #9
 2f0:	9010      	str	r0, [sp, #64]	; 0x40
 2f2:	f200 81af 	bhi.w	654 <_ZN3app12touch_sensor14read_touchdata17hb195805fc80c394dE+0x654>
 2f6:	e7ff      	b.n	2f8 <_ZN3app12touch_sensor14read_touchdata17hb195805fc80c394dE+0x2f8>
 2f8:	982d      	ldr	r0, [sp, #180]	; 0xb4
 2fa:	9910      	ldr	r1, [sp, #64]	; 0x40
 2fc:	eb00 00c1 	add.w	r0, r0, r1, lsl #3
 300:	9a11      	ldr	r2, [sp, #68]	; 0x44
 302:	7102      	strb	r2, [r0, #4]
/Users/Luppy/PineTime/pinetime-rust-mynewt/rust/app/src/touch_sensor.rs:138
            unsafe { buf[HYN_TOUCH_ID_POS    + HYN_TOUCH_STEP * i] } >> 4;
 304:	f240 0000 	movw	r0, #0
 308:	f2c0 0000 	movt	r0, #0
 30c:	906c      	str	r0, [sp, #432]	; 0x1b0
 30e:	9860      	ldr	r0, [sp, #384]	; 0x180
 310:	2306      	movs	r3, #6
 312:	fba3 0300 	umull	r0, r3, r3, r0
 316:	2b00      	cmp	r3, #0
 318:	900f      	str	r0, [sp, #60]	; 0x3c
 31a:	f040 81a4 	bne.w	666 <_ZN3app12touch_sensor14read_touchdata17hb195805fc80c394dE+0x666>
 31e:	e7ff      	b.n	320 <_ZN3app12touch_sensor14read_touchdata17hb195805fc80c394dE+0x320>
 320:	980f      	ldr	r0, [sp, #60]	; 0x3c
 322:	1d41      	adds	r1, r0, #5
 324:	460a      	mov	r2, r1
 326:	4281      	cmp	r1, r0
 328:	920e      	str	r2, [sp, #56]	; 0x38
 32a:	f0c0 81a8 	bcc.w	67e <_ZN3app12touch_sensor14read_touchdata17hb195805fc80c394dE+0x67e>
 32e:	e7ff      	b.n	330 <_ZN3app12touch_sensor14read_touchdata17hb195805fc80c394dE+0x330>
 330:	980e      	ldr	r0, [sp, #56]	; 0x38
 332:	283e      	cmp	r0, #62	; 0x3e
 334:	f200 81af 	bhi.w	696 <_ZN3app12touch_sensor14read_touchdata17hb195805fc80c394dE+0x696>
 338:	e7ff      	b.n	33a <_ZN3app12touch_sensor14read_touchdata17hb195805fc80c394dE+0x33a>
 33a:	986c      	ldr	r0, [sp, #432]	; 0x1b0
 33c:	990e      	ldr	r1, [sp, #56]	; 0x38
 33e:	5c40      	ldrb	r0, [r0, r1]
 340:	0900      	lsrs	r0, r0, #4
 342:	900d      	str	r0, [sp, #52]	; 0x34
 344:	e7ff      	b.n	346 <_ZN3app12touch_sensor14read_touchdata17hb195805fc80c394dE+0x346>
/Users/Luppy/PineTime/pinetime-rust-mynewt/rust/app/src/touch_sensor.rs:137
        data.touches[i].finger =
 346:	9860      	ldr	r0, [sp, #384]	; 0x180
 348:	2809      	cmp	r0, #9
 34a:	900c      	str	r0, [sp, #48]	; 0x30
 34c:	f200 81ac 	bhi.w	6a8 <_ZN3app12touch_sensor14read_touchdata17hb195805fc80c394dE+0x6a8>
 350:	e7ff      	b.n	352 <_ZN3app12touch_sensor14read_touchdata17hb195805fc80c394dE+0x352>
 352:	982d      	ldr	r0, [sp, #180]	; 0xb4
 354:	990c      	ldr	r1, [sp, #48]	; 0x30
 356:	eb00 00c1 	add.w	r0, r0, r1, lsl #3
 35a:	9a0d      	ldr	r2, [sp, #52]	; 0x34
 35c:	7142      	strb	r2, [r0, #5]
/Users/Luppy/PineTime/pinetime-rust-mynewt/rust/app/src/touch_sensor.rs:142
            unsafe { buf[HYN_TOUCH_XY_POS + HYN_TOUCH_STEP * i] };  //  Can't be constant value
 35e:	f240 0000 	movw	r0, #0
 362:	f2c0 0000 	movt	r0, #0
 366:	906d      	str	r0, [sp, #436]	; 0x1b4
 368:	9860      	ldr	r0, [sp, #384]	; 0x180
 36a:	2306      	movs	r3, #6
 36c:	fba3 0300 	umull	r0, r3, r3, r0
 370:	2b00      	cmp	r3, #0
 372:	900b      	str	r0, [sp, #44]	; 0x2c
 374:	f040 81a1 	bne.w	6ba <_ZN3app12touch_sensor14read_touchdata17hb195805fc80c394dE+0x6ba>
 378:	e7ff      	b.n	37a <_ZN3app12touch_sensor14read_touchdata17hb195805fc80c394dE+0x37a>
 37a:	980b      	ldr	r0, [sp, #44]	; 0x2c
 37c:	1dc1      	adds	r1, r0, #7
 37e:	460a      	mov	r2, r1
 380:	4281      	cmp	r1, r0
 382:	920a      	str	r2, [sp, #40]	; 0x28
 384:	f0c0 81a5 	bcc.w	6d2 <_ZN3app12touch_sensor14read_touchdata17hb195805fc80c394dE+0x6d2>
 388:	e7ff      	b.n	38a <_ZN3app12touch_sensor14read_touchdata17hb195805fc80c394dE+0x38a>
 38a:	980a      	ldr	r0, [sp, #40]	; 0x28
 38c:	283e      	cmp	r0, #62	; 0x3e
 38e:	f200 81ac 	bhi.w	6ea <_ZN3app12touch_sensor14read_touchdata17hb195805fc80c394dE+0x6ea>
 392:	e7ff      	b.n	394 <_ZN3app12touch_sensor14read_touchdata17hb195805fc80c394dE+0x394>
 394:	986d      	ldr	r0, [sp, #436]	; 0x1b4
 396:	990a      	ldr	r1, [sp, #40]	; 0x28
 398:	5c40      	ldrb	r0, [r0, r1]
/Users/Luppy/PineTime/pinetime-rust-mynewt/rust/app/src/touch_sensor.rs:141
        data.touches[i].pressure =
 39a:	9a60      	ldr	r2, [sp, #384]	; 0x180
 39c:	2a09      	cmp	r2, #9
 39e:	9009      	str	r0, [sp, #36]	; 0x24
 3a0:	9208      	str	r2, [sp, #32]
 3a2:	f200 81ab 	bhi.w	6fc <_ZN3app12touch_sensor14read_touchdata17hb195805fc80c394dE+0x6fc>
 3a6:	e7ff      	b.n	3a8 <_ZN3app12touch_sensor14read_touchdata17hb195805fc80c394dE+0x3a8>
 3a8:	982d      	ldr	r0, [sp, #180]	; 0xb4
 3aa:	9908      	ldr	r1, [sp, #32]
 3ac:	eb00 00c1 	add.w	r0, r0, r1, lsl #3
 3b0:	9a09      	ldr	r2, [sp, #36]	; 0x24
 3b2:	7182      	strb	r2, [r0, #6]
/Users/Luppy/PineTime/pinetime-rust-mynewt/rust/app/src/touch_sensor.rs:144
            unsafe { buf[HYN_TOUCH_MISC   + HYN_TOUCH_STEP * i] } >> 4;
 3b4:	f240 0000 	movw	r0, #0
 3b8:	f2c0 0000 	movt	r0, #0
 3bc:	906e      	str	r0, [sp, #440]	; 0x1b8
 3be:	9860      	ldr	r0, [sp, #384]	; 0x180
 3c0:	2306      	movs	r3, #6
 3c2:	fba3 0300 	umull	r0, r3, r3, r0
 3c6:	2b00      	cmp	r3, #0
 3c8:	9007      	str	r0, [sp, #28]
 3ca:	f040 81a0 	bne.w	70e <_ZN3app12touch_sensor14read_touchdata17hb195805fc80c394dE+0x70e>
 3ce:	e7ff      	b.n	3d0 <_ZN3app12touch_sensor14read_touchdata17hb195805fc80c394dE+0x3d0>
 3d0:	9807      	ldr	r0, [sp, #28]
 3d2:	f100 0108 	add.w	r1, r0, #8
 3d6:	460a      	mov	r2, r1
 3d8:	4281      	cmp	r1, r0
 3da:	9206      	str	r2, [sp, #24]
 3dc:	f0c0 81a3 	bcc.w	726 <_ZN3app12touch_sensor14read_touchdata17hb195805fc80c394dE+0x726>
 3e0:	e7ff      	b.n	3e2 <_ZN3app12touch_sensor14read_touchdata17hb195805fc80c394dE+0x3e2>
 3e2:	9806      	ldr	r0, [sp, #24]
 3e4:	283e      	cmp	r0, #62	; 0x3e
 3e6:	f200 81aa 	bhi.w	73e <_ZN3app12touch_sensor14read_touchdata17hb195805fc80c394dE+0x73e>
 3ea:	e7ff      	b.n	3ec <_ZN3app12touch_sensor14read_touchdata17hb195805fc80c394dE+0x3ec>
 3ec:	986e      	ldr	r0, [sp, #440]	; 0x1b8
 3ee:	9906      	ldr	r1, [sp, #24]
 3f0:	5c40      	ldrb	r0, [r0, r1]
 3f2:	0900      	lsrs	r0, r0, #4
 3f4:	9005      	str	r0, [sp, #20]
 3f6:	e7ff      	b.n	3f8 <_ZN3app12touch_sensor14read_touchdata17hb195805fc80c394dE+0x3f8>
/Users/Luppy/PineTime/pinetime-rust-mynewt/rust/app/src/touch_sensor.rs:143
        data.touches[i].area =
 3f8:	9860      	ldr	r0, [sp, #384]	; 0x180
 3fa:	2809      	cmp	r0, #9
 3fc:	9004      	str	r0, [sp, #16]
 3fe:	f200 81a7 	bhi.w	750 <_ZN3app12touch_sensor14read_touchdata17hb195805fc80c394dE+0x750>
 402:	e7ff      	b.n	404 <_ZN3app12touch_sensor14read_touchdata17hb195805fc80c394dE+0x404>
 404:	982d      	ldr	r0, [sp, #180]	; 0xb4
 406:	9904      	ldr	r1, [sp, #16]
 408:	eb00 00c1 	add.w	r0, r0, r1, lsl #3
 40c:	9a05      	ldr	r2, [sp, #20]
 40e:	71c2      	strb	r2, [r0, #7]
/Users/Luppy/PineTime/pinetime-rust-mynewt/rust/app/src/touch_sensor.rs:147
        if (data.touches[i].action == 0 || data.touches[i].action == 2)  //  If touch is down or contact
 410:	9860      	ldr	r0, [sp, #384]	; 0x180
 412:	280a      	cmp	r0, #10
 414:	9003      	str	r0, [sp, #12]
 416:	d327      	bcc.n	468 <_ZN3app12touch_sensor14read_touchdata17hb195805fc80c394dE+0x468>
 418:	e1a3      	b.n	762 <_ZN3app12touch_sensor14read_touchdata17hb195805fc80c394dE+0x762>
 41a:	2001      	movs	r0, #1
 41c:	f88d 01be 	strb.w	r0, [sp, #446]	; 0x1be
 420:	e009      	b.n	436 <_ZN3app12touch_sensor14read_touchdata17hb195805fc80c394dE+0x436>
 422:	2000      	movs	r0, #0
 424:	f88d 01be 	strb.w	r0, [sp, #446]	; 0x1be
 428:	e005      	b.n	436 <_ZN3app12touch_sensor14read_touchdata17hb195805fc80c394dE+0x436>
/Users/Luppy/PineTime/pinetime-rust-mynewt/rust/app/src/touch_sensor.rs:148
            && (data.point_num == 0) {
 42a:	982d      	ldr	r0, [sp, #180]	; 0xb4
 42c:	f890 0051 	ldrb.w	r0, [r0, #81]	; 0x51
/Users/Luppy/PineTime/pinetime-rust-mynewt/rust/app/src/touch_sensor.rs:147
        if (data.touches[i].action == 0 || data.touches[i].action == 2)  //  If touch is down or contact
 430:	2800      	cmp	r0, #0
 432:	d0f2      	beq.n	41a <_ZN3app12touch_sensor14read_touchdata17hb195805fc80c394dE+0x41a>
 434:	e7f5      	b.n	422 <_ZN3app12touch_sensor14read_touchdata17hb195805fc80c394dE+0x422>
 436:	f89d 01be 	ldrb.w	r0, [sp, #446]	; 0x1be
 43a:	07c0      	lsls	r0, r0, #31
 43c:	2800      	cmp	r0, #0
 43e:	d124      	bne.n	48a <_ZN3app12touch_sensor14read_touchdata17hb195805fc80c394dE+0x48a>
 440:	e022      	b.n	488 <_ZN3app12touch_sensor14read_touchdata17hb195805fc80c394dE+0x488>
 442:	2001      	movs	r0, #1
 444:	f88d 01bf 	strb.w	r0, [sp, #447]	; 0x1bf
 448:	e008      	b.n	45c <_ZN3app12touch_sensor14read_touchdata17hb195805fc80c394dE+0x45c>
 44a:	2000      	movs	r0, #0
 44c:	f88d 01bf 	strb.w	r0, [sp, #447]	; 0x1bf
 450:	e004      	b.n	45c <_ZN3app12touch_sensor14read_touchdata17hb195805fc80c394dE+0x45c>
 452:	9860      	ldr	r0, [sp, #384]	; 0x180
 454:	280a      	cmp	r0, #10
 456:	9002      	str	r0, [sp, #8]
 458:	d30e      	bcc.n	478 <_ZN3app12touch_sensor14read_touchdata17hb195805fc80c394dE+0x478>
 45a:	e18b      	b.n	774 <_ZN3app12touch_sensor14read_touchdata17hb195805fc80c394dE+0x774>
 45c:	f89d 01bf 	ldrb.w	r0, [sp, #447]	; 0x1bf
 460:	07c0      	lsls	r0, r0, #31
 462:	2800      	cmp	r0, #0
 464:	d1e1      	bne.n	42a <_ZN3app12touch_sensor14read_touchdata17hb195805fc80c394dE+0x42a>
 466:	e7dc      	b.n	422 <_ZN3app12touch_sensor14read_touchdata17hb195805fc80c394dE+0x422>
 468:	982d      	ldr	r0, [sp, #180]	; 0xb4
 46a:	9903      	ldr	r1, [sp, #12]
 46c:	eb00 00c1 	add.w	r0, r0, r1, lsl #3
 470:	7900      	ldrb	r0, [r0, #4]
 472:	2800      	cmp	r0, #0
 474:	d0e5      	beq.n	442 <_ZN3app12touch_sensor14read_touchdata17hb195805fc80c394dE+0x442>
 476:	e7ec      	b.n	452 <_ZN3app12touch_sensor14read_touchdata17hb195805fc80c394dE+0x452>
 478:	982d      	ldr	r0, [sp, #180]	; 0xb4
 47a:	9902      	ldr	r1, [sp, #8]
 47c:	eb00 00c1 	add.w	r0, r0, r1, lsl #3
 480:	7900      	ldrb	r0, [r0, #4]
 482:	2802      	cmp	r0, #2
 484:	d0dd      	beq.n	442 <_ZN3app12touch_sensor14read_touchdata17hb195805fc80c394dE+0x442>
 486:	e7e0      	b.n	44a <_ZN3app12touch_sensor14read_touchdata17hb195805fc80c394dE+0x44a>
/Users/Luppy/PineTime/pinetime-rust-mynewt/rust/app/src/touch_sensor.rs:120
    for i in 0..CFG_MAX_TOUCH_POINTS {
 488:	e60a      	b.n	a0 <_ZN3app12touch_sensor14read_touchdata17hb195805fc80c394dE+0xa0>
/Users/Luppy/PineTime/pinetime-rust-mynewt/rust/app/src/touch_sensor.rs:149
            break;
 48a:	e654      	b.n	136 <_ZN3app12touch_sensor14read_touchdata17hb195805fc80c394dE+0x136>
/Users/Luppy/PineTime/pinetime-rust-mynewt/rust/app/src/touch_sensor.rs:121
        let pointid = unsafe { buf[HYN_TOUCH_ID_POS + HYN_TOUCH_STEP * i] } >> 4;
 48c:	f240 0000 	movw	r0, #0
 490:	f2c0 0000 	movt	r0, #0
 494:	f240 0200 	movw	r2, #0
 498:	f2c0 0200 	movt	r2, #0
 49c:	2121      	movs	r1, #33	; 0x21
 49e:	f7ff fffe 	bl	0 <_ZN4core9panicking5panic17hfdd0eecc44a682f8E>
 4a2:	defe      	udf	#254	; 0xfe
 4a4:	f240 0000 	movw	r0, #0
 4a8:	f2c0 0000 	movt	r0, #0
 4ac:	f240 0200 	movw	r2, #0
 4b0:	f2c0 0200 	movt	r2, #0
 4b4:	211c      	movs	r1, #28
 4b6:	f7ff fffe 	bl	0 <_ZN4core9panicking5panic17hfdd0eecc44a682f8E>
 4ba:	defe      	udf	#254	; 0xfe
 4bc:	f240 0000 	movw	r0, #0
 4c0:	f2c0 0000 	movt	r0, #0
 4c4:	223f      	movs	r2, #63	; 0x3f
 4c6:	9924      	ldr	r1, [sp, #144]	; 0x90
 4c8:	f7ff fffe 	bl	0 <_ZN4core9panicking18panic_bounds_check17hefada55beeee1c8fE>
 4cc:	defe      	udf	#254	; 0xfe
/Users/Luppy/PineTime/pinetime-rust-mynewt/rust/app/src/touch_sensor.rs:125
        data.count += 1;
 4ce:	f240 0000 	movw	r0, #0
 4d2:	f2c0 0000 	movt	r0, #0
 4d6:	f240 0200 	movw	r2, #0
 4da:	f2c0 0200 	movt	r2, #0
 4de:	211c      	movs	r1, #28
 4e0:	f7ff fffe 	bl	0 <_ZN4core9panicking5panic17hfdd0eecc44a682f8E>
 4e4:	defe      	udf	#254	; 0xfe
/Users/Luppy/PineTime/pinetime-rust-mynewt/rust/app/src/touch_sensor.rs:126
        let x_high = unsafe { buf[HYN_TOUCH_X_H_POS + HYN_TOUCH_STEP * i] & 0x0F } as u16;
 4e6:	f240 0000 	movw	r0, #0
 4ea:	f2c0 0000 	movt	r0, #0
 4ee:	f240 0200 	movw	r2, #0
 4f2:	f2c0 0200 	movt	r2, #0
 4f6:	2121      	movs	r1, #33	; 0x21
 4f8:	f7ff fffe 	bl	0 <_ZN4core9panicking5panic17hfdd0eecc44a682f8E>
 4fc:	defe      	udf	#254	; 0xfe
 4fe:	f240 0000 	movw	r0, #0
 502:	f2c0 0000 	movt	r0, #0
 506:	f240 0200 	movw	r2, #0
 50a:	f2c0 0200 	movt	r2, #0
 50e:	211c      	movs	r1, #28
 510:	f7ff fffe 	bl	0 <_ZN4core9panicking5panic17hfdd0eecc44a682f8E>
 514:	defe      	udf	#254	; 0xfe
 516:	f240 0000 	movw	r0, #0
 51a:	f2c0 0000 	movt	r0, #0
 51e:	223f      	movs	r2, #63	; 0x3f
 520:	9920      	ldr	r1, [sp, #128]	; 0x80
 522:	f7ff fffe 	bl	0 <_ZN4core9panicking18panic_bounds_check17hefada55beeee1c8fE>
 526:	defe      	udf	#254	; 0xfe
/Users/Luppy/PineTime/pinetime-rust-mynewt/rust/app/src/touch_sensor.rs:127
        let x_low  = unsafe { buf[HYN_TOUCH_X_L_POS + HYN_TOUCH_STEP * i] } as u16;
 528:	f240 0000 	movw	r0, #0
 52c:	f2c0 0000 	movt	r0, #0
 530:	f240 0200 	movw	r2, #0
 534:	f2c0 0200 	movt	r2, #0
 538:	2121      	movs	r1, #33	; 0x21
 53a:	f7ff fffe 	bl	0 <_ZN4core9panicking5panic17hfdd0eecc44a682f8E>
 53e:	defe      	udf	#254	; 0xfe
 540:	f240 0000 	movw	r0, #0
 544:	f2c0 0000 	movt	r0, #0
 548:	f240 0200 	movw	r2, #0
 54c:	f2c0 0200 	movt	r2, #0
 550:	211c      	movs	r1, #28
 552:	f7ff fffe 	bl	0 <_ZN4core9panicking5panic17hfdd0eecc44a682f8E>
 556:	defe      	udf	#254	; 0xfe
 558:	f240 0000 	movw	r0, #0
 55c:	f2c0 0000 	movt	r0, #0
 560:	223f      	movs	r2, #63	; 0x3f
 562:	991e      	ldr	r1, [sp, #120]	; 0x78
 564:	f7ff fffe 	bl	0 <_ZN4core9panicking18panic_bounds_check17hefada55beeee1c8fE>
 568:	defe      	udf	#254	; 0xfe
/Users/Luppy/PineTime/pinetime-rust-mynewt/rust/app/src/touch_sensor.rs:128
        data.touches[i].x  = (x_high << 8) | x_low;
 56a:	f240 0000 	movw	r0, #0
 56e:	f2c0 0000 	movt	r0, #0
 572:	220a      	movs	r2, #10
 574:	991b      	ldr	r1, [sp, #108]	; 0x6c
 576:	f7ff fffe 	bl	0 <_ZN4core9panicking18panic_bounds_check17hefada55beeee1c8fE>
 57a:	defe      	udf	#254	; 0xfe
/Users/Luppy/PineTime/pinetime-rust-mynewt/rust/app/src/touch_sensor.rs:130
        let y_high = unsafe { buf[HYN_TOUCH_Y_H_POS + HYN_TOUCH_STEP * i] & 0x0F } as u16;
 57c:	f240 0000 	movw	r0, #0
 580:	f2c0 0000 	movt	r0, #0
 584:	f240 0200 	movw	r2, #0
 588:	f2c0 0200 	movt	r2, #0
 58c:	2121      	movs	r1, #33	; 0x21
 58e:	f7ff fffe 	bl	0 <_ZN4core9panicking5panic17hfdd0eecc44a682f8E>
 592:	defe      	udf	#254	; 0xfe
 594:	f240 0000 	movw	r0, #0
 598:	f2c0 0000 	movt	r0, #0
 59c:	f240 0200 	movw	r2, #0
 5a0:	f2c0 0200 	movt	r2, #0
 5a4:	211c      	movs	r1, #28
 5a6:	f7ff fffe 	bl	0 <_ZN4core9panicking5panic17hfdd0eecc44a682f8E>
 5aa:	defe      	udf	#254	; 0xfe
 5ac:	f240 0000 	movw	r0, #0
 5b0:	f2c0 0000 	movt	r0, #0
 5b4:	223f      	movs	r2, #63	; 0x3f
 5b6:	9919      	ldr	r1, [sp, #100]	; 0x64
 5b8:	f7ff fffe 	bl	0 <_ZN4core9panicking18panic_bounds_check17hefada55beeee1c8fE>
 5bc:	defe      	udf	#254	; 0xfe
/Users/Luppy/PineTime/pinetime-rust-mynewt/rust/app/src/touch_sensor.rs:131
        let y_low  = unsafe { buf[HYN_TOUCH_Y_L_POS + HYN_TOUCH_STEP * i] } as u16;
 5be:	f240 0000 	movw	r0, #0
 5c2:	f2c0 0000 	movt	r0, #0
 5c6:	f240 0200 	movw	r2, #0
 5ca:	f2c0 0200 	movt	r2, #0
 5ce:	2121      	movs	r1, #33	; 0x21
 5d0:	f7ff fffe 	bl	0 <_ZN4core9panicking5panic17hfdd0eecc44a682f8E>
 5d4:	defe      	udf	#254	; 0xfe
 5d6:	f240 0000 	movw	r0, #0
 5da:	f2c0 0000 	movt	r0, #0
 5de:	f240 0200 	movw	r2, #0
 5e2:	f2c0 0200 	movt	r2, #0
 5e6:	211c      	movs	r1, #28
 5e8:	f7ff fffe 	bl	0 <_ZN4core9panicking5panic17hfdd0eecc44a682f8E>
 5ec:	defe      	udf	#254	; 0xfe
 5ee:	f240 0000 	movw	r0, #0
 5f2:	f2c0 0000 	movt	r0, #0
 5f6:	223f      	movs	r2, #63	; 0x3f
 5f8:	9917      	ldr	r1, [sp, #92]	; 0x5c
 5fa:	f7ff fffe 	bl	0 <_ZN4core9panicking18panic_bounds_check17hefada55beeee1c8fE>
 5fe:	defe      	udf	#254	; 0xfe
/Users/Luppy/PineTime/pinetime-rust-mynewt/rust/app/src/touch_sensor.rs:132
        data.touches[i].y  = (y_high << 8) | y_low;
 600:	f240 0000 	movw	r0, #0
 604:	f2c0 0000 	movt	r0, #0
 608:	220a      	movs	r2, #10
 60a:	9914      	ldr	r1, [sp, #80]	; 0x50
 60c:	f7ff fffe 	bl	0 <_ZN4core9panicking18panic_bounds_check17hefada55beeee1c8fE>
 610:	defe      	udf	#254	; 0xfe
/Users/Luppy/PineTime/pinetime-rust-mynewt/rust/app/src/touch_sensor.rs:136
            unsafe { buf[HYN_TOUCH_EVENT_POS + HYN_TOUCH_STEP * i] } >> 6;
 612:	f240 0000 	movw	r0, #0
 616:	f2c0 0000 	movt	r0, #0
 61a:	f240 0200 	movw	r2, #0
 61e:	f2c0 0200 	movt	r2, #0
 622:	2121      	movs	r1, #33	; 0x21
 624:	f7ff fffe 	bl	0 <_ZN4core9panicking5panic17hfdd0eecc44a682f8E>
 628:	defe      	udf	#254	; 0xfe
 62a:	f240 0000 	movw	r0, #0
 62e:	f2c0 0000 	movt	r0, #0
 632:	f240 0200 	movw	r2, #0
 636:	f2c0 0200 	movt	r2, #0
 63a:	211c      	movs	r1, #28
 63c:	f7ff fffe 	bl	0 <_ZN4core9panicking5panic17hfdd0eecc44a682f8E>
 640:	defe      	udf	#254	; 0xfe
 642:	f240 0000 	movw	r0, #0
 646:	f2c0 0000 	movt	r0, #0
 64a:	223f      	movs	r2, #63	; 0x3f
 64c:	9912      	ldr	r1, [sp, #72]	; 0x48
 64e:	f7ff fffe 	bl	0 <_ZN4core9panicking18panic_bounds_check17hefada55beeee1c8fE>
 652:	defe      	udf	#254	; 0xfe
/Users/Luppy/PineTime/pinetime-rust-mynewt/rust/app/src/touch_sensor.rs:135
        data.touches[i].action =
 654:	f240 0000 	movw	r0, #0
 658:	f2c0 0000 	movt	r0, #0
 65c:	220a      	movs	r2, #10
 65e:	9910      	ldr	r1, [sp, #64]	; 0x40
 660:	f7ff fffe 	bl	0 <_ZN4core9panicking18panic_bounds_check17hefada55beeee1c8fE>
 664:	defe      	udf	#254	; 0xfe
/Users/Luppy/PineTime/pinetime-rust-mynewt/rust/app/src/touch_sensor.rs:138
            unsafe { buf[HYN_TOUCH_ID_POS    + HYN_TOUCH_STEP * i] } >> 4;
 666:	f240 0000 	movw	r0, #0
 66a:	f2c0 0000 	movt	r0, #0
 66e:	f240 0200 	movw	r2, #0
 672:	f2c0 0200 	movt	r2, #0
 676:	2121      	movs	r1, #33	; 0x21
 678:	f7ff fffe 	bl	0 <_ZN4core9panicking5panic17hfdd0eecc44a682f8E>
 67c:	defe      	udf	#254	; 0xfe
 67e:	f240 0000 	movw	r0, #0
 682:	f2c0 0000 	movt	r0, #0
 686:	f240 0200 	movw	r2, #0
 68a:	f2c0 0200 	movt	r2, #0
 68e:	211c      	movs	r1, #28
 690:	f7ff fffe 	bl	0 <_ZN4core9panicking5panic17hfdd0eecc44a682f8E>
 694:	defe      	udf	#254	; 0xfe
 696:	f240 0000 	movw	r0, #0
 69a:	f2c0 0000 	movt	r0, #0
 69e:	223f      	movs	r2, #63	; 0x3f
 6a0:	990e      	ldr	r1, [sp, #56]	; 0x38
 6a2:	f7ff fffe 	bl	0 <_ZN4core9panicking18panic_bounds_check17hefada55beeee1c8fE>
 6a6:	defe      	udf	#254	; 0xfe
/Users/Luppy/PineTime/pinetime-rust-mynewt/rust/app/src/touch_sensor.rs:137
        data.touches[i].finger =
 6a8:	f240 0000 	movw	r0, #0
 6ac:	f2c0 0000 	movt	r0, #0
 6b0:	220a      	movs	r2, #10
 6b2:	990c      	ldr	r1, [sp, #48]	; 0x30
 6b4:	f7ff fffe 	bl	0 <_ZN4core9panicking18panic_bounds_check17hefada55beeee1c8fE>
 6b8:	defe      	udf	#254	; 0xfe
/Users/Luppy/PineTime/pinetime-rust-mynewt/rust/app/src/touch_sensor.rs:142
            unsafe { buf[HYN_TOUCH_XY_POS + HYN_TOUCH_STEP * i] };  //  Can't be constant value
 6ba:	f240 0000 	movw	r0, #0
 6be:	f2c0 0000 	movt	r0, #0
 6c2:	f240 0200 	movw	r2, #0
 6c6:	f2c0 0200 	movt	r2, #0
 6ca:	2121      	movs	r1, #33	; 0x21
 6cc:	f7ff fffe 	bl	0 <_ZN4core9panicking5panic17hfdd0eecc44a682f8E>
 6d0:	defe      	udf	#254	; 0xfe
 6d2:	f240 0000 	movw	r0, #0
 6d6:	f2c0 0000 	movt	r0, #0
 6da:	f240 0200 	movw	r2, #0
 6de:	f2c0 0200 	movt	r2, #0
 6e2:	211c      	movs	r1, #28
 6e4:	f7ff fffe 	bl	0 <_ZN4core9panicking5panic17hfdd0eecc44a682f8E>
 6e8:	defe      	udf	#254	; 0xfe
 6ea:	f240 0000 	movw	r0, #0
 6ee:	f2c0 0000 	movt	r0, #0
 6f2:	223f      	movs	r2, #63	; 0x3f
 6f4:	990a      	ldr	r1, [sp, #40]	; 0x28
 6f6:	f7ff fffe 	bl	0 <_ZN4core9panicking18panic_bounds_check17hefada55beeee1c8fE>
 6fa:	defe      	udf	#254	; 0xfe
/Users/Luppy/PineTime/pinetime-rust-mynewt/rust/app/src/touch_sensor.rs:141
        data.touches[i].pressure =
 6fc:	f240 0000 	movw	r0, #0
 700:	f2c0 0000 	movt	r0, #0
 704:	220a      	movs	r2, #10
 706:	9908      	ldr	r1, [sp, #32]
 708:	f7ff fffe 	bl	0 <_ZN4core9panicking18panic_bounds_check17hefada55beeee1c8fE>
 70c:	defe      	udf	#254	; 0xfe
/Users/Luppy/PineTime/pinetime-rust-mynewt/rust/app/src/touch_sensor.rs:144
            unsafe { buf[HYN_TOUCH_MISC   + HYN_TOUCH_STEP * i] } >> 4;
 70e:	f240 0000 	movw	r0, #0
 712:	f2c0 0000 	movt	r0, #0
 716:	f240 0200 	movw	r2, #0
 71a:	f2c0 0200 	movt	r2, #0
 71e:	2121      	movs	r1, #33	; 0x21
 720:	f7ff fffe 	bl	0 <_ZN4core9panicking5panic17hfdd0eecc44a682f8E>
 724:	defe      	udf	#254	; 0xfe
 726:	f240 0000 	movw	r0, #0
 72a:	f2c0 0000 	movt	r0, #0
 72e:	f240 0200 	movw	r2, #0
 732:	f2c0 0200 	movt	r2, #0
 736:	211c      	movs	r1, #28
 738:	f7ff fffe 	bl	0 <_ZN4core9panicking5panic17hfdd0eecc44a682f8E>
 73c:	defe      	udf	#254	; 0xfe
 73e:	f240 0000 	movw	r0, #0
 742:	f2c0 0000 	movt	r0, #0
 746:	223f      	movs	r2, #63	; 0x3f
 748:	9906      	ldr	r1, [sp, #24]
 74a:	f7ff fffe 	bl	0 <_ZN4core9panicking18panic_bounds_check17hefada55beeee1c8fE>
 74e:	defe      	udf	#254	; 0xfe
/Users/Luppy/PineTime/pinetime-rust-mynewt/rust/app/src/touch_sensor.rs:143
        data.touches[i].area =
 750:	f240 0000 	movw	r0, #0
 754:	f2c0 0000 	movt	r0, #0
 758:	220a      	movs	r2, #10
 75a:	9904      	ldr	r1, [sp, #16]
 75c:	f7ff fffe 	bl	0 <_ZN4core9panicking18panic_bounds_check17hefada55beeee1c8fE>
 760:	defe      	udf	#254	; 0xfe
/Users/Luppy/PineTime/pinetime-rust-mynewt/rust/app/src/touch_sensor.rs:147
        if (data.touches[i].action == 0 || data.touches[i].action == 2)  //  If touch is down or contact
 762:	f240 0000 	movw	r0, #0
 766:	f2c0 0000 	movt	r0, #0
 76a:	220a      	movs	r2, #10
 76c:	9903      	ldr	r1, [sp, #12]
 76e:	f7ff fffe 	bl	0 <_ZN4core9panicking18panic_bounds_check17hefada55beeee1c8fE>
 772:	defe      	udf	#254	; 0xfe
 774:	f240 0000 	movw	r0, #0
 778:	f2c0 0000 	movt	r0, #0
 77c:	220a      	movs	r2, #10
 77e:	9902      	ldr	r1, [sp, #8]
 780:	f7ff fffe 	bl	0 <_ZN4core9panicking18panic_bounds_check17hefada55beeee1c8fE>
 784:	defe      	udf	#254	; 0xfe

Disassembly of section .text._ZN3app12touch_sensor19read_register_range17h9eacd3aba86fd8acE:

00000000 <_ZN3app12touch_sensor19read_register_range17h9eacd3aba86fd8acE>:
_ZN3app12touch_sensor19read_register_range17h9eacd3aba86fd8acE():
/Users/Luppy/PineTime/pinetime-rust-mynewt/rust/app/src/touch_sensor.rs:212

/// Event that will be forwarded to the Event Queue when a touch interrupt is triggered
static mut TOUCH_EVENT: os_event = fill_zero!(os_event);  //  Init all fields to 0 or NULL

/// Read a range of I2C registers from the I2C address `addr` (7-bit address), starting at `start_register` for count `num_registers`. Save into `buffer`.
fn read_register_range(addr: u8, start_register: u8, num_registers: u8, buffer: &mut[u8]) -> MynewtResult<()> {
   0:	b5b0      	push	{r4, r5, r7, lr}
   2:	b0a0      	sub	sp, #128	; 0x80
   4:	f8dd c090 	ldr.w	ip, [sp, #144]	; 0x90
   8:	4696      	mov	lr, r2
   a:	460c      	mov	r4, r1
   c:	4605      	mov	r5, r0
   e:	f88d 003d 	strb.w	r0, [sp, #61]	; 0x3d
  12:	f88d 103e 	strb.w	r1, [sp, #62]	; 0x3e
  16:	f88d 203f 	strb.w	r2, [sp, #63]	; 0x3f
  1a:	9310      	str	r3, [sp, #64]	; 0x40
  1c:	f8cd c044 	str.w	ip, [sp, #68]	; 0x44
/Users/Luppy/PineTime/pinetime-rust-mynewt/rust/app/src/touch_sensor.rs:213
    assert!(buffer.len() >= num_registers as usize, "i2c buf");  //  Buffer too small
  20:	9810      	ldr	r0, [sp, #64]	; 0x40
  22:	9911      	ldr	r1, [sp, #68]	; 0x44
  24:	f8cd e038 	str.w	lr, [sp, #56]	; 0x38
  28:	940d      	str	r4, [sp, #52]	; 0x34
  2a:	950c      	str	r5, [sp, #48]	; 0x30
  2c:	f7ff fffe 	bl	0 <_ZN4core5slice29_$LT$impl$u20$$u5b$T$u5d$$GT$3len17hfff8c41223f8c7cbE>
  30:	900b      	str	r0, [sp, #44]	; 0x2c
  32:	e7ff      	b.n	34 <_ZN3app12touch_sensor19read_register_range17h9eacd3aba86fd8acE+0x34>
  34:	f89d 003f 	ldrb.w	r0, [sp, #63]	; 0x3f
  38:	990b      	ldr	r1, [sp, #44]	; 0x2c
  3a:	4281      	cmp	r1, r0
  3c:	d30c      	bcc.n	58 <_ZN3app12touch_sensor19read_register_range17h9eacd3aba86fd8acE+0x58>
  3e:	e7ff      	b.n	40 <_ZN3app12touch_sensor19read_register_range17h9eacd3aba86fd8acE+0x40>
/Users/Luppy/PineTime/pinetime-rust-mynewt/rust/app/src/touch_sensor.rs:214
    assert!(start_register + num_registers < 128, "i2c addr");   //  Not 7-bit address
  40:	f89d 003e 	ldrb.w	r0, [sp, #62]	; 0x3e
  44:	f89d 103f 	ldrb.w	r1, [sp, #63]	; 0x3f
  48:	4408      	add	r0, r1
  4a:	b2c1      	uxtb	r1, r0
  4c:	4602      	mov	r2, r0
  4e:	4281      	cmp	r1, r0
  50:	920a      	str	r2, [sp, #40]	; 0x28
  52:	f040 80b3 	bne.w	1bc <_ZN3app12touch_sensor19read_register_range17h9eacd3aba86fd8acE+0x1bc>
  56:	e010      	b.n	24 <_ZN3app12touch_sensor19read_register_range17h9eacd3aba86fd8acE+0x24>
/Users/Luppy/PineTime/pinetime-rust-mynewt/rust/app/src/touch_sensor.rs:213
    assert!(buffer.len() >= num_registers as usize, "i2c buf");  //  Buffer too small
  58:	f240 0000 	movw	r0, #0
  5c:	f2c0 0000 	movt	r0, #0
  60:	901d      	str	r0, [sp, #116]	; 0x74
  62:	9a1d      	ldr	r2, [sp, #116]	; 0x74
  64:	9209      	str	r2, [sp, #36]	; 0x24
  66:	e7ff      	b.n	68 <_ZN3app12touch_sensor19read_register_range17h9eacd3aba86fd8acE+0x68>
  68:	f240 0000 	movw	r0, #0
  6c:	f2c0 0000 	movt	r0, #0
  70:	2107      	movs	r1, #7
  72:	9a09      	ldr	r2, [sp, #36]	; 0x24
  74:	f7ff fffe 	bl	0 <_ZN4core9panicking5panic17hfdd0eecc44a682f8E>
  78:	defe      	udf	#254	; 0xfe
/Users/Luppy/PineTime/pinetime-rust-mynewt/rust/app/src/touch_sensor.rs:214
    assert!(start_register + num_registers < 128, "i2c addr");   //  Not 7-bit address
  7a:	980a      	ldr	r0, [sp, #40]	; 0x28
  7c:	b241      	sxtb	r1, r0
  7e:	2900      	cmp	r1, #0
  80:	d41a      	bmi.n	b8 <_ZN3app12touch_sensor19read_register_range17h9eacd3aba86fd8acE+0xb8>
  82:	e7ff      	b.n	84 <_ZN3app12touch_sensor19read_register_range17h9eacd3aba86fd8acE+0x84>
/Users/Luppy/PineTime/pinetime-rust-mynewt/rust/app/src/touch_sensor.rs:223
    //    Send the Start Condition (High to Low SDA Transition)...
    //    Followed by I2C Address (7 bits)...
    //    Followed by Write Mode (1 bit, value 0)...
    //    Followed by starting Register Number (8 bits)
    unsafe { 
        I2C_BUFFER[0] = start_register;  //  I2C Packet buffer contains starting Register Number (1 byte)
  84:	f89d 003e 	ldrb.w	r0, [sp, #62]	; 0x3e
  88:	f240 0100 	movw	r1, #0
  8c:	f2c0 0100 	movt	r1, #0
  90:	9113      	str	r1, [sp, #76]	; 0x4c
  92:	9a13      	ldr	r2, [sp, #76]	; 0x4c
  94:	7010      	strb	r0, [r2, #0]
/Users/Luppy/PineTime/pinetime-rust-mynewt/rust/app/src/touch_sensor.rs:224
        I2C_DATA.address = addr;         //  I2C Packet address (7 bits)
  96:	f89d 003d 	ldrb.w	r0, [sp, #61]	; 0x3d
  9a:	f240 0200 	movw	r2, #0
  9e:	f2c0 0200 	movt	r2, #0
  a2:	9214      	str	r2, [sp, #80]	; 0x50
  a4:	9a14      	ldr	r2, [sp, #80]	; 0x50
  a6:	7010      	strb	r0, [r2, #0]
  a8:	2001      	movs	r0, #1
/Users/Luppy/PineTime/pinetime-rust-mynewt/rust/app/src/touch_sensor.rs:225
        I2C_DATA.len = I2C_BUFFER.len() as u16;     //  I2C Packet data size is 1 byte
  aa:	9008      	str	r0, [sp, #32]
  ac:	4608      	mov	r0, r1
  ae:	9908      	ldr	r1, [sp, #32]
  b0:	f7ff fffe 	bl	0 <_ZN4core5slice29_$LT$impl$u20$$u5b$T$u5d$$GT$3len17hfff8c41223f8c7cbE>
  b4:	9007      	str	r0, [sp, #28]
  b6:	e010      	b.n	da <_ZN3app12touch_sensor19read_register_range17h9eacd3aba86fd8acE+0xda>
/Users/Luppy/PineTime/pinetime-rust-mynewt/rust/app/src/touch_sensor.rs:214
    assert!(start_register + num_registers < 128, "i2c addr");   //  Not 7-bit address
  b8:	f240 0000 	movw	r0, #0
  bc:	f2c0 0000 	movt	r0, #0
  c0:	901e      	str	r0, [sp, #120]	; 0x78
  c2:	9a1e      	ldr	r2, [sp, #120]	; 0x78
  c4:	9206      	str	r2, [sp, #24]
  c6:	e7ff      	b.n	c8 <_ZN3app12touch_sensor19read_register_range17h9eacd3aba86fd8acE+0xc8>
  c8:	f240 0000 	movw	r0, #0
  cc:	f2c0 0000 	movt	r0, #0
  d0:	2108      	movs	r1, #8
  d2:	9a06      	ldr	r2, [sp, #24]
  d4:	f7ff fffe 	bl	0 <_ZN4core9panicking5panic17hfdd0eecc44a682f8E>
  d8:	defe      	udf	#254	; 0xfe
/Users/Luppy/PineTime/pinetime-rust-mynewt/rust/app/src/touch_sensor.rs:225
        I2C_DATA.len = I2C_BUFFER.len() as u16;     //  I2C Packet data size is 1 byte
  da:	f240 0000 	movw	r0, #0
  de:	f2c0 0000 	movt	r0, #0
  e2:	9015      	str	r0, [sp, #84]	; 0x54
  e4:	9815      	ldr	r0, [sp, #84]	; 0x54
  e6:	9907      	ldr	r1, [sp, #28]
  e8:	8041      	strh	r1, [r0, #2]
/Users/Luppy/PineTime/pinetime-rust-mynewt/rust/app/src/touch_sensor.rs:226
        I2C_DATA.buffer = I2C_BUFFER.as_mut_ptr();  //  I2C Packet data points to packet buffer
  ea:	f240 0000 	movw	r0, #0
  ee:	f2c0 0000 	movt	r0, #0
  f2:	2101      	movs	r1, #1
  f4:	f7ff fffe 	bl	0 <_ZN4core5slice29_$LT$impl$u20$$u5b$T$u5d$$GT$10as_mut_ptr17ha8781b3442265f5fE>
  f8:	9005      	str	r0, [sp, #20]
  fa:	e7ff      	b.n	fc <_ZN3app12touch_sensor19read_register_range17h9eacd3aba86fd8acE+0xfc>
  fc:	f240 0000 	movw	r0, #0
 100:	f2c0 0000 	movt	r0, #0
 104:	9016      	str	r0, [sp, #88]	; 0x58
 106:	9916      	ldr	r1, [sp, #88]	; 0x58
 108:	9a05      	ldr	r2, [sp, #20]
 10a:	604a      	str	r2, [r1, #4]
 10c:	2101      	movs	r1, #1
 10e:	f44f 727a 	mov.w	r2, #1000	; 0x3e8
 112:	2300      	movs	r3, #0
/Users/Luppy/PineTime/pinetime-rust-mynewt/rust/app/src/touch_sensor.rs:228
    };
    let _rc1 = unsafe { hal::hal_i2c_master_write(1, &mut I2C_DATA, 1000, 0) };  //  No stop yet, must continue even if we hit an error
 114:	9004      	str	r0, [sp, #16]
 116:	4608      	mov	r0, r1
 118:	9904      	ldr	r1, [sp, #16]
 11a:	f7ff fffe 	bl	0 <hal_i2c_master_write>
 11e:	9017      	str	r0, [sp, #92]	; 0x5c
 120:	e7ff      	b.n	122 <_ZN3app12touch_sensor19read_register_range17h9eacd3aba86fd8acE+0x122>
/Users/Luppy/PineTime/pinetime-rust-mynewt/rust/app/src/touch_sensor.rs:234
    //  Step 3: Prepare to receive the stream of I2C Device Register values...
    //    Send the Start Condition (High to Low SDA Transition)...
    //    Followed by I2C Address (7 bits)...
    //    Followed by Read Mode (1 bit, value 1)
    unsafe { 
        I2C_BUFFER[0] = 0x00;     //  I2C Packet buffer should be empty (provided by caller)
 122:	f240 0000 	movw	r0, #0
 126:	f2c0 0000 	movt	r0, #0
 12a:	9018      	str	r0, [sp, #96]	; 0x60
 12c:	9818      	ldr	r0, [sp, #96]	; 0x60
 12e:	2100      	movs	r1, #0
 130:	7001      	strb	r1, [r0, #0]
/Users/Luppy/PineTime/pinetime-rust-mynewt/rust/app/src/touch_sensor.rs:235
        I2C_DATA.address = addr;  //  I2C Packet address (7 bits)
 132:	f89d 003d 	ldrb.w	r0, [sp, #61]	; 0x3d
 136:	f240 0100 	movw	r1, #0
 13a:	f2c0 0100 	movt	r1, #0
 13e:	9119      	str	r1, [sp, #100]	; 0x64
 140:	9a19      	ldr	r2, [sp, #100]	; 0x64
 142:	7010      	strb	r0, [r2, #0]
/Users/Luppy/PineTime/pinetime-rust-mynewt/rust/app/src/touch_sensor.rs:236
        I2C_DATA.len = num_registers as u16;    //  I2C Packet data size is number of Registers to read
 144:	f89d 003f 	ldrb.w	r0, [sp, #63]	; 0x3f
 148:	911a      	str	r1, [sp, #104]	; 0x68
 14a:	991a      	ldr	r1, [sp, #104]	; 0x68
 14c:	8048      	strh	r0, [r1, #2]
/Users/Luppy/PineTime/pinetime-rust-mynewt/rust/app/src/touch_sensor.rs:237
        I2C_DATA.buffer = buffer.as_mut_ptr();  //  I2C Packet data points to packet buffer
 14e:	9810      	ldr	r0, [sp, #64]	; 0x40
 150:	9911      	ldr	r1, [sp, #68]	; 0x44
 152:	f7ff fffe 	bl	0 <_ZN4core5slice29_$LT$impl$u20$$u5b$T$u5d$$GT$10as_mut_ptr17ha8781b3442265f5fE>
 156:	9003      	str	r0, [sp, #12]
 158:	e7ff      	b.n	15a <_ZN3app12touch_sensor19read_register_range17h9eacd3aba86fd8acE+0x15a>
 15a:	f240 0000 	movw	r0, #0
 15e:	f2c0 0000 	movt	r0, #0
 162:	901b      	str	r0, [sp, #108]	; 0x6c
 164:	991b      	ldr	r1, [sp, #108]	; 0x6c
 166:	9a03      	ldr	r2, [sp, #12]
 168:	604a      	str	r2, [r1, #4]
 16a:	f44f 727a 	mov.w	r2, #1000	; 0x3e8
 16e:	2101      	movs	r1, #1
/Users/Luppy/PineTime/pinetime-rust-mynewt/rust/app/src/touch_sensor.rs:241
    };
    //  Step 4: Receive the requested number of Register values from I2C Device (1 byte per register)
    //  Step 5: Send the Stop Condition (Low to High SDA Transition)
    let rc2 = unsafe { hal::hal_i2c_master_read(1, &mut I2C_DATA, 1000, 1) };
 170:	9002      	str	r0, [sp, #8]
 172:	4608      	mov	r0, r1
 174:	9b02      	ldr	r3, [sp, #8]
 176:	9101      	str	r1, [sp, #4]
 178:	4619      	mov	r1, r3
 17a:	9b01      	ldr	r3, [sp, #4]
 17c:	f7ff fffe 	bl	0 <hal_i2c_master_read>
 180:	901c      	str	r0, [sp, #112]	; 0x70
 182:	e7ff      	b.n	184 <_ZN3app12touch_sensor19read_register_range17h9eacd3aba86fd8acE+0x184>
/Users/Luppy/PineTime/pinetime-rust-mynewt/rust/app/src/touch_sensor.rs:242
    if rc2 == hal::HAL_I2C_ERR_ADDR_NACK as i32 {
 184:	981c      	ldr	r0, [sp, #112]	; 0x70
 186:	2804      	cmp	r0, #4
 188:	d007      	beq.n	19a <_ZN3app12touch_sensor19read_register_range17h9eacd3aba86fd8acE+0x19a>
 18a:	e7ff      	b.n	18c <_ZN3app12touch_sensor19read_register_range17h9eacd3aba86fd8acE+0x18c>
 18c:	2000      	movs	r0, #0
/Users/Luppy/PineTime/pinetime-rust-mynewt/rust/app/src/touch_sensor.rs:246
        assert!(false, "i2c fail");  //  I2C read failed
        return Ok(());               //  TODO: Return an error
    }
    Ok(())
 18e:	9012      	str	r0, [sp, #72]	; 0x48
 190:	2001      	movs	r0, #1
 192:	9012      	str	r0, [sp, #72]	; 0x48
/Users/Luppy/PineTime/pinetime-rust-mynewt/rust/app/src/touch_sensor.rs:247
}
 194:	9812      	ldr	r0, [sp, #72]	; 0x48
 196:	b020      	add	sp, #128	; 0x80
 198:	bdb0      	pop	{r4, r5, r7, pc}
/Users/Luppy/PineTime/pinetime-rust-mynewt/rust/app/src/touch_sensor.rs:243
        assert!(false, "i2c fail");  //  I2C read failed
 19a:	f240 0000 	movw	r0, #0
 19e:	f2c0 0000 	movt	r0, #0
 1a2:	901f      	str	r0, [sp, #124]	; 0x7c
 1a4:	9a1f      	ldr	r2, [sp, #124]	; 0x7c
 1a6:	9200      	str	r2, [sp, #0]
 1a8:	e7ff      	b.n	1aa <_ZN3app12touch_sensor19read_register_range17h9eacd3aba86fd8acE+0x1aa>
 1aa:	f240 0000 	movw	r0, #0
 1ae:	f2c0 0000 	movt	r0, #0
 1b2:	2108      	movs	r1, #8
 1b4:	9a00      	ldr	r2, [sp, #0]
 1b6:	f7ff fffe 	bl	0 <_ZN4core9panicking5panic17hfdd0eecc44a682f8E>
 1ba:	defe      	udf	#254	; 0xfe
/Users/Luppy/PineTime/pinetime-rust-mynewt/rust/app/src/touch_sensor.rs:214
    assert!(start_register + num_registers < 128, "i2c addr");   //  Not 7-bit address
 1bc:	f240 0000 	movw	r0, #0
 1c0:	f2c0 0000 	movt	r0, #0
 1c4:	f240 0200 	movw	r2, #0
 1c8:	f2c0 0200 	movt	r2, #0
 1cc:	211c      	movs	r1, #28
 1ce:	f7ff fffe 	bl	0 <_ZN4core9panicking5panic17hfdd0eecc44a682f8E>
 1d2:	defe      	udf	#254	; 0xfe

app-d559bf047a1af437.3nfy4x1pf2qd97qf.rcgu.o:     file format elf32-littlearm

SYMBOL TABLE:
00000000 l    df *ABS*	00000000 3nfy4x1pf2qd97qf
00003223 l       .debug_str	00000000 
00003920 l       .debug_str	00000000 
000039c6 l       .debug_str	00000000 
00003a06 l       .debug_str	00000000 
00003adc l       .debug_str	00000000 
00003bb6 l       .debug_str	00000000 
00003bf6 l       .debug_str	00000000 
00003c92 l       .debug_str	00000000 
00003d32 l       .debug_str	00000000 
00003d34 l       .debug_str	00000000 
00003d97 l       .debug_str	00000000 
00003e61 l       .debug_str	00000000 
00003ec4 l       .debug_str	00000000 
00003fc8 l       .debug_str	00000000 
0000402b l       .debug_str	00000000 
000040fb l       .debug_str	00000000 
00004100 l       .debug_str	00000000 
000041d0 l       .debug_str	00000000 
000041db l       .debug_str	00000000 
000041e4 l       .debug_str	00000000 
000041f2 l       .debug_str	00000000 
0000420a l       .debug_str	00000000 
00004218 l       .debug_str	00000000 
0000424d l       .debug_str	00000000 
000042a7 l       .debug_str	00000000 
000042ab l       .debug_str	00000000 
000042b1 l       .debug_str	00000000 
00004347 l       .debug_str	00000000 
000043e3 l       .debug_str	00000000 
000044ad l       .debug_str	00000000 
000044b6 l       .debug_str	00000000 
000045b4 l       .debug_str	00000000 
00004678 l       .debug_str	00000000 
00004680 l       .debug_str	00000000 
0000468b l       .debug_str	00000000 
0000468f l       .debug_str	00000000 
00004692 l       .debug_str	00000000 
00004696 l       .debug_str	00000000 
0000469a l       .debug_str	00000000 
000046a3 l       .debug_str	00000000 
000046a6 l       .debug_str	00000000 
000046a9 l       .debug_str	00000000 
000046e8 l       .debug_str	00000000 
00004738 l       .debug_str	00000000 
0000473f l       .debug_str	00000000 
00004746 l       .debug_str	00000000 
0000474a l       .debug_str	00000000 
0000474e l       .debug_str	00000000 
00000000 l       .debug_str	00000000 
00000041 l       .debug_str	00000000 
00000055 l       .debug_str	00000000 
00000080 l       .debug_str	00000000 
00000085 l       .debug_str	00000000 
0000008c l       .debug_str	00000000 
0000008f l       .debug_str	00000000 
00000092 l       .debug_str	00000000 
00000096 l       .debug_str	00000000 
0000009d l       .debug_str	00000000 
000000b4 l       .debug_str	00000000 
000000ba l       .debug_str	00000000 
000000c3 l       .debug_str	00000000 
000000c8 l       .debug_str	00000000 
000000cf l       .debug_str	00000000 
000000d7 l       .debug_str	00000000 
000000e9 l       .debug_str	00000000 
000000ef l       .debug_str	00000000 
000000fc l       .debug_str	00000000 
00000108 l       .debug_str	00000000 
0000010c l       .debug_str	00000000 
00000118 l       .debug_str	00000000 
00000125 l       .debug_str	00000000 
0000012c l       .debug_str	00000000 
00000131 l       .debug_str	00000000 
00000136 l       .debug_str	00000000 
00000138 l       .debug_str	00000000 
0000013d l       .debug_str	00000000 
00000141 l       .debug_str	00000000 
0000014e l       .debug_str	00000000 
00000152 l       .debug_str	00000000 
00000158 l       .debug_str	00000000 
0000015c l       .debug_str	00000000 
00000162 l       .debug_str	00000000 
00000171 l       .debug_str	00000000 
00000175 l       .debug_str	00000000 
00000179 l       .debug_str	00000000 
0000017f l       .debug_str	00000000 
00000184 l       .debug_str	00000000 
0000018d l       .debug_str	00000000 
00000197 l       .debug_str	00000000 
0000019e l       .debug_str	00000000 
000001a3 l       .debug_str	00000000 
000001a9 l       .debug_str	00000000 
000001b4 l       .debug_str	00000000 
000001b8 l       .debug_str	00000000 
000001c3 l       .debug_str	00000000 
000001ca l       .debug_str	00000000 
000001d1 l       .debug_str	00000000 
00000207 l       .debug_str	00000000 
00000214 l       .debug_str	00000000 
00000221 l       .debug_str	00000000 
00000223 l       .debug_str	00000000 
00000258 l       .debug_str	00000000 
0000025e l       .debug_str	00000000 
00000265 l       .debug_str	00000000 
0000026f l       .debug_str	00000000 
0000027d l       .debug_str	00000000 
000002bd l       .debug_str	00000000 
000002bf l       .debug_str	00000000 
000002c4 l       .debug_str	00000000 
0000033b l       .debug_str	00000000 
000003c9 l       .debug_str	00000000 
0000046e l       .debug_str	00000000 
00000475 l       .debug_str	00000000 
0000047d l       .debug_str	00000000 
0000047f l       .debug_str	00000000 
00000486 l       .debug_str	00000000 
0000048f l       .debug_str	00000000 
00000493 l       .debug_str	00000000 
00000495 l       .debug_str	00000000 
0000049c l       .debug_str	00000000 
000004a0 l       .debug_str	00000000 
000004ad l       .debug_str	00000000 
000004b4 l       .debug_str	00000000 
000004b7 l       .debug_str	00000000 
000004bd l       .debug_str	00000000 
000004cb l       .debug_str	00000000 
000004d9 l       .debug_str	00000000 
000004de l       .debug_str	00000000 
000004e6 l       .debug_str	00000000 
000004ee l       .debug_str	00000000 
000004f0 l       .debug_str	00000000 
0000050d l       .debug_str	00000000 
00000553 l       .debug_str	00000000 
0000055b l       .debug_str	00000000 
0000056c l       .debug_str	00000000 
000005dc l       .debug_str	00000000 
00000676 l       .debug_str	00000000 
00000739 l       .debug_str	00000000 
00000826 l       .debug_str	00000000 
0000093d l       .debug_str	00000000 
00000945 l       .debug_str	00000000 
0000094a l       .debug_str	00000000 
00000950 l       .debug_str	00000000 
00000954 l       .debug_str	00000000 
00000957 l       .debug_str	00000000 
00000980 l       .debug_str	00000000 
000009b6 l       .debug_str	00000000 
000009b8 l       .debug_str	00000000 
000009e5 l       .debug_str	00000000 
00000a35 l       .debug_str	00000000 
00000a92 l       .debug_str	00000000 
00000ae6 l       .debug_str	00000000 
00000ae9 l       .debug_str	00000000 
00000b60 l       .debug_str	00000000 
00000be4 l       .debug_str	00000000 
00000c5f l       .debug_str	00000000 
00000cfd l       .debug_str	00000000 
00000da8 l       .debug_str	00000000 
00000e4a l       .debug_str	00000000 
00000f0f l       .debug_str	00000000 
00000fe1 l       .debug_str	00000000 
000010aa l       .debug_str	00000000 
00001196 l       .debug_str	00000000 
0000128f l       .debug_str	00000000 
0000137f l       .debug_str	00000000 
00001492 l       .debug_str	00000000 
000015b2 l       .debug_str	00000000 
000016c9 l       .debug_str	00000000 
00001802 l       .debug_str	00000000 
00001958 l       .debug_str	00000000 
00001aad l       .debug_str	00000000 
00001ab1 l       .debug_str	00000000 
00001ab3 l       .debug_str	00000000 
00001c00 l       .debug_str	00000000 
00001c02 l       .debug_str	00000000 
00001d32 l       .debug_str	00000000 
00001d3b l       .debug_str	00000000 
00001d6b l       .debug_str	00000000 
00001d76 l       .debug_str	00000000 
00001d7d l       .debug_str	00000000 
00001d84 l       .debug_str	00000000 
00001d8b l       .debug_str	00000000 
00001d8d l       .debug_str	00000000 
00001dcb l       .debug_str	00000000 
00001e59 l       .debug_str	00000000 
00001ec4 l       .debug_str	00000000 
00001ece l       .debug_str	00000000 
00001ed7 l       .debug_str	00000000 
00001ee4 l       .debug_str	00000000 
00001f25 l       .debug_str	00000000 
00001fb3 l       .debug_str	00000000 
00002024 l       .debug_str	00000000 
0000202b l       .debug_str	00000000 
00002037 l       .debug_str	00000000 
0000203c l       .debug_str	00000000 
000020b4 l       .debug_str	00000000 
000020b6 l       .debug_str	00000000 
00002146 l       .debug_str	00000000 
000021e3 l       .debug_str	00000000 
000021e9 l       .debug_str	00000000 
000021f2 l       .debug_str	00000000 
00002333 l       .debug_str	00000000 
0000246d l       .debug_str	00000000 
000025b4 l       .debug_str	00000000 
000026f2 l       .debug_str	00000000 
00002852 l       .debug_str	00000000 
000029cf l       .debug_str	00000000 
00002b4b l       .debug_str	00000000 
00002cbf l       .debug_str	00000000 
00002e16 l       .debug_str	00000000 
00002e21 l       .debug_str	00000000 
00002e53 l       .debug_str	00000000 
00002eff l       .debug_str	00000000 
00002f8f l       .debug_str	00000000 
00003060 l       .debug_str	00000000 
000030d2 l       .debug_str	00000000 
00003162 l       .debug_str	00000000 
000031f9 l       .debug_str	00000000 
00003200 l       .debug_str	00000000 
00003204 l       .debug_str	00000000 
0000320c l       .debug_str	00000000 
00003213 l       .debug_str	00000000 
00003217 l       .debug_str	00000000 
0000321b l       .debug_str	00000000 
00003220 l       .debug_str	00000000 
00003227 l       .debug_str	00000000 
00003296 l       .debug_str	00000000 
000032d9 l       .debug_str	00000000 
000033b2 l       .debug_str	00000000 
000033eb l       .debug_str	00000000 
0000342e l       .debug_str	00000000 
000034d3 l       .debug_str	00000000 
00003509 l       .debug_str	00000000 
0000354c l       .debug_str	00000000 
000035eb l       .debug_str	00000000 
00003629 l       .debug_str	00000000 
00003697 l       .debug_str	00000000 
000036d5 l       .debug_str	00000000 
00003749 l       .debug_str	00000000 
00003787 l       .debug_str	00000000 
0000382f l       .debug_str	00000000 
0000386f l       .debug_str	00000000 
00003911 l       .debug_str	00000000 
00003916 l       .debug_str	00000000 
00000000 l     O .rodata..Lanon.2050f99b666d85f91d938b48f51805cd.0	00000005 .Lanon.2050f99b666d85f91d938b48f51805cd.0
00000000 l     O .rodata..Lanon.2050f99b666d85f91d938b48f51805cd.2	00000010 .Lanon.2050f99b666d85f91d938b48f51805cd.2
00000000 l     O .rodata..Lanon.2050f99b666d85f91d938b48f51805cd.3	00000010 .Lanon.2050f99b666d85f91d938b48f51805cd.3
00000000 l     O .rodata.str.0	0000001c str.0
00000000 l    d  .text._ZN110_$LT$piet_embedded_graphics..batch..RowIterator$LT$P$GT$$u20$as$u20$core..iter..traits..iterator..Iterator$GT$4next17h87cbe1351dcb933dE	00000000 .text._ZN110_$LT$piet_embedded_graphics..batch..RowIterator$LT$P$GT$$u20$as$u20$core..iter..traits..iterator..Iterator$GT$4next17h87cbe1351dcb933dE
00000000 l    d  .text._ZN110_$LT$piet_embedded_graphics..batch..RowIterator$LT$P$GT$$u20$as$u20$core..iter..traits..iterator..Iterator$GT$4next17had8e6a6f3aff842cE	00000000 .text._ZN110_$LT$piet_embedded_graphics..batch..RowIterator$LT$P$GT$$u20$as$u20$core..iter..traits..iterator..Iterator$GT$4next17had8e6a6f3aff842cE
00000000 l    d  .text._ZN110_$LT$piet_embedded_graphics..batch..RowIterator$LT$P$GT$$u20$as$u20$core..iter..traits..iterator..Iterator$GT$4next17hf0d9b5a30056179dE	00000000 .text._ZN110_$LT$piet_embedded_graphics..batch..RowIterator$LT$P$GT$$u20$as$u20$core..iter..traits..iterator..Iterator$GT$4next17hf0d9b5a30056179dE
00000000 l    d  .text._ZN112_$LT$piet_embedded_graphics..batch..BlockIterator$LT$R$GT$$u20$as$u20$core..iter..traits..iterator..Iterator$GT$4next17h1f169d53c8f70418E	00000000 .text._ZN112_$LT$piet_embedded_graphics..batch..BlockIterator$LT$R$GT$$u20$as$u20$core..iter..traits..iterator..Iterator$GT$4next17h1f169d53c8f70418E
00000000 l    d  .text._ZN112_$LT$piet_embedded_graphics..batch..BlockIterator$LT$R$GT$$u20$as$u20$core..iter..traits..iterator..Iterator$GT$4next17h93e6ed52620104b6E	00000000 .text._ZN112_$LT$piet_embedded_graphics..batch..BlockIterator$LT$R$GT$$u20$as$u20$core..iter..traits..iterator..Iterator$GT$4next17h93e6ed52620104b6E
00000000 l    d  .text._ZN112_$LT$piet_embedded_graphics..batch..BlockIterator$LT$R$GT$$u20$as$u20$core..iter..traits..iterator..Iterator$GT$4next17hc4afb6cd0d0add88E	00000000 .text._ZN112_$LT$piet_embedded_graphics..batch..BlockIterator$LT$R$GT$$u20$as$u20$core..iter..traits..iterator..Iterator$GT$4next17hc4afb6cd0d0add88E
00000000 l    d  .text._ZN22piet_embedded_graphics5batch11draw_blocks17h5d78b46cb1920384E	00000000 .text._ZN22piet_embedded_graphics5batch11draw_blocks17h5d78b46cb1920384E
00000000 l    d  .text._ZN22piet_embedded_graphics5batch11draw_blocks17h76e692a8937a783bE	00000000 .text._ZN22piet_embedded_graphics5batch11draw_blocks17h76e692a8937a783bE
00000000 l    d  .text._ZN22piet_embedded_graphics5batch11draw_blocks17hc4ad7ca5e60facd2E	00000000 .text._ZN22piet_embedded_graphics5batch11draw_blocks17hc4ad7ca5e60facd2E
00000000 l    d  .text._ZN22piet_embedded_graphics5batch7to_rows17h7673781c07eb658fE	00000000 .text._ZN22piet_embedded_graphics5batch7to_rows17h7673781c07eb658fE
00000000 l    d  .text._ZN22piet_embedded_graphics5batch7to_rows17h821c84a848ec817fE	00000000 .text._ZN22piet_embedded_graphics5batch7to_rows17h821c84a848ec817fE
00000000 l    d  .text._ZN22piet_embedded_graphics5batch7to_rows17hf8a2a70c4417ea6dE	00000000 .text._ZN22piet_embedded_graphics5batch7to_rows17hf8a2a70c4417ea6dE
00000000 l    d  .text._ZN22piet_embedded_graphics5batch9to_blocks17h3a57e69ac3bf6409E	00000000 .text._ZN22piet_embedded_graphics5batch9to_blocks17h3a57e69ac3bf6409E
00000000 l    d  .text._ZN22piet_embedded_graphics5batch9to_blocks17h46269434bd8a38f1E	00000000 .text._ZN22piet_embedded_graphics5batch9to_blocks17h46269434bd8a38f1E
00000000 l    d  .text._ZN22piet_embedded_graphics5batch9to_blocks17h8dea47394b1ee6bbE	00000000 .text._ZN22piet_embedded_graphics5batch9to_blocks17h8dea47394b1ee6bbE
00000000 l    d  .text._ZN63_$LT$I$u20$as$u20$core..iter..traits..collect..IntoIterator$GT$9into_iter17hb4ca1b39bcbe92c8E	00000000 .text._ZN63_$LT$I$u20$as$u20$core..iter..traits..collect..IntoIterator$GT$9into_iter17hb4ca1b39bcbe92c8E
00000000 l    d  .text._ZN63_$LT$I$u20$as$u20$core..iter..traits..collect..IntoIterator$GT$9into_iter17hbe2d7d57d24ae4ddE	00000000 .text._ZN63_$LT$I$u20$as$u20$core..iter..traits..collect..IntoIterator$GT$9into_iter17hbe2d7d57d24ae4ddE
00000000 l    d  .text._ZN63_$LT$I$u20$as$u20$core..iter..traits..collect..IntoIterator$GT$9into_iter17hcb5e406e5114c0f2E	00000000 .text._ZN63_$LT$I$u20$as$u20$core..iter..traits..collect..IntoIterator$GT$9into_iter17hcb5e406e5114c0f2E
00000000 l    d  .rodata..Lanon.2050f99b666d85f91d938b48f51805cd.1	00000000 .rodata..Lanon.2050f99b666d85f91d938b48f51805cd.1
00000000 l    d  .debug_loc	00000000 .debug_loc
00000000 l    d  .debug_abbrev	00000000 .debug_abbrev
00000000 l    d  .debug_info	00000000 .debug_info
00000000 l    d  .debug_ranges	00000000 .debug_ranges
00000000 l    d  .debug_frame	00000000 .debug_frame
00000000 l    d  .debug_line	00000000 .debug_line
00000000         *UND*	00000000 _ZN10st7735_lcd28ST7735$LT$SPI$C$DC$C$RST$GT$10set_pixels17he81da339547c4f09E
00000000 g     F .text._ZN110_$LT$piet_embedded_graphics..batch..RowIterator$LT$P$GT$$u20$as$u20$core..iter..traits..iterator..Iterator$GT$4next17h87cbe1351dcb933dE	000002a8 _ZN110_$LT$piet_embedded_graphics..batch..RowIterator$LT$P$GT$$u20$as$u20$core..iter..traits..iterator..Iterator$GT$4next17h87cbe1351dcb933dE
00000000 g     F .text._ZN110_$LT$piet_embedded_graphics..batch..RowIterator$LT$P$GT$$u20$as$u20$core..iter..traits..iterator..Iterator$GT$4next17had8e6a6f3aff842cE	000002a8 _ZN110_$LT$piet_embedded_graphics..batch..RowIterator$LT$P$GT$$u20$as$u20$core..iter..traits..iterator..Iterator$GT$4next17had8e6a6f3aff842cE
00000000 g     F .text._ZN110_$LT$piet_embedded_graphics..batch..RowIterator$LT$P$GT$$u20$as$u20$core..iter..traits..iterator..Iterator$GT$4next17hf0d9b5a30056179dE	000002a8 _ZN110_$LT$piet_embedded_graphics..batch..RowIterator$LT$P$GT$$u20$as$u20$core..iter..traits..iterator..Iterator$GT$4next17hf0d9b5a30056179dE
00000000 g     F .text._ZN112_$LT$piet_embedded_graphics..batch..BlockIterator$LT$R$GT$$u20$as$u20$core..iter..traits..iterator..Iterator$GT$4next17h1f169d53c8f70418E	000003c4 _ZN112_$LT$piet_embedded_graphics..batch..BlockIterator$LT$R$GT$$u20$as$u20$core..iter..traits..iterator..Iterator$GT$4next17h1f169d53c8f70418E
00000000 g     F .text._ZN112_$LT$piet_embedded_graphics..batch..BlockIterator$LT$R$GT$$u20$as$u20$core..iter..traits..iterator..Iterator$GT$4next17h93e6ed52620104b6E	000003d4 _ZN112_$LT$piet_embedded_graphics..batch..BlockIterator$LT$R$GT$$u20$as$u20$core..iter..traits..iterator..Iterator$GT$4next17h93e6ed52620104b6E
00000000 g     F .text._ZN112_$LT$piet_embedded_graphics..batch..BlockIterator$LT$R$GT$$u20$as$u20$core..iter..traits..iterator..Iterator$GT$4next17hc4afb6cd0d0add88E	000003c4 _ZN112_$LT$piet_embedded_graphics..batch..BlockIterator$LT$R$GT$$u20$as$u20$core..iter..traits..iterator..Iterator$GT$4next17hc4afb6cd0d0add88E
00000000         *UND*	00000000 _ZN116_$LT$embedded_graphics..primitives..circle..Circle$LT$C$GT$$u20$as$u20$core..iter..traits..collect..IntoIterator$GT$9into_iter17h00871ecc2024299aE
00000000         *UND*	00000000 _ZN121_$LT$embedded_graphics..primitives..circle..CircleIterator$LT$C$GT$$u20$as$u20$core..iter..traits..iterator..Iterator$GT$4next17h5c50471d0212345dE
00000000         *UND*	00000000 _ZN122_$LT$embedded_graphics..primitives..rectangle..Rectangle$LT$C$GT$$u20$as$u20$core..iter..traits..collect..IntoIterator$GT$9into_iter17h8f8219360d21c276E
00000000         *UND*	00000000 _ZN127_$LT$embedded_graphics..primitives..rectangle..RectangleIterator$LT$C$GT$$u20$as$u20$core..iter..traits..iterator..Iterator$GT$4next17h8efda72015f57603E
00000000         *UND*	00000000 _ZN129_$LT$embedded_graphics..fonts..font_builder..FontBuilder$LT$C$C$Conf$GT$$u20$as$u20$core..iter..traits..collect..IntoIterator$GT$9into_iter17h33ca60caba5b378fE
00000000         *UND*	00000000 _ZN134_$LT$embedded_graphics..fonts..font_builder..FontBuilderIterator$LT$C$C$Conf$GT$$u20$as$u20$core..iter..traits..iterator..Iterator$GT$4next17h8c97a966a9cbf4aeE
00000000 g     F .text._ZN22piet_embedded_graphics5batch11draw_blocks17h5d78b46cb1920384E	0000021e _ZN22piet_embedded_graphics5batch11draw_blocks17h5d78b46cb1920384E
00000000 g     F .text._ZN22piet_embedded_graphics5batch11draw_blocks17h76e692a8937a783bE	00000218 _ZN22piet_embedded_graphics5batch11draw_blocks17h76e692a8937a783bE
00000000 g     F .text._ZN22piet_embedded_graphics5batch11draw_blocks17hc4ad7ca5e60facd2E	00000214 _ZN22piet_embedded_graphics5batch11draw_blocks17hc4ad7ca5e60facd2E
00000000 g     F .text._ZN22piet_embedded_graphics5batch7to_rows17h7673781c07eb658fE	0000005e _ZN22piet_embedded_graphics5batch7to_rows17h7673781c07eb658fE
00000000 g     F .text._ZN22piet_embedded_graphics5batch7to_rows17h821c84a848ec817fE	0000005e _ZN22piet_embedded_graphics5batch7to_rows17h821c84a848ec817fE
00000000 g     F .text._ZN22piet_embedded_graphics5batch7to_rows17hf8a2a70c4417ea6dE	0000005e _ZN22piet_embedded_graphics5batch7to_rows17hf8a2a70c4417ea6dE
00000000 g     F .text._ZN22piet_embedded_graphics5batch9to_blocks17h3a57e69ac3bf6409E	00000056 _ZN22piet_embedded_graphics5batch9to_blocks17h3a57e69ac3bf6409E
00000000 g     F .text._ZN22piet_embedded_graphics5batch9to_blocks17h46269434bd8a38f1E	0000005a _ZN22piet_embedded_graphics5batch9to_blocks17h46269434bd8a38f1E
00000000 g     F .text._ZN22piet_embedded_graphics5batch9to_blocks17h8dea47394b1ee6bbE	00000056 _ZN22piet_embedded_graphics5batch9to_blocks17h8dea47394b1ee6bbE
00000000         *UND*	00000000 _ZN4core3ptr18real_drop_in_place17h1b5b9201401842abE
00000000         *UND*	00000000 _ZN4core3ptr18real_drop_in_place17h7aef2a3cc7c1160cE
00000000         *UND*	00000000 _ZN4core3ptr18real_drop_in_place17hae0f96c0e02821c9E
00000000         *UND*	00000000 _ZN4core3ptr18real_drop_in_place17hd992adae17c3a6d3E
00000000         *UND*	00000000 _ZN4core3ptr18real_drop_in_place17hdc379fb5c69cf67aE
00000000         *UND*	00000000 _ZN4core3ptr18real_drop_in_place17hfd02acae2db49155E
00000000         *UND*	00000000 _ZN4core6result19Result$LT$T$C$E$GT$5is_ok17h0a19641dd28a638bE
00000000         *UND*	00000000 _ZN4core6result19Result$LT$T$C$E$GT$5is_ok17h2169747e842d48b7E
00000000         *UND*	00000000 _ZN4core6result19Result$LT$T$C$E$GT$6expect17hd5a6aacc7d7a46d0E
00000000         *UND*	00000000 _ZN4core6result19Result$LT$T$C$E$GT$6expect17hf3746b868183a82aE
00000000         *UND*	00000000 _ZN4core9panicking5panic17hfdd0eecc44a682f8E
00000000         *UND*	00000000 _ZN50_$LT$T$u20$as$u20$core..convert..From$LT$T$GT$$GT$4from17h3246e97bcee02cfcE
00000000 g     F .text._ZN63_$LT$I$u20$as$u20$core..iter..traits..collect..IntoIterator$GT$9into_iter17hb4ca1b39bcbe92c8E	0000000c _ZN63_$LT$I$u20$as$u20$core..iter..traits..collect..IntoIterator$GT$9into_iter17hb4ca1b39bcbe92c8E
00000000 g     F .text._ZN63_$LT$I$u20$as$u20$core..iter..traits..collect..IntoIterator$GT$9into_iter17hbe2d7d57d24ae4ddE	0000000c _ZN63_$LT$I$u20$as$u20$core..iter..traits..collect..IntoIterator$GT$9into_iter17hbe2d7d57d24ae4ddE
00000000 g     F .text._ZN63_$LT$I$u20$as$u20$core..iter..traits..collect..IntoIterator$GT$9into_iter17hcb5e406e5114c0f2E	0000000c _ZN63_$LT$I$u20$as$u20$core..iter..traits..collect..IntoIterator$GT$9into_iter17hcb5e406e5114c0f2E
00000000         *UND*	00000000 _ZN70_$LT$heapless..vec..Vec$LT$T$C$N$GT$$u20$as$u20$core..clone..Clone$GT$5clone17h06de5d43137c8e8cE
00000000         *UND*	00000000 _ZN70_$LT$heapless..vec..Vec$LT$T$C$N$GT$$u20$as$u20$core..clone..Clone$GT$5clone17hca841008de44ea41E
00000000         *UND*	00000000 _ZN73_$LT$core..result..Result$LT$T$C$E$GT$$u20$as$u20$core..ops..try..Try$GT$10from_error17h77bc71430dc08530E
00000000         *UND*	00000000 _ZN73_$LT$core..result..Result$LT$T$C$E$GT$$u20$as$u20$core..ops..try..Try$GT$11into_result17h190a109881ebe95dE
00000000         *UND*	00000000 _ZN75_$LT$heapless..vec..Vec$LT$T$C$N$GT$$u20$as$u20$core..ops..deref..Deref$GT$5deref17h26cfc6056df07241E
00000000         *UND*	00000000 _ZN8heapless3vec16Vec$LT$T$C$N$GT$17extend_from_slice17h13d4385adab264f0E
00000000         *UND*	00000000 _ZN8heapless3vec16Vec$LT$T$C$N$GT$3new17h2de058a16b3a9b38E
00000000         *UND*	00000000 _ZN8heapless3vec16Vec$LT$T$C$N$GT$3new17h5ac6dca824738de3E
00000000         *UND*	00000000 _ZN8heapless3vec16Vec$LT$T$C$N$GT$4push17h6f527a384316b252E
00000000         *UND*	00000000 _ZN8heapless3vec16Vec$LT$T$C$N$GT$5clear17h2f7841f03661f139E
00000000         *UND*	00000000 _ZN8heapless3vec16Vec$LT$T$C$N$GT$5clear17hfd39c9763fef61d4E
00000000         *UND*	00000000 __aeabi_memcpy4



Disassembly of section .text._ZN110_$LT$piet_embedded_graphics..batch..RowIterator$LT$P$GT$$u20$as$u20$core..iter..traits..iterator..Iterator$GT$4next17h87cbe1351dcb933dE:

00000000 <_ZN110_$LT$piet_embedded_graphics..batch..RowIterator$LT$P$GT$$u20$as$u20$core..iter..traits..iterator..Iterator$GT$4next17h87cbe1351dcb933dE>:
_ZN110_$LT$piet_embedded_graphics..batch..RowIterator$LT$P$GT$$u20$as$u20$core..iter..traits..iterator..Iterator$GT$4next17h87cbe1351dcb933dE():
/Users/Luppy/PineTime/pinetime-rust-mynewt/rust/piet-embedded/piet-embedded-graphics/src/batch.rs:168
impl<P: Iterator<Item = Pixel<Rgb565>>> Iterator for RowIterator<P> {
    /// This Iterator returns Pixel Rows
    type Item = PixelRow;

    /// Return the next Pixel Row of contiguous pixels on the same row
    fn next(&mut self) -> Option<Self::Item> {
   0:	b580      	push	{r7, lr}
   2:	f5ad 6dad 	sub.w	sp, sp, #1384	; 0x568
   6:	9115      	str	r1, [sp, #84]	; 0x54
/Users/Luppy/PineTime/pinetime-rust-mynewt/rust/piet-embedded/piet-embedded-graphics/src/batch.rs:170
        //  Loop over all pixels until we have composed a Pixel Row, or we have run out of pixels.
        loop {
   8:	9014      	str	r0, [sp, #80]	; 0x50
   a:	e7ff      	b.n	c <_ZN110_$LT$piet_embedded_graphics..batch..RowIterator$LT$P$GT$$u20$as$u20$core..iter..traits..iterator..Iterator$GT$4next17h87cbe1351dcb933dE+0xc>
/Users/Luppy/PineTime/pinetime-rust-mynewt/rust/piet-embedded/piet-embedded-graphics/src/batch.rs:172
            //  Get the next pixel.
            let next_pixel = self.pixels.next();
   c:	9915      	ldr	r1, [sp, #84]	; 0x54
   e:	a816      	add	r0, sp, #88	; 0x58
  10:	f7ff fffe 	bl	0 <_ZN134_$LT$embedded_graphics..fonts..font_builder..FontBuilderIterator$LT$C$C$Conf$GT$$u20$as$u20$core..iter..traits..iterator..Iterator$GT$4next17h8c97a966a9cbf4aeE>
  14:	e7ff      	b.n	16 <_ZN110_$LT$piet_embedded_graphics..batch..RowIterator$LT$P$GT$$u20$as$u20$core..iter..traits..iterator..Iterator$GT$4next17h87cbe1351dcb933dE+0x16>
/Users/Luppy/PineTime/pinetime-rust-mynewt/rust/piet-embedded/piet-embedded-graphics/src/batch.rs:174
            match next_pixel {
                None => {  //  If no more pixels...
  16:	9816      	ldr	r0, [sp, #88]	; 0x58
  18:	2800      	cmp	r0, #0
  1a:	d002      	beq.n	22 <_ZN110_$LT$piet_embedded_graphics..batch..RowIterator$LT$P$GT$$u20$as$u20$core..iter..traits..iterator..Iterator$GT$4next17h87cbe1351dcb933dE+0x22>
  1c:	e7ff      	b.n	1e <_ZN110_$LT$piet_embedded_graphics..batch..RowIterator$LT$P$GT$$u20$as$u20$core..iter..traits..iterator..Iterator$GT$4next17h87cbe1351dcb933dE+0x1e>
  1e:	e04e      	b.n	be <_ZN110_$LT$piet_embedded_graphics..batch..RowIterator$LT$P$GT$$u20$as$u20$core..iter..traits..iterator..Iterator$GT$4next17h87cbe1351dcb933dE+0xbe>
/Users/Luppy/PineTime/pinetime-rust-mynewt/rust/piet-embedded/piet-embedded-graphics/src/batch.rs:173
            match next_pixel {
  20:	defe      	udf	#254	; 0xfe
/Users/Luppy/PineTime/pinetime-rust-mynewt/rust/piet-embedded/piet-embedded-graphics/src/batch.rs:175
                    if self.first_pixel {
  22:	9815      	ldr	r0, [sp, #84]	; 0x54
  24:	f890 00fe 	ldrb.w	r0, [r0, #254]	; 0xfe
  28:	07c0      	lsls	r0, r0, #31
  2a:	2800      	cmp	r0, #0
  2c:	d115      	bne.n	5a <_ZN110_$LT$piet_embedded_graphics..batch..RowIterator$LT$P$GT$$u20$as$u20$core..iter..traits..iterator..Iterator$GT$4next17h87cbe1351dcb933dE+0x5a>
  2e:	e7ff      	b.n	30 <_ZN110_$LT$piet_embedded_graphics..batch..RowIterator$LT$P$GT$$u20$as$u20$core..iter..traits..iterator..Iterator$GT$4next17h87cbe1351dcb933dE+0x30>
/Users/Luppy/PineTime/pinetime-rust-mynewt/rust/piet-embedded/piet-embedded-graphics/src/batch.rs:180
                        return None;  //  No pixels to group
                    }                    
                    //  Else return previous pixels as row.
                    let row = PixelRow {
                        x_left: self.x_left,
  30:	9815      	ldr	r0, [sp, #84]	; 0x54
  32:	f8b0 10f8 	ldrh.w	r1, [r0, #248]	; 0xf8
/Users/Luppy/PineTime/pinetime-rust-mynewt/rust/piet-embedded/piet-embedded-graphics/src/batch.rs:181
                        x_right: self.x_right,
  36:	f8b0 20fa 	ldrh.w	r2, [r0, #250]	; 0xfa
/Users/Luppy/PineTime/pinetime-rust-mynewt/rust/piet-embedded/piet-embedded-graphics/src/batch.rs:182
                        y: self.y,
  3a:	f8b0 30fc 	ldrh.w	r3, [r0, #252]	; 0xfc
/Users/Luppy/PineTime/pinetime-rust-mynewt/rust/piet-embedded/piet-embedded-graphics/src/batch.rs:183
                        colors: self.colors.clone(),
  3e:	302c      	adds	r0, #44	; 0x2c
  40:	f50d 7c9e 	add.w	ip, sp, #316	; 0x13c
  44:	9013      	str	r0, [sp, #76]	; 0x4c
  46:	4660      	mov	r0, ip
  48:	f8dd c04c 	ldr.w	ip, [sp, #76]	; 0x4c
  4c:	9112      	str	r1, [sp, #72]	; 0x48
  4e:	4661      	mov	r1, ip
  50:	9211      	str	r2, [sp, #68]	; 0x44
  52:	9310      	str	r3, [sp, #64]	; 0x40
  54:	f7ff fffe 	bl	0 <_ZN70_$LT$heapless..vec..Vec$LT$T$C$N$GT$$u20$as$u20$core..clone..Clone$GT$5clone17hca841008de44ea41E>
  58:	e006      	b.n	68 <_ZN110_$LT$piet_embedded_graphics..batch..RowIterator$LT$P$GT$$u20$as$u20$core..iter..traits..iterator..Iterator$GT$4next17h87cbe1351dcb933dE+0x68>
  5a:	2000      	movs	r0, #0
/Users/Luppy/PineTime/pinetime-rust-mynewt/rust/piet-embedded/piet-embedded-graphics/src/batch.rs:176
                        return None;  //  No pixels to group
  5c:	9914      	ldr	r1, [sp, #80]	; 0x50
  5e:	6008      	str	r0, [r1, #0]
  60:	e7ff      	b.n	62 <_ZN110_$LT$piet_embedded_graphics..batch..RowIterator$LT$P$GT$$u20$as$u20$core..iter..traits..iterator..Iterator$GT$4next17h87cbe1351dcb933dE+0x62>
/Users/Luppy/PineTime/pinetime-rust-mynewt/rust/piet-embedded/piet-embedded-graphics/src/batch.rs:229
                        .expect("never");
                    return Some(row);
                }
            }
        }
    }
  62:	f50d 6dad 	add.w	sp, sp, #1384	; 0x568
  66:	bd80      	pop	{r7, pc}
/Users/Luppy/PineTime/pinetime-rust-mynewt/rust/piet-embedded/piet-embedded-graphics/src/batch.rs:179
                    let row = PixelRow {
  68:	9812      	ldr	r0, [sp, #72]	; 0x48
  6a:	f8ad 0134 	strh.w	r0, [sp, #308]	; 0x134
  6e:	9911      	ldr	r1, [sp, #68]	; 0x44
  70:	f8ad 1136 	strh.w	r1, [sp, #310]	; 0x136
  74:	9a10      	ldr	r2, [sp, #64]	; 0x40
  76:	f8ad 2138 	strh.w	r2, [sp, #312]	; 0x138
  7a:	a81a      	add	r0, sp, #104	; 0x68
  7c:	a94f      	add	r1, sp, #316	; 0x13c
  7e:	22cc      	movs	r2, #204	; 0xcc
  80:	f7ff fffe 	bl	0 <__aeabi_memcpy4>
/Users/Luppy/PineTime/pinetime-rust-mynewt/rust/piet-embedded/piet-embedded-graphics/src/batch.rs:185
                    self.colors.clear();
  84:	9815      	ldr	r0, [sp, #84]	; 0x54
  86:	302c      	adds	r0, #44	; 0x2c
  88:	f7ff fffe 	bl	0 <_ZN8heapless3vec16Vec$LT$T$C$N$GT$5clear17h2f7841f03661f139E>
  8c:	e7ff      	b.n	8e <_ZN110_$LT$piet_embedded_graphics..batch..RowIterator$LT$P$GT$$u20$as$u20$core..iter..traits..iterator..Iterator$GT$4next17h87cbe1351dcb933dE+0x8e>
/Users/Luppy/PineTime/pinetime-rust-mynewt/rust/piet-embedded/piet-embedded-graphics/src/batch.rs:186
                    self.first_pixel = true;
  8e:	9815      	ldr	r0, [sp, #84]	; 0x54
  90:	2101      	movs	r1, #1
  92:	f880 10fe 	strb.w	r1, [r0, #254]	; 0xfe
  96:	a882      	add	r0, sp, #520	; 0x208
  98:	aa1a      	add	r2, sp, #104	; 0x68
  9a:	23d4      	movs	r3, #212	; 0xd4
/Users/Luppy/PineTime/pinetime-rust-mynewt/rust/piet-embedded/piet-embedded-graphics/src/batch.rs:187
                    return Some(row);
  9c:	900f      	str	r0, [sp, #60]	; 0x3c
  9e:	910e      	str	r1, [sp, #56]	; 0x38
  a0:	4611      	mov	r1, r2
  a2:	461a      	mov	r2, r3
  a4:	930d      	str	r3, [sp, #52]	; 0x34
  a6:	f7ff fffe 	bl	0 <__aeabi_memcpy4>
  aa:	9814      	ldr	r0, [sp, #80]	; 0x50
  ac:	3004      	adds	r0, #4
  ae:	990f      	ldr	r1, [sp, #60]	; 0x3c
  b0:	9a0d      	ldr	r2, [sp, #52]	; 0x34
  b2:	f7ff fffe 	bl	0 <__aeabi_memcpy4>
  b6:	980e      	ldr	r0, [sp, #56]	; 0x38
  b8:	9914      	ldr	r1, [sp, #80]	; 0x50
  ba:	6008      	str	r0, [r1, #0]
  bc:	e7d1      	b.n	62 <_ZN110_$LT$piet_embedded_graphics..batch..RowIterator$LT$P$GT$$u20$as$u20$core..iter..traits..iterator..Iterator$GT$4next17h87cbe1351dcb933dE+0x62>
/Users/Luppy/PineTime/pinetime-rust-mynewt/rust/piet-embedded/piet-embedded-graphics/src/batch.rs:189
                Some(Pixel(coord, color)) => {  //  If there is a pixel...
  be:	9817      	ldr	r0, [sp, #92]	; 0x5c
  c0:	9918      	ldr	r1, [sp, #96]	; 0x60
  c2:	90b7      	str	r0, [sp, #732]	; 0x2dc
  c4:	91b8      	str	r1, [sp, #736]	; 0x2e0
  c6:	f8bd 0064 	ldrh.w	r0, [sp, #100]	; 0x64
  ca:	f8ad 02e6 	strh.w	r0, [sp, #742]	; 0x2e6
/Users/Luppy/PineTime/pinetime-rust-mynewt/rust/piet-embedded/piet-embedded-graphics/src/batch.rs:190
                    let x = coord.0 as u16;
  ce:	98b7      	ldr	r0, [sp, #732]	; 0x2dc
  d0:	f8ad 02e8 	strh.w	r0, [sp, #744]	; 0x2e8
/Users/Luppy/PineTime/pinetime-rust-mynewt/rust/piet-embedded/piet-embedded-graphics/src/batch.rs:191
                    let y = coord.1 as u16;
  d4:	98b8      	ldr	r0, [sp, #736]	; 0x2e0
  d6:	f8ad 02ea 	strh.w	r0, [sp, #746]	; 0x2ea
/Users/Luppy/PineTime/pinetime-rust-mynewt/rust/piet-embedded/piet-embedded-graphics/src/batch.rs:192
                    let color = color.0;
  da:	f8bd 02e6 	ldrh.w	r0, [sp, #742]	; 0x2e6
  de:	f8ad 02ec 	strh.w	r0, [sp, #748]	; 0x2ec
/Users/Luppy/PineTime/pinetime-rust-mynewt/rust/piet-embedded/piet-embedded-graphics/src/batch.rs:194
                    if self.first_pixel {
  e2:	9815      	ldr	r0, [sp, #84]	; 0x54
  e4:	f890 00fe 	ldrb.w	r0, [r0, #254]	; 0xfe
  e8:	07c0      	lsls	r0, r0, #31
  ea:	2800      	cmp	r0, #0
  ec:	d10e      	bne.n	10c <_ZN110_$LT$piet_embedded_graphics..batch..RowIterator$LT$P$GT$$u20$as$u20$core..iter..traits..iterator..Iterator$GT$4next17h87cbe1351dcb933dE+0x10c>
  ee:	e7ff      	b.n	f0 <_ZN110_$LT$piet_embedded_graphics..batch..RowIterator$LT$P$GT$$u20$as$u20$core..iter..traits..iterator..Iterator$GT$4next17h87cbe1351dcb933dE+0xf0>
/Users/Luppy/PineTime/pinetime-rust-mynewt/rust/piet-embedded/piet-embedded-graphics/src/batch.rs:205
                    if x == self.x_right + 1 && y == self.y {
  f0:	f8bd 02e8 	ldrh.w	r0, [sp, #744]	; 0x2e8
  f4:	9915      	ldr	r1, [sp, #84]	; 0x54
  f6:	f8b1 10fa 	ldrh.w	r1, [r1, #250]	; 0xfa
  fa:	3101      	adds	r1, #1
  fc:	b28a      	uxth	r2, r1
  fe:	460b      	mov	r3, r1
 100:	428a      	cmp	r2, r1
 102:	900c      	str	r0, [sp, #48]	; 0x30
 104:	930b      	str	r3, [sp, #44]	; 0x2c
 106:	f040 80c3 	bne.w	290 <_ZN110_$LT$piet_embedded_graphics..batch..RowIterator$LT$P$GT$$u20$as$u20$core..iter..traits..iterator..Iterator$GT$4next17h87cbe1351dcb933dE+0x290>
 10a:	e042      	b.n	192 <_ZN110_$LT$piet_embedded_graphics..batch..RowIterator$LT$P$GT$$u20$as$u20$core..iter..traits..iterator..Iterator$GT$4next17h87cbe1351dcb933dE+0x192>
/Users/Luppy/PineTime/pinetime-rust-mynewt/rust/piet-embedded/piet-embedded-graphics/src/batch.rs:195
                        self.first_pixel = false;
 10c:	9815      	ldr	r0, [sp, #84]	; 0x54
 10e:	2100      	movs	r1, #0
 110:	f880 10fe 	strb.w	r1, [r0, #254]	; 0xfe
/Users/Luppy/PineTime/pinetime-rust-mynewt/rust/piet-embedded/piet-embedded-graphics/src/batch.rs:196
                        self.x_left = x;
 114:	f8bd 02e8 	ldrh.w	r0, [sp, #744]	; 0x2e8
 118:	9915      	ldr	r1, [sp, #84]	; 0x54
 11a:	f8a1 00f8 	strh.w	r0, [r1, #248]	; 0xf8
/Users/Luppy/PineTime/pinetime-rust-mynewt/rust/piet-embedded/piet-embedded-graphics/src/batch.rs:197
                        self.x_right = x;
 11e:	f8bd 02e8 	ldrh.w	r0, [sp, #744]	; 0x2e8
 122:	9915      	ldr	r1, [sp, #84]	; 0x54
 124:	f8a1 00fa 	strh.w	r0, [r1, #250]	; 0xfa
/Users/Luppy/PineTime/pinetime-rust-mynewt/rust/piet-embedded/piet-embedded-graphics/src/batch.rs:198
                        self.y = y;
 128:	f8bd 02ea 	ldrh.w	r0, [sp, #746]	; 0x2ea
 12c:	9915      	ldr	r1, [sp, #84]	; 0x54
 12e:	f8a1 00fc 	strh.w	r0, [r1, #252]	; 0xfc
/Users/Luppy/PineTime/pinetime-rust-mynewt/rust/piet-embedded/piet-embedded-graphics/src/batch.rs:199
                        self.colors.clear();
 132:	9815      	ldr	r0, [sp, #84]	; 0x54
 134:	302c      	adds	r0, #44	; 0x2c
 136:	f7ff fffe 	bl	0 <_ZN8heapless3vec16Vec$LT$T$C$N$GT$5clear17h2f7841f03661f139E>
 13a:	e7ff      	b.n	13c <_ZN110_$LT$piet_embedded_graphics..batch..RowIterator$LT$P$GT$$u20$as$u20$core..iter..traits..iterator..Iterator$GT$4next17h87cbe1351dcb933dE+0x13c>
/Users/Luppy/PineTime/pinetime-rust-mynewt/rust/piet-embedded/piet-embedded-graphics/src/batch.rs:200
                        self.colors.push(color)
 13c:	9815      	ldr	r0, [sp, #84]	; 0x54
 13e:	302c      	adds	r0, #44	; 0x2c
 140:	f8bd 12ec 	ldrh.w	r1, [sp, #748]	; 0x2ec
 144:	f7ff fffe 	bl	0 <_ZN8heapless3vec16Vec$LT$T$C$N$GT$4push17h6f527a384316b252E>
 148:	900a      	str	r0, [sp, #40]	; 0x28
 14a:	9109      	str	r1, [sp, #36]	; 0x24
 14c:	e7ff      	b.n	14e <_ZN110_$LT$piet_embedded_graphics..batch..RowIterator$LT$P$GT$$u20$as$u20$core..iter..traits..iterator..Iterator$GT$4next17h87cbe1351dcb933dE+0x14e>
 14e:	f240 0200 	movw	r2, #0
 152:	f2c0 0200 	movt	r2, #0
 156:	2305      	movs	r3, #5
 158:	980a      	ldr	r0, [sp, #40]	; 0x28
 15a:	9909      	ldr	r1, [sp, #36]	; 0x24
 15c:	f7ff fffe 	bl	0 <_ZN4core6result19Result$LT$T$C$E$GT$6expect17hd5a6aacc7d7a46d0E>
 160:	e7ff      	b.n	162 <_ZN110_$LT$piet_embedded_graphics..batch..RowIterator$LT$P$GT$$u20$as$u20$core..iter..traits..iterator..Iterator$GT$4next17h87cbe1351dcb933dE+0x162>
/Users/Luppy/PineTime/pinetime-rust-mynewt/rust/piet-embedded/piet-embedded-graphics/src/batch.rs:202
                        continue;
 162:	e7ff      	b.n	164 <_ZN110_$LT$piet_embedded_graphics..batch..RowIterator$LT$P$GT$$u20$as$u20$core..iter..traits..iterator..Iterator$GT$4next17h87cbe1351dcb933dE+0x164>
 164:	e752      	b.n	c <_ZN110_$LT$piet_embedded_graphics..batch..RowIterator$LT$P$GT$$u20$as$u20$core..iter..traits..iterator..Iterator$GT$4next17h87cbe1351dcb933dE+0xc>
 166:	2001      	movs	r0, #1
/Users/Luppy/PineTime/pinetime-rust-mynewt/rust/piet-embedded/piet-embedded-graphics/src/batch.rs:205
                    if x == self.x_right + 1 && y == self.y {
 168:	f88d 02ef 	strb.w	r0, [sp, #751]	; 0x2ef
 16c:	e00b      	b.n	186 <_ZN110_$LT$piet_embedded_graphics..batch..RowIterator$LT$P$GT$$u20$as$u20$core..iter..traits..iterator..Iterator$GT$4next17h87cbe1351dcb933dE+0x186>
 16e:	2000      	movs	r0, #0
 170:	f88d 02ef 	strb.w	r0, [sp, #751]	; 0x2ef
 174:	e007      	b.n	186 <_ZN110_$LT$piet_embedded_graphics..batch..RowIterator$LT$P$GT$$u20$as$u20$core..iter..traits..iterator..Iterator$GT$4next17h87cbe1351dcb933dE+0x186>
 176:	f8bd 02ea 	ldrh.w	r0, [sp, #746]	; 0x2ea
 17a:	9915      	ldr	r1, [sp, #84]	; 0x54
 17c:	f8b1 10fc 	ldrh.w	r1, [r1, #252]	; 0xfc
 180:	4288      	cmp	r0, r1
 182:	d0f0      	beq.n	166 <_ZN110_$LT$piet_embedded_graphics..batch..RowIterator$LT$P$GT$$u20$as$u20$core..iter..traits..iterator..Iterator$GT$4next17h87cbe1351dcb933dE+0x166>
 184:	e7f3      	b.n	16e <_ZN110_$LT$piet_embedded_graphics..batch..RowIterator$LT$P$GT$$u20$as$u20$core..iter..traits..iterator..Iterator$GT$4next17h87cbe1351dcb933dE+0x16e>
 186:	f89d 02ef 	ldrb.w	r0, [sp, #751]	; 0x2ef
 18a:	07c0      	lsls	r0, r0, #31
 18c:	2800      	cmp	r0, #0
 18e:	d107      	bne.n	1a0 <_ZN110_$LT$piet_embedded_graphics..batch..RowIterator$LT$P$GT$$u20$as$u20$core..iter..traits..iterator..Iterator$GT$4next17h87cbe1351dcb933dE+0x1a0>
 190:	e022      	b.n	1d8 <_ZN110_$LT$piet_embedded_graphics..batch..RowIterator$LT$P$GT$$u20$as$u20$core..iter..traits..iterator..Iterator$GT$4next17h87cbe1351dcb933dE+0x1d8>
 192:	980b      	ldr	r0, [sp, #44]	; 0x2c
 194:	b281      	uxth	r1, r0
 196:	9a0c      	ldr	r2, [sp, #48]	; 0x30
 198:	b293      	uxth	r3, r2
 19a:	428b      	cmp	r3, r1
 19c:	d0eb      	beq.n	176 <_ZN110_$LT$piet_embedded_graphics..batch..RowIterator$LT$P$GT$$u20$as$u20$core..iter..traits..iterator..Iterator$GT$4next17h87cbe1351dcb933dE+0x176>
 19e:	e7e6      	b.n	16e <_ZN110_$LT$piet_embedded_graphics..batch..RowIterator$LT$P$GT$$u20$as$u20$core..iter..traits..iterator..Iterator$GT$4next17h87cbe1351dcb933dE+0x16e>
/Users/Luppy/PineTime/pinetime-rust-mynewt/rust/piet-embedded/piet-embedded-graphics/src/batch.rs:206
                        if self.colors.push(color).is_ok() {
 1a0:	9815      	ldr	r0, [sp, #84]	; 0x54
 1a2:	302c      	adds	r0, #44	; 0x2c
 1a4:	f8bd 12ec 	ldrh.w	r1, [sp, #748]	; 0x2ec
 1a8:	f7ff fffe 	bl	0 <_ZN8heapless3vec16Vec$LT$T$C$N$GT$4push17h6f527a384316b252E>
 1ac:	f8ad 12f2 	strh.w	r1, [sp, #754]	; 0x2f2
 1b0:	f8ad 02f0 	strh.w	r0, [sp, #752]	; 0x2f0
 1b4:	e7ff      	b.n	1b6 <_ZN110_$LT$piet_embedded_graphics..batch..RowIterator$LT$P$GT$$u20$as$u20$core..iter..traits..iterator..Iterator$GT$4next17h87cbe1351dcb933dE+0x1b6>
 1b6:	a8bc      	add	r0, sp, #752	; 0x2f0
 1b8:	f7ff fffe 	bl	0 <_ZN4core6result19Result$LT$T$C$E$GT$5is_ok17h0a19641dd28a638bE>
 1bc:	9008      	str	r0, [sp, #32]
 1be:	e7ff      	b.n	1c0 <_ZN110_$LT$piet_embedded_graphics..batch..RowIterator$LT$P$GT$$u20$as$u20$core..iter..traits..iterator..Iterator$GT$4next17h87cbe1351dcb933dE+0x1c0>
 1c0:	9808      	ldr	r0, [sp, #32]
 1c2:	07c1      	lsls	r1, r0, #31
 1c4:	2900      	cmp	r1, #0
 1c6:	d101      	bne.n	1cc <_ZN110_$LT$piet_embedded_graphics..batch..RowIterator$LT$P$GT$$u20$as$u20$core..iter..traits..iterator..Iterator$GT$4next17h87cbe1351dcb933dE+0x1cc>
 1c8:	e7ff      	b.n	1ca <_ZN110_$LT$piet_embedded_graphics..batch..RowIterator$LT$P$GT$$u20$as$u20$core..iter..traits..iterator..Iterator$GT$4next17h87cbe1351dcb933dE+0x1ca>
/Users/Luppy/PineTime/pinetime-rust-mynewt/rust/piet-embedded/piet-embedded-graphics/src/batch.rs:205
                    if x == self.x_right + 1 && y == self.y {
 1ca:	e005      	b.n	1d8 <_ZN110_$LT$piet_embedded_graphics..batch..RowIterator$LT$P$GT$$u20$as$u20$core..iter..traits..iterator..Iterator$GT$4next17h87cbe1351dcb933dE+0x1d8>
/Users/Luppy/PineTime/pinetime-rust-mynewt/rust/piet-embedded/piet-embedded-graphics/src/batch.rs:208
                            self.x_right = x;
 1cc:	f8bd 02e8 	ldrh.w	r0, [sp, #744]	; 0x2e8
 1d0:	9915      	ldr	r1, [sp, #84]	; 0x54
 1d2:	f8a1 00fa 	strh.w	r0, [r1, #250]	; 0xfa
/Users/Luppy/PineTime/pinetime-rust-mynewt/rust/piet-embedded/piet-embedded-graphics/src/batch.rs:209
                            continue;
 1d6:	e7c5      	b.n	164 <_ZN110_$LT$piet_embedded_graphics..batch..RowIterator$LT$P$GT$$u20$as$u20$core..iter..traits..iterator..Iterator$GT$4next17h87cbe1351dcb933dE+0x164>
/Users/Luppy/PineTime/pinetime-rust-mynewt/rust/piet-embedded/piet-embedded-graphics/src/batch.rs:214
                        x_left: self.x_left,
 1d8:	9815      	ldr	r0, [sp, #84]	; 0x54
 1da:	f8b0 10f8 	ldrh.w	r1, [r0, #248]	; 0xf8
/Users/Luppy/PineTime/pinetime-rust-mynewt/rust/piet-embedded/piet-embedded-graphics/src/batch.rs:215
                        x_right: self.x_right,
 1de:	f8b0 20fa 	ldrh.w	r2, [r0, #250]	; 0xfa
/Users/Luppy/PineTime/pinetime-rust-mynewt/rust/piet-embedded/piet-embedded-graphics/src/batch.rs:216
                        y: self.y,
 1e2:	f8b0 30fc 	ldrh.w	r3, [r0, #252]	; 0xfc
/Users/Luppy/PineTime/pinetime-rust-mynewt/rust/piet-embedded/piet-embedded-graphics/src/batch.rs:217
                        colors: self.colors.clone(),
 1e6:	302c      	adds	r0, #44	; 0x2c
 1e8:	f50d 7c72 	add.w	ip, sp, #968	; 0x3c8
 1ec:	9007      	str	r0, [sp, #28]
 1ee:	4660      	mov	r0, ip
 1f0:	f8dd c01c 	ldr.w	ip, [sp, #28]
 1f4:	9106      	str	r1, [sp, #24]
 1f6:	4661      	mov	r1, ip
 1f8:	9205      	str	r2, [sp, #20]
 1fa:	9304      	str	r3, [sp, #16]
 1fc:	f7ff fffe 	bl	0 <_ZN70_$LT$heapless..vec..Vec$LT$T$C$N$GT$$u20$as$u20$core..clone..Clone$GT$5clone17hca841008de44ea41E>
 200:	e7ff      	b.n	202 <_ZN110_$LT$piet_embedded_graphics..batch..RowIterator$LT$P$GT$$u20$as$u20$core..iter..traits..iterator..Iterator$GT$4next17h87cbe1351dcb933dE+0x202>
/Users/Luppy/PineTime/pinetime-rust-mynewt/rust/piet-embedded/piet-embedded-graphics/src/batch.rs:213
                    let row = PixelRow {
 202:	9806      	ldr	r0, [sp, #24]
 204:	f8ad 03c0 	strh.w	r0, [sp, #960]	; 0x3c0
 208:	9905      	ldr	r1, [sp, #20]
 20a:	f8ad 13c2 	strh.w	r1, [sp, #962]	; 0x3c2
 20e:	9a04      	ldr	r2, [sp, #16]
 210:	f8ad 23c4 	strh.w	r2, [sp, #964]	; 0x3c4
 214:	a8bd      	add	r0, sp, #756	; 0x2f4
 216:	a9f2      	add	r1, sp, #968	; 0x3c8
 218:	22cc      	movs	r2, #204	; 0xcc
 21a:	f7ff fffe 	bl	0 <__aeabi_memcpy4>
/Users/Luppy/PineTime/pinetime-rust-mynewt/rust/piet-embedded/piet-embedded-graphics/src/batch.rs:219
                    self.x_left = x;
 21e:	f8bd 02e8 	ldrh.w	r0, [sp, #744]	; 0x2e8
 222:	9915      	ldr	r1, [sp, #84]	; 0x54
 224:	f8a1 00f8 	strh.w	r0, [r1, #248]	; 0xf8
/Users/Luppy/PineTime/pinetime-rust-mynewt/rust/piet-embedded/piet-embedded-graphics/src/batch.rs:220
                    self.x_right = x;
 228:	f8bd 02e8 	ldrh.w	r0, [sp, #744]	; 0x2e8
 22c:	9915      	ldr	r1, [sp, #84]	; 0x54
 22e:	f8a1 00fa 	strh.w	r0, [r1, #250]	; 0xfa
/Users/Luppy/PineTime/pinetime-rust-mynewt/rust/piet-embedded/piet-embedded-graphics/src/batch.rs:221
                    self.y = y;
 232:	f8bd 02ea 	ldrh.w	r0, [sp, #746]	; 0x2ea
 236:	9915      	ldr	r1, [sp, #84]	; 0x54
 238:	f8a1 00fc 	strh.w	r0, [r1, #252]	; 0xfc
/Users/Luppy/PineTime/pinetime-rust-mynewt/rust/piet-embedded/piet-embedded-graphics/src/batch.rs:222
                    self.colors.clear();
 23c:	9815      	ldr	r0, [sp, #84]	; 0x54
 23e:	302c      	adds	r0, #44	; 0x2c
 240:	f7ff fffe 	bl	0 <_ZN8heapless3vec16Vec$LT$T$C$N$GT$5clear17h2f7841f03661f139E>
 244:	e7ff      	b.n	246 <_ZN110_$LT$piet_embedded_graphics..batch..RowIterator$LT$P$GT$$u20$as$u20$core..iter..traits..iterator..Iterator$GT$4next17h87cbe1351dcb933dE+0x246>
/Users/Luppy/PineTime/pinetime-rust-mynewt/rust/piet-embedded/piet-embedded-graphics/src/batch.rs:223
                    self.colors.push(color)
 246:	9815      	ldr	r0, [sp, #84]	; 0x54
 248:	302c      	adds	r0, #44	; 0x2c
 24a:	f8bd 12ec 	ldrh.w	r1, [sp, #748]	; 0x2ec
 24e:	f7ff fffe 	bl	0 <_ZN8heapless3vec16Vec$LT$T$C$N$GT$4push17h6f527a384316b252E>
 252:	9003      	str	r0, [sp, #12]
 254:	9102      	str	r1, [sp, #8]
 256:	e7ff      	b.n	258 <_ZN110_$LT$piet_embedded_graphics..batch..RowIterator$LT$P$GT$$u20$as$u20$core..iter..traits..iterator..Iterator$GT$4next17h87cbe1351dcb933dE+0x258>
 258:	f240 0200 	movw	r2, #0
 25c:	f2c0 0200 	movt	r2, #0
 260:	2305      	movs	r3, #5
 262:	9803      	ldr	r0, [sp, #12]
 264:	9902      	ldr	r1, [sp, #8]
 266:	f7ff fffe 	bl	0 <_ZN4core6result19Result$LT$T$C$E$GT$6expect17hd5a6aacc7d7a46d0E>
 26a:	e7ff      	b.n	26c <_ZN110_$LT$piet_embedded_graphics..batch..RowIterator$LT$P$GT$$u20$as$u20$core..iter..traits..iterator..Iterator$GT$4next17h87cbe1351dcb933dE+0x26c>
 26c:	f20d 4094 	addw	r0, sp, #1172	; 0x494
 270:	a9bd      	add	r1, sp, #756	; 0x2f4
 272:	22d4      	movs	r2, #212	; 0xd4
/Users/Luppy/PineTime/pinetime-rust-mynewt/rust/piet-embedded/piet-embedded-graphics/src/batch.rs:225
                    return Some(row);
 274:	9001      	str	r0, [sp, #4]
 276:	9200      	str	r2, [sp, #0]
 278:	f7ff fffe 	bl	0 <__aeabi_memcpy4>
 27c:	9814      	ldr	r0, [sp, #80]	; 0x50
 27e:	3004      	adds	r0, #4
 280:	9901      	ldr	r1, [sp, #4]
 282:	9a00      	ldr	r2, [sp, #0]
 284:	f7ff fffe 	bl	0 <__aeabi_memcpy4>
 288:	2001      	movs	r0, #1
 28a:	9914      	ldr	r1, [sp, #80]	; 0x50
 28c:	6008      	str	r0, [r1, #0]
 28e:	e6e8      	b.n	62 <_ZN110_$LT$piet_embedded_graphics..batch..RowIterator$LT$P$GT$$u20$as$u20$core..iter..traits..iterator..Iterator$GT$4next17h87cbe1351dcb933dE+0x62>
/Users/Luppy/PineTime/pinetime-rust-mynewt/rust/piet-embedded/piet-embedded-graphics/src/batch.rs:205
                    if x == self.x_right + 1 && y == self.y {
 290:	f240 0000 	movw	r0, #0
 294:	f2c0 0000 	movt	r0, #0
 298:	f240 0200 	movw	r2, #0
 29c:	f2c0 0200 	movt	r2, #0
 2a0:	211c      	movs	r1, #28
 2a2:	f7ff fffe 	bl	0 <_ZN4core9panicking5panic17hfdd0eecc44a682f8E>
 2a6:	defe      	udf	#254	; 0xfe

Disassembly of section .text._ZN110_$LT$piet_embedded_graphics..batch..RowIterator$LT$P$GT$$u20$as$u20$core..iter..traits..iterator..Iterator$GT$4next17had8e6a6f3aff842cE:

00000000 <_ZN110_$LT$piet_embedded_graphics..batch..RowIterator$LT$P$GT$$u20$as$u20$core..iter..traits..iterator..Iterator$GT$4next17had8e6a6f3aff842cE>:
_ZN110_$LT$piet_embedded_graphics..batch..RowIterator$LT$P$GT$$u20$as$u20$core..iter..traits..iterator..Iterator$GT$4next17had8e6a6f3aff842cE():
/Users/Luppy/PineTime/pinetime-rust-mynewt/rust/piet-embedded/piet-embedded-graphics/src/batch.rs:168
    fn next(&mut self) -> Option<Self::Item> {
   0:	b580      	push	{r7, lr}
   2:	f5ad 6dad 	sub.w	sp, sp, #1384	; 0x568
   6:	9115      	str	r1, [sp, #84]	; 0x54
/Users/Luppy/PineTime/pinetime-rust-mynewt/rust/piet-embedded/piet-embedded-graphics/src/batch.rs:170
        loop {
   8:	9014      	str	r0, [sp, #80]	; 0x50
   a:	e7ff      	b.n	c <_ZN110_$LT$piet_embedded_graphics..batch..RowIterator$LT$P$GT$$u20$as$u20$core..iter..traits..iterator..Iterator$GT$4next17had8e6a6f3aff842cE+0xc>
/Users/Luppy/PineTime/pinetime-rust-mynewt/rust/piet-embedded/piet-embedded-graphics/src/batch.rs:172
            let next_pixel = self.pixels.next();
   c:	9915      	ldr	r1, [sp, #84]	; 0x54
   e:	a816      	add	r0, sp, #88	; 0x58
  10:	f7ff fffe 	bl	0 <_ZN121_$LT$embedded_graphics..primitives..circle..CircleIterator$LT$C$GT$$u20$as$u20$core..iter..traits..iterator..Iterator$GT$4next17h5c50471d0212345dE>
  14:	e7ff      	b.n	16 <_ZN110_$LT$piet_embedded_graphics..batch..RowIterator$LT$P$GT$$u20$as$u20$core..iter..traits..iterator..Iterator$GT$4next17had8e6a6f3aff842cE+0x16>
/Users/Luppy/PineTime/pinetime-rust-mynewt/rust/piet-embedded/piet-embedded-graphics/src/batch.rs:174
                None => {  //  If no more pixels...
  16:	9816      	ldr	r0, [sp, #88]	; 0x58
  18:	2800      	cmp	r0, #0
  1a:	d002      	beq.n	22 <_ZN110_$LT$piet_embedded_graphics..batch..RowIterator$LT$P$GT$$u20$as$u20$core..iter..traits..iterator..Iterator$GT$4next17had8e6a6f3aff842cE+0x22>
  1c:	e7ff      	b.n	1e <_ZN110_$LT$piet_embedded_graphics..batch..RowIterator$LT$P$GT$$u20$as$u20$core..iter..traits..iterator..Iterator$GT$4next17had8e6a6f3aff842cE+0x1e>
  1e:	e04e      	b.n	be <_ZN110_$LT$piet_embedded_graphics..batch..RowIterator$LT$P$GT$$u20$as$u20$core..iter..traits..iterator..Iterator$GT$4next17had8e6a6f3aff842cE+0xbe>
/Users/Luppy/PineTime/pinetime-rust-mynewt/rust/piet-embedded/piet-embedded-graphics/src/batch.rs:173
            match next_pixel {
  20:	defe      	udf	#254	; 0xfe
/Users/Luppy/PineTime/pinetime-rust-mynewt/rust/piet-embedded/piet-embedded-graphics/src/batch.rs:175
                    if self.first_pixel {
  22:	9815      	ldr	r0, [sp, #84]	; 0x54
  24:	f890 00f2 	ldrb.w	r0, [r0, #242]	; 0xf2
  28:	07c0      	lsls	r0, r0, #31
  2a:	2800      	cmp	r0, #0
  2c:	d115      	bne.n	5a <_ZN110_$LT$piet_embedded_graphics..batch..RowIterator$LT$P$GT$$u20$as$u20$core..iter..traits..iterator..Iterator$GT$4next17had8e6a6f3aff842cE+0x5a>
  2e:	e7ff      	b.n	30 <_ZN110_$LT$piet_embedded_graphics..batch..RowIterator$LT$P$GT$$u20$as$u20$core..iter..traits..iterator..Iterator$GT$4next17had8e6a6f3aff842cE+0x30>
/Users/Luppy/PineTime/pinetime-rust-mynewt/rust/piet-embedded/piet-embedded-graphics/src/batch.rs:180
                        x_left: self.x_left,
  30:	9815      	ldr	r0, [sp, #84]	; 0x54
  32:	f8b0 10ec 	ldrh.w	r1, [r0, #236]	; 0xec
/Users/Luppy/PineTime/pinetime-rust-mynewt/rust/piet-embedded/piet-embedded-graphics/src/batch.rs:181
                        x_right: self.x_right,
  36:	f8b0 20ee 	ldrh.w	r2, [r0, #238]	; 0xee
/Users/Luppy/PineTime/pinetime-rust-mynewt/rust/piet-embedded/piet-embedded-graphics/src/batch.rs:182
                        y: self.y,
  3a:	f8b0 30f0 	ldrh.w	r3, [r0, #240]	; 0xf0
/Users/Luppy/PineTime/pinetime-rust-mynewt/rust/piet-embedded/piet-embedded-graphics/src/batch.rs:183
                        colors: self.colors.clone(),
  3e:	3020      	adds	r0, #32
  40:	f50d 7c9e 	add.w	ip, sp, #316	; 0x13c
  44:	9013      	str	r0, [sp, #76]	; 0x4c
  46:	4660      	mov	r0, ip
  48:	f8dd c04c 	ldr.w	ip, [sp, #76]	; 0x4c
  4c:	9112      	str	r1, [sp, #72]	; 0x48
  4e:	4661      	mov	r1, ip
  50:	9211      	str	r2, [sp, #68]	; 0x44
  52:	9310      	str	r3, [sp, #64]	; 0x40
  54:	f7ff fffe 	bl	0 <_ZN70_$LT$heapless..vec..Vec$LT$T$C$N$GT$$u20$as$u20$core..clone..Clone$GT$5clone17hca841008de44ea41E>
  58:	e006      	b.n	68 <_ZN110_$LT$piet_embedded_graphics..batch..RowIterator$LT$P$GT$$u20$as$u20$core..iter..traits..iterator..Iterator$GT$4next17had8e6a6f3aff842cE+0x68>
  5a:	2000      	movs	r0, #0
/Users/Luppy/PineTime/pinetime-rust-mynewt/rust/piet-embedded/piet-embedded-graphics/src/batch.rs:176
                        return None;  //  No pixels to group
  5c:	9914      	ldr	r1, [sp, #80]	; 0x50
  5e:	6008      	str	r0, [r1, #0]
  60:	e7ff      	b.n	62 <_ZN110_$LT$piet_embedded_graphics..batch..RowIterator$LT$P$GT$$u20$as$u20$core..iter..traits..iterator..Iterator$GT$4next17had8e6a6f3aff842cE+0x62>
/Users/Luppy/PineTime/pinetime-rust-mynewt/rust/piet-embedded/piet-embedded-graphics/src/batch.rs:229
    }
  62:	f50d 6dad 	add.w	sp, sp, #1384	; 0x568
  66:	bd80      	pop	{r7, pc}
/Users/Luppy/PineTime/pinetime-rust-mynewt/rust/piet-embedded/piet-embedded-graphics/src/batch.rs:179
                    let row = PixelRow {
  68:	9812      	ldr	r0, [sp, #72]	; 0x48
  6a:	f8ad 0134 	strh.w	r0, [sp, #308]	; 0x134
  6e:	9911      	ldr	r1, [sp, #68]	; 0x44
  70:	f8ad 1136 	strh.w	r1, [sp, #310]	; 0x136
  74:	9a10      	ldr	r2, [sp, #64]	; 0x40
  76:	f8ad 2138 	strh.w	r2, [sp, #312]	; 0x138
  7a:	a81a      	add	r0, sp, #104	; 0x68
  7c:	a94f      	add	r1, sp, #316	; 0x13c
  7e:	22cc      	movs	r2, #204	; 0xcc
  80:	f7ff fffe 	bl	0 <__aeabi_memcpy4>
/Users/Luppy/PineTime/pinetime-rust-mynewt/rust/piet-embedded/piet-embedded-graphics/src/batch.rs:185
                    self.colors.clear();
  84:	9815      	ldr	r0, [sp, #84]	; 0x54
  86:	3020      	adds	r0, #32
  88:	f7ff fffe 	bl	0 <_ZN8heapless3vec16Vec$LT$T$C$N$GT$5clear17h2f7841f03661f139E>
  8c:	e7ff      	b.n	8e <_ZN110_$LT$piet_embedded_graphics..batch..RowIterator$LT$P$GT$$u20$as$u20$core..iter..traits..iterator..Iterator$GT$4next17had8e6a6f3aff842cE+0x8e>
/Users/Luppy/PineTime/pinetime-rust-mynewt/rust/piet-embedded/piet-embedded-graphics/src/batch.rs:186
                    self.first_pixel = true;
  8e:	9815      	ldr	r0, [sp, #84]	; 0x54
  90:	2101      	movs	r1, #1
  92:	f880 10f2 	strb.w	r1, [r0, #242]	; 0xf2
  96:	a882      	add	r0, sp, #520	; 0x208
  98:	aa1a      	add	r2, sp, #104	; 0x68
  9a:	23d4      	movs	r3, #212	; 0xd4
/Users/Luppy/PineTime/pinetime-rust-mynewt/rust/piet-embedded/piet-embedded-graphics/src/batch.rs:187
                    return Some(row);
  9c:	900f      	str	r0, [sp, #60]	; 0x3c
  9e:	910e      	str	r1, [sp, #56]	; 0x38
  a0:	4611      	mov	r1, r2
  a2:	461a      	mov	r2, r3
  a4:	930d      	str	r3, [sp, #52]	; 0x34
  a6:	f7ff fffe 	bl	0 <__aeabi_memcpy4>
  aa:	9814      	ldr	r0, [sp, #80]	; 0x50
  ac:	3004      	adds	r0, #4
  ae:	990f      	ldr	r1, [sp, #60]	; 0x3c
  b0:	9a0d      	ldr	r2, [sp, #52]	; 0x34
  b2:	f7ff fffe 	bl	0 <__aeabi_memcpy4>
  b6:	980e      	ldr	r0, [sp, #56]	; 0x38
  b8:	9914      	ldr	r1, [sp, #80]	; 0x50
  ba:	6008      	str	r0, [r1, #0]
  bc:	e7d1      	b.n	62 <_ZN110_$LT$piet_embedded_graphics..batch..RowIterator$LT$P$GT$$u20$as$u20$core..iter..traits..iterator..Iterator$GT$4next17had8e6a6f3aff842cE+0x62>
/Users/Luppy/PineTime/pinetime-rust-mynewt/rust/piet-embedded/piet-embedded-graphics/src/batch.rs:189
                Some(Pixel(coord, color)) => {  //  If there is a pixel...
  be:	9817      	ldr	r0, [sp, #92]	; 0x5c
  c0:	9918      	ldr	r1, [sp, #96]	; 0x60
  c2:	90b7      	str	r0, [sp, #732]	; 0x2dc
  c4:	91b8      	str	r1, [sp, #736]	; 0x2e0
  c6:	f8bd 0064 	ldrh.w	r0, [sp, #100]	; 0x64
  ca:	f8ad 02e6 	strh.w	r0, [sp, #742]	; 0x2e6
/Users/Luppy/PineTime/pinetime-rust-mynewt/rust/piet-embedded/piet-embedded-graphics/src/batch.rs:190
                    let x = coord.0 as u16;
  ce:	98b7      	ldr	r0, [sp, #732]	; 0x2dc
  d0:	f8ad 02e8 	strh.w	r0, [sp, #744]	; 0x2e8
/Users/Luppy/PineTime/pinetime-rust-mynewt/rust/piet-embedded/piet-embedded-graphics/src/batch.rs:191
                    let y = coord.1 as u16;
  d4:	98b8      	ldr	r0, [sp, #736]	; 0x2e0
  d6:	f8ad 02ea 	strh.w	r0, [sp, #746]	; 0x2ea
/Users/Luppy/PineTime/pinetime-rust-mynewt/rust/piet-embedded/piet-embedded-graphics/src/batch.rs:192
                    let color = color.0;
  da:	f8bd 02e6 	ldrh.w	r0, [sp, #742]	; 0x2e6
  de:	f8ad 02ec 	strh.w	r0, [sp, #748]	; 0x2ec
/Users/Luppy/PineTime/pinetime-rust-mynewt/rust/piet-embedded/piet-embedded-graphics/src/batch.rs:194
                    if self.first_pixel {
  e2:	9815      	ldr	r0, [sp, #84]	; 0x54
  e4:	f890 00f2 	ldrb.w	r0, [r0, #242]	; 0xf2
  e8:	07c0      	lsls	r0, r0, #31
  ea:	2800      	cmp	r0, #0
  ec:	d10e      	bne.n	10c <_ZN110_$LT$piet_embedded_graphics..batch..RowIterator$LT$P$GT$$u20$as$u20$core..iter..traits..iterator..Iterator$GT$4next17had8e6a6f3aff842cE+0x10c>
  ee:	e7ff      	b.n	f0 <_ZN110_$LT$piet_embedded_graphics..batch..RowIterator$LT$P$GT$$u20$as$u20$core..iter..traits..iterator..Iterator$GT$4next17had8e6a6f3aff842cE+0xf0>
/Users/Luppy/PineTime/pinetime-rust-mynewt/rust/piet-embedded/piet-embedded-graphics/src/batch.rs:205
                    if x == self.x_right + 1 && y == self.y {
  f0:	f8bd 02e8 	ldrh.w	r0, [sp, #744]	; 0x2e8
  f4:	9915      	ldr	r1, [sp, #84]	; 0x54
  f6:	f8b1 10ee 	ldrh.w	r1, [r1, #238]	; 0xee
  fa:	3101      	adds	r1, #1
  fc:	b28a      	uxth	r2, r1
  fe:	460b      	mov	r3, r1
 100:	428a      	cmp	r2, r1
 102:	900c      	str	r0, [sp, #48]	; 0x30
 104:	930b      	str	r3, [sp, #44]	; 0x2c
 106:	f040 80c3 	bne.w	290 <_ZN110_$LT$piet_embedded_graphics..batch..RowIterator$LT$P$GT$$u20$as$u20$core..iter..traits..iterator..Iterator$GT$4next17had8e6a6f3aff842cE+0x290>
 10a:	e042      	b.n	192 <_ZN110_$LT$piet_embedded_graphics..batch..RowIterator$LT$P$GT$$u20$as$u20$core..iter..traits..iterator..Iterator$GT$4next17had8e6a6f3aff842cE+0x192>
/Users/Luppy/PineTime/pinetime-rust-mynewt/rust/piet-embedded/piet-embedded-graphics/src/batch.rs:195
                        self.first_pixel = false;
 10c:	9815      	ldr	r0, [sp, #84]	; 0x54
 10e:	2100      	movs	r1, #0
 110:	f880 10f2 	strb.w	r1, [r0, #242]	; 0xf2
/Users/Luppy/PineTime/pinetime-rust-mynewt/rust/piet-embedded/piet-embedded-graphics/src/batch.rs:196
                        self.x_left = x;
 114:	f8bd 02e8 	ldrh.w	r0, [sp, #744]	; 0x2e8
 118:	9915      	ldr	r1, [sp, #84]	; 0x54
 11a:	f8a1 00ec 	strh.w	r0, [r1, #236]	; 0xec
/Users/Luppy/PineTime/pinetime-rust-mynewt/rust/piet-embedded/piet-embedded-graphics/src/batch.rs:197
                        self.x_right = x;
 11e:	f8bd 02e8 	ldrh.w	r0, [sp, #744]	; 0x2e8
 122:	9915      	ldr	r1, [sp, #84]	; 0x54
 124:	f8a1 00ee 	strh.w	r0, [r1, #238]	; 0xee
/Users/Luppy/PineTime/pinetime-rust-mynewt/rust/piet-embedded/piet-embedded-graphics/src/batch.rs:198
                        self.y = y;
 128:	f8bd 02ea 	ldrh.w	r0, [sp, #746]	; 0x2ea
 12c:	9915      	ldr	r1, [sp, #84]	; 0x54
 12e:	f8a1 00f0 	strh.w	r0, [r1, #240]	; 0xf0
/Users/Luppy/PineTime/pinetime-rust-mynewt/rust/piet-embedded/piet-embedded-graphics/src/batch.rs:199
                        self.colors.clear();
 132:	9815      	ldr	r0, [sp, #84]	; 0x54
 134:	3020      	adds	r0, #32
 136:	f7ff fffe 	bl	0 <_ZN8heapless3vec16Vec$LT$T$C$N$GT$5clear17h2f7841f03661f139E>
 13a:	e7ff      	b.n	13c <_ZN110_$LT$piet_embedded_graphics..batch..RowIterator$LT$P$GT$$u20$as$u20$core..iter..traits..iterator..Iterator$GT$4next17had8e6a6f3aff842cE+0x13c>
/Users/Luppy/PineTime/pinetime-rust-mynewt/rust/piet-embedded/piet-embedded-graphics/src/batch.rs:200
                        self.colors.push(color)
 13c:	9815      	ldr	r0, [sp, #84]	; 0x54
 13e:	3020      	adds	r0, #32
 140:	f8bd 12ec 	ldrh.w	r1, [sp, #748]	; 0x2ec
 144:	f7ff fffe 	bl	0 <_ZN8heapless3vec16Vec$LT$T$C$N$GT$4push17h6f527a384316b252E>
 148:	900a      	str	r0, [sp, #40]	; 0x28
 14a:	9109      	str	r1, [sp, #36]	; 0x24
 14c:	e7ff      	b.n	14e <_ZN110_$LT$piet_embedded_graphics..batch..RowIterator$LT$P$GT$$u20$as$u20$core..iter..traits..iterator..Iterator$GT$4next17had8e6a6f3aff842cE+0x14e>
 14e:	f240 0200 	movw	r2, #0
 152:	f2c0 0200 	movt	r2, #0
 156:	2305      	movs	r3, #5
 158:	980a      	ldr	r0, [sp, #40]	; 0x28
 15a:	9909      	ldr	r1, [sp, #36]	; 0x24
 15c:	f7ff fffe 	bl	0 <_ZN4core6result19Result$LT$T$C$E$GT$6expect17hd5a6aacc7d7a46d0E>
 160:	e7ff      	b.n	162 <_ZN110_$LT$piet_embedded_graphics..batch..RowIterator$LT$P$GT$$u20$as$u20$core..iter..traits..iterator..Iterator$GT$4next17had8e6a6f3aff842cE+0x162>
/Users/Luppy/PineTime/pinetime-rust-mynewt/rust/piet-embedded/piet-embedded-graphics/src/batch.rs:202
                        continue;
 162:	e7ff      	b.n	164 <_ZN110_$LT$piet_embedded_graphics..batch..RowIterator$LT$P$GT$$u20$as$u20$core..iter..traits..iterator..Iterator$GT$4next17had8e6a6f3aff842cE+0x164>
 164:	e752      	b.n	c <_ZN110_$LT$piet_embedded_graphics..batch..RowIterator$LT$P$GT$$u20$as$u20$core..iter..traits..iterator..Iterator$GT$4next17had8e6a6f3aff842cE+0xc>
 166:	2001      	movs	r0, #1
/Users/Luppy/PineTime/pinetime-rust-mynewt/rust/piet-embedded/piet-embedded-graphics/src/batch.rs:205
                    if x == self.x_right + 1 && y == self.y {
 168:	f88d 02ef 	strb.w	r0, [sp, #751]	; 0x2ef
 16c:	e00b      	b.n	186 <_ZN110_$LT$piet_embedded_graphics..batch..RowIterator$LT$P$GT$$u20$as$u20$core..iter..traits..iterator..Iterator$GT$4next17had8e6a6f3aff842cE+0x186>
 16e:	2000      	movs	r0, #0
 170:	f88d 02ef 	strb.w	r0, [sp, #751]	; 0x2ef
 174:	e007      	b.n	186 <_ZN110_$LT$piet_embedded_graphics..batch..RowIterator$LT$P$GT$$u20$as$u20$core..iter..traits..iterator..Iterator$GT$4next17had8e6a6f3aff842cE+0x186>
 176:	f8bd 02ea 	ldrh.w	r0, [sp, #746]	; 0x2ea
 17a:	9915      	ldr	r1, [sp, #84]	; 0x54
 17c:	f8b1 10f0 	ldrh.w	r1, [r1, #240]	; 0xf0
 180:	4288      	cmp	r0, r1
 182:	d0f0      	beq.n	166 <_ZN110_$LT$piet_embedded_graphics..batch..RowIterator$LT$P$GT$$u20$as$u20$core..iter..traits..iterator..Iterator$GT$4next17had8e6a6f3aff842cE+0x166>
 184:	e7f3      	b.n	16e <_ZN110_$LT$piet_embedded_graphics..batch..RowIterator$LT$P$GT$$u20$as$u20$core..iter..traits..iterator..Iterator$GT$4next17had8e6a6f3aff842cE+0x16e>
 186:	f89d 02ef 	ldrb.w	r0, [sp, #751]	; 0x2ef
 18a:	07c0      	lsls	r0, r0, #31
 18c:	2800      	cmp	r0, #0
 18e:	d107      	bne.n	1a0 <_ZN110_$LT$piet_embedded_graphics..batch..RowIterator$LT$P$GT$$u20$as$u20$core..iter..traits..iterator..Iterator$GT$4next17had8e6a6f3aff842cE+0x1a0>
 190:	e022      	b.n	1d8 <_ZN110_$LT$piet_embedded_graphics..batch..RowIterator$LT$P$GT$$u20$as$u20$core..iter..traits..iterator..Iterator$GT$4next17had8e6a6f3aff842cE+0x1d8>
 192:	980b      	ldr	r0, [sp, #44]	; 0x2c
 194:	b281      	uxth	r1, r0
 196:	9a0c      	ldr	r2, [sp, #48]	; 0x30
 198:	b293      	uxth	r3, r2
 19a:	428b      	cmp	r3, r1
 19c:	d0eb      	beq.n	176 <_ZN110_$LT$piet_embedded_graphics..batch..RowIterator$LT$P$GT$$u20$as$u20$core..iter..traits..iterator..Iterator$GT$4next17had8e6a6f3aff842cE+0x176>
 19e:	e7e6      	b.n	16e <_ZN110_$LT$piet_embedded_graphics..batch..RowIterator$LT$P$GT$$u20$as$u20$core..iter..traits..iterator..Iterator$GT$4next17had8e6a6f3aff842cE+0x16e>
/Users/Luppy/PineTime/pinetime-rust-mynewt/rust/piet-embedded/piet-embedded-graphics/src/batch.rs:206
                        if self.colors.push(color).is_ok() {
 1a0:	9815      	ldr	r0, [sp, #84]	; 0x54
 1a2:	3020      	adds	r0, #32
 1a4:	f8bd 12ec 	ldrh.w	r1, [sp, #748]	; 0x2ec
 1a8:	f7ff fffe 	bl	0 <_ZN8heapless3vec16Vec$LT$T$C$N$GT$4push17h6f527a384316b252E>
 1ac:	f8ad 12f2 	strh.w	r1, [sp, #754]	; 0x2f2
 1b0:	f8ad 02f0 	strh.w	r0, [sp, #752]	; 0x2f0
 1b4:	e7ff      	b.n	1b6 <_ZN110_$LT$piet_embedded_graphics..batch..RowIterator$LT$P$GT$$u20$as$u20$core..iter..traits..iterator..Iterator$GT$4next17had8e6a6f3aff842cE+0x1b6>
 1b6:	a8bc      	add	r0, sp, #752	; 0x2f0
 1b8:	f7ff fffe 	bl	0 <_ZN4core6result19Result$LT$T$C$E$GT$5is_ok17h0a19641dd28a638bE>
 1bc:	9008      	str	r0, [sp, #32]
 1be:	e7ff      	b.n	1c0 <_ZN110_$LT$piet_embedded_graphics..batch..RowIterator$LT$P$GT$$u20$as$u20$core..iter..traits..iterator..Iterator$GT$4next17had8e6a6f3aff842cE+0x1c0>
 1c0:	9808      	ldr	r0, [sp, #32]
 1c2:	07c1      	lsls	r1, r0, #31
 1c4:	2900      	cmp	r1, #0
 1c6:	d101      	bne.n	1cc <_ZN110_$LT$piet_embedded_graphics..batch..RowIterator$LT$P$GT$$u20$as$u20$core..iter..traits..iterator..Iterator$GT$4next17had8e6a6f3aff842cE+0x1cc>
 1c8:	e7ff      	b.n	1ca <_ZN110_$LT$piet_embedded_graphics..batch..RowIterator$LT$P$GT$$u20$as$u20$core..iter..traits..iterator..Iterator$GT$4next17had8e6a6f3aff842cE+0x1ca>
/Users/Luppy/PineTime/pinetime-rust-mynewt/rust/piet-embedded/piet-embedded-graphics/src/batch.rs:205
                    if x == self.x_right + 1 && y == self.y {
 1ca:	e005      	b.n	1d8 <_ZN110_$LT$piet_embedded_graphics..batch..RowIterator$LT$P$GT$$u20$as$u20$core..iter..traits..iterator..Iterator$GT$4next17had8e6a6f3aff842cE+0x1d8>
/Users/Luppy/PineTime/pinetime-rust-mynewt/rust/piet-embedded/piet-embedded-graphics/src/batch.rs:208
                            self.x_right = x;
 1cc:	f8bd 02e8 	ldrh.w	r0, [sp, #744]	; 0x2e8
 1d0:	9915      	ldr	r1, [sp, #84]	; 0x54
 1d2:	f8a1 00ee 	strh.w	r0, [r1, #238]	; 0xee
/Users/Luppy/PineTime/pinetime-rust-mynewt/rust/piet-embedded/piet-embedded-graphics/src/batch.rs:209
                            continue;
 1d6:	e7c5      	b.n	164 <_ZN110_$LT$piet_embedded_graphics..batch..RowIterator$LT$P$GT$$u20$as$u20$core..iter..traits..iterator..Iterator$GT$4next17had8e6a6f3aff842cE+0x164>
/Users/Luppy/PineTime/pinetime-rust-mynewt/rust/piet-embedded/piet-embedded-graphics/src/batch.rs:214
                        x_left: self.x_left,
 1d8:	9815      	ldr	r0, [sp, #84]	; 0x54
 1da:	f8b0 10ec 	ldrh.w	r1, [r0, #236]	; 0xec
/Users/Luppy/PineTime/pinetime-rust-mynewt/rust/piet-embedded/piet-embedded-graphics/src/batch.rs:215
                        x_right: self.x_right,
 1de:	f8b0 20ee 	ldrh.w	r2, [r0, #238]	; 0xee
/Users/Luppy/PineTime/pinetime-rust-mynewt/rust/piet-embedded/piet-embedded-graphics/src/batch.rs:216
                        y: self.y,
 1e2:	f8b0 30f0 	ldrh.w	r3, [r0, #240]	; 0xf0
/Users/Luppy/PineTime/pinetime-rust-mynewt/rust/piet-embedded/piet-embedded-graphics/src/batch.rs:217
                        colors: self.colors.clone(),
 1e6:	3020      	adds	r0, #32
 1e8:	f50d 7c72 	add.w	ip, sp, #968	; 0x3c8
 1ec:	9007      	str	r0, [sp, #28]
 1ee:	4660      	mov	r0, ip
 1f0:	f8dd c01c 	ldr.w	ip, [sp, #28]
 1f4:	9106      	str	r1, [sp, #24]
 1f6:	4661      	mov	r1, ip
 1f8:	9205      	str	r2, [sp, #20]
 1fa:	9304      	str	r3, [sp, #16]
 1fc:	f7ff fffe 	bl	0 <_ZN70_$LT$heapless..vec..Vec$LT$T$C$N$GT$$u20$as$u20$core..clone..Clone$GT$5clone17hca841008de44ea41E>
 200:	e7ff      	b.n	202 <_ZN110_$LT$piet_embedded_graphics..batch..RowIterator$LT$P$GT$$u20$as$u20$core..iter..traits..iterator..Iterator$GT$4next17had8e6a6f3aff842cE+0x202>
/Users/Luppy/PineTime/pinetime-rust-mynewt/rust/piet-embedded/piet-embedded-graphics/src/batch.rs:213
                    let row = PixelRow {
 202:	9806      	ldr	r0, [sp, #24]
 204:	f8ad 03c0 	strh.w	r0, [sp, #960]	; 0x3c0
 208:	9905      	ldr	r1, [sp, #20]
 20a:	f8ad 13c2 	strh.w	r1, [sp, #962]	; 0x3c2
 20e:	9a04      	ldr	r2, [sp, #16]
 210:	f8ad 23c4 	strh.w	r2, [sp, #964]	; 0x3c4
 214:	a8bd      	add	r0, sp, #756	; 0x2f4
 216:	a9f2      	add	r1, sp, #968	; 0x3c8
 218:	22cc      	movs	r2, #204	; 0xcc
 21a:	f7ff fffe 	bl	0 <__aeabi_memcpy4>
/Users/Luppy/PineTime/pinetime-rust-mynewt/rust/piet-embedded/piet-embedded-graphics/src/batch.rs:219
                    self.x_left = x;
 21e:	f8bd 02e8 	ldrh.w	r0, [sp, #744]	; 0x2e8
 222:	9915      	ldr	r1, [sp, #84]	; 0x54
 224:	f8a1 00ec 	strh.w	r0, [r1, #236]	; 0xec
/Users/Luppy/PineTime/pinetime-rust-mynewt/rust/piet-embedded/piet-embedded-graphics/src/batch.rs:220
                    self.x_right = x;
 228:	f8bd 02e8 	ldrh.w	r0, [sp, #744]	; 0x2e8
 22c:	9915      	ldr	r1, [sp, #84]	; 0x54
 22e:	f8a1 00ee 	strh.w	r0, [r1, #238]	; 0xee
/Users/Luppy/PineTime/pinetime-rust-mynewt/rust/piet-embedded/piet-embedded-graphics/src/batch.rs:221
                    self.y = y;
 232:	f8bd 02ea 	ldrh.w	r0, [sp, #746]	; 0x2ea
 236:	9915      	ldr	r1, [sp, #84]	; 0x54
 238:	f8a1 00f0 	strh.w	r0, [r1, #240]	; 0xf0
/Users/Luppy/PineTime/pinetime-rust-mynewt/rust/piet-embedded/piet-embedded-graphics/src/batch.rs:222
                    self.colors.clear();
 23c:	9815      	ldr	r0, [sp, #84]	; 0x54
 23e:	3020      	adds	r0, #32
 240:	f7ff fffe 	bl	0 <_ZN8heapless3vec16Vec$LT$T$C$N$GT$5clear17h2f7841f03661f139E>
 244:	e7ff      	b.n	246 <_ZN110_$LT$piet_embedded_graphics..batch..RowIterator$LT$P$GT$$u20$as$u20$core..iter..traits..iterator..Iterator$GT$4next17had8e6a6f3aff842cE+0x246>
/Users/Luppy/PineTime/pinetime-rust-mynewt/rust/piet-embedded/piet-embedded-graphics/src/batch.rs:223
                    self.colors.push(color)
 246:	9815      	ldr	r0, [sp, #84]	; 0x54
 248:	3020      	adds	r0, #32
 24a:	f8bd 12ec 	ldrh.w	r1, [sp, #748]	; 0x2ec
 24e:	f7ff fffe 	bl	0 <_ZN8heapless3vec16Vec$LT$T$C$N$GT$4push17h6f527a384316b252E>
 252:	9003      	str	r0, [sp, #12]
 254:	9102      	str	r1, [sp, #8]
 256:	e7ff      	b.n	258 <_ZN110_$LT$piet_embedded_graphics..batch..RowIterator$LT$P$GT$$u20$as$u20$core..iter..traits..iterator..Iterator$GT$4next17had8e6a6f3aff842cE+0x258>
 258:	f240 0200 	movw	r2, #0
 25c:	f2c0 0200 	movt	r2, #0
 260:	2305      	movs	r3, #5
 262:	9803      	ldr	r0, [sp, #12]
 264:	9902      	ldr	r1, [sp, #8]
 266:	f7ff fffe 	bl	0 <_ZN4core6result19Result$LT$T$C$E$GT$6expect17hd5a6aacc7d7a46d0E>
 26a:	e7ff      	b.n	26c <_ZN110_$LT$piet_embedded_graphics..batch..RowIterator$LT$P$GT$$u20$as$u20$core..iter..traits..iterator..Iterator$GT$4next17had8e6a6f3aff842cE+0x26c>
 26c:	f20d 4094 	addw	r0, sp, #1172	; 0x494
 270:	a9bd      	add	r1, sp, #756	; 0x2f4
 272:	22d4      	movs	r2, #212	; 0xd4
/Users/Luppy/PineTime/pinetime-rust-mynewt/rust/piet-embedded/piet-embedded-graphics/src/batch.rs:225
                    return Some(row);
 274:	9001      	str	r0, [sp, #4]
 276:	9200      	str	r2, [sp, #0]
 278:	f7ff fffe 	bl	0 <__aeabi_memcpy4>
 27c:	9814      	ldr	r0, [sp, #80]	; 0x50
 27e:	3004      	adds	r0, #4
 280:	9901      	ldr	r1, [sp, #4]
 282:	9a00      	ldr	r2, [sp, #0]
 284:	f7ff fffe 	bl	0 <__aeabi_memcpy4>
 288:	2001      	movs	r0, #1
 28a:	9914      	ldr	r1, [sp, #80]	; 0x50
 28c:	6008      	str	r0, [r1, #0]
 28e:	e6e8      	b.n	62 <_ZN110_$LT$piet_embedded_graphics..batch..RowIterator$LT$P$GT$$u20$as$u20$core..iter..traits..iterator..Iterator$GT$4next17had8e6a6f3aff842cE+0x62>
/Users/Luppy/PineTime/pinetime-rust-mynewt/rust/piet-embedded/piet-embedded-graphics/src/batch.rs:205
                    if x == self.x_right + 1 && y == self.y {
 290:	f240 0000 	movw	r0, #0
 294:	f2c0 0000 	movt	r0, #0
 298:	f240 0200 	movw	r2, #0
 29c:	f2c0 0200 	movt	r2, #0
 2a0:	211c      	movs	r1, #28
 2a2:	f7ff fffe 	bl	0 <_ZN4core9panicking5panic17hfdd0eecc44a682f8E>
 2a6:	defe      	udf	#254	; 0xfe

Disassembly of section .text._ZN110_$LT$piet_embedded_graphics..batch..RowIterator$LT$P$GT$$u20$as$u20$core..iter..traits..iterator..Iterator$GT$4next17hf0d9b5a30056179dE:

00000000 <_ZN110_$LT$piet_embedded_graphics..batch..RowIterator$LT$P$GT$$u20$as$u20$core..iter..traits..iterator..Iterator$GT$4next17hf0d9b5a30056179dE>:
_ZN110_$LT$piet_embedded_graphics..batch..RowIterator$LT$P$GT$$u20$as$u20$core..iter..traits..iterator..Iterator$GT$4next17hf0d9b5a30056179dE():
/Users/Luppy/PineTime/pinetime-rust-mynewt/rust/piet-embedded/piet-embedded-graphics/src/batch.rs:168
    fn next(&mut self) -> Option<Self::Item> {
   0:	b580      	push	{r7, lr}
   2:	f5ad 6dad 	sub.w	sp, sp, #1384	; 0x568
   6:	9115      	str	r1, [sp, #84]	; 0x54
/Users/Luppy/PineTime/pinetime-rust-mynewt/rust/piet-embedded/piet-embedded-graphics/src/batch.rs:170
        loop {
   8:	9014      	str	r0, [sp, #80]	; 0x50
   a:	e7ff      	b.n	c <_ZN110_$LT$piet_embedded_graphics..batch..RowIterator$LT$P$GT$$u20$as$u20$core..iter..traits..iterator..Iterator$GT$4next17hf0d9b5a30056179dE+0xc>
/Users/Luppy/PineTime/pinetime-rust-mynewt/rust/piet-embedded/piet-embedded-graphics/src/batch.rs:172
            let next_pixel = self.pixels.next();
   c:	9915      	ldr	r1, [sp, #84]	; 0x54
   e:	a816      	add	r0, sp, #88	; 0x58
  10:	f7ff fffe 	bl	0 <_ZN127_$LT$embedded_graphics..primitives..rectangle..RectangleIterator$LT$C$GT$$u20$as$u20$core..iter..traits..iterator..Iterator$GT$4next17h8efda72015f57603E>
  14:	e7ff      	b.n	16 <_ZN110_$LT$piet_embedded_graphics..batch..RowIterator$LT$P$GT$$u20$as$u20$core..iter..traits..iterator..Iterator$GT$4next17hf0d9b5a30056179dE+0x16>
/Users/Luppy/PineTime/pinetime-rust-mynewt/rust/piet-embedded/piet-embedded-graphics/src/batch.rs:174
                None => {  //  If no more pixels...
  16:	9816      	ldr	r0, [sp, #88]	; 0x58
  18:	2800      	cmp	r0, #0
  1a:	d002      	beq.n	22 <_ZN110_$LT$piet_embedded_graphics..batch..RowIterator$LT$P$GT$$u20$as$u20$core..iter..traits..iterator..Iterator$GT$4next17hf0d9b5a30056179dE+0x22>
  1c:	e7ff      	b.n	1e <_ZN110_$LT$piet_embedded_graphics..batch..RowIterator$LT$P$GT$$u20$as$u20$core..iter..traits..iterator..Iterator$GT$4next17hf0d9b5a30056179dE+0x1e>
  1e:	e04e      	b.n	be <_ZN110_$LT$piet_embedded_graphics..batch..RowIterator$LT$P$GT$$u20$as$u20$core..iter..traits..iterator..Iterator$GT$4next17hf0d9b5a30056179dE+0xbe>
/Users/Luppy/PineTime/pinetime-rust-mynewt/rust/piet-embedded/piet-embedded-graphics/src/batch.rs:173
            match next_pixel {
  20:	defe      	udf	#254	; 0xfe
/Users/Luppy/PineTime/pinetime-rust-mynewt/rust/piet-embedded/piet-embedded-graphics/src/batch.rs:175
                    if self.first_pixel {
  22:	9815      	ldr	r0, [sp, #84]	; 0x54
  24:	f890 00f6 	ldrb.w	r0, [r0, #246]	; 0xf6
  28:	07c0      	lsls	r0, r0, #31
  2a:	2800      	cmp	r0, #0
  2c:	d115      	bne.n	5a <_ZN110_$LT$piet_embedded_graphics..batch..RowIterator$LT$P$GT$$u20$as$u20$core..iter..traits..iterator..Iterator$GT$4next17hf0d9b5a30056179dE+0x5a>
  2e:	e7ff      	b.n	30 <_ZN110_$LT$piet_embedded_graphics..batch..RowIterator$LT$P$GT$$u20$as$u20$core..iter..traits..iterator..Iterator$GT$4next17hf0d9b5a30056179dE+0x30>
/Users/Luppy/PineTime/pinetime-rust-mynewt/rust/piet-embedded/piet-embedded-graphics/src/batch.rs:180
                        x_left: self.x_left,
  30:	9815      	ldr	r0, [sp, #84]	; 0x54
  32:	f8b0 10f0 	ldrh.w	r1, [r0, #240]	; 0xf0
/Users/Luppy/PineTime/pinetime-rust-mynewt/rust/piet-embedded/piet-embedded-graphics/src/batch.rs:181
                        x_right: self.x_right,
  36:	f8b0 20f2 	ldrh.w	r2, [r0, #242]	; 0xf2
/Users/Luppy/PineTime/pinetime-rust-mynewt/rust/piet-embedded/piet-embedded-graphics/src/batch.rs:182
                        y: self.y,
  3a:	f8b0 30f4 	ldrh.w	r3, [r0, #244]	; 0xf4
/Users/Luppy/PineTime/pinetime-rust-mynewt/rust/piet-embedded/piet-embedded-graphics/src/batch.rs:183
                        colors: self.colors.clone(),
  3e:	3024      	adds	r0, #36	; 0x24
  40:	f50d 7c9e 	add.w	ip, sp, #316	; 0x13c
  44:	9013      	str	r0, [sp, #76]	; 0x4c
  46:	4660      	mov	r0, ip
  48:	f8dd c04c 	ldr.w	ip, [sp, #76]	; 0x4c
  4c:	9112      	str	r1, [sp, #72]	; 0x48
  4e:	4661      	mov	r1, ip
  50:	9211      	str	r2, [sp, #68]	; 0x44
  52:	9310      	str	r3, [sp, #64]	; 0x40
  54:	f7ff fffe 	bl	0 <_ZN70_$LT$heapless..vec..Vec$LT$T$C$N$GT$$u20$as$u20$core..clone..Clone$GT$5clone17hca841008de44ea41E>
  58:	e006      	b.n	68 <_ZN110_$LT$piet_embedded_graphics..batch..RowIterator$LT$P$GT$$u20$as$u20$core..iter..traits..iterator..Iterator$GT$4next17hf0d9b5a30056179dE+0x68>
  5a:	2000      	movs	r0, #0
/Users/Luppy/PineTime/pinetime-rust-mynewt/rust/piet-embedded/piet-embedded-graphics/src/batch.rs:176
                        return None;  //  No pixels to group
  5c:	9914      	ldr	r1, [sp, #80]	; 0x50
  5e:	6008      	str	r0, [r1, #0]
  60:	e7ff      	b.n	62 <_ZN110_$LT$piet_embedded_graphics..batch..RowIterator$LT$P$GT$$u20$as$u20$core..iter..traits..iterator..Iterator$GT$4next17hf0d9b5a30056179dE+0x62>
/Users/Luppy/PineTime/pinetime-rust-mynewt/rust/piet-embedded/piet-embedded-graphics/src/batch.rs:229
    }
  62:	f50d 6dad 	add.w	sp, sp, #1384	; 0x568
  66:	bd80      	pop	{r7, pc}
/Users/Luppy/PineTime/pinetime-rust-mynewt/rust/piet-embedded/piet-embedded-graphics/src/batch.rs:179
                    let row = PixelRow {
  68:	9812      	ldr	r0, [sp, #72]	; 0x48
  6a:	f8ad 0134 	strh.w	r0, [sp, #308]	; 0x134
  6e:	9911      	ldr	r1, [sp, #68]	; 0x44
  70:	f8ad 1136 	strh.w	r1, [sp, #310]	; 0x136
  74:	9a10      	ldr	r2, [sp, #64]	; 0x40
  76:	f8ad 2138 	strh.w	r2, [sp, #312]	; 0x138
  7a:	a81a      	add	r0, sp, #104	; 0x68
  7c:	a94f      	add	r1, sp, #316	; 0x13c
  7e:	22cc      	movs	r2, #204	; 0xcc
  80:	f7ff fffe 	bl	0 <__aeabi_memcpy4>
/Users/Luppy/PineTime/pinetime-rust-mynewt/rust/piet-embedded/piet-embedded-graphics/src/batch.rs:185
                    self.colors.clear();
  84:	9815      	ldr	r0, [sp, #84]	; 0x54
  86:	3024      	adds	r0, #36	; 0x24
  88:	f7ff fffe 	bl	0 <_ZN8heapless3vec16Vec$LT$T$C$N$GT$5clear17h2f7841f03661f139E>
  8c:	e7ff      	b.n	8e <_ZN110_$LT$piet_embedded_graphics..batch..RowIterator$LT$P$GT$$u20$as$u20$core..iter..traits..iterator..Iterator$GT$4next17hf0d9b5a30056179dE+0x8e>
/Users/Luppy/PineTime/pinetime-rust-mynewt/rust/piet-embedded/piet-embedded-graphics/src/batch.rs:186
                    self.first_pixel = true;
  8e:	9815      	ldr	r0, [sp, #84]	; 0x54
  90:	2101      	movs	r1, #1
  92:	f880 10f6 	strb.w	r1, [r0, #246]	; 0xf6
  96:	a882      	add	r0, sp, #520	; 0x208
  98:	aa1a      	add	r2, sp, #104	; 0x68
  9a:	23d4      	movs	r3, #212	; 0xd4
/Users/Luppy/PineTime/pinetime-rust-mynewt/rust/piet-embedded/piet-embedded-graphics/src/batch.rs:187
                    return Some(row);
  9c:	900f      	str	r0, [sp, #60]	; 0x3c
  9e:	910e      	str	r1, [sp, #56]	; 0x38
  a0:	4611      	mov	r1, r2
  a2:	461a      	mov	r2, r3
  a4:	930d      	str	r3, [sp, #52]	; 0x34
  a6:	f7ff fffe 	bl	0 <__aeabi_memcpy4>
  aa:	9814      	ldr	r0, [sp, #80]	; 0x50
  ac:	3004      	adds	r0, #4
  ae:	990f      	ldr	r1, [sp, #60]	; 0x3c
  b0:	9a0d      	ldr	r2, [sp, #52]	; 0x34
  b2:	f7ff fffe 	bl	0 <__aeabi_memcpy4>
  b6:	980e      	ldr	r0, [sp, #56]	; 0x38
  b8:	9914      	ldr	r1, [sp, #80]	; 0x50
  ba:	6008      	str	r0, [r1, #0]
  bc:	e7d1      	b.n	62 <_ZN110_$LT$piet_embedded_graphics..batch..RowIterator$LT$P$GT$$u20$as$u20$core..iter..traits..iterator..Iterator$GT$4next17hf0d9b5a30056179dE+0x62>
/Users/Luppy/PineTime/pinetime-rust-mynewt/rust/piet-embedded/piet-embedded-graphics/src/batch.rs:189
                Some(Pixel(coord, color)) => {  //  If there is a pixel...
  be:	9817      	ldr	r0, [sp, #92]	; 0x5c
  c0:	9918      	ldr	r1, [sp, #96]	; 0x60
  c2:	90b7      	str	r0, [sp, #732]	; 0x2dc
  c4:	91b8      	str	r1, [sp, #736]	; 0x2e0
  c6:	f8bd 0064 	ldrh.w	r0, [sp, #100]	; 0x64
  ca:	f8ad 02e6 	strh.w	r0, [sp, #742]	; 0x2e6
/Users/Luppy/PineTime/pinetime-rust-mynewt/rust/piet-embedded/piet-embedded-graphics/src/batch.rs:190
                    let x = coord.0 as u16;
  ce:	98b7      	ldr	r0, [sp, #732]	; 0x2dc
  d0:	f8ad 02e8 	strh.w	r0, [sp, #744]	; 0x2e8
/Users/Luppy/PineTime/pinetime-rust-mynewt/rust/piet-embedded/piet-embedded-graphics/src/batch.rs:191
                    let y = coord.1 as u16;
  d4:	98b8      	ldr	r0, [sp, #736]	; 0x2e0
  d6:	f8ad 02ea 	strh.w	r0, [sp, #746]	; 0x2ea
/Users/Luppy/PineTime/pinetime-rust-mynewt/rust/piet-embedded/piet-embedded-graphics/src/batch.rs:192
                    let color = color.0;
  da:	f8bd 02e6 	ldrh.w	r0, [sp, #742]	; 0x2e6
  de:	f8ad 02ec 	strh.w	r0, [sp, #748]	; 0x2ec
/Users/Luppy/PineTime/pinetime-rust-mynewt/rust/piet-embedded/piet-embedded-graphics/src/batch.rs:194
                    if self.first_pixel {
  e2:	9815      	ldr	r0, [sp, #84]	; 0x54
  e4:	f890 00f6 	ldrb.w	r0, [r0, #246]	; 0xf6
  e8:	07c0      	lsls	r0, r0, #31
  ea:	2800      	cmp	r0, #0
  ec:	d10e      	bne.n	10c <_ZN110_$LT$piet_embedded_graphics..batch..RowIterator$LT$P$GT$$u20$as$u20$core..iter..traits..iterator..Iterator$GT$4next17hf0d9b5a30056179dE+0x10c>
  ee:	e7ff      	b.n	f0 <_ZN110_$LT$piet_embedded_graphics..batch..RowIterator$LT$P$GT$$u20$as$u20$core..iter..traits..iterator..Iterator$GT$4next17hf0d9b5a30056179dE+0xf0>
/Users/Luppy/PineTime/pinetime-rust-mynewt/rust/piet-embedded/piet-embedded-graphics/src/batch.rs:205
                    if x == self.x_right + 1 && y == self.y {
  f0:	f8bd 02e8 	ldrh.w	r0, [sp, #744]	; 0x2e8
  f4:	9915      	ldr	r1, [sp, #84]	; 0x54
  f6:	f8b1 10f2 	ldrh.w	r1, [r1, #242]	; 0xf2
  fa:	3101      	adds	r1, #1
  fc:	b28a      	uxth	r2, r1
  fe:	460b      	mov	r3, r1
 100:	428a      	cmp	r2, r1
 102:	900c      	str	r0, [sp, #48]	; 0x30
 104:	930b      	str	r3, [sp, #44]	; 0x2c
 106:	f040 80c3 	bne.w	290 <_ZN110_$LT$piet_embedded_graphics..batch..RowIterator$LT$P$GT$$u20$as$u20$core..iter..traits..iterator..Iterator$GT$4next17hf0d9b5a30056179dE+0x290>
 10a:	e042      	b.n	192 <_ZN110_$LT$piet_embedded_graphics..batch..RowIterator$LT$P$GT$$u20$as$u20$core..iter..traits..iterator..Iterator$GT$4next17hf0d9b5a30056179dE+0x192>
/Users/Luppy/PineTime/pinetime-rust-mynewt/rust/piet-embedded/piet-embedded-graphics/src/batch.rs:195
                        self.first_pixel = false;
 10c:	9815      	ldr	r0, [sp, #84]	; 0x54
 10e:	2100      	movs	r1, #0
 110:	f880 10f6 	strb.w	r1, [r0, #246]	; 0xf6
/Users/Luppy/PineTime/pinetime-rust-mynewt/rust/piet-embedded/piet-embedded-graphics/src/batch.rs:196
                        self.x_left = x;
 114:	f8bd 02e8 	ldrh.w	r0, [sp, #744]	; 0x2e8
 118:	9915      	ldr	r1, [sp, #84]	; 0x54
 11a:	f8a1 00f0 	strh.w	r0, [r1, #240]	; 0xf0
/Users/Luppy/PineTime/pinetime-rust-mynewt/rust/piet-embedded/piet-embedded-graphics/src/batch.rs:197
                        self.x_right = x;
 11e:	f8bd 02e8 	ldrh.w	r0, [sp, #744]	; 0x2e8
 122:	9915      	ldr	r1, [sp, #84]	; 0x54
 124:	f8a1 00f2 	strh.w	r0, [r1, #242]	; 0xf2
/Users/Luppy/PineTime/pinetime-rust-mynewt/rust/piet-embedded/piet-embedded-graphics/src/batch.rs:198
                        self.y = y;
 128:	f8bd 02ea 	ldrh.w	r0, [sp, #746]	; 0x2ea
 12c:	9915      	ldr	r1, [sp, #84]	; 0x54
 12e:	f8a1 00f4 	strh.w	r0, [r1, #244]	; 0xf4
/Users/Luppy/PineTime/pinetime-rust-mynewt/rust/piet-embedded/piet-embedded-graphics/src/batch.rs:199
                        self.colors.clear();
 132:	9815      	ldr	r0, [sp, #84]	; 0x54
 134:	3024      	adds	r0, #36	; 0x24
 136:	f7ff fffe 	bl	0 <_ZN8heapless3vec16Vec$LT$T$C$N$GT$5clear17h2f7841f03661f139E>
 13a:	e7ff      	b.n	13c <_ZN110_$LT$piet_embedded_graphics..batch..RowIterator$LT$P$GT$$u20$as$u20$core..iter..traits..iterator..Iterator$GT$4next17hf0d9b5a30056179dE+0x13c>
/Users/Luppy/PineTime/pinetime-rust-mynewt/rust/piet-embedded/piet-embedded-graphics/src/batch.rs:200
                        self.colors.push(color)
 13c:	9815      	ldr	r0, [sp, #84]	; 0x54
 13e:	3024      	adds	r0, #36	; 0x24
 140:	f8bd 12ec 	ldrh.w	r1, [sp, #748]	; 0x2ec
 144:	f7ff fffe 	bl	0 <_ZN8heapless3vec16Vec$LT$T$C$N$GT$4push17h6f527a384316b252E>
 148:	900a      	str	r0, [sp, #40]	; 0x28
 14a:	9109      	str	r1, [sp, #36]	; 0x24
 14c:	e7ff      	b.n	14e <_ZN110_$LT$piet_embedded_graphics..batch..RowIterator$LT$P$GT$$u20$as$u20$core..iter..traits..iterator..Iterator$GT$4next17hf0d9b5a30056179dE+0x14e>
 14e:	f240 0200 	movw	r2, #0
 152:	f2c0 0200 	movt	r2, #0
 156:	2305      	movs	r3, #5
 158:	980a      	ldr	r0, [sp, #40]	; 0x28
 15a:	9909      	ldr	r1, [sp, #36]	; 0x24
 15c:	f7ff fffe 	bl	0 <_ZN4core6result19Result$LT$T$C$E$GT$6expect17hd5a6aacc7d7a46d0E>
 160:	e7ff      	b.n	162 <_ZN110_$LT$piet_embedded_graphics..batch..RowIterator$LT$P$GT$$u20$as$u20$core..iter..traits..iterator..Iterator$GT$4next17hf0d9b5a30056179dE+0x162>
/Users/Luppy/PineTime/pinetime-rust-mynewt/rust/piet-embedded/piet-embedded-graphics/src/batch.rs:202
                        continue;
 162:	e7ff      	b.n	164 <_ZN110_$LT$piet_embedded_graphics..batch..RowIterator$LT$P$GT$$u20$as$u20$core..iter..traits..iterator..Iterator$GT$4next17hf0d9b5a30056179dE+0x164>
 164:	e752      	b.n	c <_ZN110_$LT$piet_embedded_graphics..batch..RowIterator$LT$P$GT$$u20$as$u20$core..iter..traits..iterator..Iterator$GT$4next17hf0d9b5a30056179dE+0xc>
 166:	2001      	movs	r0, #1
/Users/Luppy/PineTime/pinetime-rust-mynewt/rust/piet-embedded/piet-embedded-graphics/src/batch.rs:205
                    if x == self.x_right + 1 && y == self.y {
 168:	f88d 02ef 	strb.w	r0, [sp, #751]	; 0x2ef
 16c:	e00b      	b.n	186 <_ZN110_$LT$piet_embedded_graphics..batch..RowIterator$LT$P$GT$$u20$as$u20$core..iter..traits..iterator..Iterator$GT$4next17hf0d9b5a30056179dE+0x186>
 16e:	2000      	movs	r0, #0
 170:	f88d 02ef 	strb.w	r0, [sp, #751]	; 0x2ef
 174:	e007      	b.n	186 <_ZN110_$LT$piet_embedded_graphics..batch..RowIterator$LT$P$GT$$u20$as$u20$core..iter..traits..iterator..Iterator$GT$4next17hf0d9b5a30056179dE+0x186>
 176:	f8bd 02ea 	ldrh.w	r0, [sp, #746]	; 0x2ea
 17a:	9915      	ldr	r1, [sp, #84]	; 0x54
 17c:	f8b1 10f4 	ldrh.w	r1, [r1, #244]	; 0xf4
 180:	4288      	cmp	r0, r1
 182:	d0f0      	beq.n	166 <_ZN110_$LT$piet_embedded_graphics..batch..RowIterator$LT$P$GT$$u20$as$u20$core..iter..traits..iterator..Iterator$GT$4next17hf0d9b5a30056179dE+0x166>
 184:	e7f3      	b.n	16e <_ZN110_$LT$piet_embedded_graphics..batch..RowIterator$LT$P$GT$$u20$as$u20$core..iter..traits..iterator..Iterator$GT$4next17hf0d9b5a30056179dE+0x16e>
 186:	f89d 02ef 	ldrb.w	r0, [sp, #751]	; 0x2ef
 18a:	07c0      	lsls	r0, r0, #31
 18c:	2800      	cmp	r0, #0
 18e:	d107      	bne.n	1a0 <_ZN110_$LT$piet_embedded_graphics..batch..RowIterator$LT$P$GT$$u20$as$u20$core..iter..traits..iterator..Iterator$GT$4next17hf0d9b5a30056179dE+0x1a0>
 190:	e022      	b.n	1d8 <_ZN110_$LT$piet_embedded_graphics..batch..RowIterator$LT$P$GT$$u20$as$u20$core..iter..traits..iterator..Iterator$GT$4next17hf0d9b5a30056179dE+0x1d8>
 192:	980b      	ldr	r0, [sp, #44]	; 0x2c
 194:	b281      	uxth	r1, r0
 196:	9a0c      	ldr	r2, [sp, #48]	; 0x30
 198:	b293      	uxth	r3, r2
 19a:	428b      	cmp	r3, r1
 19c:	d0eb      	beq.n	176 <_ZN110_$LT$piet_embedded_graphics..batch..RowIterator$LT$P$GT$$u20$as$u20$core..iter..traits..iterator..Iterator$GT$4next17hf0d9b5a30056179dE+0x176>
 19e:	e7e6      	b.n	16e <_ZN110_$LT$piet_embedded_graphics..batch..RowIterator$LT$P$GT$$u20$as$u20$core..iter..traits..iterator..Iterator$GT$4next17hf0d9b5a30056179dE+0x16e>
/Users/Luppy/PineTime/pinetime-rust-mynewt/rust/piet-embedded/piet-embedded-graphics/src/batch.rs:206
                        if self.colors.push(color).is_ok() {
 1a0:	9815      	ldr	r0, [sp, #84]	; 0x54
 1a2:	3024      	adds	r0, #36	; 0x24
 1a4:	f8bd 12ec 	ldrh.w	r1, [sp, #748]	; 0x2ec
 1a8:	f7ff fffe 	bl	0 <_ZN8heapless3vec16Vec$LT$T$C$N$GT$4push17h6f527a384316b252E>
 1ac:	f8ad 12f2 	strh.w	r1, [sp, #754]	; 0x2f2
 1b0:	f8ad 02f0 	strh.w	r0, [sp, #752]	; 0x2f0
 1b4:	e7ff      	b.n	1b6 <_ZN110_$LT$piet_embedded_graphics..batch..RowIterator$LT$P$GT$$u20$as$u20$core..iter..traits..iterator..Iterator$GT$4next17hf0d9b5a30056179dE+0x1b6>
 1b6:	a8bc      	add	r0, sp, #752	; 0x2f0
 1b8:	f7ff fffe 	bl	0 <_ZN4core6result19Result$LT$T$C$E$GT$5is_ok17h0a19641dd28a638bE>
 1bc:	9008      	str	r0, [sp, #32]
 1be:	e7ff      	b.n	1c0 <_ZN110_$LT$piet_embedded_graphics..batch..RowIterator$LT$P$GT$$u20$as$u20$core..iter..traits..iterator..Iterator$GT$4next17hf0d9b5a30056179dE+0x1c0>
 1c0:	9808      	ldr	r0, [sp, #32]
 1c2:	07c1      	lsls	r1, r0, #31
 1c4:	2900      	cmp	r1, #0
 1c6:	d101      	bne.n	1cc <_ZN110_$LT$piet_embedded_graphics..batch..RowIterator$LT$P$GT$$u20$as$u20$core..iter..traits..iterator..Iterator$GT$4next17hf0d9b5a30056179dE+0x1cc>
 1c8:	e7ff      	b.n	1ca <_ZN110_$LT$piet_embedded_graphics..batch..RowIterator$LT$P$GT$$u20$as$u20$core..iter..traits..iterator..Iterator$GT$4next17hf0d9b5a30056179dE+0x1ca>
/Users/Luppy/PineTime/pinetime-rust-mynewt/rust/piet-embedded/piet-embedded-graphics/src/batch.rs:205
                    if x == self.x_right + 1 && y == self.y {
 1ca:	e005      	b.n	1d8 <_ZN110_$LT$piet_embedded_graphics..batch..RowIterator$LT$P$GT$$u20$as$u20$core..iter..traits..iterator..Iterator$GT$4next17hf0d9b5a30056179dE+0x1d8>
/Users/Luppy/PineTime/pinetime-rust-mynewt/rust/piet-embedded/piet-embedded-graphics/src/batch.rs:208
                            self.x_right = x;
 1cc:	f8bd 02e8 	ldrh.w	r0, [sp, #744]	; 0x2e8
 1d0:	9915      	ldr	r1, [sp, #84]	; 0x54
 1d2:	f8a1 00f2 	strh.w	r0, [r1, #242]	; 0xf2
/Users/Luppy/PineTime/pinetime-rust-mynewt/rust/piet-embedded/piet-embedded-graphics/src/batch.rs:209
                            continue;
 1d6:	e7c5      	b.n	164 <_ZN110_$LT$piet_embedded_graphics..batch..RowIterator$LT$P$GT$$u20$as$u20$core..iter..traits..iterator..Iterator$GT$4next17hf0d9b5a30056179dE+0x164>
/Users/Luppy/PineTime/pinetime-rust-mynewt/rust/piet-embedded/piet-embedded-graphics/src/batch.rs:214
                        x_left: self.x_left,
 1d8:	9815      	ldr	r0, [sp, #84]	; 0x54
 1da:	f8b0 10f0 	ldrh.w	r1, [r0, #240]	; 0xf0
/Users/Luppy/PineTime/pinetime-rust-mynewt/rust/piet-embedded/piet-embedded-graphics/src/batch.rs:215
                        x_right: self.x_right,
 1de:	f8b0 20f2 	ldrh.w	r2, [r0, #242]	; 0xf2
/Users/Luppy/PineTime/pinetime-rust-mynewt/rust/piet-embedded/piet-embedded-graphics/src/batch.rs:216
                        y: self.y,
 1e2:	f8b0 30f4 	ldrh.w	r3, [r0, #244]	; 0xf4
/Users/Luppy/PineTime/pinetime-rust-mynewt/rust/piet-embedded/piet-embedded-graphics/src/batch.rs:217
                        colors: self.colors.clone(),
 1e6:	3024      	adds	r0, #36	; 0x24
 1e8:	f50d 7c72 	add.w	ip, sp, #968	; 0x3c8
 1ec:	9007      	str	r0, [sp, #28]
 1ee:	4660      	mov	r0, ip
 1f0:	f8dd c01c 	ldr.w	ip, [sp, #28]
 1f4:	9106      	str	r1, [sp, #24]
 1f6:	4661      	mov	r1, ip
 1f8:	9205      	str	r2, [sp, #20]
 1fa:	9304      	str	r3, [sp, #16]
 1fc:	f7ff fffe 	bl	0 <_ZN70_$LT$heapless..vec..Vec$LT$T$C$N$GT$$u20$as$u20$core..clone..Clone$GT$5clone17hca841008de44ea41E>
 200:	e7ff      	b.n	202 <_ZN110_$LT$piet_embedded_graphics..batch..RowIterator$LT$P$GT$$u20$as$u20$core..iter..traits..iterator..Iterator$GT$4next17hf0d9b5a30056179dE+0x202>
/Users/Luppy/PineTime/pinetime-rust-mynewt/rust/piet-embedded/piet-embedded-graphics/src/batch.rs:213
                    let row = PixelRow {
 202:	9806      	ldr	r0, [sp, #24]
 204:	f8ad 03c0 	strh.w	r0, [sp, #960]	; 0x3c0
 208:	9905      	ldr	r1, [sp, #20]
 20a:	f8ad 13c2 	strh.w	r1, [sp, #962]	; 0x3c2
 20e:	9a04      	ldr	r2, [sp, #16]
 210:	f8ad 23c4 	strh.w	r2, [sp, #964]	; 0x3c4
 214:	a8bd      	add	r0, sp, #756	; 0x2f4
 216:	a9f2      	add	r1, sp, #968	; 0x3c8
 218:	22cc      	movs	r2, #204	; 0xcc
 21a:	f7ff fffe 	bl	0 <__aeabi_memcpy4>
/Users/Luppy/PineTime/pinetime-rust-mynewt/rust/piet-embedded/piet-embedded-graphics/src/batch.rs:219
                    self.x_left = x;
 21e:	f8bd 02e8 	ldrh.w	r0, [sp, #744]	; 0x2e8
 222:	9915      	ldr	r1, [sp, #84]	; 0x54
 224:	f8a1 00f0 	strh.w	r0, [r1, #240]	; 0xf0
/Users/Luppy/PineTime/pinetime-rust-mynewt/rust/piet-embedded/piet-embedded-graphics/src/batch.rs:220
                    self.x_right = x;
 228:	f8bd 02e8 	ldrh.w	r0, [sp, #744]	; 0x2e8
 22c:	9915      	ldr	r1, [sp, #84]	; 0x54
 22e:	f8a1 00f2 	strh.w	r0, [r1, #242]	; 0xf2
/Users/Luppy/PineTime/pinetime-rust-mynewt/rust/piet-embedded/piet-embedded-graphics/src/batch.rs:221
                    self.y = y;
 232:	f8bd 02ea 	ldrh.w	r0, [sp, #746]	; 0x2ea
 236:	9915      	ldr	r1, [sp, #84]	; 0x54
 238:	f8a1 00f4 	strh.w	r0, [r1, #244]	; 0xf4
/Users/Luppy/PineTime/pinetime-rust-mynewt/rust/piet-embedded/piet-embedded-graphics/src/batch.rs:222
                    self.colors.clear();
 23c:	9815      	ldr	r0, [sp, #84]	; 0x54
 23e:	3024      	adds	r0, #36	; 0x24
 240:	f7ff fffe 	bl	0 <_ZN8heapless3vec16Vec$LT$T$C$N$GT$5clear17h2f7841f03661f139E>
 244:	e7ff      	b.n	246 <_ZN110_$LT$piet_embedded_graphics..batch..RowIterator$LT$P$GT$$u20$as$u20$core..iter..traits..iterator..Iterator$GT$4next17hf0d9b5a30056179dE+0x246>
/Users/Luppy/PineTime/pinetime-rust-mynewt/rust/piet-embedded/piet-embedded-graphics/src/batch.rs:223
                    self.colors.push(color)
 246:	9815      	ldr	r0, [sp, #84]	; 0x54
 248:	3024      	adds	r0, #36	; 0x24
 24a:	f8bd 12ec 	ldrh.w	r1, [sp, #748]	; 0x2ec
 24e:	f7ff fffe 	bl	0 <_ZN8heapless3vec16Vec$LT$T$C$N$GT$4push17h6f527a384316b252E>
 252:	9003      	str	r0, [sp, #12]
 254:	9102      	str	r1, [sp, #8]
 256:	e7ff      	b.n	258 <_ZN110_$LT$piet_embedded_graphics..batch..RowIterator$LT$P$GT$$u20$as$u20$core..iter..traits..iterator..Iterator$GT$4next17hf0d9b5a30056179dE+0x258>
 258:	f240 0200 	movw	r2, #0
 25c:	f2c0 0200 	movt	r2, #0
 260:	2305      	movs	r3, #5
 262:	9803      	ldr	r0, [sp, #12]
 264:	9902      	ldr	r1, [sp, #8]
 266:	f7ff fffe 	bl	0 <_ZN4core6result19Result$LT$T$C$E$GT$6expect17hd5a6aacc7d7a46d0E>
 26a:	e7ff      	b.n	26c <_ZN110_$LT$piet_embedded_graphics..batch..RowIterator$LT$P$GT$$u20$as$u20$core..iter..traits..iterator..Iterator$GT$4next17hf0d9b5a30056179dE+0x26c>
 26c:	f20d 4094 	addw	r0, sp, #1172	; 0x494
 270:	a9bd      	add	r1, sp, #756	; 0x2f4
 272:	22d4      	movs	r2, #212	; 0xd4
/Users/Luppy/PineTime/pinetime-rust-mynewt/rust/piet-embedded/piet-embedded-graphics/src/batch.rs:225
                    return Some(row);
 274:	9001      	str	r0, [sp, #4]
 276:	9200      	str	r2, [sp, #0]
 278:	f7ff fffe 	bl	0 <__aeabi_memcpy4>
 27c:	9814      	ldr	r0, [sp, #80]	; 0x50
 27e:	3004      	adds	r0, #4
 280:	9901      	ldr	r1, [sp, #4]
 282:	9a00      	ldr	r2, [sp, #0]
 284:	f7ff fffe 	bl	0 <__aeabi_memcpy4>
 288:	2001      	movs	r0, #1
 28a:	9914      	ldr	r1, [sp, #80]	; 0x50
 28c:	6008      	str	r0, [r1, #0]
 28e:	e6e8      	b.n	62 <_ZN110_$LT$piet_embedded_graphics..batch..RowIterator$LT$P$GT$$u20$as$u20$core..iter..traits..iterator..Iterator$GT$4next17hf0d9b5a30056179dE+0x62>
/Users/Luppy/PineTime/pinetime-rust-mynewt/rust/piet-embedded/piet-embedded-graphics/src/batch.rs:205
                    if x == self.x_right + 1 && y == self.y {
 290:	f240 0000 	movw	r0, #0
 294:	f2c0 0000 	movt	r0, #0
 298:	f240 0200 	movw	r2, #0
 29c:	f2c0 0200 	movt	r2, #0
 2a0:	211c      	movs	r1, #28
 2a2:	f7ff fffe 	bl	0 <_ZN4core9panicking5panic17hfdd0eecc44a682f8E>
 2a6:	defe      	udf	#254	; 0xfe

Disassembly of section .text._ZN112_$LT$piet_embedded_graphics..batch..BlockIterator$LT$R$GT$$u20$as$u20$core..iter..traits..iterator..Iterator$GT$4next17h1f169d53c8f70418E:

00000000 <_ZN112_$LT$piet_embedded_graphics..batch..BlockIterator$LT$R$GT$$u20$as$u20$core..iter..traits..iterator..Iterator$GT$4next17h1f169d53c8f70418E>:
_ZN112_$LT$piet_embedded_graphics..batch..BlockIterator$LT$R$GT$$u20$as$u20$core..iter..traits..iterator..Iterator$GT$4next17h1f169d53c8f70418E():
/Users/Luppy/PineTime/pinetime-rust-mynewt/rust/piet-embedded/piet-embedded-graphics/src/batch.rs:239
impl<R: Iterator<Item = PixelRow>> Iterator for BlockIterator<R> {
    /// This Iterator returns Pixel Blocks
    type Item = PixelBlock;

    /// Return the next Pixel Block of contiguous Pixel Rows with the same start and end column number
    fn next(&mut self) -> Option<Self::Item> {
   0:	b580      	push	{r7, lr}
   2:	f5ad 6d3c 	sub.w	sp, sp, #3008	; 0xbc0
   6:	b082      	sub	sp, #8
   8:	911e      	str	r1, [sp, #120]	; 0x78
   a:	2100      	movs	r1, #0
/Users/Luppy/PineTime/pinetime-rust-mynewt/rust/piet-embedded/piet-embedded-graphics/src/batch.rs:241
        //  Loop over all Pixel Rows until we have composed a Pixel Block, or we have run out of Pixel Rows.
        loop {
   c:	f88d 1bc7 	strb.w	r1, [sp, #3015]	; 0xbc7
  10:	901d      	str	r0, [sp, #116]	; 0x74
  12:	e7ff      	b.n	14 <_ZN112_$LT$piet_embedded_graphics..batch..BlockIterator$LT$R$GT$$u20$as$u20$core..iter..traits..iterator..Iterator$GT$4next17h1f169d53c8f70418E+0x14>
/Users/Luppy/PineTime/pinetime-rust-mynewt/rust/piet-embedded/piet-embedded-graphics/src/batch.rs:243
            //  Get the next Pixel Row.
            let next_row = self.rows.next();
  14:	991e      	ldr	r1, [sp, #120]	; 0x78
  16:	2001      	movs	r0, #1
  18:	f88d 0bc7 	strb.w	r0, [sp, #3015]	; 0xbc7
  1c:	a81f      	add	r0, sp, #124	; 0x7c
  1e:	f7ff fffe 	bl	0 <_ZN112_$LT$piet_embedded_graphics..batch..BlockIterator$LT$R$GT$$u20$as$u20$core..iter..traits..iterator..Iterator$GT$4next17h1f169d53c8f70418E>
  22:	e7ff      	b.n	24 <_ZN112_$LT$piet_embedded_graphics..batch..BlockIterator$LT$R$GT$$u20$as$u20$core..iter..traits..iterator..Iterator$GT$4next17h1f169d53c8f70418E+0x24>
/Users/Luppy/PineTime/pinetime-rust-mynewt/rust/piet-embedded/piet-embedded-graphics/src/batch.rs:245
            match next_row {
                None => {  //  If no more Pixel Rows...
  24:	981f      	ldr	r0, [sp, #124]	; 0x7c
  26:	2800      	cmp	r0, #0
  28:	d002      	beq.n	30 <_ZN112_$LT$piet_embedded_graphics..batch..BlockIterator$LT$R$GT$$u20$as$u20$core..iter..traits..iterator..Iterator$GT$4next17h1f169d53c8f70418E+0x30>
  2a:	e7ff      	b.n	2c <_ZN112_$LT$piet_embedded_graphics..batch..BlockIterator$LT$R$GT$$u20$as$u20$core..iter..traits..iterator..Iterator$GT$4next17h1f169d53c8f70418E+0x2c>
  2c:	e055      	b.n	da <_ZN112_$LT$piet_embedded_graphics..batch..BlockIterator$LT$R$GT$$u20$as$u20$core..iter..traits..iterator..Iterator$GT$4next17h1f169d53c8f70418E+0xda>
/Users/Luppy/PineTime/pinetime-rust-mynewt/rust/piet-embedded/piet-embedded-graphics/src/batch.rs:244
            match next_row {
  2e:	defe      	udf	#254	; 0xfe
/Users/Luppy/PineTime/pinetime-rust-mynewt/rust/piet-embedded/piet-embedded-graphics/src/batch.rs:246
                    if self.first_row {
  30:	981e      	ldr	r0, [sp, #120]	; 0x78
  32:	f890 0294 	ldrb.w	r0, [r0, #660]	; 0x294
  36:	07c0      	lsls	r0, r0, #31
  38:	2800      	cmp	r0, #0
  3a:	d119      	bne.n	70 <_ZN112_$LT$piet_embedded_graphics..batch..BlockIterator$LT$R$GT$$u20$as$u20$core..iter..traits..iterator..Iterator$GT$4next17h1f169d53c8f70418E+0x70>
  3c:	e7ff      	b.n	3e <_ZN112_$LT$piet_embedded_graphics..batch..BlockIterator$LT$R$GT$$u20$as$u20$core..iter..traits..iterator..Iterator$GT$4next17h1f169d53c8f70418E+0x3e>
/Users/Luppy/PineTime/pinetime-rust-mynewt/rust/piet-embedded/piet-embedded-graphics/src/batch.rs:251
                        return None;  //  No rows to group
                    }                    
                    //  Else return previous rows as block.
                    let row = PixelBlock {
                        x_left: self.x_left,
  3e:	981e      	ldr	r0, [sp, #120]	; 0x78
  40:	f8b0 128c 	ldrh.w	r1, [r0, #652]	; 0x28c
/Users/Luppy/PineTime/pinetime-rust-mynewt/rust/piet-embedded/piet-embedded-graphics/src/batch.rs:252
                        x_right: self.x_right,
  44:	f8b0 228e 	ldrh.w	r2, [r0, #654]	; 0x28e
/Users/Luppy/PineTime/pinetime-rust-mynewt/rust/piet-embedded/piet-embedded-graphics/src/batch.rs:253
                        y_top: self.y_top,
  48:	f8b0 3290 	ldrh.w	r3, [r0, #656]	; 0x290
/Users/Luppy/PineTime/pinetime-rust-mynewt/rust/piet-embedded/piet-embedded-graphics/src/batch.rs:254
                        y_bottom: self.y_bottom,
  4c:	f8b0 c292 	ldrh.w	ip, [r0, #658]	; 0x292
/Users/Luppy/PineTime/pinetime-rust-mynewt/rust/piet-embedded/piet-embedded-graphics/src/batch.rs:255
                        colors: self.colors.clone(),
  50:	30f8      	adds	r0, #248	; 0xf8
  52:	f50d 7e3c 	add.w	lr, sp, #752	; 0x2f0
  56:	901c      	str	r0, [sp, #112]	; 0x70
  58:	4670      	mov	r0, lr
  5a:	f8dd e070 	ldr.w	lr, [sp, #112]	; 0x70
  5e:	911b      	str	r1, [sp, #108]	; 0x6c
  60:	4671      	mov	r1, lr
  62:	921a      	str	r2, [sp, #104]	; 0x68
  64:	9319      	str	r3, [sp, #100]	; 0x64
  66:	f8cd c060 	str.w	ip, [sp, #96]	; 0x60
  6a:	f7ff fffe 	bl	0 <_ZN70_$LT$heapless..vec..Vec$LT$T$C$N$GT$$u20$as$u20$core..clone..Clone$GT$5clone17h06de5d43137c8e8cE>
  6e:	e003      	b.n	78 <_ZN112_$LT$piet_embedded_graphics..batch..BlockIterator$LT$R$GT$$u20$as$u20$core..iter..traits..iterator..Iterator$GT$4next17h1f169d53c8f70418E+0x78>
  70:	2000      	movs	r0, #0
/Users/Luppy/PineTime/pinetime-rust-mynewt/rust/piet-embedded/piet-embedded-graphics/src/batch.rs:247
                        return None;  //  No rows to group
  72:	991d      	ldr	r1, [sp, #116]	; 0x74
  74:	6008      	str	r0, [r1, #0]
  76:	e18d      	b.n	394 <_ZN112_$LT$piet_embedded_graphics..batch..BlockIterator$LT$R$GT$$u20$as$u20$core..iter..traits..iterator..Iterator$GT$4next17h1f169d53c8f70418E+0x394>
/Users/Luppy/PineTime/pinetime-rust-mynewt/rust/piet-embedded/piet-embedded-graphics/src/batch.rs:250
                    let row = PixelBlock {
  78:	981b      	ldr	r0, [sp, #108]	; 0x6c
  7a:	f8ad 02e8 	strh.w	r0, [sp, #744]	; 0x2e8
  7e:	991a      	ldr	r1, [sp, #104]	; 0x68
  80:	f8ad 12ea 	strh.w	r1, [sp, #746]	; 0x2ea
  84:	9a19      	ldr	r2, [sp, #100]	; 0x64
  86:	f8ad 22ec 	strh.w	r2, [sp, #748]	; 0x2ec
  8a:	9b18      	ldr	r3, [sp, #96]	; 0x60
  8c:	f8ad 32ee 	strh.w	r3, [sp, #750]	; 0x2ee
  90:	a855      	add	r0, sp, #340	; 0x154
  92:	a9bc      	add	r1, sp, #752	; 0x2f0
  94:	f44f 72ca 	mov.w	r2, #404	; 0x194
  98:	f7ff fffe 	bl	0 <__aeabi_memcpy4>
/Users/Luppy/PineTime/pinetime-rust-mynewt/rust/piet-embedded/piet-embedded-graphics/src/batch.rs:257
                    };
                    self.colors.clear();
  9c:	981e      	ldr	r0, [sp, #120]	; 0x78
  9e:	30f8      	adds	r0, #248	; 0xf8
  a0:	f7ff fffe 	bl	0 <_ZN8heapless3vec16Vec$LT$T$C$N$GT$5clear17hfd39c9763fef61d4E>
  a4:	e7ff      	b.n	a6 <_ZN112_$LT$piet_embedded_graphics..batch..BlockIterator$LT$R$GT$$u20$as$u20$core..iter..traits..iterator..Iterator$GT$4next17h1f169d53c8f70418E+0xa6>
/Users/Luppy/PineTime/pinetime-rust-mynewt/rust/piet-embedded/piet-embedded-graphics/src/batch.rs:258
                    self.first_row = true;
  a6:	981e      	ldr	r0, [sp, #120]	; 0x78
  a8:	2101      	movs	r1, #1
  aa:	f880 1294 	strb.w	r1, [r0, #660]	; 0x294
  ae:	f20d 4084 	addw	r0, sp, #1156	; 0x484
  b2:	aa55      	add	r2, sp, #340	; 0x154
  b4:	f44f 73ce 	mov.w	r3, #412	; 0x19c
/Users/Luppy/PineTime/pinetime-rust-mynewt/rust/piet-embedded/piet-embedded-graphics/src/batch.rs:259
                    return Some(row);
  b8:	9017      	str	r0, [sp, #92]	; 0x5c
  ba:	9116      	str	r1, [sp, #88]	; 0x58
  bc:	4611      	mov	r1, r2
  be:	461a      	mov	r2, r3
  c0:	9315      	str	r3, [sp, #84]	; 0x54
  c2:	f7ff fffe 	bl	0 <__aeabi_memcpy4>
  c6:	981d      	ldr	r0, [sp, #116]	; 0x74
  c8:	3004      	adds	r0, #4
  ca:	9917      	ldr	r1, [sp, #92]	; 0x5c
  cc:	9a15      	ldr	r2, [sp, #84]	; 0x54
  ce:	f7ff fffe 	bl	0 <__aeabi_memcpy4>
  d2:	9816      	ldr	r0, [sp, #88]	; 0x58
  d4:	991d      	ldr	r1, [sp, #116]	; 0x74
  d6:	6008      	str	r0, [r1, #0]
  d8:	e15c      	b.n	394 <_ZN112_$LT$piet_embedded_graphics..batch..BlockIterator$LT$R$GT$$u20$as$u20$core..iter..traits..iterator..Iterator$GT$4next17h1f169d53c8f70418E+0x394>
  da:	a81f      	add	r0, sp, #124	; 0x7c
/Users/Luppy/PineTime/pinetime-rust-mynewt/rust/piet-embedded/piet-embedded-graphics/src/batch.rs:261
                }
                Some(PixelRow { x_left, x_right, y, colors, .. }) => {  //  If there is a Pixel Row...
  dc:	1d01      	adds	r1, r0, #4
  de:	f8bd 014c 	ldrh.w	r0, [sp, #332]	; 0x14c
  e2:	f8ad 0622 	strh.w	r0, [sp, #1570]	; 0x622
  e6:	f8bd 014e 	ldrh.w	r0, [sp, #334]	; 0x14e
  ea:	f8ad 0624 	strh.w	r0, [sp, #1572]	; 0x624
  ee:	f8bd 0150 	ldrh.w	r0, [sp, #336]	; 0x150
  f2:	f8ad 0626 	strh.w	r0, [sp, #1574]	; 0x626
  f6:	2000      	movs	r0, #0
  f8:	f88d 0bc7 	strb.w	r0, [sp, #3015]	; 0xbc7
  fc:	f50d 60c5 	add.w	r0, sp, #1576	; 0x628
 100:	22cc      	movs	r2, #204	; 0xcc
 102:	f7ff fffe 	bl	0 <__aeabi_memcpy4>
/Users/Luppy/PineTime/pinetime-rust-mynewt/rust/piet-embedded/piet-embedded-graphics/src/batch.rs:263
                    //  Save the first row as the block start and handle next block.
                    if self.first_row {
 106:	981e      	ldr	r0, [sp, #120]	; 0x78
 108:	f890 0294 	ldrb.w	r0, [r0, #660]	; 0x294
 10c:	07c0      	lsls	r0, r0, #31
 10e:	2800      	cmp	r0, #0
 110:	d10e      	bne.n	130 <_ZN112_$LT$piet_embedded_graphics..batch..BlockIterator$LT$R$GT$$u20$as$u20$core..iter..traits..iterator..Iterator$GT$4next17h1f169d53c8f70418E+0x130>
 112:	e7ff      	b.n	114 <_ZN112_$LT$piet_embedded_graphics..batch..BlockIterator$LT$R$GT$$u20$as$u20$core..iter..traits..iterator..Iterator$GT$4next17h1f169d53c8f70418E+0x114>
/Users/Luppy/PineTime/pinetime-rust-mynewt/rust/piet-embedded/piet-embedded-graphics/src/batch.rs:275
                        self.colors.extend_from_slice(&colors)
                            .expect("never");
                        continue;
                    }
                    //  If this row is adjacent to the previous row and same size, add to the block.
                    if y == self.y_bottom + 1 && x_left == self.x_left && x_right == self.x_right {                        
 114:	f8bd 0626 	ldrh.w	r0, [sp, #1574]	; 0x626
 118:	991e      	ldr	r1, [sp, #120]	; 0x78
 11a:	f8b1 1292 	ldrh.w	r1, [r1, #658]	; 0x292
 11e:	3101      	adds	r1, #1
 120:	b28a      	uxth	r2, r1
 122:	460b      	mov	r3, r1
 124:	428a      	cmp	r2, r1
 126:	9014      	str	r0, [sp, #80]	; 0x50
 128:	9313      	str	r3, [sp, #76]	; 0x4c
 12a:	f040 813f 	bne.w	3ac <_ZN112_$LT$piet_embedded_graphics..batch..BlockIterator$LT$R$GT$$u20$as$u20$core..iter..traits..iterator..Iterator$GT$4next17h1f169d53c8f70418E+0x3ac>
 12e:	e070      	b.n	212 <_ZN112_$LT$piet_embedded_graphics..batch..BlockIterator$LT$R$GT$$u20$as$u20$core..iter..traits..iterator..Iterator$GT$4next17h1f169d53c8f70418E+0x212>
/Users/Luppy/PineTime/pinetime-rust-mynewt/rust/piet-embedded/piet-embedded-graphics/src/batch.rs:264
                        self.first_row = false;
 130:	981e      	ldr	r0, [sp, #120]	; 0x78
 132:	2100      	movs	r1, #0
 134:	f880 1294 	strb.w	r1, [r0, #660]	; 0x294
/Users/Luppy/PineTime/pinetime-rust-mynewt/rust/piet-embedded/piet-embedded-graphics/src/batch.rs:265
                        self.x_left = x_left;
 138:	f8bd 0622 	ldrh.w	r0, [sp, #1570]	; 0x622
 13c:	991e      	ldr	r1, [sp, #120]	; 0x78
 13e:	f8a1 028c 	strh.w	r0, [r1, #652]	; 0x28c
/Users/Luppy/PineTime/pinetime-rust-mynewt/rust/piet-embedded/piet-embedded-graphics/src/batch.rs:266
                        self.x_right = x_right;
 142:	f8bd 0624 	ldrh.w	r0, [sp, #1572]	; 0x624
 146:	991e      	ldr	r1, [sp, #120]	; 0x78
 148:	f8a1 028e 	strh.w	r0, [r1, #654]	; 0x28e
/Users/Luppy/PineTime/pinetime-rust-mynewt/rust/piet-embedded/piet-embedded-graphics/src/batch.rs:267
                        self.y_top = y;
 14c:	f8bd 0626 	ldrh.w	r0, [sp, #1574]	; 0x626
 150:	991e      	ldr	r1, [sp, #120]	; 0x78
 152:	f8a1 0290 	strh.w	r0, [r1, #656]	; 0x290
/Users/Luppy/PineTime/pinetime-rust-mynewt/rust/piet-embedded/piet-embedded-graphics/src/batch.rs:268
                        self.y_bottom = y;
 156:	f8bd 0626 	ldrh.w	r0, [sp, #1574]	; 0x626
 15a:	991e      	ldr	r1, [sp, #120]	; 0x78
 15c:	f8a1 0292 	strh.w	r0, [r1, #658]	; 0x292
/Users/Luppy/PineTime/pinetime-rust-mynewt/rust/piet-embedded/piet-embedded-graphics/src/batch.rs:269
                        self.colors.clear();
 160:	981e      	ldr	r0, [sp, #120]	; 0x78
 162:	30f8      	adds	r0, #248	; 0xf8
 164:	f7ff fffe 	bl	0 <_ZN8heapless3vec16Vec$LT$T$C$N$GT$5clear17hfd39c9763fef61d4E>
 168:	e7ff      	b.n	16a <_ZN112_$LT$piet_embedded_graphics..batch..BlockIterator$LT$R$GT$$u20$as$u20$core..iter..traits..iterator..Iterator$GT$4next17h1f169d53c8f70418E+0x16a>
/Users/Luppy/PineTime/pinetime-rust-mynewt/rust/piet-embedded/piet-embedded-graphics/src/batch.rs:270
                        self.colors.extend_from_slice(&colors)
 16a:	981e      	ldr	r0, [sp, #120]	; 0x78
 16c:	30f8      	adds	r0, #248	; 0xf8
 16e:	f50d 61c5 	add.w	r1, sp, #1576	; 0x628
 172:	9012      	str	r0, [sp, #72]	; 0x48
 174:	4608      	mov	r0, r1
 176:	f7ff fffe 	bl	0 <_ZN75_$LT$heapless..vec..Vec$LT$T$C$N$GT$$u20$as$u20$core..ops..deref..Deref$GT$5deref17h26cfc6056df07241E>
 17a:	9011      	str	r0, [sp, #68]	; 0x44
 17c:	9110      	str	r1, [sp, #64]	; 0x40
 17e:	e7ff      	b.n	180 <_ZN112_$LT$piet_embedded_graphics..batch..BlockIterator$LT$R$GT$$u20$as$u20$core..iter..traits..iterator..Iterator$GT$4next17h1f169d53c8f70418E+0x180>
 180:	9812      	ldr	r0, [sp, #72]	; 0x48
 182:	9911      	ldr	r1, [sp, #68]	; 0x44
 184:	9a10      	ldr	r2, [sp, #64]	; 0x40
 186:	f7ff fffe 	bl	0 <_ZN8heapless3vec16Vec$LT$T$C$N$GT$17extend_from_slice17h13d4385adab264f0E>
 18a:	900f      	str	r0, [sp, #60]	; 0x3c
 18c:	e7ff      	b.n	18e <_ZN112_$LT$piet_embedded_graphics..batch..BlockIterator$LT$R$GT$$u20$as$u20$core..iter..traits..iterator..Iterator$GT$4next17h1f169d53c8f70418E+0x18e>
 18e:	980f      	ldr	r0, [sp, #60]	; 0x3c
 190:	f000 0001 	and.w	r0, r0, #1
 194:	f240 0100 	movw	r1, #0
 198:	f2c0 0100 	movt	r1, #0
 19c:	2205      	movs	r2, #5
 19e:	f7ff fffe 	bl	0 <_ZN4core6result19Result$LT$T$C$E$GT$6expect17hf3746b868183a82aE>
 1a2:	e7ff      	b.n	1a4 <_ZN112_$LT$piet_embedded_graphics..batch..BlockIterator$LT$R$GT$$u20$as$u20$core..iter..traits..iterator..Iterator$GT$4next17h1f169d53c8f70418E+0x1a4>
/Users/Luppy/PineTime/pinetime-rust-mynewt/rust/piet-embedded/piet-embedded-graphics/src/batch.rs:272
                        continue;
 1a4:	e7ff      	b.n	1a6 <_ZN112_$LT$piet_embedded_graphics..batch..BlockIterator$LT$R$GT$$u20$as$u20$core..iter..traits..iterator..Iterator$GT$4next17h1f169d53c8f70418E+0x1a6>
 1a6:	f50d 60c5 	add.w	r0, sp, #1576	; 0x628
/Users/Luppy/PineTime/pinetime-rust-mynewt/rust/piet-embedded/piet-embedded-graphics/src/batch.rs:299
                    self.colors.clear();
                    self.colors.extend_from_slice(&colors)
                        .expect("never");
                    return Some(row);
                }
            }
 1aa:	f7ff fffe 	bl	0 <_ZN4core3ptr18real_drop_in_place17hae0f96c0e02821c9E>
 1ae:	e7ff      	b.n	1b0 <_ZN112_$LT$piet_embedded_graphics..batch..BlockIterator$LT$R$GT$$u20$as$u20$core..iter..traits..iterator..Iterator$GT$4next17h1f169d53c8f70418E+0x1b0>
/Users/Luppy/PineTime/pinetime-rust-mynewt/rust/piet-embedded/piet-embedded-graphics/src/batch.rs:300
        }
 1b0:	981f      	ldr	r0, [sp, #124]	; 0x7c
 1b2:	2801      	cmp	r0, #1
 1b4:	f000 80f2 	beq.w	39c <_ZN112_$LT$piet_embedded_graphics..batch..BlockIterator$LT$R$GT$$u20$as$u20$core..iter..traits..iterator..Iterator$GT$4next17h1f169d53c8f70418E+0x39c>
 1b8:	e0f4      	b.n	3a4 <_ZN112_$LT$piet_embedded_graphics..batch..BlockIterator$LT$R$GT$$u20$as$u20$core..iter..traits..iterator..Iterator$GT$4next17h1f169d53c8f70418E+0x3a4>
 1ba:	2001      	movs	r0, #1
/Users/Luppy/PineTime/pinetime-rust-mynewt/rust/piet-embedded/piet-embedded-graphics/src/batch.rs:275
                    if y == self.y_bottom + 1 && x_left == self.x_left && x_right == self.x_right {                        
 1bc:	f88d 06f5 	strb.w	r0, [sp, #1781]	; 0x6f5
 1c0:	e00b      	b.n	1da <_ZN112_$LT$piet_embedded_graphics..batch..BlockIterator$LT$R$GT$$u20$as$u20$core..iter..traits..iterator..Iterator$GT$4next17h1f169d53c8f70418E+0x1da>
 1c2:	2000      	movs	r0, #0
 1c4:	f88d 06f5 	strb.w	r0, [sp, #1781]	; 0x6f5
 1c8:	e007      	b.n	1da <_ZN112_$LT$piet_embedded_graphics..batch..BlockIterator$LT$R$GT$$u20$as$u20$core..iter..traits..iterator..Iterator$GT$4next17h1f169d53c8f70418E+0x1da>
 1ca:	f8bd 0624 	ldrh.w	r0, [sp, #1572]	; 0x624
 1ce:	991e      	ldr	r1, [sp, #120]	; 0x78
 1d0:	f8b1 128e 	ldrh.w	r1, [r1, #654]	; 0x28e
 1d4:	4288      	cmp	r0, r1
 1d6:	d0f0      	beq.n	1ba <_ZN112_$LT$piet_embedded_graphics..batch..BlockIterator$LT$R$GT$$u20$as$u20$core..iter..traits..iterator..Iterator$GT$4next17h1f169d53c8f70418E+0x1ba>
 1d8:	e7f3      	b.n	1c2 <_ZN112_$LT$piet_embedded_graphics..batch..BlockIterator$LT$R$GT$$u20$as$u20$core..iter..traits..iterator..Iterator$GT$4next17h1f169d53c8f70418E+0x1c2>
 1da:	f89d 06f5 	ldrb.w	r0, [sp, #1781]	; 0x6f5
 1de:	07c0      	lsls	r0, r0, #31
 1e0:	2800      	cmp	r0, #0
 1e2:	d11d      	bne.n	220 <_ZN112_$LT$piet_embedded_graphics..batch..BlockIterator$LT$R$GT$$u20$as$u20$core..iter..traits..iterator..Iterator$GT$4next17h1f169d53c8f70418E+0x220>
 1e4:	e041      	b.n	26a <_ZN112_$LT$piet_embedded_graphics..batch..BlockIterator$LT$R$GT$$u20$as$u20$core..iter..traits..iterator..Iterator$GT$4next17h1f169d53c8f70418E+0x26a>
 1e6:	2001      	movs	r0, #1
 1e8:	f88d 06f6 	strb.w	r0, [sp, #1782]	; 0x6f6
 1ec:	e00b      	b.n	206 <_ZN112_$LT$piet_embedded_graphics..batch..BlockIterator$LT$R$GT$$u20$as$u20$core..iter..traits..iterator..Iterator$GT$4next17h1f169d53c8f70418E+0x206>
 1ee:	2000      	movs	r0, #0
 1f0:	f88d 06f6 	strb.w	r0, [sp, #1782]	; 0x6f6
 1f4:	e007      	b.n	206 <_ZN112_$LT$piet_embedded_graphics..batch..BlockIterator$LT$R$GT$$u20$as$u20$core..iter..traits..iterator..Iterator$GT$4next17h1f169d53c8f70418E+0x206>
 1f6:	f8bd 0622 	ldrh.w	r0, [sp, #1570]	; 0x622
 1fa:	991e      	ldr	r1, [sp, #120]	; 0x78
 1fc:	f8b1 128c 	ldrh.w	r1, [r1, #652]	; 0x28c
 200:	4288      	cmp	r0, r1
 202:	d0f0      	beq.n	1e6 <_ZN112_$LT$piet_embedded_graphics..batch..BlockIterator$LT$R$GT$$u20$as$u20$core..iter..traits..iterator..Iterator$GT$4next17h1f169d53c8f70418E+0x1e6>
 204:	e7f3      	b.n	1ee <_ZN112_$LT$piet_embedded_graphics..batch..BlockIterator$LT$R$GT$$u20$as$u20$core..iter..traits..iterator..Iterator$GT$4next17h1f169d53c8f70418E+0x1ee>
 206:	f89d 06f6 	ldrb.w	r0, [sp, #1782]	; 0x6f6
 20a:	07c0      	lsls	r0, r0, #31
 20c:	2800      	cmp	r0, #0
 20e:	d1dc      	bne.n	1ca <_ZN112_$LT$piet_embedded_graphics..batch..BlockIterator$LT$R$GT$$u20$as$u20$core..iter..traits..iterator..Iterator$GT$4next17h1f169d53c8f70418E+0x1ca>
 210:	e7d7      	b.n	1c2 <_ZN112_$LT$piet_embedded_graphics..batch..BlockIterator$LT$R$GT$$u20$as$u20$core..iter..traits..iterator..Iterator$GT$4next17h1f169d53c8f70418E+0x1c2>
 212:	9813      	ldr	r0, [sp, #76]	; 0x4c
 214:	b281      	uxth	r1, r0
 216:	9a14      	ldr	r2, [sp, #80]	; 0x50
 218:	b293      	uxth	r3, r2
 21a:	428b      	cmp	r3, r1
 21c:	d0eb      	beq.n	1f6 <_ZN112_$LT$piet_embedded_graphics..batch..BlockIterator$LT$R$GT$$u20$as$u20$core..iter..traits..iterator..Iterator$GT$4next17h1f169d53c8f70418E+0x1f6>
 21e:	e7e6      	b.n	1ee <_ZN112_$LT$piet_embedded_graphics..batch..BlockIterator$LT$R$GT$$u20$as$u20$core..iter..traits..iterator..Iterator$GT$4next17h1f169d53c8f70418E+0x1ee>
/Users/Luppy/PineTime/pinetime-rust-mynewt/rust/piet-embedded/piet-embedded-graphics/src/batch.rs:277
                        if self.colors.extend_from_slice(&colors).is_ok() {
 220:	981e      	ldr	r0, [sp, #120]	; 0x78
 222:	30f8      	adds	r0, #248	; 0xf8
 224:	f50d 61c5 	add.w	r1, sp, #1576	; 0x628
 228:	900e      	str	r0, [sp, #56]	; 0x38
 22a:	4608      	mov	r0, r1
 22c:	f7ff fffe 	bl	0 <_ZN75_$LT$heapless..vec..Vec$LT$T$C$N$GT$$u20$as$u20$core..ops..deref..Deref$GT$5deref17h26cfc6056df07241E>
 230:	900d      	str	r0, [sp, #52]	; 0x34
 232:	910c      	str	r1, [sp, #48]	; 0x30
 234:	e7ff      	b.n	236 <_ZN112_$LT$piet_embedded_graphics..batch..BlockIterator$LT$R$GT$$u20$as$u20$core..iter..traits..iterator..Iterator$GT$4next17h1f169d53c8f70418E+0x236>
 236:	980e      	ldr	r0, [sp, #56]	; 0x38
 238:	990d      	ldr	r1, [sp, #52]	; 0x34
 23a:	9a0c      	ldr	r2, [sp, #48]	; 0x30
 23c:	f7ff fffe 	bl	0 <_ZN8heapless3vec16Vec$LT$T$C$N$GT$17extend_from_slice17h13d4385adab264f0E>
 240:	f88d 06f7 	strb.w	r0, [sp, #1783]	; 0x6f7
 244:	e7ff      	b.n	246 <_ZN112_$LT$piet_embedded_graphics..batch..BlockIterator$LT$R$GT$$u20$as$u20$core..iter..traits..iterator..Iterator$GT$4next17h1f169d53c8f70418E+0x246>
 246:	f20d 60f7 	addw	r0, sp, #1783	; 0x6f7
 24a:	f7ff fffe 	bl	0 <_ZN4core6result19Result$LT$T$C$E$GT$5is_ok17h2169747e842d48b7E>
 24e:	900b      	str	r0, [sp, #44]	; 0x2c
 250:	e7ff      	b.n	252 <_ZN112_$LT$piet_embedded_graphics..batch..BlockIterator$LT$R$GT$$u20$as$u20$core..iter..traits..iterator..Iterator$GT$4next17h1f169d53c8f70418E+0x252>
 252:	980b      	ldr	r0, [sp, #44]	; 0x2c
 254:	07c1      	lsls	r1, r0, #31
 256:	2900      	cmp	r1, #0
 258:	d101      	bne.n	25e <_ZN112_$LT$piet_embedded_graphics..batch..BlockIterator$LT$R$GT$$u20$as$u20$core..iter..traits..iterator..Iterator$GT$4next17h1f169d53c8f70418E+0x25e>
 25a:	e7ff      	b.n	25c <_ZN112_$LT$piet_embedded_graphics..batch..BlockIterator$LT$R$GT$$u20$as$u20$core..iter..traits..iterator..Iterator$GT$4next17h1f169d53c8f70418E+0x25c>
/Users/Luppy/PineTime/pinetime-rust-mynewt/rust/piet-embedded/piet-embedded-graphics/src/batch.rs:275
                    if y == self.y_bottom + 1 && x_left == self.x_left && x_right == self.x_right {                        
 25c:	e005      	b.n	26a <_ZN112_$LT$piet_embedded_graphics..batch..BlockIterator$LT$R$GT$$u20$as$u20$core..iter..traits..iterator..Iterator$GT$4next17h1f169d53c8f70418E+0x26a>
/Users/Luppy/PineTime/pinetime-rust-mynewt/rust/piet-embedded/piet-embedded-graphics/src/batch.rs:278
                            self.y_bottom = y;
 25e:	f8bd 0626 	ldrh.w	r0, [sp, #1574]	; 0x626
 262:	991e      	ldr	r1, [sp, #120]	; 0x78
 264:	f8a1 0292 	strh.w	r0, [r1, #658]	; 0x292
/Users/Luppy/PineTime/pinetime-rust-mynewt/rust/piet-embedded/piet-embedded-graphics/src/batch.rs:279
                            continue;    
 268:	e79d      	b.n	1a6 <_ZN112_$LT$piet_embedded_graphics..batch..BlockIterator$LT$R$GT$$u20$as$u20$core..iter..traits..iterator..Iterator$GT$4next17h1f169d53c8f70418E+0x1a6>
/Users/Luppy/PineTime/pinetime-rust-mynewt/rust/piet-embedded/piet-embedded-graphics/src/batch.rs:284
                        x_left: self.x_left,
 26a:	981e      	ldr	r0, [sp, #120]	; 0x78
 26c:	f8b0 128c 	ldrh.w	r1, [r0, #652]	; 0x28c
/Users/Luppy/PineTime/pinetime-rust-mynewt/rust/piet-embedded/piet-embedded-graphics/src/batch.rs:285
                        x_right: self.x_right,
 270:	f8b0 228e 	ldrh.w	r2, [r0, #654]	; 0x28e
/Users/Luppy/PineTime/pinetime-rust-mynewt/rust/piet-embedded/piet-embedded-graphics/src/batch.rs:286
                        y_top: self.y_top,
 274:	f8b0 3290 	ldrh.w	r3, [r0, #656]	; 0x290
/Users/Luppy/PineTime/pinetime-rust-mynewt/rust/piet-embedded/piet-embedded-graphics/src/batch.rs:287
                        y_bottom: self.y_bottom,
 278:	f8b0 c292 	ldrh.w	ip, [r0, #658]	; 0x292
/Users/Luppy/PineTime/pinetime-rust-mynewt/rust/piet-embedded/piet-embedded-graphics/src/batch.rs:288
                        colors: self.colors.clone(),
 27c:	30f8      	adds	r0, #248	; 0xf8
 27e:	f60d 0e94 	addw	lr, sp, #2196	; 0x894
 282:	900a      	str	r0, [sp, #40]	; 0x28
 284:	4670      	mov	r0, lr
 286:	f8dd e028 	ldr.w	lr, [sp, #40]	; 0x28
 28a:	9109      	str	r1, [sp, #36]	; 0x24
 28c:	4671      	mov	r1, lr
 28e:	9208      	str	r2, [sp, #32]
 290:	9307      	str	r3, [sp, #28]
 292:	f8cd c018 	str.w	ip, [sp, #24]
 296:	f7ff fffe 	bl	0 <_ZN70_$LT$heapless..vec..Vec$LT$T$C$N$GT$$u20$as$u20$core..clone..Clone$GT$5clone17h06de5d43137c8e8cE>
 29a:	e7ff      	b.n	29c <_ZN112_$LT$piet_embedded_graphics..batch..BlockIterator$LT$R$GT$$u20$as$u20$core..iter..traits..iterator..Iterator$GT$4next17h1f169d53c8f70418E+0x29c>
/Users/Luppy/PineTime/pinetime-rust-mynewt/rust/piet-embedded/piet-embedded-graphics/src/batch.rs:283
                    let row = PixelBlock {
 29c:	9809      	ldr	r0, [sp, #36]	; 0x24
 29e:	f8ad 088c 	strh.w	r0, [sp, #2188]	; 0x88c
 2a2:	9908      	ldr	r1, [sp, #32]
 2a4:	f8ad 188e 	strh.w	r1, [sp, #2190]	; 0x88e
 2a8:	9a07      	ldr	r2, [sp, #28]
 2aa:	f8ad 2890 	strh.w	r2, [sp, #2192]	; 0x890
 2ae:	9b06      	ldr	r3, [sp, #24]
 2b0:	f8ad 3892 	strh.w	r3, [sp, #2194]	; 0x892
 2b4:	f50d 60df 	add.w	r0, sp, #1784	; 0x6f8
 2b8:	f60d 0194 	addw	r1, sp, #2196	; 0x894
 2bc:	f44f 72ca 	mov.w	r2, #404	; 0x194
 2c0:	f7ff fffe 	bl	0 <__aeabi_memcpy4>
/Users/Luppy/PineTime/pinetime-rust-mynewt/rust/piet-embedded/piet-embedded-graphics/src/batch.rs:290
                    self.x_left = x_left;
 2c4:	f8bd 0622 	ldrh.w	r0, [sp, #1570]	; 0x622
 2c8:	991e      	ldr	r1, [sp, #120]	; 0x78
 2ca:	f8a1 028c 	strh.w	r0, [r1, #652]	; 0x28c
/Users/Luppy/PineTime/pinetime-rust-mynewt/rust/piet-embedded/piet-embedded-graphics/src/batch.rs:291
                    self.x_right = x_right;
 2ce:	f8bd 0624 	ldrh.w	r0, [sp, #1572]	; 0x624
 2d2:	991e      	ldr	r1, [sp, #120]	; 0x78
 2d4:	f8a1 028e 	strh.w	r0, [r1, #654]	; 0x28e
/Users/Luppy/PineTime/pinetime-rust-mynewt/rust/piet-embedded/piet-embedded-graphics/src/batch.rs:292
                    self.y_top = y;
 2d8:	f8bd 0626 	ldrh.w	r0, [sp, #1574]	; 0x626
 2dc:	991e      	ldr	r1, [sp, #120]	; 0x78
 2de:	f8a1 0290 	strh.w	r0, [r1, #656]	; 0x290
/Users/Luppy/PineTime/pinetime-rust-mynewt/rust/piet-embedded/piet-embedded-graphics/src/batch.rs:293
                    self.y_bottom = y;
 2e2:	f8bd 0626 	ldrh.w	r0, [sp, #1574]	; 0x626
 2e6:	991e      	ldr	r1, [sp, #120]	; 0x78
 2e8:	f8a1 0292 	strh.w	r0, [r1, #658]	; 0x292
/Users/Luppy/PineTime/pinetime-rust-mynewt/rust/piet-embedded/piet-embedded-graphics/src/batch.rs:294
                    self.colors.clear();
 2ec:	981e      	ldr	r0, [sp, #120]	; 0x78
 2ee:	30f8      	adds	r0, #248	; 0xf8
 2f0:	f7ff fffe 	bl	0 <_ZN8heapless3vec16Vec$LT$T$C$N$GT$5clear17hfd39c9763fef61d4E>
 2f4:	e7ff      	b.n	2f6 <_ZN112_$LT$piet_embedded_graphics..batch..BlockIterator$LT$R$GT$$u20$as$u20$core..iter..traits..iterator..Iterator$GT$4next17h1f169d53c8f70418E+0x2f6>
/Users/Luppy/PineTime/pinetime-rust-mynewt/rust/piet-embedded/piet-embedded-graphics/src/batch.rs:295
                    self.colors.extend_from_slice(&colors)
 2f6:	981e      	ldr	r0, [sp, #120]	; 0x78
 2f8:	30f8      	adds	r0, #248	; 0xf8
 2fa:	f50d 61c5 	add.w	r1, sp, #1576	; 0x628
 2fe:	9005      	str	r0, [sp, #20]
 300:	4608      	mov	r0, r1
 302:	f7ff fffe 	bl	0 <_ZN75_$LT$heapless..vec..Vec$LT$T$C$N$GT$$u20$as$u20$core..ops..deref..Deref$GT$5deref17h26cfc6056df07241E>
 306:	9004      	str	r0, [sp, #16]
 308:	9103      	str	r1, [sp, #12]
 30a:	e7ff      	b.n	30c <_ZN112_$LT$piet_embedded_graphics..batch..BlockIterator$LT$R$GT$$u20$as$u20$core..iter..traits..iterator..Iterator$GT$4next17h1f169d53c8f70418E+0x30c>
 30c:	9805      	ldr	r0, [sp, #20]
 30e:	9904      	ldr	r1, [sp, #16]
 310:	9a03      	ldr	r2, [sp, #12]
 312:	f7ff fffe 	bl	0 <_ZN8heapless3vec16Vec$LT$T$C$N$GT$17extend_from_slice17h13d4385adab264f0E>
 316:	9002      	str	r0, [sp, #8]
 318:	e7ff      	b.n	31a <_ZN112_$LT$piet_embedded_graphics..batch..BlockIterator$LT$R$GT$$u20$as$u20$core..iter..traits..iterator..Iterator$GT$4next17h1f169d53c8f70418E+0x31a>
 31a:	9802      	ldr	r0, [sp, #8]
 31c:	f000 0001 	and.w	r0, r0, #1
 320:	f240 0100 	movw	r1, #0
 324:	f2c0 0100 	movt	r1, #0
 328:	2205      	movs	r2, #5
 32a:	f7ff fffe 	bl	0 <_ZN4core6result19Result$LT$T$C$E$GT$6expect17hf3746b868183a82aE>
 32e:	e7ff      	b.n	330 <_ZN112_$LT$piet_embedded_graphics..batch..BlockIterator$LT$R$GT$$u20$as$u20$core..iter..traits..iterator..Iterator$GT$4next17h1f169d53c8f70418E+0x330>
 330:	f60d 2028 	addw	r0, sp, #2600	; 0xa28
 334:	f50d 61df 	add.w	r1, sp, #1784	; 0x6f8
 338:	f44f 72ce 	mov.w	r2, #412	; 0x19c
/Users/Luppy/PineTime/pinetime-rust-mynewt/rust/piet-embedded/piet-embedded-graphics/src/batch.rs:297
                    return Some(row);
 33c:	9001      	str	r0, [sp, #4]
 33e:	9200      	str	r2, [sp, #0]
 340:	f7ff fffe 	bl	0 <__aeabi_memcpy4>
 344:	981d      	ldr	r0, [sp, #116]	; 0x74
 346:	3004      	adds	r0, #4
 348:	9901      	ldr	r1, [sp, #4]
 34a:	9a00      	ldr	r2, [sp, #0]
 34c:	f7ff fffe 	bl	0 <__aeabi_memcpy4>
 350:	2001      	movs	r0, #1
 352:	991d      	ldr	r1, [sp, #116]	; 0x74
 354:	6008      	str	r0, [r1, #0]
 356:	f50d 60c5 	add.w	r0, sp, #1576	; 0x628
/Users/Luppy/PineTime/pinetime-rust-mynewt/rust/piet-embedded/piet-embedded-graphics/src/batch.rs:299
            }
 35a:	f7ff fffe 	bl	0 <_ZN4core3ptr18real_drop_in_place17hae0f96c0e02821c9E>
 35e:	e7ff      	b.n	360 <_ZN112_$LT$piet_embedded_graphics..batch..BlockIterator$LT$R$GT$$u20$as$u20$core..iter..traits..iterator..Iterator$GT$4next17h1f169d53c8f70418E+0x360>
/Users/Luppy/PineTime/pinetime-rust-mynewt/rust/piet-embedded/piet-embedded-graphics/src/batch.rs:297
                    return Some(row);
 360:	e018      	b.n	394 <_ZN112_$LT$piet_embedded_graphics..batch..BlockIterator$LT$R$GT$$u20$as$u20$core..iter..traits..iterator..Iterator$GT$4next17h1f169d53c8f70418E+0x394>
 362:	2000      	movs	r0, #0
/Users/Luppy/PineTime/pinetime-rust-mynewt/rust/piet-embedded/piet-embedded-graphics/src/batch.rs:300
        }
 364:	f88d 0bc7 	strb.w	r0, [sp, #3015]	; 0xbc7
/Users/Luppy/PineTime/pinetime-rust-mynewt/rust/piet-embedded/piet-embedded-graphics/src/batch.rs:301
    }
 368:	f50d 6d3c 	add.w	sp, sp, #3008	; 0xbc0
 36c:	b002      	add	sp, #8
 36e:	bd80      	pop	{r7, pc}
/Users/Luppy/PineTime/pinetime-rust-mynewt/rust/piet-embedded/piet-embedded-graphics/src/batch.rs:300
        }
 370:	f89d 0bc7 	ldrb.w	r0, [sp, #3015]	; 0xbc7
 374:	07c0      	lsls	r0, r0, #31
 376:	2800      	cmp	r0, #0
 378:	d0f3      	beq.n	362 <_ZN112_$LT$piet_embedded_graphics..batch..BlockIterator$LT$R$GT$$u20$as$u20$core..iter..traits..iterator..Iterator$GT$4next17h1f169d53c8f70418E+0x362>
 37a:	e7ff      	b.n	37c <_ZN112_$LT$piet_embedded_graphics..batch..BlockIterator$LT$R$GT$$u20$as$u20$core..iter..traits..iterator..Iterator$GT$4next17h1f169d53c8f70418E+0x37c>
 37c:	2000      	movs	r0, #0
 37e:	f88d 0bc7 	strb.w	r0, [sp, #3015]	; 0xbc7
 382:	a81f      	add	r0, sp, #124	; 0x7c
 384:	3004      	adds	r0, #4
 386:	f7ff fffe 	bl	0 <_ZN4core3ptr18real_drop_in_place17hae0f96c0e02821c9E>
 38a:	e7ea      	b.n	362 <_ZN112_$LT$piet_embedded_graphics..batch..BlockIterator$LT$R$GT$$u20$as$u20$core..iter..traits..iterator..Iterator$GT$4next17h1f169d53c8f70418E+0x362>
 38c:	a81f      	add	r0, sp, #124	; 0x7c
 38e:	f7ff fffe 	bl	0 <_ZN4core3ptr18real_drop_in_place17h7aef2a3cc7c1160cE>
 392:	e7e6      	b.n	362 <_ZN112_$LT$piet_embedded_graphics..batch..BlockIterator$LT$R$GT$$u20$as$u20$core..iter..traits..iterator..Iterator$GT$4next17h1f169d53c8f70418E+0x362>
 394:	981f      	ldr	r0, [sp, #124]	; 0x7c
 396:	2801      	cmp	r0, #1
 398:	d0ea      	beq.n	370 <_ZN112_$LT$piet_embedded_graphics..batch..BlockIterator$LT$R$GT$$u20$as$u20$core..iter..traits..iterator..Iterator$GT$4next17h1f169d53c8f70418E+0x370>
 39a:	e7f7      	b.n	38c <_ZN112_$LT$piet_embedded_graphics..batch..BlockIterator$LT$R$GT$$u20$as$u20$core..iter..traits..iterator..Iterator$GT$4next17h1f169d53c8f70418E+0x38c>
 39c:	2000      	movs	r0, #0
 39e:	f88d 0bc7 	strb.w	r0, [sp, #3015]	; 0xbc7
/Users/Luppy/PineTime/pinetime-rust-mynewt/rust/piet-embedded/piet-embedded-graphics/src/batch.rs:272
                        continue;
 3a2:	e637      	b.n	14 <_ZN112_$LT$piet_embedded_graphics..batch..BlockIterator$LT$R$GT$$u20$as$u20$core..iter..traits..iterator..Iterator$GT$4next17h1f169d53c8f70418E+0x14>
 3a4:	a81f      	add	r0, sp, #124	; 0x7c
/Users/Luppy/PineTime/pinetime-rust-mynewt/rust/piet-embedded/piet-embedded-graphics/src/batch.rs:300
        }
 3a6:	f7ff fffe 	bl	0 <_ZN4core3ptr18real_drop_in_place17h7aef2a3cc7c1160cE>
 3aa:	e7f7      	b.n	fffffff2 <_ZN112_$LT$piet_embedded_graphics..batch..BlockIterator$LT$R$GT$$u20$as$u20$core..iter..traits..iterator..Iterator$GT$4next17h1f169d53c8f70418E+0xfffffff2>
/Users/Luppy/PineTime/pinetime-rust-mynewt/rust/piet-embedded/piet-embedded-graphics/src/batch.rs:275
                    if y == self.y_bottom + 1 && x_left == self.x_left && x_right == self.x_right {                        
 3ac:	f240 0000 	movw	r0, #0
 3b0:	f2c0 0000 	movt	r0, #0
 3b4:	f240 0200 	movw	r2, #0
 3b8:	f2c0 0200 	movt	r2, #0
 3bc:	211c      	movs	r1, #28
 3be:	f7ff fffe 	bl	0 <_ZN4core9panicking5panic17hfdd0eecc44a682f8E>
 3c2:	defe      	udf	#254	; 0xfe

Disassembly of section .text._ZN112_$LT$piet_embedded_graphics..batch..BlockIterator$LT$R$GT$$u20$as$u20$core..iter..traits..iterator..Iterator$GT$4next17h93e6ed52620104b6E:

00000000 <_ZN112_$LT$piet_embedded_graphics..batch..BlockIterator$LT$R$GT$$u20$as$u20$core..iter..traits..iterator..Iterator$GT$4next17h93e6ed52620104b6E>:
_ZN112_$LT$piet_embedded_graphics..batch..BlockIterator$LT$R$GT$$u20$as$u20$core..iter..traits..iterator..Iterator$GT$4next17h93e6ed52620104b6E():
/Users/Luppy/PineTime/pinetime-rust-mynewt/rust/piet-embedded/piet-embedded-graphics/src/batch.rs:239
    fn next(&mut self) -> Option<Self::Item> {
   0:	b580      	push	{r7, lr}
   2:	f5ad 6d3c 	sub.w	sp, sp, #3008	; 0xbc0
   6:	b082      	sub	sp, #8
   8:	911e      	str	r1, [sp, #120]	; 0x78
   a:	2100      	movs	r1, #0
/Users/Luppy/PineTime/pinetime-rust-mynewt/rust/piet-embedded/piet-embedded-graphics/src/batch.rs:241
        loop {
   c:	f88d 1bc7 	strb.w	r1, [sp, #3015]	; 0xbc7
  10:	901d      	str	r0, [sp, #116]	; 0x74
  12:	e7ff      	b.n	14 <_ZN112_$LT$piet_embedded_graphics..batch..BlockIterator$LT$R$GT$$u20$as$u20$core..iter..traits..iterator..Iterator$GT$4next17h93e6ed52620104b6E+0x14>
/Users/Luppy/PineTime/pinetime-rust-mynewt/rust/piet-embedded/piet-embedded-graphics/src/batch.rs:243
            let next_row = self.rows.next();
  14:	991e      	ldr	r1, [sp, #120]	; 0x78
  16:	2001      	movs	r0, #1
  18:	f88d 0bc7 	strb.w	r0, [sp, #3015]	; 0xbc7
  1c:	a81f      	add	r0, sp, #124	; 0x7c
  1e:	f7ff fffe 	bl	0 <_ZN112_$LT$piet_embedded_graphics..batch..BlockIterator$LT$R$GT$$u20$as$u20$core..iter..traits..iterator..Iterator$GT$4next17h93e6ed52620104b6E>
  22:	e7ff      	b.n	24 <_ZN112_$LT$piet_embedded_graphics..batch..BlockIterator$LT$R$GT$$u20$as$u20$core..iter..traits..iterator..Iterator$GT$4next17h93e6ed52620104b6E+0x24>
/Users/Luppy/PineTime/pinetime-rust-mynewt/rust/piet-embedded/piet-embedded-graphics/src/batch.rs:245
                None => {  //  If no more Pixel Rows...
  24:	981f      	ldr	r0, [sp, #124]	; 0x7c
  26:	2800      	cmp	r0, #0
  28:	d002      	beq.n	30 <_ZN112_$LT$piet_embedded_graphics..batch..BlockIterator$LT$R$GT$$u20$as$u20$core..iter..traits..iterator..Iterator$GT$4next17h93e6ed52620104b6E+0x30>
  2a:	e7ff      	b.n	2c <_ZN112_$LT$piet_embedded_graphics..batch..BlockIterator$LT$R$GT$$u20$as$u20$core..iter..traits..iterator..Iterator$GT$4next17h93e6ed52620104b6E+0x2c>
  2c:	e057      	b.n	de <_ZN112_$LT$piet_embedded_graphics..batch..BlockIterator$LT$R$GT$$u20$as$u20$core..iter..traits..iterator..Iterator$GT$4next17h93e6ed52620104b6E+0xde>
/Users/Luppy/PineTime/pinetime-rust-mynewt/rust/piet-embedded/piet-embedded-graphics/src/batch.rs:244
            match next_row {
  2e:	defe      	udf	#254	; 0xfe
/Users/Luppy/PineTime/pinetime-rust-mynewt/rust/piet-embedded/piet-embedded-graphics/src/batch.rs:246
                    if self.first_row {
  30:	981e      	ldr	r0, [sp, #120]	; 0x78
  32:	f890 029c 	ldrb.w	r0, [r0, #668]	; 0x29c
  36:	07c0      	lsls	r0, r0, #31
  38:	2800      	cmp	r0, #0
  3a:	d11a      	bne.n	72 <_ZN112_$LT$piet_embedded_graphics..batch..BlockIterator$LT$R$GT$$u20$as$u20$core..iter..traits..iterator..Iterator$GT$4next17h93e6ed52620104b6E+0x72>
  3c:	e7ff      	b.n	3e <_ZN112_$LT$piet_embedded_graphics..batch..BlockIterator$LT$R$GT$$u20$as$u20$core..iter..traits..iterator..Iterator$GT$4next17h93e6ed52620104b6E+0x3e>
/Users/Luppy/PineTime/pinetime-rust-mynewt/rust/piet-embedded/piet-embedded-graphics/src/batch.rs:251
                        x_left: self.x_left,
  3e:	981e      	ldr	r0, [sp, #120]	; 0x78
  40:	f8b0 1294 	ldrh.w	r1, [r0, #660]	; 0x294
/Users/Luppy/PineTime/pinetime-rust-mynewt/rust/piet-embedded/piet-embedded-graphics/src/batch.rs:252
                        x_right: self.x_right,
  44:	f8b0 2296 	ldrh.w	r2, [r0, #662]	; 0x296
/Users/Luppy/PineTime/pinetime-rust-mynewt/rust/piet-embedded/piet-embedded-graphics/src/batch.rs:253
                        y_top: self.y_top,
  48:	f8b0 3298 	ldrh.w	r3, [r0, #664]	; 0x298
/Users/Luppy/PineTime/pinetime-rust-mynewt/rust/piet-embedded/piet-embedded-graphics/src/batch.rs:254
                        y_bottom: self.y_bottom,
  4c:	f8b0 c29a 	ldrh.w	ip, [r0, #666]	; 0x29a
/Users/Luppy/PineTime/pinetime-rust-mynewt/rust/piet-embedded/piet-embedded-graphics/src/batch.rs:255
                        colors: self.colors.clone(),
  50:	f500 7080 	add.w	r0, r0, #256	; 0x100
  54:	f50d 7e3c 	add.w	lr, sp, #752	; 0x2f0
  58:	901c      	str	r0, [sp, #112]	; 0x70
  5a:	4670      	mov	r0, lr
  5c:	f8dd e070 	ldr.w	lr, [sp, #112]	; 0x70
  60:	911b      	str	r1, [sp, #108]	; 0x6c
  62:	4671      	mov	r1, lr
  64:	921a      	str	r2, [sp, #104]	; 0x68
  66:	9319      	str	r3, [sp, #100]	; 0x64
  68:	f8cd c060 	str.w	ip, [sp, #96]	; 0x60
  6c:	f7ff fffe 	bl	0 <_ZN70_$LT$heapless..vec..Vec$LT$T$C$N$GT$$u20$as$u20$core..clone..Clone$GT$5clone17h06de5d43137c8e8cE>
  70:	e003      	b.n	7a <_ZN112_$LT$piet_embedded_graphics..batch..BlockIterator$LT$R$GT$$u20$as$u20$core..iter..traits..iterator..Iterator$GT$4next17h93e6ed52620104b6E+0x7a>
  72:	2000      	movs	r0, #0
/Users/Luppy/PineTime/pinetime-rust-mynewt/rust/piet-embedded/piet-embedded-graphics/src/batch.rs:247
                        return None;  //  No rows to group
  74:	991d      	ldr	r1, [sp, #116]	; 0x74
  76:	6008      	str	r0, [r1, #0]
  78:	e194      	b.n	3a4 <_ZN112_$LT$piet_embedded_graphics..batch..BlockIterator$LT$R$GT$$u20$as$u20$core..iter..traits..iterator..Iterator$GT$4next17h93e6ed52620104b6E+0x3a4>
/Users/Luppy/PineTime/pinetime-rust-mynewt/rust/piet-embedded/piet-embedded-graphics/src/batch.rs:250
                    let row = PixelBlock {
  7a:	981b      	ldr	r0, [sp, #108]	; 0x6c
  7c:	f8ad 02e8 	strh.w	r0, [sp, #744]	; 0x2e8
  80:	991a      	ldr	r1, [sp, #104]	; 0x68
  82:	f8ad 12ea 	strh.w	r1, [sp, #746]	; 0x2ea
  86:	9a19      	ldr	r2, [sp, #100]	; 0x64
  88:	f8ad 22ec 	strh.w	r2, [sp, #748]	; 0x2ec
  8c:	9b18      	ldr	r3, [sp, #96]	; 0x60
  8e:	f8ad 32ee 	strh.w	r3, [sp, #750]	; 0x2ee
  92:	a855      	add	r0, sp, #340	; 0x154
  94:	a9bc      	add	r1, sp, #752	; 0x2f0
  96:	f44f 72ca 	mov.w	r2, #404	; 0x194
  9a:	f7ff fffe 	bl	0 <__aeabi_memcpy4>
/Users/Luppy/PineTime/pinetime-rust-mynewt/rust/piet-embedded/piet-embedded-graphics/src/batch.rs:257
                    self.colors.clear();
  9e:	981e      	ldr	r0, [sp, #120]	; 0x78
  a0:	f500 7080 	add.w	r0, r0, #256	; 0x100
  a4:	f7ff fffe 	bl	0 <_ZN8heapless3vec16Vec$LT$T$C$N$GT$5clear17hfd39c9763fef61d4E>
  a8:	e7ff      	b.n	aa <_ZN112_$LT$piet_embedded_graphics..batch..BlockIterator$LT$R$GT$$u20$as$u20$core..iter..traits..iterator..Iterator$GT$4next17h93e6ed52620104b6E+0xaa>
/Users/Luppy/PineTime/pinetime-rust-mynewt/rust/piet-embedded/piet-embedded-graphics/src/batch.rs:258
                    self.first_row = true;
  aa:	981e      	ldr	r0, [sp, #120]	; 0x78
  ac:	2101      	movs	r1, #1
  ae:	f880 129c 	strb.w	r1, [r0, #668]	; 0x29c
  b2:	f20d 4084 	addw	r0, sp, #1156	; 0x484
  b6:	aa55      	add	r2, sp, #340	; 0x154
  b8:	f44f 73ce 	mov.w	r3, #412	; 0x19c
/Users/Luppy/PineTime/pinetime-rust-mynewt/rust/piet-embedded/piet-embedded-graphics/src/batch.rs:259
                    return Some(row);
  bc:	9017      	str	r0, [sp, #92]	; 0x5c
  be:	9116      	str	r1, [sp, #88]	; 0x58
  c0:	4611      	mov	r1, r2
  c2:	461a      	mov	r2, r3
  c4:	9315      	str	r3, [sp, #84]	; 0x54
  c6:	f7ff fffe 	bl	0 <__aeabi_memcpy4>
  ca:	981d      	ldr	r0, [sp, #116]	; 0x74
  cc:	3004      	adds	r0, #4
  ce:	9917      	ldr	r1, [sp, #92]	; 0x5c
  d0:	9a15      	ldr	r2, [sp, #84]	; 0x54
  d2:	f7ff fffe 	bl	0 <__aeabi_memcpy4>
  d6:	9816      	ldr	r0, [sp, #88]	; 0x58
  d8:	991d      	ldr	r1, [sp, #116]	; 0x74
  da:	6008      	str	r0, [r1, #0]
  dc:	e162      	b.n	3a4 <_ZN112_$LT$piet_embedded_graphics..batch..BlockIterator$LT$R$GT$$u20$as$u20$core..iter..traits..iterator..Iterator$GT$4next17h93e6ed52620104b6E+0x3a4>
  de:	a81f      	add	r0, sp, #124	; 0x7c
/Users/Luppy/PineTime/pinetime-rust-mynewt/rust/piet-embedded/piet-embedded-graphics/src/batch.rs:261
                Some(PixelRow { x_left, x_right, y, colors, .. }) => {  //  If there is a Pixel Row...
  e0:	1d01      	adds	r1, r0, #4
  e2:	f8bd 014c 	ldrh.w	r0, [sp, #332]	; 0x14c
  e6:	f8ad 0622 	strh.w	r0, [sp, #1570]	; 0x622
  ea:	f8bd 014e 	ldrh.w	r0, [sp, #334]	; 0x14e
  ee:	f8ad 0624 	strh.w	r0, [sp, #1572]	; 0x624
  f2:	f8bd 0150 	ldrh.w	r0, [sp, #336]	; 0x150
  f6:	f8ad 0626 	strh.w	r0, [sp, #1574]	; 0x626
  fa:	2000      	movs	r0, #0
  fc:	f88d 0bc7 	strb.w	r0, [sp, #3015]	; 0xbc7
 100:	f50d 60c5 	add.w	r0, sp, #1576	; 0x628
 104:	22cc      	movs	r2, #204	; 0xcc
 106:	f7ff fffe 	bl	0 <__aeabi_memcpy4>
/Users/Luppy/PineTime/pinetime-rust-mynewt/rust/piet-embedded/piet-embedded-graphics/src/batch.rs:263
                    if self.first_row {
 10a:	981e      	ldr	r0, [sp, #120]	; 0x78
 10c:	f890 029c 	ldrb.w	r0, [r0, #668]	; 0x29c
 110:	07c0      	lsls	r0, r0, #31
 112:	2800      	cmp	r0, #0
 114:	d10e      	bne.n	134 <_ZN112_$LT$piet_embedded_graphics..batch..BlockIterator$LT$R$GT$$u20$as$u20$core..iter..traits..iterator..Iterator$GT$4next17h93e6ed52620104b6E+0x134>
 116:	e7ff      	b.n	118 <_ZN112_$LT$piet_embedded_graphics..batch..BlockIterator$LT$R$GT$$u20$as$u20$core..iter..traits..iterator..Iterator$GT$4next17h93e6ed52620104b6E+0x118>
/Users/Luppy/PineTime/pinetime-rust-mynewt/rust/piet-embedded/piet-embedded-graphics/src/batch.rs:275
                    if y == self.y_bottom + 1 && x_left == self.x_left && x_right == self.x_right {                        
 118:	f8bd 0626 	ldrh.w	r0, [sp, #1574]	; 0x626
 11c:	991e      	ldr	r1, [sp, #120]	; 0x78
 11e:	f8b1 129a 	ldrh.w	r1, [r1, #666]	; 0x29a
 122:	3101      	adds	r1, #1
 124:	b28a      	uxth	r2, r1
 126:	460b      	mov	r3, r1
 128:	428a      	cmp	r2, r1
 12a:	9014      	str	r0, [sp, #80]	; 0x50
 12c:	9313      	str	r3, [sp, #76]	; 0x4c
 12e:	f040 8145 	bne.w	3bc <_ZN112_$LT$piet_embedded_graphics..batch..BlockIterator$LT$R$GT$$u20$as$u20$core..iter..traits..iterator..Iterator$GT$4next17h93e6ed52620104b6E+0x3bc>
 132:	e072      	b.n	21a <_ZN112_$LT$piet_embedded_graphics..batch..BlockIterator$LT$R$GT$$u20$as$u20$core..iter..traits..iterator..Iterator$GT$4next17h93e6ed52620104b6E+0x21a>
/Users/Luppy/PineTime/pinetime-rust-mynewt/rust/piet-embedded/piet-embedded-graphics/src/batch.rs:264
                        self.first_row = false;
 134:	981e      	ldr	r0, [sp, #120]	; 0x78
 136:	2100      	movs	r1, #0
 138:	f880 129c 	strb.w	r1, [r0, #668]	; 0x29c
/Users/Luppy/PineTime/pinetime-rust-mynewt/rust/piet-embedded/piet-embedded-graphics/src/batch.rs:265
                        self.x_left = x_left;
 13c:	f8bd 0622 	ldrh.w	r0, [sp, #1570]	; 0x622
 140:	991e      	ldr	r1, [sp, #120]	; 0x78
 142:	f8a1 0294 	strh.w	r0, [r1, #660]	; 0x294
/Users/Luppy/PineTime/pinetime-rust-mynewt/rust/piet-embedded/piet-embedded-graphics/src/batch.rs:266
                        self.x_right = x_right;
 146:	f8bd 0624 	ldrh.w	r0, [sp, #1572]	; 0x624
 14a:	991e      	ldr	r1, [sp, #120]	; 0x78
 14c:	f8a1 0296 	strh.w	r0, [r1, #662]	; 0x296
/Users/Luppy/PineTime/pinetime-rust-mynewt/rust/piet-embedded/piet-embedded-graphics/src/batch.rs:267
                        self.y_top = y;
 150:	f8bd 0626 	ldrh.w	r0, [sp, #1574]	; 0x626
 154:	991e      	ldr	r1, [sp, #120]	; 0x78
 156:	f8a1 0298 	strh.w	r0, [r1, #664]	; 0x298
/Users/Luppy/PineTime/pinetime-rust-mynewt/rust/piet-embedded/piet-embedded-graphics/src/batch.rs:268
                        self.y_bottom = y;
 15a:	f8bd 0626 	ldrh.w	r0, [sp, #1574]	; 0x626
 15e:	991e      	ldr	r1, [sp, #120]	; 0x78
 160:	f8a1 029a 	strh.w	r0, [r1, #666]	; 0x29a
/Users/Luppy/PineTime/pinetime-rust-mynewt/rust/piet-embedded/piet-embedded-graphics/src/batch.rs:269
                        self.colors.clear();
 164:	981e      	ldr	r0, [sp, #120]	; 0x78
 166:	f500 7080 	add.w	r0, r0, #256	; 0x100
 16a:	f7ff fffe 	bl	0 <_ZN8heapless3vec16Vec$LT$T$C$N$GT$5clear17hfd39c9763fef61d4E>
 16e:	e7ff      	b.n	170 <_ZN112_$LT$piet_embedded_graphics..batch..BlockIterator$LT$R$GT$$u20$as$u20$core..iter..traits..iterator..Iterator$GT$4next17h93e6ed52620104b6E+0x170>
/Users/Luppy/PineTime/pinetime-rust-mynewt/rust/piet-embedded/piet-embedded-graphics/src/batch.rs:270
                        self.colors.extend_from_slice(&colors)
 170:	981e      	ldr	r0, [sp, #120]	; 0x78
 172:	f500 7080 	add.w	r0, r0, #256	; 0x100
 176:	f50d 61c5 	add.w	r1, sp, #1576	; 0x628
 17a:	9012      	str	r0, [sp, #72]	; 0x48
 17c:	4608      	mov	r0, r1
 17e:	f7ff fffe 	bl	0 <_ZN75_$LT$heapless..vec..Vec$LT$T$C$N$GT$$u20$as$u20$core..ops..deref..Deref$GT$5deref17h26cfc6056df07241E>
 182:	9011      	str	r0, [sp, #68]	; 0x44
 184:	9110      	str	r1, [sp, #64]	; 0x40
 186:	e7ff      	b.n	188 <_ZN112_$LT$piet_embedded_graphics..batch..BlockIterator$LT$R$GT$$u20$as$u20$core..iter..traits..iterator..Iterator$GT$4next17h93e6ed52620104b6E+0x188>
 188:	9812      	ldr	r0, [sp, #72]	; 0x48
 18a:	9911      	ldr	r1, [sp, #68]	; 0x44
 18c:	9a10      	ldr	r2, [sp, #64]	; 0x40
 18e:	f7ff fffe 	bl	0 <_ZN8heapless3vec16Vec$LT$T$C$N$GT$17extend_from_slice17h13d4385adab264f0E>
 192:	900f      	str	r0, [sp, #60]	; 0x3c
 194:	e7ff      	b.n	196 <_ZN112_$LT$piet_embedded_graphics..batch..BlockIterator$LT$R$GT$$u20$as$u20$core..iter..traits..iterator..Iterator$GT$4next17h93e6ed52620104b6E+0x196>
 196:	980f      	ldr	r0, [sp, #60]	; 0x3c
 198:	f000 0001 	and.w	r0, r0, #1
 19c:	f240 0100 	movw	r1, #0
 1a0:	f2c0 0100 	movt	r1, #0
 1a4:	2205      	movs	r2, #5
 1a6:	f7ff fffe 	bl	0 <_ZN4core6result19Result$LT$T$C$E$GT$6expect17hf3746b868183a82aE>
 1aa:	e7ff      	b.n	1ac <_ZN112_$LT$piet_embedded_graphics..batch..BlockIterator$LT$R$GT$$u20$as$u20$core..iter..traits..iterator..Iterator$GT$4next17h93e6ed52620104b6E+0x1ac>
/Users/Luppy/PineTime/pinetime-rust-mynewt/rust/piet-embedded/piet-embedded-graphics/src/batch.rs:272
                        continue;
 1ac:	e7ff      	b.n	1ae <_ZN112_$LT$piet_embedded_graphics..batch..BlockIterator$LT$R$GT$$u20$as$u20$core..iter..traits..iterator..Iterator$GT$4next17h93e6ed52620104b6E+0x1ae>
 1ae:	f50d 60c5 	add.w	r0, sp, #1576	; 0x628
/Users/Luppy/PineTime/pinetime-rust-mynewt/rust/piet-embedded/piet-embedded-graphics/src/batch.rs:299
            }
 1b2:	f7ff fffe 	bl	0 <_ZN4core3ptr18real_drop_in_place17hae0f96c0e02821c9E>
 1b6:	e7ff      	b.n	1b8 <_ZN112_$LT$piet_embedded_graphics..batch..BlockIterator$LT$R$GT$$u20$as$u20$core..iter..traits..iterator..Iterator$GT$4next17h93e6ed52620104b6E+0x1b8>
/Users/Luppy/PineTime/pinetime-rust-mynewt/rust/piet-embedded/piet-embedded-graphics/src/batch.rs:300
        }
 1b8:	981f      	ldr	r0, [sp, #124]	; 0x7c
 1ba:	2801      	cmp	r0, #1
 1bc:	f000 80f6 	beq.w	3ac <_ZN112_$LT$piet_embedded_graphics..batch..BlockIterator$LT$R$GT$$u20$as$u20$core..iter..traits..iterator..Iterator$GT$4next17h93e6ed52620104b6E+0x3ac>
 1c0:	e0f8      	b.n	3b4 <_ZN112_$LT$piet_embedded_graphics..batch..BlockIterator$LT$R$GT$$u20$as$u20$core..iter..traits..iterator..Iterator$GT$4next17h93e6ed52620104b6E+0x3b4>
 1c2:	2001      	movs	r0, #1
/Users/Luppy/PineTime/pinetime-rust-mynewt/rust/piet-embedded/piet-embedded-graphics/src/batch.rs:275
                    if y == self.y_bottom + 1 && x_left == self.x_left && x_right == self.x_right {                        
 1c4:	f88d 06f5 	strb.w	r0, [sp, #1781]	; 0x6f5
 1c8:	e00b      	b.n	1e2 <_ZN112_$LT$piet_embedded_graphics..batch..BlockIterator$LT$R$GT$$u20$as$u20$core..iter..traits..iterator..Iterator$GT$4next17h93e6ed52620104b6E+0x1e2>
 1ca:	2000      	movs	r0, #0
 1cc:	f88d 06f5 	strb.w	r0, [sp, #1781]	; 0x6f5
 1d0:	e007      	b.n	1e2 <_ZN112_$LT$piet_embedded_graphics..batch..BlockIterator$LT$R$GT$$u20$as$u20$core..iter..traits..iterator..Iterator$GT$4next17h93e6ed52620104b6E+0x1e2>
 1d2:	f8bd 0624 	ldrh.w	r0, [sp, #1572]	; 0x624
 1d6:	991e      	ldr	r1, [sp, #120]	; 0x78
 1d8:	f8b1 1296 	ldrh.w	r1, [r1, #662]	; 0x296
 1dc:	4288      	cmp	r0, r1
 1de:	d0f0      	beq.n	1c2 <_ZN112_$LT$piet_embedded_graphics..batch..BlockIterator$LT$R$GT$$u20$as$u20$core..iter..traits..iterator..Iterator$GT$4next17h93e6ed52620104b6E+0x1c2>
 1e0:	e7f3      	b.n	1ca <_ZN112_$LT$piet_embedded_graphics..batch..BlockIterator$LT$R$GT$$u20$as$u20$core..iter..traits..iterator..Iterator$GT$4next17h93e6ed52620104b6E+0x1ca>
 1e2:	f89d 06f5 	ldrb.w	r0, [sp, #1781]	; 0x6f5
 1e6:	07c0      	lsls	r0, r0, #31
 1e8:	2800      	cmp	r0, #0
 1ea:	d11d      	bne.n	228 <_ZN112_$LT$piet_embedded_graphics..batch..BlockIterator$LT$R$GT$$u20$as$u20$core..iter..traits..iterator..Iterator$GT$4next17h93e6ed52620104b6E+0x228>
 1ec:	e042      	b.n	274 <_ZN112_$LT$piet_embedded_graphics..batch..BlockIterator$LT$R$GT$$u20$as$u20$core..iter..traits..iterator..Iterator$GT$4next17h93e6ed52620104b6E+0x274>
 1ee:	2001      	movs	r0, #1
 1f0:	f88d 06f6 	strb.w	r0, [sp, #1782]	; 0x6f6
 1f4:	e00b      	b.n	20e <_ZN112_$LT$piet_embedded_graphics..batch..BlockIterator$LT$R$GT$$u20$as$u20$core..iter..traits..iterator..Iterator$GT$4next17h93e6ed52620104b6E+0x20e>
 1f6:	2000      	movs	r0, #0
 1f8:	f88d 06f6 	strb.w	r0, [sp, #1782]	; 0x6f6
 1fc:	e007      	b.n	20e <_ZN112_$LT$piet_embedded_graphics..batch..BlockIterator$LT$R$GT$$u20$as$u20$core..iter..traits..iterator..Iterator$GT$4next17h93e6ed52620104b6E+0x20e>
 1fe:	f8bd 0622 	ldrh.w	r0, [sp, #1570]	; 0x622
 202:	991e      	ldr	r1, [sp, #120]	; 0x78
 204:	f8b1 1294 	ldrh.w	r1, [r1, #660]	; 0x294
 208:	4288      	cmp	r0, r1
 20a:	d0f0      	beq.n	1ee <_ZN112_$LT$piet_embedded_graphics..batch..BlockIterator$LT$R$GT$$u20$as$u20$core..iter..traits..iterator..Iterator$GT$4next17h93e6ed52620104b6E+0x1ee>
 20c:	e7f3      	b.n	1f6 <_ZN112_$LT$piet_embedded_graphics..batch..BlockIterator$LT$R$GT$$u20$as$u20$core..iter..traits..iterator..Iterator$GT$4next17h93e6ed52620104b6E+0x1f6>
 20e:	f89d 06f6 	ldrb.w	r0, [sp, #1782]	; 0x6f6
 212:	07c0      	lsls	r0, r0, #31
 214:	2800      	cmp	r0, #0
 216:	d1dc      	bne.n	1d2 <_ZN112_$LT$piet_embedded_graphics..batch..BlockIterator$LT$R$GT$$u20$as$u20$core..iter..traits..iterator..Iterator$GT$4next17h93e6ed52620104b6E+0x1d2>
 218:	e7d7      	b.n	1ca <_ZN112_$LT$piet_embedded_graphics..batch..BlockIterator$LT$R$GT$$u20$as$u20$core..iter..traits..iterator..Iterator$GT$4next17h93e6ed52620104b6E+0x1ca>
 21a:	9813      	ldr	r0, [sp, #76]	; 0x4c
 21c:	b281      	uxth	r1, r0
 21e:	9a14      	ldr	r2, [sp, #80]	; 0x50
 220:	b293      	uxth	r3, r2
 222:	428b      	cmp	r3, r1
 224:	d0eb      	beq.n	1fe <_ZN112_$LT$piet_embedded_graphics..batch..BlockIterator$LT$R$GT$$u20$as$u20$core..iter..traits..iterator..Iterator$GT$4next17h93e6ed52620104b6E+0x1fe>
 226:	e7e6      	b.n	1f6 <_ZN112_$LT$piet_embedded_graphics..batch..BlockIterator$LT$R$GT$$u20$as$u20$core..iter..traits..iterator..Iterator$GT$4next17h93e6ed52620104b6E+0x1f6>
/Users/Luppy/PineTime/pinetime-rust-mynewt/rust/piet-embedded/piet-embedded-graphics/src/batch.rs:277
                        if self.colors.extend_from_slice(&colors).is_ok() {
 228:	981e      	ldr	r0, [sp, #120]	; 0x78
 22a:	f500 7080 	add.w	r0, r0, #256	; 0x100
 22e:	f50d 61c5 	add.w	r1, sp, #1576	; 0x628
 232:	900e      	str	r0, [sp, #56]	; 0x38
 234:	4608      	mov	r0, r1
 236:	f7ff fffe 	bl	0 <_ZN75_$LT$heapless..vec..Vec$LT$T$C$N$GT$$u20$as$u20$core..ops..deref..Deref$GT$5deref17h26cfc6056df07241E>
 23a:	900d      	str	r0, [sp, #52]	; 0x34
 23c:	910c      	str	r1, [sp, #48]	; 0x30
 23e:	e7ff      	b.n	240 <_ZN112_$LT$piet_embedded_graphics..batch..BlockIterator$LT$R$GT$$u20$as$u20$core..iter..traits..iterator..Iterator$GT$4next17h93e6ed52620104b6E+0x240>
 240:	980e      	ldr	r0, [sp, #56]	; 0x38
 242:	990d      	ldr	r1, [sp, #52]	; 0x34
 244:	9a0c      	ldr	r2, [sp, #48]	; 0x30
 246:	f7ff fffe 	bl	0 <_ZN8heapless3vec16Vec$LT$T$C$N$GT$17extend_from_slice17h13d4385adab264f0E>
 24a:	f88d 06f7 	strb.w	r0, [sp, #1783]	; 0x6f7
 24e:	e7ff      	b.n	250 <_ZN112_$LT$piet_embedded_graphics..batch..BlockIterator$LT$R$GT$$u20$as$u20$core..iter..traits..iterator..Iterator$GT$4next17h93e6ed52620104b6E+0x250>
 250:	f20d 60f7 	addw	r0, sp, #1783	; 0x6f7
 254:	f7ff fffe 	bl	0 <_ZN4core6result19Result$LT$T$C$E$GT$5is_ok17h2169747e842d48b7E>
 258:	900b      	str	r0, [sp, #44]	; 0x2c
 25a:	e7ff      	b.n	25c <_ZN112_$LT$piet_embedded_graphics..batch..BlockIterator$LT$R$GT$$u20$as$u20$core..iter..traits..iterator..Iterator$GT$4next17h93e6ed52620104b6E+0x25c>
 25c:	980b      	ldr	r0, [sp, #44]	; 0x2c
 25e:	07c1      	lsls	r1, r0, #31
 260:	2900      	cmp	r1, #0
 262:	d101      	bne.n	268 <_ZN112_$LT$piet_embedded_graphics..batch..BlockIterator$LT$R$GT$$u20$as$u20$core..iter..traits..iterator..Iterator$GT$4next17h93e6ed52620104b6E+0x268>
 264:	e7ff      	b.n	266 <_ZN112_$LT$piet_embedded_graphics..batch..BlockIterator$LT$R$GT$$u20$as$u20$core..iter..traits..iterator..Iterator$GT$4next17h93e6ed52620104b6E+0x266>
/Users/Luppy/PineTime/pinetime-rust-mynewt/rust/piet-embedded/piet-embedded-graphics/src/batch.rs:275
                    if y == self.y_bottom + 1 && x_left == self.x_left && x_right == self.x_right {                        
 266:	e005      	b.n	274 <_ZN112_$LT$piet_embedded_graphics..batch..BlockIterator$LT$R$GT$$u20$as$u20$core..iter..traits..iterator..Iterator$GT$4next17h93e6ed52620104b6E+0x274>
/Users/Luppy/PineTime/pinetime-rust-mynewt/rust/piet-embedded/piet-embedded-graphics/src/batch.rs:278
                            self.y_bottom = y;
 268:	f8bd 0626 	ldrh.w	r0, [sp, #1574]	; 0x626
 26c:	991e      	ldr	r1, [sp, #120]	; 0x78
 26e:	f8a1 029a 	strh.w	r0, [r1, #666]	; 0x29a
/Users/Luppy/PineTime/pinetime-rust-mynewt/rust/piet-embedded/piet-embedded-graphics/src/batch.rs:279
                            continue;    
 272:	e79c      	b.n	1ae <_ZN112_$LT$piet_embedded_graphics..batch..BlockIterator$LT$R$GT$$u20$as$u20$core..iter..traits..iterator..Iterator$GT$4next17h93e6ed52620104b6E+0x1ae>
/Users/Luppy/PineTime/pinetime-rust-mynewt/rust/piet-embedded/piet-embedded-graphics/src/batch.rs:284
                        x_left: self.x_left,
 274:	981e      	ldr	r0, [sp, #120]	; 0x78
 276:	f8b0 1294 	ldrh.w	r1, [r0, #660]	; 0x294
/Users/Luppy/PineTime/pinetime-rust-mynewt/rust/piet-embedded/piet-embedded-graphics/src/batch.rs:285
                        x_right: self.x_right,
 27a:	f8b0 2296 	ldrh.w	r2, [r0, #662]	; 0x296
/Users/Luppy/PineTime/pinetime-rust-mynewt/rust/piet-embedded/piet-embedded-graphics/src/batch.rs:286
                        y_top: self.y_top,
 27e:	f8b0 3298 	ldrh.w	r3, [r0, #664]	; 0x298
/Users/Luppy/PineTime/pinetime-rust-mynewt/rust/piet-embedded/piet-embedded-graphics/src/batch.rs:287
                        y_bottom: self.y_bottom,
 282:	f8b0 c29a 	ldrh.w	ip, [r0, #666]	; 0x29a
/Users/Luppy/PineTime/pinetime-rust-mynewt/rust/piet-embedded/piet-embedded-graphics/src/batch.rs:288
                        colors: self.colors.clone(),
 286:	f500 7080 	add.w	r0, r0, #256	; 0x100
 28a:	f60d 0e94 	addw	lr, sp, #2196	; 0x894
 28e:	900a      	str	r0, [sp, #40]	; 0x28
 290:	4670      	mov	r0, lr
 292:	f8dd e028 	ldr.w	lr, [sp, #40]	; 0x28
 296:	9109      	str	r1, [sp, #36]	; 0x24
 298:	4671      	mov	r1, lr
 29a:	9208      	str	r2, [sp, #32]
 29c:	9307      	str	r3, [sp, #28]
 29e:	f8cd c018 	str.w	ip, [sp, #24]
 2a2:	f7ff fffe 	bl	0 <_ZN70_$LT$heapless..vec..Vec$LT$T$C$N$GT$$u20$as$u20$core..clone..Clone$GT$5clone17h06de5d43137c8e8cE>
 2a6:	e7ff      	b.n	2a8 <_ZN112_$LT$piet_embedded_graphics..batch..BlockIterator$LT$R$GT$$u20$as$u20$core..iter..traits..iterator..Iterator$GT$4next17h93e6ed52620104b6E+0x2a8>
/Users/Luppy/PineTime/pinetime-rust-mynewt/rust/piet-embedded/piet-embedded-graphics/src/batch.rs:283
                    let row = PixelBlock {
 2a8:	9809      	ldr	r0, [sp, #36]	; 0x24
 2aa:	f8ad 088c 	strh.w	r0, [sp, #2188]	; 0x88c
 2ae:	9908      	ldr	r1, [sp, #32]
 2b0:	f8ad 188e 	strh.w	r1, [sp, #2190]	; 0x88e
 2b4:	9a07      	ldr	r2, [sp, #28]
 2b6:	f8ad 2890 	strh.w	r2, [sp, #2192]	; 0x890
 2ba:	9b06      	ldr	r3, [sp, #24]
 2bc:	f8ad 3892 	strh.w	r3, [sp, #2194]	; 0x892
 2c0:	f50d 60df 	add.w	r0, sp, #1784	; 0x6f8
 2c4:	f60d 0194 	addw	r1, sp, #2196	; 0x894
 2c8:	f44f 72ca 	mov.w	r2, #404	; 0x194
 2cc:	f7ff fffe 	bl	0 <__aeabi_memcpy4>
/Users/Luppy/PineTime/pinetime-rust-mynewt/rust/piet-embedded/piet-embedded-graphics/src/batch.rs:290
                    self.x_left = x_left;
 2d0:	f8bd 0622 	ldrh.w	r0, [sp, #1570]	; 0x622
 2d4:	991e      	ldr	r1, [sp, #120]	; 0x78
 2d6:	f8a1 0294 	strh.w	r0, [r1, #660]	; 0x294
/Users/Luppy/PineTime/pinetime-rust-mynewt/rust/piet-embedded/piet-embedded-graphics/src/batch.rs:291
                    self.x_right = x_right;
 2da:	f8bd 0624 	ldrh.w	r0, [sp, #1572]	; 0x624
 2de:	991e      	ldr	r1, [sp, #120]	; 0x78
 2e0:	f8a1 0296 	strh.w	r0, [r1, #662]	; 0x296
/Users/Luppy/PineTime/pinetime-rust-mynewt/rust/piet-embedded/piet-embedded-graphics/src/batch.rs:292
                    self.y_top = y;
 2e4:	f8bd 0626 	ldrh.w	r0, [sp, #1574]	; 0x626
 2e8:	991e      	ldr	r1, [sp, #120]	; 0x78
 2ea:	f8a1 0298 	strh.w	r0, [r1, #664]	; 0x298
/Users/Luppy/PineTime/pinetime-rust-mynewt/rust/piet-embedded/piet-embedded-graphics/src/batch.rs:293
                    self.y_bottom = y;
 2ee:	f8bd 0626 	ldrh.w	r0, [sp, #1574]	; 0x626
 2f2:	991e      	ldr	r1, [sp, #120]	; 0x78
 2f4:	f8a1 029a 	strh.w	r0, [r1, #666]	; 0x29a
/Users/Luppy/PineTime/pinetime-rust-mynewt/rust/piet-embedded/piet-embedded-graphics/src/batch.rs:294
                    self.colors.clear();
 2f8:	981e      	ldr	r0, [sp, #120]	; 0x78
 2fa:	f500 7080 	add.w	r0, r0, #256	; 0x100
 2fe:	f7ff fffe 	bl	0 <_ZN8heapless3vec16Vec$LT$T$C$N$GT$5clear17hfd39c9763fef61d4E>
 302:	e7ff      	b.n	304 <_ZN112_$LT$piet_embedded_graphics..batch..BlockIterator$LT$R$GT$$u20$as$u20$core..iter..traits..iterator..Iterator$GT$4next17h93e6ed52620104b6E+0x304>
/Users/Luppy/PineTime/pinetime-rust-mynewt/rust/piet-embedded/piet-embedded-graphics/src/batch.rs:295
                    self.colors.extend_from_slice(&colors)
 304:	981e      	ldr	r0, [sp, #120]	; 0x78
 306:	f500 7080 	add.w	r0, r0, #256	; 0x100
 30a:	f50d 61c5 	add.w	r1, sp, #1576	; 0x628
 30e:	9005      	str	r0, [sp, #20]
 310:	4608      	mov	r0, r1
 312:	f7ff fffe 	bl	0 <_ZN75_$LT$heapless..vec..Vec$LT$T$C$N$GT$$u20$as$u20$core..ops..deref..Deref$GT$5deref17h26cfc6056df07241E>
 316:	9004      	str	r0, [sp, #16]
 318:	9103      	str	r1, [sp, #12]
 31a:	e7ff      	b.n	31c <_ZN112_$LT$piet_embedded_graphics..batch..BlockIterator$LT$R$GT$$u20$as$u20$core..iter..traits..iterator..Iterator$GT$4next17h93e6ed52620104b6E+0x31c>
 31c:	9805      	ldr	r0, [sp, #20]
 31e:	9904      	ldr	r1, [sp, #16]
 320:	9a03      	ldr	r2, [sp, #12]
 322:	f7ff fffe 	bl	0 <_ZN8heapless3vec16Vec$LT$T$C$N$GT$17extend_from_slice17h13d4385adab264f0E>
 326:	9002      	str	r0, [sp, #8]
 328:	e7ff      	b.n	32a <_ZN112_$LT$piet_embedded_graphics..batch..BlockIterator$LT$R$GT$$u20$as$u20$core..iter..traits..iterator..Iterator$GT$4next17h93e6ed52620104b6E+0x32a>
 32a:	9802      	ldr	r0, [sp, #8]
 32c:	f000 0001 	and.w	r0, r0, #1
 330:	f240 0100 	movw	r1, #0
 334:	f2c0 0100 	movt	r1, #0
 338:	2205      	movs	r2, #5
 33a:	f7ff fffe 	bl	0 <_ZN4core6result19Result$LT$T$C$E$GT$6expect17hf3746b868183a82aE>
 33e:	e7ff      	b.n	340 <_ZN112_$LT$piet_embedded_graphics..batch..BlockIterator$LT$R$GT$$u20$as$u20$core..iter..traits..iterator..Iterator$GT$4next17h93e6ed52620104b6E+0x340>
 340:	f60d 2028 	addw	r0, sp, #2600	; 0xa28
 344:	f50d 61df 	add.w	r1, sp, #1784	; 0x6f8
 348:	f44f 72ce 	mov.w	r2, #412	; 0x19c
/Users/Luppy/PineTime/pinetime-rust-mynewt/rust/piet-embedded/piet-embedded-graphics/src/batch.rs:297
                    return Some(row);
 34c:	9001      	str	r0, [sp, #4]
 34e:	9200      	str	r2, [sp, #0]
 350:	f7ff fffe 	bl	0 <__aeabi_memcpy4>
 354:	981d      	ldr	r0, [sp, #116]	; 0x74
 356:	3004      	adds	r0, #4
 358:	9901      	ldr	r1, [sp, #4]
 35a:	9a00      	ldr	r2, [sp, #0]
 35c:	f7ff fffe 	bl	0 <__aeabi_memcpy4>
 360:	2001      	movs	r0, #1
 362:	991d      	ldr	r1, [sp, #116]	; 0x74
 364:	6008      	str	r0, [r1, #0]
 366:	f50d 60c5 	add.w	r0, sp, #1576	; 0x628
/Users/Luppy/PineTime/pinetime-rust-mynewt/rust/piet-embedded/piet-embedded-graphics/src/batch.rs:299
            }
 36a:	f7ff fffe 	bl	0 <_ZN4core3ptr18real_drop_in_place17hae0f96c0e02821c9E>
 36e:	e7ff      	b.n	370 <_ZN112_$LT$piet_embedded_graphics..batch..BlockIterator$LT$R$GT$$u20$as$u20$core..iter..traits..iterator..Iterator$GT$4next17h93e6ed52620104b6E+0x370>
/Users/Luppy/PineTime/pinetime-rust-mynewt/rust/piet-embedded/piet-embedded-graphics/src/batch.rs:297
                    return Some(row);
 370:	e018      	b.n	3a4 <_ZN112_$LT$piet_embedded_graphics..batch..BlockIterator$LT$R$GT$$u20$as$u20$core..iter..traits..iterator..Iterator$GT$4next17h93e6ed52620104b6E+0x3a4>
 372:	2000      	movs	r0, #0
/Users/Luppy/PineTime/pinetime-rust-mynewt/rust/piet-embedded/piet-embedded-graphics/src/batch.rs:300
        }
 374:	f88d 0bc7 	strb.w	r0, [sp, #3015]	; 0xbc7
/Users/Luppy/PineTime/pinetime-rust-mynewt/rust/piet-embedded/piet-embedded-graphics/src/batch.rs:301
    }
 378:	f50d 6d3c 	add.w	sp, sp, #3008	; 0xbc0
 37c:	b002      	add	sp, #8
 37e:	bd80      	pop	{r7, pc}
/Users/Luppy/PineTime/pinetime-rust-mynewt/rust/piet-embedded/piet-embedded-graphics/src/batch.rs:300
        }
 380:	f89d 0bc7 	ldrb.w	r0, [sp, #3015]	; 0xbc7
 384:	07c0      	lsls	r0, r0, #31
 386:	2800      	cmp	r0, #0
 388:	d0f3      	beq.n	372 <_ZN112_$LT$piet_embedded_graphics..batch..BlockIterator$LT$R$GT$$u20$as$u20$core..iter..traits..iterator..Iterator$GT$4next17h93e6ed52620104b6E+0x372>
 38a:	e7ff      	b.n	38c <_ZN112_$LT$piet_embedded_graphics..batch..BlockIterator$LT$R$GT$$u20$as$u20$core..iter..traits..iterator..Iterator$GT$4next17h93e6ed52620104b6E+0x38c>
 38c:	2000      	movs	r0, #0
 38e:	f88d 0bc7 	strb.w	r0, [sp, #3015]	; 0xbc7
 392:	a81f      	add	r0, sp, #124	; 0x7c
 394:	3004      	adds	r0, #4
 396:	f7ff fffe 	bl	0 <_ZN4core3ptr18real_drop_in_place17hae0f96c0e02821c9E>
 39a:	e7ea      	b.n	372 <_ZN112_$LT$piet_embedded_graphics..batch..BlockIterator$LT$R$GT$$u20$as$u20$core..iter..traits..iterator..Iterator$GT$4next17h93e6ed52620104b6E+0x372>
 39c:	a81f      	add	r0, sp, #124	; 0x7c
 39e:	f7ff fffe 	bl	0 <_ZN4core3ptr18real_drop_in_place17h7aef2a3cc7c1160cE>
 3a2:	e7e6      	b.n	372 <_ZN112_$LT$piet_embedded_graphics..batch..BlockIterator$LT$R$GT$$u20$as$u20$core..iter..traits..iterator..Iterator$GT$4next17h93e6ed52620104b6E+0x372>
 3a4:	981f      	ldr	r0, [sp, #124]	; 0x7c
 3a6:	2801      	cmp	r0, #1
 3a8:	d0ea      	beq.n	380 <_ZN112_$LT$piet_embedded_graphics..batch..BlockIterator$LT$R$GT$$u20$as$u20$core..iter..traits..iterator..Iterator$GT$4next17h93e6ed52620104b6E+0x380>
 3aa:	e7f7      	b.n	39c <_ZN112_$LT$piet_embedded_graphics..batch..BlockIterator$LT$R$GT$$u20$as$u20$core..iter..traits..iterator..Iterator$GT$4next17h93e6ed52620104b6E+0x39c>
 3ac:	2000      	movs	r0, #0
 3ae:	f88d 0bc7 	strb.w	r0, [sp, #3015]	; 0xbc7
/Users/Luppy/PineTime/pinetime-rust-mynewt/rust/piet-embedded/piet-embedded-graphics/src/batch.rs:272
                        continue;
 3b2:	e62f      	b.n	14 <_ZN112_$LT$piet_embedded_graphics..batch..BlockIterator$LT$R$GT$$u20$as$u20$core..iter..traits..iterator..Iterator$GT$4next17h93e6ed52620104b6E+0x14>
 3b4:	a81f      	add	r0, sp, #124	; 0x7c
/Users/Luppy/PineTime/pinetime-rust-mynewt/rust/piet-embedded/piet-embedded-graphics/src/batch.rs:300
        }
 3b6:	f7ff fffe 	bl	0 <_ZN4core3ptr18real_drop_in_place17h7aef2a3cc7c1160cE>
 3ba:	e7f7      	b.n	fffffff2 <_ZN112_$LT$piet_embedded_graphics..batch..BlockIterator$LT$R$GT$$u20$as$u20$core..iter..traits..iterator..Iterator$GT$4next17h93e6ed52620104b6E+0xfffffff2>
/Users/Luppy/PineTime/pinetime-rust-mynewt/rust/piet-embedded/piet-embedded-graphics/src/batch.rs:275
                    if y == self.y_bottom + 1 && x_left == self.x_left && x_right == self.x_right {                        
 3bc:	f240 0000 	movw	r0, #0
 3c0:	f2c0 0000 	movt	r0, #0
 3c4:	f240 0200 	movw	r2, #0
 3c8:	f2c0 0200 	movt	r2, #0
 3cc:	211c      	movs	r1, #28
 3ce:	f7ff fffe 	bl	0 <_ZN4core9panicking5panic17hfdd0eecc44a682f8E>
 3d2:	defe      	udf	#254	; 0xfe

Disassembly of section .text._ZN112_$LT$piet_embedded_graphics..batch..BlockIterator$LT$R$GT$$u20$as$u20$core..iter..traits..iterator..Iterator$GT$4next17hc4afb6cd0d0add88E:

00000000 <_ZN112_$LT$piet_embedded_graphics..batch..BlockIterator$LT$R$GT$$u20$as$u20$core..iter..traits..iterator..Iterator$GT$4next17hc4afb6cd0d0add88E>:
_ZN112_$LT$piet_embedded_graphics..batch..BlockIterator$LT$R$GT$$u20$as$u20$core..iter..traits..iterator..Iterator$GT$4next17hc4afb6cd0d0add88E():
/Users/Luppy/PineTime/pinetime-rust-mynewt/rust/piet-embedded/piet-embedded-graphics/src/batch.rs:239
    fn next(&mut self) -> Option<Self::Item> {
   0:	b580      	push	{r7, lr}
   2:	f5ad 6d3c 	sub.w	sp, sp, #3008	; 0xbc0
   6:	b082      	sub	sp, #8
   8:	911e      	str	r1, [sp, #120]	; 0x78
   a:	2100      	movs	r1, #0
/Users/Luppy/PineTime/pinetime-rust-mynewt/rust/piet-embedded/piet-embedded-graphics/src/batch.rs:241
        loop {
   c:	f88d 1bc7 	strb.w	r1, [sp, #3015]	; 0xbc7
  10:	901d      	str	r0, [sp, #116]	; 0x74
  12:	e7ff      	b.n	14 <_ZN112_$LT$piet_embedded_graphics..batch..BlockIterator$LT$R$GT$$u20$as$u20$core..iter..traits..iterator..Iterator$GT$4next17hc4afb6cd0d0add88E+0x14>
/Users/Luppy/PineTime/pinetime-rust-mynewt/rust/piet-embedded/piet-embedded-graphics/src/batch.rs:243
            let next_row = self.rows.next();
  14:	991e      	ldr	r1, [sp, #120]	; 0x78
  16:	2001      	movs	r0, #1
  18:	f88d 0bc7 	strb.w	r0, [sp, #3015]	; 0xbc7
  1c:	a81f      	add	r0, sp, #124	; 0x7c
  1e:	f7ff fffe 	bl	0 <_ZN112_$LT$piet_embedded_graphics..batch..BlockIterator$LT$R$GT$$u20$as$u20$core..iter..traits..iterator..Iterator$GT$4next17hc4afb6cd0d0add88E>
  22:	e7ff      	b.n	24 <_ZN112_$LT$piet_embedded_graphics..batch..BlockIterator$LT$R$GT$$u20$as$u20$core..iter..traits..iterator..Iterator$GT$4next17hc4afb6cd0d0add88E+0x24>
/Users/Luppy/PineTime/pinetime-rust-mynewt/rust/piet-embedded/piet-embedded-graphics/src/batch.rs:245
                None => {  //  If no more Pixel Rows...
  24:	981f      	ldr	r0, [sp, #124]	; 0x7c
  26:	2800      	cmp	r0, #0
  28:	d002      	beq.n	30 <_ZN112_$LT$piet_embedded_graphics..batch..BlockIterator$LT$R$GT$$u20$as$u20$core..iter..traits..iterator..Iterator$GT$4next17hc4afb6cd0d0add88E+0x30>
  2a:	e7ff      	b.n	2c <_ZN112_$LT$piet_embedded_graphics..batch..BlockIterator$LT$R$GT$$u20$as$u20$core..iter..traits..iterator..Iterator$GT$4next17hc4afb6cd0d0add88E+0x2c>
  2c:	e055      	b.n	da <_ZN112_$LT$piet_embedded_graphics..batch..BlockIterator$LT$R$GT$$u20$as$u20$core..iter..traits..iterator..Iterator$GT$4next17hc4afb6cd0d0add88E+0xda>
/Users/Luppy/PineTime/pinetime-rust-mynewt/rust/piet-embedded/piet-embedded-graphics/src/batch.rs:244
            match next_row {
  2e:	defe      	udf	#254	; 0xfe
/Users/Luppy/PineTime/pinetime-rust-mynewt/rust/piet-embedded/piet-embedded-graphics/src/batch.rs:246
                    if self.first_row {
  30:	981e      	ldr	r0, [sp, #120]	; 0x78
  32:	f890 0290 	ldrb.w	r0, [r0, #656]	; 0x290
  36:	07c0      	lsls	r0, r0, #31
  38:	2800      	cmp	r0, #0
  3a:	d119      	bne.n	70 <_ZN112_$LT$piet_embedded_graphics..batch..BlockIterator$LT$R$GT$$u20$as$u20$core..iter..traits..iterator..Iterator$GT$4next17hc4afb6cd0d0add88E+0x70>
  3c:	e7ff      	b.n	3e <_ZN112_$LT$piet_embedded_graphics..batch..BlockIterator$LT$R$GT$$u20$as$u20$core..iter..traits..iterator..Iterator$GT$4next17hc4afb6cd0d0add88E+0x3e>
/Users/Luppy/PineTime/pinetime-rust-mynewt/rust/piet-embedded/piet-embedded-graphics/src/batch.rs:251
                        x_left: self.x_left,
  3e:	981e      	ldr	r0, [sp, #120]	; 0x78
  40:	f8b0 1288 	ldrh.w	r1, [r0, #648]	; 0x288
/Users/Luppy/PineTime/pinetime-rust-mynewt/rust/piet-embedded/piet-embedded-graphics/src/batch.rs:252
                        x_right: self.x_right,
  44:	f8b0 228a 	ldrh.w	r2, [r0, #650]	; 0x28a
/Users/Luppy/PineTime/pinetime-rust-mynewt/rust/piet-embedded/piet-embedded-graphics/src/batch.rs:253
                        y_top: self.y_top,
  48:	f8b0 328c 	ldrh.w	r3, [r0, #652]	; 0x28c
/Users/Luppy/PineTime/pinetime-rust-mynewt/rust/piet-embedded/piet-embedded-graphics/src/batch.rs:254
                        y_bottom: self.y_bottom,
  4c:	f8b0 c28e 	ldrh.w	ip, [r0, #654]	; 0x28e
/Users/Luppy/PineTime/pinetime-rust-mynewt/rust/piet-embedded/piet-embedded-graphics/src/batch.rs:255
                        colors: self.colors.clone(),
  50:	30f4      	adds	r0, #244	; 0xf4
  52:	f50d 7e3c 	add.w	lr, sp, #752	; 0x2f0
  56:	901c      	str	r0, [sp, #112]	; 0x70
  58:	4670      	mov	r0, lr
  5a:	f8dd e070 	ldr.w	lr, [sp, #112]	; 0x70
  5e:	911b      	str	r1, [sp, #108]	; 0x6c
  60:	4671      	mov	r1, lr
  62:	921a      	str	r2, [sp, #104]	; 0x68
  64:	9319      	str	r3, [sp, #100]	; 0x64
  66:	f8cd c060 	str.w	ip, [sp, #96]	; 0x60
  6a:	f7ff fffe 	bl	0 <_ZN70_$LT$heapless..vec..Vec$LT$T$C$N$GT$$u20$as$u20$core..clone..Clone$GT$5clone17h06de5d43137c8e8cE>
  6e:	e003      	b.n	78 <_ZN112_$LT$piet_embedded_graphics..batch..BlockIterator$LT$R$GT$$u20$as$u20$core..iter..traits..iterator..Iterator$GT$4next17hc4afb6cd0d0add88E+0x78>
  70:	2000      	movs	r0, #0
/Users/Luppy/PineTime/pinetime-rust-mynewt/rust/piet-embedded/piet-embedded-graphics/src/batch.rs:247
                        return None;  //  No rows to group
  72:	991d      	ldr	r1, [sp, #116]	; 0x74
  74:	6008      	str	r0, [r1, #0]
  76:	e18d      	b.n	394 <_ZN112_$LT$piet_embedded_graphics..batch..BlockIterator$LT$R$GT$$u20$as$u20$core..iter..traits..iterator..Iterator$GT$4next17hc4afb6cd0d0add88E+0x394>
/Users/Luppy/PineTime/pinetime-rust-mynewt/rust/piet-embedded/piet-embedded-graphics/src/batch.rs:250
                    let row = PixelBlock {
  78:	981b      	ldr	r0, [sp, #108]	; 0x6c
  7a:	f8ad 02e8 	strh.w	r0, [sp, #744]	; 0x2e8
  7e:	991a      	ldr	r1, [sp, #104]	; 0x68
  80:	f8ad 12ea 	strh.w	r1, [sp, #746]	; 0x2ea
  84:	9a19      	ldr	r2, [sp, #100]	; 0x64
  86:	f8ad 22ec 	strh.w	r2, [sp, #748]	; 0x2ec
  8a:	9b18      	ldr	r3, [sp, #96]	; 0x60
  8c:	f8ad 32ee 	strh.w	r3, [sp, #750]	; 0x2ee
  90:	a855      	add	r0, sp, #340	; 0x154
  92:	a9bc      	add	r1, sp, #752	; 0x2f0
  94:	f44f 72ca 	mov.w	r2, #404	; 0x194
  98:	f7ff fffe 	bl	0 <__aeabi_memcpy4>
/Users/Luppy/PineTime/pinetime-rust-mynewt/rust/piet-embedded/piet-embedded-graphics/src/batch.rs:257
                    self.colors.clear();
  9c:	981e      	ldr	r0, [sp, #120]	; 0x78
  9e:	30f4      	adds	r0, #244	; 0xf4
  a0:	f7ff fffe 	bl	0 <_ZN8heapless3vec16Vec$LT$T$C$N$GT$5clear17hfd39c9763fef61d4E>
  a4:	e7ff      	b.n	a6 <_ZN112_$LT$piet_embedded_graphics..batch..BlockIterator$LT$R$GT$$u20$as$u20$core..iter..traits..iterator..Iterator$GT$4next17hc4afb6cd0d0add88E+0xa6>
/Users/Luppy/PineTime/pinetime-rust-mynewt/rust/piet-embedded/piet-embedded-graphics/src/batch.rs:258
                    self.first_row = true;
  a6:	981e      	ldr	r0, [sp, #120]	; 0x78
  a8:	2101      	movs	r1, #1
  aa:	f880 1290 	strb.w	r1, [r0, #656]	; 0x290
  ae:	f20d 4084 	addw	r0, sp, #1156	; 0x484
  b2:	aa55      	add	r2, sp, #340	; 0x154
  b4:	f44f 73ce 	mov.w	r3, #412	; 0x19c
/Users/Luppy/PineTime/pinetime-rust-mynewt/rust/piet-embedded/piet-embedded-graphics/src/batch.rs:259
                    return Some(row);
  b8:	9017      	str	r0, [sp, #92]	; 0x5c
  ba:	9116      	str	r1, [sp, #88]	; 0x58
  bc:	4611      	mov	r1, r2
  be:	461a      	mov	r2, r3
  c0:	9315      	str	r3, [sp, #84]	; 0x54
  c2:	f7ff fffe 	bl	0 <__aeabi_memcpy4>
  c6:	981d      	ldr	r0, [sp, #116]	; 0x74
  c8:	3004      	adds	r0, #4
  ca:	9917      	ldr	r1, [sp, #92]	; 0x5c
  cc:	9a15      	ldr	r2, [sp, #84]	; 0x54
  ce:	f7ff fffe 	bl	0 <__aeabi_memcpy4>
  d2:	9816      	ldr	r0, [sp, #88]	; 0x58
  d4:	991d      	ldr	r1, [sp, #116]	; 0x74
  d6:	6008      	str	r0, [r1, #0]
  d8:	e15c      	b.n	394 <_ZN112_$LT$piet_embedded_graphics..batch..BlockIterator$LT$R$GT$$u20$as$u20$core..iter..traits..iterator..Iterator$GT$4next17hc4afb6cd0d0add88E+0x394>
  da:	a81f      	add	r0, sp, #124	; 0x7c
/Users/Luppy/PineTime/pinetime-rust-mynewt/rust/piet-embedded/piet-embedded-graphics/src/batch.rs:261
                Some(PixelRow { x_left, x_right, y, colors, .. }) => {  //  If there is a Pixel Row...
  dc:	1d01      	adds	r1, r0, #4
  de:	f8bd 014c 	ldrh.w	r0, [sp, #332]	; 0x14c
  e2:	f8ad 0622 	strh.w	r0, [sp, #1570]	; 0x622
  e6:	f8bd 014e 	ldrh.w	r0, [sp, #334]	; 0x14e
  ea:	f8ad 0624 	strh.w	r0, [sp, #1572]	; 0x624
  ee:	f8bd 0150 	ldrh.w	r0, [sp, #336]	; 0x150
  f2:	f8ad 0626 	strh.w	r0, [sp, #1574]	; 0x626
  f6:	2000      	movs	r0, #0
  f8:	f88d 0bc7 	strb.w	r0, [sp, #3015]	; 0xbc7
  fc:	f50d 60c5 	add.w	r0, sp, #1576	; 0x628
 100:	22cc      	movs	r2, #204	; 0xcc
 102:	f7ff fffe 	bl	0 <__aeabi_memcpy4>
/Users/Luppy/PineTime/pinetime-rust-mynewt/rust/piet-embedded/piet-embedded-graphics/src/batch.rs:263
                    if self.first_row {
 106:	981e      	ldr	r0, [sp, #120]	; 0x78
 108:	f890 0290 	ldrb.w	r0, [r0, #656]	; 0x290
 10c:	07c0      	lsls	r0, r0, #31
 10e:	2800      	cmp	r0, #0
 110:	d10e      	bne.n	130 <_ZN112_$LT$piet_embedded_graphics..batch..BlockIterator$LT$R$GT$$u20$as$u20$core..iter..traits..iterator..Iterator$GT$4next17hc4afb6cd0d0add88E+0x130>
 112:	e7ff      	b.n	114 <_ZN112_$LT$piet_embedded_graphics..batch..BlockIterator$LT$R$GT$$u20$as$u20$core..iter..traits..iterator..Iterator$GT$4next17hc4afb6cd0d0add88E+0x114>
/Users/Luppy/PineTime/pinetime-rust-mynewt/rust/piet-embedded/piet-embedded-graphics/src/batch.rs:275
                    if y == self.y_bottom + 1 && x_left == self.x_left && x_right == self.x_right {                        
 114:	f8bd 0626 	ldrh.w	r0, [sp, #1574]	; 0x626
 118:	991e      	ldr	r1, [sp, #120]	; 0x78
 11a:	f8b1 128e 	ldrh.w	r1, [r1, #654]	; 0x28e
 11e:	3101      	adds	r1, #1
 120:	b28a      	uxth	r2, r1
 122:	460b      	mov	r3, r1
 124:	428a      	cmp	r2, r1
 126:	9014      	str	r0, [sp, #80]	; 0x50
 128:	9313      	str	r3, [sp, #76]	; 0x4c
 12a:	f040 813f 	bne.w	3ac <_ZN112_$LT$piet_embedded_graphics..batch..BlockIterator$LT$R$GT$$u20$as$u20$core..iter..traits..iterator..Iterator$GT$4next17hc4afb6cd0d0add88E+0x3ac>
 12e:	e070      	b.n	212 <_ZN112_$LT$piet_embedded_graphics..batch..BlockIterator$LT$R$GT$$u20$as$u20$core..iter..traits..iterator..Iterator$GT$4next17hc4afb6cd0d0add88E+0x212>
/Users/Luppy/PineTime/pinetime-rust-mynewt/rust/piet-embedded/piet-embedded-graphics/src/batch.rs:264
                        self.first_row = false;
 130:	981e      	ldr	r0, [sp, #120]	; 0x78
 132:	2100      	movs	r1, #0
 134:	f880 1290 	strb.w	r1, [r0, #656]	; 0x290
/Users/Luppy/PineTime/pinetime-rust-mynewt/rust/piet-embedded/piet-embedded-graphics/src/batch.rs:265
                        self.x_left = x_left;
 138:	f8bd 0622 	ldrh.w	r0, [sp, #1570]	; 0x622
 13c:	991e      	ldr	r1, [sp, #120]	; 0x78
 13e:	f8a1 0288 	strh.w	r0, [r1, #648]	; 0x288
/Users/Luppy/PineTime/pinetime-rust-mynewt/rust/piet-embedded/piet-embedded-graphics/src/batch.rs:266
                        self.x_right = x_right;
 142:	f8bd 0624 	ldrh.w	r0, [sp, #1572]	; 0x624
 146:	991e      	ldr	r1, [sp, #120]	; 0x78
 148:	f8a1 028a 	strh.w	r0, [r1, #650]	; 0x28a
/Users/Luppy/PineTime/pinetime-rust-mynewt/rust/piet-embedded/piet-embedded-graphics/src/batch.rs:267
                        self.y_top = y;
 14c:	f8bd 0626 	ldrh.w	r0, [sp, #1574]	; 0x626
 150:	991e      	ldr	r1, [sp, #120]	; 0x78
 152:	f8a1 028c 	strh.w	r0, [r1, #652]	; 0x28c
/Users/Luppy/PineTime/pinetime-rust-mynewt/rust/piet-embedded/piet-embedded-graphics/src/batch.rs:268
                        self.y_bottom = y;
 156:	f8bd 0626 	ldrh.w	r0, [sp, #1574]	; 0x626
 15a:	991e      	ldr	r1, [sp, #120]	; 0x78
 15c:	f8a1 028e 	strh.w	r0, [r1, #654]	; 0x28e
/Users/Luppy/PineTime/pinetime-rust-mynewt/rust/piet-embedded/piet-embedded-graphics/src/batch.rs:269
                        self.colors.clear();
 160:	981e      	ldr	r0, [sp, #120]	; 0x78
 162:	30f4      	adds	r0, #244	; 0xf4
 164:	f7ff fffe 	bl	0 <_ZN8heapless3vec16Vec$LT$T$C$N$GT$5clear17hfd39c9763fef61d4E>
 168:	e7ff      	b.n	16a <_ZN112_$LT$piet_embedded_graphics..batch..BlockIterator$LT$R$GT$$u20$as$u20$core..iter..traits..iterator..Iterator$GT$4next17hc4afb6cd0d0add88E+0x16a>
/Users/Luppy/PineTime/pinetime-rust-mynewt/rust/piet-embedded/piet-embedded-graphics/src/batch.rs:270
                        self.colors.extend_from_slice(&colors)
 16a:	981e      	ldr	r0, [sp, #120]	; 0x78
 16c:	30f4      	adds	r0, #244	; 0xf4
 16e:	f50d 61c5 	add.w	r1, sp, #1576	; 0x628
 172:	9012      	str	r0, [sp, #72]	; 0x48
 174:	4608      	mov	r0, r1
 176:	f7ff fffe 	bl	0 <_ZN75_$LT$heapless..vec..Vec$LT$T$C$N$GT$$u20$as$u20$core..ops..deref..Deref$GT$5deref17h26cfc6056df07241E>
 17a:	9011      	str	r0, [sp, #68]	; 0x44
 17c:	9110      	str	r1, [sp, #64]	; 0x40
 17e:	e7ff      	b.n	180 <_ZN112_$LT$piet_embedded_graphics..batch..BlockIterator$LT$R$GT$$u20$as$u20$core..iter..traits..iterator..Iterator$GT$4next17hc4afb6cd0d0add88E+0x180>
 180:	9812      	ldr	r0, [sp, #72]	; 0x48
 182:	9911      	ldr	r1, [sp, #68]	; 0x44
 184:	9a10      	ldr	r2, [sp, #64]	; 0x40
 186:	f7ff fffe 	bl	0 <_ZN8heapless3vec16Vec$LT$T$C$N$GT$17extend_from_slice17h13d4385adab264f0E>
 18a:	900f      	str	r0, [sp, #60]	; 0x3c
 18c:	e7ff      	b.n	18e <_ZN112_$LT$piet_embedded_graphics..batch..BlockIterator$LT$R$GT$$u20$as$u20$core..iter..traits..iterator..Iterator$GT$4next17hc4afb6cd0d0add88E+0x18e>
 18e:	980f      	ldr	r0, [sp, #60]	; 0x3c
 190:	f000 0001 	and.w	r0, r0, #1
 194:	f240 0100 	movw	r1, #0
 198:	f2c0 0100 	movt	r1, #0
 19c:	2205      	movs	r2, #5
 19e:	f7ff fffe 	bl	0 <_ZN4core6result19Result$LT$T$C$E$GT$6expect17hf3746b868183a82aE>
 1a2:	e7ff      	b.n	1a4 <_ZN112_$LT$piet_embedded_graphics..batch..BlockIterator$LT$R$GT$$u20$as$u20$core..iter..traits..iterator..Iterator$GT$4next17hc4afb6cd0d0add88E+0x1a4>
/Users/Luppy/PineTime/pinetime-rust-mynewt/rust/piet-embedded/piet-embedded-graphics/src/batch.rs:272
                        continue;
 1a4:	e7ff      	b.n	1a6 <_ZN112_$LT$piet_embedded_graphics..batch..BlockIterator$LT$R$GT$$u20$as$u20$core..iter..traits..iterator..Iterator$GT$4next17hc4afb6cd0d0add88E+0x1a6>
 1a6:	f50d 60c5 	add.w	r0, sp, #1576	; 0x628
/Users/Luppy/PineTime/pinetime-rust-mynewt/rust/piet-embedded/piet-embedded-graphics/src/batch.rs:299
            }
 1aa:	f7ff fffe 	bl	0 <_ZN4core3ptr18real_drop_in_place17hae0f96c0e02821c9E>
 1ae:	e7ff      	b.n	1b0 <_ZN112_$LT$piet_embedded_graphics..batch..BlockIterator$LT$R$GT$$u20$as$u20$core..iter..traits..iterator..Iterator$GT$4next17hc4afb6cd0d0add88E+0x1b0>
/Users/Luppy/PineTime/pinetime-rust-mynewt/rust/piet-embedded/piet-embedded-graphics/src/batch.rs:300
        }
 1b0:	981f      	ldr	r0, [sp, #124]	; 0x7c
 1b2:	2801      	cmp	r0, #1
 1b4:	f000 80f2 	beq.w	39c <_ZN112_$LT$piet_embedded_graphics..batch..BlockIterator$LT$R$GT$$u20$as$u20$core..iter..traits..iterator..Iterator$GT$4next17hc4afb6cd0d0add88E+0x39c>
 1b8:	e0f4      	b.n	3a4 <_ZN112_$LT$piet_embedded_graphics..batch..BlockIterator$LT$R$GT$$u20$as$u20$core..iter..traits..iterator..Iterator$GT$4next17hc4afb6cd0d0add88E+0x3a4>
 1ba:	2001      	movs	r0, #1
/Users/Luppy/PineTime/pinetime-rust-mynewt/rust/piet-embedded/piet-embedded-graphics/src/batch.rs:275
                    if y == self.y_bottom + 1 && x_left == self.x_left && x_right == self.x_right {                        
 1bc:	f88d 06f5 	strb.w	r0, [sp, #1781]	; 0x6f5
 1c0:	e00b      	b.n	1da <_ZN112_$LT$piet_embedded_graphics..batch..BlockIterator$LT$R$GT$$u20$as$u20$core..iter..traits..iterator..Iterator$GT$4next17hc4afb6cd0d0add88E+0x1da>
 1c2:	2000      	movs	r0, #0
 1c4:	f88d 06f5 	strb.w	r0, [sp, #1781]	; 0x6f5
 1c8:	e007      	b.n	1da <_ZN112_$LT$piet_embedded_graphics..batch..BlockIterator$LT$R$GT$$u20$as$u20$core..iter..traits..iterator..Iterator$GT$4next17hc4afb6cd0d0add88E+0x1da>
 1ca:	f8bd 0624 	ldrh.w	r0, [sp, #1572]	; 0x624
 1ce:	991e      	ldr	r1, [sp, #120]	; 0x78
 1d0:	f8b1 128a 	ldrh.w	r1, [r1, #650]	; 0x28a
 1d4:	4288      	cmp	r0, r1
 1d6:	d0f0      	beq.n	1ba <_ZN112_$LT$piet_embedded_graphics..batch..BlockIterator$LT$R$GT$$u20$as$u20$core..iter..traits..iterator..Iterator$GT$4next17hc4afb6cd0d0add88E+0x1ba>
 1d8:	e7f3      	b.n	1c2 <_ZN112_$LT$piet_embedded_graphics..batch..BlockIterator$LT$R$GT$$u20$as$u20$core..iter..traits..iterator..Iterator$GT$4next17hc4afb6cd0d0add88E+0x1c2>
 1da:	f89d 06f5 	ldrb.w	r0, [sp, #1781]	; 0x6f5
 1de:	07c0      	lsls	r0, r0, #31
 1e0:	2800      	cmp	r0, #0
 1e2:	d11d      	bne.n	220 <_ZN112_$LT$piet_embedded_graphics..batch..BlockIterator$LT$R$GT$$u20$as$u20$core..iter..traits..iterator..Iterator$GT$4next17hc4afb6cd0d0add88E+0x220>
 1e4:	e041      	b.n	26a <_ZN112_$LT$piet_embedded_graphics..batch..BlockIterator$LT$R$GT$$u20$as$u20$core..iter..traits..iterator..Iterator$GT$4next17hc4afb6cd0d0add88E+0x26a>
 1e6:	2001      	movs	r0, #1
 1e8:	f88d 06f6 	strb.w	r0, [sp, #1782]	; 0x6f6
 1ec:	e00b      	b.n	206 <_ZN112_$LT$piet_embedded_graphics..batch..BlockIterator$LT$R$GT$$u20$as$u20$core..iter..traits..iterator..Iterator$GT$4next17hc4afb6cd0d0add88E+0x206>
 1ee:	2000      	movs	r0, #0
 1f0:	f88d 06f6 	strb.w	r0, [sp, #1782]	; 0x6f6
 1f4:	e007      	b.n	206 <_ZN112_$LT$piet_embedded_graphics..batch..BlockIterator$LT$R$GT$$u20$as$u20$core..iter..traits..iterator..Iterator$GT$4next17hc4afb6cd0d0add88E+0x206>
 1f6:	f8bd 0622 	ldrh.w	r0, [sp, #1570]	; 0x622
 1fa:	991e      	ldr	r1, [sp, #120]	; 0x78
 1fc:	f8b1 1288 	ldrh.w	r1, [r1, #648]	; 0x288
 200:	4288      	cmp	r0, r1
 202:	d0f0      	beq.n	1e6 <_ZN112_$LT$piet_embedded_graphics..batch..BlockIterator$LT$R$GT$$u20$as$u20$core..iter..traits..iterator..Iterator$GT$4next17hc4afb6cd0d0add88E+0x1e6>
 204:	e7f3      	b.n	1ee <_ZN112_$LT$piet_embedded_graphics..batch..BlockIterator$LT$R$GT$$u20$as$u20$core..iter..traits..iterator..Iterator$GT$4next17hc4afb6cd0d0add88E+0x1ee>
 206:	f89d 06f6 	ldrb.w	r0, [sp, #1782]	; 0x6f6
 20a:	07c0      	lsls	r0, r0, #31
 20c:	2800      	cmp	r0, #0
 20e:	d1dc      	bne.n	1ca <_ZN112_$LT$piet_embedded_graphics..batch..BlockIterator$LT$R$GT$$u20$as$u20$core..iter..traits..iterator..Iterator$GT$4next17hc4afb6cd0d0add88E+0x1ca>
 210:	e7d7      	b.n	1c2 <_ZN112_$LT$piet_embedded_graphics..batch..BlockIterator$LT$R$GT$$u20$as$u20$core..iter..traits..iterator..Iterator$GT$4next17hc4afb6cd0d0add88E+0x1c2>
 212:	9813      	ldr	r0, [sp, #76]	; 0x4c
 214:	b281      	uxth	r1, r0
 216:	9a14      	ldr	r2, [sp, #80]	; 0x50
 218:	b293      	uxth	r3, r2
 21a:	428b      	cmp	r3, r1
 21c:	d0eb      	beq.n	1f6 <_ZN112_$LT$piet_embedded_graphics..batch..BlockIterator$LT$R$GT$$u20$as$u20$core..iter..traits..iterator..Iterator$GT$4next17hc4afb6cd0d0add88E+0x1f6>
 21e:	e7e6      	b.n	1ee <_ZN112_$LT$piet_embedded_graphics..batch..BlockIterator$LT$R$GT$$u20$as$u20$core..iter..traits..iterator..Iterator$GT$4next17hc4afb6cd0d0add88E+0x1ee>
/Users/Luppy/PineTime/pinetime-rust-mynewt/rust/piet-embedded/piet-embedded-graphics/src/batch.rs:277
                        if self.colors.extend_from_slice(&colors).is_ok() {
 220:	981e      	ldr	r0, [sp, #120]	; 0x78
 222:	30f4      	adds	r0, #244	; 0xf4
 224:	f50d 61c5 	add.w	r1, sp, #1576	; 0x628
 228:	900e      	str	r0, [sp, #56]	; 0x38
 22a:	4608      	mov	r0, r1
 22c:	f7ff fffe 	bl	0 <_ZN75_$LT$heapless..vec..Vec$LT$T$C$N$GT$$u20$as$u20$core..ops..deref..Deref$GT$5deref17h26cfc6056df07241E>
 230:	900d      	str	r0, [sp, #52]	; 0x34
 232:	910c      	str	r1, [sp, #48]	; 0x30
 234:	e7ff      	b.n	236 <_ZN112_$LT$piet_embedded_graphics..batch..BlockIterator$LT$R$GT$$u20$as$u20$core..iter..traits..iterator..Iterator$GT$4next17hc4afb6cd0d0add88E+0x236>
 236:	980e      	ldr	r0, [sp, #56]	; 0x38
 238:	990d      	ldr	r1, [sp, #52]	; 0x34
 23a:	9a0c      	ldr	r2, [sp, #48]	; 0x30
 23c:	f7ff fffe 	bl	0 <_ZN8heapless3vec16Vec$LT$T$C$N$GT$17extend_from_slice17h13d4385adab264f0E>
 240:	f88d 06f7 	strb.w	r0, [sp, #1783]	; 0x6f7
 244:	e7ff      	b.n	246 <_ZN112_$LT$piet_embedded_graphics..batch..BlockIterator$LT$R$GT$$u20$as$u20$core..iter..traits..iterator..Iterator$GT$4next17hc4afb6cd0d0add88E+0x246>
 246:	f20d 60f7 	addw	r0, sp, #1783	; 0x6f7
 24a:	f7ff fffe 	bl	0 <_ZN4core6result19Result$LT$T$C$E$GT$5is_ok17h2169747e842d48b7E>
 24e:	900b      	str	r0, [sp, #44]	; 0x2c
 250:	e7ff      	b.n	252 <_ZN112_$LT$piet_embedded_graphics..batch..BlockIterator$LT$R$GT$$u20$as$u20$core..iter..traits..iterator..Iterator$GT$4next17hc4afb6cd0d0add88E+0x252>
 252:	980b      	ldr	r0, [sp, #44]	; 0x2c
 254:	07c1      	lsls	r1, r0, #31
 256:	2900      	cmp	r1, #0
 258:	d101      	bne.n	25e <_ZN112_$LT$piet_embedded_graphics..batch..BlockIterator$LT$R$GT$$u20$as$u20$core..iter..traits..iterator..Iterator$GT$4next17hc4afb6cd0d0add88E+0x25e>
 25a:	e7ff      	b.n	25c <_ZN112_$LT$piet_embedded_graphics..batch..BlockIterator$LT$R$GT$$u20$as$u20$core..iter..traits..iterator..Iterator$GT$4next17hc4afb6cd0d0add88E+0x25c>
/Users/Luppy/PineTime/pinetime-rust-mynewt/rust/piet-embedded/piet-embedded-graphics/src/batch.rs:275
                    if y == self.y_bottom + 1 && x_left == self.x_left && x_right == self.x_right {                        
 25c:	e005      	b.n	26a <_ZN112_$LT$piet_embedded_graphics..batch..BlockIterator$LT$R$GT$$u20$as$u20$core..iter..traits..iterator..Iterator$GT$4next17hc4afb6cd0d0add88E+0x26a>
/Users/Luppy/PineTime/pinetime-rust-mynewt/rust/piet-embedded/piet-embedded-graphics/src/batch.rs:278
                            self.y_bottom = y;
 25e:	f8bd 0626 	ldrh.w	r0, [sp, #1574]	; 0x626
 262:	991e      	ldr	r1, [sp, #120]	; 0x78
 264:	f8a1 028e 	strh.w	r0, [r1, #654]	; 0x28e
/Users/Luppy/PineTime/pinetime-rust-mynewt/rust/piet-embedded/piet-embedded-graphics/src/batch.rs:279
                            continue;    
 268:	e79d      	b.n	1a6 <_ZN112_$LT$piet_embedded_graphics..batch..BlockIterator$LT$R$GT$$u20$as$u20$core..iter..traits..iterator..Iterator$GT$4next17hc4afb6cd0d0add88E+0x1a6>
/Users/Luppy/PineTime/pinetime-rust-mynewt/rust/piet-embedded/piet-embedded-graphics/src/batch.rs:284
                        x_left: self.x_left,
 26a:	981e      	ldr	r0, [sp, #120]	; 0x78
 26c:	f8b0 1288 	ldrh.w	r1, [r0, #648]	; 0x288
/Users/Luppy/PineTime/pinetime-rust-mynewt/rust/piet-embedded/piet-embedded-graphics/src/batch.rs:285
                        x_right: self.x_right,
 270:	f8b0 228a 	ldrh.w	r2, [r0, #650]	; 0x28a
/Users/Luppy/PineTime/pinetime-rust-mynewt/rust/piet-embedded/piet-embedded-graphics/src/batch.rs:286
                        y_top: self.y_top,
 274:	f8b0 328c 	ldrh.w	r3, [r0, #652]	; 0x28c
/Users/Luppy/PineTime/pinetime-rust-mynewt/rust/piet-embedded/piet-embedded-graphics/src/batch.rs:287
                        y_bottom: self.y_bottom,
 278:	f8b0 c28e 	ldrh.w	ip, [r0, #654]	; 0x28e
/Users/Luppy/PineTime/pinetime-rust-mynewt/rust/piet-embedded/piet-embedded-graphics/src/batch.rs:288
                        colors: self.colors.clone(),
 27c:	30f4      	adds	r0, #244	; 0xf4
 27e:	f60d 0e94 	addw	lr, sp, #2196	; 0x894
 282:	900a      	str	r0, [sp, #40]	; 0x28
 284:	4670      	mov	r0, lr
 286:	f8dd e028 	ldr.w	lr, [sp, #40]	; 0x28
 28a:	9109      	str	r1, [sp, #36]	; 0x24
 28c:	4671      	mov	r1, lr
 28e:	9208      	str	r2, [sp, #32]
 290:	9307      	str	r3, [sp, #28]
 292:	f8cd c018 	str.w	ip, [sp, #24]
 296:	f7ff fffe 	bl	0 <_ZN70_$LT$heapless..vec..Vec$LT$T$C$N$GT$$u20$as$u20$core..clone..Clone$GT$5clone17h06de5d43137c8e8cE>
 29a:	e7ff      	b.n	29c <_ZN112_$LT$piet_embedded_graphics..batch..BlockIterator$LT$R$GT$$u20$as$u20$core..iter..traits..iterator..Iterator$GT$4next17hc4afb6cd0d0add88E+0x29c>
/Users/Luppy/PineTime/pinetime-rust-mynewt/rust/piet-embedded/piet-embedded-graphics/src/batch.rs:283
                    let row = PixelBlock {
 29c:	9809      	ldr	r0, [sp, #36]	; 0x24
 29e:	f8ad 088c 	strh.w	r0, [sp, #2188]	; 0x88c
 2a2:	9908      	ldr	r1, [sp, #32]
 2a4:	f8ad 188e 	strh.w	r1, [sp, #2190]	; 0x88e
 2a8:	9a07      	ldr	r2, [sp, #28]
 2aa:	f8ad 2890 	strh.w	r2, [sp, #2192]	; 0x890
 2ae:	9b06      	ldr	r3, [sp, #24]
 2b0:	f8ad 3892 	strh.w	r3, [sp, #2194]	; 0x892
 2b4:	f50d 60df 	add.w	r0, sp, #1784	; 0x6f8
 2b8:	f60d 0194 	addw	r1, sp, #2196	; 0x894
 2bc:	f44f 72ca 	mov.w	r2, #404	; 0x194
 2c0:	f7ff fffe 	bl	0 <__aeabi_memcpy4>
/Users/Luppy/PineTime/pinetime-rust-mynewt/rust/piet-embedded/piet-embedded-graphics/src/batch.rs:290
                    self.x_left = x_left;
 2c4:	f8bd 0622 	ldrh.w	r0, [sp, #1570]	; 0x622
 2c8:	991e      	ldr	r1, [sp, #120]	; 0x78
 2ca:	f8a1 0288 	strh.w	r0, [r1, #648]	; 0x288
/Users/Luppy/PineTime/pinetime-rust-mynewt/rust/piet-embedded/piet-embedded-graphics/src/batch.rs:291
                    self.x_right = x_right;
 2ce:	f8bd 0624 	ldrh.w	r0, [sp, #1572]	; 0x624
 2d2:	991e      	ldr	r1, [sp, #120]	; 0x78
 2d4:	f8a1 028a 	strh.w	r0, [r1, #650]	; 0x28a
/Users/Luppy/PineTime/pinetime-rust-mynewt/rust/piet-embedded/piet-embedded-graphics/src/batch.rs:292
                    self.y_top = y;
 2d8:	f8bd 0626 	ldrh.w	r0, [sp, #1574]	; 0x626
 2dc:	991e      	ldr	r1, [sp, #120]	; 0x78
 2de:	f8a1 028c 	strh.w	r0, [r1, #652]	; 0x28c
/Users/Luppy/PineTime/pinetime-rust-mynewt/rust/piet-embedded/piet-embedded-graphics/src/batch.rs:293
                    self.y_bottom = y;
 2e2:	f8bd 0626 	ldrh.w	r0, [sp, #1574]	; 0x626
 2e6:	991e      	ldr	r1, [sp, #120]	; 0x78
 2e8:	f8a1 028e 	strh.w	r0, [r1, #654]	; 0x28e
/Users/Luppy/PineTime/pinetime-rust-mynewt/rust/piet-embedded/piet-embedded-graphics/src/batch.rs:294
                    self.colors.clear();
 2ec:	981e      	ldr	r0, [sp, #120]	; 0x78
 2ee:	30f4      	adds	r0, #244	; 0xf4
 2f0:	f7ff fffe 	bl	0 <_ZN8heapless3vec16Vec$LT$T$C$N$GT$5clear17hfd39c9763fef61d4E>
 2f4:	e7ff      	b.n	2f6 <_ZN112_$LT$piet_embedded_graphics..batch..BlockIterator$LT$R$GT$$u20$as$u20$core..iter..traits..iterator..Iterator$GT$4next17hc4afb6cd0d0add88E+0x2f6>
/Users/Luppy/PineTime/pinetime-rust-mynewt/rust/piet-embedded/piet-embedded-graphics/src/batch.rs:295
                    self.colors.extend_from_slice(&colors)
 2f6:	981e      	ldr	r0, [sp, #120]	; 0x78
 2f8:	30f4      	adds	r0, #244	; 0xf4
 2fa:	f50d 61c5 	add.w	r1, sp, #1576	; 0x628
 2fe:	9005      	str	r0, [sp, #20]
 300:	4608      	mov	r0, r1
 302:	f7ff fffe 	bl	0 <_ZN75_$LT$heapless..vec..Vec$LT$T$C$N$GT$$u20$as$u20$core..ops..deref..Deref$GT$5deref17h26cfc6056df07241E>
 306:	9004      	str	r0, [sp, #16]
 308:	9103      	str	r1, [sp, #12]
 30a:	e7ff      	b.n	30c <_ZN112_$LT$piet_embedded_graphics..batch..BlockIterator$LT$R$GT$$u20$as$u20$core..iter..traits..iterator..Iterator$GT$4next17hc4afb6cd0d0add88E+0x30c>
 30c:	9805      	ldr	r0, [sp, #20]
 30e:	9904      	ldr	r1, [sp, #16]
 310:	9a03      	ldr	r2, [sp, #12]
 312:	f7ff fffe 	bl	0 <_ZN8heapless3vec16Vec$LT$T$C$N$GT$17extend_from_slice17h13d4385adab264f0E>
 316:	9002      	str	r0, [sp, #8]
 318:	e7ff      	b.n	31a <_ZN112_$LT$piet_embedded_graphics..batch..BlockIterator$LT$R$GT$$u20$as$u20$core..iter..traits..iterator..Iterator$GT$4next17hc4afb6cd0d0add88E+0x31a>
 31a:	9802      	ldr	r0, [sp, #8]
 31c:	f000 0001 	and.w	r0, r0, #1
 320:	f240 0100 	movw	r1, #0
 324:	f2c0 0100 	movt	r1, #0
 328:	2205      	movs	r2, #5
 32a:	f7ff fffe 	bl	0 <_ZN4core6result19Result$LT$T$C$E$GT$6expect17hf3746b868183a82aE>
 32e:	e7ff      	b.n	330 <_ZN112_$LT$piet_embedded_graphics..batch..BlockIterator$LT$R$GT$$u20$as$u20$core..iter..traits..iterator..Iterator$GT$4next17hc4afb6cd0d0add88E+0x330>
 330:	f60d 2028 	addw	r0, sp, #2600	; 0xa28
 334:	f50d 61df 	add.w	r1, sp, #1784	; 0x6f8
 338:	f44f 72ce 	mov.w	r2, #412	; 0x19c
/Users/Luppy/PineTime/pinetime-rust-mynewt/rust/piet-embedded/piet-embedded-graphics/src/batch.rs:297
                    return Some(row);
 33c:	9001      	str	r0, [sp, #4]
 33e:	9200      	str	r2, [sp, #0]
 340:	f7ff fffe 	bl	0 <__aeabi_memcpy4>
 344:	981d      	ldr	r0, [sp, #116]	; 0x74
 346:	3004      	adds	r0, #4
 348:	9901      	ldr	r1, [sp, #4]
 34a:	9a00      	ldr	r2, [sp, #0]
 34c:	f7ff fffe 	bl	0 <__aeabi_memcpy4>
 350:	2001      	movs	r0, #1
 352:	991d      	ldr	r1, [sp, #116]	; 0x74
 354:	6008      	str	r0, [r1, #0]
 356:	f50d 60c5 	add.w	r0, sp, #1576	; 0x628
/Users/Luppy/PineTime/pinetime-rust-mynewt/rust/piet-embedded/piet-embedded-graphics/src/batch.rs:299
            }
 35a:	f7ff fffe 	bl	0 <_ZN4core3ptr18real_drop_in_place17hae0f96c0e02821c9E>
 35e:	e7ff      	b.n	360 <_ZN112_$LT$piet_embedded_graphics..batch..BlockIterator$LT$R$GT$$u20$as$u20$core..iter..traits..iterator..Iterator$GT$4next17hc4afb6cd0d0add88E+0x360>
/Users/Luppy/PineTime/pinetime-rust-mynewt/rust/piet-embedded/piet-embedded-graphics/src/batch.rs:297
                    return Some(row);
 360:	e018      	b.n	394 <_ZN112_$LT$piet_embedded_graphics..batch..BlockIterator$LT$R$GT$$u20$as$u20$core..iter..traits..iterator..Iterator$GT$4next17hc4afb6cd0d0add88E+0x394>
 362:	2000      	movs	r0, #0
/Users/Luppy/PineTime/pinetime-rust-mynewt/rust/piet-embedded/piet-embedded-graphics/src/batch.rs:300
        }
 364:	f88d 0bc7 	strb.w	r0, [sp, #3015]	; 0xbc7
/Users/Luppy/PineTime/pinetime-rust-mynewt/rust/piet-embedded/piet-embedded-graphics/src/batch.rs:301
    }
 368:	f50d 6d3c 	add.w	sp, sp, #3008	; 0xbc0
 36c:	b002      	add	sp, #8
 36e:	bd80      	pop	{r7, pc}
/Users/Luppy/PineTime/pinetime-rust-mynewt/rust/piet-embedded/piet-embedded-graphics/src/batch.rs:300
        }
 370:	f89d 0bc7 	ldrb.w	r0, [sp, #3015]	; 0xbc7
 374:	07c0      	lsls	r0, r0, #31
 376:	2800      	cmp	r0, #0
 378:	d0f3      	beq.n	362 <_ZN112_$LT$piet_embedded_graphics..batch..BlockIterator$LT$R$GT$$u20$as$u20$core..iter..traits..iterator..Iterator$GT$4next17hc4afb6cd0d0add88E+0x362>
 37a:	e7ff      	b.n	37c <_ZN112_$LT$piet_embedded_graphics..batch..BlockIterator$LT$R$GT$$u20$as$u20$core..iter..traits..iterator..Iterator$GT$4next17hc4afb6cd0d0add88E+0x37c>
 37c:	2000      	movs	r0, #0
 37e:	f88d 0bc7 	strb.w	r0, [sp, #3015]	; 0xbc7
 382:	a81f      	add	r0, sp, #124	; 0x7c
 384:	3004      	adds	r0, #4
 386:	f7ff fffe 	bl	0 <_ZN4core3ptr18real_drop_in_place17hae0f96c0e02821c9E>
 38a:	e7ea      	b.n	362 <_ZN112_$LT$piet_embedded_graphics..batch..BlockIterator$LT$R$GT$$u20$as$u20$core..iter..traits..iterator..Iterator$GT$4next17hc4afb6cd0d0add88E+0x362>
 38c:	a81f      	add	r0, sp, #124	; 0x7c
 38e:	f7ff fffe 	bl	0 <_ZN4core3ptr18real_drop_in_place17h7aef2a3cc7c1160cE>
 392:	e7e6      	b.n	362 <_ZN112_$LT$piet_embedded_graphics..batch..BlockIterator$LT$R$GT$$u20$as$u20$core..iter..traits..iterator..Iterator$GT$4next17hc4afb6cd0d0add88E+0x362>
 394:	981f      	ldr	r0, [sp, #124]	; 0x7c
 396:	2801      	cmp	r0, #1
 398:	d0ea      	beq.n	370 <_ZN112_$LT$piet_embedded_graphics..batch..BlockIterator$LT$R$GT$$u20$as$u20$core..iter..traits..iterator..Iterator$GT$4next17hc4afb6cd0d0add88E+0x370>
 39a:	e7f7      	b.n	38c <_ZN112_$LT$piet_embedded_graphics..batch..BlockIterator$LT$R$GT$$u20$as$u20$core..iter..traits..iterator..Iterator$GT$4next17hc4afb6cd0d0add88E+0x38c>
 39c:	2000      	movs	r0, #0
 39e:	f88d 0bc7 	strb.w	r0, [sp, #3015]	; 0xbc7
/Users/Luppy/PineTime/pinetime-rust-mynewt/rust/piet-embedded/piet-embedded-graphics/src/batch.rs:272
                        continue;
 3a2:	e637      	b.n	14 <_ZN112_$LT$piet_embedded_graphics..batch..BlockIterator$LT$R$GT$$u20$as$u20$core..iter..traits..iterator..Iterator$GT$4next17hc4afb6cd0d0add88E+0x14>
 3a4:	a81f      	add	r0, sp, #124	; 0x7c
/Users/Luppy/PineTime/pinetime-rust-mynewt/rust/piet-embedded/piet-embedded-graphics/src/batch.rs:300
        }
 3a6:	f7ff fffe 	bl	0 <_ZN4core3ptr18real_drop_in_place17h7aef2a3cc7c1160cE>
 3aa:	e7f7      	b.n	fffffff2 <_ZN112_$LT$piet_embedded_graphics..batch..BlockIterator$LT$R$GT$$u20$as$u20$core..iter..traits..iterator..Iterator$GT$4next17hc4afb6cd0d0add88E+0xfffffff2>
/Users/Luppy/PineTime/pinetime-rust-mynewt/rust/piet-embedded/piet-embedded-graphics/src/batch.rs:275
                    if y == self.y_bottom + 1 && x_left == self.x_left && x_right == self.x_right {                        
 3ac:	f240 0000 	movw	r0, #0
 3b0:	f2c0 0000 	movt	r0, #0
 3b4:	f240 0200 	movw	r2, #0
 3b8:	f2c0 0200 	movt	r2, #0
 3bc:	211c      	movs	r1, #28
 3be:	f7ff fffe 	bl	0 <_ZN4core9panicking5panic17hfdd0eecc44a682f8E>
 3c2:	defe      	udf	#254	; 0xfe

Disassembly of section .text._ZN22piet_embedded_graphics5batch11draw_blocks17h5d78b46cb1920384E:

00000000 <_ZN22piet_embedded_graphics5batch11draw_blocks17h5d78b46cb1920384E>:
_ZN22piet_embedded_graphics5batch11draw_blocks17h5d78b46cb1920384E():
/Users/Luppy/PineTime/pinetime-rust-mynewt/rust/piet-embedded/piet-embedded-graphics/src/batch.rs:99
pub fn draw_blocks<SPI, DC, RST, T>(display: &mut ST7735<SPI, DC, RST>, item_pixels: T) -> Result<(),()>
   0:	e92d 41f0 	stmdb	sp!, {r4, r5, r6, r7, r8, lr}
   4:	f5ad 5db7 	sub.w	sp, sp, #5856	; 0x16e0
   8:	b084      	sub	sp, #16
   a:	9011      	str	r0, [sp, #68]	; 0x44
   c:	a81e      	add	r0, sp, #120	; 0x78
/Users/Luppy/PineTime/pinetime-rust-mynewt/rust/piet-embedded/piet-embedded-graphics/src/batch.rs:106
    let pixels = item_pixels.into_iter();
   e:	4602      	mov	r2, r0
  10:	e8b1 5008 	ldmia.w	r1!, {r3, ip, lr}
  14:	e8a2 5008 	stmia.w	r2!, {r3, ip, lr}
  18:	e891 5018 	ldmia.w	r1, {r3, r4, ip, lr}
  1c:	e882 5018 	stmia.w	r2, {r3, r4, ip, lr}
  20:	a913      	add	r1, sp, #76	; 0x4c
  22:	9010      	str	r0, [sp, #64]	; 0x40
  24:	4608      	mov	r0, r1
  26:	9910      	ldr	r1, [sp, #64]	; 0x40
  28:	f7ff fffe 	bl	0 <_ZN129_$LT$embedded_graphics..fonts..font_builder..FontBuilder$LT$C$C$Conf$GT$$u20$as$u20$core..iter..traits..collect..IntoIterator$GT$9into_iter17h33ca60caba5b378fE>
  2c:	e7ff      	b.n	2e <_ZN22piet_embedded_graphics5batch11draw_blocks17h5d78b46cb1920384E+0x2e>
  2e:	a813      	add	r0, sp, #76	; 0x4c
  30:	a965      	add	r1, sp, #404	; 0x194
/Users/Luppy/PineTime/pinetime-rust-mynewt/rust/piet-embedded/piet-embedded-graphics/src/batch.rs:108
    let rows = to_rows(pixels);
  32:	460a      	mov	r2, r1
  34:	e8b0 5038 	ldmia.w	r0!, {r3, r4, r5, ip, lr}
  38:	e8a2 5038 	stmia.w	r2!, {r3, r4, r5, ip, lr}
  3c:	e890 5078 	ldmia.w	r0, {r3, r4, r5, r6, ip, lr}
  40:	e882 5078 	stmia.w	r2, {r3, r4, r5, r6, ip, lr}
  44:	a825      	add	r0, sp, #148	; 0x94
  46:	f7ff fffe 	bl	0 <_ZN22piet_embedded_graphics5batch11draw_blocks17h5d78b46cb1920384E>
  4a:	e7ff      	b.n	4c <_ZN22piet_embedded_graphics5batch11draw_blocks17h5d78b46cb1920384E+0x4c>
  4c:	f50d 608c 	add.w	r0, sp, #1120	; 0x460
  50:	a925      	add	r1, sp, #148	; 0x94
  52:	f44f 7280 	mov.w	r2, #256	; 0x100
/Users/Luppy/PineTime/pinetime-rust-mynewt/rust/piet-embedded/piet-embedded-graphics/src/batch.rs:110
    let blocks = to_blocks(rows);
  56:	900f      	str	r0, [sp, #60]	; 0x3c
  58:	f7ff fffe 	bl	0 <__aeabi_memcpy4>
  5c:	a870      	add	r0, sp, #448	; 0x1c0
  5e:	990f      	ldr	r1, [sp, #60]	; 0x3c
  60:	f7ff fffe 	bl	0 <_ZN22piet_embedded_graphics5batch11draw_blocks17h5d78b46cb1920384E>
  64:	e7ff      	b.n	66 <_ZN22piet_embedded_graphics5batch11draw_blocks17h5d78b46cb1920384E+0x66>
  66:	f50d 6000 	add.w	r0, sp, #2048	; 0x800
  6a:	a970      	add	r1, sp, #448	; 0x1c0
  6c:	f44f 7228 	mov.w	r2, #672	; 0x2a0
/Users/Luppy/PineTime/pinetime-rust-mynewt/rust/piet-embedded/piet-embedded-graphics/src/batch.rs:112
    for PixelBlock { x_left, x_right, y_top, y_bottom, colors, .. } in blocks {
  70:	900e      	str	r0, [sp, #56]	; 0x38
  72:	f7ff fffe 	bl	0 <__aeabi_memcpy4>
  76:	f50d 60ac 	add.w	r0, sp, #1376	; 0x560
  7a:	990e      	ldr	r1, [sp, #56]	; 0x38
  7c:	f7ff fffe 	bl	0 <_ZN22piet_embedded_graphics5batch11draw_blocks17h5d78b46cb1920384E>
  80:	e7ff      	b.n	82 <_ZN22piet_embedded_graphics5batch11draw_blocks17h5d78b46cb1920384E+0x82>
  82:	f50d 602a 	add.w	r0, sp, #2720	; 0xaa0
  86:	f50d 61ac 	add.w	r1, sp, #1376	; 0x560
  8a:	f44f 7228 	mov.w	r2, #672	; 0x2a0
  8e:	f7ff fffe 	bl	0 <__aeabi_memcpy4>
  92:	e7ff      	b.n	94 <_ZN22piet_embedded_graphics5batch11draw_blocks17h5d78b46cb1920384E+0x94>
  94:	f60d 60dc 	addw	r0, sp, #3804	; 0xedc
  98:	f50d 612a 	add.w	r1, sp, #2720	; 0xaa0
  9c:	f7ff fffe 	bl	0 <_ZN22piet_embedded_graphics5batch11draw_blocks17h5d78b46cb1920384E>
  a0:	e7ff      	b.n	a2 <_ZN22piet_embedded_graphics5batch11draw_blocks17h5d78b46cb1920384E+0xa2>
  a2:	f8dd 0edc 	ldr.w	r0, [sp, #3804]	; 0xedc
  a6:	2800      	cmp	r0, #0
  a8:	d001      	beq.n	ae <_ZN22piet_embedded_graphics5batch11draw_blocks17h5d78b46cb1920384E+0xae>
  aa:	e7ff      	b.n	ac <_ZN22piet_embedded_graphics5batch11draw_blocks17h5d78b46cb1920384E+0xac>
  ac:	e005      	b.n	ba <_ZN22piet_embedded_graphics5batch11draw_blocks17h5d78b46cb1920384E+0xba>
  ae:	f60d 60dc 	addw	r0, sp, #3804	; 0xedc
  b2:	f7ff fffe 	bl	0 <_ZN4core3ptr18real_drop_in_place17hd992adae17c3a6d3E>
  b6:	e021      	b.n	fc <_ZN22piet_embedded_graphics5batch11draw_blocks17h5d78b46cb1920384E+0xfc>
  b8:	defe      	udf	#254	; 0xfe
  ba:	f60d 60dc 	addw	r0, sp, #3804	; 0xedc
  be:	1d01      	adds	r1, r0, #4
  c0:	f10d 0e1c 	add.w	lr, sp, #28
  c4:	f50e 5083 	add.w	r0, lr, #4192	; 0x1060
  c8:	f44f 72ce 	mov.w	r2, #412	; 0x19c
  cc:	900d      	str	r0, [sp, #52]	; 0x34
  ce:	920c      	str	r2, [sp, #48]	; 0x30
  d0:	f7ff fffe 	bl	0 <__aeabi_memcpy4>
  d4:	f10d 0e18 	add.w	lr, sp, #24
  d8:	f50e 5090 	add.w	r0, lr, #4608	; 0x1200
  dc:	900b      	str	r0, [sp, #44]	; 0x2c
  de:	990d      	ldr	r1, [sp, #52]	; 0x34
  e0:	9a0c      	ldr	r2, [sp, #48]	; 0x30
  e2:	f7ff fffe 	bl	0 <__aeabi_memcpy4>
  e6:	f50d 6054 	add.w	r0, sp, #3392	; 0xd40
  ea:	990b      	ldr	r1, [sp, #44]	; 0x2c
  ec:	9a0c      	ldr	r2, [sp, #48]	; 0x30
  ee:	f7ff fffe 	bl	0 <__aeabi_memcpy4>
  f2:	f8dd 0edc 	ldr.w	r0, [sp, #3804]	; 0xedc
  f6:	2801      	cmp	r0, #1
  f8:	d034      	beq.n	164 <_ZN22piet_embedded_graphics5batch11draw_blocks17h5d78b46cb1920384E+0x164>
  fa:	e08b      	b.n	214 <_ZN22piet_embedded_graphics5batch11draw_blocks17h5d78b46cb1920384E+0x214>
  fc:	f50d 602a 	add.w	r0, sp, #2720	; 0xaa0
/Users/Luppy/PineTime/pinetime-rust-mynewt/rust/piet-embedded/piet-embedded-graphics/src/batch.rs:126
    }
 100:	f7ff fffe 	bl	0 <_ZN4core3ptr18real_drop_in_place17hdc379fb5c69cf67aE>
 104:	e02a      	b.n	15c <_ZN22piet_embedded_graphics5batch11draw_blocks17h5d78b46cb1920384E+0x15c>
/Users/Luppy/PineTime/pinetime-rust-mynewt/rust/piet-embedded/piet-embedded-graphics/src/batch.rs:114
        display.set_pixels(
 106:	f50d 5e80 	add.w	lr, sp, #4096	; 0x1000
 10a:	f89e 0553 	ldrb.w	r0, [lr, #1363]	; 0x553
 10e:	f7ff fffe 	bl	0 <_ZN73_$LT$core..result..Result$LT$T$C$E$GT$$u20$as$u20$core..ops..try..Try$GT$11into_result17h190a109881ebe95dE>
 112:	f50d 5e80 	add.w	lr, sp, #4096	; 0x1000
 116:	f88e 0552 	strb.w	r0, [lr, #1362]	; 0x552
 11a:	e7ff      	b.n	11c <_ZN22piet_embedded_graphics5batch11draw_blocks17h5d78b46cb1920384E+0x11c>
/Users/Luppy/PineTime/pinetime-rust-mynewt/rust/piet-embedded/piet-embedded-graphics/src/batch.rs:119
            colors) ? ;
 11c:	f50d 5e80 	add.w	lr, sp, #4096	; 0x1000
 120:	f89e 0552 	ldrb.w	r0, [lr, #1362]	; 0x552
 124:	07c1      	lsls	r1, r0, #31
 126:	2900      	cmp	r1, #0
 128:	d017      	beq.n	15a <_ZN22piet_embedded_graphics5batch11draw_blocks17h5d78b46cb1920384E+0x15a>
 12a:	e7ff      	b.n	12c <_ZN22piet_embedded_graphics5batch11draw_blocks17h5d78b46cb1920384E+0x12c>
 12c:	e000      	b.n	130 <_ZN22piet_embedded_graphics5batch11draw_blocks17h5d78b46cb1920384E+0x130>
/Users/Luppy/PineTime/pinetime-rust-mynewt/rust/piet-embedded/piet-embedded-graphics/src/batch.rs:114
        display.set_pixels(
 12e:	defe      	udf	#254	; 0xfe
/Users/Luppy/PineTime/pinetime-rust-mynewt/rust/piet-embedded/piet-embedded-graphics/src/batch.rs:119
            colors) ? ;
 130:	f7ff fffe 	bl	0 <_ZN50_$LT$T$u20$as$u20$core..convert..From$LT$T$GT$$GT$4from17h3246e97bcee02cfcE>
 134:	e006      	b.n	144 <_ZN22piet_embedded_graphics5batch11draw_blocks17h5d78b46cb1920384E+0x144>
/Users/Luppy/PineTime/pinetime-rust-mynewt/rust/piet-embedded/piet-embedded-graphics/src/batch.rs:128
}
 136:	f89d 004b 	ldrb.w	r0, [sp, #75]	; 0x4b
 13a:	f50d 5db7 	add.w	sp, sp, #5856	; 0x16e0
 13e:	b004      	add	sp, #16
 140:	e8bd 81f0 	ldmia.w	sp!, {r4, r5, r6, r7, r8, pc}
/Users/Luppy/PineTime/pinetime-rust-mynewt/rust/piet-embedded/piet-embedded-graphics/src/batch.rs:119
            colors) ? ;
 144:	f7ff fffe 	bl	0 <_ZN73_$LT$core..result..Result$LT$T$C$E$GT$$u20$as$u20$core..ops..try..Try$GT$10from_error17h77bc71430dc08530E>
 148:	f88d 004b 	strb.w	r0, [sp, #75]	; 0x4b
 14c:	e7ff      	b.n	14e <_ZN22piet_embedded_graphics5batch11draw_blocks17h5d78b46cb1920384E+0x14e>
 14e:	f50d 602a 	add.w	r0, sp, #2720	; 0xaa0
/Users/Luppy/PineTime/pinetime-rust-mynewt/rust/piet-embedded/piet-embedded-graphics/src/batch.rs:126
    }
 152:	f7ff fffe 	bl	0 <_ZN4core3ptr18real_drop_in_place17hdc379fb5c69cf67aE>
 156:	e7ff      	b.n	158 <_ZN22piet_embedded_graphics5batch11draw_blocks17h5d78b46cb1920384E+0x158>
/Users/Luppy/PineTime/pinetime-rust-mynewt/rust/piet-embedded/piet-embedded-graphics/src/batch.rs:128
}
 158:	e7ed      	b.n	136 <_ZN22piet_embedded_graphics5batch11draw_blocks17h5d78b46cb1920384E+0x136>
/Users/Luppy/PineTime/pinetime-rust-mynewt/rust/piet-embedded/piet-embedded-graphics/src/batch.rs:112
    for PixelBlock { x_left, x_right, y_top, y_bottom, colors, .. } in blocks {
 15a:	e79b      	b.n	94 <_ZN22piet_embedded_graphics5batch11draw_blocks17h5d78b46cb1920384E+0x94>
 15c:	2000      	movs	r0, #0
/Users/Luppy/PineTime/pinetime-rust-mynewt/rust/piet-embedded/piet-embedded-graphics/src/batch.rs:127
    Ok(())
 15e:	f88d 004b 	strb.w	r0, [sp, #75]	; 0x4b
/Users/Luppy/PineTime/pinetime-rust-mynewt/rust/piet-embedded/piet-embedded-graphics/src/batch.rs:128
}
 162:	e7e8      	b.n	136 <_ZN22piet_embedded_graphics5batch11draw_blocks17h5d78b46cb1920384E+0x136>
/Users/Luppy/PineTime/pinetime-rust-mynewt/rust/piet-embedded/piet-embedded-graphics/src/batch.rs:112
    for PixelBlock { x_left, x_right, y_top, y_bottom, colors, .. } in blocks {
 164:	f8bd 0ed4 	ldrh.w	r0, [sp, #3796]	; 0xed4
 168:	f50d 5e80 	add.w	lr, sp, #4096	; 0x1000
 16c:	f8ae 03b4 	strh.w	r0, [lr, #948]	; 0x3b4
 170:	f8bd 0ed6 	ldrh.w	r0, [sp, #3798]	; 0xed6
 174:	f50d 5e80 	add.w	lr, sp, #4096	; 0x1000
 178:	f8ae 03b6 	strh.w	r0, [lr, #950]	; 0x3b6
 17c:	f8bd 0ed8 	ldrh.w	r0, [sp, #3800]	; 0xed8
 180:	f50d 5e80 	add.w	lr, sp, #4096	; 0x1000
 184:	f8ae 03b8 	strh.w	r0, [lr, #952]	; 0x3b8
 188:	f8bd 0eda 	ldrh.w	r0, [sp, #3802]	; 0xeda
 18c:	f50d 5e80 	add.w	lr, sp, #4096	; 0x1000
 190:	f8ae 03ba 	strh.w	r0, [lr, #954]	; 0x3ba
 194:	f10d 0e1c 	add.w	lr, sp, #28
 198:	f50e 509d 	add.w	r0, lr, #5024	; 0x13a0
 19c:	f50d 6154 	add.w	r1, sp, #3392	; 0xd40
 1a0:	f44f 72ca 	mov.w	r2, #404	; 0x194
 1a4:	900a      	str	r0, [sp, #40]	; 0x28
 1a6:	9209      	str	r2, [sp, #36]	; 0x24
 1a8:	f7ff fffe 	bl	0 <__aeabi_memcpy4>
/Users/Luppy/PineTime/pinetime-rust-mynewt/rust/piet-embedded/piet-embedded-graphics/src/batch.rs:114
        display.set_pixels(
 1ac:	9811      	ldr	r0, [sp, #68]	; 0x44
 1ae:	f50d 5e80 	add.w	lr, sp, #4096	; 0x1000
 1b2:	f8be 33b6 	ldrh.w	r3, [lr, #950]	; 0x3b6
 1b6:	f50d 5e80 	add.w	lr, sp, #4096	; 0x1000
 1ba:	f8be 23b8 	ldrh.w	r2, [lr, #952]	; 0x3b8
 1be:	f50d 5e80 	add.w	lr, sp, #4096	; 0x1000
 1c2:	f8be 13b4 	ldrh.w	r1, [lr, #948]	; 0x3b4
 1c6:	f50d 5e80 	add.w	lr, sp, #4096	; 0x1000
 1ca:	f8be c3ba 	ldrh.w	ip, [lr, #954]	; 0x3ba
 1ce:	f10d 0e14 	add.w	lr, sp, #20
 1d2:	f50e 5eaa 	add.w	lr, lr, #5440	; 0x1540
/Users/Luppy/PineTime/pinetime-rust-mynewt/rust/piet-embedded/piet-embedded-graphics/src/batch.rs:119
            colors) ? ;
 1d6:	9008      	str	r0, [sp, #32]
 1d8:	4670      	mov	r0, lr
 1da:	9c0a      	ldr	r4, [sp, #40]	; 0x28
 1dc:	9107      	str	r1, [sp, #28]
 1de:	4621      	mov	r1, r4
 1e0:	9d09      	ldr	r5, [sp, #36]	; 0x24
 1e2:	9206      	str	r2, [sp, #24]
 1e4:	462a      	mov	r2, r5
 1e6:	9305      	str	r3, [sp, #20]
 1e8:	f8cd c010 	str.w	ip, [sp, #16]
 1ec:	f8cd e00c 	str.w	lr, [sp, #12]
 1f0:	f7ff fffe 	bl	0 <__aeabi_memcpy4>
/Users/Luppy/PineTime/pinetime-rust-mynewt/rust/piet-embedded/piet-embedded-graphics/src/batch.rs:114
        display.set_pixels(
 1f4:	4668      	mov	r0, sp
 1f6:	9903      	ldr	r1, [sp, #12]
 1f8:	6041      	str	r1, [r0, #4]
 1fa:	9a04      	ldr	r2, [sp, #16]
 1fc:	6002      	str	r2, [r0, #0]
 1fe:	9808      	ldr	r0, [sp, #32]
 200:	9907      	ldr	r1, [sp, #28]
 202:	9a06      	ldr	r2, [sp, #24]
 204:	9b05      	ldr	r3, [sp, #20]
 206:	f7ff fffe 	bl	0 <_ZN10st7735_lcd28ST7735$LT$SPI$C$DC$C$RST$GT$10set_pixels17he81da339547c4f09E>
 20a:	f50d 5e80 	add.w	lr, sp, #4096	; 0x1000
 20e:	f88e 0553 	strb.w	r0, [lr, #1363]	; 0x553
 212:	e778      	b.n	106 <_ZN22piet_embedded_graphics5batch11draw_blocks17h5d78b46cb1920384E+0x106>
 214:	f60d 60dc 	addw	r0, sp, #3804	; 0xedc
/Users/Luppy/PineTime/pinetime-rust-mynewt/rust/piet-embedded/piet-embedded-graphics/src/batch.rs:112
    for PixelBlock { x_left, x_right, y_top, y_bottom, colors, .. } in blocks {
 218:	f7ff fffe 	bl	0 <_ZN4core3ptr18real_drop_in_place17hd992adae17c3a6d3E>
 21c:	e7a2      	b.n	164 <_ZN22piet_embedded_graphics5batch11draw_blocks17h5d78b46cb1920384E+0x164>

Disassembly of section .text._ZN22piet_embedded_graphics5batch11draw_blocks17h76e692a8937a783bE:

00000000 <_ZN22piet_embedded_graphics5batch11draw_blocks17h76e692a8937a783bE>:
_ZN22piet_embedded_graphics5batch11draw_blocks17h76e692a8937a783bE():
/Users/Luppy/PineTime/pinetime-rust-mynewt/rust/piet-embedded/piet-embedded-graphics/src/batch.rs:99
pub fn draw_blocks<SPI, DC, RST, T>(display: &mut ST7735<SPI, DC, RST>, item_pixels: T) -> Result<(),()>
   0:	b5b0      	push	{r4, r5, r7, lr}
   2:	f5ad 5db5 	sub.w	sp, sp, #5792	; 0x16a0
   6:	b084      	sub	sp, #16
   8:	9011      	str	r0, [sp, #68]	; 0x44
   a:	a81c      	add	r0, sp, #112	; 0x70
/Users/Luppy/PineTime/pinetime-rust-mynewt/rust/piet-embedded/piet-embedded-graphics/src/batch.rs:106
    let pixels = item_pixels.into_iter();
   c:	4602      	mov	r2, r0
   e:	e8b1 5008 	ldmia.w	r1!, {r3, ip, lr}
  12:	e8a2 5008 	stmia.w	r2!, {r3, ip, lr}
  16:	e891 5018 	ldmia.w	r1, {r3, r4, ip, lr}
  1a:	e882 5018 	stmia.w	r2, {r3, r4, ip, lr}
  1e:	a913      	add	r1, sp, #76	; 0x4c
  20:	9010      	str	r0, [sp, #64]	; 0x40
  22:	4608      	mov	r0, r1
  24:	9910      	ldr	r1, [sp, #64]	; 0x40
  26:	f7ff fffe 	bl	0 <_ZN122_$LT$embedded_graphics..primitives..rectangle..Rectangle$LT$C$GT$$u20$as$u20$core..iter..traits..collect..IntoIterator$GT$9into_iter17h8f8219360d21c276E>
  2a:	e7ff      	b.n	2c <_ZN22piet_embedded_graphics5batch11draw_blocks17h76e692a8937a783bE+0x2c>
  2c:	a813      	add	r0, sp, #76	; 0x4c
  2e:	a961      	add	r1, sp, #388	; 0x184
/Users/Luppy/PineTime/pinetime-rust-mynewt/rust/piet-embedded/piet-embedded-graphics/src/batch.rs:108
    let rows = to_rows(pixels);
  30:	460a      	mov	r2, r1
  32:	e8b0 5018 	ldmia.w	r0!, {r3, r4, ip, lr}
  36:	e8a2 5018 	stmia.w	r2!, {r3, r4, ip, lr}
  3a:	e890 5038 	ldmia.w	r0, {r3, r4, r5, ip, lr}
  3e:	e882 5038 	stmia.w	r2, {r3, r4, r5, ip, lr}
  42:	a823      	add	r0, sp, #140	; 0x8c
  44:	f7ff fffe 	bl	0 <_ZN22piet_embedded_graphics5batch11draw_blocks17h76e692a8937a783bE>
  48:	e7ff      	b.n	4a <_ZN22piet_embedded_graphics5batch11draw_blocks17h76e692a8937a783bE+0x4a>
  4a:	f50d 6088 	add.w	r0, sp, #1088	; 0x440
  4e:	a923      	add	r1, sp, #140	; 0x8c
  50:	22f8      	movs	r2, #248	; 0xf8
/Users/Luppy/PineTime/pinetime-rust-mynewt/rust/piet-embedded/piet-embedded-graphics/src/batch.rs:110
    let blocks = to_blocks(rows);
  52:	900f      	str	r0, [sp, #60]	; 0x3c
  54:	f7ff fffe 	bl	0 <__aeabi_memcpy4>
  58:	a86a      	add	r0, sp, #424	; 0x1a8
  5a:	990f      	ldr	r1, [sp, #60]	; 0x3c
  5c:	f7ff fffe 	bl	0 <_ZN22piet_embedded_graphics5batch11draw_blocks17h76e692a8937a783bE>
  60:	e7ff      	b.n	62 <_ZN22piet_embedded_graphics5batch11draw_blocks17h76e692a8937a783bE+0x62>
  62:	f50d 60fa 	add.w	r0, sp, #2000	; 0x7d0
  66:	a96a      	add	r1, sp, #424	; 0x1a8
  68:	f44f 7226 	mov.w	r2, #664	; 0x298
/Users/Luppy/PineTime/pinetime-rust-mynewt/rust/piet-embedded/piet-embedded-graphics/src/batch.rs:112
    for PixelBlock { x_left, x_right, y_top, y_bottom, colors, .. } in blocks {
  6c:	900e      	str	r0, [sp, #56]	; 0x38
  6e:	f7ff fffe 	bl	0 <__aeabi_memcpy4>
  72:	f50d 60a7 	add.w	r0, sp, #1336	; 0x538
  76:	990e      	ldr	r1, [sp, #56]	; 0x38
  78:	f7ff fffe 	bl	0 <_ZN22piet_embedded_graphics5batch11draw_blocks17h76e692a8937a783bE>
  7c:	e7ff      	b.n	7e <_ZN22piet_embedded_graphics5batch11draw_blocks17h76e692a8937a783bE+0x7e>
  7e:	f60d 2068 	addw	r0, sp, #2664	; 0xa68
  82:	f50d 61a7 	add.w	r1, sp, #1336	; 0x538
  86:	f44f 7226 	mov.w	r2, #664	; 0x298
  8a:	f7ff fffe 	bl	0 <__aeabi_memcpy4>
  8e:	e7ff      	b.n	90 <_ZN22piet_embedded_graphics5batch11draw_blocks17h76e692a8937a783bE+0x90>
  90:	f60d 609c 	addw	r0, sp, #3740	; 0xe9c
  94:	f60d 2168 	addw	r1, sp, #2664	; 0xa68
  98:	f7ff fffe 	bl	0 <_ZN22piet_embedded_graphics5batch11draw_blocks17h76e692a8937a783bE>
  9c:	e7ff      	b.n	9e <_ZN22piet_embedded_graphics5batch11draw_blocks17h76e692a8937a783bE+0x9e>
  9e:	f8dd 0e9c 	ldr.w	r0, [sp, #3740]	; 0xe9c
  a2:	2800      	cmp	r0, #0
  a4:	d001      	beq.n	aa <_ZN22piet_embedded_graphics5batch11draw_blocks17h76e692a8937a783bE+0xaa>
  a6:	e7ff      	b.n	a8 <_ZN22piet_embedded_graphics5batch11draw_blocks17h76e692a8937a783bE+0xa8>
  a8:	e005      	b.n	b6 <_ZN22piet_embedded_graphics5batch11draw_blocks17h76e692a8937a783bE+0xb6>
  aa:	f60d 609c 	addw	r0, sp, #3740	; 0xe9c
  ae:	f7ff fffe 	bl	0 <_ZN4core3ptr18real_drop_in_place17hd992adae17c3a6d3E>
  b2:	e021      	b.n	f8 <_ZN22piet_embedded_graphics5batch11draw_blocks17h76e692a8937a783bE+0xf8>
  b4:	defe      	udf	#254	; 0xfe
  b6:	f60d 609c 	addw	r0, sp, #3740	; 0xe9c
  ba:	1d01      	adds	r1, r0, #4
  bc:	f10d 0e1c 	add.w	lr, sp, #28
  c0:	f50e 5081 	add.w	r0, lr, #4128	; 0x1020
  c4:	f44f 72ce 	mov.w	r2, #412	; 0x19c
  c8:	900d      	str	r0, [sp, #52]	; 0x34
  ca:	920c      	str	r2, [sp, #48]	; 0x30
  cc:	f7ff fffe 	bl	0 <__aeabi_memcpy4>
  d0:	f10d 0e18 	add.w	lr, sp, #24
  d4:	f50e 508e 	add.w	r0, lr, #4544	; 0x11c0
  d8:	900b      	str	r0, [sp, #44]	; 0x2c
  da:	990d      	ldr	r1, [sp, #52]	; 0x34
  dc:	9a0c      	ldr	r2, [sp, #48]	; 0x30
  de:	f7ff fffe 	bl	0 <__aeabi_memcpy4>
  e2:	f50d 6050 	add.w	r0, sp, #3328	; 0xd00
  e6:	990b      	ldr	r1, [sp, #44]	; 0x2c
  e8:	9a0c      	ldr	r2, [sp, #48]	; 0x30
  ea:	f7ff fffe 	bl	0 <__aeabi_memcpy4>
  ee:	f8dd 0e9c 	ldr.w	r0, [sp, #3740]	; 0xe9c
  f2:	2801      	cmp	r0, #1
  f4:	d033      	beq.n	15e <_ZN22piet_embedded_graphics5batch11draw_blocks17h76e692a8937a783bE+0x15e>
  f6:	e08a      	b.n	20e <_ZN22piet_embedded_graphics5batch11draw_blocks17h76e692a8937a783bE+0x20e>
  f8:	f60d 2068 	addw	r0, sp, #2664	; 0xa68
/Users/Luppy/PineTime/pinetime-rust-mynewt/rust/piet-embedded/piet-embedded-graphics/src/batch.rs:126
    }
  fc:	f7ff fffe 	bl	0 <_ZN4core3ptr18real_drop_in_place17h1b5b9201401842abE>
 100:	e029      	b.n	156 <_ZN22piet_embedded_graphics5batch11draw_blocks17h76e692a8937a783bE+0x156>
/Users/Luppy/PineTime/pinetime-rust-mynewt/rust/piet-embedded/piet-embedded-graphics/src/batch.rs:114
        display.set_pixels(
 102:	f50d 5e80 	add.w	lr, sp, #4096	; 0x1000
 106:	f89e 0513 	ldrb.w	r0, [lr, #1299]	; 0x513
 10a:	f7ff fffe 	bl	0 <_ZN73_$LT$core..result..Result$LT$T$C$E$GT$$u20$as$u20$core..ops..try..Try$GT$11into_result17h190a109881ebe95dE>
 10e:	f50d 5e80 	add.w	lr, sp, #4096	; 0x1000
 112:	f88e 0512 	strb.w	r0, [lr, #1298]	; 0x512
 116:	e7ff      	b.n	118 <_ZN22piet_embedded_graphics5batch11draw_blocks17h76e692a8937a783bE+0x118>
/Users/Luppy/PineTime/pinetime-rust-mynewt/rust/piet-embedded/piet-embedded-graphics/src/batch.rs:119
            colors) ? ;
 118:	f50d 5e80 	add.w	lr, sp, #4096	; 0x1000
 11c:	f89e 0512 	ldrb.w	r0, [lr, #1298]	; 0x512
 120:	07c1      	lsls	r1, r0, #31
 122:	2900      	cmp	r1, #0
 124:	d016      	beq.n	154 <_ZN22piet_embedded_graphics5batch11draw_blocks17h76e692a8937a783bE+0x154>
 126:	e7ff      	b.n	128 <_ZN22piet_embedded_graphics5batch11draw_blocks17h76e692a8937a783bE+0x128>
 128:	e000      	b.n	12c <_ZN22piet_embedded_graphics5batch11draw_blocks17h76e692a8937a783bE+0x12c>
/Users/Luppy/PineTime/pinetime-rust-mynewt/rust/piet-embedded/piet-embedded-graphics/src/batch.rs:114
        display.set_pixels(
 12a:	defe      	udf	#254	; 0xfe
/Users/Luppy/PineTime/pinetime-rust-mynewt/rust/piet-embedded/piet-embedded-graphics/src/batch.rs:119
            colors) ? ;
 12c:	f7ff fffe 	bl	0 <_ZN50_$LT$T$u20$as$u20$core..convert..From$LT$T$GT$$GT$4from17h3246e97bcee02cfcE>
 130:	e005      	b.n	13e <_ZN22piet_embedded_graphics5batch11draw_blocks17h76e692a8937a783bE+0x13e>
/Users/Luppy/PineTime/pinetime-rust-mynewt/rust/piet-embedded/piet-embedded-graphics/src/batch.rs:128
}
 132:	f89d 004b 	ldrb.w	r0, [sp, #75]	; 0x4b
 136:	f50d 5db5 	add.w	sp, sp, #5792	; 0x16a0
 13a:	b004      	add	sp, #16
 13c:	bdb0      	pop	{r4, r5, r7, pc}
/Users/Luppy/PineTime/pinetime-rust-mynewt/rust/piet-embedded/piet-embedded-graphics/src/batch.rs:119
            colors) ? ;
 13e:	f7ff fffe 	bl	0 <_ZN73_$LT$core..result..Result$LT$T$C$E$GT$$u20$as$u20$core..ops..try..Try$GT$10from_error17h77bc71430dc08530E>
 142:	f88d 004b 	strb.w	r0, [sp, #75]	; 0x4b
 146:	e7ff      	b.n	148 <_ZN22piet_embedded_graphics5batch11draw_blocks17h76e692a8937a783bE+0x148>
 148:	f60d 2068 	addw	r0, sp, #2664	; 0xa68
/Users/Luppy/PineTime/pinetime-rust-mynewt/rust/piet-embedded/piet-embedded-graphics/src/batch.rs:126
    }
 14c:	f7ff fffe 	bl	0 <_ZN4core3ptr18real_drop_in_place17h1b5b9201401842abE>
 150:	e7ff      	b.n	152 <_ZN22piet_embedded_graphics5batch11draw_blocks17h76e692a8937a783bE+0x152>
/Users/Luppy/PineTime/pinetime-rust-mynewt/rust/piet-embedded/piet-embedded-graphics/src/batch.rs:128
}
 152:	e7ee      	b.n	132 <_ZN22piet_embedded_graphics5batch11draw_blocks17h76e692a8937a783bE+0x132>
/Users/Luppy/PineTime/pinetime-rust-mynewt/rust/piet-embedded/piet-embedded-graphics/src/batch.rs:112
    for PixelBlock { x_left, x_right, y_top, y_bottom, colors, .. } in blocks {
 154:	e79c      	b.n	90 <_ZN22piet_embedded_graphics5batch11draw_blocks17h76e692a8937a783bE+0x90>
 156:	2000      	movs	r0, #0
/Users/Luppy/PineTime/pinetime-rust-mynewt/rust/piet-embedded/piet-embedded-graphics/src/batch.rs:127
    Ok(())
 158:	f88d 004b 	strb.w	r0, [sp, #75]	; 0x4b
/Users/Luppy/PineTime/pinetime-rust-mynewt/rust/piet-embedded/piet-embedded-graphics/src/batch.rs:128
}
 15c:	e7e9      	b.n	132 <_ZN22piet_embedded_graphics5batch11draw_blocks17h76e692a8937a783bE+0x132>
/Users/Luppy/PineTime/pinetime-rust-mynewt/rust/piet-embedded/piet-embedded-graphics/src/batch.rs:112
    for PixelBlock { x_left, x_right, y_top, y_bottom, colors, .. } in blocks {
 15e:	f8bd 0e94 	ldrh.w	r0, [sp, #3732]	; 0xe94
 162:	f50d 5e80 	add.w	lr, sp, #4096	; 0x1000
 166:	f8ae 0374 	strh.w	r0, [lr, #884]	; 0x374
 16a:	f8bd 0e96 	ldrh.w	r0, [sp, #3734]	; 0xe96
 16e:	f50d 5e80 	add.w	lr, sp, #4096	; 0x1000
 172:	f8ae 0376 	strh.w	r0, [lr, #886]	; 0x376
 176:	f8bd 0e98 	ldrh.w	r0, [sp, #3736]	; 0xe98
 17a:	f50d 5e80 	add.w	lr, sp, #4096	; 0x1000
 17e:	f8ae 0378 	strh.w	r0, [lr, #888]	; 0x378
 182:	f8bd 0e9a 	ldrh.w	r0, [sp, #3738]	; 0xe9a
 186:	f50d 5e80 	add.w	lr, sp, #4096	; 0x1000
 18a:	f8ae 037a 	strh.w	r0, [lr, #890]	; 0x37a
 18e:	f10d 0e1c 	add.w	lr, sp, #28
 192:	f50e 509b 	add.w	r0, lr, #4960	; 0x1360
 196:	f50d 6150 	add.w	r1, sp, #3328	; 0xd00
 19a:	f44f 72ca 	mov.w	r2, #404	; 0x194
 19e:	900a      	str	r0, [sp, #40]	; 0x28
 1a0:	9209      	str	r2, [sp, #36]	; 0x24
 1a2:	f7ff fffe 	bl	0 <__aeabi_memcpy4>
/Users/Luppy/PineTime/pinetime-rust-mynewt/rust/piet-embedded/piet-embedded-graphics/src/batch.rs:114
        display.set_pixels(
 1a6:	9811      	ldr	r0, [sp, #68]	; 0x44
 1a8:	f50d 5e80 	add.w	lr, sp, #4096	; 0x1000
 1ac:	f8be 3376 	ldrh.w	r3, [lr, #886]	; 0x376
 1b0:	f50d 5e80 	add.w	lr, sp, #4096	; 0x1000
 1b4:	f8be 2378 	ldrh.w	r2, [lr, #888]	; 0x378
 1b8:	f50d 5e80 	add.w	lr, sp, #4096	; 0x1000
 1bc:	f8be 1374 	ldrh.w	r1, [lr, #884]	; 0x374
 1c0:	f50d 5e80 	add.w	lr, sp, #4096	; 0x1000
 1c4:	f8be c37a 	ldrh.w	ip, [lr, #890]	; 0x37a
 1c8:	f10d 0e14 	add.w	lr, sp, #20
 1cc:	f50e 5ea8 	add.w	lr, lr, #5376	; 0x1500
/Users/Luppy/PineTime/pinetime-rust-mynewt/rust/piet-embedded/piet-embedded-graphics/src/batch.rs:119
            colors) ? ;
 1d0:	9008      	str	r0, [sp, #32]
 1d2:	4670      	mov	r0, lr
 1d4:	9c0a      	ldr	r4, [sp, #40]	; 0x28
 1d6:	9107      	str	r1, [sp, #28]
 1d8:	4621      	mov	r1, r4
 1da:	9d09      	ldr	r5, [sp, #36]	; 0x24
 1dc:	9206      	str	r2, [sp, #24]
 1de:	462a      	mov	r2, r5
 1e0:	9305      	str	r3, [sp, #20]
 1e2:	f8cd c010 	str.w	ip, [sp, #16]
 1e6:	f8cd e00c 	str.w	lr, [sp, #12]
 1ea:	f7ff fffe 	bl	0 <__aeabi_memcpy4>
/Users/Luppy/PineTime/pinetime-rust-mynewt/rust/piet-embedded/piet-embedded-graphics/src/batch.rs:114
        display.set_pixels(
 1ee:	4668      	mov	r0, sp
 1f0:	9903      	ldr	r1, [sp, #12]
 1f2:	6041      	str	r1, [r0, #4]
 1f4:	9a04      	ldr	r2, [sp, #16]
 1f6:	6002      	str	r2, [r0, #0]
 1f8:	9808      	ldr	r0, [sp, #32]
 1fa:	9907      	ldr	r1, [sp, #28]
 1fc:	9a06      	ldr	r2, [sp, #24]
 1fe:	9b05      	ldr	r3, [sp, #20]
 200:	f7ff fffe 	bl	0 <_ZN10st7735_lcd28ST7735$LT$SPI$C$DC$C$RST$GT$10set_pixels17he81da339547c4f09E>
 204:	f50d 5e80 	add.w	lr, sp, #4096	; 0x1000
 208:	f88e 0513 	strb.w	r0, [lr, #1299]	; 0x513
 20c:	e779      	b.n	102 <_ZN22piet_embedded_graphics5batch11draw_blocks17h76e692a8937a783bE+0x102>
 20e:	f60d 609c 	addw	r0, sp, #3740	; 0xe9c
/Users/Luppy/PineTime/pinetime-rust-mynewt/rust/piet-embedded/piet-embedded-graphics/src/batch.rs:112
    for PixelBlock { x_left, x_right, y_top, y_bottom, colors, .. } in blocks {
 212:	f7ff fffe 	bl	0 <_ZN4core3ptr18real_drop_in_place17hd992adae17c3a6d3E>
 216:	e7a2      	b.n	15e <_ZN22piet_embedded_graphics5batch11draw_blocks17h76e692a8937a783bE+0x15e>

Disassembly of section .text._ZN22piet_embedded_graphics5batch11draw_blocks17hc4ad7ca5e60facd2E:

00000000 <_ZN22piet_embedded_graphics5batch11draw_blocks17hc4ad7ca5e60facd2E>:
_ZN22piet_embedded_graphics5batch11draw_blocks17hc4ad7ca5e60facd2E():
/Users/Luppy/PineTime/pinetime-rust-mynewt/rust/piet-embedded/piet-embedded-graphics/src/batch.rs:99
pub fn draw_blocks<SPI, DC, RST, T>(display: &mut ST7735<SPI, DC, RST>, item_pixels: T) -> Result<(),()>
   0:	e92d 41f0 	stmdb	sp!, {r4, r5, r6, r7, r8, lr}
   4:	f5ad 5db4 	sub.w	sp, sp, #5760	; 0x1680
   8:	b082      	sub	sp, #8
   a:	9010      	str	r0, [sp, #64]	; 0x40
   c:	a81a      	add	r0, sp, #104	; 0x68
/Users/Luppy/PineTime/pinetime-rust-mynewt/rust/piet-embedded/piet-embedded-graphics/src/batch.rs:106
    let pixels = item_pixels.into_iter();
   e:	4602      	mov	r2, r0
  10:	e891 5078 	ldmia.w	r1, {r3, r4, r5, r6, ip, lr}
  14:	e882 5078 	stmia.w	r2, {r3, r4, r5, r6, ip, lr}
  18:	a912      	add	r1, sp, #72	; 0x48
  1a:	900f      	str	r0, [sp, #60]	; 0x3c
  1c:	4608      	mov	r0, r1
  1e:	990f      	ldr	r1, [sp, #60]	; 0x3c
  20:	f7ff fffe 	bl	0 <_ZN116_$LT$embedded_graphics..primitives..circle..Circle$LT$C$GT$$u20$as$u20$core..iter..traits..collect..IntoIterator$GT$9into_iter17h00871ecc2024299aE>
  24:	e7ff      	b.n	26 <_ZN22piet_embedded_graphics5batch11draw_blocks17hc4ad7ca5e60facd2E+0x26>
  26:	a812      	add	r0, sp, #72	; 0x48
  28:	a95d      	add	r1, sp, #372	; 0x174
/Users/Luppy/PineTime/pinetime-rust-mynewt/rust/piet-embedded/piet-embedded-graphics/src/batch.rs:108
    let rows = to_rows(pixels);
  2a:	460a      	mov	r2, r1
  2c:	e8b0 5018 	ldmia.w	r0!, {r3, r4, ip, lr}
  30:	e8a2 5018 	stmia.w	r2!, {r3, r4, ip, lr}
  34:	e890 5018 	ldmia.w	r0, {r3, r4, ip, lr}
  38:	e882 5018 	stmia.w	r2, {r3, r4, ip, lr}
  3c:	a820      	add	r0, sp, #128	; 0x80
  3e:	f7ff fffe 	bl	0 <_ZN22piet_embedded_graphics5batch11draw_blocks17hc4ad7ca5e60facd2E>
  42:	e7ff      	b.n	44 <_ZN22piet_embedded_graphics5batch11draw_blocks17hc4ad7ca5e60facd2E+0x44>
  44:	f50d 6085 	add.w	r0, sp, #1064	; 0x428
  48:	a920      	add	r1, sp, #128	; 0x80
  4a:	22f4      	movs	r2, #244	; 0xf4
/Users/Luppy/PineTime/pinetime-rust-mynewt/rust/piet-embedded/piet-embedded-graphics/src/batch.rs:110
    let blocks = to_blocks(rows);
  4c:	900e      	str	r0, [sp, #56]	; 0x38
  4e:	f7ff fffe 	bl	0 <__aeabi_memcpy4>
  52:	a865      	add	r0, sp, #404	; 0x194
  54:	990e      	ldr	r1, [sp, #56]	; 0x38
  56:	f7ff fffe 	bl	0 <_ZN22piet_embedded_graphics5batch11draw_blocks17hc4ad7ca5e60facd2E>
  5a:	e7ff      	b.n	5c <_ZN22piet_embedded_graphics5batch11draw_blocks17hc4ad7ca5e60facd2E+0x5c>
  5c:	f50d 60f6 	add.w	r0, sp, #1968	; 0x7b0
  60:	a965      	add	r1, sp, #404	; 0x194
  62:	f44f 7225 	mov.w	r2, #660	; 0x294
/Users/Luppy/PineTime/pinetime-rust-mynewt/rust/piet-embedded/piet-embedded-graphics/src/batch.rs:112
    for PixelBlock { x_left, x_right, y_top, y_bottom, colors, .. } in blocks {
  66:	900d      	str	r0, [sp, #52]	; 0x34
  68:	f7ff fffe 	bl	0 <__aeabi_memcpy4>
  6c:	f20d 501c 	addw	r0, sp, #1308	; 0x51c
  70:	990d      	ldr	r1, [sp, #52]	; 0x34
  72:	f7ff fffe 	bl	0 <_ZN22piet_embedded_graphics5batch11draw_blocks17hc4ad7ca5e60facd2E>
  76:	e7ff      	b.n	78 <_ZN22piet_embedded_graphics5batch11draw_blocks17hc4ad7ca5e60facd2E+0x78>
  78:	f60d 2044 	addw	r0, sp, #2628	; 0xa44
  7c:	f20d 511c 	addw	r1, sp, #1308	; 0x51c
  80:	f44f 7225 	mov.w	r2, #660	; 0x294
  84:	f7ff fffe 	bl	0 <__aeabi_memcpy4>
  88:	e7ff      	b.n	8a <_ZN22piet_embedded_graphics5batch11draw_blocks17hc4ad7ca5e60facd2E+0x8a>
  8a:	f60d 6074 	addw	r0, sp, #3700	; 0xe74
  8e:	f60d 2144 	addw	r1, sp, #2628	; 0xa44
  92:	f7ff fffe 	bl	0 <_ZN22piet_embedded_graphics5batch11draw_blocks17hc4ad7ca5e60facd2E>
  96:	e7ff      	b.n	98 <_ZN22piet_embedded_graphics5batch11draw_blocks17hc4ad7ca5e60facd2E+0x98>
  98:	f8dd 0e74 	ldr.w	r0, [sp, #3700]	; 0xe74
  9c:	2800      	cmp	r0, #0
  9e:	d001      	beq.n	a4 <_ZN22piet_embedded_graphics5batch11draw_blocks17hc4ad7ca5e60facd2E+0xa4>
  a0:	e7ff      	b.n	a2 <_ZN22piet_embedded_graphics5batch11draw_blocks17hc4ad7ca5e60facd2E+0xa2>
  a2:	e005      	b.n	b0 <_ZN22piet_embedded_graphics5batch11draw_blocks17hc4ad7ca5e60facd2E+0xb0>
  a4:	f60d 6074 	addw	r0, sp, #3700	; 0xe74
  a8:	f7ff fffe 	bl	0 <_ZN4core3ptr18real_drop_in_place17hd992adae17c3a6d3E>
  ac:	e021      	b.n	f2 <_ZN22piet_embedded_graphics5batch11draw_blocks17hc4ad7ca5e60facd2E+0xf2>
  ae:	defe      	udf	#254	; 0xfe
  b0:	f60d 6074 	addw	r0, sp, #3700	; 0xe74
  b4:	1d01      	adds	r1, r0, #4
  b6:	f10d 0e14 	add.w	lr, sp, #20
  ba:	f50e 5080 	add.w	r0, lr, #4096	; 0x1000
  be:	f44f 72ce 	mov.w	r2, #412	; 0x19c
  c2:	900c      	str	r0, [sp, #48]	; 0x30
  c4:	920b      	str	r2, [sp, #44]	; 0x2c
  c6:	f7ff fffe 	bl	0 <__aeabi_memcpy4>
  ca:	f10d 0e10 	add.w	lr, sp, #16
  ce:	f50e 508d 	add.w	r0, lr, #4512	; 0x11a0
  d2:	900a      	str	r0, [sp, #40]	; 0x28
  d4:	990c      	ldr	r1, [sp, #48]	; 0x30
  d6:	9a0b      	ldr	r2, [sp, #44]	; 0x2c
  d8:	f7ff fffe 	bl	0 <__aeabi_memcpy4>
  dc:	f60d 40d8 	addw	r0, sp, #3288	; 0xcd8
  e0:	990a      	ldr	r1, [sp, #40]	; 0x28
  e2:	9a0b      	ldr	r2, [sp, #44]	; 0x2c
  e4:	f7ff fffe 	bl	0 <__aeabi_memcpy4>
  e8:	f8dd 0e74 	ldr.w	r0, [sp, #3700]	; 0xe74
  ec:	2801      	cmp	r0, #1
  ee:	d034      	beq.n	15a <_ZN22piet_embedded_graphics5batch11draw_blocks17hc4ad7ca5e60facd2E+0x15a>
  f0:	e08b      	b.n	20a <_ZN22piet_embedded_graphics5batch11draw_blocks17hc4ad7ca5e60facd2E+0x20a>
  f2:	f60d 2044 	addw	r0, sp, #2628	; 0xa44
/Users/Luppy/PineTime/pinetime-rust-mynewt/rust/piet-embedded/piet-embedded-graphics/src/batch.rs:126
    }
  f6:	f7ff fffe 	bl	0 <_ZN4core3ptr18real_drop_in_place17hfd02acae2db49155E>
  fa:	e02a      	b.n	152 <_ZN22piet_embedded_graphics5batch11draw_blocks17hc4ad7ca5e60facd2E+0x152>
/Users/Luppy/PineTime/pinetime-rust-mynewt/rust/piet-embedded/piet-embedded-graphics/src/batch.rs:114
        display.set_pixels(
  fc:	f50d 5e80 	add.w	lr, sp, #4096	; 0x1000
 100:	f89e 04eb 	ldrb.w	r0, [lr, #1259]	; 0x4eb
 104:	f7ff fffe 	bl	0 <_ZN73_$LT$core..result..Result$LT$T$C$E$GT$$u20$as$u20$core..ops..try..Try$GT$11into_result17h190a109881ebe95dE>
 108:	f50d 5e80 	add.w	lr, sp, #4096	; 0x1000
 10c:	f88e 04ea 	strb.w	r0, [lr, #1258]	; 0x4ea
 110:	e7ff      	b.n	112 <_ZN22piet_embedded_graphics5batch11draw_blocks17hc4ad7ca5e60facd2E+0x112>
/Users/Luppy/PineTime/pinetime-rust-mynewt/rust/piet-embedded/piet-embedded-graphics/src/batch.rs:119
            colors) ? ;
 112:	f50d 5e80 	add.w	lr, sp, #4096	; 0x1000
 116:	f89e 04ea 	ldrb.w	r0, [lr, #1258]	; 0x4ea
 11a:	07c1      	lsls	r1, r0, #31
 11c:	2900      	cmp	r1, #0
 11e:	d017      	beq.n	150 <_ZN22piet_embedded_graphics5batch11draw_blocks17hc4ad7ca5e60facd2E+0x150>
 120:	e7ff      	b.n	122 <_ZN22piet_embedded_graphics5batch11draw_blocks17hc4ad7ca5e60facd2E+0x122>
 122:	e000      	b.n	126 <_ZN22piet_embedded_graphics5batch11draw_blocks17hc4ad7ca5e60facd2E+0x126>
/Users/Luppy/PineTime/pinetime-rust-mynewt/rust/piet-embedded/piet-embedded-graphics/src/batch.rs:114
        display.set_pixels(
 124:	defe      	udf	#254	; 0xfe
/Users/Luppy/PineTime/pinetime-rust-mynewt/rust/piet-embedded/piet-embedded-graphics/src/batch.rs:119
            colors) ? ;
 126:	f7ff fffe 	bl	0 <_ZN50_$LT$T$u20$as$u20$core..convert..From$LT$T$GT$$GT$4from17h3246e97bcee02cfcE>
 12a:	e006      	b.n	13a <_ZN22piet_embedded_graphics5batch11draw_blocks17hc4ad7ca5e60facd2E+0x13a>
/Users/Luppy/PineTime/pinetime-rust-mynewt/rust/piet-embedded/piet-embedded-graphics/src/batch.rs:128
}
 12c:	f89d 0047 	ldrb.w	r0, [sp, #71]	; 0x47
 130:	f50d 5db4 	add.w	sp, sp, #5760	; 0x1680
 134:	b002      	add	sp, #8
 136:	e8bd 81f0 	ldmia.w	sp!, {r4, r5, r6, r7, r8, pc}
/Users/Luppy/PineTime/pinetime-rust-mynewt/rust/piet-embedded/piet-embedded-graphics/src/batch.rs:119
            colors) ? ;
 13a:	f7ff fffe 	bl	0 <_ZN73_$LT$core..result..Result$LT$T$C$E$GT$$u20$as$u20$core..ops..try..Try$GT$10from_error17h77bc71430dc08530E>
 13e:	f88d 0047 	strb.w	r0, [sp, #71]	; 0x47
 142:	e7ff      	b.n	144 <_ZN22piet_embedded_graphics5batch11draw_blocks17hc4ad7ca5e60facd2E+0x144>
 144:	f60d 2044 	addw	r0, sp, #2628	; 0xa44
/Users/Luppy/PineTime/pinetime-rust-mynewt/rust/piet-embedded/piet-embedded-graphics/src/batch.rs:126
    }
 148:	f7ff fffe 	bl	0 <_ZN4core3ptr18real_drop_in_place17hfd02acae2db49155E>
 14c:	e7ff      	b.n	14e <_ZN22piet_embedded_graphics5batch11draw_blocks17hc4ad7ca5e60facd2E+0x14e>
/Users/Luppy/PineTime/pinetime-rust-mynewt/rust/piet-embedded/piet-embedded-graphics/src/batch.rs:128
}
 14e:	e7ed      	b.n	12c <_ZN22piet_embedded_graphics5batch11draw_blocks17hc4ad7ca5e60facd2E+0x12c>
/Users/Luppy/PineTime/pinetime-rust-mynewt/rust/piet-embedded/piet-embedded-graphics/src/batch.rs:112
    for PixelBlock { x_left, x_right, y_top, y_bottom, colors, .. } in blocks {
 150:	e79b      	b.n	8a <_ZN22piet_embedded_graphics5batch11draw_blocks17hc4ad7ca5e60facd2E+0x8a>
 152:	2000      	movs	r0, #0
/Users/Luppy/PineTime/pinetime-rust-mynewt/rust/piet-embedded/piet-embedded-graphics/src/batch.rs:127
    Ok(())
 154:	f88d 0047 	strb.w	r0, [sp, #71]	; 0x47
/Users/Luppy/PineTime/pinetime-rust-mynewt/rust/piet-embedded/piet-embedded-graphics/src/batch.rs:128
}
 158:	e7e8      	b.n	12c <_ZN22piet_embedded_graphics5batch11draw_blocks17hc4ad7ca5e60facd2E+0x12c>
/Users/Luppy/PineTime/pinetime-rust-mynewt/rust/piet-embedded/piet-embedded-graphics/src/batch.rs:112
    for PixelBlock { x_left, x_right, y_top, y_bottom, colors, .. } in blocks {
 15a:	f8bd 0e6c 	ldrh.w	r0, [sp, #3692]	; 0xe6c
 15e:	f50d 5e80 	add.w	lr, sp, #4096	; 0x1000
 162:	f8ae 034c 	strh.w	r0, [lr, #844]	; 0x34c
 166:	f8bd 0e6e 	ldrh.w	r0, [sp, #3694]	; 0xe6e
 16a:	f50d 5e80 	add.w	lr, sp, #4096	; 0x1000
 16e:	f8ae 034e 	strh.w	r0, [lr, #846]	; 0x34e
 172:	f8bd 0e70 	ldrh.w	r0, [sp, #3696]	; 0xe70
 176:	f50d 5e80 	add.w	lr, sp, #4096	; 0x1000
 17a:	f8ae 0350 	strh.w	r0, [lr, #848]	; 0x350
 17e:	f8bd 0e72 	ldrh.w	r0, [sp, #3698]	; 0xe72
 182:	f50d 5e80 	add.w	lr, sp, #4096	; 0x1000
 186:	f8ae 0352 	strh.w	r0, [lr, #850]	; 0x352
 18a:	f10d 0e14 	add.w	lr, sp, #20
 18e:	f50e 509a 	add.w	r0, lr, #4928	; 0x1340
 192:	f60d 41d8 	addw	r1, sp, #3288	; 0xcd8
 196:	f44f 72ca 	mov.w	r2, #404	; 0x194
 19a:	9009      	str	r0, [sp, #36]	; 0x24
 19c:	9208      	str	r2, [sp, #32]
 19e:	f7ff fffe 	bl	0 <__aeabi_memcpy4>
/Users/Luppy/PineTime/pinetime-rust-mynewt/rust/piet-embedded/piet-embedded-graphics/src/batch.rs:114
        display.set_pixels(
 1a2:	9810      	ldr	r0, [sp, #64]	; 0x40
 1a4:	f50d 5e80 	add.w	lr, sp, #4096	; 0x1000
 1a8:	f8be 334e 	ldrh.w	r3, [lr, #846]	; 0x34e
 1ac:	f50d 5e80 	add.w	lr, sp, #4096	; 0x1000
 1b0:	f8be 2350 	ldrh.w	r2, [lr, #848]	; 0x350
 1b4:	f50d 5e80 	add.w	lr, sp, #4096	; 0x1000
 1b8:	f8be 134c 	ldrh.w	r1, [lr, #844]	; 0x34c
 1bc:	f50d 5e80 	add.w	lr, sp, #4096	; 0x1000
 1c0:	f8be c352 	ldrh.w	ip, [lr, #850]	; 0x352
 1c4:	f10d 0e0c 	add.w	lr, sp, #12
 1c8:	f50e 5ea7 	add.w	lr, lr, #5344	; 0x14e0
/Users/Luppy/PineTime/pinetime-rust-mynewt/rust/piet-embedded/piet-embedded-graphics/src/batch.rs:119
            colors) ? ;
 1cc:	9007      	str	r0, [sp, #28]
 1ce:	4670      	mov	r0, lr
 1d0:	9c09      	ldr	r4, [sp, #36]	; 0x24
 1d2:	9106      	str	r1, [sp, #24]
 1d4:	4621      	mov	r1, r4
 1d6:	9d08      	ldr	r5, [sp, #32]
 1d8:	9205      	str	r2, [sp, #20]
 1da:	462a      	mov	r2, r5
 1dc:	9304      	str	r3, [sp, #16]
 1de:	f8cd c00c 	str.w	ip, [sp, #12]
 1e2:	f8cd e008 	str.w	lr, [sp, #8]
 1e6:	f7ff fffe 	bl	0 <__aeabi_memcpy4>
/Users/Luppy/PineTime/pinetime-rust-mynewt/rust/piet-embedded/piet-embedded-graphics/src/batch.rs:114
        display.set_pixels(
 1ea:	4668      	mov	r0, sp
 1ec:	9902      	ldr	r1, [sp, #8]
 1ee:	6041      	str	r1, [r0, #4]
 1f0:	9a03      	ldr	r2, [sp, #12]
 1f2:	6002      	str	r2, [r0, #0]
 1f4:	9807      	ldr	r0, [sp, #28]
 1f6:	9906      	ldr	r1, [sp, #24]
 1f8:	9a05      	ldr	r2, [sp, #20]
 1fa:	9b04      	ldr	r3, [sp, #16]
 1fc:	f7ff fffe 	bl	0 <_ZN10st7735_lcd28ST7735$LT$SPI$C$DC$C$RST$GT$10set_pixels17he81da339547c4f09E>
 200:	f50d 5e80 	add.w	lr, sp, #4096	; 0x1000
 204:	f88e 04eb 	strb.w	r0, [lr, #1259]	; 0x4eb
 208:	e778      	b.n	fc <_ZN22piet_embedded_graphics5batch11draw_blocks17hc4ad7ca5e60facd2E+0xfc>
 20a:	f60d 6074 	addw	r0, sp, #3700	; 0xe74
/Users/Luppy/PineTime/pinetime-rust-mynewt/rust/piet-embedded/piet-embedded-graphics/src/batch.rs:112
    for PixelBlock { x_left, x_right, y_top, y_bottom, colors, .. } in blocks {
 20e:	f7ff fffe 	bl	0 <_ZN4core3ptr18real_drop_in_place17hd992adae17c3a6d3E>
 212:	e7a2      	b.n	15a <_ZN22piet_embedded_graphics5batch11draw_blocks17hc4ad7ca5e60facd2E+0x15a>

Disassembly of section .text._ZN22piet_embedded_graphics5batch7to_rows17h7673781c07eb658fE:

00000000 <_ZN22piet_embedded_graphics5batch7to_rows17h7673781c07eb658fE>:
_ZN22piet_embedded_graphics5batch7to_rows17h7673781c07eb658fE():
/Users/Luppy/PineTime/pinetime-rust-mynewt/rust/piet-embedded/piet-embedded-graphics/src/batch.rs:132
fn to_rows<P>(pixels: P) -> RowIterator<P>
   0:	b510      	push	{r4, lr}
   2:	b0bc      	sub	sp, #240	; 0xf0
   4:	aa01      	add	r2, sp, #4
/Users/Luppy/PineTime/pinetime-rust-mynewt/rust/piet-embedded/piet-embedded-graphics/src/batch.rs:136
        pixels,
   6:	e8b1 5018 	ldmia.w	r1!, {r3, r4, ip, lr}
   a:	e8a2 5018 	stmia.w	r2!, {r3, r4, ip, lr}
   e:	e891 5018 	ldmia.w	r1, {r3, r4, ip, lr}
  12:	e882 5018 	stmia.w	r2, {r3, r4, ip, lr}
  16:	a909      	add	r1, sp, #36	; 0x24
/Users/Luppy/PineTime/pinetime-rust-mynewt/rust/piet-embedded/piet-embedded-graphics/src/batch.rs:140
        colors: RowColors::new(),
  18:	9000      	str	r0, [sp, #0]
  1a:	4608      	mov	r0, r1
  1c:	f7ff fffe 	bl	0 <_ZN8heapless3vec16Vec$LT$T$C$N$GT$3new17h2de058a16b3a9b38E>
  20:	e7ff      	b.n	22 <_ZN22piet_embedded_graphics5batch7to_rows17h7673781c07eb658fE+0x22>
  22:	a801      	add	r0, sp, #4
/Users/Luppy/PineTime/pinetime-rust-mynewt/rust/piet-embedded/piet-embedded-graphics/src/batch.rs:135
    RowIterator::<P> {
  24:	9900      	ldr	r1, [sp, #0]
  26:	e8b0 500c 	ldmia.w	r0!, {r2, r3, ip, lr}
  2a:	e8a1 500c 	stmia.w	r1!, {r2, r3, ip, lr}
  2e:	e890 500c 	ldmia.w	r0, {r2, r3, ip, lr}
  32:	e881 500c 	stmia.w	r1, {r2, r3, ip, lr}
  36:	2000      	movs	r0, #0
  38:	9900      	ldr	r1, [sp, #0]
  3a:	f8a1 00ec 	strh.w	r0, [r1, #236]	; 0xec
  3e:	f8a1 00ee 	strh.w	r0, [r1, #238]	; 0xee
  42:	f8a1 00f0 	strh.w	r0, [r1, #240]	; 0xf0
  46:	f101 0020 	add.w	r0, r1, #32
  4a:	a909      	add	r1, sp, #36	; 0x24
  4c:	22cc      	movs	r2, #204	; 0xcc
  4e:	f7ff fffe 	bl	0 <__aeabi_memcpy4>
  52:	2001      	movs	r0, #1
  54:	9900      	ldr	r1, [sp, #0]
  56:	f881 00f2 	strb.w	r0, [r1, #242]	; 0xf2
/Users/Luppy/PineTime/pinetime-rust-mynewt/rust/piet-embedded/piet-embedded-graphics/src/batch.rs:143
}
  5a:	b03c      	add	sp, #240	; 0xf0
  5c:	bd10      	pop	{r4, pc}

Disassembly of section .text._ZN22piet_embedded_graphics5batch7to_rows17h821c84a848ec817fE:

00000000 <_ZN22piet_embedded_graphics5batch7to_rows17h821c84a848ec817fE>:
_ZN22piet_embedded_graphics5batch7to_rows17h821c84a848ec817fE():
/Users/Luppy/PineTime/pinetime-rust-mynewt/rust/piet-embedded/piet-embedded-graphics/src/batch.rs:132
fn to_rows<P>(pixels: P) -> RowIterator<P>
   0:	b5b0      	push	{r4, r5, r7, lr}
   2:	b0be      	sub	sp, #248	; 0xf8
   4:	aa02      	add	r2, sp, #8
/Users/Luppy/PineTime/pinetime-rust-mynewt/rust/piet-embedded/piet-embedded-graphics/src/batch.rs:136
        pixels,
   6:	e8b1 5018 	ldmia.w	r1!, {r3, r4, ip, lr}
   a:	e8a2 5018 	stmia.w	r2!, {r3, r4, ip, lr}
   e:	e891 5038 	ldmia.w	r1, {r3, r4, r5, ip, lr}
  12:	e882 5038 	stmia.w	r2, {r3, r4, r5, ip, lr}
  16:	a90b      	add	r1, sp, #44	; 0x2c
/Users/Luppy/PineTime/pinetime-rust-mynewt/rust/piet-embedded/piet-embedded-graphics/src/batch.rs:140
        colors: RowColors::new(),
  18:	9001      	str	r0, [sp, #4]
  1a:	4608      	mov	r0, r1
  1c:	f7ff fffe 	bl	0 <_ZN8heapless3vec16Vec$LT$T$C$N$GT$3new17h2de058a16b3a9b38E>
  20:	e7ff      	b.n	22 <_ZN22piet_embedded_graphics5batch7to_rows17h821c84a848ec817fE+0x22>
  22:	a802      	add	r0, sp, #8
/Users/Luppy/PineTime/pinetime-rust-mynewt/rust/piet-embedded/piet-embedded-graphics/src/batch.rs:135
    RowIterator::<P> {
  24:	9901      	ldr	r1, [sp, #4]
  26:	e8b0 500c 	ldmia.w	r0!, {r2, r3, ip, lr}
  2a:	e8a1 500c 	stmia.w	r1!, {r2, r3, ip, lr}
  2e:	e890 501c 	ldmia.w	r0, {r2, r3, r4, ip, lr}
  32:	e881 501c 	stmia.w	r1, {r2, r3, r4, ip, lr}
  36:	2000      	movs	r0, #0
  38:	9901      	ldr	r1, [sp, #4]
  3a:	f8a1 00f0 	strh.w	r0, [r1, #240]	; 0xf0
  3e:	f8a1 00f2 	strh.w	r0, [r1, #242]	; 0xf2
  42:	f8a1 00f4 	strh.w	r0, [r1, #244]	; 0xf4
  46:	f101 0024 	add.w	r0, r1, #36	; 0x24
  4a:	a90b      	add	r1, sp, #44	; 0x2c
  4c:	22cc      	movs	r2, #204	; 0xcc
  4e:	f7ff fffe 	bl	0 <__aeabi_memcpy4>
  52:	2001      	movs	r0, #1
  54:	9901      	ldr	r1, [sp, #4]
  56:	f881 00f6 	strb.w	r0, [r1, #246]	; 0xf6
/Users/Luppy/PineTime/pinetime-rust-mynewt/rust/piet-embedded/piet-embedded-graphics/src/batch.rs:143
}
  5a:	b03e      	add	sp, #248	; 0xf8
  5c:	bdb0      	pop	{r4, r5, r7, pc}

Disassembly of section .text._ZN22piet_embedded_graphics5batch7to_rows17hf8a2a70c4417ea6dE:

00000000 <_ZN22piet_embedded_graphics5batch7to_rows17hf8a2a70c4417ea6dE>:
_ZN22piet_embedded_graphics5batch7to_rows17hf8a2a70c4417ea6dE():
/Users/Luppy/PineTime/pinetime-rust-mynewt/rust/piet-embedded/piet-embedded-graphics/src/batch.rs:132
fn to_rows<P>(pixels: P) -> RowIterator<P>
   0:	b570      	push	{r4, r5, r6, lr}
   2:	b0c0      	sub	sp, #256	; 0x100
   4:	aa02      	add	r2, sp, #8
/Users/Luppy/PineTime/pinetime-rust-mynewt/rust/piet-embedded/piet-embedded-graphics/src/batch.rs:136
        pixels,
   6:	e8b1 5038 	ldmia.w	r1!, {r3, r4, r5, ip, lr}
   a:	e8a2 5038 	stmia.w	r2!, {r3, r4, r5, ip, lr}
   e:	e891 5078 	ldmia.w	r1, {r3, r4, r5, r6, ip, lr}
  12:	e882 5078 	stmia.w	r2, {r3, r4, r5, r6, ip, lr}
  16:	a90d      	add	r1, sp, #52	; 0x34
/Users/Luppy/PineTime/pinetime-rust-mynewt/rust/piet-embedded/piet-embedded-graphics/src/batch.rs:140
        colors: RowColors::new(),
  18:	9001      	str	r0, [sp, #4]
  1a:	4608      	mov	r0, r1
  1c:	f7ff fffe 	bl	0 <_ZN8heapless3vec16Vec$LT$T$C$N$GT$3new17h2de058a16b3a9b38E>
  20:	e7ff      	b.n	22 <_ZN22piet_embedded_graphics5batch7to_rows17hf8a2a70c4417ea6dE+0x22>
  22:	a802      	add	r0, sp, #8
/Users/Luppy/PineTime/pinetime-rust-mynewt/rust/piet-embedded/piet-embedded-graphics/src/batch.rs:135
    RowIterator::<P> {
  24:	9901      	ldr	r1, [sp, #4]
  26:	e8b0 501c 	ldmia.w	r0!, {r2, r3, r4, ip, lr}
  2a:	e8a1 501c 	stmia.w	r1!, {r2, r3, r4, ip, lr}
  2e:	e890 503c 	ldmia.w	r0, {r2, r3, r4, r5, ip, lr}
  32:	e881 503c 	stmia.w	r1, {r2, r3, r4, r5, ip, lr}
  36:	2000      	movs	r0, #0
  38:	9901      	ldr	r1, [sp, #4]
  3a:	f8a1 00f8 	strh.w	r0, [r1, #248]	; 0xf8
  3e:	f8a1 00fa 	strh.w	r0, [r1, #250]	; 0xfa
  42:	f8a1 00fc 	strh.w	r0, [r1, #252]	; 0xfc
  46:	f101 002c 	add.w	r0, r1, #44	; 0x2c
  4a:	a90d      	add	r1, sp, #52	; 0x34
  4c:	22cc      	movs	r2, #204	; 0xcc
  4e:	f7ff fffe 	bl	0 <__aeabi_memcpy4>
  52:	2001      	movs	r0, #1
  54:	9901      	ldr	r1, [sp, #4]
  56:	f881 00fe 	strb.w	r0, [r1, #254]	; 0xfe
/Users/Luppy/PineTime/pinetime-rust-mynewt/rust/piet-embedded/piet-embedded-graphics/src/batch.rs:143
}
  5a:	b040      	add	sp, #256	; 0x100
  5c:	bd70      	pop	{r4, r5, r6, pc}

Disassembly of section .text._ZN22piet_embedded_graphics5batch9to_blocks17h3a57e69ac3bf6409E:

00000000 <_ZN22piet_embedded_graphics5batch9to_blocks17h3a57e69ac3bf6409E>:
_ZN22piet_embedded_graphics5batch9to_blocks17h3a57e69ac3bf6409E():
/Users/Luppy/PineTime/pinetime-rust-mynewt/rust/piet-embedded/piet-embedded-graphics/src/batch.rs:147
fn to_blocks<R>(rows: R) -> BlockIterator<R>
   0:	b580      	push	{r7, lr}
   2:	f5ad 7d24 	sub.w	sp, sp, #656	; 0x290
   6:	aa01      	add	r2, sp, #4
   8:	23f8      	movs	r3, #248	; 0xf8
/Users/Luppy/PineTime/pinetime-rust-mynewt/rust/piet-embedded/piet-embedded-graphics/src/batch.rs:151
        rows,
   a:	9000      	str	r0, [sp, #0]
   c:	4610      	mov	r0, r2
   e:	461a      	mov	r2, r3
  10:	f7ff fffe 	bl	0 <__aeabi_memcpy4>
  14:	a83f      	add	r0, sp, #252	; 0xfc
/Users/Luppy/PineTime/pinetime-rust-mynewt/rust/piet-embedded/piet-embedded-graphics/src/batch.rs:156
        colors: BlockColors::new(),
  16:	f7ff fffe 	bl	0 <_ZN8heapless3vec16Vec$LT$T$C$N$GT$3new17h5ac6dca824738de3E>
  1a:	e7ff      	b.n	1c <_ZN22piet_embedded_graphics5batch9to_blocks17h3a57e69ac3bf6409E+0x1c>
  1c:	a901      	add	r1, sp, #4
  1e:	22f8      	movs	r2, #248	; 0xf8
/Users/Luppy/PineTime/pinetime-rust-mynewt/rust/piet-embedded/piet-embedded-graphics/src/batch.rs:150
    BlockIterator::<R> {
  20:	9800      	ldr	r0, [sp, #0]
  22:	f7ff fffe 	bl	0 <__aeabi_memcpy4>
  26:	2000      	movs	r0, #0
  28:	9900      	ldr	r1, [sp, #0]
  2a:	f8a1 028c 	strh.w	r0, [r1, #652]	; 0x28c
  2e:	f8a1 028e 	strh.w	r0, [r1, #654]	; 0x28e
  32:	f8a1 0290 	strh.w	r0, [r1, #656]	; 0x290
  36:	f8a1 0292 	strh.w	r0, [r1, #658]	; 0x292
  3a:	f101 00f8 	add.w	r0, r1, #248	; 0xf8
  3e:	a93f      	add	r1, sp, #252	; 0xfc
  40:	f44f 72ca 	mov.w	r2, #404	; 0x194
  44:	f7ff fffe 	bl	0 <__aeabi_memcpy4>
  48:	2001      	movs	r0, #1
  4a:	9900      	ldr	r1, [sp, #0]
  4c:	f881 0294 	strb.w	r0, [r1, #660]	; 0x294
/Users/Luppy/PineTime/pinetime-rust-mynewt/rust/piet-embedded/piet-embedded-graphics/src/batch.rs:159
}    
  50:	f50d 7d24 	add.w	sp, sp, #656	; 0x290
  54:	bd80      	pop	{r7, pc}

Disassembly of section .text._ZN22piet_embedded_graphics5batch9to_blocks17h46269434bd8a38f1E:

00000000 <_ZN22piet_embedded_graphics5batch9to_blocks17h46269434bd8a38f1E>:
_ZN22piet_embedded_graphics5batch9to_blocks17h46269434bd8a38f1E():
/Users/Luppy/PineTime/pinetime-rust-mynewt/rust/piet-embedded/piet-embedded-graphics/src/batch.rs:147
fn to_blocks<R>(rows: R) -> BlockIterator<R>
   0:	b580      	push	{r7, lr}
   2:	f5ad 7d26 	sub.w	sp, sp, #664	; 0x298
   6:	aa01      	add	r2, sp, #4
   8:	f44f 7380 	mov.w	r3, #256	; 0x100
/Users/Luppy/PineTime/pinetime-rust-mynewt/rust/piet-embedded/piet-embedded-graphics/src/batch.rs:151
        rows,
   c:	9000      	str	r0, [sp, #0]
   e:	4610      	mov	r0, r2
  10:	461a      	mov	r2, r3
  12:	f7ff fffe 	bl	0 <__aeabi_memcpy4>
  16:	a841      	add	r0, sp, #260	; 0x104
/Users/Luppy/PineTime/pinetime-rust-mynewt/rust/piet-embedded/piet-embedded-graphics/src/batch.rs:156
        colors: BlockColors::new(),
  18:	f7ff fffe 	bl	0 <_ZN8heapless3vec16Vec$LT$T$C$N$GT$3new17h5ac6dca824738de3E>
  1c:	e7ff      	b.n	1e <_ZN22piet_embedded_graphics5batch9to_blocks17h46269434bd8a38f1E+0x1e>
  1e:	a901      	add	r1, sp, #4
  20:	f44f 7280 	mov.w	r2, #256	; 0x100
/Users/Luppy/PineTime/pinetime-rust-mynewt/rust/piet-embedded/piet-embedded-graphics/src/batch.rs:150
    BlockIterator::<R> {
  24:	9800      	ldr	r0, [sp, #0]
  26:	f7ff fffe 	bl	0 <__aeabi_memcpy4>
  2a:	2000      	movs	r0, #0
  2c:	9900      	ldr	r1, [sp, #0]
  2e:	f8a1 0294 	strh.w	r0, [r1, #660]	; 0x294
  32:	f8a1 0296 	strh.w	r0, [r1, #662]	; 0x296
  36:	f8a1 0298 	strh.w	r0, [r1, #664]	; 0x298
  3a:	f8a1 029a 	strh.w	r0, [r1, #666]	; 0x29a
  3e:	f501 7080 	add.w	r0, r1, #256	; 0x100
  42:	a941      	add	r1, sp, #260	; 0x104
  44:	f44f 72ca 	mov.w	r2, #404	; 0x194
  48:	f7ff fffe 	bl	0 <__aeabi_memcpy4>
  4c:	2001      	movs	r0, #1
  4e:	9900      	ldr	r1, [sp, #0]
  50:	f881 029c 	strb.w	r0, [r1, #668]	; 0x29c
/Users/Luppy/PineTime/pinetime-rust-mynewt/rust/piet-embedded/piet-embedded-graphics/src/batch.rs:159
}    
  54:	f50d 7d26 	add.w	sp, sp, #664	; 0x298
  58:	bd80      	pop	{r7, pc}

Disassembly of section .text._ZN22piet_embedded_graphics5batch9to_blocks17h8dea47394b1ee6bbE:

00000000 <_ZN22piet_embedded_graphics5batch9to_blocks17h8dea47394b1ee6bbE>:
_ZN22piet_embedded_graphics5batch9to_blocks17h8dea47394b1ee6bbE():
/Users/Luppy/PineTime/pinetime-rust-mynewt/rust/piet-embedded/piet-embedded-graphics/src/batch.rs:147
fn to_blocks<R>(rows: R) -> BlockIterator<R>
   0:	b580      	push	{r7, lr}
   2:	f5ad 7d24 	sub.w	sp, sp, #656	; 0x290
   6:	aa02      	add	r2, sp, #8
   8:	23f4      	movs	r3, #244	; 0xf4
/Users/Luppy/PineTime/pinetime-rust-mynewt/rust/piet-embedded/piet-embedded-graphics/src/batch.rs:151
        rows,
   a:	9001      	str	r0, [sp, #4]
   c:	4610      	mov	r0, r2
   e:	461a      	mov	r2, r3
  10:	f7ff fffe 	bl	0 <__aeabi_memcpy4>
  14:	a83f      	add	r0, sp, #252	; 0xfc
/Users/Luppy/PineTime/pinetime-rust-mynewt/rust/piet-embedded/piet-embedded-graphics/src/batch.rs:156
        colors: BlockColors::new(),
  16:	f7ff fffe 	bl	0 <_ZN8heapless3vec16Vec$LT$T$C$N$GT$3new17h5ac6dca824738de3E>
  1a:	e7ff      	b.n	1c <_ZN22piet_embedded_graphics5batch9to_blocks17h8dea47394b1ee6bbE+0x1c>
  1c:	a902      	add	r1, sp, #8
  1e:	22f4      	movs	r2, #244	; 0xf4
/Users/Luppy/PineTime/pinetime-rust-mynewt/rust/piet-embedded/piet-embedded-graphics/src/batch.rs:150
    BlockIterator::<R> {
  20:	9801      	ldr	r0, [sp, #4]
  22:	f7ff fffe 	bl	0 <__aeabi_memcpy4>
  26:	2000      	movs	r0, #0
  28:	9901      	ldr	r1, [sp, #4]
  2a:	f8a1 0288 	strh.w	r0, [r1, #648]	; 0x288
  2e:	f8a1 028a 	strh.w	r0, [r1, #650]	; 0x28a
  32:	f8a1 028c 	strh.w	r0, [r1, #652]	; 0x28c
  36:	f8a1 028e 	strh.w	r0, [r1, #654]	; 0x28e
  3a:	f101 00f4 	add.w	r0, r1, #244	; 0xf4
  3e:	a93f      	add	r1, sp, #252	; 0xfc
  40:	f44f 72ca 	mov.w	r2, #404	; 0x194
  44:	f7ff fffe 	bl	0 <__aeabi_memcpy4>
  48:	2001      	movs	r0, #1
  4a:	9901      	ldr	r1, [sp, #4]
  4c:	f881 0290 	strb.w	r0, [r1, #656]	; 0x290
/Users/Luppy/PineTime/pinetime-rust-mynewt/rust/piet-embedded/piet-embedded-graphics/src/batch.rs:159
}    
  50:	f50d 7d24 	add.w	sp, sp, #656	; 0x290
  54:	bd80      	pop	{r7, pc}

Disassembly of section .text._ZN63_$LT$I$u20$as$u20$core..iter..traits..collect..IntoIterator$GT$9into_iter17hb4ca1b39bcbe92c8E:

00000000 <_ZN63_$LT$I$u20$as$u20$core..iter..traits..collect..IntoIterator$GT$9into_iter17hb4ca1b39bcbe92c8E>:
_ZN63_$LT$I$u20$as$u20$core..iter..traits..collect..IntoIterator$GT$9into_iter17hb4ca1b39bcbe92c8E():
/rustc/412f43ac5b4ae8c3599e71c6972112e9be4758fa/src/libcore/iter/traits/collect.rs:247
   0:	b580      	push	{r7, lr}
   2:	f44f 7225 	mov.w	r2, #660	; 0x294
/rustc/412f43ac5b4ae8c3599e71c6972112e9be4758fa/src/libcore/iter/traits/collect.rs:248
   6:	f7ff fffe 	bl	0 <__aeabi_memcpy4>
/rustc/412f43ac5b4ae8c3599e71c6972112e9be4758fa/src/libcore/iter/traits/collect.rs:249
   a:	bd80      	pop	{r7, pc}

Disassembly of section .text._ZN63_$LT$I$u20$as$u20$core..iter..traits..collect..IntoIterator$GT$9into_iter17hbe2d7d57d24ae4ddE:

00000000 <_ZN63_$LT$I$u20$as$u20$core..iter..traits..collect..IntoIterator$GT$9into_iter17hbe2d7d57d24ae4ddE>:
_ZN63_$LT$I$u20$as$u20$core..iter..traits..collect..IntoIterator$GT$9into_iter17hbe2d7d57d24ae4ddE():
/rustc/412f43ac5b4ae8c3599e71c6972112e9be4758fa/src/libcore/iter/traits/collect.rs:247
   0:	b580      	push	{r7, lr}
   2:	f44f 7228 	mov.w	r2, #672	; 0x2a0
/rustc/412f43ac5b4ae8c3599e71c6972112e9be4758fa/src/libcore/iter/traits/collect.rs:248
   6:	f7ff fffe 	bl	0 <__aeabi_memcpy4>
/rustc/412f43ac5b4ae8c3599e71c6972112e9be4758fa/src/libcore/iter/traits/collect.rs:249
   a:	bd80      	pop	{r7, pc}

Disassembly of section .text._ZN63_$LT$I$u20$as$u20$core..iter..traits..collect..IntoIterator$GT$9into_iter17hcb5e406e5114c0f2E:

00000000 <_ZN63_$LT$I$u20$as$u20$core..iter..traits..collect..IntoIterator$GT$9into_iter17hcb5e406e5114c0f2E>:
_ZN63_$LT$I$u20$as$u20$core..iter..traits..collect..IntoIterator$GT$9into_iter17hcb5e406e5114c0f2E():
/rustc/412f43ac5b4ae8c3599e71c6972112e9be4758fa/src/libcore/iter/traits/collect.rs:247
   0:	b580      	push	{r7, lr}
   2:	f44f 7226 	mov.w	r2, #664	; 0x298
/rustc/412f43ac5b4ae8c3599e71c6972112e9be4758fa/src/libcore/iter/traits/collect.rs:248
   6:	f7ff fffe 	bl	0 <__aeabi_memcpy4>
/rustc/412f43ac5b4ae8c3599e71c6972112e9be4758fa/src/libcore/iter/traits/collect.rs:249
   a:	bd80      	pop	{r7, pc}

app-d559bf047a1af437.3zwigjxdmcppzxea.rcgu.o:     file format elf32-littlearm

SYMBOL TABLE:
00000000 l    df *ABS*	00000000 3zwigjxdmcppzxea
00000310 l       .debug_str	00000000 
000002f7 l       .debug_str	00000000 
000002fb l       .debug_str	00000000 
00000303 l       .debug_str	00000000 
00000308 l       .debug_str	00000000 
00000315 l       .debug_str	00000000 
00000323 l       .debug_str	00000000 
00000329 l       .debug_str	00000000 
0000032e l       .debug_str	00000000 
00000333 l       .debug_str	00000000 
00000343 l       .debug_str	00000000 
00000347 l       .debug_str	00000000 
00000353 l       .debug_str	00000000 
00000374 l       .debug_str	00000000 
00000378 l       .debug_str	00000000 
0000037a l       .debug_str	00000000 
00000384 l       .debug_str	00000000 
00000388 l       .debug_str	00000000 
0000038b l       .debug_str	00000000 
00000390 l       .debug_str	00000000 
00000399 l       .debug_str	00000000 
000003a7 l       .debug_str	00000000 
000003b9 l       .debug_str	00000000 
000003cd l       .debug_str	00000000 
000003d1 l       .debug_str	00000000 
000003da l       .debug_str	00000000 
00000000 l       .debug_str	00000000 
00000041 l       .debug_str	00000000 
00000055 l       .debug_str	00000000 
00000080 l       .debug_str	00000000 
00000087 l       .debug_str	00000000 
0000008e l       .debug_str	00000000 
00000092 l       .debug_str	00000000 
0000009a l       .debug_str	00000000 
000000a5 l       .debug_str	00000000 
000000b0 l       .debug_str	00000000 
000000bd l       .debug_str	00000000 
000000c8 l       .debug_str	00000000 
000000d0 l       .debug_str	00000000 
000000db l       .debug_str	00000000 
000000e6 l       .debug_str	00000000 
000000f0 l       .debug_str	00000000 
000000fb l       .debug_str	00000000 
00000106 l       .debug_str	00000000 
00000113 l       .debug_str	00000000 
0000011f l       .debug_str	00000000 
0000012c l       .debug_str	00000000 
0000013a l       .debug_str	00000000 
00000144 l       .debug_str	00000000 
00000151 l       .debug_str	00000000 
0000015d l       .debug_str	00000000 
00000161 l       .debug_str	00000000 
0000016d l       .debug_str	00000000 
00000172 l       .debug_str	00000000 
00000176 l       .debug_str	00000000 
0000017f l       .debug_str	00000000 
000001c0 l       .debug_str	00000000 
000001c9 l       .debug_str	00000000 
000001d2 l       .debug_str	00000000 
000001d5 l       .debug_str	00000000 
000001df l       .debug_str	00000000 
000001e6 l       .debug_str	00000000 
000001ec l       .debug_str	00000000 
000001f2 l       .debug_str	00000000 
000001f7 l       .debug_str	00000000 
000001fc l       .debug_str	00000000 
0000023c l       .debug_str	00000000 
00000252 l       .debug_str	00000000 
00000256 l       .debug_str	00000000 
00000259 l       .debug_str	00000000 
0000025d l       .debug_str	00000000 
00000260 l       .debug_str	00000000 
00000262 l       .debug_str	00000000 
00000264 l       .debug_str	00000000 
00000268 l       .debug_str	00000000 
00000290 l       .debug_str	00000000 
000002cb l       .debug_str	00000000 
000002dc l       .debug_str	00000000 
000002e9 l       .debug_str	00000000 
000002ec l       .debug_str	00000000 
000002f3 l       .debug_str	00000000 
00000000 l     O .rodata..Lanon.299df6b3df0beae913f8581bde916f31.0	00000017 .Lanon.299df6b3df0beae913f8581bde916f31.0
00000000 l     O .rodata..Lanon.299df6b3df0beae913f8581bde916f31.1	00000001 .Lanon.299df6b3df0beae913f8581bde916f31.1
00000000 l     O .rodata..Lanon.299df6b3df0beae913f8581bde916f31.10	00000005 .Lanon.299df6b3df0beae913f8581bde916f31.10
00000008 l     O .rodata.cst4	00000004 .Lanon.299df6b3df0beae913f8581bde916f31.11
00000000 l     O .rodata..Lanon.299df6b3df0beae913f8581bde916f31.12	00000007 .Lanon.299df6b3df0beae913f8581bde916f31.12
00000000 l     O .rodata..Lanon.299df6b3df0beae913f8581bde916f31.13	00000006 .Lanon.299df6b3df0beae913f8581bde916f31.13
00000000 l     O .rodata..Lanon.299df6b3df0beae913f8581bde916f31.14	00000048 .Lanon.299df6b3df0beae913f8581bde916f31.14
00000000 l     O .rodata..Lanon.299df6b3df0beae913f8581bde916f31.2	00000001 .Lanon.299df6b3df0beae913f8581bde916f31.2
00000000 l     O .rodata..Lanon.299df6b3df0beae913f8581bde916f31.3	00000001 .Lanon.299df6b3df0beae913f8581bde916f31.3
00000000 l     O .rodata..Lanon.299df6b3df0beae913f8581bde916f31.4	00000007 .Lanon.299df6b3df0beae913f8581bde916f31.4
00000000 l     O .rodata..Lanon.299df6b3df0beae913f8581bde916f31.5	0000000d .Lanon.299df6b3df0beae913f8581bde916f31.5
00000000 l     O .rodata..Lanon.299df6b3df0beae913f8581bde916f31.6	00000003 .Lanon.299df6b3df0beae913f8581bde916f31.6
00000000 l     O .rodata..Lanon.299df6b3df0beae913f8581bde916f31.7	00000005 .Lanon.299df6b3df0beae913f8581bde916f31.7
00000000 l     O .rodata.cst4	00000004 .Lanon.299df6b3df0beae913f8581bde916f31.8
00000004 l     O .rodata.cst4	00000004 .Lanon.299df6b3df0beae913f8581bde916f31.9
00000000 l     F .text._ZN3app11app_network16send_sensor_data17h1594a2013100c700E	0000057c _ZN3app11app_network16send_sensor_data17h1594a2013100c700E
00000000 l    d  .text._ZN3app11app_network21aggregate_sensor_data17h9a0bc2e462ddea14E	00000000 .text._ZN3app11app_network21aggregate_sensor_data17h9a0bc2e462ddea14E
00000000 l    d  .text._ZN3app11app_network16send_sensor_data17h1594a2013100c700E	00000000 .text._ZN3app11app_network16send_sensor_data17h1594a2013100c700E
00000000 l    d  .debug_abbrev	00000000 .debug_abbrev
00000000 l    d  .debug_info	00000000 .debug_info
00000000 l    d  .debug_ranges	00000000 .debug_ranges
00000000 l    d  .debug_frame	00000000 .debug_frame
00000000 l    d  .debug_line	00000000 .debug_line
00000000 g     F .text._ZN3app11app_network21aggregate_sensor_data17h9a0bc2e462ddea14E	00000016 .hidden _ZN3app11app_network21aggregate_sensor_data17h9a0bc2e462ddea14E
00000000         *UND*	00000000 _ZN50_$LT$T$u20$as$u20$core..convert..From$LT$T$GT$$GT$4from17h2ece7be01fdee8faE
00000000         *UND*	00000000 _ZN6mynewt3sys7console10print_strn17h2c52eb0db6b95a22E
00000000         *UND*	00000000 _ZN6mynewt3sys7console5flush17hf9aae4f0cd77d4acE
00000000         *UND*	00000000 _ZN6mynewt3sys7console5print17h67a3059d9eb8a82eE
00000000         *UND*	00000000 _ZN6mynewt3sys7console8printint17he4a4f45a616375d0E
00000000         *UND*	00000000 _ZN6mynewt4Strn3new17hf600af35cc41cfcbE
00000000         *UND*	00000000 _ZN6mynewt4libs14sensor_network12prepare_post17h7654ee7983fa3196E
00000000         *UND*	00000000 _ZN6mynewt4libs14sensor_network13get_device_id17h2e182ec7de577fe8E
00000000         *UND*	00000000 _ZN6mynewt4libs14sensor_network14do_server_post17hd1ac47b0b902419bE
00000000         *UND*	00000000 _ZN6mynewt4libs14sensor_network16init_server_post17h98ad08ae8430b4abE
00000000         *UND*	00000000 _ZN6mynewt8encoding12coap_context11CoapContext11key_to_cstr17h4b65f25f6307d11fE
00000000         *UND*	00000000 _ZN6mynewt8encoding12coap_context11CoapContext11to_void_ptr17hd860ae6d2f208509E
00000000         *UND*	00000000 _ZN6mynewt8encoding12coap_context11CoapContext13value_to_cstr17h7bb35884d5ebf21dE
00000000         *UND*	00000000 _ZN6mynewt8encoding12coap_context11CoapContext20json_set_geolocation17h7007060c89a7f807E
00000000         *UND*	00000000 _ZN6mynewt8encoding12coap_context11CoapContext20json_set_text_string17h354c2053b966cc25E
00000000         *UND*	00000000 _ZN6mynewt8encoding12coap_context11CoapContext4fail17he174caca9f02f27fE
00000000         *UND*	00000000 _ZN6mynewt8encoding12coap_context12COAP_CONTEXT17ha404f664f36993b1E
00000000         *UND*	00000000 _ZN73_$LT$core..result..Result$LT$T$C$E$GT$$u20$as$u20$core..ops..try..Try$GT$10from_error17h8ca7b6780f95f931E
00000000         *UND*	00000000 _ZN73_$LT$core..result..Result$LT$T$C$E$GT$$u20$as$u20$core..ops..try..Try$GT$11into_result17h8dd38b8fdc06890dE
00000000         *UND*	00000000 _ZN73_$LT$core..result..Result$LT$T$C$E$GT$$u20$as$u20$core..ops..try..Try$GT$11into_result17hb1f80aacfcb37e79E
00000000         *UND*	00000000 _ZN75_$LT$str$u20$as$u20$mynewt..encoding..coap_context..ToBytesOptionalNull$GT$21to_bytes_optional_nul17h7c50cc145c8629caE
00000000         *UND*	00000000 _ZN84_$LT$mynewt..Strn$u20$as$u20$mynewt..encoding..coap_context..ToBytesOptionalNull$GT$21to_bytes_optional_nul17h199906e3c870d19cE
00000000         *UND*	00000000 json_helper_close_array
00000000         *UND*	00000000 json_helper_object_array_end_item
00000000         *UND*	00000000 json_helper_object_array_start_item
00000000         *UND*	00000000 json_helper_set_array
00000000         *UND*	00000000 json_helper_set_int
00000000         *UND*	00000000 json_helper_set_text_string
00000000         *UND*	00000000 json_rep_end_root_object
00000000         *UND*	00000000 json_rep_start_root_object



Disassembly of section .text._ZN3app11app_network21aggregate_sensor_data17h9a0bc2e462ddea14E:

00000000 <_ZN3app11app_network21aggregate_sensor_data17h9a0bc2e462ddea14E>:
_ZN3app11app_network21aggregate_sensor_data17h9a0bc2e462ddea14E():
/Users/Luppy/PineTime/pinetime-rust-mynewt/rust/app/src/app_network.rs:59
        send_sensor_data(&transmit_value)
    }
}

#[cfg(not(feature = "use_float"))]  //  If floating-point and geolocation are disabled, send sensor data without geolocation
pub fn aggregate_sensor_data(sensor_value: &SensorValue) -> MynewtResult<()>  {  //  Returns an error code upon error.
   0:	b580      	push	{r7, lr}
   2:	b082      	sub	sp, #8
   4:	9001      	str	r0, [sp, #4]
/Users/Luppy/PineTime/pinetime-rust-mynewt/rust/app/src/app_network.rs:61
    //  Transmit sensor value without geolocation and return the result
    send_sensor_data(sensor_value)
   6:	9801      	ldr	r0, [sp, #4]
   8:	f7ff fffe 	bl	0 <_ZN3app11app_network21aggregate_sensor_data17h9a0bc2e462ddea14E>
   c:	9000      	str	r0, [sp, #0]
   e:	e7ff      	b.n	10 <_ZN3app11app_network21aggregate_sensor_data17h9a0bc2e462ddea14E+0x10>
/Users/Luppy/PineTime/pinetime-rust-mynewt/rust/app/src/app_network.rs:62
}
  10:	9800      	ldr	r0, [sp, #0]
  12:	b002      	add	sp, #8
  14:	bd80      	pop	{r7, pc}

Disassembly of section .text._ZN3app11app_network16send_sensor_data17h1594a2013100c700E:

00000000 <_ZN3app11app_network16send_sensor_data17h1594a2013100c700E>:
_ZN3app11app_network16send_sensor_data17h1594a2013100c700E():
/Users/Luppy/PineTime/pinetime-rust-mynewt/rust/app/src/app_network.rs:75
/// {"values":[
///   {"key":"t",      "value":1715, "geo": { "lat": ..., "long": ... }},
///   {"key":"device", "value":"0102030405060708090a0b0c0d0e0f10"}
/// ]}
/// ```
fn send_sensor_data(val: &SensorValue) -> MynewtResult<()>  {  //  Returns an error code upon error.
   0:	b580      	push	{r7, lr}
   2:	f5ad 7d16 	sub.w	sp, sp, #600	; 0x258
   6:	9025      	str	r0, [sp, #148]	; 0x94
/Users/Luppy/PineTime/pinetime-rust-mynewt/rust/app/src/app_network.rs:76
    console::print("Rust send_sensor_data: ");
   8:	f240 0000 	movw	r0, #0
   c:	f2c0 0000 	movt	r0, #0
  10:	2117      	movs	r1, #23
  12:	f7ff fffe 	bl	0 <_ZN6mynewt3sys7console5print17h67a3059d9eb8a82eE>
  16:	e7ff      	b.n	18 <_ZN3app11app_network16send_sensor_data17h1594a2013100c700E+0x18>
/Users/Luppy/PineTime/pinetime-rust-mynewt/rust/app/src/app_network.rs:77
    if let SensorValueType::Uint(i) = val.value {
  18:	9825      	ldr	r0, [sp, #148]	; 0x94
  1a:	6840      	ldr	r0, [r0, #4]
  1c:	2801      	cmp	r0, #1
  1e:	d115      	bne.n	4c <_ZN3app11app_network16send_sensor_data17h1594a2013100c700E+0x4c>
  20:	e7ff      	b.n	22 <_ZN3app11app_network16send_sensor_data17h1594a2013100c700E+0x22>
  22:	9825      	ldr	r0, [sp, #148]	; 0x94
  24:	6880      	ldr	r0, [r0, #8]
  26:	9027      	str	r0, [sp, #156]	; 0x9c
/Users/Luppy/PineTime/pinetime-rust-mynewt/rust/app/src/app_network.rs:78
        console::print_strn(val.key);
  28:	9825      	ldr	r0, [sp, #148]	; 0x94
  2a:	6800      	ldr	r0, [r0, #0]
  2c:	f7ff fffe 	bl	0 <_ZN6mynewt3sys7console10print_strn17h2c52eb0db6b95a22E>
  30:	e7ff      	b.n	2 <_ZN3app11app_network16send_sensor_data17h1594a2013100c700E+0x2>
/Users/Luppy/PineTime/pinetime-rust-mynewt/rust/app/src/app_network.rs:79
        console::print("=");
  32:	f240 0000 	movw	r0, #0
  36:	f2c0 0000 	movt	r0, #0
  3a:	2101      	movs	r1, #1
  3c:	f7ff fffe 	bl	0 <_ZN6mynewt3sys7console5print17h67a3059d9eb8a82eE>
  40:	e7ff      	b.n	42 <_ZN3app11app_network16send_sensor_data17h1594a2013100c700E+0x42>
/Users/Luppy/PineTime/pinetime-rust-mynewt/rust/app/src/app_network.rs:80
        console::printint(i as i32);
  42:	9827      	ldr	r0, [sp, #156]	; 0x9c
  44:	f7ff fffe 	bl	0 <_ZN6mynewt3sys7console8printint17he4a4f45a616375d0E>
  48:	e7ff      	b.n	4a <_ZN3app11app_network16send_sensor_data17h1594a2013100c700E+0x4a>
/Users/Luppy/PineTime/pinetime-rust-mynewt/rust/app/src/app_network.rs:77
    if let SensorValueType::Uint(i) = val.value {
  4a:	e7ff      	b.n	4c <_ZN3app11app_network16send_sensor_data17h1594a2013100c700E+0x4c>
/Users/Luppy/PineTime/pinetime-rust-mynewt/rust/app/src/app_network.rs:82
    }
    console::print("\n");
  4c:	f240 0000 	movw	r0, #0
  50:	f2c0 0000 	movt	r0, #0
  54:	2101      	movs	r1, #1
  56:	f7ff fffe 	bl	0 <_ZN6mynewt3sys7console5print17h67a3059d9eb8a82eE>
  5a:	e7ff      	b.n	2 <_ZN6mynewt3sys7console5flush17hf9aae4f0cd77d4acE+0x2>
/Users/Luppy/PineTime/pinetime-rust-mynewt/rust/app/src/app_network.rs:83
    console::flush(); ////
  5c:	f7ff fffe 	bl	0 <_ZN6mynewt3sys7console5flush17hf9aae4f0cd77d4acE>
  60:	e7ff      	b.n	62 <_ZN3app11app_network16send_sensor_data17h1594a2013100c700E+0x62>
  62:	a82f      	add	r0, sp, #188	; 0xbc
/Users/Luppy/PineTime/pinetime-rust-mynewt/rust/app/src/app_network.rs:86

    //  Get a randomly-generated device ID that changes each time we restart the device.
    let device_id = sensor_network::get_device_id() ? ;
  64:	f7ff fffe 	bl	0 <_ZN6mynewt4libs14sensor_network13get_device_id17h2e182ec7de577fe8E>
  68:	e7ff      	b.n	6a <_ZN3app11app_network16send_sensor_data17h1594a2013100c700E+0x6a>
  6a:	a82b      	add	r0, sp, #172	; 0xac
  6c:	a92f      	add	r1, sp, #188	; 0xbc
  6e:	f7ff fffe 	bl	0 <_ZN73_$LT$core..result..Result$LT$T$C$E$GT$$u20$as$u20$core..ops..try..Try$GT$11into_result17h8dd38b8fdc06890dE>
  72:	e7ff      	b.n	74 <_ZN3app11app_network16send_sensor_data17h1594a2013100c700E+0x74>
  74:	982b      	ldr	r0, [sp, #172]	; 0xac
  76:	2800      	cmp	r0, #0
  78:	d014      	beq.n	a4 <_ZN3app11app_network16send_sensor_data17h1594a2013100c700E+0xa4>
  7a:	e7ff      	b.n	7c <_ZN3app11app_network16send_sensor_data17h1594a2013100c700E+0x7c>
  7c:	e000      	b.n	80 <_ZN3app11app_network16send_sensor_data17h1594a2013100c700E+0x80>
  7e:	defe      	udf	#254	; 0xfe
  80:	982c      	ldr	r0, [sp, #176]	; 0xb0
  82:	9033      	str	r0, [sp, #204]	; 0xcc
  84:	9833      	ldr	r0, [sp, #204]	; 0xcc
  86:	f7ff fffe 	bl	0 <_ZN50_$LT$T$u20$as$u20$core..convert..From$LT$T$GT$$GT$4from17h2ece7be01fdee8faE>
  8a:	9024      	str	r0, [sp, #144]	; 0x90
  8c:	e003      	b.n	96 <_ZN3app11app_network16send_sensor_data17h1594a2013100c700E+0x96>
/Users/Luppy/PineTime/pinetime-rust-mynewt/rust/app/src/app_network.rs:121
    console::print("NET view your sensor at \nhttps://blue-pill-geolocate.appspot.com?device=");
    console::print_strn(&device_id); console::print("\n");

    //  The CoAP Background Task will transmit the message in the background.
    Ok(())
}
  8e:	9826      	ldr	r0, [sp, #152]	; 0x98
  90:	f50d 7d16 	add.w	sp, sp, #600	; 0x258
  94:	bd80      	pop	{r7, pc}
/Users/Luppy/PineTime/pinetime-rust-mynewt/rust/app/src/app_network.rs:86
    let device_id = sensor_network::get_device_id() ? ;
  96:	9824      	ldr	r0, [sp, #144]	; 0x90
  98:	f7ff fffe 	bl	0 <_ZN73_$LT$core..result..Result$LT$T$C$E$GT$$u20$as$u20$core..ops..try..Try$GT$10from_error17h8ca7b6780f95f931E>
  9c:	9026      	str	r0, [sp, #152]	; 0x98
  9e:	e7ff      	b.n	a0 <_ZN3app11app_network16send_sensor_data17h1594a2013100c700E+0xa0>
  a0:	e7ff      	b.n	a2 <_ZN3app11app_network16send_sensor_data17h1594a2013100c700E+0xa2>
  a2:	e7f4      	b.n	8e <_ZN3app11app_network16send_sensor_data17h1594a2013100c700E+0x8e>
  a4:	982c      	ldr	r0, [sp, #176]	; 0xb0
  a6:	992d      	ldr	r1, [sp, #180]	; 0xb4
  a8:	9a2e      	ldr	r2, [sp, #184]	; 0xb8
  aa:	9236      	str	r2, [sp, #216]	; 0xd8
  ac:	9135      	str	r1, [sp, #212]	; 0xd4
  ae:	9034      	str	r0, [sp, #208]	; 0xd0
  b0:	9834      	ldr	r0, [sp, #208]	; 0xd0
  b2:	9935      	ldr	r1, [sp, #212]	; 0xd4
  b4:	9a36      	ldr	r2, [sp, #216]	; 0xd8
  b6:	922a      	str	r2, [sp, #168]	; 0xa8
  b8:	9129      	str	r1, [sp, #164]	; 0xa4
  ba:	9028      	str	r0, [sp, #160]	; 0xa0
/Users/Luppy/PineTime/pinetime-rust-mynewt/rust/app/src/app_network.rs:91
    let rc = sensor_network::init_server_post( strn!(()) ) ? ;  //  `strn!(())` means use default CoAP URI in `syscfg.yml`
  bc:	f240 0100 	movw	r1, #0
  c0:	f2c0 0100 	movt	r1, #0
  c4:	a83c      	add	r0, sp, #240	; 0xf0
  c6:	2201      	movs	r2, #1
  c8:	f7ff fffe 	bl	0 <_ZN6mynewt4Strn3new17hf600af35cc41cfcbE>
  cc:	e7ff      	b.n	ce <_ZN3app11app_network16send_sensor_data17h1594a2013100c700E+0xce>
  ce:	a83a      	add	r0, sp, #232	; 0xe8
  d0:	a93c      	add	r1, sp, #240	; 0xf0
  d2:	f7ff fffe 	bl	0 <_ZN6mynewt4libs14sensor_network16init_server_post17h98ad08ae8430b4abE>
  d6:	e7ff      	b.n	d8 <_ZN3app11app_network16send_sensor_data17h1594a2013100c700E+0xd8>
  d8:	a838      	add	r0, sp, #224	; 0xe0
  da:	a93a      	add	r1, sp, #232	; 0xe8
  dc:	f7ff fffe 	bl	0 <_ZN73_$LT$core..result..Result$LT$T$C$E$GT$$u20$as$u20$core..ops..try..Try$GT$11into_result17hb1f80aacfcb37e79E>
  e0:	e7ff      	b.n	e2 <_ZN3app11app_network16send_sensor_data17h1594a2013100c700E+0xe2>
  e2:	f89d 00e0 	ldrb.w	r0, [sp, #224]	; 0xe0
  e6:	07c1      	lsls	r1, r0, #31
  e8:	2900      	cmp	r1, #0
  ea:	d010      	beq.n	10e <_ZN3app11app_network16send_sensor_data17h1594a2013100c700E+0x10e>
  ec:	e7ff      	b.n	ee <_ZN3app11app_network16send_sensor_data17h1594a2013100c700E+0xee>
  ee:	e000      	b.n	f2 <_ZN3app11app_network16send_sensor_data17h1594a2013100c700E+0xf2>
  f0:	defe      	udf	#254	; 0xfe
  f2:	9839      	ldr	r0, [sp, #228]	; 0xe4
  f4:	903f      	str	r0, [sp, #252]	; 0xfc
  f6:	983f      	ldr	r0, [sp, #252]	; 0xfc
  f8:	f7ff fffe 	bl	0 <_ZN50_$LT$T$u20$as$u20$core..convert..From$LT$T$GT$$GT$4from17h2ece7be01fdee8faE>
  fc:	9023      	str	r0, [sp, #140]	; 0x8c
  fe:	e7ff      	b.n	100 <_ZN3app11app_network16send_sensor_data17h1594a2013100c700E+0x100>
 100:	9823      	ldr	r0, [sp, #140]	; 0x8c
 102:	f7ff fffe 	bl	0 <_ZN73_$LT$core..result..Result$LT$T$C$E$GT$$u20$as$u20$core..ops..try..Try$GT$10from_error17h8ca7b6780f95f931E>
 106:	9026      	str	r0, [sp, #152]	; 0x98
 108:	e7ff      	b.n	10a <_ZN3app11app_network16send_sensor_data17h1594a2013100c700E+0x10a>
 10a:	e7ff      	b.n	10c <_ZN3app11app_network16send_sensor_data17h1594a2013100c700E+0x10c>
 10c:	e7c9      	b.n	a2 <_ZN3app11app_network16send_sensor_data17h1594a2013100c700E+0xa2>
 10e:	f89d 00e1 	ldrb.w	r0, [sp, #225]	; 0xe1
 112:	f88d 0103 	strb.w	r0, [sp, #259]	; 0x103
 116:	f89d 0103 	ldrb.w	r0, [sp, #259]	; 0x103
 11a:	f88d 00df 	strb.w	r0, [sp, #223]	; 0xdf
/Users/Luppy/PineTime/pinetime-rust-mynewt/rust/app/src/app_network.rs:94
    if !rc { return Err(MynewtError::SYS_EAGAIN); }
 11e:	f89d 00df 	ldrb.w	r0, [sp, #223]	; 0xdf
 122:	07c0      	lsls	r0, r0, #31
 124:	2800      	cmp	r0, #0
 126:	d005      	beq.n	134 <_ZN3app11app_network16send_sensor_data17h1594a2013100c700E+0x134>
 128:	e7ff      	b.n	12a <_ZN3app11app_network16send_sensor_data17h1594a2013100c700E+0x12a>
 12a:	a845      	add	r0, sp, #276	; 0x114
 12c:	2132      	movs	r1, #50	; 0x32
/Users/Luppy/PineTime/pinetime-rust-mynewt/rust/app/src/app_network.rs:98
    let _payload = coap!( @json {        
 12e:	f7ff fffe 	bl	0 <_ZN6mynewt4libs14sensor_network12prepare_post17h7654ee7983fa3196E>
 132:	e005      	b.n	140 <_ZN3app11app_network16send_sensor_data17h1594a2013100c700E+0x140>
 134:	f06f 0005 	mvn.w	r0, #5
/Users/Luppy/PineTime/pinetime-rust-mynewt/rust/app/src/app_network.rs:94
    if !rc { return Err(MynewtError::SYS_EAGAIN); }
 138:	9041      	str	r0, [sp, #260]	; 0x104
 13a:	9841      	ldr	r0, [sp, #260]	; 0x104
 13c:	9026      	str	r0, [sp, #152]	; 0x98
 13e:	e7e5      	b.n	10c <_ZN3app11app_network16send_sensor_data17h1594a2013100c700E+0x10c>
 140:	a843      	add	r0, sp, #268	; 0x10c
 142:	a945      	add	r1, sp, #276	; 0x114
/Users/Luppy/PineTime/pinetime-rust-mynewt/rust/app/src/app_network.rs:98
    let _payload = coap!( @json {        
 144:	f7ff fffe 	bl	0 <_ZN73_$LT$core..result..Result$LT$T$C$E$GT$$u20$as$u20$core..ops..try..Try$GT$11into_result17hb1f80aacfcb37e79E>
 148:	e7ff      	b.n	14a <_ZN3app11app_network16send_sensor_data17h1594a2013100c700E+0x14a>
 14a:	f89d 010c 	ldrb.w	r0, [sp, #268]	; 0x10c
 14e:	07c1      	lsls	r1, r0, #31
 150:	2900      	cmp	r1, #0
 152:	d010      	beq.n	176 <_ZN3app11app_network16send_sensor_data17h1594a2013100c700E+0x176>
 154:	e7ff      	b.n	156 <_ZN3app11app_network16send_sensor_data17h1594a2013100c700E+0x156>
 156:	e000      	b.n	15a <_ZN3app11app_network16send_sensor_data17h1594a2013100c700E+0x15a>
 158:	defe      	udf	#254	; 0xfe
 15a:	9844      	ldr	r0, [sp, #272]	; 0x110
 15c:	9047      	str	r0, [sp, #284]	; 0x11c
 15e:	9847      	ldr	r0, [sp, #284]	; 0x11c
 160:	f7ff fffe 	bl	0 <_ZN50_$LT$T$u20$as$u20$core..convert..From$LT$T$GT$$GT$4from17h2ece7be01fdee8faE>
 164:	9022      	str	r0, [sp, #136]	; 0x88
 166:	e7ff      	b.n	168 <_ZN3app11app_network16send_sensor_data17h1594a2013100c700E+0x168>
 168:	9822      	ldr	r0, [sp, #136]	; 0x88
 16a:	f7ff fffe 	bl	0 <_ZN73_$LT$core..result..Result$LT$T$C$E$GT$$u20$as$u20$core..ops..try..Try$GT$10from_error17h8ca7b6780f95f931E>
 16e:	9026      	str	r0, [sp, #152]	; 0x98
 170:	e7ff      	b.n	172 <_ZN3app11app_network16send_sensor_data17h1594a2013100c700E+0x172>
 172:	e7ff      	b.n	174 <_ZN3app11app_network16send_sensor_data17h1594a2013100c700E+0x174>
 174:	e7ca      	b.n	10c <_ZN3app11app_network16send_sensor_data17h1594a2013100c700E+0x10c>
 176:	f89d 010d 	ldrb.w	r0, [sp, #269]	; 0x10d
 17a:	f88d 0123 	strb.w	r0, [sp, #291]	; 0x123
 17e:	f7ff fffe 	bl	0 <json_rep_start_root_object>
 182:	e7ff      	b.n	2 <_ZN3app11app_network16send_sensor_data17h1594a2013100c700E+0x2>
 184:	f240 0000 	movw	r0, #0
 188:	f2c0 0000 	movt	r0, #0
 18c:	9049      	str	r0, [sp, #292]	; 0x124
 18e:	2007      	movs	r0, #7
 190:	904a      	str	r0, [sp, #296]	; 0x128
 192:	f240 0000 	movw	r0, #0
 196:	f2c0 0000 	movt	r0, #0
 19a:	f7ff fffe 	bl	0 <_ZN6mynewt8encoding12coap_context11CoapContext11to_void_ptr17hd860ae6d2f208509E>
 19e:	9021      	str	r0, [sp, #132]	; 0x84
 1a0:	e7ff      	b.n	1a2 <_ZN3app11app_network16send_sensor_data17h1594a2013100c700E+0x1a2>
 1a2:	9849      	ldr	r0, [sp, #292]	; 0x124
 1a4:	994a      	ldr	r1, [sp, #296]	; 0x128
 1a6:	907e      	str	r0, [sp, #504]	; 0x1f8
 1a8:	917f      	str	r1, [sp, #508]	; 0x1fc
_ZN4core3str21_$LT$impl$u20$str$GT$8as_bytes17h724e50c34863b638E():
/rustc/412f43ac5b4ae8c3599e71c6972112e9be4758fa/src/libcore/str/mod.rs:2179
 1aa:	987e      	ldr	r0, [sp, #504]	; 0x1f8
 1ac:	997f      	ldr	r1, [sp, #508]	; 0x1fc
 1ae:	9080      	str	r0, [sp, #512]	; 0x200
 1b0:	9181      	str	r1, [sp, #516]	; 0x204
 1b2:	9980      	ldr	r1, [sp, #512]	; 0x200
 1b4:	9a81      	ldr	r2, [sp, #516]	; 0x204
_ZN3app11app_network16send_sensor_data17h1594a2013100c700E():
/Users/Luppy/PineTime/pinetime-rust-mynewt/rust/app/src/app_network.rs:98
 1b6:	9120      	str	r1, [sp, #128]	; 0x80
 1b8:	921f      	str	r2, [sp, #124]	; 0x7c
 1ba:	e7ff      	b.n	1bc <_ZN3app11app_network16send_sensor_data17h1594a2013100c700E+0x1bc>
 1bc:	f240 0000 	movw	r0, #0
 1c0:	f2c0 0000 	movt	r0, #0
 1c4:	9920      	ldr	r1, [sp, #128]	; 0x80
 1c6:	9a1f      	ldr	r2, [sp, #124]	; 0x7c
 1c8:	f7ff fffe 	bl	0 <_ZN6mynewt8encoding12coap_context11CoapContext11key_to_cstr17h4b65f25f6307d11fE>
 1cc:	901e      	str	r0, [sp, #120]	; 0x78
 1ce:	e7ff      	b.n	1d0 <_ZN3app11app_network16send_sensor_data17h1594a2013100c700E+0x1d0>
 1d0:	9821      	ldr	r0, [sp, #132]	; 0x84
 1d2:	991e      	ldr	r1, [sp, #120]	; 0x78
 1d4:	f7ff fffe 	bl	0 <json_helper_set_array>
 1d8:	e7ff      	b.n	1da <_ZN3app11app_network16send_sensor_data17h1594a2013100c700E+0x1da>
 1da:	9825      	ldr	r0, [sp, #148]	; 0x94
 1dc:	68c1      	ldr	r1, [r0, #12]
 1de:	6900      	ldr	r0, [r0, #16]
 1e0:	914b      	str	r1, [sp, #300]	; 0x12c
 1e2:	904c      	str	r0, [sp, #304]	; 0x130
 1e4:	9825      	ldr	r0, [sp, #148]	; 0x94
 1e6:	6840      	ldr	r0, [r0, #4]
 1e8:	2801      	cmp	r0, #1
 1ea:	d00c      	beq.n	206 <_ZN3app11app_network16send_sensor_data17h1594a2013100c700E+0x206>
 1ec:	e7ff      	b.n	1ee <_ZN3app11app_network16send_sensor_data17h1594a2013100c700E+0x1ee>
 1ee:	2001      	movs	r0, #1
 1f0:	f88d 0193 	strb.w	r0, [sp, #403]	; 0x193
 1f4:	f89d 1193 	ldrb.w	r1, [sp, #403]	; 0x193
 1f8:	f240 0000 	movw	r0, #0
 1fc:	f2c0 0000 	movt	r0, #0
 200:	f7ff fffe 	bl	0 <_ZN6mynewt8encoding12coap_context11CoapContext4fail17he174caca9f02f27fE>
 204:	e0d7      	b.n	3b6 <_ZN3app11app_network16send_sensor_data17h1594a2013100c700E+0x3b6>
 206:	9825      	ldr	r0, [sp, #148]	; 0x94
 208:	6880      	ldr	r0, [r0, #8]
 20a:	904d      	str	r0, [sp, #308]	; 0x134
 20c:	f240 0000 	movw	r0, #0
 210:	f2c0 0000 	movt	r0, #0
 214:	904e      	str	r0, [sp, #312]	; 0x138
 216:	200d      	movs	r0, #13
 218:	904f      	str	r0, [sp, #316]	; 0x13c
 21a:	984e      	ldr	r0, [sp, #312]	; 0x138
 21c:	994f      	ldr	r1, [sp, #316]	; 0x13c
 21e:	9092      	str	r0, [sp, #584]	; 0x248
 220:	9193      	str	r1, [sp, #588]	; 0x24c
_ZN4core3str21_$LT$impl$u20$str$GT$8as_bytes17h724e50c34863b638E():
/rustc/412f43ac5b4ae8c3599e71c6972112e9be4758fa/src/libcore/str/mod.rs:2179
 222:	9892      	ldr	r0, [sp, #584]	; 0x248
 224:	9993      	ldr	r1, [sp, #588]	; 0x24c
 226:	9094      	str	r0, [sp, #592]	; 0x250
 228:	9195      	str	r1, [sp, #596]	; 0x254
 22a:	9994      	ldr	r1, [sp, #592]	; 0x250
 22c:	9a95      	ldr	r2, [sp, #596]	; 0x254
_ZN3app11app_network16send_sensor_data17h1594a2013100c700E():
/Users/Luppy/PineTime/pinetime-rust-mynewt/rust/app/src/app_network.rs:98
 22e:	911d      	str	r1, [sp, #116]	; 0x74
 230:	921c      	str	r2, [sp, #112]	; 0x70
 232:	e7ff      	b.n	234 <_ZN3app11app_network16send_sensor_data17h1594a2013100c700E+0x234>
 234:	f240 0000 	movw	r0, #0
 238:	f2c0 0000 	movt	r0, #0
 23c:	991d      	ldr	r1, [sp, #116]	; 0x74
 23e:	9a1c      	ldr	r2, [sp, #112]	; 0x70
 240:	f7ff fffe 	bl	0 <_ZN6mynewt8encoding12coap_context11CoapContext11key_to_cstr17h4b65f25f6307d11fE>
 244:	901b      	str	r0, [sp, #108]	; 0x6c
 246:	e7ff      	b.n	248 <_ZN3app11app_network16send_sensor_data17h1594a2013100c700E+0x248>
 248:	981b      	ldr	r0, [sp, #108]	; 0x6c
 24a:	f7ff fffe 	bl	0 <json_helper_object_array_start_item>
 24e:	e7ff      	b.n	2 <_ZN3app11app_network16send_sensor_data17h1594a2013100c700E+0x2>
 250:	f240 0000 	movw	r0, #0
 254:	f2c0 0000 	movt	r0, #0
 258:	2103      	movs	r1, #3
 25a:	f7ff fffe 	bl	0 <_ZN75_$LT$str$u20$as$u20$mynewt..encoding..coap_context..ToBytesOptionalNull$GT$21to_bytes_optional_nul17h7c50cc145c8629caE>
 25e:	901a      	str	r0, [sp, #104]	; 0x68
 260:	9119      	str	r1, [sp, #100]	; 0x64
 262:	e7ff      	b.n	264 <_ZN3app11app_network16send_sensor_data17h1594a2013100c700E+0x264>
 264:	981a      	ldr	r0, [sp, #104]	; 0x68
 266:	9050      	str	r0, [sp, #320]	; 0x140
 268:	9919      	ldr	r1, [sp, #100]	; 0x64
 26a:	9151      	str	r1, [sp, #324]	; 0x144
 26c:	9a25      	ldr	r2, [sp, #148]	; 0x94
 26e:	6810      	ldr	r0, [r2, #0]
 270:	f7ff fffe 	bl	0 <_ZN84_$LT$mynewt..Strn$u20$as$u20$mynewt..encoding..coap_context..ToBytesOptionalNull$GT$21to_bytes_optional_nul17h199906e3c870d19cE>
 274:	9018      	str	r0, [sp, #96]	; 0x60
 276:	9117      	str	r1, [sp, #92]	; 0x5c
 278:	e7ff      	b.n	27a <_ZN3app11app_network16send_sensor_data17h1594a2013100c700E+0x27a>
 27a:	9818      	ldr	r0, [sp, #96]	; 0x60
 27c:	9052      	str	r0, [sp, #328]	; 0x148
 27e:	9917      	ldr	r1, [sp, #92]	; 0x5c
 280:	9153      	str	r1, [sp, #332]	; 0x14c
 282:	f240 0000 	movw	r0, #0
 286:	f2c0 0000 	movt	r0, #0
 28a:	f7ff fffe 	bl	0 <_ZN6mynewt8encoding12coap_context11CoapContext11to_void_ptr17hd860ae6d2f208509E>
 28e:	9016      	str	r0, [sp, #88]	; 0x58
 290:	e7ff      	b.n	292 <_ZN3app11app_network16send_sensor_data17h1594a2013100c700E+0x292>
 292:	9950      	ldr	r1, [sp, #320]	; 0x140
 294:	9a51      	ldr	r2, [sp, #324]	; 0x144
 296:	f240 0000 	movw	r0, #0
 29a:	f2c0 0000 	movt	r0, #0
 29e:	f7ff fffe 	bl	0 <_ZN6mynewt8encoding12coap_context11CoapContext11key_to_cstr17h4b65f25f6307d11fE>
 2a2:	9015      	str	r0, [sp, #84]	; 0x54
 2a4:	e7ff      	b.n	2a6 <_ZN3app11app_network16send_sensor_data17h1594a2013100c700E+0x2a6>
 2a6:	9952      	ldr	r1, [sp, #328]	; 0x148
 2a8:	9a53      	ldr	r2, [sp, #332]	; 0x14c
 2aa:	f240 0000 	movw	r0, #0
 2ae:	f2c0 0000 	movt	r0, #0
 2b2:	f7ff fffe 	bl	0 <_ZN6mynewt8encoding12coap_context11CoapContext13value_to_cstr17h7bb35884d5ebf21dE>
 2b6:	9014      	str	r0, [sp, #80]	; 0x50
 2b8:	e7ff      	b.n	2ba <_ZN3app11app_network16send_sensor_data17h1594a2013100c700E+0x2ba>
 2ba:	9816      	ldr	r0, [sp, #88]	; 0x58
 2bc:	9915      	ldr	r1, [sp, #84]	; 0x54
 2be:	9a14      	ldr	r2, [sp, #80]	; 0x50
 2c0:	f7ff fffe 	bl	0 <json_helper_set_text_string>
 2c4:	e7ff      	b.n	2 <_ZN3app11app_network16send_sensor_data17h1594a2013100c700E+0x2>
 2c6:	f240 0000 	movw	r0, #0
 2ca:	f2c0 0000 	movt	r0, #0
 2ce:	2105      	movs	r1, #5
 2d0:	f7ff fffe 	bl	0 <_ZN75_$LT$str$u20$as$u20$mynewt..encoding..coap_context..ToBytesOptionalNull$GT$21to_bytes_optional_nul17h7c50cc145c8629caE>
 2d4:	9013      	str	r0, [sp, #76]	; 0x4c
 2d6:	9112      	str	r1, [sp, #72]	; 0x48
 2d8:	e7ff      	b.n	2da <_ZN3app11app_network16send_sensor_data17h1594a2013100c700E+0x2da>
 2da:	9813      	ldr	r0, [sp, #76]	; 0x4c
 2dc:	9054      	str	r0, [sp, #336]	; 0x150
 2de:	9912      	ldr	r1, [sp, #72]	; 0x48
 2e0:	9155      	str	r1, [sp, #340]	; 0x154
 2e2:	9a4d      	ldr	r2, [sp, #308]	; 0x134
 2e4:	2300      	movs	r3, #0
 2e6:	9357      	str	r3, [sp, #348]	; 0x15c
 2e8:	9256      	str	r2, [sp, #344]	; 0x158
 2ea:	f240 0000 	movw	r0, #0
 2ee:	f2c0 0000 	movt	r0, #0
 2f2:	f7ff fffe 	bl	0 <_ZN6mynewt8encoding12coap_context11CoapContext11to_void_ptr17hd860ae6d2f208509E>
 2f6:	9011      	str	r0, [sp, #68]	; 0x44
 2f8:	e7ff      	b.n	2fa <_ZN3app11app_network16send_sensor_data17h1594a2013100c700E+0x2fa>
 2fa:	9954      	ldr	r1, [sp, #336]	; 0x150
 2fc:	9a55      	ldr	r2, [sp, #340]	; 0x154
 2fe:	f240 0000 	movw	r0, #0
 302:	f2c0 0000 	movt	r0, #0
 306:	f7ff fffe 	bl	0 <_ZN6mynewt8encoding12coap_context11CoapContext11key_to_cstr17h4b65f25f6307d11fE>
 30a:	9010      	str	r0, [sp, #64]	; 0x40
 30c:	e7ff      	b.n	30e <_ZN3app11app_network16send_sensor_data17h1594a2013100c700E+0x30e>
 30e:	9a56      	ldr	r2, [sp, #344]	; 0x158
 310:	9b57      	ldr	r3, [sp, #348]	; 0x15c
 312:	9811      	ldr	r0, [sp, #68]	; 0x44
 314:	9910      	ldr	r1, [sp, #64]	; 0x40
 316:	f7ff fffe 	bl	0 <json_helper_set_int>
 31a:	e7ff      	b.n	2 <_ZN3app11app_network16send_sensor_data17h1594a2013100c700E+0x2>
 31c:	f240 0100 	movw	r1, #0
 320:	f2c0 0100 	movt	r1, #0
 324:	a859      	add	r0, sp, #356	; 0x164
 326:	2204      	movs	r2, #4
 328:	f7ff fffe 	bl	0 <_ZN6mynewt4Strn3new17hf600af35cc41cfcbE>
 32c:	e7ff      	b.n	6 <_ZN3app11app_network16send_sensor_data17h1594a2013100c700E+0x6>
 32e:	f240 0100 	movw	r1, #0
 332:	f2c0 0100 	movt	r1, #0
 336:	a85c      	add	r0, sp, #368	; 0x170
 338:	2204      	movs	r2, #4
 33a:	f7ff fffe 	bl	0 <_ZN6mynewt4Strn3new17hf600af35cc41cfcbE>
 33e:	e7ff      	b.n	2 <_ZN3app11app_network16send_sensor_data17h1594a2013100c700E+0x2>
 340:	f240 0100 	movw	r1, #0
 344:	f2c0 0100 	movt	r1, #0
 348:	a85f      	add	r0, sp, #380	; 0x17c
 34a:	2205      	movs	r2, #5
 34c:	f7ff fffe 	bl	0 <_ZN6mynewt4Strn3new17hf600af35cc41cfcbE>
 350:	e7ff      	b.n	352 <_ZN3app11app_network16send_sensor_data17h1594a2013100c700E+0x352>
 352:	984b      	ldr	r0, [sp, #300]	; 0x12c
 354:	994c      	ldr	r1, [sp, #304]	; 0x130
 356:	466a      	mov	r2, sp
 358:	6051      	str	r1, [r2, #4]
 35a:	6010      	str	r0, [r2, #0]
 35c:	f240 0000 	movw	r0, #0
 360:	f2c0 0000 	movt	r0, #0
 364:	a959      	add	r1, sp, #356	; 0x164
 366:	aa5c      	add	r2, sp, #368	; 0x170
 368:	ab5f      	add	r3, sp, #380	; 0x17c
 36a:	f7ff fffe 	bl	0 <_ZN6mynewt8encoding12coap_context11CoapContext20json_set_geolocation17h7007060c89a7f807E>
 36e:	e7ff      	b.n	2 <_ZN3app11app_network16send_sensor_data17h1594a2013100c700E+0x2>
 370:	f240 0000 	movw	r0, #0
 374:	f2c0 0000 	movt	r0, #0
 378:	9062      	str	r0, [sp, #392]	; 0x188
 37a:	200d      	movs	r0, #13
 37c:	9063      	str	r0, [sp, #396]	; 0x18c
 37e:	9862      	ldr	r0, [sp, #392]	; 0x188
 380:	9963      	ldr	r1, [sp, #396]	; 0x18c
 382:	908e      	str	r0, [sp, #568]	; 0x238
 384:	918f      	str	r1, [sp, #572]	; 0x23c
_ZN4core3str21_$LT$impl$u20$str$GT$8as_bytes17h724e50c34863b638E():
/rustc/412f43ac5b4ae8c3599e71c6972112e9be4758fa/src/libcore/str/mod.rs:2179
 386:	988e      	ldr	r0, [sp, #568]	; 0x238
 388:	998f      	ldr	r1, [sp, #572]	; 0x23c
 38a:	9090      	str	r0, [sp, #576]	; 0x240
 38c:	9191      	str	r1, [sp, #580]	; 0x244
 38e:	9990      	ldr	r1, [sp, #576]	; 0x240
 390:	9a91      	ldr	r2, [sp, #580]	; 0x244
_ZN3app11app_network16send_sensor_data17h1594a2013100c700E():
/Users/Luppy/PineTime/pinetime-rust-mynewt/rust/app/src/app_network.rs:98
 392:	910f      	str	r1, [sp, #60]	; 0x3c
 394:	920e      	str	r2, [sp, #56]	; 0x38
 396:	e7ff      	b.n	398 <_ZN3app11app_network16send_sensor_data17h1594a2013100c700E+0x398>
 398:	f240 0000 	movw	r0, #0
 39c:	f2c0 0000 	movt	r0, #0
 3a0:	990f      	ldr	r1, [sp, #60]	; 0x3c
 3a2:	9a0e      	ldr	r2, [sp, #56]	; 0x38
 3a4:	f7ff fffe 	bl	0 <_ZN6mynewt8encoding12coap_context11CoapContext11key_to_cstr17h4b65f25f6307d11fE>
 3a8:	900d      	str	r0, [sp, #52]	; 0x34
 3aa:	e7ff      	b.n	3ac <_ZN3app11app_network16send_sensor_data17h1594a2013100c700E+0x3ac>
 3ac:	980d      	ldr	r0, [sp, #52]	; 0x34
 3ae:	f7ff fffe 	bl	0 <json_helper_object_array_end_item>
 3b2:	e7ff      	b.n	3b4 <_ZN3app11app_network16send_sensor_data17h1594a2013100c700E+0x3b4>
 3b4:	e000      	b.n	3b8 <_ZN3app11app_network16send_sensor_data17h1594a2013100c700E+0x3b8>
 3b6:	e7ff      	b.n	3b8 <_ZN3app11app_network16send_sensor_data17h1594a2013100c700E+0x3b8>
 3b8:	f240 0000 	movw	r0, #0
 3bc:	f2c0 0000 	movt	r0, #0
 3c0:	9065      	str	r0, [sp, #404]	; 0x194
 3c2:	200d      	movs	r0, #13
 3c4:	9066      	str	r0, [sp, #408]	; 0x198
 3c6:	9865      	ldr	r0, [sp, #404]	; 0x194
 3c8:	9966      	ldr	r1, [sp, #408]	; 0x198
 3ca:	908a      	str	r0, [sp, #552]	; 0x228
 3cc:	918b      	str	r1, [sp, #556]	; 0x22c
_ZN4core3str21_$LT$impl$u20$str$GT$8as_bytes17h724e50c34863b638E():
/rustc/412f43ac5b4ae8c3599e71c6972112e9be4758fa/src/libcore/str/mod.rs:2179
 3ce:	988a      	ldr	r0, [sp, #552]	; 0x228
 3d0:	998b      	ldr	r1, [sp, #556]	; 0x22c
 3d2:	908c      	str	r0, [sp, #560]	; 0x230
 3d4:	918d      	str	r1, [sp, #564]	; 0x234
 3d6:	998c      	ldr	r1, [sp, #560]	; 0x230
 3d8:	9a8d      	ldr	r2, [sp, #564]	; 0x234
_ZN3app11app_network16send_sensor_data17h1594a2013100c700E():
/Users/Luppy/PineTime/pinetime-rust-mynewt/rust/app/src/app_network.rs:98
 3da:	910c      	str	r1, [sp, #48]	; 0x30
 3dc:	920b      	str	r2, [sp, #44]	; 0x2c
 3de:	e7ff      	b.n	3e0 <_ZN3app11app_network16send_sensor_data17h1594a2013100c700E+0x3e0>
 3e0:	f240 0000 	movw	r0, #0
 3e4:	f2c0 0000 	movt	r0, #0
 3e8:	990c      	ldr	r1, [sp, #48]	; 0x30
 3ea:	9a0b      	ldr	r2, [sp, #44]	; 0x2c
 3ec:	f7ff fffe 	bl	0 <_ZN6mynewt8encoding12coap_context11CoapContext11key_to_cstr17h4b65f25f6307d11fE>
 3f0:	900a      	str	r0, [sp, #40]	; 0x28
 3f2:	e7ff      	b.n	3f4 <_ZN3app11app_network16send_sensor_data17h1594a2013100c700E+0x3f4>
 3f4:	980a      	ldr	r0, [sp, #40]	; 0x28
 3f6:	f7ff fffe 	bl	0 <json_helper_object_array_start_item>
 3fa:	e7ff      	b.n	a <_ZN3app11app_network16send_sensor_data17h1594a2013100c700E+0xa>
 3fc:	f240 0100 	movw	r1, #0
 400:	f2c0 0100 	movt	r1, #0
 404:	a868      	add	r0, sp, #416	; 0x1a0
 406:	2204      	movs	r2, #4
 408:	f7ff fffe 	bl	0 <_ZN6mynewt4Strn3new17hf600af35cc41cfcbE>
 40c:	e7ff      	b.n	40e <_ZN3app11app_network16send_sensor_data17h1594a2013100c700E+0x40e>
 40e:	a868      	add	r0, sp, #416	; 0x1a0
 410:	9067      	str	r0, [sp, #412]	; 0x19c
 412:	f240 0100 	movw	r1, #0
 416:	f2c0 0100 	movt	r1, #0
 41a:	a86c      	add	r0, sp, #432	; 0x1b0
 41c:	2207      	movs	r2, #7
 41e:	f7ff fffe 	bl	0 <_ZN6mynewt4Strn3new17hf600af35cc41cfcbE>
 422:	e7ff      	b.n	424 <_ZN3app11app_network16send_sensor_data17h1594a2013100c700E+0x424>
 424:	a86c      	add	r0, sp, #432	; 0x1b0
 426:	906b      	str	r0, [sp, #428]	; 0x1ac
 428:	9967      	ldr	r1, [sp, #412]	; 0x19c
 42a:	9a6b      	ldr	r2, [sp, #428]	; 0x1ac
 42c:	f240 0000 	movw	r0, #0
 430:	f2c0 0000 	movt	r0, #0
 434:	f7ff fffe 	bl	0 <_ZN6mynewt8encoding12coap_context11CoapContext20json_set_text_string17h354c2053b966cc25E>
 438:	e7ff      	b.n	2 <_ZN3app11app_network16send_sensor_data17h1594a2013100c700E+0x2>
 43a:	f240 0100 	movw	r1, #0
 43e:	f2c0 0100 	movt	r1, #0
 442:	a870      	add	r0, sp, #448	; 0x1c0
 444:	2206      	movs	r2, #6
 446:	f7ff fffe 	bl	0 <_ZN6mynewt4Strn3new17hf600af35cc41cfcbE>
 44a:	e7ff      	b.n	44c <_ZN3app11app_network16send_sensor_data17h1594a2013100c700E+0x44c>
 44c:	a870      	add	r0, sp, #448	; 0x1c0
 44e:	906f      	str	r0, [sp, #444]	; 0x1bc
 450:	a828      	add	r0, sp, #160	; 0xa0
/Users/Luppy/PineTime/pinetime-rust-mynewt/rust/app/src/app_network.rs:107
        "device": &device_id,
 452:	9073      	str	r0, [sp, #460]	; 0x1cc
/Users/Luppy/PineTime/pinetime-rust-mynewt/rust/app/src/app_network.rs:98
    let _payload = coap!( @json {        
 454:	996f      	ldr	r1, [sp, #444]	; 0x1bc
 456:	9a73      	ldr	r2, [sp, #460]	; 0x1cc
 458:	f240 0000 	movw	r0, #0
 45c:	f2c0 0000 	movt	r0, #0
 460:	f7ff fffe 	bl	0 <_ZN6mynewt8encoding12coap_context11CoapContext20json_set_text_string17h354c2053b966cc25E>
 464:	e7ff      	b.n	2 <_ZN3app11app_network16send_sensor_data17h1594a2013100c700E+0x2>
 466:	f240 0000 	movw	r0, #0
 46a:	f2c0 0000 	movt	r0, #0
 46e:	9074      	str	r0, [sp, #464]	; 0x1d0
 470:	200d      	movs	r0, #13
 472:	9075      	str	r0, [sp, #468]	; 0x1d4
 474:	9874      	ldr	r0, [sp, #464]	; 0x1d0
 476:	9975      	ldr	r1, [sp, #468]	; 0x1d4
 478:	9086      	str	r0, [sp, #536]	; 0x218
 47a:	9187      	str	r1, [sp, #540]	; 0x21c
_ZN4core3str21_$LT$impl$u20$str$GT$8as_bytes17h724e50c34863b638E():
/rustc/412f43ac5b4ae8c3599e71c6972112e9be4758fa/src/libcore/str/mod.rs:2179
 47c:	9886      	ldr	r0, [sp, #536]	; 0x218
 47e:	9987      	ldr	r1, [sp, #540]	; 0x21c
 480:	9088      	str	r0, [sp, #544]	; 0x220
 482:	9189      	str	r1, [sp, #548]	; 0x224
 484:	9988      	ldr	r1, [sp, #544]	; 0x220
 486:	9a89      	ldr	r2, [sp, #548]	; 0x224
_ZN3app11app_network16send_sensor_data17h1594a2013100c700E():
/Users/Luppy/PineTime/pinetime-rust-mynewt/rust/app/src/app_network.rs:98
 488:	9109      	str	r1, [sp, #36]	; 0x24
 48a:	9208      	str	r2, [sp, #32]
 48c:	e7ff      	b.n	48e <_ZN3app11app_network16send_sensor_data17h1594a2013100c700E+0x48e>
 48e:	f240 0000 	movw	r0, #0
 492:	f2c0 0000 	movt	r0, #0
 496:	9909      	ldr	r1, [sp, #36]	; 0x24
 498:	9a08      	ldr	r2, [sp, #32]
 49a:	f7ff fffe 	bl	0 <_ZN6mynewt8encoding12coap_context11CoapContext11key_to_cstr17h4b65f25f6307d11fE>
 49e:	9007      	str	r0, [sp, #28]
 4a0:	e7ff      	b.n	4a2 <_ZN3app11app_network16send_sensor_data17h1594a2013100c700E+0x4a2>
 4a2:	9807      	ldr	r0, [sp, #28]
 4a4:	f7ff fffe 	bl	0 <json_helper_object_array_end_item>
 4a8:	e7ff      	b.n	2 <_ZN3app11app_network16send_sensor_data17h1594a2013100c700E+0x2>
 4aa:	f240 0000 	movw	r0, #0
 4ae:	f2c0 0000 	movt	r0, #0
 4b2:	9076      	str	r0, [sp, #472]	; 0x1d8
 4b4:	2007      	movs	r0, #7
 4b6:	9077      	str	r0, [sp, #476]	; 0x1dc
 4b8:	f240 0000 	movw	r0, #0
 4bc:	f2c0 0000 	movt	r0, #0
 4c0:	f7ff fffe 	bl	0 <_ZN6mynewt8encoding12coap_context11CoapContext11to_void_ptr17hd860ae6d2f208509E>
 4c4:	9006      	str	r0, [sp, #24]
 4c6:	e7ff      	b.n	4c8 <_ZN3app11app_network16send_sensor_data17h1594a2013100c700E+0x4c8>
 4c8:	9876      	ldr	r0, [sp, #472]	; 0x1d8
 4ca:	9977      	ldr	r1, [sp, #476]	; 0x1dc
 4cc:	9082      	str	r0, [sp, #520]	; 0x208
 4ce:	9183      	str	r1, [sp, #524]	; 0x20c
_ZN4core3str21_$LT$impl$u20$str$GT$8as_bytes17h724e50c34863b638E():
/rustc/412f43ac5b4ae8c3599e71c6972112e9be4758fa/src/libcore/str/mod.rs:2179
 4d0:	9882      	ldr	r0, [sp, #520]	; 0x208
 4d2:	9983      	ldr	r1, [sp, #524]	; 0x20c
 4d4:	9084      	str	r0, [sp, #528]	; 0x210
 4d6:	9185      	str	r1, [sp, #532]	; 0x214
 4d8:	9984      	ldr	r1, [sp, #528]	; 0x210
 4da:	9a85      	ldr	r2, [sp, #532]	; 0x214
_ZN3app11app_network16send_sensor_data17h1594a2013100c700E():
/Users/Luppy/PineTime/pinetime-rust-mynewt/rust/app/src/app_network.rs:98
 4dc:	9105      	str	r1, [sp, #20]
 4de:	9204      	str	r2, [sp, #16]
 4e0:	e7ff      	b.n	4e2 <_ZN3app11app_network16send_sensor_data17h1594a2013100c700E+0x4e2>
 4e2:	f240 0000 	movw	r0, #0
 4e6:	f2c0 0000 	movt	r0, #0
 4ea:	9905      	ldr	r1, [sp, #20]
 4ec:	9a04      	ldr	r2, [sp, #16]
 4ee:	f7ff fffe 	bl	0 <_ZN6mynewt8encoding12coap_context11CoapContext11key_to_cstr17h4b65f25f6307d11fE>
 4f2:	9003      	str	r0, [sp, #12]
 4f4:	e7ff      	b.n	4f6 <_ZN3app11app_network16send_sensor_data17h1594a2013100c700E+0x4f6>
 4f6:	9806      	ldr	r0, [sp, #24]
 4f8:	9903      	ldr	r1, [sp, #12]
 4fa:	f7ff fffe 	bl	0 <json_helper_close_array>
 4fe:	e7ff      	b.n	2 <json_rep_end_root_object+0x2>
 500:	f7ff fffe 	bl	0 <json_rep_end_root_object>
 504:	e7ff      	b.n	506 <_ZN3app11app_network16send_sensor_data17h1594a2013100c700E+0x506>
 506:	a87a      	add	r0, sp, #488	; 0x1e8
/Users/Luppy/PineTime/pinetime-rust-mynewt/rust/app/src/app_network.rs:113
    sensor_network::do_server_post() ? ;
 508:	f7ff fffe 	bl	0 <_ZN6mynewt4libs14sensor_network14do_server_post17hd1ac47b0b902419bE>
 50c:	e7ff      	b.n	50e <_ZN3app11app_network16send_sensor_data17h1594a2013100c700E+0x50e>
 50e:	a878      	add	r0, sp, #480	; 0x1e0
 510:	a97a      	add	r1, sp, #488	; 0x1e8
 512:	f7ff fffe 	bl	0 <_ZN73_$LT$core..result..Result$LT$T$C$E$GT$$u20$as$u20$core..ops..try..Try$GT$11into_result17hb1f80aacfcb37e79E>
 516:	e7ff      	b.n	518 <_ZN3app11app_network16send_sensor_data17h1594a2013100c700E+0x518>
 518:	f89d 01e0 	ldrb.w	r0, [sp, #480]	; 0x1e0
 51c:	07c1      	lsls	r1, r0, #31
 51e:	2900      	cmp	r1, #0
 520:	d00f      	beq.n	542 <_ZN3app11app_network16send_sensor_data17h1594a2013100c700E+0x542>
 522:	e7ff      	b.n	524 <_ZN3app11app_network16send_sensor_data17h1594a2013100c700E+0x524>
 524:	e000      	b.n	528 <_ZN3app11app_network16send_sensor_data17h1594a2013100c700E+0x528>
 526:	defe      	udf	#254	; 0xfe
 528:	9879      	ldr	r0, [sp, #484]	; 0x1e4
 52a:	907c      	str	r0, [sp, #496]	; 0x1f0
 52c:	987c      	ldr	r0, [sp, #496]	; 0x1f0
 52e:	f7ff fffe 	bl	0 <_ZN50_$LT$T$u20$as$u20$core..convert..From$LT$T$GT$$GT$4from17h2ece7be01fdee8faE>
 532:	9002      	str	r0, [sp, #8]
 534:	e7ff      	b.n	536 <_ZN3app11app_network16send_sensor_data17h1594a2013100c700E+0x536>
 536:	9802      	ldr	r0, [sp, #8]
 538:	f7ff fffe 	bl	0 <_ZN73_$LT$core..result..Result$LT$T$C$E$GT$$u20$as$u20$core..ops..try..Try$GT$10from_error17h8ca7b6780f95f931E>
 53c:	9026      	str	r0, [sp, #152]	; 0x98
 53e:	e7ff      	b.n	540 <_ZN3app11app_network16send_sensor_data17h1594a2013100c700E+0x540>
 540:	e618      	b.n	174 <_ZN3app11app_network16send_sensor_data17h1594a2013100c700E+0x174>
 542:	f89d 01e1 	ldrb.w	r0, [sp, #481]	; 0x1e1
 546:	f88d 01f7 	strb.w	r0, [sp, #503]	; 0x1f7
/Users/Luppy/PineTime/pinetime-rust-mynewt/rust/app/src/app_network.rs:116
    console::print("NET view your sensor at \nhttps://blue-pill-geolocate.appspot.com?device=");
 54a:	f240 0000 	movw	r0, #0
 54e:	f2c0 0000 	movt	r0, #0
 552:	2148      	movs	r1, #72	; 0x48
 554:	f7ff fffe 	bl	0 <_ZN6mynewt3sys7console5print17h67a3059d9eb8a82eE>
 558:	e7ff      	b.n	55a <_ZN3app11app_network16send_sensor_data17h1594a2013100c700E+0x55a>
 55a:	a828      	add	r0, sp, #160	; 0xa0
/Users/Luppy/PineTime/pinetime-rust-mynewt/rust/app/src/app_network.rs:117
    console::print_strn(&device_id); console::print("\n");
 55c:	f7ff fffe 	bl	0 <_ZN6mynewt3sys7console10print_strn17h2c52eb0db6b95a22E>
 560:	e7ff      	b.n	2 <_ZN3app11app_network16send_sensor_data17h1594a2013100c700E+0x2>
 562:	f240 0000 	movw	r0, #0
 566:	f2c0 0000 	movt	r0, #0
 56a:	2101      	movs	r1, #1
 56c:	f7ff fffe 	bl	0 <_ZN6mynewt3sys7console5print17h67a3059d9eb8a82eE>
 570:	e7ff      	b.n	572 <_ZN3app11app_network16send_sensor_data17h1594a2013100c700E+0x572>
 572:	2000      	movs	r0, #0
/Users/Luppy/PineTime/pinetime-rust-mynewt/rust/app/src/app_network.rs:120
    Ok(())
 574:	9026      	str	r0, [sp, #152]	; 0x98
 576:	2001      	movs	r0, #1
 578:	9026      	str	r0, [sp, #152]	; 0x98
/Users/Luppy/PineTime/pinetime-rust-mynewt/rust/app/src/app_network.rs:121
}
 57a:	e588      	b.n	8e <_ZN3app11app_network16send_sensor_data17h1594a2013100c700E+0x8e>

app-d559bf047a1af437.41bhtk1pdyspgjkt.rcgu.o:     file format elf32-littlearm

SYMBOL TABLE:
00000000 l    df *ABS*	00000000 41bhtk1pdyspgjkt
00000631 l       .debug_str	00000000 
000003eb l       .debug_str	00000000 
0000048e l       .debug_str	00000000 
0000052d l       .debug_str	00000000 
00000561 l       .debug_str	00000000 
00000565 l       .debug_str	00000000 
0000056e l       .debug_str	00000000 
0000057c l       .debug_str	00000000 
00000594 l       .debug_str	00000000 
000005a2 l       .debug_str	00000000 
000005d7 l       .debug_str	00000000 
000006ee l       .debug_str	00000000 
00000729 l       .debug_str	00000000 
00000782 l       .debug_str	00000000 
000007b5 l       .debug_str	00000000 
000007ba l       .debug_str	00000000 
000007c0 l       .debug_str	00000000 
00000824 l       .debug_str	00000000 
00000894 l       .debug_str	00000000 
0000089a l       .debug_str	00000000 
0000089e l       .debug_str	00000000 
000008d8 l       .debug_str	00000000 
0000091a l       .debug_str	00000000 
0000091e l       .debug_str	00000000 
0000092b l       .debug_str	00000000 
0000092e l       .debug_str	00000000 
00000931 l       .debug_str	00000000 
00000936 l       .debug_str	00000000 
00000940 l       .debug_str	00000000 
00000000 l       .debug_str	00000000 
00000041 l       .debug_str	00000000 
00000055 l       .debug_str	00000000 
00000080 l       .debug_str	00000000 
00000092 l       .debug_str	00000000 
0000009d l       .debug_str	00000000 
000000a7 l       .debug_str	00000000 
000000b0 l       .debug_str	00000000 
000000b5 l       .debug_str	00000000 
000000be l       .debug_str	00000000 
000000c4 l       .debug_str	00000000 
000000d3 l       .debug_str	00000000 
000000d7 l       .debug_str	00000000 
000000db l       .debug_str	00000000 
000000df l       .debug_str	00000000 
000000e5 l       .debug_str	00000000 
000000f2 l       .debug_str	00000000 
000000f8 l       .debug_str	00000000 
00000103 l       .debug_str	00000000 
00000108 l       .debug_str	00000000 
0000010f l       .debug_str	00000000 
00000113 l       .debug_str	00000000 
00000118 l       .debug_str	00000000 
00000123 l       .debug_str	00000000 
0000012a l       .debug_str	00000000 
00000131 l       .debug_str	00000000 
00000133 l       .debug_str	00000000 
00000138 l       .debug_str	00000000 
0000016e l       .debug_str	00000000 
0000017b l       .debug_str	00000000 
00000188 l       .debug_str	00000000 
0000018b l       .debug_str	00000000 
0000018d l       .debug_str	00000000 
000001c2 l       .debug_str	00000000 
000001c4 l       .debug_str	00000000 
000001fd l       .debug_str	00000000 
0000029c l       .debug_str	00000000 
000002d5 l       .debug_str	00000000 
000002d7 l       .debug_str	00000000 
000002d9 l       .debug_str	00000000 
0000031a l       .debug_str	00000000 
000003b7 l       .debug_str	00000000 
00000000 l     O .rodata..Lanon.5c9dbd2f4e8e8cdbd129d6bb1dc4ac4b.1	00000010 .Lanon.5c9dbd2f4e8e8cdbd129d6bb1dc4ac4b.1
00000000 l     O .rodata..Lanon.5c9dbd2f4e8e8cdbd129d6bb1dc4ac4b.2	00000010 .Lanon.5c9dbd2f4e8e8cdbd129d6bb1dc4ac4b.2
00000000 l     O .rodata..Lanon.5c9dbd2f4e8e8cdbd129d6bb1dc4ac4b.3	00000010 .Lanon.5c9dbd2f4e8e8cdbd129d6bb1dc4ac4b.3
00000000 l     O .rodata..Lanon.5c9dbd2f4e8e8cdbd129d6bb1dc4ac4b.4	00000010 .Lanon.5c9dbd2f4e8e8cdbd129d6bb1dc4ac4b.4
00000000 l     O .rodata..Lanon.5c9dbd2f4e8e8cdbd129d6bb1dc4ac4b.5	0000000f .Lanon.5c9dbd2f4e8e8cdbd129d6bb1dc4ac4b.5
00000000 l     O .rodata..Lanon.5c9dbd2f4e8e8cdbd129d6bb1dc4ac4b.6	00000010 .Lanon.5c9dbd2f4e8e8cdbd129d6bb1dc4ac4b.6
00000000 l     O .rodata..Lanon.5c9dbd2f4e8e8cdbd129d6bb1dc4ac4b.7	00000010 .Lanon.5c9dbd2f4e8e8cdbd129d6bb1dc4ac4b.7
00000000 l     O .rodata.str.0	0000001c str.0
00000000 l     O .rodata.str.1	00000021 str.1
00000000 l    d  .text._ZN122_$LT$embedded_graphics..primitives..rectangle..Rectangle$LT$C$GT$$u20$as$u20$core..iter..traits..collect..IntoIterator$GT$9into_iter17h8f8219360d21c276E	00000000 .text._ZN122_$LT$embedded_graphics..primitives..rectangle..Rectangle$LT$C$GT$$u20$as$u20$core..iter..traits..collect..IntoIterator$GT$9into_iter17h8f8219360d21c276E
00000000 l    d  .text._ZN125_$LT$embedded_graphics..primitives..rectangle..Rectangle$LT$C$GT$$u20$as$u20$embedded_graphics..style..WithStyle$LT$C$GT$$GT$4fill17h80dff45f29022eafE	00000000 .text._ZN125_$LT$embedded_graphics..primitives..rectangle..Rectangle$LT$C$GT$$u20$as$u20$embedded_graphics..style..WithStyle$LT$C$GT$$GT$4fill17h80dff45f29022eafE
00000000 l    d  .text._ZN126_$LT$$RF$embedded_graphics..primitives..rectangle..Rectangle$LT$C$GT$$u20$as$u20$core..iter..traits..collect..IntoIterator$GT$9into_iter17h691b2a6e5e2e7060E	00000000 .text._ZN126_$LT$$RF$embedded_graphics..primitives..rectangle..Rectangle$LT$C$GT$$u20$as$u20$core..iter..traits..collect..IntoIterator$GT$9into_iter17h691b2a6e5e2e7060E
00000000 l    d  .text._ZN127_$LT$embedded_graphics..primitives..rectangle..RectangleIterator$LT$C$GT$$u20$as$u20$core..iter..traits..iterator..Iterator$GT$4next17h8efda72015f57603E	00000000 .text._ZN127_$LT$embedded_graphics..primitives..rectangle..RectangleIterator$LT$C$GT$$u20$as$u20$core..iter..traits..iterator..Iterator$GT$4next17h8efda72015f57603E
00000000 l    d  .text._ZN127_$LT$embedded_graphics..primitives..rectangle..RectangleIterator$LT$C$GT$$u20$as$u20$core..iter..traits..iterator..Iterator$GT$4next28_$u7b$$u7b$closure$u7d$$u7d$17h0bb8e9d8beb8e87eE	00000000 .text._ZN127_$LT$embedded_graphics..primitives..rectangle..RectangleIterator$LT$C$GT$$u20$as$u20$core..iter..traits..iterator..Iterator$GT$4next28_$u7b$$u7b$closure$u7d$$u7d$17h0bb8e9d8beb8e87eE
00000000 l    d  .text._ZN17embedded_graphics10primitives9rectangle18Rectangle$LT$C$GT$3new17hb10b8ce5aecb39f5E	00000000 .text._ZN17embedded_graphics10primitives9rectangle18Rectangle$LT$C$GT$3new17hb10b8ce5aecb39f5E
00000000 l    d  .rodata..Lanon.5c9dbd2f4e8e8cdbd129d6bb1dc4ac4b.0	00000000 .rodata..Lanon.5c9dbd2f4e8e8cdbd129d6bb1dc4ac4b.0
00000000 l    d  .debug_loc	00000000 .debug_loc
00000000 l    d  .debug_abbrev	00000000 .debug_abbrev
00000000 l    d  .debug_info	00000000 .debug_info
00000000 l    d  .debug_ranges	00000000 .debug_ranges
00000000 l    d  .debug_frame	00000000 .debug_frame
00000000 l    d  .debug_line	00000000 .debug_line
00000000         *UND*	00000000 _ZN104_$LT$embedded_graphics..coord..internal_coord..Coord$u20$as$u20$core..ops..index..Index$LT$usize$GT$$GT$5index17h6ee4fd1eb3180c09E
00000000         *UND*	00000000 _ZN104_$LT$embedded_graphics..coord..internal_coord..Coord$u20$as$u20$embedded_graphics..coord..ToUnsigned$GT$11to_unsigned17hae862e0dbc899c11E
00000000 g     F .text._ZN122_$LT$embedded_graphics..primitives..rectangle..Rectangle$LT$C$GT$$u20$as$u20$core..iter..traits..collect..IntoIterator$GT$9into_iter17h8f8219360d21c276E	0000000a _ZN122_$LT$embedded_graphics..primitives..rectangle..Rectangle$LT$C$GT$$u20$as$u20$core..iter..traits..collect..IntoIterator$GT$9into_iter17h8f8219360d21c276E
00000000 g     F .text._ZN125_$LT$embedded_graphics..primitives..rectangle..Rectangle$LT$C$GT$$u20$as$u20$embedded_graphics..style..WithStyle$LT$C$GT$$GT$4fill17h80dff45f29022eafE	0000002c _ZN125_$LT$embedded_graphics..primitives..rectangle..Rectangle$LT$C$GT$$u20$as$u20$embedded_graphics..style..WithStyle$LT$C$GT$$GT$4fill17h80dff45f29022eafE
00000000 g     F .text._ZN126_$LT$$RF$embedded_graphics..primitives..rectangle..Rectangle$LT$C$GT$$u20$as$u20$core..iter..traits..collect..IntoIterator$GT$9into_iter17h691b2a6e5e2e7060E	0000008a _ZN126_$LT$$RF$embedded_graphics..primitives..rectangle..Rectangle$LT$C$GT$$u20$as$u20$core..iter..traits..collect..IntoIterator$GT$9into_iter17h691b2a6e5e2e7060E
00000000 g     F .text._ZN127_$LT$embedded_graphics..primitives..rectangle..RectangleIterator$LT$C$GT$$u20$as$u20$core..iter..traits..iterator..Iterator$GT$4next17h8efda72015f57603E	000005e2 _ZN127_$LT$embedded_graphics..primitives..rectangle..RectangleIterator$LT$C$GT$$u20$as$u20$core..iter..traits..iterator..Iterator$GT$4next17h8efda72015f57603E
00000000 g     F .text._ZN127_$LT$embedded_graphics..primitives..rectangle..RectangleIterator$LT$C$GT$$u20$as$u20$core..iter..traits..iterator..Iterator$GT$4next28_$u7b$$u7b$closure$u7d$$u7d$17h0bb8e9d8beb8e87eE	00000048 _ZN127_$LT$embedded_graphics..primitives..rectangle..RectangleIterator$LT$C$GT$$u20$as$u20$core..iter..traits..iterator..Iterator$GT$4next28_$u7b$$u7b$closure$u7d$$u7d$17h0bb8e9d8beb8e87eE
00000000 g     F .text._ZN17embedded_graphics10primitives9rectangle18Rectangle$LT$C$GT$3new17hb10b8ce5aecb39f5E	00000062 _ZN17embedded_graphics10primitives9rectangle18Rectangle$LT$C$GT$3new17hb10b8ce5aecb39f5E
00000000         *UND*	00000000 _ZN17embedded_graphics5coord14internal_coord5Coord3new17h337630cfd7cf8814E
00000000         *UND*	00000000 _ZN4core6option15Option$LT$T$GT$3map17h8f94395c825fc3faE
00000000         *UND*	00000000 _ZN4core6option15Option$LT$T$GT$6expect17hc4cab784399a1c6dE
00000000         *UND*	00000000 _ZN4core6option15Option$LT$T$GT$7is_none17h0322cadb15e896fdE
00000000         *UND*	00000000 _ZN4core6option15Option$LT$T$GT$7is_some17h8b100881b59e2d05E
00000000         *UND*	00000000 _ZN4core6option15Option$LT$T$GT$7is_some17hf12135d0d5d4ce47E
00000000         *UND*	00000000 _ZN4core9panicking5panic17hfdd0eecc44a682f8E
00000000         *UND*	00000000 _ZN83_$LT$embedded_graphics..style..Style$LT$P$GT$$u20$as$u20$core..default..Default$GT$7default17h18df05f9e5f2bd22E



Disassembly of section .text._ZN122_$LT$embedded_graphics..primitives..rectangle..Rectangle$LT$C$GT$$u20$as$u20$core..iter..traits..collect..IntoIterator$GT$9into_iter17h8f8219360d21c276E:

00000000 <_ZN122_$LT$embedded_graphics..primitives..rectangle..Rectangle$LT$C$GT$$u20$as$u20$core..iter..traits..collect..IntoIterator$GT$9into_iter17h8f8219360d21c276E>:
_ZN122_$LT$embedded_graphics..primitives..rectangle..Rectangle$LT$C$GT$$u20$as$u20$core..iter..traits..collect..IntoIterator$GT$9into_iter17h8f8219360d21c276E():
/Users/Luppy/.cargo/registry/src/github.com-1ecc6299db9ec823/embedded-graphics-0.5.2/src/primitives/rectangle.rs:124
    C: PixelColor,
{
    type Item = Pixel<C>;
    type IntoIter = RectangleIterator<C>;

    fn into_iter(self) -> Self::IntoIter {
   0:	b580      	push	{r7, lr}
/Users/Luppy/.cargo/registry/src/github.com-1ecc6299db9ec823/embedded-graphics-0.5.2/src/primitives/rectangle.rs:125
        (&self).into_iter()
   2:	f7ff fffe 	bl	0 <_ZN122_$LT$embedded_graphics..primitives..rectangle..Rectangle$LT$C$GT$$u20$as$u20$core..iter..traits..collect..IntoIterator$GT$9into_iter17h8f8219360d21c276E>
   6:	e7ff      	b.n	8 <_ZN122_$LT$embedded_graphics..primitives..rectangle..Rectangle$LT$C$GT$$u20$as$u20$core..iter..traits..collect..IntoIterator$GT$9into_iter17h8f8219360d21c276E+0x8>
/Users/Luppy/.cargo/registry/src/github.com-1ecc6299db9ec823/embedded-graphics-0.5.2/src/primitives/rectangle.rs:126
    }
   8:	bd80      	pop	{r7, pc}

Disassembly of section .text._ZN125_$LT$embedded_graphics..primitives..rectangle..Rectangle$LT$C$GT$$u20$as$u20$embedded_graphics..style..WithStyle$LT$C$GT$$GT$4fill17h80dff45f29022eafE:

00000000 <_ZN125_$LT$embedded_graphics..primitives..rectangle..Rectangle$LT$C$GT$$u20$as$u20$embedded_graphics..style..WithStyle$LT$C$GT$$GT$4fill17h80dff45f29022eafE>:
_ZN125_$LT$embedded_graphics..primitives..rectangle..Rectangle$LT$C$GT$$u20$as$u20$embedded_graphics..style..WithStyle$LT$C$GT$$GT$4fill17h80dff45f29022eafE():
/Users/Luppy/.cargo/registry/src/github.com-1ecc6299db9ec823/embedded-graphics-0.5.2/src/primitives/rectangle.rs:110
    fn fill(mut self, color: Option<C>) -> Self {
   0:	b5b0      	push	{r4, r5, r7, lr}
   2:	b081      	sub	sp, #4
   4:	469c      	mov	ip, r3
   6:	4696      	mov	lr, r2
   8:	f8ad 2000 	strh.w	r2, [sp]
   c:	f8ad 3002 	strh.w	r3, [sp, #2]
/Users/Luppy/.cargo/registry/src/github.com-1ecc6299db9ec823/embedded-graphics-0.5.2/src/primitives/rectangle.rs:111
        self.style.fill_color = color;
  10:	f8bd 2000 	ldrh.w	r2, [sp]
  14:	f8bd 3002 	ldrh.w	r3, [sp, #2]
  18:	820a      	strh	r2, [r1, #16]
  1a:	824b      	strh	r3, [r1, #18]
/Users/Luppy/.cargo/registry/src/github.com-1ecc6299db9ec823/embedded-graphics-0.5.2/src/primitives/rectangle.rs:113
        self
  1c:	c91c      	ldmia	r1!, {r2, r3, r4}
  1e:	c01c      	stmia	r0!, {r2, r3, r4}
  20:	e891 003c 	ldmia.w	r1, {r2, r3, r4, r5}
  24:	e880 003c 	stmia.w	r0, {r2, r3, r4, r5}
/Users/Luppy/.cargo/registry/src/github.com-1ecc6299db9ec823/embedded-graphics-0.5.2/src/primitives/rectangle.rs:114
    }
  28:	b001      	add	sp, #4
  2a:	bdb0      	pop	{r4, r5, r7, pc}

Disassembly of section .text._ZN126_$LT$$RF$embedded_graphics..primitives..rectangle..Rectangle$LT$C$GT$$u20$as$u20$core..iter..traits..collect..IntoIterator$GT$9into_iter17h691b2a6e5e2e7060E:

00000000 <_ZN126_$LT$$RF$embedded_graphics..primitives..rectangle..Rectangle$LT$C$GT$$u20$as$u20$core..iter..traits..collect..IntoIterator$GT$9into_iter17h691b2a6e5e2e7060E>:
_ZN126_$LT$$RF$embedded_graphics..primitives..rectangle..Rectangle$LT$C$GT$$u20$as$u20$core..iter..traits..collect..IntoIterator$GT$9into_iter17h691b2a6e5e2e7060E():
/Users/Luppy/.cargo/registry/src/github.com-1ecc6299db9ec823/embedded-graphics-0.5.2/src/primitives/rectangle.rs:136
    C: PixelColor,
{
    type Item = Pixel<C>;
    type IntoIter = RectangleIterator<C>;

    fn into_iter(self) -> Self::IntoIter {
   0:	b570      	push	{r4, r5, r6, lr}
   2:	b08c      	sub	sp, #48	; 0x30
   4:	9108      	str	r1, [sp, #32]
/Users/Luppy/.cargo/registry/src/github.com-1ecc6299db9ec823/embedded-graphics-0.5.2/src/primitives/rectangle.rs:138
        RectangleIterator {
            top_left: self.top_left,
   6:	9908      	ldr	r1, [sp, #32]
   8:	680a      	ldr	r2, [r1, #0]
   a:	684b      	ldr	r3, [r1, #4]
/Users/Luppy/.cargo/registry/src/github.com-1ecc6299db9ec823/embedded-graphics-0.5.2/src/primitives/rectangle.rs:139
            bottom_right: self.bottom_right,
   c:	f8d1 c008 	ldr.w	ip, [r1, #8]
  10:	f8d1 e00c 	ldr.w	lr, [r1, #12]
/Users/Luppy/.cargo/registry/src/github.com-1ecc6299db9ec823/embedded-graphics-0.5.2/src/primitives/rectangle.rs:140
            style: self.style,
  14:	8b0c      	ldrh	r4, [r1, #24]
  16:	f8ad 402c 	strh.w	r4, [sp, #44]	; 0x2c
  1a:	690c      	ldr	r4, [r1, #16]
  1c:	6949      	ldr	r1, [r1, #20]
  1e:	910a      	str	r1, [sp, #40]	; 0x28
  20:	9409      	str	r4, [sp, #36]	; 0x24
/Users/Luppy/.cargo/registry/src/github.com-1ecc6299db9ec823/embedded-graphics-0.5.2/src/primitives/rectangle.rs:141
            x: self.top_left[0],
  22:	9908      	ldr	r1, [sp, #32]
  24:	2400      	movs	r4, #0
  26:	9007      	str	r0, [sp, #28]
  28:	4608      	mov	r0, r1
  2a:	4621      	mov	r1, r4
  2c:	9206      	str	r2, [sp, #24]
  2e:	9305      	str	r3, [sp, #20]
  30:	f8cd c010 	str.w	ip, [sp, #16]
  34:	f8cd e00c 	str.w	lr, [sp, #12]
  38:	f7ff fffe 	bl	0 <_ZN104_$LT$embedded_graphics..coord..internal_coord..Coord$u20$as$u20$core..ops..index..Index$LT$usize$GT$$GT$5index17h6ee4fd1eb3180c09E>
  3c:	9002      	str	r0, [sp, #8]
  3e:	e7ff      	b.n	40 <_ZN126_$LT$$RF$embedded_graphics..primitives..rectangle..Rectangle$LT$C$GT$$u20$as$u20$core..iter..traits..collect..IntoIterator$GT$9into_iter17h691b2a6e5e2e7060E+0x40>
  40:	9802      	ldr	r0, [sp, #8]
  42:	6801      	ldr	r1, [r0, #0]
/Users/Luppy/.cargo/registry/src/github.com-1ecc6299db9ec823/embedded-graphics-0.5.2/src/primitives/rectangle.rs:142
            y: self.top_left[1],
  44:	9808      	ldr	r0, [sp, #32]
  46:	2201      	movs	r2, #1
  48:	9101      	str	r1, [sp, #4]
  4a:	4611      	mov	r1, r2
  4c:	f7ff fffe 	bl	0 <_ZN104_$LT$embedded_graphics..coord..internal_coord..Coord$u20$as$u20$core..ops..index..Index$LT$usize$GT$$GT$5index17h6ee4fd1eb3180c09E>
  50:	9000      	str	r0, [sp, #0]
  52:	e7ff      	b.n	54 <_ZN126_$LT$$RF$embedded_graphics..primitives..rectangle..Rectangle$LT$C$GT$$u20$as$u20$core..iter..traits..collect..IntoIterator$GT$9into_iter17h691b2a6e5e2e7060E+0x54>
  54:	9800      	ldr	r0, [sp, #0]
  56:	6801      	ldr	r1, [r0, #0]
/Users/Luppy/.cargo/registry/src/github.com-1ecc6299db9ec823/embedded-graphics-0.5.2/src/primitives/rectangle.rs:137
        RectangleIterator {
  58:	9a06      	ldr	r2, [sp, #24]
  5a:	9b07      	ldr	r3, [sp, #28]
  5c:	601a      	str	r2, [r3, #0]
  5e:	f8dd c014 	ldr.w	ip, [sp, #20]
  62:	f8c3 c004 	str.w	ip, [r3, #4]
  66:	f8dd e010 	ldr.w	lr, [sp, #16]
  6a:	f8c3 e008 	str.w	lr, [r3, #8]
  6e:	9c03      	ldr	r4, [sp, #12]
  70:	60dc      	str	r4, [r3, #12]
  72:	f8bd 502c 	ldrh.w	r5, [sp, #44]	; 0x2c
  76:	841d      	strh	r5, [r3, #32]
  78:	9d09      	ldr	r5, [sp, #36]	; 0x24
  7a:	9e0a      	ldr	r6, [sp, #40]	; 0x28
  7c:	61de      	str	r6, [r3, #28]
  7e:	619d      	str	r5, [r3, #24]
  80:	9d01      	ldr	r5, [sp, #4]
  82:	611d      	str	r5, [r3, #16]
  84:	6159      	str	r1, [r3, #20]
/Users/Luppy/.cargo/registry/src/github.com-1ecc6299db9ec823/embedded-graphics-0.5.2/src/primitives/rectangle.rs:144
        }
    }
  86:	b00c      	add	sp, #48	; 0x30
  88:	bd70      	pop	{r4, r5, r6, pc}

Disassembly of section .text._ZN127_$LT$embedded_graphics..primitives..rectangle..RectangleIterator$LT$C$GT$$u20$as$u20$core..iter..traits..iterator..Iterator$GT$4next17h8efda72015f57603E:

00000000 <_ZN127_$LT$embedded_graphics..primitives..rectangle..RectangleIterator$LT$C$GT$$u20$as$u20$core..iter..traits..iterator..Iterator$GT$4next17h8efda72015f57603E>:
_ZN127_$LT$embedded_graphics..primitives..rectangle..RectangleIterator$LT$C$GT$$u20$as$u20$core..iter..traits..iterator..Iterator$GT$4next17h8efda72015f57603E():
/Users/Luppy/.cargo/registry/src/github.com-1ecc6299db9ec823/embedded-graphics-0.5.2/src/primitives/rectangle.rs:166
where
    C: PixelColor,
{
    type Item = Pixel<C>;

    fn next(&mut self) -> Option<Self::Item> {
   0:	b510      	push	{r4, lr}
   2:	b0ce      	sub	sp, #312	; 0x138
   4:	9128      	str	r1, [sp, #160]	; 0xa0
/Users/Luppy/.cargo/registry/src/github.com-1ecc6299db9ec823/embedded-graphics-0.5.2/src/primitives/rectangle.rs:169
        // If entire object is off the top left of the screen or has no border or fill colour,
        // don't render anything
        if (self.top_left[0] < 0 || self.top_left[1] < 0)
   6:	9928      	ldr	r1, [sp, #160]	; 0xa0
   8:	2200      	movs	r2, #0
   a:	9027      	str	r0, [sp, #156]	; 0x9c
   c:	4608      	mov	r0, r1
   e:	4611      	mov	r1, r2
  10:	f7ff fffe 	bl	0 <_ZN104_$LT$embedded_graphics..coord..internal_coord..Coord$u20$as$u20$core..ops..index..Index$LT$usize$GT$$GT$5index17h6ee4fd1eb3180c09E>
  14:	9026      	str	r0, [sp, #152]	; 0x98
  16:	e03c      	b.n	92 <_ZN127_$LT$embedded_graphics..primitives..rectangle..RectangleIterator$LT$C$GT$$u20$as$u20$core..iter..traits..iterator..Iterator$GT$4next17h8efda72015f57603E+0x92>
  18:	2001      	movs	r0, #1
  1a:	f88d 00a7 	strb.w	r0, [sp, #167]	; 0xa7
  1e:	e009      	b.n	34 <_ZN127_$LT$embedded_graphics..primitives..rectangle..RectangleIterator$LT$C$GT$$u20$as$u20$core..iter..traits..iterator..Iterator$GT$4next17h8efda72015f57603E+0x34>
  20:	2000      	movs	r0, #0
  22:	f88d 00a7 	strb.w	r0, [sp, #167]	; 0xa7
  26:	e005      	b.n	34 <_ZN127_$LT$embedded_graphics..primitives..rectangle..RectangleIterator$LT$C$GT$$u20$as$u20$core..iter..traits..iterator..Iterator$GT$4next17h8efda72015f57603E+0x34>
/Users/Luppy/.cargo/registry/src/github.com-1ecc6299db9ec823/embedded-graphics-0.5.2/src/primitives/rectangle.rs:171
            && (self.bottom_right[0] < 0 || self.bottom_right[1] < 0)
            || (self.style.stroke_color.is_none() && self.style.fill_color.is_none())
  28:	9828      	ldr	r0, [sp, #160]	; 0xa0
  2a:	301c      	adds	r0, #28
  2c:	f7ff fffe 	bl	0 <_ZN4core6option15Option$LT$T$GT$7is_none17h0322cadb15e896fdE>
  30:	9025      	str	r0, [sp, #148]	; 0x94
  32:	e06c      	b.n	10e <_ZN127_$LT$embedded_graphics..primitives..rectangle..RectangleIterator$LT$C$GT$$u20$as$u20$core..iter..traits..iterator..Iterator$GT$4next17h8efda72015f57603E+0x10e>
/Users/Luppy/.cargo/registry/src/github.com-1ecc6299db9ec823/embedded-graphics-0.5.2/src/primitives/rectangle.rs:169
        if (self.top_left[0] < 0 || self.top_left[1] < 0)
  34:	f89d 00a7 	ldrb.w	r0, [sp, #167]	; 0xa7
  38:	07c0      	lsls	r0, r0, #31
  3a:	2800      	cmp	r0, #0
  3c:	d172      	bne.n	124 <_ZN127_$LT$embedded_graphics..primitives..rectangle..RectangleIterator$LT$C$GT$$u20$as$u20$core..iter..traits..iterator..Iterator$GT$4next17h8efda72015f57603E+0x124>
  3e:	e070      	b.n	122 <_ZN127_$LT$embedded_graphics..primitives..rectangle..RectangleIterator$LT$C$GT$$u20$as$u20$core..iter..traits..iterator..Iterator$GT$4next17h8efda72015f57603E+0x122>
  40:	2001      	movs	r0, #1
  42:	f88d 00a8 	strb.w	r0, [sp, #168]	; 0xa8
  46:	e00a      	b.n	5e <_ZN127_$LT$embedded_graphics..primitives..rectangle..RectangleIterator$LT$C$GT$$u20$as$u20$core..iter..traits..iterator..Iterator$GT$4next17h8efda72015f57603E+0x5e>
  48:	2000      	movs	r0, #0
  4a:	f88d 00a8 	strb.w	r0, [sp, #168]	; 0xa8
  4e:	e006      	b.n	5e <_ZN127_$LT$embedded_graphics..primitives..rectangle..RectangleIterator$LT$C$GT$$u20$as$u20$core..iter..traits..iterator..Iterator$GT$4next17h8efda72015f57603E+0x5e>
/Users/Luppy/.cargo/registry/src/github.com-1ecc6299db9ec823/embedded-graphics-0.5.2/src/primitives/rectangle.rs:170
            && (self.bottom_right[0] < 0 || self.bottom_right[1] < 0)
  50:	9828      	ldr	r0, [sp, #160]	; 0xa0
  52:	3008      	adds	r0, #8
  54:	2100      	movs	r1, #0
  56:	f7ff fffe 	bl	0 <_ZN104_$LT$embedded_graphics..coord..internal_coord..Coord$u20$as$u20$core..ops..index..Index$LT$usize$GT$$GT$5index17h6ee4fd1eb3180c09E>
  5a:	9024      	str	r0, [sp, #144]	; 0x90
  5c:	e038      	b.n	d0 <_ZN127_$LT$embedded_graphics..primitives..rectangle..RectangleIterator$LT$C$GT$$u20$as$u20$core..iter..traits..iterator..Iterator$GT$4next17h8efda72015f57603E+0xd0>
/Users/Luppy/.cargo/registry/src/github.com-1ecc6299db9ec823/embedded-graphics-0.5.2/src/primitives/rectangle.rs:169
        if (self.top_left[0] < 0 || self.top_left[1] < 0)
  5e:	f89d 00a8 	ldrb.w	r0, [sp, #168]	; 0xa8
  62:	07c0      	lsls	r0, r0, #31
  64:	2800      	cmp	r0, #0
  66:	d1d7      	bne.n	18 <_ZN127_$LT$embedded_graphics..primitives..rectangle..RectangleIterator$LT$C$GT$$u20$as$u20$core..iter..traits..iterator..Iterator$GT$4next17h8efda72015f57603E+0x18>
  68:	e7de      	b.n	28 <_ZN127_$LT$embedded_graphics..primitives..rectangle..RectangleIterator$LT$C$GT$$u20$as$u20$core..iter..traits..iterator..Iterator$GT$4next17h8efda72015f57603E+0x28>
  6a:	2001      	movs	r0, #1
  6c:	f88d 00a9 	strb.w	r0, [sp, #169]	; 0xa9
  70:	e009      	b.n	86 <_ZN127_$LT$embedded_graphics..primitives..rectangle..RectangleIterator$LT$C$GT$$u20$as$u20$core..iter..traits..iterator..Iterator$GT$4next17h8efda72015f57603E+0x86>
  72:	2000      	movs	r0, #0
  74:	f88d 00a9 	strb.w	r0, [sp, #169]	; 0xa9
  78:	e005      	b.n	86 <_ZN127_$LT$embedded_graphics..primitives..rectangle..RectangleIterator$LT$C$GT$$u20$as$u20$core..iter..traits..iterator..Iterator$GT$4next17h8efda72015f57603E+0x86>
  7a:	9828      	ldr	r0, [sp, #160]	; 0xa0
  7c:	2101      	movs	r1, #1
  7e:	f7ff fffe 	bl	0 <_ZN104_$LT$embedded_graphics..coord..internal_coord..Coord$u20$as$u20$core..ops..index..Index$LT$usize$GT$$GT$5index17h6ee4fd1eb3180c09E>
  82:	9023      	str	r0, [sp, #140]	; 0x8c
  84:	e00a      	b.n	9c <_ZN127_$LT$embedded_graphics..primitives..rectangle..RectangleIterator$LT$C$GT$$u20$as$u20$core..iter..traits..iterator..Iterator$GT$4next17h8efda72015f57603E+0x9c>
  86:	f89d 00a9 	ldrb.w	r0, [sp, #169]	; 0xa9
  8a:	07c0      	lsls	r0, r0, #31
  8c:	2800      	cmp	r0, #0
  8e:	d1df      	bne.n	50 <_ZN127_$LT$embedded_graphics..primitives..rectangle..RectangleIterator$LT$C$GT$$u20$as$u20$core..iter..traits..iterator..Iterator$GT$4next17h8efda72015f57603E+0x50>
  90:	e7da      	b.n	48 <_ZN127_$LT$embedded_graphics..primitives..rectangle..RectangleIterator$LT$C$GT$$u20$as$u20$core..iter..traits..iterator..Iterator$GT$4next17h8efda72015f57603E+0x48>
  92:	9826      	ldr	r0, [sp, #152]	; 0x98
  94:	6801      	ldr	r1, [r0, #0]
  96:	2900      	cmp	r1, #0
  98:	d4e7      	bmi.n	6a <_ZN127_$LT$embedded_graphics..primitives..rectangle..RectangleIterator$LT$C$GT$$u20$as$u20$core..iter..traits..iterator..Iterator$GT$4next17h8efda72015f57603E+0x6a>
  9a:	e7ee      	b.n	7a <_ZN127_$LT$embedded_graphics..primitives..rectangle..RectangleIterator$LT$C$GT$$u20$as$u20$core..iter..traits..iterator..Iterator$GT$4next17h8efda72015f57603E+0x7a>
  9c:	9823      	ldr	r0, [sp, #140]	; 0x8c
  9e:	6801      	ldr	r1, [r0, #0]
  a0:	2900      	cmp	r1, #0
  a2:	d4e2      	bmi.n	6a <_ZN127_$LT$embedded_graphics..primitives..rectangle..RectangleIterator$LT$C$GT$$u20$as$u20$core..iter..traits..iterator..Iterator$GT$4next17h8efda72015f57603E+0x6a>
  a4:	e7e5      	b.n	72 <_ZN127_$LT$embedded_graphics..primitives..rectangle..RectangleIterator$LT$C$GT$$u20$as$u20$core..iter..traits..iterator..Iterator$GT$4next17h8efda72015f57603E+0x72>
  a6:	2001      	movs	r0, #1
/Users/Luppy/.cargo/registry/src/github.com-1ecc6299db9ec823/embedded-graphics-0.5.2/src/primitives/rectangle.rs:170
            && (self.bottom_right[0] < 0 || self.bottom_right[1] < 0)
  a8:	f88d 00aa 	strb.w	r0, [sp, #170]	; 0xaa
  ac:	e00a      	b.n	c4 <_ZN127_$LT$embedded_graphics..primitives..rectangle..RectangleIterator$LT$C$GT$$u20$as$u20$core..iter..traits..iterator..Iterator$GT$4next17h8efda72015f57603E+0xc4>
  ae:	2000      	movs	r0, #0
  b0:	f88d 00aa 	strb.w	r0, [sp, #170]	; 0xaa
  b4:	e006      	b.n	c4 <_ZN127_$LT$embedded_graphics..primitives..rectangle..RectangleIterator$LT$C$GT$$u20$as$u20$core..iter..traits..iterator..Iterator$GT$4next17h8efda72015f57603E+0xc4>
  b6:	9828      	ldr	r0, [sp, #160]	; 0xa0
  b8:	3008      	adds	r0, #8
  ba:	2101      	movs	r1, #1
  bc:	f7ff fffe 	bl	0 <_ZN104_$LT$embedded_graphics..coord..internal_coord..Coord$u20$as$u20$core..ops..index..Index$LT$usize$GT$$GT$5index17h6ee4fd1eb3180c09E>
  c0:	9022      	str	r0, [sp, #136]	; 0x88
  c2:	e00a      	b.n	da <_ZN127_$LT$embedded_graphics..primitives..rectangle..RectangleIterator$LT$C$GT$$u20$as$u20$core..iter..traits..iterator..Iterator$GT$4next17h8efda72015f57603E+0xda>
/Users/Luppy/.cargo/registry/src/github.com-1ecc6299db9ec823/embedded-graphics-0.5.2/src/primitives/rectangle.rs:169
        if (self.top_left[0] < 0 || self.top_left[1] < 0)
  c4:	f89d 00aa 	ldrb.w	r0, [sp, #170]	; 0xaa
  c8:	07c0      	lsls	r0, r0, #31
  ca:	2800      	cmp	r0, #0
  cc:	d1b8      	bne.n	40 <_ZN127_$LT$embedded_graphics..primitives..rectangle..RectangleIterator$LT$C$GT$$u20$as$u20$core..iter..traits..iterator..Iterator$GT$4next17h8efda72015f57603E+0x40>
  ce:	e7bb      	b.n	48 <_ZN127_$LT$embedded_graphics..primitives..rectangle..RectangleIterator$LT$C$GT$$u20$as$u20$core..iter..traits..iterator..Iterator$GT$4next17h8efda72015f57603E+0x48>
/Users/Luppy/.cargo/registry/src/github.com-1ecc6299db9ec823/embedded-graphics-0.5.2/src/primitives/rectangle.rs:170
            && (self.bottom_right[0] < 0 || self.bottom_right[1] < 0)
  d0:	9824      	ldr	r0, [sp, #144]	; 0x90
  d2:	6801      	ldr	r1, [r0, #0]
  d4:	2900      	cmp	r1, #0
  d6:	d4e6      	bmi.n	a6 <_ZN127_$LT$embedded_graphics..primitives..rectangle..RectangleIterator$LT$C$GT$$u20$as$u20$core..iter..traits..iterator..Iterator$GT$4next17h8efda72015f57603E+0xa6>
  d8:	e7ed      	b.n	b6 <_ZN127_$LT$embedded_graphics..primitives..rectangle..RectangleIterator$LT$C$GT$$u20$as$u20$core..iter..traits..iterator..Iterator$GT$4next17h8efda72015f57603E+0xb6>
  da:	9822      	ldr	r0, [sp, #136]	; 0x88
  dc:	6801      	ldr	r1, [r0, #0]
  de:	2900      	cmp	r1, #0
  e0:	d4e1      	bmi.n	a6 <_ZN127_$LT$embedded_graphics..primitives..rectangle..RectangleIterator$LT$C$GT$$u20$as$u20$core..iter..traits..iterator..Iterator$GT$4next17h8efda72015f57603E+0xa6>
  e2:	e7e4      	b.n	ae <_ZN127_$LT$embedded_graphics..primitives..rectangle..RectangleIterator$LT$C$GT$$u20$as$u20$core..iter..traits..iterator..Iterator$GT$4next17h8efda72015f57603E+0xae>
  e4:	2001      	movs	r0, #1
/Users/Luppy/.cargo/registry/src/github.com-1ecc6299db9ec823/embedded-graphics-0.5.2/src/primitives/rectangle.rs:171
            || (self.style.stroke_color.is_none() && self.style.fill_color.is_none())
  e6:	f88d 00ab 	strb.w	r0, [sp, #171]	; 0xab
  ea:	e009      	b.n	100 <_ZN127_$LT$embedded_graphics..primitives..rectangle..RectangleIterator$LT$C$GT$$u20$as$u20$core..iter..traits..iterator..Iterator$GT$4next17h8efda72015f57603E+0x100>
  ec:	2000      	movs	r0, #0
  ee:	f88d 00ab 	strb.w	r0, [sp, #171]	; 0xab
  f2:	e005      	b.n	100 <_ZN127_$LT$embedded_graphics..primitives..rectangle..RectangleIterator$LT$C$GT$$u20$as$u20$core..iter..traits..iterator..Iterator$GT$4next17h8efda72015f57603E+0x100>
  f4:	9828      	ldr	r0, [sp, #160]	; 0xa0
  f6:	3018      	adds	r0, #24
  f8:	f7ff fffe 	bl	0 <_ZN4core6option15Option$LT$T$GT$7is_none17h0322cadb15e896fdE>
  fc:	9021      	str	r0, [sp, #132]	; 0x84
  fe:	e00b      	b.n	118 <_ZN127_$LT$embedded_graphics..primitives..rectangle..RectangleIterator$LT$C$GT$$u20$as$u20$core..iter..traits..iterator..Iterator$GT$4next17h8efda72015f57603E+0x118>
/Users/Luppy/.cargo/registry/src/github.com-1ecc6299db9ec823/embedded-graphics-0.5.2/src/primitives/rectangle.rs:169
        if (self.top_left[0] < 0 || self.top_left[1] < 0)
 100:	f89d 00ab 	ldrb.w	r0, [sp, #171]	; 0xab
 104:	07c0      	lsls	r0, r0, #31
 106:	2800      	cmp	r0, #0
 108:	f47f af86 	bne.w	18 <_ZN127_$LT$embedded_graphics..primitives..rectangle..RectangleIterator$LT$C$GT$$u20$as$u20$core..iter..traits..iterator..Iterator$GT$4next17h8efda72015f57603E+0x18>
 10c:	e788      	b.n	20 <_ZN127_$LT$embedded_graphics..primitives..rectangle..RectangleIterator$LT$C$GT$$u20$as$u20$core..iter..traits..iterator..Iterator$GT$4next17h8efda72015f57603E+0x20>
/Users/Luppy/.cargo/registry/src/github.com-1ecc6299db9ec823/embedded-graphics-0.5.2/src/primitives/rectangle.rs:171
            || (self.style.stroke_color.is_none() && self.style.fill_color.is_none())
 10e:	9825      	ldr	r0, [sp, #148]	; 0x94
 110:	07c1      	lsls	r1, r0, #31
 112:	2900      	cmp	r1, #0
 114:	d1ee      	bne.n	f4 <_ZN127_$LT$embedded_graphics..primitives..rectangle..RectangleIterator$LT$C$GT$$u20$as$u20$core..iter..traits..iterator..Iterator$GT$4next17h8efda72015f57603E+0xf4>
 116:	e7e9      	b.n	ec <_ZN127_$LT$embedded_graphics..primitives..rectangle..RectangleIterator$LT$C$GT$$u20$as$u20$core..iter..traits..iterator..Iterator$GT$4next17h8efda72015f57603E+0xec>
 118:	9821      	ldr	r0, [sp, #132]	; 0x84
 11a:	07c1      	lsls	r1, r0, #31
 11c:	2900      	cmp	r1, #0
 11e:	d1e1      	bne.n	e4 <_ZN127_$LT$embedded_graphics..primitives..rectangle..RectangleIterator$LT$C$GT$$u20$as$u20$core..iter..traits..iterator..Iterator$GT$4next17h8efda72015f57603E+0xe4>
 120:	e7e4      	b.n	ec <_ZN127_$LT$embedded_graphics..primitives..rectangle..RectangleIterator$LT$C$GT$$u20$as$u20$core..iter..traits..iterator..Iterator$GT$4next17h8efda72015f57603E+0xec>
/Users/Luppy/.cargo/registry/src/github.com-1ecc6299db9ec823/embedded-graphics-0.5.2/src/primitives/rectangle.rs:176
        {
            return None;
        }

        let pixel = loop {
 122:	e012      	b.n	14a <_ZN127_$LT$embedded_graphics..primitives..rectangle..RectangleIterator$LT$C$GT$$u20$as$u20$core..iter..traits..iterator..Iterator$GT$4next17h8efda72015f57603E+0x14a>
 124:	2000      	movs	r0, #0
/Users/Luppy/.cargo/registry/src/github.com-1ecc6299db9ec823/embedded-graphics-0.5.2/src/primitives/rectangle.rs:173
            return None;
 126:	9927      	ldr	r1, [sp, #156]	; 0x9c
 128:	6008      	str	r0, [r1, #0]
 12a:	e7ff      	b.n	12c <_ZN127_$LT$embedded_graphics..primitives..rectangle..RectangleIterator$LT$C$GT$$u20$as$u20$core..iter..traits..iterator..Iterator$GT$4next17h8efda72015f57603E+0x12c>
/Users/Luppy/.cargo/registry/src/github.com-1ecc6299db9ec823/embedded-graphics-0.5.2/src/primitives/rectangle.rs:227
                break out;
            }
        };

        pixel.map(|(x, y, c)| Pixel(Coord::new(x, y).to_unsigned(), c))
    }
 12c:	b04e      	add	sp, #312	; 0x138
 12e:	bd10      	pop	{r4, pc}
/Users/Luppy/.cargo/registry/src/github.com-1ecc6299db9ec823/embedded-graphics-0.5.2/src/primitives/rectangle.rs:226
        pixel.map(|(x, y, c)| Pixel(Coord::new(x, y).to_unsigned(), c))
 130:	982b      	ldr	r0, [sp, #172]	; 0xac
 132:	992c      	ldr	r1, [sp, #176]	; 0xb0
 134:	9a2d      	ldr	r2, [sp, #180]	; 0xb4
 136:	9b2e      	ldr	r3, [sp, #184]	; 0xb8
 138:	934d      	str	r3, [sp, #308]	; 0x134
 13a:	924c      	str	r2, [sp, #304]	; 0x130
 13c:	914b      	str	r1, [sp, #300]	; 0x12c
 13e:	904a      	str	r0, [sp, #296]	; 0x128
 140:	a94a      	add	r1, sp, #296	; 0x128
 142:	9827      	ldr	r0, [sp, #156]	; 0x9c
 144:	f7ff fffe 	bl	0 <_ZN4core6option15Option$LT$T$GT$3map17h8f94395c825fc3faE>
 148:	e202      	b.n	550 <_ZN127_$LT$embedded_graphics..primitives..rectangle..RectangleIterator$LT$C$GT$$u20$as$u20$core..iter..traits..iterator..Iterator$GT$4next17h8efda72015f57603E+0x550>
 14a:	2000      	movs	r0, #0
/Users/Luppy/.cargo/registry/src/github.com-1ecc6299db9ec823/embedded-graphics-0.5.2/src/primitives/rectangle.rs:177
            let mut out = None;
 14c:	902f      	str	r0, [sp, #188]	; 0xbc
/Users/Luppy/.cargo/registry/src/github.com-1ecc6299db9ec823/embedded-graphics-0.5.2/src/primitives/rectangle.rs:180
            if self.y > self.bottom_right[1] {
 14e:	9828      	ldr	r0, [sp, #160]	; 0xa0
 150:	6941      	ldr	r1, [r0, #20]
 152:	3008      	adds	r0, #8
 154:	2201      	movs	r2, #1
 156:	9120      	str	r1, [sp, #128]	; 0x80
 158:	4611      	mov	r1, r2
 15a:	f7ff fffe 	bl	0 <_ZN104_$LT$embedded_graphics..coord..internal_coord..Coord$u20$as$u20$core..ops..index..Index$LT$usize$GT$$GT$5index17h6ee4fd1eb3180c09E>
 15e:	901f      	str	r0, [sp, #124]	; 0x7c
 160:	e7ff      	b.n	162 <_ZN127_$LT$embedded_graphics..primitives..rectangle..RectangleIterator$LT$C$GT$$u20$as$u20$core..iter..traits..iterator..Iterator$GT$4next17h8efda72015f57603E+0x162>
 162:	981f      	ldr	r0, [sp, #124]	; 0x7c
 164:	6801      	ldr	r1, [r0, #0]
 166:	9a20      	ldr	r2, [sp, #128]	; 0x80
 168:	428a      	cmp	r2, r1
 16a:	dc14      	bgt.n	196 <_ZN127_$LT$embedded_graphics..primitives..rectangle..RectangleIterator$LT$C$GT$$u20$as$u20$core..iter..traits..iterator..Iterator$GT$4next17h8efda72015f57603E+0x196>
 16c:	e7ff      	b.n	16e <_ZN127_$LT$embedded_graphics..primitives..rectangle..RectangleIterator$LT$C$GT$$u20$as$u20$core..iter..traits..iterator..Iterator$GT$4next17h8efda72015f57603E+0x16e>
/Users/Luppy/.cargo/registry/src/github.com-1ecc6299db9ec823/embedded-graphics-0.5.2/src/primitives/rectangle.rs:184
            let border_width = self.style.stroke_width as i32;
 16e:	9828      	ldr	r0, [sp, #160]	; 0xa0
 170:	f890 0020 	ldrb.w	r0, [r0, #32]
 174:	9033      	str	r0, [sp, #204]	; 0xcc
/Users/Luppy/.cargo/registry/src/github.com-1ecc6299db9ec823/embedded-graphics-0.5.2/src/primitives/rectangle.rs:185
            let tl = self.top_left;
 176:	9828      	ldr	r0, [sp, #160]	; 0xa0
 178:	6801      	ldr	r1, [r0, #0]
 17a:	6840      	ldr	r0, [r0, #4]
 17c:	9134      	str	r1, [sp, #208]	; 0xd0
 17e:	9035      	str	r0, [sp, #212]	; 0xd4
/Users/Luppy/.cargo/registry/src/github.com-1ecc6299db9ec823/embedded-graphics-0.5.2/src/primitives/rectangle.rs:186
            let br = self.bottom_right;
 180:	9828      	ldr	r0, [sp, #160]	; 0xa0
 182:	6881      	ldr	r1, [r0, #8]
 184:	68c0      	ldr	r0, [r0, #12]
 186:	9136      	str	r1, [sp, #216]	; 0xd8
 188:	9037      	str	r0, [sp, #220]	; 0xdc
/Users/Luppy/.cargo/registry/src/github.com-1ecc6299db9ec823/embedded-graphics-0.5.2/src/primitives/rectangle.rs:188
            if self.x >= 0 && self.y >= 0 {
 18a:	9828      	ldr	r0, [sp, #160]	; 0xa0
 18c:	6900      	ldr	r0, [r0, #16]
 18e:	f1b0 3fff 	cmp.w	r0, #4294967295	; 0xffffffff
 192:	dc0b      	bgt.n	1ac <_ZN127_$LT$embedded_graphics..primitives..rectangle..RectangleIterator$LT$C$GT$$u20$as$u20$core..iter..traits..iterator..Iterator$GT$4next17h8efda72015f57603E+0x1ac>
 194:	e006      	b.n	1a4 <_ZN127_$LT$embedded_graphics..primitives..rectangle..RectangleIterator$LT$C$GT$$u20$as$u20$core..iter..traits..iterator..Iterator$GT$4next17h8efda72015f57603E+0x1a4>
 196:	2000      	movs	r0, #0
/Users/Luppy/.cargo/registry/src/github.com-1ecc6299db9ec823/embedded-graphics-0.5.2/src/primitives/rectangle.rs:181
                break None;
 198:	902b      	str	r0, [sp, #172]	; 0xac
 19a:	e7c9      	b.n	130 <_ZN127_$LT$embedded_graphics..primitives..rectangle..RectangleIterator$LT$C$GT$$u20$as$u20$core..iter..traits..iterator..Iterator$GT$4next17h8efda72015f57603E+0x130>
 19c:	2001      	movs	r0, #1
/Users/Luppy/.cargo/registry/src/github.com-1ecc6299db9ec823/embedded-graphics-0.5.2/src/primitives/rectangle.rs:188
            if self.x >= 0 && self.y >= 0 {
 19e:	f88d 00e3 	strb.w	r0, [sp, #227]	; 0xe3
 1a2:	e009      	b.n	1b8 <_ZN127_$LT$embedded_graphics..primitives..rectangle..RectangleIterator$LT$C$GT$$u20$as$u20$core..iter..traits..iterator..Iterator$GT$4next17h8efda72015f57603E+0x1b8>
 1a4:	2000      	movs	r0, #0
 1a6:	f88d 00e3 	strb.w	r0, [sp, #227]	; 0xe3
 1aa:	e005      	b.n	1b8 <_ZN127_$LT$embedded_graphics..primitives..rectangle..RectangleIterator$LT$C$GT$$u20$as$u20$core..iter..traits..iterator..Iterator$GT$4next17h8efda72015f57603E+0x1b8>
 1ac:	9828      	ldr	r0, [sp, #160]	; 0xa0
 1ae:	6940      	ldr	r0, [r0, #20]
 1b0:	f1b0 3fff 	cmp.w	r0, #4294967295	; 0xffffffff
 1b4:	dcf2      	bgt.n	19c <_ZN127_$LT$embedded_graphics..primitives..rectangle..RectangleIterator$LT$C$GT$$u20$as$u20$core..iter..traits..iterator..Iterator$GT$4next17h8efda72015f57603E+0x19c>
 1b6:	e7f5      	b.n	1a4 <_ZN127_$LT$embedded_graphics..primitives..rectangle..RectangleIterator$LT$C$GT$$u20$as$u20$core..iter..traits..iterator..Iterator$GT$4next17h8efda72015f57603E+0x1a4>
 1b8:	f89d 00e3 	ldrb.w	r0, [sp, #227]	; 0xe3
 1bc:	07c0      	lsls	r0, r0, #31
 1be:	2800      	cmp	r0, #0
 1c0:	f000 8182 	beq.w	4c8 <_ZN127_$LT$embedded_graphics..primitives..rectangle..RectangleIterator$LT$C$GT$$u20$as$u20$core..iter..traits..iterator..Iterator$GT$4next17h8efda72015f57603E+0x4c8>
 1c4:	e7ff      	b.n	1c6 <_ZN127_$LT$embedded_graphics..primitives..rectangle..RectangleIterator$LT$C$GT$$u20$as$u20$core..iter..traits..iterator..Iterator$GT$4next17h8efda72015f57603E+0x1c6>
/Users/Luppy/.cargo/registry/src/github.com-1ecc6299db9ec823/embedded-graphics-0.5.2/src/primitives/rectangle.rs:192
                    (self.y >= tl[1] && self.y < tl[1] + border_width)
 1c6:	9828      	ldr	r0, [sp, #160]	; 0xa0
 1c8:	6940      	ldr	r0, [r0, #20]
 1ca:	a934      	add	r1, sp, #208	; 0xd0
 1cc:	2201      	movs	r2, #1
 1ce:	901e      	str	r0, [sp, #120]	; 0x78
 1d0:	4608      	mov	r0, r1
 1d2:	4611      	mov	r1, r2
 1d4:	f7ff fffe 	bl	0 <_ZN104_$LT$embedded_graphics..coord..internal_coord..Coord$u20$as$u20$core..ops..index..Index$LT$usize$GT$$GT$5index17h6ee4fd1eb3180c09E>
 1d8:	901d      	str	r0, [sp, #116]	; 0x74
 1da:	e078      	b.n	2ce <_ZN127_$LT$embedded_graphics..primitives..rectangle..RectangleIterator$LT$C$GT$$u20$as$u20$core..iter..traits..iterator..Iterator$GT$4next17h8efda72015f57603E+0x2ce>
 1dc:	2001      	movs	r0, #1
/Users/Luppy/.cargo/registry/src/github.com-1ecc6299db9ec823/embedded-graphics-0.5.2/src/primitives/rectangle.rs:190
                if (
 1de:	f88d 00e4 	strb.w	r0, [sp, #228]	; 0xe4
 1e2:	e009      	b.n	1f8 <_ZN127_$LT$embedded_graphics..primitives..rectangle..RectangleIterator$LT$C$GT$$u20$as$u20$core..iter..traits..iterator..Iterator$GT$4next17h8efda72015f57603E+0x1f8>
 1e4:	2000      	movs	r0, #0
 1e6:	f88d 00e4 	strb.w	r0, [sp, #228]	; 0xe4
 1ea:	e005      	b.n	1f8 <_ZN127_$LT$embedded_graphics..primitives..rectangle..RectangleIterator$LT$C$GT$$u20$as$u20$core..iter..traits..iterator..Iterator$GT$4next17h8efda72015f57603E+0x1f8>
/Users/Luppy/.cargo/registry/src/github.com-1ecc6299db9ec823/embedded-graphics-0.5.2/src/primitives/rectangle.rs:199
                ) && self.style.stroke_color.is_some()
 1ec:	9828      	ldr	r0, [sp, #160]	; 0xa0
 1ee:	301c      	adds	r0, #28
 1f0:	f7ff fffe 	bl	0 <_ZN4core6option15Option$LT$T$GT$7is_some17hf12135d0d5d4ce47E>
 1f4:	901c      	str	r0, [sp, #112]	; 0x70
 1f6:	e109      	b.n	40c <_ZN127_$LT$embedded_graphics..primitives..rectangle..RectangleIterator$LT$C$GT$$u20$as$u20$core..iter..traits..iterator..Iterator$GT$4next17h8efda72015f57603E+0x40c>
/Users/Luppy/.cargo/registry/src/github.com-1ecc6299db9ec823/embedded-graphics-0.5.2/src/primitives/rectangle.rs:190
                if (
 1f8:	f89d 00e4 	ldrb.w	r0, [sp, #228]	; 0xe4
 1fc:	07c0      	lsls	r0, r0, #31
 1fe:	2800      	cmp	r0, #0
 200:	f040 810f 	bne.w	422 <_ZN127_$LT$embedded_graphics..primitives..rectangle..RectangleIterator$LT$C$GT$$u20$as$u20$core..iter..traits..iterator..Iterator$GT$4next17h8efda72015f57603E+0x422>
 204:	e108      	b.n	418 <_ZN127_$LT$embedded_graphics..primitives..rectangle..RectangleIterator$LT$C$GT$$u20$as$u20$core..iter..traits..iterator..Iterator$GT$4next17h8efda72015f57603E+0x418>
 206:	2001      	movs	r0, #1
 208:	f88d 00e5 	strb.w	r0, [sp, #229]	; 0xe5
 20c:	e00e      	b.n	22c <_ZN127_$LT$embedded_graphics..primitives..rectangle..RectangleIterator$LT$C$GT$$u20$as$u20$core..iter..traits..iterator..Iterator$GT$4next17h8efda72015f57603E+0x22c>
 20e:	2000      	movs	r0, #0
 210:	f88d 00e5 	strb.w	r0, [sp, #229]	; 0xe5
 214:	e00a      	b.n	22c <_ZN127_$LT$embedded_graphics..primitives..rectangle..RectangleIterator$LT$C$GT$$u20$as$u20$core..iter..traits..iterator..Iterator$GT$4next17h8efda72015f57603E+0x22c>
/Users/Luppy/.cargo/registry/src/github.com-1ecc6299db9ec823/embedded-graphics-0.5.2/src/primitives/rectangle.rs:198
                || (self.x <= br[0] && self.x > br[0] - border_width)
 216:	9828      	ldr	r0, [sp, #160]	; 0xa0
 218:	6900      	ldr	r0, [r0, #16]
 21a:	a936      	add	r1, sp, #216	; 0xd8
 21c:	2200      	movs	r2, #0
 21e:	901b      	str	r0, [sp, #108]	; 0x6c
 220:	4608      	mov	r0, r1
 222:	4611      	mov	r1, r2
 224:	f7ff fffe 	bl	0 <_ZN104_$LT$embedded_graphics..coord..internal_coord..Coord$u20$as$u20$core..ops..index..Index$LT$usize$GT$$GT$5index17h6ee4fd1eb3180c09E>
 228:	901a      	str	r0, [sp, #104]	; 0x68
 22a:	e0db      	b.n	3e4 <_ZN127_$LT$embedded_graphics..primitives..rectangle..RectangleIterator$LT$C$GT$$u20$as$u20$core..iter..traits..iterator..Iterator$GT$4next17h8efda72015f57603E+0x3e4>
/Users/Luppy/.cargo/registry/src/github.com-1ecc6299db9ec823/embedded-graphics-0.5.2/src/primitives/rectangle.rs:190
                if (
 22c:	f89d 00e5 	ldrb.w	r0, [sp, #229]	; 0xe5
 230:	07c0      	lsls	r0, r0, #31
 232:	2800      	cmp	r0, #0
 234:	d1da      	bne.n	1ec <_ZN127_$LT$embedded_graphics..primitives..rectangle..RectangleIterator$LT$C$GT$$u20$as$u20$core..iter..traits..iterator..Iterator$GT$4next17h8efda72015f57603E+0x1ec>
 236:	e7d5      	b.n	1e4 <_ZN127_$LT$embedded_graphics..primitives..rectangle..RectangleIterator$LT$C$GT$$u20$as$u20$core..iter..traits..iterator..Iterator$GT$4next17h8efda72015f57603E+0x1e4>
 238:	2001      	movs	r0, #1
/Users/Luppy/.cargo/registry/src/github.com-1ecc6299db9ec823/embedded-graphics-0.5.2/src/primitives/rectangle.rs:192
                    (self.y >= tl[1] && self.y < tl[1] + border_width)
 23a:	f88d 00e6 	strb.w	r0, [sp, #230]	; 0xe6
 23e:	e00e      	b.n	25e <_ZN127_$LT$embedded_graphics..primitives..rectangle..RectangleIterator$LT$C$GT$$u20$as$u20$core..iter..traits..iterator..Iterator$GT$4next17h8efda72015f57603E+0x25e>
 240:	2000      	movs	r0, #0
 242:	f88d 00e6 	strb.w	r0, [sp, #230]	; 0xe6
 246:	e00a      	b.n	25e <_ZN127_$LT$embedded_graphics..primitives..rectangle..RectangleIterator$LT$C$GT$$u20$as$u20$core..iter..traits..iterator..Iterator$GT$4next17h8efda72015f57603E+0x25e>
/Users/Luppy/.cargo/registry/src/github.com-1ecc6299db9ec823/embedded-graphics-0.5.2/src/primitives/rectangle.rs:196
                || (self.x >= tl[0] && self.x < tl[0] + border_width)
 248:	9828      	ldr	r0, [sp, #160]	; 0xa0
 24a:	6900      	ldr	r0, [r0, #16]
 24c:	a934      	add	r1, sp, #208	; 0xd0
 24e:	2200      	movs	r2, #0
 250:	9019      	str	r0, [sp, #100]	; 0x64
 252:	4608      	mov	r0, r1
 254:	4611      	mov	r1, r2
 256:	f7ff fffe 	bl	0 <_ZN104_$LT$embedded_graphics..coord..internal_coord..Coord$u20$as$u20$core..ops..index..Index$LT$usize$GT$$GT$5index17h6ee4fd1eb3180c09E>
 25a:	9018      	str	r0, [sp, #96]	; 0x60
 25c:	e093      	b.n	386 <_ZN127_$LT$embedded_graphics..primitives..rectangle..RectangleIterator$LT$C$GT$$u20$as$u20$core..iter..traits..iterator..Iterator$GT$4next17h8efda72015f57603E+0x386>
/Users/Luppy/.cargo/registry/src/github.com-1ecc6299db9ec823/embedded-graphics-0.5.2/src/primitives/rectangle.rs:190
                if (
 25e:	f89d 00e6 	ldrb.w	r0, [sp, #230]	; 0xe6
 262:	07c0      	lsls	r0, r0, #31
 264:	2800      	cmp	r0, #0
 266:	d1ce      	bne.n	206 <_ZN127_$LT$embedded_graphics..primitives..rectangle..RectangleIterator$LT$C$GT$$u20$as$u20$core..iter..traits..iterator..Iterator$GT$4next17h8efda72015f57603E+0x206>
 268:	e7d5      	b.n	216 <_ZN127_$LT$embedded_graphics..primitives..rectangle..RectangleIterator$LT$C$GT$$u20$as$u20$core..iter..traits..iterator..Iterator$GT$4next17h8efda72015f57603E+0x216>
 26a:	2001      	movs	r0, #1
/Users/Luppy/.cargo/registry/src/github.com-1ecc6299db9ec823/embedded-graphics-0.5.2/src/primitives/rectangle.rs:192
                    (self.y >= tl[1] && self.y < tl[1] + border_width)
 26c:	f88d 00e7 	strb.w	r0, [sp, #231]	; 0xe7
 270:	e00e      	b.n	290 <_ZN127_$LT$embedded_graphics..primitives..rectangle..RectangleIterator$LT$C$GT$$u20$as$u20$core..iter..traits..iterator..Iterator$GT$4next17h8efda72015f57603E+0x290>
 272:	2000      	movs	r0, #0
 274:	f88d 00e7 	strb.w	r0, [sp, #231]	; 0xe7
 278:	e00a      	b.n	290 <_ZN127_$LT$embedded_graphics..primitives..rectangle..RectangleIterator$LT$C$GT$$u20$as$u20$core..iter..traits..iterator..Iterator$GT$4next17h8efda72015f57603E+0x290>
/Users/Luppy/.cargo/registry/src/github.com-1ecc6299db9ec823/embedded-graphics-0.5.2/src/primitives/rectangle.rs:194
                || (self.y <= br[1] && self.y > br[1] - border_width)
 27a:	9828      	ldr	r0, [sp, #160]	; 0xa0
 27c:	6940      	ldr	r0, [r0, #20]
 27e:	a936      	add	r1, sp, #216	; 0xd8
 280:	2201      	movs	r2, #1
 282:	9017      	str	r0, [sp, #92]	; 0x5c
 284:	4608      	mov	r0, r1
 286:	4611      	mov	r1, r2
 288:	f7ff fffe 	bl	0 <_ZN104_$LT$embedded_graphics..coord..internal_coord..Coord$u20$as$u20$core..ops..index..Index$LT$usize$GT$$GT$5index17h6ee4fd1eb3180c09E>
 28c:	9016      	str	r0, [sp, #88]	; 0x58
 28e:	e04c      	b.n	32a <_ZN127_$LT$embedded_graphics..primitives..rectangle..RectangleIterator$LT$C$GT$$u20$as$u20$core..iter..traits..iterator..Iterator$GT$4next17h8efda72015f57603E+0x32a>
/Users/Luppy/.cargo/registry/src/github.com-1ecc6299db9ec823/embedded-graphics-0.5.2/src/primitives/rectangle.rs:192
                    (self.y >= tl[1] && self.y < tl[1] + border_width)
 290:	f89d 00e7 	ldrb.w	r0, [sp, #231]	; 0xe7
 294:	07c0      	lsls	r0, r0, #31
 296:	2800      	cmp	r0, #0
 298:	d1ce      	bne.n	238 <_ZN127_$LT$embedded_graphics..primitives..rectangle..RectangleIterator$LT$C$GT$$u20$as$u20$core..iter..traits..iterator..Iterator$GT$4next17h8efda72015f57603E+0x238>
 29a:	e7d5      	b.n	248 <_ZN127_$LT$embedded_graphics..primitives..rectangle..RectangleIterator$LT$C$GT$$u20$as$u20$core..iter..traits..iterator..Iterator$GT$4next17h8efda72015f57603E+0x248>
 29c:	2001      	movs	r0, #1
 29e:	f88d 00e8 	strb.w	r0, [sp, #232]	; 0xe8
 2a2:	e00e      	b.n	2c2 <_ZN127_$LT$embedded_graphics..primitives..rectangle..RectangleIterator$LT$C$GT$$u20$as$u20$core..iter..traits..iterator..Iterator$GT$4next17h8efda72015f57603E+0x2c2>
 2a4:	2000      	movs	r0, #0
 2a6:	f88d 00e8 	strb.w	r0, [sp, #232]	; 0xe8
 2aa:	e00a      	b.n	2c2 <_ZN127_$LT$embedded_graphics..primitives..rectangle..RectangleIterator$LT$C$GT$$u20$as$u20$core..iter..traits..iterator..Iterator$GT$4next17h8efda72015f57603E+0x2c2>
 2ac:	9828      	ldr	r0, [sp, #160]	; 0xa0
 2ae:	6940      	ldr	r0, [r0, #20]
 2b0:	a934      	add	r1, sp, #208	; 0xd0
 2b2:	2201      	movs	r2, #1
 2b4:	9015      	str	r0, [sp, #84]	; 0x54
 2b6:	4608      	mov	r0, r1
 2b8:	4611      	mov	r1, r2
 2ba:	f7ff fffe 	bl	0 <_ZN104_$LT$embedded_graphics..coord..internal_coord..Coord$u20$as$u20$core..ops..index..Index$LT$usize$GT$$GT$5index17h6ee4fd1eb3180c09E>
 2be:	9014      	str	r0, [sp, #80]	; 0x50
 2c0:	e00b      	b.n	2da <_ZN127_$LT$embedded_graphics..primitives..rectangle..RectangleIterator$LT$C$GT$$u20$as$u20$core..iter..traits..iterator..Iterator$GT$4next17h8efda72015f57603E+0x2da>
 2c2:	f89d 00e8 	ldrb.w	r0, [sp, #232]	; 0xe8
 2c6:	07c0      	lsls	r0, r0, #31
 2c8:	2800      	cmp	r0, #0
 2ca:	d1ce      	bne.n	26a <_ZN127_$LT$embedded_graphics..primitives..rectangle..RectangleIterator$LT$C$GT$$u20$as$u20$core..iter..traits..iterator..Iterator$GT$4next17h8efda72015f57603E+0x26a>
 2cc:	e7d5      	b.n	27a <_ZN127_$LT$embedded_graphics..primitives..rectangle..RectangleIterator$LT$C$GT$$u20$as$u20$core..iter..traits..iterator..Iterator$GT$4next17h8efda72015f57603E+0x27a>
 2ce:	981d      	ldr	r0, [sp, #116]	; 0x74
 2d0:	6801      	ldr	r1, [r0, #0]
 2d2:	9a1e      	ldr	r2, [sp, #120]	; 0x78
 2d4:	428a      	cmp	r2, r1
 2d6:	dae9      	bge.n	2ac <_ZN127_$LT$embedded_graphics..primitives..rectangle..RectangleIterator$LT$C$GT$$u20$as$u20$core..iter..traits..iterator..Iterator$GT$4next17h8efda72015f57603E+0x2ac>
 2d8:	e7e4      	b.n	2a4 <_ZN127_$LT$embedded_graphics..primitives..rectangle..RectangleIterator$LT$C$GT$$u20$as$u20$core..iter..traits..iterator..Iterator$GT$4next17h8efda72015f57603E+0x2a4>
 2da:	9814      	ldr	r0, [sp, #80]	; 0x50
 2dc:	6801      	ldr	r1, [r0, #0]
 2de:	9a33      	ldr	r2, [sp, #204]	; 0xcc
 2e0:	440a      	add	r2, r1
 2e2:	4613      	mov	r3, r2
 2e4:	428a      	cmp	r2, r1
 2e6:	9313      	str	r3, [sp, #76]	; 0x4c
 2e8:	f180 8133 	bvs.w	552 <_ZN127_$LT$embedded_graphics..primitives..rectangle..RectangleIterator$LT$C$GT$$u20$as$u20$core..iter..traits..iterator..Iterator$GT$4next17h8efda72015f57603E+0x552>
 2ec:	e7ff      	b.n	2ee <_ZN127_$LT$embedded_graphics..primitives..rectangle..RectangleIterator$LT$C$GT$$u20$as$u20$core..iter..traits..iterator..Iterator$GT$4next17h8efda72015f57603E+0x2ee>
 2ee:	9815      	ldr	r0, [sp, #84]	; 0x54
 2f0:	9913      	ldr	r1, [sp, #76]	; 0x4c
 2f2:	4288      	cmp	r0, r1
 2f4:	dbd2      	blt.n	29c <_ZN127_$LT$embedded_graphics..primitives..rectangle..RectangleIterator$LT$C$GT$$u20$as$u20$core..iter..traits..iterator..Iterator$GT$4next17h8efda72015f57603E+0x29c>
 2f6:	e7d5      	b.n	2a4 <_ZN127_$LT$embedded_graphics..primitives..rectangle..RectangleIterator$LT$C$GT$$u20$as$u20$core..iter..traits..iterator..Iterator$GT$4next17h8efda72015f57603E+0x2a4>
 2f8:	2001      	movs	r0, #1
/Users/Luppy/.cargo/registry/src/github.com-1ecc6299db9ec823/embedded-graphics-0.5.2/src/primitives/rectangle.rs:194
                || (self.y <= br[1] && self.y > br[1] - border_width)
 2fa:	f88d 00e9 	strb.w	r0, [sp, #233]	; 0xe9
 2fe:	e00e      	b.n	31e <_ZN127_$LT$embedded_graphics..primitives..rectangle..RectangleIterator$LT$C$GT$$u20$as$u20$core..iter..traits..iterator..Iterator$GT$4next17h8efda72015f57603E+0x31e>
 300:	2000      	movs	r0, #0
 302:	f88d 00e9 	strb.w	r0, [sp, #233]	; 0xe9
 306:	e00a      	b.n	31e <_ZN127_$LT$embedded_graphics..primitives..rectangle..RectangleIterator$LT$C$GT$$u20$as$u20$core..iter..traits..iterator..Iterator$GT$4next17h8efda72015f57603E+0x31e>
 308:	9828      	ldr	r0, [sp, #160]	; 0xa0
 30a:	6940      	ldr	r0, [r0, #20]
 30c:	a936      	add	r1, sp, #216	; 0xd8
 30e:	2201      	movs	r2, #1
 310:	9012      	str	r0, [sp, #72]	; 0x48
 312:	4608      	mov	r0, r1
 314:	4611      	mov	r1, r2
 316:	f7ff fffe 	bl	0 <_ZN104_$LT$embedded_graphics..coord..internal_coord..Coord$u20$as$u20$core..ops..index..Index$LT$usize$GT$$GT$5index17h6ee4fd1eb3180c09E>
 31a:	9011      	str	r0, [sp, #68]	; 0x44
 31c:	e00b      	b.n	336 <_ZN127_$LT$embedded_graphics..primitives..rectangle..RectangleIterator$LT$C$GT$$u20$as$u20$core..iter..traits..iterator..Iterator$GT$4next17h8efda72015f57603E+0x336>
/Users/Luppy/.cargo/registry/src/github.com-1ecc6299db9ec823/embedded-graphics-0.5.2/src/primitives/rectangle.rs:192
                    (self.y >= tl[1] && self.y < tl[1] + border_width)
 31e:	f89d 00e9 	ldrb.w	r0, [sp, #233]	; 0xe9
 322:	07c0      	lsls	r0, r0, #31
 324:	2800      	cmp	r0, #0
 326:	d1a0      	bne.n	26a <_ZN127_$LT$embedded_graphics..primitives..rectangle..RectangleIterator$LT$C$GT$$u20$as$u20$core..iter..traits..iterator..Iterator$GT$4next17h8efda72015f57603E+0x26a>
 328:	e7a3      	b.n	272 <_ZN127_$LT$embedded_graphics..primitives..rectangle..RectangleIterator$LT$C$GT$$u20$as$u20$core..iter..traits..iterator..Iterator$GT$4next17h8efda72015f57603E+0x272>
/Users/Luppy/.cargo/registry/src/github.com-1ecc6299db9ec823/embedded-graphics-0.5.2/src/primitives/rectangle.rs:194
                || (self.y <= br[1] && self.y > br[1] - border_width)
 32a:	9816      	ldr	r0, [sp, #88]	; 0x58
 32c:	6801      	ldr	r1, [r0, #0]
 32e:	9a17      	ldr	r2, [sp, #92]	; 0x5c
 330:	428a      	cmp	r2, r1
 332:	dde9      	ble.n	308 <_ZN127_$LT$embedded_graphics..primitives..rectangle..RectangleIterator$LT$C$GT$$u20$as$u20$core..iter..traits..iterator..Iterator$GT$4next17h8efda72015f57603E+0x308>
 334:	e7e4      	b.n	300 <_ZN127_$LT$embedded_graphics..primitives..rectangle..RectangleIterator$LT$C$GT$$u20$as$u20$core..iter..traits..iterator..Iterator$GT$4next17h8efda72015f57603E+0x300>
 336:	9811      	ldr	r0, [sp, #68]	; 0x44
 338:	6801      	ldr	r1, [r0, #0]
 33a:	9a33      	ldr	r2, [sp, #204]	; 0xcc
 33c:	1a8b      	subs	r3, r1, r2
 33e:	4291      	cmp	r1, r2
 340:	9310      	str	r3, [sp, #64]	; 0x40
 342:	f180 8112 	bvs.w	56a <_ZN127_$LT$embedded_graphics..primitives..rectangle..RectangleIterator$LT$C$GT$$u20$as$u20$core..iter..traits..iterator..Iterator$GT$4next17h8efda72015f57603E+0x56a>
 346:	e7ff      	b.n	348 <_ZN127_$LT$embedded_graphics..primitives..rectangle..RectangleIterator$LT$C$GT$$u20$as$u20$core..iter..traits..iterator..Iterator$GT$4next17h8efda72015f57603E+0x348>
 348:	9812      	ldr	r0, [sp, #72]	; 0x48
 34a:	9910      	ldr	r1, [sp, #64]	; 0x40
 34c:	4288      	cmp	r0, r1
 34e:	dcd3      	bgt.n	2f8 <_ZN127_$LT$embedded_graphics..primitives..rectangle..RectangleIterator$LT$C$GT$$u20$as$u20$core..iter..traits..iterator..Iterator$GT$4next17h8efda72015f57603E+0x2f8>
 350:	e7d6      	b.n	300 <_ZN127_$LT$embedded_graphics..primitives..rectangle..RectangleIterator$LT$C$GT$$u20$as$u20$core..iter..traits..iterator..Iterator$GT$4next17h8efda72015f57603E+0x300>
 352:	2001      	movs	r0, #1
/Users/Luppy/.cargo/registry/src/github.com-1ecc6299db9ec823/embedded-graphics-0.5.2/src/primitives/rectangle.rs:196
                || (self.x >= tl[0] && self.x < tl[0] + border_width)
 354:	f88d 00ea 	strb.w	r0, [sp, #234]	; 0xea
 358:	e00e      	b.n	378 <_ZN127_$LT$embedded_graphics..primitives..rectangle..RectangleIterator$LT$C$GT$$u20$as$u20$core..iter..traits..iterator..Iterator$GT$4next17h8efda72015f57603E+0x378>
 35a:	2000      	movs	r0, #0
 35c:	f88d 00ea 	strb.w	r0, [sp, #234]	; 0xea
 360:	e00a      	b.n	378 <_ZN127_$LT$embedded_graphics..primitives..rectangle..RectangleIterator$LT$C$GT$$u20$as$u20$core..iter..traits..iterator..Iterator$GT$4next17h8efda72015f57603E+0x378>
 362:	9828      	ldr	r0, [sp, #160]	; 0xa0
 364:	6900      	ldr	r0, [r0, #16]
 366:	a934      	add	r1, sp, #208	; 0xd0
 368:	2200      	movs	r2, #0
 36a:	900f      	str	r0, [sp, #60]	; 0x3c
 36c:	4608      	mov	r0, r1
 36e:	4611      	mov	r1, r2
 370:	f7ff fffe 	bl	0 <_ZN104_$LT$embedded_graphics..coord..internal_coord..Coord$u20$as$u20$core..ops..index..Index$LT$usize$GT$$GT$5index17h6ee4fd1eb3180c09E>
 374:	900e      	str	r0, [sp, #56]	; 0x38
 376:	e00c      	b.n	392 <_ZN127_$LT$embedded_graphics..primitives..rectangle..RectangleIterator$LT$C$GT$$u20$as$u20$core..iter..traits..iterator..Iterator$GT$4next17h8efda72015f57603E+0x392>
/Users/Luppy/.cargo/registry/src/github.com-1ecc6299db9ec823/embedded-graphics-0.5.2/src/primitives/rectangle.rs:192
                    (self.y >= tl[1] && self.y < tl[1] + border_width)
 378:	f89d 00ea 	ldrb.w	r0, [sp, #234]	; 0xea
 37c:	07c0      	lsls	r0, r0, #31
 37e:	2800      	cmp	r0, #0
 380:	f47f af5a 	bne.w	238 <_ZN127_$LT$embedded_graphics..primitives..rectangle..RectangleIterator$LT$C$GT$$u20$as$u20$core..iter..traits..iterator..Iterator$GT$4next17h8efda72015f57603E+0x238>
 384:	e75c      	b.n	240 <_ZN127_$LT$embedded_graphics..primitives..rectangle..RectangleIterator$LT$C$GT$$u20$as$u20$core..iter..traits..iterator..Iterator$GT$4next17h8efda72015f57603E+0x240>
/Users/Luppy/.cargo/registry/src/github.com-1ecc6299db9ec823/embedded-graphics-0.5.2/src/primitives/rectangle.rs:196
                || (self.x >= tl[0] && self.x < tl[0] + border_width)
 386:	9818      	ldr	r0, [sp, #96]	; 0x60
 388:	6801      	ldr	r1, [r0, #0]
 38a:	9a19      	ldr	r2, [sp, #100]	; 0x64
 38c:	428a      	cmp	r2, r1
 38e:	dae8      	bge.n	362 <_ZN127_$LT$embedded_graphics..primitives..rectangle..RectangleIterator$LT$C$GT$$u20$as$u20$core..iter..traits..iterator..Iterator$GT$4next17h8efda72015f57603E+0x362>
 390:	e7e3      	b.n	35a <_ZN127_$LT$embedded_graphics..primitives..rectangle..RectangleIterator$LT$C$GT$$u20$as$u20$core..iter..traits..iterator..Iterator$GT$4next17h8efda72015f57603E+0x35a>
 392:	980e      	ldr	r0, [sp, #56]	; 0x38
 394:	6801      	ldr	r1, [r0, #0]
 396:	9a33      	ldr	r2, [sp, #204]	; 0xcc
 398:	440a      	add	r2, r1
 39a:	4613      	mov	r3, r2
 39c:	428a      	cmp	r2, r1
 39e:	930d      	str	r3, [sp, #52]	; 0x34
 3a0:	f180 80ef 	bvs.w	582 <_ZN127_$LT$embedded_graphics..primitives..rectangle..RectangleIterator$LT$C$GT$$u20$as$u20$core..iter..traits..iterator..Iterator$GT$4next17h8efda72015f57603E+0x582>
 3a4:	e7ff      	b.n	3a6 <_ZN127_$LT$embedded_graphics..primitives..rectangle..RectangleIterator$LT$C$GT$$u20$as$u20$core..iter..traits..iterator..Iterator$GT$4next17h8efda72015f57603E+0x3a6>
 3a6:	980f      	ldr	r0, [sp, #60]	; 0x3c
 3a8:	990d      	ldr	r1, [sp, #52]	; 0x34
 3aa:	4288      	cmp	r0, r1
 3ac:	dbd1      	blt.n	352 <_ZN127_$LT$embedded_graphics..primitives..rectangle..RectangleIterator$LT$C$GT$$u20$as$u20$core..iter..traits..iterator..Iterator$GT$4next17h8efda72015f57603E+0x352>
 3ae:	e7d4      	b.n	35a <_ZN127_$LT$embedded_graphics..primitives..rectangle..RectangleIterator$LT$C$GT$$u20$as$u20$core..iter..traits..iterator..Iterator$GT$4next17h8efda72015f57603E+0x35a>
 3b0:	2001      	movs	r0, #1
/Users/Luppy/.cargo/registry/src/github.com-1ecc6299db9ec823/embedded-graphics-0.5.2/src/primitives/rectangle.rs:198
                || (self.x <= br[0] && self.x > br[0] - border_width)
 3b2:	f88d 00eb 	strb.w	r0, [sp, #235]	; 0xeb
 3b6:	e00e      	b.n	3d6 <_ZN127_$LT$embedded_graphics..primitives..rectangle..RectangleIterator$LT$C$GT$$u20$as$u20$core..iter..traits..iterator..Iterator$GT$4next17h8efda72015f57603E+0x3d6>
 3b8:	2000      	movs	r0, #0
 3ba:	f88d 00eb 	strb.w	r0, [sp, #235]	; 0xeb
 3be:	e00a      	b.n	3d6 <_ZN127_$LT$embedded_graphics..primitives..rectangle..RectangleIterator$LT$C$GT$$u20$as$u20$core..iter..traits..iterator..Iterator$GT$4next17h8efda72015f57603E+0x3d6>
 3c0:	9828      	ldr	r0, [sp, #160]	; 0xa0
 3c2:	6900      	ldr	r0, [r0, #16]
 3c4:	a936      	add	r1, sp, #216	; 0xd8
 3c6:	2200      	movs	r2, #0
 3c8:	900c      	str	r0, [sp, #48]	; 0x30
 3ca:	4608      	mov	r0, r1
 3cc:	4611      	mov	r1, r2
 3ce:	f7ff fffe 	bl	0 <_ZN104_$LT$embedded_graphics..coord..internal_coord..Coord$u20$as$u20$core..ops..index..Index$LT$usize$GT$$GT$5index17h6ee4fd1eb3180c09E>
 3d2:	900b      	str	r0, [sp, #44]	; 0x2c
 3d4:	e00c      	b.n	3f0 <_ZN127_$LT$embedded_graphics..primitives..rectangle..RectangleIterator$LT$C$GT$$u20$as$u20$core..iter..traits..iterator..Iterator$GT$4next17h8efda72015f57603E+0x3f0>
/Users/Luppy/.cargo/registry/src/github.com-1ecc6299db9ec823/embedded-graphics-0.5.2/src/primitives/rectangle.rs:190
                if (
 3d6:	f89d 00eb 	ldrb.w	r0, [sp, #235]	; 0xeb
 3da:	07c0      	lsls	r0, r0, #31
 3dc:	2800      	cmp	r0, #0
 3de:	f47f af12 	bne.w	206 <_ZN127_$LT$embedded_graphics..primitives..rectangle..RectangleIterator$LT$C$GT$$u20$as$u20$core..iter..traits..iterator..Iterator$GT$4next17h8efda72015f57603E+0x206>
 3e2:	e714      	b.n	20e <_ZN127_$LT$embedded_graphics..primitives..rectangle..RectangleIterator$LT$C$GT$$u20$as$u20$core..iter..traits..iterator..Iterator$GT$4next17h8efda72015f57603E+0x20e>
/Users/Luppy/.cargo/registry/src/github.com-1ecc6299db9ec823/embedded-graphics-0.5.2/src/primitives/rectangle.rs:198
                || (self.x <= br[0] && self.x > br[0] - border_width)
 3e4:	981a      	ldr	r0, [sp, #104]	; 0x68
 3e6:	6801      	ldr	r1, [r0, #0]
 3e8:	9a1b      	ldr	r2, [sp, #108]	; 0x6c
 3ea:	428a      	cmp	r2, r1
 3ec:	dde8      	ble.n	3c0 <_ZN127_$LT$embedded_graphics..primitives..rectangle..RectangleIterator$LT$C$GT$$u20$as$u20$core..iter..traits..iterator..Iterator$GT$4next17h8efda72015f57603E+0x3c0>
 3ee:	e7e3      	b.n	3b8 <_ZN127_$LT$embedded_graphics..primitives..rectangle..RectangleIterator$LT$C$GT$$u20$as$u20$core..iter..traits..iterator..Iterator$GT$4next17h8efda72015f57603E+0x3b8>
 3f0:	980b      	ldr	r0, [sp, #44]	; 0x2c
 3f2:	6801      	ldr	r1, [r0, #0]
 3f4:	9a33      	ldr	r2, [sp, #204]	; 0xcc
 3f6:	1a8b      	subs	r3, r1, r2
 3f8:	4291      	cmp	r1, r2
 3fa:	930a      	str	r3, [sp, #40]	; 0x28
 3fc:	f180 80cd 	bvs.w	59a <_ZN127_$LT$embedded_graphics..primitives..rectangle..RectangleIterator$LT$C$GT$$u20$as$u20$core..iter..traits..iterator..Iterator$GT$4next17h8efda72015f57603E+0x59a>
 400:	e7ff      	b.n	402 <_ZN127_$LT$embedded_graphics..primitives..rectangle..RectangleIterator$LT$C$GT$$u20$as$u20$core..iter..traits..iterator..Iterator$GT$4next17h8efda72015f57603E+0x402>
 402:	980c      	ldr	r0, [sp, #48]	; 0x30
 404:	990a      	ldr	r1, [sp, #40]	; 0x28
 406:	4288      	cmp	r0, r1
 408:	dcd2      	bgt.n	3b0 <_ZN127_$LT$embedded_graphics..primitives..rectangle..RectangleIterator$LT$C$GT$$u20$as$u20$core..iter..traits..iterator..Iterator$GT$4next17h8efda72015f57603E+0x3b0>
 40a:	e7d5      	b.n	3b8 <_ZN127_$LT$embedded_graphics..primitives..rectangle..RectangleIterator$LT$C$GT$$u20$as$u20$core..iter..traits..iterator..Iterator$GT$4next17h8efda72015f57603E+0x3b8>
/Users/Luppy/.cargo/registry/src/github.com-1ecc6299db9ec823/embedded-graphics-0.5.2/src/primitives/rectangle.rs:190
                if (
 40c:	981c      	ldr	r0, [sp, #112]	; 0x70
 40e:	07c1      	lsls	r1, r0, #31
 410:	2900      	cmp	r1, #0
 412:	f47f aee3 	bne.w	1dc <_ZN127_$LT$embedded_graphics..primitives..rectangle..RectangleIterator$LT$C$GT$$u20$as$u20$core..iter..traits..iterator..Iterator$GT$4next17h8efda72015f57603E+0x1dc>
 416:	e6e5      	b.n	1e4 <_ZN127_$LT$embedded_graphics..primitives..rectangle..RectangleIterator$LT$C$GT$$u20$as$u20$core..iter..traits..iterator..Iterator$GT$4next17h8efda72015f57603E+0x1e4>
/Users/Luppy/.cargo/registry/src/github.com-1ecc6299db9ec823/embedded-graphics-0.5.2/src/primitives/rectangle.rs:208
                else if let Some(fill) = self.style.fill_color {
 418:	9828      	ldr	r0, [sp, #160]	; 0xa0
 41a:	8b00      	ldrh	r0, [r0, #24]
 41c:	2801      	cmp	r0, #1
 41e:	d034      	beq.n	48a <_ZN127_$LT$embedded_graphics..primitives..rectangle..RectangleIterator$LT$C$GT$$u20$as$u20$core..iter..traits..iterator..Iterator$GT$4next17h8efda72015f57603E+0x48a>
 420:	e051      	b.n	4c6 <_ZN127_$LT$embedded_graphics..primitives..rectangle..RectangleIterator$LT$C$GT$$u20$as$u20$core..iter..traits..iterator..Iterator$GT$4next17h8efda72015f57603E+0x4c6>
/Users/Luppy/.cargo/registry/src/github.com-1ecc6299db9ec823/embedded-graphics-0.5.2/src/primitives/rectangle.rs:202
                        self.x,
 422:	9828      	ldr	r0, [sp, #160]	; 0xa0
 424:	6901      	ldr	r1, [r0, #16]
/Users/Luppy/.cargo/registry/src/github.com-1ecc6299db9ec823/embedded-graphics-0.5.2/src/primitives/rectangle.rs:203
                        self.y,
 426:	6942      	ldr	r2, [r0, #20]
/Users/Luppy/.cargo/registry/src/github.com-1ecc6299db9ec823/embedded-graphics-0.5.2/src/primitives/rectangle.rs:204
                        self.style.stroke_color.expect("Expected stroke"),
 428:	8bc3      	ldrh	r3, [r0, #30]
 42a:	8b80      	ldrh	r0, [r0, #28]
 42c:	f240 0c00 	movw	ip, #0
 430:	f2c0 0c00 	movt	ip, #0
 434:	f04f 0e0f 	mov.w	lr, #15
 438:	9109      	str	r1, [sp, #36]	; 0x24
 43a:	4619      	mov	r1, r3
 43c:	9208      	str	r2, [sp, #32]
 43e:	4662      	mov	r2, ip
 440:	4673      	mov	r3, lr
 442:	f7ff fffe 	bl	0 <_ZN4core6option15Option$LT$T$GT$6expect17hc4cab784399a1c6dE>
 446:	9007      	str	r0, [sp, #28]
 448:	e7ff      	b.n	44a <_ZN127_$LT$embedded_graphics..primitives..rectangle..RectangleIterator$LT$C$GT$$u20$as$u20$core..iter..traits..iterator..Iterator$GT$4next17h8efda72015f57603E+0x44a>
/Users/Luppy/.cargo/registry/src/github.com-1ecc6299db9ec823/embedded-graphics-0.5.2/src/primitives/rectangle.rs:201
                    out = Some((
 44a:	9809      	ldr	r0, [sp, #36]	; 0x24
 44c:	903f      	str	r0, [sp, #252]	; 0xfc
 44e:	9908      	ldr	r1, [sp, #32]
 450:	9140      	str	r1, [sp, #256]	; 0x100
 452:	9a07      	ldr	r2, [sp, #28]
 454:	f8ad 2104 	strh.w	r2, [sp, #260]	; 0x104
 458:	9b3f      	ldr	r3, [sp, #252]	; 0xfc
 45a:	f8dd c100 	ldr.w	ip, [sp, #256]	; 0x100
 45e:	f8dd e104 	ldr.w	lr, [sp, #260]	; 0x104
 462:	f8cd e0f8 	str.w	lr, [sp, #248]	; 0xf8
 466:	f8cd c0f4 	str.w	ip, [sp, #244]	; 0xf4
 46a:	933c      	str	r3, [sp, #240]	; 0xf0
 46c:	2301      	movs	r3, #1
 46e:	933b      	str	r3, [sp, #236]	; 0xec
 470:	9b3b      	ldr	r3, [sp, #236]	; 0xec
 472:	f8dd c0f0 	ldr.w	ip, [sp, #240]	; 0xf0
 476:	f8dd e0f4 	ldr.w	lr, [sp, #244]	; 0xf4
 47a:	9c3e      	ldr	r4, [sp, #248]	; 0xf8
 47c:	9432      	str	r4, [sp, #200]	; 0xc8
 47e:	f8cd e0c4 	str.w	lr, [sp, #196]	; 0xc4
 482:	f8cd c0c0 	str.w	ip, [sp, #192]	; 0xc0
 486:	932f      	str	r3, [sp, #188]	; 0xbc
/Users/Luppy/.cargo/registry/src/github.com-1ecc6299db9ec823/embedded-graphics-0.5.2/src/primitives/rectangle.rs:190
                if (
 488:	e01d      	b.n	4c6 <_ZN127_$LT$embedded_graphics..primitives..rectangle..RectangleIterator$LT$C$GT$$u20$as$u20$core..iter..traits..iterator..Iterator$GT$4next17h8efda72015f57603E+0x4c6>
/Users/Luppy/.cargo/registry/src/github.com-1ecc6299db9ec823/embedded-graphics-0.5.2/src/primitives/rectangle.rs:208
                else if let Some(fill) = self.style.fill_color {
 48a:	9828      	ldr	r0, [sp, #160]	; 0xa0
 48c:	8b40      	ldrh	r0, [r0, #26]
 48e:	f8ad 010a 	strh.w	r0, [sp, #266]	; 0x10a
/Users/Luppy/.cargo/registry/src/github.com-1ecc6299db9ec823/embedded-graphics-0.5.2/src/primitives/rectangle.rs:209
                    out = Some((self.x, self.y, fill));
 492:	9828      	ldr	r0, [sp, #160]	; 0xa0
 494:	6901      	ldr	r1, [r0, #16]
 496:	6940      	ldr	r0, [r0, #20]
 498:	f8bd 210a 	ldrh.w	r2, [sp, #266]	; 0x10a
 49c:	9147      	str	r1, [sp, #284]	; 0x11c
 49e:	9048      	str	r0, [sp, #288]	; 0x120
 4a0:	f8ad 2124 	strh.w	r2, [sp, #292]	; 0x124
 4a4:	9847      	ldr	r0, [sp, #284]	; 0x11c
 4a6:	9948      	ldr	r1, [sp, #288]	; 0x120
 4a8:	9a49      	ldr	r2, [sp, #292]	; 0x124
 4aa:	9246      	str	r2, [sp, #280]	; 0x118
 4ac:	9145      	str	r1, [sp, #276]	; 0x114
 4ae:	9044      	str	r0, [sp, #272]	; 0x110
 4b0:	2001      	movs	r0, #1
 4b2:	9043      	str	r0, [sp, #268]	; 0x10c
 4b4:	9843      	ldr	r0, [sp, #268]	; 0x10c
 4b6:	9944      	ldr	r1, [sp, #272]	; 0x110
 4b8:	9a45      	ldr	r2, [sp, #276]	; 0x114
 4ba:	9b46      	ldr	r3, [sp, #280]	; 0x118
 4bc:	9332      	str	r3, [sp, #200]	; 0xc8
 4be:	9231      	str	r2, [sp, #196]	; 0xc4
 4c0:	9130      	str	r1, [sp, #192]	; 0xc0
 4c2:	902f      	str	r0, [sp, #188]	; 0xbc
/Users/Luppy/.cargo/registry/src/github.com-1ecc6299db9ec823/embedded-graphics-0.5.2/src/primitives/rectangle.rs:208
                else if let Some(fill) = self.style.fill_color {
 4c4:	e7ff      	b.n	4c6 <_ZN127_$LT$embedded_graphics..primitives..rectangle..RectangleIterator$LT$C$GT$$u20$as$u20$core..iter..traits..iterator..Iterator$GT$4next17h8efda72015f57603E+0x4c6>
/Users/Luppy/.cargo/registry/src/github.com-1ecc6299db9ec823/embedded-graphics-0.5.2/src/primitives/rectangle.rs:188
            if self.x >= 0 && self.y >= 0 {
 4c6:	e7ff      	b.n	4c8 <_ZN127_$LT$embedded_graphics..primitives..rectangle..RectangleIterator$LT$C$GT$$u20$as$u20$core..iter..traits..iterator..Iterator$GT$4next17h8efda72015f57603E+0x4c8>
/Users/Luppy/.cargo/registry/src/github.com-1ecc6299db9ec823/embedded-graphics-0.5.2/src/primitives/rectangle.rs:213
            self.x += 1;
 4c8:	9828      	ldr	r0, [sp, #160]	; 0xa0
 4ca:	6900      	ldr	r0, [r0, #16]
 4cc:	1c41      	adds	r1, r0, #1
 4ce:	460a      	mov	r2, r1
 4d0:	4281      	cmp	r1, r0
 4d2:	9206      	str	r2, [sp, #24]
 4d4:	d66d      	bvs.n	5b2 <_ZN127_$LT$embedded_graphics..primitives..rectangle..RectangleIterator$LT$C$GT$$u20$as$u20$core..iter..traits..iterator..Iterator$GT$4next17h8efda72015f57603E+0x5b2>
 4d6:	e7ff      	b.n	4d8 <_ZN127_$LT$embedded_graphics..primitives..rectangle..RectangleIterator$LT$C$GT$$u20$as$u20$core..iter..traits..iterator..Iterator$GT$4next17h8efda72015f57603E+0x4d8>
 4d8:	9828      	ldr	r0, [sp, #160]	; 0xa0
 4da:	9906      	ldr	r1, [sp, #24]
 4dc:	6101      	str	r1, [r0, #16]
/Users/Luppy/.cargo/registry/src/github.com-1ecc6299db9ec823/embedded-graphics-0.5.2/src/primitives/rectangle.rs:216
            if self.x > self.bottom_right[0] {
 4de:	9828      	ldr	r0, [sp, #160]	; 0xa0
 4e0:	6902      	ldr	r2, [r0, #16]
 4e2:	3008      	adds	r0, #8
 4e4:	2100      	movs	r1, #0
 4e6:	9205      	str	r2, [sp, #20]
 4e8:	f7ff fffe 	bl	0 <_ZN104_$LT$embedded_graphics..coord..internal_coord..Coord$u20$as$u20$core..ops..index..Index$LT$usize$GT$$GT$5index17h6ee4fd1eb3180c09E>
 4ec:	9004      	str	r0, [sp, #16]
 4ee:	e7ff      	b.n	4f0 <_ZN127_$LT$embedded_graphics..primitives..rectangle..RectangleIterator$LT$C$GT$$u20$as$u20$core..iter..traits..iterator..Iterator$GT$4next17h8efda72015f57603E+0x4f0>
 4f0:	9804      	ldr	r0, [sp, #16]
 4f2:	6801      	ldr	r1, [r0, #0]
 4f4:	9a05      	ldr	r2, [sp, #20]
 4f6:	428a      	cmp	r2, r1
 4f8:	dd16      	ble.n	528 <_ZN127_$LT$embedded_graphics..primitives..rectangle..RectangleIterator$LT$C$GT$$u20$as$u20$core..iter..traits..iterator..Iterator$GT$4next17h8efda72015f57603E+0x528>
 4fa:	e7ff      	b.n	4fc <_ZN127_$LT$embedded_graphics..primitives..rectangle..RectangleIterator$LT$C$GT$$u20$as$u20$core..iter..traits..iterator..Iterator$GT$4next17h8efda72015f57603E+0x4fc>
/Users/Luppy/.cargo/registry/src/github.com-1ecc6299db9ec823/embedded-graphics-0.5.2/src/primitives/rectangle.rs:217
                self.x = self.top_left[0];
 4fc:	9828      	ldr	r0, [sp, #160]	; 0xa0
 4fe:	2100      	movs	r1, #0
 500:	f7ff fffe 	bl	0 <_ZN104_$LT$embedded_graphics..coord..internal_coord..Coord$u20$as$u20$core..ops..index..Index$LT$usize$GT$$GT$5index17h6ee4fd1eb3180c09E>
 504:	9003      	str	r0, [sp, #12]
 506:	e7ff      	b.n	508 <_ZN127_$LT$embedded_graphics..primitives..rectangle..RectangleIterator$LT$C$GT$$u20$as$u20$core..iter..traits..iterator..Iterator$GT$4next17h8efda72015f57603E+0x508>
 508:	9803      	ldr	r0, [sp, #12]
 50a:	6801      	ldr	r1, [r0, #0]
 50c:	9a28      	ldr	r2, [sp, #160]	; 0xa0
 50e:	6111      	str	r1, [r2, #16]
/Users/Luppy/.cargo/registry/src/github.com-1ecc6299db9ec823/embedded-graphics-0.5.2/src/primitives/rectangle.rs:218
                self.y += 1;
 510:	9928      	ldr	r1, [sp, #160]	; 0xa0
 512:	6949      	ldr	r1, [r1, #20]
 514:	1c4a      	adds	r2, r1, #1
 516:	4613      	mov	r3, r2
 518:	428a      	cmp	r2, r1
 51a:	9302      	str	r3, [sp, #8]
 51c:	d655      	bvs.n	5ca <_ZN127_$LT$embedded_graphics..primitives..rectangle..RectangleIterator$LT$C$GT$$u20$as$u20$core..iter..traits..iterator..Iterator$GT$4next17h8efda72015f57603E+0x5ca>
 51e:	e7ff      	b.n	520 <_ZN127_$LT$embedded_graphics..primitives..rectangle..RectangleIterator$LT$C$GT$$u20$as$u20$core..iter..traits..iterator..Iterator$GT$4next17h8efda72015f57603E+0x520>
 520:	9828      	ldr	r0, [sp, #160]	; 0xa0
 522:	9902      	ldr	r1, [sp, #8]
 524:	6141      	str	r1, [r0, #20]
/Users/Luppy/.cargo/registry/src/github.com-1ecc6299db9ec823/embedded-graphics-0.5.2/src/primitives/rectangle.rs:216
            if self.x > self.bottom_right[0] {
 526:	e7ff      	b.n	528 <_ZN127_$LT$embedded_graphics..primitives..rectangle..RectangleIterator$LT$C$GT$$u20$as$u20$core..iter..traits..iterator..Iterator$GT$4next17h8efda72015f57603E+0x528>
 528:	a82f      	add	r0, sp, #188	; 0xbc
/Users/Luppy/.cargo/registry/src/github.com-1ecc6299db9ec823/embedded-graphics-0.5.2/src/primitives/rectangle.rs:221
            if out.is_some() {
 52a:	f7ff fffe 	bl	0 <_ZN4core6option15Option$LT$T$GT$7is_some17h8b100881b59e2d05E>
 52e:	9001      	str	r0, [sp, #4]
 530:	e7ff      	b.n	532 <_ZN127_$LT$embedded_graphics..primitives..rectangle..RectangleIterator$LT$C$GT$$u20$as$u20$core..iter..traits..iterator..Iterator$GT$4next17h8efda72015f57603E+0x532>
 532:	9801      	ldr	r0, [sp, #4]
 534:	07c1      	lsls	r1, r0, #31
 536:	2900      	cmp	r1, #0
 538:	d101      	bne.n	53e <_ZN127_$LT$embedded_graphics..primitives..rectangle..RectangleIterator$LT$C$GT$$u20$as$u20$core..iter..traits..iterator..Iterator$GT$4next17h8efda72015f57603E+0x53e>
 53a:	e7ff      	b.n	53c <_ZN127_$LT$embedded_graphics..primitives..rectangle..RectangleIterator$LT$C$GT$$u20$as$u20$core..iter..traits..iterator..Iterator$GT$4next17h8efda72015f57603E+0x53c>
/Users/Luppy/.cargo/registry/src/github.com-1ecc6299db9ec823/embedded-graphics-0.5.2/src/primitives/rectangle.rs:176
        let pixel = loop {
 53c:	e605      	b.n	14a <_ZN127_$LT$embedded_graphics..primitives..rectangle..RectangleIterator$LT$C$GT$$u20$as$u20$core..iter..traits..iterator..Iterator$GT$4next17h8efda72015f57603E+0x14a>
/Users/Luppy/.cargo/registry/src/github.com-1ecc6299db9ec823/embedded-graphics-0.5.2/src/primitives/rectangle.rs:222
                break out;
 53e:	982f      	ldr	r0, [sp, #188]	; 0xbc
 540:	9930      	ldr	r1, [sp, #192]	; 0xc0
 542:	9a31      	ldr	r2, [sp, #196]	; 0xc4
 544:	9b32      	ldr	r3, [sp, #200]	; 0xc8
 546:	932e      	str	r3, [sp, #184]	; 0xb8
 548:	922d      	str	r2, [sp, #180]	; 0xb4
 54a:	912c      	str	r1, [sp, #176]	; 0xb0
 54c:	902b      	str	r0, [sp, #172]	; 0xac
 54e:	e5ef      	b.n	130 <_ZN127_$LT$embedded_graphics..primitives..rectangle..RectangleIterator$LT$C$GT$$u20$as$u20$core..iter..traits..iterator..Iterator$GT$4next17h8efda72015f57603E+0x130>
/Users/Luppy/.cargo/registry/src/github.com-1ecc6299db9ec823/embedded-graphics-0.5.2/src/primitives/rectangle.rs:227
    }
 550:	e5ec      	b.n	12c <_ZN127_$LT$embedded_graphics..primitives..rectangle..RectangleIterator$LT$C$GT$$u20$as$u20$core..iter..traits..iterator..Iterator$GT$4next17h8efda72015f57603E+0x12c>
/Users/Luppy/.cargo/registry/src/github.com-1ecc6299db9ec823/embedded-graphics-0.5.2/src/primitives/rectangle.rs:192
                    (self.y >= tl[1] && self.y < tl[1] + border_width)
 552:	f240 0000 	movw	r0, #0
 556:	f2c0 0000 	movt	r0, #0
 55a:	f240 0200 	movw	r2, #0
 55e:	f2c0 0200 	movt	r2, #0
 562:	211c      	movs	r1, #28
 564:	f7ff fffe 	bl	0 <_ZN4core9panicking5panic17hfdd0eecc44a682f8E>
 568:	defe      	udf	#254	; 0xfe
/Users/Luppy/.cargo/registry/src/github.com-1ecc6299db9ec823/embedded-graphics-0.5.2/src/primitives/rectangle.rs:194
                || (self.y <= br[1] && self.y > br[1] - border_width)
 56a:	f240 0000 	movw	r0, #0
 56e:	f2c0 0000 	movt	r0, #0
 572:	f240 0200 	movw	r2, #0
 576:	f2c0 0200 	movt	r2, #0
 57a:	2121      	movs	r1, #33	; 0x21
 57c:	f7ff fffe 	bl	0 <_ZN4core9panicking5panic17hfdd0eecc44a682f8E>
 580:	defe      	udf	#254	; 0xfe
/Users/Luppy/.cargo/registry/src/github.com-1ecc6299db9ec823/embedded-graphics-0.5.2/src/primitives/rectangle.rs:196
                || (self.x >= tl[0] && self.x < tl[0] + border_width)
 582:	f240 0000 	movw	r0, #0
 586:	f2c0 0000 	movt	r0, #0
 58a:	f240 0200 	movw	r2, #0
 58e:	f2c0 0200 	movt	r2, #0
 592:	211c      	movs	r1, #28
 594:	f7ff fffe 	bl	0 <_ZN4core9panicking5panic17hfdd0eecc44a682f8E>
 598:	defe      	udf	#254	; 0xfe
/Users/Luppy/.cargo/registry/src/github.com-1ecc6299db9ec823/embedded-graphics-0.5.2/src/primitives/rectangle.rs:198
                || (self.x <= br[0] && self.x > br[0] - border_width)
 59a:	f240 0000 	movw	r0, #0
 59e:	f2c0 0000 	movt	r0, #0
 5a2:	f240 0200 	movw	r2, #0
 5a6:	f2c0 0200 	movt	r2, #0
 5aa:	2121      	movs	r1, #33	; 0x21
 5ac:	f7ff fffe 	bl	0 <_ZN4core9panicking5panic17hfdd0eecc44a682f8E>
 5b0:	defe      	udf	#254	; 0xfe
/Users/Luppy/.cargo/registry/src/github.com-1ecc6299db9ec823/embedded-graphics-0.5.2/src/primitives/rectangle.rs:213
            self.x += 1;
 5b2:	f240 0000 	movw	r0, #0
 5b6:	f2c0 0000 	movt	r0, #0
 5ba:	f240 0200 	movw	r2, #0
 5be:	f2c0 0200 	movt	r2, #0
 5c2:	211c      	movs	r1, #28
 5c4:	f7ff fffe 	bl	0 <_ZN4core9panicking5panic17hfdd0eecc44a682f8E>
 5c8:	defe      	udf	#254	; 0xfe
/Users/Luppy/.cargo/registry/src/github.com-1ecc6299db9ec823/embedded-graphics-0.5.2/src/primitives/rectangle.rs:218
                self.y += 1;
 5ca:	f240 0000 	movw	r0, #0
 5ce:	f2c0 0000 	movt	r0, #0
 5d2:	f240 0200 	movw	r2, #0
 5d6:	f2c0 0200 	movt	r2, #0
 5da:	211c      	movs	r1, #28
 5dc:	f7ff fffe 	bl	0 <_ZN4core9panicking5panic17hfdd0eecc44a682f8E>
 5e0:	defe      	udf	#254	; 0xfe

Disassembly of section .text._ZN127_$LT$embedded_graphics..primitives..rectangle..RectangleIterator$LT$C$GT$$u20$as$u20$core..iter..traits..iterator..Iterator$GT$4next28_$u7b$$u7b$closure$u7d$$u7d$17h0bb8e9d8beb8e87eE:

00000000 <_ZN127_$LT$embedded_graphics..primitives..rectangle..RectangleIterator$LT$C$GT$$u20$as$u20$core..iter..traits..iterator..Iterator$GT$4next28_$u7b$$u7b$closure$u7d$$u7d$17h0bb8e9d8beb8e87eE>:
_ZN127_$LT$embedded_graphics..primitives..rectangle..RectangleIterator$LT$C$GT$$u20$as$u20$core..iter..traits..iterator..Iterator$GT$4next28_$u7b$$u7b$closure$u7d$$u7d$17h0bb8e9d8beb8e87eE():
/Users/Luppy/.cargo/registry/src/github.com-1ecc6299db9ec823/embedded-graphics-0.5.2/src/primitives/rectangle.rs:226
        pixel.map(|(x, y, c)| Pixel(Coord::new(x, y).to_unsigned(), c))
   0:	b580      	push	{r7, lr}
   2:	b08a      	sub	sp, #40	; 0x28
   4:	680a      	ldr	r2, [r1, #0]
   6:	9207      	str	r2, [sp, #28]
   8:	684a      	ldr	r2, [r1, #4]
   a:	9208      	str	r2, [sp, #32]
   c:	8909      	ldrh	r1, [r1, #8]
   e:	f8ad 1026 	strh.w	r1, [sp, #38]	; 0x26
  12:	9907      	ldr	r1, [sp, #28]
  14:	9a08      	ldr	r2, [sp, #32]
  16:	9005      	str	r0, [sp, #20]
  18:	4608      	mov	r0, r1
  1a:	4611      	mov	r1, r2
  1c:	f7ff fffe 	bl	0 <_ZN17embedded_graphics5coord14internal_coord5Coord3new17h337630cfd7cf8814E>
  20:	9004      	str	r0, [sp, #16]
  22:	9103      	str	r1, [sp, #12]
  24:	e7ff      	b.n	26 <_ZN127_$LT$embedded_graphics..primitives..rectangle..RectangleIterator$LT$C$GT$$u20$as$u20$core..iter..traits..iterator..Iterator$GT$4next28_$u7b$$u7b$closure$u7d$$u7d$17h0bb8e9d8beb8e87eE+0x26>
  26:	9804      	ldr	r0, [sp, #16]
  28:	9903      	ldr	r1, [sp, #12]
  2a:	f7ff fffe 	bl	0 <_ZN104_$LT$embedded_graphics..coord..internal_coord..Coord$u20$as$u20$embedded_graphics..coord..ToUnsigned$GT$11to_unsigned17hae862e0dbc899c11E>
  2e:	9002      	str	r0, [sp, #8]
  30:	9101      	str	r1, [sp, #4]
  32:	e7ff      	b.n	34 <_ZN127_$LT$embedded_graphics..primitives..rectangle..RectangleIterator$LT$C$GT$$u20$as$u20$core..iter..traits..iterator..Iterator$GT$4next28_$u7b$$u7b$closure$u7d$$u7d$17h0bb8e9d8beb8e87eE+0x34>
  34:	f8bd 0026 	ldrh.w	r0, [sp, #38]	; 0x26
  38:	9902      	ldr	r1, [sp, #8]
  3a:	9a05      	ldr	r2, [sp, #20]
  3c:	6011      	str	r1, [r2, #0]
  3e:	9b01      	ldr	r3, [sp, #4]
  40:	6053      	str	r3, [r2, #4]
  42:	8110      	strh	r0, [r2, #8]
  44:	b00a      	add	sp, #40	; 0x28
  46:	bd80      	pop	{r7, pc}

Disassembly of section .text._ZN17embedded_graphics10primitives9rectangle18Rectangle$LT$C$GT$3new17hb10b8ce5aecb39f5E:

00000000 <_ZN17embedded_graphics10primitives9rectangle18Rectangle$LT$C$GT$3new17hb10b8ce5aecb39f5E>:
_ZN17embedded_graphics10primitives9rectangle18Rectangle$LT$C$GT$3new17hb10b8ce5aecb39f5E():
/Users/Luppy/.cargo/registry/src/github.com-1ecc6299db9ec823/embedded-graphics-0.5.2/src/primitives/rectangle.rs:79
    pub fn new(top_left: Coord, bottom_right: Coord) -> Self {
   0:	b510      	push	{r4, lr}
   2:	b08c      	sub	sp, #48	; 0x30
   4:	f8dd c038 	ldr.w	ip, [sp, #56]	; 0x38
   8:	9105      	str	r1, [sp, #20]
   a:	9206      	str	r2, [sp, #24]
   c:	9307      	str	r3, [sp, #28]
   e:	f8cd c020 	str.w	ip, [sp, #32]
/Users/Luppy/.cargo/registry/src/github.com-1ecc6299db9ec823/embedded-graphics-0.5.2/src/primitives/rectangle.rs:81
            top_left,
  12:	9905      	ldr	r1, [sp, #20]
  14:	9a06      	ldr	r2, [sp, #24]
/Users/Luppy/.cargo/registry/src/github.com-1ecc6299db9ec823/embedded-graphics-0.5.2/src/primitives/rectangle.rs:82
            bottom_right,
  16:	9b07      	ldr	r3, [sp, #28]
  18:	f8dd c020 	ldr.w	ip, [sp, #32]
  1c:	f10d 0e24 	add.w	lr, sp, #36	; 0x24
/Users/Luppy/.cargo/registry/src/github.com-1ecc6299db9ec823/embedded-graphics-0.5.2/src/primitives/rectangle.rs:83
            style: Style::default(),
  20:	9004      	str	r0, [sp, #16]
  22:	4670      	mov	r0, lr
  24:	9103      	str	r1, [sp, #12]
  26:	9202      	str	r2, [sp, #8]
  28:	9301      	str	r3, [sp, #4]
  2a:	f8cd c000 	str.w	ip, [sp]
  2e:	f7ff fffe 	bl	0 <_ZN83_$LT$embedded_graphics..style..Style$LT$P$GT$$u20$as$u20$core..default..Default$GT$7default17h18df05f9e5f2bd22E>
  32:	e7ff      	b.n	34 <_ZN17embedded_graphics10primitives9rectangle18Rectangle$LT$C$GT$3new17hb10b8ce5aecb39f5E+0x34>
/Users/Luppy/.cargo/registry/src/github.com-1ecc6299db9ec823/embedded-graphics-0.5.2/src/primitives/rectangle.rs:80
        Rectangle {
  34:	9803      	ldr	r0, [sp, #12]
  36:	9904      	ldr	r1, [sp, #16]
  38:	6008      	str	r0, [r1, #0]
  3a:	9a02      	ldr	r2, [sp, #8]
  3c:	604a      	str	r2, [r1, #4]
  3e:	9b01      	ldr	r3, [sp, #4]
  40:	608b      	str	r3, [r1, #8]
  42:	f8dd c000 	ldr.w	ip, [sp]
  46:	f8c1 c00c 	str.w	ip, [r1, #12]
  4a:	f8bd e02c 	ldrh.w	lr, [sp, #44]	; 0x2c
  4e:	f8a1 e018 	strh.w	lr, [r1, #24]
  52:	f8dd e024 	ldr.w	lr, [sp, #36]	; 0x24
  56:	9c0a      	ldr	r4, [sp, #40]	; 0x28
  58:	614c      	str	r4, [r1, #20]
  5a:	f8c1 e010 	str.w	lr, [r1, #16]
/Users/Luppy/.cargo/registry/src/github.com-1ecc6299db9ec823/embedded-graphics-0.5.2/src/primitives/rectangle.rs:85
    }
  5e:	b00c      	add	sp, #48	; 0x30
  60:	bd10      	pop	{r4, pc}

app-d559bf047a1af437.49qzswuqdfiz6sr5.rcgu.o:     file format elf32-littlearm

SYMBOL TABLE:
00000000 l    df *ABS*	00000000 49qzswuqdfiz6sr5
00001ede l       .debug_str	00000000 
000024ee l       .debug_str	00000000 
00002527 l       .debug_str	00000000 
000025c2 l       .debug_str	00000000 
0000261c l       .debug_str	00000000 
00002623 l       .debug_str	00000000 
0000265c l       .debug_str	00000000 
00002698 l       .debug_str	00000000 
000026ca l       .debug_str	00000000 
00002706 l       .debug_str	00000000 
0000273c l       .debug_str	00000000 
00002778 l       .debug_str	00000000 
00002786 l       .debug_str	00000000 
000027c3 l       .debug_str	00000000 
000027fa l       .debug_str	00000000 
000027ff l       .debug_str	00000000 
0000283c l       .debug_str	00000000 
0000287f l       .debug_str	00000000 
000028bc l       .debug_str	00000000 
000028f3 l       .debug_str	00000000 
000028f5 l       .debug_str	00000000 
000028f7 l       .debug_str	00000000 
000028fc l       .debug_str	00000000 
00002900 l       .debug_str	00000000 
00002904 l       .debug_str	00000000 
00002949 l       .debug_str	00000000 
00000000 l       .debug_str	00000000 
00000041 l       .debug_str	00000000 
00000055 l       .debug_str	00000000 
00000080 l       .debug_str	00000000 
00000085 l       .debug_str	00000000 
00000089 l       .debug_str	00000000 
0000008c l       .debug_str	00000000 
00000097 l       .debug_str	00000000 
000000a2 l       .debug_str	00000000 
000000a9 l       .debug_str	00000000 
000000b0 l       .debug_str	00000000 
000000b4 l       .debug_str	00000000 
000000b9 l       .debug_str	00000000 
000000bd l       .debug_str	00000000 
000000c1 l       .debug_str	00000000 
000000c5 l       .debug_str	00000000 
000000c9 l       .debug_str	00000000 
000000db l       .debug_str	00000000 
000000e6 l       .debug_str	00000000 
000000ed l       .debug_str	00000000 
000000f1 l       .debug_str	00000000 
000000f8 l       .debug_str	00000000 
00000132 l       .debug_str	00000000 
00000134 l       .debug_str	00000000 
00000139 l       .debug_str	00000000 
0000017b l       .debug_str	00000000 
00000182 l       .debug_str	00000000 
00000185 l       .debug_str	00000000 
0000018c l       .debug_str	00000000 
00000195 l       .debug_str	00000000 
0000019b l       .debug_str	00000000 
000001a2 l       .debug_str	00000000 
000001a5 l       .debug_str	00000000 
000001b1 l       .debug_str	00000000 
000001b9 l       .debug_str	00000000 
000001d0 l       .debug_str	00000000 
0000022a l       .debug_str	00000000 
0000028c l       .debug_str	00000000 
00000297 l       .debug_str	00000000 
000002de l       .debug_str	00000000 
0000032d l       .debug_str	00000000 
00000337 l       .debug_str	00000000 
00000374 l       .debug_str	00000000 
000003b9 l       .debug_str	00000000 
000003c2 l       .debug_str	00000000 
000003d2 l       .debug_str	00000000 
000003da l       .debug_str	00000000 
0000042f l       .debug_str	00000000 
0000048c l       .debug_str	00000000 
00000498 l       .debug_str	00000000 
000004a1 l       .debug_str	00000000 
000004ad l       .debug_str	00000000 
000004b9 l       .debug_str	00000000 
000004c2 l       .debug_str	00000000 
000004ca l       .debug_str	00000000 
000004d4 l       .debug_str	00000000 
000004dc l       .debug_str	00000000 
000004e6 l       .debug_str	00000000 
000004fb l       .debug_str	00000000 
00000502 l       .debug_str	00000000 
00000522 l       .debug_str	00000000 
00000529 l       .debug_str	00000000 
00000531 l       .debug_str	00000000 
0000053b l       .debug_str	00000000 
00000546 l       .debug_str	00000000 
0000054f l       .debug_str	00000000 
0000055a l       .debug_str	00000000 
00000566 l       .debug_str	00000000 
0000056f l       .debug_str	00000000 
00000576 l       .debug_str	00000000 
0000057e l       .debug_str	00000000 
00000586 l       .debug_str	00000000 
00000590 l       .debug_str	00000000 
00000596 l       .debug_str	00000000 
0000059d l       .debug_str	00000000 
000005a4 l       .debug_str	00000000 
000005d1 l       .debug_str	00000000 
00000606 l       .debug_str	00000000 
0000060c l       .debug_str	00000000 
00000612 l       .debug_str	00000000 
00000621 l       .debug_str	00000000 
00000631 l       .debug_str	00000000 
00000641 l       .debug_str	00000000 
00000649 l       .debug_str	00000000 
00000672 l       .debug_str	00000000 
000006d0 l       .debug_str	00000000 
00000736 l       .debug_str	00000000 
0000073d l       .debug_str	00000000 
00000745 l       .debug_str	00000000 
0000074e l       .debug_str	00000000 
0000076c l       .debug_str	00000000 
0000077c l       .debug_str	00000000 
0000078a l       .debug_str	00000000 
00000795 l       .debug_str	00000000 
000007a2 l       .debug_str	00000000 
000007b1 l       .debug_str	00000000 
000007c7 l       .debug_str	00000000 
000007d1 l       .debug_str	00000000 
000007da l       .debug_str	00000000 
000007e3 l       .debug_str	00000000 
00000809 l       .debug_str	00000000 
0000081f l       .debug_str	00000000 
0000082a l       .debug_str	00000000 
00000840 l       .debug_str	00000000 
00000848 l       .debug_str	00000000 
00000869 l       .debug_str	00000000 
00000880 l       .debug_str	00000000 
00000885 l       .debug_str	00000000 
0000088d l       .debug_str	00000000 
00000896 l       .debug_str	00000000 
0000089f l       .debug_str	00000000 
000008a8 l       .debug_str	00000000 
000008b0 l       .debug_str	00000000 
000008b4 l       .debug_str	00000000 
000008bb l       .debug_str	00000000 
000008c7 l       .debug_str	00000000 
000008d2 l       .debug_str	00000000 
000008da l       .debug_str	00000000 
000008e2 l       .debug_str	00000000 
0000095e l       .debug_str	00000000 
000009e2 l       .debug_str	00000000 
00000ade l       .debug_str	00000000 
00000be2 l       .debug_str	00000000 
00000bf0 l       .debug_str	00000000 
00000bfb l       .debug_str	00000000 
00000c05 l       .debug_str	00000000 
00000c19 l       .debug_str	00000000 
00000c24 l       .debug_str	00000000 
00000c52 l       .debug_str	00000000 
00000ccd l       .debug_str	00000000 
00000d50 l       .debug_str	00000000 
00000d5e l       .debug_str	00000000 
00000dbd l       .debug_str	00000000 
00000e24 l       .debug_str	00000000 
00000e3a l       .debug_str	00000000 
00000e4a l       .debug_str	00000000 
00000e59 l       .debug_str	00000000 
00000e5d l       .debug_str	00000000 
00000e64 l       .debug_str	00000000 
00000e6a l       .debug_str	00000000 
00000e6e l       .debug_str	00000000 
00000e74 l       .debug_str	00000000 
00000e7a l       .debug_str	00000000 
00000e86 l       .debug_str	00000000 
00000e8e l       .debug_str	00000000 
00000e94 l       .debug_str	00000000 
00000e9c l       .debug_str	00000000 
00000ea2 l       .debug_str	00000000 
00000ec5 l       .debug_str	00000000 
00000ed5 l       .debug_str	00000000 
00000f08 l       .debug_str	00000000 
00000f48 l       .debug_str	00000000 
00000f90 l       .debug_str	00000000 
00000f94 l       .debug_str	00000000 
00000f9a l       .debug_str	00000000 
00000fa0 l       .debug_str	00000000 
00000fa6 l       .debug_str	00000000 
00000fb8 l       .debug_str	00000000 
00000fed l       .debug_str	00000000 
0000102f l       .debug_str	00000000 
00001079 l       .debug_str	00000000 
0000107d l       .debug_str	00000000 
00001083 l       .debug_str	00000000 
00001089 l       .debug_str	00000000 
0000108f l       .debug_str	00000000 
000010a1 l       .debug_str	00000000 
000010d6 l       .debug_str	00000000 
00001118 l       .debug_str	00000000 
00001162 l       .debug_str	00000000 
00001166 l       .debug_str	00000000 
0000116c l       .debug_str	00000000 
00001172 l       .debug_str	00000000 
00001178 l       .debug_str	00000000 
0000117e l       .debug_str	00000000 
0000118f l       .debug_str	00000000 
000011c3 l       .debug_str	00000000 
00001204 l       .debug_str	00000000 
0000124d l       .debug_str	00000000 
00001252 l       .debug_str	00000000 
00001257 l       .debug_str	00000000 
0000125b l       .debug_str	00000000 
00001261 l       .debug_str	00000000 
00001267 l       .debug_str	00000000 
0000126d l       .debug_str	00000000 
0000127e l       .debug_str	00000000 
000012b2 l       .debug_str	00000000 
000012f3 l       .debug_str	00000000 
0000133c l       .debug_str	00000000 
00001340 l       .debug_str	00000000 
00001349 l       .debug_str	00000000 
0000135a l       .debug_str	00000000 
0000138e l       .debug_str	00000000 
000013cf l       .debug_str	00000000 
00001418 l       .debug_str	00000000 
0000141d l       .debug_str	00000000 
00001421 l       .debug_str	00000000 
0000142a l       .debug_str	00000000 
00001431 l       .debug_str	00000000 
00001439 l       .debug_str	00000000 
0000144b l       .debug_str	00000000 
00001480 l       .debug_str	00000000 
000014c2 l       .debug_str	00000000 
0000150c l       .debug_str	00000000 
00001510 l       .debug_str	00000000 
00001516 l       .debug_str	00000000 
0000151c l       .debug_str	00000000 
00001522 l       .debug_str	00000000 
00001528 l       .debug_str	00000000 
00001530 l       .debug_str	00000000 
0000153e l       .debug_str	00000000 
0000154d l       .debug_str	00000000 
0000155e l       .debug_str	00000000 
00001569 l       .debug_str	00000000 
00001574 l       .debug_str	00000000 
0000157f l       .debug_str	00000000 
00001586 l       .debug_str	00000000 
000015a9 l       .debug_str	00000000 
000015bb l       .debug_str	00000000 
000015f0 l       .debug_str	00000000 
00001632 l       .debug_str	00000000 
0000167c l       .debug_str	00000000 
00001680 l       .debug_str	00000000 
0000168a l       .debug_str	00000000 
0000169c l       .debug_str	00000000 
000016d1 l       .debug_str	00000000 
00001713 l       .debug_str	00000000 
0000175d l       .debug_str	00000000 
00001762 l       .debug_str	00000000 
0000176c l       .debug_str	00000000 
0000177e l       .debug_str	00000000 
000017b3 l       .debug_str	00000000 
000017f5 l       .debug_str	00000000 
0000183f l       .debug_str	00000000 
00001853 l       .debug_str	00000000 
00001857 l       .debug_str	00000000 
00001865 l       .debug_str	00000000 
00001875 l       .debug_str	00000000 
0000187e l       .debug_str	00000000 
00001889 l       .debug_str	00000000 
00001898 l       .debug_str	00000000 
000018ad l       .debug_str	00000000 
000018de l       .debug_str	00000000 
0000197b l       .debug_str	00000000 
00001a20 l       .debug_str	00000000 
00001a2b l       .debug_str	00000000 
00001a34 l       .debug_str	00000000 
00001a55 l       .debug_str	00000000 
00001a68 l       .debug_str	00000000 
00001a9e l       .debug_str	00000000 
00001b21 l       .debug_str	00000000 
00001bac l       .debug_str	00000000 
00001bc8 l       .debug_str	00000000 
00001c14 l       .debug_str	00000000 
00001c68 l       .debug_str	00000000 
00001c85 l       .debug_str	00000000 
00001c99 l       .debug_str	00000000 
00001ce5 l       .debug_str	00000000 
00001d39 l       .debug_str	00000000 
00001d4f l       .debug_str	00000000 
00001d63 l       .debug_str	00000000 
00001daa l       .debug_str	00000000 
00001df9 l       .debug_str	00000000 
00001e02 l       .debug_str	00000000 
00001e10 l       .debug_str	00000000 
00001e41 l       .debug_str	00000000 
00001e47 l       .debug_str	00000000 
00001e4f l       .debug_str	00000000 
00001e56 l       .debug_str	00000000 
00001e5e l       .debug_str	00000000 
00001e69 l       .debug_str	00000000 
00001e71 l       .debug_str	00000000 
00001e80 l       .debug_str	00000000 
00001e84 l       .debug_str	00000000 
00001e8f l       .debug_str	00000000 
00001e9b l       .debug_str	00000000 
00001ea6 l       .debug_str	00000000 
00001eb7 l       .debug_str	00000000 
00001ebd l       .debug_str	00000000 
00001ec5 l       .debug_str	00000000 
00001ecc l       .debug_str	00000000 
00001ed6 l       .debug_str	00000000 
00001ee6 l       .debug_str	00000000 
00001f08 l       .debug_str	00000000 
00001f13 l       .debug_str	00000000 
00001f1f l       .debug_str	00000000 
00001f27 l       .debug_str	00000000 
00001f30 l       .debug_str	00000000 
00001f3b l       .debug_str	00000000 
00001f42 l       .debug_str	00000000 
00001f4d l       .debug_str	00000000 
00001f58 l       .debug_str	00000000 
00001f68 l       .debug_str	00000000 
00001f72 l       .debug_str	00000000 
00001f78 l       .debug_str	00000000 
00001f9a l       .debug_str	00000000 
00001fd2 l       .debug_str	00000000 
00002012 l       .debug_str	00000000 
00002019 l       .debug_str	00000000 
00002021 l       .debug_str	00000000 
00002038 l       .debug_str	00000000 
00002041 l       .debug_str	00000000 
00002051 l       .debug_str	00000000 
00002060 l       .debug_str	00000000 
00002068 l       .debug_str	00000000 
0000206f l       .debug_str	00000000 
00002077 l       .debug_str	00000000 
00002095 l       .debug_str	00000000 
000020a5 l       .debug_str	00000000 
000020d8 l       .debug_str	00000000 
000020ed l       .debug_str	00000000 
000020f6 l       .debug_str	00000000 
00002153 l       .debug_str	00000000 
000021b8 l       .debug_str	00000000 
000021c2 l       .debug_str	00000000 
000021d2 l       .debug_str	00000000 
000021e7 l       .debug_str	00000000 
000021ef l       .debug_str	00000000 
00002253 l       .debug_str	00000000 
000022bf l       .debug_str	00000000 
000022c6 l       .debug_str	00000000 
000022ce l       .debug_str	00000000 
000022ec l       .debug_str	00000000 
000022fc l       .debug_str	00000000 
0000232f l       .debug_str	00000000 
00002344 l       .debug_str	00000000 
00002357 l       .debug_str	00000000 
0000236c l       .debug_str	00000000 
00002373 l       .debug_str	00000000 
00002388 l       .debug_str	00000000 
000023b2 l       .debug_str	00000000 
000023e4 l       .debug_str	00000000 
0000241a l       .debug_str	00000000 
00002423 l       .debug_str	00000000 
0000242a l       .debug_str	00000000 
00002430 l       .debug_str	00000000 
00002435 l       .debug_str	00000000 
0000243b l       .debug_str	00000000 
00002449 l       .debug_str	00000000 
00002452 l       .debug_str	00000000 
00002460 l       .debug_str	00000000 
00002478 l       .debug_str	00000000 
00002486 l       .debug_str	00000000 
00002488 l       .debug_str	00000000 
000024bd l       .debug_str	00000000 
000024bf l       .debug_str	00000000 
000024ca l       .debug_str	00000000 
000024d4 l       .debug_str	00000000 
000024dd l       .debug_str	00000000 
000024e2 l       .debug_str	00000000 
000024ec l       .debug_str	00000000 
00000000 l     O .rodata..Lanon.b55bfd282752363ffbae0a2af2da293f.0	0000002b .Lanon.b55bfd282752363ffbae0a2af2da293f.0
00000000 l     O .rodata..Lanon.b55bfd282752363ffbae0a2af2da293f.2	00000010 .Lanon.b55bfd282752363ffbae0a2af2da293f.2
00000000 l    d  .text._ZN4core6option15Option$LT$T$GT$3map17h8f94395c825fc3faE	00000000 .text._ZN4core6option15Option$LT$T$GT$3map17h8f94395c825fc3faE
00000000 l    d  .text._ZN4core6option15Option$LT$T$GT$3map17hf51d1d6ead7d6077E	00000000 .text._ZN4core6option15Option$LT$T$GT$3map17hf51d1d6ead7d6077E
00000000 l    d  .text._ZN4core6option15Option$LT$T$GT$6expect17hb3a65af939a919baE	00000000 .text._ZN4core6option15Option$LT$T$GT$6expect17hb3a65af939a919baE
00000000 l    d  .text._ZN4core6option15Option$LT$T$GT$6expect17hc4cab784399a1c6dE	00000000 .text._ZN4core6option15Option$LT$T$GT$6expect17hc4cab784399a1c6dE
00000000 l    d  .text._ZN4core6option15Option$LT$T$GT$6unwrap17hf4116ac60be8c113E	00000000 .text._ZN4core6option15Option$LT$T$GT$6unwrap17hf4116ac60be8c113E
00000000 l    d  .text._ZN4core6option15Option$LT$T$GT$7is_none17h0322cadb15e896fdE	00000000 .text._ZN4core6option15Option$LT$T$GT$7is_none17h0322cadb15e896fdE
00000000 l    d  .text._ZN4core6option15Option$LT$T$GT$7is_some17h8b100881b59e2d05E	00000000 .text._ZN4core6option15Option$LT$T$GT$7is_some17h8b100881b59e2d05E
00000000 l    d  .text._ZN4core6option15Option$LT$T$GT$7is_some17hf12135d0d5d4ce47E	00000000 .text._ZN4core6option15Option$LT$T$GT$7is_some17hf12135d0d5d4ce47E
00000000 l    d  .rodata..Lanon.b55bfd282752363ffbae0a2af2da293f.1	00000000 .rodata..Lanon.b55bfd282752363ffbae0a2af2da293f.1
00000000 l    d  .debug_loc	00000000 .debug_loc
00000000 l    d  .debug_abbrev	00000000 .debug_abbrev
00000000 l    d  .debug_info	00000000 .debug_info
00000000 l    d  .debug_ranges	00000000 .debug_ranges
00000000 l    d  .debug_frame	00000000 .debug_frame
00000000 l    d  .debug_line	00000000 .debug_line
00000000         *UND*	00000000 _ZN121_$LT$embedded_graphics..primitives..circle..CircleIterator$LT$C$GT$$u20$as$u20$core..iter..traits..iterator..Iterator$GT$4next28_$u7b$$u7b$closure$u7d$$u7d$17h320a754653374208E
00000000         *UND*	00000000 _ZN127_$LT$embedded_graphics..primitives..rectangle..RectangleIterator$LT$C$GT$$u20$as$u20$core..iter..traits..iterator..Iterator$GT$4next28_$u7b$$u7b$closure$u7d$$u7d$17h0bb8e9d8beb8e87eE
00000000         *UND*	00000000 _ZN4core6option13expect_failed17hf5665627dddd4106E
00000000 g     F .text._ZN4core6option15Option$LT$T$GT$3map17h8f94395c825fc3faE	000000ba _ZN4core6option15Option$LT$T$GT$3map17h8f94395c825fc3faE
00000000 g     F .text._ZN4core6option15Option$LT$T$GT$3map17hf51d1d6ead7d6077E	000000ba _ZN4core6option15Option$LT$T$GT$3map17hf51d1d6ead7d6077E
00000000 g     F .text._ZN4core6option15Option$LT$T$GT$6expect17hb3a65af939a919baE	00000038 _ZN4core6option15Option$LT$T$GT$6expect17hb3a65af939a919baE
00000000 g     F .text._ZN4core6option15Option$LT$T$GT$6expect17hc4cab784399a1c6dE	0000004e _ZN4core6option15Option$LT$T$GT$6expect17hc4cab784399a1c6dE
00000000 g     F .text._ZN4core6option15Option$LT$T$GT$6unwrap17hf4116ac60be8c113E	00000052 _ZN4core6option15Option$LT$T$GT$6unwrap17hf4116ac60be8c113E
00000000 g     F .text._ZN4core6option15Option$LT$T$GT$7is_none17h0322cadb15e896fdE	0000001a _ZN4core6option15Option$LT$T$GT$7is_none17h0322cadb15e896fdE
00000000 g     F .text._ZN4core6option15Option$LT$T$GT$7is_some17h8b100881b59e2d05E	0000002a _ZN4core6option15Option$LT$T$GT$7is_some17h8b100881b59e2d05E
00000000 g     F .text._ZN4core6option15Option$LT$T$GT$7is_some17hf12135d0d5d4ce47E	0000002c _ZN4core6option15Option$LT$T$GT$7is_some17hf12135d0d5d4ce47E
00000000         *UND*	00000000 _ZN4core9panicking5panic17hfdd0eecc44a682f8E



Disassembly of section .text._ZN4core6option15Option$LT$T$GT$3map17h8f94395c825fc3faE:

00000000 <_ZN4core6option15Option$LT$T$GT$3map17h8f94395c825fc3faE>:
_ZN4core6option15Option$LT$T$GT$3map17h8f94395c825fc3faE():
/rustc/412f43ac5b4ae8c3599e71c6972112e9be4758fa/src/libcore/option.rs:447
   0:	b580      	push	{r7, lr}
   2:	b090      	sub	sp, #64	; 0x40
   4:	2200      	movs	r2, #0
/rustc/412f43ac5b4ae8c3599e71c6972112e9be4758fa/src/libcore/option.rs:449
   6:	f88d 203e 	strb.w	r2, [sp, #62]	; 0x3e
   a:	f88d 203f 	strb.w	r2, [sp, #63]	; 0x3f
   e:	2201      	movs	r2, #1
  10:	f88d 203f 	strb.w	r2, [sp, #63]	; 0x3f
  14:	f88d 203e 	strb.w	r2, [sp, #62]	; 0x3e
  18:	680a      	ldr	r2, [r1, #0]
  1a:	2a00      	cmp	r2, #0
  1c:	9101      	str	r1, [sp, #4]
  1e:	9000      	str	r0, [sp, #0]
  20:	d001      	beq.n	26 <_ZN4core6option15Option$LT$T$GT$3map17h8f94395c825fc3faE+0x26>
  22:	e7ff      	b.n	24 <_ZN4core6option15Option$LT$T$GT$3map17h8f94395c825fc3faE+0x24>
  24:	e004      	b.n	30 <_ZN4core6option15Option$LT$T$GT$3map17h8f94395c825fc3faE+0x30>
  26:	2000      	movs	r0, #0
/rustc/412f43ac5b4ae8c3599e71c6972112e9be4758fa/src/libcore/option.rs:450
  28:	9900      	ldr	r1, [sp, #0]
  2a:	6008      	str	r0, [r1, #0]
/rustc/412f43ac5b4ae8c3599e71c6972112e9be4758fa/src/libcore/option.rs:448
  2c:	e032      	b.n	94 <_ZN4core6option15Option$LT$T$GT$3map17h8f94395c825fc3faE+0x94>
  2e:	defe      	udf	#254	; 0xfe
  30:	2000      	movs	r0, #0
/rustc/412f43ac5b4ae8c3599e71c6972112e9be4758fa/src/libcore/option.rs:449
  32:	f88d 003f 	strb.w	r0, [sp, #63]	; 0x3f
  36:	9901      	ldr	r1, [sp, #4]
  38:	684a      	ldr	r2, [r1, #4]
  3a:	688b      	ldr	r3, [r1, #8]
  3c:	f8d1 c00c 	ldr.w	ip, [r1, #12]
  40:	f8cd c014 	str.w	ip, [sp, #20]
  44:	9304      	str	r3, [sp, #16]
  46:	9203      	str	r2, [sp, #12]
  48:	f88d 003e 	strb.w	r0, [sp, #62]	; 0x3e
  4c:	9803      	ldr	r0, [sp, #12]
  4e:	9a04      	ldr	r2, [sp, #16]
  50:	9b05      	ldr	r3, [sp, #20]
  52:	930e      	str	r3, [sp, #56]	; 0x38
  54:	920d      	str	r2, [sp, #52]	; 0x34
  56:	900c      	str	r0, [sp, #48]	; 0x30
  58:	980c      	ldr	r0, [sp, #48]	; 0x30
  5a:	9a0d      	ldr	r2, [sp, #52]	; 0x34
  5c:	9b0e      	ldr	r3, [sp, #56]	; 0x38
  5e:	930b      	str	r3, [sp, #44]	; 0x2c
  60:	920a      	str	r2, [sp, #40]	; 0x28
  62:	9009      	str	r0, [sp, #36]	; 0x24
  64:	a806      	add	r0, sp, #24
  66:	a909      	add	r1, sp, #36	; 0x24
  68:	f7ff fffe 	bl	0 <_ZN127_$LT$embedded_graphics..primitives..rectangle..RectangleIterator$LT$C$GT$$u20$as$u20$core..iter..traits..iterator..Iterator$GT$4next28_$u7b$$u7b$closure$u7d$$u7d$17h0bb8e9d8beb8e87eE>
  6c:	e7ff      	b.n	6e <_ZN4core6option15Option$LT$T$GT$3map17h8f94395c825fc3faE+0x6e>
  6e:	9806      	ldr	r0, [sp, #24]
  70:	9907      	ldr	r1, [sp, #28]
  72:	9a08      	ldr	r2, [sp, #32]
  74:	9b00      	ldr	r3, [sp, #0]
  76:	60da      	str	r2, [r3, #12]
  78:	6099      	str	r1, [r3, #8]
  7a:	6058      	str	r0, [r3, #4]
  7c:	2001      	movs	r0, #1
  7e:	6018      	str	r0, [r3, #0]
/rustc/412f43ac5b4ae8c3599e71c6972112e9be4758fa/src/libcore/option.rs:452
  80:	e008      	b.n	94 <_ZN4core6option15Option$LT$T$GT$3map17h8f94395c825fc3faE+0x94>
  82:	9801      	ldr	r0, [sp, #4]
  84:	6801      	ldr	r1, [r0, #0]
  86:	2901      	cmp	r1, #1
  88:	d00c      	beq.n	a4 <_ZN4core6option15Option$LT$T$GT$3map17h8f94395c825fc3faE+0xa4>
  8a:	e015      	b.n	b8 <_ZN4core6option15Option$LT$T$GT$3map17h8f94395c825fc3faE+0xb8>
  8c:	2000      	movs	r0, #0
  8e:	f88d 003e 	strb.w	r0, [sp, #62]	; 0x3e
  92:	e7f6      	b.n	82 <_ZN4core6option15Option$LT$T$GT$3map17h8f94395c825fc3faE+0x82>
  94:	f89d 003e 	ldrb.w	r0, [sp, #62]	; 0x3e
  98:	07c0      	lsls	r0, r0, #31
  9a:	2800      	cmp	r0, #0
  9c:	d1f6      	bne.n	8c <_ZN4core6option15Option$LT$T$GT$3map17h8f94395c825fc3faE+0x8c>
  9e:	e7f0      	b.n	82 <_ZN4core6option15Option$LT$T$GT$3map17h8f94395c825fc3faE+0x82>
  a0:	b010      	add	sp, #64	; 0x40
  a2:	bd80      	pop	{r7, pc}
  a4:	f89d 003f 	ldrb.w	r0, [sp, #63]	; 0x3f
  a8:	07c0      	lsls	r0, r0, #31
  aa:	2800      	cmp	r0, #0
  ac:	d0f8      	beq.n	a0 <_ZN4core6option15Option$LT$T$GT$3map17h8f94395c825fc3faE+0xa0>
  ae:	e7ff      	b.n	b0 <_ZN4core6option15Option$LT$T$GT$3map17h8f94395c825fc3faE+0xb0>
  b0:	2000      	movs	r0, #0
  b2:	f88d 003f 	strb.w	r0, [sp, #63]	; 0x3f
  b6:	e7f3      	b.n	a0 <_ZN4core6option15Option$LT$T$GT$3map17h8f94395c825fc3faE+0xa0>
  b8:	e7f2      	b.n	a0 <_ZN4core6option15Option$LT$T$GT$3map17h8f94395c825fc3faE+0xa0>

Disassembly of section .text._ZN4core6option15Option$LT$T$GT$3map17hf51d1d6ead7d6077E:

00000000 <_ZN4core6option15Option$LT$T$GT$3map17hf51d1d6ead7d6077E>:
_ZN4core6option15Option$LT$T$GT$3map17hf51d1d6ead7d6077E():
/rustc/412f43ac5b4ae8c3599e71c6972112e9be4758fa/src/libcore/option.rs:447
   0:	b580      	push	{r7, lr}
   2:	b090      	sub	sp, #64	; 0x40
   4:	2200      	movs	r2, #0
/rustc/412f43ac5b4ae8c3599e71c6972112e9be4758fa/src/libcore/option.rs:449
   6:	f88d 203e 	strb.w	r2, [sp, #62]	; 0x3e
   a:	f88d 203f 	strb.w	r2, [sp, #63]	; 0x3f
   e:	2201      	movs	r2, #1
  10:	f88d 203f 	strb.w	r2, [sp, #63]	; 0x3f
  14:	f88d 203e 	strb.w	r2, [sp, #62]	; 0x3e
  18:	680a      	ldr	r2, [r1, #0]
  1a:	2a00      	cmp	r2, #0
  1c:	9101      	str	r1, [sp, #4]
  1e:	9000      	str	r0, [sp, #0]
  20:	d001      	beq.n	26 <_ZN4core6option15Option$LT$T$GT$3map17hf51d1d6ead7d6077E+0x26>
  22:	e7ff      	b.n	24 <_ZN4core6option15Option$LT$T$GT$3map17hf51d1d6ead7d6077E+0x24>
  24:	e004      	b.n	30 <_ZN4core6option15Option$LT$T$GT$3map17hf51d1d6ead7d6077E+0x30>
  26:	2000      	movs	r0, #0
/rustc/412f43ac5b4ae8c3599e71c6972112e9be4758fa/src/libcore/option.rs:450
  28:	9900      	ldr	r1, [sp, #0]
  2a:	6008      	str	r0, [r1, #0]
/rustc/412f43ac5b4ae8c3599e71c6972112e9be4758fa/src/libcore/option.rs:448
  2c:	e032      	b.n	94 <_ZN4core6option15Option$LT$T$GT$3map17hf51d1d6ead7d6077E+0x94>
  2e:	defe      	udf	#254	; 0xfe
  30:	2000      	movs	r0, #0
/rustc/412f43ac5b4ae8c3599e71c6972112e9be4758fa/src/libcore/option.rs:449
  32:	f88d 003f 	strb.w	r0, [sp, #63]	; 0x3f
  36:	9901      	ldr	r1, [sp, #4]
  38:	684a      	ldr	r2, [r1, #4]
  3a:	688b      	ldr	r3, [r1, #8]
  3c:	f8d1 c00c 	ldr.w	ip, [r1, #12]
  40:	f8cd c014 	str.w	ip, [sp, #20]
  44:	9304      	str	r3, [sp, #16]
  46:	9203      	str	r2, [sp, #12]
  48:	f88d 003e 	strb.w	r0, [sp, #62]	; 0x3e
  4c:	9803      	ldr	r0, [sp, #12]
  4e:	9a04      	ldr	r2, [sp, #16]
  50:	9b05      	ldr	r3, [sp, #20]
  52:	930e      	str	r3, [sp, #56]	; 0x38
  54:	920d      	str	r2, [sp, #52]	; 0x34
  56:	900c      	str	r0, [sp, #48]	; 0x30
  58:	980c      	ldr	r0, [sp, #48]	; 0x30
  5a:	9a0d      	ldr	r2, [sp, #52]	; 0x34
  5c:	9b0e      	ldr	r3, [sp, #56]	; 0x38
  5e:	930b      	str	r3, [sp, #44]	; 0x2c
  60:	920a      	str	r2, [sp, #40]	; 0x28
  62:	9009      	str	r0, [sp, #36]	; 0x24
  64:	a806      	add	r0, sp, #24
  66:	a909      	add	r1, sp, #36	; 0x24
  68:	f7ff fffe 	bl	0 <_ZN121_$LT$embedded_graphics..primitives..circle..CircleIterator$LT$C$GT$$u20$as$u20$core..iter..traits..iterator..Iterator$GT$4next28_$u7b$$u7b$closure$u7d$$u7d$17h320a754653374208E>
  6c:	e7ff      	b.n	6e <_ZN4core6option15Option$LT$T$GT$3map17hf51d1d6ead7d6077E+0x6e>
  6e:	9806      	ldr	r0, [sp, #24]
  70:	9907      	ldr	r1, [sp, #28]
  72:	9a08      	ldr	r2, [sp, #32]
  74:	9b00      	ldr	r3, [sp, #0]
  76:	60da      	str	r2, [r3, #12]
  78:	6099      	str	r1, [r3, #8]
  7a:	6058      	str	r0, [r3, #4]
  7c:	2001      	movs	r0, #1
  7e:	6018      	str	r0, [r3, #0]
/rustc/412f43ac5b4ae8c3599e71c6972112e9be4758fa/src/libcore/option.rs:452
  80:	e008      	b.n	94 <_ZN4core6option15Option$LT$T$GT$3map17hf51d1d6ead7d6077E+0x94>
  82:	9801      	ldr	r0, [sp, #4]
  84:	6801      	ldr	r1, [r0, #0]
  86:	2901      	cmp	r1, #1
  88:	d00c      	beq.n	a4 <_ZN4core6option15Option$LT$T$GT$3map17hf51d1d6ead7d6077E+0xa4>
  8a:	e015      	b.n	b8 <_ZN4core6option15Option$LT$T$GT$3map17hf51d1d6ead7d6077E+0xb8>
  8c:	2000      	movs	r0, #0
  8e:	f88d 003e 	strb.w	r0, [sp, #62]	; 0x3e
  92:	e7f6      	b.n	82 <_ZN4core6option15Option$LT$T$GT$3map17hf51d1d6ead7d6077E+0x82>
  94:	f89d 003e 	ldrb.w	r0, [sp, #62]	; 0x3e
  98:	07c0      	lsls	r0, r0, #31
  9a:	2800      	cmp	r0, #0
  9c:	d1f6      	bne.n	8c <_ZN4core6option15Option$LT$T$GT$3map17hf51d1d6ead7d6077E+0x8c>
  9e:	e7f0      	b.n	82 <_ZN4core6option15Option$LT$T$GT$3map17hf51d1d6ead7d6077E+0x82>
  a0:	b010      	add	sp, #64	; 0x40
  a2:	bd80      	pop	{r7, pc}
  a4:	f89d 003f 	ldrb.w	r0, [sp, #63]	; 0x3f
  a8:	07c0      	lsls	r0, r0, #31
  aa:	2800      	cmp	r0, #0
  ac:	d0f8      	beq.n	a0 <_ZN4core6option15Option$LT$T$GT$3map17hf51d1d6ead7d6077E+0xa0>
  ae:	e7ff      	b.n	b0 <_ZN4core6option15Option$LT$T$GT$3map17hf51d1d6ead7d6077E+0xb0>
  b0:	2000      	movs	r0, #0
  b2:	f88d 003f 	strb.w	r0, [sp, #63]	; 0x3f
  b6:	e7f3      	b.n	a0 <_ZN4core6option15Option$LT$T$GT$3map17hf51d1d6ead7d6077E+0xa0>
  b8:	e7f2      	b.n	a0 <_ZN4core6option15Option$LT$T$GT$3map17hf51d1d6ead7d6077E+0xa0>

Disassembly of section .text._ZN4core6option15Option$LT$T$GT$6expect17hb3a65af939a919baE:

00000000 <_ZN4core6option15Option$LT$T$GT$6expect17hb3a65af939a919baE>:
_ZN4core6option15Option$LT$T$GT$6expect17hb3a65af939a919baE():
/rustc/412f43ac5b4ae8c3599e71c6972112e9be4758fa/src/libcore/option.rs:344
   0:	b086      	sub	sp, #24
   2:	9001      	str	r0, [sp, #4]
   4:	9102      	str	r1, [sp, #8]
   6:	9203      	str	r2, [sp, #12]
   8:	9304      	str	r3, [sp, #16]
/rustc/412f43ac5b4ae8c3599e71c6972112e9be4758fa/src/libcore/option.rs:346
   a:	9801      	ldr	r0, [sp, #4]
   c:	2800      	cmp	r0, #0
   e:	d001      	beq.n	14 <_ZN4core6option15Option$LT$T$GT$6expect17hb3a65af939a919baE+0x14>
  10:	e7ff      	b.n	12 <_ZN4core6option15Option$LT$T$GT$6expect17hb3a65af939a919baE+0x12>
  12:	e005      	b.n	20 <_ZN4core6option15Option$LT$T$GT$6expect17hb3a65af939a919baE+0x20>
/rustc/412f43ac5b4ae8c3599e71c6972112e9be4758fa/src/libcore/option.rs:347
  14:	9803      	ldr	r0, [sp, #12]
  16:	9904      	ldr	r1, [sp, #16]
  18:	f7ff fffe 	bl	0 <_ZN4core6option13expect_failed17hf5665627dddd4106E>
  1c:	defe      	udf	#254	; 0xfe
/rustc/412f43ac5b4ae8c3599e71c6972112e9be4758fa/src/libcore/option.rs:345
  1e:	defe      	udf	#254	; 0xfe
/rustc/412f43ac5b4ae8c3599e71c6972112e9be4758fa/src/libcore/option.rs:346
  20:	9802      	ldr	r0, [sp, #8]
  22:	9005      	str	r0, [sp, #20]
  24:	9805      	ldr	r0, [sp, #20]
/rustc/412f43ac5b4ae8c3599e71c6972112e9be4758fa/src/libcore/option.rs:349
  26:	9901      	ldr	r1, [sp, #4]
  28:	2901      	cmp	r1, #1
  2a:	9000      	str	r0, [sp, #0]
  2c:	d103      	bne.n	36 <_ZN4core6option15Option$LT$T$GT$6expect17hb3a65af939a919baE+0x36>
  2e:	e7ff      	b.n	30 <_ZN4core6option15Option$LT$T$GT$6expect17hb3a65af939a919baE+0x30>
  30:	9800      	ldr	r0, [sp, #0]
  32:	b006      	add	sp, #24
  34:	4770      	bx	lr
  36:	e7fb      	b.n	30 <_ZN4core6option15Option$LT$T$GT$6expect17hb3a65af939a919baE+0x30>

Disassembly of section .text._ZN4core6option15Option$LT$T$GT$6expect17hc4cab784399a1c6dE:

00000000 <_ZN4core6option15Option$LT$T$GT$6expect17hc4cab784399a1c6dE>:
_ZN4core6option15Option$LT$T$GT$6expect17hc4cab784399a1c6dE():
/rustc/412f43ac5b4ae8c3599e71c6972112e9be4758fa/src/libcore/option.rs:344
   0:	b580      	push	{r7, lr}
   2:	b086      	sub	sp, #24
   4:	468c      	mov	ip, r1
   6:	4686      	mov	lr, r0
   8:	f8ad 0008 	strh.w	r0, [sp, #8]
   c:	f8ad 100a 	strh.w	r1, [sp, #10]
  10:	9203      	str	r2, [sp, #12]
  12:	9304      	str	r3, [sp, #16]
/rustc/412f43ac5b4ae8c3599e71c6972112e9be4758fa/src/libcore/option.rs:346
  14:	f8bd 0008 	ldrh.w	r0, [sp, #8]
  18:	4601      	mov	r1, r0
  1a:	2800      	cmp	r0, #0
  1c:	d001      	beq.n	22 <_ZN4core6option15Option$LT$T$GT$6expect17hc4cab784399a1c6dE+0x22>
  1e:	e7ff      	b.n	20 <_ZN4core6option15Option$LT$T$GT$6expect17hc4cab784399a1c6dE+0x20>
  20:	e005      	b.n	2e <_ZN4core6option15Option$LT$T$GT$6expect17hc4cab784399a1c6dE+0x2e>
/rustc/412f43ac5b4ae8c3599e71c6972112e9be4758fa/src/libcore/option.rs:347
  22:	9803      	ldr	r0, [sp, #12]
  24:	9904      	ldr	r1, [sp, #16]
  26:	f7ff fffe 	bl	0 <_ZN4core6option13expect_failed17hf5665627dddd4106E>
  2a:	defe      	udf	#254	; 0xfe
/rustc/412f43ac5b4ae8c3599e71c6972112e9be4758fa/src/libcore/option.rs:345
  2c:	defe      	udf	#254	; 0xfe
/rustc/412f43ac5b4ae8c3599e71c6972112e9be4758fa/src/libcore/option.rs:346
  2e:	f8bd 000a 	ldrh.w	r0, [sp, #10]
  32:	f8ad 0016 	strh.w	r0, [sp, #22]
  36:	f8bd 0016 	ldrh.w	r0, [sp, #22]
/rustc/412f43ac5b4ae8c3599e71c6972112e9be4758fa/src/libcore/option.rs:349
  3a:	f8bd 1008 	ldrh.w	r1, [sp, #8]
  3e:	2901      	cmp	r1, #1
  40:	9001      	str	r0, [sp, #4]
  42:	d103      	bne.n	4c <_ZN4core6option15Option$LT$T$GT$6expect17hc4cab784399a1c6dE+0x4c>
  44:	e7ff      	b.n	46 <_ZN4core6option15Option$LT$T$GT$6expect17hc4cab784399a1c6dE+0x46>
  46:	9801      	ldr	r0, [sp, #4]
  48:	b006      	add	sp, #24
  4a:	bd80      	pop	{r7, pc}
  4c:	e7fb      	b.n	46 <_ZN4core6option15Option$LT$T$GT$6expect17hc4cab784399a1c6dE+0x46>

Disassembly of section .text._ZN4core6option15Option$LT$T$GT$6unwrap17hf4116ac60be8c113E:

00000000 <_ZN4core6option15Option$LT$T$GT$6unwrap17hf4116ac60be8c113E>:
_ZN4core6option15Option$LT$T$GT$6unwrap17hf4116ac60be8c113E():
/rustc/412f43ac5b4ae8c3599e71c6972112e9be4758fa/src/libcore/option.rs:377
   0:	b086      	sub	sp, #24
   2:	9003      	str	r0, [sp, #12]
/rustc/412f43ac5b4ae8c3599e71c6972112e9be4758fa/src/libcore/option.rs:379
   4:	9803      	ldr	r0, [sp, #12]
   6:	2800      	cmp	r0, #0
   8:	4601      	mov	r1, r0
   a:	bf18      	it	ne
   c:	2101      	movne	r1, #1
   e:	2800      	cmp	r0, #0
  10:	d001      	beq.n	16 <_ZN4core6option15Option$LT$T$GT$6unwrap17hf4116ac60be8c113E+0x16>
  12:	e7ff      	b.n	14 <_ZN4core6option15Option$LT$T$GT$6unwrap17hf4116ac60be8c113E+0x14>
  14:	e008      	b.n	28 <_ZN4core6option15Option$LT$T$GT$6unwrap17hf4116ac60be8c113E+0x28>
/rustc/412f43ac5b4ae8c3599e71c6972112e9be4758fa/src/libcore/macros/mod.rs:15
  16:	f240 0000 	movw	r0, #0
  1a:	f2c0 0000 	movt	r0, #0
  1e:	9005      	str	r0, [sp, #20]
  20:	9a05      	ldr	r2, [sp, #20]
  22:	9202      	str	r2, [sp, #8]
  24:	e008      	b.n	38 <_ZN4core6option15Option$LT$T$GT$6unwrap17hf4116ac60be8c113E+0x38>
/rustc/412f43ac5b4ae8c3599e71c6972112e9be4758fa/src/libcore/option.rs:378
  26:	defe      	udf	#254	; 0xfe
/rustc/412f43ac5b4ae8c3599e71c6972112e9be4758fa/src/libcore/option.rs:379
  28:	9803      	ldr	r0, [sp, #12]
  2a:	9004      	str	r0, [sp, #16]
  2c:	9804      	ldr	r0, [sp, #16]
/rustc/412f43ac5b4ae8c3599e71c6972112e9be4758fa/src/libcore/option.rs:382
  2e:	9903      	ldr	r1, [sp, #12]
  30:	2900      	cmp	r1, #0
  32:	9001      	str	r0, [sp, #4]
  34:	d109      	bne.n	4a <_ZN4core6option15Option$LT$T$GT$6unwrap17hf4116ac60be8c113E+0x4a>
  36:	e00b      	b.n	50 <_ZN4core6option15Option$LT$T$GT$6unwrap17hf4116ac60be8c113E+0x50>
/rustc/412f43ac5b4ae8c3599e71c6972112e9be4758fa/src/libcore/macros/mod.rs:15
  38:	f240 0000 	movw	r0, #0
  3c:	f2c0 0000 	movt	r0, #0
  40:	212b      	movs	r1, #43	; 0x2b
  42:	9a02      	ldr	r2, [sp, #8]
  44:	f7ff fffe 	bl	0 <_ZN4core9panicking5panic17hfdd0eecc44a682f8E>
  48:	defe      	udf	#254	; 0xfe
/rustc/412f43ac5b4ae8c3599e71c6972112e9be4758fa/src/libcore/option.rs:382
  4a:	9801      	ldr	r0, [sp, #4]
  4c:	b006      	add	sp, #24
  4e:	4770      	bx	lr
  50:	e7fb      	b.n	4a <_ZN4core6option15Option$LT$T$GT$6unwrap17hf4116ac60be8c113E+0x4a>

Disassembly of section .text._ZN4core6option15Option$LT$T$GT$7is_none17h0322cadb15e896fdE:

00000000 <_ZN4core6option15Option$LT$T$GT$7is_none17h0322cadb15e896fdE>:
_ZN4core6option15Option$LT$T$GT$7is_none17h0322cadb15e896fdE():
/rustc/412f43ac5b4ae8c3599e71c6972112e9be4758fa/src/libcore/option.rs:210
   0:	b580      	push	{r7, lr}
   2:	b082      	sub	sp, #8
   4:	9001      	str	r0, [sp, #4]
/rustc/412f43ac5b4ae8c3599e71c6972112e9be4758fa/src/libcore/option.rs:211
   6:	9801      	ldr	r0, [sp, #4]
   8:	f7ff fffe 	bl	0 <_ZN4core6option15Option$LT$T$GT$7is_none17h0322cadb15e896fdE>
   c:	9000      	str	r0, [sp, #0]
   e:	e7ff      	b.n	10 <_ZN4core6option15Option$LT$T$GT$7is_none17h0322cadb15e896fdE+0x10>
  10:	2001      	movs	r0, #1
/rustc/412f43ac5b4ae8c3599e71c6972112e9be4758fa/src/libcore/option.rs:212
  12:	9900      	ldr	r1, [sp, #0]
  14:	4388      	bics	r0, r1
  16:	b002      	add	sp, #8
  18:	bd80      	pop	{r7, pc}

Disassembly of section .text._ZN4core6option15Option$LT$T$GT$7is_some17h8b100881b59e2d05E:

00000000 <_ZN4core6option15Option$LT$T$GT$7is_some17h8b100881b59e2d05E>:
_ZN4core6option15Option$LT$T$GT$7is_some17h8b100881b59e2d05E():
/rustc/412f43ac5b4ae8c3599e71c6972112e9be4758fa/src/libcore/option.rs:186
   0:	b082      	sub	sp, #8
   2:	9000      	str	r0, [sp, #0]
/rustc/412f43ac5b4ae8c3599e71c6972112e9be4758fa/src/libcore/option.rs:188
   4:	9800      	ldr	r0, [sp, #0]
   6:	6800      	ldr	r0, [r0, #0]
   8:	2800      	cmp	r0, #0
   a:	d001      	beq.n	10 <_ZN4core6option15Option$LT$T$GT$7is_some17h8b100881b59e2d05E+0x10>
   c:	e7ff      	b.n	e <_ZN4core6option15Option$LT$T$GT$7is_some17h8b100881b59e2d05E+0xe>
   e:	e004      	b.n	1a <_ZN4core6option15Option$LT$T$GT$7is_some17h8b100881b59e2d05E+0x1a>
  10:	2000      	movs	r0, #0
/rustc/412f43ac5b4ae8c3599e71c6972112e9be4758fa/src/libcore/option.rs:189
  12:	f88d 0007 	strb.w	r0, [sp, #7]
/rustc/412f43ac5b4ae8c3599e71c6972112e9be4758fa/src/libcore/option.rs:187
  16:	e004      	b.n	22 <_ZN4core6option15Option$LT$T$GT$7is_some17h8b100881b59e2d05E+0x22>
  18:	defe      	udf	#254	; 0xfe
  1a:	2001      	movs	r0, #1
/rustc/412f43ac5b4ae8c3599e71c6972112e9be4758fa/src/libcore/option.rs:188
  1c:	f88d 0007 	strb.w	r0, [sp, #7]
/rustc/412f43ac5b4ae8c3599e71c6972112e9be4758fa/src/libcore/option.rs:187
  20:	e7ff      	b.n	22 <_ZN4core6option15Option$LT$T$GT$7is_some17h8b100881b59e2d05E+0x22>
/rustc/412f43ac5b4ae8c3599e71c6972112e9be4758fa/src/libcore/option.rs:191
  22:	f89d 0007 	ldrb.w	r0, [sp, #7]
  26:	b002      	add	sp, #8
  28:	4770      	bx	lr

Disassembly of section .text._ZN4core6option15Option$LT$T$GT$7is_some17hf12135d0d5d4ce47E:

00000000 <_ZN4core6option15Option$LT$T$GT$7is_some17hf12135d0d5d4ce47E>:
_ZN4core6option15Option$LT$T$GT$7is_some17hf12135d0d5d4ce47E():
/rustc/412f43ac5b4ae8c3599e71c6972112e9be4758fa/src/libcore/option.rs:186
   0:	b082      	sub	sp, #8
   2:	9000      	str	r0, [sp, #0]
/rustc/412f43ac5b4ae8c3599e71c6972112e9be4758fa/src/libcore/option.rs:188
   4:	9800      	ldr	r0, [sp, #0]
   6:	8800      	ldrh	r0, [r0, #0]
   8:	4601      	mov	r1, r0
   a:	2800      	cmp	r0, #0
   c:	d001      	beq.n	12 <_ZN4core6option15Option$LT$T$GT$7is_some17hf12135d0d5d4ce47E+0x12>
   e:	e7ff      	b.n	10 <_ZN4core6option15Option$LT$T$GT$7is_some17hf12135d0d5d4ce47E+0x10>
  10:	e004      	b.n	1c <_ZN4core6option15Option$LT$T$GT$7is_some17hf12135d0d5d4ce47E+0x1c>
  12:	2000      	movs	r0, #0
/rustc/412f43ac5b4ae8c3599e71c6972112e9be4758fa/src/libcore/option.rs:189
  14:	f88d 0007 	strb.w	r0, [sp, #7]
/rustc/412f43ac5b4ae8c3599e71c6972112e9be4758fa/src/libcore/option.rs:187
  18:	e004      	b.n	24 <_ZN4core6option15Option$LT$T$GT$7is_some17hf12135d0d5d4ce47E+0x24>
  1a:	defe      	udf	#254	; 0xfe
  1c:	2001      	movs	r0, #1
/rustc/412f43ac5b4ae8c3599e71c6972112e9be4758fa/src/libcore/option.rs:188
  1e:	f88d 0007 	strb.w	r0, [sp, #7]
/rustc/412f43ac5b4ae8c3599e71c6972112e9be4758fa/src/libcore/option.rs:187
  22:	e7ff      	b.n	24 <_ZN4core6option15Option$LT$T$GT$7is_some17hf12135d0d5d4ce47E+0x24>
/rustc/412f43ac5b4ae8c3599e71c6972112e9be4758fa/src/libcore/option.rs:191
  24:	f89d 0007 	ldrb.w	r0, [sp, #7]
  28:	b002      	add	sp, #8
  2a:	4770      	bx	lr

app-d559bf047a1af437.4b8mkushajg6uew4.rcgu.o:     file format elf32-littlearm

SYMBOL TABLE:
00000000 l    df *ABS*	00000000 4b8mkushajg6uew4
000019f4 l       .debug_str	00000000 
0000240e l       .debug_str	00000000 
00002411 l       .debug_str	00000000 
00002414 l       .debug_str	00000000 
00002417 l       .debug_str	00000000 
0000241b l       .debug_str	00000000 
00002422 l       .debug_str	00000000 
00002427 l       .debug_str	00000000 
0000242c l       .debug_str	00000000 
00002588 l       .debug_str	00000000 
0000258f l       .debug_str	00000000 
00002593 l       .debug_str	00000000 
00000000 l       .debug_str	00000000 
00000041 l       .debug_str	00000000 
00000055 l       .debug_str	00000000 
00000080 l       .debug_str	00000000 
00000085 l       .debug_str	00000000 
0000008c l       .debug_str	00000000 
0000008f l       .debug_str	00000000 
00000092 l       .debug_str	00000000 
00000096 l       .debug_str	00000000 
0000009d l       .debug_str	00000000 
000000a8 l       .debug_str	00000000 
000000ac l       .debug_str	00000000 
000000b3 l       .debug_str	00000000 
000000b7 l       .debug_str	00000000 
000000bf l       .debug_str	00000000 
000000c3 l       .debug_str	00000000 
000000ca l       .debug_str	00000000 
000000ce l       .debug_str	00000000 
000000d1 l       .debug_str	00000000 
000000d5 l       .debug_str	00000000 
000000da l       .debug_str	00000000 
000000de l       .debug_str	00000000 
000000e2 l       .debug_str	00000000 
000000e7 l       .debug_str	00000000 
000000f0 l       .debug_str	00000000 
000000f3 l       .debug_str	00000000 
000000f7 l       .debug_str	00000000 
000000fa l       .debug_str	00000000 
000000fd l       .debug_str	00000000 
00000101 l       .debug_str	00000000 
00000140 l       .debug_str	00000000 
00000149 l       .debug_str	00000000 
0000014d l       .debug_str	00000000 
00000151 l       .debug_str	00000000 
00000153 l       .debug_str	00000000 
0000015a l       .debug_str	00000000 
0000015e l       .debug_str	00000000 
0000016b l       .debug_str	00000000 
00000172 l       .debug_str	00000000 
00000175 l       .debug_str	00000000 
0000017b l       .debug_str	00000000 
00000189 l       .debug_str	00000000 
00000197 l       .debug_str	00000000 
0000019c l       .debug_str	00000000 
000001a4 l       .debug_str	00000000 
000001ac l       .debug_str	00000000 
000001ae l       .debug_str	00000000 
000001b0 l       .debug_str	00000000 
000001cd l       .debug_str	00000000 
00000213 l       .debug_str	00000000 
0000021b l       .debug_str	00000000 
00000222 l       .debug_str	00000000 
00000233 l       .debug_str	00000000 
000002a3 l       .debug_str	00000000 
0000033d l       .debug_str	00000000 
00000400 l       .debug_str	00000000 
000004ed l       .debug_str	00000000 
00000604 l       .debug_str	00000000 
00000745 l       .debug_str	00000000 
0000074d l       .debug_str	00000000 
00000752 l       .debug_str	00000000 
00000758 l       .debug_str	00000000 
0000075c l       .debug_str	00000000 
00000760 l       .debug_str	00000000 
00000763 l       .debug_str	00000000 
0000078c l       .debug_str	00000000 
000007c2 l       .debug_str	00000000 
000007c4 l       .debug_str	00000000 
000007f1 l       .debug_str	00000000 
00000841 l       .debug_str	00000000 
0000089e l       .debug_str	00000000 
000008f2 l       .debug_str	00000000 
000008f5 l       .debug_str	00000000 
0000096c l       .debug_str	00000000 
000009f0 l       .debug_str	00000000 
00000a6b l       .debug_str	00000000 
00000b09 l       .debug_str	00000000 
00000bb4 l       .debug_str	00000000 
00000c56 l       .debug_str	00000000 
00000d1b l       .debug_str	00000000 
00000ded l       .debug_str	00000000 
00000eb6 l       .debug_str	00000000 
00000fa2 l       .debug_str	00000000 
0000109b l       .debug_str	00000000 
0000118b l       .debug_str	00000000 
0000129e l       .debug_str	00000000 
000013be l       .debug_str	00000000 
000014d5 l       .debug_str	00000000 
0000160f l       .debug_str	00000000 
00001756 l       .debug_str	00000000 
00001894 l       .debug_str	00000000 
00001b71 l       .debug_str	00000000 
00001ced l       .debug_str	00000000 
00001cf1 l       .debug_str	00000000 
00001cf7 l       .debug_str	00000000 
00001cf9 l       .debug_str	00000000 
00001e6d l       .debug_str	00000000 
00001e6f l       .debug_str	00000000 
00001fc6 l       .debug_str	00000000 
00001fc8 l       .debug_str	00000000 
00002016 l       .debug_str	00000000 
000021bd l       .debug_str	00000000 
0000220d l       .debug_str	00000000 
000023b6 l       .debug_str	00000000 
000023bb l       .debug_str	00000000 
0000240b l       .debug_str	00000000 
00000000 l     O .rodata..Lanon.1bc0f42af5c8191f7ae5c06ac95abb23.0	0000000e .Lanon.1bc0f42af5c8191f7ae5c06ac95abb23.0
00000000 l    d  .text._ZN10st7735_lcd28ST7735$LT$SPI$C$DC$C$RST$GT$10set_pixels17he81da339547c4f09E	00000000 .text._ZN10st7735_lcd28ST7735$LT$SPI$C$DC$C$RST$GT$10set_pixels17he81da339547c4f09E
00000000 l    d  .text._ZN10st7735_lcd28ST7735$LT$SPI$C$DC$C$RST$GT$12write_pixels17hdd3cfb73d0ac8fc8E	00000000 .text._ZN10st7735_lcd28ST7735$LT$SPI$C$DC$C$RST$GT$12write_pixels17hdd3cfb73d0ac8fc8E
00000000 l    d  .debug_loc	00000000 .debug_loc
00000000 l    d  .debug_abbrev	00000000 .debug_abbrev
00000000 l    d  .debug_info	00000000 .debug_info
00000000 l    d  .debug_ranges	00000000 .debug_ranges
00000000 l    d  .debug_frame	00000000 .debug_frame
00000000 l    d  .debug_line	00000000 .debug_line
00000000 g     F .text._ZN10st7735_lcd28ST7735$LT$SPI$C$DC$C$RST$GT$10set_pixels17he81da339547c4f09E	0000012a _ZN10st7735_lcd28ST7735$LT$SPI$C$DC$C$RST$GT$10set_pixels17he81da339547c4f09E
00000000         *UND*	00000000 _ZN10st7735_lcd28ST7735$LT$SPI$C$DC$C$RST$GT$10write_word17hc9086d6cc65fbb73E
00000000 g     F .text._ZN10st7735_lcd28ST7735$LT$SPI$C$DC$C$RST$GT$12write_pixels17hdd3cfb73d0ac8fc8E	0000016a _ZN10st7735_lcd28ST7735$LT$SPI$C$DC$C$RST$GT$12write_pixels17hdd3cfb73d0ac8fc8E
00000000         *UND*	00000000 _ZN10st7735_lcd28ST7735$LT$SPI$C$DC$C$RST$GT$13write_command17h66a7aa58f1a6d8c3E
00000000         *UND*	00000000 _ZN10st7735_lcd28ST7735$LT$SPI$C$DC$C$RST$GT$18set_address_window17hd521319206d08504E
00000000         *UND*	00000000 _ZN4core3ptr18real_drop_in_place17h2f655eb49b4d6986E
00000000         *UND*	00000000 _ZN4core3ptr18real_drop_in_place17h9259b92b14450ecbE
00000000         *UND*	00000000 _ZN4core6result19Result$LT$T$C$E$GT$6expect17h47753e0abfe075d6E
00000000         *UND*	00000000 _ZN50_$LT$T$u20$as$u20$core..convert..From$LT$T$GT$$GT$4from17h3246e97bcee02cfcE
00000000         *UND*	00000000 _ZN6mynewt3spi23spi_noblock_write_flush17h975ce0af18b88cc6E
00000000         *UND*	00000000 _ZN73_$LT$core..result..Result$LT$T$C$E$GT$$u20$as$u20$core..ops..try..Try$GT$10from_error17h77bc71430dc08530E
00000000         *UND*	00000000 _ZN73_$LT$core..result..Result$LT$T$C$E$GT$$u20$as$u20$core..ops..try..Try$GT$11into_result17h190a109881ebe95dE
00000000         *UND*	00000000 _ZN93_$LT$heapless..vec..Vec$LT$T$C$N$GT$$u20$as$u20$core..iter..traits..collect..IntoIterator$GT$9into_iter17h594546a696844f02E
00000000         *UND*	00000000 _ZN95_$LT$heapless..vec..IntoIter$LT$T$C$N$GT$$u20$as$u20$core..iter..traits..iterator..Iterator$GT$4next17hc222d745b483a5c5E
00000000         *UND*	00000000 __aeabi_memcpy4



Disassembly of section .text._ZN10st7735_lcd28ST7735$LT$SPI$C$DC$C$RST$GT$10set_pixels17he81da339547c4f09E:

00000000 <_ZN10st7735_lcd28ST7735$LT$SPI$C$DC$C$RST$GT$10set_pixels17he81da339547c4f09E>:
_ZN10st7735_lcd28ST7735$LT$SPI$C$DC$C$RST$GT$10set_pixels17he81da339547c4f09E():
/Users/Luppy/PineTime/pinetime-rust-mynewt/rust/st7735-lcd-batch-rs/src/lib.rs:233
            .expect("spi flush fail");
        Ok(())
    }

    /// Sets pixel colors at the given drawing window
    pub fn set_pixels<P: IntoIterator<Item = u16>>(&mut self, sx: u16, sy: u16, ex: u16, ey: u16, colors: P) -> Result <(), ()> {
   0:	b5f0      	push	{r4, r5, r6, r7, lr}
   2:	b0f7      	sub	sp, #476	; 0x1dc
   4:	f8dd c1f4 	ldr.w	ip, [sp, #500]	; 0x1f4
   8:	f8dd e1f0 	ldr.w	lr, [sp, #496]	; 0x1f0
   c:	461c      	mov	r4, r3
   e:	4615      	mov	r5, r2
  10:	460e      	mov	r6, r1
  12:	900a      	str	r0, [sp, #40]	; 0x28
  14:	f8ad 102e 	strh.w	r1, [sp, #46]	; 0x2e
  18:	f8ad 2030 	strh.w	r2, [sp, #48]	; 0x30
  1c:	f8ad 3032 	strh.w	r3, [sp, #50]	; 0x32
  20:	f8ad e034 	strh.w	lr, [sp, #52]	; 0x34
  24:	2000      	movs	r0, #0
/Users/Luppy/PineTime/pinetime-rust-mynewt/rust/st7735-lcd-batch-rs/src/lib.rs:234
        self.set_address_window(sx, sy, ex, ey)?;
  26:	f88d 01db 	strb.w	r0, [sp, #475]	; 0x1db
  2a:	2001      	movs	r0, #1
  2c:	f88d 01db 	strb.w	r0, [sp, #475]	; 0x1db
  30:	980a      	ldr	r0, [sp, #40]	; 0x28
  32:	f8bd 3032 	ldrh.w	r3, [sp, #50]	; 0x32
  36:	f8bd 2030 	ldrh.w	r2, [sp, #48]	; 0x30
  3a:	f8bd 102e 	ldrh.w	r1, [sp, #46]	; 0x2e
  3e:	f8bd e034 	ldrh.w	lr, [sp, #52]	; 0x34
  42:	466f      	mov	r7, sp
  44:	f8c7 e000 	str.w	lr, [r7]
  48:	f8cd c024 	str.w	ip, [sp, #36]	; 0x24
  4c:	9408      	str	r4, [sp, #32]
  4e:	9507      	str	r5, [sp, #28]
  50:	9606      	str	r6, [sp, #24]
  52:	f7ff fffe 	bl	0 <_ZN10st7735_lcd28ST7735$LT$SPI$C$DC$C$RST$GT$18set_address_window17hd521319206d08504E>
  56:	9005      	str	r0, [sp, #20]
  58:	e7ff      	b.n	5a <_ZN10st7735_lcd28ST7735$LT$SPI$C$DC$C$RST$GT$10set_pixels17he81da339547c4f09E+0x5a>
  5a:	9805      	ldr	r0, [sp, #20]
  5c:	f000 0001 	and.w	r0, r0, #1
  60:	f7ff fffe 	bl	0 <_ZN73_$LT$core..result..Result$LT$T$C$E$GT$$u20$as$u20$core..ops..try..Try$GT$11into_result17h190a109881ebe95dE>
  64:	f88d 0037 	strb.w	r0, [sp, #55]	; 0x37
  68:	e7ff      	b.n	6a <_ZN10st7735_lcd28ST7735$LT$SPI$C$DC$C$RST$GT$10set_pixels17he81da339547c4f09E+0x6a>
  6a:	f89d 0037 	ldrb.w	r0, [sp, #55]	; 0x37
  6e:	07c1      	lsls	r1, r0, #31
  70:	2900      	cmp	r1, #0
  72:	d00f      	beq.n	94 <_ZN10st7735_lcd28ST7735$LT$SPI$C$DC$C$RST$GT$10set_pixels17he81da339547c4f09E+0x94>
  74:	e7ff      	b.n	76 <_ZN10st7735_lcd28ST7735$LT$SPI$C$DC$C$RST$GT$10set_pixels17he81da339547c4f09E+0x76>
  76:	e000      	b.n	7a <_ZN10st7735_lcd28ST7735$LT$SPI$C$DC$C$RST$GT$10set_pixels17he81da339547c4f09E+0x7a>
  78:	defe      	udf	#254	; 0xfe
  7a:	f7ff fffe 	bl	0 <_ZN50_$LT$T$u20$as$u20$core..convert..From$LT$T$GT$$GT$4from17h3246e97bcee02cfcE>
  7e:	e003      	b.n	88 <_ZN10st7735_lcd28ST7735$LT$SPI$C$DC$C$RST$GT$10set_pixels17he81da339547c4f09E+0x88>
/Users/Luppy/PineTime/pinetime-rust-mynewt/rust/st7735-lcd-batch-rs/src/lib.rs:241

        #[cfg(feature = "noblock_spi")]         //  If non-blocking SPI is enabled...
        mynewt::spi::spi_noblock_write_flush()  //  Enqueue the pending SPI request
            .expect("spi flush fail");
        Ok(())
    }
  80:	f89d 0036 	ldrb.w	r0, [sp, #54]	; 0x36
  84:	b077      	add	sp, #476	; 0x1dc
  86:	bdf0      	pop	{r4, r5, r6, r7, pc}
/Users/Luppy/PineTime/pinetime-rust-mynewt/rust/st7735-lcd-batch-rs/src/lib.rs:234
        self.set_address_window(sx, sy, ex, ey)?;
  88:	f7ff fffe 	bl	0 <_ZN73_$LT$core..result..Result$LT$T$C$E$GT$$u20$as$u20$core..ops..try..Try$GT$10from_error17h77bc71430dc08530E>
  8c:	f88d 0036 	strb.w	r0, [sp, #54]	; 0x36
  90:	e7ff      	b.n	92 <_ZN10st7735_lcd28ST7735$LT$SPI$C$DC$C$RST$GT$10set_pixels17he81da339547c4f09E+0x92>
  92:	e044      	b.n	11e <_ZN10st7735_lcd28ST7735$LT$SPI$C$DC$C$RST$GT$10set_pixels17he81da339547c4f09E+0x11e>
/Users/Luppy/PineTime/pinetime-rust-mynewt/rust/st7735-lcd-batch-rs/src/lib.rs:235
        self.write_pixels(colors) ? ;
  94:	980a      	ldr	r0, [sp, #40]	; 0x28
  96:	2100      	movs	r1, #0
  98:	f88d 11db 	strb.w	r1, [sp, #475]	; 0x1db
  9c:	a910      	add	r1, sp, #64	; 0x40
  9e:	f44f 72ca 	mov.w	r2, #404	; 0x194
  a2:	9004      	str	r0, [sp, #16]
  a4:	4608      	mov	r0, r1
  a6:	9b09      	ldr	r3, [sp, #36]	; 0x24
  a8:	9103      	str	r1, [sp, #12]
  aa:	4619      	mov	r1, r3
  ac:	f7ff fffe 	bl	0 <__aeabi_memcpy4>
  b0:	9804      	ldr	r0, [sp, #16]
  b2:	9903      	ldr	r1, [sp, #12]
  b4:	f7ff fffe 	bl	0 <_ZN10st7735_lcd28ST7735$LT$SPI$C$DC$C$RST$GT$10set_pixels17he81da339547c4f09E>
  b8:	9002      	str	r0, [sp, #8]
  ba:	e7ff      	b.n	bc <_ZN10st7735_lcd28ST7735$LT$SPI$C$DC$C$RST$GT$10set_pixels17he81da339547c4f09E+0xbc>
  bc:	9802      	ldr	r0, [sp, #8]
  be:	f000 0001 	and.w	r0, r0, #1
  c2:	f7ff fffe 	bl	0 <_ZN73_$LT$core..result..Result$LT$T$C$E$GT$$u20$as$u20$core..ops..try..Try$GT$11into_result17h190a109881ebe95dE>
  c6:	f88d 003f 	strb.w	r0, [sp, #63]	; 0x3f
  ca:	e7ff      	b.n	cc <_ZN10st7735_lcd28ST7735$LT$SPI$C$DC$C$RST$GT$10set_pixels17he81da339547c4f09E+0xcc>
  cc:	f89d 003f 	ldrb.w	r0, [sp, #63]	; 0x3f
  d0:	07c1      	lsls	r1, r0, #31
  d2:	2900      	cmp	r1, #0
  d4:	d00b      	beq.n	ee <_ZN10st7735_lcd28ST7735$LT$SPI$C$DC$C$RST$GT$10set_pixels17he81da339547c4f09E+0xee>
  d6:	e7ff      	b.n	d8 <_ZN10st7735_lcd28ST7735$LT$SPI$C$DC$C$RST$GT$10set_pixels17he81da339547c4f09E+0xd8>
  d8:	e000      	b.n	dc <_ZN10st7735_lcd28ST7735$LT$SPI$C$DC$C$RST$GT$10set_pixels17he81da339547c4f09E+0xdc>
  da:	defe      	udf	#254	; 0xfe
  dc:	f7ff fffe 	bl	0 <_ZN50_$LT$T$u20$as$u20$core..convert..From$LT$T$GT$$GT$4from17h3246e97bcee02cfcE>
  e0:	e7ff      	b.n	2 <_ZN73_$LT$core..result..Result$LT$T$C$E$GT$$u20$as$u20$core..ops..try..Try$GT$10from_error17h77bc71430dc08530E+0x2>
  e2:	f7ff fffe 	bl	0 <_ZN73_$LT$core..result..Result$LT$T$C$E$GT$$u20$as$u20$core..ops..try..Try$GT$10from_error17h77bc71430dc08530E>
  e6:	f88d 0036 	strb.w	r0, [sp, #54]	; 0x36
  ea:	e7ff      	b.n	ec <_ZN10st7735_lcd28ST7735$LT$SPI$C$DC$C$RST$GT$10set_pixels17he81da339547c4f09E+0xec>
  ec:	e017      	b.n	11e <_ZN10st7735_lcd28ST7735$LT$SPI$C$DC$C$RST$GT$10set_pixels17he81da339547c4f09E+0x11e>
/Users/Luppy/PineTime/pinetime-rust-mynewt/rust/st7735-lcd-batch-rs/src/lib.rs:238
        mynewt::spi::spi_noblock_write_flush()  //  Enqueue the pending SPI request
  ee:	f7ff fffe 	bl	0 <_ZN6mynewt3spi23spi_noblock_write_flush17h975ce0af18b88cc6E>
  f2:	9001      	str	r0, [sp, #4]
  f4:	e7ff      	b.n	f6 <_ZN10st7735_lcd28ST7735$LT$SPI$C$DC$C$RST$GT$10set_pixels17he81da339547c4f09E+0xf6>
  f6:	f240 0100 	movw	r1, #0
  fa:	f2c0 0100 	movt	r1, #0
  fe:	220e      	movs	r2, #14
 100:	9801      	ldr	r0, [sp, #4]
 102:	f7ff fffe 	bl	0 <_ZN4core6result19Result$LT$T$C$E$GT$6expect17h47753e0abfe075d6E>
 106:	e7ff      	b.n	108 <_ZN10st7735_lcd28ST7735$LT$SPI$C$DC$C$RST$GT$10set_pixels17he81da339547c4f09E+0x108>
 108:	2000      	movs	r0, #0
/Users/Luppy/PineTime/pinetime-rust-mynewt/rust/st7735-lcd-batch-rs/src/lib.rs:240
        Ok(())
 10a:	f88d 0036 	strb.w	r0, [sp, #54]	; 0x36
/Users/Luppy/PineTime/pinetime-rust-mynewt/rust/st7735-lcd-batch-rs/src/lib.rs:241
    }
 10e:	e7b7      	b.n	80 <_ZN10st7735_lcd28ST7735$LT$SPI$C$DC$C$RST$GT$10set_pixels17he81da339547c4f09E+0x80>
 110:	2000      	movs	r0, #0
 112:	f88d 01db 	strb.w	r0, [sp, #475]	; 0x1db
 116:	9809      	ldr	r0, [sp, #36]	; 0x24
 118:	f7ff fffe 	bl	0 <_ZN4core3ptr18real_drop_in_place17h9259b92b14450ecbE>
 11c:	e7b0      	b.n	80 <_ZN10st7735_lcd28ST7735$LT$SPI$C$DC$C$RST$GT$10set_pixels17he81da339547c4f09E+0x80>
 11e:	f89d 01db 	ldrb.w	r0, [sp, #475]	; 0x1db
 122:	07c0      	lsls	r0, r0, #31
 124:	2800      	cmp	r0, #0
 126:	d1f3      	bne.n	110 <_ZN10st7735_lcd28ST7735$LT$SPI$C$DC$C$RST$GT$10set_pixels17he81da339547c4f09E+0x110>
 128:	e7aa      	b.n	80 <_ZN10st7735_lcd28ST7735$LT$SPI$C$DC$C$RST$GT$10set_pixels17he81da339547c4f09E+0x80>

Disassembly of section .text._ZN10st7735_lcd28ST7735$LT$SPI$C$DC$C$RST$GT$12write_pixels17hdd3cfb73d0ac8fc8E:

00000000 <_ZN10st7735_lcd28ST7735$LT$SPI$C$DC$C$RST$GT$12write_pixels17hdd3cfb73d0ac8fc8E>:
_ZN10st7735_lcd28ST7735$LT$SPI$C$DC$C$RST$GT$12write_pixels17hdd3cfb73d0ac8fc8E():
/Users/Luppy/PineTime/pinetime-rust-mynewt/rust/st7735-lcd-batch-rs/src/lib.rs:220
    pub fn write_pixels<P: IntoIterator<Item = u16>>(&mut self, colors: P) -> Result <(), ()> {
   0:	b580      	push	{r7, lr}
   2:	f5ad 6da2 	sub.w	sp, sp, #1296	; 0x510
   6:	9007      	str	r0, [sp, #28]
   8:	2000      	movs	r0, #0
/Users/Luppy/PineTime/pinetime-rust-mynewt/rust/st7735-lcd-batch-rs/src/lib.rs:221
        self.write_command(Instruction::RAMWR, None)?;
   a:	f88d 050f 	strb.w	r0, [sp, #1295]	; 0x50f
   e:	2201      	movs	r2, #1
  10:	f88d 250f 	strb.w	r2, [sp, #1295]	; 0x50f
  14:	9a07      	ldr	r2, [sp, #28]
  16:	232c      	movs	r3, #44	; 0x2c
  18:	f88d 3023 	strb.w	r3, [sp, #35]	; 0x23
  1c:	900a      	str	r0, [sp, #40]	; 0x28
  1e:	9009      	str	r0, [sp, #36]	; 0x24
  20:	9009      	str	r0, [sp, #36]	; 0x24
  22:	9809      	ldr	r0, [sp, #36]	; 0x24
  24:	9b0a      	ldr	r3, [sp, #40]	; 0x28
  26:	f89d c023 	ldrb.w	ip, [sp, #35]	; 0x23
  2a:	9006      	str	r0, [sp, #24]
  2c:	4610      	mov	r0, r2
  2e:	9105      	str	r1, [sp, #20]
  30:	4661      	mov	r1, ip
  32:	9a06      	ldr	r2, [sp, #24]
  34:	f7ff fffe 	bl	0 <_ZN10st7735_lcd28ST7735$LT$SPI$C$DC$C$RST$GT$13write_command17h66a7aa58f1a6d8c3E>
  38:	9004      	str	r0, [sp, #16]
  3a:	e7ff      	b.n	3c <_ZN10st7735_lcd28ST7735$LT$SPI$C$DC$C$RST$GT$12write_pixels17hdd3cfb73d0ac8fc8E+0x3c>
  3c:	9804      	ldr	r0, [sp, #16]
  3e:	f000 0001 	and.w	r0, r0, #1
  42:	f7ff fffe 	bl	0 <_ZN73_$LT$core..result..Result$LT$T$C$E$GT$$u20$as$u20$core..ops..try..Try$GT$11into_result17h190a109881ebe95dE>
  46:	f88d 0022 	strb.w	r0, [sp, #34]	; 0x22
  4a:	e7ff      	b.n	4c <_ZN10st7735_lcd28ST7735$LT$SPI$C$DC$C$RST$GT$12write_pixels17hdd3cfb73d0ac8fc8E+0x4c>
  4c:	f89d 0022 	ldrb.w	r0, [sp, #34]	; 0x22
  50:	07c1      	lsls	r1, r0, #31
  52:	2900      	cmp	r1, #0
  54:	d010      	beq.n	78 <_ZN10st7735_lcd28ST7735$LT$SPI$C$DC$C$RST$GT$12write_pixels17hdd3cfb73d0ac8fc8E+0x78>
  56:	e7ff      	b.n	58 <_ZN10st7735_lcd28ST7735$LT$SPI$C$DC$C$RST$GT$12write_pixels17hdd3cfb73d0ac8fc8E+0x58>
  58:	e000      	b.n	5c <_ZN10st7735_lcd28ST7735$LT$SPI$C$DC$C$RST$GT$12write_pixels17hdd3cfb73d0ac8fc8E+0x5c>
  5a:	defe      	udf	#254	; 0xfe
  5c:	f7ff fffe 	bl	0 <_ZN50_$LT$T$u20$as$u20$core..convert..From$LT$T$GT$$GT$4from17h3246e97bcee02cfcE>
  60:	e004      	b.n	6c <_ZN10st7735_lcd28ST7735$LT$SPI$C$DC$C$RST$GT$12write_pixels17hdd3cfb73d0ac8fc8E+0x6c>
/Users/Luppy/PineTime/pinetime-rust-mynewt/rust/st7735-lcd-batch-rs/src/lib.rs:230
    }
  62:	f89d 0021 	ldrb.w	r0, [sp, #33]	; 0x21
  66:	f50d 6da2 	add.w	sp, sp, #1296	; 0x510
  6a:	bd80      	pop	{r7, pc}
/Users/Luppy/PineTime/pinetime-rust-mynewt/rust/st7735-lcd-batch-rs/src/lib.rs:221
        self.write_command(Instruction::RAMWR, None)?;
  6c:	f7ff fffe 	bl	0 <_ZN73_$LT$core..result..Result$LT$T$C$E$GT$$u20$as$u20$core..ops..try..Try$GT$10from_error17h77bc71430dc08530E>
  70:	f88d 0021 	strb.w	r0, [sp, #33]	; 0x21
  74:	e7ff      	b.n	76 <_ZN10st7735_lcd28ST7735$LT$SPI$C$DC$C$RST$GT$12write_pixels17hdd3cfb73d0ac8fc8E+0x76>
  76:	e072      	b.n	15e <_ZN10st7735_lcd28ST7735$LT$SPI$C$DC$C$RST$GT$12write_pixels17hdd3cfb73d0ac8fc8E+0x15e>
  78:	2000      	movs	r0, #0
/Users/Luppy/PineTime/pinetime-rust-mynewt/rust/st7735-lcd-batch-rs/src/lib.rs:222
        for color in colors {
  7a:	f88d 050f 	strb.w	r0, [sp, #1295]	; 0x50f
  7e:	a873      	add	r0, sp, #460	; 0x1cc
  80:	f44f 72ca 	mov.w	r2, #404	; 0x194
  84:	9003      	str	r0, [sp, #12]
  86:	9905      	ldr	r1, [sp, #20]
  88:	f7ff fffe 	bl	0 <__aeabi_memcpy4>
  8c:	a80d      	add	r0, sp, #52	; 0x34
  8e:	9903      	ldr	r1, [sp, #12]
  90:	f7ff fffe 	bl	0 <_ZN93_$LT$heapless..vec..Vec$LT$T$C$N$GT$$u20$as$u20$core..iter..traits..collect..IntoIterator$GT$9into_iter17h594546a696844f02E>
  94:	e7ff      	b.n	96 <_ZN10st7735_lcd28ST7735$LT$SPI$C$DC$C$RST$GT$12write_pixels17hdd3cfb73d0ac8fc8E+0x96>
  96:	a8d8      	add	r0, sp, #864	; 0x360
  98:	a90d      	add	r1, sp, #52	; 0x34
  9a:	f44f 72cc 	mov.w	r2, #408	; 0x198
  9e:	f7ff fffe 	bl	0 <__aeabi_memcpy4>
  a2:	e7ff      	b.n	a4 <_ZN10st7735_lcd28ST7735$LT$SPI$C$DC$C$RST$GT$12write_pixels17hdd3cfb73d0ac8fc8E+0xa4>
  a4:	a8d8      	add	r0, sp, #864	; 0x360
  a6:	f7ff fffe 	bl	0 <_ZN95_$LT$heapless..vec..IntoIter$LT$T$C$N$GT$$u20$as$u20$core..iter..traits..iterator..Iterator$GT$4next17hc222d745b483a5c5E>
  aa:	f8ad 14fe 	strh.w	r1, [sp, #1278]	; 0x4fe
  ae:	f8ad 04fc 	strh.w	r0, [sp, #1276]	; 0x4fc
  b2:	e7ff      	b.n	b4 <_ZN10st7735_lcd28ST7735$LT$SPI$C$DC$C$RST$GT$12write_pixels17hdd3cfb73d0ac8fc8E+0xb4>
  b4:	f8bd 04fc 	ldrh.w	r0, [sp, #1276]	; 0x4fc
  b8:	4601      	mov	r1, r0
  ba:	2800      	cmp	r0, #0
  bc:	d001      	beq.n	c2 <_ZN10st7735_lcd28ST7735$LT$SPI$C$DC$C$RST$GT$12write_pixels17hdd3cfb73d0ac8fc8E+0xc2>
  be:	e7ff      	b.n	c0 <_ZN10st7735_lcd28ST7735$LT$SPI$C$DC$C$RST$GT$12write_pixels17hdd3cfb73d0ac8fc8E+0xc0>
  c0:	e004      	b.n	cc <_ZN10st7735_lcd28ST7735$LT$SPI$C$DC$C$RST$GT$12write_pixels17hdd3cfb73d0ac8fc8E+0xcc>
  c2:	a8d8      	add	r0, sp, #864	; 0x360
/Users/Luppy/PineTime/pinetime-rust-mynewt/rust/st7735-lcd-batch-rs/src/lib.rs:224
        }
  c4:	f7ff fffe 	bl	0 <_ZN4core3ptr18real_drop_in_place17h2f655eb49b4d6986E>
  c8:	e031      	b.n	12e <_ZN10st7735_lcd28ST7735$LT$SPI$C$DC$C$RST$GT$12write_pixels17hdd3cfb73d0ac8fc8E+0x12e>
/Users/Luppy/PineTime/pinetime-rust-mynewt/rust/st7735-lcd-batch-rs/src/lib.rs:222
        for color in colors {
  ca:	defe      	udf	#254	; 0xfe
  cc:	f8bd 04fe 	ldrh.w	r0, [sp, #1278]	; 0x4fe
  d0:	f8ad 0502 	strh.w	r0, [sp, #1282]	; 0x502
  d4:	f8bd 0502 	ldrh.w	r0, [sp, #1282]	; 0x502
  d8:	f8ad 04fa 	strh.w	r0, [sp, #1274]	; 0x4fa
  dc:	f8bd 04fa 	ldrh.w	r0, [sp, #1274]	; 0x4fa
  e0:	f8ad 0504 	strh.w	r0, [sp, #1284]	; 0x504
/Users/Luppy/PineTime/pinetime-rust-mynewt/rust/st7735-lcd-batch-rs/src/lib.rs:223
            self.write_word(color)?;
  e4:	9807      	ldr	r0, [sp, #28]
  e6:	f8bd 1504 	ldrh.w	r1, [sp, #1284]	; 0x504
  ea:	f7ff fffe 	bl	0 <_ZN10st7735_lcd28ST7735$LT$SPI$C$DC$C$RST$GT$10write_word17hc9086d6cc65fbb73E>
  ee:	9002      	str	r0, [sp, #8]
  f0:	e7ff      	b.n	f2 <_ZN10st7735_lcd28ST7735$LT$SPI$C$DC$C$RST$GT$12write_pixels17hdd3cfb73d0ac8fc8E+0xf2>
  f2:	9802      	ldr	r0, [sp, #8]
  f4:	f000 0001 	and.w	r0, r0, #1
  f8:	f7ff fffe 	bl	0 <_ZN73_$LT$core..result..Result$LT$T$C$E$GT$$u20$as$u20$core..ops..try..Try$GT$11into_result17h190a109881ebe95dE>
  fc:	f88d 0507 	strb.w	r0, [sp, #1287]	; 0x507
 100:	e7ff      	b.n	102 <_ZN10st7735_lcd28ST7735$LT$SPI$C$DC$C$RST$GT$12write_pixels17hdd3cfb73d0ac8fc8E+0x102>
 102:	f89d 0507 	ldrb.w	r0, [sp, #1287]	; 0x507
 106:	07c1      	lsls	r1, r0, #31
 108:	2900      	cmp	r1, #0
 10a:	d00f      	beq.n	12c <_ZN10st7735_lcd28ST7735$LT$SPI$C$DC$C$RST$GT$12write_pixels17hdd3cfb73d0ac8fc8E+0x12c>
 10c:	e7ff      	b.n	10e <_ZN10st7735_lcd28ST7735$LT$SPI$C$DC$C$RST$GT$12write_pixels17hdd3cfb73d0ac8fc8E+0x10e>
 10e:	e000      	b.n	112 <_ZN10st7735_lcd28ST7735$LT$SPI$C$DC$C$RST$GT$12write_pixels17hdd3cfb73d0ac8fc8E+0x112>
 110:	defe      	udf	#254	; 0xfe
 112:	f7ff fffe 	bl	0 <_ZN50_$LT$T$u20$as$u20$core..convert..From$LT$T$GT$$GT$4from17h3246e97bcee02cfcE>
 116:	e7ff      	b.n	2 <_ZN73_$LT$core..result..Result$LT$T$C$E$GT$$u20$as$u20$core..ops..try..Try$GT$10from_error17h77bc71430dc08530E+0x2>
 118:	f7ff fffe 	bl	0 <_ZN73_$LT$core..result..Result$LT$T$C$E$GT$$u20$as$u20$core..ops..try..Try$GT$10from_error17h77bc71430dc08530E>
 11c:	f88d 0021 	strb.w	r0, [sp, #33]	; 0x21
 120:	e7ff      	b.n	122 <_ZN10st7735_lcd28ST7735$LT$SPI$C$DC$C$RST$GT$12write_pixels17hdd3cfb73d0ac8fc8E+0x122>
 122:	a8d8      	add	r0, sp, #864	; 0x360
/Users/Luppy/PineTime/pinetime-rust-mynewt/rust/st7735-lcd-batch-rs/src/lib.rs:224
        }
 124:	f7ff fffe 	bl	0 <_ZN4core3ptr18real_drop_in_place17h2f655eb49b4d6986E>
 128:	e7ff      	b.n	12a <_ZN10st7735_lcd28ST7735$LT$SPI$C$DC$C$RST$GT$12write_pixels17hdd3cfb73d0ac8fc8E+0x12a>
/Users/Luppy/PineTime/pinetime-rust-mynewt/rust/st7735-lcd-batch-rs/src/lib.rs:230
    }
 12a:	e018      	b.n	15e <_ZN10st7735_lcd28ST7735$LT$SPI$C$DC$C$RST$GT$12write_pixels17hdd3cfb73d0ac8fc8E+0x15e>
/Users/Luppy/PineTime/pinetime-rust-mynewt/rust/st7735-lcd-batch-rs/src/lib.rs:222
        for color in colors {
 12c:	e7ba      	b.n	a4 <_ZN10st7735_lcd28ST7735$LT$SPI$C$DC$C$RST$GT$12write_pixels17hdd3cfb73d0ac8fc8E+0xa4>
/Users/Luppy/PineTime/pinetime-rust-mynewt/rust/st7735-lcd-batch-rs/src/lib.rs:227
        mynewt::spi::spi_noblock_write_flush()  //  Enqueue the pending SPI request
 12e:	f7ff fffe 	bl	0 <_ZN6mynewt3spi23spi_noblock_write_flush17h975ce0af18b88cc6E>
 132:	9001      	str	r0, [sp, #4]
 134:	e7ff      	b.n	136 <_ZN10st7735_lcd28ST7735$LT$SPI$C$DC$C$RST$GT$12write_pixels17hdd3cfb73d0ac8fc8E+0x136>
 136:	f240 0100 	movw	r1, #0
 13a:	f2c0 0100 	movt	r1, #0
 13e:	220e      	movs	r2, #14
 140:	9801      	ldr	r0, [sp, #4]
 142:	f7ff fffe 	bl	0 <_ZN4core6result19Result$LT$T$C$E$GT$6expect17h47753e0abfe075d6E>
 146:	e7ff      	b.n	148 <_ZN10st7735_lcd28ST7735$LT$SPI$C$DC$C$RST$GT$12write_pixels17hdd3cfb73d0ac8fc8E+0x148>
 148:	2000      	movs	r0, #0
/Users/Luppy/PineTime/pinetime-rust-mynewt/rust/st7735-lcd-batch-rs/src/lib.rs:229
        Ok(())
 14a:	f88d 0021 	strb.w	r0, [sp, #33]	; 0x21
/Users/Luppy/PineTime/pinetime-rust-mynewt/rust/st7735-lcd-batch-rs/src/lib.rs:230
    }
 14e:	e788      	b.n	62 <_ZN10st7735_lcd28ST7735$LT$SPI$C$DC$C$RST$GT$12write_pixels17hdd3cfb73d0ac8fc8E+0x62>
 150:	2000      	movs	r0, #0
 152:	f88d 050f 	strb.w	r0, [sp, #1295]	; 0x50f
 156:	9805      	ldr	r0, [sp, #20]
 158:	f7ff fffe 	bl	0 <_ZN4core3ptr18real_drop_in_place17h9259b92b14450ecbE>
 15c:	e781      	b.n	62 <_ZN10st7735_lcd28ST7735$LT$SPI$C$DC$C$RST$GT$12write_pixels17hdd3cfb73d0ac8fc8E+0x62>
 15e:	f89d 050f 	ldrb.w	r0, [sp, #1295]	; 0x50f
 162:	07c0      	lsls	r0, r0, #31
 164:	2800      	cmp	r0, #0
 166:	d1f3      	bne.n	150 <_ZN10st7735_lcd28ST7735$LT$SPI$C$DC$C$RST$GT$12write_pixels17hdd3cfb73d0ac8fc8E+0x150>
 168:	e77b      	b.n	62 <_ZN10st7735_lcd28ST7735$LT$SPI$C$DC$C$RST$GT$12write_pixels17hdd3cfb73d0ac8fc8E+0x62>

app-d559bf047a1af437.4m05lkrwguthxl91.rcgu.o:     file format elf32-littlearm

SYMBOL TABLE:
00000000 l    df *ABS*	00000000 4m05lkrwguthxl91
0000012c l       .debug_str	00000000 
00000000 l       .debug_str	00000000 
00000041 l       .debug_str	00000000 
00000055 l       .debug_str	00000000 
00000080 l       .debug_str	00000000 
00000085 l       .debug_str	00000000 
00000089 l       .debug_str	00000000 
00000092 l       .debug_str	00000000 
000000e9 l       .debug_str	00000000 
00000127 l       .debug_str	00000000 
000000ec l       .debug_str	00000000 
000000f1 l       .debug_str	00000000 
000000f6 l       .debug_str	00000000 
000000f8 l       .debug_str	00000000 
000000fc l       .debug_str	00000000 
00000103 l       .debug_str	00000000 
00000116 l       .debug_str	00000000 
0000011c l       .debug_str	00000000 
00000000 l    d  .text._ZN58_$LT$core..any..TypeId$u20$as$u20$core..cmp..PartialEq$GT$2eq17he5b5b7835b79a741E	00000000 .text._ZN58_$LT$core..any..TypeId$u20$as$u20$core..cmp..PartialEq$GT$2eq17he5b5b7835b79a741E
00000000 l    d  .debug_abbrev	00000000 .debug_abbrev
00000000 l    d  .debug_info	00000000 .debug_info
00000000 l    d  .debug_frame	00000000 .debug_frame
00000000 l    d  .debug_line	00000000 .debug_line
00000000 g     F .text._ZN58_$LT$core..any..TypeId$u20$as$u20$core..cmp..PartialEq$GT$2eq17he5b5b7835b79a741E	0000002a .hidden _ZN58_$LT$core..any..TypeId$u20$as$u20$core..cmp..PartialEq$GT$2eq17he5b5b7835b79a741E



Disassembly of section .text._ZN58_$LT$core..any..TypeId$u20$as$u20$core..cmp..PartialEq$GT$2eq17he5b5b7835b79a741E:

00000000 <_ZN58_$LT$core..any..TypeId$u20$as$u20$core..cmp..PartialEq$GT$2eq17he5b5b7835b79a741E>:
_ZN58_$LT$core..any..TypeId$u20$as$u20$core..cmp..PartialEq$GT$2eq17he5b5b7835b79a741E():
/rustc/412f43ac5b4ae8c3599e71c6972112e9be4758fa/src/libcore/any.rs:403
   0:	b084      	sub	sp, #16
   2:	9000      	str	r0, [sp, #0]
   4:	9101      	str	r1, [sp, #4]
/rustc/412f43ac5b4ae8c3599e71c6972112e9be4758fa/src/libcore/any.rs:406
   6:	9801      	ldr	r0, [sp, #4]
   8:	9002      	str	r0, [sp, #8]
   a:	9800      	ldr	r0, [sp, #0]
   c:	9003      	str	r0, [sp, #12]
   e:	9803      	ldr	r0, [sp, #12]
  10:	6801      	ldr	r1, [r0, #0]
  12:	6840      	ldr	r0, [r0, #4]
  14:	9a02      	ldr	r2, [sp, #8]
  16:	6813      	ldr	r3, [r2, #0]
  18:	6852      	ldr	r2, [r2, #4]
  1a:	4050      	eors	r0, r2
  1c:	4059      	eors	r1, r3
  1e:	4308      	orrs	r0, r1
  20:	fab0 f080 	clz	r0, r0
  24:	0940      	lsrs	r0, r0, #5
/rustc/412f43ac5b4ae8c3599e71c6972112e9be4758fa/src/libcore/any.rs:403
  26:	b004      	add	sp, #16
  28:	4770      	bx	lr

app-d559bf047a1af437.4muisrotwbdyuumc.rcgu.o:     file format elf32-littlearm

SYMBOL TABLE:
00000000 l    df *ABS*	00000000 4muisrotwbdyuumc
00000103 l       .debug_str	00000000 
00000000 l       .debug_str	00000000 
00000041 l       .debug_str	00000000 
00000055 l       .debug_str	00000000 
00000080 l       .debug_str	00000000 
00000085 l       .debug_str	00000000 
0000008b l       .debug_str	00000000 
00000108 l       .debug_str	00000000 
00000091 l       .debug_str	00000000 
0000009a l       .debug_str	00000000 
000000ff l       .debug_str	00000000 
00000000 l    d  .text._ZN4core5clone5impls52_$LT$impl$u20$core..clone..Clone$u20$for$u20$u16$GT$5clone17hd35e6a09f17cd236E	00000000 .text._ZN4core5clone5impls52_$LT$impl$u20$core..clone..Clone$u20$for$u20$u16$GT$5clone17hd35e6a09f17cd236E
00000000 l    d  .debug_abbrev	00000000 .debug_abbrev
00000000 l    d  .debug_info	00000000 .debug_info
00000000 l    d  .debug_frame	00000000 .debug_frame
00000000 l    d  .debug_line	00000000 .debug_line
00000000 g     F .text._ZN4core5clone5impls52_$LT$impl$u20$core..clone..Clone$u20$for$u20$u16$GT$5clone17hd35e6a09f17cd236E	0000000c .hidden _ZN4core5clone5impls52_$LT$impl$u20$core..clone..Clone$u20$for$u20$u16$GT$5clone17hd35e6a09f17cd236E



Disassembly of section .text._ZN4core5clone5impls52_$LT$impl$u20$core..clone..Clone$u20$for$u20$u16$GT$5clone17hd35e6a09f17cd236E:

00000000 <_ZN4core5clone5impls52_$LT$impl$u20$core..clone..Clone$u20$for$u20$u16$GT$5clone17hd35e6a09f17cd236E>:
_ZN4core5clone5impls52_$LT$impl$u20$core..clone..Clone$u20$for$u20$u16$GT$5clone17hd35e6a09f17cd236E():
/rustc/412f43ac5b4ae8c3599e71c6972112e9be4758fa/src/libcore/clone.rs:173
   0:	b081      	sub	sp, #4
   2:	9000      	str	r0, [sp, #0]
/rustc/412f43ac5b4ae8c3599e71c6972112e9be4758fa/src/libcore/clone.rs:174
   4:	9800      	ldr	r0, [sp, #0]
/rustc/412f43ac5b4ae8c3599e71c6972112e9be4758fa/src/libcore/clone.rs:175
   6:	8800      	ldrh	r0, [r0, #0]
   8:	b001      	add	sp, #4
   a:	4770      	bx	lr

app-d559bf047a1af437.4sg161zsn3b34isr.rcgu.o:     file format elf32-littlearm

SYMBOL TABLE:
00000000 l    df *ABS*	00000000 4sg161zsn3b34isr
0000241d l       .debug_str	00000000 
000031e0 l       .debug_str	00000000 
000031e7 l       .debug_str	00000000 
00003225 l       .debug_str	00000000 
00003297 l       .debug_str	00000000 
000032cc l       .debug_str	00000000 
00003371 l       .debug_str	00000000 
000033a1 l       .debug_str	00000000 
000033d6 l       .debug_str	00000000 
00003428 l       .debug_str	00000000 
0000345d l       .debug_str	00000000 
000035d7 l       .debug_str	00000000 
0000360c l       .debug_str	00000000 
0000375f l       .debug_str	00000000 
00003794 l       .debug_str	00000000 
0000383f l       .debug_str	00000000 
00003871 l       .debug_str	00000000 
000038a6 l       .debug_str	00000000 
000038fa l       .debug_str	00000000 
000039d4 l       .debug_str	00000000 
00003a09 l       .debug_str	00000000 
00003b16 l       .debug_str	00000000 
00003b4b l       .debug_str	00000000 
00003b63 l       .debug_str	00000000 
00003c03 l       .debug_str	00000000 
00003c38 l       .debug_str	00000000 
00003d0b l       .debug_str	00000000 
00003d38 l       .debug_str	00000000 
00003e08 l       .debug_str	00000000 
00003e29 l       .debug_str	00000000 
00003ef3 l       .debug_str	00000000 
00004063 l       .debug_str	00000000 
00004092 l       .debug_str	00000000 
00004128 l       .debug_str	00000000 
0000416b l       .debug_str	00000000 
000042d6 l       .debug_str	00000000 
0000441a l       .debug_str	00000000 
000044b6 l       .debug_str	00000000 
000044fb l       .debug_str	00000000 
000045f9 l       .debug_str	00000000 
00004602 l       .debug_str	00000000 
00000000 l       .debug_str	00000000 
00000041 l       .debug_str	00000000 
00000055 l       .debug_str	00000000 
00000080 l       .debug_str	00000000 
00000087 l       .debug_str	00000000 
0000008e l       .debug_str	00000000 
00000092 l       .debug_str	00000000 
0000009a l       .debug_str	00000000 
000000a5 l       .debug_str	00000000 
000000b0 l       .debug_str	00000000 
000000bd l       .debug_str	00000000 
000000c8 l       .debug_str	00000000 
000000d0 l       .debug_str	00000000 
000000db l       .debug_str	00000000 
000000e6 l       .debug_str	00000000 
000000f0 l       .debug_str	00000000 
000000fb l       .debug_str	00000000 
00000106 l       .debug_str	00000000 
00000113 l       .debug_str	00000000 
0000011f l       .debug_str	00000000 
0000012c l       .debug_str	00000000 
0000013a l       .debug_str	00000000 
00000144 l       .debug_str	00000000 
00000151 l       .debug_str	00000000 
0000015d l       .debug_str	00000000 
00000162 l       .debug_str	00000000 
00000166 l       .debug_str	00000000 
0000017d l       .debug_str	00000000 
00000183 l       .debug_str	00000000 
0000018a l       .debug_str	00000000 
0000018e l       .debug_str	00000000 
00000196 l       .debug_str	00000000 
00000198 l       .debug_str	00000000 
0000019f l       .debug_str	00000000 
000001a8 l       .debug_str	00000000 
000001ac l       .debug_str	00000000 
000001b0 l       .debug_str	00000000 
000001b2 l       .debug_str	00000000 
000001b9 l       .debug_str	00000000 
000001bd l       .debug_str	00000000 
000001ca l       .debug_str	00000000 
000001d1 l       .debug_str	00000000 
000001d4 l       .debug_str	00000000 
000001da l       .debug_str	00000000 
000001e8 l       .debug_str	00000000 
000001f6 l       .debug_str	00000000 
000001fb l       .debug_str	00000000 
00000203 l       .debug_str	00000000 
0000020b l       .debug_str	00000000 
0000020d l       .debug_str	00000000 
0000020f l       .debug_str	00000000 
0000022c l       .debug_str	00000000 
00000272 l       .debug_str	00000000 
0000027a l       .debug_str	00000000 
00000281 l       .debug_str	00000000 
00000292 l       .debug_str	00000000 
00000302 l       .debug_str	00000000 
0000039c l       .debug_str	00000000 
0000045f l       .debug_str	00000000 
0000054c l       .debug_str	00000000 
00000663 l       .debug_str	00000000 
0000066b l       .debug_str	00000000 
00000670 l       .debug_str	00000000 
00000676 l       .debug_str	00000000 
0000067a l       .debug_str	00000000 
0000067e l       .debug_str	00000000 
00000681 l       .debug_str	00000000 
000006aa l       .debug_str	00000000 
000006e0 l       .debug_str	00000000 
000006e2 l       .debug_str	00000000 
0000070f l       .debug_str	00000000 
0000075f l       .debug_str	00000000 
000007bc l       .debug_str	00000000 
00000810 l       .debug_str	00000000 
00000813 l       .debug_str	00000000 
0000088a l       .debug_str	00000000 
0000090e l       .debug_str	00000000 
00000989 l       .debug_str	00000000 
00000a27 l       .debug_str	00000000 
00000ad2 l       .debug_str	00000000 
00000b74 l       .debug_str	00000000 
00000c39 l       .debug_str	00000000 
00000d0b l       .debug_str	00000000 
00000dd4 l       .debug_str	00000000 
00000ec0 l       .debug_str	00000000 
00000fb9 l       .debug_str	00000000 
000010a9 l       .debug_str	00000000 
000011bc l       .debug_str	00000000 
000012dc l       .debug_str	00000000 
000013f3 l       .debug_str	00000000 
0000152c l       .debug_str	00000000 
00001682 l       .debug_str	00000000 
000017d7 l       .debug_str	00000000 
000017db l       .debug_str	00000000 
000017e1 l       .debug_str	00000000 
000017e3 l       .debug_str	00000000 
00001930 l       .debug_str	00000000 
00001932 l       .debug_str	00000000 
00001a62 l       .debug_str	00000000 
00001a6b l       .debug_str	00000000 
00001aa0 l       .debug_str	00000000 
00001adc l       .debug_str	00000000 
00001ae3 l       .debug_str	00000000 
00001af5 l       .debug_str	00000000 
00001afb l       .debug_str	00000000 
00001b08 l       .debug_str	00000000 
00001b14 l       .debug_str	00000000 
00001b18 l       .debug_str	00000000 
00001b24 l       .debug_str	00000000 
00001b31 l       .debug_str	00000000 
00001b38 l       .debug_str	00000000 
00001b3d l       .debug_str	00000000 
00001b42 l       .debug_str	00000000 
00001b47 l       .debug_str	00000000 
00001b54 l       .debug_str	00000000 
00001b58 l       .debug_str	00000000 
00001b5c l       .debug_str	00000000 
00001b62 l       .debug_str	00000000 
00001b71 l       .debug_str	00000000 
00001b77 l       .debug_str	00000000 
00001b7c l       .debug_str	00000000 
00001b85 l       .debug_str	00000000 
00001b88 l       .debug_str	00000000 
00001b92 l       .debug_str	00000000 
00001b99 l       .debug_str	00000000 
00001b9e l       .debug_str	00000000 
00001ba4 l       .debug_str	00000000 
00001baf l       .debug_str	00000000 
00001bba l       .debug_str	00000000 
00001bc1 l       .debug_str	00000000 
00001bc8 l       .debug_str	00000000 
00001bfe l       .debug_str	00000000 
00001c0b l       .debug_str	00000000 
00001c18 l       .debug_str	00000000 
00001c1a l       .debug_str	00000000 
00001c4f l       .debug_str	00000000 
00001c55 l       .debug_str	00000000 
00001c5f l       .debug_str	00000000 
00001c6d l       .debug_str	00000000 
00001cad l       .debug_str	00000000 
00001caf l       .debug_str	00000000 
00001cb4 l       .debug_str	00000000 
00001d2b l       .debug_str	00000000 
00001d37 l       .debug_str	00000000 
00001d3c l       .debug_str	00000000 
00001de8 l       .debug_str	00000000 
00001e1d l       .debug_str	00000000 
00001efc l       .debug_str	00000000 
00001f31 l       .debug_str	00000000 
00001f61 l       .debug_str	00000000 
00001f66 l       .debug_str	00000000 
00001f71 l       .debug_str	00000000 
00001f7b l       .debug_str	00000000 
00001f84 l       .debug_str	00000000 
00001f91 l       .debug_str	00000000 
00001f93 l       .debug_str	00000000 
00001fd4 l       .debug_str	00000000 
0000204c l       .debug_str	00000000 
00002052 l       .debug_str	00000000 
0000205b l       .debug_str	00000000 
0000219c l       .debug_str	00000000 
000022d6 l       .debug_str	00000000 
0000255b l       .debug_str	00000000 
000026bb l       .debug_str	00000000 
00002838 l       .debug_str	00000000 
000029b4 l       .debug_str	00000000 
00002b28 l       .debug_str	00000000 
00002c7f l       .debug_str	00000000 
00002c89 l       .debug_str	00000000 
00002c8b l       .debug_str	00000000 
00002d31 l       .debug_str	00000000 
00002d66 l       .debug_str	00000000 
00002e3f l       .debug_str	00000000 
00002e44 l       .debug_str	00000000 
00002fa0 l       .debug_str	00000000 
00002fd5 l       .debug_str	00000000 
00003154 l       .debug_str	00000000 
0000315f l       .debug_str	00000000 
00003194 l       .debug_str	00000000 
000031d2 l       .debug_str	00000000 
000031d9 l       .debug_str	00000000 
00000000 l     F .text._ZN4core3ptr18real_drop_in_place17h00371ec7cd7c93d4E	00000012 _ZN4core3ptr18real_drop_in_place17h00371ec7cd7c93d4E
00000000 l     F .text._ZN4core3ptr18real_drop_in_place17h01a1a9b7dd1b1b3cE	00000014 _ZN4core3ptr18real_drop_in_place17h01a1a9b7dd1b1b3cE
00000000 l     F .text._ZN4core3ptr18real_drop_in_place17h4f3dda1cd42f2e69E	00000012 _ZN4core3ptr18real_drop_in_place17h4f3dda1cd42f2e69E
00000000 l     F .text._ZN4core3ptr18real_drop_in_place17h4fbb15b5e8ae2e6cE	00000014 _ZN4core3ptr18real_drop_in_place17h4fbb15b5e8ae2e6cE
00000000 l     F .text._ZN4core3ptr18real_drop_in_place17hbd40dd3c67b65a23E	00000014 _ZN4core3ptr18real_drop_in_place17hbd40dd3c67b65a23E
00000000 l    d  .text._ZN4core3ptr18real_drop_in_place17h00371ec7cd7c93d4E	00000000 .text._ZN4core3ptr18real_drop_in_place17h00371ec7cd7c93d4E
00000000 l    d  .text._ZN4core3ptr18real_drop_in_place17h01a1a9b7dd1b1b3cE	00000000 .text._ZN4core3ptr18real_drop_in_place17h01a1a9b7dd1b1b3cE
00000000 l    d  .text._ZN4core3ptr18real_drop_in_place17h0feddc9951c70e67E	00000000 .text._ZN4core3ptr18real_drop_in_place17h0feddc9951c70e67E
00000000 l    d  .text._ZN4core3ptr18real_drop_in_place17h1b5b9201401842abE	00000000 .text._ZN4core3ptr18real_drop_in_place17h1b5b9201401842abE
00000000 l    d  .text._ZN4core3ptr18real_drop_in_place17h2f655eb49b4d6986E	00000000 .text._ZN4core3ptr18real_drop_in_place17h2f655eb49b4d6986E
00000000 l    d  .text._ZN4core3ptr18real_drop_in_place17h4f3dda1cd42f2e69E	00000000 .text._ZN4core3ptr18real_drop_in_place17h4f3dda1cd42f2e69E
00000000 l    d  .text._ZN4core3ptr18real_drop_in_place17h4fbb15b5e8ae2e6cE	00000000 .text._ZN4core3ptr18real_drop_in_place17h4fbb15b5e8ae2e6cE
00000000 l    d  .text._ZN4core3ptr18real_drop_in_place17h7aef2a3cc7c1160cE	00000000 .text._ZN4core3ptr18real_drop_in_place17h7aef2a3cc7c1160cE
00000000 l    d  .text._ZN4core3ptr18real_drop_in_place17h9259b92b14450ecbE	00000000 .text._ZN4core3ptr18real_drop_in_place17h9259b92b14450ecbE
00000000 l    d  .text._ZN4core3ptr18real_drop_in_place17hae0f96c0e02821c9E	00000000 .text._ZN4core3ptr18real_drop_in_place17hae0f96c0e02821c9E
00000000 l    d  .text._ZN4core3ptr18real_drop_in_place17hbd40dd3c67b65a23E	00000000 .text._ZN4core3ptr18real_drop_in_place17hbd40dd3c67b65a23E
00000000 l    d  .text._ZN4core3ptr18real_drop_in_place17hd992adae17c3a6d3E	00000000 .text._ZN4core3ptr18real_drop_in_place17hd992adae17c3a6d3E
00000000 l    d  .text._ZN4core3ptr18real_drop_in_place17hdc379fb5c69cf67aE	00000000 .text._ZN4core3ptr18real_drop_in_place17hdc379fb5c69cf67aE
00000000 l    d  .text._ZN4core3ptr18real_drop_in_place17hfaa6c013da8d0049E	00000000 .text._ZN4core3ptr18real_drop_in_place17hfaa6c013da8d0049E
00000000 l    d  .text._ZN4core3ptr18real_drop_in_place17hfd02acae2db49155E	00000000 .text._ZN4core3ptr18real_drop_in_place17hfd02acae2db49155E
00000000 l    d  .debug_abbrev	00000000 .debug_abbrev
00000000 l    d  .debug_info	00000000 .debug_info
00000000 l    d  .debug_ranges	00000000 .debug_ranges
00000000 l    d  .debug_frame	00000000 .debug_frame
00000000 l    d  .debug_line	00000000 .debug_line
00000000 g     F .text._ZN4core3ptr18real_drop_in_place17h0feddc9951c70e67E	00000008 .hidden _ZN4core3ptr18real_drop_in_place17h0feddc9951c70e67E
00000000 g     F .text._ZN4core3ptr18real_drop_in_place17h1b5b9201401842abE	0000001c .hidden _ZN4core3ptr18real_drop_in_place17h1b5b9201401842abE
00000000 g     F .text._ZN4core3ptr18real_drop_in_place17h2f655eb49b4d6986E	0000001a .hidden _ZN4core3ptr18real_drop_in_place17h2f655eb49b4d6986E
00000000 g     F .text._ZN4core3ptr18real_drop_in_place17h7aef2a3cc7c1160cE	0000001e .hidden _ZN4core3ptr18real_drop_in_place17h7aef2a3cc7c1160cE
00000000 g     F .text._ZN4core3ptr18real_drop_in_place17h9259b92b14450ecbE	00000012 .hidden _ZN4core3ptr18real_drop_in_place17h9259b92b14450ecbE
00000000 g     F .text._ZN4core3ptr18real_drop_in_place17hae0f96c0e02821c9E	00000012 .hidden _ZN4core3ptr18real_drop_in_place17hae0f96c0e02821c9E
00000000 g     F .text._ZN4core3ptr18real_drop_in_place17hd992adae17c3a6d3E	0000001e .hidden _ZN4core3ptr18real_drop_in_place17hd992adae17c3a6d3E
00000000 g     F .text._ZN4core3ptr18real_drop_in_place17hdc379fb5c69cf67aE	0000001e .hidden _ZN4core3ptr18real_drop_in_place17hdc379fb5c69cf67aE
00000000 g     F .text._ZN4core3ptr18real_drop_in_place17hfaa6c013da8d0049E	00000008 .hidden _ZN4core3ptr18real_drop_in_place17hfaa6c013da8d0049E
00000000 g     F .text._ZN4core3ptr18real_drop_in_place17hfd02acae2db49155E	0000001c .hidden _ZN4core3ptr18real_drop_in_place17hfd02acae2db49155E
00000000         *UND*	00000000 _ZN73_$LT$heapless..vec..Vec$LT$T$C$N$GT$$u20$as$u20$core..ops..drop..Drop$GT$4drop17h0a4f8fd95d5c2f6bE
00000000         *UND*	00000000 _ZN73_$LT$heapless..vec..Vec$LT$T$C$N$GT$$u20$as$u20$core..ops..drop..Drop$GT$4drop17h6da2bc5e93599c02E
00000000         *UND*	00000000 _ZN78_$LT$heapless..vec..IntoIter$LT$T$C$N$GT$$u20$as$u20$core..ops..drop..Drop$GT$4drop17he041b80b2a2967b7E



Disassembly of section .text._ZN4core3ptr18real_drop_in_place17h00371ec7cd7c93d4E:

00000000 <_ZN4core3ptr18real_drop_in_place17h00371ec7cd7c93d4E>:
_ZN4core3ptr18real_drop_in_place17h00371ec7cd7c93d4E():
/rustc/412f43ac5b4ae8c3599e71c6972112e9be4758fa/src/libcore/ptr/mod.rs:181
   0:	b580      	push	{r7, lr}
   2:	b082      	sub	sp, #8
   4:	9001      	str	r0, [sp, #4]
   6:	9801      	ldr	r0, [sp, #4]
   8:	f7ff fffe 	bl	0 <_ZN4core3ptr18real_drop_in_place17h00371ec7cd7c93d4E>
   c:	e7ff      	b.n	e <_ZN4core3ptr18real_drop_in_place17h00371ec7cd7c93d4E+0xe>
   e:	b002      	add	sp, #8
  10:	bd80      	pop	{r7, pc}

Disassembly of section .text._ZN4core3ptr18real_drop_in_place17h01a1a9b7dd1b1b3cE:

00000000 <_ZN4core3ptr18real_drop_in_place17h01a1a9b7dd1b1b3cE>:
_ZN4core3ptr18real_drop_in_place17h01a1a9b7dd1b1b3cE():
/rustc/412f43ac5b4ae8c3599e71c6972112e9be4758fa/src/libcore/ptr/mod.rs:181
   0:	b580      	push	{r7, lr}
   2:	b082      	sub	sp, #8
   4:	9001      	str	r0, [sp, #4]
   6:	9801      	ldr	r0, [sp, #4]
   8:	302c      	adds	r0, #44	; 0x2c
   a:	f7ff fffe 	bl	0 <_ZN4core3ptr18real_drop_in_place17h01a1a9b7dd1b1b3cE>
   e:	e7ff      	b.n	10 <_ZN4core3ptr18real_drop_in_place17h01a1a9b7dd1b1b3cE+0x10>
  10:	b002      	add	sp, #8
  12:	bd80      	pop	{r7, pc}

Disassembly of section .text._ZN4core3ptr18real_drop_in_place17h0feddc9951c70e67E:

00000000 <_ZN4core3ptr18real_drop_in_place17h0feddc9951c70e67E>:
_ZN4core3ptr18real_drop_in_place17h0feddc9951c70e67E():
/rustc/412f43ac5b4ae8c3599e71c6972112e9be4758fa/src/libcore/ptr/mod.rs:181
   0:	b081      	sub	sp, #4
   2:	9000      	str	r0, [sp, #0]
   4:	b001      	add	sp, #4
   6:	4770      	bx	lr

Disassembly of section .text._ZN4core3ptr18real_drop_in_place17h1b5b9201401842abE:

00000000 <_ZN4core3ptr18real_drop_in_place17h1b5b9201401842abE>:
_ZN4core3ptr18real_drop_in_place17h1b5b9201401842abE():
/rustc/412f43ac5b4ae8c3599e71c6972112e9be4758fa/src/libcore/ptr/mod.rs:181
   0:	b580      	push	{r7, lr}
   2:	b082      	sub	sp, #8
   4:	9001      	str	r0, [sp, #4]
   6:	9801      	ldr	r0, [sp, #4]
   8:	f7ff fffe 	bl	0 <_ZN4core3ptr18real_drop_in_place17h1b5b9201401842abE>
   c:	e001      	b.n	12 <_ZN4core3ptr18real_drop_in_place17h1b5b9201401842abE+0x12>
   e:	b002      	add	sp, #8
  10:	bd80      	pop	{r7, pc}
  12:	9801      	ldr	r0, [sp, #4]
  14:	30f8      	adds	r0, #248	; 0xf8
  16:	f7ff fffe 	bl	0 <_ZN4core3ptr18real_drop_in_place17h1b5b9201401842abE>
  1a:	e7f8      	b.n	e <_ZN4core3ptr18real_drop_in_place17h1b5b9201401842abE+0xe>

Disassembly of section .text._ZN4core3ptr18real_drop_in_place17h2f655eb49b4d6986E:

00000000 <_ZN4core3ptr18real_drop_in_place17h2f655eb49b4d6986E>:
_ZN4core3ptr18real_drop_in_place17h2f655eb49b4d6986E():
/rustc/412f43ac5b4ae8c3599e71c6972112e9be4758fa/src/libcore/ptr/mod.rs:181
   0:	b580      	push	{r7, lr}
   2:	b082      	sub	sp, #8
   4:	9001      	str	r0, [sp, #4]
   6:	9801      	ldr	r0, [sp, #4]
   8:	f7ff fffe 	bl	0 <_ZN78_$LT$heapless..vec..IntoIter$LT$T$C$N$GT$$u20$as$u20$core..ops..drop..Drop$GT$4drop17he041b80b2a2967b7E>
   c:	e001      	b.n	12 <_ZN4core3ptr18real_drop_in_place17h2f655eb49b4d6986E+0x12>
   e:	b002      	add	sp, #8
  10:	bd80      	pop	{r7, pc}
  12:	9801      	ldr	r0, [sp, #4]
  14:	f7ff fffe 	bl	0 <_ZN4core3ptr18real_drop_in_place17h2f655eb49b4d6986E>
  18:	e7f9      	b.n	e <_ZN4core3ptr18real_drop_in_place17h2f655eb49b4d6986E+0xe>

Disassembly of section .text._ZN4core3ptr18real_drop_in_place17h4f3dda1cd42f2e69E:

00000000 <_ZN4core3ptr18real_drop_in_place17h4f3dda1cd42f2e69E>:
_ZN4core3ptr18real_drop_in_place17h4f3dda1cd42f2e69E():
/rustc/412f43ac5b4ae8c3599e71c6972112e9be4758fa/src/libcore/ptr/mod.rs:181
   0:	b580      	push	{r7, lr}
   2:	b082      	sub	sp, #8
   4:	9001      	str	r0, [sp, #4]
   6:	9801      	ldr	r0, [sp, #4]
   8:	f7ff fffe 	bl	0 <_ZN4core3ptr18real_drop_in_place17h4f3dda1cd42f2e69E>
   c:	e7ff      	b.n	e <_ZN4core3ptr18real_drop_in_place17h4f3dda1cd42f2e69E+0xe>
   e:	b002      	add	sp, #8
  10:	bd80      	pop	{r7, pc}

Disassembly of section .text._ZN4core3ptr18real_drop_in_place17h4fbb15b5e8ae2e6cE:

00000000 <_ZN4core3ptr18real_drop_in_place17h4fbb15b5e8ae2e6cE>:
_ZN4core3ptr18real_drop_in_place17h4fbb15b5e8ae2e6cE():
/rustc/412f43ac5b4ae8c3599e71c6972112e9be4758fa/src/libcore/ptr/mod.rs:181
   0:	b580      	push	{r7, lr}
   2:	b082      	sub	sp, #8
   4:	9001      	str	r0, [sp, #4]
   6:	9801      	ldr	r0, [sp, #4]
   8:	3020      	adds	r0, #32
   a:	f7ff fffe 	bl	0 <_ZN4core3ptr18real_drop_in_place17h4fbb15b5e8ae2e6cE>
   e:	e7ff      	b.n	10 <_ZN4core3ptr18real_drop_in_place17h4fbb15b5e8ae2e6cE+0x10>
  10:	b002      	add	sp, #8
  12:	bd80      	pop	{r7, pc}

Disassembly of section .text._ZN4core3ptr18real_drop_in_place17h7aef2a3cc7c1160cE:

00000000 <_ZN4core3ptr18real_drop_in_place17h7aef2a3cc7c1160cE>:
_ZN4core3ptr18real_drop_in_place17h7aef2a3cc7c1160cE():
/rustc/412f43ac5b4ae8c3599e71c6972112e9be4758fa/src/libcore/ptr/mod.rs:181
   0:	b580      	push	{r7, lr}
   2:	b082      	sub	sp, #8
   4:	9001      	str	r0, [sp, #4]
   6:	9801      	ldr	r0, [sp, #4]
   8:	6800      	ldr	r0, [r0, #0]
   a:	2800      	cmp	r0, #0
   c:	d102      	bne.n	14 <_ZN4core3ptr18real_drop_in_place17h7aef2a3cc7c1160cE+0x14>
   e:	e7ff      	b.n	10 <_ZN4core3ptr18real_drop_in_place17h7aef2a3cc7c1160cE+0x10>
  10:	b002      	add	sp, #8
  12:	bd80      	pop	{r7, pc}
  14:	9801      	ldr	r0, [sp, #4]
  16:	3004      	adds	r0, #4
  18:	f7ff fffe 	bl	0 <_ZN4core3ptr18real_drop_in_place17h7aef2a3cc7c1160cE>
  1c:	e7f8      	b.n	10 <_ZN4core3ptr18real_drop_in_place17h7aef2a3cc7c1160cE+0x10>

Disassembly of section .text._ZN4core3ptr18real_drop_in_place17h9259b92b14450ecbE:

00000000 <_ZN4core3ptr18real_drop_in_place17h9259b92b14450ecbE>:
_ZN4core3ptr18real_drop_in_place17h9259b92b14450ecbE():
/rustc/412f43ac5b4ae8c3599e71c6972112e9be4758fa/src/libcore/ptr/mod.rs:181
   0:	b580      	push	{r7, lr}
   2:	b082      	sub	sp, #8
   4:	9001      	str	r0, [sp, #4]
   6:	9801      	ldr	r0, [sp, #4]
   8:	f7ff fffe 	bl	0 <_ZN73_$LT$heapless..vec..Vec$LT$T$C$N$GT$$u20$as$u20$core..ops..drop..Drop$GT$4drop17h0a4f8fd95d5c2f6bE>
   c:	e7ff      	b.n	e <_ZN4core3ptr18real_drop_in_place17h9259b92b14450ecbE+0xe>
   e:	b002      	add	sp, #8
  10:	bd80      	pop	{r7, pc}

Disassembly of section .text._ZN4core3ptr18real_drop_in_place17hae0f96c0e02821c9E:

00000000 <_ZN4core3ptr18real_drop_in_place17hae0f96c0e02821c9E>:
_ZN4core3ptr18real_drop_in_place17hae0f96c0e02821c9E():
/rustc/412f43ac5b4ae8c3599e71c6972112e9be4758fa/src/libcore/ptr/mod.rs:181
   0:	b580      	push	{r7, lr}
   2:	b082      	sub	sp, #8
   4:	9001      	str	r0, [sp, #4]
   6:	9801      	ldr	r0, [sp, #4]
   8:	f7ff fffe 	bl	0 <_ZN73_$LT$heapless..vec..Vec$LT$T$C$N$GT$$u20$as$u20$core..ops..drop..Drop$GT$4drop17h6da2bc5e93599c02E>
   c:	e7ff      	b.n	e <_ZN4core3ptr18real_drop_in_place17hae0f96c0e02821c9E+0xe>
   e:	b002      	add	sp, #8
  10:	bd80      	pop	{r7, pc}

Disassembly of section .text._ZN4core3ptr18real_drop_in_place17hbd40dd3c67b65a23E:

00000000 <_ZN4core3ptr18real_drop_in_place17hbd40dd3c67b65a23E>:
_ZN4core3ptr18real_drop_in_place17hbd40dd3c67b65a23E():
/rustc/412f43ac5b4ae8c3599e71c6972112e9be4758fa/src/libcore/ptr/mod.rs:181
   0:	b580      	push	{r7, lr}
   2:	b082      	sub	sp, #8
   4:	9001      	str	r0, [sp, #4]
   6:	9801      	ldr	r0, [sp, #4]
   8:	3024      	adds	r0, #36	; 0x24
   a:	f7ff fffe 	bl	0 <_ZN4core3ptr18real_drop_in_place17hbd40dd3c67b65a23E>
   e:	e7ff      	b.n	10 <_ZN4core3ptr18real_drop_in_place17hbd40dd3c67b65a23E+0x10>
  10:	b002      	add	sp, #8
  12:	bd80      	pop	{r7, pc}

Disassembly of section .text._ZN4core3ptr18real_drop_in_place17hd992adae17c3a6d3E:

00000000 <_ZN4core3ptr18real_drop_in_place17hd992adae17c3a6d3E>:
_ZN4core3ptr18real_drop_in_place17hd992adae17c3a6d3E():
/rustc/412f43ac5b4ae8c3599e71c6972112e9be4758fa/src/libcore/ptr/mod.rs:181
   0:	b580      	push	{r7, lr}
   2:	b082      	sub	sp, #8
   4:	9001      	str	r0, [sp, #4]
   6:	9801      	ldr	r0, [sp, #4]
   8:	6800      	ldr	r0, [r0, #0]
   a:	2800      	cmp	r0, #0
   c:	d102      	bne.n	14 <_ZN4core3ptr18real_drop_in_place17hd992adae17c3a6d3E+0x14>
   e:	e7ff      	b.n	10 <_ZN4core3ptr18real_drop_in_place17hd992adae17c3a6d3E+0x10>
  10:	b002      	add	sp, #8
  12:	bd80      	pop	{r7, pc}
  14:	9801      	ldr	r0, [sp, #4]
  16:	3004      	adds	r0, #4
  18:	f7ff fffe 	bl	0 <_ZN4core3ptr18real_drop_in_place17hd992adae17c3a6d3E>
  1c:	e7f8      	b.n	10 <_ZN4core3ptr18real_drop_in_place17hd992adae17c3a6d3E+0x10>

Disassembly of section .text._ZN4core3ptr18real_drop_in_place17hdc379fb5c69cf67aE:

00000000 <_ZN4core3ptr18real_drop_in_place17hdc379fb5c69cf67aE>:
_ZN4core3ptr18real_drop_in_place17hdc379fb5c69cf67aE():
/rustc/412f43ac5b4ae8c3599e71c6972112e9be4758fa/src/libcore/ptr/mod.rs:181
   0:	b580      	push	{r7, lr}
   2:	b082      	sub	sp, #8
   4:	9001      	str	r0, [sp, #4]
   6:	9801      	ldr	r0, [sp, #4]
   8:	f7ff fffe 	bl	0 <_ZN4core3ptr18real_drop_in_place17hdc379fb5c69cf67aE>
   c:	e001      	b.n	12 <_ZN4core3ptr18real_drop_in_place17hdc379fb5c69cf67aE+0x12>
   e:	b002      	add	sp, #8
  10:	bd80      	pop	{r7, pc}
  12:	9801      	ldr	r0, [sp, #4]
  14:	f500 7080 	add.w	r0, r0, #256	; 0x100
  18:	f7ff fffe 	bl	0 <_ZN4core3ptr18real_drop_in_place17hdc379fb5c69cf67aE>
  1c:	e7f7      	b.n	e <_ZN4core3ptr18real_drop_in_place17hdc379fb5c69cf67aE+0xe>

Disassembly of section .text._ZN4core3ptr18real_drop_in_place17hfaa6c013da8d0049E:

00000000 <_ZN4core3ptr18real_drop_in_place17hfaa6c013da8d0049E>:
_ZN4core3ptr18real_drop_in_place17hfaa6c013da8d0049E():
/rustc/412f43ac5b4ae8c3599e71c6972112e9be4758fa/src/libcore/ptr/mod.rs:181
   0:	b081      	sub	sp, #4
   2:	9000      	str	r0, [sp, #0]
   4:	b001      	add	sp, #4
   6:	4770      	bx	lr

Disassembly of section .text._ZN4core3ptr18real_drop_in_place17hfd02acae2db49155E:

00000000 <_ZN4core3ptr18real_drop_in_place17hfd02acae2db49155E>:
_ZN4core3ptr18real_drop_in_place17hfd02acae2db49155E():
/rustc/412f43ac5b4ae8c3599e71c6972112e9be4758fa/src/libcore/ptr/mod.rs:181
   0:	b580      	push	{r7, lr}
   2:	b082      	sub	sp, #8
   4:	9001      	str	r0, [sp, #4]
   6:	9801      	ldr	r0, [sp, #4]
   8:	f7ff fffe 	bl	0 <_ZN4core3ptr18real_drop_in_place17hfd02acae2db49155E>
   c:	e001      	b.n	12 <_ZN4core3ptr18real_drop_in_place17hfd02acae2db49155E+0x12>
   e:	b002      	add	sp, #8
  10:	bd80      	pop	{r7, pc}
  12:	9801      	ldr	r0, [sp, #4]
  14:	30f4      	adds	r0, #244	; 0xf4
  16:	f7ff fffe 	bl	0 <_ZN4core3ptr18real_drop_in_place17hfd02acae2db49155E>
  1a:	e7f8      	b.n	e <_ZN4core3ptr18real_drop_in_place17hfd02acae2db49155E+0xe>

app-d559bf047a1af437.50nvjzha5ira9j65.rcgu.o:     file format elf32-littlearm

SYMBOL TABLE:
00000000 l    df *ABS*	00000000 50nvjzha5ira9j65
00000327 l       .debug_str	00000000 
0000036c l       .debug_str	00000000 
00000370 l       .debug_str	00000000 
00000374 l       .debug_str	00000000 
0000037c l       .debug_str	00000000 
00000393 l       .debug_str	00000000 
000003b7 l       .debug_str	00000000 
000003d3 l       .debug_str	00000000 
000003dd l       .debug_str	00000000 
000003f7 l       .debug_str	00000000 
00000455 l       .debug_str	00000000 
00000460 l       .debug_str	00000000 
0000047d l       .debug_str	00000000 
00000496 l       .debug_str	00000000 
000004a0 l       .debug_str	00000000 
000004b6 l       .debug_str	00000000 
000004d4 l       .debug_str	00000000 
000004dd l       .debug_str	00000000 
000004e2 l       .debug_str	00000000 
000004e7 l       .debug_str	00000000 
000004eb l       .debug_str	00000000 
000004f4 l       .debug_str	00000000 
0000050b l       .debug_str	00000000 
00000515 l       .debug_str	00000000 
00000000 l       .debug_str	00000000 
00000041 l       .debug_str	00000000 
00000055 l       .debug_str	00000000 
00000080 l       .debug_str	00000000 
00000085 l       .debug_str	00000000 
00000089 l       .debug_str	00000000 
0000008c l       .debug_str	00000000 
0000008f l       .debug_str	00000000 
00000092 l       .debug_str	00000000 
00000097 l       .debug_str	00000000 
0000009d l       .debug_str	00000000 
000000a4 l       .debug_str	00000000 
000000ac l       .debug_str	00000000 
000000b6 l       .debug_str	00000000 
000000bd l       .debug_str	00000000 
000000c0 l       .debug_str	00000000 
000000c4 l       .debug_str	00000000 
000000cb l       .debug_str	00000000 
000000cf l       .debug_str	00000000 
000000d8 l       .debug_str	00000000 
000000dc l       .debug_str	00000000 
00000106 l       .debug_str	00000000 
0000010b l       .debug_str	00000000 
00000110 l       .debug_str	00000000 
00000112 l       .debug_str	00000000 
00000124 l       .debug_str	00000000 
0000012a l       .debug_str	00000000 
0000012d l       .debug_str	00000000 
00000131 l       .debug_str	00000000 
00000136 l       .debug_str	00000000 
0000013e l       .debug_str	00000000 
00000142 l       .debug_str	00000000 
0000014a l       .debug_str	00000000 
00000152 l       .debug_str	00000000 
00000159 l       .debug_str	00000000 
0000015f l       .debug_str	00000000 
00000173 l       .debug_str	00000000 
0000017f l       .debug_str	00000000 
00000184 l       .debug_str	00000000 
0000018c l       .debug_str	00000000 
00000193 l       .debug_str	00000000 
00000197 l       .debug_str	00000000 
0000019c l       .debug_str	00000000 
000001a3 l       .debug_str	00000000 
000001ac l       .debug_str	00000000 
000001b6 l       .debug_str	00000000 
000001bd l       .debug_str	00000000 
000001c2 l       .debug_str	00000000 
000001ce l       .debug_str	00000000 
000001d6 l       .debug_str	00000000 
000001df l       .debug_str	00000000 
000001e4 l       .debug_str	00000000 
000001e7 l       .debug_str	00000000 
000001eb l       .debug_str	00000000 
000001f4 l       .debug_str	00000000 
000001fb l       .debug_str	00000000 
00000200 l       .debug_str	00000000 
00000205 l       .debug_str	00000000 
0000020b l       .debug_str	00000000 
00000211 l       .debug_str	00000000 
0000021b l       .debug_str	00000000 
0000021e l       .debug_str	00000000 
00000224 l       .debug_str	00000000 
0000022e l       .debug_str	00000000 
00000236 l       .debug_str	00000000 
0000023c l       .debug_str	00000000 
00000242 l       .debug_str	00000000 
0000024d l       .debug_str	00000000 
00000256 l       .debug_str	00000000 
00000279 l       .debug_str	00000000 
00000298 l       .debug_str	00000000 
0000029a l       .debug_str	00000000 
0000029f l       .debug_str	00000000 
000002c6 l       .debug_str	00000000 
000002cb l       .debug_str	00000000 
000002d1 l       .debug_str	00000000 
000002d7 l       .debug_str	00000000 
000002da l       .debug_str	00000000 
000002e9 l       .debug_str	00000000 
000002f0 l       .debug_str	00000000 
000002f4 l       .debug_str	00000000 
000002fd l       .debug_str	00000000 
00000309 l       .debug_str	00000000 
00000322 l       .debug_str	00000000 
00000338 l       .debug_str	00000000 
00000342 l       .debug_str	00000000 
00000350 l       .debug_str	00000000 
00000354 l       .debug_str	00000000 
0000035f l       .debug_str	00000000 
00000366 l       .debug_str	00000000 
00000000 l     O .rodata.cst8	00000008 .Lanon.3ed011473997af99b525cde47c9eaaac.0
00000008 l     O .rodata.cst8	00000008 .Lanon.3ed011473997af99b525cde47c9eaaac.1
00000000 l     O .rodata..Lanon.3ed011473997af99b525cde47c9eaaac.10	00000007 .Lanon.3ed011473997af99b525cde47c9eaaac.10
00000000 l     O .rodata..Lanon.3ed011473997af99b525cde47c9eaaac.11	00000003 .Lanon.3ed011473997af99b525cde47c9eaaac.11
00000000 l     O .rodata..Lanon.3ed011473997af99b525cde47c9eaaac.12	00000006 .Lanon.3ed011473997af99b525cde47c9eaaac.12
00000000 l     O .rodata..Lanon.3ed011473997af99b525cde47c9eaaac.13	00000001 .Lanon.3ed011473997af99b525cde47c9eaaac.13
00000000 l     O .rodata..Lanon.3ed011473997af99b525cde47c9eaaac.3	00000010 .Lanon.3ed011473997af99b525cde47c9eaaac.3
00000010 l     O .rodata.cst8	00000008 .Lanon.3ed011473997af99b525cde47c9eaaac.4
00000000 l     O .rodata..Lanon.3ed011473997af99b525cde47c9eaaac.5	0000000d .Lanon.3ed011473997af99b525cde47c9eaaac.5
00000018 l     O .rodata.cst8	00000008 .Lanon.3ed011473997af99b525cde47c9eaaac.6
00000020 l     O .rodata.cst8	00000008 .Lanon.3ed011473997af99b525cde47c9eaaac.7
00000028 l     O .rodata.cst8	00000008 .Lanon.3ed011473997af99b525cde47c9eaaac.8
00000000 l     O .rodata..Lanon.3ed011473997af99b525cde47c9eaaac.9	00000006 .Lanon.3ed011473997af99b525cde47c9eaaac.9
00000000 l    d  .text.main	00000000 .text.main
00000000 l    d  .text.rust_begin_unwind	00000000 .text.rust_begin_unwind
00000000 l    d  .rodata..Lanon.3ed011473997af99b525cde47c9eaaac.2	00000000 .rodata..Lanon.3ed011473997af99b525cde47c9eaaac.2
00000000 l    d  .debug_abbrev	00000000 .debug_abbrev
00000000 l    d  .debug_info	00000000 .debug_info
00000000 l    d  .debug_ranges	00000000 .debug_ranges
00000000 l    d  .debug_frame	00000000 .debug_frame
00000000 l    d  .debug_line	00000000 .debug_line
00000000         *UND*	00000000 _ZN22piet_embedded_graphics7display13start_display17h32575c6ed50330eeE
00000000         *UND*	00000000 .hidden _ZN3app10app_sensor21start_sensor_listener17h6c0dc9a587e98e7dE
00000000         *UND*	00000000 .hidden _ZN3app12touch_sensor18start_touch_sensor17h2fc4f052afb06613E
00000000         *UND*	00000000 .hidden _ZN3app7display12test_display17h3a2b5249d93d345eE
00000000         *UND*	00000000 _ZN4core5panic8Location4file17hb5b09c8924a65fc3E
00000000         *UND*	00000000 _ZN4core5panic8Location4line17h367a930005b08c12E
00000000         *UND*	00000000 _ZN4core5panic9PanicInfo7payload17h0ba779b66a5d0935E
00000000         *UND*	00000000 _ZN4core5panic9PanicInfo8location17h080d51c1ed5f8f03E
00000000         *UND*	00000000 _ZN4core6option15Option$LT$T$GT$6unwrap17hf4116ac60be8c113E
00000000         *UND*	00000000 _ZN4core6result19Result$LT$T$C$E$GT$6expect17h47753e0abfe075d6E
00000000         *UND*	00000000 _ZN4core6result19Result$LT$T$C$E$GT$6expect17h5edf8d0f21db95a4E
00000000         *UND*	00000000 _ZN4core9panicking5panic17hfdd0eecc44a682f8E
00000000         *UND*	00000000 _ZN54_$LT$dyn$u20$core..any..Any$u2b$core..marker..Send$GT$12downcast_ref17he116d2b1c62b9352E
00000000         *UND*	00000000 _ZN6mynewt3sys7console5flush17hf9aae4f0cd77d4acE
00000000         *UND*	00000000 _ZN6mynewt3sys7console5print17h67a3059d9eb8a82eE
00000000         *UND*	00000000 _ZN6mynewt3sys7console6buffer17hdceaf289cb20d56aE
00000000         *UND*	00000000 _ZN6mynewt3sys7console8printint17he4a4f45a616375d0E
00000000         *UND*	00000000 _ZN6mynewt6kernel2os10eventq_run17h3409829a5a6bbae3E
00000000         *UND*	00000000 _ZN6mynewt6kernel2os15eventq_dflt_get17h1dc1684b870eee8cE
00000000         *UND*	00000000 _ZN6mynewt7sysinit17h4cdac33b185b4409E
00000000 g     F .text.main	000000de main
00000000 g     F .text.rust_begin_unwind	000000f0 rust_begin_unwind
00000000         *UND*	00000000 start_ble



Disassembly of section .text.main:

00000000 <main>:
main():
/Users/Luppy/PineTime/pinetime-rust-mynewt/rust/app/src/lib.rs:54
};

///  Main program that initialises the sensor, network driver and starts reading and sending sensor data in the background.
///  main() will be called at Mynewt startup. It replaces the C version of the main() function.
#[no_mangle]                 //  Don't mangle the name "main"
extern "C" fn main() -> ! {  //  Declare extern "C" because it will be called by Mynewt
   0:	b08c      	sub	sp, #48	; 0x30
/Users/Luppy/PineTime/pinetime-rust-mynewt/rust/app/src/lib.rs:59
    //  Initialise the Mynewt packages and internal temperature sensor driver. Any startup
    //  functions defined in pkg.yml of our custom drivers and libraries will be called by 
    //  sysinit().  Here are the startup functions consolidated by Mynewt:
    //  bin/targets/nrf52_my_sensor/generated/src/nrf52_my_sensor-sysinit-app.c
    mynewt::sysinit();
   2:	f7ff fffe 	bl	0 <_ZN6mynewt7sysinit17h4cdac33b185b4409E>
   6:	e7ff      	b.n	2 <_ZN3app10app_sensor21start_sensor_listener17h6c0dc9a587e98e7dE+0x2>
/Users/Luppy/PineTime/pinetime-rust-mynewt/rust/app/src/lib.rs:67
    //  sensor_network::start_server_transport()
    //    .expect("NET fail");

    //  Start polling the simulated temperature sensor every 10 seconds in the background.
    //  TODO: Replace by touch handler.
    app_sensor::start_sensor_listener()
   8:	f7ff fffe 	bl	0 <_ZN3app10app_sensor21start_sensor_listener17h6c0dc9a587e98e7dE>
   c:	9007      	str	r0, [sp, #28]
   e:	e7ff      	b.n	10 <main+0x10>
  10:	f240 0100 	movw	r1, #0
  14:	f2c0 0100 	movt	r1, #0
  18:	2208      	movs	r2, #8
  1a:	9807      	ldr	r0, [sp, #28]
  1c:	f7ff fffe 	bl	0 <_ZN4core6result19Result$LT$T$C$E$GT$6expect17h47753e0abfe075d6E>
  20:	e7ff      	b.n	2 <start_ble+0x2>
/Users/Luppy/PineTime/pinetime-rust-mynewt/rust/app/src/lib.rs:72
        .expect("TMP fail");

    //  Start Bluetooth Beacon.  TODO: Create a safe wrapper for starting Bluetooth LE.
    extern { fn start_ble() -> i32; }
    let rc = unsafe { start_ble() };
  22:	f7ff fffe 	bl	0 <start_ble>
  26:	9008      	str	r0, [sp, #32]
  28:	e7ff      	b.n	2a <main+0x2a>
/Users/Luppy/PineTime/pinetime-rust-mynewt/rust/app/src/lib.rs:73
    assert!(rc == 0, "BLE fail");
  2a:	9808      	ldr	r0, [sp, #32]
  2c:	2800      	cmp	r0, #0
  2e:	d104      	bne.n	3a <main+0x3a>
  30:	e7ff      	b.n	32 <main+0x32>
/Users/Luppy/PineTime/pinetime-rust-mynewt/rust/app/src/lib.rs:76

    //  Start the display
    druid::start_display()
  32:	f7ff fffe 	bl	0 <_ZN22piet_embedded_graphics7display13start_display17h32575c6ed50330eeE>
  36:	9006      	str	r0, [sp, #24]
  38:	e010      	b.n	5c <main+0x5c>
/Users/Luppy/PineTime/pinetime-rust-mynewt/rust/app/src/lib.rs:73
    assert!(rc == 0, "BLE fail");
  3a:	f240 0000 	movw	r0, #0
  3e:	f2c0 0000 	movt	r0, #0
  42:	900b      	str	r0, [sp, #44]	; 0x2c
  44:	9a0b      	ldr	r2, [sp, #44]	; 0x2c
  46:	9205      	str	r2, [sp, #20]
  48:	e7ff      	b.n	4a <main+0x4a>
  4a:	f240 0000 	movw	r0, #0
  4e:	f2c0 0000 	movt	r0, #0
  52:	2108      	movs	r1, #8
  54:	9a05      	ldr	r2, [sp, #20]
  56:	f7ff fffe 	bl	0 <_ZN4core9panicking5panic17hfdd0eecc44a682f8E>
  5a:	defe      	udf	#254	; 0xfe
/Users/Luppy/PineTime/pinetime-rust-mynewt/rust/app/src/lib.rs:76
    druid::start_display()
  5c:	f240 0100 	movw	r1, #0
  60:	f2c0 0100 	movt	r1, #0
  64:	2208      	movs	r2, #8
  66:	9806      	ldr	r0, [sp, #24]
  68:	f7ff fffe 	bl	0 <_ZN4core6result19Result$LT$T$C$E$GT$6expect17h47753e0abfe075d6E>
  6c:	e7ff      	b.n	2 <_ZN3app7display12test_display17h3a2b5249d93d345eE+0x2>
/Users/Luppy/PineTime/pinetime-rust-mynewt/rust/app/src/lib.rs:80
        .expect("DSP fail");

    //  Test the display
    display::test_display()
  6e:	f7ff fffe 	bl	0 <_ZN3app7display12test_display17h3a2b5249d93d345eE>
  72:	9004      	str	r0, [sp, #16]
  74:	e7ff      	b.n	76 <main+0x76>
  76:	f240 0100 	movw	r1, #0
  7a:	f2c0 0100 	movt	r1, #0
  7e:	220d      	movs	r2, #13
  80:	9804      	ldr	r0, [sp, #16]
  82:	f7ff fffe 	bl	0 <_ZN4core6result19Result$LT$T$C$E$GT$6expect17h47753e0abfe075d6E>
  86:	e7ff      	b.n	2 <_ZN3app12touch_sensor18start_touch_sensor17h2fc4f052afb06613E+0x2>
/Users/Luppy/PineTime/pinetime-rust-mynewt/rust/app/src/lib.rs:84
        .expect("DSP test fail");

    //  Start the touch sensor
    touch_sensor::start_touch_sensor()
  88:	f7ff fffe 	bl	0 <_ZN3app12touch_sensor18start_touch_sensor17h2fc4f052afb06613E>
  8c:	9003      	str	r0, [sp, #12]
  8e:	e7ff      	b.n	90 <main+0x90>
  90:	f240 0100 	movw	r1, #0
  94:	f2c0 0100 	movt	r1, #0
  98:	2208      	movs	r2, #8
  9a:	9803      	ldr	r0, [sp, #12]
  9c:	f7ff fffe 	bl	0 <_ZN4core6result19Result$LT$T$C$E$GT$6expect17h47753e0abfe075d6E>
  a0:	e7ff      	b.n	a2 <main+0xa2>
/Users/Luppy/PineTime/pinetime-rust-mynewt/rust/app/src/lib.rs:95

    //  Launch the Druid UI
    //  hello::launch();

    //  Main event loop
    loop {                            //  Loop forever...
  a2:	e7ff      	b.n	a4 <main+0xa4>
  a4:	a809      	add	r0, sp, #36	; 0x24
/Users/Luppy/PineTime/pinetime-rust-mynewt/rust/app/src/lib.rs:97
        os::eventq_run(               //  Processing events...
            os::eventq_dflt_get()     //  From default event queue.
  a6:	f7ff fffe 	bl	0 <_ZN6mynewt6kernel2os15eventq_dflt_get17h1dc1684b870eee8cE>
  aa:	e7ff      	b.n	22 <main+0x22>
  ac:	f240 0100 	movw	r1, #0
  b0:	f2c0 0100 	movt	r1, #0
  b4:	a809      	add	r0, sp, #36	; 0x24
  b6:	2208      	movs	r2, #8
  b8:	f7ff fffe 	bl	0 <_ZN4core6result19Result$LT$T$C$E$GT$6expect17h5edf8d0f21db95a4E>
  bc:	9002      	str	r0, [sp, #8]
  be:	e7ff      	b.n	c0 <main+0xc0>
/Users/Luppy/PineTime/pinetime-rust-mynewt/rust/app/src/lib.rs:96
        os::eventq_run(               //  Processing events...
  c0:	9802      	ldr	r0, [sp, #8]
  c2:	f7ff fffe 	bl	0 <_ZN6mynewt6kernel2os10eventq_run17h3409829a5a6bbae3E>
  c6:	9001      	str	r0, [sp, #4]
  c8:	e7ff      	b.n	ca <main+0xca>
  ca:	f240 0100 	movw	r1, #0
  ce:	f2c0 0100 	movt	r1, #0
  d2:	2208      	movs	r2, #8
  d4:	9801      	ldr	r0, [sp, #4]
  d6:	f7ff fffe 	bl	0 <_ZN4core6result19Result$LT$T$C$E$GT$6expect17h47753e0abfe075d6E>
  da:	e7ff      	b.n	dc <main+0xdc>
/Users/Luppy/PineTime/pinetime-rust-mynewt/rust/app/src/lib.rs:95
    loop {                            //  Loop forever...
  dc:	e7e2      	b.n	a4 <main+0xa4>

Disassembly of section .text.rust_begin_unwind:

00000000 <rust_begin_unwind>:
rust_begin_unwind():
/Users/Luppy/PineTime/pinetime-rust-mynewt/rust/app/src/lib.rs:106
    //  Never comes here
}

///  This function is called on panic, like an assertion failure. We display the filename and line number and pause in the debugger. From https://os.phil-opp.com/freestanding-rust-binary/
#[panic_handler]
fn panic(info: &PanicInfo) -> ! {
   0:	b08a      	sub	sp, #40	; 0x28
   2:	9004      	str	r0, [sp, #16]
/Users/Luppy/PineTime/pinetime-rust-mynewt/rust/app/src/lib.rs:108
    //  Display the filename and line number to the Semihosting Console.
    console::print("panic ");
   4:	f240 0000 	movw	r0, #0
   8:	f2c0 0000 	movt	r0, #0
   c:	2106      	movs	r1, #6
   e:	f7ff fffe 	bl	0 <_ZN6mynewt3sys7console5print17h67a3059d9eb8a82eE>
  12:	e7ff      	b.n	14 <rust_begin_unwind+0x14>
/Users/Luppy/PineTime/pinetime-rust-mynewt/rust/app/src/lib.rs:109
    if let Some(location) = info.location() {
  14:	9804      	ldr	r0, [sp, #16]
  16:	f7ff fffe 	bl	0 <_ZN4core5panic9PanicInfo8location17h080d51c1ed5f8f03E>
  1a:	9005      	str	r0, [sp, #20]
  1c:	e7ff      	b.n	1e <rust_begin_unwind+0x1e>
  1e:	9805      	ldr	r0, [sp, #20]
  20:	2800      	cmp	r0, #0
  22:	d108      	bne.n	36 <rust_begin_unwind+0x36>
  24:	e7ff      	b.n	26 <rust_begin_unwind+0x26>
/Users/Luppy/PineTime/pinetime-rust-mynewt/rust/app/src/lib.rs:116
        let line = location.line();
        console::print("at ");       console::buffer(&file);
        console::print(" line ");    console::printint(line as i32);
        console::print("\n");        console::flush();
    } else {
        console::print("no loc\n");  console::flush();
  26:	f240 0000 	movw	r0, #0
  2a:	f2c0 0000 	movt	r0, #0
  2e:	2107      	movs	r1, #7
  30:	f7ff fffe 	bl	0 <_ZN6mynewt3sys7console5print17h67a3059d9eb8a82eE>
  34:	e031      	b.n	9a <rust_begin_unwind+0x9a>
/Users/Luppy/PineTime/pinetime-rust-mynewt/rust/app/src/lib.rs:109
    if let Some(location) = info.location() {
  36:	9805      	ldr	r0, [sp, #20]
  38:	9006      	str	r0, [sp, #24]
/Users/Luppy/PineTime/pinetime-rust-mynewt/rust/app/src/lib.rs:110
        let file = location.file();
  3a:	9806      	ldr	r0, [sp, #24]
  3c:	f7ff fffe 	bl	0 <_ZN4core5panic8Location4file17hb5b09c8924a65fc3E>
  40:	9108      	str	r1, [sp, #32]
  42:	9007      	str	r0, [sp, #28]
  44:	e7ff      	b.n	46 <rust_begin_unwind+0x46>
/Users/Luppy/PineTime/pinetime-rust-mynewt/rust/app/src/lib.rs:111
        let line = location.line();
  46:	9806      	ldr	r0, [sp, #24]
  48:	f7ff fffe 	bl	0 <_ZN4core5panic8Location4line17h367a930005b08c12E>
  4c:	9009      	str	r0, [sp, #36]	; 0x24
  4e:	e7ff      	b.n	50 <rust_begin_unwind+0x50>
/Users/Luppy/PineTime/pinetime-rust-mynewt/rust/app/src/lib.rs:112
        console::print("at ");       console::buffer(&file);
  50:	f240 0000 	movw	r0, #0
  54:	f2c0 0000 	movt	r0, #0
  58:	2103      	movs	r1, #3
  5a:	f7ff fffe 	bl	0 <_ZN6mynewt3sys7console5print17h67a3059d9eb8a82eE>
  5e:	e7ff      	b.n	60 <rust_begin_unwind+0x60>
  60:	9807      	ldr	r0, [sp, #28]
  62:	9908      	ldr	r1, [sp, #32]
  64:	f7ff fffe 	bl	0 <_ZN6mynewt3sys7console6buffer17hdceaf289cb20d56aE>
  68:	e7ff      	b.n	2 <rust_begin_unwind+0x2>
/Users/Luppy/PineTime/pinetime-rust-mynewt/rust/app/src/lib.rs:113
        console::print(" line ");    console::printint(line as i32);
  6a:	f240 0000 	movw	r0, #0
  6e:	f2c0 0000 	movt	r0, #0
  72:	2106      	movs	r1, #6
  74:	f7ff fffe 	bl	0 <_ZN6mynewt3sys7console5print17h67a3059d9eb8a82eE>
  78:	e7ff      	b.n	7a <rust_begin_unwind+0x7a>
  7a:	9809      	ldr	r0, [sp, #36]	; 0x24
  7c:	f7ff fffe 	bl	0 <_ZN6mynewt3sys7console8printint17he4a4f45a616375d0E>
  80:	e7ff      	b.n	2 <rust_begin_unwind+0x2>
/Users/Luppy/PineTime/pinetime-rust-mynewt/rust/app/src/lib.rs:114
        console::print("\n");        console::flush();
  82:	f240 0000 	movw	r0, #0
  86:	f2c0 0000 	movt	r0, #0
  8a:	2101      	movs	r1, #1
  8c:	f7ff fffe 	bl	0 <_ZN6mynewt3sys7console5print17h67a3059d9eb8a82eE>
  90:	e7ff      	b.n	2 <_ZN6mynewt3sys7console5flush17hf9aae4f0cd77d4acE+0x2>
  92:	f7ff fffe 	bl	0 <_ZN6mynewt3sys7console5flush17hf9aae4f0cd77d4acE>
  96:	e7ff      	b.n	98 <rust_begin_unwind+0x98>
/Users/Luppy/PineTime/pinetime-rust-mynewt/rust/app/src/lib.rs:109
    if let Some(location) = info.location() {
  98:	e003      	b.n	a2 <rust_begin_unwind+0xa2>
/Users/Luppy/PineTime/pinetime-rust-mynewt/rust/app/src/lib.rs:116
        console::print("no loc\n");  console::flush();
  9a:	f7ff fffe 	bl	0 <_ZN6mynewt3sys7console5flush17hf9aae4f0cd77d4acE>
  9e:	e7ff      	b.n	a0 <rust_begin_unwind+0xa0>
/Users/Luppy/PineTime/pinetime-rust-mynewt/rust/app/src/lib.rs:109
    if let Some(location) = info.location() {
  a0:	e7ff      	b.n	a2 <rust_begin_unwind+0xa2>
_ZN8cortex_m3asm4bkpt17hefd517d21f3e6667E():
/Users/Luppy/.cargo/registry/src/github.com-1ecc6299db9ec823/cortex-m-0.6.1/src/asm.rs:11
/// exception.
#[inline(always)]
pub fn bkpt() {
    match () {
        #[cfg(all(cortex_m, feature = "inline-asm"))]
        () => unsafe { asm!("bkpt" :::: "volatile") },
  a2:	be00      	bkpt	0x0000
rust_begin_unwind():
/Users/Luppy/PineTime/pinetime-rust-mynewt/rust/app/src/lib.rs:119
    }
    //  Pause in the debugger.
    bkpt();
  a4:	e7ff      	b.n	a6 <rust_begin_unwind+0xa6>
/Users/Luppy/PineTime/pinetime-rust-mynewt/rust/app/src/lib.rs:121
    //  Display the payload.
    console::print(info.payload().downcast_ref::<&str>().unwrap());
  a6:	9804      	ldr	r0, [sp, #16]
  a8:	f7ff fffe 	bl	0 <_ZN4core5panic9PanicInfo7payload17h0ba779b66a5d0935E>
  ac:	9003      	str	r0, [sp, #12]
  ae:	9102      	str	r1, [sp, #8]
  b0:	e7ff      	b.n	b2 <rust_begin_unwind+0xb2>
  b2:	9803      	ldr	r0, [sp, #12]
  b4:	9902      	ldr	r1, [sp, #8]
  b6:	f7ff fffe 	bl	0 <_ZN54_$LT$dyn$u20$core..any..Any$u2b$core..marker..Send$GT$12downcast_ref17he116d2b1c62b9352E>
  ba:	9001      	str	r0, [sp, #4]
  bc:	e7ff      	b.n	be <rust_begin_unwind+0xbe>
  be:	9801      	ldr	r0, [sp, #4]
  c0:	f7ff fffe 	bl	0 <_ZN4core6option15Option$LT$T$GT$6unwrap17hf4116ac60be8c113E>
  c4:	9000      	str	r0, [sp, #0]
  c6:	e7ff      	b.n	c8 <rust_begin_unwind+0xc8>
  c8:	9800      	ldr	r0, [sp, #0]
  ca:	6800      	ldr	r0, [r0, #0]
  cc:	9900      	ldr	r1, [sp, #0]
  ce:	6849      	ldr	r1, [r1, #4]
  d0:	f7ff fffe 	bl	0 <_ZN6mynewt3sys7console5print17h67a3059d9eb8a82eE>
  d4:	e7ff      	b.n	2 <rust_begin_unwind+0x2>
/Users/Luppy/PineTime/pinetime-rust-mynewt/rust/app/src/lib.rs:122
    console::print("\n");  console::flush();
  d6:	f240 0000 	movw	r0, #0
  da:	f2c0 0000 	movt	r0, #0
  de:	2101      	movs	r1, #1
  e0:	f7ff fffe 	bl	0 <_ZN6mynewt3sys7console5print17h67a3059d9eb8a82eE>
  e4:	e7ff      	b.n	2 <_ZN6mynewt3sys7console5flush17hf9aae4f0cd77d4acE+0x2>
  e6:	f7ff fffe 	bl	0 <_ZN6mynewt3sys7console5flush17hf9aae4f0cd77d4acE>
  ea:	e7ff      	b.n	ec <rust_begin_unwind+0xec>
/Users/Luppy/PineTime/pinetime-rust-mynewt/rust/app/src/lib.rs:124
    //  Loop forever so that device won't restart.
    loop {}
  ec:	e7ff      	b.n	ee <rust_begin_unwind+0xee>
  ee:	e7fe      	b.n	ee <rust_begin_unwind+0xee>

app-d559bf047a1af437.57zro0km3f19v8o8.rcgu.o:     file format elf32-littlearm

SYMBOL TABLE:
00000000 l    df *ABS*	00000000 57zro0km3f19v8o8
0000074d l       .debug_str	00000000 
000001f3 l       .debug_str	00000000 
0000028c l       .debug_str	00000000 
000002c5 l       .debug_str	00000000 
000002c7 l       .debug_str	00000000 
000002c9 l       .debug_str	00000000 
00000307 l       .debug_str	00000000 
0000039e l       .debug_str	00000000 
000003d2 l       .debug_str	00000000 
0000046f l       .debug_str	00000000 
00000508 l       .debug_str	00000000 
0000053c l       .debug_str	00000000 
00000545 l       .debug_str	00000000 
00000553 l       .debug_str	00000000 
0000056b l       .debug_str	00000000 
00000579 l       .debug_str	00000000 
000005ae l       .debug_str	00000000 
00000608 l       .debug_str	00000000 
000006bf l       .debug_str	00000000 
000006fa l       .debug_str	00000000 
00000780 l       .debug_str	00000000 
00000785 l       .debug_str	00000000 
0000078b l       .debug_str	00000000 
000007e9 l       .debug_str	00000000 
00000853 l       .debug_str	00000000 
00000856 l       .debug_str	00000000 
00000859 l       .debug_str	00000000 
00000866 l       .debug_str	00000000 
00000870 l       .debug_str	00000000 
00000880 l       .debug_str	00000000 
00000885 l       .debug_str	00000000 
00000889 l       .debug_str	00000000 
000008c3 l       .debug_str	00000000 
00000905 l       .debug_str	00000000 
00000908 l       .debug_str	00000000 
0000090b l       .debug_str	00000000 
0000090f l       .debug_str	00000000 
00000919 l       .debug_str	00000000 
0000091e l       .debug_str	00000000 
00000926 l       .debug_str	00000000 
00000928 l       .debug_str	00000000 
00000932 l       .debug_str	00000000 
00000000 l       .debug_str	00000000 
00000041 l       .debug_str	00000000 
00000055 l       .debug_str	00000000 
00000080 l       .debug_str	00000000 
00000092 l       .debug_str	00000000 
0000009d l       .debug_str	00000000 
000000a4 l       .debug_str	00000000 
000000ad l       .debug_str	00000000 
000000b2 l       .debug_str	00000000 
000000b9 l       .debug_str	00000000 
000000bf l       .debug_str	00000000 
000000ce l       .debug_str	00000000 
000000d2 l       .debug_str	00000000 
000000d6 l       .debug_str	00000000 
000000da l       .debug_str	00000000 
000000e0 l       .debug_str	00000000 
000000e7 l       .debug_str	00000000 
000000eb l       .debug_str	00000000 
000000f1 l       .debug_str	00000000 
000000fc l       .debug_str	00000000 
00000101 l       .debug_str	00000000 
00000108 l       .debug_str	00000000 
0000010c l       .debug_str	00000000 
00000111 l       .debug_str	00000000 
0000011c l       .debug_str	00000000 
00000123 l       .debug_str	00000000 
0000012a l       .debug_str	00000000 
0000012c l       .debug_str	00000000 
00000131 l       .debug_str	00000000 
00000167 l       .debug_str	00000000 
00000174 l       .debug_str	00000000 
00000181 l       .debug_str	00000000 
00000184 l       .debug_str	00000000 
00000186 l       .debug_str	00000000 
000001bb l       .debug_str	00000000 
000001bd l       .debug_str	00000000 
00000000 l     O .rodata..Lanon.c7aaa99bc53988b6f7d29b1957ca6ad9.1	00000010 .Lanon.c7aaa99bc53988b6f7d29b1957ca6ad9.1
00000000 l     O .rodata..Lanon.c7aaa99bc53988b6f7d29b1957ca6ad9.10	00000010 .Lanon.c7aaa99bc53988b6f7d29b1957ca6ad9.10
00000000 l     O .rodata..Lanon.c7aaa99bc53988b6f7d29b1957ca6ad9.11	00000010 .Lanon.c7aaa99bc53988b6f7d29b1957ca6ad9.11
00000000 l     O .rodata..Lanon.c7aaa99bc53988b6f7d29b1957ca6ad9.12	00000018 .Lanon.c7aaa99bc53988b6f7d29b1957ca6ad9.12
00000000 l     O .rodata..Lanon.c7aaa99bc53988b6f7d29b1957ca6ad9.13	00000010 .Lanon.c7aaa99bc53988b6f7d29b1957ca6ad9.13
00000000 l     O .rodata..Lanon.c7aaa99bc53988b6f7d29b1957ca6ad9.14	00000010 .Lanon.c7aaa99bc53988b6f7d29b1957ca6ad9.14
00000000 l     O .rodata..Lanon.c7aaa99bc53988b6f7d29b1957ca6ad9.15	00000016 .Lanon.c7aaa99bc53988b6f7d29b1957ca6ad9.15
00000000 l     O .rodata..Lanon.c7aaa99bc53988b6f7d29b1957ca6ad9.16	00000010 .Lanon.c7aaa99bc53988b6f7d29b1957ca6ad9.16
00000000 l     O .rodata..Lanon.c7aaa99bc53988b6f7d29b1957ca6ad9.17	00000010 .Lanon.c7aaa99bc53988b6f7d29b1957ca6ad9.17
00000000 l     O .rodata..Lanon.c7aaa99bc53988b6f7d29b1957ca6ad9.18	00000010 .Lanon.c7aaa99bc53988b6f7d29b1957ca6ad9.18
00000000 l     O .rodata..Lanon.c7aaa99bc53988b6f7d29b1957ca6ad9.2	00000010 .Lanon.c7aaa99bc53988b6f7d29b1957ca6ad9.2
00000000 l     O .rodata..Lanon.c7aaa99bc53988b6f7d29b1957ca6ad9.3	00000010 .Lanon.c7aaa99bc53988b6f7d29b1957ca6ad9.3
00000000 l     O .rodata..Lanon.c7aaa99bc53988b6f7d29b1957ca6ad9.4	00000010 .Lanon.c7aaa99bc53988b6f7d29b1957ca6ad9.4
00000000 l     O .rodata..Lanon.c7aaa99bc53988b6f7d29b1957ca6ad9.5	00000010 .Lanon.c7aaa99bc53988b6f7d29b1957ca6ad9.5
00000000 l     O .rodata..Lanon.c7aaa99bc53988b6f7d29b1957ca6ad9.6	00000010 .Lanon.c7aaa99bc53988b6f7d29b1957ca6ad9.6
00000000 l     O .rodata..Lanon.c7aaa99bc53988b6f7d29b1957ca6ad9.7	00000010 .Lanon.c7aaa99bc53988b6f7d29b1957ca6ad9.7
00000000 l     O .rodata..Lanon.c7aaa99bc53988b6f7d29b1957ca6ad9.8	00000010 .Lanon.c7aaa99bc53988b6f7d29b1957ca6ad9.8
00000000 l     O .rodata..Lanon.c7aaa99bc53988b6f7d29b1957ca6ad9.9	00000010 .Lanon.c7aaa99bc53988b6f7d29b1957ca6ad9.9
00000000 l     O .rodata.str.0	0000001f str.0
00000000 l     O .rodata.str.1	00000021 str.1
00000000 l     O .rodata.str.2	0000001c str.2
00000000 l     O .rodata.str.3	00000021 str.3
00000000 l    d  .text._ZN116_$LT$embedded_graphics..primitives..circle..Circle$LT$C$GT$$u20$as$u20$core..iter..traits..collect..IntoIterator$GT$9into_iter17h00871ecc2024299aE	00000000 .text._ZN116_$LT$embedded_graphics..primitives..circle..Circle$LT$C$GT$$u20$as$u20$core..iter..traits..collect..IntoIterator$GT$9into_iter17h00871ecc2024299aE
00000000 l    d  .text._ZN119_$LT$embedded_graphics..primitives..circle..Circle$LT$C$GT$$u20$as$u20$embedded_graphics..style..WithStyle$LT$C$GT$$GT$4fill17h3e93264c3e4e60edE	00000000 .text._ZN119_$LT$embedded_graphics..primitives..circle..Circle$LT$C$GT$$u20$as$u20$embedded_graphics..style..WithStyle$LT$C$GT$$GT$4fill17h3e93264c3e4e60edE
00000000 l    d  .text._ZN120_$LT$$RF$embedded_graphics..primitives..circle..Circle$LT$C$GT$$u20$as$u20$core..iter..traits..collect..IntoIterator$GT$9into_iter17hc8fe3e5a21418a3fE	00000000 .text._ZN120_$LT$$RF$embedded_graphics..primitives..circle..Circle$LT$C$GT$$u20$as$u20$core..iter..traits..collect..IntoIterator$GT$9into_iter17hc8fe3e5a21418a3fE
00000000 l    d  .text._ZN121_$LT$embedded_graphics..primitives..circle..CircleIterator$LT$C$GT$$u20$as$u20$core..iter..traits..iterator..Iterator$GT$4next17h5c50471d0212345dE	00000000 .text._ZN121_$LT$embedded_graphics..primitives..circle..CircleIterator$LT$C$GT$$u20$as$u20$core..iter..traits..iterator..Iterator$GT$4next17h5c50471d0212345dE
00000000 l    d  .text._ZN121_$LT$embedded_graphics..primitives..circle..CircleIterator$LT$C$GT$$u20$as$u20$core..iter..traits..iterator..Iterator$GT$4next28_$u7b$$u7b$closure$u7d$$u7d$17h320a754653374208E	00000000 .text._ZN121_$LT$embedded_graphics..primitives..circle..CircleIterator$LT$C$GT$$u20$as$u20$core..iter..traits..iterator..Iterator$GT$4next28_$u7b$$u7b$closure$u7d$$u7d$17h320a754653374208E
00000000 l    d  .text._ZN17embedded_graphics10primitives6circle15Circle$LT$C$GT$3new17h919718b5bd96a6bbE	00000000 .text._ZN17embedded_graphics10primitives6circle15Circle$LT$C$GT$3new17h919718b5bd96a6bbE
00000000 l    d  .rodata..Lanon.c7aaa99bc53988b6f7d29b1957ca6ad9.0	00000000 .rodata..Lanon.c7aaa99bc53988b6f7d29b1957ca6ad9.0
00000000 l    d  .debug_loc	00000000 .debug_loc
00000000 l    d  .debug_abbrev	00000000 .debug_abbrev
00000000 l    d  .debug_info	00000000 .debug_info
00000000 l    d  .debug_ranges	00000000 .debug_ranges
00000000 l    d  .debug_frame	00000000 .debug_frame
00000000 l    d  .debug_line	00000000 .debug_line
00000000         *UND*	00000000 _ZN104_$LT$embedded_graphics..coord..internal_coord..Coord$u20$as$u20$core..ops..index..Index$LT$usize$GT$$GT$5index17h6ee4fd1eb3180c09E
00000000         *UND*	00000000 _ZN104_$LT$embedded_graphics..coord..internal_coord..Coord$u20$as$u20$embedded_graphics..coord..ToUnsigned$GT$11to_unsigned17hae862e0dbc899c11E
00000000 g     F .text._ZN116_$LT$embedded_graphics..primitives..circle..Circle$LT$C$GT$$u20$as$u20$core..iter..traits..collect..IntoIterator$GT$9into_iter17h00871ecc2024299aE	0000000a _ZN116_$LT$embedded_graphics..primitives..circle..Circle$LT$C$GT$$u20$as$u20$core..iter..traits..collect..IntoIterator$GT$9into_iter17h00871ecc2024299aE
00000000 g     F .text._ZN119_$LT$embedded_graphics..primitives..circle..Circle$LT$C$GT$$u20$as$u20$embedded_graphics..style..WithStyle$LT$C$GT$$GT$4fill17h3e93264c3e4e60edE	00000028 _ZN119_$LT$embedded_graphics..primitives..circle..Circle$LT$C$GT$$u20$as$u20$embedded_graphics..style..WithStyle$LT$C$GT$$GT$4fill17h3e93264c3e4e60edE
00000000 g     F .text._ZN120_$LT$$RF$embedded_graphics..primitives..circle..Circle$LT$C$GT$$u20$as$u20$core..iter..traits..collect..IntoIterator$GT$9into_iter17hc8fe3e5a21418a3fE	000000b2 _ZN120_$LT$$RF$embedded_graphics..primitives..circle..Circle$LT$C$GT$$u20$as$u20$core..iter..traits..collect..IntoIterator$GT$9into_iter17hc8fe3e5a21418a3fE
00000000 g     F .text._ZN121_$LT$embedded_graphics..primitives..circle..CircleIterator$LT$C$GT$$u20$as$u20$core..iter..traits..iterator..Iterator$GT$4next17h5c50471d0212345dE	00000540 _ZN121_$LT$embedded_graphics..primitives..circle..CircleIterator$LT$C$GT$$u20$as$u20$core..iter..traits..iterator..Iterator$GT$4next17h5c50471d0212345dE
00000000 g     F .text._ZN121_$LT$embedded_graphics..primitives..circle..CircleIterator$LT$C$GT$$u20$as$u20$core..iter..traits..iterator..Iterator$GT$4next28_$u7b$$u7b$closure$u7d$$u7d$17h320a754653374208E	00000048 _ZN121_$LT$embedded_graphics..primitives..circle..CircleIterator$LT$C$GT$$u20$as$u20$core..iter..traits..iterator..Iterator$GT$4next28_$u7b$$u7b$closure$u7d$$u7d$17h320a754653374208E
00000000 g     F .text._ZN17embedded_graphics10primitives6circle15Circle$LT$C$GT$3new17h919718b5bd96a6bbE	0000004e _ZN17embedded_graphics10primitives6circle15Circle$LT$C$GT$3new17h919718b5bd96a6bbE
00000000         *UND*	00000000 _ZN17embedded_graphics5coord14internal_coord5Coord3new17h337630cfd7cf8814E
00000000         *UND*	00000000 _ZN4core6option15Option$LT$T$GT$3map17hf51d1d6ead7d6077E
00000000         *UND*	00000000 _ZN4core6option15Option$LT$T$GT$6expect17hc4cab784399a1c6dE
00000000         *UND*	00000000 _ZN4core6option15Option$LT$T$GT$7is_none17h0322cadb15e896fdE
00000000         *UND*	00000000 _ZN4core6option15Option$LT$T$GT$7is_some17hf12135d0d5d4ce47E
00000000         *UND*	00000000 _ZN4core9panicking5panic17hfdd0eecc44a682f8E
00000000         *UND*	00000000 _ZN83_$LT$embedded_graphics..style..Style$LT$P$GT$$u20$as$u20$core..default..Default$GT$7default17h18df05f9e5f2bd22E



Disassembly of section .text._ZN116_$LT$embedded_graphics..primitives..circle..Circle$LT$C$GT$$u20$as$u20$core..iter..traits..collect..IntoIterator$GT$9into_iter17h00871ecc2024299aE:

00000000 <_ZN116_$LT$embedded_graphics..primitives..circle..Circle$LT$C$GT$$u20$as$u20$core..iter..traits..collect..IntoIterator$GT$9into_iter17h00871ecc2024299aE>:
_ZN116_$LT$embedded_graphics..primitives..circle..Circle$LT$C$GT$$u20$as$u20$core..iter..traits..collect..IntoIterator$GT$9into_iter17h00871ecc2024299aE():
/Users/Luppy/.cargo/registry/src/github.com-1ecc6299db9ec823/embedded-graphics-0.5.2/src/primitives/circle.rs:128
    C: PixelColor,
{
    type Item = Pixel<C>;
    type IntoIter = CircleIterator<C>;

    fn into_iter(self) -> Self::IntoIter {
   0:	b580      	push	{r7, lr}
/Users/Luppy/.cargo/registry/src/github.com-1ecc6299db9ec823/embedded-graphics-0.5.2/src/primitives/circle.rs:129
        (&self).into_iter()
   2:	f7ff fffe 	bl	0 <_ZN116_$LT$embedded_graphics..primitives..circle..Circle$LT$C$GT$$u20$as$u20$core..iter..traits..collect..IntoIterator$GT$9into_iter17h00871ecc2024299aE>
   6:	e7ff      	b.n	8 <_ZN116_$LT$embedded_graphics..primitives..circle..Circle$LT$C$GT$$u20$as$u20$core..iter..traits..collect..IntoIterator$GT$9into_iter17h00871ecc2024299aE+0x8>
/Users/Luppy/.cargo/registry/src/github.com-1ecc6299db9ec823/embedded-graphics-0.5.2/src/primitives/circle.rs:130
    }
   8:	bd80      	pop	{r7, pc}

Disassembly of section .text._ZN119_$LT$embedded_graphics..primitives..circle..Circle$LT$C$GT$$u20$as$u20$embedded_graphics..style..WithStyle$LT$C$GT$$GT$4fill17h3e93264c3e4e60edE:

00000000 <_ZN119_$LT$embedded_graphics..primitives..circle..Circle$LT$C$GT$$u20$as$u20$embedded_graphics..style..WithStyle$LT$C$GT$$GT$4fill17h3e93264c3e4e60edE>:
_ZN119_$LT$embedded_graphics..primitives..circle..Circle$LT$C$GT$$u20$as$u20$embedded_graphics..style..WithStyle$LT$C$GT$$GT$4fill17h3e93264c3e4e60edE():
/Users/Luppy/.cargo/registry/src/github.com-1ecc6299db9ec823/embedded-graphics-0.5.2/src/primitives/circle.rs:114
    fn fill(mut self, color: Option<C>) -> Self {
   0:	b5f0      	push	{r4, r5, r6, r7, lr}
   2:	b081      	sub	sp, #4
   4:	469c      	mov	ip, r3
   6:	4696      	mov	lr, r2
   8:	f8ad 2000 	strh.w	r2, [sp]
   c:	f8ad 3002 	strh.w	r3, [sp, #2]
/Users/Luppy/.cargo/registry/src/github.com-1ecc6299db9ec823/embedded-graphics-0.5.2/src/primitives/circle.rs:115
        self.style.fill_color = color;
  10:	f8bd 2000 	ldrh.w	r2, [sp]
  14:	f8bd 3002 	ldrh.w	r3, [sp, #2]
  18:	818a      	strh	r2, [r1, #12]
  1a:	81cb      	strh	r3, [r1, #14]
/Users/Luppy/.cargo/registry/src/github.com-1ecc6299db9ec823/embedded-graphics-0.5.2/src/primitives/circle.rs:117
        self
  1c:	e891 00fc 	ldmia.w	r1, {r2, r3, r4, r5, r6, r7}
  20:	e880 00fc 	stmia.w	r0, {r2, r3, r4, r5, r6, r7}
/Users/Luppy/.cargo/registry/src/github.com-1ecc6299db9ec823/embedded-graphics-0.5.2/src/primitives/circle.rs:118
    }
  24:	b001      	add	sp, #4
  26:	bdf0      	pop	{r4, r5, r6, r7, pc}

Disassembly of section .text._ZN120_$LT$$RF$embedded_graphics..primitives..circle..Circle$LT$C$GT$$u20$as$u20$core..iter..traits..collect..IntoIterator$GT$9into_iter17hc8fe3e5a21418a3fE:

00000000 <_ZN120_$LT$$RF$embedded_graphics..primitives..circle..Circle$LT$C$GT$$u20$as$u20$core..iter..traits..collect..IntoIterator$GT$9into_iter17hc8fe3e5a21418a3fE>:
_ZN120_$LT$$RF$embedded_graphics..primitives..circle..Circle$LT$C$GT$$u20$as$u20$core..iter..traits..collect..IntoIterator$GT$9into_iter17hc8fe3e5a21418a3fE():
/Users/Luppy/.cargo/registry/src/github.com-1ecc6299db9ec823/embedded-graphics-0.5.2/src/primitives/circle.rs:140
    C: PixelColor,
{
    type Item = Pixel<C>;
    type IntoIter = CircleIterator<C>;

    fn into_iter(self) -> Self::IntoIter {
   0:	b5b0      	push	{r4, r5, r7, lr}
   2:	b08c      	sub	sp, #48	; 0x30
   4:	9108      	str	r1, [sp, #32]
/Users/Luppy/.cargo/registry/src/github.com-1ecc6299db9ec823/embedded-graphics-0.5.2/src/primitives/circle.rs:142
        CircleIterator {
            center: self.center,
   6:	9908      	ldr	r1, [sp, #32]
   8:	680a      	ldr	r2, [r1, #0]
   a:	684b      	ldr	r3, [r1, #4]
/Users/Luppy/.cargo/registry/src/github.com-1ecc6299db9ec823/embedded-graphics-0.5.2/src/primitives/circle.rs:143
            radius: self.radius,
   c:	f8d1 c008 	ldr.w	ip, [r1, #8]
/Users/Luppy/.cargo/registry/src/github.com-1ecc6299db9ec823/embedded-graphics-0.5.2/src/primitives/circle.rs:144
            style: self.style,
  10:	f8b1 e014 	ldrh.w	lr, [r1, #20]
  14:	f8ad e02c 	strh.w	lr, [sp, #44]	; 0x2c
  18:	f8d1 e00c 	ldr.w	lr, [r1, #12]
  1c:	6909      	ldr	r1, [r1, #16]
  1e:	910a      	str	r1, [sp, #40]	; 0x28
  20:	f8cd e024 	str.w	lr, [sp, #36]	; 0x24
/Users/Luppy/.cargo/registry/src/github.com-1ecc6299db9ec823/embedded-graphics-0.5.2/src/primitives/circle.rs:145
            x: -(self.radius as i32),
  24:	9908      	ldr	r1, [sp, #32]
  26:	6889      	ldr	r1, [r1, #8]
  28:	f1b1 4f00 	cmp.w	r1, #2147483648	; 0x80000000
  2c:	9007      	str	r0, [sp, #28]
  2e:	9206      	str	r2, [sp, #24]
  30:	9305      	str	r3, [sp, #20]
  32:	f8cd c010 	str.w	ip, [sp, #16]
  36:	9103      	str	r1, [sp, #12]
  38:	d023      	beq.n	82 <_ZN120_$LT$$RF$embedded_graphics..primitives..circle..Circle$LT$C$GT$$u20$as$u20$core..iter..traits..collect..IntoIterator$GT$9into_iter17hc8fe3e5a21418a3fE+0x82>
  3a:	e7ff      	b.n	3c <_ZN120_$LT$$RF$embedded_graphics..primitives..circle..Circle$LT$C$GT$$u20$as$u20$core..iter..traits..collect..IntoIterator$GT$9into_iter17hc8fe3e5a21418a3fE+0x3c>
  3c:	9803      	ldr	r0, [sp, #12]
  3e:	4241      	negs	r1, r0
/Users/Luppy/.cargo/registry/src/github.com-1ecc6299db9ec823/embedded-graphics-0.5.2/src/primitives/circle.rs:146
            y: -(self.radius as i32),
  40:	9a08      	ldr	r2, [sp, #32]
  42:	6892      	ldr	r2, [r2, #8]
  44:	f1b2 4f00 	cmp.w	r2, #2147483648	; 0x80000000
  48:	9102      	str	r1, [sp, #8]
  4a:	9201      	str	r2, [sp, #4]
  4c:	d025      	beq.n	9a <_ZN120_$LT$$RF$embedded_graphics..primitives..circle..Circle$LT$C$GT$$u20$as$u20$core..iter..traits..collect..IntoIterator$GT$9into_iter17hc8fe3e5a21418a3fE+0x9a>
  4e:	e7ff      	b.n	50 <_ZN120_$LT$$RF$embedded_graphics..primitives..circle..Circle$LT$C$GT$$u20$as$u20$core..iter..traits..collect..IntoIterator$GT$9into_iter17hc8fe3e5a21418a3fE+0x50>
  50:	9801      	ldr	r0, [sp, #4]
  52:	4241      	negs	r1, r0
/Users/Luppy/.cargo/registry/src/github.com-1ecc6299db9ec823/embedded-graphics-0.5.2/src/primitives/circle.rs:141
        CircleIterator {
  54:	9a06      	ldr	r2, [sp, #24]
  56:	9b07      	ldr	r3, [sp, #28]
  58:	601a      	str	r2, [r3, #0]
  5a:	f8dd c014 	ldr.w	ip, [sp, #20]
  5e:	f8c3 c004 	str.w	ip, [r3, #4]
  62:	f8dd e010 	ldr.w	lr, [sp, #16]
  66:	f8c3 e008 	str.w	lr, [r3, #8]
  6a:	f8bd 402c 	ldrh.w	r4, [sp, #44]	; 0x2c
  6e:	839c      	strh	r4, [r3, #28]
  70:	9c09      	ldr	r4, [sp, #36]	; 0x24
  72:	9d0a      	ldr	r5, [sp, #40]	; 0x28
  74:	619d      	str	r5, [r3, #24]
  76:	615c      	str	r4, [r3, #20]
  78:	9c02      	ldr	r4, [sp, #8]
  7a:	60dc      	str	r4, [r3, #12]
  7c:	6119      	str	r1, [r3, #16]
/Users/Luppy/.cargo/registry/src/github.com-1ecc6299db9ec823/embedded-graphics-0.5.2/src/primitives/circle.rs:148
        }
    }
  7e:	b00c      	add	sp, #48	; 0x30
  80:	bdb0      	pop	{r4, r5, r7, pc}
/Users/Luppy/.cargo/registry/src/github.com-1ecc6299db9ec823/embedded-graphics-0.5.2/src/primitives/circle.rs:145
            x: -(self.radius as i32),
  82:	f240 0000 	movw	r0, #0
  86:	f2c0 0000 	movt	r0, #0
  8a:	f240 0200 	movw	r2, #0
  8e:	f2c0 0200 	movt	r2, #0
  92:	211f      	movs	r1, #31
  94:	f7ff fffe 	bl	0 <_ZN4core9panicking5panic17hfdd0eecc44a682f8E>
  98:	defe      	udf	#254	; 0xfe
/Users/Luppy/.cargo/registry/src/github.com-1ecc6299db9ec823/embedded-graphics-0.5.2/src/primitives/circle.rs:146
            y: -(self.radius as i32),
  9a:	f240 0000 	movw	r0, #0
  9e:	f2c0 0000 	movt	r0, #0
  a2:	f240 0200 	movw	r2, #0
  a6:	f2c0 0200 	movt	r2, #0
  aa:	211f      	movs	r1, #31
  ac:	f7ff fffe 	bl	0 <_ZN4core9panicking5panic17hfdd0eecc44a682f8E>
  b0:	defe      	udf	#254	; 0xfe

Disassembly of section .text._ZN121_$LT$embedded_graphics..primitives..circle..CircleIterator$LT$C$GT$$u20$as$u20$core..iter..traits..iterator..Iterator$GT$4next17h5c50471d0212345dE:

00000000 <_ZN121_$LT$embedded_graphics..primitives..circle..CircleIterator$LT$C$GT$$u20$as$u20$core..iter..traits..iterator..Iterator$GT$4next17h5c50471d0212345dE>:
_ZN121_$LT$embedded_graphics..primitives..circle..CircleIterator$LT$C$GT$$u20$as$u20$core..iter..traits..iterator..Iterator$GT$4next17h5c50471d0212345dE():
/Users/Luppy/.cargo/registry/src/github.com-1ecc6299db9ec823/embedded-graphics-0.5.2/src/primitives/circle.rs:168
    C: PixelColor,
{
    type Item = Pixel<C>;

    // https://stackoverflow.com/questions/1201200/fast-algorithm-for-drawing-filled-circles
    fn next(&mut self) -> Option<Self::Item> {
   0:	b580      	push	{r7, lr}
   2:	b0c0      	sub	sp, #256	; 0x100
   4:	911c      	str	r1, [sp, #112]	; 0x70
/Users/Luppy/.cargo/registry/src/github.com-1ecc6299db9ec823/embedded-graphics-0.5.2/src/primitives/circle.rs:170
        // If border or stroke colour is `None`, treat entire object as transparent and exit early
        if self.style.stroke_color.is_none() && self.style.fill_color.is_none() {
   6:	991c      	ldr	r1, [sp, #112]	; 0x70
   8:	3118      	adds	r1, #24
   a:	901b      	str	r0, [sp, #108]	; 0x6c
   c:	4608      	mov	r0, r1
   e:	f7ff fffe 	bl	0 <_ZN4core6option15Option$LT$T$GT$7is_none17h0322cadb15e896fdE>
  12:	901a      	str	r0, [sp, #104]	; 0x68
  14:	e013      	b.n	3e <_ZN121_$LT$embedded_graphics..primitives..circle..CircleIterator$LT$C$GT$$u20$as$u20$core..iter..traits..iterator..Iterator$GT$4next17h5c50471d0212345dE+0x3e>
  16:	2001      	movs	r0, #1
  18:	f88d 0077 	strb.w	r0, [sp, #119]	; 0x77
  1c:	e009      	b.n	32 <_ZN121_$LT$embedded_graphics..primitives..circle..CircleIterator$LT$C$GT$$u20$as$u20$core..iter..traits..iterator..Iterator$GT$4next17h5c50471d0212345dE+0x32>
  1e:	2000      	movs	r0, #0
  20:	f88d 0077 	strb.w	r0, [sp, #119]	; 0x77
  24:	e005      	b.n	32 <_ZN121_$LT$embedded_graphics..primitives..circle..CircleIterator$LT$C$GT$$u20$as$u20$core..iter..traits..iterator..Iterator$GT$4next17h5c50471d0212345dE+0x32>
  26:	981c      	ldr	r0, [sp, #112]	; 0x70
  28:	3014      	adds	r0, #20
  2a:	f7ff fffe 	bl	0 <_ZN4core6option15Option$LT$T$GT$7is_none17h0322cadb15e896fdE>
  2e:	9019      	str	r0, [sp, #100]	; 0x64
  30:	e00a      	b.n	48 <_ZN121_$LT$embedded_graphics..primitives..circle..CircleIterator$LT$C$GT$$u20$as$u20$core..iter..traits..iterator..Iterator$GT$4next17h5c50471d0212345dE+0x48>
  32:	f89d 0077 	ldrb.w	r0, [sp, #119]	; 0x77
  36:	07c0      	lsls	r0, r0, #31
  38:	2800      	cmp	r0, #0
  3a:	d110      	bne.n	5e <_ZN121_$LT$embedded_graphics..primitives..circle..CircleIterator$LT$C$GT$$u20$as$u20$core..iter..traits..iterator..Iterator$GT$4next17h5c50471d0212345dE+0x5e>
  3c:	e009      	b.n	52 <_ZN121_$LT$embedded_graphics..primitives..circle..CircleIterator$LT$C$GT$$u20$as$u20$core..iter..traits..iterator..Iterator$GT$4next17h5c50471d0212345dE+0x52>
  3e:	981a      	ldr	r0, [sp, #104]	; 0x68
  40:	07c1      	lsls	r1, r0, #31
  42:	2900      	cmp	r1, #0
  44:	d1ef      	bne.n	26 <_ZN121_$LT$embedded_graphics..primitives..circle..CircleIterator$LT$C$GT$$u20$as$u20$core..iter..traits..iterator..Iterator$GT$4next17h5c50471d0212345dE+0x26>
  46:	e7ea      	b.n	1e <_ZN121_$LT$embedded_graphics..primitives..circle..CircleIterator$LT$C$GT$$u20$as$u20$core..iter..traits..iterator..Iterator$GT$4next17h5c50471d0212345dE+0x1e>
  48:	9819      	ldr	r0, [sp, #100]	; 0x64
  4a:	07c1      	lsls	r1, r0, #31
  4c:	2900      	cmp	r1, #0
  4e:	d1e2      	bne.n	16 <_ZN121_$LT$embedded_graphics..primitives..circle..CircleIterator$LT$C$GT$$u20$as$u20$core..iter..traits..iterator..Iterator$GT$4next17h5c50471d0212345dE+0x16>
  50:	e7e5      	b.n	1e <_ZN121_$LT$embedded_graphics..primitives..circle..CircleIterator$LT$C$GT$$u20$as$u20$core..iter..traits..iterator..Iterator$GT$4next17h5c50471d0212345dE+0x1e>
/Users/Luppy/.cargo/registry/src/github.com-1ecc6299db9ec823/embedded-graphics-0.5.2/src/primitives/circle.rs:174
            return None;
        }

        let cx = self.center[0];
  52:	981c      	ldr	r0, [sp, #112]	; 0x70
  54:	2100      	movs	r1, #0
  56:	f7ff fffe 	bl	0 <_ZN104_$LT$embedded_graphics..coord..internal_coord..Coord$u20$as$u20$core..ops..index..Index$LT$usize$GT$$GT$5index17h6ee4fd1eb3180c09E>
  5a:	9018      	str	r0, [sp, #96]	; 0x60
  5c:	e005      	b.n	6a <_ZN121_$LT$embedded_graphics..primitives..circle..CircleIterator$LT$C$GT$$u20$as$u20$core..iter..traits..iterator..Iterator$GT$4next17h5c50471d0212345dE+0x6a>
  5e:	2000      	movs	r0, #0
/Users/Luppy/.cargo/registry/src/github.com-1ecc6299db9ec823/embedded-graphics-0.5.2/src/primitives/circle.rs:171
            return None;
  60:	991b      	ldr	r1, [sp, #108]	; 0x6c
  62:	6008      	str	r0, [r1, #0]
  64:	e7ff      	b.n	66 <_ZN121_$LT$embedded_graphics..primitives..circle..CircleIterator$LT$C$GT$$u20$as$u20$core..iter..traits..iterator..Iterator$GT$4next17h5c50471d0212345dE+0x66>
/Users/Luppy/.cargo/registry/src/github.com-1ecc6299db9ec823/embedded-graphics-0.5.2/src/primitives/circle.rs:228
                }
            }
        };

        item.map(|(x, y, c)| Pixel(Coord::new(x, y).to_unsigned(), c))
    }
  66:	b040      	add	sp, #256	; 0x100
  68:	bd80      	pop	{r7, pc}
/Users/Luppy/.cargo/registry/src/github.com-1ecc6299db9ec823/embedded-graphics-0.5.2/src/primitives/circle.rs:174
        let cx = self.center[0];
  6a:	9818      	ldr	r0, [sp, #96]	; 0x60
  6c:	6801      	ldr	r1, [r0, #0]
  6e:	911e      	str	r1, [sp, #120]	; 0x78
/Users/Luppy/.cargo/registry/src/github.com-1ecc6299db9ec823/embedded-graphics-0.5.2/src/primitives/circle.rs:175
        let cy = self.center[1];
  70:	981c      	ldr	r0, [sp, #112]	; 0x70
  72:	2101      	movs	r1, #1
  74:	f7ff fffe 	bl	0 <_ZN104_$LT$embedded_graphics..coord..internal_coord..Coord$u20$as$u20$core..ops..index..Index$LT$usize$GT$$GT$5index17h6ee4fd1eb3180c09E>
  78:	9017      	str	r0, [sp, #92]	; 0x5c
  7a:	e7ff      	b.n	7c <_ZN121_$LT$embedded_graphics..primitives..circle..CircleIterator$LT$C$GT$$u20$as$u20$core..iter..traits..iterator..Iterator$GT$4next17h5c50471d0212345dE+0x7c>
  7c:	9817      	ldr	r0, [sp, #92]	; 0x5c
  7e:	6801      	ldr	r1, [r0, #0]
  80:	911f      	str	r1, [sp, #124]	; 0x7c
/Users/Luppy/.cargo/registry/src/github.com-1ecc6299db9ec823/embedded-graphics-0.5.2/src/primitives/circle.rs:177
        let radius = self.radius as i32 - self.style.stroke_width as i32 + 1;
  82:	991c      	ldr	r1, [sp, #112]	; 0x70
  84:	688a      	ldr	r2, [r1, #8]
  86:	7f09      	ldrb	r1, [r1, #28]
  88:	1a53      	subs	r3, r2, r1
  8a:	428a      	cmp	r2, r1
  8c:	9316      	str	r3, [sp, #88]	; 0x58
  8e:	f180 8197 	bvs.w	3c0 <_ZN121_$LT$embedded_graphics..primitives..circle..CircleIterator$LT$C$GT$$u20$as$u20$core..iter..traits..iterator..Iterator$GT$4next17h5c50471d0212345dE+0x3c0>
  92:	e7ff      	b.n	94 <_ZN121_$LT$embedded_graphics..primitives..circle..CircleIterator$LT$C$GT$$u20$as$u20$core..iter..traits..iterator..Iterator$GT$4next17h5c50471d0212345dE+0x94>
  94:	9816      	ldr	r0, [sp, #88]	; 0x58
  96:	1c41      	adds	r1, r0, #1
  98:	460a      	mov	r2, r1
  9a:	4281      	cmp	r1, r0
  9c:	9215      	str	r2, [sp, #84]	; 0x54
  9e:	f180 819b 	bvs.w	3d8 <_ZN121_$LT$embedded_graphics..primitives..circle..CircleIterator$LT$C$GT$$u20$as$u20$core..iter..traits..iterator..Iterator$GT$4next17h5c50471d0212345dE+0x3d8>
  a2:	e7ff      	b.n	a4 <_ZN121_$LT$embedded_graphics..primitives..circle..CircleIterator$LT$C$GT$$u20$as$u20$core..iter..traits..iterator..Iterator$GT$4next17h5c50471d0212345dE+0xa4>
  a4:	9815      	ldr	r0, [sp, #84]	; 0x54
  a6:	9020      	str	r0, [sp, #128]	; 0x80
/Users/Luppy/.cargo/registry/src/github.com-1ecc6299db9ec823/embedded-graphics-0.5.2/src/primitives/circle.rs:178
        let outer_radius = self.radius as i32;
  a8:	991c      	ldr	r1, [sp, #112]	; 0x70
  aa:	6889      	ldr	r1, [r1, #8]
  ac:	9121      	str	r1, [sp, #132]	; 0x84
/Users/Luppy/.cargo/registry/src/github.com-1ecc6299db9ec823/embedded-graphics-0.5.2/src/primitives/circle.rs:180
        let radius_sq = radius * radius;
  ae:	9920      	ldr	r1, [sp, #128]	; 0x80
  b0:	fb01 f201 	mul.w	r2, r1, r1
  b4:	fb81 1301 	smull	r1, r3, r1, r1
  b8:	ebb3 7fe1 	cmp.w	r3, r1, asr #31
  bc:	9214      	str	r2, [sp, #80]	; 0x50
  be:	f040 8197 	bne.w	3f0 <_ZN121_$LT$embedded_graphics..primitives..circle..CircleIterator$LT$C$GT$$u20$as$u20$core..iter..traits..iterator..Iterator$GT$4next17h5c50471d0212345dE+0x3f0>
  c2:	e7ff      	b.n	c4 <_ZN121_$LT$embedded_graphics..primitives..circle..CircleIterator$LT$C$GT$$u20$as$u20$core..iter..traits..iterator..Iterator$GT$4next17h5c50471d0212345dE+0xc4>
  c4:	9814      	ldr	r0, [sp, #80]	; 0x50
  c6:	9022      	str	r0, [sp, #136]	; 0x88
/Users/Luppy/.cargo/registry/src/github.com-1ecc6299db9ec823/embedded-graphics-0.5.2/src/primitives/circle.rs:181
        let outer_radius_sq = outer_radius * outer_radius;
  c8:	9921      	ldr	r1, [sp, #132]	; 0x84
  ca:	fb01 f201 	mul.w	r2, r1, r1
  ce:	fb81 1301 	smull	r1, r3, r1, r1
  d2:	ebb3 7fe1 	cmp.w	r3, r1, asr #31
  d6:	9213      	str	r2, [sp, #76]	; 0x4c
  d8:	f040 8196 	bne.w	408 <_ZN121_$LT$embedded_graphics..primitives..circle..CircleIterator$LT$C$GT$$u20$as$u20$core..iter..traits..iterator..Iterator$GT$4next17h5c50471d0212345dE+0x408>
  dc:	e7ff      	b.n	de <_ZN121_$LT$embedded_graphics..primitives..circle..CircleIterator$LT$C$GT$$u20$as$u20$core..iter..traits..iterator..Iterator$GT$4next17h5c50471d0212345dE+0xde>
  de:	9813      	ldr	r0, [sp, #76]	; 0x4c
  e0:	9023      	str	r0, [sp, #140]	; 0x8c
/Users/Luppy/.cargo/registry/src/github.com-1ecc6299db9ec823/embedded-graphics-0.5.2/src/primitives/circle.rs:183
        let item = loop {
  e2:	e7ff      	b.n	e4 <_ZN121_$LT$embedded_graphics..primitives..circle..CircleIterator$LT$C$GT$$u20$as$u20$core..iter..traits..iterator..Iterator$GT$4next17h5c50471d0212345dE+0xe4>
/Users/Luppy/.cargo/registry/src/github.com-1ecc6299db9ec823/embedded-graphics-0.5.2/src/primitives/circle.rs:184
            let tx = self.x;
  e4:	981c      	ldr	r0, [sp, #112]	; 0x70
  e6:	68c0      	ldr	r0, [r0, #12]
  e8:	9028      	str	r0, [sp, #160]	; 0xa0
/Users/Luppy/.cargo/registry/src/github.com-1ecc6299db9ec823/embedded-graphics-0.5.2/src/primitives/circle.rs:185
            let ty = self.y;
  ea:	981c      	ldr	r0, [sp, #112]	; 0x70
  ec:	6900      	ldr	r0, [r0, #16]
  ee:	9029      	str	r0, [sp, #164]	; 0xa4
/Users/Luppy/.cargo/registry/src/github.com-1ecc6299db9ec823/embedded-graphics-0.5.2/src/primitives/circle.rs:186
            let len = tx * tx + ty * ty;
  f0:	9828      	ldr	r0, [sp, #160]	; 0xa0
  f2:	fb00 f100 	mul.w	r1, r0, r0
  f6:	fb80 0200 	smull	r0, r2, r0, r0
  fa:	ebb2 7fe0 	cmp.w	r2, r0, asr #31
  fe:	9112      	str	r1, [sp, #72]	; 0x48
 100:	f040 818e 	bne.w	420 <_ZN121_$LT$embedded_graphics..primitives..circle..CircleIterator$LT$C$GT$$u20$as$u20$core..iter..traits..iterator..Iterator$GT$4next17h5c50471d0212345dE+0x420>
 104:	e7ff      	b.n	106 <_ZN121_$LT$embedded_graphics..primitives..circle..CircleIterator$LT$C$GT$$u20$as$u20$core..iter..traits..iterator..Iterator$GT$4next17h5c50471d0212345dE+0x106>
 106:	9829      	ldr	r0, [sp, #164]	; 0xa4
 108:	fb00 f100 	mul.w	r1, r0, r0
 10c:	fb80 0200 	smull	r0, r2, r0, r0
 110:	ebb2 7fe0 	cmp.w	r2, r0, asr #31
 114:	9111      	str	r1, [sp, #68]	; 0x44
 116:	f040 818f 	bne.w	438 <_ZN121_$LT$embedded_graphics..primitives..circle..CircleIterator$LT$C$GT$$u20$as$u20$core..iter..traits..iterator..Iterator$GT$4next17h5c50471d0212345dE+0x438>
 11a:	e7ff      	b.n	11c <_ZN121_$LT$embedded_graphics..primitives..circle..CircleIterator$LT$C$GT$$u20$as$u20$core..iter..traits..iterator..Iterator$GT$4next17h5c50471d0212345dE+0x11c>
 11c:	9812      	ldr	r0, [sp, #72]	; 0x48
 11e:	9911      	ldr	r1, [sp, #68]	; 0x44
 120:	1842      	adds	r2, r0, r1
 122:	4613      	mov	r3, r2
 124:	4282      	cmp	r2, r0
 126:	9310      	str	r3, [sp, #64]	; 0x40
 128:	f180 8192 	bvs.w	450 <_ZN121_$LT$embedded_graphics..primitives..circle..CircleIterator$LT$C$GT$$u20$as$u20$core..iter..traits..iterator..Iterator$GT$4next17h5c50471d0212345dE+0x450>
 12c:	e7ff      	b.n	12e <_ZN121_$LT$embedded_graphics..primitives..circle..CircleIterator$LT$C$GT$$u20$as$u20$core..iter..traits..iterator..Iterator$GT$4next17h5c50471d0212345dE+0x12e>
 12e:	9810      	ldr	r0, [sp, #64]	; 0x40
 130:	902a      	str	r0, [sp, #168]	; 0xa8
/Users/Luppy/.cargo/registry/src/github.com-1ecc6299db9ec823/embedded-graphics-0.5.2/src/primitives/circle.rs:188
            let is_border = len > radius_sq - radius && len < outer_radius_sq + radius;
 132:	992a      	ldr	r1, [sp, #168]	; 0xa8
 134:	9a22      	ldr	r2, [sp, #136]	; 0x88
 136:	9b20      	ldr	r3, [sp, #128]	; 0x80
 138:	eba2 0c03 	sub.w	ip, r2, r3
 13c:	429a      	cmp	r2, r3
 13e:	910f      	str	r1, [sp, #60]	; 0x3c
 140:	f8cd c038 	str.w	ip, [sp, #56]	; 0x38
 144:	f180 8190 	bvs.w	468 <_ZN121_$LT$embedded_graphics..primitives..circle..CircleIterator$LT$C$GT$$u20$as$u20$core..iter..traits..iterator..Iterator$GT$4next17h5c50471d0212345dE+0x468>
 148:	e021      	b.n	18e <_ZN121_$LT$embedded_graphics..primitives..circle..CircleIterator$LT$C$GT$$u20$as$u20$core..iter..traits..iterator..Iterator$GT$4next17h5c50471d0212345dE+0x18e>
 14a:	2001      	movs	r0, #1
 14c:	f88d 00ae 	strb.w	r0, [sp, #174]	; 0xae
 150:	e00e      	b.n	170 <_ZN121_$LT$embedded_graphics..primitives..circle..CircleIterator$LT$C$GT$$u20$as$u20$core..iter..traits..iterator..Iterator$GT$4next17h5c50471d0212345dE+0x170>
 152:	2000      	movs	r0, #0
 154:	f88d 00ae 	strb.w	r0, [sp, #174]	; 0xae
 158:	e00a      	b.n	170 <_ZN121_$LT$embedded_graphics..primitives..circle..CircleIterator$LT$C$GT$$u20$as$u20$core..iter..traits..iterator..Iterator$GT$4next17h5c50471d0212345dE+0x170>
 15a:	982a      	ldr	r0, [sp, #168]	; 0xa8
 15c:	9923      	ldr	r1, [sp, #140]	; 0x8c
 15e:	9a20      	ldr	r2, [sp, #128]	; 0x80
 160:	440a      	add	r2, r1
 162:	4613      	mov	r3, r2
 164:	428a      	cmp	r2, r1
 166:	900d      	str	r0, [sp, #52]	; 0x34
 168:	930c      	str	r3, [sp, #48]	; 0x30
 16a:	f180 8189 	bvs.w	480 <_ZN121_$LT$embedded_graphics..primitives..circle..CircleIterator$LT$C$GT$$u20$as$u20$core..iter..traits..iterator..Iterator$GT$4next17h5c50471d0212345dE+0x480>
 16e:	e013      	b.n	198 <_ZN121_$LT$embedded_graphics..primitives..circle..CircleIterator$LT$C$GT$$u20$as$u20$core..iter..traits..iterator..Iterator$GT$4next17h5c50471d0212345dE+0x198>
/Users/Luppy/.cargo/registry/src/github.com-1ecc6299db9ec823/embedded-graphics-0.5.2/src/primitives/circle.rs:191
            let is_fill = len <= outer_radius_sq;
 170:	982a      	ldr	r0, [sp, #168]	; 0xa8
 172:	9923      	ldr	r1, [sp, #140]	; 0x8c
 174:	2200      	movs	r2, #0
 176:	4288      	cmp	r0, r1
 178:	bfd8      	it	le
 17a:	2201      	movle	r2, #1
 17c:	f88d 20af 	strb.w	r2, [sp, #175]	; 0xaf
/Users/Luppy/.cargo/registry/src/github.com-1ecc6299db9ec823/embedded-graphics-0.5.2/src/primitives/circle.rs:193
            let item = if is_border && self.style.stroke_color.is_some() {
 180:	f89d 00ae 	ldrb.w	r0, [sp, #174]	; 0xae
 184:	ea4f 70c0 	mov.w	r0, r0, lsl #31
 188:	2800      	cmp	r0, #0
 18a:	d112      	bne.n	1b2 <_ZN121_$LT$embedded_graphics..primitives..circle..CircleIterator$LT$C$GT$$u20$as$u20$core..iter..traits..iterator..Iterator$GT$4next17h5c50471d0212345dE+0x1b2>
 18c:	e00d      	b.n	1aa <_ZN121_$LT$embedded_graphics..primitives..circle..CircleIterator$LT$C$GT$$u20$as$u20$core..iter..traits..iterator..Iterator$GT$4next17h5c50471d0212345dE+0x1aa>
/Users/Luppy/.cargo/registry/src/github.com-1ecc6299db9ec823/embedded-graphics-0.5.2/src/primitives/circle.rs:188
            let is_border = len > radius_sq - radius && len < outer_radius_sq + radius;
 18e:	980f      	ldr	r0, [sp, #60]	; 0x3c
 190:	990e      	ldr	r1, [sp, #56]	; 0x38
 192:	4288      	cmp	r0, r1
 194:	dce1      	bgt.n	15a <_ZN121_$LT$embedded_graphics..primitives..circle..CircleIterator$LT$C$GT$$u20$as$u20$core..iter..traits..iterator..Iterator$GT$4next17h5c50471d0212345dE+0x15a>
 196:	e7dc      	b.n	152 <_ZN121_$LT$embedded_graphics..primitives..circle..CircleIterator$LT$C$GT$$u20$as$u20$core..iter..traits..iterator..Iterator$GT$4next17h5c50471d0212345dE+0x152>
 198:	980d      	ldr	r0, [sp, #52]	; 0x34
 19a:	990c      	ldr	r1, [sp, #48]	; 0x30
 19c:	4288      	cmp	r0, r1
 19e:	dbd4      	blt.n	14a <_ZN121_$LT$embedded_graphics..primitives..circle..CircleIterator$LT$C$GT$$u20$as$u20$core..iter..traits..iterator..Iterator$GT$4next17h5c50471d0212345dE+0x14a>
 1a0:	e7d7      	b.n	152 <_ZN121_$LT$embedded_graphics..primitives..circle..CircleIterator$LT$C$GT$$u20$as$u20$core..iter..traits..iterator..Iterator$GT$4next17h5c50471d0212345dE+0x152>
 1a2:	2001      	movs	r0, #1
/Users/Luppy/.cargo/registry/src/github.com-1ecc6299db9ec823/embedded-graphics-0.5.2/src/primitives/circle.rs:193
            let item = if is_border && self.style.stroke_color.is_some() {
 1a4:	f88d 00c3 	strb.w	r0, [sp, #195]	; 0xc3
 1a8:	e009      	b.n	1be <_ZN121_$LT$embedded_graphics..primitives..circle..CircleIterator$LT$C$GT$$u20$as$u20$core..iter..traits..iterator..Iterator$GT$4next17h5c50471d0212345dE+0x1be>
 1aa:	2000      	movs	r0, #0
 1ac:	f88d 00c3 	strb.w	r0, [sp, #195]	; 0xc3
 1b0:	e005      	b.n	1be <_ZN121_$LT$embedded_graphics..primitives..circle..CircleIterator$LT$C$GT$$u20$as$u20$core..iter..traits..iterator..Iterator$GT$4next17h5c50471d0212345dE+0x1be>
 1b2:	981c      	ldr	r0, [sp, #112]	; 0x70
 1b4:	3018      	adds	r0, #24
 1b6:	f7ff fffe 	bl	0 <_ZN4core6option15Option$LT$T$GT$7is_some17hf12135d0d5d4ce47E>
 1ba:	900b      	str	r0, [sp, #44]	; 0x2c
 1bc:	e005      	b.n	1ca <_ZN121_$LT$embedded_graphics..primitives..circle..CircleIterator$LT$C$GT$$u20$as$u20$core..iter..traits..iterator..Iterator$GT$4next17h5c50471d0212345dE+0x1ca>
 1be:	f89d 00c3 	ldrb.w	r0, [sp, #195]	; 0xc3
 1c2:	07c0      	lsls	r0, r0, #31
 1c4:	2800      	cmp	r0, #0
 1c6:	d10b      	bne.n	1e0 <_ZN121_$LT$embedded_graphics..primitives..circle..CircleIterator$LT$C$GT$$u20$as$u20$core..iter..traits..iterator..Iterator$GT$4next17h5c50471d0212345dE+0x1e0>
 1c8:	e004      	b.n	1d4 <_ZN121_$LT$embedded_graphics..primitives..circle..CircleIterator$LT$C$GT$$u20$as$u20$core..iter..traits..iterator..Iterator$GT$4next17h5c50471d0212345dE+0x1d4>
 1ca:	980b      	ldr	r0, [sp, #44]	; 0x2c
 1cc:	07c1      	lsls	r1, r0, #31
 1ce:	2900      	cmp	r1, #0
 1d0:	d1e7      	bne.n	1a2 <_ZN121_$LT$embedded_graphics..primitives..circle..CircleIterator$LT$C$GT$$u20$as$u20$core..iter..traits..iterator..Iterator$GT$4next17h5c50471d0212345dE+0x1a2>
 1d2:	e7ea      	b.n	1aa <_ZN121_$LT$embedded_graphics..primitives..circle..CircleIterator$LT$C$GT$$u20$as$u20$core..iter..traits..iterator..Iterator$GT$4next17h5c50471d0212345dE+0x1aa>
/Users/Luppy/.cargo/registry/src/github.com-1ecc6299db9ec823/embedded-graphics-0.5.2/src/primitives/circle.rs:199
            } else if is_fill && self.style.fill_color.is_some() {
 1d4:	f89d 00af 	ldrb.w	r0, [sp, #175]	; 0xaf
 1d8:	07c0      	lsls	r0, r0, #31
 1da:	2800      	cmp	r0, #0
 1dc:	d13a      	bne.n	254 <_ZN121_$LT$embedded_graphics..primitives..circle..CircleIterator$LT$C$GT$$u20$as$u20$core..iter..traits..iterator..Iterator$GT$4next17h5c50471d0212345dE+0x254>
 1de:	e035      	b.n	24c <_ZN121_$LT$embedded_graphics..primitives..circle..CircleIterator$LT$C$GT$$u20$as$u20$core..iter..traits..iterator..Iterator$GT$4next17h5c50471d0212345dE+0x24c>
/Users/Luppy/.cargo/registry/src/github.com-1ecc6299db9ec823/embedded-graphics-0.5.2/src/primitives/circle.rs:195
                    cx + tx,
 1e0:	981e      	ldr	r0, [sp, #120]	; 0x78
 1e2:	9928      	ldr	r1, [sp, #160]	; 0xa0
 1e4:	4401      	add	r1, r0
 1e6:	460a      	mov	r2, r1
 1e8:	4281      	cmp	r1, r0
 1ea:	920a      	str	r2, [sp, #40]	; 0x28
 1ec:	f180 8154 	bvs.w	498 <_ZN121_$LT$embedded_graphics..primitives..circle..CircleIterator$LT$C$GT$$u20$as$u20$core..iter..traits..iterator..Iterator$GT$4next17h5c50471d0212345dE+0x498>
 1f0:	e7ff      	b.n	1f2 <_ZN121_$LT$embedded_graphics..primitives..circle..CircleIterator$LT$C$GT$$u20$as$u20$core..iter..traits..iterator..Iterator$GT$4next17h5c50471d0212345dE+0x1f2>
/Users/Luppy/.cargo/registry/src/github.com-1ecc6299db9ec823/embedded-graphics-0.5.2/src/primitives/circle.rs:196
                    cy + ty,
 1f2:	981f      	ldr	r0, [sp, #124]	; 0x7c
 1f4:	9929      	ldr	r1, [sp, #164]	; 0xa4
 1f6:	4401      	add	r1, r0
 1f8:	460a      	mov	r2, r1
 1fa:	4281      	cmp	r1, r0
 1fc:	9209      	str	r2, [sp, #36]	; 0x24
 1fe:	f180 8157 	bvs.w	4b0 <_ZN121_$LT$embedded_graphics..primitives..circle..CircleIterator$LT$C$GT$$u20$as$u20$core..iter..traits..iterator..Iterator$GT$4next17h5c50471d0212345dE+0x4b0>
 202:	e7ff      	b.n	204 <_ZN121_$LT$embedded_graphics..primitives..circle..CircleIterator$LT$C$GT$$u20$as$u20$core..iter..traits..iterator..Iterator$GT$4next17h5c50471d0212345dE+0x204>
/Users/Luppy/.cargo/registry/src/github.com-1ecc6299db9ec823/embedded-graphics-0.5.2/src/primitives/circle.rs:197
                    self.style.stroke_color.expect("Border color not defined"),
 204:	981c      	ldr	r0, [sp, #112]	; 0x70
 206:	8b41      	ldrh	r1, [r0, #26]
 208:	8b00      	ldrh	r0, [r0, #24]
 20a:	f240 0200 	movw	r2, #0
 20e:	f2c0 0200 	movt	r2, #0
 212:	2318      	movs	r3, #24
 214:	f7ff fffe 	bl	0 <_ZN4core6option15Option$LT$T$GT$6expect17hc4cab784399a1c6dE>
 218:	9008      	str	r0, [sp, #32]
 21a:	e7ff      	b.n	21c <_ZN121_$LT$embedded_graphics..primitives..circle..CircleIterator$LT$C$GT$$u20$as$u20$core..iter..traits..iterator..Iterator$GT$4next17h5c50471d0212345dE+0x21c>
/Users/Luppy/.cargo/registry/src/github.com-1ecc6299db9ec823/embedded-graphics-0.5.2/src/primitives/circle.rs:194
                Some((
 21c:	980a      	ldr	r0, [sp, #40]	; 0x28
 21e:	9031      	str	r0, [sp, #196]	; 0xc4
 220:	9909      	ldr	r1, [sp, #36]	; 0x24
 222:	9132      	str	r1, [sp, #200]	; 0xc8
 224:	9a08      	ldr	r2, [sp, #32]
 226:	f8ad 20cc 	strh.w	r2, [sp, #204]	; 0xcc
 22a:	9b31      	ldr	r3, [sp, #196]	; 0xc4
 22c:	f8dd c0c8 	ldr.w	ip, [sp, #200]	; 0xc8
 230:	f8dd e0cc 	ldr.w	lr, [sp, #204]	; 0xcc
 234:	f8cd e0bc 	str.w	lr, [sp, #188]	; 0xbc
 238:	f8cd c0b8 	str.w	ip, [sp, #184]	; 0xb8
 23c:	932d      	str	r3, [sp, #180]	; 0xb4
 23e:	2301      	movs	r3, #1
 240:	932c      	str	r3, [sp, #176]	; 0xb0
/Users/Luppy/.cargo/registry/src/github.com-1ecc6299db9ec823/embedded-graphics-0.5.2/src/primitives/circle.rs:193
            let item = if is_border && self.style.stroke_color.is_some() {
 242:	e04e      	b.n	2e2 <_ZN121_$LT$embedded_graphics..primitives..circle..CircleIterator$LT$C$GT$$u20$as$u20$core..iter..traits..iterator..Iterator$GT$4next17h5c50471d0212345dE+0x2e2>
 244:	2001      	movs	r0, #1
/Users/Luppy/.cargo/registry/src/github.com-1ecc6299db9ec823/embedded-graphics-0.5.2/src/primitives/circle.rs:199
            } else if is_fill && self.style.fill_color.is_some() {
 246:	f88d 00d3 	strb.w	r0, [sp, #211]	; 0xd3
 24a:	e009      	b.n	260 <_ZN121_$LT$embedded_graphics..primitives..circle..CircleIterator$LT$C$GT$$u20$as$u20$core..iter..traits..iterator..Iterator$GT$4next17h5c50471d0212345dE+0x260>
 24c:	2000      	movs	r0, #0
 24e:	f88d 00d3 	strb.w	r0, [sp, #211]	; 0xd3
 252:	e005      	b.n	260 <_ZN121_$LT$embedded_graphics..primitives..circle..CircleIterator$LT$C$GT$$u20$as$u20$core..iter..traits..iterator..Iterator$GT$4next17h5c50471d0212345dE+0x260>
 254:	981c      	ldr	r0, [sp, #112]	; 0x70
 256:	3014      	adds	r0, #20
 258:	f7ff fffe 	bl	0 <_ZN4core6option15Option$LT$T$GT$7is_some17hf12135d0d5d4ce47E>
 25c:	9007      	str	r0, [sp, #28]
 25e:	e005      	b.n	26c <_ZN121_$LT$embedded_graphics..primitives..circle..CircleIterator$LT$C$GT$$u20$as$u20$core..iter..traits..iterator..Iterator$GT$4next17h5c50471d0212345dE+0x26c>
 260:	f89d 00d3 	ldrb.w	r0, [sp, #211]	; 0xd3
 264:	07c0      	lsls	r0, r0, #31
 266:	2800      	cmp	r0, #0
 268:	d108      	bne.n	27c <_ZN121_$LT$embedded_graphics..primitives..circle..CircleIterator$LT$C$GT$$u20$as$u20$core..iter..traits..iterator..Iterator$GT$4next17h5c50471d0212345dE+0x27c>
 26a:	e004      	b.n	276 <_ZN121_$LT$embedded_graphics..primitives..circle..CircleIterator$LT$C$GT$$u20$as$u20$core..iter..traits..iterator..Iterator$GT$4next17h5c50471d0212345dE+0x276>
 26c:	9807      	ldr	r0, [sp, #28]
 26e:	07c1      	lsls	r1, r0, #31
 270:	2900      	cmp	r1, #0
 272:	d1e7      	bne.n	244 <_ZN121_$LT$embedded_graphics..primitives..circle..CircleIterator$LT$C$GT$$u20$as$u20$core..iter..traits..iterator..Iterator$GT$4next17h5c50471d0212345dE+0x244>
 274:	e7ea      	b.n	24c <_ZN121_$LT$embedded_graphics..primitives..circle..CircleIterator$LT$C$GT$$u20$as$u20$core..iter..traits..iterator..Iterator$GT$4next17h5c50471d0212345dE+0x24c>
 276:	2000      	movs	r0, #0
/Users/Luppy/.cargo/registry/src/github.com-1ecc6299db9ec823/embedded-graphics-0.5.2/src/primitives/circle.rs:206
                None
 278:	902c      	str	r0, [sp, #176]	; 0xb0
/Users/Luppy/.cargo/registry/src/github.com-1ecc6299db9ec823/embedded-graphics-0.5.2/src/primitives/circle.rs:199
            } else if is_fill && self.style.fill_color.is_some() {
 27a:	e031      	b.n	2e0 <_ZN121_$LT$embedded_graphics..primitives..circle..CircleIterator$LT$C$GT$$u20$as$u20$core..iter..traits..iterator..Iterator$GT$4next17h5c50471d0212345dE+0x2e0>
/Users/Luppy/.cargo/registry/src/github.com-1ecc6299db9ec823/embedded-graphics-0.5.2/src/primitives/circle.rs:201
                    cx + tx,
 27c:	981e      	ldr	r0, [sp, #120]	; 0x78
 27e:	9928      	ldr	r1, [sp, #160]	; 0xa0
 280:	4401      	add	r1, r0
 282:	460a      	mov	r2, r1
 284:	4281      	cmp	r1, r0
 286:	9206      	str	r2, [sp, #24]
 288:	f180 811e 	bvs.w	4c8 <_ZN121_$LT$embedded_graphics..primitives..circle..CircleIterator$LT$C$GT$$u20$as$u20$core..iter..traits..iterator..Iterator$GT$4next17h5c50471d0212345dE+0x4c8>
 28c:	e7ff      	b.n	28e <_ZN121_$LT$embedded_graphics..primitives..circle..CircleIterator$LT$C$GT$$u20$as$u20$core..iter..traits..iterator..Iterator$GT$4next17h5c50471d0212345dE+0x28e>
/Users/Luppy/.cargo/registry/src/github.com-1ecc6299db9ec823/embedded-graphics-0.5.2/src/primitives/circle.rs:202
                    cy + ty,
 28e:	981f      	ldr	r0, [sp, #124]	; 0x7c
 290:	9929      	ldr	r1, [sp, #164]	; 0xa4
 292:	4401      	add	r1, r0
 294:	460a      	mov	r2, r1
 296:	4281      	cmp	r1, r0
 298:	9205      	str	r2, [sp, #20]
 29a:	f180 8121 	bvs.w	4e0 <_ZN121_$LT$embedded_graphics..primitives..circle..CircleIterator$LT$C$GT$$u20$as$u20$core..iter..traits..iterator..Iterator$GT$4next17h5c50471d0212345dE+0x4e0>
 29e:	e7ff      	b.n	2a0 <_ZN121_$LT$embedded_graphics..primitives..circle..CircleIterator$LT$C$GT$$u20$as$u20$core..iter..traits..iterator..Iterator$GT$4next17h5c50471d0212345dE+0x2a0>
/Users/Luppy/.cargo/registry/src/github.com-1ecc6299db9ec823/embedded-graphics-0.5.2/src/primitives/circle.rs:203
                    self.style.fill_color.expect("Fill color not defined"),
 2a0:	981c      	ldr	r0, [sp, #112]	; 0x70
 2a2:	8ac1      	ldrh	r1, [r0, #22]
 2a4:	8a80      	ldrh	r0, [r0, #20]
 2a6:	f240 0200 	movw	r2, #0
 2aa:	f2c0 0200 	movt	r2, #0
 2ae:	2316      	movs	r3, #22
 2b0:	f7ff fffe 	bl	0 <_ZN4core6option15Option$LT$T$GT$6expect17hc4cab784399a1c6dE>
 2b4:	9004      	str	r0, [sp, #16]
 2b6:	e7ff      	b.n	2b8 <_ZN121_$LT$embedded_graphics..primitives..circle..CircleIterator$LT$C$GT$$u20$as$u20$core..iter..traits..iterator..Iterator$GT$4next17h5c50471d0212345dE+0x2b8>
/Users/Luppy/.cargo/registry/src/github.com-1ecc6299db9ec823/embedded-graphics-0.5.2/src/primitives/circle.rs:200
                Some((
 2b8:	9806      	ldr	r0, [sp, #24]
 2ba:	9035      	str	r0, [sp, #212]	; 0xd4
 2bc:	9905      	ldr	r1, [sp, #20]
 2be:	9136      	str	r1, [sp, #216]	; 0xd8
 2c0:	9a04      	ldr	r2, [sp, #16]
 2c2:	f8ad 20dc 	strh.w	r2, [sp, #220]	; 0xdc
 2c6:	9b35      	ldr	r3, [sp, #212]	; 0xd4
 2c8:	f8dd c0d8 	ldr.w	ip, [sp, #216]	; 0xd8
 2cc:	f8dd e0dc 	ldr.w	lr, [sp, #220]	; 0xdc
 2d0:	f8cd e0bc 	str.w	lr, [sp, #188]	; 0xbc
 2d4:	f8cd c0b8 	str.w	ip, [sp, #184]	; 0xb8
 2d8:	932d      	str	r3, [sp, #180]	; 0xb4
 2da:	2301      	movs	r3, #1
 2dc:	932c      	str	r3, [sp, #176]	; 0xb0
/Users/Luppy/.cargo/registry/src/github.com-1ecc6299db9ec823/embedded-graphics-0.5.2/src/primitives/circle.rs:199
            } else if is_fill && self.style.fill_color.is_some() {
 2de:	e7ff      	b.n	2e0 <_ZN121_$LT$embedded_graphics..primitives..circle..CircleIterator$LT$C$GT$$u20$as$u20$core..iter..traits..iterator..Iterator$GT$4next17h5c50471d0212345dE+0x2e0>
/Users/Luppy/.cargo/registry/src/github.com-1ecc6299db9ec823/embedded-graphics-0.5.2/src/primitives/circle.rs:193
            let item = if is_border && self.style.stroke_color.is_some() {
 2e0:	e7ff      	b.n	2e2 <_ZN121_$LT$embedded_graphics..primitives..circle..CircleIterator$LT$C$GT$$u20$as$u20$core..iter..traits..iterator..Iterator$GT$4next17h5c50471d0212345dE+0x2e2>
/Users/Luppy/.cargo/registry/src/github.com-1ecc6299db9ec823/embedded-graphics-0.5.2/src/primitives/circle.rs:209
            self.x += 1;
 2e2:	981c      	ldr	r0, [sp, #112]	; 0x70
 2e4:	68c0      	ldr	r0, [r0, #12]
 2e6:	1c41      	adds	r1, r0, #1
 2e8:	460a      	mov	r2, r1
 2ea:	4281      	cmp	r1, r0
 2ec:	9203      	str	r2, [sp, #12]
 2ee:	f180 8103 	bvs.w	4f8 <_ZN121_$LT$embedded_graphics..primitives..circle..CircleIterator$LT$C$GT$$u20$as$u20$core..iter..traits..iterator..Iterator$GT$4next17h5c50471d0212345dE+0x4f8>
 2f2:	e7ff      	b.n	2f4 <_ZN121_$LT$embedded_graphics..primitives..circle..CircleIterator$LT$C$GT$$u20$as$u20$core..iter..traits..iterator..Iterator$GT$4next17h5c50471d0212345dE+0x2f4>
 2f4:	981c      	ldr	r0, [sp, #112]	; 0x70
 2f6:	9903      	ldr	r1, [sp, #12]
 2f8:	60c1      	str	r1, [r0, #12]
/Users/Luppy/.cargo/registry/src/github.com-1ecc6299db9ec823/embedded-graphics-0.5.2/src/primitives/circle.rs:211
            if self.x > self.radius as i32 {
 2fa:	981c      	ldr	r0, [sp, #112]	; 0x70
 2fc:	6882      	ldr	r2, [r0, #8]
 2fe:	68c0      	ldr	r0, [r0, #12]
 300:	4290      	cmp	r0, r2
 302:	dd19      	ble.n	338 <_ZN121_$LT$embedded_graphics..primitives..circle..CircleIterator$LT$C$GT$$u20$as$u20$core..iter..traits..iterator..Iterator$GT$4next17h5c50471d0212345dE+0x338>
 304:	e7ff      	b.n	306 <_ZN121_$LT$embedded_graphics..primitives..circle..CircleIterator$LT$C$GT$$u20$as$u20$core..iter..traits..iterator..Iterator$GT$4next17h5c50471d0212345dE+0x306>
/Users/Luppy/.cargo/registry/src/github.com-1ecc6299db9ec823/embedded-graphics-0.5.2/src/primitives/circle.rs:212
                self.x = -(self.radius as i32);
 306:	981c      	ldr	r0, [sp, #112]	; 0x70
 308:	6880      	ldr	r0, [r0, #8]
 30a:	f1b0 4f00 	cmp.w	r0, #2147483648	; 0x80000000
 30e:	9002      	str	r0, [sp, #8]
 310:	f000 80fe 	beq.w	510 <_ZN121_$LT$embedded_graphics..primitives..circle..CircleIterator$LT$C$GT$$u20$as$u20$core..iter..traits..iterator..Iterator$GT$4next17h5c50471d0212345dE+0x510>
 314:	e7ff      	b.n	316 <_ZN121_$LT$embedded_graphics..primitives..circle..CircleIterator$LT$C$GT$$u20$as$u20$core..iter..traits..iterator..Iterator$GT$4next17h5c50471d0212345dE+0x316>
 316:	981c      	ldr	r0, [sp, #112]	; 0x70
 318:	9902      	ldr	r1, [sp, #8]
 31a:	424a      	negs	r2, r1
 31c:	60c2      	str	r2, [r0, #12]
/Users/Luppy/.cargo/registry/src/github.com-1ecc6299db9ec823/embedded-graphics-0.5.2/src/primitives/circle.rs:213
                self.y += 1;
 31e:	981c      	ldr	r0, [sp, #112]	; 0x70
 320:	6900      	ldr	r0, [r0, #16]
 322:	1c42      	adds	r2, r0, #1
 324:	4613      	mov	r3, r2
 326:	4282      	cmp	r2, r0
 328:	9301      	str	r3, [sp, #4]
 32a:	f180 80fd 	bvs.w	528 <_ZN121_$LT$embedded_graphics..primitives..circle..CircleIterator$LT$C$GT$$u20$as$u20$core..iter..traits..iterator..Iterator$GT$4next17h5c50471d0212345dE+0x528>
 32e:	e7ff      	b.n	330 <_ZN121_$LT$embedded_graphics..primitives..circle..CircleIterator$LT$C$GT$$u20$as$u20$core..iter..traits..iterator..Iterator$GT$4next17h5c50471d0212345dE+0x330>
 330:	981c      	ldr	r0, [sp, #112]	; 0x70
 332:	9901      	ldr	r1, [sp, #4]
 334:	6101      	str	r1, [r0, #16]
/Users/Luppy/.cargo/registry/src/github.com-1ecc6299db9ec823/embedded-graphics-0.5.2/src/primitives/circle.rs:211
            if self.x > self.radius as i32 {
 336:	e7ff      	b.n	338 <_ZN121_$LT$embedded_graphics..primitives..circle..CircleIterator$LT$C$GT$$u20$as$u20$core..iter..traits..iterator..Iterator$GT$4next17h5c50471d0212345dE+0x338>
/Users/Luppy/.cargo/registry/src/github.com-1ecc6299db9ec823/embedded-graphics-0.5.2/src/primitives/circle.rs:216
            if self.y > self.radius as i32 {
 338:	981c      	ldr	r0, [sp, #112]	; 0x70
 33a:	6881      	ldr	r1, [r0, #8]
 33c:	6900      	ldr	r0, [r0, #16]
 33e:	4288      	cmp	r0, r1
 340:	dc04      	bgt.n	34c <_ZN121_$LT$embedded_graphics..primitives..circle..CircleIterator$LT$C$GT$$u20$as$u20$core..iter..traits..iterator..Iterator$GT$4next17h5c50471d0212345dE+0x34c>
 342:	e7ff      	b.n	344 <_ZN121_$LT$embedded_graphics..primitives..circle..CircleIterator$LT$C$GT$$u20$as$u20$core..iter..traits..iterator..Iterator$GT$4next17h5c50471d0212345dE+0x344>
/Users/Luppy/.cargo/registry/src/github.com-1ecc6299db9ec823/embedded-graphics-0.5.2/src/primitives/circle.rs:220
            if let Some(i) = item {
 344:	982c      	ldr	r0, [sp, #176]	; 0xb0
 346:	2801      	cmp	r0, #1
 348:	d010      	beq.n	36c <_ZN121_$LT$embedded_graphics..primitives..circle..CircleIterator$LT$C$GT$$u20$as$u20$core..iter..traits..iterator..Iterator$GT$4next17h5c50471d0212345dE+0x36c>
 34a:	e037      	b.n	3bc <_ZN121_$LT$embedded_graphics..primitives..circle..CircleIterator$LT$C$GT$$u20$as$u20$core..iter..traits..iterator..Iterator$GT$4next17h5c50471d0212345dE+0x3bc>
 34c:	2000      	movs	r0, #0
/Users/Luppy/.cargo/registry/src/github.com-1ecc6299db9ec823/embedded-graphics-0.5.2/src/primitives/circle.rs:217
                break None;
 34e:	9024      	str	r0, [sp, #144]	; 0x90
 350:	e7ff      	b.n	352 <_ZN121_$LT$embedded_graphics..primitives..circle..CircleIterator$LT$C$GT$$u20$as$u20$core..iter..traits..iterator..Iterator$GT$4next17h5c50471d0212345dE+0x352>
/Users/Luppy/.cargo/registry/src/github.com-1ecc6299db9ec823/embedded-graphics-0.5.2/src/primitives/circle.rs:227
        item.map(|(x, y, c)| Pixel(Coord::new(x, y).to_unsigned(), c))
 352:	9824      	ldr	r0, [sp, #144]	; 0x90
 354:	9925      	ldr	r1, [sp, #148]	; 0x94
 356:	9a26      	ldr	r2, [sp, #152]	; 0x98
 358:	9b27      	ldr	r3, [sp, #156]	; 0x9c
 35a:	933f      	str	r3, [sp, #252]	; 0xfc
 35c:	923e      	str	r2, [sp, #248]	; 0xf8
 35e:	913d      	str	r1, [sp, #244]	; 0xf4
 360:	903c      	str	r0, [sp, #240]	; 0xf0
 362:	a93c      	add	r1, sp, #240	; 0xf0
 364:	981b      	ldr	r0, [sp, #108]	; 0x6c
 366:	f7ff fffe 	bl	0 <_ZN4core6option15Option$LT$T$GT$3map17hf51d1d6ead7d6077E>
 36a:	e028      	b.n	3be <_ZN121_$LT$embedded_graphics..primitives..circle..CircleIterator$LT$C$GT$$u20$as$u20$core..iter..traits..iterator..Iterator$GT$4next17h5c50471d0212345dE+0x3be>
/Users/Luppy/.cargo/registry/src/github.com-1ecc6299db9ec823/embedded-graphics-0.5.2/src/primitives/circle.rs:220
            if let Some(i) = item {
 36c:	982d      	ldr	r0, [sp, #180]	; 0xb4
 36e:	992e      	ldr	r1, [sp, #184]	; 0xb8
 370:	9a2f      	ldr	r2, [sp, #188]	; 0xbc
 372:	923a      	str	r2, [sp, #232]	; 0xe8
 374:	9139      	str	r1, [sp, #228]	; 0xe4
 376:	9038      	str	r0, [sp, #224]	; 0xe0
/Users/Luppy/.cargo/registry/src/github.com-1ecc6299db9ec823/embedded-graphics-0.5.2/src/primitives/circle.rs:221
                if i.0 >= 0 && i.1 >= 0 {
 378:	9838      	ldr	r0, [sp, #224]	; 0xe0
 37a:	f1b0 3fff 	cmp.w	r0, #4294967295	; 0xffffffff
 37e:	dc08      	bgt.n	392 <_ZN121_$LT$embedded_graphics..primitives..circle..CircleIterator$LT$C$GT$$u20$as$u20$core..iter..traits..iterator..Iterator$GT$4next17h5c50471d0212345dE+0x392>
 380:	e003      	b.n	38a <_ZN121_$LT$embedded_graphics..primitives..circle..CircleIterator$LT$C$GT$$u20$as$u20$core..iter..traits..iterator..Iterator$GT$4next17h5c50471d0212345dE+0x38a>
 382:	2001      	movs	r0, #1
 384:	f88d 00ef 	strb.w	r0, [sp, #239]	; 0xef
 388:	e008      	b.n	39c <_ZN121_$LT$embedded_graphics..primitives..circle..CircleIterator$LT$C$GT$$u20$as$u20$core..iter..traits..iterator..Iterator$GT$4next17h5c50471d0212345dE+0x39c>
 38a:	2000      	movs	r0, #0
 38c:	f88d 00ef 	strb.w	r0, [sp, #239]	; 0xef
 390:	e004      	b.n	39c <_ZN121_$LT$embedded_graphics..primitives..circle..CircleIterator$LT$C$GT$$u20$as$u20$core..iter..traits..iterator..Iterator$GT$4next17h5c50471d0212345dE+0x39c>
 392:	9839      	ldr	r0, [sp, #228]	; 0xe4
 394:	f1b0 3fff 	cmp.w	r0, #4294967295	; 0xffffffff
 398:	dcf3      	bgt.n	382 <_ZN121_$LT$embedded_graphics..primitives..circle..CircleIterator$LT$C$GT$$u20$as$u20$core..iter..traits..iterator..Iterator$GT$4next17h5c50471d0212345dE+0x382>
 39a:	e7f6      	b.n	38a <_ZN121_$LT$embedded_graphics..primitives..circle..CircleIterator$LT$C$GT$$u20$as$u20$core..iter..traits..iterator..Iterator$GT$4next17h5c50471d0212345dE+0x38a>
 39c:	f89d 00ef 	ldrb.w	r0, [sp, #239]	; 0xef
 3a0:	07c0      	lsls	r0, r0, #31
 3a2:	2800      	cmp	r0, #0
 3a4:	d101      	bne.n	3aa <_ZN121_$LT$embedded_graphics..primitives..circle..CircleIterator$LT$C$GT$$u20$as$u20$core..iter..traits..iterator..Iterator$GT$4next17h5c50471d0212345dE+0x3aa>
 3a6:	e7ff      	b.n	3a8 <_ZN121_$LT$embedded_graphics..primitives..circle..CircleIterator$LT$C$GT$$u20$as$u20$core..iter..traits..iterator..Iterator$GT$4next17h5c50471d0212345dE+0x3a8>
/Users/Luppy/.cargo/registry/src/github.com-1ecc6299db9ec823/embedded-graphics-0.5.2/src/primitives/circle.rs:220
            if let Some(i) = item {
 3a8:	e008      	b.n	3bc <_ZN121_$LT$embedded_graphics..primitives..circle..CircleIterator$LT$C$GT$$u20$as$u20$core..iter..traits..iterator..Iterator$GT$4next17h5c50471d0212345dE+0x3bc>
/Users/Luppy/.cargo/registry/src/github.com-1ecc6299db9ec823/embedded-graphics-0.5.2/src/primitives/circle.rs:222
                    break item;
 3aa:	982c      	ldr	r0, [sp, #176]	; 0xb0
 3ac:	992d      	ldr	r1, [sp, #180]	; 0xb4
 3ae:	9a2e      	ldr	r2, [sp, #184]	; 0xb8
 3b0:	9b2f      	ldr	r3, [sp, #188]	; 0xbc
 3b2:	9327      	str	r3, [sp, #156]	; 0x9c
 3b4:	9226      	str	r2, [sp, #152]	; 0x98
 3b6:	9125      	str	r1, [sp, #148]	; 0x94
 3b8:	9024      	str	r0, [sp, #144]	; 0x90
 3ba:	e7ca      	b.n	352 <_ZN121_$LT$embedded_graphics..primitives..circle..CircleIterator$LT$C$GT$$u20$as$u20$core..iter..traits..iterator..Iterator$GT$4next17h5c50471d0212345dE+0x352>
/Users/Luppy/.cargo/registry/src/github.com-1ecc6299db9ec823/embedded-graphics-0.5.2/src/primitives/circle.rs:183
        let item = loop {
 3bc:	e692      	b.n	e4 <_ZN121_$LT$embedded_graphics..primitives..circle..CircleIterator$LT$C$GT$$u20$as$u20$core..iter..traits..iterator..Iterator$GT$4next17h5c50471d0212345dE+0xe4>
/Users/Luppy/.cargo/registry/src/github.com-1ecc6299db9ec823/embedded-graphics-0.5.2/src/primitives/circle.rs:228
    }
 3be:	e652      	b.n	66 <_ZN121_$LT$embedded_graphics..primitives..circle..CircleIterator$LT$C$GT$$u20$as$u20$core..iter..traits..iterator..Iterator$GT$4next17h5c50471d0212345dE+0x66>
/Users/Luppy/.cargo/registry/src/github.com-1ecc6299db9ec823/embedded-graphics-0.5.2/src/primitives/circle.rs:177
        let radius = self.radius as i32 - self.style.stroke_width as i32 + 1;
 3c0:	f240 0000 	movw	r0, #0
 3c4:	f2c0 0000 	movt	r0, #0
 3c8:	f240 0200 	movw	r2, #0
 3cc:	f2c0 0200 	movt	r2, #0
 3d0:	2121      	movs	r1, #33	; 0x21
 3d2:	f7ff fffe 	bl	0 <_ZN4core9panicking5panic17hfdd0eecc44a682f8E>
 3d6:	defe      	udf	#254	; 0xfe
 3d8:	f240 0000 	movw	r0, #0
 3dc:	f2c0 0000 	movt	r0, #0
 3e0:	f240 0200 	movw	r2, #0
 3e4:	f2c0 0200 	movt	r2, #0
 3e8:	211c      	movs	r1, #28
 3ea:	f7ff fffe 	bl	0 <_ZN4core9panicking5panic17hfdd0eecc44a682f8E>
 3ee:	defe      	udf	#254	; 0xfe
/Users/Luppy/.cargo/registry/src/github.com-1ecc6299db9ec823/embedded-graphics-0.5.2/src/primitives/circle.rs:180
        let radius_sq = radius * radius;
 3f0:	f240 0000 	movw	r0, #0
 3f4:	f2c0 0000 	movt	r0, #0
 3f8:	f240 0200 	movw	r2, #0
 3fc:	f2c0 0200 	movt	r2, #0
 400:	2121      	movs	r1, #33	; 0x21
 402:	f7ff fffe 	bl	0 <_ZN4core9panicking5panic17hfdd0eecc44a682f8E>
 406:	defe      	udf	#254	; 0xfe
/Users/Luppy/.cargo/registry/src/github.com-1ecc6299db9ec823/embedded-graphics-0.5.2/src/primitives/circle.rs:181
        let outer_radius_sq = outer_radius * outer_radius;
 408:	f240 0000 	movw	r0, #0
 40c:	f2c0 0000 	movt	r0, #0
 410:	f240 0200 	movw	r2, #0
 414:	f2c0 0200 	movt	r2, #0
 418:	2121      	movs	r1, #33	; 0x21
 41a:	f7ff fffe 	bl	0 <_ZN4core9panicking5panic17hfdd0eecc44a682f8E>
 41e:	defe      	udf	#254	; 0xfe
/Users/Luppy/.cargo/registry/src/github.com-1ecc6299db9ec823/embedded-graphics-0.5.2/src/primitives/circle.rs:186
            let len = tx * tx + ty * ty;
 420:	f240 0000 	movw	r0, #0
 424:	f2c0 0000 	movt	r0, #0
 428:	f240 0200 	movw	r2, #0
 42c:	f2c0 0200 	movt	r2, #0
 430:	2121      	movs	r1, #33	; 0x21
 432:	f7ff fffe 	bl	0 <_ZN4core9panicking5panic17hfdd0eecc44a682f8E>
 436:	defe      	udf	#254	; 0xfe
 438:	f240 0000 	movw	r0, #0
 43c:	f2c0 0000 	movt	r0, #0
 440:	f240 0200 	movw	r2, #0
 444:	f2c0 0200 	movt	r2, #0
 448:	2121      	movs	r1, #33	; 0x21
 44a:	f7ff fffe 	bl	0 <_ZN4core9panicking5panic17hfdd0eecc44a682f8E>
 44e:	defe      	udf	#254	; 0xfe
 450:	f240 0000 	movw	r0, #0
 454:	f2c0 0000 	movt	r0, #0
 458:	f240 0200 	movw	r2, #0
 45c:	f2c0 0200 	movt	r2, #0
 460:	211c      	movs	r1, #28
 462:	f7ff fffe 	bl	0 <_ZN4core9panicking5panic17hfdd0eecc44a682f8E>
 466:	defe      	udf	#254	; 0xfe
/Users/Luppy/.cargo/registry/src/github.com-1ecc6299db9ec823/embedded-graphics-0.5.2/src/primitives/circle.rs:188
            let is_border = len > radius_sq - radius && len < outer_radius_sq + radius;
 468:	f240 0000 	movw	r0, #0
 46c:	f2c0 0000 	movt	r0, #0
 470:	f240 0200 	movw	r2, #0
 474:	f2c0 0200 	movt	r2, #0
 478:	2121      	movs	r1, #33	; 0x21
 47a:	f7ff fffe 	bl	0 <_ZN4core9panicking5panic17hfdd0eecc44a682f8E>
 47e:	defe      	udf	#254	; 0xfe
 480:	f240 0000 	movw	r0, #0
 484:	f2c0 0000 	movt	r0, #0
 488:	f240 0200 	movw	r2, #0
 48c:	f2c0 0200 	movt	r2, #0
 490:	211c      	movs	r1, #28
 492:	f7ff fffe 	bl	0 <_ZN4core9panicking5panic17hfdd0eecc44a682f8E>
 496:	defe      	udf	#254	; 0xfe
/Users/Luppy/.cargo/registry/src/github.com-1ecc6299db9ec823/embedded-graphics-0.5.2/src/primitives/circle.rs:195
                    cx + tx,
 498:	f240 0000 	movw	r0, #0
 49c:	f2c0 0000 	movt	r0, #0
 4a0:	f240 0200 	movw	r2, #0
 4a4:	f2c0 0200 	movt	r2, #0
 4a8:	211c      	movs	r1, #28
 4aa:	f7ff fffe 	bl	0 <_ZN4core9panicking5panic17hfdd0eecc44a682f8E>
 4ae:	defe      	udf	#254	; 0xfe
/Users/Luppy/.cargo/registry/src/github.com-1ecc6299db9ec823/embedded-graphics-0.5.2/src/primitives/circle.rs:196
                    cy + ty,
 4b0:	f240 0000 	movw	r0, #0
 4b4:	f2c0 0000 	movt	r0, #0
 4b8:	f240 0200 	movw	r2, #0
 4bc:	f2c0 0200 	movt	r2, #0
 4c0:	211c      	movs	r1, #28
 4c2:	f7ff fffe 	bl	0 <_ZN4core9panicking5panic17hfdd0eecc44a682f8E>
 4c6:	defe      	udf	#254	; 0xfe
/Users/Luppy/.cargo/registry/src/github.com-1ecc6299db9ec823/embedded-graphics-0.5.2/src/primitives/circle.rs:201
                    cx + tx,
 4c8:	f240 0000 	movw	r0, #0
 4cc:	f2c0 0000 	movt	r0, #0
 4d0:	f240 0200 	movw	r2, #0
 4d4:	f2c0 0200 	movt	r2, #0
 4d8:	211c      	movs	r1, #28
 4da:	f7ff fffe 	bl	0 <_ZN4core9panicking5panic17hfdd0eecc44a682f8E>
 4de:	defe      	udf	#254	; 0xfe
/Users/Luppy/.cargo/registry/src/github.com-1ecc6299db9ec823/embedded-graphics-0.5.2/src/primitives/circle.rs:202
                    cy + ty,
 4e0:	f240 0000 	movw	r0, #0
 4e4:	f2c0 0000 	movt	r0, #0
 4e8:	f240 0200 	movw	r2, #0
 4ec:	f2c0 0200 	movt	r2, #0
 4f0:	211c      	movs	r1, #28
 4f2:	f7ff fffe 	bl	0 <_ZN4core9panicking5panic17hfdd0eecc44a682f8E>
 4f6:	defe      	udf	#254	; 0xfe
/Users/Luppy/.cargo/registry/src/github.com-1ecc6299db9ec823/embedded-graphics-0.5.2/src/primitives/circle.rs:209
            self.x += 1;
 4f8:	f240 0000 	movw	r0, #0
 4fc:	f2c0 0000 	movt	r0, #0
 500:	f240 0200 	movw	r2, #0
 504:	f2c0 0200 	movt	r2, #0
 508:	211c      	movs	r1, #28
 50a:	f7ff fffe 	bl	0 <_ZN4core9panicking5panic17hfdd0eecc44a682f8E>
 50e:	defe      	udf	#254	; 0xfe
/Users/Luppy/.cargo/registry/src/github.com-1ecc6299db9ec823/embedded-graphics-0.5.2/src/primitives/circle.rs:212
                self.x = -(self.radius as i32);
 510:	f240 0000 	movw	r0, #0
 514:	f2c0 0000 	movt	r0, #0
 518:	f240 0200 	movw	r2, #0
 51c:	f2c0 0200 	movt	r2, #0
 520:	211f      	movs	r1, #31
 522:	f7ff fffe 	bl	0 <_ZN4core9panicking5panic17hfdd0eecc44a682f8E>
 526:	defe      	udf	#254	; 0xfe
/Users/Luppy/.cargo/registry/src/github.com-1ecc6299db9ec823/embedded-graphics-0.5.2/src/primitives/circle.rs:213
                self.y += 1;
 528:	f240 0000 	movw	r0, #0
 52c:	f2c0 0000 	movt	r0, #0
 530:	f240 0200 	movw	r2, #0
 534:	f2c0 0200 	movt	r2, #0
 538:	211c      	movs	r1, #28
 53a:	f7ff fffe 	bl	0 <_ZN4core9panicking5panic17hfdd0eecc44a682f8E>
 53e:	defe      	udf	#254	; 0xfe

Disassembly of section .text._ZN121_$LT$embedded_graphics..primitives..circle..CircleIterator$LT$C$GT$$u20$as$u20$core..iter..traits..iterator..Iterator$GT$4next28_$u7b$$u7b$closure$u7d$$u7d$17h320a754653374208E:

00000000 <_ZN121_$LT$embedded_graphics..primitives..circle..CircleIterator$LT$C$GT$$u20$as$u20$core..iter..traits..iterator..Iterator$GT$4next28_$u7b$$u7b$closure$u7d$$u7d$17h320a754653374208E>:
_ZN121_$LT$embedded_graphics..primitives..circle..CircleIterator$LT$C$GT$$u20$as$u20$core..iter..traits..iterator..Iterator$GT$4next28_$u7b$$u7b$closure$u7d$$u7d$17h320a754653374208E():
/Users/Luppy/.cargo/registry/src/github.com-1ecc6299db9ec823/embedded-graphics-0.5.2/src/primitives/circle.rs:227
        item.map(|(x, y, c)| Pixel(Coord::new(x, y).to_unsigned(), c))
   0:	b580      	push	{r7, lr}
   2:	b08a      	sub	sp, #40	; 0x28
   4:	680a      	ldr	r2, [r1, #0]
   6:	9207      	str	r2, [sp, #28]
   8:	684a      	ldr	r2, [r1, #4]
   a:	9208      	str	r2, [sp, #32]
   c:	8909      	ldrh	r1, [r1, #8]
   e:	f8ad 1026 	strh.w	r1, [sp, #38]	; 0x26
  12:	9907      	ldr	r1, [sp, #28]
  14:	9a08      	ldr	r2, [sp, #32]
  16:	9005      	str	r0, [sp, #20]
  18:	4608      	mov	r0, r1
  1a:	4611      	mov	r1, r2
  1c:	f7ff fffe 	bl	0 <_ZN17embedded_graphics5coord14internal_coord5Coord3new17h337630cfd7cf8814E>
  20:	9004      	str	r0, [sp, #16]
  22:	9103      	str	r1, [sp, #12]
  24:	e7ff      	b.n	26 <_ZN121_$LT$embedded_graphics..primitives..circle..CircleIterator$LT$C$GT$$u20$as$u20$core..iter..traits..iterator..Iterator$GT$4next28_$u7b$$u7b$closure$u7d$$u7d$17h320a754653374208E+0x26>
  26:	9804      	ldr	r0, [sp, #16]
  28:	9903      	ldr	r1, [sp, #12]
  2a:	f7ff fffe 	bl	0 <_ZN104_$LT$embedded_graphics..coord..internal_coord..Coord$u20$as$u20$embedded_graphics..coord..ToUnsigned$GT$11to_unsigned17hae862e0dbc899c11E>
  2e:	9002      	str	r0, [sp, #8]
  30:	9101      	str	r1, [sp, #4]
  32:	e7ff      	b.n	34 <_ZN121_$LT$embedded_graphics..primitives..circle..CircleIterator$LT$C$GT$$u20$as$u20$core..iter..traits..iterator..Iterator$GT$4next28_$u7b$$u7b$closure$u7d$$u7d$17h320a754653374208E+0x34>
  34:	f8bd 0026 	ldrh.w	r0, [sp, #38]	; 0x26
  38:	9902      	ldr	r1, [sp, #8]
  3a:	9a05      	ldr	r2, [sp, #20]
  3c:	6011      	str	r1, [r2, #0]
  3e:	9b01      	ldr	r3, [sp, #4]
  40:	6053      	str	r3, [r2, #4]
  42:	8110      	strh	r0, [r2, #8]
  44:	b00a      	add	sp, #40	; 0x28
  46:	bd80      	pop	{r7, pc}

Disassembly of section .text._ZN17embedded_graphics10primitives6circle15Circle$LT$C$GT$3new17h919718b5bd96a6bbE:

00000000 <_ZN17embedded_graphics10primitives6circle15Circle$LT$C$GT$3new17h919718b5bd96a6bbE>:
_ZN17embedded_graphics10primitives6circle15Circle$LT$C$GT$3new17h919718b5bd96a6bbE():
/Users/Luppy/.cargo/registry/src/github.com-1ecc6299db9ec823/embedded-graphics-0.5.2/src/primitives/circle.rs:62
    pub fn new(center: Coord, radius: u32) -> Self {
   0:	b580      	push	{r7, lr}
   2:	b08a      	sub	sp, #40	; 0x28
   4:	9104      	str	r1, [sp, #16]
   6:	9205      	str	r2, [sp, #20]
   8:	9306      	str	r3, [sp, #24]
/Users/Luppy/.cargo/registry/src/github.com-1ecc6299db9ec823/embedded-graphics-0.5.2/src/primitives/circle.rs:64
            center,
   a:	9904      	ldr	r1, [sp, #16]
   c:	9a05      	ldr	r2, [sp, #20]
/Users/Luppy/.cargo/registry/src/github.com-1ecc6299db9ec823/embedded-graphics-0.5.2/src/primitives/circle.rs:65
            radius,
   e:	9b06      	ldr	r3, [sp, #24]
  10:	f10d 0c1c 	add.w	ip, sp, #28
/Users/Luppy/.cargo/registry/src/github.com-1ecc6299db9ec823/embedded-graphics-0.5.2/src/primitives/circle.rs:66
            style: Style::default(),
  14:	9003      	str	r0, [sp, #12]
  16:	4660      	mov	r0, ip
  18:	9102      	str	r1, [sp, #8]
  1a:	9201      	str	r2, [sp, #4]
  1c:	9300      	str	r3, [sp, #0]
  1e:	f7ff fffe 	bl	0 <_ZN83_$LT$embedded_graphics..style..Style$LT$P$GT$$u20$as$u20$core..default..Default$GT$7default17h18df05f9e5f2bd22E>
  22:	e7ff      	b.n	24 <_ZN17embedded_graphics10primitives6circle15Circle$LT$C$GT$3new17h919718b5bd96a6bbE+0x24>
/Users/Luppy/.cargo/registry/src/github.com-1ecc6299db9ec823/embedded-graphics-0.5.2/src/primitives/circle.rs:63
        Circle {
  24:	9802      	ldr	r0, [sp, #8]
  26:	9903      	ldr	r1, [sp, #12]
  28:	6008      	str	r0, [r1, #0]
  2a:	9a01      	ldr	r2, [sp, #4]
  2c:	604a      	str	r2, [r1, #4]
  2e:	9b00      	ldr	r3, [sp, #0]
  30:	608b      	str	r3, [r1, #8]
  32:	f8bd c024 	ldrh.w	ip, [sp, #36]	; 0x24
  36:	f8a1 c014 	strh.w	ip, [r1, #20]
  3a:	f8dd c01c 	ldr.w	ip, [sp, #28]
  3e:	f8dd e020 	ldr.w	lr, [sp, #32]
  42:	f8c1 e010 	str.w	lr, [r1, #16]
  46:	f8c1 c00c 	str.w	ip, [r1, #12]
/Users/Luppy/.cargo/registry/src/github.com-1ecc6299db9ec823/embedded-graphics-0.5.2/src/primitives/circle.rs:68
    }
  4a:	b00a      	add	sp, #40	; 0x28
  4c:	bd80      	pop	{r7, pc}

app-d559bf047a1af437.5akyy5exton4j4np.rcgu.o:     file format elf32-littlearm

SYMBOL TABLE:
00000000 l    df *ABS*	00000000 5akyy5exton4j4np
00001d07 l       .debug_str	00000000 
000026d1 l       .debug_str	00000000 
00002728 l       .debug_str	00000000 
0000277b l       .debug_str	00000000 
0000277f l       .debug_str	00000000 
00002787 l       .debug_str	00000000 
00002790 l       .debug_str	00000000 
00002797 l       .debug_str	00000000 
0000279d l       .debug_str	00000000 
000027a3 l       .debug_str	00000000 
000027a8 l       .debug_str	00000000 
000027b0 l       .debug_str	00000000 
000027b5 l       .debug_str	00000000 
00002825 l       .debug_str	00000000 
0000285b l       .debug_str	00000000 
0000288d l       .debug_str	00000000 
000028fd l       .debug_str	00000000 
0000292b l       .debug_str	00000000 
00002955 l       .debug_str	00000000 
0000295a l       .debug_str	00000000 
00002979 l       .debug_str	00000000 
00002997 l       .debug_str	00000000 
0000299b l       .debug_str	00000000 
000029a0 l       .debug_str	00000000 
000029a2 l       .debug_str	00000000 
00000000 l       .debug_str	00000000 
00000041 l       .debug_str	00000000 
00000055 l       .debug_str	00000000 
00000080 l       .debug_str	00000000 
00000087 l       .debug_str	00000000 
0000008e l       .debug_str	00000000 
00000095 l       .debug_str	00000000 
00000099 l       .debug_str	00000000 
000000a1 l       .debug_str	00000000 
000000ac l       .debug_str	00000000 
000000b7 l       .debug_str	00000000 
000000c4 l       .debug_str	00000000 
000000cf l       .debug_str	00000000 
000000d7 l       .debug_str	00000000 
000000e2 l       .debug_str	00000000 
000000ed l       .debug_str	00000000 
000000f7 l       .debug_str	00000000 
00000102 l       .debug_str	00000000 
0000010d l       .debug_str	00000000 
0000011a l       .debug_str	00000000 
00000126 l       .debug_str	00000000 
00000133 l       .debug_str	00000000 
00000141 l       .debug_str	00000000 
0000014b l       .debug_str	00000000 
00000158 l       .debug_str	00000000 
00000164 l       .debug_str	00000000 
00000168 l       .debug_str	00000000 
0000016d l       .debug_str	00000000 
00000170 l       .debug_str	00000000 
00000173 l       .debug_str	00000000 
00000177 l       .debug_str	00000000 
0000017e l       .debug_str	00000000 
00000182 l       .debug_str	00000000 
0000018d l       .debug_str	00000000 
00000198 l       .debug_str	00000000 
0000019f l       .debug_str	00000000 
000001a3 l       .debug_str	00000000 
000001a6 l       .debug_str	00000000 
000001a8 l       .debug_str	00000000 
000001aa l       .debug_str	00000000 
000001ba l       .debug_str	00000000 
000001be l       .debug_str	00000000 
000001c5 l       .debug_str	00000000 
000001c8 l       .debug_str	00000000 
000001d2 l       .debug_str	00000000 
000001dd l       .debug_str	00000000 
000001e6 l       .debug_str	00000000 
000001f1 l       .debug_str	00000000 
000001fd l       .debug_str	00000000 
00000206 l       .debug_str	00000000 
0000020d l       .debug_str	00000000 
00000215 l       .debug_str	00000000 
0000021d l       .debug_str	00000000 
00000227 l       .debug_str	00000000 
0000022d l       .debug_str	00000000 
00000234 l       .debug_str	00000000 
0000023e l       .debug_str	00000000 
00000245 l       .debug_str	00000000 
0000024c l       .debug_str	00000000 
00000251 l       .debug_str	00000000 
00000268 l       .debug_str	00000000 
00000295 l       .debug_str	00000000 
0000029a l       .debug_str	00000000 
000002cf l       .debug_str	00000000 
000002d5 l       .debug_str	00000000 
000002db l       .debug_str	00000000 
000002ea l       .debug_str	00000000 
000002fa l       .debug_str	00000000 
0000030a l       .debug_str	00000000 
00000312 l       .debug_str	00000000 
0000033b l       .debug_str	00000000 
00000399 l       .debug_str	00000000 
000003ff l       .debug_str	00000000 
00000406 l       .debug_str	00000000 
0000040e l       .debug_str	00000000 
00000417 l       .debug_str	00000000 
00000435 l       .debug_str	00000000 
00000445 l       .debug_str	00000000 
00000453 l       .debug_str	00000000 
0000045e l       .debug_str	00000000 
0000046b l       .debug_str	00000000 
0000047a l       .debug_str	00000000 
00000484 l       .debug_str	00000000 
0000049a l       .debug_str	00000000 
000004a4 l       .debug_str	00000000 
000004ad l       .debug_str	00000000 
000004b6 l       .debug_str	00000000 
000004dc l       .debug_str	00000000 
000004f2 l       .debug_str	00000000 
000004fd l       .debug_str	00000000 
00000513 l       .debug_str	00000000 
0000051b l       .debug_str	00000000 
0000053c l       .debug_str	00000000 
00000545 l       .debug_str	00000000 
0000054e l       .debug_str	00000000 
00000559 l       .debug_str	00000000 
00000563 l       .debug_str	00000000 
00000569 l       .debug_str	00000000 
000005a1 l       .debug_str	00000000 
000005e1 l       .debug_str	00000000 
000005e8 l       .debug_str	00000000 
000005f0 l       .debug_str	00000000 
00000607 l       .debug_str	00000000 
00000610 l       .debug_str	00000000 
00000632 l       .debug_str	00000000 
0000063c l       .debug_str	00000000 
00000663 l       .debug_str	00000000 
0000067b l       .debug_str	00000000 
00000685 l       .debug_str	00000000 
000006a8 l       .debug_str	00000000 
000006f0 l       .debug_str	00000000 
000006f9 l       .debug_str	00000000 
00000738 l       .debug_str	00000000 
00000746 l       .debug_str	00000000 
0000074b l       .debug_str	00000000 
0000078a l       .debug_str	00000000 
00000797 l       .debug_str	00000000 
000007d7 l       .debug_str	00000000 
0000081e l       .debug_str	00000000 
0000085e l       .debug_str	00000000 
0000086d l       .debug_str	00000000 
00000870 l       .debug_str	00000000 
00000877 l       .debug_str	00000000 
00000880 l       .debug_str	00000000 
0000088f l       .debug_str	00000000 
00000893 l       .debug_str	00000000 
0000089b l       .debug_str	00000000 
000008a1 l       .debug_str	00000000 
000008ad l       .debug_str	00000000 
000008b5 l       .debug_str	00000000 
0000090f l       .debug_str	00000000 
00000971 l       .debug_str	00000000 
0000097c l       .debug_str	00000000 
000009c3 l       .debug_str	00000000 
00000a12 l       .debug_str	00000000 
00000a1c l       .debug_str	00000000 
00000a59 l       .debug_str	00000000 
00000a9e l       .debug_str	00000000 
00000aa7 l       .debug_str	00000000 
00000ab7 l       .debug_str	00000000 
00000abf l       .debug_str	00000000 
00000b14 l       .debug_str	00000000 
00000b71 l       .debug_str	00000000 
00000b7d l       .debug_str	00000000 
00000b86 l       .debug_str	00000000 
00000b92 l       .debug_str	00000000 
00000b9e l       .debug_str	00000000 
00000ba7 l       .debug_str	00000000 
00000baf l       .debug_str	00000000 
00000bb7 l       .debug_str	00000000 
00000bcc l       .debug_str	00000000 
00000bd3 l       .debug_str	00000000 
00000bf3 l       .debug_str	00000000 
00000bfa l       .debug_str	00000000 
00000c02 l       .debug_str	00000000 
00000c0c l       .debug_str	00000000 
00000c23 l       .debug_str	00000000 
00000c28 l       .debug_str	00000000 
00000c30 l       .debug_str	00000000 
00000c39 l       .debug_str	00000000 
00000c42 l       .debug_str	00000000 
00000c4b l       .debug_str	00000000 
00000c53 l       .debug_str	00000000 
00000c5a l       .debug_str	00000000 
00000c66 l       .debug_str	00000000 
00000c71 l       .debug_str	00000000 
00000c79 l       .debug_str	00000000 
00000c81 l       .debug_str	00000000 
00000d7d l       .debug_str	00000000 
00000e81 l       .debug_str	00000000 
00000e8f l       .debug_str	00000000 
00000e9a l       .debug_str	00000000 
00000ea4 l       .debug_str	00000000 
00000eb8 l       .debug_str	00000000 
00000ec3 l       .debug_str	00000000 
00000ef1 l       .debug_str	00000000 
00000f6c l       .debug_str	00000000 
00000fef l       .debug_str	00000000 
00000ffd l       .debug_str	00000000 
0000105c l       .debug_str	00000000 
000010c3 l       .debug_str	00000000 
000010d9 l       .debug_str	00000000 
000010e9 l       .debug_str	00000000 
000010f8 l       .debug_str	00000000 
000010fc l       .debug_str	00000000 
00001103 l       .debug_str	00000000 
00001109 l       .debug_str	00000000 
0000110d l       .debug_str	00000000 
00001113 l       .debug_str	00000000 
00001119 l       .debug_str	00000000 
00001125 l       .debug_str	00000000 
0000112d l       .debug_str	00000000 
00001133 l       .debug_str	00000000 
0000113b l       .debug_str	00000000 
00001141 l       .debug_str	00000000 
00001164 l       .debug_str	00000000 
00001174 l       .debug_str	00000000 
000011a7 l       .debug_str	00000000 
000011e7 l       .debug_str	00000000 
0000122f l       .debug_str	00000000 
00001233 l       .debug_str	00000000 
00001239 l       .debug_str	00000000 
0000123f l       .debug_str	00000000 
00001245 l       .debug_str	00000000 
00001257 l       .debug_str	00000000 
0000128c l       .debug_str	00000000 
000012ce l       .debug_str	00000000 
00001318 l       .debug_str	00000000 
0000131c l       .debug_str	00000000 
00001322 l       .debug_str	00000000 
00001328 l       .debug_str	00000000 
0000132e l       .debug_str	00000000 
00001340 l       .debug_str	00000000 
00001375 l       .debug_str	00000000 
000013b7 l       .debug_str	00000000 
00001401 l       .debug_str	00000000 
00001405 l       .debug_str	00000000 
0000140b l       .debug_str	00000000 
00001411 l       .debug_str	00000000 
00001417 l       .debug_str	00000000 
0000141d l       .debug_str	00000000 
0000142e l       .debug_str	00000000 
00001462 l       .debug_str	00000000 
000014a3 l       .debug_str	00000000 
000014ec l       .debug_str	00000000 
000014f1 l       .debug_str	00000000 
000014f6 l       .debug_str	00000000 
000014fa l       .debug_str	00000000 
00001500 l       .debug_str	00000000 
00001506 l       .debug_str	00000000 
0000150c l       .debug_str	00000000 
0000151d l       .debug_str	00000000 
00001551 l       .debug_str	00000000 
00001592 l       .debug_str	00000000 
000015db l       .debug_str	00000000 
000015df l       .debug_str	00000000 
000015e8 l       .debug_str	00000000 
000015f9 l       .debug_str	00000000 
0000162d l       .debug_str	00000000 
0000166e l       .debug_str	00000000 
000016b7 l       .debug_str	00000000 
000016bc l       .debug_str	00000000 
000016c0 l       .debug_str	00000000 
000016c9 l       .debug_str	00000000 
000016d0 l       .debug_str	00000000 
000016d8 l       .debug_str	00000000 
000016ea l       .debug_str	00000000 
0000171f l       .debug_str	00000000 
00001761 l       .debug_str	00000000 
000017ab l       .debug_str	00000000 
000017af l       .debug_str	00000000 
000017b5 l       .debug_str	00000000 
000017bb l       .debug_str	00000000 
000017c1 l       .debug_str	00000000 
000017c7 l       .debug_str	00000000 
000017cf l       .debug_str	00000000 
000017dd l       .debug_str	00000000 
000017ec l       .debug_str	00000000 
000017fd l       .debug_str	00000000 
00001808 l       .debug_str	00000000 
00001813 l       .debug_str	00000000 
0000181e l       .debug_str	00000000 
00001825 l       .debug_str	00000000 
00001848 l       .debug_str	00000000 
0000185a l       .debug_str	00000000 
0000188f l       .debug_str	00000000 
000018d1 l       .debug_str	00000000 
0000191b l       .debug_str	00000000 
0000191f l       .debug_str	00000000 
00001929 l       .debug_str	00000000 
0000193b l       .debug_str	00000000 
00001970 l       .debug_str	00000000 
000019b2 l       .debug_str	00000000 
000019fc l       .debug_str	00000000 
00001a01 l       .debug_str	00000000 
00001a0b l       .debug_str	00000000 
00001a1d l       .debug_str	00000000 
00001a52 l       .debug_str	00000000 
00001a94 l       .debug_str	00000000 
00001ade l       .debug_str	00000000 
00001af2 l       .debug_str	00000000 
00001af6 l       .debug_str	00000000 
00001b04 l       .debug_str	00000000 
00001b14 l       .debug_str	00000000 
00001b1d l       .debug_str	00000000 
00001b28 l       .debug_str	00000000 
00001b37 l       .debug_str	00000000 
00001b4c l       .debug_str	00000000 
00001b7d l       .debug_str	00000000 
00001c1a l       .debug_str	00000000 
00001cbf l       .debug_str	00000000 
00001cca l       .debug_str	00000000 
00001cd3 l       .debug_str	00000000 
00001cf4 l       .debug_str	00000000 
00001d3d l       .debug_str	00000000 
00001dc0 l       .debug_str	00000000 
00001e4b l       .debug_str	00000000 
00001e67 l       .debug_str	00000000 
00001eb3 l       .debug_str	00000000 
00001f07 l       .debug_str	00000000 
00001f24 l       .debug_str	00000000 
00001f38 l       .debug_str	00000000 
00001f84 l       .debug_str	00000000 
00001fd8 l       .debug_str	00000000 
00001fee l       .debug_str	00000000 
00002002 l       .debug_str	00000000 
00002049 l       .debug_str	00000000 
00002098 l       .debug_str	00000000 
000020a1 l       .debug_str	00000000 
000020af l       .debug_str	00000000 
000020e0 l       .debug_str	00000000 
000020e6 l       .debug_str	00000000 
000020ee l       .debug_str	00000000 
000020f5 l       .debug_str	00000000 
000020fd l       .debug_str	00000000 
00002108 l       .debug_str	00000000 
00002110 l       .debug_str	00000000 
0000211f l       .debug_str	00000000 
00002123 l       .debug_str	00000000 
0000212e l       .debug_str	00000000 
0000213a l       .debug_str	00000000 
00002145 l       .debug_str	00000000 
00002156 l       .debug_str	00000000 
0000215c l       .debug_str	00000000 
00002164 l       .debug_str	00000000 
0000216b l       .debug_str	00000000 
00002175 l       .debug_str	00000000 
0000217d l       .debug_str	00000000 
00002185 l       .debug_str	00000000 
000021a7 l       .debug_str	00000000 
000021b2 l       .debug_str	00000000 
000021be l       .debug_str	00000000 
000021c6 l       .debug_str	00000000 
000021cf l       .debug_str	00000000 
000021da l       .debug_str	00000000 
000021e1 l       .debug_str	00000000 
000021ec l       .debug_str	00000000 
000021f7 l       .debug_str	00000000 
00002207 l       .debug_str	00000000 
00002217 l       .debug_str	00000000 
0000224a l       .debug_str	00000000 
0000225f l       .debug_str	00000000 
00002268 l       .debug_str	00000000 
000022c5 l       .debug_str	00000000 
0000232a l       .debug_str	00000000 
00002334 l       .debug_str	00000000 
00002344 l       .debug_str	00000000 
00002359 l       .debug_str	00000000 
00002361 l       .debug_str	00000000 
000023c5 l       .debug_str	00000000 
00002431 l       .debug_str	00000000 
00002438 l       .debug_str	00000000 
00002440 l       .debug_str	00000000 
0000245e l       .debug_str	00000000 
0000246e l       .debug_str	00000000 
000024a1 l       .debug_str	00000000 
000024b6 l       .debug_str	00000000 
000024c9 l       .debug_str	00000000 
000024de l       .debug_str	00000000 
000024e5 l       .debug_str	00000000 
000024fa l       .debug_str	00000000 
00002524 l       .debug_str	00000000 
000025a0 l       .debug_str	00000000 
00002624 l       .debug_str	00000000 
0000262b l       .debug_str	00000000 
00002633 l       .debug_str	00000000 
00002651 l       .debug_str	00000000 
00002661 l       .debug_str	00000000 
00000000 l     O .rodata..Lanon.7fa53b69f5e0d765a735996f9cd7b547.0	00000010 .Lanon.7fa53b69f5e0d765a735996f9cd7b547.0
00000000 l     O .rodata..Lanon.7fa53b69f5e0d765a735996f9cd7b547.1	00000010 .Lanon.7fa53b69f5e0d765a735996f9cd7b547.1
00000000 l    d  .text._ZN4core6result19Result$LT$T$C$E$GT$5is_ok17h0a19641dd28a638bE	00000000 .text._ZN4core6result19Result$LT$T$C$E$GT$5is_ok17h0a19641dd28a638bE
00000000 l    d  .text._ZN4core6result19Result$LT$T$C$E$GT$5is_ok17h2169747e842d48b7E	00000000 .text._ZN4core6result19Result$LT$T$C$E$GT$5is_ok17h2169747e842d48b7E
00000000 l    d  .text._ZN4core6result19Result$LT$T$C$E$GT$6expect17h5edf8d0f21db95a4E	00000000 .text._ZN4core6result19Result$LT$T$C$E$GT$6expect17h5edf8d0f21db95a4E
00000000 l    d  .text._ZN4core6result19Result$LT$T$C$E$GT$6expect17hd5a6aacc7d7a46d0E	00000000 .text._ZN4core6result19Result$LT$T$C$E$GT$6expect17hd5a6aacc7d7a46d0E
00000000 l    d  .text._ZN73_$LT$core..result..Result$LT$T$C$E$GT$$u20$as$u20$core..ops..try..Try$GT$11into_result17h2dd827ac295b6133E	00000000 .text._ZN73_$LT$core..result..Result$LT$T$C$E$GT$$u20$as$u20$core..ops..try..Try$GT$11into_result17h2dd827ac295b6133E
00000000 l    d  .text._ZN73_$LT$core..result..Result$LT$T$C$E$GT$$u20$as$u20$core..ops..try..Try$GT$11into_result17h8dd38b8fdc06890dE	00000000 .text._ZN73_$LT$core..result..Result$LT$T$C$E$GT$$u20$as$u20$core..ops..try..Try$GT$11into_result17h8dd38b8fdc06890dE
00000000 l    d  .text._ZN73_$LT$core..result..Result$LT$T$C$E$GT$$u20$as$u20$core..ops..try..Try$GT$11into_result17hb1f80aacfcb37e79E	00000000 .text._ZN73_$LT$core..result..Result$LT$T$C$E$GT$$u20$as$u20$core..ops..try..Try$GT$11into_result17hb1f80aacfcb37e79E
00000000 l    d  .rodata..Lanon.7fa53b69f5e0d765a735996f9cd7b547.0	00000000 .rodata..Lanon.7fa53b69f5e0d765a735996f9cd7b547.0
00000000 l    d  .rodata..Lanon.7fa53b69f5e0d765a735996f9cd7b547.1	00000000 .rodata..Lanon.7fa53b69f5e0d765a735996f9cd7b547.1
00000000 l    d  .debug_loc	00000000 .debug_loc
00000000 l    d  .debug_abbrev	00000000 .debug_abbrev
00000000 l    d  .debug_info	00000000 .debug_info
00000000 l    d  .debug_ranges	00000000 .debug_ranges
00000000 l    d  .debug_frame	00000000 .debug_frame
00000000 l    d  .debug_line	00000000 .debug_line
00000000         *UND*	00000000 .hidden _ZN4core3fmt3num50_$LT$impl$u20$core..fmt..Debug$u20$for$u20$u16$GT$3fmt17h6b89a5d8d46ad5afE
00000000         *UND*	00000000 _ZN4core3ptr18real_drop_in_place17h0feddc9951c70e67E
00000000         *UND*	00000000 _ZN4core3ptr18real_drop_in_place17hfaa6c013da8d0049E
00000000         *UND*	00000000 _ZN4core6result13unwrap_failed17h7251308ec569cdc6E
00000000 g     F .text._ZN4core6result19Result$LT$T$C$E$GT$5is_ok17h0a19641dd28a638bE	0000002a _ZN4core6result19Result$LT$T$C$E$GT$5is_ok17h0a19641dd28a638bE
00000000 g     F .text._ZN4core6result19Result$LT$T$C$E$GT$5is_ok17h2169747e842d48b7E	0000002a _ZN4core6result19Result$LT$T$C$E$GT$5is_ok17h2169747e842d48b7E
00000000 g     F .text._ZN4core6result19Result$LT$T$C$E$GT$6expect17h5edf8d0f21db95a4E	0000004a _ZN4core6result19Result$LT$T$C$E$GT$6expect17h5edf8d0f21db95a4E
00000000 g     F .text._ZN4core6result19Result$LT$T$C$E$GT$6expect17hd5a6aacc7d7a46d0E	00000052 _ZN4core6result19Result$LT$T$C$E$GT$6expect17hd5a6aacc7d7a46d0E
00000000         *UND*	00000000 _ZN64_$LT$mynewt..result..MynewtError$u20$as$u20$core..fmt..Debug$GT$3fmt17h47f67cce6ea143caE
00000000 g     F .text._ZN73_$LT$core..result..Result$LT$T$C$E$GT$$u20$as$u20$core..ops..try..Try$GT$11into_result17h2dd827ac295b6133E	00000014 _ZN73_$LT$core..result..Result$LT$T$C$E$GT$$u20$as$u20$core..ops..try..Try$GT$11into_result17h2dd827ac295b6133E
00000000 g     F .text._ZN73_$LT$core..result..Result$LT$T$C$E$GT$$u20$as$u20$core..ops..try..Try$GT$11into_result17h8dd38b8fdc06890dE	00000016 _ZN73_$LT$core..result..Result$LT$T$C$E$GT$$u20$as$u20$core..ops..try..Try$GT$11into_result17h8dd38b8fdc06890dE
00000000 g     F .text._ZN73_$LT$core..result..Result$LT$T$C$E$GT$$u20$as$u20$core..ops..try..Try$GT$11into_result17hb1f80aacfcb37e79E	0000000a _ZN73_$LT$core..result..Result$LT$T$C$E$GT$$u20$as$u20$core..ops..try..Try$GT$11into_result17hb1f80aacfcb37e79E



Disassembly of section .text._ZN4core6result19Result$LT$T$C$E$GT$5is_ok17h0a19641dd28a638bE:

00000000 <_ZN4core6result19Result$LT$T$C$E$GT$5is_ok17h0a19641dd28a638bE>:
_ZN4core6result19Result$LT$T$C$E$GT$5is_ok17h0a19641dd28a638bE():
/rustc/412f43ac5b4ae8c3599e71c6972112e9be4758fa/src/libcore/result.rs:283
   0:	b082      	sub	sp, #8
   2:	9000      	str	r0, [sp, #0]
/rustc/412f43ac5b4ae8c3599e71c6972112e9be4758fa/src/libcore/result.rs:285
   4:	9800      	ldr	r0, [sp, #0]
   6:	8800      	ldrh	r0, [r0, #0]
   8:	4601      	mov	r1, r0
   a:	2800      	cmp	r0, #0
   c:	d005      	beq.n	1a <_ZN4core6result19Result$LT$T$C$E$GT$5is_ok17h0a19641dd28a638bE+0x1a>
   e:	e7ff      	b.n	10 <_ZN4core6result19Result$LT$T$C$E$GT$5is_ok17h0a19641dd28a638bE+0x10>
  10:	2000      	movs	r0, #0
/rustc/412f43ac5b4ae8c3599e71c6972112e9be4758fa/src/libcore/result.rs:286
  12:	f88d 0007 	strb.w	r0, [sp, #7]
/rustc/412f43ac5b4ae8c3599e71c6972112e9be4758fa/src/libcore/result.rs:284
  16:	e004      	b.n	22 <_ZN4core6result19Result$LT$T$C$E$GT$5is_ok17h0a19641dd28a638bE+0x22>
  18:	defe      	udf	#254	; 0xfe
  1a:	2001      	movs	r0, #1
/rustc/412f43ac5b4ae8c3599e71c6972112e9be4758fa/src/libcore/result.rs:285
  1c:	f88d 0007 	strb.w	r0, [sp, #7]
/rustc/412f43ac5b4ae8c3599e71c6972112e9be4758fa/src/libcore/result.rs:284
  20:	e7ff      	b.n	22 <_ZN4core6result19Result$LT$T$C$E$GT$5is_ok17h0a19641dd28a638bE+0x22>
/rustc/412f43ac5b4ae8c3599e71c6972112e9be4758fa/src/libcore/result.rs:288
  22:	f89d 0007 	ldrb.w	r0, [sp, #7]
  26:	b002      	add	sp, #8
  28:	4770      	bx	lr

Disassembly of section .text._ZN4core6result19Result$LT$T$C$E$GT$5is_ok17h2169747e842d48b7E:

00000000 <_ZN4core6result19Result$LT$T$C$E$GT$5is_ok17h2169747e842d48b7E>:
_ZN4core6result19Result$LT$T$C$E$GT$5is_ok17h2169747e842d48b7E():
/rustc/412f43ac5b4ae8c3599e71c6972112e9be4758fa/src/libcore/result.rs:283
   0:	b082      	sub	sp, #8
   2:	9000      	str	r0, [sp, #0]
/rustc/412f43ac5b4ae8c3599e71c6972112e9be4758fa/src/libcore/result.rs:285
   4:	9800      	ldr	r0, [sp, #0]
   6:	7800      	ldrb	r0, [r0, #0]
   8:	07c1      	lsls	r1, r0, #31
   a:	2900      	cmp	r1, #0
   c:	d005      	beq.n	1a <_ZN4core6result19Result$LT$T$C$E$GT$5is_ok17h2169747e842d48b7E+0x1a>
   e:	e7ff      	b.n	10 <_ZN4core6result19Result$LT$T$C$E$GT$5is_ok17h2169747e842d48b7E+0x10>
  10:	2000      	movs	r0, #0
/rustc/412f43ac5b4ae8c3599e71c6972112e9be4758fa/src/libcore/result.rs:286
  12:	f88d 0007 	strb.w	r0, [sp, #7]
/rustc/412f43ac5b4ae8c3599e71c6972112e9be4758fa/src/libcore/result.rs:284
  16:	e004      	b.n	22 <_ZN4core6result19Result$LT$T$C$E$GT$5is_ok17h2169747e842d48b7E+0x22>
  18:	defe      	udf	#254	; 0xfe
  1a:	2001      	movs	r0, #1
/rustc/412f43ac5b4ae8c3599e71c6972112e9be4758fa/src/libcore/result.rs:285
  1c:	f88d 0007 	strb.w	r0, [sp, #7]
/rustc/412f43ac5b4ae8c3599e71c6972112e9be4758fa/src/libcore/result.rs:284
  20:	e7ff      	b.n	22 <_ZN4core6result19Result$LT$T$C$E$GT$5is_ok17h2169747e842d48b7E+0x22>
/rustc/412f43ac5b4ae8c3599e71c6972112e9be4758fa/src/libcore/result.rs:288
  22:	f89d 0007 	ldrb.w	r0, [sp, #7]
  26:	b002      	add	sp, #8
  28:	4770      	bx	lr

Disassembly of section .text._ZN4core6result19Result$LT$T$C$E$GT$6expect17h5edf8d0f21db95a4E:

00000000 <_ZN4core6result19Result$LT$T$C$E$GT$6expect17h5edf8d0f21db95a4E>:
_ZN4core6result19Result$LT$T$C$E$GT$6expect17h5edf8d0f21db95a4E():
/rustc/412f43ac5b4ae8c3599e71c6972112e9be4758fa/src/libcore/result.rs:981
   0:	b086      	sub	sp, #24
   2:	9102      	str	r1, [sp, #8]
   4:	9203      	str	r2, [sp, #12]
/rustc/412f43ac5b4ae8c3599e71c6972112e9be4758fa/src/libcore/result.rs:983
   6:	6801      	ldr	r1, [r0, #0]
   8:	2900      	cmp	r1, #0
   a:	9001      	str	r0, [sp, #4]
   c:	d002      	beq.n	14 <_ZN4core6result19Result$LT$T$C$E$GT$6expect17h5edf8d0f21db95a4E+0x14>
   e:	e7ff      	b.n	10 <_ZN4core6result19Result$LT$T$C$E$GT$6expect17h5edf8d0f21db95a4E+0x10>
  10:	e00a      	b.n	28 <_ZN4core6result19Result$LT$T$C$E$GT$6expect17h5edf8d0f21db95a4E+0x28>
/rustc/412f43ac5b4ae8c3599e71c6972112e9be4758fa/src/libcore/result.rs:982
  12:	defe      	udf	#254	; 0xfe
/rustc/412f43ac5b4ae8c3599e71c6972112e9be4758fa/src/libcore/result.rs:983
  14:	9801      	ldr	r0, [sp, #4]
  16:	6841      	ldr	r1, [r0, #4]
  18:	9104      	str	r1, [sp, #16]
  1a:	9804      	ldr	r0, [sp, #16]
/rustc/412f43ac5b4ae8c3599e71c6972112e9be4758fa/src/libcore/result.rs:986
  1c:	9901      	ldr	r1, [sp, #4]
  1e:	680a      	ldr	r2, [r1, #0]
  20:	2a00      	cmp	r2, #0
  22:	9000      	str	r0, [sp, #0]
  24:	d00d      	beq.n	42 <_ZN4core6result19Result$LT$T$C$E$GT$6expect17h5edf8d0f21db95a4E+0x42>
  26:	e00f      	b.n	48 <_ZN4core6result19Result$LT$T$C$E$GT$6expect17h5edf8d0f21db95a4E+0x48>
/rustc/412f43ac5b4ae8c3599e71c6972112e9be4758fa/src/libcore/result.rs:984
  28:	9801      	ldr	r0, [sp, #4]
  2a:	6841      	ldr	r1, [r0, #4]
  2c:	9105      	str	r1, [sp, #20]
  2e:	9802      	ldr	r0, [sp, #8]
  30:	9903      	ldr	r1, [sp, #12]
  32:	f240 0300 	movw	r3, #0
  36:	f2c0 0300 	movt	r3, #0
  3a:	aa05      	add	r2, sp, #20
  3c:	f7ff fffe 	bl	0 <_ZN4core6result13unwrap_failed17h7251308ec569cdc6E>
  40:	defe      	udf	#254	; 0xfe
/rustc/412f43ac5b4ae8c3599e71c6972112e9be4758fa/src/libcore/result.rs:986
  42:	9800      	ldr	r0, [sp, #0]
  44:	b006      	add	sp, #24
  46:	4770      	bx	lr
  48:	e7fb      	b.n	42 <_ZN4core6result19Result$LT$T$C$E$GT$6expect17h5edf8d0f21db95a4E+0x42>

Disassembly of section .text._ZN4core6result19Result$LT$T$C$E$GT$6expect17hd5a6aacc7d7a46d0E:

00000000 <_ZN4core6result19Result$LT$T$C$E$GT$6expect17hd5a6aacc7d7a46d0E>:
_ZN4core6result19Result$LT$T$C$E$GT$6expect17hd5a6aacc7d7a46d0E():
/rustc/412f43ac5b4ae8c3599e71c6972112e9be4758fa/src/libcore/result.rs:981
   0:	b580      	push	{r7, lr}
   2:	b084      	sub	sp, #16
   4:	468c      	mov	ip, r1
   6:	4686      	mov	lr, r0
   8:	f8ad 0000 	strh.w	r0, [sp]
   c:	f8ad 1002 	strh.w	r1, [sp, #2]
  10:	9201      	str	r2, [sp, #4]
  12:	9302      	str	r3, [sp, #8]
/rustc/412f43ac5b4ae8c3599e71c6972112e9be4758fa/src/libcore/result.rs:983
  14:	f8bd 0000 	ldrh.w	r0, [sp]
  18:	4601      	mov	r1, r0
  1a:	2800      	cmp	r0, #0
  1c:	d002      	beq.n	24 <_ZN4core6result19Result$LT$T$C$E$GT$6expect17hd5a6aacc7d7a46d0E+0x24>
  1e:	e7ff      	b.n	20 <_ZN4core6result19Result$LT$T$C$E$GT$6expect17hd5a6aacc7d7a46d0E+0x20>
  20:	e005      	b.n	2e <_ZN4core6result19Result$LT$T$C$E$GT$6expect17hd5a6aacc7d7a46d0E+0x2e>
/rustc/412f43ac5b4ae8c3599e71c6972112e9be4758fa/src/libcore/result.rs:982
  22:	defe      	udf	#254	; 0xfe
/rustc/412f43ac5b4ae8c3599e71c6972112e9be4758fa/src/libcore/result.rs:986
  24:	f8bd 0000 	ldrh.w	r0, [sp]
  28:	2800      	cmp	r0, #0
  2a:	d00f      	beq.n	4c <_ZN4core6result19Result$LT$T$C$E$GT$6expect17hd5a6aacc7d7a46d0E+0x4c>
  2c:	e010      	b.n	50 <_ZN4core6result19Result$LT$T$C$E$GT$6expect17hd5a6aacc7d7a46d0E+0x50>
/rustc/412f43ac5b4ae8c3599e71c6972112e9be4758fa/src/libcore/result.rs:984
  2e:	f8bd 0002 	ldrh.w	r0, [sp, #2]
  32:	f8ad 000e 	strh.w	r0, [sp, #14]
  36:	9801      	ldr	r0, [sp, #4]
  38:	9902      	ldr	r1, [sp, #8]
  3a:	f240 0300 	movw	r3, #0
  3e:	f2c0 0300 	movt	r3, #0
  42:	f10d 020e 	add.w	r2, sp, #14
  46:	f7ff fffe 	bl	0 <_ZN4core6result13unwrap_failed17h7251308ec569cdc6E>
  4a:	defe      	udf	#254	; 0xfe
/rustc/412f43ac5b4ae8c3599e71c6972112e9be4758fa/src/libcore/result.rs:986
  4c:	b004      	add	sp, #16
  4e:	bd80      	pop	{r7, pc}
  50:	e7fc      	b.n	4c <_ZN4core6result19Result$LT$T$C$E$GT$6expect17hd5a6aacc7d7a46d0E+0x4c>

Disassembly of section .text._ZN73_$LT$core..result..Result$LT$T$C$E$GT$$u20$as$u20$core..ops..try..Try$GT$11into_result17h2dd827ac295b6133E:

00000000 <_ZN73_$LT$core..result..Result$LT$T$C$E$GT$$u20$as$u20$core..ops..try..Try$GT$11into_result17h2dd827ac295b6133E>:
_ZN73_$LT$core..result..Result$LT$T$C$E$GT$$u20$as$u20$core..ops..try..Try$GT$11into_result17h2dd827ac295b6133E():
/rustc/412f43ac5b4ae8c3599e71c6972112e9be4758fa/src/libcore/result.rs:1461
   0:	b580      	push	{r7, lr}
/rustc/412f43ac5b4ae8c3599e71c6972112e9be4758fa/src/libcore/result.rs:1462
   2:	e8b1 500c 	ldmia.w	r1!, {r2, r3, ip, lr}
   6:	e8a0 500c 	stmia.w	r0!, {r2, r3, ip, lr}
   a:	e891 500c 	ldmia.w	r1, {r2, r3, ip, lr}
   e:	e880 500c 	stmia.w	r0, {r2, r3, ip, lr}
/rustc/412f43ac5b4ae8c3599e71c6972112e9be4758fa/src/libcore/result.rs:1463
  12:	bd80      	pop	{r7, pc}

Disassembly of section .text._ZN73_$LT$core..result..Result$LT$T$C$E$GT$$u20$as$u20$core..ops..try..Try$GT$11into_result17h8dd38b8fdc06890dE:

00000000 <_ZN73_$LT$core..result..Result$LT$T$C$E$GT$$u20$as$u20$core..ops..try..Try$GT$11into_result17h8dd38b8fdc06890dE>:
_ZN73_$LT$core..result..Result$LT$T$C$E$GT$$u20$as$u20$core..ops..try..Try$GT$11into_result17h8dd38b8fdc06890dE():
/rustc/412f43ac5b4ae8c3599e71c6972112e9be4758fa/src/libcore/result.rs:1462
   0:	680a      	ldr	r2, [r1, #0]
   2:	684b      	ldr	r3, [r1, #4]
   4:	f8d1 c008 	ldr.w	ip, [r1, #8]
   8:	68c9      	ldr	r1, [r1, #12]
   a:	60c1      	str	r1, [r0, #12]
   c:	f8c0 c008 	str.w	ip, [r0, #8]
  10:	6043      	str	r3, [r0, #4]
  12:	6002      	str	r2, [r0, #0]
/rustc/412f43ac5b4ae8c3599e71c6972112e9be4758fa/src/libcore/result.rs:1463
  14:	4770      	bx	lr

Disassembly of section .text._ZN73_$LT$core..result..Result$LT$T$C$E$GT$$u20$as$u20$core..ops..try..Try$GT$11into_result17hb1f80aacfcb37e79E:

00000000 <_ZN73_$LT$core..result..Result$LT$T$C$E$GT$$u20$as$u20$core..ops..try..Try$GT$11into_result17hb1f80aacfcb37e79E>:
_ZN73_$LT$core..result..Result$LT$T$C$E$GT$$u20$as$u20$core..ops..try..Try$GT$11into_result17hb1f80aacfcb37e79E():
/rustc/412f43ac5b4ae8c3599e71c6972112e9be4758fa/src/libcore/result.rs:1462
   0:	680a      	ldr	r2, [r1, #0]
   2:	6849      	ldr	r1, [r1, #4]
   4:	6041      	str	r1, [r0, #4]
   6:	6002      	str	r2, [r0, #0]
/rustc/412f43ac5b4ae8c3599e71c6972112e9be4758fa/src/libcore/result.rs:1463
   8:	4770      	bx	lr

app-d559bf047a1af437.5el80xgs0qduqq6y.rcgu.o:     file format elf32-littlearm

SYMBOL TABLE:
00000000 l    df *ABS*	00000000 5el80xgs0qduqq6y
000000f5 l       .debug_str	00000000 
00000095 l       .debug_str	00000000 
000000fb l       .debug_str	00000000 
000000fe l       .debug_str	00000000 
00000000 l       .debug_str	00000000 
00000041 l       .debug_str	00000000 
00000055 l       .debug_str	00000000 
00000080 l       .debug_str	00000000 
00000088 l       .debug_str	00000000 
0000008c l       .debug_str	00000000 
00000000 l    d  .text._ZN64_$LT$typenum..bit..B0$u20$as$u20$typenum..marker_traits..Bit$GT$5to_u817hdd54f55e60c55433E	00000000 .text._ZN64_$LT$typenum..bit..B0$u20$as$u20$typenum..marker_traits..Bit$GT$5to_u817hdd54f55e60c55433E
00000000 l    d  .text._ZN64_$LT$typenum..bit..B1$u20$as$u20$typenum..marker_traits..Bit$GT$5to_u817h6523a6b2bba0f415E	00000000 .text._ZN64_$LT$typenum..bit..B1$u20$as$u20$typenum..marker_traits..Bit$GT$5to_u817h6523a6b2bba0f415E
00000000 l    d  .debug_abbrev	00000000 .debug_abbrev
00000000 l    d  .debug_info	00000000 .debug_info
00000000 l    d  .debug_ranges	00000000 .debug_ranges
00000000 l    d  .debug_frame	00000000 .debug_frame
00000000 l    d  .debug_line	00000000 .debug_line
00000000 g     F .text._ZN64_$LT$typenum..bit..B0$u20$as$u20$typenum..marker_traits..Bit$GT$5to_u817hdd54f55e60c55433E	00000004 .hidden _ZN64_$LT$typenum..bit..B0$u20$as$u20$typenum..marker_traits..Bit$GT$5to_u817hdd54f55e60c55433E
00000000 g     F .text._ZN64_$LT$typenum..bit..B1$u20$as$u20$typenum..marker_traits..Bit$GT$5to_u817h6523a6b2bba0f415E	00000004 .hidden _ZN64_$LT$typenum..bit..B1$u20$as$u20$typenum..marker_traits..Bit$GT$5to_u817h6523a6b2bba0f415E



Disassembly of section .text._ZN64_$LT$typenum..bit..B0$u20$as$u20$typenum..marker_traits..Bit$GT$5to_u817hdd54f55e60c55433E:

00000000 <_ZN64_$LT$typenum..bit..B0$u20$as$u20$typenum..marker_traits..Bit$GT$5to_u817hdd54f55e60c55433E>:
_ZN64_$LT$typenum..bit..B0$u20$as$u20$typenum..marker_traits..Bit$GT$5to_u817hdd54f55e60c55433E():
/Users/Luppy/.cargo/registry/src/github.com-1ecc6299db9ec823/typenum-1.11.2/src/bit.rs:47
impl Bit for B0 {
    const U8: u8 = 0;
    const BOOL: bool = false;

    #[inline]
    fn to_u8() -> u8 {
   0:	2000      	movs	r0, #0
/Users/Luppy/.cargo/registry/src/github.com-1ecc6299db9ec823/typenum-1.11.2/src/bit.rs:49
        0
    }
   2:	4770      	bx	lr

Disassembly of section .text._ZN64_$LT$typenum..bit..B1$u20$as$u20$typenum..marker_traits..Bit$GT$5to_u817h6523a6b2bba0f415E:

00000000 <_ZN64_$LT$typenum..bit..B1$u20$as$u20$typenum..marker_traits..Bit$GT$5to_u817h6523a6b2bba0f415E>:
_ZN64_$LT$typenum..bit..B1$u20$as$u20$typenum..marker_traits..Bit$GT$5to_u817h6523a6b2bba0f415E():
/Users/Luppy/.cargo/registry/src/github.com-1ecc6299db9ec823/typenum-1.11.2/src/bit.rs:61
impl Bit for B1 {
    const U8: u8 = 1;
    const BOOL: bool = true;

    #[inline]
    fn to_u8() -> u8 {
   0:	2001      	movs	r0, #1
/Users/Luppy/.cargo/registry/src/github.com-1ecc6299db9ec823/typenum-1.11.2/src/bit.rs:63
        1
    }
   2:	4770      	bx	lr

app-d559bf047a1af437.ekbob71098ase57.rcgu.o:     file format elf32-littlearm

SYMBOL TABLE:
00000000 l    df *ABS*	00000000 ekbob71098ase57
000004f1 l       .debug_str	00000000 
00000387 l       .debug_str	00000000 
00000390 l       .debug_str	00000000 
000003d7 l       .debug_str	00000000 
000003e1 l       .debug_str	00000000 
0000042a l       .debug_str	00000000 
00000436 l       .debug_str	00000000 
0000043a l       .debug_str	00000000 
00000440 l       .debug_str	00000000 
0000044a l       .debug_str	00000000 
000004c6 l       .debug_str	00000000 
000004f7 l       .debug_str	00000000 
000004fb l       .debug_str	00000000 
0000050c l       .debug_str	00000000 
00000588 l       .debug_str	00000000 
000005ba l       .debug_str	00000000 
00000640 l       .debug_str	00000000 
0000064f l       .debug_str	00000000 
000006c0 l       .debug_str	00000000 
000006d7 l       .debug_str	00000000 
0000074b l       .debug_str	00000000 
00000755 l       .debug_str	00000000 
0000075c l       .debug_str	00000000 
00000760 l       .debug_str	00000000 
00000765 l       .debug_str	00000000 
0000076a l       .debug_str	00000000 
0000076e l       .debug_str	00000000 
0000077b l       .debug_str	00000000 
00000780 l       .debug_str	00000000 
00000784 l       .debug_str	00000000 
00000000 l       .debug_str	00000000 
00000041 l       .debug_str	00000000 
00000055 l       .debug_str	00000000 
00000080 l       .debug_str	00000000 
00000085 l       .debug_str	00000000 
0000008b l       .debug_str	00000000 
00000094 l       .debug_str	00000000 
00000098 l       .debug_str	00000000 
0000009c l       .debug_str	00000000 
0000009e l       .debug_str	00000000 
000000c7 l       .debug_str	00000000 
000000d4 l       .debug_str	00000000 
000000da l       .debug_str	00000000 
000000de l       .debug_str	00000000 
000000e9 l       .debug_str	00000000 
000000ed l       .debug_str	00000000 
000000f5 l       .debug_str	00000000 
000000fc l       .debug_str	00000000 
00000101 l       .debug_str	00000000 
00000113 l       .debug_str	00000000 
0000011d l       .debug_str	00000000 
0000015f l       .debug_str	00000000 
00000173 l       .debug_str	00000000 
00000178 l       .debug_str	00000000 
00000194 l       .debug_str	00000000 
0000019b l       .debug_str	00000000 
000001a1 l       .debug_str	00000000 
000001a5 l       .debug_str	00000000 
000001d8 l       .debug_str	00000000 
000001ec l       .debug_str	00000000 
000001f5 l       .debug_str	00000000 
000001fc l       .debug_str	00000000 
00000203 l       .debug_str	00000000 
0000023a l       .debug_str	00000000 
00000252 l       .debug_str	00000000 
0000025d l       .debug_str	00000000 
000002ab l       .debug_str	00000000 
000002bb l       .debug_str	00000000 
000002c4 l       .debug_str	00000000 
000002c6 l       .debug_str	00000000 
0000031b l       .debug_str	00000000 
00000338 l       .debug_str	00000000 
00000341 l       .debug_str	00000000 
00000000 l    d  .text._ZN4core5slice14from_raw_parts17h6372457b1792e8a7E	00000000 .text._ZN4core5slice14from_raw_parts17h6372457b1792e8a7E
00000000 l    d  .text._ZN4core5slice18from_raw_parts_mut17h1d5045ad499056c8E	00000000 .text._ZN4core5slice18from_raw_parts_mut17h1d5045ad499056c8E
00000000 l    d  .text._ZN4core5slice29_$LT$impl$u20$$u5b$T$u5d$$GT$10as_mut_ptr17h7f6f3efbfd1e109bE	00000000 .text._ZN4core5slice29_$LT$impl$u20$$u5b$T$u5d$$GT$10as_mut_ptr17h7f6f3efbfd1e109bE
00000000 l    d  .text._ZN4core5slice29_$LT$impl$u20$$u5b$T$u5d$$GT$17get_unchecked_mut17h5c2513eff6cc5949E	00000000 .text._ZN4core5slice29_$LT$impl$u20$$u5b$T$u5d$$GT$17get_unchecked_mut17h5c2513eff6cc5949E
00000000 l    d  .text._ZN4core5slice29_$LT$impl$u20$$u5b$T$u5d$$GT$3len17hd3eda1934930eeedE	00000000 .text._ZN4core5slice29_$LT$impl$u20$$u5b$T$u5d$$GT$3len17hd3eda1934930eeedE
00000000 l    d  .text._ZN4core5slice29_$LT$impl$u20$$u5b$T$u5d$$GT$4iter17h96247bf9c393c0c3E	00000000 .text._ZN4core5slice29_$LT$impl$u20$$u5b$T$u5d$$GT$4iter17h96247bf9c393c0c3E
00000000 l    d  .text._ZN4core5slice29_$LT$impl$u20$$u5b$T$u5d$$GT$6as_ptr17h44981537459aea29E	00000000 .text._ZN4core5slice29_$LT$impl$u20$$u5b$T$u5d$$GT$6as_ptr17h44981537459aea29E
00000000 l    d  .text._ZN4core5slice77_$LT$impl$u20$core..ops..index..IndexMut$LT$I$GT$$u20$for$u20$$u5b$T$u5d$$GT$9index_mut17h3e6a02a0c7a3a5e7E	00000000 .text._ZN4core5slice77_$LT$impl$u20$core..ops..index..IndexMut$LT$I$GT$$u20$for$u20$$u5b$T$u5d$$GT$9index_mut17h3e6a02a0c7a3a5e7E
00000000 l    d  .text._ZN4core5slice77_$LT$impl$u20$core..ops..index..IndexMut$LT$I$GT$$u20$for$u20$$u5b$T$u5d$$GT$9index_mut17h73a5aedf5cff0b8dE	00000000 .text._ZN4core5slice77_$LT$impl$u20$core..ops..index..IndexMut$LT$I$GT$$u20$for$u20$$u5b$T$u5d$$GT$9index_mut17h73a5aedf5cff0b8dE
00000000 l    d  .text._ZN4core5slice87_$LT$impl$u20$core..iter..traits..collect..IntoIterator$u20$for$u20$$RF$$u5b$T$u5d$$GT$9into_iter17h1629c2afecbc6d14E	00000000 .text._ZN4core5slice87_$LT$impl$u20$core..iter..traits..collect..IntoIterator$u20$for$u20$$RF$$u5b$T$u5d$$GT$9into_iter17h1629c2afecbc6d14E
00000000 l    d  .text._ZN68_$LT$usize$u20$as$u20$core..slice..SliceIndex$LT$$u5b$T$u5d$$GT$$GT$17get_unchecked_mut17ha9cea4063cd7b4e3E	00000000 .text._ZN68_$LT$usize$u20$as$u20$core..slice..SliceIndex$LT$$u5b$T$u5d$$GT$$GT$17get_unchecked_mut17ha9cea4063cd7b4e3E
00000000 l    d  .text._ZN85_$LT$core..slice..Iter$LT$T$GT$$u20$as$u20$core..iter..traits..iterator..Iterator$GT$4next17hf56afd57b5d987b6E	00000000 .text._ZN85_$LT$core..slice..Iter$LT$T$GT$$u20$as$u20$core..iter..traits..iterator..Iterator$GT$4next17hf56afd57b5d987b6E
00000000 l    d  .debug_abbrev	00000000 .debug_abbrev
00000000 l    d  .debug_info	00000000 .debug_info
00000000 l    d  .debug_ranges	00000000 .debug_ranges
00000000 l    d  .debug_frame	00000000 .debug_frame
00000000 l    d  .debug_line	00000000 .debug_line
00000000         *UND*	00000000 _ZN103_$LT$core..ops..range..RangeFrom$LT$usize$GT$$u20$as$u20$core..slice..SliceIndex$LT$$u5b$T$u5d$$GT$$GT$9index_mut17h0156c4efe8d58200E
00000000         *UND*	00000000 _ZN4core3ptr20slice_from_raw_parts17h15c6e436cb6346f9E
00000000         *UND*	00000000 _ZN4core3ptr24slice_from_raw_parts_mut17h1db172026dbab88aE
00000000         *UND*	00000000 _ZN4core3ptr31_$LT$impl$u20$$BP$mut$u20$T$GT$3add17h09274fa84f17fc51E
00000000         *UND*	00000000 _ZN4core3ptr33_$LT$impl$u20$$BP$const$u20$T$GT$12wrapping_add17h9d1f395d2c865d18E
00000000         *UND*	00000000 _ZN4core3ptr33_$LT$impl$u20$$BP$const$u20$T$GT$15wrapping_offset17h1d44a3dd1b27c9a8E
00000000         *UND*	00000000 _ZN4core3ptr33_$LT$impl$u20$$BP$const$u20$T$GT$3add17hc7070bbca87f8170E
00000000         *UND*	00000000 _ZN4core3ptr33_$LT$impl$u20$$BP$const$u20$T$GT$6offset17hb3633c7364eb3c09E
00000000         *UND*	00000000 _ZN4core3ptr33_$LT$impl$u20$$BP$const$u20$T$GT$7is_null17h07b61a76277a678cE
00000000 g     F .text._ZN4core5slice14from_raw_parts17h6372457b1792e8a7E	0000001e _ZN4core5slice14from_raw_parts17h6372457b1792e8a7E
00000000 g     F .text._ZN4core5slice18from_raw_parts_mut17h1d5045ad499056c8E	0000001e _ZN4core5slice18from_raw_parts_mut17h1d5045ad499056c8E
00000000 g     F .text._ZN4core5slice29_$LT$impl$u20$$u5b$T$u5d$$GT$10as_mut_ptr17h7f6f3efbfd1e109bE	0000000c _ZN4core5slice29_$LT$impl$u20$$u5b$T$u5d$$GT$10as_mut_ptr17h7f6f3efbfd1e109bE
00000000 g     F .text._ZN4core5slice29_$LT$impl$u20$$u5b$T$u5d$$GT$17get_unchecked_mut17h5c2513eff6cc5949E	0000001e _ZN4core5slice29_$LT$impl$u20$$u5b$T$u5d$$GT$17get_unchecked_mut17h5c2513eff6cc5949E
00000000 g     F .text._ZN4core5slice29_$LT$impl$u20$$u5b$T$u5d$$GT$3len17hd3eda1934930eeedE	00000014 _ZN4core5slice29_$LT$impl$u20$$u5b$T$u5d$$GT$3len17hd3eda1934930eeedE
00000000 g     F .text._ZN4core5slice29_$LT$impl$u20$$u5b$T$u5d$$GT$4iter17h96247bf9c393c0c3E	00000088 _ZN4core5slice29_$LT$impl$u20$$u5b$T$u5d$$GT$4iter17h96247bf9c393c0c3E
00000000 g     F .text._ZN4core5slice29_$LT$impl$u20$$u5b$T$u5d$$GT$6as_ptr17h44981537459aea29E	0000000c _ZN4core5slice29_$LT$impl$u20$$u5b$T$u5d$$GT$6as_ptr17h44981537459aea29E
00000000 g     F .text._ZN4core5slice77_$LT$impl$u20$core..ops..index..IndexMut$LT$I$GT$$u20$for$u20$$u5b$T$u5d$$GT$9index_mut17h3e6a02a0c7a3a5e7E	0000001e _ZN4core5slice77_$LT$impl$u20$core..ops..index..IndexMut$LT$I$GT$$u20$for$u20$$u5b$T$u5d$$GT$9index_mut17h3e6a02a0c7a3a5e7E
00000000 g     F .text._ZN4core5slice77_$LT$impl$u20$core..ops..index..IndexMut$LT$I$GT$$u20$for$u20$$u5b$T$u5d$$GT$9index_mut17h73a5aedf5cff0b8dE	00000022 _ZN4core5slice77_$LT$impl$u20$core..ops..index..IndexMut$LT$I$GT$$u20$for$u20$$u5b$T$u5d$$GT$9index_mut17h73a5aedf5cff0b8dE
00000000 g     F .text._ZN4core5slice87_$LT$impl$u20$core..iter..traits..collect..IntoIterator$u20$for$u20$$RF$$u5b$T$u5d$$GT$9into_iter17h1629c2afecbc6d14E	0000001e _ZN4core5slice87_$LT$impl$u20$core..iter..traits..collect..IntoIterator$u20$for$u20$$RF$$u5b$T$u5d$$GT$9into_iter17h1629c2afecbc6d14E
00000000 g     F .text._ZN68_$LT$usize$u20$as$u20$core..slice..SliceIndex$LT$$u5b$T$u5d$$GT$$GT$17get_unchecked_mut17ha9cea4063cd7b4e3E	00000028 _ZN68_$LT$usize$u20$as$u20$core..slice..SliceIndex$LT$$u5b$T$u5d$$GT$$GT$17get_unchecked_mut17ha9cea4063cd7b4e3E
00000000 g     F .text._ZN85_$LT$core..slice..Iter$LT$T$GT$$u20$as$u20$core..iter..traits..iterator..Iterator$GT$4next17hf56afd57b5d987b6E	0000009c _ZN85_$LT$core..slice..Iter$LT$T$GT$$u20$as$u20$core..iter..traits..iterator..Iterator$GT$4next17hf56afd57b5d987b6E
00000000         *UND*	00000000 _ZN90_$LT$core..ops..range..RangeFull$u20$as$u20$core..slice..SliceIndex$LT$$u5b$T$u5d$$GT$$GT$9index_mut17hc2efb7814cc9ca6cE



Disassembly of section .text._ZN4core5slice14from_raw_parts17h6372457b1792e8a7E:

00000000 <_ZN4core5slice14from_raw_parts17h6372457b1792e8a7E>:
_ZN4core5slice14from_raw_parts17h6372457b1792e8a7E():
/rustc/412f43ac5b4ae8c3599e71c6972112e9be4758fa/src/libcore/slice/mod.rs:5320
   0:	b580      	push	{r7, lr}
   2:	b084      	sub	sp, #16
   4:	9002      	str	r0, [sp, #8]
   6:	9103      	str	r1, [sp, #12]
/rustc/412f43ac5b4ae8c3599e71c6972112e9be4758fa/src/libcore/slice/mod.rs:5324
   8:	9802      	ldr	r0, [sp, #8]
   a:	9903      	ldr	r1, [sp, #12]
   c:	f7ff fffe 	bl	0 <_ZN4core3ptr20slice_from_raw_parts17h15c6e436cb6346f9E>
  10:	9001      	str	r0, [sp, #4]
  12:	9100      	str	r1, [sp, #0]
  14:	e7ff      	b.n	16 <_ZN4core5slice14from_raw_parts17h6372457b1792e8a7E+0x16>
/rustc/412f43ac5b4ae8c3599e71c6972112e9be4758fa/src/libcore/slice/mod.rs:5325
  16:	9801      	ldr	r0, [sp, #4]
  18:	9900      	ldr	r1, [sp, #0]
  1a:	b004      	add	sp, #16
  1c:	bd80      	pop	{r7, pc}

Disassembly of section .text._ZN4core5slice18from_raw_parts_mut17h1d5045ad499056c8E:

00000000 <_ZN4core5slice18from_raw_parts_mut17h1d5045ad499056c8E>:
_ZN4core5slice18from_raw_parts_mut17h1d5045ad499056c8E():
/rustc/412f43ac5b4ae8c3599e71c6972112e9be4758fa/src/libcore/slice/mod.rs:5358
   0:	b580      	push	{r7, lr}
   2:	b084      	sub	sp, #16
   4:	9002      	str	r0, [sp, #8]
   6:	9103      	str	r1, [sp, #12]
/rustc/412f43ac5b4ae8c3599e71c6972112e9be4758fa/src/libcore/slice/mod.rs:5362
   8:	9802      	ldr	r0, [sp, #8]
   a:	9903      	ldr	r1, [sp, #12]
   c:	f7ff fffe 	bl	0 <_ZN4core3ptr24slice_from_raw_parts_mut17h1db172026dbab88aE>
  10:	9001      	str	r0, [sp, #4]
  12:	9100      	str	r1, [sp, #0]
  14:	e7ff      	b.n	16 <_ZN4core5slice18from_raw_parts_mut17h1d5045ad499056c8E+0x16>
/rustc/412f43ac5b4ae8c3599e71c6972112e9be4758fa/src/libcore/slice/mod.rs:5363
  16:	9801      	ldr	r0, [sp, #4]
  18:	9900      	ldr	r1, [sp, #0]
  1a:	b004      	add	sp, #16
  1c:	bd80      	pop	{r7, pc}

Disassembly of section .text._ZN4core5slice29_$LT$impl$u20$$u5b$T$u5d$$GT$10as_mut_ptr17h7f6f3efbfd1e109bE:

00000000 <_ZN4core5slice29_$LT$impl$u20$$u5b$T$u5d$$GT$10as_mut_ptr17h7f6f3efbfd1e109bE>:
_ZN4core5slice29_$LT$impl$u20$$u5b$T$u5d$$GT$10as_mut_ptr17h7f6f3efbfd1e109bE():
/rustc/412f43ac5b4ae8c3599e71c6972112e9be4758fa/src/libcore/slice/mod.rs:407
   0:	b082      	sub	sp, #8
   2:	9000      	str	r0, [sp, #0]
   4:	9101      	str	r1, [sp, #4]
/rustc/412f43ac5b4ae8c3599e71c6972112e9be4758fa/src/libcore/slice/mod.rs:408
   6:	9800      	ldr	r0, [sp, #0]
/rustc/412f43ac5b4ae8c3599e71c6972112e9be4758fa/src/libcore/slice/mod.rs:409
   8:	b002      	add	sp, #8
   a:	4770      	bx	lr

Disassembly of section .text._ZN4core5slice29_$LT$impl$u20$$u5b$T$u5d$$GT$17get_unchecked_mut17h5c2513eff6cc5949E:

00000000 <_ZN4core5slice29_$LT$impl$u20$$u5b$T$u5d$$GT$17get_unchecked_mut17h5c2513eff6cc5949E>:
_ZN4core5slice29_$LT$impl$u20$$u5b$T$u5d$$GT$17get_unchecked_mut17h5c2513eff6cc5949E():
/rustc/412f43ac5b4ae8c3599e71c6972112e9be4758fa/src/libcore/slice/mod.rs:346
   0:	b580      	push	{r7, lr}
   2:	b084      	sub	sp, #16
   4:	9001      	str	r0, [sp, #4]
   6:	9102      	str	r1, [sp, #8]
   8:	9203      	str	r2, [sp, #12]
/rustc/412f43ac5b4ae8c3599e71c6972112e9be4758fa/src/libcore/slice/mod.rs:349
   a:	9803      	ldr	r0, [sp, #12]
   c:	9901      	ldr	r1, [sp, #4]
   e:	9a02      	ldr	r2, [sp, #8]
  10:	f7ff fffe 	bl	0 <_ZN4core5slice29_$LT$impl$u20$$u5b$T$u5d$$GT$17get_unchecked_mut17h5c2513eff6cc5949E>
  14:	9000      	str	r0, [sp, #0]
  16:	e7ff      	b.n	18 <_ZN4core5slice29_$LT$impl$u20$$u5b$T$u5d$$GT$17get_unchecked_mut17h5c2513eff6cc5949E+0x18>
/rustc/412f43ac5b4ae8c3599e71c6972112e9be4758fa/src/libcore/slice/mod.rs:350
  18:	9800      	ldr	r0, [sp, #0]
  1a:	b004      	add	sp, #16
  1c:	bd80      	pop	{r7, pc}

Disassembly of section .text._ZN4core5slice29_$LT$impl$u20$$u5b$T$u5d$$GT$3len17hd3eda1934930eeedE:

00000000 <_ZN4core5slice29_$LT$impl$u20$$u5b$T$u5d$$GT$3len17hd3eda1934930eeedE>:
_ZN4core5slice29_$LT$impl$u20$$u5b$T$u5d$$GT$3len17hd3eda1934930eeedE():
/rustc/412f43ac5b4ae8c3599e71c6972112e9be4758fa/src/libcore/slice/mod.rs:69
   0:	b084      	sub	sp, #16
   2:	9000      	str	r0, [sp, #0]
   4:	9101      	str	r1, [sp, #4]
/rustc/412f43ac5b4ae8c3599e71c6972112e9be4758fa/src/libcore/slice/mod.rs:71
   6:	9800      	ldr	r0, [sp, #0]
   8:	9901      	ldr	r1, [sp, #4]
   a:	9002      	str	r0, [sp, #8]
   c:	9103      	str	r1, [sp, #12]
   e:	9803      	ldr	r0, [sp, #12]
/rustc/412f43ac5b4ae8c3599e71c6972112e9be4758fa/src/libcore/slice/mod.rs:73
  10:	b004      	add	sp, #16
  12:	4770      	bx	lr

Disassembly of section .text._ZN4core5slice29_$LT$impl$u20$$u5b$T$u5d$$GT$4iter17h96247bf9c393c0c3E:

00000000 <_ZN4core5slice29_$LT$impl$u20$$u5b$T$u5d$$GT$4iter17h96247bf9c393c0c3E>:
_ZN4core5slice29_$LT$impl$u20$$u5b$T$u5d$$GT$4iter17h96247bf9c393c0c3E():
/rustc/412f43ac5b4ae8c3599e71c6972112e9be4758fa/src/libcore/slice/mod.rs:610
   0:	b580      	push	{r7, lr}
   2:	b08e      	sub	sp, #56	; 0x38
   4:	9007      	str	r0, [sp, #28]
   6:	9108      	str	r1, [sp, #32]
/rustc/412f43ac5b4ae8c3599e71c6972112e9be4758fa/src/libcore/slice/mod.rs:612
   8:	9807      	ldr	r0, [sp, #28]
   a:	9908      	ldr	r1, [sp, #32]
   c:	f7ff fffe 	bl	0 <_ZN4core5slice29_$LT$impl$u20$$u5b$T$u5d$$GT$4iter17h96247bf9c393c0c3E>
  10:	900b      	str	r0, [sp, #44]	; 0x2c
  12:	e7ff      	b.n	14 <_ZN4core5slice29_$LT$impl$u20$$u5b$T$u5d$$GT$4iter17h96247bf9c393c0c3E+0x14>
/rustc/412f43ac5b4ae8c3599e71c6972112e9be4758fa/src/libcore/slice/mod.rs:613
  14:	980b      	ldr	r0, [sp, #44]	; 0x2c
  16:	f7ff fffe 	bl	0 <_ZN4core3ptr33_$LT$impl$u20$$BP$const$u20$T$GT$7is_null17h07b61a76277a678cE>
  1a:	e7ff      	b.n	1c <_ZN4core5slice29_$LT$impl$u20$$u5b$T$u5d$$GT$4iter17h96247bf9c393c0c3E+0x1c>
  1c:	e7ff      	b.n	1e <_ZN4core5slice29_$LT$impl$u20$$u5b$T$u5d$$GT$4iter17h96247bf9c393c0c3E+0x1e>
  1e:	2002      	movs	r0, #2
_ZN4core3mem7size_of17h420ae999a5b22839E():
/rustc/412f43ac5b4ae8c3599e71c6972112e9be4758fa/src/libcore/mem/mod.rs:275
  20:	900d      	str	r0, [sp, #52]	; 0x34
  22:	980d      	ldr	r0, [sp, #52]	; 0x34
_ZN4core5slice29_$LT$impl$u20$$u5b$T$u5d$$GT$4iter17h96247bf9c393c0c3E():
/rustc/412f43ac5b4ae8c3599e71c6972112e9be4758fa/src/libcore/slice/mod.rs:615
  24:	9006      	str	r0, [sp, #24]
  26:	e7ff      	b.n	28 <_ZN4core5slice29_$LT$impl$u20$$u5b$T$u5d$$GT$4iter17h96247bf9c393c0c3E+0x28>
  28:	9806      	ldr	r0, [sp, #24]
  2a:	2800      	cmp	r0, #0
  2c:	d00a      	beq.n	44 <_ZN4core5slice29_$LT$impl$u20$$u5b$T$u5d$$GT$4iter17h96247bf9c393c0c3E+0x44>
  2e:	e7ff      	b.n	30 <_ZN4core5slice29_$LT$impl$u20$$u5b$T$u5d$$GT$4iter17h96247bf9c393c0c3E+0x30>
/rustc/412f43ac5b4ae8c3599e71c6972112e9be4758fa/src/libcore/slice/mod.rs:618
  30:	980b      	ldr	r0, [sp, #44]	; 0x2c
  32:	9907      	ldr	r1, [sp, #28]
  34:	9a08      	ldr	r2, [sp, #32]
  36:	9005      	str	r0, [sp, #20]
  38:	4608      	mov	r0, r1
  3a:	4611      	mov	r1, r2
  3c:	f7ff fffe 	bl	0 <_ZN4core5slice29_$LT$impl$u20$$u5b$T$u5d$$GT$4iter17h96247bf9c393c0c3E>
  40:	9004      	str	r0, [sp, #16]
  42:	e012      	b.n	6a <_ZN4core5slice29_$LT$impl$u20$$u5b$T$u5d$$GT$4iter17h96247bf9c393c0c3E+0x6a>
/rustc/412f43ac5b4ae8c3599e71c6972112e9be4758fa/src/libcore/slice/mod.rs:616
  44:	980b      	ldr	r0, [sp, #44]	; 0x2c
  46:	9907      	ldr	r1, [sp, #28]
  48:	9a08      	ldr	r2, [sp, #32]
  4a:	9003      	str	r0, [sp, #12]
  4c:	4608      	mov	r0, r1
  4e:	4611      	mov	r1, r2
  50:	f7ff fffe 	bl	0 <_ZN4core5slice29_$LT$impl$u20$$u5b$T$u5d$$GT$4iter17h96247bf9c393c0c3E>
  54:	9002      	str	r0, [sp, #8]
  56:	e7ff      	b.n	58 <_ZN4core5slice29_$LT$impl$u20$$u5b$T$u5d$$GT$4iter17h96247bf9c393c0c3E+0x58>
  58:	9803      	ldr	r0, [sp, #12]
  5a:	9902      	ldr	r1, [sp, #8]
  5c:	f7ff fffe 	bl	0 <_ZN4core3ptr33_$LT$impl$u20$$BP$const$u20$T$GT$12wrapping_add17h9d1f395d2c865d18E>
  60:	9001      	str	r0, [sp, #4]
  62:	e7ff      	b.n	64 <_ZN4core5slice29_$LT$impl$u20$$u5b$T$u5d$$GT$4iter17h96247bf9c393c0c3E+0x64>
  64:	9801      	ldr	r0, [sp, #4]
  66:	900c      	str	r0, [sp, #48]	; 0x30
/rustc/412f43ac5b4ae8c3599e71c6972112e9be4758fa/src/libcore/slice/mod.rs:615
  68:	e006      	b.n	78 <_ZN4core5slice29_$LT$impl$u20$$u5b$T$u5d$$GT$4iter17h96247bf9c393c0c3E+0x78>
/rustc/412f43ac5b4ae8c3599e71c6972112e9be4758fa/src/libcore/slice/mod.rs:618
  6a:	9805      	ldr	r0, [sp, #20]
  6c:	9904      	ldr	r1, [sp, #16]
  6e:	f7ff fffe 	bl	0 <_ZN4core3ptr33_$LT$impl$u20$$BP$const$u20$T$GT$3add17hc7070bbca87f8170E>
  72:	900c      	str	r0, [sp, #48]	; 0x30
  74:	e7ff      	b.n	76 <_ZN4core5slice29_$LT$impl$u20$$u5b$T$u5d$$GT$4iter17h96247bf9c393c0c3E+0x76>
/rustc/412f43ac5b4ae8c3599e71c6972112e9be4758fa/src/libcore/slice/mod.rs:615
  76:	e7ff      	b.n	78 <_ZN4core5slice29_$LT$impl$u20$$u5b$T$u5d$$GT$4iter17h96247bf9c393c0c3E+0x78>
/rustc/412f43ac5b4ae8c3599e71c6972112e9be4758fa/src/libcore/slice/mod.rs:622
  78:	980b      	ldr	r0, [sp, #44]	; 0x2c
/rustc/412f43ac5b4ae8c3599e71c6972112e9be4758fa/src/libcore/slice/mod.rs:623
  7a:	990c      	ldr	r1, [sp, #48]	; 0x30
/rustc/412f43ac5b4ae8c3599e71c6972112e9be4758fa/src/libcore/slice/mod.rs:621
  7c:	9009      	str	r0, [sp, #36]	; 0x24
  7e:	910a      	str	r1, [sp, #40]	; 0x28
/rustc/412f43ac5b4ae8c3599e71c6972112e9be4758fa/src/libcore/slice/mod.rs:627
  80:	9809      	ldr	r0, [sp, #36]	; 0x24
  82:	990a      	ldr	r1, [sp, #40]	; 0x28
  84:	b00e      	add	sp, #56	; 0x38
  86:	bd80      	pop	{r7, pc}

Disassembly of section .text._ZN4core5slice29_$LT$impl$u20$$u5b$T$u5d$$GT$6as_ptr17h44981537459aea29E:

00000000 <_ZN4core5slice29_$LT$impl$u20$$u5b$T$u5d$$GT$6as_ptr17h44981537459aea29E>:
_ZN4core5slice29_$LT$impl$u20$$u5b$T$u5d$$GT$6as_ptr17h44981537459aea29E():
/rustc/412f43ac5b4ae8c3599e71c6972112e9be4758fa/src/libcore/slice/mod.rs:380
   0:	b082      	sub	sp, #8
   2:	9000      	str	r0, [sp, #0]
   4:	9101      	str	r1, [sp, #4]
/rustc/412f43ac5b4ae8c3599e71c6972112e9be4758fa/src/libcore/slice/mod.rs:381
   6:	9800      	ldr	r0, [sp, #0]
/rustc/412f43ac5b4ae8c3599e71c6972112e9be4758fa/src/libcore/slice/mod.rs:382
   8:	b002      	add	sp, #8
   a:	4770      	bx	lr

Disassembly of section .text._ZN4core5slice77_$LT$impl$u20$core..ops..index..IndexMut$LT$I$GT$$u20$for$u20$$u5b$T$u5d$$GT$9index_mut17h3e6a02a0c7a3a5e7E:

00000000 <_ZN4core5slice77_$LT$impl$u20$core..ops..index..IndexMut$LT$I$GT$$u20$for$u20$$u5b$T$u5d$$GT$9index_mut17h3e6a02a0c7a3a5e7E>:
_ZN4core5slice77_$LT$impl$u20$core..ops..index..IndexMut$LT$I$GT$$u20$for$u20$$u5b$T$u5d$$GT$9index_mut17h3e6a02a0c7a3a5e7E():
/rustc/412f43ac5b4ae8c3599e71c6972112e9be4758fa/src/libcore/slice/mod.rs:2657
   0:	b580      	push	{r7, lr}
   2:	b086      	sub	sp, #24
   4:	9003      	str	r0, [sp, #12]
   6:	9104      	str	r1, [sp, #16]
/rustc/412f43ac5b4ae8c3599e71c6972112e9be4758fa/src/libcore/slice/mod.rs:2658
   8:	9803      	ldr	r0, [sp, #12]
   a:	9904      	ldr	r1, [sp, #16]
   c:	f7ff fffe 	bl	0 <_ZN90_$LT$core..ops..range..RangeFull$u20$as$u20$core..slice..SliceIndex$LT$$u5b$T$u5d$$GT$$GT$9index_mut17hc2efb7814cc9ca6cE>
  10:	9002      	str	r0, [sp, #8]
  12:	9101      	str	r1, [sp, #4]
  14:	e7ff      	b.n	16 <_ZN4core5slice77_$LT$impl$u20$core..ops..index..IndexMut$LT$I$GT$$u20$for$u20$$u5b$T$u5d$$GT$9index_mut17h3e6a02a0c7a3a5e7E+0x16>
/rustc/412f43ac5b4ae8c3599e71c6972112e9be4758fa/src/libcore/slice/mod.rs:2659
  16:	9802      	ldr	r0, [sp, #8]
  18:	9901      	ldr	r1, [sp, #4]
  1a:	b006      	add	sp, #24
  1c:	bd80      	pop	{r7, pc}

Disassembly of section .text._ZN4core5slice77_$LT$impl$u20$core..ops..index..IndexMut$LT$I$GT$$u20$for$u20$$u5b$T$u5d$$GT$9index_mut17h73a5aedf5cff0b8dE:

00000000 <_ZN4core5slice77_$LT$impl$u20$core..ops..index..IndexMut$LT$I$GT$$u20$for$u20$$u5b$T$u5d$$GT$9index_mut17h73a5aedf5cff0b8dE>:
_ZN4core5slice77_$LT$impl$u20$core..ops..index..IndexMut$LT$I$GT$$u20$for$u20$$u5b$T$u5d$$GT$9index_mut17h73a5aedf5cff0b8dE():
/rustc/412f43ac5b4ae8c3599e71c6972112e9be4758fa/src/libcore/slice/mod.rs:2657
   0:	b580      	push	{r7, lr}
   2:	b086      	sub	sp, #24
   4:	9003      	str	r0, [sp, #12]
   6:	9104      	str	r1, [sp, #16]
   8:	9205      	str	r2, [sp, #20]
/rustc/412f43ac5b4ae8c3599e71c6972112e9be4758fa/src/libcore/slice/mod.rs:2658
   a:	9805      	ldr	r0, [sp, #20]
   c:	9903      	ldr	r1, [sp, #12]
   e:	9a04      	ldr	r2, [sp, #16]
  10:	f7ff fffe 	bl	0 <_ZN103_$LT$core..ops..range..RangeFrom$LT$usize$GT$$u20$as$u20$core..slice..SliceIndex$LT$$u5b$T$u5d$$GT$$GT$9index_mut17h0156c4efe8d58200E>
  14:	9002      	str	r0, [sp, #8]
  16:	9101      	str	r1, [sp, #4]
  18:	e7ff      	b.n	1a <_ZN4core5slice77_$LT$impl$u20$core..ops..index..IndexMut$LT$I$GT$$u20$for$u20$$u5b$T$u5d$$GT$9index_mut17h73a5aedf5cff0b8dE+0x1a>
/rustc/412f43ac5b4ae8c3599e71c6972112e9be4758fa/src/libcore/slice/mod.rs:2659
  1a:	9802      	ldr	r0, [sp, #8]
  1c:	9901      	ldr	r1, [sp, #4]
  1e:	b006      	add	sp, #24
  20:	bd80      	pop	{r7, pc}

Disassembly of section .text._ZN4core5slice87_$LT$impl$u20$core..iter..traits..collect..IntoIterator$u20$for$u20$$RF$$u5b$T$u5d$$GT$9into_iter17h1629c2afecbc6d14E:

00000000 <_ZN4core5slice87_$LT$impl$u20$core..iter..traits..collect..IntoIterator$u20$for$u20$$RF$$u5b$T$u5d$$GT$9into_iter17h1629c2afecbc6d14E>:
_ZN4core5slice87_$LT$impl$u20$core..iter..traits..collect..IntoIterator$u20$for$u20$$RF$$u5b$T$u5d$$GT$9into_iter17h1629c2afecbc6d14E():
/rustc/412f43ac5b4ae8c3599e71c6972112e9be4758fa/src/libcore/slice/mod.rs:3073
   0:	b580      	push	{r7, lr}
   2:	b084      	sub	sp, #16
   4:	9002      	str	r0, [sp, #8]
   6:	9103      	str	r1, [sp, #12]
/rustc/412f43ac5b4ae8c3599e71c6972112e9be4758fa/src/libcore/slice/mod.rs:3074
   8:	9802      	ldr	r0, [sp, #8]
   a:	9903      	ldr	r1, [sp, #12]
   c:	f7ff fffe 	bl	0 <_ZN4core5slice87_$LT$impl$u20$core..iter..traits..collect..IntoIterator$u20$for$u20$$RF$$u5b$T$u5d$$GT$9into_iter17h1629c2afecbc6d14E>
  10:	9001      	str	r0, [sp, #4]
  12:	9100      	str	r1, [sp, #0]
  14:	e7ff      	b.n	16 <_ZN4core5slice87_$LT$impl$u20$core..iter..traits..collect..IntoIterator$u20$for$u20$$RF$$u5b$T$u5d$$GT$9into_iter17h1629c2afecbc6d14E+0x16>
/rustc/412f43ac5b4ae8c3599e71c6972112e9be4758fa/src/libcore/slice/mod.rs:3075
  16:	9801      	ldr	r0, [sp, #4]
  18:	9900      	ldr	r1, [sp, #0]
  1a:	b004      	add	sp, #16
  1c:	bd80      	pop	{r7, pc}

Disassembly of section .text._ZN68_$LT$usize$u20$as$u20$core..slice..SliceIndex$LT$$u5b$T$u5d$$GT$$GT$17get_unchecked_mut17ha9cea4063cd7b4e3E:

00000000 <_ZN68_$LT$usize$u20$as$u20$core..slice..SliceIndex$LT$$u5b$T$u5d$$GT$$GT$17get_unchecked_mut17ha9cea4063cd7b4e3E>:
_ZN68_$LT$usize$u20$as$u20$core..slice..SliceIndex$LT$$u5b$T$u5d$$GT$$GT$17get_unchecked_mut17ha9cea4063cd7b4e3E():
/rustc/412f43ac5b4ae8c3599e71c6972112e9be4758fa/src/libcore/slice/mod.rs:2790
   0:	b580      	push	{r7, lr}
   2:	b086      	sub	sp, #24
   4:	9003      	str	r0, [sp, #12]
   6:	9104      	str	r1, [sp, #16]
   8:	9205      	str	r2, [sp, #20]
/rustc/412f43ac5b4ae8c3599e71c6972112e9be4758fa/src/libcore/slice/mod.rs:2791
   a:	9804      	ldr	r0, [sp, #16]
   c:	9905      	ldr	r1, [sp, #20]
   e:	f7ff fffe 	bl	0 <_ZN68_$LT$usize$u20$as$u20$core..slice..SliceIndex$LT$$u5b$T$u5d$$GT$$GT$17get_unchecked_mut17ha9cea4063cd7b4e3E>
  12:	9002      	str	r0, [sp, #8]
  14:	e7ff      	b.n	16 <_ZN68_$LT$usize$u20$as$u20$core..slice..SliceIndex$LT$$u5b$T$u5d$$GT$$GT$17get_unchecked_mut17ha9cea4063cd7b4e3E+0x16>
  16:	9903      	ldr	r1, [sp, #12]
  18:	9802      	ldr	r0, [sp, #8]
  1a:	f7ff fffe 	bl	0 <_ZN4core3ptr31_$LT$impl$u20$$BP$mut$u20$T$GT$3add17h09274fa84f17fc51E>
  1e:	9001      	str	r0, [sp, #4]
  20:	e7ff      	b.n	22 <_ZN68_$LT$usize$u20$as$u20$core..slice..SliceIndex$LT$$u5b$T$u5d$$GT$$GT$17get_unchecked_mut17ha9cea4063cd7b4e3E+0x22>
/rustc/412f43ac5b4ae8c3599e71c6972112e9be4758fa/src/libcore/slice/mod.rs:2792
  22:	9801      	ldr	r0, [sp, #4]
  24:	b006      	add	sp, #24
  26:	bd80      	pop	{r7, pc}

Disassembly of section .text._ZN85_$LT$core..slice..Iter$LT$T$GT$$u20$as$u20$core..iter..traits..iterator..Iterator$GT$4next17hf56afd57b5d987b6E:

00000000 <_ZN85_$LT$core..slice..Iter$LT$T$GT$$u20$as$u20$core..iter..traits..iterator..Iterator$GT$4next17hf56afd57b5d987b6E>:
_ZN85_$LT$core..slice..Iter$LT$T$GT$$u20$as$u20$core..iter..traits..iterator..Iterator$GT$4next17hf56afd57b5d987b6E():
/rustc/412f43ac5b4ae8c3599e71c6972112e9be4758fa/src/libcore/slice/mod.rs:3214
   0:	b580      	push	{r7, lr}
   2:	b08a      	sub	sp, #40	; 0x28
   4:	9002      	str	r0, [sp, #8]
/rustc/412f43ac5b4ae8c3599e71c6972112e9be4758fa/src/libcore/slice/mod.rs:3217
   6:	9802      	ldr	r0, [sp, #8]
   8:	6800      	ldr	r0, [r0, #0]
   a:	f7ff fffe 	bl	0 <_ZN4core3ptr33_$LT$impl$u20$$BP$const$u20$T$GT$7is_null17h07b61a76277a678cE>
   e:	e7ff      	b.n	10 <_ZN85_$LT$core..slice..Iter$LT$T$GT$$u20$as$u20$core..iter..traits..iterator..Iterator$GT$4next17hf56afd57b5d987b6E+0x10>
  10:	e7ff      	b.n	12 <_ZN85_$LT$core..slice..Iter$LT$T$GT$$u20$as$u20$core..iter..traits..iterator..Iterator$GT$4next17hf56afd57b5d987b6E+0x12>
  12:	2002      	movs	r0, #2
_ZN4core3mem7size_of17h420ae999a5b22839E():
/rustc/412f43ac5b4ae8c3599e71c6972112e9be4758fa/src/libcore/mem/mod.rs:275
  14:	9004      	str	r0, [sp, #16]
  16:	9804      	ldr	r0, [sp, #16]
_ZN85_$LT$core..slice..Iter$LT$T$GT$$u20$as$u20$core..iter..traits..iterator..Iterator$GT$4next17hf56afd57b5d987b6E():
/rustc/412f43ac5b4ae8c3599e71c6972112e9be4758fa/src/libcore/slice/mod.rs:3218
  18:	9001      	str	r0, [sp, #4]
  1a:	e7ff      	b.n	1c <_ZN85_$LT$core..slice..Iter$LT$T$GT$$u20$as$u20$core..iter..traits..iterator..Iterator$GT$4next17hf56afd57b5d987b6E+0x1c>
  1c:	9801      	ldr	r0, [sp, #4]
  1e:	2800      	cmp	r0, #0
  20:	d007      	beq.n	32 <_ZN85_$LT$core..slice..Iter$LT$T$GT$$u20$as$u20$core..iter..traits..iterator..Iterator$GT$4next17hf56afd57b5d987b6E+0x32>
  22:	e7ff      	b.n	24 <_ZN85_$LT$core..slice..Iter$LT$T$GT$$u20$as$u20$core..iter..traits..iterator..Iterator$GT$4next17hf56afd57b5d987b6E+0x24>
/rustc/412f43ac5b4ae8c3599e71c6972112e9be4758fa/src/libcore/slice/mod.rs:3219
  24:	9802      	ldr	r0, [sp, #8]
  26:	6840      	ldr	r0, [r0, #4]
  28:	f7ff fffe 	bl	0 <_ZN4core3ptr33_$LT$impl$u20$$BP$const$u20$T$GT$7is_null17h07b61a76277a678cE>
  2c:	e7ff      	b.n	2e <_ZN85_$LT$core..slice..Iter$LT$T$GT$$u20$as$u20$core..iter..traits..iterator..Iterator$GT$4next17hf56afd57b5d987b6E+0x2e>
  2e:	e7ff      	b.n	30 <_ZN85_$LT$core..slice..Iter$LT$T$GT$$u20$as$u20$core..iter..traits..iterator..Iterator$GT$4next17hf56afd57b5d987b6E+0x30>
/rustc/412f43ac5b4ae8c3599e71c6972112e9be4758fa/src/libcore/slice/mod.rs:3218
  30:	e7ff      	b.n	32 <_ZN85_$LT$core..slice..Iter$LT$T$GT$$u20$as$u20$core..iter..traits..iterator..Iterator$GT$4next17hf56afd57b5d987b6E+0x32>
/rustc/412f43ac5b4ae8c3599e71c6972112e9be4758fa/src/libcore/slice/mod.rs:3098
  32:	9802      	ldr	r0, [sp, #8]
  34:	6801      	ldr	r1, [r0, #0]
  36:	6840      	ldr	r0, [r0, #4]
/rustc/412f43ac5b4ae8c3599e71c6972112e9be4758fa/src/libcore/slice/mod.rs:3221
  38:	4281      	cmp	r1, r0
  3a:	d026      	beq.n	8a <_ZN85_$LT$core..slice..Iter$LT$T$GT$$u20$as$u20$core..iter..traits..iterator..Iterator$GT$4next17hf56afd57b5d987b6E+0x8a>
  3c:	e7ff      	b.n	3e <_ZN85_$LT$core..slice..Iter$LT$T$GT$$u20$as$u20$core..iter..traits..iterator..Iterator$GT$4next17hf56afd57b5d987b6E+0x3e>
/rustc/412f43ac5b4ae8c3599e71c6972112e9be4758fa/src/libcore/slice/mod.rs:3141
  3e:	9802      	ldr	r0, [sp, #8]
  40:	9005      	str	r0, [sp, #20]
  42:	2001      	movs	r0, #1
  44:	9006      	str	r0, [sp, #24]
  46:	2002      	movs	r0, #2
_ZN4core3mem7size_of17h420ae999a5b22839E():
/rustc/412f43ac5b4ae8c3599e71c6972112e9be4758fa/src/libcore/mem/mod.rs:275
  48:	9009      	str	r0, [sp, #36]	; 0x24
  4a:	9809      	ldr	r0, [sp, #36]	; 0x24
_ZN4core5slice13Iter$LT$T$GT$14post_inc_start17he820ab4becbfdd00E():
/rustc/412f43ac5b4ae8c3599e71c6972112e9be4758fa/src/libcore/slice/mod.rs:3171
  4c:	2800      	cmp	r0, #0
  4e:	d00d      	beq.n	6c <_ZN85_$LT$core..slice..Iter$LT$T$GT$$u20$as$u20$core..iter..traits..iterator..Iterator$GT$4next17hf56afd57b5d987b6E+0x6c>
  50:	e7ff      	b.n	52 <_ZN85_$LT$core..slice..Iter$LT$T$GT$$u20$as$u20$core..iter..traits..iterator..Iterator$GT$4next17hf56afd57b5d987b6E+0x52>
/rustc/412f43ac5b4ae8c3599e71c6972112e9be4758fa/src/libcore/slice/mod.rs:3175
  52:	9805      	ldr	r0, [sp, #20]
  54:	6800      	ldr	r0, [r0, #0]
  56:	9008      	str	r0, [sp, #32]
/rustc/412f43ac5b4ae8c3599e71c6972112e9be4758fa/src/libcore/slice/mod.rs:3176
  58:	9805      	ldr	r0, [sp, #20]
  5a:	6800      	ldr	r0, [r0, #0]
  5c:	9906      	ldr	r1, [sp, #24]
  5e:	f7ff fffe 	bl	0 <_ZN4core3ptr33_$LT$impl$u20$$BP$const$u20$T$GT$6offset17hb3633c7364eb3c09E>
  62:	9905      	ldr	r1, [sp, #20]
  64:	6008      	str	r0, [r1, #0]
/rustc/412f43ac5b4ae8c3599e71c6972112e9be4758fa/src/libcore/slice/mod.rs:3177
  66:	9808      	ldr	r0, [sp, #32]
  68:	9007      	str	r0, [sp, #28]
/rustc/412f43ac5b4ae8c3599e71c6972112e9be4758fa/src/libcore/slice/mod.rs:3171
  6a:	e00b      	b.n	84 <_ZN85_$LT$core..slice..Iter$LT$T$GT$$u20$as$u20$core..iter..traits..iterator..Iterator$GT$4next17hf56afd57b5d987b6E+0x84>
/rustc/412f43ac5b4ae8c3599e71c6972112e9be4758fa/src/libcore/slice/mod.rs:3155
  6c:	9805      	ldr	r0, [sp, #20]
  6e:	6840      	ldr	r0, [r0, #4]
  70:	9906      	ldr	r1, [sp, #24]
  72:	4249      	negs	r1, r1
  74:	f7ff fffe 	bl	0 <_ZN4core3ptr33_$LT$impl$u20$$BP$const$u20$T$GT$15wrapping_offset17h1d44a3dd1b27c9a8E>
  78:	9905      	ldr	r1, [sp, #20]
  7a:	6048      	str	r0, [r1, #4]
/rustc/412f43ac5b4ae8c3599e71c6972112e9be4758fa/src/libcore/slice/mod.rs:3173
  7c:	9805      	ldr	r0, [sp, #20]
  7e:	6800      	ldr	r0, [r0, #0]
  80:	9007      	str	r0, [sp, #28]
/rustc/412f43ac5b4ae8c3599e71c6972112e9be4758fa/src/libcore/slice/mod.rs:3171
  82:	e7ff      	b.n	84 <_ZN85_$LT$core..slice..Iter$LT$T$GT$$u20$as$u20$core..iter..traits..iterator..Iterator$GT$4next17hf56afd57b5d987b6E+0x84>
/rustc/412f43ac5b4ae8c3599e71c6972112e9be4758fa/src/libcore/slice/mod.rs:3179
  84:	9807      	ldr	r0, [sp, #28]
_ZN85_$LT$core..slice..Iter$LT$T$GT$$u20$as$u20$core..iter..traits..iterator..Iterator$GT$4next17hf56afd57b5d987b6E():
/rustc/412f43ac5b4ae8c3599e71c6972112e9be4758fa/src/libcore/slice/mod.rs:3141
  86:	9000      	str	r0, [sp, #0]
  88:	e002      	b.n	90 <_ZN85_$LT$core..slice..Iter$LT$T$GT$$u20$as$u20$core..iter..traits..iterator..Iterator$GT$4next17hf56afd57b5d987b6E+0x90>
  8a:	2000      	movs	r0, #0
/rustc/412f43ac5b4ae8c3599e71c6972112e9be4758fa/src/libcore/slice/mod.rs:3222
  8c:	9003      	str	r0, [sp, #12]
/rustc/412f43ac5b4ae8c3599e71c6972112e9be4758fa/src/libcore/slice/mod.rs:3221
  8e:	e002      	b.n	96 <_ZN85_$LT$core..slice..Iter$LT$T$GT$$u20$as$u20$core..iter..traits..iterator..Iterator$GT$4next17hf56afd57b5d987b6E+0x96>
/rustc/412f43ac5b4ae8c3599e71c6972112e9be4758fa/src/libcore/slice/mod.rs:3224
  90:	9800      	ldr	r0, [sp, #0]
  92:	9003      	str	r0, [sp, #12]
/rustc/412f43ac5b4ae8c3599e71c6972112e9be4758fa/src/libcore/slice/mod.rs:3221
  94:	e7ff      	b.n	96 <_ZN85_$LT$core..slice..Iter$LT$T$GT$$u20$as$u20$core..iter..traits..iterator..Iterator$GT$4next17hf56afd57b5d987b6E+0x96>
/rustc/412f43ac5b4ae8c3599e71c6972112e9be4758fa/src/libcore/slice/mod.rs:3227
  96:	9803      	ldr	r0, [sp, #12]
  98:	b00a      	add	sp, #40	; 0x28
  9a:	bd80      	pop	{r7, pc}

app-d559bf047a1af437.oznytu4p9xnk4ga.rcgu.o:     file format elf32-littlearm

SYMBOL TABLE:
00000000 l    df *ABS*	00000000 oznytu4p9xnk4ga
00000248 l       .debug_str	00000000 
00000351 l       .debug_str	00000000 
00000356 l       .debug_str	00000000 
0000035f l       .debug_str	00000000 
00000366 l       .debug_str	00000000 
0000037f l       .debug_str	00000000 
00000389 l       .debug_str	00000000 
00000000 l       .debug_str	00000000 
00000041 l       .debug_str	00000000 
00000055 l       .debug_str	00000000 
00000080 l       .debug_str	00000000 
00000085 l       .debug_str	00000000 
0000008c l       .debug_str	00000000 
0000008f l       .debug_str	00000000 
00000092 l       .debug_str	00000000 
00000096 l       .debug_str	00000000 
0000009d l       .debug_str	00000000 
000000a1 l       .debug_str	00000000 
000000a4 l       .debug_str	00000000 
000000a7 l       .debug_str	00000000 
000000ac l       .debug_str	00000000 
000000b2 l       .debug_str	00000000 
000000b9 l       .debug_str	00000000 
000000c1 l       .debug_str	00000000 
000000cb l       .debug_str	00000000 
000000cf l       .debug_str	00000000 
000000d8 l       .debug_str	00000000 
00000135 l       .debug_str	00000000 
0000013a l       .debug_str	00000000 
0000013e l       .debug_str	00000000 
00000143 l       .debug_str	00000000 
00000145 l       .debug_str	00000000 
0000014b l       .debug_str	00000000 
0000014f l       .debug_str	00000000 
00000154 l       .debug_str	00000000 
00000159 l       .debug_str	00000000 
0000015f l       .debug_str	00000000 
00000165 l       .debug_str	00000000 
0000016c l       .debug_str	00000000 
00000171 l       .debug_str	00000000 
00000177 l       .debug_str	00000000 
00000179 l       .debug_str	00000000 
0000017e l       .debug_str	00000000 
00000182 l       .debug_str	00000000 
00000190 l       .debug_str	00000000 
0000019a l       .debug_str	00000000 
0000019e l       .debug_str	00000000 
000001a6 l       .debug_str	00000000 
000001ae l       .debug_str	00000000 
000001b5 l       .debug_str	00000000 
000001c9 l       .debug_str	00000000 
000001d5 l       .debug_str	00000000 
000001e0 l       .debug_str	00000000 
000001e7 l       .debug_str	00000000 
000001ed l       .debug_str	00000000 
000001f1 l       .debug_str	00000000 
000001f7 l       .debug_str	00000000 
000001fd l       .debug_str	00000000 
00000200 l       .debug_str	00000000 
0000020f l       .debug_str	00000000 
00000216 l       .debug_str	00000000 
0000021a l       .debug_str	00000000 
00000223 l       .debug_str	00000000 
0000022f l       .debug_str	00000000 
0000024d l       .debug_str	00000000 
0000025e l       .debug_str	00000000 
00000268 l       .debug_str	00000000 
000002c6 l       .debug_str	00000000 
000002d1 l       .debug_str	00000000 
000002ee l       .debug_str	00000000 
000002f2 l       .debug_str	00000000 
000002fa l       .debug_str	00000000 
00000311 l       .debug_str	00000000 
00000335 l       .debug_str	00000000 
00000000 l    d  .text._ZN4core3fmt3num50_$LT$impl$u20$core..fmt..Debug$u20$for$u20$u16$GT$3fmt17h6b89a5d8d46ad5afE	00000000 .text._ZN4core3fmt3num50_$LT$impl$u20$core..fmt..Debug$u20$for$u20$u16$GT$3fmt17h6b89a5d8d46ad5afE
00000000 l    d  .debug_abbrev	00000000 .debug_abbrev
00000000 l    d  .debug_info	00000000 .debug_info
00000000 l    d  .debug_frame	00000000 .debug_frame
00000000 l    d  .debug_line	00000000 .debug_line
00000000         *UND*	00000000 _ZN4core3fmt3num3imp52_$LT$impl$u20$core..fmt..Display$u20$for$u20$u16$GT$3fmt17ha2a737c7339002bdE
00000000 g     F .text._ZN4core3fmt3num50_$LT$impl$u20$core..fmt..Debug$u20$for$u20$u16$GT$3fmt17h6b89a5d8d46ad5afE	0000006a .hidden _ZN4core3fmt3num50_$LT$impl$u20$core..fmt..Debug$u20$for$u20$u16$GT$3fmt17h6b89a5d8d46ad5afE
00000000         *UND*	00000000 _ZN4core3fmt3num53_$LT$impl$u20$core..fmt..LowerHex$u20$for$u20$u16$GT$3fmt17h70fbf921fb9b77efE
00000000         *UND*	00000000 _ZN4core3fmt3num53_$LT$impl$u20$core..fmt..UpperHex$u20$for$u20$u16$GT$3fmt17h9016e8f50c36a8a7E
00000000         *UND*	00000000 _ZN4core3fmt9Formatter15debug_lower_hex17h3e232350f9a33564E
00000000         *UND*	00000000 _ZN4core3fmt9Formatter15debug_upper_hex17h307d233eb78b4d63E



Disassembly of section .text._ZN4core3fmt3num50_$LT$impl$u20$core..fmt..Debug$u20$for$u20$u16$GT$3fmt17h6b89a5d8d46ad5afE:

00000000 <_ZN4core3fmt3num50_$LT$impl$u20$core..fmt..Debug$u20$for$u20$u16$GT$3fmt17h6b89a5d8d46ad5afE>:
_ZN4core3fmt3num50_$LT$impl$u20$core..fmt..Debug$u20$for$u20$u16$GT$3fmt17h6b89a5d8d46ad5afE():
/rustc/412f43ac5b4ae8c3599e71c6972112e9be4758fa/src/libcore/fmt/num.rs:148
   0:	b580      	push	{r7, lr}
   2:	b086      	sub	sp, #24
   4:	9003      	str	r0, [sp, #12]
   6:	9104      	str	r1, [sp, #16]
/rustc/412f43ac5b4ae8c3599e71c6972112e9be4758fa/src/libcore/fmt/num.rs:149
   8:	9804      	ldr	r0, [sp, #16]
   a:	f7ff fffe 	bl	0 <_ZN4core3fmt9Formatter15debug_lower_hex17h3e232350f9a33564E>
   e:	9002      	str	r0, [sp, #8]
  10:	e7ff      	b.n	12 <_ZN4core3fmt3num50_$LT$impl$u20$core..fmt..Debug$u20$for$u20$u16$GT$3fmt17h6b89a5d8d46ad5afE+0x12>
  12:	9802      	ldr	r0, [sp, #8]
  14:	07c1      	lsls	r1, r0, #31
  16:	2900      	cmp	r1, #0
  18:	d105      	bne.n	26 <_ZN4core3fmt3num50_$LT$impl$u20$core..fmt..Debug$u20$for$u20$u16$GT$3fmt17h6b89a5d8d46ad5afE+0x26>
  1a:	e7ff      	b.n	1c <_ZN4core3fmt3num50_$LT$impl$u20$core..fmt..Debug$u20$for$u20$u16$GT$3fmt17h6b89a5d8d46ad5afE+0x1c>
/rustc/412f43ac5b4ae8c3599e71c6972112e9be4758fa/src/libcore/fmt/num.rs:151
  1c:	9804      	ldr	r0, [sp, #16]
  1e:	f7ff fffe 	bl	0 <_ZN4core3fmt9Formatter15debug_upper_hex17h307d233eb78b4d63E>
  22:	9001      	str	r0, [sp, #4]
  24:	e007      	b.n	36 <_ZN4core3fmt3num50_$LT$impl$u20$core..fmt..Debug$u20$for$u20$u16$GT$3fmt17h6b89a5d8d46ad5afE+0x36>
/rustc/412f43ac5b4ae8c3599e71c6972112e9be4758fa/src/libcore/fmt/num.rs:150
  26:	9803      	ldr	r0, [sp, #12]
  28:	9904      	ldr	r1, [sp, #16]
  2a:	f7ff fffe 	bl	0 <_ZN4core3fmt3num53_$LT$impl$u20$core..fmt..LowerHex$u20$for$u20$u16$GT$3fmt17h70fbf921fb9b77efE>
  2e:	f88d 0017 	strb.w	r0, [sp, #23]
  32:	e7ff      	b.n	34 <_ZN4core3fmt3num50_$LT$impl$u20$core..fmt..Debug$u20$for$u20$u16$GT$3fmt17h6b89a5d8d46ad5afE+0x34>
/rustc/412f43ac5b4ae8c3599e71c6972112e9be4758fa/src/libcore/fmt/num.rs:149
  34:	e015      	b.n	62 <_ZN4core3fmt3num50_$LT$impl$u20$core..fmt..Debug$u20$for$u20$u16$GT$3fmt17h6b89a5d8d46ad5afE+0x62>
/rustc/412f43ac5b4ae8c3599e71c6972112e9be4758fa/src/libcore/fmt/num.rs:151
  36:	9801      	ldr	r0, [sp, #4]
  38:	07c1      	lsls	r1, r0, #31
  3a:	2900      	cmp	r1, #0
  3c:	d107      	bne.n	4e <_ZN4core3fmt3num50_$LT$impl$u20$core..fmt..Debug$u20$for$u20$u16$GT$3fmt17h6b89a5d8d46ad5afE+0x4e>
  3e:	e7ff      	b.n	40 <_ZN4core3fmt3num50_$LT$impl$u20$core..fmt..Debug$u20$for$u20$u16$GT$3fmt17h6b89a5d8d46ad5afE+0x40>
/rustc/412f43ac5b4ae8c3599e71c6972112e9be4758fa/src/libcore/fmt/num.rs:154
  40:	9803      	ldr	r0, [sp, #12]
  42:	9904      	ldr	r1, [sp, #16]
  44:	f7ff fffe 	bl	0 <_ZN4core3fmt3num3imp52_$LT$impl$u20$core..fmt..Display$u20$for$u20$u16$GT$3fmt17ha2a737c7339002bdE>
  48:	f88d 0017 	strb.w	r0, [sp, #23]
  4c:	e007      	b.n	5e <_ZN4core3fmt3num50_$LT$impl$u20$core..fmt..Debug$u20$for$u20$u16$GT$3fmt17h6b89a5d8d46ad5afE+0x5e>
/rustc/412f43ac5b4ae8c3599e71c6972112e9be4758fa/src/libcore/fmt/num.rs:152
  4e:	9803      	ldr	r0, [sp, #12]
  50:	9904      	ldr	r1, [sp, #16]
  52:	f7ff fffe 	bl	0 <_ZN4core3fmt3num53_$LT$impl$u20$core..fmt..UpperHex$u20$for$u20$u16$GT$3fmt17h9016e8f50c36a8a7E>
  56:	f88d 0017 	strb.w	r0, [sp, #23]
  5a:	e7ff      	b.n	5c <_ZN4core3fmt3num50_$LT$impl$u20$core..fmt..Debug$u20$for$u20$u16$GT$3fmt17h6b89a5d8d46ad5afE+0x5c>
/rustc/412f43ac5b4ae8c3599e71c6972112e9be4758fa/src/libcore/fmt/num.rs:151
  5c:	e000      	b.n	60 <_ZN4core3fmt3num50_$LT$impl$u20$core..fmt..Debug$u20$for$u20$u16$GT$3fmt17h6b89a5d8d46ad5afE+0x60>
  5e:	e7ff      	b.n	60 <_ZN4core3fmt3num50_$LT$impl$u20$core..fmt..Debug$u20$for$u20$u16$GT$3fmt17h6b89a5d8d46ad5afE+0x60>
/rustc/412f43ac5b4ae8c3599e71c6972112e9be4758fa/src/libcore/fmt/num.rs:149
  60:	e7ff      	b.n	62 <_ZN4core3fmt3num50_$LT$impl$u20$core..fmt..Debug$u20$for$u20$u16$GT$3fmt17h6b89a5d8d46ad5afE+0x62>
/rustc/412f43ac5b4ae8c3599e71c6972112e9be4758fa/src/libcore/fmt/num.rs:156
  62:	f89d 0017 	ldrb.w	r0, [sp, #23]
  66:	b006      	add	sp, #24
  68:	bd80      	pop	{r7, pc}

app-d559bf047a1af437.ryagcrqxennhqa2.rcgu.o:     file format elf32-littlearm

SYMBOL TABLE:
00000000 l    df *ABS*	00000000 ryagcrqxennhqa2
00000361 l       .debug_str	00000000 
00000117 l       .debug_str	00000000 
00000152 l       .debug_str	00000000 
00000170 l       .debug_str	00000000 
0000017b l       .debug_str	00000000 
000001c1 l       .debug_str	00000000 
000001ca l       .debug_str	00000000 
000001d3 l       .debug_str	00000000 
0000021b l       .debug_str	00000000 
00000226 l       .debug_str	00000000 
0000026f l       .debug_str	00000000 
0000027b l       .debug_str	00000000 
000002c3 l       .debug_str	00000000 
0000030c l       .debug_str	00000000 
00000316 l       .debug_str	00000000 
000003ad l       .debug_str	00000000 
000003ba l       .debug_str	00000000 
000003bf l       .debug_str	00000000 
000003e6 l       .debug_str	00000000 
000003eb l       .debug_str	00000000 
000003ef l       .debug_str	00000000 
000003f4 l       .debug_str	00000000 
000003fa l       .debug_str	00000000 
000003fe l       .debug_str	00000000 
00000404 l       .debug_str	00000000 
00000408 l       .debug_str	00000000 
00000000 l       .debug_str	00000000 
00000041 l       .debug_str	00000000 
00000055 l       .debug_str	00000000 
00000080 l       .debug_str	00000000 
00000085 l       .debug_str	00000000 
00000089 l       .debug_str	00000000 
00000092 l       .debug_str	00000000 
00000096 l       .debug_str	00000000 
00000098 l       .debug_str	00000000 
000000cf l       .debug_str	00000000 
000000e9 l       .debug_str	00000000 
000000f2 l       .debug_str	00000000 
000000fd l       .debug_str	00000000 
00000104 l       .debug_str	00000000 
0000010a l       .debug_str	00000000 
00000000 l    d  .text._ZN4core3ptr20slice_from_raw_parts17h15c6e436cb6346f9E	00000000 .text._ZN4core3ptr20slice_from_raw_parts17h15c6e436cb6346f9E
00000000 l    d  .text._ZN4core3ptr24slice_from_raw_parts_mut17h1db172026dbab88aE	00000000 .text._ZN4core3ptr24slice_from_raw_parts_mut17h1db172026dbab88aE
00000000 l    d  .text._ZN4core3ptr31_$LT$impl$u20$$BP$mut$u20$T$GT$3add17h09274fa84f17fc51E	00000000 .text._ZN4core3ptr31_$LT$impl$u20$$BP$mut$u20$T$GT$3add17h09274fa84f17fc51E
00000000 l    d  .text._ZN4core3ptr31_$LT$impl$u20$$BP$mut$u20$T$GT$5write17hc9e3c69d1773365fE	00000000 .text._ZN4core3ptr31_$LT$impl$u20$$BP$mut$u20$T$GT$5write17hc9e3c69d1773365fE
00000000 l    d  .text._ZN4core3ptr31_$LT$impl$u20$$BP$mut$u20$T$GT$6offset17hf0d5ec6e578ef3ffE	00000000 .text._ZN4core3ptr31_$LT$impl$u20$$BP$mut$u20$T$GT$6offset17hf0d5ec6e578ef3ffE
00000000 l    d  .text._ZN4core3ptr33_$LT$impl$u20$$BP$const$u20$T$GT$3add17hc7070bbca87f8170E	00000000 .text._ZN4core3ptr33_$LT$impl$u20$$BP$const$u20$T$GT$3add17hc7070bbca87f8170E
00000000 l    d  .text._ZN4core3ptr33_$LT$impl$u20$$BP$const$u20$T$GT$4read17h220cab28cb6d63c7E	00000000 .text._ZN4core3ptr33_$LT$impl$u20$$BP$const$u20$T$GT$4read17h220cab28cb6d63c7E
00000000 l    d  .text._ZN4core3ptr33_$LT$impl$u20$$BP$const$u20$T$GT$6offset17hb3633c7364eb3c09E	00000000 .text._ZN4core3ptr33_$LT$impl$u20$$BP$const$u20$T$GT$6offset17hb3633c7364eb3c09E
00000000 l    d  .text._ZN4core3ptr33_$LT$impl$u20$$BP$const$u20$T$GT$7is_null17h07b61a76277a678cE	00000000 .text._ZN4core3ptr33_$LT$impl$u20$$BP$const$u20$T$GT$7is_null17h07b61a76277a678cE
00000000 l    d  .text._ZN4core3ptr5write17h2e605363b28163e7E	00000000 .text._ZN4core3ptr5write17h2e605363b28163e7E
00000000 l    d  .debug_abbrev	00000000 .debug_abbrev
00000000 l    d  .debug_info	00000000 .debug_info
00000000 l    d  .debug_ranges	00000000 .debug_ranges
00000000 l    d  .debug_frame	00000000 .debug_frame
00000000 l    d  .debug_line	00000000 .debug_line
00000000 g     F .text._ZN4core3ptr20slice_from_raw_parts17h15c6e436cb6346f9E	0000001e _ZN4core3ptr20slice_from_raw_parts17h15c6e436cb6346f9E
00000000 g     F .text._ZN4core3ptr24slice_from_raw_parts_mut17h1db172026dbab88aE	0000001e _ZN4core3ptr24slice_from_raw_parts_mut17h1db172026dbab88aE
00000000 g     F .text._ZN4core3ptr31_$LT$impl$u20$$BP$mut$u20$T$GT$3add17h09274fa84f17fc51E	0000001a _ZN4core3ptr31_$LT$impl$u20$$BP$mut$u20$T$GT$3add17h09274fa84f17fc51E
00000000 g     F .text._ZN4core3ptr31_$LT$impl$u20$$BP$mut$u20$T$GT$5write17hc9e3c69d1773365fE	0000001e _ZN4core3ptr31_$LT$impl$u20$$BP$mut$u20$T$GT$5write17hc9e3c69d1773365fE
00000000 g     F .text._ZN4core3ptr31_$LT$impl$u20$$BP$mut$u20$T$GT$6offset17hf0d5ec6e578ef3ffE	0000001c _ZN4core3ptr31_$LT$impl$u20$$BP$mut$u20$T$GT$6offset17hf0d5ec6e578ef3ffE
00000000 g     F .text._ZN4core3ptr33_$LT$impl$u20$$BP$const$u20$T$GT$3add17hc7070bbca87f8170E	0000001a _ZN4core3ptr33_$LT$impl$u20$$BP$const$u20$T$GT$3add17hc7070bbca87f8170E
00000000 g     F .text._ZN4core3ptr33_$LT$impl$u20$$BP$const$u20$T$GT$4read17h220cab28cb6d63c7E	00000016 _ZN4core3ptr33_$LT$impl$u20$$BP$const$u20$T$GT$4read17h220cab28cb6d63c7E
00000000 g     F .text._ZN4core3ptr33_$LT$impl$u20$$BP$const$u20$T$GT$6offset17hb3633c7364eb3c09E	0000001c _ZN4core3ptr33_$LT$impl$u20$$BP$const$u20$T$GT$6offset17hb3633c7364eb3c09E
00000000 g     F .text._ZN4core3ptr33_$LT$impl$u20$$BP$const$u20$T$GT$7is_null17h07b61a76277a678cE	00000016 _ZN4core3ptr33_$LT$impl$u20$$BP$const$u20$T$GT$7is_null17h07b61a76277a678cE
00000000         *UND*	00000000 _ZN4core3ptr4read17h314bf62a5d49c349E
00000000 g     F .text._ZN4core3ptr5write17h2e605363b28163e7E	00000016 _ZN4core3ptr5write17h2e605363b28163e7E



Disassembly of section .text._ZN4core3ptr20slice_from_raw_parts17h15c6e436cb6346f9E:

00000000 <_ZN4core3ptr20slice_from_raw_parts17h15c6e436cb6346f9E>:
_ZN4core3ptr20slice_from_raw_parts17h15c6e436cb6346f9E():
/rustc/412f43ac5b4ae8c3599e71c6972112e9be4758fa/src/libcore/ptr/mod.rs:253
   0:	b086      	sub	sp, #24
   2:	9000      	str	r0, [sp, #0]
   4:	9101      	str	r1, [sp, #4]
/rustc/412f43ac5b4ae8c3599e71c6972112e9be4758fa/src/libcore/ptr/mod.rs:254
   6:	9800      	ldr	r0, [sp, #0]
   8:	9901      	ldr	r1, [sp, #4]
   a:	9004      	str	r0, [sp, #16]
   c:	9105      	str	r1, [sp, #20]
   e:	9804      	ldr	r0, [sp, #16]
  10:	9905      	ldr	r1, [sp, #20]
  12:	9002      	str	r0, [sp, #8]
  14:	9103      	str	r1, [sp, #12]
  16:	9802      	ldr	r0, [sp, #8]
  18:	9903      	ldr	r1, [sp, #12]
/rustc/412f43ac5b4ae8c3599e71c6972112e9be4758fa/src/libcore/ptr/mod.rs:255
  1a:	b006      	add	sp, #24
  1c:	4770      	bx	lr

Disassembly of section .text._ZN4core3ptr24slice_from_raw_parts_mut17h1db172026dbab88aE:

00000000 <_ZN4core3ptr24slice_from_raw_parts_mut17h1db172026dbab88aE>:
_ZN4core3ptr24slice_from_raw_parts_mut17h1db172026dbab88aE():
/rustc/412f43ac5b4ae8c3599e71c6972112e9be4758fa/src/libcore/ptr/mod.rs:269
   0:	b086      	sub	sp, #24
   2:	9000      	str	r0, [sp, #0]
   4:	9101      	str	r1, [sp, #4]
/rustc/412f43ac5b4ae8c3599e71c6972112e9be4758fa/src/libcore/ptr/mod.rs:270
   6:	9800      	ldr	r0, [sp, #0]
   8:	9901      	ldr	r1, [sp, #4]
   a:	9004      	str	r0, [sp, #16]
   c:	9105      	str	r1, [sp, #20]
   e:	9804      	ldr	r0, [sp, #16]
  10:	9905      	ldr	r1, [sp, #20]
  12:	9002      	str	r0, [sp, #8]
  14:	9103      	str	r1, [sp, #12]
  16:	9802      	ldr	r0, [sp, #8]
  18:	9903      	ldr	r1, [sp, #12]
/rustc/412f43ac5b4ae8c3599e71c6972112e9be4758fa/src/libcore/ptr/mod.rs:271
  1a:	b006      	add	sp, #24
  1c:	4770      	bx	lr

Disassembly of section .text._ZN4core3ptr31_$LT$impl$u20$$BP$mut$u20$T$GT$3add17h09274fa84f17fc51E:

00000000 <_ZN4core3ptr31_$LT$impl$u20$$BP$mut$u20$T$GT$3add17h09274fa84f17fc51E>:
_ZN4core3ptr31_$LT$impl$u20$$BP$mut$u20$T$GT$3add17h09274fa84f17fc51E():
/rustc/412f43ac5b4ae8c3599e71c6972112e9be4758fa/src/libcore/ptr/mod.rs:2129
   0:	b580      	push	{r7, lr}
   2:	b084      	sub	sp, #16
   4:	9002      	str	r0, [sp, #8]
   6:	9103      	str	r1, [sp, #12]
/rustc/412f43ac5b4ae8c3599e71c6972112e9be4758fa/src/libcore/ptr/mod.rs:2132
   8:	9802      	ldr	r0, [sp, #8]
   a:	9903      	ldr	r1, [sp, #12]
   c:	f7ff fffe 	bl	0 <_ZN4core3ptr31_$LT$impl$u20$$BP$mut$u20$T$GT$3add17h09274fa84f17fc51E>
  10:	9001      	str	r0, [sp, #4]
  12:	e7ff      	b.n	14 <_ZN4core3ptr31_$LT$impl$u20$$BP$mut$u20$T$GT$3add17h09274fa84f17fc51E+0x14>
/rustc/412f43ac5b4ae8c3599e71c6972112e9be4758fa/src/libcore/ptr/mod.rs:2133
  14:	9801      	ldr	r0, [sp, #4]
  16:	b004      	add	sp, #16
  18:	bd80      	pop	{r7, pc}

Disassembly of section .text._ZN4core3ptr31_$LT$impl$u20$$BP$mut$u20$T$GT$5write17hc9e3c69d1773365fE:

00000000 <_ZN4core3ptr31_$LT$impl$u20$$BP$mut$u20$T$GT$5write17hc9e3c69d1773365fE>:
_ZN4core3ptr31_$LT$impl$u20$$BP$mut$u20$T$GT$5write17hc9e3c69d1773365fE():
/rustc/412f43ac5b4ae8c3599e71c6972112e9be4758fa/src/libcore/ptr/mod.rs:2434
   0:	b580      	push	{r7, lr}
   2:	b084      	sub	sp, #16
   4:	460a      	mov	r2, r1
   6:	9002      	str	r0, [sp, #8]
   8:	f8ad 100e 	strh.w	r1, [sp, #14]
/rustc/412f43ac5b4ae8c3599e71c6972112e9be4758fa/src/libcore/ptr/mod.rs:2437
   c:	9802      	ldr	r0, [sp, #8]
   e:	f8bd 100e 	ldrh.w	r1, [sp, #14]
  12:	9201      	str	r2, [sp, #4]
  14:	f7ff fffe 	bl	0 <_ZN4core3ptr31_$LT$impl$u20$$BP$mut$u20$T$GT$5write17hc9e3c69d1773365fE>
  18:	e7ff      	b.n	1a <_ZN4core3ptr31_$LT$impl$u20$$BP$mut$u20$T$GT$5write17hc9e3c69d1773365fE+0x1a>
/rustc/412f43ac5b4ae8c3599e71c6972112e9be4758fa/src/libcore/ptr/mod.rs:2438
  1a:	b004      	add	sp, #16
  1c:	bd80      	pop	{r7, pc}

Disassembly of section .text._ZN4core3ptr31_$LT$impl$u20$$BP$mut$u20$T$GT$6offset17hf0d5ec6e578ef3ffE:

00000000 <_ZN4core3ptr31_$LT$impl$u20$$BP$mut$u20$T$GT$6offset17hf0d5ec6e578ef3ffE>:
_ZN4core3ptr31_$LT$impl$u20$$BP$mut$u20$T$GT$6offset17hf0d5ec6e578ef3ffE():
/rustc/412f43ac5b4ae8c3599e71c6972112e9be4758fa/src/libcore/ptr/mod.rs:1863
   0:	b084      	sub	sp, #16
   2:	9001      	str	r0, [sp, #4]
   4:	9102      	str	r1, [sp, #8]
/rustc/412f43ac5b4ae8c3599e71c6972112e9be4758fa/src/libcore/ptr/mod.rs:1864
   6:	9801      	ldr	r0, [sp, #4]
   8:	9902      	ldr	r1, [sp, #8]
   a:	eb00 0041 	add.w	r0, r0, r1, lsl #1
   e:	9003      	str	r0, [sp, #12]
  10:	9803      	ldr	r0, [sp, #12]
  12:	9000      	str	r0, [sp, #0]
  14:	e7ff      	b.n	16 <_ZN4core3ptr31_$LT$impl$u20$$BP$mut$u20$T$GT$6offset17hf0d5ec6e578ef3ffE+0x16>
/rustc/412f43ac5b4ae8c3599e71c6972112e9be4758fa/src/libcore/ptr/mod.rs:1865
  16:	9800      	ldr	r0, [sp, #0]
  18:	b004      	add	sp, #16
  1a:	4770      	bx	lr

Disassembly of section .text._ZN4core3ptr33_$LT$impl$u20$$BP$const$u20$T$GT$3add17hc7070bbca87f8170E:

00000000 <_ZN4core3ptr33_$LT$impl$u20$$BP$const$u20$T$GT$3add17hc7070bbca87f8170E>:
_ZN4core3ptr33_$LT$impl$u20$$BP$const$u20$T$GT$3add17hc7070bbca87f8170E():
/rustc/412f43ac5b4ae8c3599e71c6972112e9be4758fa/src/libcore/ptr/mod.rs:1412
   0:	b580      	push	{r7, lr}
   2:	b084      	sub	sp, #16
   4:	9002      	str	r0, [sp, #8]
   6:	9103      	str	r1, [sp, #12]
/rustc/412f43ac5b4ae8c3599e71c6972112e9be4758fa/src/libcore/ptr/mod.rs:1415
   8:	9802      	ldr	r0, [sp, #8]
   a:	9903      	ldr	r1, [sp, #12]
   c:	f7ff fffe 	bl	0 <_ZN4core3ptr33_$LT$impl$u20$$BP$const$u20$T$GT$3add17hc7070bbca87f8170E>
  10:	9001      	str	r0, [sp, #4]
  12:	e7ff      	b.n	14 <_ZN4core3ptr33_$LT$impl$u20$$BP$const$u20$T$GT$3add17hc7070bbca87f8170E+0x14>
/rustc/412f43ac5b4ae8c3599e71c6972112e9be4758fa/src/libcore/ptr/mod.rs:1416
  14:	9801      	ldr	r0, [sp, #4]
  16:	b004      	add	sp, #16
  18:	bd80      	pop	{r7, pc}

Disassembly of section .text._ZN4core3ptr33_$LT$impl$u20$$BP$const$u20$T$GT$4read17h220cab28cb6d63c7E:

00000000 <_ZN4core3ptr33_$LT$impl$u20$$BP$const$u20$T$GT$4read17h220cab28cb6d63c7E>:
_ZN4core3ptr33_$LT$impl$u20$$BP$const$u20$T$GT$4read17h220cab28cb6d63c7E():
/rustc/412f43ac5b4ae8c3599e71c6972112e9be4758fa/src/libcore/ptr/mod.rs:1594
   0:	b580      	push	{r7, lr}
   2:	b082      	sub	sp, #8
   4:	9001      	str	r0, [sp, #4]
/rustc/412f43ac5b4ae8c3599e71c6972112e9be4758fa/src/libcore/ptr/mod.rs:1597
   6:	9801      	ldr	r0, [sp, #4]
   8:	f7ff fffe 	bl	0 <_ZN4core3ptr4read17h314bf62a5d49c349E>
   c:	9000      	str	r0, [sp, #0]
   e:	e7ff      	b.n	10 <_ZN4core3ptr33_$LT$impl$u20$$BP$const$u20$T$GT$4read17h220cab28cb6d63c7E+0x10>
/rustc/412f43ac5b4ae8c3599e71c6972112e9be4758fa/src/libcore/ptr/mod.rs:1598
  10:	9800      	ldr	r0, [sp, #0]
  12:	b002      	add	sp, #8
  14:	bd80      	pop	{r7, pc}

Disassembly of section .text._ZN4core3ptr33_$LT$impl$u20$$BP$const$u20$T$GT$6offset17hb3633c7364eb3c09E:

00000000 <_ZN4core3ptr33_$LT$impl$u20$$BP$const$u20$T$GT$6offset17hb3633c7364eb3c09E>:
_ZN4core3ptr33_$LT$impl$u20$$BP$const$u20$T$GT$6offset17hb3633c7364eb3c09E():
/rustc/412f43ac5b4ae8c3599e71c6972112e9be4758fa/src/libcore/ptr/mod.rs:1180
   0:	b084      	sub	sp, #16
   2:	9001      	str	r0, [sp, #4]
   4:	9102      	str	r1, [sp, #8]
/rustc/412f43ac5b4ae8c3599e71c6972112e9be4758fa/src/libcore/ptr/mod.rs:1181
   6:	9801      	ldr	r0, [sp, #4]
   8:	9902      	ldr	r1, [sp, #8]
   a:	eb00 0041 	add.w	r0, r0, r1, lsl #1
   e:	9003      	str	r0, [sp, #12]
  10:	9803      	ldr	r0, [sp, #12]
  12:	9000      	str	r0, [sp, #0]
  14:	e7ff      	b.n	16 <_ZN4core3ptr33_$LT$impl$u20$$BP$const$u20$T$GT$6offset17hb3633c7364eb3c09E+0x16>
/rustc/412f43ac5b4ae8c3599e71c6972112e9be4758fa/src/libcore/ptr/mod.rs:1182
  16:	9800      	ldr	r0, [sp, #0]
  18:	b004      	add	sp, #16
  1a:	4770      	bx	lr

Disassembly of section .text._ZN4core3ptr33_$LT$impl$u20$$BP$const$u20$T$GT$7is_null17h07b61a76277a678cE:

00000000 <_ZN4core3ptr33_$LT$impl$u20$$BP$const$u20$T$GT$7is_null17h07b61a76277a678cE>:
_ZN4core3ptr33_$LT$impl$u20$$BP$const$u20$T$GT$7is_null17h07b61a76277a678cE():
/rustc/412f43ac5b4ae8c3599e71c6972112e9be4758fa/src/libcore/ptr/mod.rs:1054
   0:	b082      	sub	sp, #8
   2:	9001      	str	r0, [sp, #4]
/rustc/412f43ac5b4ae8c3599e71c6972112e9be4758fa/src/libcore/ptr/mod.rs:1057
   4:	9801      	ldr	r0, [sp, #4]
   6:	9000      	str	r0, [sp, #0]
   8:	e7ff      	b.n	a <_ZN4core3ptr33_$LT$impl$u20$$BP$const$u20$T$GT$7is_null17h07b61a76277a678cE+0xa>
   a:	9800      	ldr	r0, [sp, #0]
   c:	fab0 f180 	clz	r1, r0
  10:	0948      	lsrs	r0, r1, #5
/rustc/412f43ac5b4ae8c3599e71c6972112e9be4758fa/src/libcore/ptr/mod.rs:1058
  12:	b002      	add	sp, #8
  14:	4770      	bx	lr

Disassembly of section .text._ZN4core3ptr5write17h2e605363b28163e7E:

00000000 <_ZN4core3ptr5write17h2e605363b28163e7E>:
_ZN4core3ptr5write17h2e605363b28163e7E():
/rustc/412f43ac5b4ae8c3599e71c6972112e9be4758fa/src/libcore/ptr/mod.rs:799
   0:	b082      	sub	sp, #8
   2:	460a      	mov	r2, r1
   4:	9000      	str	r0, [sp, #0]
   6:	f8ad 1006 	strh.w	r1, [sp, #6]
/rustc/412f43ac5b4ae8c3599e71c6972112e9be4758fa/src/libcore/ptr/mod.rs:800
   a:	9800      	ldr	r0, [sp, #0]
   c:	f8bd 1006 	ldrh.w	r1, [sp, #6]
  10:	8001      	strh	r1, [r0, #0]
/rustc/412f43ac5b4ae8c3599e71c6972112e9be4758fa/src/libcore/ptr/mod.rs:801
  12:	b002      	add	sp, #8
  14:	4770      	bx	lr

app-d559bf047a1af437.x8tvt6yjiadc6q3.rcgu.o:     file format elf32-littlearm

SYMBOL TABLE:
00000000 l    df *ABS*	00000000 x8tvt6yjiadc6q3
0000022c l       .debug_str	00000000 
00000150 l       .debug_str	00000000 
0000018c l       .debug_str	00000000 
00000195 l       .debug_str	00000000 
0000019a l       .debug_str	00000000 
000001c5 l       .debug_str	00000000 
000001ce l       .debug_str	00000000 
00000231 l       .debug_str	00000000 
00000239 l       .debug_str	00000000 
00000241 l       .debug_str	00000000 
00000248 l       .debug_str	00000000 
0000025c l       .debug_str	00000000 
00000268 l       .debug_str	00000000 
0000026d l       .debug_str	00000000 
00000000 l       .debug_str	00000000 
00000041 l       .debug_str	00000000 
00000055 l       .debug_str	00000000 
00000080 l       .debug_str	00000000 
00000085 l       .debug_str	00000000 
00000089 l       .debug_str	00000000 
00000092 l       .debug_str	00000000 
00000094 l       .debug_str	00000000 
00000098 l       .debug_str	00000000 
0000009f l       .debug_str	00000000 
000000a8 l       .debug_str	00000000 
000000ab l       .debug_str	00000000 
000000b5 l       .debug_str	00000000 
000000bc l       .debug_str	00000000 
000000c2 l       .debug_str	00000000 
000000c7 l       .debug_str	00000000 
000000c9 l       .debug_str	00000000 
00000110 l       .debug_str	00000000 
00000123 l       .debug_str	00000000 
0000012a l       .debug_str	00000000 
0000012e l       .debug_str	00000000 
00000133 l       .debug_str	00000000 
00000139 l       .debug_str	00000000 
0000013e l       .debug_str	00000000 
00000142 l       .debug_str	00000000 
00000000 l    d  .text._ZN31_$LT$dyn$u20$core..any..Any$GT$12downcast_ref17h1faaf35807f5b19cE	00000000 .text._ZN31_$LT$dyn$u20$core..any..Any$GT$12downcast_ref17h1faaf35807f5b19cE
00000000 l    d  .text._ZN31_$LT$dyn$u20$core..any..Any$GT$2is17he0ee8daf5e686c09E	00000000 .text._ZN31_$LT$dyn$u20$core..any..Any$GT$2is17he0ee8daf5e686c09E
00000000 l    d  .text._ZN4core3any6TypeId2of17h7e4ce39a241bbf8bE	00000000 .text._ZN4core3any6TypeId2of17h7e4ce39a241bbf8bE
00000000 l    d  .text._ZN54_$LT$dyn$u20$core..any..Any$u2b$core..marker..Send$GT$12downcast_ref17he116d2b1c62b9352E	00000000 .text._ZN54_$LT$dyn$u20$core..any..Any$u2b$core..marker..Send$GT$12downcast_ref17he116d2b1c62b9352E
00000000 l    d  .debug_abbrev	00000000 .debug_abbrev
00000000 l    d  .debug_info	00000000 .debug_info
00000000 l    d  .debug_ranges	00000000 .debug_ranges
00000000 l    d  .debug_frame	00000000 .debug_frame
00000000 l    d  .debug_line	00000000 .debug_line
00000000 g     F .text._ZN31_$LT$dyn$u20$core..any..Any$GT$12downcast_ref17h1faaf35807f5b19cE	00000030 _ZN31_$LT$dyn$u20$core..any..Any$GT$12downcast_ref17h1faaf35807f5b19cE
00000000 g     F .text._ZN31_$LT$dyn$u20$core..any..Any$GT$2is17he0ee8daf5e686c09E	00000036 _ZN31_$LT$dyn$u20$core..any..Any$GT$2is17he0ee8daf5e686c09E
00000000 g     F .text._ZN4core3any6TypeId2of17h7e4ce39a241bbf8bE	00000030 _ZN4core3any6TypeId2of17h7e4ce39a241bbf8bE
00000000 g     F .text._ZN54_$LT$dyn$u20$core..any..Any$u2b$core..marker..Send$GT$12downcast_ref17he116d2b1c62b9352E	0000001a _ZN54_$LT$dyn$u20$core..any..Any$u2b$core..marker..Send$GT$12downcast_ref17he116d2b1c62b9352E
00000000         *UND*	00000000 .hidden _ZN58_$LT$core..any..TypeId$u20$as$u20$core..cmp..PartialEq$GT$2eq17he5b5b7835b79a741E



Disassembly of section .text._ZN31_$LT$dyn$u20$core..any..Any$GT$12downcast_ref17h1faaf35807f5b19cE:

00000000 <_ZN31_$LT$dyn$u20$core..any..Any$GT$12downcast_ref17h1faaf35807f5b19cE>:
_ZN31_$LT$dyn$u20$core..any..Any$GT$12downcast_ref17h1faaf35807f5b19cE():
/rustc/412f43ac5b4ae8c3599e71c6972112e9be4758fa/src/libcore/any.rs:183
   0:	b580      	push	{r7, lr}
   2:	b084      	sub	sp, #16
   4:	9001      	str	r0, [sp, #4]
   6:	9102      	str	r1, [sp, #8]
/rustc/412f43ac5b4ae8c3599e71c6972112e9be4758fa/src/libcore/any.rs:184
   8:	9801      	ldr	r0, [sp, #4]
   a:	9902      	ldr	r1, [sp, #8]
   c:	f7ff fffe 	bl	0 <_ZN31_$LT$dyn$u20$core..any..Any$GT$12downcast_ref17h1faaf35807f5b19cE>
  10:	9000      	str	r0, [sp, #0]
  12:	e7ff      	b.n	14 <_ZN31_$LT$dyn$u20$core..any..Any$GT$12downcast_ref17h1faaf35807f5b19cE+0x14>
  14:	9800      	ldr	r0, [sp, #0]
  16:	07c1      	lsls	r1, r0, #31
  18:	2900      	cmp	r1, #0
  1a:	d103      	bne.n	24 <_ZN31_$LT$dyn$u20$core..any..Any$GT$12downcast_ref17h1faaf35807f5b19cE+0x24>
  1c:	e7ff      	b.n	1e <_ZN31_$LT$dyn$u20$core..any..Any$GT$12downcast_ref17h1faaf35807f5b19cE+0x1e>
  1e:	2000      	movs	r0, #0
/rustc/412f43ac5b4ae8c3599e71c6972112e9be4758fa/src/libcore/any.rs:190
  20:	9003      	str	r0, [sp, #12]
/rustc/412f43ac5b4ae8c3599e71c6972112e9be4758fa/src/libcore/any.rs:184
  22:	e002      	b.n	2a <_ZN31_$LT$dyn$u20$core..any..Any$GT$12downcast_ref17h1faaf35807f5b19cE+0x2a>
/rustc/412f43ac5b4ae8c3599e71c6972112e9be4758fa/src/libcore/any.rs:187
  24:	9801      	ldr	r0, [sp, #4]
  26:	9003      	str	r0, [sp, #12]
/rustc/412f43ac5b4ae8c3599e71c6972112e9be4758fa/src/libcore/any.rs:184
  28:	e7ff      	b.n	2a <_ZN31_$LT$dyn$u20$core..any..Any$GT$12downcast_ref17h1faaf35807f5b19cE+0x2a>
/rustc/412f43ac5b4ae8c3599e71c6972112e9be4758fa/src/libcore/any.rs:192
  2a:	9803      	ldr	r0, [sp, #12]
  2c:	b004      	add	sp, #16
  2e:	bd80      	pop	{r7, pc}

Disassembly of section .text._ZN31_$LT$dyn$u20$core..any..Any$GT$2is17he0ee8daf5e686c09E:

00000000 <_ZN31_$LT$dyn$u20$core..any..Any$GT$2is17he0ee8daf5e686c09E>:
_ZN31_$LT$dyn$u20$core..any..Any$GT$2is17he0ee8daf5e686c09E():
/rustc/412f43ac5b4ae8c3599e71c6972112e9be4758fa/src/libcore/any.rs:151
   0:	b580      	push	{r7, lr}
   2:	b088      	sub	sp, #32
   4:	9002      	str	r0, [sp, #8]
   6:	9103      	str	r1, [sp, #12]
/rustc/412f43ac5b4ae8c3599e71c6972112e9be4758fa/src/libcore/any.rs:153
   8:	f7ff fffe 	bl	0 <_ZN31_$LT$dyn$u20$core..any..Any$GT$2is17he0ee8daf5e686c09E>
   c:	9105      	str	r1, [sp, #20]
   e:	9004      	str	r0, [sp, #16]
  10:	e7ff      	b.n	12 <_ZN31_$LT$dyn$u20$core..any..Any$GT$2is17he0ee8daf5e686c09E+0x12>
/rustc/412f43ac5b4ae8c3599e71c6972112e9be4758fa/src/libcore/any.rs:156
  12:	9802      	ldr	r0, [sp, #8]
  14:	9903      	ldr	r1, [sp, #12]
  16:	68c9      	ldr	r1, [r1, #12]
  18:	4788      	blx	r1
  1a:	9107      	str	r1, [sp, #28]
  1c:	9006      	str	r0, [sp, #24]
  1e:	e7ff      	b.n	20 <_ZN31_$LT$dyn$u20$core..any..Any$GT$2is17he0ee8daf5e686c09E+0x20>
  20:	a804      	add	r0, sp, #16
  22:	a906      	add	r1, sp, #24
/rustc/412f43ac5b4ae8c3599e71c6972112e9be4758fa/src/libcore/any.rs:159
  24:	f7ff fffe 	bl	0 <_ZN58_$LT$core..any..TypeId$u20$as$u20$core..cmp..PartialEq$GT$2eq17he5b5b7835b79a741E>
  28:	9001      	str	r0, [sp, #4]
  2a:	e7ff      	b.n	2c <_ZN31_$LT$dyn$u20$core..any..Any$GT$2is17he0ee8daf5e686c09E+0x2c>
/rustc/412f43ac5b4ae8c3599e71c6972112e9be4758fa/src/libcore/any.rs:160
  2c:	9801      	ldr	r0, [sp, #4]
  2e:	f000 0001 	and.w	r0, r0, #1
  32:	b008      	add	sp, #32
  34:	bd80      	pop	{r7, pc}

Disassembly of section .text._ZN4core3any6TypeId2of17h7e4ce39a241bbf8bE:

00000000 <_ZN4core3any6TypeId2of17h7e4ce39a241bbf8bE>:
_ZN4core3any6TypeId2of17h7e4ce39a241bbf8bE():
/rustc/412f43ac5b4ae8c3599e71c6972112e9be4758fa/src/libcore/any.rs:427
   0:	b086      	sub	sp, #24
   2:	f249 40d9 	movw	r0, #38105	; 0x94d9
   6:	f2c1 1010 	movt	r0, #4368	; 0x1110
/rustc/412f43ac5b4ae8c3599e71c6972112e9be4758fa/src/libcore/any.rs:433
   a:	9005      	str	r0, [sp, #20]
   c:	f249 7064 	movw	r0, #38756	; 0x9764
  10:	f2c7 00b0 	movt	r0, #28848	; 0x70b0
  14:	9004      	str	r0, [sp, #16]
  16:	9804      	ldr	r0, [sp, #16]
  18:	9905      	ldr	r1, [sp, #20]
  1a:	9001      	str	r0, [sp, #4]
  1c:	9100      	str	r1, [sp, #0]
  1e:	e7ff      	b.n	20 <_ZN4core3any6TypeId2of17h7e4ce39a241bbf8bE+0x20>
/rustc/412f43ac5b4ae8c3599e71c6972112e9be4758fa/src/libcore/any.rs:428
  20:	9801      	ldr	r0, [sp, #4]
  22:	9002      	str	r0, [sp, #8]
  24:	9900      	ldr	r1, [sp, #0]
  26:	9103      	str	r1, [sp, #12]
/rustc/412f43ac5b4ae8c3599e71c6972112e9be4758fa/src/libcore/any.rs:435
  28:	9802      	ldr	r0, [sp, #8]
  2a:	9903      	ldr	r1, [sp, #12]
  2c:	b006      	add	sp, #24
  2e:	4770      	bx	lr

Disassembly of section .text._ZN54_$LT$dyn$u20$core..any..Any$u2b$core..marker..Send$GT$12downcast_ref17he116d2b1c62b9352E:

00000000 <_ZN54_$LT$dyn$u20$core..any..Any$u2b$core..marker..Send$GT$12downcast_ref17he116d2b1c62b9352E>:
_ZN54_$LT$dyn$u20$core..any..Any$u2b$core..marker..Send$GT$12downcast_ref17he116d2b1c62b9352E():
/rustc/412f43ac5b4ae8c3599e71c6972112e9be4758fa/src/libcore/any.rs:276
   0:	b580      	push	{r7, lr}
   2:	b084      	sub	sp, #16
   4:	9002      	str	r0, [sp, #8]
   6:	9103      	str	r1, [sp, #12]
/rustc/412f43ac5b4ae8c3599e71c6972112e9be4758fa/src/libcore/any.rs:277
   8:	9802      	ldr	r0, [sp, #8]
   a:	9903      	ldr	r1, [sp, #12]
   c:	f7ff fffe 	bl	0 <_ZN54_$LT$dyn$u20$core..any..Any$u2b$core..marker..Send$GT$12downcast_ref17he116d2b1c62b9352E>
  10:	9001      	str	r0, [sp, #4]
  12:	e7ff      	b.n	14 <_ZN54_$LT$dyn$u20$core..any..Any$u2b$core..marker..Send$GT$12downcast_ref17he116d2b1c62b9352E+0x14>
/rustc/412f43ac5b4ae8c3599e71c6972112e9be4758fa/src/libcore/any.rs:278
  14:	9801      	ldr	r0, [sp, #4]
  16:	b004      	add	sp, #16
  18:	bd80      	pop	{r7, pc}
arm-none-eabi-objdump: lib.rmeta: File format not recognized
arm-none-eabi-objdump: app-d559bf047a1af437.125z955wkyaej2kl.rcgu.bc.z: File format not recognized
arm-none-eabi-objdump: app-d559bf047a1af437.1azcbzubtci62mj1.rcgu.bc.z: File format not recognized
arm-none-eabi-objdump: app-d559bf047a1af437.1w1kiq5qai6r4hqv.rcgu.bc.z: File format not recognized
arm-none-eabi-objdump: app-d559bf047a1af437.2bxzo9r06w54kjdx.rcgu.bc.z: File format not recognized
arm-none-eabi-objdump: app-d559bf047a1af437.2oxkclz2dm5og9fj.rcgu.bc.z: File format not recognized
arm-none-eabi-objdump: app-d559bf047a1af437.2s0elry69xzxndax.rcgu.bc.z: File format not recognized
arm-none-eabi-objdump: app-d559bf047a1af437.2u62yo4q2gvpd9jb.rcgu.bc.z: File format not recognized
arm-none-eabi-objdump: app-d559bf047a1af437.2w2zizcw79hzrabw.rcgu.bc.z: File format not recognized
arm-none-eabi-objdump: app-d559bf047a1af437.39ck45ax7pi2diy2.rcgu.bc.z: File format not recognized
arm-none-eabi-objdump: app-d559bf047a1af437.3ecelzj3s01iuwaz.rcgu.bc.z: File format not recognized
arm-none-eabi-objdump: app-d559bf047a1af437.3nfy4x1pf2qd97qf.rcgu.bc.z: File format not recognized
arm-none-eabi-objdump: app-d559bf047a1af437.3zwigjxdmcppzxea.rcgu.bc.z: File format not recognized
arm-none-eabi-objdump: app-d559bf047a1af437.41bhtk1pdyspgjkt.rcgu.bc.z: File format not recognized
arm-none-eabi-objdump: app-d559bf047a1af437.49qzswuqdfiz6sr5.rcgu.bc.z: File format not recognized
arm-none-eabi-objdump: app-d559bf047a1af437.4b8mkushajg6uew4.rcgu.bc.z: File format not recognized
arm-none-eabi-objdump: app-d559bf047a1af437.4m05lkrwguthxl91.rcgu.bc.z: File format not recognized
arm-none-eabi-objdump: app-d559bf047a1af437.4muisrotwbdyuumc.rcgu.bc.z: File format not recognized
arm-none-eabi-objdump: app-d559bf047a1af437.4sg161zsn3b34isr.rcgu.bc.z: File format not recognized
arm-none-eabi-objdump: app-d559bf047a1af437.50nvjzha5ira9j65.rcgu.bc.z: File format not recognized
arm-none-eabi-objdump: app-d559bf047a1af437.57zro0km3f19v8o8.rcgu.bc.z: File format not recognized
arm-none-eabi-objdump: app-d559bf047a1af437.5akyy5exton4j4np.rcgu.bc.z: File format not recognized
arm-none-eabi-objdump: app-d559bf047a1af437.5el80xgs0qduqq6y.rcgu.bc.z: File format not recognized
arm-none-eabi-objdump: app-d559bf047a1af437.ekbob71098ase57.rcgu.bc.z: File format not recognized
arm-none-eabi-objdump: app-d559bf047a1af437.oznytu4p9xnk4ga.rcgu.bc.z: File format not recognized
arm-none-eabi-objdump: app-d559bf047a1af437.ryagcrqxennhqa2.rcgu.bc.z: File format not recognized
arm-none-eabi-objdump: app-d559bf047a1af437.x8tvt6yjiadc6q3.rcgu.bc.z: File format not recognized
