In archive target/thumbv7em-none-eabihf/debug/libapp.rlib:

app-f1b560250e7c1912.1100txxf3br1xj2k.rcgu.o:     file format elf32-littlearm

SYMBOL TABLE:
00000000 l    df *ABS*	00000000 1100txxf3br1xj2k
00000547 l       .debug_str	00000000 
0000075b l       .debug_str	00000000 
0000075f l       .debug_str	00000000 
00000768 l       .debug_str	00000000 
0000076f l       .debug_str	00000000 
00000775 l       .debug_str	00000000 
0000077a l       .debug_str	00000000 
0000077c l       .debug_str	00000000 
0000077e l       .debug_str	00000000 
00000000 l       .debug_str	00000000 
00000041 l       .debug_str	00000000 
00000055 l       .debug_str	00000000 
00000085 l       .debug_str	00000000 
0000008a l       .debug_str	00000000 
0000008e l       .debug_str	00000000 
00000091 l       .debug_str	00000000 
0000009c l       .debug_str	00000000 
000000a7 l       .debug_str	00000000 
000000ae l       .debug_str	00000000 
000000b5 l       .debug_str	00000000 
000000bc l       .debug_str	00000000 
000000c0 l       .debug_str	00000000 
000000c8 l       .debug_str	00000000 
000000d3 l       .debug_str	00000000 
000000de l       .debug_str	00000000 
000000eb l       .debug_str	00000000 
000000f6 l       .debug_str	00000000 
000000fe l       .debug_str	00000000 
00000109 l       .debug_str	00000000 
00000114 l       .debug_str	00000000 
0000011e l       .debug_str	00000000 
00000129 l       .debug_str	00000000 
00000134 l       .debug_str	00000000 
00000141 l       .debug_str	00000000 
0000014d l       .debug_str	00000000 
0000015a l       .debug_str	00000000 
00000168 l       .debug_str	00000000 
00000172 l       .debug_str	00000000 
0000017f l       .debug_str	00000000 
0000018b l       .debug_str	00000000 
0000018f l       .debug_str	00000000 
00000192 l       .debug_str	00000000 
00000196 l       .debug_str	00000000 
0000019d l       .debug_str	00000000 
000001a0 l       .debug_str	00000000 
000001aa l       .debug_str	00000000 
000001b5 l       .debug_str	00000000 
000001be l       .debug_str	00000000 
000001c9 l       .debug_str	00000000 
000001d5 l       .debug_str	00000000 
000001d9 l       .debug_str	00000000 
000001e2 l       .debug_str	00000000 
000001e9 l       .debug_str	00000000 
000001f1 l       .debug_str	00000000 
000001f9 l       .debug_str	00000000 
00000203 l       .debug_str	00000000 
00000209 l       .debug_str	00000000 
00000210 l       .debug_str	00000000 
0000021a l       .debug_str	00000000 
00000221 l       .debug_str	00000000 
00000228 l       .debug_str	00000000 
0000022d l       .debug_str	00000000 
00000244 l       .debug_str	00000000 
00000271 l       .debug_str	00000000 
00000273 l       .debug_str	00000000 
00000278 l       .debug_str	00000000 
000002ad l       .debug_str	00000000 
000002b3 l       .debug_str	00000000 
000002b9 l       .debug_str	00000000 
000002c8 l       .debug_str	00000000 
000002d8 l       .debug_str	00000000 
000002e8 l       .debug_str	00000000 
000002f0 l       .debug_str	00000000 
00000319 l       .debug_str	00000000 
00000377 l       .debug_str	00000000 
000003dd l       .debug_str	00000000 
000003e4 l       .debug_str	00000000 
000003ec l       .debug_str	00000000 
000003f5 l       .debug_str	00000000 
00000413 l       .debug_str	00000000 
00000423 l       .debug_str	00000000 
00000431 l       .debug_str	00000000 
0000043c l       .debug_str	00000000 
00000449 l       .debug_str	00000000 
00000458 l       .debug_str	00000000 
00000462 l       .debug_str	00000000 
00000478 l       .debug_str	00000000 
00000482 l       .debug_str	00000000 
0000048b l       .debug_str	00000000 
00000494 l       .debug_str	00000000 
000004ba l       .debug_str	00000000 
000004d0 l       .debug_str	00000000 
000004db l       .debug_str	00000000 
000004f1 l       .debug_str	00000000 
000004f9 l       .debug_str	00000000 
0000051a l       .debug_str	00000000 
00000523 l       .debug_str	00000000 
0000052c l       .debug_str	00000000 
00000537 l       .debug_str	00000000 
00000541 l       .debug_str	00000000 
0000057f l       .debug_str	00000000 
000005bf l       .debug_str	00000000 
000005c6 l       .debug_str	00000000 
000005ce l       .debug_str	00000000 
000005e5 l       .debug_str	00000000 
000005ee l       .debug_str	00000000 
00000610 l       .debug_str	00000000 
0000061a l       .debug_str	00000000 
00000641 l       .debug_str	00000000 
00000659 l       .debug_str	00000000 
00000663 l       .debug_str	00000000 
00000686 l       .debug_str	00000000 
00000688 l       .debug_str	00000000 
0000068c l       .debug_str	00000000 
000006d4 l       .debug_str	00000000 
00000714 l       .debug_str	00000000 
00000000 l    d  .text._ZN4core6result19Result$LT$T$C$E$GT$6expect17h2fff601934191de6E	00000000 .text._ZN4core6result19Result$LT$T$C$E$GT$6expect17h2fff601934191de6E
00000000 l    d  .debug_loc	00000000 .debug_loc
00000000 l    d  .debug_abbrev	00000000 .debug_abbrev
00000000 l    d  .debug_info	00000000 .debug_info
00000000 l    d  .debug_ranges	00000000 .debug_ranges
00000000 l    d  .debug_frame	00000000 .debug_frame
00000000 l    d  .debug_line	00000000 .debug_line
00000000         *UND*	00000000 _ZN4core6result13unwrap_failed17hd7a3ccac7d40646dE
00000000 g     F .text._ZN4core6result19Result$LT$T$C$E$GT$6expect17h2fff601934191de6E	0000005a _ZN4core6result19Result$LT$T$C$E$GT$6expect17h2fff601934191de6E



Disassembly of section .text._ZN4core6result19Result$LT$T$C$E$GT$6expect17h2fff601934191de6E:

00000000 <_ZN4core6result19Result$LT$T$C$E$GT$6expect17h2fff601934191de6E>:
_ZN4core6result19Result$LT$T$C$E$GT$6expect17h2fff601934191de6E():
/rustc/50a0defd5a93523067ef239936cc2e0755220904/src/libcore/result.rs:824
   0:	b580      	push	{r7, lr}
   2:	b08a      	sub	sp, #40	; 0x28
   4:	4613      	mov	r3, r2
   6:	468c      	mov	ip, r1
   8:	4686      	mov	lr, r0
   a:	9106      	str	r1, [sp, #24]
   c:	9207      	str	r2, [sp, #28]
/rustc/50a0defd5a93523067ef239936cc2e0755220904/src/libcore/result.rs:826
   e:	6800      	ldr	r0, [r0, #0]
  10:	2800      	cmp	r0, #0
  12:	9305      	str	r3, [sp, #20]
  14:	f8cd c010 	str.w	ip, [sp, #16]
  18:	f8cd e00c 	str.w	lr, [sp, #12]
  1c:	9002      	str	r0, [sp, #8]
  1e:	d005      	beq.n	2c <_ZN4core6result19Result$LT$T$C$E$GT$6expect17h2fff601934191de6E+0x2c>
  20:	e7ff      	b.n	22 <_ZN4core6result19Result$LT$T$C$E$GT$6expect17h2fff601934191de6E+0x22>
  22:	9802      	ldr	r0, [sp, #8]
  24:	2801      	cmp	r0, #1
  26:	d00b      	beq.n	40 <_ZN4core6result19Result$LT$T$C$E$GT$6expect17h2fff601934191de6E+0x40>
  28:	e7ff      	b.n	2a <_ZN4core6result19Result$LT$T$C$E$GT$6expect17h2fff601934191de6E+0x2a>
/rustc/50a0defd5a93523067ef239936cc2e0755220904/src/libcore/result.rs:829
  2a:	defe      	udf	#254	; 0xfe
/rustc/50a0defd5a93523067ef239936cc2e0755220904/src/libcore/result.rs:826
  2c:	9803      	ldr	r0, [sp, #12]
  2e:	6841      	ldr	r1, [r0, #4]
  30:	9108      	str	r1, [sp, #32]
  32:	9808      	ldr	r0, [sp, #32]
/rustc/50a0defd5a93523067ef239936cc2e0755220904/src/libcore/result.rs:829
  34:	9903      	ldr	r1, [sp, #12]
  36:	680a      	ldr	r2, [r1, #0]
  38:	2a00      	cmp	r2, #0
  3a:	9001      	str	r0, [sp, #4]
  3c:	d009      	beq.n	52 <_ZN4core6result19Result$LT$T$C$E$GT$6expect17h2fff601934191de6E+0x52>
  3e:	e00b      	b.n	58 <_ZN4core6result19Result$LT$T$C$E$GT$6expect17h2fff601934191de6E+0x58>
/rustc/50a0defd5a93523067ef239936cc2e0755220904/src/libcore/result.rs:827
  40:	9803      	ldr	r0, [sp, #12]
  42:	6841      	ldr	r1, [r0, #4]
  44:	9109      	str	r1, [sp, #36]	; 0x24
  46:	9806      	ldr	r0, [sp, #24]
  48:	9907      	ldr	r1, [sp, #28]
  4a:	9a09      	ldr	r2, [sp, #36]	; 0x24
  4c:	f7ff fffe 	bl	0 <_ZN4core6result13unwrap_failed17hd7a3ccac7d40646dE>
  50:	defe      	udf	#254	; 0xfe
/rustc/50a0defd5a93523067ef239936cc2e0755220904/src/libcore/result.rs:829
  52:	9801      	ldr	r0, [sp, #4]
  54:	b00a      	add	sp, #40	; 0x28
  56:	bd80      	pop	{r7, pc}
  58:	e7fb      	b.n	52 <_ZN4core6result19Result$LT$T$C$E$GT$6expect17h2fff601934191de6E+0x52>

app-f1b560250e7c1912.3kxuqob6slyisrfp.rcgu.o:     file format elf32-littlearm

SYMBOL TABLE:
00000000 l    df *ABS*	00000000 3kxuqob6slyisrfp
000000e7 l       .debug_str	00000000 
000000ef l       .debug_str	00000000 
000000f4 l       .debug_str	00000000 
00000000 l       .debug_str	00000000 
00000041 l       .debug_str	00000000 
00000055 l       .debug_str	00000000 
00000085 l       .debug_str	00000000 
00000089 l       .debug_str	00000000 
00000094 l       .debug_str	00000000 
000000a2 l       .debug_str	00000000 
000000a9 l       .debug_str	00000000 
000000ad l       .debug_str	00000000 
000000b0 l       .debug_str	00000000 
000000b8 l       .debug_str	00000000 
000000bc l       .debug_str	00000000 
000000c5 l       .debug_str	00000000 
000000cf l       .debug_str	00000000 
000000d6 l       .debug_str	00000000 
000000dc l       .debug_str	00000000 
000000e2 l       .debug_str	00000000 
00000000 l     O .rodata._ZN3app10app_sensor13SENSOR_DEVICE17h7673cb8d7a020577E	0000000c _ZN3app10app_sensor13SENSOR_DEVICE17h7673cb8d7a020577E
00000000 l    d  .rodata..Lanon.d41d8cd98f00b204e9800998ecf8427e.0	00000000 .rodata..Lanon.d41d8cd98f00b204e9800998ecf8427e.0
00000000 l    d  .rodata._ZN3app10app_sensor13SENSOR_DEVICE17h7673cb8d7a020577E	00000000 .rodata._ZN3app10app_sensor13SENSOR_DEVICE17h7673cb8d7a020577E
00000000 l    d  .debug_abbrev	00000000 .debug_abbrev
00000000 l    d  .debug_info	00000000 .debug_info
00000000 l    d  .debug_line	00000000 .debug_line



app-f1b560250e7c1912.4lctw9a02p63osgz.rcgu.o:     file format elf32-littlearm

SYMBOL TABLE:
00000000 l    df *ABS*	00000000 4lctw9a02p63osgz
00000340 l       .debug_str	00000000 
000003db l       .debug_str	00000000 
000003f5 l       .debug_str	00000000 
00000453 l       .debug_str	00000000 
0000045e l       .debug_str	00000000 
0000047b l       .debug_str	00000000 
00000494 l       .debug_str	00000000 
0000049e l       .debug_str	00000000 
000004b4 l       .debug_str	00000000 
000004d2 l       .debug_str	00000000 
000004db l       .debug_str	00000000 
000004e0 l       .debug_str	00000000 
000004e5 l       .debug_str	00000000 
000004e9 l       .debug_str	00000000 
000004f2 l       .debug_str	00000000 
000004fc l       .debug_str	00000000 
00000514 l       .debug_str	00000000 
00000000 l       .debug_str	00000000 
00000041 l       .debug_str	00000000 
00000055 l       .debug_str	00000000 
00000085 l       .debug_str	00000000 
0000008a l       .debug_str	00000000 
0000008e l       .debug_str	00000000 
00000091 l       .debug_str	00000000 
00000094 l       .debug_str	00000000 
00000097 l       .debug_str	00000000 
0000009c l       .debug_str	00000000 
000000a2 l       .debug_str	00000000 
000000a9 l       .debug_str	00000000 
000000b1 l       .debug_str	00000000 
000000bb l       .debug_str	00000000 
000000c2 l       .debug_str	00000000 
000000c5 l       .debug_str	00000000 
000000c9 l       .debug_str	00000000 
000000d0 l       .debug_str	00000000 
000000d4 l       .debug_str	00000000 
000000dd l       .debug_str	00000000 
000000e1 l       .debug_str	00000000 
0000010b l       .debug_str	00000000 
00000110 l       .debug_str	00000000 
00000115 l       .debug_str	00000000 
00000117 l       .debug_str	00000000 
00000129 l       .debug_str	00000000 
0000012f l       .debug_str	00000000 
00000134 l       .debug_str	00000000 
0000013c l       .debug_str	00000000 
00000140 l       .debug_str	00000000 
00000148 l       .debug_str	00000000 
00000150 l       .debug_str	00000000 
00000157 l       .debug_str	00000000 
0000015d l       .debug_str	00000000 
00000171 l       .debug_str	00000000 
0000017d l       .debug_str	00000000 
00000182 l       .debug_str	00000000 
0000018a l       .debug_str	00000000 
00000191 l       .debug_str	00000000 
00000195 l       .debug_str	00000000 
0000019a l       .debug_str	00000000 
000001a1 l       .debug_str	00000000 
000001aa l       .debug_str	00000000 
000001b4 l       .debug_str	00000000 
000001bb l       .debug_str	00000000 
000001c0 l       .debug_str	00000000 
000001cc l       .debug_str	00000000 
000001d4 l       .debug_str	00000000 
000001dd l       .debug_str	00000000 
000001e2 l       .debug_str	00000000 
000001e5 l       .debug_str	00000000 
000001e9 l       .debug_str	00000000 
000001f2 l       .debug_str	00000000 
000001f9 l       .debug_str	00000000 
000001fe l       .debug_str	00000000 
00000203 l       .debug_str	00000000 
00000209 l       .debug_str	00000000 
0000020f l       .debug_str	00000000 
00000219 l       .debug_str	00000000 
0000021c l       .debug_str	00000000 
00000222 l       .debug_str	00000000 
0000022c l       .debug_str	00000000 
00000234 l       .debug_str	00000000 
0000023a l       .debug_str	00000000 
00000240 l       .debug_str	00000000 
0000024b l       .debug_str	00000000 
00000254 l       .debug_str	00000000 
00000277 l       .debug_str	00000000 
00000296 l       .debug_str	00000000 
00000298 l       .debug_str	00000000 
0000029d l       .debug_str	00000000 
000002c4 l       .debug_str	00000000 
000002c9 l       .debug_str	00000000 
000002cf l       .debug_str	00000000 
000002d5 l       .debug_str	00000000 
000002d8 l       .debug_str	00000000 
000002e7 l       .debug_str	00000000 
000002ee l       .debug_str	00000000 
000002f2 l       .debug_str	00000000 
000002fb l       .debug_str	00000000 
00000307 l       .debug_str	00000000 
00000320 l       .debug_str	00000000 
00000325 l       .debug_str	00000000 
00000336 l       .debug_str	00000000 
0000034e l       .debug_str	00000000 
00000352 l       .debug_str	00000000 
0000035d l       .debug_str	00000000 
00000364 l       .debug_str	00000000 
0000036a l       .debug_str	00000000 
0000036e l       .debug_str	00000000 
00000372 l       .debug_str	00000000 
0000037a l       .debug_str	00000000 
00000391 l       .debug_str	00000000 
000003b5 l       .debug_str	00000000 
000003d1 l       .debug_str	00000000 
00000000 l     O .rodata.cst8	00000008 .Lanon.3ed011473997af99b525cde47c9eaaac.0
00000008 l     O .rodata.cst8	00000008 .Lanon.3ed011473997af99b525cde47c9eaaac.1
00000000 l     O .rodata..Lanon.3ed011473997af99b525cde47c9eaaac.2	00000006 .Lanon.3ed011473997af99b525cde47c9eaaac.2
00000000 l     O .rodata..Lanon.3ed011473997af99b525cde47c9eaaac.3	00000007 .Lanon.3ed011473997af99b525cde47c9eaaac.3
00000000 l     O .rodata..Lanon.3ed011473997af99b525cde47c9eaaac.4	00000003 .Lanon.3ed011473997af99b525cde47c9eaaac.4
00000010 l     O .rodata.cst8	00000008 .Lanon.3ed011473997af99b525cde47c9eaaac.5
00000000 l     O .rodata..Lanon.3ed011473997af99b525cde47c9eaaac.6	00000001 .Lanon.3ed011473997af99b525cde47c9eaaac.6
00000000 l    d  .text.main	00000000 .text.main
00000000 l    d  .text.rust_begin_unwind	00000000 .text.rust_begin_unwind
00000000 l    d  .debug_abbrev	00000000 .debug_abbrev
00000000 l    d  .debug_info	00000000 .debug_info
00000000 l    d  .debug_ranges	00000000 .debug_ranges
00000000 l    d  .debug_frame	00000000 .debug_frame
00000000 l    d  .debug_line	00000000 .debug_line
00000000         *UND*	00000000 _ZN4core5panic8Location4file17h94cc6af18de736c4E
00000000         *UND*	00000000 _ZN4core5panic8Location4line17h3ffc63f14d0a6636E
00000000         *UND*	00000000 _ZN4core5panic9PanicInfo8location17h5226165d8771f8a2E
00000000         *UND*	00000000 _ZN4core6result19Result$LT$T$C$E$GT$6expect17h2fff601934191de6E
00000000         *UND*	00000000 _ZN4core6result19Result$LT$T$C$E$GT$6expect17h5d84aa78d3cb1f4bE
00000000         *UND*	00000000 _ZN6mynewt3sys7console5flush17hd3edc8d6ed39f65bE
00000000         *UND*	00000000 _ZN6mynewt3sys7console5print17hb1682fdf35bd72e2E
00000000         *UND*	00000000 _ZN6mynewt3sys7console6buffer17h879fbe75b694f9b0E
00000000         *UND*	00000000 _ZN6mynewt3sys7console8printhex17h213859656f416868E
00000000         *UND*	00000000 _ZN6mynewt6kernel2os10eventq_run17hf94349a19187232aE
00000000         *UND*	00000000 _ZN6mynewt6kernel2os15eventq_dflt_get17hb4dc273e7d2c43d5E
00000000         *UND*	00000000 _ZN6mynewt7sysinit17hca204e3e3a01257fE
00000000         *UND*	00000000 __bkpt
00000000         *UND*	00000000 gps_l70r_start
00000000 g     F .text.main	00000050 main
00000000 g     F .text.rust_begin_unwind	000000ae rust_begin_unwind
00000000         *UND*	00000000 start_gps_listener



Disassembly of section .text.main:

00000000 <main>:
main():
/Users/Luppy/mynewt/stm32bluepill-mynewt-sensor/rust/app/src/lib.rs:49
};

///  Main program that initialises the sensor, network driver and starts reading and sending sensor data in the background.
///  main() will be called at Mynewt startup. It replaces the C version of the main() function.
#[no_mangle]                 //  Don't mangle the name "main"
extern "C" fn main() -> ! {  //  Declare extern "C" because it will be called by Mynewt
   0:	b086      	sub	sp, #24
/Users/Luppy/mynewt/stm32bluepill-mynewt-sensor/rust/app/src/lib.rs:55
    //  Initialise the Mynewt packages and Blue Pill internal temperature sensor driver.
    //  Start the CoAP / OIC Background Task to transmit CoAP messages.  Any startup
    //  functions defined in pkg.yml of our custom drivers and libraries will be called by 
    //  sysinit().  Here are the startup functions consolidated by Mynewt:
    //  bin/targets/bluepill_my_sensor/generated/src/bluepill_my_sensor-sysinit-app.c
    mynewt::sysinit();
   2:	f7ff fffe 	bl	0 <_ZN6mynewt7sysinit17hca204e3e3a01257fE>
   6:	e7ff      	b.n	2 <gps_l70r_start+0x2>
/Users/Luppy/mynewt/stm32bluepill-mynewt-sensor/rust/app/src/lib.rs:70
        .expect("TMP fail");
*/

    //  Start the GPS.
    extern { fn gps_l70r_start() -> i32; }
    unsafe { gps_l70r_start() };
   8:	f7ff fffe 	bl	0 <gps_l70r_start>
   c:	9003      	str	r0, [sp, #12]
   e:	e7ff      	b.n	10 <main+0x10>
/Users/Luppy/mynewt/stm32bluepill-mynewt-sensor/rust/app/src/lib.rs:74

    //  Start polling the GPS.
    extern { fn start_gps_listener(); }
    unsafe { start_gps_listener() };
  10:	f7ff fffe 	bl	0 <start_gps_listener>
  14:	e7ff      	b.n	16 <main+0x16>
  16:	a804      	add	r0, sp, #16
/Users/Luppy/mynewt/stm32bluepill-mynewt-sensor/rust/app/src/lib.rs:79

    //  Main event loop
    loop {                            //  Loop forever...
        os::eventq_run(               //  Processing events...
            os::eventq_dflt_get()     //  From default event queue.
  18:	f7ff fffe 	bl	0 <_ZN6mynewt6kernel2os15eventq_dflt_get17hb4dc273e7d2c43d5E>
  1c:	e7ff      	b.n	2 <main+0x2>
  1e:	f240 0100 	movw	r1, #0
  22:	f2c0 0100 	movt	r1, #0
  26:	a804      	add	r0, sp, #16
  28:	2208      	movs	r2, #8
  2a:	f7ff fffe 	bl	0 <_ZN4core6result19Result$LT$T$C$E$GT$6expect17h2fff601934191de6E>
  2e:	9002      	str	r0, [sp, #8]
  30:	e7ff      	b.n	32 <main+0x32>
/Users/Luppy/mynewt/stm32bluepill-mynewt-sensor/rust/app/src/lib.rs:78
        os::eventq_run(               //  Processing events...
  32:	9802      	ldr	r0, [sp, #8]
  34:	f7ff fffe 	bl	0 <_ZN6mynewt6kernel2os10eventq_run17hf94349a19187232aE>
  38:	9001      	str	r0, [sp, #4]
  3a:	e7ff      	b.n	3c <main+0x3c>
  3c:	f240 0100 	movw	r1, #0
  40:	f2c0 0100 	movt	r1, #0
  44:	2208      	movs	r2, #8
  46:	9801      	ldr	r0, [sp, #4]
  48:	f7ff fffe 	bl	0 <_ZN4core6result19Result$LT$T$C$E$GT$6expect17h5d84aa78d3cb1f4bE>
  4c:	e7ff      	b.n	4e <main+0x4e>
/Users/Luppy/mynewt/stm32bluepill-mynewt-sensor/rust/app/src/lib.rs:77
    loop {                            //  Loop forever...
  4e:	e7e2      	b.n	16 <main+0x16>

Disassembly of section .text.rust_begin_unwind:

00000000 <rust_begin_unwind>:
rust_begin_unwind():
/Users/Luppy/mynewt/stm32bluepill-mynewt-sensor/rust/app/src/lib.rs:88
    //  Never comes here
}

///  This function is called on panic, like an assertion failure. We display the filename and line number and pause in the debugger. From https://os.phil-opp.com/freestanding-rust-binary/
#[panic_handler]
fn panic(info: &PanicInfo) -> ! {
   0:	b088      	sub	sp, #32
   2:	4601      	mov	r1, r0
   4:	9002      	str	r0, [sp, #8]
/Users/Luppy/mynewt/stm32bluepill-mynewt-sensor/rust/app/src/lib.rs:90
    //  Display the filename and line number to the Semihosting Console.
    console::print("panic ");
   6:	f240 0000 	movw	r0, #0
   a:	f2c0 0000 	movt	r0, #0
   e:	2206      	movs	r2, #6
  10:	9101      	str	r1, [sp, #4]
  12:	4611      	mov	r1, r2
  14:	f7ff fffe 	bl	0 <_ZN6mynewt3sys7console5print17hb1682fdf35bd72e2E>
  18:	e7ff      	b.n	1a <rust_begin_unwind+0x1a>
/Users/Luppy/mynewt/stm32bluepill-mynewt-sensor/rust/app/src/lib.rs:91
    if let Some(location) = info.location() {
  1a:	9802      	ldr	r0, [sp, #8]
  1c:	f7ff fffe 	bl	0 <_ZN4core5panic9PanicInfo8location17h5226165d8771f8a2E>
  20:	9003      	str	r0, [sp, #12]
  22:	e7ff      	b.n	24 <rust_begin_unwind+0x24>
  24:	9803      	ldr	r0, [sp, #12]
  26:	2800      	cmp	r0, #0
  28:	d032      	beq.n	90 <rust_begin_unwind+0x90>
  2a:	e7ff      	b.n	2c <rust_begin_unwind+0x2c>
  2c:	9803      	ldr	r0, [sp, #12]
  2e:	9004      	str	r0, [sp, #16]
/Users/Luppy/mynewt/stm32bluepill-mynewt-sensor/rust/app/src/lib.rs:92
        let file = location.file();
  30:	9804      	ldr	r0, [sp, #16]
  32:	f7ff fffe 	bl	0 <_ZN4core5panic8Location4file17h94cc6af18de736c4E>
  36:	9106      	str	r1, [sp, #24]
  38:	9005      	str	r0, [sp, #20]
  3a:	e7ff      	b.n	3c <rust_begin_unwind+0x3c>
/Users/Luppy/mynewt/stm32bluepill-mynewt-sensor/rust/app/src/lib.rs:93
        let line = location.line();
  3c:	9804      	ldr	r0, [sp, #16]
  3e:	f7ff fffe 	bl	0 <_ZN4core5panic8Location4line17h3ffc63f14d0a6636E>
  42:	9007      	str	r0, [sp, #28]
  44:	e7ff      	b.n	46 <rust_begin_unwind+0x46>
/Users/Luppy/mynewt/stm32bluepill-mynewt-sensor/rust/app/src/lib.rs:94
        console::print("at ");        console::buffer(&file);
  46:	f240 0000 	movw	r0, #0
  4a:	f2c0 0000 	movt	r0, #0
  4e:	2103      	movs	r1, #3
  50:	f7ff fffe 	bl	0 <_ZN6mynewt3sys7console5print17hb1682fdf35bd72e2E>
  54:	e7ff      	b.n	56 <rust_begin_unwind+0x56>
  56:	9805      	ldr	r0, [sp, #20]
  58:	9906      	ldr	r1, [sp, #24]
  5a:	f7ff fffe 	bl	0 <_ZN6mynewt3sys7console6buffer17h879fbe75b694f9b0E>
  5e:	e7ff      	b.n	12 <rust_begin_unwind+0x12>
/Users/Luppy/mynewt/stm32bluepill-mynewt-sensor/rust/app/src/lib.rs:95
        console::print(" line 0x");   console::printhex(line as u8);  //  TODO: Print in decimal not hex. Allow more than 255 lines.
  60:	f240 0000 	movw	r0, #0
  64:	f2c0 0000 	movt	r0, #0
  68:	2108      	movs	r1, #8
  6a:	f7ff fffe 	bl	0 <_ZN6mynewt3sys7console5print17hb1682fdf35bd72e2E>
  6e:	e7ff      	b.n	70 <rust_begin_unwind+0x70>
  70:	9807      	ldr	r0, [sp, #28]
  72:	f7ff fffe 	bl	0 <_ZN6mynewt3sys7console8printhex17h213859656f416868E>
  76:	e7ff      	b.n	2 <rust_begin_unwind+0x2>
/Users/Luppy/mynewt/stm32bluepill-mynewt-sensor/rust/app/src/lib.rs:96
        console::print("\n");         console::flush();
  78:	f240 0000 	movw	r0, #0
  7c:	f2c0 0000 	movt	r0, #0
  80:	2101      	movs	r1, #1
  82:	f7ff fffe 	bl	0 <_ZN6mynewt3sys7console5print17hb1682fdf35bd72e2E>
  86:	e7ff      	b.n	2 <_ZN6mynewt3sys7console5flush17hd3edc8d6ed39f65bE+0x2>
  88:	f7ff fffe 	bl	0 <_ZN6mynewt3sys7console5flush17hd3edc8d6ed39f65bE>
  8c:	e7ff      	b.n	8e <rust_begin_unwind+0x8e>
/Users/Luppy/mynewt/stm32bluepill-mynewt-sensor/rust/app/src/lib.rs:91
    if let Some(location) = info.location() {
  8e:	e00a      	b.n	a6 <rust_begin_unwind+0xa6>
/Users/Luppy/mynewt/stm32bluepill-mynewt-sensor/rust/app/src/lib.rs:98
    } else {
        console::print("no loc\n");   console::flush();
  90:	f240 0000 	movw	r0, #0
  94:	f2c0 0000 	movt	r0, #0
  98:	2107      	movs	r1, #7
  9a:	f7ff fffe 	bl	0 <_ZN6mynewt3sys7console5print17hb1682fdf35bd72e2E>
  9e:	e7ff      	b.n	2 <_ZN6mynewt3sys7console5flush17hd3edc8d6ed39f65bE+0x2>
  a0:	f7ff fffe 	bl	0 <_ZN6mynewt3sys7console5flush17hd3edc8d6ed39f65bE>
  a4:	e7ff      	b.n	2 <__bkpt+0x2>
_ZN8cortex_m3asm4bkpt17h38d1ae7ad2dd546bE():
/Users/Luppy/.cargo/registry/src/github.com-1ecc6299db9ec823/cortex-m-0.6.0/src/asm.rs:19
        () => unsafe {
            extern "C" {
                fn __bkpt();
            }

            __bkpt();
  a6:	f7ff fffe 	bl	0 <__bkpt>
rust_begin_unwind():
/Users/Luppy/mynewt/stm32bluepill-mynewt-sensor/rust/app/src/lib.rs:101
    }
    //  Pause in the debugger.
    bkpt();
  aa:	e7ff      	b.n	ac <rust_begin_unwind+0xac>
/Users/Luppy/mynewt/stm32bluepill-mynewt-sensor/rust/app/src/lib.rs:103
    //  Loop forever so that device won't restart.
    loop {}
  ac:	e7fe      	b.n	ac <rust_begin_unwind+0xac>
arm-none-eabi-objdump: rust.metadata.bin: File format not recognized
arm-none-eabi-objdump: app-f1b560250e7c1912.1100txxf3br1xj2k.rcgu.bc.z: File format not recognized
arm-none-eabi-objdump: app-f1b560250e7c1912.3kxuqob6slyisrfp.rcgu.bc.z: File format not recognized
arm-none-eabi-objdump: app-f1b560250e7c1912.4lctw9a02p63osgz.rcgu.bc.z: File format not recognized
