In archive target\thumbv7m-none-eabi\release\libapp.rlib:

app-7da95246e43bf8c3.app.7srcpc5i-cgu.0.rcgu.o:     file format elf32-littlearm

SYMBOL TABLE:
00000000 l    df *ABS*	00000000 app.7srcpc5i-cgu.0
000011d4 l       .debug_str	00000000 
000030c9 l       .debug_str	00000000 
000030c5 l       .debug_str	00000000 
0000314c l       .debug_str	00000000 
000030bd l       .debug_str	00000000 
000030b8 l       .debug_str	00000000 
000030b2 l       .debug_str	00000000 
000030b0 l       .debug_str	00000000 
00003134 l       .debug_str	00000000 
000030aa l       .debug_str	00000000 
00003097 l       .debug_str	00000000 
00003067 l       .debug_str	00000000 
00003061 l       .debug_str	00000000 
0000304f l       .debug_str	00000000 
0000304a l       .debug_str	00000000 
00003048 l       .debug_str	00000000 
0000301d l       .debug_str	00000000 
00002fea l       .debug_str	00000000 
0000312a l       .debug_str	00000000 
00002fe1 l       .debug_str	00000000 
00002f97 l       .debug_str	00000000 
00002f94 l       .debug_str	00000000 
00002f6a l       .debug_str	00000000 
00002f3c l       .debug_str	00000000 
00002ecc l       .debug_str	00000000 
00003121 l       .debug_str	00000000 
00002e9a l       .debug_str	00000000 
00002e64 l       .debug_str	00000000 
00002df4 l       .debug_str	00000000 
00002deb l       .debug_str	00000000 
00002dd7 l       .debug_str	00000000 
00002dc5 l       .debug_str	00000000 
00002dba l       .debug_str	00000000 
00002db1 l       .debug_str	00000000 
00002da3 l       .debug_str	00000000 
00002d9e l       .debug_str	00000000 
00002d90 l       .debug_str	00000000 
00002d86 l       .debug_str	00000000 
0000311d l       .debug_str	00000000 
00003118 l       .debug_str	00000000 
00003113 l       .debug_str	00000000 
0000310a l       .debug_str	00000000 
000030ec l       .debug_str	00000000 
000030d6 l       .debug_str	00000000 
00000000 l       .debug_str	00000000 
00000041 l       .debug_str	00000000 
00000055 l       .debug_str	00000000 
00000074 l       .debug_str	00000000 
00000079 l       .debug_str	00000000 
00000080 l       .debug_str	00000000 
00000083 l       .debug_str	00000000 
00000086 l       .debug_str	00000000 
0000008a l       .debug_str	00000000 
00000091 l       .debug_str	00000000 
00000095 l       .debug_str	00000000 
00000098 l       .debug_str	00000000 
0000009b l       .debug_str	00000000 
000000a0 l       .debug_str	00000000 
000000a6 l       .debug_str	00000000 
000000ad l       .debug_str	00000000 
000000b5 l       .debug_str	00000000 
000000bf l       .debug_str	00000000 
000000c6 l       .debug_str	00000000 
000000ca l       .debug_str	00000000 
000000d2 l       .debug_str	00000000 
000000dd l       .debug_str	00000000 
000000e8 l       .debug_str	00000000 
000000f5 l       .debug_str	00000000 
00000100 l       .debug_str	00000000 
00000108 l       .debug_str	00000000 
00000113 l       .debug_str	00000000 
0000011e l       .debug_str	00000000 
00000128 l       .debug_str	00000000 
00000133 l       .debug_str	00000000 
0000013e l       .debug_str	00000000 
0000014b l       .debug_str	00000000 
00000157 l       .debug_str	00000000 
00000164 l       .debug_str	00000000 
00000172 l       .debug_str	00000000 
0000017c l       .debug_str	00000000 
00000189 l       .debug_str	00000000 
00000195 l       .debug_str	00000000 
00000199 l       .debug_str	00000000 
000001a4 l       .debug_str	00000000 
000001af l       .debug_str	00000000 
000001b6 l       .debug_str	00000000 
000001bf l       .debug_str	00000000 
000001c6 l       .debug_str	00000000 
000001cf l       .debug_str	00000000 
000001d9 l       .debug_str	00000000 
000001e0 l       .debug_str	00000000 
000001e6 l       .debug_str	00000000 
000001eb l       .debug_str	00000000 
000001f7 l       .debug_str	00000000 
000001ff l       .debug_str	00000000 
00000206 l       .debug_str	00000000 
0000020a l       .debug_str	00000000 
0000020f l       .debug_str	00000000 
00000218 l       .debug_str	00000000 
0000021d l       .debug_str	00000000 
00000220 l       .debug_str	00000000 
00000224 l       .debug_str	00000000 
0000022d l       .debug_str	00000000 
00000234 l       .debug_str	00000000 
00000239 l       .debug_str	00000000 
0000023e l       .debug_str	00000000 
00000244 l       .debug_str	00000000 
0000024a l       .debug_str	00000000 
00000254 l       .debug_str	00000000 
00000257 l       .debug_str	00000000 
0000025d l       .debug_str	00000000 
00000267 l       .debug_str	00000000 
0000026f l       .debug_str	00000000 
00000275 l       .debug_str	00000000 
0000027b l       .debug_str	00000000 
00000286 l       .debug_str	00000000 
0000028f l       .debug_str	00000000 
000002b2 l       .debug_str	00000000 
000002d1 l       .debug_str	00000000 
000002d3 l       .debug_str	00000000 
000002d8 l       .debug_str	00000000 
000002ff l       .debug_str	00000000 
00000304 l       .debug_str	00000000 
0000030a l       .debug_str	00000000 
00000310 l       .debug_str	00000000 
00000313 l       .debug_str	00000000 
00000322 l       .debug_str	00000000 
00000329 l       .debug_str	00000000 
0000032d l       .debug_str	00000000 
00000336 l       .debug_str	00000000 
0000033e l       .debug_str	00000000 
00000346 l       .debug_str	00000000 
0000034d l       .debug_str	00000000 
00000361 l       .debug_str	00000000 
0000036d l       .debug_str	00000000 
00000379 l       .debug_str	00000000 
00000392 l       .debug_str	00000000 
00000397 l       .debug_str	00000000 
000003a8 l       .debug_str	00000000 
000003b2 l       .debug_str	00000000 
000003c0 l       .debug_str	00000000 
000003c4 l       .debug_str	00000000 
000003cf l       .debug_str	00000000 
000003d6 l       .debug_str	00000000 
000003dc l       .debug_str	00000000 
000003e0 l       .debug_str	00000000 
000003e4 l       .debug_str	00000000 
000003ec l       .debug_str	00000000 
00000403 l       .debug_str	00000000 
00000427 l       .debug_str	00000000 
00000443 l       .debug_str	00000000 
0000044d l       .debug_str	00000000 
00000467 l       .debug_str	00000000 
000004c5 l       .debug_str	00000000 
000004d0 l       .debug_str	00000000 
000004ed l       .debug_str	00000000 
00000506 l       .debug_str	00000000 
00000510 l       .debug_str	00000000 
00000542 l       .debug_str	00000000 
00000549 l       .debug_str	00000000 
0000054d l       .debug_str	00000000 
00000572 l       .debug_str	00000000 
0000057b l       .debug_str	00000000 
0000057d l       .debug_str	00000000 
000005a5 l       .debug_str	00000000 
000005b3 l       .debug_str	00000000 
000005b7 l       .debug_str	00000000 
000005bf l       .debug_str	00000000 
000005c5 l       .debug_str	00000000 
000005ca l       .debug_str	00000000 
000005d2 l       .debug_str	00000000 
000005d7 l       .debug_str	00000000 
000005e5 l       .debug_str	00000000 
000005f6 l       .debug_str	00000000 
00000606 l       .debug_str	00000000 
00000617 l       .debug_str	00000000 
0000061b l       .debug_str	00000000 
0000061f l       .debug_str	00000000 
00000623 l       .debug_str	00000000 
00000656 l       .debug_str	00000000 
0000066c l       .debug_str	00000000 
00000678 l       .debug_str	00000000 
00000683 l       .debug_str	00000000 
0000068f l       .debug_str	00000000 
00000699 l       .debug_str	00000000 
000006a7 l       .debug_str	00000000 
000006aa l       .debug_str	00000000 
000006b1 l       .debug_str	00000000 
000006ba l       .debug_str	00000000 
000006c0 l       .debug_str	00000000 
000006c7 l       .debug_str	00000000 
000006ca l       .debug_str	00000000 
000006d6 l       .debug_str	00000000 
000006de l       .debug_str	00000000 
000006f5 l       .debug_str	00000000 
0000074f l       .debug_str	00000000 
000007b1 l       .debug_str	00000000 
000007bc l       .debug_str	00000000 
00000803 l       .debug_str	00000000 
00000852 l       .debug_str	00000000 
0000085c l       .debug_str	00000000 
00000899 l       .debug_str	00000000 
000008de l       .debug_str	00000000 
000008e7 l       .debug_str	00000000 
000008f7 l       .debug_str	00000000 
000008ff l       .debug_str	00000000 
00000954 l       .debug_str	00000000 
000009b1 l       .debug_str	00000000 
000009bd l       .debug_str	00000000 
000009c6 l       .debug_str	00000000 
000009d2 l       .debug_str	00000000 
000009de l       .debug_str	00000000 
000009e7 l       .debug_str	00000000 
000009ef l       .debug_str	00000000 
000009f7 l       .debug_str	00000000 
00000a01 l       .debug_str	00000000 
00000a16 l       .debug_str	00000000 
00000a1d l       .debug_str	00000000 
00000a3d l       .debug_str	00000000 
00000a44 l       .debug_str	00000000 
00000a4c l       .debug_str	00000000 
00000a56 l       .debug_str	00000000 
00000a61 l       .debug_str	00000000 
00000a6a l       .debug_str	00000000 
00000a75 l       .debug_str	00000000 
00000a81 l       .debug_str	00000000 
00000a85 l       .debug_str	00000000 
00000a8e l       .debug_str	00000000 
00000a95 l       .debug_str	00000000 
00000a9d l       .debug_str	00000000 
00000aa5 l       .debug_str	00000000 
00000aaf l       .debug_str	00000000 
00000ab5 l       .debug_str	00000000 
00000abc l       .debug_str	00000000 
00000ac3 l       .debug_str	00000000 
00000af0 l       .debug_str	00000000 
00000b25 l       .debug_str	00000000 
00000b2b l       .debug_str	00000000 
00000b31 l       .debug_str	00000000 
00000b40 l       .debug_str	00000000 
00000b50 l       .debug_str	00000000 
00000b60 l       .debug_str	00000000 
00000b68 l       .debug_str	00000000 
00000b91 l       .debug_str	00000000 
00000bef l       .debug_str	00000000 
00000c55 l       .debug_str	00000000 
00000c5c l       .debug_str	00000000 
00000c64 l       .debug_str	00000000 
00000c6d l       .debug_str	00000000 
00000c8b l       .debug_str	00000000 
00000c9b l       .debug_str	00000000 
00000ca9 l       .debug_str	00000000 
00000cb4 l       .debug_str	00000000 
00000cc1 l       .debug_str	00000000 
00000cd0 l       .debug_str	00000000 
00000ce6 l       .debug_str	00000000 
00000cf0 l       .debug_str	00000000 
00000cf9 l       .debug_str	00000000 
00000d02 l       .debug_str	00000000 
00000d28 l       .debug_str	00000000 
00000d3e l       .debug_str	00000000 
00000d49 l       .debug_str	00000000 
00000d5f l       .debug_str	00000000 
00000d67 l       .debug_str	00000000 
00000d88 l       .debug_str	00000000 
00000d9f l       .debug_str	00000000 
00000da4 l       .debug_str	00000000 
00000dac l       .debug_str	00000000 
00000db5 l       .debug_str	00000000 
00000dbe l       .debug_str	00000000 
00000dc7 l       .debug_str	00000000 
00000dcf l       .debug_str	00000000 
00000dd6 l       .debug_str	00000000 
00000de2 l       .debug_str	00000000 
00000ded l       .debug_str	00000000 
00000df5 l       .debug_str	00000000 
00000dfd l       .debug_str	00000000 
00000e79 l       .debug_str	00000000 
00000efd l       .debug_str	00000000 
00000ff9 l       .debug_str	00000000 
000010fd l       .debug_str	00000000 
0000110b l       .debug_str	00000000 
00001116 l       .debug_str	00000000 
00001120 l       .debug_str	00000000 
0000112b l       .debug_str	00000000 
00001159 l       .debug_str	00000000 
00002d65 l       .debug_str	00000000 
00001257 l       .debug_str	00000000 
00001265 l       .debug_str	00000000 
000012c4 l       .debug_str	00000000 
0000132b l       .debug_str	00000000 
00001341 l       .debug_str	00000000 
00001351 l       .debug_str	00000000 
00001360 l       .debug_str	00000000 
00001364 l       .debug_str	00000000 
0000136a l       .debug_str	00000000 
0000136e l       .debug_str	00000000 
00001374 l       .debug_str	00000000 
0000137a l       .debug_str	00000000 
00001386 l       .debug_str	00000000 
0000138e l       .debug_str	00000000 
00001396 l       .debug_str	00000000 
0000139c l       .debug_str	00000000 
000013bf l       .debug_str	00000000 
000013cf l       .debug_str	00000000 
00001402 l       .debug_str	00000000 
00001442 l       .debug_str	00000000 
0000148a l       .debug_str	00000000 
0000148e l       .debug_str	00000000 
00001494 l       .debug_str	00000000 
0000149a l       .debug_str	00000000 
000014a0 l       .debug_str	00000000 
000014b2 l       .debug_str	00000000 
000014e7 l       .debug_str	00000000 
00001529 l       .debug_str	00000000 
00001573 l       .debug_str	00000000 
00001577 l       .debug_str	00000000 
0000157d l       .debug_str	00000000 
00001583 l       .debug_str	00000000 
00001589 l       .debug_str	00000000 
0000159b l       .debug_str	00000000 
000015d0 l       .debug_str	00000000 
00001612 l       .debug_str	00000000 
0000165c l       .debug_str	00000000 
00001660 l       .debug_str	00000000 
00001666 l       .debug_str	00000000 
0000166c l       .debug_str	00000000 
00001672 l       .debug_str	00000000 
00001678 l       .debug_str	00000000 
00001689 l       .debug_str	00000000 
000016bd l       .debug_str	00000000 
000016fe l       .debug_str	00000000 
00001747 l       .debug_str	00000000 
0000174c l       .debug_str	00000000 
00001751 l       .debug_str	00000000 
00001755 l       .debug_str	00000000 
0000175b l       .debug_str	00000000 
00001761 l       .debug_str	00000000 
00001767 l       .debug_str	00000000 
00001778 l       .debug_str	00000000 
000017ac l       .debug_str	00000000 
000017ed l       .debug_str	00000000 
00001836 l       .debug_str	00000000 
0000183a l       .debug_str	00000000 
00001843 l       .debug_str	00000000 
00001854 l       .debug_str	00000000 
00001888 l       .debug_str	00000000 
000018c9 l       .debug_str	00000000 
00001912 l       .debug_str	00000000 
00001917 l       .debug_str	00000000 
0000191b l       .debug_str	00000000 
00001924 l       .debug_str	00000000 
0000192b l       .debug_str	00000000 
00001933 l       .debug_str	00000000 
00001945 l       .debug_str	00000000 
0000197a l       .debug_str	00000000 
000019bc l       .debug_str	00000000 
00001a06 l       .debug_str	00000000 
00001a0a l       .debug_str	00000000 
00001a10 l       .debug_str	00000000 
00001a16 l       .debug_str	00000000 
00001a1c l       .debug_str	00000000 
00001a22 l       .debug_str	00000000 
00001a2a l       .debug_str	00000000 
00001a38 l       .debug_str	00000000 
00001a47 l       .debug_str	00000000 
00001a58 l       .debug_str	00000000 
00001a63 l       .debug_str	00000000 
00001a6e l       .debug_str	00000000 
00001a79 l       .debug_str	00000000 
00001a80 l       .debug_str	00000000 
00001aa3 l       .debug_str	00000000 
00001ab5 l       .debug_str	00000000 
00001aea l       .debug_str	00000000 
00001b2c l       .debug_str	00000000 
00001b76 l       .debug_str	00000000 
00001b7a l       .debug_str	00000000 
00001b84 l       .debug_str	00000000 
00001b96 l       .debug_str	00000000 
00001bcb l       .debug_str	00000000 
00001c0d l       .debug_str	00000000 
00001c57 l       .debug_str	00000000 
00001c5c l       .debug_str	00000000 
00001c66 l       .debug_str	00000000 
00001c78 l       .debug_str	00000000 
00001cad l       .debug_str	00000000 
00001cef l       .debug_str	00000000 
00001d39 l       .debug_str	00000000 
00001d4d l       .debug_str	00000000 
00001d51 l       .debug_str	00000000 
00001d5f l       .debug_str	00000000 
00001d6f l       .debug_str	00000000 
00001d78 l       .debug_str	00000000 
00001d83 l       .debug_str	00000000 
00001d92 l       .debug_str	00000000 
00001da7 l       .debug_str	00000000 
00001dd8 l       .debug_str	00000000 
00001e75 l       .debug_str	00000000 
00001f1a l       .debug_str	00000000 
00001f25 l       .debug_str	00000000 
00001f2e l       .debug_str	00000000 
00001f4f l       .debug_str	00000000 
00001f62 l       .debug_str	00000000 
00001f98 l       .debug_str	00000000 
0000201b l       .debug_str	00000000 
000020a6 l       .debug_str	00000000 
000020c2 l       .debug_str	00000000 
0000210e l       .debug_str	00000000 
00002162 l       .debug_str	00000000 
0000217f l       .debug_str	00000000 
00002193 l       .debug_str	00000000 
000021df l       .debug_str	00000000 
00002233 l       .debug_str	00000000 
00002249 l       .debug_str	00000000 
0000225d l       .debug_str	00000000 
000022a4 l       .debug_str	00000000 
000022f3 l       .debug_str	00000000 
000022fc l       .debug_str	00000000 
0000232d l       .debug_str	00000000 
00002333 l       .debug_str	00000000 
0000233b l       .debug_str	00000000 
00002342 l       .debug_str	00000000 
0000234a l       .debug_str	00000000 
00002355 l       .debug_str	00000000 
0000235d l       .debug_str	00000000 
0000236c l       .debug_str	00000000 
00002370 l       .debug_str	00000000 
0000237b l       .debug_str	00000000 
00002387 l       .debug_str	00000000 
00002392 l       .debug_str	00000000 
000023a3 l       .debug_str	00000000 
000023a9 l       .debug_str	00000000 
000023b1 l       .debug_str	00000000 
000023b8 l       .debug_str	00000000 
000023c2 l       .debug_str	00000000 
000023ca l       .debug_str	00000000 
000023d2 l       .debug_str	00000000 
000023f4 l       .debug_str	00000000 
000023ff l       .debug_str	00000000 
0000240b l       .debug_str	00000000 
00002413 l       .debug_str	00000000 
0000241c l       .debug_str	00000000 
00002427 l       .debug_str	00000000 
0000242e l       .debug_str	00000000 
00002439 l       .debug_str	00000000 
00002444 l       .debug_str	00000000 
00002454 l       .debug_str	00000000 
0000245e l       .debug_str	00000000 
00002464 l       .debug_str	00000000 
00002486 l       .debug_str	00000000 
000024be l       .debug_str	00000000 
000024fe l       .debug_str	00000000 
00002505 l       .debug_str	00000000 
0000250d l       .debug_str	00000000 
00002524 l       .debug_str	00000000 
0000252d l       .debug_str	00000000 
0000253d l       .debug_str	00000000 
0000254c l       .debug_str	00000000 
00002554 l       .debug_str	00000000 
0000255b l       .debug_str	00000000 
00002563 l       .debug_str	00000000 
00002581 l       .debug_str	00000000 
00002591 l       .debug_str	00000000 
000025c4 l       .debug_str	00000000 
000025d9 l       .debug_str	00000000 
000025e2 l       .debug_str	00000000 
0000263f l       .debug_str	00000000 
000026a4 l       .debug_str	00000000 
000026ae l       .debug_str	00000000 
000026be l       .debug_str	00000000 
000026d3 l       .debug_str	00000000 
000026db l       .debug_str	00000000 
0000273f l       .debug_str	00000000 
000027ab l       .debug_str	00000000 
000027b2 l       .debug_str	00000000 
000027ba l       .debug_str	00000000 
000027d8 l       .debug_str	00000000 
000027e8 l       .debug_str	00000000 
0000281b l       .debug_str	00000000 
00002830 l       .debug_str	00000000 
00002843 l       .debug_str	00000000 
00002858 l       .debug_str	00000000 
0000285f l       .debug_str	00000000 
00002874 l       .debug_str	00000000 
0000289e l       .debug_str	00000000 
000028a7 l       .debug_str	00000000 
00002917 l       .debug_str	00000000 
0000296a l       .debug_str	00000000 
000029b9 l       .debug_str	00000000 
000029be l       .debug_str	00000000 
00002a2e l       .debug_str	00000000 
00002a85 l       .debug_str	00000000 
00002ad8 l       .debug_str	00000000 
00002b18 l       .debug_str	00000000 
00002b3f l       .debug_str	00000000 
00002b43 l       .debug_str	00000000 
00002b45 l       .debug_str	00000000 
00002b47 l       .debug_str	00000000 
00002b51 l       .debug_str	00000000 
00002b5a l       .debug_str	00000000 
00002b63 l       .debug_str	00000000 
00002b6e l       .debug_str	00000000 
00002b78 l       .debug_str	00000000 
00002b9f l       .debug_str	00000000 
00002bb7 l       .debug_str	00000000 
00002bc1 l       .debug_str	00000000 
00002be4 l       .debug_str	00000000 
00002c2c l       .debug_str	00000000 
00002c6c l       .debug_str	00000000 
00002cb3 l       .debug_str	00000000 
00002cbc l       .debug_str	00000000 
00002cc0 l       .debug_str	00000000 
00002cea l       .debug_str	00000000 
00002cef l       .debug_str	00000000 
00002d1d l       .debug_str	00000000 
00002d2e l       .debug_str	00000000 
00002d3a l       .debug_str	00000000 
00002d3e l       .debug_str	00000000 
00002d43 l       .debug_str	00000000 
00002d49 l       .debug_str	00000000 
00002d59 l       .debug_str	00000000 
000030ce l       .debug_str	00000000 
00000000 l     O .rodata..Lanon.3ed011473997af99b525cde47c9eaaac.10	0000000d .Lanon.3ed011473997af99b525cde47c9eaaac.10
00000000 l     O .rodata.cst8	00000008 .Lanon.3ed011473997af99b525cde47c9eaaac.11
00000008 l     O .rodata.cst8	00000008 .Lanon.3ed011473997af99b525cde47c9eaaac.12
00000000 l     O .rodata..Lanon.3ed011473997af99b525cde47c9eaaac.13	00000006 .Lanon.3ed011473997af99b525cde47c9eaaac.13
00000000 l     O .rodata..Lanon.3ed011473997af99b525cde47c9eaaac.14	00000007 .Lanon.3ed011473997af99b525cde47c9eaaac.14
00000000 l     O .rodata..Lanon.3ed011473997af99b525cde47c9eaaac.15	00000003 .Lanon.3ed011473997af99b525cde47c9eaaac.15
00000010 l     O .rodata.cst8	00000008 .Lanon.3ed011473997af99b525cde47c9eaaac.16
00000000 l     O .rodata..Lanon.3ed011473997af99b525cde47c9eaaac.17	00000001 .Lanon.3ed011473997af99b525cde47c9eaaac.17
00000000 l     O .rodata..Lanon.3ed011473997af99b525cde47c9eaaac.18	00000016 .Lanon.3ed011473997af99b525cde47c9eaaac.18
00000000 l     O .rodata..Lanon.3ed011473997af99b525cde47c9eaaac.19	00000013 .Lanon.3ed011473997af99b525cde47c9eaaac.19
00000000 l     O .rodata..Lanon.3ed011473997af99b525cde47c9eaaac.2	00000010 .Lanon.3ed011473997af99b525cde47c9eaaac.2
00000000 l     O .rodata..Lanon.3ed011473997af99b525cde47c9eaaac.20	00000011 .Lanon.3ed011473997af99b525cde47c9eaaac.20
00000000 l     O .rodata..Lanon.3ed011473997af99b525cde47c9eaaac.22	0000000c .Lanon.3ed011473997af99b525cde47c9eaaac.22
00000000 l     O .rodata..Lanon.3ed011473997af99b525cde47c9eaaac.23	00000007 .Lanon.3ed011473997af99b525cde47c9eaaac.23
00000000 l     O .rodata..Lanon.3ed011473997af99b525cde47c9eaaac.24	0000000d .Lanon.3ed011473997af99b525cde47c9eaaac.24
00000000 l     O .rodata.cst4	00000004 .Lanon.3ed011473997af99b525cde47c9eaaac.25
00000000 l     O .rodata..Lanon.3ed011473997af99b525cde47c9eaaac.26	00000007 .Lanon.3ed011473997af99b525cde47c9eaaac.26
00000000 l     O .rodata..Lanon.3ed011473997af99b525cde47c9eaaac.27	00000006 .Lanon.3ed011473997af99b525cde47c9eaaac.27
00000000 l     O .rodata..Lanon.3ed011473997af99b525cde47c9eaaac.28	00000003 .Lanon.3ed011473997af99b525cde47c9eaaac.28
00000000 l     O .rodata..Lanon.3ed011473997af99b525cde47c9eaaac.29	00000005 .Lanon.3ed011473997af99b525cde47c9eaaac.29
00000000 l     O .rodata..Lanon.3ed011473997af99b525cde47c9eaaac.30	00000043 .Lanon.3ed011473997af99b525cde47c9eaaac.30
00000000 l     O .rodata..Lanon.3ed011473997af99b525cde47c9eaaac.4	00000010 .Lanon.3ed011473997af99b525cde47c9eaaac.4
00000000 l     O .rodata..Lanon.3ed011473997af99b525cde47c9eaaac.5	00000009 .Lanon.3ed011473997af99b525cde47c9eaaac.5
00000000 l     O .rodata..Lanon.3ed011473997af99b525cde47c9eaaac.7	0000000c .Lanon.3ed011473997af99b525cde47c9eaaac.7
00000000 l     O .rodata..Lanon.3ed011473997af99b525cde47c9eaaac.9	0000000c .Lanon.3ed011473997af99b525cde47c9eaaac.9
00000000 l     F .text._ZN3app18handle_sensor_data17hf2529d913b12669cE	0000022e app::handle_sensor_data
00000000 l     F .text._ZN44_$LT$$RF$T$u20$as$u20$core..fmt..Display$GT$3fmt17h0bdb5d41856bc834E	0000000c <&T as core::fmt::Display>::fmt
00000000 l     F .text._ZN4core6result13unwrap_failed17h2598843d1764ab0eE	0000004c core::result::unwrap_failed
00000000 l    d  .text._ZN44_$LT$$RF$T$u20$as$u20$core..fmt..Display$GT$3fmt17h0bdb5d41856bc834E	00000000 .text._ZN44_$LT$$RF$T$u20$as$u20$core..fmt..Display$GT$3fmt17h0bdb5d41856bc834E
00000000 l    d  .text._ZN4core6result13unwrap_failed17h2598843d1764ab0eE	00000000 .text._ZN4core6result13unwrap_failed17h2598843d1764ab0eE
00000000 l    d  .text.main	00000000 .text.main
00000000 l    d  .text.rust_begin_unwind	00000000 .text.rust_begin_unwind
00000000 l    d  .text._ZN3app18handle_sensor_data17hf2529d913b12669cE	00000000 .text._ZN3app18handle_sensor_data17hf2529d913b12669cE
00000000 l    d  .rodata..Lanon.3ed011473997af99b525cde47c9eaaac.0	00000000 .rodata..Lanon.3ed011473997af99b525cde47c9eaaac.0
00000000 l    d  .rodata..Lanon.3ed011473997af99b525cde47c9eaaac.1	00000000 .rodata..Lanon.3ed011473997af99b525cde47c9eaaac.1
00000000 l    d  .rodata..Lanon.3ed011473997af99b525cde47c9eaaac.3	00000000 .rodata..Lanon.3ed011473997af99b525cde47c9eaaac.3
00000000 l    d  .rodata..Lanon.3ed011473997af99b525cde47c9eaaac.6	00000000 .rodata..Lanon.3ed011473997af99b525cde47c9eaaac.6
00000000 l    d  .rodata..Lanon.3ed011473997af99b525cde47c9eaaac.8	00000000 .rodata..Lanon.3ed011473997af99b525cde47c9eaaac.8
00000000 l    d  .rodata..Lanon.3ed011473997af99b525cde47c9eaaac.21	00000000 .rodata..Lanon.3ed011473997af99b525cde47c9eaaac.21
00000000 l    d  .debug_loc	00000000 .debug_loc
00000000 l    d  .debug_abbrev	00000000 .debug_abbrev
00000000 l    d  .debug_info	00000000 .debug_info
00000000 l    d  .debug_ranges	00000000 .debug_ranges
00000000 l    d  .debug_frame	00000000 .debug_frame
00000000 l    d  .debug_line	00000000 .debug_line
00000000         *UND*	00000000 <str as core::fmt::Display>::fmt
00000000         *UND*	00000000 core::panic::Location::file
00000000         *UND*	00000000 core::panic::Location::line
00000000         *UND*	00000000 core::panic::PanicInfo::location
00000000         *UND*	00000000 core::panicking::panic_fmt
00000000         *UND*	00000000 <mynewt::result::MynewtError as core::fmt::Debug>::fmt
00000000         *UND*	00000000 mynewt::hw::sensor::register_listener
00000000         *UND*	00000000 mynewt::hw::sensor::new_sensor_listener
00000000         *UND*	00000000 mynewt::hw::sensor::bindings::set_poll_rate_ms
00000000         *UND*	00000000 mynewt::hw::sensor::bindings::mgr_find_next_bydevname
00000000         *UND*	00000000 mynewt::sys::console::print_strn
00000000         *UND*	00000000 mynewt::sys::console::flush
00000000         *UND*	00000000 mynewt::sys::console::print
00000000         *UND*	00000000 mynewt::sys::console::buffer
00000000         *UND*	00000000 mynewt::sys::console::printhex
00000000         *UND*	00000000 mynewt::Strn::new
00000000         *UND*	00000000 mynewt::libs::sensor_network::prepare_post
00000000         *UND*	00000000 mynewt::libs::sensor_network::get_device_id
00000000         *UND*	00000000 mynewt::libs::sensor_network::do_server_post
00000000         *UND*	00000000 mynewt::libs::sensor_network::init_server_post
00000000         *UND*	00000000 mynewt::libs::sensor_network::start_server_transport
00000000         *UND*	00000000 mynewt::kernel::os::eventq_run
00000000         *UND*	00000000 mynewt::kernel::os::eventq_dflt_get
00000000         *UND*	00000000 mynewt::sysinit
00000000         *UND*	00000000 mynewt::encoding::coap_context::CoapContext::key_to_cstr
00000000         *UND*	00000000 mynewt::encoding::coap_context::CoapContext::to_void_ptr
00000000         *UND*	00000000 mynewt::encoding::coap_context::CoapContext::value_to_cstr
00000000         *UND*	00000000 mynewt::encoding::coap_context::CoapContext::json_set_text_string
00000000         *UND*	00000000 mynewt::encoding::coap_context::CoapContext::fail
00000000         *UND*	00000000 mynewt::encoding::coap_context::COAP_CONTEXT
00000000         *UND*	00000000 <str as mynewt::encoding::coap_context::ToBytesOptionalNull>::to_bytes_optional_nul
00000000         *UND*	00000000 <mynewt::Strn as mynewt::encoding::coap_context::ToBytesOptionalNull>::to_bytes_optional_nul
00000000         *UND*	00000000 __bkpt
00000000         *UND*	00000000 json_helper_close_array
00000000         *UND*	00000000 json_helper_object_array_end_item
00000000         *UND*	00000000 json_helper_object_array_start_item
00000000         *UND*	00000000 json_helper_set_array
00000000         *UND*	00000000 json_helper_set_int
00000000         *UND*	00000000 json_helper_set_text_string
00000000         *UND*	00000000 json_rep_end_root_object
00000000         *UND*	00000000 json_rep_start_root_object
00000000 g     F .text.main	00000112 main
00000000 g     F .text.rust_begin_unwind	00000078 rust_begin_unwind



Disassembly of section .text._ZN44_$LT$$RF$T$u20$as$u20$core..fmt..Display$GT$3fmt17h0bdb5d41856bc834E:

00000000 <<&T as core::fmt::Display>::fmt>:
_ZN44_$LT$$RF$T$u20$as$u20$core..fmt..Display$GT$3fmt17h0bdb5d41856bc834E():
/rustc/03ee55bb1c8c2379fdabf68e306186b390444f61/src/libcore/fmt/mod.rs:1914
   0:	460a      	mov	r2, r1
   2:	e9d0 3100 	ldrd	r3, r1, [r0]
   6:	4618      	mov	r0, r3
   8:	f7ff bffe 	b.w	0 <<str as core::fmt::Display>::fmt>

Disassembly of section .text._ZN4core6result13unwrap_failed17h2598843d1764ab0eE:

00000000 <core::result::unwrap_failed>:
_ZN4core6result13unwrap_failed17h2598843d1764ab0eE():
/rustc/03ee55bb1c8c2379fdabf68e306186b390444f61/src/libcore/result.rs:998
   0:	b08e      	sub	sp, #56	; 0x38
   2:	ab01      	add	r3, sp, #4
   4:	c307      	stmia	r3!, {r0, r1, r2}
/rustc/03ee55bb1c8c2379fdabf68e306186b390444f61/src/libcore/result.rs:999
   6:	f240 0000 	movw	r0, #0
   a:	f2c0 0000 	movt	r0, #0
   e:	900d      	str	r0, [sp, #52]	; 0x34
  10:	a803      	add	r0, sp, #12
  12:	900c      	str	r0, [sp, #48]	; 0x30
  14:	f240 0000 	movw	r0, #0
  18:	f2c0 0000 	movt	r0, #0
  1c:	a90a      	add	r1, sp, #40	; 0x28
  1e:	900b      	str	r0, [sp, #44]	; 0x2c
  20:	a801      	add	r0, sp, #4
  22:	900a      	str	r0, [sp, #40]	; 0x28
  24:	2002      	movs	r0, #2
_ZN4core3fmt9Arguments6new_v117h2beb9c2f0caa7216E():
/rustc/03ee55bb1c8c2379fdabf68e306186b390444f61/src/libcore/fmt/mod.rs:316
  26:	9009      	str	r0, [sp, #36]	; 0x24
  28:	9108      	str	r1, [sp, #32]
  2a:	2100      	movs	r1, #0
  2c:	9107      	str	r1, [sp, #28]
  2e:	e9cd 0105 	strd	r0, r1, [sp, #20]
  32:	f240 0000 	movw	r0, #0
  36:	f2c0 0000 	movt	r0, #0
_ZN4core6result13unwrap_failed17h2598843d1764ab0eE():
/rustc/03ee55bb1c8c2379fdabf68e306186b390444f61/src/libcore/macros.rs:18
  3a:	f240 0100 	movw	r1, #0
_ZN4core3fmt9Arguments6new_v117h2beb9c2f0caa7216E():
/rustc/03ee55bb1c8c2379fdabf68e306186b390444f61/src/libcore/fmt/mod.rs:316
  3e:	9004      	str	r0, [sp, #16]
  40:	a804      	add	r0, sp, #16
_ZN4core6result13unwrap_failed17h2598843d1764ab0eE():
/rustc/03ee55bb1c8c2379fdabf68e306186b390444f61/src/libcore/macros.rs:18
  42:	f2c0 0100 	movt	r1, #0
  46:	f7ff fffe 	bl	0 <core::panicking::panic_fmt>
  4a:	defe      	udf	#254	; 0xfe

Disassembly of section .text.main:

00000000 <main>:
main():
c:\stm32bluepill-mynewt-sensor/rust\app\src/lib.rs:116
    Ok(())
}

/// main() will be called at Mynewt startup. It replaces the C version of the `main()` function.
#[no_mangle]                 // Don't mangle the name "main"
extern "C" fn main() -> ! {  // Declare `extern "C"` because it will be called by Mynewt
   0:	b096      	sub	sp, #88	; 0x58
c:\stm32bluepill-mynewt-sensor/rust\app\src/lib.rs:118
    // Initialise Mynewt OS
    mynewt::sysinit();
   2:	f7ff fffe 	bl	0 <mynewt::sysinit>
_ZN3app8on_start17h60b5837159dadfbbE():
c:\stm32bluepill-mynewt-sensor/rust\app\src/lib.rs:36
    console::print("on_start\n");
   6:	f240 0000 	movw	r0, #0
   a:	2109      	movs	r1, #9
   c:	f2c0 0000 	movt	r0, #0
  10:	f7ff fffe 	bl	0 <mynewt::sys::console::print>
_ZN3app21start_sensor_listener17ha268669d75d374b9E():
c:\stm32bluepill-mynewt-sensor/rust\app\src/lib.rs:58
    console::print("start_sensor_listener\n");
  14:	f240 0000 	movw	r0, #0
  18:	2116      	movs	r1, #22
  1a:	f2c0 0000 	movt	r0, #0
  1e:	f7ff fffe 	bl	0 <mynewt::sys::console::print>
c:\stm32bluepill-mynewt-sensor/rust\app\src/lib.rs:60
    sensor::set_poll_rate_ms(sensor_name, poll_time) ? ;
  22:	f240 0000 	movw	r0, #0
  26:	f242 7110 	movw	r1, #10000	; 0x2710
  2a:	f2c0 0000 	movt	r0, #0
  2e:	f7ff fffe 	bl	0 <mynewt::hw::sensor::bindings::set_poll_rate_ms>
  32:	2801      	cmp	r0, #1
  34:	d164      	bne.n	100 <main+0x100>
  36:	f10d 0838 	add.w	r8, sp, #56	; 0x38
c:\stm32bluepill-mynewt-sensor/rust\app\src/lib.rs:62
    let sensor_driver = sensor::mgr_find_next_bydevname(sensor_name, null_mut()) ? ;
  3a:	f240 0100 	movw	r1, #0
  3e:	f2c0 0100 	movt	r1, #0
  42:	2200      	movs	r2, #0
  44:	4640      	mov	r0, r8
  46:	f7ff fffe 	bl	0 <mynewt::hw::sensor::bindings::mgr_find_next_bydevname>
_ZN73_$LT$core..result..Result$LT$T$C$E$GT$$u20$as$u20$core..ops..try..Try$GT$11into_result17h3f8cdaa2dbaad9fbE():
/rustc/03ee55bb1c8c2379fdabf68e306186b390444f61/src/libcore/result.rs:1283
  4a:	e9dd 0a0e 	ldrd	r0, sl, [sp, #56]	; 0x38
_ZN3app21start_sensor_listener17ha268669d75d374b9E():
c:\stm32bluepill-mynewt-sensor/rust\app\src/lib.rs:62
  4e:	2801      	cmp	r0, #1
  50:	d103      	bne.n	5a <main+0x5a>
  52:	4652      	mov	r2, sl
_ZN3app8on_start17h60b5837159dadfbbE():
c:\stm32bluepill-mynewt-sensor/rust\app\src/lib.rs:46
    start_sensor_listener(SENSOR_DEVICE, TEMP_SENSOR_KEY, TEMP_SENSOR_TYPE, SENSOR_POLL_TIME) ? ;
  54:	2a01      	cmp	r2, #1
  56:	d031      	beq.n	bc <main+0xbc>
  58:	e053      	b.n	102 <main+0x102>
_ZN3app21start_sensor_listener17ha268669d75d374b9E():
c:\stm32bluepill-mynewt-sensor/rust\app\src/lib.rs:64
    if sensor_driver != null_mut() {
  5a:	f1ba 0f00 	cmp.w	sl, #0
  5e:	d02d      	beq.n	5e <main+0x5e>
c:\stm32bluepill-mynewt-sensor/rust\app\src/lib.rs:66
        let listener = sensor::new_sensor_listener(sensor_key, sensor_type, handle_sensor_data) ? ;
  60:	f240 0000 	movw	r0, #0
  64:	f240 0100 	movw	r1, #0
  68:	f2c0 0000 	movt	r0, #0
  6c:	f2c0 0100 	movt	r1, #0
  70:	9000      	str	r0, [sp, #0]
  72:	4640      	mov	r0, r8
  74:	f04f 6280 	mov.w	r2, #67108864	; 0x4000000
  78:	2300      	movs	r3, #0
  7a:	f7ff fffe 	bl	0 <mynewt::hw::sensor::new_sensor_listener>
_ZN73_$LT$core..result..Result$LT$T$C$E$GT$$u20$as$u20$core..ops..try..Try$GT$11into_result17h946c47c49456016eE():
/rustc/03ee55bb1c8c2379fdabf68e306186b390444f61/src/libcore/result.rs:1283
  7e:	f108 0908 	add.w	r9, r8, #8
  82:	e9dd c20e 	ldrd	ip, r2, [sp, #56]	; 0x38
  86:	f10d 0e20 	add.w	lr, sp, #32
  8a:	e899 00fa 	ldmia.w	r9, {r1, r3, r4, r5, r6, r7}
_ZN3app21start_sensor_listener17ha268669d75d374b9E():
c:\stm32bluepill-mynewt-sensor/rust\app\src/lib.rs:66
  8e:	f1bc 0f01 	cmp.w	ip, #1
_ZN73_$LT$core..result..Result$LT$T$C$E$GT$$u20$as$u20$core..ops..try..Try$GT$11into_result17h946c47c49456016eE():
/rustc/03ee55bb1c8c2379fdabf68e306186b390444f61/src/libcore/result.rs:1283
  92:	4670      	mov	r0, lr
  94:	c0fa      	stmia	r0!, {r1, r3, r4, r5, r6, r7}
_ZN3app21start_sensor_listener17ha268669d75d374b9E():
c:\stm32bluepill-mynewt-sensor/rust\app\src/lib.rs:66
  96:	d00f      	beq.n	b8 <main+0xb8>
  98:	a802      	add	r0, sp, #8
  9a:	e89e 00fc 	ldmia.w	lr, {r2, r3, r4, r5, r6, r7}
  9e:	4601      	mov	r1, r0
  a0:	c1fc      	stmia	r1!, {r2, r3, r4, r5, r6, r7}
c:\stm32bluepill-mynewt-sensor/rust\app\src/lib.rs:68
        sensor::register_listener(sensor_driver, listener) ? ;
  a2:	4641      	mov	r1, r8
  a4:	e890 00fc 	ldmia.w	r0, {r2, r3, r4, r5, r6, r7}
  a8:	4650      	mov	r0, sl
  aa:	c1fc      	stmia	r1!, {r2, r3, r4, r5, r6, r7}
  ac:	4641      	mov	r1, r8
  ae:	f7ff fffe 	bl	0 <mynewt::hw::sensor::register_listener>
  b2:	4602      	mov	r2, r0
  b4:	2801      	cmp	r0, #1
  b6:	d001      	beq.n	bc <main+0xbc>
_ZN3app8on_start17h60b5837159dadfbbE():
c:\stm32bluepill-mynewt-sensor/rust\app\src/lib.rs:46
    start_sensor_listener(SENSOR_DEVICE, TEMP_SENSOR_KEY, TEMP_SENSOR_TYPE, SENSOR_POLL_TIME) ? ;
  b8:	2a01      	cmp	r2, #1
  ba:	d122      	bne.n	102 <main+0x102>
c:\stm32bluepill-mynewt-sensor/rust\app\src/lib.rs:48
    sensor_network::start_server_transport() ? ;
  bc:	f7ff fffe 	bl	0 <mynewt::libs::sensor_network::start_server_transport>
_ZN4core6result19Result$LT$T$C$E$GT$6expect17he221d172bcb480bfE():
/rustc/03ee55bb1c8c2379fdabf68e306186b390444f61/src/libcore/result.rs:826
  c0:	2801      	cmp	r0, #1
  c2:	d11d      	bne.n	100 <main+0x100>
main():
  c4:	ac0e      	add	r4, sp, #56	; 0x38
c:\stm32bluepill-mynewt-sensor/rust\app\src/lib.rs:127
        .expect("on_start fail");

    // Mynewt event loop
    loop {                         // Loop forever...
        os::eventq_run(            // Processing events...
            os::eventq_dflt_get()  // From default event queue
  c6:	4620      	mov	r0, r4
  c8:	f7ff fffe 	bl	0 <mynewt::kernel::os::eventq_dflt_get>
_ZN4core6result19Result$LT$T$C$E$GT$6expect17h3242bb854269c40bE():
/rustc/03ee55bb1c8c2379fdabf68e306186b390444f61/src/libcore/result.rs:826
  cc:	980e      	ldr	r0, [sp, #56]	; 0x38
  ce:	2801      	cmp	r0, #1
  d0:	d00d      	beq.n	ee <main+0xee>
  d2:	980f      	ldr	r0, [sp, #60]	; 0x3c
main():
c:\stm32bluepill-mynewt-sensor/rust\app\src/lib.rs:126
        os::eventq_run(            // Processing events...
  d4:	f7ff fffe 	bl	0 <mynewt::kernel::os::eventq_run>
_ZN4core6result19Result$LT$T$C$E$GT$6expect17he221d172bcb480bfE():
/rustc/03ee55bb1c8c2379fdabf68e306186b390444f61/src/libcore/result.rs:826
  d8:	2801      	cmp	r0, #1
  da:	d0f4      	beq.n	c6 <main+0xc6>
main():
  dc:	4602      	mov	r2, r0
_ZN4core6result19Result$LT$T$C$E$GT$6expect17he221d172bcb480bfE():
/rustc/03ee55bb1c8c2379fdabf68e306186b390444f61/src/libcore/result.rs:827
  de:	f240 0000 	movw	r0, #0
  e2:	f2c0 0000 	movt	r0, #0
main():
  e6:	2108      	movs	r1, #8
  e8:	f7ff fffe 	bl	0 <main>
  ec:	defe      	udf	#254	; 0xfe
_ZN4core6result19Result$LT$T$C$E$GT$6expect17h3242bb854269c40bE():
/rustc/03ee55bb1c8c2379fdabf68e306186b390444f61/src/libcore/result.rs:827
  ee:	f240 0000 	movw	r0, #0
  f2:	9a0f      	ldr	r2, [sp, #60]	; 0x3c
  f4:	f2c0 0000 	movt	r0, #0
main():
  f8:	2108      	movs	r1, #8
  fa:	f7ff fffe 	bl	0 <main>
  fe:	defe      	udf	#254	; 0xfe
 100:	4602      	mov	r2, r0
_ZN4core6result19Result$LT$T$C$E$GT$6expect17he221d172bcb480bfE():
/rustc/03ee55bb1c8c2379fdabf68e306186b390444f61/src/libcore/result.rs:827
 102:	f240 0000 	movw	r0, #0
 106:	210d      	movs	r1, #13
 108:	f2c0 0000 	movt	r0, #0
 10c:	f7ff fffe 	bl	0 <main>
 110:	defe      	udf	#254	; 0xfe

Disassembly of section .text.rust_begin_unwind:

00000000 <rust_begin_unwind>:
rust_begin_unwind():
c:\stm32bluepill-mynewt-sensor/rust\app\src/lib.rs:136
    // Never comes here
}

/// This function is called on panic, like an assertion failure. We display the filename and line number and pause in the debugger. From https://os.phil-opp.com/freestanding-rust-binary/
#[panic_handler]
fn panic(info: &PanicInfo) -> ! {
   0:	4604      	mov	r4, r0
c:\stm32bluepill-mynewt-sensor/rust\app\src/lib.rs:138
    // Display the filename and line number in the Semihosting Console
    console::print("panic ");
   2:	f240 0000 	movw	r0, #0
   6:	f2c0 0000 	movt	r0, #0
   a:	2106      	movs	r1, #6
   c:	f7ff fffe 	bl	0 <mynewt::sys::console::print>
c:\stm32bluepill-mynewt-sensor/rust\app\src/lib.rs:139
    if let Some(location) = info.location() {
  10:	4620      	mov	r0, r4
  12:	f7ff fffe 	bl	0 <core::panic::PanicInfo::location>
  16:	b318      	cbz	r0, 60 <rust_begin_unwind+0x60>
  18:	4604      	mov	r4, r0
c:\stm32bluepill-mynewt-sensor/rust\app\src/lib.rs:140
        let file = location.file();
  1a:	f7ff fffe 	bl	0 <core::panic::Location::file>
  1e:	4605      	mov	r5, r0
c:\stm32bluepill-mynewt-sensor/rust\app\src/lib.rs:141
        let line = location.line();
  20:	4620      	mov	r0, r4
c:\stm32bluepill-mynewt-sensor/rust\app\src/lib.rs:140
        let file = location.file();
  22:	460e      	mov	r6, r1
c:\stm32bluepill-mynewt-sensor/rust\app\src/lib.rs:141
        let line = location.line();
  24:	f7ff fffe 	bl	0 <core::panic::Location::line>
  28:	4604      	mov	r4, r0
c:\stm32bluepill-mynewt-sensor/rust\app\src/lib.rs:142
        console::print("at ");       console::buffer(&file);
  2a:	f240 0000 	movw	r0, #0
  2e:	f2c0 0000 	movt	r0, #0
  32:	2103      	movs	r1, #3
  34:	f7ff fffe 	bl	0 <mynewt::sys::console::print>
  38:	4628      	mov	r0, r5
  3a:	4631      	mov	r1, r6
  3c:	f7ff fffe 	bl	0 <mynewt::sys::console::buffer>
c:\stm32bluepill-mynewt-sensor/rust\app\src/lib.rs:143
        console::print(" line 0x");  console::printhex(line as u8);  // TODO: Print in decimal not hex. Allow more than 255 lines.
  40:	f240 0000 	movw	r0, #0
  44:	2108      	movs	r1, #8
  46:	f2c0 0000 	movt	r0, #0
  4a:	f7ff fffe 	bl	0 <mynewt::sys::console::print>
  4e:	4620      	mov	r0, r4
  50:	f7ff fffe 	bl	0 <mynewt::sys::console::printhex>
c:\stm32bluepill-mynewt-sensor/rust\app\src/lib.rs:144
        console::print("\n");       console::flush();
  54:	f240 0000 	movw	r0, #0
  58:	2101      	movs	r1, #1
  5a:	f2c0 0000 	movt	r0, #0
  5e:	e004      	b.n	c <rust_begin_unwind+0xc>
c:\stm32bluepill-mynewt-sensor/rust\app\src/lib.rs:146
    } else {
        console::print("no loc\n");  console::flush();
  60:	f240 0000 	movw	r0, #0
  64:	2107      	movs	r1, #7
  66:	f2c0 0000 	movt	r0, #0
  6a:	f7ff fffe 	bl	0 <mynewt::sys::console::print>
  6e:	f7ff fffe 	bl	0 <mynewt::sys::console::flush>
_ZN8cortex_m3asm4bkpt17h917bc03351fb7d73E():
C:\Users\guppy\.cargo\registry\src\github.com-1ecc6299db9ec823\cortex-m-0.6.0\src/asm.rs:19
        () => unsafe {
            extern "C" {
                fn __bkpt();
            }

            __bkpt();
  72:	f7ff fffe 	bl	0 <__bkpt>
rust_begin_unwind():
c:\stm32bluepill-mynewt-sensor/rust\app\src/lib.rs:151
    }
    // Pause in the debugger
    bkpt();
    //  Loop forever so that device won't restart
    loop {}
  76:	e7fe      	b.n	76 <rust_begin_unwind+0x76>

Disassembly of section .text._ZN3app18handle_sensor_data17hf2529d913b12669cE:

00000000 <app::handle_sensor_data>:
_ZN3app18handle_sensor_data17hf2529d913b12669cE():
c:\stm32bluepill-mynewt-sensor/rust\app\src/lib.rs:77
fn handle_sensor_data(sensor_data: _) -> MynewtResult<()> {
   0:	e92d 4ff0 	stmdb	sp!, {r4, r5, r6, r7, r8, r9, sl, fp, lr}
   4:	b08b      	sub	sp, #44	; 0x2c
   6:	4604      	mov	r4, r0
c:\stm32bluepill-mynewt-sensor/rust\app\src/lib.rs:78
    console::print("handle_sensor_data\n");
   8:	f240 0000 	movw	r0, #0
   c:	f2c0 0000 	movt	r0, #0
  10:	2113      	movs	r1, #19
  12:	f7ff fffe 	bl	0 <mynewt::sys::console::print>
_ZN3app16send_sensor_data17h5ea3238926bbf73bE():
c:\stm32bluepill-mynewt-sensor/rust\app\src/lib.rs:88
    console::print("send_sensor_data\n");
  16:	f240 0000 	movw	r0, #0
  1a:	2111      	movs	r1, #17
  1c:	f2c0 0000 	movt	r0, #0
  20:	f7ff fffe 	bl	0 <mynewt::sys::console::print>
  24:	a804      	add	r0, sp, #16
c:\stm32bluepill-mynewt-sensor/rust\app\src/lib.rs:90
    let device_id = &sensor_network::get_device_id() ? ;
  26:	f7ff fffe 	bl	0 <mynewt::libs::sensor_network::get_device_id>
_ZN73_$LT$core..result..Result$LT$T$C$E$GT$$u20$as$u20$core..ops..try..Try$GT$11into_result17h2d049bf40434495eE():
/rustc/03ee55bb1c8c2379fdabf68e306186b390444f61/src/libcore/result.rs:1283
  2a:	e9dd 1004 	ldrd	r1, r0, [sp, #16]
_ZN3app16send_sensor_data17h5ea3238926bbf73bE():
c:\stm32bluepill-mynewt-sensor/rust\app\src/lib.rs:90
  2e:	2901      	cmp	r1, #1
  30:	f000 80fa 	beq.w	228 <app::handle_sensor_data+0x228>
  34:	e9dd 1206 	ldrd	r1, r2, [sp, #24]
  38:	ab01      	add	r3, sp, #4
  3a:	c307      	stmia	r3!, {r0, r1, r2}
c:\stm32bluepill-mynewt-sensor/rust\app\src/lib.rs:92
    let network_ready = sensor_network::init_server_post(DEFAULT_URI) ? ;
  3c:	f240 0100 	movw	r1, #0
  40:	a804      	add	r0, sp, #16
  42:	f2c0 0100 	movt	r1, #0
  46:	f7ff fffe 	bl	0 <mynewt::libs::sensor_network::init_server_post>
_ZN73_$LT$core..result..Result$LT$T$C$E$GT$$u20$as$u20$core..ops..try..Try$GT$11into_result17hb8a7c4fdc374ef24E():
/rustc/03ee55bb1c8c2379fdabf68e306186b390444f61/src/libcore/result.rs:1283
  4a:	9804      	ldr	r0, [sp, #16]
  4c:	b2c1      	uxtb	r1, r0
_ZN3app16send_sensor_data17h5ea3238926bbf73bE():
c:\stm32bluepill-mynewt-sensor/rust\app\src/lib.rs:92
  4e:	2901      	cmp	r1, #1
  50:	f000 80d4 	beq.w	1fc <app::handle_sensor_data+0x1fc>
c:\stm32bluepill-mynewt-sensor/rust\app\src/lib.rs:95
    if network_ready {
  54:	f410 4f7f 	tst.w	r0, #65280	; 0xff00
  58:	f000 80e5 	beq.w	226 <app::handle_sensor_data+0x226>
  5c:	a804      	add	r0, sp, #16
c:\stm32bluepill-mynewt-sensor/rust\app\src/lib.rs:99
        let _payload = coap!( @json {
  5e:	2132      	movs	r1, #50	; 0x32
  60:	f7ff fffe 	bl	0 <mynewt::libs::sensor_network::prepare_post>
_ZN73_$LT$core..result..Result$LT$T$C$E$GT$$u20$as$u20$core..ops..try..Try$GT$11into_result17hb8a7c4fdc374ef24E():
/rustc/03ee55bb1c8c2379fdabf68e306186b390444f61/src/libcore/result.rs:1283
  64:	f89d 0010 	ldrb.w	r0, [sp, #16]
_ZN3app16send_sensor_data17h5ea3238926bbf73bE():
c:\stm32bluepill-mynewt-sensor/rust\app\src/lib.rs:99
  68:	2801      	cmp	r0, #1
  6a:	f000 80c7 	beq.w	1fc <app::handle_sensor_data+0x1fc>
  6e:	f7ff fffe 	bl	0 <json_rep_start_root_object>
  72:	f240 0500 	movw	r5, #0
  76:	f2c0 0500 	movt	r5, #0
  7a:	4628      	mov	r0, r5
  7c:	f7ff fffe 	bl	0 <mynewt::encoding::coap_context::CoapContext::to_void_ptr>
  80:	f240 0100 	movw	r1, #0
  84:	4606      	mov	r6, r0
  86:	f2c0 0100 	movt	r1, #0
  8a:	4628      	mov	r0, r5
  8c:	2207      	movs	r2, #7
  8e:	f7ff fffe 	bl	0 <mynewt::encoding::coap_context::CoapContext::key_to_cstr>
  92:	4601      	mov	r1, r0
  94:	4630      	mov	r0, r6
  96:	f7ff fffe 	bl	0 <json_helper_set_array>
  9a:	f240 0800 	movw	r8, #0
  9e:	4628      	mov	r0, r5
  a0:	f2c0 0800 	movt	r8, #0
  a4:	220d      	movs	r2, #13
  a6:	4641      	mov	r1, r8
  a8:	f7ff fffe 	bl	0 <mynewt::encoding::coap_context::CoapContext::key_to_cstr>
  ac:	f7ff fffe 	bl	0 <json_helper_object_array_start_item>
  b0:	af08      	add	r7, sp, #32
  b2:	f240 0100 	movw	r1, #0
  b6:	f2c0 0100 	movt	r1, #0
  ba:	2204      	movs	r2, #4
  bc:	4638      	mov	r0, r7
  be:	f7ff fffe 	bl	0 <mynewt::Strn::new>
  c2:	ae04      	add	r6, sp, #16
  c4:	f240 0100 	movw	r1, #0
  c8:	f2c0 0100 	movt	r1, #0
  cc:	2207      	movs	r2, #7
  ce:	4630      	mov	r0, r6
  d0:	f7ff fffe 	bl	0 <mynewt::Strn::new>
  d4:	4628      	mov	r0, r5
  d6:	4639      	mov	r1, r7
  d8:	4632      	mov	r2, r6
  da:	f7ff fffe 	bl	0 <mynewt::encoding::coap_context::CoapContext::json_set_text_string>
  de:	ae04      	add	r6, sp, #16
  e0:	f240 0100 	movw	r1, #0
  e4:	f2c0 0100 	movt	r1, #0
  e8:	2206      	movs	r2, #6
  ea:	4630      	mov	r0, r6
  ec:	f7ff fffe 	bl	0 <mynewt::Strn::new>
  f0:	aa01      	add	r2, sp, #4
  f2:	4628      	mov	r0, r5
  f4:	4631      	mov	r1, r6
  f6:	f7ff fffe 	bl	0 <mynewt::encoding::coap_context::CoapContext::json_set_text_string>
  fa:	4628      	mov	r0, r5
  fc:	4641      	mov	r1, r8
  fe:	220d      	movs	r2, #13
 100:	f7ff fffe 	bl	0 <mynewt::encoding::coap_context::CoapContext::key_to_cstr>
 104:	f7ff fffe 	bl	0 <json_helper_object_array_end_item>
 108:	6860      	ldr	r0, [r4, #4]
 10a:	2801      	cmp	r0, #1
 10c:	d152      	bne.n	1b4 <app::handle_sensor_data+0x1b4>
 10e:	f240 0a00 	movw	sl, #0
 112:	f240 0800 	movw	r8, #0
 116:	f2c0 0a00 	movt	sl, #0
 11a:	f2c0 0800 	movt	r8, #0
 11e:	4650      	mov	r0, sl
 120:	4641      	mov	r1, r8
 122:	220d      	movs	r2, #13
 124:	f8d4 9008 	ldr.w	r9, [r4, #8]
 128:	f7ff fffe 	bl	0 <mynewt::encoding::coap_context::CoapContext::key_to_cstr>
 12c:	f7ff fffe 	bl	0 <json_helper_object_array_start_item>
 130:	f240 0000 	movw	r0, #0
 134:	2103      	movs	r1, #3
 136:	f2c0 0000 	movt	r0, #0
 13a:	f7ff fffe 	bl	0 <<str as mynewt::encoding::coap_context::ToBytesOptionalNull>::to_bytes_optional_nul>
 13e:	4606      	mov	r6, r0
 140:	6820      	ldr	r0, [r4, #0]
 142:	460f      	mov	r7, r1
 144:	f7ff fffe 	bl	0 <<mynewt::Strn as mynewt::encoding::coap_context::ToBytesOptionalNull>::to_bytes_optional_nul>
 148:	4604      	mov	r4, r0
 14a:	4650      	mov	r0, sl
 14c:	460d      	mov	r5, r1
 14e:	f7ff fffe 	bl	0 <mynewt::encoding::coap_context::CoapContext::to_void_ptr>
 152:	4683      	mov	fp, r0
 154:	4650      	mov	r0, sl
 156:	4631      	mov	r1, r6
 158:	463a      	mov	r2, r7
 15a:	f7ff fffe 	bl	0 <mynewt::encoding::coap_context::CoapContext::key_to_cstr>
 15e:	4606      	mov	r6, r0
 160:	4650      	mov	r0, sl
 162:	4621      	mov	r1, r4
 164:	462a      	mov	r2, r5
 166:	f7ff fffe 	bl	0 <mynewt::encoding::coap_context::CoapContext::value_to_cstr>
 16a:	4602      	mov	r2, r0
 16c:	4658      	mov	r0, fp
 16e:	4631      	mov	r1, r6
 170:	f7ff fffe 	bl	0 <json_helper_set_text_string>
 174:	f240 0000 	movw	r0, #0
 178:	2105      	movs	r1, #5
 17a:	f2c0 0000 	movt	r0, #0
 17e:	f7ff fffe 	bl	0 <<str as mynewt::encoding::coap_context::ToBytesOptionalNull>::to_bytes_optional_nul>
 182:	4604      	mov	r4, r0
 184:	4650      	mov	r0, sl
 186:	460d      	mov	r5, r1
 188:	f7ff fffe 	bl	0 <mynewt::encoding::coap_context::CoapContext::to_void_ptr>
 18c:	4606      	mov	r6, r0
 18e:	4650      	mov	r0, sl
 190:	4621      	mov	r1, r4
 192:	462a      	mov	r2, r5
 194:	f7ff fffe 	bl	0 <mynewt::encoding::coap_context::CoapContext::key_to_cstr>
 198:	4601      	mov	r1, r0
 19a:	4630      	mov	r0, r6
 19c:	464a      	mov	r2, r9
 19e:	2300      	movs	r3, #0
 1a0:	f7ff fffe 	bl	0 <json_helper_set_int>
 1a4:	4650      	mov	r0, sl
 1a6:	4641      	mov	r1, r8
 1a8:	220d      	movs	r2, #13
 1aa:	f7ff fffe 	bl	0 <mynewt::encoding::coap_context::CoapContext::key_to_cstr>
 1ae:	f7ff fffe 	bl	0 <json_helper_object_array_end_item>
 1b2:	e006      	b.n	10 <mynewt::encoding::coap_context::COAP_CONTEXT+0x10>
 1b4:	f240 0000 	movw	r0, #0
 1b8:	2101      	movs	r1, #1
 1ba:	f2c0 0000 	movt	r0, #0
 1be:	f7ff fffe 	bl	0 <mynewt::encoding::coap_context::CoapContext::fail>
 1c2:	f240 0400 	movw	r4, #0
 1c6:	f2c0 0400 	movt	r4, #0
 1ca:	4620      	mov	r0, r4
 1cc:	f7ff fffe 	bl	0 <mynewt::encoding::coap_context::CoapContext::to_void_ptr>
 1d0:	f240 0100 	movw	r1, #0
 1d4:	4605      	mov	r5, r0
 1d6:	f2c0 0100 	movt	r1, #0
 1da:	4620      	mov	r0, r4
 1dc:	2207      	movs	r2, #7
 1de:	f7ff fffe 	bl	0 <mynewt::encoding::coap_context::CoapContext::key_to_cstr>
 1e2:	4601      	mov	r1, r0
 1e4:	4628      	mov	r0, r5
 1e6:	f7ff fffe 	bl	0 <json_helper_close_array>
 1ea:	f7ff fffe 	bl	0 <json_rep_end_root_object>
 1ee:	a804      	add	r0, sp, #16
c:\stm32bluepill-mynewt-sensor/rust\app\src/lib.rs:105
        sensor_network::do_server_post() ? ;
 1f0:	f7ff fffe 	bl	0 <mynewt::libs::sensor_network::do_server_post>
_ZN73_$LT$core..result..Result$LT$T$C$E$GT$$u20$as$u20$core..ops..try..Try$GT$11into_result17hb8a7c4fdc374ef24E():
/rustc/03ee55bb1c8c2379fdabf68e306186b390444f61/src/libcore/result.rs:1283
 1f4:	f89d 0010 	ldrb.w	r0, [sp, #16]
_ZN3app16send_sensor_data17h5ea3238926bbf73bE():
c:\stm32bluepill-mynewt-sensor/rust\app\src/lib.rs:105
 1f8:	2801      	cmp	r0, #1
 1fa:	d103      	bne.n	204 <app::handle_sensor_data+0x204>
_ZN3app18handle_sensor_data17hf2529d913b12669cE():
 1fc:	9805      	ldr	r0, [sp, #20]
 1fe:	b00b      	add	sp, #44	; 0x2c
 200:	e8bd 8ff0 	ldmia.w	sp!, {r4, r5, r6, r7, r8, r9, sl, fp, pc}
_ZN3app16send_sensor_data17h5ea3238926bbf73bE():
c:\stm32bluepill-mynewt-sensor/rust\app\src/lib.rs:107
        console::print("View your sensor at https://blue-pill-geolocate.appspot.com?device=");
 204:	f240 0000 	movw	r0, #0
 208:	2143      	movs	r1, #67	; 0x43
 20a:	f2c0 0000 	movt	r0, #0
 20e:	f7ff fffe 	bl	0 <mynewt::sys::console::print>
 212:	a801      	add	r0, sp, #4
c:\stm32bluepill-mynewt-sensor/rust\app\src/lib.rs:108
        console::print_strn(device_id);
 214:	f7ff fffe 	bl	0 <mynewt::sys::console::print_strn>
c:\stm32bluepill-mynewt-sensor/rust\app\src/lib.rs:109
        console::print("\n");
 218:	f240 0000 	movw	r0, #0
 21c:	2101      	movs	r1, #1
 21e:	f2c0 0000 	movt	r0, #0
 222:	f7ff fffe 	bl	0 <mynewt::sys::console::print>
_ZN3app18handle_sensor_data17hf2529d913b12669cE():
c:\stm32bluepill-mynewt-sensor/rust\app\src/lib.rs:82
}
 226:	2001      	movs	r0, #1
 228:	b00b      	add	sp, #44	; 0x2c
 22a:	e8bd 8ff0 	ldmia.w	sp!, {r4, r5, r6, r7, r8, r9, sl, fp, pc}
arm-none-eabi-objdump: rust.metadata.bin: File format not recognized
arm-none-eabi-objdump: app-7da95246e43bf8c3.app.7srcpc5i-cgu.0.rcgu.bc.z: File format not recognized
