In archive target/thumbv7em-none-eabihf/release/libapp.rlib:

app-3c6db803b2a68304.app.ckcqlk7k-cgu.0.rcgu.o:     file format elf32-littlearm

SYMBOL TABLE:
00000000 l    df *ABS*	00000000 app.ckcqlk7k-cgu.0
00009e8f l       .debug_str	00000000 
0000a0bb l       .debug_str	00000000 
0000a0de l       .debug_str	00000000 
0000a0f0 l       .debug_str	00000000 
0000a125 l       .debug_str	00000000 
0000a167 l       .debug_str	00000000 
0000a1b1 l       .debug_str	00000000 
0000a1b5 l       .debug_str	00000000 
0000a1bf l       .debug_str	00000000 
0000a1d1 l       .debug_str	00000000 
0000a206 l       .debug_str	00000000 
0000a248 l       .debug_str	00000000 
0000a292 l       .debug_str	00000000 
0000a297 l       .debug_str	00000000 
0000a2a1 l       .debug_str	00000000 
0000a2b3 l       .debug_str	00000000 
0000a2e8 l       .debug_str	00000000 
0000a32a l       .debug_str	00000000 
0000a374 l       .debug_str	00000000 
0000a388 l       .debug_str	00000000 
0000a396 l       .debug_str	00000000 
0000a3a6 l       .debug_str	00000000 
0000a3af l       .debug_str	00000000 
0000a3ba l       .debug_str	00000000 
0000a3c9 l       .debug_str	00000000 
0000a3de l       .debug_str	00000000 
0000a40f l       .debug_str	00000000 
0000a4ac l       .debug_str	00000000 
0000a551 l       .debug_str	00000000 
0000a55c l       .debug_str	00000000 
0000a565 l       .debug_str	00000000 
0000a586 l       .debug_str	00000000 
0000a599 l       .debug_str	00000000 
0000a5cf l       .debug_str	00000000 
0000a652 l       .debug_str	00000000 
0000a6dd l       .debug_str	00000000 
0000a6f9 l       .debug_str	00000000 
0000a745 l       .debug_str	00000000 
0000a799 l       .debug_str	00000000 
0000a7b6 l       .debug_str	00000000 
0000a7ca l       .debug_str	00000000 
0000a816 l       .debug_str	00000000 
0000a86a l       .debug_str	00000000 
0000a880 l       .debug_str	00000000 
0000a894 l       .debug_str	00000000 
0000a8db l       .debug_str	00000000 
0000a92a l       .debug_str	00000000 
0000a933 l       .debug_str	00000000 
0000a941 l       .debug_str	00000000 
0000a972 l       .debug_str	00000000 
0000a978 l       .debug_str	00000000 
0000a980 l       .debug_str	00000000 
0000a987 l       .debug_str	00000000 
0000a98f l       .debug_str	00000000 
0000a99a l       .debug_str	00000000 
0000a9a2 l       .debug_str	00000000 
0000a9b1 l       .debug_str	00000000 
0000a9b5 l       .debug_str	00000000 
0000a9c0 l       .debug_str	00000000 
0000a9cc l       .debug_str	00000000 
0000a9d7 l       .debug_str	00000000 
0000a9e8 l       .debug_str	00000000 
0000a9ee l       .debug_str	00000000 
0000a9f6 l       .debug_str	00000000 
0000a9fd l       .debug_str	00000000 
0000aa07 l       .debug_str	00000000 
0000aa0f l       .debug_str	00000000 
0000aa17 l       .debug_str	00000000 
0000aa39 l       .debug_str	00000000 
0000aa44 l       .debug_str	00000000 
0000aa50 l       .debug_str	00000000 
0000aa58 l       .debug_str	00000000 
0000aa61 l       .debug_str	00000000 
0000aa6c l       .debug_str	00000000 
0000aa73 l       .debug_str	00000000 
0000aa7e l       .debug_str	00000000 
0000aa89 l       .debug_str	00000000 
0000aa99 l       .debug_str	00000000 
0000aaa9 l       .debug_str	00000000 
0000aab8 l       .debug_str	00000000 
0000aac0 l       .debug_str	00000000 
0000aac7 l       .debug_str	00000000 
0000aacf l       .debug_str	00000000 
0000aaed l       .debug_str	00000000 
0000aafd l       .debug_str	00000000 
0000ab30 l       .debug_str	00000000 
0000ab45 l       .debug_str	00000000 
0000ab4e l       .debug_str	00000000 
0000abab l       .debug_str	00000000 
0000ac10 l       .debug_str	00000000 
0000ac1a l       .debug_str	00000000 
0000ac2a l       .debug_str	00000000 
0000ac3f l       .debug_str	00000000 
0000ac47 l       .debug_str	00000000 
0000acab l       .debug_str	00000000 
0000ad17 l       .debug_str	00000000 
0000ad1e l       .debug_str	00000000 
0000ad26 l       .debug_str	00000000 
0000ad44 l       .debug_str	00000000 
0000ad54 l       .debug_str	00000000 
0000ad87 l       .debug_str	00000000 
0000ad9c l       .debug_str	00000000 
0000adaf l       .debug_str	00000000 
0000adc4 l       .debug_str	00000000 
0000adcb l       .debug_str	00000000 
0000ade0 l       .debug_str	00000000 
0000ae0a l       .debug_str	00000000 
0000ae13 l       .debug_str	00000000 
0000ae45 l       .debug_str	00000000 
0000ae81 l       .debug_str	00000000 
0000aeb3 l       .debug_str	00000000 
0000af23 l       .debug_str	00000000 
0000af7a l       .debug_str	00000000 
0000afcd l       .debug_str	00000000 
0000b00b l       .debug_str	00000000 
0000b01e l       .debug_str	00000000 
0000b027 l       .debug_str	00000000 
0000b02c l       .debug_str	00000000 
0000b036 l       .debug_str	00000000 
0000b03c l       .debug_str	00000000 
0000b052 l       .debug_str	00000000 
0000b091 l       .debug_str	00000000 
0000b0ba l       .debug_str	00000000 
0000b0c1 l       .debug_str	00000000 
0000b0cd l       .debug_str	00000000 
0000b10d l       .debug_str	00000000 
0000b132 l       .debug_str	00000000 
0000b13b l       .debug_str	00000000 
0000b13f l       .debug_str	00000000 
0000b169 l       .debug_str	00000000 
0000b16e l       .debug_str	00000000 
0000b1af l       .debug_str	00000000 
0000b1b8 l       .debug_str	00000000 
0000b1bd l       .debug_str	00000000 
0000b1c6 l       .debug_str	00000000 
0000b212 l       .debug_str	00000000 
0000b225 l       .debug_str	00000000 
0000b233 l       .debug_str	00000000 
0000b296 l       .debug_str	00000000 
0000b2d2 l       .debug_str	00000000 
0000b2e0 l       .debug_str	00000000 
0000b341 l       .debug_str	00000000 
0000b3ab l       .debug_str	00000000 
0000b40c l       .debug_str	00000000 
0000b46f l       .debug_str	00000000 
0000b4ef l       .debug_str	00000000 
0000b5a5 l       .debug_str	00000000 
0000b5b6 l       .debug_str	00000000 
0000b66e l       .debug_str	00000000 
0000b681 l       .debug_str	00000000 
0000b730 l       .debug_str	00000000 
0000b73b l       .debug_str	00000000 
0000b783 l       .debug_str	00000000 
0000b7ac l       .debug_str	00000000 
0000b7d7 l       .debug_str	00000000 
0000b7e0 l       .debug_str	00000000 
0000b811 l       .debug_str	00000000 
0000b83c l       .debug_str	00000000 
0000b86d l       .debug_str	00000000 
0000b89e l       .debug_str	00000000 
0000b8cf l       .debug_str	00000000 
0000b910 l       .debug_str	00000000 
0000b941 l       .debug_str	00000000 
0000b960 l       .debug_str	00000000 
0000b991 l       .debug_str	00000000 
0000ba8e l       .debug_str	00000000 
0000baa7 l       .debug_str	00000000 
0000baac l       .debug_str	00000000 
0000bae7 l       .debug_str	00000000 
0000bb13 l       .debug_str	00000000 
0000bb17 l       .debug_str	00000000 
0000bb4f l       .debug_str	00000000 
0000bb8a l       .debug_str	00000000 
0000bbd5 l       .debug_str	00000000 
0000bc0a l       .debug_str	00000000 
0000bc43 l       .debug_str	00000000 
0000bc78 l       .debug_str	00000000 
0000bcad l       .debug_str	00000000 
0000bce2 l       .debug_str	00000000 
0000bded l       .debug_str	00000000 
0000be22 l       .debug_str	00000000 
0000be3c l       .debug_str	00000000 
0000be71 l       .debug_str	00000000 
0000bebb l       .debug_str	00000000 
0000bef0 l       .debug_str	00000000 
0000bfbe l       .debug_str	00000000 
0000c044 l       .debug_str	00000000 
0000c07b l       .debug_str	00000000 
0000c0ae l       .debug_str	00000000 
0000c0f9 l       .debug_str	00000000 
0000c0fb l       .debug_str	00000000 
0000c12e l       .debug_str	00000000 
0000c169 l       .debug_str	00000000 
0000c19c l       .debug_str	00000000 
0000c1c5 l       .debug_str	00000000 
0000c1f8 l       .debug_str	00000000 
0000c22d l       .debug_str	00000000 
0000c26d l       .debug_str	00000000 
0000c294 l       .debug_str	00000000 
0000c2d4 l       .debug_str	00000000 
0000c31b l       .debug_str	00000000 
0000c35b l       .debug_str	00000000 
0000c369 l       .debug_str	00000000 
0000c3c1 l       .debug_str	00000000 
0000c4bf l       .debug_str	00000000 
0000c515 l       .debug_str	00000000 
0000c56b l       .debug_str	00000000 
0000c668 l       .debug_str	00000000 
0000c6b9 l       .debug_str	00000000 
0000c6d9 l       .debug_str	00000000 
0000c72a l       .debug_str	00000000 
0000c77f l       .debug_str	00000000 
0000c7d0 l       .debug_str	00000000 
0000c80a l       .debug_str	00000000 
0000c80e l       .debug_str	00000000 
0000c812 l       .debug_str	00000000 
0000c86b l       .debug_str	00000000 
0000c899 l       .debug_str	00000000 
0000c8ee l       .debug_str	00000000 
0000c909 l       .debug_str	00000000 
0000c94b l       .debug_str	00000000 
0000c98f l       .debug_str	00000000 
0000c9dd l       .debug_str	00000000 
0000c9ed l       .debug_str	00000000 
0000ca3a l       .debug_str	00000000 
0000ca8a l       .debug_str	00000000 
0000ca98 l       .debug_str	00000000 
0000cae9 l       .debug_str	00000000 
0000caf8 l       .debug_str	00000000 
0000cb47 l       .debug_str	00000000 
0000cb55 l       .debug_str	00000000 
0000cb8f l       .debug_str	00000000 
0000cbc1 l       .debug_str	00000000 
0000cc0a l       .debug_str	00000000 
0000cc3b l       .debug_str	00000000 
0000cc84 l       .debug_str	00000000 
0000ccb4 l       .debug_str	00000000 
0000cd03 l       .debug_str	00000000 
0000cd39 l       .debug_str	00000000 
0000cd7c l       .debug_str	00000000 
0000cda7 l       .debug_str	00000000 
0000cdea l       .debug_str	00000000 
0000ce1a l       .debug_str	00000000 
0000ce5d l       .debug_str	00000000 
0000ce6f l       .debug_str	00000000 
0000ceb0 l       .debug_str	00000000 
0000cebe l       .debug_str	00000000 
0000cf05 l       .debug_str	00000000 
0000cf2f l       .debug_str	00000000 
0000cf93 l       .debug_str	00000000 
0000d08c l       .debug_str	00000000 
0000d0f8 l       .debug_str	00000000 
0000d1dc l       .debug_str	00000000 
0000d242 l       .debug_str	00000000 
0000d26a l       .debug_str	00000000 
0000d2d2 l       .debug_str	00000000 
0000d377 l       .debug_str	00000000 
0000d3e1 l       .debug_str	00000000 
0000d3ea l       .debug_str	00000000 
0000d459 l       .debug_str	00000000 
0000d466 l       .debug_str	00000000 
0000d4d2 l       .debug_str	00000000 
0000d53f l       .debug_str	00000000 
0000d5af l       .debug_str	00000000 
0000d5bb l       .debug_str	00000000 
0000d62c l       .debug_str	00000000 
0000d639 l       .debug_str	00000000 
0000d640 l       .debug_str	00000000 
0000d646 l       .debug_str	00000000 
0000d656 l       .debug_str	00000000 
0000d6c6 l       .debug_str	00000000 
0000d739 l       .debug_str	00000000 
0000d817 l       .debug_str	00000000 
0000d852 l       .debug_str	00000000 
0000d92e l       .debug_str	00000000 
0000d96a l       .debug_str	00000000 
0000da47 l       .debug_str	00000000 
0000da83 l       .debug_str	00000000 
0000db28 l       .debug_str	00000000 
0000db64 l       .debug_str	00000000 
0000dbf9 l       .debug_str	00000000 
0000dc4f l       .debug_str	00000000 
0000dd11 l       .debug_str	00000000 
0000dd67 l       .debug_str	00000000 
0000de61 l       .debug_str	00000000 
0000deed l       .debug_str	00000000 
0000df8f l       .debug_str	00000000 
0000e00d l       .debug_str	00000000 
0000e08b l       .debug_str	00000000 
0000e109 l       .debug_str	00000000 
0000e1ea l       .debug_str	00000000 
0000e1f9 l       .debug_str	00000000 
0000e277 l       .debug_str	00000000 
0000e2f6 l       .debug_str	00000000 
0000e3d8 l       .debug_str	00000000 
0000e457 l       .debug_str	00000000 
0000e4d9 l       .debug_str	00000000 
0000e5ba l       .debug_str	00000000 
0000e63c l       .debug_str	00000000 
0000e6d5 l       .debug_str	00000000 
0000e757 l       .debug_str	00000000 
0000e800 l       .debug_str	00000000 
0000e881 l       .debug_str	00000000 
0000e92b l       .debug_str	00000000 
0000e9a9 l       .debug_str	00000000 
0000ea27 l       .debug_str	00000000 
0000eacc l       .debug_str	00000000 
0000eb10 l       .debug_str	00000000 
0000eb50 l       .debug_str	00000000 
0000eb66 l       .debug_str	00000000 
0000eba9 l       .debug_str	00000000 
0000ebc1 l       .debug_str	00000000 
0000ec01 l       .debug_str	00000000 
0000ec16 l       .debug_str	00000000 
0000ec44 l       .debug_str	00000000 
0000ec49 l       .debug_str	00000000 
0000ec5b l       .debug_str	00000000 
0000ec61 l       .debug_str	00000000 
0000ecbf l       .debug_str	00000000 
0000ecc6 l       .debug_str	00000000 
0000eced l       .debug_str	00000000 
0000ed18 l       .debug_str	00000000 
0000ed3e l       .debug_str	00000000 
0000ed65 l       .debug_str	00000000 
0000edd9 l       .debug_str	00000000 
0000ee53 l       .debug_str	00000000 
0000ee90 l       .debug_str	00000000 
0000ef1a l       .debug_str	00000000 
0000ef35 l       .debug_str	00000000 
0000ef9d l       .debug_str	00000000 
0000efc7 l       .debug_str	00000000 
0000efed l       .debug_str	00000000 
0000f0e9 l       .debug_str	00000000 
0000f0f4 l       .debug_str	00000000 
0000f12f l       .debug_str	00000000 
0000f137 l       .debug_str	00000000 
0000f140 l       .debug_str	00000000 
0000f147 l       .debug_str	00000000 
0000f152 l       .debug_str	00000000 
0000f15d l       .debug_str	00000000 
0000f184 l       .debug_str	00000000 
0000f1b4 l       .debug_str	00000000 
0000f1be l       .debug_str	00000000 
0000f1c9 l       .debug_str	00000000 
0000f1d0 l       .debug_str	00000000 
0000f1d7 l       .debug_str	00000000 
0000f1e0 l       .debug_str	00000000 
0000f1eb l       .debug_str	00000000 
0000f1f8 l       .debug_str	00000000 
0000f202 l       .debug_str	00000000 
0000f22f l       .debug_str	00000000 
0000f239 l       .debug_str	00000000 
0000f242 l       .debug_str	00000000 
0000f24e l       .debug_str	00000000 
0000f253 l       .debug_str	00000000 
0000f277 l       .debug_str	00000000 
0000f27d l       .debug_str	00000000 
0000f289 l       .debug_str	00000000 
0000f294 l       .debug_str	00000000 
0000f299 l       .debug_str	00000000 
0000f29d l       .debug_str	00000000 
0000f38e l       .debug_str	00000000 
0000f394 l       .debug_str	00000000 
0000f399 l       .debug_str	00000000 
0000f4a9 l       .debug_str	00000000 
0000f5b5 l       .debug_str	00000000 
0000f6bd l       .debug_str	00000000 
0000f6ca l       .debug_str	00000000 
0000f6ce l       .debug_str	00000000 
0000f6d4 l       .debug_str	00000000 
0000f6db l       .debug_str	00000000 
0000f6df l       .debug_str	00000000 
0000f6e4 l       .debug_str	00000000 
0000f6ec l       .debug_str	00000000 
0000f6f4 l       .debug_str	00000000 
0000f712 l       .debug_str	00000000 
0000f71b l       .debug_str	00000000 
0000f720 l       .debug_str	00000000 
0000f725 l       .debug_str	00000000 
0000f72e l       .debug_str	00000000 
0000f738 l       .debug_str	00000000 
0000f750 l       .debug_str	00000000 
00000000 l       .debug_str	00000000 
00000041 l       .debug_str	00000000 
00000055 l       .debug_str	00000000 
00000085 l       .debug_str	00000000 
0000008c l       .debug_str	00000000 
00000098 l       .debug_str	00000000 
000000a1 l       .debug_str	00000000 
000000aa l       .debug_str	00000000 
000000b1 l       .debug_str	00000000 
000000be l       .debug_str	00000000 
000000c7 l       .debug_str	00000000 
000000ce l       .debug_str	00000000 
000000d2 l       .debug_str	00000000 
000000d4 l       .debug_str	00000000 
000000d8 l       .debug_str	00000000 
000000df l       .debug_str	00000000 
000000e4 l       .debug_str	00000000 
000000e8 l       .debug_str	00000000 
000000ef l       .debug_str	00000000 
000000f2 l       .debug_str	00000000 
000000f8 l       .debug_str	00000000 
00000106 l       .debug_str	00000000 
0000010b l       .debug_str	00000000 
00000113 l       .debug_str	00000000 
0000011b l       .debug_str	00000000 
0000011e l       .debug_str	00000000 
00000120 l       .debug_str	00000000 
00000122 l       .debug_str	00000000 
0000013e l       .debug_str	00000000 
00000146 l       .debug_str	00000000 
0000014d l       .debug_str	00000000 
0000015d l       .debug_str	00000000 
000001a2 l       .debug_str	00000000 
0000020f l       .debug_str	00000000 
000002a5 l       .debug_str	00000000 
00000364 l       .debug_str	00000000 
0000036c l       .debug_str	00000000 
00000371 l       .debug_str	00000000 
00000377 l       .debug_str	00000000 
0000037b l       .debug_str	00000000 
0000037f l       .debug_str	00000000 
00000382 l       .debug_str	00000000 
000003ab l       .debug_str	00000000 
000003e1 l       .debug_str	00000000 
000003e3 l       .debug_str	00000000 
00000410 l       .debug_str	00000000 
00000413 l       .debug_str	00000000 
00000463 l       .debug_str	00000000 
000004c0 l       .debug_str	00000000 
00000514 l       .debug_str	00000000 
0000058b l       .debug_str	00000000 
0000060f l       .debug_str	00000000 
0000068a l       .debug_str	00000000 
00000728 l       .debug_str	00000000 
000007d3 l       .debug_str	00000000 
00000875 l       .debug_str	00000000 
0000093a l       .debug_str	00000000 
00000a0c l       .debug_str	00000000 
00000ad5 l       .debug_str	00000000 
00000bbf l       .debug_str	00000000 
00000cc6 l       .debug_str	00000000 
00000dcc l       .debug_str	00000000 
00000dd0 l       .debug_str	00000000 
00000dd6 l       .debug_str	00000000 
00000dd8 l       .debug_str	00000000 
00000ed6 l       .debug_str	00000000 
00000fd7 l       .debug_str	00000000 
00000fd9 l       .debug_str	00000000 
000010b9 l       .debug_str	00000000 
000011b0 l       .debug_str	00000000 
000011b9 l       .debug_str	00000000 
000011c3 l       .debug_str	00000000 
000011ca l       .debug_str	00000000 
000011cf l       .debug_str	00000000 
000011d5 l       .debug_str	00000000 
000011db l       .debug_str	00000000 
000011e8 l       .debug_str	00000000 
000011ec l       .debug_str	00000000 
000011f1 l       .debug_str	00000000 
000011f5 l       .debug_str	00000000 
000011f9 l       .debug_str	00000000 
0000120a l       .debug_str	00000000 
0000131a l       .debug_str	00000000 
00001329 l       .debug_str	00000000 
0000134e l       .debug_str	00000000 
00001352 l       .debug_str	00000000 
0000135d l       .debug_str	00000000 
0000136b l       .debug_str	00000000 
00001372 l       .debug_str	00000000 
00001376 l       .debug_str	00000000 
0000137e l       .debug_str	00000000 
00001384 l       .debug_str	00000000 
00001389 l       .debug_str	00000000 
00001391 l       .debug_str	00000000 
00001396 l       .debug_str	00000000 
000013cd l       .debug_str	00000000 
000013da l       .debug_str	00000000 
000013e6 l       .debug_str	00000000 
000013ea l       .debug_str	00000000 
000013ee l       .debug_str	00000000 
000013f2 l       .debug_str	00000000 
000013f7 l       .debug_str	00000000 
0000142e l       .debug_str	00000000 
0000143a l       .debug_str	00000000 
00001440 l       .debug_str	00000000 
00001477 l       .debug_str	00000000 
00001482 l       .debug_str	00000000 
0000148a l       .debug_str	00000000 
0000148c l       .debug_str	00000000 
00001490 l       .debug_str	00000000 
00001492 l       .debug_str	00000000 
00001499 l       .debug_str	00000000 
000014a0 l       .debug_str	00000000 
000014a9 l       .debug_str	00000000 
000014ae l       .debug_str	00000000 
000014b8 l       .debug_str	00000000 
000014cc l       .debug_str	00000000 
000014d2 l       .debug_str	00000000 
000014dc l       .debug_str	00000000 
000014eb l       .debug_str	00000000 
00001521 l       .debug_str	00000000 
00001525 l       .debug_str	00000000 
00001553 l       .debug_str	00000000 
0000155f l       .debug_str	00000000 
00001566 l       .debug_str	00000000 
00001569 l       .debug_str	00000000 
00001573 l       .debug_str	00000000 
00001579 l       .debug_str	00000000 
00001580 l       .debug_str	00000000 
00001585 l       .debug_str	00000000 
000015a7 l       .debug_str	00000000 
000015df l       .debug_str	00000000 
000015e4 l       .debug_str	00000000 
00001624 l       .debug_str	00000000 
0000162b l       .debug_str	00000000 
0000162f l       .debug_str	00000000 
0000163a l       .debug_str	00000000 
00001645 l       .debug_str	00000000 
0000164c l       .debug_str	00000000 
00001663 l       .debug_str	00000000 
0000166b l       .debug_str	00000000 
00001675 l       .debug_str	00000000 
0000168c l       .debug_str	00000000 
00001695 l       .debug_str	00000000 
000016cc l       .debug_str	00000000 
000016d5 l       .debug_str	00000000 
000016d8 l       .debug_str	00000000 
000016e0 l       .debug_str	00000000 
000016e8 l       .debug_str	00000000 
000016fc l       .debug_str	00000000 
0000172f l       .debug_str	00000000 
0000173a l       .debug_str	00000000 
00001770 l       .debug_str	00000000 
00001777 l       .debug_str	00000000 
0000177c l       .debug_str	00000000 
00001787 l       .debug_str	00000000 
00001790 l       .debug_str	00000000 
00001795 l       .debug_str	00000000 
0000179c l       .debug_str	00000000 
000017a3 l       .debug_str	00000000 
000017a6 l       .debug_str	00000000 
000017aa l       .debug_str	00000000 
000017b1 l       .debug_str	00000000 
000017b5 l       .debug_str	00000000 
000017b8 l       .debug_str	00000000 
000017bb l       .debug_str	00000000 
000017c0 l       .debug_str	00000000 
000017c6 l       .debug_str	00000000 
000017cd l       .debug_str	00000000 
000017d5 l       .debug_str	00000000 
000017df l       .debug_str	00000000 
000017e7 l       .debug_str	00000000 
000017f2 l       .debug_str	00000000 
000017fd l       .debug_str	00000000 
0000180a l       .debug_str	00000000 
00001815 l       .debug_str	00000000 
0000181d l       .debug_str	00000000 
00001828 l       .debug_str	00000000 
00001833 l       .debug_str	00000000 
0000183d l       .debug_str	00000000 
00001848 l       .debug_str	00000000 
00001853 l       .debug_str	00000000 
00001860 l       .debug_str	00000000 
0000186c l       .debug_str	00000000 
00001879 l       .debug_str	00000000 
00001887 l       .debug_str	00000000 
00001891 l       .debug_str	00000000 
0000189e l       .debug_str	00000000 
000018aa l       .debug_str	00000000 
000018b4 l       .debug_str	00000000 
000018ba l       .debug_str	00000000 
000018c2 l       .debug_str	00000000 
000018ce l       .debug_str	00000000 
000018d7 l       .debug_str	00000000 
000018df l       .debug_str	00000000 
000018f0 l       .debug_str	00000000 
00001902 l       .debug_str	00000000 
0000190b l       .debug_str	00000000 
0000193e l       .debug_str	00000000 
00001972 l       .debug_str	00000000 
00001977 l       .debug_str	00000000 
0000197d l       .debug_str	00000000 
00001983 l       .debug_str	00000000 
00001987 l       .debug_str	00000000 
0000198e l       .debug_str	00000000 
00001993 l       .debug_str	00000000 
000019c6 l       .debug_str	00000000 
000019fb l       .debug_str	00000000 
00001a01 l       .debug_str	00000000 
00001a07 l       .debug_str	00000000 
00001a10 l       .debug_str	00000000 
00001a16 l       .debug_str	00000000 
00001a18 l       .debug_str	00000000 
00001a84 l       .debug_str	00000000 
00001a86 l       .debug_str	00000000 
00001ac1 l       .debug_str	00000000 
00001ac3 l       .debug_str	00000000 
00001b04 l       .debug_str	00000000 
00001bc5 l       .debug_str	00000000 
00001bca l       .debug_str	00000000 
00001bcd l       .debug_str	00000000 
00001bcf l       .debug_str	00000000 
00001bd1 l       .debug_str	00000000 
00001c37 l       .debug_str	00000000 
00001c67 l       .debug_str	00000000 
00001cca l       .debug_str	00000000 
00001cd0 l       .debug_str	00000000 
00001cd9 l       .debug_str	00000000 
00001cdd l       .debug_str	00000000 
00001ce1 l       .debug_str	00000000 
00001ce8 l       .debug_str	00000000 
00001cee l       .debug_str	00000000 
00001cfd l       .debug_str	00000000 
00001d01 l       .debug_str	00000000 
00001d0a l       .debug_str	00000000 
00001d12 l       .debug_str	00000000 
00001d1e l       .debug_str	00000000 
00001d2a l       .debug_str	00000000 
00001d43 l       .debug_str	00000000 
00001d48 l       .debug_str	00000000 
00001d59 l       .debug_str	00000000 
00001d63 l       .debug_str	00000000 
00001d69 l       .debug_str	00000000 
00001d6e l       .debug_str	00000000 
00001d73 l       .debug_str	00000000 
00001d79 l       .debug_str	00000000 
00001d87 l       .debug_str	00000000 
00001d91 l       .debug_str	00000000 
00001d9c l       .debug_str	00000000 
00001da3 l       .debug_str	00000000 
00001da9 l       .debug_str	00000000 
00001dad l       .debug_str	00000000 
00001dca l       .debug_str	00000000 
00001dce l       .debug_str	00000000 
00001de5 l       .debug_str	00000000 
00001e09 l       .debug_str	00000000 
00001e25 l       .debug_str	00000000 
00001e2a l       .debug_str	00000000 
00001e43 l       .debug_str	00000000 
00001e4d l       .debug_str	00000000 
00001e67 l       .debug_str	00000000 
00001ec5 l       .debug_str	00000000 
00001ed0 l       .debug_str	00000000 
00001ed6 l       .debug_str	00000000 
00001edc l       .debug_str	00000000 
00001ee7 l       .debug_str	00000000 
00001f33 l       .debug_str	00000000 
00001f3f l       .debug_str	00000000 
00001f47 l       .debug_str	00000000 
00001f50 l       .debug_str	00000000 
00001f55 l       .debug_str	00000000 
00001f5d l       .debug_str	00000000 
00001fae l       .debug_str	00000000 
000020aa l       .debug_str	00000000 
000020b1 l       .debug_str	00000000 
000020fd l       .debug_str	00000000 
00002102 l       .debug_str	00000000 
0000210a l       .debug_str	00000000 
00002116 l       .debug_str	00000000 
00002160 l       .debug_str	00000000 
0000216b l       .debug_str	00000000 
00002177 l       .debug_str	00000000 
0000217c l       .debug_str	00000000 
0000217f l       .debug_str	00000000 
00002182 l       .debug_str	00000000 
00002185 l       .debug_str	00000000 
00002188 l       .debug_str	00000000 
0000218d l       .debug_str	00000000 
00002199 l       .debug_str	00000000 
0000219e l       .debug_str	00000000 
000021a5 l       .debug_str	00000000 
000021af l       .debug_str	00000000 
000021ba l       .debug_str	00000000 
000021c7 l       .debug_str	00000000 
000021d5 l       .debug_str	00000000 
000021df l       .debug_str	00000000 
000021ed l       .debug_str	00000000 
000021f7 l       .debug_str	00000000 
0000220d l       .debug_str	00000000 
00002218 l       .debug_str	00000000 
00002223 l       .debug_str	00000000 
0000222b l       .debug_str	00000000 
0000222d l       .debug_str	00000000 
0000223b l       .debug_str	00000000 
00002255 l       .debug_str	00000000 
0000225e l       .debug_str	00000000 
00002268 l       .debug_str	00000000 
0000226c l       .debug_str	00000000 
00002278 l       .debug_str	00000000 
00002372 l       .debug_str	00000000 
0000239e l       .debug_str	00000000 
000023e3 l       .debug_str	00000000 
0000241c l       .debug_str	00000000 
000024b3 l       .debug_str	00000000 
00002551 l       .debug_str	00000000 
0000260c l       .debug_str	00000000 
000026c6 l       .debug_str	00000000 
00002778 l       .debug_str	00000000 
0000280d l       .debug_str	00000000 
000028b9 l       .debug_str	00000000 
000028c2 l       .debug_str	00000000 
000028d7 l       .debug_str	00000000 
000028e0 l       .debug_str	00000000 
000028ef l       .debug_str	00000000 
00002924 l       .debug_str	00000000 
0000295d l       .debug_str	00000000 
00002987 l       .debug_str	00000000 
000029bc l       .debug_str	00000000 
000029fa l       .debug_str	00000000 
00002a29 l       .debug_str	00000000 
00002a5e l       .debug_str	00000000 
00002b16 l       .debug_str	00000000 
00002bbf l       .debug_str	00000000 
00002c06 l       .debug_str	00000000 
00002c38 l       .debug_str	00000000 
00002c6b l       .debug_str	00000000 
00002c98 l       .debug_str	00000000 
00002cd2 l       .debug_str	00000000 
00002d04 l       .debug_str	00000000 
00002d33 l       .debug_str	00000000 
00002d3a l       .debug_str	00000000 
00002d46 l       .debug_str	00000000 
00002d4e l       .debug_str	00000000 
00002d57 l       .debug_str	00000000 
00002d5c l       .debug_str	00000000 
00002d5f l       .debug_str	00000000 
00002d68 l       .debug_str	00000000 
00002d6f l       .debug_str	00000000 
00002d72 l       .debug_str	00000000 
00002d78 l       .debug_str	00000000 
00002d82 l       .debug_str	00000000 
00002d8a l       .debug_str	00000000 
00002d90 l       .debug_str	00000000 
00002d9b l       .debug_str	00000000 
00002da4 l       .debug_str	00000000 
00002dc7 l       .debug_str	00000000 
00002de6 l       .debug_str	00000000 
00002e0d l       .debug_str	00000000 
00002e17 l       .debug_str	00000000 
00002e49 l       .debug_str	00000000 
00002e50 l       .debug_str	00000000 
00002e78 l       .debug_str	00000000 
00002e82 l       .debug_str	00000000 
00002e8d l       .debug_str	00000000 
00002e96 l       .debug_str	00000000 
00002ea1 l       .debug_str	00000000 
00002ead l       .debug_str	00000000 
00002eb6 l       .debug_str	00000000 
00002ebd l       .debug_str	00000000 
00002ec5 l       .debug_str	00000000 
00002ecd l       .debug_str	00000000 
00002ed7 l       .debug_str	00000000 
00002edd l       .debug_str	00000000 
00002ee4 l       .debug_str	00000000 
00002eeb l       .debug_str	00000000 
00002f18 l       .debug_str	00000000 
00002f4d l       .debug_str	00000000 
00002f53 l       .debug_str	00000000 
00002f59 l       .debug_str	00000000 
00002f68 l       .debug_str	00000000 
00002f78 l       .debug_str	00000000 
00002f88 l       .debug_str	00000000 
00002f90 l       .debug_str	00000000 
00002fb9 l       .debug_str	00000000 
00003017 l       .debug_str	00000000 
0000307d l       .debug_str	00000000 
00003084 l       .debug_str	00000000 
0000308c l       .debug_str	00000000 
00003095 l       .debug_str	00000000 
000030b3 l       .debug_str	00000000 
000030c3 l       .debug_str	00000000 
000030d1 l       .debug_str	00000000 
000030dc l       .debug_str	00000000 
000030e9 l       .debug_str	00000000 
000030f8 l       .debug_str	00000000 
0000310e l       .debug_str	00000000 
00003118 l       .debug_str	00000000 
00003121 l       .debug_str	00000000 
0000312a l       .debug_str	00000000 
00003150 l       .debug_str	00000000 
00003166 l       .debug_str	00000000 
00003171 l       .debug_str	00000000 
00003187 l       .debug_str	00000000 
0000318f l       .debug_str	00000000 
000031b0 l       .debug_str	00000000 
000031b9 l       .debug_str	00000000 
000031c2 l       .debug_str	00000000 
000031cd l       .debug_str	00000000 
000031d7 l       .debug_str	00000000 
000031fe l       .debug_str	00000000 
00003216 l       .debug_str	00000000 
00003220 l       .debug_str	00000000 
00003243 l       .debug_str	00000000 
0000328b l       .debug_str	00000000 
000032cd l       .debug_str	00000000 
000033af l       .debug_str	00000000 
00003419 l       .debug_str	00000000 
000034fc l       .debug_str	00000000 
000034fe l       .debug_str	00000000 
000035a3 l       .debug_str	00000000 
000035ad l       .debug_str	00000000 
000035b1 l       .debug_str	00000000 
000035bf l       .debug_str	00000000 
000035c5 l       .debug_str	00000000 
00003627 l       .debug_str	00000000 
00003638 l       .debug_str	00000000 
0000363c l       .debug_str	00000000 
00003653 l       .debug_str	00000000 
00003657 l       .debug_str	00000000 
0000365c l       .debug_str	00000000 
00003673 l       .debug_str	00000000 
0000367b l       .debug_str	00000000 
0000368e l       .debug_str	00000000 
000036c7 l       .debug_str	00000000 
000036fa l       .debug_str	00000000 
00003738 l       .debug_str	00000000 
00003749 l       .debug_str	00000000 
00003782 l       .debug_str	00000000 
000037bf l       .debug_str	00000000 
000037cc l       .debug_str	00000000 
000037ce l       .debug_str	00000000 
00003809 l       .debug_str	00000000 
0000389d l       .debug_str	00000000 
000038e1 l       .debug_str	00000000 
00003994 l       .debug_str	00000000 
00003a53 l       .debug_str	00000000 
00003a55 l       .debug_str	00000000 
00003a8d l       .debug_str	00000000 
00003acd l       .debug_str	00000000 
00003b04 l       .debug_str	00000000 
00003b08 l       .debug_str	00000000 
00003b65 l       .debug_str	00000000 
00003b6d l       .debug_str	00000000 
00003b76 l       .debug_str	00000000 
00003b82 l       .debug_str	00000000 
00003b88 l       .debug_str	00000000 
00003b8b l       .debug_str	00000000 
00003b95 l       .debug_str	00000000 
00003b9e l       .debug_str	00000000 
00003ba8 l       .debug_str	00000000 
00003bb7 l       .debug_str	00000000 
00003bb9 l       .debug_str	00000000 
00003bf2 l       .debug_str	00000000 
00003bf9 l       .debug_str	00000000 
00003c00 l       .debug_str	00000000 
00003c11 l       .debug_str	00000000 
00003c50 l       .debug_str	00000000 
00003c83 l       .debug_str	00000000 
00003d0e l       .debug_str	00000000 
00003de5 l       .debug_str	00000000 
00003f08 l       .debug_str	00000000 
00003f7f l       .debug_str	00000000 
00004003 l       .debug_str	00000000 
0000407e l       .debug_str	00000000 
0000411c l       .debug_str	00000000 
000041c7 l       .debug_str	00000000 
00004269 l       .debug_str	00000000 
0000434f l       .debug_str	00000000 
00004452 l       .debug_str	00000000 
00004554 l       .debug_str	00000000 
0000464e l       .debug_str	00000000 
0000472b l       .debug_str	00000000 
00004735 l       .debug_str	00000000 
00004764 l       .debug_str	00000000 
000047b3 l       .debug_str	00000000 
000047de l       .debug_str	00000000 
00004836 l       .debug_str	00000000 
00004869 l       .debug_str	00000000 
000048b8 l       .debug_str	00000000 
0000490c l       .debug_str	00000000 
00004946 l       .debug_str	00000000 
0000496e l       .debug_str	00000000 
00004973 l       .debug_str	00000000 
00004980 l       .debug_str	00000000 
000049ac l       .debug_str	00000000 
000049ea l       .debug_str	00000000 
00004a5d l       .debug_str	00000000 
00004a6d l       .debug_str	00000000 
00004a77 l       .debug_str	00000000 
00004a7c l       .debug_str	00000000 
00004a8c l       .debug_str	00000000 
00004a9b l       .debug_str	00000000 
00004aa6 l       .debug_str	00000000 
00004af7 l       .debug_str	00000000 
00004b24 l       .debug_str	00000000 
00004b31 l       .debug_str	00000000 
00004b58 l       .debug_str	00000000 
00004b72 l       .debug_str	00000000 
00004ba2 l       .debug_str	00000000 
00004bf7 l       .debug_str	00000000 
00004c40 l       .debug_str	00000000 
00004cf7 l       .debug_str	00000000 
00004da5 l       .debug_str	00000000 
00004e70 l       .debug_str	00000000 
00004f3a l       .debug_str	00000000 
00004ffc l       .debug_str	00000000 
000050a1 l       .debug_str	00000000 
000050dc l       .debug_str	00000000 
00005180 l       .debug_str	00000000 
000051c8 l       .debug_str	00000000 
00005208 l       .debug_str	00000000 
0000524f l       .debug_str	00000000 
00005257 l       .debug_str	00000000 
00005288 l       .debug_str	00000000 
000052f8 l       .debug_str	00000000 
00005368 l       .debug_str	00000000 
000053b7 l       .debug_str	00000000 
000053e3 l       .debug_str	00000000 
000053e8 l       .debug_str	00000000 
00005492 l       .debug_str	00000000 
000054c7 l       .debug_str	00000000 
00005594 l       .debug_str	00000000 
00005652 l       .debug_str	00000000 
000056c1 l       .debug_str	00000000 
000056ea l       .debug_str	00000000 
00005710 l       .debug_str	00000000 
00005742 l       .debug_str	00000000 
00005782 l       .debug_str	00000000 
000057b3 l       .debug_str	00000000 
000057ba l       .debug_str	00000000 
000057bf l       .debug_str	00000000 
000057c8 l       .debug_str	00000000 
000057ca l       .debug_str	00000000 
000057d4 l       .debug_str	00000000 
000057df l       .debug_str	00000000 
00005830 l       .debug_str	00000000 
00005860 l       .debug_str	00000000 
00005867 l       .debug_str	00000000 
000058a1 l       .debug_str	00000000 
000058ad l       .debug_str	00000000 
000058b3 l       .debug_str	00000000 
000058b9 l       .debug_str	00000000 
0000591e l       .debug_str	00000000 
00005989 l       .debug_str	00000000 
00005994 l       .debug_str	00000000 
000059b6 l       .debug_str	00000000 
000059c1 l       .debug_str	00000000 
000059e7 l       .debug_str	00000000 
000059f2 l       .debug_str	00000000 
00005a0d l       .debug_str	00000000 
00005a18 l       .debug_str	00000000 
00005a87 l       .debug_str	00000000 
00005a90 l       .debug_str	00000000 
00005abb l       .debug_str	00000000 
00005bae l       .debug_str	00000000 
00005c16 l       .debug_str	00000000 
00005cf5 l       .debug_str	00000000 
00005d69 l       .debug_str	00000000 
00005e24 l       .debug_str	00000000 
00005f2d l       .debug_str	00000000 
00005f38 l       .debug_str	00000000 
00005f3b l       .debug_str	00000000 
00005fa2 l       .debug_str	00000000 
00005fad l       .debug_str	00000000 
00006011 l       .debug_str	00000000 
000060bc l       .debug_str	00000000 
00006161 l       .debug_str	00000000 
000061c7 l       .debug_str	00000000 
0000625d l       .debug_str	00000000 
000062bd l       .debug_str	00000000 
00006330 l       .debug_str	00000000 
0000635a l       .debug_str	00000000 
0000637a l       .debug_str	00000000 
00006382 l       .debug_str	00000000 
000063cd l       .debug_str	00000000 
000063d6 l       .debug_str	00000000 
000063db l       .debug_str	00000000 
00006419 l       .debug_str	00000000 
000064f7 l       .debug_str	00000000 
000064f9 l       .debug_str	00000000 
00006548 l       .debug_str	00000000 
00006554 l       .debug_str	00000000 
0000655d l       .debug_str	00000000 
00006561 l       .debug_str	00000000 
0000656b l       .debug_str	00000000 
00006570 l       .debug_str	00000000 
00006577 l       .debug_str	00000000 
0000657c l       .debug_str	00000000 
00006581 l       .debug_str	00000000 
00006603 l       .debug_str	00000000 
000066ac l       .debug_str	00000000 
000066ef l       .debug_str	00000000 
0000672e l       .debug_str	00000000 
000067fe l       .debug_str	00000000 
00006885 l       .debug_str	00000000 
00006932 l       .debug_str	00000000 
00006975 l       .debug_str	00000000 
00006a49 l       .debug_str	00000000 
00006abb l       .debug_str	00000000 
00006b65 l       .debug_str	00000000 
00006c1e l       .debug_str	00000000 
00006ca5 l       .debug_str	00000000 
00006cec l       .debug_str	00000000 
00006cf2 l       .debug_str	00000000 
00006cf8 l       .debug_str	00000000 
00006cfc l       .debug_str	00000000 
00006d09 l       .debug_str	00000000 
00006d95 l       .debug_str	00000000 
00006da6 l       .debug_str	00000000 
00006da8 l       .debug_str	00000000 
00006e24 l       .debug_str	00000000 
00006e8e l       .debug_str	00000000 
00006e94 l       .debug_str	00000000 
00006ef2 l       .debug_str	00000000 
00006f0b l       .debug_str	00000000 
00006f48 l       .debug_str	00000000 
00007025 l       .debug_str	00000000 
00007065 l       .debug_str	00000000 
00007081 l       .debug_str	00000000 
000070a8 l       .debug_str	00000000 
000070db l       .debug_str	00000000 
0000710c l       .debug_str	00000000 
00007154 l       .debug_str	00000000 
00007158 l       .debug_str	00000000 
000071a1 l       .debug_str	00000000 
000071d5 l       .debug_str	00000000 
000071db l       .debug_str	00000000 
00007221 l       .debug_str	00000000 
00007252 l       .debug_str	00000000 
00007279 l       .debug_str	00000000 
000072a6 l       .debug_str	00000000 
000072d1 l       .debug_str	00000000 
00007319 l       .debug_str	00000000 
00007362 l       .debug_str	00000000 
00007390 l       .debug_str	00000000 
000073d6 l       .debug_str	00000000 
00007401 l       .debug_str	00000000 
00007428 l       .debug_str	00000000 
0000746b l       .debug_str	00000000 
000074ac l       .debug_str	00000000 
000074f4 l       .debug_str	00000000 
0000757d l       .debug_str	00000000 
0000761c l       .debug_str	00000000 
000076e0 l       .debug_str	00000000 
000076e5 l       .debug_str	00000000 
000076eb l       .debug_str	00000000 
000076f0 l       .debug_str	00000000 
0000771f l       .debug_str	00000000 
00007752 l       .debug_str	00000000 
00007781 l       .debug_str	00000000 
00007898 l       .debug_str	00000000 
000079a9 l       .debug_str	00000000 
00007a17 l       .debug_str	00000000 
00007a62 l       .debug_str	00000000 
00007aa4 l       .debug_str	00000000 
00007ae0 l       .debug_str	00000000 
00007b24 l       .debug_str	00000000 
00007b2b l       .debug_str	00000000 
00007b2f l       .debug_str	00000000 
00007ba3 l       .debug_str	00000000 
00007bd5 l       .debug_str	00000000 
00007c0a l       .debug_str	00000000 
00007c93 l       .debug_str	00000000 
00007d42 l       .debug_str	00000000 
00007dcb l       .debug_str	00000000 
00007eb2 l       .debug_str	00000000 
00007fbe l       .debug_str	00000000 
00008040 l       .debug_str	00000000 
000080d9 l       .debug_str	00000000 
00008199 l       .debug_str	00000000 
000081ef l       .debug_str	00000000 
000082a1 l       .debug_str	00000000 
0000839f l       .debug_str	00000000 
000083df l       .debug_str	00000000 
000084dc l       .debug_str	00000000 
00008547 l       .debug_str	00000000 
000085ed l       .debug_str	00000000 
000086a2 l       .debug_str	00000000 
000086ad l       .debug_str	00000000 
000086eb l       .debug_str	00000000 
0000873c l       .debug_str	00000000 
00008762 l       .debug_str	00000000 
000087a4 l       .debug_str	00000000 
000087a8 l       .debug_str	00000000 
000087f2 l       .debug_str	00000000 
0000883b l       .debug_str	00000000 
00008884 l       .debug_str	00000000 
00008890 l       .debug_str	00000000 
000088cb l       .debug_str	00000000 
000088dc l       .debug_str	00000000 
000088e3 l       .debug_str	00000000 
000088f1 l       .debug_str	00000000 
000088f6 l       .debug_str	00000000 
00008906 l       .debug_str	00000000 
0000890a l       .debug_str	00000000 
00008916 l       .debug_str	00000000 
00008937 l       .debug_str	00000000 
00008941 l       .debug_str	00000000 
00008944 l       .debug_str	00000000 
00008952 l       .debug_str	00000000 
00008964 l       .debug_str	00000000 
00008978 l       .debug_str	00000000 
00008981 l       .debug_str	00000000 
0000898c l       .debug_str	00000000 
00008995 l       .debug_str	00000000 
00008999 l       .debug_str	00000000 
00008a09 l       .debug_str	00000000 
00008a3f l       .debug_str	00000000 
00008a71 l       .debug_str	00000000 
00008ae1 l       .debug_str	00000000 
00008b0f l       .debug_str	00000000 
00008b39 l       .debug_str	00000000 
00008b78 l       .debug_str	00000000 
00008b8c l       .debug_str	00000000 
00008b91 l       .debug_str	00000000 
00008ba0 l       .debug_str	00000000 
00008bae l       .debug_str	00000000 
00008bb3 l       .debug_str	00000000 
00008bb7 l       .debug_str	00000000 
00008bf1 l       .debug_str	00000000 
00008c00 l       .debug_str	00000000 
00008c27 l       .debug_str	00000000 
00008c2c l       .debug_str	00000000 
00008c33 l       .debug_str	00000000 
00008c3b l       .debug_str	00000000 
00008c42 l       .debug_str	00000000 
00008c48 l       .debug_str	00000000 
00008c4f l       .debug_str	00000000 
00008c55 l       .debug_str	00000000 
00008cea l       .debug_str	00000000 
00008cf6 l       .debug_str	00000000 
00008d1a l       .debug_str	00000000 
00008d1c l       .debug_str	00000000 
00008d71 l       .debug_str	00000000 
00008d7b l       .debug_str	00000000 
00008d82 l       .debug_str	00000000 
00008d86 l       .debug_str	00000000 
00008dd1 l       .debug_str	00000000 
00008de1 l       .debug_str	00000000 
00008def l       .debug_str	00000000 
00008df3 l       .debug_str	00000000 
00008df5 l       .debug_str	00000000 
00008df7 l       .debug_str	00000000 
00008e3e l       .debug_str	00000000 
00008e4a l       .debug_str	00000000 
00008e94 l       .debug_str	00000000 
00008e9d l       .debug_str	00000000 
00008eb5 l       .debug_str	00000000 
00008ef4 l       .debug_str	00000000 
00008f27 l       .debug_str	00000000 
00008f5c l       .debug_str	00000000 
00008f91 l       .debug_str	00000000 
00008fc8 l       .debug_str	00000000 
00008ff0 l       .debug_str	00000000 
0000902f l       .debug_str	00000000 
00009045 l       .debug_str	00000000 
0000904e l       .debug_str	00000000 
00009054 l       .debug_str	00000000 
00009060 l       .debug_str	00000000 
00009068 l       .debug_str	00000000 
000090c2 l       .debug_str	00000000 
00009124 l       .debug_str	00000000 
0000912f l       .debug_str	00000000 
00009176 l       .debug_str	00000000 
000091c5 l       .debug_str	00000000 
000091cf l       .debug_str	00000000 
0000920c l       .debug_str	00000000 
00009251 l       .debug_str	00000000 
0000925a l       .debug_str	00000000 
0000926a l       .debug_str	00000000 
00009272 l       .debug_str	00000000 
000092c7 l       .debug_str	00000000 
00009324 l       .debug_str	00000000 
00009330 l       .debug_str	00000000 
00009339 l       .debug_str	00000000 
00009345 l       .debug_str	00000000 
00009351 l       .debug_str	00000000 
0000935a l       .debug_str	00000000 
00009362 l       .debug_str	00000000 
0000936a l       .debug_str	00000000 
0000937f l       .debug_str	00000000 
00009386 l       .debug_str	00000000 
000093a6 l       .debug_str	00000000 
000093ad l       .debug_str	00000000 
000093b5 l       .debug_str	00000000 
000093bf l       .debug_str	00000000 
000093d6 l       .debug_str	00000000 
000093db l       .debug_str	00000000 
000093e3 l       .debug_str	00000000 
000093ec l       .debug_str	00000000 
000093f5 l       .debug_str	00000000 
000093fe l       .debug_str	00000000 
00009406 l       .debug_str	00000000 
0000940a l       .debug_str	00000000 
00009411 l       .debug_str	00000000 
0000941d l       .debug_str	00000000 
00009428 l       .debug_str	00000000 
00009430 l       .debug_str	00000000 
00009438 l       .debug_str	00000000 
000094b4 l       .debug_str	00000000 
00009538 l       .debug_str	00000000 
00009634 l       .debug_str	00000000 
00009738 l       .debug_str	00000000 
00009746 l       .debug_str	00000000 
00009751 l       .debug_str	00000000 
0000975b l       .debug_str	00000000 
00009766 l       .debug_str	00000000 
00009794 l       .debug_str	00000000 
0000980f l       .debug_str	00000000 
00009892 l       .debug_str	00000000 
000098a0 l       .debug_str	00000000 
000098ff l       .debug_str	00000000 
00009966 l       .debug_str	00000000 
0000997c l       .debug_str	00000000 
0000998c l       .debug_str	00000000 
0000999b l       .debug_str	00000000 
0000999f l       .debug_str	00000000 
000099a5 l       .debug_str	00000000 
000099a9 l       .debug_str	00000000 
000099af l       .debug_str	00000000 
000099b5 l       .debug_str	00000000 
000099c1 l       .debug_str	00000000 
000099c9 l       .debug_str	00000000 
000099d1 l       .debug_str	00000000 
000099d7 l       .debug_str	00000000 
000099fa l       .debug_str	00000000 
00009a0a l       .debug_str	00000000 
00009a3d l       .debug_str	00000000 
00009a7d l       .debug_str	00000000 
00009ac5 l       .debug_str	00000000 
00009ac9 l       .debug_str	00000000 
00009acf l       .debug_str	00000000 
00009ad5 l       .debug_str	00000000 
00009adb l       .debug_str	00000000 
00009aed l       .debug_str	00000000 
00009b22 l       .debug_str	00000000 
00009b64 l       .debug_str	00000000 
00009bae l       .debug_str	00000000 
00009bb2 l       .debug_str	00000000 
00009bb8 l       .debug_str	00000000 
00009bbe l       .debug_str	00000000 
00009bc4 l       .debug_str	00000000 
00009bd6 l       .debug_str	00000000 
00009c0b l       .debug_str	00000000 
00009c4d l       .debug_str	00000000 
00009c97 l       .debug_str	00000000 
00009c9b l       .debug_str	00000000 
00009ca1 l       .debug_str	00000000 
00009ca7 l       .debug_str	00000000 
00009cad l       .debug_str	00000000 
00009cb3 l       .debug_str	00000000 
00009cc4 l       .debug_str	00000000 
00009cf8 l       .debug_str	00000000 
00009d39 l       .debug_str	00000000 
00009d82 l       .debug_str	00000000 
00009d87 l       .debug_str	00000000 
00009d8c l       .debug_str	00000000 
00009d90 l       .debug_str	00000000 
00009d96 l       .debug_str	00000000 
00009d9c l       .debug_str	00000000 
00009da2 l       .debug_str	00000000 
00009db3 l       .debug_str	00000000 
00009de7 l       .debug_str	00000000 
00009e28 l       .debug_str	00000000 
00009e71 l       .debug_str	00000000 
00009e75 l       .debug_str	00000000 
00009e7e l       .debug_str	00000000 
00009ec3 l       .debug_str	00000000 
00009f04 l       .debug_str	00000000 
00009f4d l       .debug_str	00000000 
00009f52 l       .debug_str	00000000 
00009f56 l       .debug_str	00000000 
00009f5f l       .debug_str	00000000 
00009f66 l       .debug_str	00000000 
00009f6e l       .debug_str	00000000 
00009f80 l       .debug_str	00000000 
00009fb5 l       .debug_str	00000000 
00009ff7 l       .debug_str	00000000 
0000a041 l       .debug_str	00000000 
0000a045 l       .debug_str	00000000 
0000a04b l       .debug_str	00000000 
0000a051 l       .debug_str	00000000 
0000a057 l       .debug_str	00000000 
0000a05d l       .debug_str	00000000 
0000a065 l       .debug_str	00000000 
0000a073 l       .debug_str	00000000 
0000a082 l       .debug_str	00000000 
0000a093 l       .debug_str	00000000 
0000a09e l       .debug_str	00000000 
0000a0a9 l       .debug_str	00000000 
0000a0b4 l       .debug_str	00000000 
00000000 l     O .rodata.cst4	00000004 .Lanon.73ec4dbdc3e34bf5216e860e6e103950.29
00000004 l     O .rodata.cst4	00000004 .Lanon.73ec4dbdc3e34bf5216e860e6e103950.30
00000008 l     O .rodata.cst4	00000004 .Lanon.73ec4dbdc3e34bf5216e860e6e103950.32
0000000c l     O .rodata.cst4	00000004 .Lanon.73ec4dbdc3e34bf5216e860e6e103950.42
00000000 l     O .rodata.cst8	00000008 .Lanon.73ec4dbdc3e34bf5216e860e6e103950.51
00000008 l     O .rodata.cst8	00000008 .Lanon.73ec4dbdc3e34bf5216e860e6e103950.59
00000010 l     O .rodata.cst8	00000008 .Lanon.73ec4dbdc3e34bf5216e860e6e103950.65
00000018 l     O .rodata.cst8	00000008 .Lanon.73ec4dbdc3e34bf5216e860e6e103950.66
00000020 l     O .rodata.cst8	00000008 .Lanon.73ec4dbdc3e34bf5216e860e6e103950.69
00000028 l     O .rodata.cst8	00000008 .Lanon.73ec4dbdc3e34bf5216e860e6e103950.70
00000030 l     O .rodata.cst8	00000008 .Lanon.73ec4dbdc3e34bf5216e860e6e103950.71
00000000 l     O .rodata._ZN3app10app_sensor13SENSOR_DEVICE17h0cd740b16f912f04E	0000000c app::app_sensor::SENSOR_DEVICE
00000000 l     F .text._ZN3app11app_network21aggregate_sensor_data17h9b78c5e16db97c27E	00000274 app::app_network::aggregate_sensor_data
00000000 l     O .bss..L_MergedGlobals	00000001 app::touch_sensor::I2C_BUFFER
00000000 l     O .bss._ZN3app12touch_sensor10TOUCH_DATA17h1acf0fb27bdac613E	00000052 app::touch_sensor::TOUCH_DATA
00000000 l     O .bss..L_MergedGlobals	00000000 app::touch_sensor::TOUCH_DELAY
00000000 l     O .bss._ZN3app12touch_sensor11TOUCH_EVENT17hd4ff704c68fbe257E	00000010 app::touch_sensor::TOUCH_EVENT
00000004 l     O .bss..L_MergedGlobals	00000004 app::touch_sensor::TOUCH_RESET
00000000 l     F .text._ZN3app12touch_sensor20touch_event_callback17h0fffc1defec7edc2E	00000188 app::touch_sensor::touch_event_callback
00000000 l     F .text._ZN3app12touch_sensor23touch_interrupt_handler17hdf0c4c6e984bd2f4E	00000024 app::touch_sensor::touch_interrupt_handler
00000010 l     O .bss..L_MergedGlobals	0000003f app::touch_sensor::buf
00000008 l     O .bss..L_MergedGlobals	00000008 app::touch_sensor::I2C_DATA
00000000 l     F .text._ZN3app5hello10ui_builder17hc876176f6df01194E	000000b8 app::hello::ui_builder
00000000 l     F .text._ZN4core3ops8function6FnOnce9call_once17h5947320a8aa0b3f7E	0000000a core::ops::function::FnOnce::call_once
00000000 l     F .text._ZN4core3ops8function6FnOnce9call_once17h75913317ca02ddf4E	00000008 core::ops::function::FnOnce::call_once
00000000 l     F .text._ZN4core3ptr18real_drop_in_place17h2d160c1876d25fbeE	00000002 core::ptr::real_drop_in_place
00000000 l     F .text._ZN4core3ptr18real_drop_in_place17h407573432a8d62a2E	0000000c core::ptr::real_drop_in_place
00000000 l     F .text._ZN4core3ptr18real_drop_in_place17h7ae1c1c93c63dfaaE	00000002 core::ptr::real_drop_in_place
00000000 l     F .text._ZN4core3ptr18real_drop_in_place17h897a7d5835071a91E	00000002 core::ptr::real_drop_in_place
00000000 l     F .text._ZN4core3ptr18real_drop_in_place17h9757770568a0fd13E	00000002 core::ptr::real_drop_in_place
00000000 l     F .text._ZN4core3ptr18real_drop_in_place17h9880d25711f8717aE	0000000c core::ptr::real_drop_in_place
00000000 l     F .text._ZN4core6result19Result$LT$T$C$E$GT$6expect17h06de3ed274e3b86fE	00000014 core::result::Result<T,E>::expect
00000000 l     F .text._ZN4core6result19Result$LT$T$C$E$GT$6expect17h468aab9711338b2eE	0000001c core::result::Result<T,E>::expect
00000000 l     F .text._ZN4core6result19Result$LT$T$C$E$GT$6unwrap17h6c1677eb16e5b690E	00000014 core::result::Result<T,E>::unwrap
00000000 l     F .text._ZN68_$LT$core..option..Option$LT$T$GT$$u20$as$u20$core..clone..Clone$GT$5clone17he97e257f986fa149E	00000032 <core::option::Option<T> as core::clone::Clone>::clone
00000000 l     F .text._ZN80_$LT$druid..win_handler..DruidHandler$LT$T$GT$$u20$as$u20$core..clone..Clone$GT$5clone17hc620bed67f272b68E	0000000c <druid::win_handler::DruidHandler<T> as core::clone::Clone>::clone
00000000 l     O .rodata.str.2	0000001c str.2
00000000 l    d  .text._ZN11druid_shell6window28WindowHandle$LT$THandler$GT$4show17h134ed8ca931cf0c9E	00000000 .text._ZN11druid_shell6window28WindowHandle$LT$THandler$GT$4show17h134ed8ca931cf0c9E
00000000 l    d  .text._ZN11druid_shell6window29WindowBuilder$LT$THandler$GT$11set_handler17h9b79e6e842b1ac4cE	00000000 .text._ZN11druid_shell6window29WindowBuilder$LT$THandler$GT$11set_handler17h9b79e6e842b1ac4cE
00000000 l    d  .text._ZN11druid_shell6window29WindowBuilder$LT$THandler$GT$3new17h9318f9ddc7dd47f7E	00000000 .text._ZN11druid_shell6window29WindowBuilder$LT$THandler$GT$3new17h9318f9ddc7dd47f7E
00000000 l    d  .text._ZN11druid_shell6window29WindowBuilder$LT$THandler$GT$5build17h0f064f81c542df56E	00000000 .text._ZN11druid_shell6window29WindowBuilder$LT$THandler$GT$5build17h0f064f81c542df56E
00000000 l    d  .text._ZN11druid_shell6window29WindowBuilder$LT$THandler$GT$8set_size17h3c29ce68c1763b41E	00000000 .text._ZN11druid_shell6window29WindowBuilder$LT$THandler$GT$8set_size17h3c29ce68c1763b41E
00000000 l    d  .text._ZN11druid_shell8platform8embedded6window28WindowHandle$LT$THandler$GT$4show17h3260cc05ad062ed6E	00000000 .text._ZN11druid_shell8platform8embedded6window28WindowHandle$LT$THandler$GT$4show17h3260cc05ad062ed6E
00000000 l    d  .text._ZN11druid_shell8platform8embedded6window29WindowBuilder$LT$THandler$GT$11set_handler17h48ce44174a3e4a39E	00000000 .text._ZN11druid_shell8platform8embedded6window29WindowBuilder$LT$THandler$GT$11set_handler17h48ce44174a3e4a39E
00000000 l    d  .text._ZN11druid_shell8platform8embedded6window29WindowBuilder$LT$THandler$GT$3new17h9d10bc3a9bb2a124E	00000000 .text._ZN11druid_shell8platform8embedded6window29WindowBuilder$LT$THandler$GT$3new17h9d10bc3a9bb2a124E
00000000 l    d  .text._ZN11druid_shell8platform8embedded6window29WindowBuilder$LT$THandler$GT$5build17h8b297c3bf6260738E	00000000 .text._ZN11druid_shell8platform8embedded6window29WindowBuilder$LT$THandler$GT$5build17h8b297c3bf6260738E
00000000 l    d  .text._ZN11druid_shell8platform8embedded6window29WindowBuilder$LT$THandler$GT$8set_size17h3274caad77b0c5daE	00000000 .text._ZN11druid_shell8platform8embedded6window29WindowBuilder$LT$THandler$GT$8set_size17h3274caad77b0c5daE
00000000 l    d  .text._ZN133_$LT$druid..widget..label..LabelText$LT$T$GT$$u20$as$u20$core..convert..From$LT$druid..localization..LocalizedString$LT$T$GT$$GT$$GT$4from17h040614271e868eafE	00000000 .text._ZN133_$LT$druid..widget..label..LabelText$LT$T$GT$$u20$as$u20$core..convert..From$LT$druid..localization..LocalizedString$LT$T$GT$$GT$$GT$4from17h040614271e868eafE
00000000 l    d  .text._ZN142_$LT$druid..win_handler..DruidHandler$LT$T$GT$$u20$as$u20$druid_shell..window..WinHandler$LT$druid..win_handler..DruidHandler$LT$T$GT$$GT$$GT$11add_handler17h368dd22c9271fbb8E	00000000 .text._ZN142_$LT$druid..win_handler..DruidHandler$LT$T$GT$$u20$as$u20$druid_shell..window..WinHandler$LT$druid..win_handler..DruidHandler$LT$T$GT$$GT$$GT$11add_handler17h368dd22c9271fbb8E
00000000 l    d  .text._ZN142_$LT$druid..win_handler..DruidHandler$LT$T$GT$$u20$as$u20$druid_shell..window..WinHandler$LT$druid..win_handler..DruidHandler$LT$T$GT$$GT$$GT$13get_window_id17h5b1368ded6e9995cE	00000000 .text._ZN142_$LT$druid..win_handler..DruidHandler$LT$T$GT$$u20$as$u20$druid_shell..window..WinHandler$LT$druid..win_handler..DruidHandler$LT$T$GT$$GT$$GT$13get_window_id17h5b1368ded6e9995cE
00000000 l    d  .text._ZN142_$LT$druid..win_handler..DruidHandler$LT$T$GT$$u20$as$u20$druid_shell..window..WinHandler$LT$druid..win_handler..DruidHandler$LT$T$GT$$GT$$GT$5paint17h68dc89214dae0af1E	00000000 .text._ZN142_$LT$druid..win_handler..DruidHandler$LT$T$GT$$u20$as$u20$druid_shell..window..WinHandler$LT$druid..win_handler..DruidHandler$LT$T$GT$$GT$$GT$5paint17h68dc89214dae0af1E
00000000 l    d  .text._ZN42_$LT$$RF$T$u20$as$u20$core..fmt..Debug$GT$3fmt17h61dc4b3a6e897eddE	00000000 .text._ZN42_$LT$$RF$T$u20$as$u20$core..fmt..Debug$GT$3fmt17h61dc4b3a6e897eddE
00000000 l    d  .text._ZN4core3any6TypeId2of17h6b8e9ea545854fecE	00000000 .text._ZN4core3any6TypeId2of17h6b8e9ea545854fecE
00000000 l    d  .text._ZN4core3fmt10ArgumentV13new17h5afdc9114721082cE	00000000 .text._ZN4core3fmt10ArgumentV13new17h5afdc9114721082cE
00000000 l    d  .text._ZN4core3fmt10ArgumentV13new17h626f6a79cd2c9820E	00000000 .text._ZN4core3fmt10ArgumentV13new17h626f6a79cd2c9820E
00000000 l    d  .text._ZN4core3fmt10ArgumentV13new17h89bb951440abb0afE	00000000 .text._ZN4core3fmt10ArgumentV13new17h89bb951440abb0afE
00000000 l    d  .text._ZN4core3fmt10ArgumentV13new17hbad5e2e2cf1ee20dE	00000000 .text._ZN4core3fmt10ArgumentV13new17hbad5e2e2cf1ee20dE
00000000 l    d  .text._ZN4core3fmt5Write9write_fmt17h94b01f6b2ab9eb0fE	00000000 .text._ZN4core3fmt5Write9write_fmt17h94b01f6b2ab9eb0fE
00000000 l    d  .text._ZN4core3ops8function6FnOnce9call_once17h5947320a8aa0b3f7E	00000000 .text._ZN4core3ops8function6FnOnce9call_once17h5947320a8aa0b3f7E
00000000 l    d  .text._ZN4core3ops8function6FnOnce9call_once17h75913317ca02ddf4E	00000000 .text._ZN4core3ops8function6FnOnce9call_once17h75913317ca02ddf4E
00000000 l    d  .text._ZN4core3ptr18real_drop_in_place17h2d160c1876d25fbeE	00000000 .text._ZN4core3ptr18real_drop_in_place17h2d160c1876d25fbeE
00000000 l    d  .text._ZN4core3ptr18real_drop_in_place17h407573432a8d62a2E	00000000 .text._ZN4core3ptr18real_drop_in_place17h407573432a8d62a2E
00000000 l    d  .text._ZN4core3ptr18real_drop_in_place17h7ae1c1c93c63dfaaE	00000000 .text._ZN4core3ptr18real_drop_in_place17h7ae1c1c93c63dfaaE
00000000 l    d  .text._ZN4core3ptr18real_drop_in_place17h897a7d5835071a91E	00000000 .text._ZN4core3ptr18real_drop_in_place17h897a7d5835071a91E
00000000 l    d  .text._ZN4core3ptr18real_drop_in_place17h9757770568a0fd13E	00000000 .text._ZN4core3ptr18real_drop_in_place17h9757770568a0fd13E
00000000 l    d  .text._ZN4core3ptr18real_drop_in_place17h9880d25711f8717aE	00000000 .text._ZN4core3ptr18real_drop_in_place17h9880d25711f8717aE
00000000 l    d  .text._ZN4core5slice87_$LT$impl$u20$core..iter..traits..collect..IntoIterator$u20$for$u20$$RF$$u5b$T$u5d$$GT$9into_iter17h418d4651c790d753E	00000000 .text._ZN4core5slice87_$LT$impl$u20$core..iter..traits..collect..IntoIterator$u20$for$u20$$RF$$u5b$T$u5d$$GT$9into_iter17h418d4651c790d753E
00000000 l    d  .text._ZN4core6result13unwrap_failed17h7cb7e5157e5e15caE	00000000 .text._ZN4core6result13unwrap_failed17h7cb7e5157e5e15caE
00000000 l    d  .text._ZN4core6result13unwrap_failed17h99ce152f202e1453E	00000000 .text._ZN4core6result13unwrap_failed17h99ce152f202e1453E
00000000 l    d  .text._ZN4core6result13unwrap_failed17h9d3e328873a9b317E	00000000 .text._ZN4core6result13unwrap_failed17h9d3e328873a9b317E
00000000 l    d  .text._ZN4core6result13unwrap_failed17hebf47e2bb94a8a51E	00000000 .text._ZN4core6result13unwrap_failed17hebf47e2bb94a8a51E
00000000 l    d  .text._ZN4core6result19Result$LT$T$C$E$GT$6expect17h06de3ed274e3b86fE	00000000 .text._ZN4core6result19Result$LT$T$C$E$GT$6expect17h06de3ed274e3b86fE
00000000 l    d  .text._ZN4core6result19Result$LT$T$C$E$GT$6expect17h468aab9711338b2eE	00000000 .text._ZN4core6result19Result$LT$T$C$E$GT$6expect17h468aab9711338b2eE
00000000 l    d  .text._ZN4core6result19Result$LT$T$C$E$GT$6unwrap17h6c1677eb16e5b690E	00000000 .text._ZN4core6result19Result$LT$T$C$E$GT$6unwrap17h6c1677eb16e5b690E
00000000 l    d  .text._ZN50_$LT$$RF$mut$u20$W$u20$as$u20$core..fmt..Write$GT$10write_char17hc8be0f2983e80e8aE	00000000 .text._ZN50_$LT$$RF$mut$u20$W$u20$as$u20$core..fmt..Write$GT$10write_char17hc8be0f2983e80e8aE
00000000 l    d  .text._ZN50_$LT$$RF$mut$u20$W$u20$as$u20$core..fmt..Write$GT$9write_fmt17hc4cfe1b2012bb7feE	00000000 .text._ZN50_$LT$$RF$mut$u20$W$u20$as$u20$core..fmt..Write$GT$9write_fmt17hc4cfe1b2012bb7feE
00000000 l    d  .text._ZN50_$LT$$RF$mut$u20$W$u20$as$u20$core..fmt..Write$GT$9write_str17h744011ce020712c0E	00000000 .text._ZN50_$LT$$RF$mut$u20$W$u20$as$u20$core..fmt..Write$GT$9write_str17h744011ce020712c0E
00000000 l    d  .text._ZN50_$LT$T$u20$as$u20$core..convert..From$LT$T$GT$$GT$4from17h2eb55c03c673d4b0E	00000000 .text._ZN50_$LT$T$u20$as$u20$core..convert..From$LT$T$GT$$GT$4from17h2eb55c03c673d4b0E
00000000 l    d  .text._ZN50_$LT$T$u20$as$u20$core..convert..Into$LT$U$GT$$GT$4into17h05744007cac56a82E	00000000 .text._ZN50_$LT$T$u20$as$u20$core..convert..Into$LT$U$GT$$GT$4into17h05744007cac56a82E
00000000 l    d  .text._ZN50_$LT$T$u20$as$u20$core..convert..Into$LT$U$GT$$GT$4into17h15962fb47157b6d8E	00000000 .text._ZN50_$LT$T$u20$as$u20$core..convert..Into$LT$U$GT$$GT$4into17h15962fb47157b6d8E
00000000 l    d  .text._ZN50_$LT$T$u20$as$u20$core..convert..Into$LT$U$GT$$GT$4into17h945b111611b9b324E	00000000 .text._ZN50_$LT$T$u20$as$u20$core..convert..Into$LT$U$GT$$GT$4into17h945b111611b9b324E
00000000 l    d  .text._ZN50_$LT$T$u20$as$u20$core..convert..Into$LT$U$GT$$GT$4into17hf9a2610d20630218E	00000000 .text._ZN50_$LT$T$u20$as$u20$core..convert..Into$LT$U$GT$$GT$4into17hf9a2610d20630218E
00000000 l    d  .text._ZN59_$LT$$LP$T10$C$$u20$T11$RP$$u20$as$u20$core..fmt..Debug$GT$3fmt17h2e2c98cdec5a2a42E	00000000 .text._ZN59_$LT$$LP$T10$C$$u20$T11$RP$$u20$as$u20$core..fmt..Debug$GT$3fmt17h2e2c98cdec5a2a42E
00000000 l    d  .text._ZN5druid11win_handler17AppState$LT$T$GT$21assemble_window_state17h74aa682bcaa5ff5dE	00000000 .text._ZN5druid11win_handler17AppState$LT$T$GT$21assemble_window_state17h74aa682bcaa5ff5dE
00000000 l    d  .text._ZN5druid11win_handler17AppState$LT$T$GT$3new17h8ac3ab33e7da130dE	00000000 .text._ZN5druid11win_handler17AppState$LT$T$GT$3new17h8ac3ab33e7da130dE
00000000 l    d  .text._ZN5druid11win_handler17AppState$LT$T$GT$5paint17hd8a6be67606aa237E	00000000 .text._ZN5druid11win_handler17AppState$LT$T$GT$5paint17hd8a6be67606aa237E
00000000 l    d  .text._ZN5druid11win_handler21DruidHandler$LT$T$GT$10new_shared17h2e143bd64265c152E	00000000 .text._ZN5druid11win_handler21DruidHandler$LT$T$GT$10new_shared17h2e143bd64265c152E
00000000 l    d  .text._ZN5druid11win_handler26SingleWindowState$LT$T$GT$5paint17h0f9d50e1bcb9ae40E	00000000 .text._ZN5druid11win_handler26SingleWindowState$LT$T$GT$5paint17h0f9d50e1bcb9ae40E
00000000 l    d  .text._ZN5druid11win_handler26SingleWindowState$LT$T$GT$8do_paint17h504e926baedded14E	00000000 .text._ZN5druid11win_handler26SingleWindowState$LT$T$GT$8do_paint17h504e926baedded14E
00000000 l    d  .text._ZN5druid11win_handler26SingleWindowState$LT$T$GT$9do_layout17h2723ced434e2874dE	00000000 .text._ZN5druid11win_handler26SingleWindowState$LT$T$GT$9do_layout17h2723ced434e2874dE
00000000 l    d  .text._ZN5druid12localization24LocalizedString$LT$T$GT$3new17h80fb9461e3b01a82E	00000000 .text._ZN5druid12localization24LocalizedString$LT$T$GT$3new17h80fb9461e3b01a82E
00000000 l    d  .text._ZN5druid12localization24LocalizedString$LT$T$GT$8with_arg17h08b814a4f1bf07d8E	00000000 .text._ZN5druid12localization24LocalizedString$LT$T$GT$8with_arg17h08b814a4f1bf07d8E
00000000 l    d  .text._ZN5druid22WidgetPod$LT$T$C$W$GT$3new17h19f68049a961c92dE	00000000 .text._ZN5druid22WidgetPod$LT$T$C$W$GT$3new17h19f68049a961c92dE
00000000 l    d  .text._ZN5druid22WidgetPod$LT$T$C$W$GT$3new17hf01255c82a56ab0cE	00000000 .text._ZN5druid22WidgetPod$LT$T$C$W$GT$3new17hf01255c82a56ab0cE
00000000 l    d  .text._ZN5druid3app23WindowDesc$LT$T$C$W$GT$12build_native17ha4c1e9abdc88db78E	00000000 .text._ZN5druid3app23WindowDesc$LT$T$C$W$GT$12build_native17ha4c1e9abdc88db78E
00000000 l    d  .text._ZN5druid3app23WindowDesc$LT$T$C$W$GT$3new17h1b02657d01a7432dE	00000000 .text._ZN5druid3app23WindowDesc$LT$T$C$W$GT$3new17h1b02657d01a7432dE
00000000 l    d  .text._ZN5druid3app24AppLauncher$LT$T$C$W$GT$11with_window17h8345a2e2baf5e16cE	00000000 .text._ZN5druid3app24AppLauncher$LT$T$C$W$GT$11with_window17h8345a2e2baf5e16cE
00000000 l    d  .text._ZN5druid3app24AppLauncher$LT$T$C$W$GT$17use_simple_logger17h2ef613a23ce08719E	00000000 .text._ZN5druid3app24AppLauncher$LT$T$C$W$GT$17use_simple_logger17h2ef613a23ce08719E
00000000 l    d  .text._ZN5druid3app24AppLauncher$LT$T$C$W$GT$6launch17h6a562b72bd769919E	00000000 .text._ZN5druid3app24AppLauncher$LT$T$C$W$GT$6launch17h6a562b72bd769919E
00000000 l    d  .text._ZN5druid6widget4flex13Flex$LT$T$GT$9add_child17h5624c42956239f03E	00000000 .text._ZN5druid6widget4flex13Flex$LT$T$GT$9add_child17h5624c42956239f03E
00000000 l    d  .text._ZN5druid6widget4flex6Column3new17h4c592896946036e0E	00000000 .text._ZN5druid6widget4flex6Column3new17h4c592896946036e0E
00000000 l    d  .text._ZN5druid6widget5label14Label$LT$T$GT$3new17h91f1829925616702E	00000000 .text._ZN5druid6widget5label14Label$LT$T$GT$3new17h91f1829925616702E
00000000 l    d  .text._ZN5druid6widget5label14Label$LT$T$GT$7aligned17h854ef5cd67a29fe8E	00000000 .text._ZN5druid6widget5label14Label$LT$T$GT$7aligned17h854ef5cd67a29fe8E
00000000 l    d  .text._ZN5druid6widget6button15Button$LT$T$GT$3new17hd5104a5ead1b56dfE	00000000 .text._ZN5druid6widget6button15Button$LT$T$GT$3new17hd5104a5ead1b56dfE
00000000 l    d  .text._ZN5druid6widget9widgetbox18WidgetBox$LT$D$GT$3new17hbe4d5d7da74c7744E	00000000 .text._ZN5druid6widget9widgetbox18WidgetBox$LT$D$GT$3new17hbe4d5d7da74c7744E
00000000 l    d  .text._ZN5druid6window19Window$LT$T$C$W$GT$3new17h7bb59c31c3a67b3aE	00000000 .text._ZN5druid6window19Window$LT$T$C$W$GT$3new17h7bb59c31c3a67b3aE
00000000 l    d  .text._ZN68_$LT$core..option..Option$LT$T$GT$$u20$as$u20$core..clone..Clone$GT$5clone17he97e257f986fa149E	00000000 .text._ZN68_$LT$core..option..Option$LT$T$GT$$u20$as$u20$core..clone..Clone$GT$5clone17he97e257f986fa149E
00000000 l    d  .text._ZN70_$LT$heapless..string..String$LT$N$GT$$u20$as$u20$core..fmt..Write$GT$10write_char17hd30c626f25cb5066E	00000000 .text._ZN70_$LT$heapless..string..String$LT$N$GT$$u20$as$u20$core..fmt..Write$GT$10write_char17hd30c626f25cb5066E
00000000 l    d  .text._ZN70_$LT$heapless..string..String$LT$N$GT$$u20$as$u20$core..fmt..Write$GT$9write_str17hac2b2a0e713a281bE	00000000 .text._ZN70_$LT$heapless..string..String$LT$N$GT$$u20$as$u20$core..fmt..Write$GT$9write_str17hac2b2a0e713a281bE
00000000 l    d  .text._ZN70_$LT$heapless..vec..Vec$LT$T$C$N$GT$$u20$as$u20$core..clone..Clone$GT$5clone17hf1102e84a1207c7aE	00000000 .text._ZN70_$LT$heapless..vec..Vec$LT$T$C$N$GT$$u20$as$u20$core..clone..Clone$GT$5clone17hf1102e84a1207c7aE
00000000 l    d  .text._ZN72_$LT$druid..app..WindowDesc$LT$T$C$W$GT$$u20$as$u20$core..fmt..Debug$GT$3fmt17h2909ec93ec2c69a1E	00000000 .text._ZN72_$LT$druid..app..WindowDesc$LT$T$C$W$GT$$u20$as$u20$core..fmt..Debug$GT$3fmt17h2909ec93ec2c69a1E
00000000 l    d  .text._ZN72_$LT$heapless..string..String$LT$N$GT$$u20$as$u20$core..clone..Clone$GT$5clone17hb47fd3dcb5ddeabdE	00000000 .text._ZN72_$LT$heapless..string..String$LT$N$GT$$u20$as$u20$core..clone..Clone$GT$5clone17hb47fd3dcb5ddeabdE
00000000 l    d  .text._ZN73_$LT$heapless..vec..Vec$LT$T$C$N$GT$$u20$as$u20$core..ops..drop..Drop$GT$4drop17h9d510813db44a6bfE	00000000 .text._ZN73_$LT$heapless..vec..Vec$LT$T$C$N$GT$$u20$as$u20$core..ops..drop..Drop$GT$4drop17h9d510813db44a6bfE
00000000 l    d  .text._ZN75_$LT$heapless..vec..Vec$LT$T$C$N$GT$$u20$as$u20$core..ops..deref..Deref$GT$5deref17h98eae354a490e829E	00000000 .text._ZN75_$LT$heapless..vec..Vec$LT$T$C$N$GT$$u20$as$u20$core..ops..deref..Deref$GT$5deref17h98eae354a490e829E
00000000 l    d  .text._ZN76_$LT$druid..localization..ArgSource$LT$T$GT$$u20$as$u20$core..fmt..Debug$GT$3fmt17h7ccc0917ea1d6fe8E	00000000 .text._ZN76_$LT$druid..localization..ArgSource$LT$T$GT$$u20$as$u20$core..fmt..Debug$GT$3fmt17h7ccc0917ea1d6fe8E
00000000 l    d  .text._ZN77_$LT$core..marker..PhantomData$LT$T$GT$$u20$as$u20$core..default..Default$GT$7default17h0d1e369dd8539c9cE	00000000 .text._ZN77_$LT$core..marker..PhantomData$LT$T$GT$$u20$as$u20$core..default..Default$GT$7default17h0d1e369dd8539c9cE
00000000 l    d  .text._ZN77_$LT$druid..widget..flex..Flex$LT$T$GT$$u20$as$u20$druid..Widget$LT$T$GT$$GT$10new_window17h88a41f26931e4403E	00000000 .text._ZN77_$LT$druid..widget..flex..Flex$LT$T$GT$$u20$as$u20$druid..Widget$LT$T$GT$$GT$10new_window17h88a41f26931e4403E
00000000 l    d  .text._ZN78_$LT$druid..widget..flex..ChildWidget$LT$T$GT$$u20$as$u20$core..fmt..Debug$GT$3fmt17h45f2cd87827a61adE	00000000 .text._ZN78_$LT$druid..widget..flex..ChildWidget$LT$T$GT$$u20$as$u20$core..fmt..Debug$GT$3fmt17h45f2cd87827a61adE
00000000 l    d  .text._ZN78_$LT$heapless..vec..IntoIter$LT$T$C$N$GT$$u20$as$u20$core..ops..drop..Drop$GT$4drop17hc69559face95b31bE	00000000 .text._ZN78_$LT$heapless..vec..IntoIter$LT$T$C$N$GT$$u20$as$u20$core..ops..drop..Drop$GT$4drop17hc69559face95b31bE
00000000 l    d  .text._ZN78_$LT$heapless..vec..Vec$LT$T$C$N$GT$$u20$as$u20$core..ops..deref..DerefMut$GT$9deref_mut17hf4817c4349193a7eE	00000000 .text._ZN78_$LT$heapless..vec..Vec$LT$T$C$N$GT$$u20$as$u20$core..ops..deref..DerefMut$GT$9deref_mut17hf4817c4349193a7eE
00000000 l    d  .text._ZN79_$LT$druid..widget..label..Label$LT$T$GT$$u20$as$u20$druid..Widget$LT$T$GT$$GT$6get_id17h9a108e15d7319460E	00000000 .text._ZN79_$LT$druid..widget..label..Label$LT$T$GT$$u20$as$u20$druid..Widget$LT$T$GT$$GT$6get_id17h9a108e15d7319460E
00000000 l    d  .text._ZN79_$LT$druid..widget..label..Label$LT$T$GT$$u20$as$u20$druid..Widget$LT$T$GT$$GT$7to_type17h6cfecb1feaf3111cE	00000000 .text._ZN79_$LT$druid..widget..label..Label$LT$T$GT$$u20$as$u20$druid..Widget$LT$T$GT$$GT$7to_type17h6cfecb1feaf3111cE
00000000 l    d  .text._ZN80_$LT$druid..win_handler..DruidHandler$LT$T$GT$$u20$as$u20$core..clone..Clone$GT$5clone17hc620bed67f272b68E	00000000 .text._ZN80_$LT$druid..win_handler..DruidHandler$LT$T$GT$$u20$as$u20$core..clone..Clone$GT$5clone17hc620bed67f272b68E
00000000 l    d  .text._ZN84_$LT$heapless..string..String$LT$N$GT$$u20$as$u20$core..convert..From$LT$u32$GT$$GT$4from17hf04fb1f6e012796bE	00000000 .text._ZN84_$LT$heapless..string..String$LT$N$GT$$u20$as$u20$core..convert..From$LT$u32$GT$$GT$4from17hf04fb1f6e012796bE
00000000 l    d  .text._ZN8heapless3vec16Vec$LT$T$C$N$GT$3new17h53311de4d544ea74E	00000000 .text._ZN8heapless3vec16Vec$LT$T$C$N$GT$3new17h53311de4d544ea74E
00000000 l    d  .text._ZN8heapless3vec16Vec$LT$T$C$N$GT$3new17hd71966dac52d399eE	00000000 .text._ZN8heapless3vec16Vec$LT$T$C$N$GT$3new17hd71966dac52d399eE
00000000 l    d  .text._ZN8heapless3vec16Vec$LT$T$C$N$GT$3new17hf9c77d32aa535311E	00000000 .text._ZN8heapless3vec16Vec$LT$T$C$N$GT$3new17hf9c77d32aa535311E
00000000 l    d  .text._ZN8heapless3vec16Vec$LT$T$C$N$GT$4push17h170f7d6280b7a4d2E	00000000 .text._ZN8heapless3vec16Vec$LT$T$C$N$GT$4push17h170f7d6280b7a4d2E
00000000 l    d  .text._ZN8heapless3vec16Vec$LT$T$C$N$GT$4push17ha7e6740ae0242538E	00000000 .text._ZN8heapless3vec16Vec$LT$T$C$N$GT$4push17ha7e6740ae0242538E
00000000 l    d  .text._ZN8heapless3vec16Vec$LT$T$C$N$GT$4push17hc5119271745f7ea9E	00000000 .text._ZN8heapless3vec16Vec$LT$T$C$N$GT$4push17hc5119271745f7ea9E
00000000 l    d  .text._ZN8heapless3vec43_$LT$impl$u20$heapless..i..Vec$LT$A$GT$$GT$3new17h7278b1118e50f691E	00000000 .text._ZN8heapless3vec43_$LT$impl$u20$heapless..i..Vec$LT$A$GT$$GT$3new17h7278b1118e50f691E
00000000 l    d  .text._ZN8heapless3vec43_$LT$impl$u20$heapless..i..Vec$LT$A$GT$$GT$3new17hd9617c33d813f9beE	00000000 .text._ZN8heapless3vec43_$LT$impl$u20$heapless..i..Vec$LT$A$GT$$GT$3new17hd9617c33d813f9beE
00000000 l    d  .text._ZN8heapless3vec43_$LT$impl$u20$heapless..i..Vec$LT$A$GT$$GT$3new17he51d968b54c5e64aE	00000000 .text._ZN8heapless3vec43_$LT$impl$u20$heapless..i..Vec$LT$A$GT$$GT$3new17he51d968b54c5e64aE
00000000 l    d  .text._ZN8heapless3vec82_$LT$impl$u20$heapless..i..Vec$LT$generic_array..GenericArray$LT$T$C$N$GT$$GT$$GT$12as_mut_slice17h0b8cf4f58b7105a0E	00000000 .text._ZN8heapless3vec82_$LT$impl$u20$heapless..i..Vec$LT$generic_array..GenericArray$LT$T$C$N$GT$$GT$$GT$12as_mut_slice17h0b8cf4f58b7105a0E
00000000 l    d  .text._ZN8heapless3vec82_$LT$impl$u20$heapless..i..Vec$LT$generic_array..GenericArray$LT$T$C$N$GT$$GT$$GT$14push_unchecked17h0a1abb9f050f4e33E	00000000 .text._ZN8heapless3vec82_$LT$impl$u20$heapless..i..Vec$LT$generic_array..GenericArray$LT$T$C$N$GT$$GT$$GT$14push_unchecked17h0a1abb9f050f4e33E
00000000 l    d  .text._ZN8heapless3vec82_$LT$impl$u20$heapless..i..Vec$LT$generic_array..GenericArray$LT$T$C$N$GT$$GT$$GT$14push_unchecked17h5d42e9793f89872aE	00000000 .text._ZN8heapless3vec82_$LT$impl$u20$heapless..i..Vec$LT$generic_array..GenericArray$LT$T$C$N$GT$$GT$$GT$14push_unchecked17h5d42e9793f89872aE
00000000 l    d  .text._ZN8heapless3vec82_$LT$impl$u20$heapless..i..Vec$LT$generic_array..GenericArray$LT$T$C$N$GT$$GT$$GT$14push_unchecked17h85e521a7c5a2255eE	00000000 .text._ZN8heapless3vec82_$LT$impl$u20$heapless..i..Vec$LT$generic_array..GenericArray$LT$T$C$N$GT$$GT$$GT$14push_unchecked17h85e521a7c5a2255eE
00000000 l    d  .text._ZN8heapless3vec82_$LT$impl$u20$heapless..i..Vec$LT$generic_array..GenericArray$LT$T$C$N$GT$$GT$$GT$17extend_from_slice17hc081e04848c5d3e6E	00000000 .text._ZN8heapless3vec82_$LT$impl$u20$heapless..i..Vec$LT$generic_array..GenericArray$LT$T$C$N$GT$$GT$$GT$17extend_from_slice17hc081e04848c5d3e6E
00000000 l    d  .text._ZN8heapless3vec82_$LT$impl$u20$heapless..i..Vec$LT$generic_array..GenericArray$LT$T$C$N$GT$$GT$$GT$4push17h1fb29f651d080fc3E	00000000 .text._ZN8heapless3vec82_$LT$impl$u20$heapless..i..Vec$LT$generic_array..GenericArray$LT$T$C$N$GT$$GT$$GT$4push17h1fb29f651d080fc3E
00000000 l    d  .text._ZN8heapless3vec82_$LT$impl$u20$heapless..i..Vec$LT$generic_array..GenericArray$LT$T$C$N$GT$$GT$$GT$4push17h2888ebf57320ada9E	00000000 .text._ZN8heapless3vec82_$LT$impl$u20$heapless..i..Vec$LT$generic_array..GenericArray$LT$T$C$N$GT$$GT$$GT$4push17h2888ebf57320ada9E
00000000 l    d  .text._ZN8heapless3vec82_$LT$impl$u20$heapless..i..Vec$LT$generic_array..GenericArray$LT$T$C$N$GT$$GT$$GT$4push17h9a4681c2d53c9cd4E	00000000 .text._ZN8heapless3vec82_$LT$impl$u20$heapless..i..Vec$LT$generic_array..GenericArray$LT$T$C$N$GT$$GT$$GT$4push17h9a4681c2d53c9cd4E
00000000 l    d  .text._ZN8heapless3vec82_$LT$impl$u20$heapless..i..Vec$LT$generic_array..GenericArray$LT$T$C$N$GT$$GT$$GT$4push17hf7f43f8e4aa57b84E	00000000 .text._ZN8heapless3vec82_$LT$impl$u20$heapless..i..Vec$LT$generic_array..GenericArray$LT$T$C$N$GT$$GT$$GT$4push17hf7f43f8e4aa57b84E
00000000 l    d  .text._ZN8heapless3vec82_$LT$impl$u20$heapless..i..Vec$LT$generic_array..GenericArray$LT$T$C$N$GT$$GT$$GT$5clone17h279b5bfbfa510c1fE	00000000 .text._ZN8heapless3vec82_$LT$impl$u20$heapless..i..Vec$LT$generic_array..GenericArray$LT$T$C$N$GT$$GT$$GT$5clone17h279b5bfbfa510c1fE
00000000 l    d  .text._ZN8heapless3vec82_$LT$impl$u20$heapless..i..Vec$LT$generic_array..GenericArray$LT$T$C$N$GT$$GT$$GT$5clone17h2f2294f449db8971E	00000000 .text._ZN8heapless3vec82_$LT$impl$u20$heapless..i..Vec$LT$generic_array..GenericArray$LT$T$C$N$GT$$GT$$GT$5clone17h2f2294f449db8971E
00000000 l    d  .text._ZN8heapless3vec82_$LT$impl$u20$heapless..i..Vec$LT$generic_array..GenericArray$LT$T$C$N$GT$$GT$$GT$8as_slice17h577824057efa037dE	00000000 .text._ZN8heapless3vec82_$LT$impl$u20$heapless..i..Vec$LT$generic_array..GenericArray$LT$T$C$N$GT$$GT$$GT$8as_slice17h577824057efa037dE
00000000 l    d  .text._ZN8heapless3vec82_$LT$impl$u20$heapless..i..Vec$LT$generic_array..GenericArray$LT$T$C$N$GT$$GT$$GT$8as_slice17h8816d891cbcb4adeE	00000000 .text._ZN8heapless3vec82_$LT$impl$u20$heapless..i..Vec$LT$generic_array..GenericArray$LT$T$C$N$GT$$GT$$GT$8as_slice17h8816d891cbcb4adeE
00000000 l    d  .text._ZN8heapless3vec82_$LT$impl$u20$heapless..i..Vec$LT$generic_array..GenericArray$LT$T$C$N$GT$$GT$$GT$8capacity17h3fe105568d08c791E	00000000 .text._ZN8heapless3vec82_$LT$impl$u20$heapless..i..Vec$LT$generic_array..GenericArray$LT$T$C$N$GT$$GT$$GT$8capacity17h3fe105568d08c791E
00000000 l    d  .text._ZN8heapless3vec82_$LT$impl$u20$heapless..i..Vec$LT$generic_array..GenericArray$LT$T$C$N$GT$$GT$$GT$8capacity17h41b1a58588e7b482E	00000000 .text._ZN8heapless3vec82_$LT$impl$u20$heapless..i..Vec$LT$generic_array..GenericArray$LT$T$C$N$GT$$GT$$GT$8capacity17h41b1a58588e7b482E
00000000 l    d  .text._ZN8heapless3vec82_$LT$impl$u20$heapless..i..Vec$LT$generic_array..GenericArray$LT$T$C$N$GT$$GT$$GT$8capacity17h8aebbd0f5b014e51E	00000000 .text._ZN8heapless3vec82_$LT$impl$u20$heapless..i..Vec$LT$generic_array..GenericArray$LT$T$C$N$GT$$GT$$GT$8capacity17h8aebbd0f5b014e51E
00000000 l    d  .text._ZN93_$LT$heapless..vec..Vec$LT$T$C$N$GT$$u20$as$u20$core..iter..traits..collect..IntoIterator$GT$9into_iter17h69e96b6a767e322dE	00000000 .text._ZN93_$LT$heapless..vec..Vec$LT$T$C$N$GT$$u20$as$u20$core..iter..traits..collect..IntoIterator$GT$9into_iter17h69e96b6a767e322dE
00000000 l    d  .text._ZN95_$LT$druid..widget..label..LabelText$LT$T$GT$$u20$as$u20$core..convert..From$LT$$RF$str$GT$$GT$4from17h926425defb6f75d5E	00000000 .text._ZN95_$LT$druid..widget..label..LabelText$LT$T$GT$$u20$as$u20$core..convert..From$LT$$RF$str$GT$$GT$4from17h926425defb6f75d5E
00000000 l    d  .text._ZN95_$LT$heapless..vec..IntoIter$LT$T$C$N$GT$$u20$as$u20$core..iter..traits..iterator..Iterator$GT$4next17h78d3bb3422c4c011E	00000000 .text._ZN95_$LT$heapless..vec..IntoIter$LT$T$C$N$GT$$u20$as$u20$core..iter..traits..iterator..Iterator$GT$4next17h78d3bb3422c4c011E
00000000 l    d  .text._ZN3app11app_network21aggregate_sensor_data17h9b78c5e16db97c27E	00000000 .text._ZN3app11app_network21aggregate_sensor_data17h9b78c5e16db97c27E
00000000 l    d  .text._ZN3app12touch_sensor23touch_interrupt_handler17hdf0c4c6e984bd2f4E	00000000 .text._ZN3app12touch_sensor23touch_interrupt_handler17hdf0c4c6e984bd2f4E
00000000 l    d  .text._ZN3app12touch_sensor20touch_event_callback17h0fffc1defec7edc2E	00000000 .text._ZN3app12touch_sensor20touch_event_callback17h0fffc1defec7edc2E
00000000 l    d  .text._ZN3app5hello10ui_builder17hc876176f6df01194E	00000000 .text._ZN3app5hello10ui_builder17hc876176f6df01194E
00000000 l    d  .text.main	00000000 .text.main
00000000 l    d  .text.rust_begin_unwind	00000000 .text.rust_begin_unwind
00000000 l    d  .rodata..Lanon.73ec4dbdc3e34bf5216e860e6e103950.0	00000000 .rodata..Lanon.73ec4dbdc3e34bf5216e860e6e103950.0
00000000 l    d  .rodata..Lanon.73ec4dbdc3e34bf5216e860e6e103950.1	00000000 .rodata..Lanon.73ec4dbdc3e34bf5216e860e6e103950.1
00000000 l    d  .rodata..Lanon.73ec4dbdc3e34bf5216e860e6e103950.2	00000000 .rodata..Lanon.73ec4dbdc3e34bf5216e860e6e103950.2
00000000 l    d  .rodata..Lanon.73ec4dbdc3e34bf5216e860e6e103950.3	00000000 .rodata..Lanon.73ec4dbdc3e34bf5216e860e6e103950.3
00000000 l    d  .rodata..Lanon.73ec4dbdc3e34bf5216e860e6e103950.4	00000000 .rodata..Lanon.73ec4dbdc3e34bf5216e860e6e103950.4
00000000 l    d  .rodata..Lanon.73ec4dbdc3e34bf5216e860e6e103950.5	00000000 .rodata..Lanon.73ec4dbdc3e34bf5216e860e6e103950.5
00000000 l    d  .rodata..Lanon.73ec4dbdc3e34bf5216e860e6e103950.6	00000000 .rodata..Lanon.73ec4dbdc3e34bf5216e860e6e103950.6
00000000 l    d  .rodata..Lanon.73ec4dbdc3e34bf5216e860e6e103950.7	00000000 .rodata..Lanon.73ec4dbdc3e34bf5216e860e6e103950.7
00000000 l    d  .rodata..Lanon.73ec4dbdc3e34bf5216e860e6e103950.8	00000000 .rodata..Lanon.73ec4dbdc3e34bf5216e860e6e103950.8
00000000 l    d  .rodata..Lanon.73ec4dbdc3e34bf5216e860e6e103950.9	00000000 .rodata..Lanon.73ec4dbdc3e34bf5216e860e6e103950.9
00000000 l    d  .rodata..Lanon.73ec4dbdc3e34bf5216e860e6e103950.10	00000000 .rodata..Lanon.73ec4dbdc3e34bf5216e860e6e103950.10
00000000 l    d  .rodata..Lanon.73ec4dbdc3e34bf5216e860e6e103950.11	00000000 .rodata..Lanon.73ec4dbdc3e34bf5216e860e6e103950.11
00000000 l    d  .rodata..Lanon.73ec4dbdc3e34bf5216e860e6e103950.12	00000000 .rodata..Lanon.73ec4dbdc3e34bf5216e860e6e103950.12
00000000 l    d  .rodata..Lanon.73ec4dbdc3e34bf5216e860e6e103950.13	00000000 .rodata..Lanon.73ec4dbdc3e34bf5216e860e6e103950.13
00000000 l    d  .rodata..Lanon.73ec4dbdc3e34bf5216e860e6e103950.14	00000000 .rodata..Lanon.73ec4dbdc3e34bf5216e860e6e103950.14
00000000 l    d  .rodata..Lanon.73ec4dbdc3e34bf5216e860e6e103950.15	00000000 .rodata..Lanon.73ec4dbdc3e34bf5216e860e6e103950.15
00000000 l    d  .rodata..Lanon.73ec4dbdc3e34bf5216e860e6e103950.16	00000000 .rodata..Lanon.73ec4dbdc3e34bf5216e860e6e103950.16
00000000 l    d  .rodata..Lanon.73ec4dbdc3e34bf5216e860e6e103950.17	00000000 .rodata..Lanon.73ec4dbdc3e34bf5216e860e6e103950.17
00000000 l    d  .rodata..Lanon.73ec4dbdc3e34bf5216e860e6e103950.18	00000000 .rodata..Lanon.73ec4dbdc3e34bf5216e860e6e103950.18
00000000 l    d  .rodata..Lanon.73ec4dbdc3e34bf5216e860e6e103950.19	00000000 .rodata..Lanon.73ec4dbdc3e34bf5216e860e6e103950.19
00000000 l    d  .rodata..Lanon.73ec4dbdc3e34bf5216e860e6e103950.20	00000000 .rodata..Lanon.73ec4dbdc3e34bf5216e860e6e103950.20
00000000 l    d  .rodata..Lanon.73ec4dbdc3e34bf5216e860e6e103950.21	00000000 .rodata..Lanon.73ec4dbdc3e34bf5216e860e6e103950.21
00000000 l    d  .rodata..Lanon.73ec4dbdc3e34bf5216e860e6e103950.22	00000000 .rodata..Lanon.73ec4dbdc3e34bf5216e860e6e103950.22
00000000 l    d  .rodata..Lanon.73ec4dbdc3e34bf5216e860e6e103950.23	00000000 .rodata..Lanon.73ec4dbdc3e34bf5216e860e6e103950.23
00000000 l    d  .rodata..Lanon.73ec4dbdc3e34bf5216e860e6e103950.24	00000000 .rodata..Lanon.73ec4dbdc3e34bf5216e860e6e103950.24
00000000 l    d  .rodata..Lanon.73ec4dbdc3e34bf5216e860e6e103950.25	00000000 .rodata..Lanon.73ec4dbdc3e34bf5216e860e6e103950.25
00000000 l    d  .rodata..Lanon.73ec4dbdc3e34bf5216e860e6e103950.26	00000000 .rodata..Lanon.73ec4dbdc3e34bf5216e860e6e103950.26
00000000 l    d  .rodata..Lanon.73ec4dbdc3e34bf5216e860e6e103950.27	00000000 .rodata..Lanon.73ec4dbdc3e34bf5216e860e6e103950.27
00000000 l    d  .rodata..Lanon.73ec4dbdc3e34bf5216e860e6e103950.28	00000000 .rodata..Lanon.73ec4dbdc3e34bf5216e860e6e103950.28
00000000 l    d  .rodata..Lanon.73ec4dbdc3e34bf5216e860e6e103950.31	00000000 .rodata..Lanon.73ec4dbdc3e34bf5216e860e6e103950.31
00000000 l    d  .rodata..Lanon.73ec4dbdc3e34bf5216e860e6e103950.33	00000000 .rodata..Lanon.73ec4dbdc3e34bf5216e860e6e103950.33
00000000 l    d  .rodata..Lanon.73ec4dbdc3e34bf5216e860e6e103950.34	00000000 .rodata..Lanon.73ec4dbdc3e34bf5216e860e6e103950.34
00000000 l    d  .rodata..Lanon.73ec4dbdc3e34bf5216e860e6e103950.35	00000000 .rodata..Lanon.73ec4dbdc3e34bf5216e860e6e103950.35
00000000 l    d  .rodata..Lanon.73ec4dbdc3e34bf5216e860e6e103950.36	00000000 .rodata..Lanon.73ec4dbdc3e34bf5216e860e6e103950.36
00000000 l    d  .rodata._ZN3app10app_sensor13SENSOR_DEVICE17h0cd740b16f912f04E	00000000 .rodata._ZN3app10app_sensor13SENSOR_DEVICE17h0cd740b16f912f04E
00000000 l    d  .rodata..Lanon.73ec4dbdc3e34bf5216e860e6e103950.37	00000000 .rodata..Lanon.73ec4dbdc3e34bf5216e860e6e103950.37
00000000 l    d  .rodata..Lanon.73ec4dbdc3e34bf5216e860e6e103950.38	00000000 .rodata..Lanon.73ec4dbdc3e34bf5216e860e6e103950.38
00000000 l    d  .rodata..Lanon.73ec4dbdc3e34bf5216e860e6e103950.39	00000000 .rodata..Lanon.73ec4dbdc3e34bf5216e860e6e103950.39
00000000 l    d  .rodata..Lanon.73ec4dbdc3e34bf5216e860e6e103950.40	00000000 .rodata..Lanon.73ec4dbdc3e34bf5216e860e6e103950.40
00000000 l    d  .rodata..Lanon.73ec4dbdc3e34bf5216e860e6e103950.41	00000000 .rodata..Lanon.73ec4dbdc3e34bf5216e860e6e103950.41
00000000 l    d  .rodata..Lanon.73ec4dbdc3e34bf5216e860e6e103950.43	00000000 .rodata..Lanon.73ec4dbdc3e34bf5216e860e6e103950.43
00000000 l    d  .rodata..Lanon.73ec4dbdc3e34bf5216e860e6e103950.44	00000000 .rodata..Lanon.73ec4dbdc3e34bf5216e860e6e103950.44
00000000 l    d  .rodata..Lanon.73ec4dbdc3e34bf5216e860e6e103950.45	00000000 .rodata..Lanon.73ec4dbdc3e34bf5216e860e6e103950.45
00000000 l    d  .rodata..Lanon.73ec4dbdc3e34bf5216e860e6e103950.46	00000000 .rodata..Lanon.73ec4dbdc3e34bf5216e860e6e103950.46
00000000 l    d  .rodata..Lanon.73ec4dbdc3e34bf5216e860e6e103950.47	00000000 .rodata..Lanon.73ec4dbdc3e34bf5216e860e6e103950.47
00000000 l    d  .rodata..Lanon.73ec4dbdc3e34bf5216e860e6e103950.48	00000000 .rodata..Lanon.73ec4dbdc3e34bf5216e860e6e103950.48
00000000 l    d  .rodata..Lanon.73ec4dbdc3e34bf5216e860e6e103950.49	00000000 .rodata..Lanon.73ec4dbdc3e34bf5216e860e6e103950.49
00000000 l    d  .rodata..Lanon.73ec4dbdc3e34bf5216e860e6e103950.50	00000000 .rodata..Lanon.73ec4dbdc3e34bf5216e860e6e103950.50
00000000 l    d  .rodata..Lanon.73ec4dbdc3e34bf5216e860e6e103950.52	00000000 .rodata..Lanon.73ec4dbdc3e34bf5216e860e6e103950.52
00000000 l    d  .bss._ZN3app12touch_sensor10TOUCH_DATA17h1acf0fb27bdac613E	00000000 .bss._ZN3app12touch_sensor10TOUCH_DATA17h1acf0fb27bdac613E
00000000 l    d  .rodata.str.2	00000000 .rodata.str.2
00000000 l    d  .rodata..Lanon.73ec4dbdc3e34bf5216e860e6e103950.53	00000000 .rodata..Lanon.73ec4dbdc3e34bf5216e860e6e103950.53
00000000 l    d  .rodata..Lanon.73ec4dbdc3e34bf5216e860e6e103950.54	00000000 .rodata..Lanon.73ec4dbdc3e34bf5216e860e6e103950.54
00000000 l    d  .rodata..Lanon.73ec4dbdc3e34bf5216e860e6e103950.55	00000000 .rodata..Lanon.73ec4dbdc3e34bf5216e860e6e103950.55
00000000 l    d  .rodata..Lanon.73ec4dbdc3e34bf5216e860e6e103950.56	00000000 .rodata..Lanon.73ec4dbdc3e34bf5216e860e6e103950.56
00000000 l    d  .rodata..Lanon.73ec4dbdc3e34bf5216e860e6e103950.57	00000000 .rodata..Lanon.73ec4dbdc3e34bf5216e860e6e103950.57
00000000 l    d  .rodata..Lanon.73ec4dbdc3e34bf5216e860e6e103950.58	00000000 .rodata..Lanon.73ec4dbdc3e34bf5216e860e6e103950.58
00000000 l    d  .bss._ZN3app12touch_sensor11TOUCH_EVENT17hd4ff704c68fbe257E	00000000 .bss._ZN3app12touch_sensor11TOUCH_EVENT17hd4ff704c68fbe257E
00000000 l    d  .rodata..Lanon.73ec4dbdc3e34bf5216e860e6e103950.60	00000000 .rodata..Lanon.73ec4dbdc3e34bf5216e860e6e103950.60
00000000 l    d  .rodata..Lanon.73ec4dbdc3e34bf5216e860e6e103950.61	00000000 .rodata..Lanon.73ec4dbdc3e34bf5216e860e6e103950.61
00000000 l    d  .rodata..Lanon.73ec4dbdc3e34bf5216e860e6e103950.62	00000000 .rodata..Lanon.73ec4dbdc3e34bf5216e860e6e103950.62
00000000 l    d  .rodata..Lanon.73ec4dbdc3e34bf5216e860e6e103950.63	00000000 .rodata..Lanon.73ec4dbdc3e34bf5216e860e6e103950.63
00000000 l    d  .rodata..Lanon.73ec4dbdc3e34bf5216e860e6e103950.64	00000000 .rodata..Lanon.73ec4dbdc3e34bf5216e860e6e103950.64
00000000 l    d  .rodata..Lanon.73ec4dbdc3e34bf5216e860e6e103950.67	00000000 .rodata..Lanon.73ec4dbdc3e34bf5216e860e6e103950.67
00000000 l    d  .rodata..Lanon.73ec4dbdc3e34bf5216e860e6e103950.68	00000000 .rodata..Lanon.73ec4dbdc3e34bf5216e860e6e103950.68
00000000 l    d  .rodata..Lanon.73ec4dbdc3e34bf5216e860e6e103950.72	00000000 .rodata..Lanon.73ec4dbdc3e34bf5216e860e6e103950.72
00000000 l    d  .rodata..Lanon.73ec4dbdc3e34bf5216e860e6e103950.73	00000000 .rodata..Lanon.73ec4dbdc3e34bf5216e860e6e103950.73
00000000 l    d  .rodata..Lanon.73ec4dbdc3e34bf5216e860e6e103950.74	00000000 .rodata..Lanon.73ec4dbdc3e34bf5216e860e6e103950.74
00000000 l    d  .rodata..Lanon.73ec4dbdc3e34bf5216e860e6e103950.75	00000000 .rodata..Lanon.73ec4dbdc3e34bf5216e860e6e103950.75
00000000 l    d  .bss..L_MergedGlobals	00000000 .bss..L_MergedGlobals
00000000 l    d  .debug_loc	00000000 .debug_loc
00000000 l    d  .debug_abbrev	00000000 .debug_abbrev
00000000 l    d  .debug_info	00000000 .debug_info
00000000 l    d  .debug_ranges	00000000 .debug_ranges
00000000 l    d  .debug_frame	00000000 .debug_frame
00000000 l    d  .debug_line	00000000 .debug_line
00000000         *UND*	00000000 <druid_shell::platform::embedded::window::DruidContext as druid_shell::window::WinCtx>::invalidate
00000000         *UND*	00000000 <druid_shell::platform::embedded::window::DruidContext as druid_shell::window::WinCtx>::set_cursor
00000000         *UND*	00000000 <druid_shell::platform::embedded::window::DruidContext as druid_shell::window::WinCtx>::text_factory
00000000         *UND*	00000000 <druid::win_handler::AppState<u32> as druid::win_handler::GlobalWindows<u32>>::add_window
00000000         *UND*	00000000 <druid::win_handler::AppState<u32> as druid::win_handler::GlobalWindows<u32>>::add_handler
00000000         *UND*	00000000 <druid::win_handler::AppState<u32> as druid::win_handler::GlobalWindows<u32>>::window_paint
00000000         *UND*	00000000 <druid::win_handler::AppState<u32> as druid::win_handler::GlobalWindows<u32>>::window_layout
00000000         *UND*	00000000 <druid::win_handler::AppState<u32> as druid::win_handler::GlobalWindows<u32>>::set_data
00000000         *UND*	00000000 <piet_embedded_graphics::context::EmbedRenderContext as piet::render_context::RenderContext>::text
00000000         *UND*	00000000 <piet_embedded_graphics::context::EmbedRenderContext as piet::render_context::RenderContext>::clear
00000000         *UND*	00000000 <piet_embedded_graphics::context::EmbedRenderContext as piet::render_context::RenderContext>::finish
00000000         *UND*	00000000 <druid::widget::widgetbox::WidgetBox<u32> as druid::widget::widgetbox::GlobalState<u32>>::add_widget
00000000         *UND*	00000000 druid_shell::application::Application::init
00000000 g     F .text._ZN11druid_shell6window28WindowHandle$LT$THandler$GT$4show17h134ed8ca931cf0c9E	00000004 druid_shell::window::WindowHandle<THandler>::show
00000000 g     F .text._ZN11druid_shell6window29WindowBuilder$LT$THandler$GT$11set_handler17h9b79e6e842b1ac4cE	00000004 druid_shell::window::WindowBuilder<THandler>::set_handler
00000000 g     F .text._ZN11druid_shell6window29WindowBuilder$LT$THandler$GT$3new17h9318f9ddc7dd47f7E	00000018 druid_shell::window::WindowBuilder<THandler>::new
00000000 g     F .text._ZN11druid_shell6window29WindowBuilder$LT$THandler$GT$5build17h0f064f81c542df56E	00000010 druid_shell::window::WindowBuilder<THandler>::build
00000000 g     F .text._ZN11druid_shell6window29WindowBuilder$LT$THandler$GT$8set_size17h3c29ce68c1763b41E	00000006 druid_shell::window::WindowBuilder<THandler>::set_size
00000000         *UND*	00000000 druid_shell::platform::embedded::window::PIET_CONTEXT
00000000         *UND*	00000000 druid_shell::platform::embedded::window::DRUID_CONTEXT
00000000 g     F .text._ZN11druid_shell8platform8embedded6window28WindowHandle$LT$THandler$GT$4show17h3260cc05ad062ed6E	0000003c druid_shell::platform::embedded::window::WindowHandle<THandler>::show
00000000 g     F .text._ZN11druid_shell8platform8embedded6window29WindowBuilder$LT$THandler$GT$11set_handler17h48ce44174a3e4a39E	0000001e druid_shell::platform::embedded::window::WindowBuilder<THandler>::set_handler
00000000 g     F .text._ZN11druid_shell8platform8embedded6window29WindowBuilder$LT$THandler$GT$3new17h9d10bc3a9bb2a124E	00000018 druid_shell::platform::embedded::window::WindowBuilder<THandler>::new
00000000 g     F .text._ZN11druid_shell8platform8embedded6window29WindowBuilder$LT$THandler$GT$5build17h8b297c3bf6260738E	00000010 druid_shell::platform::embedded::window::WindowBuilder<THandler>::build
00000000 g     F .text._ZN11druid_shell8platform8embedded6window29WindowBuilder$LT$THandler$GT$8set_size17h3274caad77b0c5daE	00000006 druid_shell::platform::embedded::window::WindowBuilder<THandler>::set_size
00000000 g     F .text._ZN133_$LT$druid..widget..label..LabelText$LT$T$GT$$u20$as$u20$core..convert..From$LT$druid..localization..LocalizedString$LT$T$GT$$GT$$GT$4from17h040614271e868eafE	00000012 <druid::widget::label::LabelText<T> as core::convert::From<druid::localization::LocalizedString<T>>>::from
00000000 g     F .text._ZN142_$LT$druid..win_handler..DruidHandler$LT$T$GT$$u20$as$u20$druid_shell..window..WinHandler$LT$druid..win_handler..DruidHandler$LT$T$GT$$GT$$GT$11add_handler17h368dd22c9271fbb8E	0000000a <druid::win_handler::DruidHandler<T> as druid_shell::window::WinHandler<druid::win_handler::DruidHandler<T>>>::add_handler
00000000 g     F .text._ZN142_$LT$druid..win_handler..DruidHandler$LT$T$GT$$u20$as$u20$druid_shell..window..WinHandler$LT$druid..win_handler..DruidHandler$LT$T$GT$$GT$$GT$13get_window_id17h5b1368ded6e9995cE	00000004 <druid::win_handler::DruidHandler<T> as druid_shell::window::WinHandler<druid::win_handler::DruidHandler<T>>>::get_window_id
00000000 g     F .text._ZN142_$LT$druid..win_handler..DruidHandler$LT$T$GT$$u20$as$u20$druid_shell..window..WinHandler$LT$druid..win_handler..DruidHandler$LT$T$GT$$GT$$GT$5paint17h68dc89214dae0af1E	00000016 <druid::win_handler::DruidHandler<T> as druid_shell::window::WinHandler<druid::win_handler::DruidHandler<T>>>::paint
00000000         *UND*	00000000 piet_embedded_graphics::display::show_touch
00000000         *UND*	00000000 piet_embedded_graphics::display::start_display
00000000         *UND*	00000000 <&T as core::fmt::Debug>::fmt
00000000 g     F .text._ZN42_$LT$$RF$T$u20$as$u20$core..fmt..Debug$GT$3fmt17h61dc4b3a6e897eddE	00000004 <&T as core::fmt::Debug>::fmt
00000000         *UND*	00000000 <&T as core::fmt::Debug>::fmt
00000000         *UND*	00000000 <&T as core::fmt::Display>::fmt
00000000 g     F .text._ZN4core3any6TypeId2of17h6b8e9ea545854fecE	00000010 core::any::TypeId::of
00000000         *UND*	00000000 core::fmt::ArgumentV1::new
00000000         *UND*	00000000 core::fmt::ArgumentV1::new
00000000 g     F .text._ZN4core3fmt10ArgumentV13new17h5afdc9114721082cE	00000002 core::fmt::ArgumentV1::new
00000000 g     F .text._ZN4core3fmt10ArgumentV13new17h626f6a79cd2c9820E	00000002 core::fmt::ArgumentV1::new
00000000         *UND*	00000000 core::fmt::ArgumentV1::new
00000000         *UND*	00000000 core::fmt::ArgumentV1::new
00000000 g     F .text._ZN4core3fmt10ArgumentV13new17h89bb951440abb0afE	00000002 core::fmt::ArgumentV1::new
00000000 g     F .text._ZN4core3fmt10ArgumentV13new17hbad5e2e2cf1ee20dE	00000002 core::fmt::ArgumentV1::new
00000000         *UND*	00000000 core::fmt::num::imp::<impl core::fmt::Display for u32>::fmt
00000000 g     F .text._ZN4core3fmt5Write9write_fmt17h94b01f6b2ab9eb0fE	00000028 core::fmt::Write::write_fmt
00000000         *UND*	00000000 core::fmt::write
00000000         *UND*	00000000 core::fmt::builders::DebugTuple::field
00000000         *UND*	00000000 core::fmt::builders::DebugTuple::finish
00000000         *UND*	00000000 core::fmt::Formatter::debug_tuple
00000000         *UND*	00000000 core::panic::Location::file
00000000         *UND*	00000000 core::panic::Location::line
00000000         *UND*	00000000 core::panic::PanicInfo::payload
00000000         *UND*	00000000 core::panic::PanicInfo::location
00000000         *UND*	00000000 core::slice::slice_index_order_fail
00000000 g     F .text._ZN4core5slice87_$LT$impl$u20$core..iter..traits..collect..IntoIterator$u20$for$u20$$RF$$u5b$T$u5d$$GT$9into_iter17h418d4651c790d753E	0000000a core::slice::<impl core::iter::traits::collect::IntoIterator for &[T]>::into_iter
00000000         *UND*	00000000 core::option::expect_failed
00000000         *UND*	00000000 core::result::unwrap_failed
00000000 g     F .text._ZN4core6result13unwrap_failed17h7cb7e5157e5e15caE	0000004c core::result::unwrap_failed
00000000         *UND*	00000000 core::result::unwrap_failed
00000000         *UND*	00000000 core::result::unwrap_failed
00000000 g     F .text._ZN4core6result13unwrap_failed17h99ce152f202e1453E	0000004c core::result::unwrap_failed
00000000 g     F .text._ZN4core6result13unwrap_failed17h9d3e328873a9b317E	00000054 core::result::unwrap_failed
00000000 g     F .text._ZN4core6result13unwrap_failed17hebf47e2bb94a8a51E	0000004c core::result::unwrap_failed
00000000         *UND*	00000000 core::panicking::panic_bounds_check
00000000         *UND*	00000000 core::panicking::panic
00000000         *UND*	00000000 core::panicking::panic_fmt
00000000 g     F .text._ZN50_$LT$$RF$mut$u20$W$u20$as$u20$core..fmt..Write$GT$10write_char17hc8be0f2983e80e8aE	00000006 <&mut W as core::fmt::Write>::write_char
00000000 g     F .text._ZN50_$LT$$RF$mut$u20$W$u20$as$u20$core..fmt..Write$GT$9write_fmt17hc4cfe1b2012bb7feE	0000001e <&mut W as core::fmt::Write>::write_fmt
00000000 g     F .text._ZN50_$LT$$RF$mut$u20$W$u20$as$u20$core..fmt..Write$GT$9write_str17h744011ce020712c0E	00000006 <&mut W as core::fmt::Write>::write_str
00000000 g     F .text._ZN50_$LT$T$u20$as$u20$core..convert..From$LT$T$GT$$GT$4from17h2eb55c03c673d4b0E	00000002 <T as core::convert::From<T>>::from
00000000         *UND*	00000000 <T as core::convert::From<T>>::from
00000000 g     F .text._ZN50_$LT$T$u20$as$u20$core..convert..Into$LT$U$GT$$GT$4into17h05744007cac56a82E	00000008 <T as core::convert::Into<U>>::into
00000000         *UND*	00000000 <T as core::convert::Into<U>>::into
00000000 g     F .text._ZN50_$LT$T$u20$as$u20$core..convert..Into$LT$U$GT$$GT$4into17h15962fb47157b6d8E	00000012 <T as core::convert::Into<U>>::into
00000000 g     F .text._ZN50_$LT$T$u20$as$u20$core..convert..Into$LT$U$GT$$GT$4into17h945b111611b9b324E	00000008 <T as core::convert::Into<U>>::into
00000000 g     F .text._ZN50_$LT$T$u20$as$u20$core..convert..Into$LT$U$GT$$GT$4into17hf9a2610d20630218E	00000002 <T as core::convert::Into<U>>::into
00000000         *UND*	00000000 <T as core::convert::TryFrom<U>>::try_from
00000000 g     F .text._ZN59_$LT$$LP$T10$C$$u20$T11$RP$$u20$as$u20$core..fmt..Debug$GT$3fmt17h2e2c98cdec5a2a42E	00000044 <(T10, T11) as core::fmt::Debug>::fmt
00000000         *UND*	00000000 <core::fmt::Arguments as core::fmt::Display>::fmt
00000000 g     F .text._ZN5druid11win_handler17AppState$LT$T$GT$21assemble_window_state17h74aa682bcaa5ff5dE	00000004 druid::win_handler::AppState<T>::assemble_window_state
00000000 g     F .text._ZN5druid11win_handler17AppState$LT$T$GT$3new17h8ac3ab33e7da130dE	00000002 druid::win_handler::AppState<T>::new
00000000 g     F .text._ZN5druid11win_handler17AppState$LT$T$GT$5paint17hd8a6be67606aa237E	00000012 druid::win_handler::AppState<T>::paint
00000000 g     F .text._ZN5druid11win_handler21DruidHandler$LT$T$GT$10new_shared17h2e143bd64265c152E	00000002 druid::win_handler::DruidHandler<T>::new_shared
00000000 g     F .text._ZN5druid11win_handler26SingleWindowState$LT$T$GT$5paint17h0f9d50e1bcb9ae40E	0000001e druid::win_handler::SingleWindowState<T>::paint
00000000 g     F .text._ZN5druid11win_handler26SingleWindowState$LT$T$GT$8do_paint17h504e926baedded14E	00000034 druid::win_handler::SingleWindowState<T>::do_paint
00000000 g     F .text._ZN5druid11win_handler26SingleWindowState$LT$T$GT$9do_layout17h2723ced434e2874dE	0000001a druid::win_handler::SingleWindowState<T>::do_layout
00000000 g     F .text._ZN5druid12localization24LocalizedString$LT$T$GT$3new17h80fb9461e3b01a82E	0000000a druid::localization::LocalizedString<T>::new
00000000 g     F .text._ZN5druid12localization24LocalizedString$LT$T$GT$8with_arg17h08b814a4f1bf07d8E	0000007c druid::localization::LocalizedString<T>::with_arg
00000000 g     F .text._ZN5druid22WidgetPod$LT$T$C$W$GT$3new17h19f68049a961c92dE	00000026 druid::WidgetPod<T,W>::new
00000000 g     F .text._ZN5druid22WidgetPod$LT$T$C$W$GT$3new17hf01255c82a56ab0cE	00000018 druid::WidgetPod<T,W>::new
00000000 g     F .text._ZN5druid3app23WindowDesc$LT$T$C$W$GT$12build_native17ha4c1e9abdc88db78E	000000e4 druid::app::WindowDesc<T,W>::build_native
00000000 g     F .text._ZN5druid3app23WindowDesc$LT$T$C$W$GT$3new17h1b02657d01a7432dE	00000016 druid::app::WindowDesc<T,W>::new
00000000 g     F .text._ZN5druid3app24AppLauncher$LT$T$C$W$GT$11with_window17h8345a2e2baf5e16cE	00000054 druid::app::AppLauncher<T,W>::with_window
00000000 g     F .text._ZN5druid3app24AppLauncher$LT$T$C$W$GT$17use_simple_logger17h2ef613a23ce08719E	0000000a druid::app::AppLauncher<T,W>::use_simple_logger
00000000 g     F .text._ZN5druid3app24AppLauncher$LT$T$C$W$GT$6launch17h6a562b72bd769919E	000000a2 druid::app::AppLauncher<T,W>::launch
00000000         *UND*	00000000 druid::widget::get_widget_id
00000000 g     F .text._ZN5druid6widget4flex13Flex$LT$T$GT$9add_child17h5624c42956239f03E	00000070 druid::widget::flex::Flex<T>::add_child
00000000 g     F .text._ZN5druid6widget4flex6Column3new17h4c592896946036e0E	0000001a druid::widget::flex::Column::new
00000000 g     F .text._ZN5druid6widget5label14Label$LT$T$GT$3new17h91f1829925616702E	0000002c druid::widget::label::Label<T>::new
00000000 g     F .text._ZN5druid6widget5label14Label$LT$T$GT$7aligned17h854ef5cd67a29fe8E	00000054 druid::widget::label::Label<T>::aligned
00000000 g     F .text._ZN5druid6widget6button15Button$LT$T$GT$3new17hd5104a5ead1b56dfE	00000038 druid::widget::button::Button<T>::new
00000000 g     F .text._ZN5druid6widget9widgetbox18WidgetBox$LT$D$GT$3new17hbe4d5d7da74c7744E	00000106 druid::widget::widgetbox::WidgetBox<D>::new
00000000 g     F .text._ZN5druid6window19Window$LT$T$C$W$GT$3new17h7bb59c31c3a67b3aE	00000046 druid::window::Window<T,W>::new
00000000         *UND*	00000000 druid::window::WindowId::next
00000000         *UND*	00000000 <druid_shell::error::Error as core::fmt::Debug>::fmt
00000000         *UND*	00000000 <I as core::iter::traits::collect::IntoIterator>::into_iter
00000000         *UND*	00000000 mynewt::hw::sensor_mgr::find_bydevname
00000000         *UND*	00000000 mynewt::hw::sensor::register_listener
00000000         *UND*	00000000 mynewt::hw::sensor::new_sensor_listener
00000000         *UND*	00000000 mynewt::hw::sensor::bindings::set_poll_rate_ms
00000000         *UND*	00000000 mynewt::hal::GPIO::init
00000000         *UND*	00000000 mynewt::sys::console::print_strn
00000000         *UND*	00000000 mynewt::sys::console::flush
00000000         *UND*	00000000 mynewt::sys::console::print
00000000         *UND*	00000000 mynewt::sys::console::buffer
00000000         *UND*	00000000 mynewt::sys::console::printint
00000000         *UND*	00000000 mynewt::Strn::new
00000000         *UND*	00000000 mynewt::libs::sensor_network::prepare_post
00000000         *UND*	00000000 mynewt::libs::sensor_network::get_device_id
00000000         *UND*	00000000 mynewt::libs::sensor_network::do_server_post
00000000         *UND*	00000000 mynewt::libs::sensor_network::init_server_post
00000000         *UND*	00000000 mynewt::kernel::os::eventq_run
00000000         *UND*	00000000 mynewt::kernel::os::eventq_dflt_get
00000000         *UND*	00000000 mynewt::sysinit
00000000         *UND*	00000000 mynewt::encoding::coap_context::CoapContext::key_to_cstr
00000000         *UND*	00000000 mynewt::encoding::coap_context::CoapContext::to_void_ptr
00000000         *UND*	00000000 mynewt::encoding::coap_context::CoapContext::value_to_cstr
00000000         *UND*	00000000 mynewt::encoding::coap_context::CoapContext::json_set_geolocation
00000000         *UND*	00000000 mynewt::encoding::coap_context::CoapContext::json_set_text_string
00000000         *UND*	00000000 mynewt::encoding::coap_context::CoapContext::fail
00000000         *UND*	00000000 mynewt::encoding::coap_context::COAP_CONTEXT
00000000 g     F .text._ZN70_$LT$heapless..string..String$LT$N$GT$$u20$as$u20$core..fmt..Write$GT$10write_char17hd30c626f25cb5066E	00000094 <heapless::string::String<N> as core::fmt::Write>::write_char
00000000 g     F .text._ZN70_$LT$heapless..string..String$LT$N$GT$$u20$as$u20$core..fmt..Write$GT$9write_str17hac2b2a0e713a281bE	00000004 <heapless::string::String<N> as core::fmt::Write>::write_str
00000000 g     F .text._ZN70_$LT$heapless..vec..Vec$LT$T$C$N$GT$$u20$as$u20$core..clone..Clone$GT$5clone17hf1102e84a1207c7aE	00000008 <heapless::vec::Vec<T,N> as core::clone::Clone>::clone
00000000 g     F .text._ZN72_$LT$druid..app..WindowDesc$LT$T$C$W$GT$$u20$as$u20$core..fmt..Debug$GT$3fmt17h2909ec93ec2c69a1E	00000004 <druid::app::WindowDesc<T,W> as core::fmt::Debug>::fmt
00000000 g     F .text._ZN72_$LT$heapless..string..String$LT$N$GT$$u20$as$u20$core..clone..Clone$GT$5clone17hb47fd3dcb5ddeabdE	00000008 <heapless::string::String<N> as core::clone::Clone>::clone
00000000         *UND*	00000000 <heapless::string::String<N> as core::str::FromStr>::from_str
00000000         *UND*	00000000 <core::marker::PhantomData<T> as core::clone::Clone>::clone
00000000 g     F .text._ZN73_$LT$heapless..vec..Vec$LT$T$C$N$GT$$u20$as$u20$core..ops..drop..Drop$GT$4drop17h9d510813db44a6bfE	00000002 <heapless::vec::Vec<T,N> as core::ops::drop::Drop>::drop
00000000         *UND*	00000000 <heapless::vec::Vec<T,N> as core::ops::drop::Drop>::drop
00000000         *UND*	00000000 <mynewt::hal::GPIO as embedded_hal::digital::v2::OutputPin>::set_low
00000000         *UND*	00000000 <mynewt::hal::GPIO as embedded_hal::digital::v2::OutputPin>::set_high
00000000 g     F .text._ZN75_$LT$heapless..vec..Vec$LT$T$C$N$GT$$u20$as$u20$core..ops..deref..Deref$GT$5deref17h98eae354a490e829E	00000004 <heapless::vec::Vec<T,N> as core::ops::deref::Deref>::deref
00000000         *UND*	00000000 <str as mynewt::encoding::coap_context::ToBytesOptionalNull>::to_bytes_optional_nul
00000000 g     F .text._ZN76_$LT$druid..localization..ArgSource$LT$T$GT$$u20$as$u20$core..fmt..Debug$GT$3fmt17h7ccc0917ea1d6fe8E	00000004 <druid::localization::ArgSource<T> as core::fmt::Debug>::fmt
00000000 g     F .text._ZN77_$LT$core..marker..PhantomData$LT$T$GT$$u20$as$u20$core..default..Default$GT$7default17h0d1e369dd8539c9cE	00000002 <core::marker::PhantomData<T> as core::default::Default>::default
00000000 g     F .text._ZN77_$LT$druid..widget..flex..Flex$LT$T$GT$$u20$as$u20$druid..Widget$LT$T$GT$$GT$10new_window17h88a41f26931e4403E	0000005a <druid::widget::flex::Flex<T> as druid::Widget<T>>::new_window
00000000 g     F .text._ZN78_$LT$druid..widget..flex..ChildWidget$LT$T$GT$$u20$as$u20$core..fmt..Debug$GT$3fmt17h45f2cd87827a61adE	00000004 <druid::widget::flex::ChildWidget<T> as core::fmt::Debug>::fmt
00000000 g     F .text._ZN78_$LT$heapless..vec..IntoIter$LT$T$C$N$GT$$u20$as$u20$core..ops..drop..Drop$GT$4drop17hc69559face95b31bE	00000016 <heapless::vec::IntoIter<T,N> as core::ops::drop::Drop>::drop
00000000 g     F .text._ZN78_$LT$heapless..vec..Vec$LT$T$C$N$GT$$u20$as$u20$core..ops..deref..DerefMut$GT$9deref_mut17hf4817c4349193a7eE	00000004 <heapless::vec::Vec<T,N> as core::ops::deref::DerefMut>::deref_mut
00000000 g     F .text._ZN79_$LT$druid..widget..label..Label$LT$T$GT$$u20$as$u20$druid..Widget$LT$T$GT$$GT$6get_id17h9a108e15d7319460E	0000000c <druid::widget::label::Label<T> as druid::Widget<T>>::get_id
00000000 g     F .text._ZN79_$LT$druid..widget..label..Label$LT$T$GT$$u20$as$u20$druid..Widget$LT$T$GT$$GT$7to_type17h6cfecb1feaf3111cE	00000016 <druid::widget::label::Label<T> as druid::Widget<T>>::to_type
00000000 g     F .text._ZN84_$LT$heapless..string..String$LT$N$GT$$u20$as$u20$core..convert..From$LT$u32$GT$$GT$4from17hf04fb1f6e012796bE	0000005c <heapless::string::String<N> as core::convert::From<u32>>::from
00000000         *UND*	00000000 <mynewt::Strn as mynewt::encoding::coap_context::ToBytesOptionalNull>::to_bytes_optional_nul
00000000         *UND*	00000000 <mynewt::hal::Delay as embedded_hal::blocking::delay::DelayMs<u8>>::delay_ms
00000000 g     F .text._ZN8heapless3vec16Vec$LT$T$C$N$GT$3new17h53311de4d544ea74E	00000008 heapless::vec::Vec<T,N>::new
00000000 g     F .text._ZN8heapless3vec16Vec$LT$T$C$N$GT$3new17hd71966dac52d399eE	00000006 heapless::vec::Vec<T,N>::new
00000000 g     F .text._ZN8heapless3vec16Vec$LT$T$C$N$GT$3new17hf9c77d32aa535311E	00000006 heapless::vec::Vec<T,N>::new
00000000 g     F .text._ZN8heapless3vec16Vec$LT$T$C$N$GT$4push17h170f7d6280b7a4d2E	00000022 heapless::vec::Vec<T,N>::push
00000000 g     F .text._ZN8heapless3vec16Vec$LT$T$C$N$GT$4push17ha7e6740ae0242538E	00000022 heapless::vec::Vec<T,N>::push
00000000 g     F .text._ZN8heapless3vec16Vec$LT$T$C$N$GT$4push17hc5119271745f7ea9E	00000018 heapless::vec::Vec<T,N>::push
00000000         *UND*	00000000 heapless::vec::<impl heapless::i::Vec<A>>::new
00000000 g     F .text._ZN8heapless3vec43_$LT$impl$u20$heapless..i..Vec$LT$A$GT$$GT$3new17h7278b1118e50f691E	00000006 heapless::vec::<impl heapless::i::Vec<A>>::new
00000000 g     F .text._ZN8heapless3vec43_$LT$impl$u20$heapless..i..Vec$LT$A$GT$$GT$3new17hd9617c33d813f9beE	00000006 heapless::vec::<impl heapless::i::Vec<A>>::new
00000000 g     F .text._ZN8heapless3vec43_$LT$impl$u20$heapless..i..Vec$LT$A$GT$$GT$3new17he51d968b54c5e64aE	00000008 heapless::vec::<impl heapless::i::Vec<A>>::new
00000000 g     F .text._ZN8heapless3vec82_$LT$impl$u20$heapless..i..Vec$LT$generic_array..GenericArray$LT$T$C$N$GT$$GT$$GT$12as_mut_slice17h0b8cf4f58b7105a0E	00000004 heapless::vec::<impl heapless::i::Vec<generic_array::GenericArray<T,N>>>::as_mut_slice
00000000 g     F .text._ZN8heapless3vec82_$LT$impl$u20$heapless..i..Vec$LT$generic_array..GenericArray$LT$T$C$N$GT$$GT$$GT$14push_unchecked17h0a1abb9f050f4e33E	0000001c heapless::vec::<impl heapless::i::Vec<generic_array::GenericArray<T,N>>>::push_unchecked
00000000 g     F .text._ZN8heapless3vec82_$LT$impl$u20$heapless..i..Vec$LT$generic_array..GenericArray$LT$T$C$N$GT$$GT$$GT$14push_unchecked17h5d42e9793f89872aE	0000001e heapless::vec::<impl heapless::i::Vec<generic_array::GenericArray<T,N>>>::push_unchecked
00000000 g     F .text._ZN8heapless3vec82_$LT$impl$u20$heapless..i..Vec$LT$generic_array..GenericArray$LT$T$C$N$GT$$GT$$GT$14push_unchecked17h85e521a7c5a2255eE	00000018 heapless::vec::<impl heapless::i::Vec<generic_array::GenericArray<T,N>>>::push_unchecked
00000000         *UND*	00000000 heapless::vec::<impl heapless::i::Vec<generic_array::GenericArray<T,N>>>::push_unchecked
00000000         *UND*	00000000 heapless::vec::<impl heapless::i::Vec<generic_array::GenericArray<T,N>>>::extend_from_slice
00000000 g     F .text._ZN8heapless3vec82_$LT$impl$u20$heapless..i..Vec$LT$generic_array..GenericArray$LT$T$C$N$GT$$GT$$GT$17extend_from_slice17hc081e04848c5d3e6E	0000004c heapless::vec::<impl heapless::i::Vec<generic_array::GenericArray<T,N>>>::extend_from_slice
00000000 g     F .text._ZN8heapless3vec82_$LT$impl$u20$heapless..i..Vec$LT$generic_array..GenericArray$LT$T$C$N$GT$$GT$$GT$4push17h1fb29f651d080fc3E	0000003e heapless::vec::<impl heapless::i::Vec<generic_array::GenericArray<T,N>>>::push
00000000 g     F .text._ZN8heapless3vec82_$LT$impl$u20$heapless..i..Vec$LT$generic_array..GenericArray$LT$T$C$N$GT$$GT$$GT$4push17h2888ebf57320ada9E	00000030 heapless::vec::<impl heapless::i::Vec<generic_array::GenericArray<T,N>>>::push
00000000 g     F .text._ZN8heapless3vec82_$LT$impl$u20$heapless..i..Vec$LT$generic_array..GenericArray$LT$T$C$N$GT$$GT$$GT$4push17h9a4681c2d53c9cd4E	00000022 heapless::vec::<impl heapless::i::Vec<generic_array::GenericArray<T,N>>>::push
00000000 g     F .text._ZN8heapless3vec82_$LT$impl$u20$heapless..i..Vec$LT$generic_array..GenericArray$LT$T$C$N$GT$$GT$$GT$4push17hf7f43f8e4aa57b84E	0000003e heapless::vec::<impl heapless::i::Vec<generic_array::GenericArray<T,N>>>::push
00000000 g     F .text._ZN8heapless3vec82_$LT$impl$u20$heapless..i..Vec$LT$generic_array..GenericArray$LT$T$C$N$GT$$GT$$GT$5clone17h279b5bfbfa510c1fE	00000032 heapless::vec::<impl heapless::i::Vec<generic_array::GenericArray<T,N>>>::clone
00000000 g     F .text._ZN8heapless3vec82_$LT$impl$u20$heapless..i..Vec$LT$generic_array..GenericArray$LT$T$C$N$GT$$GT$$GT$5clone17h2f2294f449db8971E	00000026 heapless::vec::<impl heapless::i::Vec<generic_array::GenericArray<T,N>>>::clone
00000000         *UND*	00000000 heapless::vec::<impl heapless::i::Vec<generic_array::GenericArray<T,N>>>::as_slice
00000000 g     F .text._ZN8heapless3vec82_$LT$impl$u20$heapless..i..Vec$LT$generic_array..GenericArray$LT$T$C$N$GT$$GT$$GT$8as_slice17h577824057efa037dE	00000004 heapless::vec::<impl heapless::i::Vec<generic_array::GenericArray<T,N>>>::as_slice
00000000 g     F .text._ZN8heapless3vec82_$LT$impl$u20$heapless..i..Vec$LT$generic_array..GenericArray$LT$T$C$N$GT$$GT$$GT$8as_slice17h8816d891cbcb4adeE	00000004 heapless::vec::<impl heapless::i::Vec<generic_array::GenericArray<T,N>>>::as_slice
00000000 g     F .text._ZN8heapless3vec82_$LT$impl$u20$heapless..i..Vec$LT$generic_array..GenericArray$LT$T$C$N$GT$$GT$$GT$8capacity17h3fe105568d08c791E	00000004 heapless::vec::<impl heapless::i::Vec<generic_array::GenericArray<T,N>>>::capacity
00000000 g     F .text._ZN8heapless3vec82_$LT$impl$u20$heapless..i..Vec$LT$generic_array..GenericArray$LT$T$C$N$GT$$GT$$GT$8capacity17h41b1a58588e7b482E	00000004 heapless::vec::<impl heapless::i::Vec<generic_array::GenericArray<T,N>>>::capacity
00000000         *UND*	00000000 heapless::vec::<impl heapless::i::Vec<generic_array::GenericArray<T,N>>>::capacity
00000000 g     F .text._ZN8heapless3vec82_$LT$impl$u20$heapless..i..Vec$LT$generic_array..GenericArray$LT$T$C$N$GT$$GT$$GT$8capacity17h8aebbd0f5b014e51E	00000004 heapless::vec::<impl heapless::i::Vec<generic_array::GenericArray<T,N>>>::capacity
00000000         *UND*	00000000 heapless::string::<impl heapless::i::String<A>>::new
00000000 g     F .text._ZN93_$LT$heapless..vec..Vec$LT$T$C$N$GT$$u20$as$u20$core..iter..traits..collect..IntoIterator$GT$9into_iter17h69e96b6a767e322dE	00000010 <heapless::vec::Vec<T,N> as core::iter::traits::collect::IntoIterator>::into_iter
00000000 g     F .text._ZN95_$LT$druid..widget..label..LabelText$LT$T$GT$$u20$as$u20$core..convert..From$LT$$RF$str$GT$$GT$4from17h926425defb6f75d5E	00000050 <druid::widget::label::LabelText<T> as core::convert::From<&str>>::from
00000000 g     F .text._ZN95_$LT$heapless..vec..IntoIter$LT$T$C$N$GT$$u20$as$u20$core..iter..traits..iterator..Iterator$GT$4next17h78d3bb3422c4c011E	00000034 <heapless::vec::IntoIter<T,N> as core::iter::traits::iterator::Iterator>::next
00000000         *UND*	00000000 <mynewt::hw::sensor_mgr::SensorsByDevname as core::iter::traits::iterator::Iterator>::next
00000000         *UND*	00000000 __aeabi_memclr4
00000000         *UND*	00000000 __aeabi_memclr8
00000000         *UND*	00000000 __aeabi_memcpy
00000000         *UND*	00000000 __aeabi_memcpy4
00000000         *UND*	00000000 __aeabi_memcpy8
00000000         *UND*	00000000 hal_gpio_irq_enable
00000000         *UND*	00000000 hal_gpio_irq_init
00000000         *UND*	00000000 hal_i2c_master_read
00000000         *UND*	00000000 hal_i2c_master_write
00000000         *UND*	00000000 json_helper_close_array
00000000         *UND*	00000000 json_helper_object_array_end_item
00000000         *UND*	00000000 json_helper_object_array_start_item
00000000         *UND*	00000000 json_helper_set_array
00000000         *UND*	00000000 json_helper_set_int
00000000         *UND*	00000000 json_helper_set_text_string
00000000         *UND*	00000000 json_rep_end_root_object
00000000         *UND*	00000000 json_rep_start_root_object
00000000 g     F .text.main	0000024c main
00000000         *UND*	00000000 os_eventq_put
00000000 g     F .text.rust_begin_unwind	000000b4 rust_begin_unwind
00000000         *UND*	00000000 start_ble



Disassembly of section .text._ZN11druid_shell6window28WindowHandle$LT$THandler$GT$4show17h134ed8ca931cf0c9E:

00000000 <druid_shell::window::WindowHandle<THandler>::show>:
_ZN11druid_shell6window28WindowHandle$LT$THandler$GT$4show17h134ed8ca931cf0c9E():
/Users/Luppy/mynewt/druid-embedded/druid-shell/src/window.rs:88
    /// Make this window visible.
    ///
    /// This is part of the initialization process; it should only be called
    /// once, when a window is first created.
    pub fn show(&self) {
        self.0.show()
   0:	f7ff bffe 	b.w	0 <druid_shell::window::WindowHandle<THandler>::show>

Disassembly of section .text._ZN11druid_shell6window29WindowBuilder$LT$THandler$GT$11set_handler17h9b79e6e842b1ac4cE:

00000000 <druid_shell::window::WindowBuilder<THandler>::set_handler>:
_ZN11druid_shell6window29WindowBuilder$LT$THandler$GT$11set_handler17h9b79e6e842b1ac4cE():
/Users/Luppy/mynewt/druid-embedded/druid-shell/src/window.rs:162
    /// callbacks from this window.
    ///
    /// [`WinHandler`]: trait.WinHandler.html
    pub fn set_handler(&mut self, handler: THandler) { ////
    ////pub fn set_handler(&mut self, handler: Box<dyn WinHandler>) {
        self.0.set_handler(handler)
   0:	f7ff bffe 	b.w	0 <druid_shell::window::WindowBuilder<THandler>::set_handler>

Disassembly of section .text._ZN11druid_shell6window29WindowBuilder$LT$THandler$GT$3new17h9318f9ddc7dd47f7E:

00000000 <druid_shell::window::WindowBuilder<THandler>::new>:
_ZN11druid_shell6window29WindowBuilder$LT$THandler$GT$3new17h9318f9ddc7dd47f7E():
/Users/Luppy/mynewt/druid-embedded/druid-shell/src/window.rs:148
    pub fn new() -> Self { ////
   0:	4904      	ldr	r1, [pc, #16]	; (14 <druid_shell::window::WindowBuilder<THandler>::new+0x14>)
   2:	2200      	movs	r2, #0
/Users/Luppy/mynewt/druid-embedded/druid-shell/src/window.rs:150
        WindowBuilder(
   4:	e9c0 2100 	strd	r2, r1, [r0]
   8:	e9c0 2102 	strd	r2, r1, [r0, #8]
   c:	e9c0 2204 	strd	r2, r2, [r0, #16]
/Users/Luppy/mynewt/druid-embedded/druid-shell/src/window.rs:154
    }
  10:	4770      	bx	lr
  12:	bf00      	nop
  14:	406e0000 	.word	0x406e0000

Disassembly of section .text._ZN11druid_shell6window29WindowBuilder$LT$THandler$GT$5build17h0f064f81c542df56E:

00000000 <druid_shell::window::WindowBuilder<THandler>::build>:
_ZN11druid_shell6window29WindowBuilder$LT$THandler$GT$5build17h0f064f81c542df56E():
/Users/Luppy/mynewt/druid-embedded/druid-shell/src/window.rs:187
    /// Attempt to construct the platform window.
    ///
    /// If this fails, your application should exit.
    pub fn build(self) -> Result<WindowHandle<THandler>, Error> { ////
    ////pub fn build(self) -> Result<WindowHandle, Error> {
        self.0.build().map(WindowHandle).map_err(Into::into)
   0:	e9d1 1204 	ldrd	r1, r2, [r1, #16]
   4:	2300      	movs	r3, #0
_ZN4core6result19Result$LT$T$C$E$GT$7map_err17h2a4569c23ae840d9E():
/rustc/50a0defd5a93523067ef239936cc2e0755220904/src/libcore/result.rs:521
   6:	e9c0 3100 	strd	r3, r1, [r0]
   a:	e9c0 1202 	strd	r1, r2, [r0, #8]
_ZN11druid_shell6window29WindowBuilder$LT$THandler$GT$5build17h0f064f81c542df56E():
/Users/Luppy/mynewt/druid-embedded/druid-shell/src/window.rs:188
    }
   e:	4770      	bx	lr

Disassembly of section .text._ZN11druid_shell6window29WindowBuilder$LT$THandler$GT$8set_size17h3c29ce68c1763b41E:

00000000 <druid_shell::window::WindowBuilder<THandler>::set_size>:
_ZN11druid_shell8platform8embedded6window29WindowBuilder$LT$THandler$GT$8set_size17h3274caad77b0c5daE():
/Users/Luppy/mynewt/druid-embedded/druid-shell/src/platform/embedded/window.rs:168
        self.handler = handler; ////
        ////self.handler = Some(handler);
    }

    pub fn set_size(&mut self, size: Size) {
        self.size = size;
   0:	eca0 0b04 	vstmia	r0!, {d0-d1}
_ZN11druid_shell6window29WindowBuilder$LT$THandler$GT$8set_size17h3c29ce68c1763b41E():
/Users/Luppy/mynewt/druid-embedded/druid-shell/src/window.rs:168
    }
   4:	4770      	bx	lr

Disassembly of section .text._ZN11druid_shell8platform8embedded6window28WindowHandle$LT$THandler$GT$4show17h3260cc05ad062ed6E:

00000000 <druid_shell::platform::embedded::window::WindowHandle<THandler>::show>:
_ZN11druid_shell8platform8embedded6window28WindowHandle$LT$THandler$GT$4show17h3260cc05ad062ed6E():
/Users/Luppy/mynewt/druid-embedded/druid-shell/src/platform/embedded/window.rs:361
    }
}

impl<THandler: WinHandler<THandler> + Clone + Default> WindowHandle<THandler> {  ////  THandler is DruidHandler<T: Data + 'static>
////impl WindowHandle {
    pub fn show(&self) {
   0:	b51c      	push	{r2, r3, r4, lr}
/Users/Luppy/mynewt/druid-embedded/druid-shell/src/platform/embedded/window.rs:362
        unsafe { self.state.handler.clone().paint(&mut PIET_CONTEXT, &mut DRUID_CONTEXT); }
   2:	3008      	adds	r0, #8
   4:	f7ff fffe 	bl	0 <druid_shell::platform::embedded::window::WindowHandle<THandler>::show>
   8:	4c08      	ldr	r4, [pc, #32]	; (2c <druid_shell::platform::embedded::window::WindowHandle<THandler>::show+0x2c>)
   a:	4a09      	ldr	r2, [pc, #36]	; (30 <druid_shell::platform::embedded::window::WindowHandle<THandler>::show+0x30>)
   c:	4b09      	ldr	r3, [pc, #36]	; (34 <druid_shell::platform::embedded::window::WindowHandle<THandler>::show+0x34>)
   e:	9001      	str	r0, [sp, #4]
  10:	a801      	add	r0, sp, #4
  12:	4621      	mov	r1, r4
  14:	f7ff fffe 	bl	0 <druid_shell::platform::embedded::window::WindowHandle<THandler>::show>
/Users/Luppy/mynewt/druid-embedded/druid-shell/src/platform/embedded/window.rs:363
        if let Err(_) = unsafe { PIET_CONTEXT.finish() } {
  18:	4620      	mov	r0, r4
  1a:	f7ff fffe 	bl	0 <<piet_embedded_graphics::context::EmbedRenderContext as piet::render_context::RenderContext>::finish>
  1e:	b900      	cbnz	r0, 22 <druid_shell::platform::embedded::window::WindowHandle<THandler>::show+0x22>
/Users/Luppy/mynewt/druid-embedded/druid-shell/src/platform/embedded/window.rs:366
            panic!("piet error on render");
        }
    }
  20:	bd1c      	pop	{r2, r3, r4, pc}
/Users/Luppy/mynewt/stm32bluepill-mynewt-sensor/<::core::macros::panic macros>:3
  22:	4805      	ldr	r0, [pc, #20]	; (38 <druid_shell::platform::embedded::window::WindowHandle<THandler>::show+0x38>)
  24:	f7ff fffe 	bl	0 <core::panicking::panic>
  28:	defe      	udf	#254	; 0xfe
  2a:	bf00      	nop
	...

Disassembly of section .text._ZN11druid_shell8platform8embedded6window29WindowBuilder$LT$THandler$GT$11set_handler17h48ce44174a3e4a39E:

00000000 <druid_shell::platform::embedded::window::WindowBuilder<THandler>::set_handler>:
_ZN11druid_shell8platform8embedded6window29WindowBuilder$LT$THandler$GT$11set_handler17h48ce44174a3e4a39E():
/Users/Luppy/mynewt/druid-embedded/druid-shell/src/platform/embedded/window.rs:158
    pub fn set_handler(&mut self, handler: THandler) { ////
   0:	b5bc      	push	{r2, r3, r4, r5, r7, lr}
   2:	9101      	str	r1, [sp, #4]
   4:	4605      	mov	r5, r0
/Users/Luppy/mynewt/druid-embedded/druid-shell/src/platform/embedded/window.rs:161
        self.window_id = window_id; ////
   6:	6101      	str	r1, [r0, #16]
   8:	a801      	add	r0, sp, #4
   a:	460c      	mov	r4, r1
/Users/Luppy/mynewt/druid-embedded/druid-shell/src/platform/embedded/window.rs:162
        handler.add_handler(window_id, handler.clone()); ////
   c:	f7ff fffe 	bl	0 <druid_shell::platform::embedded::window::WindowBuilder<THandler>::set_handler>
  10:	4621      	mov	r1, r4
  12:	4602      	mov	r2, r0
  14:	f7ff fffe 	bl	0 <druid_shell::platform::embedded::window::WindowBuilder<THandler>::set_handler>
/Users/Luppy/mynewt/druid-embedded/druid-shell/src/platform/embedded/window.rs:163
        self.handler = handler; ////
  18:	9801      	ldr	r0, [sp, #4]
  1a:	6168      	str	r0, [r5, #20]
/Users/Luppy/mynewt/druid-embedded/druid-shell/src/platform/embedded/window.rs:165
    }
  1c:	bdbc      	pop	{r2, r3, r4, r5, r7, pc}

Disassembly of section .text._ZN11druid_shell8platform8embedded6window29WindowBuilder$LT$THandler$GT$3new17h9d10bc3a9bb2a124E:

00000000 <druid_shell::platform::embedded::window::WindowBuilder<THandler>::new>:
_ZN11druid_shell8platform8embedded6window29WindowBuilder$LT$THandler$GT$3new17h9d10bc3a9bb2a124E():
/Users/Luppy/mynewt/druid-embedded/druid-shell/src/platform/embedded/window.rs:141
    pub fn new() -> Self { ////
   0:	4904      	ldr	r1, [pc, #16]	; (14 <druid_shell::platform::embedded::window::WindowBuilder<THandler>::new+0x14>)
   2:	2200      	movs	r2, #0
/Users/Luppy/mynewt/druid-embedded/druid-shell/src/platform/embedded/window.rs:143
        WindowBuilder  {
   4:	e9c0 2100 	strd	r2, r1, [r0]
   8:	e9c0 2102 	strd	r2, r1, [r0, #8]
   c:	e9c0 2204 	strd	r2, r2, [r0, #16]
/Users/Luppy/mynewt/druid-embedded/druid-shell/src/platform/embedded/window.rs:156
    }
  10:	4770      	bx	lr
  12:	bf00      	nop
  14:	406e0000 	.word	0x406e0000

Disassembly of section .text._ZN11druid_shell8platform8embedded6window29WindowBuilder$LT$THandler$GT$5build17h8b297c3bf6260738E:

00000000 <druid_shell::platform::embedded::window::WindowBuilder<THandler>::build>:
_ZN11druid_shell8platform8embedded6window29WindowBuilder$LT$THandler$GT$5build17h8b297c3bf6260738E():
/Users/Luppy/mynewt/druid-embedded/druid-shell/src/platform/embedded/window.rs:173
        let window_id = self.window_id; ////
   0:	e9d1 1204 	ldrd	r1, r2, [r1, #16]
   4:	2300      	movs	r3, #0
/Users/Luppy/mynewt/druid-embedded/druid-shell/src/platform/embedded/window.rs:184
        Ok(handle)
   6:	e9c0 3100 	strd	r3, r1, [r0]
   a:	e9c0 1202 	strd	r1, r2, [r0, #8]
/Users/Luppy/mynewt/druid-embedded/druid-shell/src/platform/embedded/window.rs:356
    }
   e:	4770      	bx	lr

Disassembly of section .text._ZN11druid_shell8platform8embedded6window29WindowBuilder$LT$THandler$GT$8set_size17h3274caad77b0c5daE:

00000000 <druid_shell::platform::embedded::window::WindowBuilder<THandler>::set_size>:
_ZN11druid_shell8platform8embedded6window29WindowBuilder$LT$THandler$GT$8set_size17h3274caad77b0c5daE():
/Users/Luppy/mynewt/druid-embedded/druid-shell/src/platform/embedded/window.rs:168
        self.size = size;
   0:	eca0 0b04 	vstmia	r0!, {d0-d1}
/Users/Luppy/mynewt/druid-embedded/druid-shell/src/platform/embedded/window.rs:169
    }
   4:	4770      	bx	lr

Disassembly of section .text._ZN133_$LT$druid..widget..label..LabelText$LT$T$GT$$u20$as$u20$core..convert..From$LT$druid..localization..LocalizedString$LT$T$GT$$GT$$GT$4from17h040614271e868eafE:

00000000 <<druid::widget::label::LabelText<T> as core::convert::From<druid::localization::LocalizedString<T>>>::from>:
_ZN133_$LT$druid..widget..label..LabelText$LT$T$GT$$u20$as$u20$core..convert..From$LT$druid..localization..LocalizedString$LT$T$GT$$GT$$GT$4from17h040614271e868eafE():
/Users/Luppy/mynewt/druid-embedded/druid/src/widget/label.rs:254
        ////LabelText::Specific(src.to_string())
    }
}

impl<T> From<LocalizedString<T>> for LabelText<T> {
    fn from(src: LocalizedString<T>) -> LabelText<T> {
   0:	b510      	push	{r4, lr}
   2:	4604      	mov	r4, r0
/Users/Luppy/mynewt/druid-embedded/druid/src/widget/label.rs:255
        LabelText::Localized(src)
   4:	3004      	adds	r0, #4
   6:	2260      	movs	r2, #96	; 0x60
   8:	f7ff fffe 	bl	0 <__aeabi_memcpy4>
   c:	2000      	movs	r0, #0
   e:	6020      	str	r0, [r4, #0]
/Users/Luppy/mynewt/druid-embedded/druid/src/widget/label.rs:256
    }
  10:	bd10      	pop	{r4, pc}

Disassembly of section .text._ZN142_$LT$druid..win_handler..DruidHandler$LT$T$GT$$u20$as$u20$druid_shell..window..WinHandler$LT$druid..win_handler..DruidHandler$LT$T$GT$$GT$$GT$11add_handler17h368dd22c9271fbb8E:

00000000 <<druid::win_handler::DruidHandler<T> as druid_shell::window::WinHandler<druid::win_handler::DruidHandler<T>>>::add_handler>:
_ZN142_$LT$druid..win_handler..DruidHandler$LT$T$GT$$u20$as$u20$druid_shell..window..WinHandler$LT$druid..win_handler..DruidHandler$LT$T$GT$$GT$$GT$11add_handler17h368dd22c9271fbb8E():
/Users/Luppy/mynewt/druid-embedded/druid/src/win_handler.rs:941

    fn get_window_id(&self) -> u32 { ////
        self.window_id.0
    }

    fn add_handler(&self, window_id: u32, handler: DruidHandler<T>) { ////
   0:	b5e0      	push	{r5, r6, r7, lr}
   2:	a801      	add	r0, sp, #4
/Users/Luppy/mynewt/druid-embedded/druid/src/win_handler.rs:942
        AppState::<T>::new().add_handler(WindowId(window_id), handler);
   4:	f7ff fffe 	bl	0 <<druid::win_handler::AppState<u32> as druid::win_handler::GlobalWindows<u32>>::add_handler>
/Users/Luppy/mynewt/druid-embedded/druid/src/win_handler.rs:943
    }
   8:	bd8c      	pop	{r2, r3, r7, pc}

Disassembly of section .text._ZN142_$LT$druid..win_handler..DruidHandler$LT$T$GT$$u20$as$u20$druid_shell..window..WinHandler$LT$druid..win_handler..DruidHandler$LT$T$GT$$GT$$GT$13get_window_id17h5b1368ded6e9995cE:

00000000 <<druid::win_handler::DruidHandler<T> as druid_shell::window::WinHandler<druid::win_handler::DruidHandler<T>>>::get_window_id>:
_ZN142_$LT$druid..win_handler..DruidHandler$LT$T$GT$$u20$as$u20$druid_shell..window..WinHandler$LT$druid..win_handler..DruidHandler$LT$T$GT$$GT$$GT$13get_window_id17h5b1368ded6e9995cE():
/Users/Luppy/mynewt/druid-embedded/druid/src/win_handler.rs:938
        self.window_id.0
   0:	6800      	ldr	r0, [r0, #0]
/Users/Luppy/mynewt/druid-embedded/druid/src/win_handler.rs:939
    }
   2:	4770      	bx	lr

Disassembly of section .text._ZN142_$LT$druid..win_handler..DruidHandler$LT$T$GT$$u20$as$u20$druid_shell..window..WinHandler$LT$druid..win_handler..DruidHandler$LT$T$GT$$GT$$GT$5paint17h68dc89214dae0af1E:

00000000 <<druid::win_handler::DruidHandler<T> as druid_shell::window::WinHandler<druid::win_handler::DruidHandler<T>>>::paint>:
_ZN142_$LT$druid..win_handler..DruidHandler$LT$T$GT$$u20$as$u20$druid_shell..window..WinHandler$LT$druid..win_handler..DruidHandler$LT$T$GT$$GT$$GT$5paint17h68dc89214dae0af1E():
/Users/Luppy/mynewt/druid-embedded/druid/src/win_handler.rs:878
    fn paint(&mut self, piet: &mut Piet, ctx: &mut dyn WinCtx) -> bool {
   0:	b5e0      	push	{r5, r6, r7, lr}
   2:	4694      	mov	ip, r2
   4:	460a      	mov	r2, r1
/Users/Luppy/mynewt/druid-embedded/druid/src/win_handler.rs:879
        AppState::<T>::new().paint(self.window_id, piet, ctx) ////
   6:	6801      	ldr	r1, [r0, #0]
   8:	9300      	str	r3, [sp, #0]
   a:	4663      	mov	r3, ip
   c:	f7ff fffe 	bl	0 <<druid::win_handler::DruidHandler<T> as druid_shell::window::WinHandler<druid::win_handler::DruidHandler<T>>>::paint>
/Users/Luppy/mynewt/druid-embedded/druid/src/win_handler.rs:881
    }
  10:	2000      	movs	r0, #0
  12:	b002      	add	sp, #8
  14:	bd80      	pop	{r7, pc}

Disassembly of section .text._ZN42_$LT$$RF$T$u20$as$u20$core..fmt..Debug$GT$3fmt17h61dc4b3a6e897eddE:

00000000 <<&T as core::fmt::Debug>::fmt>:
_ZN42_$LT$$RF$T$u20$as$u20$core..fmt..Debug$GT$3fmt17h61dc4b3a6e897eddE():
/rustc/50a0defd5a93523067ef239936cc2e0755220904/src/libcore/fmt/mod.rs:1914
   0:	2000      	movs	r0, #0
   2:	4770      	bx	lr

Disassembly of section .text._ZN4core3any6TypeId2of17h6b8e9ea545854fecE:

00000000 <core::any::TypeId::of>:
_ZN4core3any6TypeId2of17h6b8e9ea545854fecE():
/rustc/50a0defd5a93523067ef239936cc2e0755220904/src/libcore/any.rs:447
   0:	4801      	ldr	r0, [pc, #4]	; (8 <core::any::TypeId::of+0x8>)
   2:	4902      	ldr	r1, [pc, #8]	; (c <core::any::TypeId::of+0xc>)
/rustc/50a0defd5a93523067ef239936cc2e0755220904/src/libcore/any.rs:451
   4:	4770      	bx	lr
   6:	bf00      	nop
   8:	70b09764 	.word	0x70b09764
   c:	111094d9 	.word	0x111094d9

Disassembly of section .text._ZN4core3fmt10ArgumentV13new17h5afdc9114721082cE:

00000000 <core::fmt::ArgumentV1::new>:
_ZN4core3fmt10ArgumentV13new17h5afdc9114721082cE():
/rustc/50a0defd5a93523067ef239936cc2e0755220904/src/libcore/fmt/mod.rs:286
   0:	4770      	bx	lr

Disassembly of section .text._ZN4core3fmt10ArgumentV13new17h626f6a79cd2c9820E:

00000000 <core::fmt::ArgumentV1::new>:
_ZN4core3fmt10ArgumentV13new17h626f6a79cd2c9820E():
/rustc/50a0defd5a93523067ef239936cc2e0755220904/src/libcore/fmt/mod.rs:286
   0:	4770      	bx	lr

Disassembly of section .text._ZN4core3fmt10ArgumentV13new17h89bb951440abb0afE:

00000000 <core::fmt::ArgumentV1::new>:
_ZN4core3fmt10ArgumentV13new17h89bb951440abb0afE():
/rustc/50a0defd5a93523067ef239936cc2e0755220904/src/libcore/fmt/mod.rs:286
   0:	4770      	bx	lr

Disassembly of section .text._ZN4core3fmt10ArgumentV13new17hbad5e2e2cf1ee20dE:

00000000 <core::fmt::ArgumentV1::new>:
_ZN4core3fmt10ArgumentV13new17hbad5e2e2cf1ee20dE():
/rustc/50a0defd5a93523067ef239936cc2e0755220904/src/libcore/fmt/mod.rs:286
   0:	4770      	bx	lr

Disassembly of section .text._ZN4core3fmt5Write9write_fmt17h94b01f6b2ab9eb0fE:

00000000 <core::fmt::Write::write_fmt>:
_ZN4core3fmt5Write9write_fmt17h94b01f6b2ab9eb0fE():
/rustc/50a0defd5a93523067ef239936cc2e0755220904/src/libcore/fmt/mod.rs:194
   0:	b5f0      	push	{r4, r5, r6, r7, lr}
   2:	b087      	sub	sp, #28
   4:	9000      	str	r0, [sp, #0]
   6:	aa01      	add	r2, sp, #4
/rustc/50a0defd5a93523067ef239936cc2e0755220904/src/libcore/fmt/mod.rs:195
   8:	f8df c018 	ldr.w	ip, [pc, #24]	; 24 <core::fmt::Write::write_fmt+0x24>
   c:	e891 40f8 	ldmia.w	r1, {r3, r4, r5, r6, r7, lr}
  10:	4610      	mov	r0, r2
  12:	4661      	mov	r1, ip
  14:	e880 40f8 	stmia.w	r0, {r3, r4, r5, r6, r7, lr}
  18:	4668      	mov	r0, sp
  1a:	f7ff fffe 	bl	0 <core::fmt::write>
/rustc/50a0defd5a93523067ef239936cc2e0755220904/src/libcore/fmt/mod.rs:196
  1e:	b007      	add	sp, #28
  20:	bdf0      	pop	{r4, r5, r6, r7, pc}
  22:	bf00      	nop
  24:	00000000 	.word	0x00000000

Disassembly of section .text._ZN4core3ops8function6FnOnce9call_once17h5947320a8aa0b3f7E:

00000000 <core::ops::function::FnOnce::call_once>:
_ZN4core3ops8function6FnOnce9call_once17h5947320a8aa0b3f7E():
/rustc/50a0defd5a93523067ef239936cc2e0755220904/src/libcore/ops/function.rs:231
   0:	b580      	push	{r7, lr}
_ZN3app5hello10ui_builder28_$u7b$$u7b$closure$u7d$$u7d$17hc21518588de6f44bE():
/Users/Luppy/mynewt/stm32bluepill-mynewt-sensor/rust/app/src/hello.rs:37
    //  Create a line of text based on a counter value
    let text =
        LocalizedString::new("hello-counter")
        .with_arg(
            "count", 
            |data: &u32, _env| (*data).into()
   2:	6809      	ldr	r1, [r1, #0]
_ZN50_$LT$T$u20$as$u20$core..convert..Into$LT$U$GT$$GT$4into17h945b111611b9b324E():
/rustc/50a0defd5a93523067ef239936cc2e0755220904/src/libcore/convert.rs:540
   4:	f7ff fffe 	bl	0 <core::ops::function::FnOnce::call_once>
_ZN4core3ops8function6FnOnce9call_once17h5947320a8aa0b3f7E():
/rustc/50a0defd5a93523067ef239936cc2e0755220904/src/libcore/ops/function.rs:231
   8:	bd80      	pop	{r7, pc}

Disassembly of section .text._ZN4core3ops8function6FnOnce9call_once17h75913317ca02ddf4E:

00000000 <core::ops::function::FnOnce::call_once>:
_ZN3app5hello10ui_builder28_$u7b$$u7b$closure$u7d$$u7d$17h3b7000f251cb2c8bE():
/Users/Luppy/mynewt/stm32bluepill-mynewt-sensor/rust/app/src/hello.rs:45
    let label = Label::new(text);
    //  Create a button widget to increment the counter
    let button = Button::<u32>::new( ////
    ////let button = Button::new(
        "increment", 
        |_ctx, data, _env| *data += 1
   0:	6808      	ldr	r0, [r1, #0]
   2:	3001      	adds	r0, #1
   4:	6008      	str	r0, [r1, #0]
_ZN4core3ops8function6FnOnce9call_once17h75913317ca02ddf4E():
/rustc/50a0defd5a93523067ef239936cc2e0755220904/src/libcore/ops/function.rs:231
   6:	4770      	bx	lr

Disassembly of section .text._ZN4core3ptr18real_drop_in_place17h2d160c1876d25fbeE:

00000000 <core::ptr::real_drop_in_place>:
_ZN4core3ptr18real_drop_in_place17h2d160c1876d25fbeE():
/rustc/50a0defd5a93523067ef239936cc2e0755220904/src/libcore/ptr.rs:195
   0:	4770      	bx	lr

Disassembly of section .text._ZN4core3ptr18real_drop_in_place17h407573432a8d62a2E:

00000000 <core::ptr::real_drop_in_place>:
_ZN4core3ptr18real_drop_in_place17h91e4fc84ce68dd0bE():
/rustc/50a0defd5a93523067ef239936cc2e0755220904/src/libcore/ptr.rs:195
   0:	6941      	ldr	r1, [r0, #20]
   2:	b101      	cbz	r1, 6 <core::ptr::real_drop_in_place+0x6>
_ZN4core3ptr18real_drop_in_place17h407573432a8d62a2E():
/rustc/50a0defd5a93523067ef239936cc2e0755220904/src/libcore/ptr.rs:195
   4:	4770      	bx	lr
_ZN4core3ptr18real_drop_in_place17hca71c3d50b4b0b8dE():
/rustc/50a0defd5a93523067ef239936cc2e0755220904/src/libcore/ptr.rs:195
   6:	303c      	adds	r0, #60	; 0x3c
   8:	f7ff bffe 	b.w	0 <core::ptr::real_drop_in_place>

Disassembly of section .text._ZN4core3ptr18real_drop_in_place17h7ae1c1c93c63dfaaE:

00000000 <core::ptr::real_drop_in_place>:
_ZN4core3ptr18real_drop_in_place17h7ae1c1c93c63dfaaE():
/rustc/50a0defd5a93523067ef239936cc2e0755220904/src/libcore/ptr.rs:195
   0:	4770      	bx	lr

Disassembly of section .text._ZN4core3ptr18real_drop_in_place17h897a7d5835071a91E:

00000000 <core::ptr::real_drop_in_place>:
_ZN4core3ptr18real_drop_in_place17h897a7d5835071a91E():
/rustc/50a0defd5a93523067ef239936cc2e0755220904/src/libcore/ptr.rs:195
   0:	4770      	bx	lr

Disassembly of section .text._ZN4core3ptr18real_drop_in_place17h9757770568a0fd13E:

00000000 <core::ptr::real_drop_in_place>:
_ZN4core3ptr18real_drop_in_place17h9757770568a0fd13E():
/rustc/50a0defd5a93523067ef239936cc2e0755220904/src/libcore/ptr.rs:195
   0:	4770      	bx	lr

Disassembly of section .text._ZN4core3ptr18real_drop_in_place17h9880d25711f8717aE:

00000000 <core::ptr::real_drop_in_place>:
_ZN4core3ptr18real_drop_in_place17h9880d25711f8717aE():
/rustc/50a0defd5a93523067ef239936cc2e0755220904/src/libcore/ptr.rs:195
   0:	6801      	ldr	r1, [r0, #0]
   2:	b111      	cbz	r1, a <core::ptr::real_drop_in_place+0xa>
   4:	3004      	adds	r0, #4
_ZN4core3ptr18real_drop_in_place17h0e4b1346589c17d6E():
/rustc/50a0defd5a93523067ef239936cc2e0755220904/src/libcore/ptr.rs:195
   6:	f7ff bffe 	b.w	0 <<heapless::vec::Vec<T,N> as core::ops::drop::Drop>::drop>
_ZN4core3ptr18real_drop_in_place17h9880d25711f8717aE():
/rustc/50a0defd5a93523067ef239936cc2e0755220904/src/libcore/ptr.rs:195
   a:	4770      	bx	lr

Disassembly of section .text._ZN4core5slice87_$LT$impl$u20$core..iter..traits..collect..IntoIterator$u20$for$u20$$RF$$u5b$T$u5d$$GT$9into_iter17h418d4651c790d753E:

00000000 <core::slice::<impl core::iter::traits::collect::IntoIterator for &[T]>::into_iter>:
_ZN4core5slice29_$LT$impl$u20$$u5b$T$u5d$$GT$4iter17he7cd5fafff65337aE():
/rustc/50a0defd5a93523067ef239936cc2e0755220904/src/libcore/slice/mod.rs:546
   0:	eb01 0141 	add.w	r1, r1, r1, lsl #1
   4:	eb00 0181 	add.w	r1, r0, r1, lsl #2
_ZN4core5slice87_$LT$impl$u20$core..iter..traits..collect..IntoIterator$u20$for$u20$$RF$$u5b$T$u5d$$GT$9into_iter17h418d4651c790d753E():
/rustc/50a0defd5a93523067ef239936cc2e0755220904/src/libcore/slice/mod.rs:2973
   8:	4770      	bx	lr

Disassembly of section .text._ZN4core6result13unwrap_failed17h7cb7e5157e5e15caE:

00000000 <core::result::unwrap_failed>:
_ZN4core6result13unwrap_failed17h7cb7e5157e5e15caE():
/rustc/50a0defd5a93523067ef239936cc2e0755220904/src/libcore/result.rs:998
   0:	b08c      	sub	sp, #48	; 0x30
   2:	4614      	mov	r4, r2
/rustc/50a0defd5a93523067ef239936cc2e0755220904/src/libcore/macros.rs:18
   4:	4a0d      	ldr	r2, [pc, #52]	; (3c <core::result::unwrap_failed+0x3c>)
   6:	e9cd 0100 	strd	r0, r1, [sp]
   a:	4668      	mov	r0, sp
   c:	4611      	mov	r1, r2
   e:	f7ff fffe 	bl	0 <core::fmt::ArgumentV1::new>
/rustc/50a0defd5a93523067ef239936cc2e0755220904/src/libcore/result.rs:999
  12:	4b0b      	ldr	r3, [pc, #44]	; (40 <core::result::unwrap_failed+0x40>)
  14:	930b      	str	r3, [sp, #44]	; 0x2c
  16:	ab08      	add	r3, sp, #32
  18:	c313      	stmia	r3!, {r0, r1, r4}
  1a:	2002      	movs	r0, #2
  1c:	a908      	add	r1, sp, #32
/rustc/50a0defd5a93523067ef239936cc2e0755220904/src/libcore/macros.rs:18
  1e:	f8df c028 	ldr.w	ip, [pc, #40]	; 48 <core::result::unwrap_failed+0x48>
_ZN4core3fmt9Arguments6new_v117ha99294a9defa432aE():
/rustc/50a0defd5a93523067ef239936cc2e0755220904/src/libcore/fmt/mod.rs:316
  22:	9007      	str	r0, [sp, #28]
  24:	9106      	str	r1, [sp, #24]
  26:	2100      	movs	r1, #0
  28:	4a06      	ldr	r2, [pc, #24]	; (44 <core::result::unwrap_failed+0x44>)
  2a:	e9cd 1104 	strd	r1, r1, [sp, #16]
_ZN4core6result13unwrap_failed17h7cb7e5157e5e15caE():
/rustc/50a0defd5a93523067ef239936cc2e0755220904/src/libcore/macros.rs:18
  2e:	4661      	mov	r1, ip
_ZN4core3fmt9Arguments6new_v117ha99294a9defa432aE():
/rustc/50a0defd5a93523067ef239936cc2e0755220904/src/libcore/fmt/mod.rs:316
  30:	e9cd 2002 	strd	r2, r0, [sp, #8]
  34:	a802      	add	r0, sp, #8
_ZN4core6result13unwrap_failed17h7cb7e5157e5e15caE():
/rustc/50a0defd5a93523067ef239936cc2e0755220904/src/libcore/macros.rs:18
  36:	f7ff fffe 	bl	0 <core::panicking::panic_fmt>
  3a:	defe      	udf	#254	; 0xfe
	...

Disassembly of section .text._ZN4core6result13unwrap_failed17h99ce152f202e1453E:

00000000 <core::result::unwrap_failed>:
_ZN4core6result13unwrap_failed17h99ce152f202e1453E():
/rustc/50a0defd5a93523067ef239936cc2e0755220904/src/libcore/result.rs:998
   0:	b08c      	sub	sp, #48	; 0x30
   2:	4614      	mov	r4, r2
/rustc/50a0defd5a93523067ef239936cc2e0755220904/src/libcore/macros.rs:18
   4:	4a0d      	ldr	r2, [pc, #52]	; (3c <core::result::unwrap_failed+0x3c>)
   6:	e9cd 0100 	strd	r0, r1, [sp]
   a:	4668      	mov	r0, sp
   c:	4611      	mov	r1, r2
   e:	f7ff fffe 	bl	0 <core::fmt::ArgumentV1::new>
/rustc/50a0defd5a93523067ef239936cc2e0755220904/src/libcore/result.rs:999
  12:	4b0b      	ldr	r3, [pc, #44]	; (40 <core::result::unwrap_failed+0x40>)
  14:	930b      	str	r3, [sp, #44]	; 0x2c
  16:	ab08      	add	r3, sp, #32
  18:	c313      	stmia	r3!, {r0, r1, r4}
  1a:	2002      	movs	r0, #2
  1c:	a908      	add	r1, sp, #32
/rustc/50a0defd5a93523067ef239936cc2e0755220904/src/libcore/macros.rs:18
  1e:	f8df c028 	ldr.w	ip, [pc, #40]	; 48 <core::result::unwrap_failed+0x48>
_ZN4core3fmt9Arguments6new_v117ha99294a9defa432aE():
/rustc/50a0defd5a93523067ef239936cc2e0755220904/src/libcore/fmt/mod.rs:316
  22:	9007      	str	r0, [sp, #28]
  24:	9106      	str	r1, [sp, #24]
  26:	2100      	movs	r1, #0
  28:	4a06      	ldr	r2, [pc, #24]	; (44 <core::result::unwrap_failed+0x44>)
  2a:	e9cd 1104 	strd	r1, r1, [sp, #16]
_ZN4core6result13unwrap_failed17h99ce152f202e1453E():
/rustc/50a0defd5a93523067ef239936cc2e0755220904/src/libcore/macros.rs:18
  2e:	4661      	mov	r1, ip
_ZN4core3fmt9Arguments6new_v117ha99294a9defa432aE():
/rustc/50a0defd5a93523067ef239936cc2e0755220904/src/libcore/fmt/mod.rs:316
  30:	e9cd 2002 	strd	r2, r0, [sp, #8]
  34:	a802      	add	r0, sp, #8
_ZN4core6result13unwrap_failed17h99ce152f202e1453E():
/rustc/50a0defd5a93523067ef239936cc2e0755220904/src/libcore/macros.rs:18
  36:	f7ff fffe 	bl	0 <core::panicking::panic_fmt>
  3a:	defe      	udf	#254	; 0xfe
	...

Disassembly of section .text._ZN4core6result13unwrap_failed17h9d3e328873a9b317E:

00000000 <core::result::unwrap_failed>:
_ZN4core6result13unwrap_failed17h9d3e328873a9b317E():
/rustc/50a0defd5a93523067ef239936cc2e0755220904/src/libcore/result.rs:998
   0:	b08e      	sub	sp, #56	; 0x38
/rustc/50a0defd5a93523067ef239936cc2e0755220904/src/libcore/macros.rs:18
   2:	f8df c040 	ldr.w	ip, [pc, #64]	; 44 <core::result::unwrap_failed+0x44>
   6:	e88d 000f 	stmia.w	sp, {r0, r1, r2, r3}
   a:	4668      	mov	r0, sp
   c:	4661      	mov	r1, ip
   e:	f7ff fffe 	bl	0 <core::fmt::ArgumentV1::new>
/rustc/50a0defd5a93523067ef239936cc2e0755220904/src/libcore/result.rs:999
  12:	4b0d      	ldr	r3, [pc, #52]	; (48 <core::result::unwrap_failed+0x48>)
  14:	f10d 0e28 	add.w	lr, sp, #40	; 0x28
  18:	930d      	str	r3, [sp, #52]	; 0x34
  1a:	ab02      	add	r3, sp, #8
  1c:	e8ae 000b 	stmia.w	lr!, {r0, r1, r3}
  20:	2002      	movs	r0, #2
  22:	a90a      	add	r1, sp, #40	; 0x28
/rustc/50a0defd5a93523067ef239936cc2e0755220904/src/libcore/macros.rs:18
  24:	f8df c028 	ldr.w	ip, [pc, #40]	; 50 <core::result::unwrap_failed+0x50>
_ZN4core3fmt9Arguments6new_v117ha99294a9defa432aE():
/rustc/50a0defd5a93523067ef239936cc2e0755220904/src/libcore/fmt/mod.rs:316
  28:	9009      	str	r0, [sp, #36]	; 0x24
  2a:	9108      	str	r1, [sp, #32]
  2c:	2100      	movs	r1, #0
  2e:	4a07      	ldr	r2, [pc, #28]	; (4c <core::result::unwrap_failed+0x4c>)
  30:	e9cd 1106 	strd	r1, r1, [sp, #24]
_ZN4core6result13unwrap_failed17h9d3e328873a9b317E():
/rustc/50a0defd5a93523067ef239936cc2e0755220904/src/libcore/macros.rs:18
  34:	4661      	mov	r1, ip
_ZN4core3fmt9Arguments6new_v117ha99294a9defa432aE():
/rustc/50a0defd5a93523067ef239936cc2e0755220904/src/libcore/fmt/mod.rs:316
  36:	e9cd 2004 	strd	r2, r0, [sp, #16]
  3a:	a804      	add	r0, sp, #16
_ZN4core6result13unwrap_failed17h9d3e328873a9b317E():
/rustc/50a0defd5a93523067ef239936cc2e0755220904/src/libcore/macros.rs:18
  3c:	f7ff fffe 	bl	0 <core::panicking::panic_fmt>
  40:	defe      	udf	#254	; 0xfe
  42:	bf00      	nop
	...

Disassembly of section .text._ZN4core6result13unwrap_failed17hebf47e2bb94a8a51E:

00000000 <core::result::unwrap_failed>:
_ZN4core6result13unwrap_failed17hebf47e2bb94a8a51E():
/rustc/50a0defd5a93523067ef239936cc2e0755220904/src/libcore/result.rs:998
   0:	b08c      	sub	sp, #48	; 0x30
   2:	4614      	mov	r4, r2
/rustc/50a0defd5a93523067ef239936cc2e0755220904/src/libcore/macros.rs:18
   4:	4a0d      	ldr	r2, [pc, #52]	; (3c <core::result::unwrap_failed+0x3c>)
   6:	e9cd 0100 	strd	r0, r1, [sp]
   a:	4668      	mov	r0, sp
   c:	4611      	mov	r1, r2
   e:	f7ff fffe 	bl	0 <core::fmt::ArgumentV1::new>
/rustc/50a0defd5a93523067ef239936cc2e0755220904/src/libcore/result.rs:999
  12:	4b0b      	ldr	r3, [pc, #44]	; (40 <core::result::unwrap_failed+0x40>)
  14:	930b      	str	r3, [sp, #44]	; 0x2c
  16:	ab08      	add	r3, sp, #32
  18:	c313      	stmia	r3!, {r0, r1, r4}
  1a:	2002      	movs	r0, #2
  1c:	a908      	add	r1, sp, #32
/rustc/50a0defd5a93523067ef239936cc2e0755220904/src/libcore/macros.rs:18
  1e:	f8df c028 	ldr.w	ip, [pc, #40]	; 48 <core::result::unwrap_failed+0x48>
_ZN4core3fmt9Arguments6new_v117ha99294a9defa432aE():
/rustc/50a0defd5a93523067ef239936cc2e0755220904/src/libcore/fmt/mod.rs:316
  22:	9007      	str	r0, [sp, #28]
  24:	9106      	str	r1, [sp, #24]
  26:	2100      	movs	r1, #0
  28:	4a06      	ldr	r2, [pc, #24]	; (44 <core::result::unwrap_failed+0x44>)
  2a:	e9cd 1104 	strd	r1, r1, [sp, #16]
_ZN4core6result13unwrap_failed17hebf47e2bb94a8a51E():
/rustc/50a0defd5a93523067ef239936cc2e0755220904/src/libcore/macros.rs:18
  2e:	4661      	mov	r1, ip
_ZN4core3fmt9Arguments6new_v117ha99294a9defa432aE():
/rustc/50a0defd5a93523067ef239936cc2e0755220904/src/libcore/fmt/mod.rs:316
  30:	e9cd 2002 	strd	r2, r0, [sp, #8]
  34:	a802      	add	r0, sp, #8
_ZN4core6result13unwrap_failed17hebf47e2bb94a8a51E():
/rustc/50a0defd5a93523067ef239936cc2e0755220904/src/libcore/macros.rs:18
  36:	f7ff fffe 	bl	0 <core::panicking::panic_fmt>
  3a:	defe      	udf	#254	; 0xfe
	...

Disassembly of section .text._ZN4core6result19Result$LT$T$C$E$GT$6expect17h06de3ed274e3b86fE:

00000000 <core::result::Result<T,E>::expect>:
_ZN4core6result19Result$LT$T$C$E$GT$6expect17h06de3ed274e3b86fE():
/rustc/50a0defd5a93523067ef239936cc2e0755220904/src/libcore/result.rs:826
   0:	2801      	cmp	r0, #1
/rustc/50a0defd5a93523067ef239936cc2e0755220904/src/libcore/result.rs:829
   2:	bf08      	it	eq
   4:	4770      	bxeq	lr
   6:	4603      	mov	r3, r0
/rustc/50a0defd5a93523067ef239936cc2e0755220904/src/libcore/result.rs:827
   8:	4608      	mov	r0, r1
   a:	4611      	mov	r1, r2
   c:	461a      	mov	r2, r3
   e:	f7ff fffe 	bl	0 <core::result::unwrap_failed>
  12:	defe      	udf	#254	; 0xfe

Disassembly of section .text._ZN4core6result19Result$LT$T$C$E$GT$6expect17h468aab9711338b2eE:

00000000 <core::result::Result<T,E>::expect>:
_ZN4core6result19Result$LT$T$C$E$GT$6expect17h468aab9711338b2eE():
/rustc/50a0defd5a93523067ef239936cc2e0755220904/src/libcore/result.rs:826
   0:	6801      	ldr	r1, [r0, #0]
   2:	2901      	cmp	r1, #1
   4:	bf1c      	itt	ne
   6:	6840      	ldrne	r0, [r0, #4]
/rustc/50a0defd5a93523067ef239936cc2e0755220904/src/libcore/result.rs:829
   8:	4770      	bxne	lr
/rustc/50a0defd5a93523067ef239936cc2e0755220904/src/libcore/result.rs:827
   a:	4903      	ldr	r1, [pc, #12]	; (18 <core::result::Result<T,E>::expect+0x18>)
   c:	6842      	ldr	r2, [r0, #4]
   e:	4608      	mov	r0, r1
  10:	2108      	movs	r1, #8
  12:	f7ff fffe 	bl	0 <core::result::unwrap_failed>
  16:	defe      	udf	#254	; 0xfe
  18:	00000000 	.word	0x00000000

Disassembly of section .text._ZN4core6result19Result$LT$T$C$E$GT$6unwrap17h6c1677eb16e5b690E:

00000000 <core::result::Result<T,E>::unwrap>:
_ZN4core6result19Result$LT$T$C$E$GT$6unwrap17h6c1677eb16e5b690E():
/rustc/50a0defd5a93523067ef239936cc2e0755220904/src/libcore/result.rs:799
   0:	b900      	cbnz	r0, 4 <core::result::Result<T,E>::unwrap+0x4>
/rustc/50a0defd5a93523067ef239936cc2e0755220904/src/libcore/result.rs:802
   2:	4770      	bx	lr
/rustc/50a0defd5a93523067ef239936cc2e0755220904/src/libcore/result.rs:800
   4:	4802      	ldr	r0, [pc, #8]	; (10 <core::result::Result<T,E>::unwrap+0x10>)
   6:	212b      	movs	r1, #43	; 0x2b
   8:	f7ff fffe 	bl	0 <core::result::unwrap_failed>
   c:	defe      	udf	#254	; 0xfe
   e:	bf00      	nop
  10:	00000000 	.word	0x00000000

Disassembly of section .text._ZN50_$LT$$RF$mut$u20$W$u20$as$u20$core..fmt..Write$GT$10write_char17hc8be0f2983e80e8aE:

00000000 <<&mut W as core::fmt::Write>::write_char>:
_ZN50_$LT$$RF$mut$u20$W$u20$as$u20$core..fmt..Write$GT$10write_char17hc8be0f2983e80e8aE():
/rustc/50a0defd5a93523067ef239936cc2e0755220904/src/libcore/fmt/mod.rs:206
   0:	6800      	ldr	r0, [r0, #0]
   2:	f7ff bffe 	b.w	0 <<&mut W as core::fmt::Write>::write_char>

Disassembly of section .text._ZN50_$LT$$RF$mut$u20$W$u20$as$u20$core..fmt..Write$GT$9write_fmt17hc4cfe1b2012bb7feE:

00000000 <<&mut W as core::fmt::Write>::write_fmt>:
_ZN50_$LT$$RF$mut$u20$W$u20$as$u20$core..fmt..Write$GT$9write_fmt17hc4cfe1b2012bb7feE():
/rustc/50a0defd5a93523067ef239936cc2e0755220904/src/libcore/fmt/mod.rs:209
   0:	b5f0      	push	{r4, r5, r6, r7, lr}
   2:	b087      	sub	sp, #28
/rustc/50a0defd5a93523067ef239936cc2e0755220904/src/libcore/fmt/mod.rs:210
   4:	6800      	ldr	r0, [r0, #0]
   6:	f10d 0c04 	add.w	ip, sp, #4
   a:	e891 40f4 	ldmia.w	r1, {r2, r4, r5, r6, r7, lr}
   e:	4663      	mov	r3, ip
  10:	4661      	mov	r1, ip
  12:	e883 40f4 	stmia.w	r3, {r2, r4, r5, r6, r7, lr}
  16:	f7ff fffe 	bl	0 <<&mut W as core::fmt::Write>::write_fmt>
/rustc/50a0defd5a93523067ef239936cc2e0755220904/src/libcore/fmt/mod.rs:211
  1a:	b007      	add	sp, #28
  1c:	bdf0      	pop	{r4, r5, r6, r7, pc}

Disassembly of section .text._ZN50_$LT$$RF$mut$u20$W$u20$as$u20$core..fmt..Write$GT$9write_str17h744011ce020712c0E:

00000000 <<&mut W as core::fmt::Write>::write_str>:
_ZN50_$LT$$RF$mut$u20$W$u20$as$u20$core..fmt..Write$GT$9write_str17h744011ce020712c0E():
/rustc/50a0defd5a93523067ef239936cc2e0755220904/src/libcore/fmt/mod.rs:202
   0:	6800      	ldr	r0, [r0, #0]
_ZN8heapless6string15String$LT$N$GT$8push_str17h1e187a52136833a6E():
/Users/Luppy/.cargo/registry/src/github.com-1ecc6299db9ec823/heapless-0.5.1/src/string.rs:201
    ///
    /// assert!(s.push_str("tender").is_err());
    /// ```
    #[inline]
    pub fn push_str(&mut self, string: &str) -> Result<(), ()> {
        self.0.vec.extend_from_slice(string.as_bytes())
   2:	f7ff bffe 	b.w	0 <heapless::vec::<impl heapless::i::Vec<generic_array::GenericArray<T,N>>>::extend_from_slice>

Disassembly of section .text._ZN50_$LT$T$u20$as$u20$core..convert..From$LT$T$GT$$GT$4from17h2eb55c03c673d4b0E:

00000000 <<T as core::convert::From<T>>::from>:
_ZN50_$LT$T$u20$as$u20$core..convert..From$LT$T$GT$$GT$4from17h2eb55c03c673d4b0E():
/rustc/50a0defd5a93523067ef239936cc2e0755220904/src/libcore/convert.rs:547
   0:	4770      	bx	lr

Disassembly of section .text._ZN50_$LT$T$u20$as$u20$core..convert..Into$LT$U$GT$$GT$4into17h05744007cac56a82E:

00000000 <<T as core::convert::Into<U>>::into>:
_ZN50_$LT$T$u20$as$u20$core..convert..Into$LT$U$GT$$GT$4into17h05744007cac56a82E():
/rustc/50a0defd5a93523067ef239936cc2e0755220904/src/libcore/convert.rs:539
   0:	b580      	push	{r7, lr}
/rustc/50a0defd5a93523067ef239936cc2e0755220904/src/libcore/convert.rs:540
   2:	f7ff fffe 	bl	0 <<T as core::convert::Into<U>>::into>
/rustc/50a0defd5a93523067ef239936cc2e0755220904/src/libcore/convert.rs:541
   6:	bd80      	pop	{r7, pc}

Disassembly of section .text._ZN50_$LT$T$u20$as$u20$core..convert..Into$LT$U$GT$$GT$4into17h15962fb47157b6d8E:

00000000 <<T as core::convert::Into<U>>::into>:
_ZN50_$LT$T$u20$as$u20$core..convert..Into$LT$U$GT$$GT$4into17h15962fb47157b6d8E():
/rustc/50a0defd5a93523067ef239936cc2e0755220904/src/libcore/convert.rs:539
   0:	b510      	push	{r4, lr}
   2:	4604      	mov	r4, r0
_ZN133_$LT$druid..widget..label..LabelText$LT$T$GT$$u20$as$u20$core..convert..From$LT$druid..localization..LocalizedString$LT$T$GT$$GT$$GT$4from17h040614271e868eafE():
/Users/Luppy/mynewt/druid-embedded/druid/src/widget/label.rs:255
        LabelText::Localized(src)
   4:	3004      	adds	r0, #4
   6:	2260      	movs	r2, #96	; 0x60
   8:	f7ff fffe 	bl	0 <__aeabi_memcpy4>
   c:	2000      	movs	r0, #0
   e:	6020      	str	r0, [r4, #0]
_ZN50_$LT$T$u20$as$u20$core..convert..Into$LT$U$GT$$GT$4into17h15962fb47157b6d8E():
/rustc/50a0defd5a93523067ef239936cc2e0755220904/src/libcore/convert.rs:541
  10:	bd10      	pop	{r4, pc}

Disassembly of section .text._ZN50_$LT$T$u20$as$u20$core..convert..Into$LT$U$GT$$GT$4into17h945b111611b9b324E:

00000000 <<T as core::convert::Into<U>>::into>:
_ZN50_$LT$T$u20$as$u20$core..convert..Into$LT$U$GT$$GT$4into17h945b111611b9b324E():
/rustc/50a0defd5a93523067ef239936cc2e0755220904/src/libcore/convert.rs:539
   0:	b580      	push	{r7, lr}
/rustc/50a0defd5a93523067ef239936cc2e0755220904/src/libcore/convert.rs:540
   2:	f7ff fffe 	bl	0 <<T as core::convert::Into<U>>::into>
/rustc/50a0defd5a93523067ef239936cc2e0755220904/src/libcore/convert.rs:541
   6:	bd80      	pop	{r7, pc}

Disassembly of section .text._ZN50_$LT$T$u20$as$u20$core..convert..Into$LT$U$GT$$GT$4into17hf9a2610d20630218E:

00000000 <<T as core::convert::Into<U>>::into>:
_ZN50_$LT$T$u20$as$u20$core..convert..Into$LT$U$GT$$GT$4into17hf9a2610d20630218E():
/rustc/50a0defd5a93523067ef239936cc2e0755220904/src/libcore/convert.rs:541
   0:	4770      	bx	lr

Disassembly of section .text._ZN59_$LT$$LP$T10$C$$u20$T11$RP$$u20$as$u20$core..fmt..Debug$GT$3fmt17h2e2c98cdec5a2a42E:

00000000 <<(T10, T11) as core::fmt::Debug>::fmt>:
_ZN59_$LT$$LP$T10$C$$u20$T11$RP$$u20$as$u20$core..fmt..Debug$GT$3fmt17h2e2c98cdec5a2a42E():
/rustc/50a0defd5a93523067ef239936cc2e0755220904/src/libcore/fmt/mod.rs:2075
   0:	b5b0      	push	{r4, r5, r7, lr}
   2:	b086      	sub	sp, #24
/rustc/50a0defd5a93523067ef239936cc2e0755220904/src/libcore/fmt/mod.rs:2076
   4:	4a0c      	ldr	r2, [pc, #48]	; (38 <<(T10, T11) as core::fmt::Debug>::fmt+0x38>)
   6:	ad01      	add	r5, sp, #4
   8:	4604      	mov	r4, r0
   a:	2300      	movs	r3, #0
   c:	4628      	mov	r0, r5
   e:	f7ff fffe 	bl	0 <core::fmt::Formatter::debug_tuple>
/rustc/50a0defd5a93523067ef239936cc2e0755220904/src/libcore/fmt/mod.rs:2079
  12:	4a0a      	ldr	r2, [pc, #40]	; (3c <<(T10, T11) as core::fmt::Debug>::fmt+0x3c>)
/rustc/50a0defd5a93523067ef239936cc2e0755220904/src/libcore/fmt/mod.rs:2077
  14:	f104 0008 	add.w	r0, r4, #8
  18:	a904      	add	r1, sp, #16
  1a:	9005      	str	r0, [sp, #20]
/rustc/50a0defd5a93523067ef239936cc2e0755220904/src/libcore/fmt/mod.rs:2079
  1c:	4628      	mov	r0, r5
/rustc/50a0defd5a93523067ef239936cc2e0755220904/src/libcore/fmt/mod.rs:2077
  1e:	9404      	str	r4, [sp, #16]
/rustc/50a0defd5a93523067ef239936cc2e0755220904/src/libcore/fmt/mod.rs:2079
  20:	f7ff fffe 	bl	0 <core::fmt::builders::DebugTuple::field>
  24:	4a06      	ldr	r2, [pc, #24]	; (40 <<(T10, T11) as core::fmt::Debug>::fmt+0x40>)
  26:	a905      	add	r1, sp, #20
  28:	4628      	mov	r0, r5
  2a:	f7ff fffe 	bl	0 <core::fmt::builders::DebugTuple::field>
/rustc/50a0defd5a93523067ef239936cc2e0755220904/src/libcore/fmt/mod.rs:2082
  2e:	4628      	mov	r0, r5
  30:	f7ff fffe 	bl	0 <core::fmt::builders::DebugTuple::finish>
/rustc/50a0defd5a93523067ef239936cc2e0755220904/src/libcore/fmt/mod.rs:2083
  34:	b006      	add	sp, #24
  36:	bdb0      	pop	{r4, r5, r7, pc}
	...

Disassembly of section .text._ZN5druid11win_handler17AppState$LT$T$GT$21assemble_window_state17h74aa682bcaa5ff5dE:

00000000 <druid::win_handler::AppState<T>::assemble_window_state>:
_ZN5druid11win_handler17AppState$LT$T$GT$21assemble_window_state17h74aa682bcaa5ff5dE():
/Users/Luppy/mynewt/druid-embedded/druid/src/win_handler.rs:638
    }
   0:	2001      	movs	r0, #1
   2:	4770      	bx	lr

Disassembly of section .text._ZN5druid11win_handler17AppState$LT$T$GT$3new17h8ac3ab33e7da130dE:

00000000 <druid::win_handler::AppState<T>::new>:
_ZN5druid11win_handler17AppState$LT$T$GT$3new17h8ac3ab33e7da130dE():
/Users/Luppy/mynewt/druid-embedded/druid/src/win_handler.rs:544
    }
   0:	4770      	bx	lr

Disassembly of section .text._ZN5druid11win_handler17AppState$LT$T$GT$5paint17hd8a6be67606aa237E:

00000000 <druid::win_handler::AppState<T>::paint>:
_ZN5druid11win_handler17AppState$LT$T$GT$5paint17hd8a6be67606aa237E():
/Users/Luppy/mynewt/druid-embedded/druid/src/win_handler.rs:640
    fn paint(&mut self, window_id: WindowId, piet: &mut Piet, ctx: &mut dyn WinCtx) -> bool {
   0:	b5e0      	push	{r5, r6, r7, lr}
   2:	a801      	add	r0, sp, #4
   4:	9101      	str	r1, [sp, #4]
_ZN5druid11win_handler17AppState$LT$T$GT$5paint28_$u7b$$u7b$closure$u7d$$u7d$17h8bca2472ec785997E():
/Users/Luppy/mynewt/druid-embedded/druid/src/win_handler.rs:642
            .map(|mut win| win.paint(piet, ctx))
   6:	4611      	mov	r1, r2
   8:	f7ff fffe 	bl	0 <druid::win_handler::AppState<T>::paint>
_ZN5druid11win_handler17AppState$LT$T$GT$5paint17hd8a6be67606aa237E():
/Users/Luppy/mynewt/druid-embedded/druid/src/win_handler.rs:644
    }
   c:	2000      	movs	r0, #0
   e:	b002      	add	sp, #8
  10:	bd80      	pop	{r7, pc}

Disassembly of section .text._ZN5druid11win_handler21DruidHandler$LT$T$GT$10new_shared17h2e143bd64265c152E:

00000000 <druid::win_handler::DruidHandler<T>::new_shared>:
_ZN5druid11win_handler21DruidHandler$LT$T$GT$10new_shared17h2e143bd64265c152E():
/Users/Luppy/mynewt/druid-embedded/druid/src/win_handler.rs:729
    }
   0:	4770      	bx	lr

Disassembly of section .text._ZN5druid11win_handler26SingleWindowState$LT$T$GT$5paint17h0f9d50e1bcb9ae40E:

00000000 <druid::win_handler::SingleWindowState<T>::paint>:
_ZN5druid11win_handler26SingleWindowState$LT$T$GT$5paint17h0f9d50e1bcb9ae40E():
/Users/Luppy/mynewt/druid-embedded/druid/src/win_handler.rs:359
    fn paint(&mut self, piet: &mut Piet, ctx: &mut dyn WinCtx) -> bool {
   0:	b5b0      	push	{r4, r5, r7, lr}
   2:	460c      	mov	r4, r1
   4:	4605      	mov	r5, r0
/Users/Luppy/mynewt/druid-embedded/druid/src/win_handler.rs:361
        self.do_layout(piet);
   6:	f7ff fffe 	bl	0 <druid::win_handler::SingleWindowState<T>::paint>
/Users/Luppy/mynewt/druid-embedded/druid/src/win_handler.rs:362
        piet.clear(crate::env::WINDOW_BACKGROUND_COLOR); ////
   a:	4620      	mov	r0, r4
   c:	21ff      	movs	r1, #255	; 0xff
   e:	f7ff fffe 	bl	0 <<piet_embedded_graphics::context::EmbedRenderContext as piet::render_context::RenderContext>::clear>
/Users/Luppy/mynewt/druid-embedded/druid/src/win_handler.rs:364
        self.do_paint(piet);
  12:	4628      	mov	r0, r5
  14:	4621      	mov	r1, r4
  16:	f7ff fffe 	bl	0 <druid::win_handler::SingleWindowState<T>::paint>
/Users/Luppy/mynewt/druid-embedded/druid/src/win_handler.rs:367
    }
  1a:	2000      	movs	r0, #0
  1c:	bdb0      	pop	{r4, r5, r7, pc}

Disassembly of section .text._ZN5druid11win_handler26SingleWindowState$LT$T$GT$8do_paint17h504e926baedded14E:

00000000 <druid::win_handler::SingleWindowState<T>::do_paint>:
_ZN5druid11win_handler26SingleWindowState$LT$T$GT$8do_paint17h504e926baedded14E():
/Users/Luppy/mynewt/druid-embedded/druid/src/win_handler.rs:404
    fn do_paint(&mut self, piet: &mut Piet) {
   0:	e92d 41f0 	stmdb	sp!, {r4, r5, r6, r7, r8, lr}
   4:	b094      	sub	sp, #80	; 0x50
   6:	ae0a      	add	r6, sp, #40	; 0x28
   8:	460c      	mov	r4, r1
   a:	4605      	mov	r5, r0
/Users/Luppy/mynewt/druid-embedded/druid/src/win_handler.rs:407
            window_id: self.window_id,
   c:	6807      	ldr	r7, [r0, #0]
/Users/Luppy/mynewt/druid-embedded/druid/src/win_handler.rs:408
            region: Rect::ZERO.into(),
   e:	4630      	mov	r0, r6
  10:	2120      	movs	r1, #32
  12:	f7ff fffe 	bl	0 <__aeabi_memclr8>
  16:	46e8      	mov	r8, sp
  18:	4631      	mov	r1, r6
  1a:	4640      	mov	r0, r8
  1c:	f7ff fffe 	bl	0 <<T as core::convert::Into<U>>::into>
/Users/Luppy/mynewt/druid-embedded/druid/src/win_handler.rs:405
        let mut paint_ctx = PaintCtx {
  20:	e9cd 4708 	strd	r4, r7, [sp, #32]
  24:	a813      	add	r0, sp, #76	; 0x4c
/Users/Luppy/mynewt/druid-embedded/druid/src/win_handler.rs:410
        AppState::<T>::new().window_paint(self.window_id, &mut paint_ctx); ////
  26:	6829      	ldr	r1, [r5, #0]
  28:	4642      	mov	r2, r8
  2a:	f7ff fffe 	bl	0 <<druid::win_handler::AppState<u32> as druid::win_handler::GlobalWindows<u32>>::window_paint>
/Users/Luppy/mynewt/druid-embedded/druid/src/win_handler.rs:412
    }
  2e:	b014      	add	sp, #80	; 0x50
  30:	e8bd 81f0 	ldmia.w	sp!, {r4, r5, r6, r7, r8, pc}

Disassembly of section .text._ZN5druid11win_handler26SingleWindowState$LT$T$GT$9do_layout17h2723ced434e2874dE:

00000000 <druid::win_handler::SingleWindowState<T>::do_layout>:
_ZN5druid11win_handler26SingleWindowState$LT$T$GT$9do_layout17h2723ced434e2874dE():
/Users/Luppy/mynewt/druid-embedded/druid/src/win_handler.rs:395
    fn do_layout(&mut self, piet: &mut Piet) {
   0:	b51f      	push	{r0, r1, r2, r3, r4, lr}
   2:	4604      	mov	r4, r0
/Users/Luppy/mynewt/druid-embedded/druid/src/win_handler.rs:397
            text_factory: piet.text(),
   4:	4608      	mov	r0, r1
   6:	f7ff fffe 	bl	0 <<piet_embedded_graphics::context::EmbedRenderContext as piet::render_context::RenderContext>::text>
/Users/Luppy/mynewt/druid-embedded/druid/src/win_handler.rs:398
            window_id: self.window_id,
   a:	6821      	ldr	r1, [r4, #0]
   c:	aa01      	add	r2, sp, #4
/Users/Luppy/mynewt/druid-embedded/druid/src/win_handler.rs:396
        let mut layout_ctx = LayoutCtx {
   e:	e9cd 0101 	strd	r0, r1, [sp, #4]
  12:	a803      	add	r0, sp, #12
/Users/Luppy/mynewt/druid-embedded/druid/src/win_handler.rs:400
        AppState::<T>::new().window_layout(self.window_id, &mut layout_ctx); ////
  14:	f7ff fffe 	bl	0 <<druid::win_handler::AppState<u32> as druid::win_handler::GlobalWindows<u32>>::window_layout>
/Users/Luppy/mynewt/druid-embedded/druid/src/win_handler.rs:402
    }
  18:	bd1f      	pop	{r0, r1, r2, r3, r4, pc}

Disassembly of section .text._ZN5druid12localization24LocalizedString$LT$T$GT$3new17h80fb9461e3b01a82E:

00000000 <druid::localization::LocalizedString<T>::new>:
_ZN5druid12localization24LocalizedString$LT$T$GT$3new17h80fb9461e3b01a82E():
/Users/Luppy/mynewt/druid-embedded/druid/src/localization.rs:312
}
*/ ////

impl<T> LocalizedString<T> {
    /// Create a new `LocalizedString` with the given key.
    pub const fn new(key: &'static str) -> Self {
   0:	2300      	movs	r3, #0
/Users/Luppy/mynewt/druid-embedded/druid/src/localization.rs:313
        LocalizedString {
   2:	6443      	str	r3, [r0, #68]	; 0x44
   4:	6243      	str	r3, [r0, #36]	; 0x24
   6:	c00e      	stmia	r0!, {r1, r2, r3}
/Users/Luppy/mynewt/druid-embedded/druid/src/localization.rs:320
            args: None,
            placeholder: None,
            resolved: None,
            ////resolved_lang: None,
        }
    }
   8:	4770      	bx	lr

Disassembly of section .text._ZN5druid12localization24LocalizedString$LT$T$GT$8with_arg17h08b814a4f1bf07d8E:

00000000 <druid::localization::LocalizedString<T>::with_arg>:
_ZN5druid12localization24LocalizedString$LT$T$GT$8with_arg17h08b814a4f1bf07d8E():
/Users/Luppy/mynewt/druid-embedded/druid/src/localization.rs:352
    /// Add a named argument and a corresponding [`ArgClosure`]. This closure
    /// is a function that will return a value for the given key from the current
    /// environment and data.
    ///
    /// [`ArgClosure`]: type.ArgClosure.html
    pub fn with_arg(
   0:	e92d 41f0 	stmdb	sp!, {r4, r5, r6, r7, r8, lr}
   4:	b08a      	sub	sp, #40	; 0x28
   6:	4605      	mov	r5, r0
   8:	2000      	movs	r0, #0
_ZN8heapless3vec16Vec$LT$T$C$N$GT$3new17hf9c77d32aa535311E():
/Users/Luppy/.cargo/registry/src/github.com-1ecc6299db9ec823/heapless-0.5.1/src/vec.rs:197
    ///
    /// // allocate the vector in a static variable
    /// static mut X: Vec<u8, U16> = Vec(heapless::i::Vec::new());
    /// ```
    pub fn new() -> Self {
        Vec(crate::i::Vec::new())
   a:	9009      	str	r0, [sp, #36]	; 0x24
_ZN4core6option15Option$LT$T$GT$13get_or_insert17hab21420747f406d3E():
/rustc/50a0defd5a93523067ef239936cc2e0755220904/src/libcore/option.rs:783
   c:	4608      	mov	r0, r1
   e:	460c      	mov	r4, r1
  10:	f850 1f24 	ldr.w	r1, [r0, #36]!
  14:	f8dd 8040 	ldr.w	r8, [sp, #64]	; 0x40
  18:	461f      	mov	r7, r3
  1a:	4616      	mov	r6, r2
  1c:	b119      	cbz	r1, 26 <druid::localization::LocalizedString<T>::with_arg+0x26>
  1e:	a803      	add	r0, sp, #12
_ZN4core3ptr18real_drop_in_place17h0e4b1346589c17d6E():
/rustc/50a0defd5a93523067ef239936cc2e0755220904/src/libcore/ptr.rs:195
  20:	f7ff fffe 	bl	0 <<heapless::vec::Vec<T,N> as core::ops::drop::Drop>::drop>
  24:	e009      	b.n	16 <druid::localization::LocalizedString<T>::with_arg+0x16>
_ZN4core6option15Option$LT$T$GT$13get_or_insert17hab21420747f406d3E():
/rustc/50a0defd5a93523067ef239936cc2e0755220904/src/libcore/option.rs:783
  26:	f7ff fffe 	bl	0 <druid::localization::LocalizedString<T>::with_arg>
  2a:	2001      	movs	r0, #1
  2c:	a903      	add	r1, sp, #12
  2e:	6260      	str	r0, [r4, #36]	; 0x24
  30:	f104 0028 	add.w	r0, r4, #40	; 0x28
  34:	221c      	movs	r2, #28
  36:	f7ff fffe 	bl	0 <__aeabi_memcpy>
_ZN5druid12localization24LocalizedString$LT$T$GT$8with_arg17h08b814a4f1bf07d8E():
/Users/Luppy/mynewt/druid-embedded/druid/src/localization.rs:360
        f: fn(&T, &Env) -> String, ////
        ////f: impl Fn(&T, &Env) -> FluentValue<'static> + 'static,
    ) -> Self {
        self.args
            .get_or_insert(Vec::new())
            .push((key, ArgSource(f)))
  3a:	a803      	add	r0, sp, #12
_ZN4core6option15Option$LT$T$GT$13get_or_insert17hab21420747f406d3E():
/rustc/50a0defd5a93523067ef239936cc2e0755220904/src/libcore/option.rs:788
  3c:	f104 0128 	add.w	r1, r4, #40	; 0x28
_ZN5druid12localization24LocalizedString$LT$T$GT$8with_arg17h08b814a4f1bf07d8E():
/Users/Luppy/mynewt/druid-embedded/druid/src/localization.rs:360
  40:	e880 01c0 	stmia.w	r0, {r6, r7, r8}
  44:	ae03      	add	r6, sp, #12
  46:	466f      	mov	r7, sp
/Users/Luppy/mynewt/druid-embedded/druid/src/localization.rs:358
        self.args
  48:	4638      	mov	r0, r7
  4a:	4632      	mov	r2, r6
  4c:	f7ff fffe 	bl	0 <druid::localization::LocalizedString<T>::with_arg>
_ZN4core6result19Result$LT$T$C$E$GT$6expect17h770761e5dd6aca5bE():
/rustc/50a0defd5a93523067ef239936cc2e0755220904/src/libcore/result.rs:826
  50:	9800      	ldr	r0, [sp, #0]
  52:	b938      	cbnz	r0, 64 <druid::localization::LocalizedString<T>::with_arg+0x64>
_ZN5druid12localization24LocalizedString$LT$T$GT$8with_arg17h08b814a4f1bf07d8E():
/Users/Luppy/mynewt/druid-embedded/druid/src/localization.rs:363
            .expect("with arg failed"); ////
            ////.push((key, ArgSource(Arc::new(f))));
        self
  54:	4628      	mov	r0, r5
  56:	4621      	mov	r1, r4
  58:	2260      	movs	r2, #96	; 0x60
  5a:	f7ff fffe 	bl	0 <__aeabi_memcpy4>
/Users/Luppy/mynewt/druid-embedded/druid/src/localization.rs:364
    }
  5e:	b00a      	add	sp, #40	; 0x28
  60:	e8bd 81f0 	ldmia.w	sp!, {r4, r5, r6, r7, r8, pc}
_ZN4core6result19Result$LT$T$C$E$GT$6expect17h770761e5dd6aca5bE():
/rustc/50a0defd5a93523067ef239936cc2e0755220904/src/libcore/result.rs:827
  64:	e897 002c 	ldmia.w	r7, {r2, r3, r5}
  68:	4631      	mov	r1, r6
  6a:	4803      	ldr	r0, [pc, #12]	; (78 <druid::localization::LocalizedString<T>::with_arg+0x78>)
  6c:	c12c      	stmia	r1!, {r2, r3, r5}
  6e:	210f      	movs	r1, #15
  70:	4632      	mov	r2, r6
  72:	f7ff fffe 	bl	0 <druid::localization::LocalizedString<T>::with_arg>
  76:	defe      	udf	#254	; 0xfe
_ZN5druid12localization24LocalizedString$LT$T$GT$8with_arg17h08b814a4f1bf07d8E():
  78:	00000000 	.word	0x00000000

Disassembly of section .text._ZN5druid22WidgetPod$LT$T$C$W$GT$3new17h19f68049a961c92dE:

00000000 <druid::WidgetPod<T,W>::new>:
_ZN5druid22WidgetPod$LT$T$C$W$GT$3new17h19f68049a961c92dE():
/Users/Luppy/mynewt/druid-embedded/druid/src/lib.rs:453
    /// Create a new widget pod.
    ///
    /// In a widget hierarchy, each widget is wrapped in a `WidgetPod`
    /// so it can participate in layout and event flow. The process of
    /// adding a child widget to a container should call this method.
    pub fn new(inner: W) -> WidgetPod<T, W> {
   0:	b5b0      	push	{r4, r5, r7, lr}
   2:	460c      	mov	r4, r1
_ZN59_$LT$druid..BaseState$u20$as$u20$core..default..Default$GT$7default17h3b085c6439d19087E():
/Users/Luppy/mynewt/druid-embedded/druid/src/lib.rs:120
#[derive(Clone, Copy, Default)] ////
   4:	2128      	movs	r1, #40	; 0x28
   6:	4605      	mov	r5, r0
   8:	f7ff fffe 	bl	0 <__aeabi_memclr8>
   c:	2000      	movs	r0, #0
_ZN5druid22WidgetPod$LT$T$C$W$GT$3new17h19f68049a961c92dE():
/Users/Luppy/mynewt/druid-embedded/druid/src/lib.rs:454
        WidgetPod {
   e:	4621      	mov	r1, r4
  10:	f885 0240 	strb.w	r0, [r5, #576]	; 0x240
  14:	f44f 7204 	mov.w	r2, #528	; 0x210
  18:	f8c5 0238 	str.w	r0, [r5, #568]	; 0x238
  1c:	f105 0028 	add.w	r0, r5, #40	; 0x28
  20:	f7ff fffe 	bl	0 <__aeabi_memcpy8>
/Users/Luppy/mynewt/druid-embedded/druid/src/lib.rs:460
            state: Default::default(),
            old_data: None,
            env: None,
            inner,
        }
    }
  24:	bdb0      	pop	{r4, r5, r7, pc}

Disassembly of section .text._ZN5druid22WidgetPod$LT$T$C$W$GT$3new17hf01255c82a56ab0cE:

00000000 <druid::WidgetPod<T,W>::new>:
_ZN5druid22WidgetPod$LT$T$C$W$GT$3new17hf01255c82a56ab0cE():
/Users/Luppy/mynewt/druid-embedded/druid/src/lib.rs:453
    pub fn new(inner: W) -> WidgetPod<T, W> {
   0:	b5b0      	push	{r4, r5, r7, lr}
   2:	4605      	mov	r5, r0
   4:	2000      	movs	r0, #0
   6:	460c      	mov	r4, r1
/Users/Luppy/mynewt/druid-embedded/druid/src/lib.rs:454
        WidgetPod {
   8:	f885 0034 	strb.w	r0, [r5, #52]	; 0x34
   c:	4628      	mov	r0, r5
   e:	212c      	movs	r1, #44	; 0x2c
  10:	f7ff fffe 	bl	0 <__aeabi_memclr8>
  14:	632c      	str	r4, [r5, #48]	; 0x30
/Users/Luppy/mynewt/druid-embedded/druid/src/lib.rs:460
    }
  16:	bdb0      	pop	{r4, r5, r7, pc}

Disassembly of section .text._ZN5druid3app23WindowDesc$LT$T$C$W$GT$12build_native17ha4c1e9abdc88db78E:

00000000 <druid::app::WindowDesc<T,W>::build_native>:
_ZN5druid3app23WindowDesc$LT$T$C$W$GT$12build_native17ha4c1e9abdc88db78E():
/Users/Luppy/mynewt/druid-embedded/druid/src/app.rs:197
        self.size = Some(size.into());
        self
    }

    /// Attempt to create a platform window from this `WindowDesc`.
    pub(crate) fn build_native(
   0:	e92d 4ff0 	stmdb	sp!, {r4, r5, r6, r7, r8, r9, sl, fp, lr}
   4:	f5ad 6ddf 	sub.w	sp, sp, #1784	; 0x6f8
   8:	b081      	sub	sp, #4
   a:	4680      	mov	r8, r0
   c:	4834      	ldr	r0, [pc, #208]	; (e0 <druid::app::WindowDesc<T,W>::build_native+0xe0>)
   e:	460f      	mov	r7, r1
  10:	2600      	movs	r6, #0
/Users/Luppy/mynewt/druid-embedded/druid/src/app.rs:215
        let platform_menu = menu
            .as_mut()
            .map(|m| m.build_window_menu(&state.borrow().data, &state.borrow().env));
        */ ////

        let mut handler: DruidHandler<T> = DruidHandler::new_shared(self.id); ////
  12:	69c9      	ldr	r1, [r1, #28]
  14:	9203      	str	r2, [sp, #12]
_ZN11druid_shell6window29WindowBuilder$LT$THandler$GT$3new17h9318f9ddc7dd47f7E():
/Users/Luppy/mynewt/druid-embedded/druid-shell/src/window.rs:150
        WindowBuilder(
  16:	9005      	str	r0, [sp, #20]
  18:	9604      	str	r6, [sp, #16]
  1a:	e9cd 6006 	strd	r6, r0, [sp, #24]
  1e:	a804      	add	r0, sp, #16
  20:	e9cd 6608 	strd	r6, r6, [sp, #32]
  24:	9102      	str	r1, [sp, #8]
_ZN11druid_shell6window29WindowBuilder$LT$THandler$GT$11set_handler17h9b79e6e842b1ac4cE():
/Users/Luppy/mynewt/druid-embedded/druid-shell/src/window.rs:162
        self.0.set_handler(handler)
  26:	f7ff fffe 	bl	0 <druid::app::WindowDesc<T,W>::build_native>
_ZN5druid3app23WindowDesc$LT$T$C$W$GT$12build_native17ha4c1e9abdc88db78E():
/Users/Luppy/mynewt/druid-embedded/druid/src/app.rs:221
        ////let handler = DruidHandler::new_shared(state.clone(), self.id);

        let mut builder: WindowBuilder<DruidHandler<T>> = WindowBuilder::new();
        builder.set_handler(handler); ////
        ////builder.set_handler(Box::new(handler));
        if let Some(size) = self.size {
  2a:	e9d7 0100 	ldrd	r0, r1, [r7]
  2e:	ad0a      	add	r5, sp, #40	; 0x28
  30:	f080 0001 	eor.w	r0, r0, #1
  34:	4308      	orrs	r0, r1
  36:	bf01      	itttt	eq
  38:	ed97 0b02 	vldreq	d0, [r7, #8]
  3c:	ed97 1b04 	vldreq	d1, [r7, #16]
_ZN11druid_shell8platform8embedded6window29WindowBuilder$LT$THandler$GT$8set_size17h3274caad77b0c5daE():
/Users/Luppy/mynewt/druid-embedded/druid-shell/src/platform/embedded/window.rs:168
        self.size = size;
  40:	ed8d 1b06 	vstreq	d1, [sp, #24]
  44:	ed8d 0b04 	vstreq	d0, [sp, #16]
_ZN5druid3app23WindowDesc$LT$T$C$W$GT$12build_native17ha4c1e9abdc88db78E():
/Users/Luppy/mynewt/druid-embedded/druid/src/app.rs:231
        if let Some(menu) = platform_menu {
            builder.set_menu(menu);
        }
        */ ////

        let root_widget = (self.root_builder)(); ////
  48:	69b9      	ldr	r1, [r7, #24]
  4a:	4628      	mov	r0, r5
  4c:	4788      	blx	r1
  4e:	f50d 6991 	add.w	r9, sp, #1160	; 0x488
_ZN59_$LT$druid..BaseState$u20$as$u20$core..default..Default$GT$7default17h3b085c6439d19087E():
/Users/Luppy/mynewt/druid-embedded/druid/src/lib.rs:120
#[derive(Clone, Copy, Default)] ////
  52:	2128      	movs	r1, #40	; 0x28
  54:	4648      	mov	r0, r9
  56:	f7ff fffe 	bl	0 <__aeabi_memclr8>
_ZN5druid22WidgetPod$LT$T$C$W$GT$3new17h19f68049a961c92dE():
/Users/Luppy/mynewt/druid-embedded/druid/src/lib.rs:454
        WidgetPod {
  5a:	f109 0028 	add.w	r0, r9, #40	; 0x28
  5e:	4629      	mov	r1, r5
  60:	f44f 7204 	mov.w	r2, #528	; 0x210
  64:	f7ff fffe 	bl	0 <__aeabi_memcpy8>
  68:	f50d 7a14 	add.w	sl, sp, #592	; 0x250
_ZN5druid6window19Window$LT$T$C$W$GT$3new17h7bb59c31c3a67b3aE():
/Users/Luppy/mynewt/druid-embedded/druid/src/window.rs:60
        root: W,
        ////root: &dyn Widget<T>,
        ////title: LocalizedString<T>,
        ////menu: Option<MenuDesc<T>>,
    ) -> Self {
        Window {
  6c:	4649      	mov	r1, r9
  6e:	f44f 720e 	mov.w	r2, #568	; 0x238
  72:	4650      	mov	r0, sl
  74:	f7ff fffe 	bl	0 <__aeabi_memcpy8>
  78:	f20d 60e4 	addw	r0, sp, #1764	; 0x6e4
  7c:	f8cd 66f7 	str.w	r6, [sp, #1783]	; 0x6f7
  80:	f8cd 66f3 	str.w	r6, [sp, #1779]	; 0x6f3
  84:	f50d 7b0e 	add.w	fp, sp, #568	; 0x238
  88:	f8cd 66ef 	str.w	r6, [sp, #1775]	; 0x6ef
  8c:	f8cd 66eb 	str.w	r6, [sp, #1771]	; 0x6eb
_ZN77_$LT$druid..widget..flex..Flex$LT$T$GT$$u20$as$u20$druid..Widget$LT$T$GT$$GT$10new_window17h88a41f26931e4403E():
/Users/Luppy/mynewt/druid-embedded/druid/src/widget/flex.rs:272
        let window = Window::new(self);
        let window_box = WindowBox(
            WindowType::Flex(window),
            //PhantomData,
        );
        window_box
  90:	4659      	mov	r1, fp
  92:	c8bc      	ldmia	r0!, {r2, r3, r4, r5, r7}
  94:	c1bc      	stmia	r1!, {r2, r3, r4, r5, r7}
  96:	8802      	ldrh	r2, [r0, #0]
  98:	7880      	ldrb	r0, [r0, #2]
  9a:	7088      	strb	r0, [r1, #2]
_ZN5druid3app23WindowDesc$LT$T$C$W$GT$12build_native17ha4c1e9abdc88db78E():
/Users/Luppy/mynewt/druid-embedded/druid/src/app.rs:238
        //let root_win = Window::new(root_widget); ////
        //let root_box = WindowBox::new(&mut root_win); ////
        ////let root = (self.root_builder)();
        state
            ////.borrow_mut()
            .add_window(self.id, root_box); ////
  9c:	4648      	mov	r0, r9
_ZN77_$LT$druid..widget..flex..Flex$LT$T$GT$$u20$as$u20$druid..Widget$LT$T$GT$$GT$10new_window17h88a41f26931e4403E():
/Users/Luppy/mynewt/druid-embedded/druid/src/widget/flex.rs:272
  9e:	800a      	strh	r2, [r1, #0]
_ZN5druid3app23WindowDesc$LT$T$C$W$GT$12build_native17ha4c1e9abdc88db78E():
/Users/Luppy/mynewt/druid-embedded/druid/src/app.rs:238
  a0:	4651      	mov	r1, sl
  a2:	f44f 720e 	mov.w	r2, #568	; 0x238
  a6:	f7ff fffe 	bl	0 <__aeabi_memcpy8>
  aa:	f209 2041 	addw	r0, r9, #577	; 0x241
  ae:	4659      	mov	r1, fp
  b0:	2217      	movs	r2, #23
  b2:	f88d 66c8 	strb.w	r6, [sp, #1736]	; 0x6c8
  b6:	f8cd 66c0 	str.w	r6, [sp, #1728]	; 0x6c0
  ba:	f7ff fffe 	bl	0 <__aeabi_memcpy>
/Users/Luppy/mynewt/druid-embedded/druid/src/app.rs:236
        state
  be:	e9dd 1002 	ldrd	r1, r0, [sp, #8]
  c2:	464a      	mov	r2, r9
  c4:	f7ff fffe 	bl	0 <<druid::win_handler::AppState<u32> as druid::win_handler::GlobalWindows<u32>>::add_window>
/Users/Luppy/mynewt/druid-embedded/druid/src/app.rs:241
            ////.add_window(self.id, Window::new(root, title, menu));

        builder.build()
  c8:	e9dd 0108 	ldrd	r0, r1, [sp, #32]
_ZN4core6result19Result$LT$T$C$E$GT$7map_err17h2a4569c23ae840d9E():
/rustc/50a0defd5a93523067ef239936cc2e0755220904/src/libcore/result.rs:521
  cc:	e9c8 6000 	strd	r6, r0, [r8]
  d0:	e9c8 0102 	strd	r0, r1, [r8, #8]
_ZN5druid3app23WindowDesc$LT$T$C$W$GT$12build_native17ha4c1e9abdc88db78E():
/Users/Luppy/mynewt/druid-embedded/druid/src/app.rs:242
    }
  d4:	f50d 6ddf 	add.w	sp, sp, #1784	; 0x6f8
  d8:	b001      	add	sp, #4
  da:	e8bd 8ff0 	ldmia.w	sp!, {r4, r5, r6, r7, r8, r9, sl, fp, pc}
  de:	bf00      	nop
  e0:	406e0000 	.word	0x406e0000

Disassembly of section .text._ZN5druid3app23WindowDesc$LT$T$C$W$GT$3new17h1b02657d01a7432dE:

00000000 <druid::app::WindowDesc<T,W>::new>:
_ZN5druid3app23WindowDesc$LT$T$C$W$GT$3new17h1b02657d01a7432dE():
/Users/Luppy/mynewt/druid-embedded/druid/src/app.rs:152
    pub fn new(root: fn() -> W) -> WindowDesc<T, W> ////
   0:	b570      	push	{r4, r5, r6, lr}
   2:	460c      	mov	r4, r1
   4:	4605      	mov	r5, r0
   6:	2600      	movs	r6, #0
/Users/Luppy/mynewt/druid-embedded/druid/src/app.rs:169
            id: WindowId::next(),
   8:	f7ff fffe 	bl	0 <druid::window::WindowId::next>
/Users/Luppy/mynewt/druid-embedded/druid/src/app.rs:162
        WindowDesc {
   c:	e9c5 6600 	strd	r6, r6, [r5]
  10:	e9c5 4006 	strd	r4, r0, [r5, #24]
/Users/Luppy/mynewt/druid-embedded/druid/src/app.rs:172
    }
  14:	bd70      	pop	{r4, r5, r6, pc}

Disassembly of section .text._ZN5druid3app24AppLauncher$LT$T$C$W$GT$11with_window17h8345a2e2baf5e16cE:

00000000 <druid::app::AppLauncher<T,W>::with_window>:
_ZN5druid3app24AppLauncher$LT$T$C$W$GT$11with_window17h8345a2e2baf5e16cE():
/Users/Luppy/mynewt/druid-embedded/druid/src/app.rs:74
    pub fn with_window(window: WindowDesc<T, W>) -> Self { ////
   0:	b5b0      	push	{r4, r5, r7, lr}
   2:	b0a2      	sub	sp, #136	; 0x88
   4:	ad1a      	add	r5, sp, #104	; 0x68
   6:	4604      	mov	r4, r0
   8:	2000      	movs	r0, #0
/Users/Luppy/mynewt/druid-embedded/druid/src/app.rs:77
        windows.push(window)
   a:	2220      	movs	r2, #32
_ZN8heapless3vec16Vec$LT$T$C$N$GT$3new17hd71966dac52d399eE():
/Users/Luppy/.cargo/registry/src/github.com-1ecc6299db9ec823/heapless-0.5.1/src/vec.rs:197
   c:	9010      	str	r0, [sp, #64]	; 0x40
_ZN5druid3app24AppLauncher$LT$T$C$W$GT$11with_window17h8345a2e2baf5e16cE():
/Users/Luppy/mynewt/druid-embedded/druid/src/app.rs:77
   e:	4628      	mov	r0, r5
  10:	f7ff fffe 	bl	0 <__aeabi_memcpy>
  14:	a812      	add	r0, sp, #72	; 0x48
  16:	4669      	mov	r1, sp
  18:	462a      	mov	r2, r5
  1a:	f7ff fffe 	bl	0 <druid::app::AppLauncher<T,W>::with_window>
_ZN4core6result19Result$LT$T$C$E$GT$6expect17h322a34f7d2d06a2eE():
/rustc/50a0defd5a93523067ef239936cc2e0755220904/src/libcore/result.rs:826
  1e:	e9dd 0112 	ldrd	r0, r1, [sp, #72]	; 0x48
  22:	f080 0002 	eor.w	r0, r0, #2
  26:	4308      	orrs	r0, r1
  28:	d106      	bne.n	38 <druid::app::AppLauncher<T,W>::with_window+0x38>
_ZN5druid3app24AppLauncher$LT$T$C$W$GT$11with_window17h8345a2e2baf5e16cE():
  2a:	4669      	mov	r1, sp
/Users/Luppy/mynewt/druid-embedded/druid/src/app.rs:80
            windows, ////
  2c:	4620      	mov	r0, r4
  2e:	2248      	movs	r2, #72	; 0x48
  30:	f7ff fffe 	bl	0 <__aeabi_memcpy8>
/Users/Luppy/mynewt/druid-embedded/druid/src/app.rs:88
    }
  34:	b022      	add	sp, #136	; 0x88
  36:	bdb0      	pop	{r4, r5, r7, pc}
  38:	ac1a      	add	r4, sp, #104	; 0x68
  3a:	a912      	add	r1, sp, #72	; 0x48
_ZN4core6result19Result$LT$T$C$E$GT$6expect17h322a34f7d2d06a2eE():
/rustc/50a0defd5a93523067ef239936cc2e0755220904/src/libcore/result.rs:827
  3c:	2220      	movs	r2, #32
  3e:	4620      	mov	r0, r4
  40:	f7ff fffe 	bl	0 <__aeabi_memcpy>
  44:	4802      	ldr	r0, [pc, #8]	; (50 <druid::app::AppLauncher<T,W>::with_window+0x50>)
  46:	2112      	movs	r1, #18
  48:	4622      	mov	r2, r4
  4a:	f7ff fffe 	bl	0 <druid::app::AppLauncher<T,W>::with_window>
  4e:	defe      	udf	#254	; 0xfe
_ZN5druid3app24AppLauncher$LT$T$C$W$GT$11with_window17h8345a2e2baf5e16cE():
  50:	00000000 	.word	0x00000000

Disassembly of section .text._ZN5druid3app24AppLauncher$LT$T$C$W$GT$17use_simple_logger17h2ef613a23ce08719E:

00000000 <druid::app::AppLauncher<T,W>::use_simple_logger>:
_ZN5druid3app24AppLauncher$LT$T$C$W$GT$17use_simple_logger17h2ef613a23ce08719E():
/Users/Luppy/mynewt/druid-embedded/druid/src/app.rs:112
    pub fn use_simple_logger(self) -> Self {
   0:	b580      	push	{r7, lr}
/Users/Luppy/mynewt/druid-embedded/druid/src/app.rs:114
        self
   2:	2248      	movs	r2, #72	; 0x48
   4:	f7ff fffe 	bl	0 <__aeabi_memcpy8>
/Users/Luppy/mynewt/druid-embedded/druid/src/app.rs:115
    }
   8:	bd80      	pop	{r7, pc}

Disassembly of section .text._ZN5druid3app24AppLauncher$LT$T$C$W$GT$6launch17h6a562b72bd769919E:

00000000 <druid::app::AppLauncher<T,W>::launch>:
_ZN5druid3app24AppLauncher$LT$T$C$W$GT$6launch17h6a562b72bd769919E():
/Users/Luppy/mynewt/druid-embedded/druid/src/app.rs:121
    pub fn launch(mut self, data: T) -> Result<(), PlatformError> {
   0:	e92d 47f0 	stmdb	sp!, {r4, r5, r6, r7, r8, r9, sl, lr}
   4:	b0ac      	sub	sp, #176	; 0xb0
   6:	4614      	mov	r4, r2
   8:	460d      	mov	r5, r1
   a:	4680      	mov	r8, r0
/Users/Luppy/mynewt/druid-embedded/druid/src/app.rs:122
        Application::init();
   c:	f7ff fffe 	bl	0 <druid_shell::application::Application::init>
  10:	f10d 09ac 	add.w	r9, sp, #172	; 0xac
/Users/Luppy/mynewt/druid-embedded/druid/src/app.rs:132
        state.set_data(data); ////
  14:	4621      	mov	r1, r4
  16:	4648      	mov	r0, r9
  18:	f7ff fffe 	bl	0 <<druid::win_handler::AppState<u32> as druid::win_handler::GlobalWindows<u32>>::set_data>
  1c:	46ea      	mov	sl, sp
/Users/Luppy/mynewt/druid-embedded/druid/src/app.rs:135
        for desc in self.windows {
  1e:	4629      	mov	r1, r5
  20:	4650      	mov	r0, sl
  22:	2248      	movs	r2, #72	; 0x48
  24:	f7ff fffe 	bl	0 <__aeabi_memcpy8>
  28:	af1c      	add	r7, sp, #112	; 0x70
  2a:	ac14      	add	r4, sp, #80	; 0x50
  2c:	ad27      	add	r5, sp, #156	; 0x9c
  2e:	ae24      	add	r6, sp, #144	; 0x90
  30:	2000      	movs	r0, #0
  32:	9012      	str	r0, [sp, #72]	; 0x48
  34:	e019      	b.n	6a <druid::app::AppLauncher<T,W>::launch+0x6a>
  36:	4620      	mov	r0, r4
  38:	4639      	mov	r1, r7
  3a:	2220      	movs	r2, #32
  3c:	f7ff fffe 	bl	0 <__aeabi_memcpy>
  40:	4638      	mov	r0, r7
  42:	4621      	mov	r1, r4
  44:	2220      	movs	r2, #32
  46:	f7ff fffe 	bl	0 <__aeabi_memcpy>
/Users/Luppy/mynewt/druid-embedded/druid/src/app.rs:136
            let window = desc.build_native(&mut state)?;
  4a:	4628      	mov	r0, r5
  4c:	4639      	mov	r1, r7
  4e:	464a      	mov	r2, r9
  50:	f7ff fffe 	bl	0 <druid::app::AppLauncher<T,W>::launch>
_ZN73_$LT$core..result..Result$LT$T$C$E$GT$$u20$as$u20$core..ops..try..Try$GT$11into_result17hcb5c5fe6e5566ab1E():
/rustc/50a0defd5a93523067ef239936cc2e0755220904/src/libcore/result.rs:1283
  54:	e9dd 2027 	ldrd	r2, r0, [sp, #156]	; 0x9c
  58:	9929      	ldr	r1, [sp, #164]	; 0xa4
_ZN5druid3app24AppLauncher$LT$T$C$W$GT$6launch17h6a562b72bd769919E():
/Users/Luppy/mynewt/druid-embedded/druid/src/app.rs:136
  5a:	2a01      	cmp	r2, #1
  5c:	d016      	beq.n	8c <druid::app::AppLauncher<T,W>::launch+0x8c>
  5e:	ab24      	add	r3, sp, #144	; 0x90
  60:	9a2a      	ldr	r2, [sp, #168]	; 0xa8
  62:	c307      	stmia	r3!, {r0, r1, r2}
_ZN11druid_shell6window28WindowHandle$LT$THandler$GT$4show17h134ed8ca931cf0c9E():
/Users/Luppy/mynewt/druid-embedded/druid-shell/src/window.rs:88
        self.0.show()
  64:	4630      	mov	r0, r6
  66:	f7ff fffe 	bl	0 <druid::app::AppLauncher<T,W>::launch>
_ZN5druid3app24AppLauncher$LT$T$C$W$GT$6launch17h6a562b72bd769919E():
/Users/Luppy/mynewt/druid-embedded/druid/src/app.rs:135
        for desc in self.windows {
  6a:	4638      	mov	r0, r7
  6c:	4651      	mov	r1, sl
  6e:	f7ff fffe 	bl	0 <druid::app::AppLauncher<T,W>::launch>
  72:	e9dd 011c 	ldrd	r0, r1, [sp, #112]	; 0x70
  76:	f080 0002 	eor.w	r0, r0, #2
  7a:	4308      	orrs	r0, r1
  7c:	d1db      	bne.n	36 <druid::app::AppLauncher<T,W>::launch+0x36>
  7e:	4668      	mov	r0, sp
_ZN4core3ptr18real_drop_in_place17h7ebcac642c37ffcdE():
/rustc/50a0defd5a93523067ef239936cc2e0755220904/src/libcore/ptr.rs:195
  80:	f7ff fffe 	bl	0 <druid::app::AppLauncher<T,W>::launch>
  84:	2000      	movs	r0, #0
_ZN5druid3app24AppLauncher$LT$T$C$W$GT$6launch17h6a562b72bd769919E():
/Users/Luppy/mynewt/druid-embedded/druid/src/app.rs:141
        Ok(())
  86:	f8c8 0000 	str.w	r0, [r8]
  8a:	e007      	b.n	9c <druid::app::AppLauncher<T,W>::launch+0x9c>
  8c:	2201      	movs	r2, #1
_ZN73_$LT$core..result..Result$LT$T$C$E$GT$$u20$as$u20$core..ops..try..Try$GT$10from_error17hc511ecfb08299448E():
/rustc/50a0defd5a93523067ef239936cc2e0755220904/src/libcore/result.rs:1293
  8e:	e9c8 2000 	strd	r2, r0, [r8]
  92:	4668      	mov	r0, sp
  94:	f8c8 1008 	str.w	r1, [r8, #8]
_ZN4core3ptr18real_drop_in_place17h7ebcac642c37ffcdE():
/rustc/50a0defd5a93523067ef239936cc2e0755220904/src/libcore/ptr.rs:195
  98:	f7ff fffe 	bl	0 <druid::app::AppLauncher<T,W>::launch>
_ZN5druid3app24AppLauncher$LT$T$C$W$GT$6launch17h6a562b72bd769919E():
/Users/Luppy/mynewt/druid-embedded/druid/src/app.rs:142
    }
  9c:	b02c      	add	sp, #176	; 0xb0
  9e:	e8bd 87f0 	ldmia.w	sp!, {r4, r5, r6, r7, r8, r9, sl, pc}

Disassembly of section .text._ZN5druid6widget4flex13Flex$LT$T$GT$9add_child17h5624c42956239f03E:

00000000 <druid::widget::flex::Flex<T>::add_child>:
_ZN5druid6widget4flex13Flex$LT$T$GT$9add_child17h5624c42956239f03E():
/Users/Luppy/mynewt/druid-embedded/druid/src/widget/flex.rs:137
    pub fn add_child<W: Widget<T> + Clone>(&mut self, child: W, flex: f64) { ////
   0:	b570      	push	{r4, r5, r6, lr}
   2:	ed2d 8b02 	vpush	{d8}
   6:	b0ae      	sub	sp, #184	; 0xb8
   8:	466d      	mov	r5, sp
   a:	eeb0 8a40 	vmov.f32	s16, s0
   e:	4604      	mov	r4, r0
/Users/Luppy/mynewt/druid-embedded/druid/src/widget/flex.rs:142
                WidgetBox::<T>::new(child)
  10:	4628      	mov	r0, r5
  12:	2278      	movs	r2, #120	; 0x78
  14:	eef0 8a60 	vmov.f32	s17, s1
  18:	f7ff fffe 	bl	0 <__aeabi_memcpy8>
  1c:	4628      	mov	r0, r5
  1e:	f7ff fffe 	bl	0 <druid::widget::flex::Flex<T>::add_child>
  22:	466e      	mov	r6, sp
  24:	4605      	mov	r5, r0
/Users/Luppy/mynewt/druid-embedded/druid/src/widget/flex.rs:147
        self.children.push(child)
  26:	4630      	mov	r0, r6
  28:	212c      	movs	r1, #44	; 0x2c
  2a:	f7ff fffe 	bl	0 <__aeabi_memclr8>
  2e:	2000      	movs	r0, #0
  30:	ed8d 8b0e 	vstr	d8, [sp, #56]	; 0x38
  34:	f88d 0034 	strb.w	r0, [sp, #52]	; 0x34
  38:	a81e      	add	r0, sp, #120	; 0x78
  3a:	4621      	mov	r1, r4
  3c:	4632      	mov	r2, r6
  3e:	950c      	str	r5, [sp, #48]	; 0x30
  40:	f7ff fffe 	bl	0 <druid::widget::flex::Flex<T>::add_child>
_ZN4core6result19Result$LT$T$C$E$GT$6expect17hc40c26e0acfb3f28E():
/rustc/50a0defd5a93523067ef239936cc2e0755220904/src/libcore/result.rs:826
  44:	9828      	ldr	r0, [sp, #160]	; 0xa0
  46:	2802      	cmp	r0, #2
_ZN5druid6widget4flex13Flex$LT$T$GT$9add_child17h5624c42956239f03E():
/Users/Luppy/mynewt/druid-embedded/druid/src/widget/flex.rs:150
    }
  48:	bf02      	ittt	eq
  4a:	b02e      	addeq	sp, #184	; 0xb8
  4c:	ecbd 8b02 	vpopeq	{d8}
  50:	bd70      	popeq	{r4, r5, r6, pc}
  52:	466c      	mov	r4, sp
  54:	a91e      	add	r1, sp, #120	; 0x78
_ZN4core6result19Result$LT$T$C$E$GT$6expect17hc40c26e0acfb3f28E():
/rustc/50a0defd5a93523067ef239936cc2e0755220904/src/libcore/result.rs:827
  56:	4620      	mov	r0, r4
  58:	2240      	movs	r2, #64	; 0x40
  5a:	f7ff fffe 	bl	0 <__aeabi_memcpy>
  5e:	4803      	ldr	r0, [pc, #12]	; (6c <druid::widget::flex::Flex<T>::add_child+0x6c>)
  60:	210e      	movs	r1, #14
  62:	4622      	mov	r2, r4
  64:	f7ff fffe 	bl	0 <druid::widget::flex::Flex<T>::add_child>
  68:	defe      	udf	#254	; 0xfe
_ZN5druid6widget4flex13Flex$LT$T$GT$9add_child17h5624c42956239f03E():
/rustc/50a0defd5a93523067ef239936cc2e0755220904/src/libcore/result.rs:827
  6a:	bf00      	nop
  6c:	00000000 	.word	0x00000000

Disassembly of section .text._ZN5druid6widget4flex6Column3new17h4c592896946036e0E:

00000000 <druid::widget::flex::Column::new>:
_ZN5druid6widget4flex6Column3new17h4c592896946036e0E():
/Users/Luppy/mynewt/druid-embedded/druid/src/widget/flex.rs:115
    pub fn new<T: Data + 'static + Default>() -> Flex<T> { ////
   0:	b5b0      	push	{r4, r5, r7, lr}
   2:	4604      	mov	r4, r0
   4:	2501      	movs	r5, #1
/Users/Luppy/mynewt/druid-embedded/druid/src/widget/flex.rs:118
            id: super::get_widget_id(), ////
   6:	f7ff fffe 	bl	0 <druid::widget::get_widget_id>
/Users/Luppy/mynewt/druid-embedded/druid/src/widget/flex.rs:117
        Flex {
   a:	f884 520c 	strb.w	r5, [r4, #524]	; 0x20c
   e:	f8c4 0208 	str.w	r0, [r4, #520]	; 0x208
  12:	2000      	movs	r0, #0
  14:	f8c4 0200 	str.w	r0, [r4, #512]	; 0x200
/Users/Luppy/mynewt/druid-embedded/druid/src/widget/flex.rs:123
    }
  18:	bdb0      	pop	{r4, r5, r7, pc}

Disassembly of section .text._ZN5druid6widget5label14Label$LT$T$GT$3new17h91f1829925616702E:

00000000 <druid::widget::label::Label<T>::new>:
_ZN5druid6widget5label14Label$LT$T$GT$3new17h91f1829925616702E():
/Users/Luppy/mynewt/druid-embedded/druid/src/widget/label.rs:68
    pub fn new(text: impl Into<LabelText<T>>) -> Self {
   0:	b570      	push	{r4, r5, r6, lr}
   2:	460c      	mov	r4, r1
   4:	4605      	mov	r5, r0
   6:	2600      	movs	r6, #0
/Users/Luppy/mynewt/druid-embedded/druid/src/widget/label.rs:70
            id: super::get_widget_id(), ////
   8:	f7ff fffe 	bl	0 <druid::widget::get_widget_id>
/Users/Luppy/mynewt/druid-embedded/druid/src/widget/label.rs:69
        Label {
   c:	e9c5 0604 	strd	r0, r6, [r5, #16]
  10:	f105 0018 	add.w	r0, r5, #24
  14:	4621      	mov	r1, r4
  16:	2260      	movs	r2, #96	; 0x60
  18:	f7ff fffe 	bl	0 <__aeabi_memcpy4>
  1c:	4802      	ldr	r0, [pc, #8]	; (28 <druid::widget::label::Label<T>::new+0x28>)
  1e:	e9c5 6600 	strd	r6, r6, [r5]
  22:	e9c5 6002 	strd	r6, r0, [r5, #8]
/Users/Luppy/mynewt/druid-embedded/druid/src/widget/label.rs:74
    }
  26:	bd70      	pop	{r4, r5, r6, pc}
  28:	3fe00000 	.word	0x3fe00000

Disassembly of section .text._ZN5druid6widget5label14Label$LT$T$GT$7aligned17h854ef5cd67a29fe8E:

00000000 <druid::widget::label::Label<T>::aligned>:
_ZN5druid6widget5label14Label$LT$T$GT$7aligned17h854ef5cd67a29fe8E():
/Users/Luppy/mynewt/druid-embedded/druid/src/widget/label.rs:76
    pub fn aligned(text: impl Into<LabelText<T>>, align: UnitPoint) -> Self {
   0:	e92d 41f0 	stmdb	sp!, {r4, r5, r6, r7, r8, lr}
   4:	ed2d 8b04 	vpush	{d8-d9}
   8:	b09a      	sub	sp, #104	; 0x68
   a:	eeb0 8a41 	vmov.f32	s16, s2
   e:	4614      	mov	r4, r2
  10:	eeb0 9a40 	vmov.f32	s18, s0
  14:	460d      	mov	r5, r1
  16:	eef0 8a61 	vmov.f32	s17, s3
  1a:	4606      	mov	r6, r0
  1c:	eef0 9a60 	vmov.f32	s19, s1
/Users/Luppy/mynewt/druid-embedded/druid/src/widget/label.rs:78
            id: super::get_widget_id(), ////
  20:	f7ff fffe 	bl	0 <druid::widget::get_widget_id>
  24:	f10d 0804 	add.w	r8, sp, #4
  28:	4607      	mov	r7, r0
_ZN50_$LT$T$u20$as$u20$core..convert..Into$LT$U$GT$$GT$4into17h05744007cac56a82E():
/rustc/50a0defd5a93523067ef239936cc2e0755220904/src/libcore/convert.rs:540
  2a:	4629      	mov	r1, r5
  2c:	4622      	mov	r2, r4
  2e:	4640      	mov	r0, r8
  30:	f7ff fffe 	bl	0 <druid::widget::label::Label<T>::aligned>
_ZN5druid6widget5label14Label$LT$T$GT$7aligned17h854ef5cd67a29fe8E():
/Users/Luppy/mynewt/druid-embedded/druid/src/widget/label.rs:77
        Label {
  34:	f106 0014 	add.w	r0, r6, #20
  38:	4641      	mov	r1, r8
  3a:	2264      	movs	r2, #100	; 0x64
  3c:	6137      	str	r7, [r6, #16]
  3e:	f7ff fffe 	bl	0 <__aeabi_memcpy4>
  42:	ed86 9b00 	vstr	d9, [r6]
  46:	ed86 8b02 	vstr	d8, [r6, #8]
/Users/Luppy/mynewt/druid-embedded/druid/src/widget/label.rs:82
    }
  4a:	b01a      	add	sp, #104	; 0x68
  4c:	ecbd 8b04 	vpop	{d8-d9}
  50:	e8bd 81f0 	ldmia.w	sp!, {r4, r5, r6, r7, r8, pc}

Disassembly of section .text._ZN5druid6widget6button15Button$LT$T$GT$3new17hd5104a5ead1b56dfE:

00000000 <druid::widget::button::Button<T>::new>:
_ZN5druid6widget6button15Button$LT$T$GT$3new17hd5104a5ead1b56dfE():
/Users/Luppy/mynewt/druid-embedded/druid/src/widget/button.rs:44

impl<T: Data + 'static> Button<T> { ////
////impl<T: Data + 'static> Button<T> {
    /// Create a new button. The closure provided will be called when the button
    /// is clicked.
    pub fn new(
   0:	e92d 41f0 	stmdb	sp!, {r4, r5, r6, r7, r8, lr}
   4:	4698      	mov	r8, r3
   6:	4615      	mov	r5, r2
   8:	460e      	mov	r6, r1
   a:	4607      	mov	r7, r0
/Users/Luppy/mynewt/druid-embedded/druid/src/widget/button.rs:50
        text: impl Into<LabelText<T>>,
        action: fn(&mut EventCtx<T>, &mut T, &Env), ////
        ////action: impl Fn(&mut EventCtx, &mut T, &Env) + 'static,
    ) -> Button<T> {
        Button {
            id: super::get_widget_id(), ////
   c:	f7ff fffe 	bl	0 <druid::widget::get_widget_id>
  10:	ed9f 0b07 	vldr	d0, [pc, #28]	; 30 <druid::widget::button::Button<T>::new+0x30>
  14:	4604      	mov	r4, r0
/Users/Luppy/mynewt/druid-embedded/druid/src/widget/button.rs:51
            label: Label::aligned(text, UnitPoint::CENTER),
  16:	4638      	mov	r0, r7
  18:	4631      	mov	r1, r6
  1a:	eeb0 1a40 	vmov.f32	s2, s0
  1e:	462a      	mov	r2, r5
  20:	eef0 1a60 	vmov.f32	s3, s1
  24:	f7ff fffe 	bl	0 <druid::widget::button::Button<T>::new>
/Users/Luppy/mynewt/druid-embedded/druid/src/widget/button.rs:49
        Button {
  28:	e9c7 481e 	strd	r4, r8, [r7, #120]	; 0x78
/Users/Luppy/mynewt/druid-embedded/druid/src/widget/button.rs:55
            action, ////
            ////action: Box::new(action),
        }
    }
  2c:	e8bd 81f0 	ldmia.w	sp!, {r4, r5, r6, r7, r8, pc}
  30:	00000000 	.word	0x00000000
  34:	3fe00000 	.word	0x3fe00000

Disassembly of section .text._ZN5druid6widget9widgetbox18WidgetBox$LT$D$GT$3new17hbe4d5d7da74c7744E:

00000000 <druid::widget::widgetbox::WidgetBox<D>::new>:
_ZN5druid6widget9widgetbox18WidgetBox$LT$D$GT$3new17hbe4d5d7da74c7744E():
/Users/Luppy/mynewt/druid-embedded/druid/src/widget/widgetbox.rs:65
}

/// Generic implementation of `WidgetBox`
impl<D: Data + 'static> WidgetBox<D> {
    /// Create a new box for the `Widget`
    pub fn new<W: Widget<D> + Clone>(widget: W) -> Self {
   0:	e92d 47f0 	stmdb	sp!, {r4, r5, r6, r7, r8, r9, sl, lr}
   4:	ed2d 8b04 	vpush	{d8-d9}
   8:	f5ad 7d3a 	sub.w	sp, sp, #744	; 0x2e8
   c:	4604      	mov	r4, r0
_ZN4core5clone5impls52_$LT$impl$u20$core..clone..Clone$u20$for$u20$u32$GT$5clone17h5d163be40911e00dE():
/rustc/50a0defd5a93523067ef239936cc2e0755220904/src/libcore/clone.rs:168
   e:	e9d0 8004 	ldrd	r8, r0, [r0, #16]
_ZN79_$LT$druid..widget..label..LabelText$LT$T$GT$$u20$as$u20$core..clone..Clone$GT$5clone17h60131efcc9da7bd8E():
/Users/Luppy/mynewt/druid-embedded/druid/src/widget/label.rs:39
#[derive(Clone)] ////
  12:	2801      	cmp	r0, #1
  14:	d10f      	bne.n	36 <druid::widget::widgetbox::WidgetBox<D>::new+0x36>
  16:	ad1e      	add	r5, sp, #120	; 0x78
  18:	f104 0118 	add.w	r1, r4, #24
_ZN72_$LT$heapless..string..String$LT$N$GT$$u20$as$u20$core..clone..Clone$GT$5clone17hb47fd3dcb5ddeabdE():
/Users/Luppy/.cargo/registry/src/github.com-1ecc6299db9ec823/heapless-0.5.1/src/string.rs:392
where
    N: ArrayLength<u8>,
{
    fn clone(&self) -> Self {
        Self(crate::i::String {
            vec: self.0.vec.clone(),
  1c:	4628      	mov	r0, r5
  1e:	f7ff fffe 	bl	0 <druid::widget::widgetbox::WidgetBox<D>::new>
_ZN79_$LT$druid..widget..label..LabelText$LT$T$GT$$u20$as$u20$core..clone..Clone$GT$5clone17h60131efcc9da7bd8E():
/Users/Luppy/mynewt/druid-embedded/druid/src/widget/label.rs:39
  22:	f105 0008 	add.w	r0, r5, #8
  26:	e9dd a61e 	ldrd	sl, r6, [sp, #120]	; 0x78
  2a:	a9b3      	add	r1, sp, #716	; 0x2cc
  2c:	e890 00ac 	ldmia.w	r0, {r2, r3, r5, r7}
  30:	2001      	movs	r0, #1
  32:	c1ac      	stmia	r1!, {r2, r3, r5, r7}
  34:	e024      	b.n	80 <druid::widget::widgetbox::WidgetBox<D>::new+0x80>
_ZN84_$LT$druid..localization..LocalizedString$LT$T$GT$$u20$as$u20$core..clone..Clone$GT$5clone17h1447bb70328f4dd7E():
/Users/Luppy/mynewt/druid-embedded/druid/src/localization.rs:109
    placeholder: Option<String>,
  36:	f104 0120 	add.w	r1, r4, #32
  3a:	4668      	mov	r0, sp
_ZN4core5clone5impls54_$LT$impl$u20$core..clone..Clone$u20$for$u20$$RF$T$GT$5clone17h757154e2e8c25142E():
/rustc/50a0defd5a93523067ef239936cc2e0755220904/src/libcore/clone.rs:211
  3c:	e9d4 a606 	ldrd	sl, r6, [r4, #24]
_ZN84_$LT$druid..localization..LocalizedString$LT$T$GT$$u20$as$u20$core..clone..Clone$GT$5clone17h1447bb70328f4dd7E():
/Users/Luppy/mynewt/druid-embedded/druid/src/localization.rs:109
  40:	f7ff fffe 	bl	0 <druid::widget::widgetbox::WidgetBox<D>::new>
_ZN68_$LT$core..option..Option$LT$T$GT$$u20$as$u20$core..clone..Clone$GT$5clone17h60e615ee79d097ebE():
/rustc/50a0defd5a93523067ef239936cc2e0755220904/src/libcore/option.rs:148
  44:	6be0      	ldr	r0, [r4, #60]	; 0x3c
_ZN84_$LT$druid..localization..LocalizedString$LT$T$GT$$u20$as$u20$core..clone..Clone$GT$5clone17h1447bb70328f4dd7E():
/Users/Luppy/mynewt/druid-embedded/druid/src/localization.rs:111
    resolved: Option<String>,
  46:	f104 055c 	add.w	r5, r4, #92	; 0x5c
_ZN68_$LT$core..option..Option$LT$T$GT$$u20$as$u20$core..clone..Clone$GT$5clone17h60e615ee79d097ebE():
/rustc/50a0defd5a93523067ef239936cc2e0755220904/src/libcore/option.rs:148
  4a:	2801      	cmp	r0, #1
  4c:	d107      	bne.n	5e <druid::widget::widgetbox::WidgetBox<D>::new+0x5e>
/rustc/50a0defd5a93523067ef239936cc2e0755220904/src/libcore/option.rs:156
  4e:	f104 0140 	add.w	r1, r4, #64	; 0x40
  52:	a81e      	add	r0, sp, #120	; 0x78
_ZN70_$LT$heapless..vec..Vec$LT$T$C$N$GT$$u20$as$u20$core..clone..Clone$GT$5clone17hf1102e84a1207c7aE():
/Users/Luppy/.cargo/registry/src/github.com-1ecc6299db9ec823/heapless-0.5.1/src/vec.rs:173
        Vec(self.0.clone())
  54:	f7ff fffe 	bl	0 <druid::widget::widgetbox::WidgetBox<D>::new>
  58:	f04f 0901 	mov.w	r9, #1
  5c:	e001      	b.n	62 <druid::widget::widgetbox::WidgetBox<D>::new+0x62>
_ZN84_$LT$druid..localization..LocalizedString$LT$T$GT$$u20$as$u20$core..clone..Clone$GT$5clone17h1447bb70328f4dd7E():
  5e:	f04f 0900 	mov.w	r9, #0
  62:	a8a5      	add	r0, sp, #660	; 0x294
/Users/Luppy/mynewt/druid-embedded/druid/src/localization.rs:111
  64:	4629      	mov	r1, r5
  66:	f7ff fffe 	bl	0 <druid::widget::widgetbox::WidgetBox<D>::new>
  6a:	a8b3      	add	r0, sp, #716	; 0x2cc
  6c:	4669      	mov	r1, sp
/Users/Luppy/mynewt/druid-embedded/druid/src/localization.rs:105
#[derive(Clone)]////
  6e:	221c      	movs	r2, #28
  70:	f7ff fffe 	bl	0 <__aeabi_memcpy>
  74:	a8ac      	add	r0, sp, #688	; 0x2b0
  76:	a91e      	add	r1, sp, #120	; 0x78
  78:	221c      	movs	r2, #28
  7a:	f7ff fffe 	bl	0 <__aeabi_memcpy>
  7e:	2000      	movs	r0, #0
_ZN75_$LT$druid..widget..label..Label$LT$T$GT$$u20$as$u20$core..clone..Clone$GT$5clone17h11e3a505764a5d37E():
  80:	ad1e      	add	r5, sp, #120	; 0x78
_ZN64_$LT$piet..gradient..UnitPoint$u20$as$u20$core..clone..Clone$GT$5clone17h854c76e254ee6c5dE():
/Users/Luppy/mynewt/piet-embedded/piet/src/gradient.rs:188
    /// values on the other axis may extend outside the target rectangle.
    Fill,
}

/// A representation of a point relative to a unit rectangle.
#[derive(Debug, Clone, Copy)]
  82:	ec94 8b04 	vldmia	r4, {d8-d9}
  86:	a9b3      	add	r1, sp, #716	; 0x2cc
_ZN75_$LT$druid..widget..label..Label$LT$T$GT$$u20$as$u20$core..clone..Clone$GT$5clone17h11e3a505764a5d37E():
/Users/Luppy/mynewt/druid-embedded/druid/src/widget/label.rs:46
#[derive(Clone)] ////
  88:	221c      	movs	r2, #28
  8a:	e9cd a624 	strd	sl, r6, [sp, #144]	; 0x90
  8e:	e9cd 8022 	strd	r8, r0, [sp, #136]	; 0x88
  92:	f105 0020 	add.w	r0, r5, #32
  96:	f7ff fffe 	bl	0 <__aeabi_memcpy>
  9a:	f105 0040 	add.w	r0, r5, #64	; 0x40
  9e:	a9ac      	add	r1, sp, #688	; 0x2b0
  a0:	221c      	movs	r2, #28
  a2:	f8cd 90b4 	str.w	r9, [sp, #180]	; 0xb4
  a6:	f7ff fffe 	bl	0 <__aeabi_memcpy>
  aa:	f105 005c 	add.w	r0, r5, #92	; 0x5c
  ae:	a9a5      	add	r1, sp, #660	; 0x294
  b0:	221c      	movs	r2, #28
  b2:	f7ff fffe 	bl	0 <__aeabi_memcpy>
_ZN5druid6widget9widgetbox18WidgetBox$LT$D$GT$3new17hbe4d5d7da74c7744E():
/Users/Luppy/mynewt/druid-embedded/druid/src/widget/widgetbox.rs:66
        let id = widget.clone().get_id();
  b6:	4628      	mov	r0, r5
_ZN75_$LT$druid..widget..label..Label$LT$T$GT$$u20$as$u20$core..clone..Clone$GT$5clone17h11e3a505764a5d37E():
/Users/Luppy/mynewt/druid-embedded/druid/src/widget/label.rs:46
  b8:	ed8d 9b20 	vstr	d9, [sp, #128]	; 0x80
  bc:	ed8d 8b1e 	vstr	d8, [sp, #120]	; 0x78
_ZN5druid6widget9widgetbox18WidgetBox$LT$D$GT$3new17hbe4d5d7da74c7744E():
/Users/Luppy/mynewt/druid-embedded/druid/src/widget/widgetbox.rs:66
  c0:	f7ff fffe 	bl	0 <druid::widget::widgetbox::WidgetBox<D>::new>
  c4:	466f      	mov	r7, sp
  c6:	4606      	mov	r6, r0
/Users/Luppy/mynewt/druid-embedded/druid/src/widget/widgetbox.rs:67
        let widget_type: WidgetType<D> = widget.to_type();
  c8:	4638      	mov	r0, r7
  ca:	4621      	mov	r1, r4
  cc:	2278      	movs	r2, #120	; 0x78
  ce:	f7ff fffe 	bl	0 <__aeabi_memcpy8>
  d2:	a8ac      	add	r0, sp, #688	; 0x2b0
/Users/Luppy/mynewt/druid-embedded/druid/src/widget/widgetbox.rs:68
        let widget_box: WidgetBox<D> = WidgetBox(
  d4:	96ac      	str	r6, [sp, #688]	; 0x2b0
_ZN83_$LT$druid..widget..widgetbox..WidgetBox$LT$D$GT$$u20$as$u20$core..clone..Clone$GT$5clone17h4e34b575aecd2ffeE():
/Users/Luppy/mynewt/druid-embedded/druid/src/widget/widgetbox.rs:46
    PhantomData<D>,  //  Needed to do compile-time checking for `Data`
  d6:	f7ff fffe 	bl	0 <<core::marker::PhantomData<T> as core::clone::Clone>::clone>
  da:	2000      	movs	r0, #0
_ZN5druid6widget9widgetbox18WidgetBox$LT$D$GT$3new17hbe4d5d7da74c7744E():
/Users/Luppy/mynewt/druid-embedded/druid/src/widget/widgetbox.rs:72
            id,
            PhantomData,
        );
        widget_box.clone().add_widget(widget_type);
  dc:	4639      	mov	r1, r7
  de:	901f      	str	r0, [sp, #124]	; 0x7c
  e0:	2003      	movs	r0, #3
  e2:	901e      	str	r0, [sp, #120]	; 0x78
  e4:	f105 0008 	add.w	r0, r5, #8
  e8:	2278      	movs	r2, #120	; 0x78
  ea:	96b3      	str	r6, [sp, #716]	; 0x2cc
  ec:	f7ff fffe 	bl	0 <__aeabi_memcpy8>
  f0:	a8b3      	add	r0, sp, #716	; 0x2cc
  f2:	4629      	mov	r1, r5
  f4:	f7ff fffe 	bl	0 <<druid::widget::widgetbox::WidgetBox<u32> as druid::widget::widgetbox::GlobalState<u32>>::add_widget>
/Users/Luppy/mynewt/druid-embedded/druid/src/widget/widgetbox.rs:73
        widget_box
  f8:	98ac      	ldr	r0, [sp, #688]	; 0x2b0
/Users/Luppy/mynewt/druid-embedded/druid/src/widget/widgetbox.rs:74
    }
  fa:	f50d 7d3a 	add.w	sp, sp, #744	; 0x2e8
  fe:	ecbd 8b04 	vpop	{d8-d9}
 102:	e8bd 87f0 	ldmia.w	sp!, {r4, r5, r6, r7, r8, r9, sl, pc}

Disassembly of section .text._ZN5druid6window19Window$LT$T$C$W$GT$3new17h7bb59c31c3a67b3aE:

00000000 <druid::window::Window<T,W>::new>:
_ZN5druid6window19Window$LT$T$C$W$GT$3new17h7bb59c31c3a67b3aE():
/Users/Luppy/mynewt/druid-embedded/druid/src/window.rs:54
    pub fn new(
   0:	b570      	push	{r4, r5, r6, lr}
   2:	f5ad 7d0e 	sub.w	sp, sp, #568	; 0x238
   6:	466e      	mov	r6, sp
   8:	460c      	mov	r4, r1
   a:	4605      	mov	r5, r0
_ZN59_$LT$druid..BaseState$u20$as$u20$core..default..Default$GT$7default17h3b085c6439d19087E():
/Users/Luppy/mynewt/druid-embedded/druid/src/lib.rs:120
#[derive(Clone, Copy, Default)] ////
   c:	4630      	mov	r0, r6
   e:	2128      	movs	r1, #40	; 0x28
  10:	f7ff fffe 	bl	0 <__aeabi_memclr8>
_ZN5druid22WidgetPod$LT$T$C$W$GT$3new17h19f68049a961c92dE():
/Users/Luppy/mynewt/druid-embedded/druid/src/lib.rs:454
        WidgetPod {
  14:	f106 0028 	add.w	r0, r6, #40	; 0x28
  18:	4621      	mov	r1, r4
  1a:	f44f 7204 	mov.w	r2, #528	; 0x210
  1e:	f7ff fffe 	bl	0 <__aeabi_memcpy8>
_ZN5druid6window19Window$LT$T$C$W$GT$3new17h7bb59c31c3a67b3aE():
/Users/Luppy/mynewt/druid-embedded/druid/src/window.rs:60
        Window {
  22:	4628      	mov	r0, r5
  24:	4631      	mov	r1, r6
  26:	f44f 720e 	mov.w	r2, #568	; 0x238
  2a:	f7ff fffe 	bl	0 <__aeabi_memcpy8>
  2e:	2000      	movs	r0, #0
  30:	f885 0240 	strb.w	r0, [r5, #576]	; 0x240
  34:	f8c5 0238 	str.w	r0, [r5, #568]	; 0x238
  38:	e9c5 0092 	strd	r0, r0, [r5, #584]	; 0x248
  3c:	e9c5 0094 	strd	r0, r0, [r5, #592]	; 0x250
/Users/Luppy/mynewt/druid-embedded/druid/src/window.rs:70
            ////title,
            ////menu,
            ////context_menu: None,
            phantom_data: PhantomData, ////
        }
    }
  40:	f50d 7d0e 	add.w	sp, sp, #568	; 0x238
  44:	bd70      	pop	{r4, r5, r6, pc}

Disassembly of section .text._ZN68_$LT$core..option..Option$LT$T$GT$$u20$as$u20$core..clone..Clone$GT$5clone17he97e257f986fa149E:

00000000 <<core::option::Option<T> as core::clone::Clone>::clone>:
_ZN68_$LT$core..option..Option$LT$T$GT$$u20$as$u20$core..clone..Clone$GT$5clone17he97e257f986fa149E():
/rustc/50a0defd5a93523067ef239936cc2e0755220904/src/libcore/option.rs:148
   0:	e92d 41f0 	stmdb	sp!, {r4, r5, r6, r7, r8, lr}
   4:	b086      	sub	sp, #24
   6:	4680      	mov	r8, r0
   8:	6808      	ldr	r0, [r1, #0]
   a:	2801      	cmp	r0, #1
   c:	d10b      	bne.n	26 <<core::option::Option<T> as core::clone::Clone>::clone+0x26>
   e:	466d      	mov	r5, sp
/rustc/50a0defd5a93523067ef239936cc2e0755220904/src/libcore/option.rs:156
  10:	3104      	adds	r1, #4
_ZN72_$LT$heapless..string..String$LT$N$GT$$u20$as$u20$core..clone..Clone$GT$5clone17hb47fd3dcb5ddeabdE():
/Users/Luppy/.cargo/registry/src/github.com-1ecc6299db9ec823/heapless-0.5.1/src/string.rs:392
  12:	4628      	mov	r0, r5
  14:	f7ff fffe 	bl	0 <<core::option::Option<T> as core::clone::Clone>::clone>
_ZN68_$LT$core..option..Option$LT$T$GT$$u20$as$u20$core..clone..Clone$GT$5clone17he97e257f986fa149E():
/rustc/50a0defd5a93523067ef239936cc2e0755220904/src/libcore/option.rs:148
  18:	e895 00de 	ldmia.w	r5, {r1, r2, r3, r4, r6, r7}
  1c:	f108 0004 	add.w	r0, r8, #4
  20:	c0de      	stmia	r0!, {r1, r2, r3, r4, r6, r7}
  22:	2001      	movs	r0, #1
  24:	e000      	b.n	28 <<core::option::Option<T> as core::clone::Clone>::clone+0x28>
  26:	2000      	movs	r0, #0
  28:	f8c8 0000 	str.w	r0, [r8]
  2c:	b006      	add	sp, #24
  2e:	e8bd 81f0 	ldmia.w	sp!, {r4, r5, r6, r7, r8, pc}

Disassembly of section .text._ZN70_$LT$heapless..string..String$LT$N$GT$$u20$as$u20$core..fmt..Write$GT$10write_char17hd30c626f25cb5066E:

00000000 <<heapless::string::String<N> as core::fmt::Write>::write_char>:
_ZN70_$LT$heapless..string..String$LT$N$GT$$u20$as$u20$core..fmt..Write$GT$10write_char17hd30c626f25cb5066E():
/Users/Luppy/.cargo/registry/src/github.com-1ecc6299db9ec823/heapless-0.5.1/src/string.rs:443
{
    fn write_str(&mut self, s: &str) -> Result<(), fmt::Error> {
        self.push_str(s).map_err(|_| fmt::Error)
    }

    fn write_char(&mut self, c: char) -> Result<(), fmt::Error> {
   0:	b5e0      	push	{r5, r6, r7, lr}
_ZN4core4char7methods22_$LT$impl$u20$char$GT$8len_utf817ha1d5a873a38928c7E():
/rustc/50a0defd5a93523067ef239936cc2e0755220904/src/libcore/char/methods.rs:361
   2:	2980      	cmp	r1, #128	; 0x80
   4:	d204      	bcs.n	10 <<heapless::string::String<N> as core::fmt::Write>::write_char+0x10>
_ZN8heapless6string15String$LT$N$GT$4push17hfe7bd95a5e857f6bE():
/Users/Luppy/.cargo/registry/src/github.com-1ecc6299db9ec823/heapless-0.5.1/src/string.rs:247
            1 => self.0.vec.push(c as u8).map_err(|_| {}),
   6:	f7ff fffe 	bl	0 <<heapless::string::String<N> as core::fmt::Write>::write_char>
   a:	f000 0001 	and.w	r0, r0, #1
   e:	e03f      	b.n	90 <<heapless::string::String<N> as core::fmt::Write>::write_char+0x90>
  10:	2200      	movs	r2, #0
_ZN4core4char7methods22_$LT$impl$u20$char$GT$8len_utf817ha1d5a873a38928c7E():
/rustc/50a0defd5a93523067ef239936cc2e0755220904/src/libcore/char/methods.rs:363
  12:	f5b1 6f00 	cmp.w	r1, #2048	; 0x800
_ZN8heapless6string15String$LT$N$GT$4push17hfe7bd95a5e857f6bE():
/Users/Luppy/.cargo/registry/src/github.com-1ecc6299db9ec823/heapless-0.5.1/src/string.rs:251
                .extend_from_slice(c.encode_utf8(&mut [0; 4]).as_bytes()),
  16:	9201      	str	r2, [sp, #4]
_ZN4core4char7methods22_$LT$impl$u20$char$GT$8len_utf817ha1d5a873a38928c7E():
/rustc/50a0defd5a93523067ef239936cc2e0755220904/src/libcore/char/methods.rs:363
  18:	d20b      	bcs.n	32 <<heapless::string::String<N> as core::fmt::Write>::write_char+0x32>
_ZN8heapless6string15String$LT$N$GT$4push17hfe7bd95a5e857f6bE():
  1a:	2202      	movs	r2, #2
_ZN4core4char7methods22_$LT$impl$u20$char$GT$11encode_utf817hc04470e71cfe4e80E():
/rustc/50a0defd5a93523067ef239936cc2e0755220904/src/libcore/char/methods.rs:444
  1c:	098b      	lsrs	r3, r1, #6
/rustc/50a0defd5a93523067ef239936cc2e0755220904/src/libcore/char/methods.rs:445
  1e:	f362 119f 	bfi	r1, r2, #6, #26
  22:	f88d 1005 	strb.w	r1, [sp, #5]
  26:	2106      	movs	r1, #6
/rustc/50a0defd5a93523067ef239936cc2e0755220904/src/libcore/char/methods.rs:444
  28:	f361 135f 	bfi	r3, r1, #5, #27
  2c:	f88d 3004 	strb.w	r3, [sp, #4]
  30:	e02b      	b.n	8a <<heapless::string::String<N> as core::fmt::Write>::write_char+0x8a>
/rustc/50a0defd5a93523067ef239936cc2e0755220904/src/libcore/char/methods.rs:447
  32:	ebb2 4f11 	cmp.w	r2, r1, lsr #16
  36:	d112      	bne.n	5e <<heapless::string::String<N> as core::fmt::Write>::write_char+0x5e>
  38:	2202      	movs	r2, #2
/rustc/50a0defd5a93523067ef239936cc2e0755220904/src/libcore/char/methods.rs:450
  3a:	460b      	mov	r3, r1
  3c:	f362 139f 	bfi	r3, r2, #6, #26
  40:	f88d 3006 	strb.w	r3, [sp, #6]
/rustc/50a0defd5a93523067ef239936cc2e0755220904/src/libcore/char/methods.rs:449
  44:	098b      	lsrs	r3, r1, #6
/rustc/50a0defd5a93523067ef239936cc2e0755220904/src/libcore/char/methods.rs:448
  46:	0b09      	lsrs	r1, r1, #12
/rustc/50a0defd5a93523067ef239936cc2e0755220904/src/libcore/char/methods.rs:449
  48:	f362 139f 	bfi	r3, r2, #6, #26
  4c:	220e      	movs	r2, #14
/rustc/50a0defd5a93523067ef239936cc2e0755220904/src/libcore/char/methods.rs:448
  4e:	f362 111f 	bfi	r1, r2, #4, #28
/rustc/50a0defd5a93523067ef239936cc2e0755220904/src/libcore/char/methods.rs:449
  52:	f88d 3005 	strb.w	r3, [sp, #5]
/rustc/50a0defd5a93523067ef239936cc2e0755220904/src/libcore/char/methods.rs:448
  56:	f88d 1004 	strb.w	r1, [sp, #4]
  5a:	2203      	movs	r2, #3
  5c:	e015      	b.n	8a <<heapless::string::String<N> as core::fmt::Write>::write_char+0x8a>
  5e:	2202      	movs	r2, #2
/rustc/50a0defd5a93523067ef239936cc2e0755220904/src/libcore/char/methods.rs:456
  60:	460b      	mov	r3, r1
  62:	f362 139f 	bfi	r3, r2, #6, #26
  66:	f88d 3007 	strb.w	r3, [sp, #7]
/rustc/50a0defd5a93523067ef239936cc2e0755220904/src/libcore/char/methods.rs:455
  6a:	098b      	lsrs	r3, r1, #6
  6c:	f362 139f 	bfi	r3, r2, #6, #26
  70:	f88d 3006 	strb.w	r3, [sp, #6]
/rustc/50a0defd5a93523067ef239936cc2e0755220904/src/libcore/char/methods.rs:454
  74:	0b0b      	lsrs	r3, r1, #12
  76:	f362 139f 	bfi	r3, r2, #6, #26
  7a:	22f0      	movs	r2, #240	; 0xf0
/rustc/50a0defd5a93523067ef239936cc2e0755220904/src/libcore/char/methods.rs:453
  7c:	ea42 4191 	orr.w	r1, r2, r1, lsr #18
  80:	2204      	movs	r2, #4
/rustc/50a0defd5a93523067ef239936cc2e0755220904/src/libcore/char/methods.rs:454
  82:	f88d 3005 	strb.w	r3, [sp, #5]
/rustc/50a0defd5a93523067ef239936cc2e0755220904/src/libcore/char/methods.rs:453
  86:	f88d 1004 	strb.w	r1, [sp, #4]
_ZN8heapless6string15String$LT$N$GT$4push17hfe7bd95a5e857f6bE():
  8a:	a901      	add	r1, sp, #4
/Users/Luppy/.cargo/registry/src/github.com-1ecc6299db9ec823/heapless-0.5.1/src/string.rs:248
            _ => self
  8c:	f7ff fffe 	bl	0 <heapless::vec::<impl heapless::i::Vec<generic_array::GenericArray<T,N>>>::extend_from_slice>
_ZN70_$LT$heapless..string..String$LT$N$GT$$u20$as$u20$core..fmt..Write$GT$10write_char17hd30c626f25cb5066E():
/Users/Luppy/.cargo/registry/src/github.com-1ecc6299db9ec823/heapless-0.5.1/src/string.rs:445
        self.push(c).map_err(|_| fmt::Error)
    }
  90:	b002      	add	sp, #8
  92:	bd80      	pop	{r7, pc}

Disassembly of section .text._ZN70_$LT$heapless..string..String$LT$N$GT$$u20$as$u20$core..fmt..Write$GT$9write_str17hac2b2a0e713a281bE:

00000000 <<heapless::string::String<N> as core::fmt::Write>::write_str>:
_ZN8heapless6string15String$LT$N$GT$8push_str17h1e187a52136833a6E():
/Users/Luppy/.cargo/registry/src/github.com-1ecc6299db9ec823/heapless-0.5.1/src/string.rs:201
        self.0.vec.extend_from_slice(string.as_bytes())
   0:	f7ff bffe 	b.w	0 <heapless::vec::<impl heapless::i::Vec<generic_array::GenericArray<T,N>>>::extend_from_slice>

Disassembly of section .text._ZN70_$LT$heapless..vec..Vec$LT$T$C$N$GT$$u20$as$u20$core..clone..Clone$GT$5clone17hf1102e84a1207c7aE:

00000000 <<heapless::vec::Vec<T,N> as core::clone::Clone>::clone>:
_ZN70_$LT$heapless..vec..Vec$LT$T$C$N$GT$$u20$as$u20$core..clone..Clone$GT$5clone17hf1102e84a1207c7aE():
/Users/Luppy/.cargo/registry/src/github.com-1ecc6299db9ec823/heapless-0.5.1/src/vec.rs:172
    fn clone(&self) -> Self {
   0:	b580      	push	{r7, lr}
/Users/Luppy/.cargo/registry/src/github.com-1ecc6299db9ec823/heapless-0.5.1/src/vec.rs:173
        Vec(self.0.clone())
   2:	f7ff fffe 	bl	0 <<heapless::vec::Vec<T,N> as core::clone::Clone>::clone>
/Users/Luppy/.cargo/registry/src/github.com-1ecc6299db9ec823/heapless-0.5.1/src/vec.rs:174
    }
   6:	bd80      	pop	{r7, pc}

Disassembly of section .text._ZN72_$LT$druid..app..WindowDesc$LT$T$C$W$GT$$u20$as$u20$core..fmt..Debug$GT$3fmt17h2909ec93ec2c69a1E:

00000000 <<druid::app::WindowDesc<T,W> as core::fmt::Debug>::fmt>:
_ZN72_$LT$druid..app..WindowDesc$LT$T$C$W$GT$$u20$as$u20$core..fmt..Debug$GT$3fmt17h2909ec93ec2c69a1E():
/Users/Luppy/mynewt/druid-embedded/druid/src/app.rs:258
/// Implement formatted output for WindowDesc
impl<T: Data + Default, W: Widget<T>> core::fmt::Debug for WindowDesc<T, W> { ////
    fn fmt(&self, _fmt: &mut ::core::fmt::Formatter<'_>) -> ::core::fmt::Result {
        //  TODO
        Ok(())
    }
   0:	2000      	movs	r0, #0
   2:	4770      	bx	lr

Disassembly of section .text._ZN72_$LT$heapless..string..String$LT$N$GT$$u20$as$u20$core..clone..Clone$GT$5clone17hb47fd3dcb5ddeabdE:

00000000 <<heapless::string::String<N> as core::clone::Clone>::clone>:
_ZN72_$LT$heapless..string..String$LT$N$GT$$u20$as$u20$core..clone..Clone$GT$5clone17hb47fd3dcb5ddeabdE():
/Users/Luppy/.cargo/registry/src/github.com-1ecc6299db9ec823/heapless-0.5.1/src/string.rs:390
    fn clone(&self) -> Self {
   0:	b580      	push	{r7, lr}
/Users/Luppy/.cargo/registry/src/github.com-1ecc6299db9ec823/heapless-0.5.1/src/string.rs:392
            vec: self.0.vec.clone(),
   2:	f7ff fffe 	bl	0 <<heapless::string::String<N> as core::clone::Clone>::clone>
/Users/Luppy/.cargo/registry/src/github.com-1ecc6299db9ec823/heapless-0.5.1/src/string.rs:394
    }
   6:	bd80      	pop	{r7, pc}

Disassembly of section .text._ZN73_$LT$heapless..vec..Vec$LT$T$C$N$GT$$u20$as$u20$core..ops..drop..Drop$GT$4drop17h9d510813db44a6bfE:

00000000 <<heapless::vec::Vec<T,N> as core::ops::drop::Drop>::drop>:
_ZN73_$LT$heapless..vec..Vec$LT$T$C$N$GT$$u20$as$u20$core..ops..drop..Drop$GT$4drop17h9d510813db44a6bfE():
/Users/Luppy/.cargo/registry/src/github.com-1ecc6299db9ec823/heapless-0.5.1/src/vec.rs:374
where
    N: ArrayLength<T>,
{
    fn drop(&mut self) {
        unsafe { ptr::drop_in_place(&mut self[..]) }
    }
   0:	4770      	bx	lr

Disassembly of section .text._ZN75_$LT$heapless..vec..Vec$LT$T$C$N$GT$$u20$as$u20$core..ops..deref..Deref$GT$5deref17h98eae354a490e829E:

00000000 <<heapless::vec::Vec<T,N> as core::ops::deref::Deref>::deref>:
_ZN8heapless3vec82_$LT$impl$u20$heapless..i..Vec$LT$generic_array..GenericArray$LT$T$C$N$GT$$GT$$GT$8as_slice17h8816d891cbcb4adeE():
/Users/Luppy/.cargo/registry/src/github.com-1ecc6299db9ec823/heapless-0.5.1/src/vec.rs:23
        unsafe { slice::from_raw_parts(self.buffer.as_ptr() as *const T, self.len) }
   0:	6c01      	ldr	r1, [r0, #64]	; 0x40
_ZN75_$LT$heapless..vec..Vec$LT$T$C$N$GT$$u20$as$u20$core..ops..deref..Deref$GT$5deref17h98eae354a490e829E():
/Users/Luppy/.cargo/registry/src/github.com-1ecc6299db9ec823/heapless-0.5.1/src/vec.rs:593
{
    type Target = [T];

    fn deref(&self) -> &[T] {
        self.0.as_slice()
    }
   2:	4770      	bx	lr

Disassembly of section .text._ZN76_$LT$druid..localization..ArgSource$LT$T$GT$$u20$as$u20$core..fmt..Debug$GT$3fmt17h7ccc0917ea1d6fe8E:

00000000 <<druid::localization::ArgSource<T> as core::fmt::Debug>::fmt>:
_ZN76_$LT$druid..localization..ArgSource$LT$T$GT$$u20$as$u20$core..fmt..Debug$GT$3fmt17h7ccc0917ea1d6fe8E():
/Users/Luppy/mynewt/druid-embedded/druid/src/localization.rs:471
/// Implement formatted output for ArgSource
impl<T> core::fmt::Debug for ArgSource<T> { ////
    fn fmt(&self, _fmt: &mut ::core::fmt::Formatter<'_>) -> ::core::fmt::Result {
        //  TODO
        Ok(())
    }
   0:	2000      	movs	r0, #0
   2:	4770      	bx	lr

Disassembly of section .text._ZN77_$LT$core..marker..PhantomData$LT$T$GT$$u20$as$u20$core..default..Default$GT$7default17h0d1e369dd8539c9cE:

00000000 <<core::marker::PhantomData<T> as core::default::Default>::default>:
_ZN77_$LT$core..marker..PhantomData$LT$T$GT$$u20$as$u20$core..default..Default$GT$7default17h0d1e369dd8539c9cE():
/rustc/50a0defd5a93523067ef239936cc2e0755220904/src/libcore/marker.rs:432
   0:	4770      	bx	lr

Disassembly of section .text._ZN77_$LT$druid..widget..flex..Flex$LT$T$GT$$u20$as$u20$druid..Widget$LT$T$GT$$GT$10new_window17h88a41f26931e4403E:

00000000 <<druid::widget::flex::Flex<T> as druid::Widget<T>>::new_window>:
_ZN77_$LT$druid..widget..flex..Flex$LT$T$GT$$u20$as$u20$druid..Widget$LT$T$GT$$GT$10new_window17h88a41f26931e4403E():
/Users/Luppy/mynewt/druid-embedded/druid/src/widget/flex.rs:266
    fn new_window(self) -> WindowBox<T> { ////
   0:	b570      	push	{r4, r5, r6, lr}
   2:	f5ad 7d14 	sub.w	sp, sp, #592	; 0x250
   6:	ae06      	add	r6, sp, #24
   8:	460c      	mov	r4, r1
   a:	4605      	mov	r5, r0
_ZN59_$LT$druid..BaseState$u20$as$u20$core..default..Default$GT$7default17h3b085c6439d19087E():
/Users/Luppy/mynewt/druid-embedded/druid/src/lib.rs:120
#[derive(Clone, Copy, Default)] ////
   c:	2128      	movs	r1, #40	; 0x28
   e:	4630      	mov	r0, r6
  10:	f7ff fffe 	bl	0 <__aeabi_memclr8>
_ZN5druid22WidgetPod$LT$T$C$W$GT$3new17h19f68049a961c92dE():
/Users/Luppy/mynewt/druid-embedded/druid/src/lib.rs:454
        WidgetPod {
  14:	f106 0028 	add.w	r0, r6, #40	; 0x28
  18:	4621      	mov	r1, r4
  1a:	f44f 7204 	mov.w	r2, #528	; 0x210
  1e:	f7ff fffe 	bl	0 <__aeabi_memcpy8>
_ZN5druid6window19Window$LT$T$C$W$GT$3new17h7bb59c31c3a67b3aE():
/Users/Luppy/mynewt/druid-embedded/druid/src/window.rs:60
        Window {
  22:	4628      	mov	r0, r5
  24:	4631      	mov	r1, r6
  26:	f44f 720e 	mov.w	r2, #568	; 0x238
  2a:	f7ff fffe 	bl	0 <__aeabi_memcpy8>
  2e:	2000      	movs	r0, #0
  30:	4669      	mov	r1, sp
_ZN77_$LT$druid..widget..flex..Flex$LT$T$GT$$u20$as$u20$druid..Widget$LT$T$GT$$GT$10new_window17h88a41f26931e4403E():
/Users/Luppy/mynewt/druid-embedded/druid/src/widget/flex.rs:272
        window_box
  32:	f885 0240 	strb.w	r0, [r5, #576]	; 0x240
  36:	2217      	movs	r2, #23
_ZN5druid6window19Window$LT$T$C$W$GT$3new17h7bb59c31c3a67b3aE():
/Users/Luppy/mynewt/druid-embedded/druid/src/window.rs:60
  38:	f8cd 0013 	str.w	r0, [sp, #19]
  3c:	f8cd 000f 	str.w	r0, [sp, #15]
  40:	f8cd 000b 	str.w	r0, [sp, #11]
  44:	f8cd 0007 	str.w	r0, [sp, #7]
_ZN77_$LT$druid..widget..flex..Flex$LT$T$GT$$u20$as$u20$druid..Widget$LT$T$GT$$GT$10new_window17h88a41f26931e4403E():
/Users/Luppy/mynewt/druid-embedded/druid/src/widget/flex.rs:272
  48:	f8c5 0238 	str.w	r0, [r5, #568]	; 0x238
  4c:	f205 2041 	addw	r0, r5, #577	; 0x241
  50:	f7ff fffe 	bl	0 <__aeabi_memcpy>
/Users/Luppy/mynewt/druid-embedded/druid/src/widget/flex.rs:273
    }
  54:	f50d 7d14 	add.w	sp, sp, #592	; 0x250
  58:	bd70      	pop	{r4, r5, r6, pc}

Disassembly of section .text._ZN78_$LT$druid..widget..flex..ChildWidget$LT$T$GT$$u20$as$u20$core..fmt..Debug$GT$3fmt17h45f2cd87827a61adE:

00000000 <<druid::widget::flex::ChildWidget<T> as core::fmt::Debug>::fmt>:
_ZN78_$LT$druid..widget..flex..ChildWidget$LT$T$GT$$u20$as$u20$core..fmt..Debug$GT$3fmt17h45f2cd87827a61adE():
/Users/Luppy/mynewt/druid-embedded/druid/src/widget/flex.rs:285
/// Implement formatted output for ChildWidget
impl<T: Data> core::fmt::Debug for ChildWidget<T> { ////
    fn fmt(&self, _fmt: &mut ::core::fmt::Formatter<'_>) -> ::core::fmt::Result {
        //  TODO
        Ok(())
    }
   0:	2000      	movs	r0, #0
   2:	4770      	bx	lr

Disassembly of section .text._ZN78_$LT$heapless..vec..IntoIter$LT$T$C$N$GT$$u20$as$u20$core..ops..drop..Drop$GT$4drop17hc69559face95b31bE:

00000000 <<heapless::vec::IntoIter<T,N> as core::ops::drop::Drop>::drop>:
_ZN8heapless3vec82_$LT$impl$u20$heapless..i..Vec$LT$generic_array..GenericArray$LT$T$C$N$GT$$GT$$GT$12as_mut_slice17h0b8cf4f58b7105a0E():
/Users/Luppy/.cargo/registry/src/github.com-1ecc6299db9ec823/heapless-0.5.1/src/vec.rs:29
        unsafe { slice::from_raw_parts_mut(self.buffer.as_mut_ptr() as *mut T, self.len) }
   0:	6c01      	ldr	r1, [r0, #64]	; 0x40
_ZN78_$LT$heapless..vec..IntoIter$LT$T$C$N$GT$$u20$as$u20$core..ops..drop..Drop$GT$4drop17hc69559face95b31bE():
/Users/Luppy/.cargo/registry/src/github.com-1ecc6299db9ec823/heapless-0.5.1/src/vec.rs:516
            ptr::drop_in_place(&mut self.vec[self.next..]);
   2:	6c82      	ldr	r2, [r0, #72]	; 0x48
_ZN99_$LT$core..ops..range..Range$LT$usize$GT$$u20$as$u20$core..slice..SliceIndex$LT$$u5b$T$u5d$$GT$$GT$9index_mut17h3c0375d285589355E():
/rustc/50a0defd5a93523067ef239936cc2e0755220904/src/libcore/slice/mod.rs:2755
   4:	428a      	cmp	r2, r1
   6:	bf9e      	ittt	ls
   8:	2100      	movls	r1, #0
_ZN78_$LT$heapless..vec..IntoIter$LT$T$C$N$GT$$u20$as$u20$core..ops..drop..Drop$GT$4drop17hc69559face95b31bE():
/Users/Luppy/.cargo/registry/src/github.com-1ecc6299db9ec823/heapless-0.5.1/src/vec.rs:518
            self.vec.0.len = 0;
   a:	6401      	strls	r1, [r0, #64]	; 0x40
/Users/Luppy/.cargo/registry/src/github.com-1ecc6299db9ec823/heapless-0.5.1/src/vec.rs:520
    }
   c:	4770      	bxls	lr
_ZN99_$LT$core..ops..range..Range$LT$usize$GT$$u20$as$u20$core..slice..SliceIndex$LT$$u5b$T$u5d$$GT$$GT$9index_mut17h3c0375d285589355E():
/rustc/50a0defd5a93523067ef239936cc2e0755220904/src/libcore/slice/mod.rs:2756
   e:	4610      	mov	r0, r2
  10:	f7ff fffe 	bl	0 <core::slice::slice_index_order_fail>
  14:	defe      	udf	#254	; 0xfe

Disassembly of section .text._ZN78_$LT$heapless..vec..Vec$LT$T$C$N$GT$$u20$as$u20$core..ops..deref..DerefMut$GT$9deref_mut17hf4817c4349193a7eE:

00000000 <<heapless::vec::Vec<T,N> as core::ops::deref::DerefMut>::deref_mut>:
_ZN8heapless3vec82_$LT$impl$u20$heapless..i..Vec$LT$generic_array..GenericArray$LT$T$C$N$GT$$GT$$GT$12as_mut_slice17h0b8cf4f58b7105a0E():
/Users/Luppy/.cargo/registry/src/github.com-1ecc6299db9ec823/heapless-0.5.1/src/vec.rs:29
        unsafe { slice::from_raw_parts_mut(self.buffer.as_mut_ptr() as *mut T, self.len) }
   0:	6c01      	ldr	r1, [r0, #64]	; 0x40
_ZN78_$LT$heapless..vec..Vec$LT$T$C$N$GT$$u20$as$u20$core..ops..deref..DerefMut$GT$9deref_mut17hf4817c4349193a7eE():
/Users/Luppy/.cargo/registry/src/github.com-1ecc6299db9ec823/heapless-0.5.1/src/vec.rs:602
where
    N: ArrayLength<T>,
{
    fn deref_mut(&mut self) -> &mut [T] {
        self.0.as_mut_slice()
    }
   2:	4770      	bx	lr

Disassembly of section .text._ZN79_$LT$druid..widget..label..Label$LT$T$GT$$u20$as$u20$druid..Widget$LT$T$GT$$GT$6get_id17h9a108e15d7319460E:

00000000 <<druid::widget::label::Label<T> as druid::Widget<T>>::get_id>:
_ZN79_$LT$druid..widget..label..Label$LT$T$GT$$u20$as$u20$druid..Widget$LT$T$GT$$GT$6get_id17h9a108e15d7319460E():
/Users/Luppy/mynewt/druid-embedded/druid/src/widget/label.rs:152
    fn get_id(self) -> u32 { ////
   0:	b510      	push	{r4, lr}
/Users/Luppy/mynewt/druid-embedded/druid/src/widget/label.rs:153
        self.id
   2:	6904      	ldr	r4, [r0, #16]
/Users/Luppy/mynewt/druid-embedded/druid/src/widget/label.rs:154
    }
   4:	f7ff fffe 	bl	0 <<druid::widget::label::Label<T> as druid::Widget<T>>::get_id>
   8:	4620      	mov	r0, r4
   a:	bd10      	pop	{r4, pc}

Disassembly of section .text._ZN79_$LT$druid..widget..label..Label$LT$T$GT$$u20$as$u20$druid..Widget$LT$T$GT$$GT$7to_type17h6cfecb1feaf3111cE:

00000000 <<druid::widget::label::Label<T> as druid::Widget<T>>::to_type>:
_ZN79_$LT$druid..widget..label..Label$LT$T$GT$$u20$as$u20$druid..Widget$LT$T$GT$$GT$7to_type17h6cfecb1feaf3111cE():
/Users/Luppy/mynewt/druid-embedded/druid/src/widget/label.rs:144
    fn to_type(self) -> WidgetType<T> { ////
   0:	b510      	push	{r4, lr}
   2:	4604      	mov	r4, r0
/Users/Luppy/mynewt/druid-embedded/druid/src/widget/label.rs:145
        WidgetType::Label(self)
   4:	3008      	adds	r0, #8
   6:	2278      	movs	r2, #120	; 0x78
   8:	f7ff fffe 	bl	0 <__aeabi_memcpy8>
   c:	2000      	movs	r0, #0
   e:	2103      	movs	r1, #3
  10:	e9c4 1000 	strd	r1, r0, [r4]
/Users/Luppy/mynewt/druid-embedded/druid/src/widget/label.rs:146
    }
  14:	bd10      	pop	{r4, pc}

Disassembly of section .text._ZN80_$LT$druid..win_handler..DruidHandler$LT$T$GT$$u20$as$u20$core..clone..Clone$GT$5clone17hc620bed67f272b68E:

00000000 <<druid::win_handler::DruidHandler<T> as core::clone::Clone>::clone>:
_ZN80_$LT$druid..win_handler..DruidHandler$LT$T$GT$$u20$as$u20$core..clone..Clone$GT$5clone17hc620bed67f272b68E():
/Users/Luppy/mynewt/druid-embedded/druid/src/win_handler.rs:235
#[derive(Clone, Default)] ////
   0:	b510      	push	{r4, lr}
_ZN62_$LT$druid..window..WindowId$u20$as$u20$core..clone..Clone$GT$5clone17hadb074156ccb06ddE():
/Users/Luppy/mynewt/druid-embedded/druid/src/window.rs:30
#[derive(Clone, Copy, Debug, Default, PartialEq, Eq, Hash, PartialOrd, Ord)] ////
   2:	6804      	ldr	r4, [r0, #0]
_ZN80_$LT$druid..win_handler..DruidHandler$LT$T$GT$$u20$as$u20$core..clone..Clone$GT$5clone17hc620bed67f272b68E():
/Users/Luppy/mynewt/druid-embedded/druid/src/win_handler.rs:243
    phantom: PhantomData<T>,  ////  Needed to do compile-time checking for `Data`
   4:	f7ff fffe 	bl	0 <<core::marker::PhantomData<T> as core::clone::Clone>::clone>
/Users/Luppy/mynewt/druid-embedded/druid/src/win_handler.rs:235
#[derive(Clone, Default)] ////
   8:	4620      	mov	r0, r4
   a:	bd10      	pop	{r4, pc}

Disassembly of section .text._ZN84_$LT$heapless..string..String$LT$N$GT$$u20$as$u20$core..convert..From$LT$u32$GT$$GT$4from17hf04fb1f6e012796bE:

00000000 <<heapless::string::String<N> as core::convert::From<u32>>::from>:
_ZN84_$LT$heapless..string..String$LT$N$GT$$u20$as$u20$core..convert..From$LT$u32$GT$$GT$4from17hf04fb1f6e012796bE():
/Users/Luppy/.cargo/registry/src/github.com-1ecc6299db9ec823/heapless-0.5.1/src/string.rs:545
    ($num:ty, $size:ty) => {
        impl<N> From<$num> for String<N>
        where
            N: ArrayLength<u8> + IsGreaterOrEqual<$size, Output = True>,
        {
            fn from(s: $num) -> Self {
   0:	b5f0      	push	{r4, r5, r6, r7, lr}
   2:	b08f      	sub	sp, #60	; 0x3c
   4:	ad01      	add	r5, sp, #4
   6:	4607      	mov	r7, r0
   8:	9100      	str	r1, [sp, #0]
_ZN8heapless6string15String$LT$N$GT$3new17ha4b7e12d74c7034dE():
/Users/Luppy/.cargo/registry/src/github.com-1ecc6299db9ec823/heapless-0.5.1/src/string.rs:54
        String(crate::i::String::new())
   a:	4628      	mov	r0, r5
   c:	f7ff fffe 	bl	0 <heapless::string::<impl heapless::i::String<A>>::new>
_ZN84_$LT$heapless..string..String$LT$N$GT$$u20$as$u20$core..convert..From$LT$u32$GT$$GT$4from17hf04fb1f6e012796bE():
/Users/Luppy/mynewt/stm32bluepill-mynewt-sensor/<::core::macros::write macros>:2
  10:	490f      	ldr	r1, [pc, #60]	; (50 <<heapless::string::String<N> as core::convert::From<u32>>::from+0x50>)
  12:	4668      	mov	r0, sp
  14:	f7ff fffe 	bl	0 <core::fmt::ArgumentV1::new>
/Users/Luppy/.cargo/registry/src/github.com-1ecc6299db9ec823/heapless-0.5.1/src/string.rs:547
                let mut new = String::new();
                write!(&mut new, "{}", s).unwrap();
  18:	e9cd 010d 	strd	r0, r1, [sp, #52]	; 0x34
  1c:	2001      	movs	r0, #1
  1e:	a90d      	add	r1, sp, #52	; 0x34
_ZN4core3fmt9Arguments6new_v117ha99294a9defa432aE():
/rustc/50a0defd5a93523067ef239936cc2e0755220904/src/libcore/fmt/mod.rs:316
  20:	900c      	str	r0, [sp, #48]	; 0x30
  22:	910b      	str	r1, [sp, #44]	; 0x2c
  24:	2100      	movs	r1, #0
  26:	e9cd 1109 	strd	r1, r1, [sp, #36]	; 0x24
  2a:	a907      	add	r1, sp, #28
  2c:	4a09      	ldr	r2, [pc, #36]	; (54 <<heapless::string::String<N> as core::convert::From<u32>>::from+0x54>)
  2e:	e9cd 2007 	strd	r2, r0, [sp, #28]
_ZN84_$LT$heapless..string..String$LT$N$GT$$u20$as$u20$core..convert..From$LT$u32$GT$$GT$4from17hf04fb1f6e012796bE():
/Users/Luppy/mynewt/stm32bluepill-mynewt-sensor/<::core::macros::write macros>:2
  32:	4628      	mov	r0, r5
  34:	f7ff fffe 	bl	0 <<heapless::string::String<N> as core::convert::From<u32>>::from>
_ZN4core6result19Result$LT$T$C$E$GT$6unwrap17h0d4607d3dec404a9E():
/rustc/50a0defd5a93523067ef239936cc2e0755220904/src/libcore/result.rs:799
  38:	b920      	cbnz	r0, 44 <<heapless::string::String<N> as core::convert::From<u32>>::from+0x44>
_ZN84_$LT$heapless..string..String$LT$N$GT$$u20$as$u20$core..convert..From$LT$u32$GT$$GT$4from17hf04fb1f6e012796bE():
/Users/Luppy/.cargo/registry/src/github.com-1ecc6299db9ec823/heapless-0.5.1/src/string.rs:548
                new
  3a:	e895 005f 	ldmia.w	r5, {r0, r1, r2, r3, r4, r6}
  3e:	c75f      	stmia	r7!, {r0, r1, r2, r3, r4, r6}
/Users/Luppy/.cargo/registry/src/github.com-1ecc6299db9ec823/heapless-0.5.1/src/string.rs:549
            }
  40:	b00f      	add	sp, #60	; 0x3c
  42:	bdf0      	pop	{r4, r5, r6, r7, pc}
_ZN4core6result19Result$LT$T$C$E$GT$6unwrap17h0d4607d3dec404a9E():
/rustc/50a0defd5a93523067ef239936cc2e0755220904/src/libcore/result.rs:800
  44:	4804      	ldr	r0, [pc, #16]	; (58 <<heapless::string::String<N> as core::convert::From<u32>>::from+0x58>)
  46:	212b      	movs	r1, #43	; 0x2b
  48:	f7ff fffe 	bl	0 <core::result::unwrap_failed>
  4c:	defe      	udf	#254	; 0xfe
_ZN84_$LT$heapless..string..String$LT$N$GT$$u20$as$u20$core..convert..From$LT$u32$GT$$GT$4from17hf04fb1f6e012796bE():
/rustc/50a0defd5a93523067ef239936cc2e0755220904/src/libcore/result.rs:800
  4e:	bf00      	nop
	...

Disassembly of section .text._ZN8heapless3vec16Vec$LT$T$C$N$GT$3new17h53311de4d544ea74E:

00000000 <heapless::vec::Vec<T,N>::new>:
_ZN8heapless3vec16Vec$LT$T$C$N$GT$3new17h53311de4d544ea74E():
/Users/Luppy/.cargo/registry/src/github.com-1ecc6299db9ec823/heapless-0.5.1/src/vec.rs:196
    pub fn new() -> Self {
   0:	2100      	movs	r1, #0
/Users/Luppy/.cargo/registry/src/github.com-1ecc6299db9ec823/heapless-0.5.1/src/vec.rs:197
        Vec(crate::i::Vec::new())
   2:	f8c0 1200 	str.w	r1, [r0, #512]	; 0x200
/Users/Luppy/.cargo/registry/src/github.com-1ecc6299db9ec823/heapless-0.5.1/src/vec.rs:198
    }
   6:	4770      	bx	lr

Disassembly of section .text._ZN8heapless3vec16Vec$LT$T$C$N$GT$3new17hd71966dac52d399eE:

00000000 <heapless::vec::Vec<T,N>::new>:
_ZN8heapless3vec16Vec$LT$T$C$N$GT$3new17hd71966dac52d399eE():
/Users/Luppy/.cargo/registry/src/github.com-1ecc6299db9ec823/heapless-0.5.1/src/vec.rs:196
    pub fn new() -> Self {
   0:	2100      	movs	r1, #0
/Users/Luppy/.cargo/registry/src/github.com-1ecc6299db9ec823/heapless-0.5.1/src/vec.rs:197
        Vec(crate::i::Vec::new())
   2:	6401      	str	r1, [r0, #64]	; 0x40
/Users/Luppy/.cargo/registry/src/github.com-1ecc6299db9ec823/heapless-0.5.1/src/vec.rs:198
    }
   4:	4770      	bx	lr

Disassembly of section .text._ZN8heapless3vec16Vec$LT$T$C$N$GT$3new17hf9c77d32aa535311E:

00000000 <heapless::vec::Vec<T,N>::new>:
_ZN8heapless3vec16Vec$LT$T$C$N$GT$3new17hf9c77d32aa535311E():
/Users/Luppy/.cargo/registry/src/github.com-1ecc6299db9ec823/heapless-0.5.1/src/vec.rs:196
    pub fn new() -> Self {
   0:	2100      	movs	r1, #0
/Users/Luppy/.cargo/registry/src/github.com-1ecc6299db9ec823/heapless-0.5.1/src/vec.rs:197
        Vec(crate::i::Vec::new())
   2:	6181      	str	r1, [r0, #24]
/Users/Luppy/.cargo/registry/src/github.com-1ecc6299db9ec823/heapless-0.5.1/src/vec.rs:198
    }
   4:	4770      	bx	lr

Disassembly of section .text._ZN8heapless3vec16Vec$LT$T$C$N$GT$4push17h170f7d6280b7a4d2E:

00000000 <heapless::vec::Vec<T,N>::push>:
_ZN8heapless3vec16Vec$LT$T$C$N$GT$4push17h170f7d6280b7a4d2E():
/Users/Luppy/.cargo/registry/src/github.com-1ecc6299db9ec823/heapless-0.5.1/src/vec.rs:246
    pub fn push(&mut self, item: T) -> Result<(), T> {
   0:	b570      	push	{r4, r5, r6, lr}
   2:	b090      	sub	sp, #64	; 0x40
   4:	466e      	mov	r6, sp
   6:	460c      	mov	r4, r1
   8:	4605      	mov	r5, r0
/Users/Luppy/.cargo/registry/src/github.com-1ecc6299db9ec823/heapless-0.5.1/src/vec.rs:247
        self.0.push(item)
   a:	4611      	mov	r1, r2
   c:	4630      	mov	r0, r6
   e:	2240      	movs	r2, #64	; 0x40
  10:	f7ff fffe 	bl	0 <__aeabi_memcpy>
  14:	4628      	mov	r0, r5
  16:	4621      	mov	r1, r4
  18:	4632      	mov	r2, r6
  1a:	f7ff fffe 	bl	0 <heapless::vec::Vec<T,N>::push>
/Users/Luppy/.cargo/registry/src/github.com-1ecc6299db9ec823/heapless-0.5.1/src/vec.rs:248
    }
  1e:	b010      	add	sp, #64	; 0x40
  20:	bd70      	pop	{r4, r5, r6, pc}

Disassembly of section .text._ZN8heapless3vec16Vec$LT$T$C$N$GT$4push17ha7e6740ae0242538E:

00000000 <heapless::vec::Vec<T,N>::push>:
_ZN8heapless3vec16Vec$LT$T$C$N$GT$4push17ha7e6740ae0242538E():
/Users/Luppy/.cargo/registry/src/github.com-1ecc6299db9ec823/heapless-0.5.1/src/vec.rs:246
    pub fn push(&mut self, item: T) -> Result<(), T> {
   0:	b570      	push	{r4, r5, r6, lr}
   2:	b088      	sub	sp, #32
   4:	466e      	mov	r6, sp
   6:	460c      	mov	r4, r1
   8:	4605      	mov	r5, r0
/Users/Luppy/.cargo/registry/src/github.com-1ecc6299db9ec823/heapless-0.5.1/src/vec.rs:247
        self.0.push(item)
   a:	4611      	mov	r1, r2
   c:	4630      	mov	r0, r6
   e:	2220      	movs	r2, #32
  10:	f7ff fffe 	bl	0 <__aeabi_memcpy>
  14:	4628      	mov	r0, r5
  16:	4621      	mov	r1, r4
  18:	4632      	mov	r2, r6
  1a:	f7ff fffe 	bl	0 <heapless::vec::Vec<T,N>::push>
/Users/Luppy/.cargo/registry/src/github.com-1ecc6299db9ec823/heapless-0.5.1/src/vec.rs:248
    }
  1e:	b008      	add	sp, #32
  20:	bd70      	pop	{r4, r5, r6, pc}

Disassembly of section .text._ZN8heapless3vec16Vec$LT$T$C$N$GT$4push17hc5119271745f7ea9E:

00000000 <heapless::vec::Vec<T,N>::push>:
_ZN8heapless3vec16Vec$LT$T$C$N$GT$4push17hc5119271745f7ea9E():
/Users/Luppy/.cargo/registry/src/github.com-1ecc6299db9ec823/heapless-0.5.1/src/vec.rs:246
    pub fn push(&mut self, item: T) -> Result<(), T> {
   0:	b5bf      	push	{r0, r1, r2, r3, r4, r5, r7, lr}
   2:	f10d 0c04 	add.w	ip, sp, #4
/Users/Luppy/.cargo/registry/src/github.com-1ecc6299db9ec823/heapless-0.5.1/src/vec.rs:247
        self.0.push(item)
   6:	e892 4030 	ldmia.w	r2, {r4, r5, lr}
   a:	4663      	mov	r3, ip
   c:	4662      	mov	r2, ip
   e:	e883 4030 	stmia.w	r3, {r4, r5, lr}
  12:	f7ff fffe 	bl	0 <heapless::vec::Vec<T,N>::push>
/Users/Luppy/.cargo/registry/src/github.com-1ecc6299db9ec823/heapless-0.5.1/src/vec.rs:248
    }
  16:	bdbf      	pop	{r0, r1, r2, r3, r4, r5, r7, pc}

Disassembly of section .text._ZN8heapless3vec43_$LT$impl$u20$heapless..i..Vec$LT$A$GT$$GT$3new17h7278b1118e50f691E:

00000000 <heapless::vec::<impl heapless::i::Vec<A>>::new>:
_ZN8heapless3vec43_$LT$impl$u20$heapless..i..Vec$LT$A$GT$$GT$3new17h7278b1118e50f691E():
/Users/Luppy/.cargo/registry/src/github.com-1ecc6299db9ec823/heapless-0.5.1/src/vec.rs:8
    pub const fn new() -> Self {
   0:	2100      	movs	r1, #0
/Users/Luppy/.cargo/registry/src/github.com-1ecc6299db9ec823/heapless-0.5.1/src/vec.rs:9
        Self {
   2:	6401      	str	r1, [r0, #64]	; 0x40
/Users/Luppy/.cargo/registry/src/github.com-1ecc6299db9ec823/heapless-0.5.1/src/vec.rs:13
    }
   4:	4770      	bx	lr

Disassembly of section .text._ZN8heapless3vec43_$LT$impl$u20$heapless..i..Vec$LT$A$GT$$GT$3new17hd9617c33d813f9beE:

00000000 <heapless::vec::<impl heapless::i::Vec<A>>::new>:
_ZN8heapless3vec43_$LT$impl$u20$heapless..i..Vec$LT$A$GT$$GT$3new17hd9617c33d813f9beE():
/Users/Luppy/.cargo/registry/src/github.com-1ecc6299db9ec823/heapless-0.5.1/src/vec.rs:8
    pub const fn new() -> Self {
   0:	2100      	movs	r1, #0
/Users/Luppy/.cargo/registry/src/github.com-1ecc6299db9ec823/heapless-0.5.1/src/vec.rs:9
        Self {
   2:	6181      	str	r1, [r0, #24]
/Users/Luppy/.cargo/registry/src/github.com-1ecc6299db9ec823/heapless-0.5.1/src/vec.rs:13
    }
   4:	4770      	bx	lr

Disassembly of section .text._ZN8heapless3vec43_$LT$impl$u20$heapless..i..Vec$LT$A$GT$$GT$3new17he51d968b54c5e64aE:

00000000 <heapless::vec::<impl heapless::i::Vec<A>>::new>:
_ZN8heapless3vec43_$LT$impl$u20$heapless..i..Vec$LT$A$GT$$GT$3new17he51d968b54c5e64aE():
/Users/Luppy/.cargo/registry/src/github.com-1ecc6299db9ec823/heapless-0.5.1/src/vec.rs:8
    pub const fn new() -> Self {
   0:	2100      	movs	r1, #0
/Users/Luppy/.cargo/registry/src/github.com-1ecc6299db9ec823/heapless-0.5.1/src/vec.rs:9
        Self {
   2:	f8c0 1200 	str.w	r1, [r0, #512]	; 0x200
/Users/Luppy/.cargo/registry/src/github.com-1ecc6299db9ec823/heapless-0.5.1/src/vec.rs:13
    }
   6:	4770      	bx	lr

Disassembly of section .text._ZN8heapless3vec82_$LT$impl$u20$heapless..i..Vec$LT$generic_array..GenericArray$LT$T$C$N$GT$$GT$$GT$12as_mut_slice17h0b8cf4f58b7105a0E:

00000000 <heapless::vec::<impl heapless::i::Vec<generic_array::GenericArray<T,N>>>::as_mut_slice>:
_ZN8heapless3vec82_$LT$impl$u20$heapless..i..Vec$LT$generic_array..GenericArray$LT$T$C$N$GT$$GT$$GT$12as_mut_slice17h0b8cf4f58b7105a0E():
/Users/Luppy/.cargo/registry/src/github.com-1ecc6299db9ec823/heapless-0.5.1/src/vec.rs:29
        unsafe { slice::from_raw_parts_mut(self.buffer.as_mut_ptr() as *mut T, self.len) }
   0:	6c01      	ldr	r1, [r0, #64]	; 0x40
/Users/Luppy/.cargo/registry/src/github.com-1ecc6299db9ec823/heapless-0.5.1/src/vec.rs:30
    }
   2:	4770      	bx	lr

Disassembly of section .text._ZN8heapless3vec82_$LT$impl$u20$heapless..i..Vec$LT$generic_array..GenericArray$LT$T$C$N$GT$$GT$$GT$14push_unchecked17h0a1abb9f050f4e33E:

00000000 <heapless::vec::<impl heapless::i::Vec<generic_array::GenericArray<T,N>>>::push_unchecked>:
_ZN8heapless3vec82_$LT$impl$u20$heapless..i..Vec$LT$generic_array..GenericArray$LT$T$C$N$GT$$GT$$GT$14push_unchecked17h0a1abb9f050f4e33E():
/Users/Luppy/.cargo/registry/src/github.com-1ecc6299db9ec823/heapless-0.5.1/src/vec.rs:95
    pub(crate) unsafe fn push_unchecked(&mut self, item: T) {
   0:	b580      	push	{r7, lr}
/Users/Luppy/.cargo/registry/src/github.com-1ecc6299db9ec823/heapless-0.5.1/src/vec.rs:99
            .add(self.len)
   2:	6982      	ldr	r2, [r0, #24]
_ZN4core3ptr5write17hf138535a007a19b6E():
/rustc/50a0defd5a93523067ef239936cc2e0755220904/src/libcore/ptr.rs:734
   4:	e891 5008 	ldmia.w	r1, {r3, ip, lr}
_ZN4core3ptr31_$LT$impl$u20$$BP$mut$u20$T$GT$6offset17hd0a0d04309404057E():
/rustc/50a0defd5a93523067ef239936cc2e0755220904/src/libcore/ptr.rs:1703
   8:	eb02 0242 	add.w	r2, r2, r2, lsl #1
   c:	eb00 0282 	add.w	r2, r0, r2, lsl #2
_ZN4core3ptr5write17hf138535a007a19b6E():
/rustc/50a0defd5a93523067ef239936cc2e0755220904/src/libcore/ptr.rs:734
  10:	e882 5008 	stmia.w	r2, {r3, ip, lr}
_ZN8heapless3vec82_$LT$impl$u20$heapless..i..Vec$LT$generic_array..GenericArray$LT$T$C$N$GT$$GT$$GT$14push_unchecked17h0a1abb9f050f4e33E():
/Users/Luppy/.cargo/registry/src/github.com-1ecc6299db9ec823/heapless-0.5.1/src/vec.rs:102
        self.len += 1;
  14:	6981      	ldr	r1, [r0, #24]
  16:	3101      	adds	r1, #1
  18:	6181      	str	r1, [r0, #24]
/Users/Luppy/.cargo/registry/src/github.com-1ecc6299db9ec823/heapless-0.5.1/src/vec.rs:103
    }
  1a:	bd80      	pop	{r7, pc}

Disassembly of section .text._ZN8heapless3vec82_$LT$impl$u20$heapless..i..Vec$LT$generic_array..GenericArray$LT$T$C$N$GT$$GT$$GT$14push_unchecked17h5d42e9793f89872aE:

00000000 <heapless::vec::<impl heapless::i::Vec<generic_array::GenericArray<T,N>>>::push_unchecked>:
_ZN8heapless3vec82_$LT$impl$u20$heapless..i..Vec$LT$generic_array..GenericArray$LT$T$C$N$GT$$GT$$GT$14push_unchecked17h5d42e9793f89872aE():
/Users/Luppy/.cargo/registry/src/github.com-1ecc6299db9ec823/heapless-0.5.1/src/vec.rs:95
    pub(crate) unsafe fn push_unchecked(&mut self, item: T) {
   0:	b510      	push	{r4, lr}
   2:	4604      	mov	r4, r0
/Users/Luppy/.cargo/registry/src/github.com-1ecc6299db9ec823/heapless-0.5.1/src/vec.rs:99
            .add(self.len)
   4:	f8d0 0200 	ldr.w	r0, [r0, #512]	; 0x200
_ZN4core3ptr5write17h752be07b1a0e0c20E():
/rustc/50a0defd5a93523067ef239936cc2e0755220904/src/libcore/ptr.rs:734
   8:	2240      	movs	r2, #64	; 0x40
_ZN4core3ptr31_$LT$impl$u20$$BP$mut$u20$T$GT$6offset17hecc8873afc25db60E():
/rustc/50a0defd5a93523067ef239936cc2e0755220904/src/libcore/ptr.rs:1703
   a:	eb04 1080 	add.w	r0, r4, r0, lsl #6
_ZN4core3ptr5write17h752be07b1a0e0c20E():
/rustc/50a0defd5a93523067ef239936cc2e0755220904/src/libcore/ptr.rs:734
   e:	f7ff fffe 	bl	0 <__aeabi_memcpy>
_ZN8heapless3vec82_$LT$impl$u20$heapless..i..Vec$LT$generic_array..GenericArray$LT$T$C$N$GT$$GT$$GT$14push_unchecked17h5d42e9793f89872aE():
/Users/Luppy/.cargo/registry/src/github.com-1ecc6299db9ec823/heapless-0.5.1/src/vec.rs:102
        self.len += 1;
  12:	f8d4 0200 	ldr.w	r0, [r4, #512]	; 0x200
  16:	3001      	adds	r0, #1
  18:	f8c4 0200 	str.w	r0, [r4, #512]	; 0x200
/Users/Luppy/.cargo/registry/src/github.com-1ecc6299db9ec823/heapless-0.5.1/src/vec.rs:103
    }
  1c:	bd10      	pop	{r4, pc}

Disassembly of section .text._ZN8heapless3vec82_$LT$impl$u20$heapless..i..Vec$LT$generic_array..GenericArray$LT$T$C$N$GT$$GT$$GT$14push_unchecked17h85e521a7c5a2255eE:

00000000 <heapless::vec::<impl heapless::i::Vec<generic_array::GenericArray<T,N>>>::push_unchecked>:
_ZN8heapless3vec82_$LT$impl$u20$heapless..i..Vec$LT$generic_array..GenericArray$LT$T$C$N$GT$$GT$$GT$14push_unchecked17h85e521a7c5a2255eE():
/Users/Luppy/.cargo/registry/src/github.com-1ecc6299db9ec823/heapless-0.5.1/src/vec.rs:95
    pub(crate) unsafe fn push_unchecked(&mut self, item: T) {
   0:	b510      	push	{r4, lr}
   2:	4604      	mov	r4, r0
/Users/Luppy/.cargo/registry/src/github.com-1ecc6299db9ec823/heapless-0.5.1/src/vec.rs:99
            .add(self.len)
   4:	6c00      	ldr	r0, [r0, #64]	; 0x40
_ZN4core3ptr5write17h6e4318026354bcdcE():
/rustc/50a0defd5a93523067ef239936cc2e0755220904/src/libcore/ptr.rs:734
   6:	2220      	movs	r2, #32
   8:	eb04 1040 	add.w	r0, r4, r0, lsl #5
   c:	f7ff fffe 	bl	0 <__aeabi_memcpy>
_ZN8heapless3vec82_$LT$impl$u20$heapless..i..Vec$LT$generic_array..GenericArray$LT$T$C$N$GT$$GT$$GT$14push_unchecked17h85e521a7c5a2255eE():
/Users/Luppy/.cargo/registry/src/github.com-1ecc6299db9ec823/heapless-0.5.1/src/vec.rs:102
        self.len += 1;
  10:	6c20      	ldr	r0, [r4, #64]	; 0x40
  12:	3001      	adds	r0, #1
  14:	6420      	str	r0, [r4, #64]	; 0x40
/Users/Luppy/.cargo/registry/src/github.com-1ecc6299db9ec823/heapless-0.5.1/src/vec.rs:103
    }
  16:	bd10      	pop	{r4, pc}

Disassembly of section .text._ZN8heapless3vec82_$LT$impl$u20$heapless..i..Vec$LT$generic_array..GenericArray$LT$T$C$N$GT$$GT$$GT$17extend_from_slice17hc081e04848c5d3e6E:

00000000 <heapless::vec::<impl heapless::i::Vec<generic_array::GenericArray<T,N>>>::extend_from_slice>:
_ZN8heapless3vec82_$LT$impl$u20$heapless..i..Vec$LT$generic_array..GenericArray$LT$T$C$N$GT$$GT$$GT$17extend_from_slice17hc081e04848c5d3e6E():
/Users/Luppy/.cargo/registry/src/github.com-1ecc6299db9ec823/heapless-0.5.1/src/vec.rs:62
        if self.len + other.len() > self.capacity() {
   0:	f8d0 c018 	ldr.w	ip, [r0, #24]
   4:	eb0c 0302 	add.w	r3, ip, r2
   8:	2b02      	cmp	r3, #2
   a:	bf84      	itt	hi
   c:	2001      	movhi	r0, #1
/Users/Luppy/.cargo/registry/src/github.com-1ecc6299db9ec823/heapless-0.5.1/src/vec.rs:73
    }
   e:	4770      	bxhi	lr
  10:	b5b0      	push	{r4, r5, r7, lr}
/Users/Luppy/.cargo/registry/src/github.com-1ecc6299db9ec823/heapless-0.5.1/src/vec.rs:66
            for elem in other {
  12:	eb02 0242 	add.w	r2, r2, r2, lsl #1
  16:	ea4f 0e82 	mov.w	lr, r2, lsl #2
  1a:	e012      	b.n	42 <heapless::vec::<impl heapless::i::Vec<generic_array::GenericArray<T,N>>>::extend_from_slice+0x42>
_ZN4core3ptr5write17hf138535a007a19b6E():
/rustc/50a0defd5a93523067ef239936cc2e0755220904/src/libcore/ptr.rs:734
  1c:	eb0c 024c 	add.w	r2, ip, ip, lsl #1
_ZN4core5clone5impls54_$LT$impl$u20$core..clone..Clone$u20$for$u20$$RF$T$GT$5clone17h757154e2e8c25142E():
/rustc/50a0defd5a93523067ef239936cc2e0755220904/src/libcore/clone.rs:211
  20:	e9d1 3500 	ldrd	r3, r5, [r1]
_ZN4core5clone5Clone5clone17h10ed393058f372acE():
/rustc/50a0defd5a93523067ef239936cc2e0755220904/src/libcore/clone.rs:122
  24:	688c      	ldr	r4, [r1, #8]
_ZN8heapless3vec82_$LT$impl$u20$heapless..i..Vec$LT$generic_array..GenericArray$LT$T$C$N$GT$$GT$$GT$17extend_from_slice17hc081e04848c5d3e6E():
/Users/Luppy/.cargo/registry/src/github.com-1ecc6299db9ec823/heapless-0.5.1/src/vec.rs:66
  26:	f1ae 0e0c 	sub.w	lr, lr, #12
_ZN4core3ptr5write17hf138535a007a19b6E():
/rustc/50a0defd5a93523067ef239936cc2e0755220904/src/libcore/ptr.rs:734
  2a:	f840 3022 	str.w	r3, [r0, r2, lsl #2]
  2e:	eb00 0282 	add.w	r2, r0, r2, lsl #2
_ZN4core3ptr33_$LT$impl$u20$$BP$const$u20$T$GT$6offset17he834ad4140e029fbE():
/rustc/50a0defd5a93523067ef239936cc2e0755220904/src/libcore/ptr.rs:1077
  32:	310c      	adds	r1, #12
_ZN4core3ptr5write17hf138535a007a19b6E():
/rustc/50a0defd5a93523067ef239936cc2e0755220904/src/libcore/ptr.rs:734
  34:	e9c2 5401 	strd	r5, r4, [r2, #4]
_ZN8heapless3vec82_$LT$impl$u20$heapless..i..Vec$LT$generic_array..GenericArray$LT$T$C$N$GT$$GT$$GT$14push_unchecked17h0a1abb9f050f4e33E():
/Users/Luppy/.cargo/registry/src/github.com-1ecc6299db9ec823/heapless-0.5.1/src/vec.rs:102
        self.len += 1;
  38:	6982      	ldr	r2, [r0, #24]
  3a:	f102 0c01 	add.w	ip, r2, #1
  3e:	f8c0 c018 	str.w	ip, [r0, #24]
_ZN85_$LT$core..slice..Iter$LT$T$GT$$u20$as$u20$core..iter..traits..iterator..Iterator$GT$4next17h0f28df8c4f2b1620E():
/rustc/50a0defd5a93523067ef239936cc2e0755220904/src/libcore/slice/mod.rs:3086
  42:	f1be 0f00 	cmp.w	lr, #0
  46:	d1e9      	bne.n	1c <heapless::vec::<impl heapless::i::Vec<generic_array::GenericArray<T,N>>>::extend_from_slice+0x1c>
_ZN8heapless3vec82_$LT$impl$u20$heapless..i..Vec$LT$generic_array..GenericArray$LT$T$C$N$GT$$GT$$GT$17extend_from_slice17hc081e04848c5d3e6E():
  48:	2000      	movs	r0, #0
  4a:	bdb0      	pop	{r4, r5, r7, pc}

Disassembly of section .text._ZN8heapless3vec82_$LT$impl$u20$heapless..i..Vec$LT$generic_array..GenericArray$LT$T$C$N$GT$$GT$$GT$4push17h1fb29f651d080fc3E:

00000000 <heapless::vec::<impl heapless::i::Vec<generic_array::GenericArray<T,N>>>::push>:
_ZN8heapless3vec82_$LT$impl$u20$heapless..i..Vec$LT$generic_array..GenericArray$LT$T$C$N$GT$$GT$$GT$4push17h1fb29f651d080fc3E():
/Users/Luppy/.cargo/registry/src/github.com-1ecc6299db9ec823/heapless-0.5.1/src/vec.rs:86
    pub(crate) fn push(&mut self, item: T) -> Result<(), T> {
   0:	b5b0      	push	{r4, r5, r7, lr}
   2:	4604      	mov	r4, r0
/Users/Luppy/.cargo/registry/src/github.com-1ecc6299db9ec823/heapless-0.5.1/src/vec.rs:87
        if self.len < self.capacity() {
   4:	6c08      	ldr	r0, [r1, #64]	; 0x40
   6:	2801      	cmp	r0, #1
   8:	d813      	bhi.n	32 <heapless::vec::<impl heapless::i::Vec<generic_array::GenericArray<T,N>>>::push+0x32>
_ZN4core3ptr5write17h6e4318026354bcdcE():
/rustc/50a0defd5a93523067ef239936cc2e0755220904/src/libcore/ptr.rs:734
   a:	eb01 1040 	add.w	r0, r1, r0, lsl #5
   e:	460d      	mov	r5, r1
  10:	4611      	mov	r1, r2
  12:	2220      	movs	r2, #32
  14:	f7ff fffe 	bl	0 <__aeabi_memcpy>
_ZN8heapless3vec82_$LT$impl$u20$heapless..i..Vec$LT$generic_array..GenericArray$LT$T$C$N$GT$$GT$$GT$14push_unchecked17h85e521a7c5a2255eE():
/Users/Luppy/.cargo/registry/src/github.com-1ecc6299db9ec823/heapless-0.5.1/src/vec.rs:102
        self.len += 1;
  18:	6c28      	ldr	r0, [r5, #64]	; 0x40
_ZN8heapless3vec82_$LT$impl$u20$heapless..i..Vec$LT$generic_array..GenericArray$LT$T$C$N$GT$$GT$$GT$4push17h1fb29f651d080fc3E():
/Users/Luppy/.cargo/registry/src/github.com-1ecc6299db9ec823/heapless-0.5.1/src/vec.rs:89
            Ok(())
  1a:	2118      	movs	r1, #24
_ZN8heapless3vec82_$LT$impl$u20$heapless..i..Vec$LT$generic_array..GenericArray$LT$T$C$N$GT$$GT$$GT$14push_unchecked17h85e521a7c5a2255eE():
/Users/Luppy/.cargo/registry/src/github.com-1ecc6299db9ec823/heapless-0.5.1/src/vec.rs:102
        self.len += 1;
  1c:	3001      	adds	r0, #1
  1e:	6428      	str	r0, [r5, #64]	; 0x40
  20:	f104 0008 	add.w	r0, r4, #8
_ZN8heapless3vec82_$LT$impl$u20$heapless..i..Vec$LT$generic_array..GenericArray$LT$T$C$N$GT$$GT$$GT$4push17h1fb29f651d080fc3E():
/Users/Luppy/.cargo/registry/src/github.com-1ecc6299db9ec823/heapless-0.5.1/src/vec.rs:89
            Ok(())
  24:	f7ff fffe 	bl	0 <__aeabi_memclr8>
  28:	2000      	movs	r0, #0
  2a:	2102      	movs	r1, #2
  2c:	e9c4 1000 	strd	r1, r0, [r4]
/Users/Luppy/.cargo/registry/src/github.com-1ecc6299db9ec823/heapless-0.5.1/src/vec.rs:93
    }
  30:	bdb0      	pop	{r4, r5, r7, pc}
/Users/Luppy/.cargo/registry/src/github.com-1ecc6299db9ec823/heapless-0.5.1/src/vec.rs:91
            Err(item)
  32:	4611      	mov	r1, r2
  34:	4620      	mov	r0, r4
  36:	2220      	movs	r2, #32
  38:	f7ff fffe 	bl	0 <__aeabi_memcpy>
/Users/Luppy/.cargo/registry/src/github.com-1ecc6299db9ec823/heapless-0.5.1/src/vec.rs:93
    }
  3c:	bdb0      	pop	{r4, r5, r7, pc}

Disassembly of section .text._ZN8heapless3vec82_$LT$impl$u20$heapless..i..Vec$LT$generic_array..GenericArray$LT$T$C$N$GT$$GT$$GT$4push17h2888ebf57320ada9E:

00000000 <heapless::vec::<impl heapless::i::Vec<generic_array::GenericArray<T,N>>>::push>:
_ZN8heapless3vec82_$LT$impl$u20$heapless..i..Vec$LT$generic_array..GenericArray$LT$T$C$N$GT$$GT$$GT$4push17h2888ebf57320ada9E():
/Users/Luppy/.cargo/registry/src/github.com-1ecc6299db9ec823/heapless-0.5.1/src/vec.rs:86
    pub(crate) fn push(&mut self, item: T) -> Result<(), T> {
   0:	b510      	push	{r4, lr}
/Users/Luppy/.cargo/registry/src/github.com-1ecc6299db9ec823/heapless-0.5.1/src/vec.rs:87
        if self.len < self.capacity() {
   2:	698b      	ldr	r3, [r1, #24]
   4:	2b01      	cmp	r3, #1
   6:	d80f      	bhi.n	28 <heapless::vec::<impl heapless::i::Vec<generic_array::GenericArray<T,N>>>::push+0x28>
_ZN4core3ptr31_$LT$impl$u20$$BP$mut$u20$T$GT$6offset17hd0a0d04309404057E():
/rustc/50a0defd5a93523067ef239936cc2e0755220904/src/libcore/ptr.rs:1703
   8:	eb03 0343 	add.w	r3, r3, r3, lsl #1
_ZN4core3ptr5write17hf138535a007a19b6E():
/rustc/50a0defd5a93523067ef239936cc2e0755220904/src/libcore/ptr.rs:734
   c:	e892 5010 	ldmia.w	r2, {r4, ip, lr}
_ZN4core3ptr31_$LT$impl$u20$$BP$mut$u20$T$GT$6offset17hd0a0d04309404057E():
/rustc/50a0defd5a93523067ef239936cc2e0755220904/src/libcore/ptr.rs:1703
  10:	eb01 0383 	add.w	r3, r1, r3, lsl #2
_ZN4core3ptr5write17hf138535a007a19b6E():
/rustc/50a0defd5a93523067ef239936cc2e0755220904/src/libcore/ptr.rs:734
  14:	e883 5010 	stmia.w	r3, {r4, ip, lr}
_ZN8heapless3vec82_$LT$impl$u20$heapless..i..Vec$LT$generic_array..GenericArray$LT$T$C$N$GT$$GT$$GT$14push_unchecked17h0a1abb9f050f4e33E():
/Users/Luppy/.cargo/registry/src/github.com-1ecc6299db9ec823/heapless-0.5.1/src/vec.rs:102
        self.len += 1;
  18:	698a      	ldr	r2, [r1, #24]
  1a:	3201      	adds	r2, #1
  1c:	618a      	str	r2, [r1, #24]
  1e:	2100      	movs	r1, #0
_ZN8heapless3vec82_$LT$impl$u20$heapless..i..Vec$LT$generic_array..GenericArray$LT$T$C$N$GT$$GT$$GT$4push17h2888ebf57320ada9E():
/Users/Luppy/.cargo/registry/src/github.com-1ecc6299db9ec823/heapless-0.5.1/src/vec.rs:89
            Ok(())
  20:	e9c0 1100 	strd	r1, r1, [r0]
  24:	6081      	str	r1, [r0, #8]
/Users/Luppy/.cargo/registry/src/github.com-1ecc6299db9ec823/heapless-0.5.1/src/vec.rs:93
    }
  26:	bd10      	pop	{r4, pc}
/Users/Luppy/.cargo/registry/src/github.com-1ecc6299db9ec823/heapless-0.5.1/src/vec.rs:91
            Err(item)
  28:	e892 001a 	ldmia.w	r2, {r1, r3, r4}
  2c:	c01a      	stmia	r0!, {r1, r3, r4}
/Users/Luppy/.cargo/registry/src/github.com-1ecc6299db9ec823/heapless-0.5.1/src/vec.rs:93
    }
  2e:	bd10      	pop	{r4, pc}

Disassembly of section .text._ZN8heapless3vec82_$LT$impl$u20$heapless..i..Vec$LT$generic_array..GenericArray$LT$T$C$N$GT$$GT$$GT$4push17h9a4681c2d53c9cd4E:

00000000 <heapless::vec::<impl heapless::i::Vec<generic_array::GenericArray<T,N>>>::push>:
_ZN8heapless3vec82_$LT$impl$u20$heapless..i..Vec$LT$generic_array..GenericArray$LT$T$C$N$GT$$GT$$GT$4push17h9a4681c2d53c9cd4E():
/Users/Luppy/.cargo/registry/src/github.com-1ecc6299db9ec823/heapless-0.5.1/src/vec.rs:86
    pub(crate) fn push(&mut self, item: T) -> Result<(), T> {
   0:	b570      	push	{r4, r5, r6, lr}
   2:	460c      	mov	r4, r1
   4:	4605      	mov	r5, r0
/Users/Luppy/.cargo/registry/src/github.com-1ecc6299db9ec823/heapless-0.5.1/src/vec.rs:87
        if self.len < self.capacity() {
   6:	6806      	ldr	r6, [r0, #0]
   8:	f7ff fffe 	bl	0 <heapless::vec::<impl heapless::i::Vec<generic_array::GenericArray<T,N>>>::capacity>
   c:	4286      	cmp	r6, r0
   e:	d205      	bcs.n	1c <heapless::vec::<impl heapless::i::Vec<generic_array::GenericArray<T,N>>>::push+0x1c>
/Users/Luppy/.cargo/registry/src/github.com-1ecc6299db9ec823/heapless-0.5.1/src/vec.rs:88
            unsafe { self.push_unchecked(item) }
  10:	4628      	mov	r0, r5
  12:	4621      	mov	r1, r4
  14:	f7ff fffe 	bl	0 <heapless::vec::<impl heapless::i::Vec<generic_array::GenericArray<T,N>>>::push_unchecked>
  18:	2000      	movs	r0, #0
  1a:	e000      	b.n	1e <heapless::vec::<impl heapless::i::Vec<generic_array::GenericArray<T,N>>>::push+0x1e>
  1c:	2001      	movs	r0, #1
/Users/Luppy/.cargo/registry/src/github.com-1ecc6299db9ec823/heapless-0.5.1/src/vec.rs:93
    }
  1e:	4621      	mov	r1, r4
  20:	bd70      	pop	{r4, r5, r6, pc}

Disassembly of section .text._ZN8heapless3vec82_$LT$impl$u20$heapless..i..Vec$LT$generic_array..GenericArray$LT$T$C$N$GT$$GT$$GT$4push17hf7f43f8e4aa57b84E:

00000000 <heapless::vec::<impl heapless::i::Vec<generic_array::GenericArray<T,N>>>::push>:
_ZN8heapless3vec82_$LT$impl$u20$heapless..i..Vec$LT$generic_array..GenericArray$LT$T$C$N$GT$$GT$$GT$4push17hf7f43f8e4aa57b84E():
/Users/Luppy/.cargo/registry/src/github.com-1ecc6299db9ec823/heapless-0.5.1/src/vec.rs:86
    pub(crate) fn push(&mut self, item: T) -> Result<(), T> {
   0:	b5b0      	push	{r4, r5, r7, lr}
   2:	4604      	mov	r4, r0
/Users/Luppy/.cargo/registry/src/github.com-1ecc6299db9ec823/heapless-0.5.1/src/vec.rs:87
        if self.len < self.capacity() {
   4:	f8d1 0200 	ldr.w	r0, [r1, #512]	; 0x200
   8:	2807      	cmp	r0, #7
   a:	d812      	bhi.n	32 <heapless::vec::<impl heapless::i::Vec<generic_array::GenericArray<T,N>>>::push+0x32>
_ZN4core3ptr31_$LT$impl$u20$$BP$mut$u20$T$GT$6offset17hecc8873afc25db60E():
/rustc/50a0defd5a93523067ef239936cc2e0755220904/src/libcore/ptr.rs:1703
   c:	eb01 1080 	add.w	r0, r1, r0, lsl #6
  10:	460d      	mov	r5, r1
_ZN4core3ptr5write17h752be07b1a0e0c20E():
/rustc/50a0defd5a93523067ef239936cc2e0755220904/src/libcore/ptr.rs:734
  12:	4611      	mov	r1, r2
  14:	2240      	movs	r2, #64	; 0x40
  16:	f7ff fffe 	bl	0 <__aeabi_memcpy>
_ZN8heapless3vec82_$LT$impl$u20$heapless..i..Vec$LT$generic_array..GenericArray$LT$T$C$N$GT$$GT$$GT$14push_unchecked17h5d42e9793f89872aE():
/Users/Luppy/.cargo/registry/src/github.com-1ecc6299db9ec823/heapless-0.5.1/src/vec.rs:102
        self.len += 1;
  1a:	f8d5 0200 	ldr.w	r0, [r5, #512]	; 0x200
_ZN8heapless3vec82_$LT$impl$u20$heapless..i..Vec$LT$generic_array..GenericArray$LT$T$C$N$GT$$GT$$GT$4push17hf7f43f8e4aa57b84E():
/Users/Luppy/.cargo/registry/src/github.com-1ecc6299db9ec823/heapless-0.5.1/src/vec.rs:89
            Ok(())
  1e:	2140      	movs	r1, #64	; 0x40
_ZN8heapless3vec82_$LT$impl$u20$heapless..i..Vec$LT$generic_array..GenericArray$LT$T$C$N$GT$$GT$$GT$14push_unchecked17h5d42e9793f89872aE():
/Users/Luppy/.cargo/registry/src/github.com-1ecc6299db9ec823/heapless-0.5.1/src/vec.rs:102
        self.len += 1;
  20:	3001      	adds	r0, #1
  22:	f8c5 0200 	str.w	r0, [r5, #512]	; 0x200
_ZN8heapless3vec82_$LT$impl$u20$heapless..i..Vec$LT$generic_array..GenericArray$LT$T$C$N$GT$$GT$$GT$4push17hf7f43f8e4aa57b84E():
/Users/Luppy/.cargo/registry/src/github.com-1ecc6299db9ec823/heapless-0.5.1/src/vec.rs:89
            Ok(())
  26:	4620      	mov	r0, r4
  28:	f7ff fffe 	bl	0 <__aeabi_memclr8>
  2c:	2002      	movs	r0, #2
  2e:	62a0      	str	r0, [r4, #40]	; 0x28
/Users/Luppy/.cargo/registry/src/github.com-1ecc6299db9ec823/heapless-0.5.1/src/vec.rs:93
    }
  30:	bdb0      	pop	{r4, r5, r7, pc}
/Users/Luppy/.cargo/registry/src/github.com-1ecc6299db9ec823/heapless-0.5.1/src/vec.rs:91
            Err(item)
  32:	4611      	mov	r1, r2
  34:	4620      	mov	r0, r4
  36:	2240      	movs	r2, #64	; 0x40
  38:	f7ff fffe 	bl	0 <__aeabi_memcpy>
/Users/Luppy/.cargo/registry/src/github.com-1ecc6299db9ec823/heapless-0.5.1/src/vec.rs:93
    }
  3c:	bdb0      	pop	{r4, r5, r7, pc}

Disassembly of section .text._ZN8heapless3vec82_$LT$impl$u20$heapless..i..Vec$LT$generic_array..GenericArray$LT$T$C$N$GT$$GT$$GT$5clone17h279b5bfbfa510c1fE:

00000000 <heapless::vec::<impl heapless::i::Vec<generic_array::GenericArray<T,N>>>::clone>:
_ZN8heapless3vec82_$LT$impl$u20$heapless..i..Vec$LT$generic_array..GenericArray$LT$T$C$N$GT$$GT$$GT$5clone17h279b5bfbfa510c1fE():
/Users/Luppy/.cargo/registry/src/github.com-1ecc6299db9ec823/heapless-0.5.1/src/vec.rs:40
    pub(crate) fn clone(&self) -> Self
   0:	b5f0      	push	{r4, r5, r6, r7, lr}
   2:	b087      	sub	sp, #28
   4:	ae01      	add	r6, sp, #4
   6:	4607      	mov	r7, r0
   8:	460c      	mov	r4, r1
/Users/Luppy/.cargo/registry/src/github.com-1ecc6299db9ec823/heapless-0.5.1/src/vec.rs:44
        let mut new = Self::new();
   a:	4630      	mov	r0, r6
   c:	f7ff fffe 	bl	0 <heapless::vec::<impl heapless::i::Vec<A>>::new>
/Users/Luppy/.cargo/registry/src/github.com-1ecc6299db9ec823/heapless-0.5.1/src/vec.rs:45
        new.extend_from_slice(self.as_slice()).unwrap();
  10:	4620      	mov	r0, r4
  12:	f7ff fffe 	bl	0 <heapless::vec::<impl heapless::i::Vec<generic_array::GenericArray<T,N>>>::as_slice>
  16:	4602      	mov	r2, r0
  18:	460b      	mov	r3, r1
  1a:	4611      	mov	r1, r2
  1c:	4630      	mov	r0, r6
  1e:	461a      	mov	r2, r3
  20:	f7ff fffe 	bl	0 <heapless::vec::<impl heapless::i::Vec<generic_array::GenericArray<T,N>>>::extend_from_slice>
  24:	f7ff fffe 	bl	0 <heapless::vec::<impl heapless::i::Vec<generic_array::GenericArray<T,N>>>::clone>
/Users/Luppy/.cargo/registry/src/github.com-1ecc6299db9ec823/heapless-0.5.1/src/vec.rs:46
        new
  28:	e896 003f 	ldmia.w	r6, {r0, r1, r2, r3, r4, r5}
  2c:	c73f      	stmia	r7!, {r0, r1, r2, r3, r4, r5}
/Users/Luppy/.cargo/registry/src/github.com-1ecc6299db9ec823/heapless-0.5.1/src/vec.rs:47
    }
  2e:	b007      	add	sp, #28
  30:	bdf0      	pop	{r4, r5, r6, r7, pc}

Disassembly of section .text._ZN8heapless3vec82_$LT$impl$u20$heapless..i..Vec$LT$generic_array..GenericArray$LT$T$C$N$GT$$GT$$GT$5clone17h2f2294f449db8971E:

00000000 <heapless::vec::<impl heapless::i::Vec<generic_array::GenericArray<T,N>>>::clone>:
_ZN8heapless3vec82_$LT$impl$u20$heapless..i..Vec$LT$generic_array..GenericArray$LT$T$C$N$GT$$GT$$GT$5clone17h2f2294f449db8971E():
/Users/Luppy/.cargo/registry/src/github.com-1ecc6299db9ec823/heapless-0.5.1/src/vec.rs:40
    pub(crate) fn clone(&self) -> Self
   0:	b5b0      	push	{r4, r5, r7, lr}
   2:	b088      	sub	sp, #32
_ZN8heapless3vec82_$LT$impl$u20$heapless..i..Vec$LT$generic_array..GenericArray$LT$T$C$N$GT$$GT$$GT$8as_slice17h577824057efa037dE():
/Users/Luppy/.cargo/registry/src/github.com-1ecc6299db9ec823/heapless-0.5.1/src/vec.rs:23
        unsafe { slice::from_raw_parts(self.buffer.as_ptr() as *const T, self.len) }
   4:	698a      	ldr	r2, [r1, #24]
   6:	ad01      	add	r5, sp, #4
   8:	4604      	mov	r4, r0
   a:	2000      	movs	r0, #0
_ZN8heapless3vec43_$LT$impl$u20$heapless..i..Vec$LT$A$GT$$GT$3new17hd9617c33d813f9beE():
/Users/Luppy/.cargo/registry/src/github.com-1ecc6299db9ec823/heapless-0.5.1/src/vec.rs:9
        Self {
   c:	9007      	str	r0, [sp, #28]
_ZN8heapless3vec82_$LT$impl$u20$heapless..i..Vec$LT$generic_array..GenericArray$LT$T$C$N$GT$$GT$$GT$5clone17h2f2294f449db8971E():
/Users/Luppy/.cargo/registry/src/github.com-1ecc6299db9ec823/heapless-0.5.1/src/vec.rs:45
        new.extend_from_slice(self.as_slice()).unwrap();
   e:	4628      	mov	r0, r5
  10:	f7ff fffe 	bl	0 <heapless::vec::<impl heapless::i::Vec<generic_array::GenericArray<T,N>>>::clone>
  14:	f7ff fffe 	bl	0 <heapless::vec::<impl heapless::i::Vec<generic_array::GenericArray<T,N>>>::clone>
/Users/Luppy/.cargo/registry/src/github.com-1ecc6299db9ec823/heapless-0.5.1/src/vec.rs:46
        new
  18:	4620      	mov	r0, r4
  1a:	4629      	mov	r1, r5
  1c:	221c      	movs	r2, #28
  1e:	f7ff fffe 	bl	0 <__aeabi_memcpy>
/Users/Luppy/.cargo/registry/src/github.com-1ecc6299db9ec823/heapless-0.5.1/src/vec.rs:47
    }
  22:	b008      	add	sp, #32
  24:	bdb0      	pop	{r4, r5, r7, pc}

Disassembly of section .text._ZN8heapless3vec82_$LT$impl$u20$heapless..i..Vec$LT$generic_array..GenericArray$LT$T$C$N$GT$$GT$$GT$8as_slice17h577824057efa037dE:

00000000 <heapless::vec::<impl heapless::i::Vec<generic_array::GenericArray<T,N>>>::as_slice>:
_ZN8heapless3vec82_$LT$impl$u20$heapless..i..Vec$LT$generic_array..GenericArray$LT$T$C$N$GT$$GT$$GT$8as_slice17h577824057efa037dE():
/Users/Luppy/.cargo/registry/src/github.com-1ecc6299db9ec823/heapless-0.5.1/src/vec.rs:23
        unsafe { slice::from_raw_parts(self.buffer.as_ptr() as *const T, self.len) }
   0:	6981      	ldr	r1, [r0, #24]
/Users/Luppy/.cargo/registry/src/github.com-1ecc6299db9ec823/heapless-0.5.1/src/vec.rs:24
    }
   2:	4770      	bx	lr

Disassembly of section .text._ZN8heapless3vec82_$LT$impl$u20$heapless..i..Vec$LT$generic_array..GenericArray$LT$T$C$N$GT$$GT$$GT$8as_slice17h8816d891cbcb4adeE:

00000000 <heapless::vec::<impl heapless::i::Vec<generic_array::GenericArray<T,N>>>::as_slice>:
_ZN8heapless3vec82_$LT$impl$u20$heapless..i..Vec$LT$generic_array..GenericArray$LT$T$C$N$GT$$GT$$GT$8as_slice17h8816d891cbcb4adeE():
/Users/Luppy/.cargo/registry/src/github.com-1ecc6299db9ec823/heapless-0.5.1/src/vec.rs:23
        unsafe { slice::from_raw_parts(self.buffer.as_ptr() as *const T, self.len) }
   0:	6c01      	ldr	r1, [r0, #64]	; 0x40
/Users/Luppy/.cargo/registry/src/github.com-1ecc6299db9ec823/heapless-0.5.1/src/vec.rs:24
    }
   2:	4770      	bx	lr

Disassembly of section .text._ZN8heapless3vec82_$LT$impl$u20$heapless..i..Vec$LT$generic_array..GenericArray$LT$T$C$N$GT$$GT$$GT$8capacity17h3fe105568d08c791E:

00000000 <heapless::vec::<impl heapless::i::Vec<generic_array::GenericArray<T,N>>>::capacity>:
_ZN8heapless3vec82_$LT$impl$u20$heapless..i..Vec$LT$generic_array..GenericArray$LT$T$C$N$GT$$GT$$GT$8capacity17h3fe105568d08c791E():
/Users/Luppy/.cargo/registry/src/github.com-1ecc6299db9ec823/heapless-0.5.1/src/vec.rs:34
    }
   0:	2008      	movs	r0, #8
   2:	4770      	bx	lr

Disassembly of section .text._ZN8heapless3vec82_$LT$impl$u20$heapless..i..Vec$LT$generic_array..GenericArray$LT$T$C$N$GT$$GT$$GT$8capacity17h41b1a58588e7b482E:

00000000 <heapless::vec::<impl heapless::i::Vec<generic_array::GenericArray<T,N>>>::capacity>:
_ZN8heapless3vec82_$LT$impl$u20$heapless..i..Vec$LT$generic_array..GenericArray$LT$T$C$N$GT$$GT$$GT$8capacity17h41b1a58588e7b482E():
/Users/Luppy/.cargo/registry/src/github.com-1ecc6299db9ec823/heapless-0.5.1/src/vec.rs:34
   0:	2002      	movs	r0, #2
   2:	4770      	bx	lr

Disassembly of section .text._ZN8heapless3vec82_$LT$impl$u20$heapless..i..Vec$LT$generic_array..GenericArray$LT$T$C$N$GT$$GT$$GT$8capacity17h8aebbd0f5b014e51E:

00000000 <heapless::vec::<impl heapless::i::Vec<generic_array::GenericArray<T,N>>>::capacity>:
_ZN8heapless3vec82_$LT$impl$u20$heapless..i..Vec$LT$generic_array..GenericArray$LT$T$C$N$GT$$GT$$GT$8capacity17h8aebbd0f5b014e51E():
/Users/Luppy/.cargo/registry/src/github.com-1ecc6299db9ec823/heapless-0.5.1/src/vec.rs:34
   0:	2002      	movs	r0, #2
   2:	4770      	bx	lr

Disassembly of section .text._ZN93_$LT$heapless..vec..Vec$LT$T$C$N$GT$$u20$as$u20$core..iter..traits..collect..IntoIterator$GT$9into_iter17h69e96b6a767e322dE:

00000000 <<heapless::vec::Vec<T,N> as core::iter::traits::collect::IntoIterator>::into_iter>:
_ZN93_$LT$heapless..vec..Vec$LT$T$C$N$GT$$u20$as$u20$core..iter..traits..collect..IntoIterator$GT$9into_iter17h69e96b6a767e322dE():
/Users/Luppy/.cargo/registry/src/github.com-1ecc6299db9ec823/heapless-0.5.1/src/vec.rs:530
    fn into_iter(self) -> Self::IntoIter {
   0:	b510      	push	{r4, lr}
/Users/Luppy/.cargo/registry/src/github.com-1ecc6299db9ec823/heapless-0.5.1/src/vec.rs:531
        IntoIter { vec: self, next: 0 }
   2:	2248      	movs	r2, #72	; 0x48
   4:	4604      	mov	r4, r0
   6:	f7ff fffe 	bl	0 <__aeabi_memcpy8>
   a:	2000      	movs	r0, #0
   c:	64a0      	str	r0, [r4, #72]	; 0x48
/Users/Luppy/.cargo/registry/src/github.com-1ecc6299db9ec823/heapless-0.5.1/src/vec.rs:532
    }
   e:	bd10      	pop	{r4, pc}

Disassembly of section .text._ZN95_$LT$druid..widget..label..LabelText$LT$T$GT$$u20$as$u20$core..convert..From$LT$$RF$str$GT$$GT$4from17h926425defb6f75d5E:

00000000 <<druid::widget::label::LabelText<T> as core::convert::From<&str>>::from>:
_ZN95_$LT$druid..widget..label..LabelText$LT$T$GT$$u20$as$u20$core..convert..From$LT$$RF$str$GT$$GT$4from17h926425defb6f75d5E():
/Users/Luppy/mynewt/druid-embedded/druid/src/widget/label.rs:247
    fn from(src: &str) -> LabelText<T> {
   0:	e92d 41f0 	stmdb	sp!, {r4, r5, r6, r7, r8, lr}
   4:	b08e      	sub	sp, #56	; 0x38
   6:	ad07      	add	r5, sp, #28
   8:	4680      	mov	r8, r0
/Users/Luppy/mynewt/druid-embedded/druid/src/widget/label.rs:248
        LabelText::Specific(String::from_str(src).expect("label text fail")) ////
   a:	4628      	mov	r0, r5
   c:	f7ff fffe 	bl	0 <<heapless::string::String<N> as core::str::FromStr>::from_str>
_ZN4core6result19Result$LT$T$C$E$GT$6expect17h7392b427d5dfecdbE():
/rustc/50a0defd5a93523067ef239936cc2e0755220904/src/libcore/result.rs:826
  10:	9807      	ldr	r0, [sp, #28]
  12:	2801      	cmp	r0, #1
  14:	bf1f      	itttt	ne
  16:	f105 0c04 	addne.w	ip, r5, #4
  1a:	f10d 0104 	addne.w	r1, sp, #4
  1e:	460a      	movne	r2, r1
  20:	e89c 00f9 	ldmiane.w	ip, {r0, r3, r4, r5, r6, r7}
  24:	bf1f      	itttt	ne
  26:	c2f9      	stmiane	r2!, {r0, r3, r4, r5, r6, r7}
_ZN95_$LT$druid..widget..label..LabelText$LT$T$GT$$u20$as$u20$core..convert..From$LT$$RF$str$GT$$GT$4from17h926425defb6f75d5E():
/Users/Luppy/mynewt/druid-embedded/druid/src/widget/label.rs:248
  28:	f108 0004 	addne.w	r0, r8, #4
  2c:	e891 00fc 	ldmiane.w	r1, {r2, r3, r4, r5, r6, r7}
  30:	c0fc      	stmiane	r0!, {r2, r3, r4, r5, r6, r7}
  32:	bf1f      	itttt	ne
  34:	2001      	movne	r0, #1
  36:	f8c8 0000 	strne.w	r0, [r8]
/Users/Luppy/mynewt/druid-embedded/druid/src/widget/label.rs:250
    }
  3a:	b00e      	addne	sp, #56	; 0x38
  3c:	e8bd 81f0 	ldmiane.w	sp!, {r4, r5, r6, r7, r8, pc}
_ZN4core6result19Result$LT$T$C$E$GT$6expect17h7392b427d5dfecdbE():
/rustc/50a0defd5a93523067ef239936cc2e0755220904/src/libcore/result.rs:827
  40:	4802      	ldr	r0, [pc, #8]	; (4c <<druid::widget::label::LabelText<T> as core::convert::From<&str>>::from+0x4c>)
  42:	210f      	movs	r1, #15
  44:	f7ff fffe 	bl	0 <core::result::unwrap_failed>
  48:	defe      	udf	#254	; 0xfe
_ZN95_$LT$druid..widget..label..LabelText$LT$T$GT$$u20$as$u20$core..convert..From$LT$$RF$str$GT$$GT$4from17h926425defb6f75d5E():
/rustc/50a0defd5a93523067ef239936cc2e0755220904/src/libcore/result.rs:827
  4a:	bf00      	nop
  4c:	00000000 	.word	0x00000000

Disassembly of section .text._ZN95_$LT$heapless..vec..IntoIter$LT$T$C$N$GT$$u20$as$u20$core..iter..traits..iterator..Iterator$GT$4next17h78d3bb3422c4c011E:

00000000 <<heapless::vec::IntoIter<T,N> as core::iter::traits::iterator::Iterator>::next>:
_ZN95_$LT$heapless..vec..IntoIter$LT$T$C$N$GT$$u20$as$u20$core..iter..traits..iterator..Iterator$GT$4next17h78d3bb3422c4c011E():
/Users/Luppy/.cargo/registry/src/github.com-1ecc6299db9ec823/heapless-0.5.1/src/vec.rs:481
    fn next(&mut self) -> Option<Self::Item> {
   0:	b570      	push	{r4, r5, r6, lr}
   2:	4604      	mov	r4, r0
_ZN8heapless3vec82_$LT$impl$u20$heapless..i..Vec$LT$generic_array..GenericArray$LT$T$C$N$GT$$GT$$GT$8as_slice17h8816d891cbcb4adeE():
/Users/Luppy/.cargo/registry/src/github.com-1ecc6299db9ec823/heapless-0.5.1/src/vec.rs:23
        unsafe { slice::from_raw_parts(self.buffer.as_ptr() as *const T, self.len) }
   4:	6c08      	ldr	r0, [r1, #64]	; 0x40
_ZN95_$LT$heapless..vec..IntoIter$LT$T$C$N$GT$$u20$as$u20$core..iter..traits..iterator..Iterator$GT$4next17h78d3bb3422c4c011E():
/Users/Luppy/.cargo/registry/src/github.com-1ecc6299db9ec823/heapless-0.5.1/src/vec.rs:482
        if self.next < self.vec.len() {
   6:	6c8e      	ldr	r6, [r1, #72]	; 0x48
   8:	4286      	cmp	r6, r0
   a:	d209      	bcs.n	20 <<heapless::vec::IntoIter<T,N> as core::iter::traits::iterator::Iterator>::next+0x20>
   c:	460d      	mov	r5, r1
_ZN4core10intrinsics19copy_nonoverlapping17h4bb5fa5fc6e0b63bE():
/rustc/50a0defd5a93523067ef239936cc2e0755220904/src/libcore/intrinsics.rs:1412
   e:	eb01 1146 	add.w	r1, r1, r6, lsl #5
_ZN4core3ptr4read17h7c37c4bb425ef446E():
/rustc/50a0defd5a93523067ef239936cc2e0755220904/src/libcore/ptr.rs:575
  12:	4620      	mov	r0, r4
  14:	2220      	movs	r2, #32
  16:	f7ff fffe 	bl	0 <__aeabi_memcpy>
_ZN95_$LT$heapless..vec..IntoIter$LT$T$C$N$GT$$u20$as$u20$core..iter..traits..iterator..Iterator$GT$4next17h78d3bb3422c4c011E():
/Users/Luppy/.cargo/registry/src/github.com-1ecc6299db9ec823/heapless-0.5.1/src/vec.rs:488
            self.next += 1;
  1a:	1c70      	adds	r0, r6, #1
  1c:	64a8      	str	r0, [r5, #72]	; 0x48
/Users/Luppy/.cargo/registry/src/github.com-1ecc6299db9ec823/heapless-0.5.1/src/vec.rs:493
    }
  1e:	bd70      	pop	{r4, r5, r6, pc}
  20:	f104 0008 	add.w	r0, r4, #8
/Users/Luppy/.cargo/registry/src/github.com-1ecc6299db9ec823/heapless-0.5.1/src/vec.rs:491
            None
  24:	2118      	movs	r1, #24
  26:	f7ff fffe 	bl	0 <__aeabi_memclr8>
  2a:	2000      	movs	r0, #0
  2c:	2102      	movs	r1, #2
  2e:	e9c4 1000 	strd	r1, r0, [r4]
/Users/Luppy/.cargo/registry/src/github.com-1ecc6299db9ec823/heapless-0.5.1/src/vec.rs:493
    }
  32:	bd70      	pop	{r4, r5, r6, pc}

Disassembly of section .text._ZN3app11app_network21aggregate_sensor_data17h9b78c5e16db97c27E:

00000000 <app::app_network::aggregate_sensor_data>:
_ZN3app11app_network21aggregate_sensor_data17h9b78c5e16db97c27E():
/Users/Luppy/mynewt/stm32bluepill-mynewt-sensor/rust/app/src/app_network.rs:59
        send_sensor_data(&transmit_value)
    }
}

#[cfg(not(feature = "use_float"))]  //  If floating-point and geolocation are disabled, send sensor data without geolocation
pub fn aggregate_sensor_data(sensor_value: &SensorValue) -> MynewtResult<()>  {  //  Returns an error code upon error.
   0:	e92d 4ff0 	stmdb	sp!, {r4, r5, r6, r7, r8, r9, sl, fp, lr}
   4:	b093      	sub	sp, #76	; 0x4c
   6:	4604      	mov	r4, r0
_ZN3app11app_network16send_sensor_data17hef289fead77ae2a3E():
/Users/Luppy/mynewt/stm32bluepill-mynewt-sensor/rust/app/src/app_network.rs:76
///   {"key":"t",      "value":1715, "geo": { "lat": ..., "long": ... }},
///   {"key":"device", "value":"0102030405060708090a0b0c0d0e0f10"}
/// ]}
/// ```
fn send_sensor_data(val: &SensorValue) -> MynewtResult<()>  {  //  Returns an error code upon error.
    console::print("Rust send_sensor_data: ");
   8:	4888      	ldr	r0, [pc, #544]	; (22c <app::app_network::aggregate_sensor_data+0x22c>)
   a:	2117      	movs	r1, #23
   c:	f7ff fffe 	bl	0 <mynewt::sys::console::print>
/Users/Luppy/mynewt/stm32bluepill-mynewt-sensor/rust/app/src/app_network.rs:77
    if let SensorValueType::Uint(i) = val.value {
  10:	6867      	ldr	r7, [r4, #4]
  12:	2f01      	cmp	r7, #1
  14:	d10a      	bne.n	2c <app::app_network::aggregate_sensor_data+0x2c>
/Users/Luppy/mynewt/stm32bluepill-mynewt-sensor/rust/app/src/app_network.rs:78
        console::print_strn(val.key);
  16:	6820      	ldr	r0, [r4, #0]
/Users/Luppy/mynewt/stm32bluepill-mynewt-sensor/rust/app/src/app_network.rs:77
    if let SensorValueType::Uint(i) = val.value {
  18:	68a5      	ldr	r5, [r4, #8]
/Users/Luppy/mynewt/stm32bluepill-mynewt-sensor/rust/app/src/app_network.rs:78
        console::print_strn(val.key);
  1a:	f7ff fffe 	bl	0 <mynewt::sys::console::print_strn>
/Users/Luppy/mynewt/stm32bluepill-mynewt-sensor/rust/app/src/app_network.rs:79
        console::print("=");
  1e:	4884      	ldr	r0, [pc, #528]	; (230 <app::app_network::aggregate_sensor_data+0x230>)
  20:	2101      	movs	r1, #1
  22:	f7ff fffe 	bl	0 <mynewt::sys::console::print>
/Users/Luppy/mynewt/stm32bluepill-mynewt-sensor/rust/app/src/app_network.rs:80
        console::printint(i as i32);
  26:	4628      	mov	r0, r5
  28:	f7ff fffe 	bl	0 <mynewt::sys::console::printint>
/Users/Luppy/mynewt/stm32bluepill-mynewt-sensor/rust/app/src/app_network.rs:82
    }
    console::print("\n");
  2c:	4881      	ldr	r0, [pc, #516]	; (234 <app::app_network::aggregate_sensor_data+0x234>)
  2e:	2101      	movs	r1, #1
  30:	f7ff fffe 	bl	0 <mynewt::sys::console::print>
/Users/Luppy/mynewt/stm32bluepill-mynewt-sensor/rust/app/src/app_network.rs:83
    console::flush(); ////
  34:	f7ff fffe 	bl	0 <mynewt::sys::console::flush>
  38:	a808      	add	r0, sp, #32
/Users/Luppy/mynewt/stm32bluepill-mynewt-sensor/rust/app/src/app_network.rs:86

    //  Get a randomly-generated device ID that changes each time we restart the device.
    let device_id = sensor_network::get_device_id() ? ;
  3a:	f7ff fffe 	bl	0 <mynewt::libs::sensor_network::get_device_id>
_ZN73_$LT$core..result..Result$LT$T$C$E$GT$$u20$as$u20$core..ops..try..Try$GT$11into_result17h4dc56e65709da0abE():
/rustc/50a0defd5a93523067ef239936cc2e0755220904/src/libcore/result.rs:1283
  3e:	e9dd 1008 	ldrd	r1, r0, [sp, #32]
_ZN3app11app_network16send_sensor_data17hef289fead77ae2a3E():
/Users/Luppy/mynewt/stm32bluepill-mynewt-sensor/rust/app/src/app_network.rs:86
  42:	2901      	cmp	r1, #1
  44:	f000 80de 	beq.w	204 <app::app_network::aggregate_sensor_data+0x204>
  48:	ad08      	add	r5, sp, #32
/Users/Luppy/mynewt/stm32bluepill-mynewt-sensor/rust/app/src/app_network.rs:91

    //  Start composing the CoAP Server message with the sensor data in the payload.  This will 
    //  block other tasks from composing and posting CoAP messages (through a semaphore).
    //  We only have 1 memory buffer for composing CoAP messages so it needs to be locked.
    let rc = sensor_network::init_server_post( strn!(()) ) ? ;  //  `strn!(())` means use default CoAP URI in `syscfg.yml`
  4a:	497b      	ldr	r1, [pc, #492]	; (238 <app::app_network::aggregate_sensor_data+0x238>)
  4c:	e9dd 230a 	ldrd	r2, r3, [sp, #40]	; 0x28
/Users/Luppy/mynewt/stm32bluepill-mynewt-sensor/rust/app/src/app_network.rs:86
    let device_id = sensor_network::get_device_id() ? ;
  50:	f10d 0c14 	add.w	ip, sp, #20
  54:	e8ac 000d 	stmia.w	ip!, {r0, r2, r3}
/Users/Luppy/mynewt/stm32bluepill-mynewt-sensor/rust/app/src/app_network.rs:91
    let rc = sensor_network::init_server_post( strn!(()) ) ? ;  //  `strn!(())` means use default CoAP URI in `syscfg.yml`
  58:	4628      	mov	r0, r5
  5a:	2201      	movs	r2, #1
  5c:	f7ff fffe 	bl	0 <mynewt::Strn::new>
  60:	a810      	add	r0, sp, #64	; 0x40
  62:	4629      	mov	r1, r5
  64:	f7ff fffe 	bl	0 <mynewt::libs::sensor_network::init_server_post>
_ZN73_$LT$core..result..Result$LT$T$C$E$GT$$u20$as$u20$core..ops..try..Try$GT$11into_result17h19afe43c85853878E():
/rustc/50a0defd5a93523067ef239936cc2e0755220904/src/libcore/result.rs:1283
  68:	9810      	ldr	r0, [sp, #64]	; 0x40
  6a:	b2c1      	uxtb	r1, r0
_ZN3app11app_network16send_sensor_data17hef289fead77ae2a3E():
/Users/Luppy/mynewt/stm32bluepill-mynewt-sensor/rust/app/src/app_network.rs:91
  6c:	2901      	cmp	r1, #1
  6e:	d101      	bne.n	74 <app::app_network::aggregate_sensor_data+0x74>
  70:	9811      	ldr	r0, [sp, #68]	; 0x44
  72:	e0c7      	b.n	204 <app::app_network::aggregate_sensor_data+0x204>
/Users/Luppy/mynewt/stm32bluepill-mynewt-sensor/rust/app/src/app_network.rs:94

    //  If network transport not ready, tell caller (Sensor Listener) to try again later.
    if !rc { return Err(MynewtError::SYS_EAGAIN); }
  74:	f410 4f7f 	tst.w	r0, #65280	; 0xff00
  78:	d07c      	beq.n	174 <app::app_network::aggregate_sensor_data+0x174>
  7a:	a808      	add	r0, sp, #32
/Users/Luppy/mynewt/stm32bluepill-mynewt-sensor/rust/app/src/app_network.rs:98

    //  Compose the CoAP Payload using the coap!() macro.
    //  Select @json or @cbor To encode CoAP Payload in JSON or CBOR format.
    let _payload = coap!( @json {        
  7c:	2132      	movs	r1, #50	; 0x32
  7e:	f7ff fffe 	bl	0 <mynewt::libs::sensor_network::prepare_post>
_ZN73_$LT$core..result..Result$LT$T$C$E$GT$$u20$as$u20$core..ops..try..Try$GT$11into_result17h19afe43c85853878E():
/rustc/50a0defd5a93523067ef239936cc2e0755220904/src/libcore/result.rs:1283
  82:	9808      	ldr	r0, [sp, #32]
  84:	b2c0      	uxtb	r0, r0
_ZN3app11app_network16send_sensor_data17hef289fead77ae2a3E():
/Users/Luppy/mynewt/stm32bluepill-mynewt-sensor/rust/app/src/app_network.rs:98
  86:	2801      	cmp	r0, #1
  88:	f000 80bb 	beq.w	202 <app::app_network::aggregate_sensor_data+0x202>
  8c:	f7ff fffe 	bl	0 <json_rep_start_root_object>
  90:	4d6a      	ldr	r5, [pc, #424]	; (23c <app::app_network::aggregate_sensor_data+0x23c>)
  92:	4628      	mov	r0, r5
  94:	f7ff fffe 	bl	0 <mynewt::encoding::coap_context::CoapContext::to_void_ptr>
  98:	4969      	ldr	r1, [pc, #420]	; (240 <app::app_network::aggregate_sensor_data+0x240>)
  9a:	4606      	mov	r6, r0
  9c:	4628      	mov	r0, r5
  9e:	2207      	movs	r2, #7
  a0:	f7ff fffe 	bl	0 <mynewt::encoding::coap_context::CoapContext::key_to_cstr>
  a4:	4601      	mov	r1, r0
  a6:	4630      	mov	r0, r6
  a8:	f7ff fffe 	bl	0 <json_helper_set_array>
  ac:	2f00      	cmp	r7, #0
  ae:	d064      	beq.n	17a <app::app_network::aggregate_sensor_data+0x17a>
  b0:	e9d4 9002 	ldrd	r9, r0, [r4, #8]
  b4:	220d      	movs	r2, #13
  b6:	f8df a184 	ldr.w	sl, [pc, #388]	; 23c <app::app_network::aggregate_sensor_data+0x23c>
  ba:	4962      	ldr	r1, [pc, #392]	; (244 <app::app_network::aggregate_sensor_data+0x244>)
  bc:	f8df 8188 	ldr.w	r8, [pc, #392]	; 248 <app::app_network::aggregate_sensor_data+0x248>
  c0:	9004      	str	r0, [sp, #16]
  c2:	6920      	ldr	r0, [r4, #16]
  c4:	9003      	str	r0, [sp, #12]
  c6:	4650      	mov	r0, sl
  c8:	47c0      	blx	r8
  ca:	f7ff fffe 	bl	0 <json_helper_object_array_start_item>
  ce:	485f      	ldr	r0, [pc, #380]	; (24c <app::app_network::aggregate_sensor_data+0x24c>)
  d0:	2103      	movs	r1, #3
  d2:	f7ff fffe 	bl	0 <<str as mynewt::encoding::coap_context::ToBytesOptionalNull>::to_bytes_optional_nul>
  d6:	4606      	mov	r6, r0
  d8:	6820      	ldr	r0, [r4, #0]
  da:	460f      	mov	r7, r1
  dc:	f7ff fffe 	bl	0 <<mynewt::Strn as mynewt::encoding::coap_context::ToBytesOptionalNull>::to_bytes_optional_nul>
  e0:	4604      	mov	r4, r0
  e2:	4650      	mov	r0, sl
  e4:	460d      	mov	r5, r1
  e6:	f7ff fffe 	bl	0 <mynewt::encoding::coap_context::CoapContext::to_void_ptr>
  ea:	4683      	mov	fp, r0
  ec:	4650      	mov	r0, sl
  ee:	4631      	mov	r1, r6
  f0:	463a      	mov	r2, r7
  f2:	47c0      	blx	r8
  f4:	4606      	mov	r6, r0
  f6:	4650      	mov	r0, sl
  f8:	4621      	mov	r1, r4
  fa:	462a      	mov	r2, r5
  fc:	f7ff fffe 	bl	0 <mynewt::encoding::coap_context::CoapContext::value_to_cstr>
 100:	4602      	mov	r2, r0
 102:	4658      	mov	r0, fp
 104:	4631      	mov	r1, r6
 106:	f7ff fffe 	bl	0 <json_helper_set_text_string>
 10a:	4851      	ldr	r0, [pc, #324]	; (250 <app::app_network::aggregate_sensor_data+0x250>)
 10c:	2105      	movs	r1, #5
 10e:	f7ff fffe 	bl	0 <<str as mynewt::encoding::coap_context::ToBytesOptionalNull>::to_bytes_optional_nul>
 112:	4604      	mov	r4, r0
 114:	4650      	mov	r0, sl
 116:	460d      	mov	r5, r1
 118:	f7ff fffe 	bl	0 <mynewt::encoding::coap_context::CoapContext::to_void_ptr>
 11c:	4606      	mov	r6, r0
 11e:	4650      	mov	r0, sl
 120:	4621      	mov	r1, r4
 122:	462a      	mov	r2, r5
 124:	47c0      	blx	r8
 126:	4601      	mov	r1, r0
 128:	4630      	mov	r0, r6
 12a:	464a      	mov	r2, r9
 12c:	2300      	movs	r3, #0
 12e:	f7ff fffe 	bl	0 <json_helper_set_int>
 132:	ac0d      	add	r4, sp, #52	; 0x34
 134:	4947      	ldr	r1, [pc, #284]	; (254 <app::app_network::aggregate_sensor_data+0x254>)
 136:	4f48      	ldr	r7, [pc, #288]	; (258 <app::app_network::aggregate_sensor_data+0x258>)
 138:	2204      	movs	r2, #4
 13a:	4620      	mov	r0, r4
 13c:	47b8      	blx	r7
 13e:	ad10      	add	r5, sp, #64	; 0x40
 140:	4946      	ldr	r1, [pc, #280]	; (25c <app::app_network::aggregate_sensor_data+0x25c>)
 142:	2204      	movs	r2, #4
 144:	4628      	mov	r0, r5
 146:	47b8      	blx	r7
 148:	ae08      	add	r6, sp, #32
 14a:	4945      	ldr	r1, [pc, #276]	; (260 <app::app_network::aggregate_sensor_data+0x260>)
 14c:	2205      	movs	r2, #5
 14e:	4630      	mov	r0, r6
 150:	47b8      	blx	r7
 152:	9804      	ldr	r0, [sp, #16]
 154:	4621      	mov	r1, r4
 156:	9000      	str	r0, [sp, #0]
 158:	462a      	mov	r2, r5
 15a:	9803      	ldr	r0, [sp, #12]
 15c:	4633      	mov	r3, r6
 15e:	9001      	str	r0, [sp, #4]
 160:	4650      	mov	r0, sl
 162:	f7ff fffe 	bl	0 <mynewt::encoding::coap_context::CoapContext::json_set_geolocation>
 166:	4937      	ldr	r1, [pc, #220]	; (244 <app::app_network::aggregate_sensor_data+0x244>)
 168:	4650      	mov	r0, sl
 16a:	220d      	movs	r2, #13
 16c:	47c0      	blx	r8
 16e:	f7ff fffe 	bl	0 <json_helper_object_array_end_item>
 172:	e006      	b.n	182 <app::app_network::aggregate_sensor_data+0x182>
 174:	f06f 0405 	mvn.w	r4, #5
 178:	e047      	b.n	20a <app::app_network::aggregate_sensor_data+0x20a>
 17a:	4830      	ldr	r0, [pc, #192]	; (23c <app::app_network::aggregate_sensor_data+0x23c>)
 17c:	2101      	movs	r1, #1
 17e:	f7ff fffe 	bl	0 <mynewt::encoding::coap_context::CoapContext::fail>
 182:	4c2e      	ldr	r4, [pc, #184]	; (23c <app::app_network::aggregate_sensor_data+0x23c>)
 184:	220d      	movs	r2, #13
 186:	f8df 90bc 	ldr.w	r9, [pc, #188]	; 244 <app::app_network::aggregate_sensor_data+0x244>
 18a:	f8df 80bc 	ldr.w	r8, [pc, #188]	; 248 <app::app_network::aggregate_sensor_data+0x248>
 18e:	4620      	mov	r0, r4
 190:	4649      	mov	r1, r9
 192:	47c0      	blx	r8
 194:	f7ff fffe 	bl	0 <json_helper_object_array_start_item>
 198:	ae10      	add	r6, sp, #64	; 0x40
 19a:	4932      	ldr	r1, [pc, #200]	; (264 <app::app_network::aggregate_sensor_data+0x264>)
 19c:	4d2e      	ldr	r5, [pc, #184]	; (258 <app::app_network::aggregate_sensor_data+0x258>)
 19e:	2204      	movs	r2, #4
 1a0:	4630      	mov	r0, r6
 1a2:	47a8      	blx	r5
 1a4:	af08      	add	r7, sp, #32
 1a6:	4930      	ldr	r1, [pc, #192]	; (268 <app::app_network::aggregate_sensor_data+0x268>)
 1a8:	2207      	movs	r2, #7
 1aa:	4638      	mov	r0, r7
 1ac:	47a8      	blx	r5
 1ae:	4620      	mov	r0, r4
 1b0:	4631      	mov	r1, r6
 1b2:	463a      	mov	r2, r7
 1b4:	f7ff fffe 	bl	0 <mynewt::encoding::coap_context::CoapContext::json_set_text_string>
 1b8:	ae08      	add	r6, sp, #32
 1ba:	492c      	ldr	r1, [pc, #176]	; (26c <app::app_network::aggregate_sensor_data+0x26c>)
 1bc:	2206      	movs	r2, #6
 1be:	4630      	mov	r0, r6
 1c0:	47a8      	blx	r5
 1c2:	aa05      	add	r2, sp, #20
 1c4:	4620      	mov	r0, r4
 1c6:	4631      	mov	r1, r6
 1c8:	f7ff fffe 	bl	0 <mynewt::encoding::coap_context::CoapContext::json_set_text_string>
 1cc:	4620      	mov	r0, r4
 1ce:	4649      	mov	r1, r9
 1d0:	220d      	movs	r2, #13
 1d2:	47c0      	blx	r8
 1d4:	f7ff fffe 	bl	0 <json_helper_object_array_end_item>
 1d8:	4620      	mov	r0, r4
 1da:	f7ff fffe 	bl	0 <mynewt::encoding::coap_context::CoapContext::to_void_ptr>
 1de:	4918      	ldr	r1, [pc, #96]	; (240 <app::app_network::aggregate_sensor_data+0x240>)
 1e0:	4605      	mov	r5, r0
 1e2:	4620      	mov	r0, r4
 1e4:	2207      	movs	r2, #7
 1e6:	47c0      	blx	r8
 1e8:	4601      	mov	r1, r0
 1ea:	4628      	mov	r0, r5
 1ec:	f7ff fffe 	bl	0 <json_helper_close_array>
 1f0:	f7ff fffe 	bl	0 <json_rep_end_root_object>
 1f4:	a808      	add	r0, sp, #32
/Users/Luppy/mynewt/stm32bluepill-mynewt-sensor/rust/app/src/app_network.rs:113
    });

    //  Post the CoAP Server message to the CoAP Background Task for transmission.  After posting the
    //  message to the background task, we release a semaphore that unblocks other requests
    //  to compose and post CoAP messages.
    sensor_network::do_server_post() ? ;
 1f6:	f7ff fffe 	bl	0 <mynewt::libs::sensor_network::do_server_post>
_ZN73_$LT$core..result..Result$LT$T$C$E$GT$$u20$as$u20$core..ops..try..Try$GT$11into_result17h19afe43c85853878E():
/rustc/50a0defd5a93523067ef239936cc2e0755220904/src/libcore/result.rs:1283
 1fa:	9808      	ldr	r0, [sp, #32]
 1fc:	b2c0      	uxtb	r0, r0
_ZN3app11app_network16send_sensor_data17hef289fead77ae2a3E():
/Users/Luppy/mynewt/stm32bluepill-mynewt-sensor/rust/app/src/app_network.rs:113
 1fe:	2801      	cmp	r0, #1
 200:	d107      	bne.n	212 <app::app_network::aggregate_sensor_data+0x212>
 202:	9809      	ldr	r0, [sp, #36]	; 0x24
 204:	f7ff fffe 	bl	0 <<T as core::convert::From<T>>::from>
 208:	4604      	mov	r4, r0
_ZN3app11app_network21aggregate_sensor_data17h9b78c5e16db97c27E():
/Users/Luppy/mynewt/stm32bluepill-mynewt-sensor/rust/app/src/app_network.rs:62
}
 20a:	4620      	mov	r0, r4
 20c:	b013      	add	sp, #76	; 0x4c
 20e:	e8bd 8ff0 	ldmia.w	sp!, {r4, r5, r6, r7, r8, r9, sl, fp, pc}
_ZN3app11app_network16send_sensor_data17hef289fead77ae2a3E():
/Users/Luppy/mynewt/stm32bluepill-mynewt-sensor/rust/app/src/app_network.rs:116

    //  Display the URL with the random device ID for viewing the sensor data.
    console::print("NET view your sensor at \nhttps://blue-pill-geolocate.appspot.com?device=");
 212:	4817      	ldr	r0, [pc, #92]	; (270 <app::app_network::aggregate_sensor_data+0x270>)
 214:	2148      	movs	r1, #72	; 0x48
 216:	f7ff fffe 	bl	0 <mynewt::sys::console::print>
 21a:	a805      	add	r0, sp, #20
/Users/Luppy/mynewt/stm32bluepill-mynewt-sensor/rust/app/src/app_network.rs:117
    console::print_strn(&device_id); console::print("\n");
 21c:	f7ff fffe 	bl	0 <mynewt::sys::console::print_strn>
 220:	4804      	ldr	r0, [pc, #16]	; (234 <app::app_network::aggregate_sensor_data+0x234>)
 222:	2101      	movs	r1, #1
 224:	2401      	movs	r4, #1
 226:	f7ff fffe 	bl	0 <mynewt::sys::console::print>
 22a:	e7ee      	b.n	ffffffe0 <.Lanon.73ec4dbdc3e34bf5216e860e6e103950.71+0xffffffb0>
	...

Disassembly of section .text._ZN3app12touch_sensor23touch_interrupt_handler17hdf0c4c6e984bd2f4E:

00000000 <app::touch_sensor::touch_interrupt_handler>:
_ZN3app12touch_sensor23touch_interrupt_handler17hdf0c4c6e984bd2f4E():
/Users/Luppy/mynewt/stm32bluepill-mynewt-sensor/rust/app/src/touch_sensor.rs:71
    unsafe { hal::hal_gpio_irq_enable(TOUCH_INTERRUPT_PIN) };
    Ok(())
}

/// Interrupt handler for the touch controller, triggered when a touch is detected
extern "C" fn touch_interrupt_handler(arg: *mut core::ffi::c_void) {
   0:	b5bc      	push	{r2, r3, r4, r5, r7, lr}
/Users/Luppy/mynewt/stm32bluepill-mynewt-sensor/rust/app/src/touch_sensor.rs:73
    //  We forward a touch event to the Default Event Queue for deferred processing.  Don't do any processing here.
    unsafe { TOUCH_EVENT.ev_arg = arg };
   2:	4c07      	ldr	r4, [pc, #28]	; (20 <app::touch_sensor::touch_interrupt_handler+0x20>)
   4:	466d      	mov	r5, sp
   6:	60a0      	str	r0, [r4, #8]
/Users/Luppy/mynewt/stm32bluepill-mynewt-sensor/rust/app/src/touch_sensor.rs:75
    //  Fetch the Default Event Queue. TODO: Use dedicated Event Queue for higher priority processing.
    let queue = os::eventq_dflt_get()
   8:	4628      	mov	r0, r5
   a:	f7ff fffe 	bl	0 <mynewt::kernel::os::eventq_dflt_get>
   e:	4628      	mov	r0, r5
  10:	f7ff fffe 	bl	0 <app::touch_sensor::touch_interrupt_handler>
/Users/Luppy/mynewt/stm32bluepill-mynewt-sensor/rust/app/src/touch_sensor.rs:77
        .expect("GET fail");
	unsafe { os::os_eventq_put(queue, &mut TOUCH_EVENT) };  //  Trigger the callback function `touch_event_callback()`
  14:	4621      	mov	r1, r4
  16:	e8bd 40bc 	ldmia.w	sp!, {r2, r3, r4, r5, r7, lr}
  1a:	f7ff bffe 	b.w	0 <os_eventq_put>
  1e:	bf00      	nop
  20:	00000000 	.word	0x00000000

Disassembly of section .text._ZN3app12touch_sensor20touch_event_callback17h0fffc1defec7edc2E:

00000000 <app::touch_sensor::touch_event_callback>:
_ZN3app12touch_sensor20touch_event_callback17h0fffc1defec7edc2E():
/Users/Luppy/mynewt/stm32bluepill-mynewt-sensor/rust/app/src/touch_sensor.rs:81
}

/// Callback for the touch event that is triggered when a touch is detected
extern "C" fn touch_event_callback(_event: *mut os_event) {
   0:	e92d 4ff8 	stmdb	sp!, {r3, r4, r5, r6, r7, r8, r9, sl, fp, lr}
_ZN3app12touch_sensor19read_register_range17hf3cbe2545d75b964E():
/Users/Luppy/mynewt/stm32bluepill-mynewt-sensor/rust/app/src/touch_sensor.rs:219
    //    Send the Start Condition (High to Low SDA Transition)...
    //    Followed by I2C Address (7 bits)...
    //    Followed by Write Mode (1 bit, value 0)...
    //    Followed by starting Register Number (8 bits)
    unsafe { 
        I2C_BUFFER[0] = start_register;  //  I2C Packet buffer contains starting Register Number (1 byte)
   4:	f8df b158 	ldr.w	fp, [pc, #344]	; 160 <app::touch_sensor::touch_event_callback+0x160>
   8:	2001      	movs	r0, #1
   a:	2600      	movs	r6, #0
   c:	2515      	movs	r5, #21
/Users/Luppy/mynewt/stm32bluepill-mynewt-sensor/rust/app/src/touch_sensor.rs:224
        I2C_DATA.address = addr;         //  I2C Packet address (7 bits)
        I2C_DATA.len = I2C_BUFFER.len() as u16;     //  I2C Packet data size is 1 byte
        I2C_DATA.buffer = I2C_BUFFER.as_mut_ptr();  //  I2C Packet data points to packet buffer
    };
    let _rc1 = unsafe { hal::hal_i2c_master_write(1, &mut I2C_DATA, 1000, 0) };  //  No stop yet, must continue even if we hit an error
   e:	f44f 727a 	mov.w	r2, #1000	; 0x3e8
  12:	2300      	movs	r3, #0
/Users/Luppy/mynewt/stm32bluepill-mynewt-sensor/rust/app/src/touch_sensor.rs:220
        I2C_DATA.address = addr;         //  I2C Packet address (7 bits)
  14:	465c      	mov	r4, fp
/Users/Luppy/mynewt/stm32bluepill-mynewt-sensor/rust/app/src/touch_sensor.rs:221
        I2C_DATA.len = I2C_BUFFER.len() as u16;     //  I2C Packet data size is 1 byte
  16:	f8ab 000a 	strh.w	r0, [fp, #10]
/Users/Luppy/mynewt/stm32bluepill-mynewt-sensor/rust/app/src/touch_sensor.rs:219
        I2C_BUFFER[0] = start_register;  //  I2C Packet buffer contains starting Register Number (1 byte)
  1a:	f88b 6000 	strb.w	r6, [fp]
/Users/Luppy/mynewt/stm32bluepill-mynewt-sensor/rust/app/src/touch_sensor.rs:224
    let _rc1 = unsafe { hal::hal_i2c_master_write(1, &mut I2C_DATA, 1000, 0) };  //  No stop yet, must continue even if we hit an error
  1e:	2001      	movs	r0, #1
/Users/Luppy/mynewt/stm32bluepill-mynewt-sensor/rust/app/src/touch_sensor.rs:222
        I2C_DATA.buffer = I2C_BUFFER.as_mut_ptr();  //  I2C Packet data points to packet buffer
  20:	f8cb b00c 	str.w	fp, [fp, #12]
/Users/Luppy/mynewt/stm32bluepill-mynewt-sensor/rust/app/src/touch_sensor.rs:220
        I2C_DATA.address = addr;         //  I2C Packet address (7 bits)
  24:	f804 5f08 	strb.w	r5, [r4, #8]!
/Users/Luppy/mynewt/stm32bluepill-mynewt-sensor/rust/app/src/touch_sensor.rs:224
    let _rc1 = unsafe { hal::hal_i2c_master_write(1, &mut I2C_DATA, 1000, 0) };  //  No stop yet, must continue even if we hit an error
  28:	4621      	mov	r1, r4
  2a:	f7ff fffe 	bl	0 <hal_i2c_master_write>
  2e:	203f      	movs	r0, #63	; 0x3f
/Users/Luppy/mynewt/stm32bluepill-mynewt-sensor/rust/app/src/touch_sensor.rs:233
    //    Followed by Read Mode (1 bit, value 1)
    unsafe { 
        I2C_BUFFER[0] = 0x00;     //  I2C Packet buffer should be empty (provided by caller)
        I2C_DATA.address = addr;  //  I2C Packet address (7 bits)
        I2C_DATA.len = num_registers as u16;    //  I2C Packet data size is number of Registers to read
        I2C_DATA.buffer = buffer.as_mut_ptr();  //  I2C Packet data points to packet buffer
  30:	f10b 0a10 	add.w	sl, fp, #16
  34:	f8cb a00c 	str.w	sl, [fp, #12]
/Users/Luppy/mynewt/stm32bluepill-mynewt-sensor/rust/app/src/touch_sensor.rs:237
    };
    //  Step 4: Receive the requested number of Register values from I2C Device (1 byte per register)
    //  Step 5: Send the Stop Condition (Low to High SDA Transition)
    let rc2 = unsafe { hal::hal_i2c_master_read(1, &mut I2C_DATA, 1000, 1) };
  38:	4621      	mov	r1, r4
/Users/Luppy/mynewt/stm32bluepill-mynewt-sensor/rust/app/src/touch_sensor.rs:232
        I2C_DATA.len = num_registers as u16;    //  I2C Packet data size is number of Registers to read
  3a:	f8ab 000a 	strh.w	r0, [fp, #10]
/Users/Luppy/mynewt/stm32bluepill-mynewt-sensor/rust/app/src/touch_sensor.rs:237
    let rc2 = unsafe { hal::hal_i2c_master_read(1, &mut I2C_DATA, 1000, 1) };
  3e:	2001      	movs	r0, #1
  40:	f44f 727a 	mov.w	r2, #1000	; 0x3e8
  44:	2301      	movs	r3, #1
/Users/Luppy/mynewt/stm32bluepill-mynewt-sensor/rust/app/src/touch_sensor.rs:231
        I2C_DATA.address = addr;  //  I2C Packet address (7 bits)
  46:	7025      	strb	r5, [r4, #0]
/Users/Luppy/mynewt/stm32bluepill-mynewt-sensor/rust/app/src/touch_sensor.rs:230
        I2C_BUFFER[0] = 0x00;     //  I2C Packet buffer should be empty (provided by caller)
  48:	f88b 6000 	strb.w	r6, [fp]
/Users/Luppy/mynewt/stm32bluepill-mynewt-sensor/rust/app/src/touch_sensor.rs:237
    let rc2 = unsafe { hal::hal_i2c_master_read(1, &mut I2C_DATA, 1000, 1) };
  4c:	f7ff fffe 	bl	0 <hal_i2c_master_read>
/Users/Luppy/mynewt/stm32bluepill-mynewt-sensor/rust/app/src/touch_sensor.rs:238
    if rc2 == hal::HAL_I2C_ERR_ADDR_NACK as i32 {
  50:	2804      	cmp	r0, #4
  52:	f000 8081 	beq.w	158 <app::touch_sensor::touch_event_callback+0x158>
_ZN3app12touch_sensor14read_touchdata17hf1c5dd7d813722deE():
/Users/Luppy/mynewt/stm32bluepill-mynewt-sensor/rust/app/src/touch_sensor.rs:111
    *data = fill_zero!(TouchEventInfo);
  56:	4c43      	ldr	r4, [pc, #268]	; (164 <app::touch_sensor::touch_event_callback+0x164>)
  58:	2150      	movs	r1, #80	; 0x50
  5a:	4620      	mov	r0, r4
  5c:	f7ff fffe 	bl	0 <__aeabi_memclr4>
/Users/Luppy/mynewt/stm32bluepill-mynewt-sensor/rust/app/src/touch_sensor.rs:112
    data.point_num = unsafe { buf[FT_TOUCH_POINT_NUM] & 0x0F };
  60:	f89b 0012 	ldrb.w	r0, [fp, #18]
/Users/Luppy/mynewt/stm32bluepill-mynewt-sensor/rust/app/src/touch_sensor.rs:116
    for i in 0..CFG_MAX_TOUCH_POINTS {
  64:	2105      	movs	r1, #5
/Users/Luppy/mynewt/stm32bluepill-mynewt-sensor/rust/app/src/touch_sensor.rs:113
    data.count     = 0;
  66:	f884 6050 	strb.w	r6, [r4, #80]	; 0x50
  6a:	f04f 0905 	mov.w	r9, #5
/Users/Luppy/mynewt/stm32bluepill-mynewt-sensor/rust/app/src/touch_sensor.rs:112
    data.point_num = unsafe { buf[FT_TOUCH_POINT_NUM] & 0x0F };
  6e:	f000 000f 	and.w	r0, r0, #15
  72:	f884 0051 	strb.w	r0, [r4, #81]	; 0x51
/Users/Luppy/mynewt/stm32bluepill-mynewt-sensor/rust/app/src/touch_sensor.rs:116
    for i in 0..CFG_MAX_TOUCH_POINTS {
  76:	2000      	movs	r0, #0
  78:	f7ff fffe 	bl	0 <<I as core::iter::traits::collect::IntoIterator>::into_iter>
  7c:	4606      	mov	r6, r0
  7e:	4688      	mov	r8, r1
_ZN4core4iter5range101_$LT$impl$u20$core..iter..traits..iterator..Iterator$u20$for$u20$core..ops..range..Range$LT$A$GT$$GT$4next17hc2f5678f9b19e13dE():
/rustc/50a0defd5a93523067ef239936cc2e0755220904/src/libcore/iter/range.rs:171
  80:	4546      	cmp	r6, r8
  82:	d24c      	bcs.n	11e <app::touch_sensor::touch_event_callback+0x11e>
_ZN49_$LT$usize$u20$as$u20$core..iter..range..Step$GT$9add_usize17hf17b9c3eb5ce1bc4E():
/rustc/50a0defd5a93523067ef239936cc2e0755220904/src/libcore/iter/range.rs:82
  84:	2001      	movs	r0, #1
  86:	f7ff fffe 	bl	0 <<T as core::convert::TryFrom<U>>::try_from>
_ZN4core3num23_$LT$impl$u20$usize$GT$15overflowing_add17hde7e9fa4130a5804E():
/rustc/50a0defd5a93523067ef239936cc2e0755220904/src/libcore/num/mod.rs:3349
  8a:	1980      	adds	r0, r0, r6
_ZN4core4iter5range101_$LT$impl$u20$core..iter..traits..iterator..Iterator$u20$for$u20$core..ops..range..Range$LT$A$GT$$GT$4next17hc2f5678f9b19e13dE():
/rustc/50a0defd5a93523067ef239936cc2e0755220904/src/libcore/iter/range.rs:176
  8c:	d247      	bcs.n	11e <app::touch_sensor::touch_event_callback+0x11e>
_ZN3app12touch_sensor14read_touchdata17hf1c5dd7d813722deE():
/Users/Luppy/mynewt/stm32bluepill-mynewt-sensor/rust/app/src/touch_sensor.rs:117
        let pointid = unsafe { buf[HYN_TOUCH_ID_POS + HYN_TOUCH_STEP * i] } >> 4;
  8e:	eb06 0246 	add.w	r2, r6, r6, lsl #1
  92:	eb09 0142 	add.w	r1, r9, r2, lsl #1
  96:	293e      	cmp	r1, #62	; 0x3e
  98:	d84b      	bhi.n	132 <app::touch_sensor::touch_event_callback+0x132>
  9a:	4459      	add	r1, fp
  9c:	7c0b      	ldrb	r3, [r1, #16]
/Users/Luppy/mynewt/stm32bluepill-mynewt-sensor/rust/app/src/touch_sensor.rs:118
        if pointid >= HYN_MAX_ID { break; }
  9e:	2bef      	cmp	r3, #239	; 0xef
  a0:	d83d      	bhi.n	11e <app::touch_sensor::touch_event_callback+0x11e>
/Users/Luppy/mynewt/stm32bluepill-mynewt-sensor/rust/app/src/touch_sensor.rs:121
        data.count += 1;
  a2:	f894 1050 	ldrb.w	r1, [r4, #80]	; 0x50
  a6:	0052      	lsls	r2, r2, #1
  a8:	3101      	adds	r1, #1
  aa:	f884 1050 	strb.w	r1, [r4, #80]	; 0x50
/Users/Luppy/mynewt/stm32bluepill-mynewt-sensor/rust/app/src/touch_sensor.rs:122
        let x_high = unsafe { buf[HYN_TOUCH_X_H_POS + HYN_TOUCH_STEP * i] & 0x0F } as u16;
  ae:	1cd1      	adds	r1, r2, #3
  b0:	293e      	cmp	r1, #62	; 0x3e
  b2:	d840      	bhi.n	136 <app::touch_sensor::touch_event_callback+0x136>
/Users/Luppy/mynewt/stm32bluepill-mynewt-sensor/rust/app/src/touch_sensor.rs:124
        data.touches[i].x  = (x_high << 8) | x_low;
  b4:	2e09      	cmp	r6, #9
  b6:	d840      	bhi.n	13a <app::touch_sensor::touch_event_callback+0x13a>
/Users/Luppy/mynewt/stm32bluepill-mynewt-sensor/rust/app/src/touch_sensor.rs:122
        let x_high = unsafe { buf[HYN_TOUCH_X_H_POS + HYN_TOUCH_STEP * i] & 0x0F } as u16;
  b8:	f81a 5001 	ldrb.w	r5, [sl, r1]
  bc:	eb0a 0102 	add.w	r1, sl, r2
/Users/Luppy/mynewt/stm32bluepill-mynewt-sensor/rust/app/src/touch_sensor.rs:123
        let x_low  = unsafe { buf[HYN_TOUCH_X_L_POS + HYN_TOUCH_STEP * i] } as u16;
  c0:	7909      	ldrb	r1, [r1, #4]
/Users/Luppy/mynewt/stm32bluepill-mynewt-sensor/rust/app/src/touch_sensor.rs:122
        let x_high = unsafe { buf[HYN_TOUCH_X_H_POS + HYN_TOUCH_STEP * i] & 0x0F } as u16;
  c2:	f005 070f 	and.w	r7, r5, #15
/Users/Luppy/mynewt/stm32bluepill-mynewt-sensor/rust/app/src/touch_sensor.rs:124
        data.touches[i].x  = (x_high << 8) | x_low;
  c6:	ea41 2107 	orr.w	r1, r1, r7, lsl #8
  ca:	f824 1036 	strh.w	r1, [r4, r6, lsl #3]
/Users/Luppy/mynewt/stm32bluepill-mynewt-sensor/rust/app/src/touch_sensor.rs:127
        let y_low  = unsafe { buf[HYN_TOUCH_Y_L_POS + HYN_TOUCH_STEP * i] } as u16;
  ce:	1d91      	adds	r1, r2, #6
  d0:	293e      	cmp	r1, #62	; 0x3e
  d2:	d838      	bhi.n	146 <app::touch_sensor::touch_event_callback+0x146>
  d4:	4459      	add	r1, fp
/Users/Luppy/mynewt/stm32bluepill-mynewt-sensor/rust/app/src/touch_sensor.rs:133
        data.touches[i].finger =
  d6:	091f      	lsrs	r7, r3, #4
/Users/Luppy/mynewt/stm32bluepill-mynewt-sensor/rust/app/src/touch_sensor.rs:126
        let y_high = unsafe { buf[HYN_TOUCH_Y_H_POS + HYN_TOUCH_STEP * i] & 0x0F } as u16;
  d8:	f003 030f 	and.w	r3, r3, #15
/Users/Luppy/mynewt/stm32bluepill-mynewt-sensor/rust/app/src/touch_sensor.rs:128
        data.touches[i].y  = (y_high << 8) | y_low;
  dc:	eb04 06c6 	add.w	r6, r4, r6, lsl #3
/Users/Luppy/mynewt/stm32bluepill-mynewt-sensor/rust/app/src/touch_sensor.rs:127
        let y_low  = unsafe { buf[HYN_TOUCH_Y_L_POS + HYN_TOUCH_STEP * i] } as u16;
  e0:	7c09      	ldrb	r1, [r1, #16]
/Users/Luppy/mynewt/stm32bluepill-mynewt-sensor/rust/app/src/touch_sensor.rs:131
        data.touches[i].action =
  e2:	09ad      	lsrs	r5, r5, #6
/Users/Luppy/mynewt/stm32bluepill-mynewt-sensor/rust/app/src/touch_sensor.rs:133
        data.touches[i].finger =
  e4:	7177      	strb	r7, [r6, #5]
/Users/Luppy/mynewt/stm32bluepill-mynewt-sensor/rust/app/src/touch_sensor.rs:128
        data.touches[i].y  = (y_high << 8) | y_low;
  e6:	ea41 2103 	orr.w	r1, r1, r3, lsl #8
/Users/Luppy/mynewt/stm32bluepill-mynewt-sensor/rust/app/src/touch_sensor.rs:131
        data.touches[i].action =
  ea:	7135      	strb	r5, [r6, #4]
/Users/Luppy/mynewt/stm32bluepill-mynewt-sensor/rust/app/src/touch_sensor.rs:128
        data.touches[i].y  = (y_high << 8) | y_low;
  ec:	8071      	strh	r1, [r6, #2]
/Users/Luppy/mynewt/stm32bluepill-mynewt-sensor/rust/app/src/touch_sensor.rs:138
            unsafe { buf[HYN_TOUCH_XY_POS + HYN_TOUCH_STEP * i] };  //  Can't be constant value
  ee:	1dd1      	adds	r1, r2, #7
  f0:	293e      	cmp	r1, #62	; 0x3e
  f2:	d82a      	bhi.n	14a <app::touch_sensor::touch_event_callback+0x14a>
  f4:	4459      	add	r1, fp
  f6:	7c09      	ldrb	r1, [r1, #16]
/Users/Luppy/mynewt/stm32bluepill-mynewt-sensor/rust/app/src/touch_sensor.rs:137
        data.touches[i].pressure =
  f8:	71b1      	strb	r1, [r6, #6]
/Users/Luppy/mynewt/stm32bluepill-mynewt-sensor/rust/app/src/touch_sensor.rs:140
            unsafe { buf[HYN_TOUCH_MISC   + HYN_TOUCH_STEP * i] } >> 4;
  fa:	f102 0108 	add.w	r1, r2, #8
  fe:	293e      	cmp	r1, #62	; 0x3e
 100:	d825      	bhi.n	14e <app::touch_sensor::touch_event_callback+0x14e>
 102:	4459      	add	r1, fp
 104:	7c09      	ldrb	r1, [r1, #16]
/Users/Luppy/mynewt/stm32bluepill-mynewt-sensor/rust/app/src/touch_sensor.rs:139
        data.touches[i].area =
 106:	0909      	lsrs	r1, r1, #4
 108:	71f1      	strb	r1, [r6, #7]
/Users/Luppy/mynewt/stm32bluepill-mynewt-sensor/rust/app/src/touch_sensor.rs:143
        if (data.touches[i].action == 0 || data.touches[i].action == 2)  //  If touch is down or contact
 10a:	f045 0102 	orr.w	r1, r5, #2
 10e:	2902      	cmp	r1, #2
/Users/Luppy/mynewt/stm32bluepill-mynewt-sensor/rust/app/src/touch_sensor.rs:116
    for i in 0..CFG_MAX_TOUCH_POINTS {
 110:	4606      	mov	r6, r0
/Users/Luppy/mynewt/stm32bluepill-mynewt-sensor/rust/app/src/touch_sensor.rs:143
        if (data.touches[i].action == 0 || data.touches[i].action == 2)  //  If touch is down or contact
 112:	d1b5      	bne.n	80 <app::touch_sensor::touch_event_callback+0x80>
 114:	f894 1051 	ldrb.w	r1, [r4, #81]	; 0x51
/Users/Luppy/mynewt/stm32bluepill-mynewt-sensor/rust/app/src/touch_sensor.rs:116
    for i in 0..CFG_MAX_TOUCH_POINTS {
 118:	4606      	mov	r6, r0
/Users/Luppy/mynewt/stm32bluepill-mynewt-sensor/rust/app/src/touch_sensor.rs:143
        if (data.touches[i].action == 0 || data.touches[i].action == 2)  //  If touch is down or contact
 11a:	2900      	cmp	r1, #0
 11c:	d1b0      	bne.n	80 <app::touch_sensor::touch_event_callback+0x80>
_ZN3app12touch_sensor20touch_event_callback17h0fffc1defec7edc2E():
/Users/Luppy/mynewt/stm32bluepill-mynewt-sensor/rust/app/src/touch_sensor.rs:88
        druid::show_touch(
 11e:	8861      	ldrh	r1, [r4, #2]
 120:	8820      	ldrh	r0, [r4, #0]
 122:	f7ff fffe 	bl	0 <piet_embedded_graphics::display::show_touch>
 126:	4916      	ldr	r1, [pc, #88]	; (180 <app::touch_sensor::touch_event_callback+0x180>)
 128:	220f      	movs	r2, #15
 12a:	e8bd 4ff8 	ldmia.w	sp!, {r3, r4, r5, r6, r7, r8, r9, sl, fp, lr}
 12e:	f7ff bffe 	b.w	0 <app::touch_sensor::touch_event_callback>
_ZN3app12touch_sensor14read_touchdata17hf1c5dd7d813722deE():
/Users/Luppy/mynewt/stm32bluepill-mynewt-sensor/rust/app/src/touch_sensor.rs:117
        let pointid = unsafe { buf[HYN_TOUCH_ID_POS + HYN_TOUCH_STEP * i] } >> 4;
 132:	480d      	ldr	r0, [pc, #52]	; (168 <app::touch_sensor::touch_event_callback+0x168>)
 134:	e00c      	b.n	150 <app::touch_sensor::touch_event_callback+0x150>
/Users/Luppy/mynewt/stm32bluepill-mynewt-sensor/rust/app/src/touch_sensor.rs:122
        let x_high = unsafe { buf[HYN_TOUCH_X_H_POS + HYN_TOUCH_STEP * i] & 0x0F } as u16;
 136:	480d      	ldr	r0, [pc, #52]	; (16c <app::touch_sensor::touch_event_callback+0x16c>)
 138:	e00a      	b.n	150 <app::touch_sensor::touch_event_callback+0x150>
/Users/Luppy/mynewt/stm32bluepill-mynewt-sensor/rust/app/src/touch_sensor.rs:124
        data.touches[i].x  = (x_high << 8) | x_low;
 13a:	480d      	ldr	r0, [pc, #52]	; (170 <app::touch_sensor::touch_event_callback+0x170>)
 13c:	4631      	mov	r1, r6
 13e:	220a      	movs	r2, #10
 140:	f7ff fffe 	bl	0 <core::panicking::panic_bounds_check>
 144:	defe      	udf	#254	; 0xfe
/Users/Luppy/mynewt/stm32bluepill-mynewt-sensor/rust/app/src/touch_sensor.rs:127
        let y_low  = unsafe { buf[HYN_TOUCH_Y_L_POS + HYN_TOUCH_STEP * i] } as u16;
 146:	480b      	ldr	r0, [pc, #44]	; (174 <app::touch_sensor::touch_event_callback+0x174>)
 148:	e002      	b.n	150 <app::touch_sensor::touch_event_callback+0x150>
/Users/Luppy/mynewt/stm32bluepill-mynewt-sensor/rust/app/src/touch_sensor.rs:138
            unsafe { buf[HYN_TOUCH_XY_POS + HYN_TOUCH_STEP * i] };  //  Can't be constant value
 14a:	480b      	ldr	r0, [pc, #44]	; (178 <app::touch_sensor::touch_event_callback+0x178>)
 14c:	e000      	b.n	150 <app::touch_sensor::touch_event_callback+0x150>
/Users/Luppy/mynewt/stm32bluepill-mynewt-sensor/rust/app/src/touch_sensor.rs:140
            unsafe { buf[HYN_TOUCH_MISC   + HYN_TOUCH_STEP * i] } >> 4;
 14e:	480b      	ldr	r0, [pc, #44]	; (17c <app::touch_sensor::touch_event_callback+0x17c>)
 150:	223f      	movs	r2, #63	; 0x3f
 152:	f7ff fffe 	bl	0 <core::panicking::panic_bounds_check>
 156:	defe      	udf	#254	; 0xfe
_ZN3app12touch_sensor19read_register_range17hf3cbe2545d75b964E():
/Users/Luppy/mynewt/stm32bluepill-mynewt-sensor/rust/app/src/touch_sensor.rs:239
        assert!(false, "i2c fail");  //  I2C read failed
 158:	480a      	ldr	r0, [pc, #40]	; (184 <app::touch_sensor::touch_event_callback+0x184>)
 15a:	f7ff fffe 	bl	0 <core::panicking::panic>
 15e:	defe      	udf	#254	; 0xfe
	...

Disassembly of section .text._ZN3app5hello10ui_builder17hc876176f6df01194E:

00000000 <app::hello::ui_builder>:
_ZN3app5hello10ui_builder17hc876176f6df01194E():
/Users/Luppy/mynewt/stm32bluepill-mynewt-sensor/rust/app/src/hello.rs:31
fn ui_builder() -> impl Widget<u32> {  //  `u32` is the window state
   0:	e92d 41f0 	stmdb	sp!, {r4, r5, r6, r7, r8, lr}
   4:	f5ad 7d5c 	sub.w	sp, sp, #880	; 0x370
   8:	2500      	movs	r5, #0
/Users/Luppy/mynewt/stm32bluepill-mynewt-sensor/rust/app/src/hello.rs:34
        LocalizedString::new("hello-counter")
   a:	4a26      	ldr	r2, [pc, #152]	; (a4 <app::hello::ui_builder+0xa4>)
   c:	f10d 0808 	add.w	r8, sp, #8
  10:	210d      	movs	r1, #13
  12:	4604      	mov	r4, r0
  14:	4822      	ldr	r0, [pc, #136]	; (a0 <app::hello::ui_builder+0xa0>)
_ZN5druid12localization24LocalizedString$LT$T$GT$3new17h80fb9461e3b01a82E():
/Users/Luppy/mynewt/druid-embedded/druid/src/localization.rs:313
        LocalizedString {
  16:	954b      	str	r5, [sp, #300]	; 0x12c
  18:	9543      	str	r5, [sp, #268]	; 0x10c
  1a:	953c      	str	r5, [sp, #240]	; 0xf0
  1c:	913b      	str	r1, [sp, #236]	; 0xec
  1e:	a93a      	add	r1, sp, #232	; 0xe8
  20:	4b21      	ldr	r3, [pc, #132]	; (a8 <app::hello::ui_builder+0xa8>)
  22:	933a      	str	r3, [sp, #232]	; 0xe8
_ZN3app5hello10ui_builder17hc876176f6df01194E():
/Users/Luppy/mynewt/stm32bluepill-mynewt-sensor/rust/app/src/hello.rs:34
  24:	2305      	movs	r3, #5
  26:	9000      	str	r0, [sp, #0]
  28:	4640      	mov	r0, r8
  2a:	f7ff fffe 	bl	0 <app::hello::ui_builder>
_ZN5druid6widget5label14Label$LT$T$GT$3new17h91f1829925616702E():
/Users/Luppy/mynewt/druid-embedded/druid/src/widget/label.rs:70
            id: super::get_widget_id(), ////
  2e:	f7ff fffe 	bl	0 <druid::widget::get_widget_id>
_ZN3app5hello10ui_builder17hc876176f6df01194E():
/Users/Luppy/mynewt/stm32bluepill-mynewt-sensor/rust/app/src/hello.rs:42
    let button = Button::<u32>::new( ////
  32:	491e      	ldr	r1, [pc, #120]	; (ac <app::hello::ui_builder+0xac>)
  34:	ae1a      	add	r6, sp, #104	; 0x68
  36:	4b1e      	ldr	r3, [pc, #120]	; (b0 <app::hello::ui_builder+0xb0>)
_ZN5druid6widget5label14Label$LT$T$GT$3new17h91f1829925616702E():
/Users/Luppy/mynewt/druid-embedded/druid/src/widget/label.rs:70
  38:	4607      	mov	r7, r0
_ZN3app5hello10ui_builder17hc876176f6df01194E():
/Users/Luppy/mynewt/stm32bluepill-mynewt-sensor/rust/app/src/hello.rs:42
  3a:	4630      	mov	r0, r6
  3c:	2209      	movs	r2, #9
  3e:	f7ff fffe 	bl	0 <app::hello::ui_builder>
_ZN5druid6widget4flex6Column3new17h4c592896946036e0E():
/Users/Luppy/mynewt/druid-embedded/druid/src/widget/flex.rs:118
            id: super::get_widget_id(), ////
  42:	f7ff fffe 	bl	0 <druid::widget::get_widget_id>
  46:	491b      	ldr	r1, [pc, #108]	; (b4 <app::hello::ui_builder+0xb4>)
  48:	2201      	movs	r2, #1
/Users/Luppy/mynewt/druid-embedded/druid/src/widget/flex.rs:117
        Flex {
  4a:	f88d 22f4 	strb.w	r2, [sp, #756]	; 0x2f4
_ZN3app5hello10ui_builder17hc876176f6df01194E():
/Users/Luppy/mynewt/stm32bluepill-mynewt-sensor/rust/app/src/hello.rs:51
    );

    //  Create a column for the UI
    let mut col = Column::new();
    //  Add the label and button widgets to the column
    col.add_child(label, 1.0); ////
  4e:	2260      	movs	r2, #96	; 0x60
_ZN5druid6widget4flex6Column3new17h4c592896946036e0E():
/Users/Luppy/mynewt/druid-embedded/druid/src/widget/flex.rs:117
  50:	90bc      	str	r0, [sp, #752]	; 0x2f0
  52:	95ba      	str	r5, [sp, #744]	; 0x2e8
_ZN3app5hello10ui_builder17hc876176f6df01194E():
/Users/Luppy/mynewt/stm32bluepill-mynewt-sensor/rust/app/src/hello.rs:51
  54:	e9cd 55be 	strd	r5, r5, [sp, #760]	; 0x2f8
  58:	e9cd 51c0 	strd	r5, r1, [sp, #768]	; 0x300
  5c:	4641      	mov	r1, r8
  5e:	e9cd 75c2 	strd	r7, r5, [sp, #776]	; 0x308
  62:	afbe      	add	r7, sp, #760	; 0x2f8
  64:	f107 0018 	add.w	r0, r7, #24
  68:	f7ff fffe 	bl	0 <__aeabi_memcpy4>
  6c:	ad3a      	add	r5, sp, #232	; 0xe8
  6e:	ed9f 0b0a 	vldr	d0, [pc, #40]	; 98 <app::hello::ui_builder+0x98>
  72:	4639      	mov	r1, r7
  74:	4628      	mov	r0, r5
  76:	f7ff fffe 	bl	0 <app::hello::ui_builder>
/Users/Luppy/mynewt/stm32bluepill-mynewt-sensor/rust/app/src/hello.rs:64
    col.add_child(
        Padding::new(5.0, button), 
        1.0
    );
    */
    col
  7a:	4620      	mov	r0, r4
  7c:	4629      	mov	r1, r5
  7e:	f44f 7204 	mov.w	r2, #528	; 0x210
  82:	f7ff fffe 	bl	0 <__aeabi_memcpy8>
_ZN4core3ptr18real_drop_in_place17ha52469d6770069e9E():
/rustc/50a0defd5a93523067ef239936cc2e0755220904/src/libcore/ptr.rs:195
  86:	4630      	mov	r0, r6
  88:	f7ff fffe 	bl	0 <app::hello::ui_builder>
_ZN3app5hello10ui_builder17hc876176f6df01194E():
/Users/Luppy/mynewt/stm32bluepill-mynewt-sensor/rust/app/src/hello.rs:65
}
  8c:	f50d 7d5c 	add.w	sp, sp, #880	; 0x370
  90:	e8bd 81f0 	ldmia.w	sp!, {r4, r5, r6, r7, r8, pc}
  94:	bf00      	nop
  96:	bf00      	nop
  98:	00000000 	.word	0x00000000
  9c:	3ff00000 	.word	0x3ff00000
	...
  b4:	3fe00000 	.word	0x3fe00000

Disassembly of section .text.main:

00000000 <main>:
main():
/Users/Luppy/mynewt/stm32bluepill-mynewt-sensor/rust/app/src/lib.rs:53
};

///  Main program that initialises the sensor, network driver and starts reading and sending sensor data in the background.
///  main() will be called at Mynewt startup. It replaces the C version of the main() function.
#[no_mangle]                 //  Don't mangle the name "main"
extern "C" fn main() -> ! {  //  Declare extern "C" because it will be called by Mynewt
   0:	b0a4      	sub	sp, #144	; 0x90
/Users/Luppy/mynewt/stm32bluepill-mynewt-sensor/rust/app/src/lib.rs:58
    //  Initialise the Mynewt packages and internal temperature sensor driver. Any startup
    //  functions defined in pkg.yml of our custom drivers and libraries will be called by 
    //  sysinit().  Here are the startup functions consolidated by Mynewt:
    //  bin/targets/nrf52_my_sensor/generated/src/nrf52_my_sensor-sysinit-app.c
    mynewt::sysinit();
   2:	f7ff fffe 	bl	0 <mynewt::sysinit>
_ZN3app10app_sensor21start_sensor_listener17hb5572c2ba91af0b1E():
/Users/Luppy/mynewt/stm32bluepill-mynewt-sensor/rust/app/src/app_sensor.rs:47
const TEMP_SENSOR_TYPE: sensor_type_t = sensor::SENSOR_TYPE_AMBIENT_TEMPERATURE_RAW;

///  Ask Mynewt to poll or read the temperature sensor and call `aggregate_sensor_data()`
///  Return `Ok()` if successful, else return `Err()` with `MynewtError` error code inside.
pub fn start_sensor_listener() -> MynewtResult<()>  {  //  Returns an error code upon error.
    console::print("Rust TMP poll\n");
   6:	4879      	ldr	r0, [pc, #484]	; (1ec <main+0x1ec>)
   8:	210e      	movs	r1, #14
   a:	f7ff fffe 	bl	0 <mynewt::sys::console::print>
   e:	f10d 0928 	add.w	r9, sp, #40	; 0x28
/Users/Luppy/mynewt/stm32bluepill-mynewt-sensor/rust/app/src/app_sensor.rs:50

    //  Fetch the sensor by name.
    let sensor = sensor_mgr::find_bydevname(&SENSOR_DEVICE)
  12:	4977      	ldr	r1, [pc, #476]	; (1f0 <main+0x1f0>)
  14:	4648      	mov	r0, r9
  16:	f7ff fffe 	bl	0 <mynewt::hw::sensor_mgr::find_bydevname>
  1a:	4648      	mov	r0, r9
  1c:	f7ff fffe 	bl	0 <<mynewt::hw::sensor_mgr::SensorsByDevname as core::iter::traits::iterator::Iterator>::next>
_ZN4core6option15Option$LT$T$GT$6expect17hd0b8a62b04d3d744E():
/rustc/50a0defd5a93523067ef239936cc2e0755220904/src/libcore/option.rs:313
  20:	2800      	cmp	r0, #0
  22:	f000 80a0 	beq.w	166 <main+0x166>
_ZN3app10app_sensor21start_sensor_listener17hb5572c2ba91af0b1E():
/Users/Luppy/mynewt/stm32bluepill-mynewt-sensor/rust/app/src/app_sensor.rs:55
        .next()             //  Fetch the first sensor that matches
        .expect("no TMP");  //  Stop if no sensor found

    //  At power on, we ask Mynewt to poll our temperature sensor every 10 seconds.
    sensor::set_poll_rate_ms(&SENSOR_DEVICE, SENSOR_POLL_TIME) ? ;
  26:	4872      	ldr	r0, [pc, #456]	; (1f0 <main+0x1f0>)
  28:	4688      	mov	r8, r1
  2a:	f247 5130 	movw	r1, #30000	; 0x7530
  2e:	f7ff fffe 	bl	0 <mynewt::hw::sensor::bindings::set_poll_rate_ms>
  32:	2801      	cmp	r0, #1
  34:	d126      	bne.n	84 <main+0x84>
/Users/Luppy/mynewt/stm32bluepill-mynewt-sensor/rust/app/src/app_sensor.rs:58

    // Create a sensor listener that will call function `aggregate_sensor_data` after polling the sensor data
    let listener = sensor::new_sensor_listener(
  36:	4970      	ldr	r1, [pc, #448]	; (1f8 <main+0x1f8>)
  38:	f04f 6280 	mov.w	r2, #67108864	; 0x4000000
  3c:	486d      	ldr	r0, [pc, #436]	; (1f4 <main+0x1f4>)
  3e:	2300      	movs	r3, #0
  40:	9000      	str	r0, [sp, #0]
  42:	4648      	mov	r0, r9
  44:	f7ff fffe 	bl	0 <mynewt::hw::sensor::new_sensor_listener>
_ZN73_$LT$core..result..Result$LT$T$C$E$GT$$u20$as$u20$core..ops..try..Try$GT$11into_result17h8ce0e395a52d614eE():
/rustc/50a0defd5a93523067ef239936cc2e0755220904/src/libcore/result.rs:1283
  48:	f109 0a08 	add.w	sl, r9, #8
  4c:	e9dd c00a 	ldrd	ip, r0, [sp, #40]	; 0x28
  50:	f10d 0e70 	add.w	lr, sp, #112	; 0x70
  54:	e89a 00fc 	ldmia.w	sl, {r2, r3, r4, r5, r6, r7}
_ZN3app10app_sensor21start_sensor_listener17hb5572c2ba91af0b1E():
/Users/Luppy/mynewt/stm32bluepill-mynewt-sensor/rust/app/src/app_sensor.rs:62
        &TEMP_SENSOR_KEY,   //  Transmit as field: `t`
        TEMP_SENSOR_TYPE,   //  Type of sensor data: Raw temperature (integer from 0 to 4095)
        app_network::aggregate_sensor_data  //  Call this function with the polled data: `aggregate_sensor_data`
    ) ? ;
  58:	f1bc 0f01 	cmp.w	ip, #1
_ZN73_$LT$core..result..Result$LT$T$C$E$GT$$u20$as$u20$core..ops..try..Try$GT$11into_result17h8ce0e395a52d614eE():
/rustc/50a0defd5a93523067ef239936cc2e0755220904/src/libcore/result.rs:1283
  5c:	4671      	mov	r1, lr
  5e:	c1fc      	stmia	r1!, {r2, r3, r4, r5, r6, r7}
_ZN3app10app_sensor21start_sensor_listener17hb5572c2ba91af0b1E():
/Users/Luppy/mynewt/stm32bluepill-mynewt-sensor/rust/app/src/app_sensor.rs:62
  60:	d010      	beq.n	84 <main+0x84>
  62:	a802      	add	r0, sp, #8
/Users/Luppy/mynewt/stm32bluepill-mynewt-sensor/rust/app/src/app_sensor.rs:58
    let listener = sensor::new_sensor_listener(
  64:	e89e 00fc 	ldmia.w	lr, {r2, r3, r4, r5, r6, r7}
  68:	4601      	mov	r1, r0
  6a:	c1fc      	stmia	r1!, {r2, r3, r4, r5, r6, r7}
/Users/Luppy/mynewt/stm32bluepill-mynewt-sensor/rust/app/src/app_sensor.rs:65

    //  Register the Listener Function to be called with the polled sensor data.
    sensor::register_listener(sensor, listener) ? ;  //  `?` means in case of error, return error now.
  6c:	4649      	mov	r1, r9
  6e:	e890 00fc 	ldmia.w	r0, {r2, r3, r4, r5, r6, r7}
  72:	4640      	mov	r0, r8
  74:	c1fc      	stmia	r1!, {r2, r3, r4, r5, r6, r7}
  76:	4649      	mov	r1, r9
  78:	f7ff fffe 	bl	0 <mynewt::hw::sensor::register_listener>
  7c:	2801      	cmp	r0, #1
  7e:	d101      	bne.n	84 <main+0x84>
  80:	2001      	movs	r0, #1
  82:	e001      	b.n	88 <main+0x88>
  84:	f7ff fffe 	bl	0 <<T as core::convert::From<T>>::from>
main():
/Users/Luppy/mynewt/stm32bluepill-mynewt-sensor/rust/app/src/lib.rs:66
    //  sensor_network::start_server_transport()
    //    .expect("NET fail");

    //  Start polling the simulated temperature sensor every 10 seconds in the background.
    //  TODO: Replace by touch handler.
    app_sensor::start_sensor_listener()
  88:	495c      	ldr	r1, [pc, #368]	; (1fc <main+0x1fc>)
  8a:	2208      	movs	r2, #8
  8c:	f7ff fffe 	bl	0 <main>
/Users/Luppy/mynewt/stm32bluepill-mynewt-sensor/rust/app/src/lib.rs:71
        .expect("TMP fail");

    //  Start Bluetooth Beacon.  TODO: Create a safe wrapper for starting Bluetooth LE.
    extern { fn start_ble() -> i32; }
    let rc = unsafe { start_ble() };
  90:	f7ff fffe 	bl	0 <start_ble>
/Users/Luppy/mynewt/stm32bluepill-mynewt-sensor/rust/app/src/lib.rs:72
    assert!(rc == 0, "BLE fail");
  94:	2800      	cmp	r0, #0
  96:	d16b      	bne.n	170 <main+0x170>
/Users/Luppy/mynewt/stm32bluepill-mynewt-sensor/rust/app/src/lib.rs:75

    //  Start the display
    druid::start_display()
  98:	f7ff fffe 	bl	0 <piet_embedded_graphics::display::start_display>
  9c:	4959      	ldr	r1, [pc, #356]	; (204 <main+0x204>)
  9e:	2208      	movs	r2, #8
  a0:	f7ff fffe 	bl	0 <main>
_ZN3app12touch_sensor18start_touch_sensor17h57e1b5d397cafe7eE():
/Users/Luppy/mynewt/stm32bluepill-mynewt-sensor/rust/app/src/touch_sensor.rs:39
    console::print("Rust touch sensor\n");
  a4:	4858      	ldr	r0, [pc, #352]	; (208 <main+0x208>)
  a6:	2112      	movs	r1, #18
  a8:	f7ff fffe 	bl	0 <mynewt::sys::console::print>
/Users/Luppy/mynewt/stm32bluepill-mynewt-sensor/rust/app/src/touch_sensor.rs:42
    unsafe { TOUCH_RESET.init(TOUCH_RESET_PIN) ? };
  ac:	4d57      	ldr	r5, [pc, #348]	; (20c <main+0x20c>)
  ae:	210a      	movs	r1, #10
  b0:	1d2c      	adds	r4, r5, #4
  b2:	4620      	mov	r0, r4
  b4:	f7ff fffe 	bl	0 <mynewt::hal::GPIO::init>
  b8:	2801      	cmp	r0, #1
  ba:	d12a      	bne.n	112 <main+0x112>
/Users/Luppy/mynewt/stm32bluepill-mynewt-sensor/rust/app/src/touch_sensor.rs:46
        TOUCH_RESET.set_low() ? ;
  bc:	4620      	mov	r0, r4
  be:	f7ff fffe 	bl	0 <<mynewt::hal::GPIO as embedded_hal::digital::v2::OutputPin>::set_low>
  c2:	2801      	cmp	r0, #1
  c4:	d125      	bne.n	112 <main+0x112>
/Users/Luppy/mynewt/stm32bluepill-mynewt-sensor/rust/app/src/touch_sensor.rs:47
        TOUCH_DELAY.delay_ms(20);
  c6:	4628      	mov	r0, r5
  c8:	2114      	movs	r1, #20
  ca:	f7ff fffe 	bl	0 <<mynewt::hal::Delay as embedded_hal::blocking::delay::DelayMs<u8>>::delay_ms>
/Users/Luppy/mynewt/stm32bluepill-mynewt-sensor/rust/app/src/touch_sensor.rs:48
        TOUCH_RESET.set_high() ? ;
  ce:	4620      	mov	r0, r4
  d0:	f7ff fffe 	bl	0 <<mynewt::hal::GPIO as embedded_hal::digital::v2::OutputPin>::set_high>
  d4:	2801      	cmp	r0, #1
  d6:	d11c      	bne.n	112 <main+0x112>
/Users/Luppy/mynewt/stm32bluepill-mynewt-sensor/rust/app/src/touch_sensor.rs:49
        TOUCH_DELAY.delay_ms(200); TOUCH_DELAY.delay_ms(200);    
  d8:	4c4c      	ldr	r4, [pc, #304]	; (20c <main+0x20c>)
  da:	21c8      	movs	r1, #200	; 0xc8
  dc:	4620      	mov	r0, r4
  de:	f7ff fffe 	bl	0 <<mynewt::hal::Delay as embedded_hal::blocking::delay::DelayMs<u8>>::delay_ms>
  e2:	4620      	mov	r0, r4
  e4:	21c8      	movs	r1, #200	; 0xc8
  e6:	f7ff fffe 	bl	0 <<mynewt::hal::Delay as embedded_hal::blocking::delay::DelayMs<u8>>::delay_ms>
/Users/Luppy/mynewt/stm32bluepill-mynewt-sensor/rust/app/src/touch_sensor.rs:53
    unsafe { TOUCH_EVENT.ev_cb = Some( touch_event_callback ) };
  ea:	4849      	ldr	r0, [pc, #292]	; (210 <main+0x210>)
  ec:	2601      	movs	r6, #1
  ee:	4949      	ldr	r1, [pc, #292]	; (214 <main+0x214>)
/Users/Luppy/mynewt/stm32bluepill-mynewt-sensor/rust/app/src/touch_sensor.rs:56
    let rc = unsafe { hal::hal_gpio_irq_init(
  f0:	2200      	movs	r2, #0
  f2:	2302      	movs	r3, #2
  f4:	9600      	str	r6, [sp, #0]
/Users/Luppy/mynewt/stm32bluepill-mynewt-sensor/rust/app/src/touch_sensor.rs:53
    unsafe { TOUCH_EVENT.ev_cb = Some( touch_event_callback ) };
  f6:	6041      	str	r1, [r0, #4]
/Users/Luppy/mynewt/stm32bluepill-mynewt-sensor/rust/app/src/touch_sensor.rs:56
    let rc = unsafe { hal::hal_gpio_irq_init(
  f8:	201c      	movs	r0, #28
  fa:	4947      	ldr	r1, [pc, #284]	; (218 <main+0x218>)
  fc:	2500      	movs	r5, #0
  fe:	f7ff fffe 	bl	0 <hal_gpio_irq_init>
/Users/Luppy/mynewt/stm32bluepill-mynewt-sensor/rust/app/src/touch_sensor.rs:63
    assert_eq!(rc, 0, "IRQ init fail");
 102:	2800      	cmp	r0, #0
/Users/Luppy/mynewt/stm32bluepill-mynewt-sensor/rust/app/src/touch_sensor.rs:56
    let rc = unsafe { hal::hal_gpio_irq_init(
 104:	9001      	str	r0, [sp, #4]
/Users/Luppy/mynewt/stm32bluepill-mynewt-sensor/rust/app/src/touch_sensor.rs:63
    assert_eq!(rc, 0, "IRQ init fail");
 106:	d13e      	bne.n	186 <main+0x186>
/Users/Luppy/mynewt/stm32bluepill-mynewt-sensor/rust/app/src/touch_sensor.rs:66
    unsafe { hal::hal_gpio_irq_enable(TOUCH_INTERRUPT_PIN) };
 108:	201c      	movs	r0, #28
 10a:	f7ff fffe 	bl	0 <hal_gpio_irq_enable>
 10e:	2001      	movs	r0, #1
 110:	e001      	b.n	116 <main+0x116>
 112:	f7ff fffe 	bl	0 <<T as core::convert::From<T>>::from>
main():
/Users/Luppy/mynewt/stm32bluepill-mynewt-sensor/rust/app/src/lib.rs:83
    //  Test the display
    //  druid::test_display()
    //      .expect("DSP test fail");

    //  Start the touch sensor
    touch_sensor::start_touch_sensor()
 116:	4948      	ldr	r1, [pc, #288]	; (238 <main+0x238>)
 118:	2208      	movs	r2, #8
 11a:	f7ff fffe 	bl	0 <main>
_ZN5druid3app23WindowDesc$LT$T$C$W$GT$3new17h1b02657d01a7432dE():
/Users/Luppy/mynewt/druid-embedded/druid/src/app.rs:169
            id: WindowId::next(),
 11e:	f7ff fffe 	bl	0 <druid::window::WindowId::next>
 122:	2200      	movs	r2, #0
_ZN3app5hello6launch17hb4c58d4de72bb38fE():
/Users/Luppy/mynewt/stm32bluepill-mynewt-sensor/rust/app/src/hello.rs:24
    AppLauncher::with_window(main_window)
 124:	4945      	ldr	r1, [pc, #276]	; (23c <main+0x23c>)
 126:	ac0a      	add	r4, sp, #40	; 0x28
 128:	e9cd 221c 	strd	r2, r2, [sp, #112]	; 0x70
 12c:	e9cd 1022 	strd	r1, r0, [sp, #136]	; 0x88
 130:	a91c      	add	r1, sp, #112	; 0x70
 132:	4620      	mov	r0, r4
 134:	f7ff fffe 	bl	0 <main>
 138:	a81c      	add	r0, sp, #112	; 0x70
 13a:	4621      	mov	r1, r4
 13c:	2200      	movs	r2, #0
 13e:	f7ff fffe 	bl	0 <main>
_ZN4core6result19Result$LT$T$C$E$GT$6expect17hd0fc5827609738caE():
/rustc/50a0defd5a93523067ef239936cc2e0755220904/src/libcore/result.rs:826
 142:	981c      	ldr	r0, [sp, #112]	; 0x70
 144:	2801      	cmp	r0, #1
 146:	d017      	beq.n	178 <main+0x178>
main():
 148:	4d3d      	ldr	r5, [pc, #244]	; (240 <main+0x240>)
 14a:	ac0a      	add	r4, sp, #40	; 0x28
/Users/Luppy/mynewt/stm32bluepill-mynewt-sensor/rust/app/src/lib.rs:96
    hello::launch();

    //  Main event loop
    loop {                            //  Loop forever...
        os::eventq_run(               //  Processing events...
            os::eventq_dflt_get()     //  From default event queue.
 14c:	4620      	mov	r0, r4
 14e:	f7ff fffe 	bl	0 <mynewt::kernel::os::eventq_dflt_get>
 152:	4620      	mov	r0, r4
 154:	f7ff fffe 	bl	0 <main>
/Users/Luppy/mynewt/stm32bluepill-mynewt-sensor/rust/app/src/lib.rs:95
        os::eventq_run(               //  Processing events...
 158:	f7ff fffe 	bl	0 <mynewt::kernel::os::eventq_run>
 15c:	4629      	mov	r1, r5
 15e:	2208      	movs	r2, #8
 160:	f7ff fffe 	bl	0 <main>
/Users/Luppy/mynewt/stm32bluepill-mynewt-sensor/rust/app/src/lib.rs:94
    loop {                            //  Loop forever...
 164:	e7f2      	b.n	14c <main+0x14c>
_ZN4core6option15Option$LT$T$GT$6expect17hd0b8a62b04d3d744E():
/rustc/50a0defd5a93523067ef239936cc2e0755220904/src/libcore/option.rs:314
 166:	4838      	ldr	r0, [pc, #224]	; (248 <main+0x248>)
 168:	2106      	movs	r1, #6
 16a:	f7ff fffe 	bl	0 <core::option::expect_failed>
 16e:	defe      	udf	#254	; 0xfe
main():
/Users/Luppy/mynewt/stm32bluepill-mynewt-sensor/rust/app/src/lib.rs:72
    assert!(rc == 0, "BLE fail");
 170:	4823      	ldr	r0, [pc, #140]	; (200 <main+0x200>)
 172:	f7ff fffe 	bl	0 <core::panicking::panic>
 176:	defe      	udf	#254	; 0xfe
_ZN4core6result19Result$LT$T$C$E$GT$6expect17hd0fc5827609738caE():
/rustc/50a0defd5a93523067ef239936cc2e0755220904/src/libcore/result.rs:827
 178:	e9dd 231d 	ldrd	r2, r3, [sp, #116]	; 0x74
 17c:	210d      	movs	r1, #13
 17e:	4831      	ldr	r0, [pc, #196]	; (244 <main+0x244>)
 180:	f7ff fffe 	bl	0 <main>
 184:	defe      	udf	#254	; 0xfe
_ZN3app12touch_sensor18start_touch_sensor17h57e1b5d397cafe7eE():
/Users/Luppy/mynewt/stm32bluepill-mynewt-sensor/rust/app/src/touch_sensor.rs:63
    assert_eq!(rc, 0, "IRQ init fail");
 186:	4a28      	ldr	r2, [pc, #160]	; (228 <main+0x228>)
 188:	ab01      	add	r3, sp, #4
 18a:	4c26      	ldr	r4, [pc, #152]	; (224 <main+0x224>)
_ZN4core3fmt9Arguments6new_v117ha99294a9defa432aE():
/rustc/50a0defd5a93523067ef239936cc2e0755220904/src/libcore/fmt/mod.rs:316
 18c:	4823      	ldr	r0, [pc, #140]	; (21c <main+0x21c>)
_ZN3app12touch_sensor18start_touch_sensor17h57e1b5d397cafe7eE():
/Users/Luppy/mynewt/stm32bluepill-mynewt-sensor/rust/app/src/touch_sensor.rs:63
 18e:	e9cd 3208 	strd	r3, r2, [sp, #32]
_ZN4core3fmt9Arguments6new_v117ha99294a9defa432aE():
/rustc/50a0defd5a93523067ef239936cc2e0755220904/src/libcore/fmt/mod.rs:316
 192:	e9cd 050e 	strd	r0, r5, [sp, #56]	; 0x38
 196:	a808      	add	r0, sp, #32
 198:	4921      	ldr	r1, [pc, #132]	; (220 <main+0x220>)
 19a:	e9cd 550c 	strd	r5, r5, [sp, #48]	; 0x30
 19e:	e9cd 160a 	strd	r1, r6, [sp, #40]	; 0x28
_ZN3app12touch_sensor18start_touch_sensor17h57e1b5d397cafe7eE():
/Users/Luppy/mynewt/stm32bluepill-mynewt-sensor/rust/app/src/touch_sensor.rs:63
 1a2:	4621      	mov	r1, r4
 1a4:	f7ff fffe 	bl	0 <core::fmt::ArgumentV1::new>
 1a8:	4680      	mov	r8, r0
 1aa:	a809      	add	r0, sp, #36	; 0x24
 1ac:	460e      	mov	r6, r1
 1ae:	4621      	mov	r1, r4
 1b0:	f7ff fffe 	bl	0 <core::fmt::ArgumentV1::new>
 1b4:	460f      	mov	r7, r1
 1b6:	491d      	ldr	r1, [pc, #116]	; (22c <main+0x22c>)
 1b8:	4604      	mov	r4, r0
 1ba:	a80a      	add	r0, sp, #40	; 0x28
 1bc:	f7ff fffe 	bl	0 <core::fmt::ArgumentV1::new>
 1c0:	4a1c      	ldr	r2, [pc, #112]	; (234 <main+0x234>)
 1c2:	e9cd 0120 	strd	r0, r1, [sp, #128]	; 0x80
 1c6:	2003      	movs	r0, #3
_ZN4core3fmt9Arguments6new_v117ha99294a9defa432aE():
/rustc/50a0defd5a93523067ef239936cc2e0755220904/src/libcore/fmt/mod.rs:316
 1c8:	4b19      	ldr	r3, [pc, #100]	; (230 <main+0x230>)
 1ca:	a91c      	add	r1, sp, #112	; 0x70
_ZN3app12touch_sensor18start_touch_sensor17h57e1b5d397cafe7eE():
/Users/Luppy/mynewt/stm32bluepill-mynewt-sensor/rust/app/src/touch_sensor.rs:63
 1cc:	e9cd 471e 	strd	r4, r7, [sp, #120]	; 0x78
 1d0:	e9cd 861c 	strd	r8, r6, [sp, #112]	; 0x70
_ZN4core3fmt9Arguments6new_v117ha99294a9defa432aE():
/rustc/50a0defd5a93523067ef239936cc2e0755220904/src/libcore/fmt/mod.rs:316
 1d4:	9007      	str	r0, [sp, #28]
 1d6:	9106      	str	r1, [sp, #24]
_ZN3app12touch_sensor18start_touch_sensor17h57e1b5d397cafe7eE():
/Users/Luppy/mynewt/stm32bluepill-mynewt-sensor/rust/app/src/touch_sensor.rs:63
 1d8:	4611      	mov	r1, r2
_ZN4core3fmt9Arguments6new_v117ha99294a9defa432aE():
/rustc/50a0defd5a93523067ef239936cc2e0755220904/src/libcore/fmt/mod.rs:316
 1da:	e9cd 5504 	strd	r5, r5, [sp, #16]
 1de:	e9cd 3002 	strd	r3, r0, [sp, #8]
 1e2:	a802      	add	r0, sp, #8
_ZN3app12touch_sensor18start_touch_sensor17h57e1b5d397cafe7eE():
/Users/Luppy/mynewt/stm32bluepill-mynewt-sensor/rust/app/src/touch_sensor.rs:63
 1e4:	f7ff fffe 	bl	0 <core::panicking::panic_fmt>
 1e8:	defe      	udf	#254	; 0xfe
main():
/Users/Luppy/mynewt/stm32bluepill-mynewt-sensor/rust/app/src/touch_sensor.rs:63
 1ea:	bf00      	nop
	...

Disassembly of section .text.rust_begin_unwind:

00000000 <rust_begin_unwind>:
rust_begin_unwind():
/Users/Luppy/mynewt/stm32bluepill-mynewt-sensor/rust/app/src/lib.rs:105
    //  Never comes here
}

///  This function is called on panic, like an assertion failure. We display the filename and line number and pause in the debugger. From https://os.phil-opp.com/freestanding-rust-binary/
#[panic_handler]
fn panic(info: &PanicInfo) -> ! {
   0:	4604      	mov	r4, r0
/Users/Luppy/mynewt/stm32bluepill-mynewt-sensor/rust/app/src/lib.rs:107
    //  Display the filename and line number to the Semihosting Console.
    console::print("panic ");
   2:	4823      	ldr	r0, [pc, #140]	; (90 <rust_begin_unwind+0x90>)
   4:	2106      	movs	r1, #6
   6:	f7ff fffe 	bl	0 <mynewt::sys::console::print>
/Users/Luppy/mynewt/stm32bluepill-mynewt-sensor/rust/app/src/lib.rs:108
    if let Some(location) = info.location() {
   a:	4620      	mov	r0, r4
   c:	f7ff fffe 	bl	0 <core::panic::PanicInfo::location>
  10:	b1d8      	cbz	r0, 4a <rust_begin_unwind+0x4a>
  12:	4605      	mov	r5, r0
/Users/Luppy/mynewt/stm32bluepill-mynewt-sensor/rust/app/src/lib.rs:109
        let file = location.file();
  14:	f7ff fffe 	bl	0 <core::panic::Location::file>
  18:	4606      	mov	r6, r0
/Users/Luppy/mynewt/stm32bluepill-mynewt-sensor/rust/app/src/lib.rs:110
        let line = location.line();
  1a:	4628      	mov	r0, r5
/Users/Luppy/mynewt/stm32bluepill-mynewt-sensor/rust/app/src/lib.rs:109
        let file = location.file();
  1c:	460f      	mov	r7, r1
/Users/Luppy/mynewt/stm32bluepill-mynewt-sensor/rust/app/src/lib.rs:110
        let line = location.line();
  1e:	f7ff fffe 	bl	0 <core::panic::Location::line>
  22:	4605      	mov	r5, r0
/Users/Luppy/mynewt/stm32bluepill-mynewt-sensor/rust/app/src/lib.rs:111
        console::print("at ");       console::buffer(&file);
  24:	481b      	ldr	r0, [pc, #108]	; (94 <rust_begin_unwind+0x94>)
  26:	f8df 8070 	ldr.w	r8, [pc, #112]	; 98 <rust_begin_unwind+0x98>
  2a:	2103      	movs	r1, #3
  2c:	47c0      	blx	r8
  2e:	4630      	mov	r0, r6
  30:	4639      	mov	r1, r7
  32:	f7ff fffe 	bl	0 <mynewt::sys::console::buffer>
/Users/Luppy/mynewt/stm32bluepill-mynewt-sensor/rust/app/src/lib.rs:112
        console::print(" line ");    console::printint(line as i32);
  36:	4819      	ldr	r0, [pc, #100]	; (9c <rust_begin_unwind+0x9c>)
  38:	2106      	movs	r1, #6
  3a:	47c0      	blx	r8
  3c:	4628      	mov	r0, r5
  3e:	f7ff fffe 	bl	0 <mynewt::sys::console::printint>
/Users/Luppy/mynewt/stm32bluepill-mynewt-sensor/rust/app/src/lib.rs:113
        console::print("\n");        console::flush();
  42:	4817      	ldr	r0, [pc, #92]	; (a0 <rust_begin_unwind+0xa0>)
  44:	2101      	movs	r1, #1
  46:	47c0      	blx	r8
  48:	e003      	b.n	52 <rust_begin_unwind+0x52>
/Users/Luppy/mynewt/stm32bluepill-mynewt-sensor/rust/app/src/lib.rs:115
    } else {
        console::print("no loc\n");  console::flush();
  4a:	4816      	ldr	r0, [pc, #88]	; (a4 <rust_begin_unwind+0xa4>)
  4c:	2107      	movs	r1, #7
  4e:	f7ff fffe 	bl	0 <mynewt::sys::console::print>
  52:	f7ff fffe 	bl	0 <mynewt::sys::console::flush>
/Users/Luppy/mynewt/stm32bluepill-mynewt-sensor/rust/app/src/lib.rs:120
    }
    //  Pause in the debugger.
    bkpt();
    //  Display the payload.
    console::print(info.payload().downcast_ref::<&str>().unwrap());
  56:	4620      	mov	r0, r4
_ZN8cortex_m3asm4bkpt17h1714df8ce7052ca3E():
/Users/Luppy/.cargo/registry/src/github.com-1ecc6299db9ec823/cortex-m-0.6.1/src/asm.rs:11
/// exception.
#[inline(always)]
pub fn bkpt() {
    match () {
        #[cfg(all(cortex_m, feature = "inline-asm"))]
        () => unsafe { asm!("bkpt" :::: "volatile") },
  58:	be00      	bkpt	0x0000
rust_begin_unwind():
/Users/Luppy/mynewt/stm32bluepill-mynewt-sensor/rust/app/src/lib.rs:120
  5a:	f7ff fffe 	bl	0 <core::panic::PanicInfo::payload>
_ZN36_$LT$dyn$u20$$u2b$core..any..Any$GT$2is17h1feb6fcad6b54e3eE():
/rustc/50a0defd5a93523067ef239936cc2e0755220904/src/libcore/any.rs:160
  5e:	68c9      	ldr	r1, [r1, #12]
rust_begin_unwind():
/Users/Luppy/mynewt/stm32bluepill-mynewt-sensor/rust/app/src/lib.rs:120
  60:	4604      	mov	r4, r0
_ZN36_$LT$dyn$u20$$u2b$core..any..Any$GT$2is17h1feb6fcad6b54e3eE():
/rustc/50a0defd5a93523067ef239936cc2e0755220904/src/libcore/any.rs:160
  62:	4788      	blx	r1
_ZN4core6option15Option$LT$T$GT$6unwrap17h4f8b16a15b1de518E():
/rustc/50a0defd5a93523067ef239936cc2e0755220904/src/libcore/option.rs:346
  64:	b184      	cbz	r4, 88 <rust_begin_unwind+0x88>
  66:	4a10      	ldr	r2, [pc, #64]	; (a8 <rust_begin_unwind+0xa8>)
  68:	4b10      	ldr	r3, [pc, #64]	; (ac <rust_begin_unwind+0xac>)
  6a:	4051      	eors	r1, r2
  6c:	4058      	eors	r0, r3
  6e:	4308      	orrs	r0, r1
  70:	d10a      	bne.n	88 <rust_begin_unwind+0x88>
rust_begin_unwind():
/Users/Luppy/mynewt/stm32bluepill-mynewt-sensor/rust/app/src/lib.rs:120
  72:	e9d4 0100 	ldrd	r0, r1, [r4]
  76:	f7ff fffe 	bl	0 <mynewt::sys::console::print>
/Users/Luppy/mynewt/stm32bluepill-mynewt-sensor/rust/app/src/lib.rs:121
    console::print("\n");  console::flush();
  7a:	4809      	ldr	r0, [pc, #36]	; (a0 <rust_begin_unwind+0xa0>)
  7c:	2101      	movs	r1, #1
  7e:	f7ff fffe 	bl	0 <mynewt::sys::console::print>
  82:	f7ff fffe 	bl	0 <mynewt::sys::console::flush>
/Users/Luppy/mynewt/stm32bluepill-mynewt-sensor/rust/app/src/lib.rs:123
    //  Loop forever so that device won't restart.
    loop {}
  86:	e7fe      	b.n	86 <rust_begin_unwind+0x86>
_ZN4core6option15Option$LT$T$GT$6unwrap17h4f8b16a15b1de518E():
/rustc/50a0defd5a93523067ef239936cc2e0755220904/src/libcore/macros.rs:12
  88:	4809      	ldr	r0, [pc, #36]	; (b0 <rust_begin_unwind+0xb0>)
  8a:	f7ff fffe 	bl	0 <core::panicking::panic>
  8e:	defe      	udf	#254	; 0xfe
	...
rust_begin_unwind():
  a8:	111094d9 	.word	0x111094d9
  ac:	70b09764 	.word	0x70b09764
  b0:	00000000 	.word	0x00000000
arm-none-eabi-objdump: rust.metadata.bin: File format not recognized
arm-none-eabi-objdump: app-3c6db803b2a68304.app.ckcqlk7k-cgu.0.rcgu.bc.z: File format not recognized
