In archive target/riscv32imac-unknown-none-elf/debug/libapp.rlib:

app-bfe911c41f7ee229.3bnxveu22bytmy88.rcgu.o:     file format elf32-littleriscv

SYMBOL TABLE:
00000000 l    df *ABS*	00000000 3bnxveu22bytmy88
00000018 l       .debug_ranges	00000000 
00000000 l       .text._ZN4core6result19Result$LT$T$C$E$GT$6expect17hf6762f1046b9fc1dE	00000000 
00000000 l       .text._ZN4core6result19Result$LT$T$C$E$GT$6expect17hf6762f1046b9fc1dE	00000000 
00000004 l       .text._ZN4core6result19Result$LT$T$C$E$GT$6expect17hf6762f1046b9fc1dE	00000000 
00000006 l       .text._ZN4core6result19Result$LT$T$C$E$GT$6expect17hf6762f1046b9fc1dE	00000000 
00000008 l       .text._ZN4core6result19Result$LT$T$C$E$GT$6expect17hf6762f1046b9fc1dE	00000000 
0000000c l       .text._ZN4core6result19Result$LT$T$C$E$GT$6expect17hf6762f1046b9fc1dE	00000000 
00000012 l       .text._ZN4core6result19Result$LT$T$C$E$GT$6expect17hf6762f1046b9fc1dE	00000000 
00000014 l       .text._ZN4core6result19Result$LT$T$C$E$GT$6expect17hf6762f1046b9fc1dE	00000000 
00000018 l       .text._ZN4core6result19Result$LT$T$C$E$GT$6expect17hf6762f1046b9fc1dE	00000000 
00000020 l       .text._ZN4core6result19Result$LT$T$C$E$GT$6expect17hf6762f1046b9fc1dE	00000000 
00000028 l       .text._ZN4core6result19Result$LT$T$C$E$GT$6expect17hf6762f1046b9fc1dE	00000000 
00000000 l       .text.main	00000000 
00000000 l       .text.main	00000000 
00000c4b l       .debug_str	00000000 
00000000 l       .debug_loc	00000000 
0000001e l       .debug_loc	00000000 
00000037 l       .debug_loc	00000000 
00000060 l       .debug_loc	00000000 
00000073 l       .debug_loc	00000000 
0000009c l       .debug_loc	00000000 
000000af l       .debug_loc	00000000 
000000d8 l       .debug_loc	00000000 
000000eb l       .debug_loc	00000000 
00000103 l       .debug_loc	00000000 
00000000 l       .debug_info	00000000 
00000030 l       .debug_ranges	00000000 
00000000 l       .debug_ranges	00000000 
0000003a l       .text.main	00000000 
0000003c l       .text.main	00000000 
00000044 l       .text.main	00000000 
00000058 l       .text.main	00000000 
0000005e l       .text.main	00000000 
00000060 l       .text.main	00000000 
00000068 l       .text.main	00000000 
00000072 l       .text.main	00000000 
0000007a l       .text.main	00000000 
0000007a l       .text.main	00000000 
00000000 l       .text.rust_begin_unwind	00000000 
00000000 l       .text.rust_begin_unwind	00000000 
0000000c l       .text.rust_begin_unwind	00000000 
00000020 l       .text.rust_begin_unwind	00000000 
00000028 l       .text.rust_begin_unwind	00000000 
0000002a l       .text.rust_begin_unwind	00000000 
00000036 l       .text.rust_begin_unwind	00000000 
00000038 l       .text.rust_begin_unwind	00000000 
00000044 l       .text.rust_begin_unwind	00000000 
00000050 l       .text.rust_begin_unwind	00000000 
00000094 l       .text.rust_begin_unwind	00000000 
000000a4 l       .text.rust_begin_unwind	00000000 
000000bc l       .text.rust_begin_unwind	00000000 
00000000 l       .debug_str	00000000 
00000041 l       .debug_str	00000000 
00000055 l       .debug_str	00000000 
00000085 l       .debug_str	00000000 
0000008a l       .debug_str	00000000 
0000008e l       .debug_str	00000000 
00000091 l       .debug_str	00000000 
0000009c l       .debug_str	00000000 
000000a7 l       .debug_str	00000000 
000000ae l       .debug_str	00000000 
000000b5 l       .debug_str	00000000 
000000bc l       .debug_str	00000000 
000000c0 l       .debug_str	00000000 
000000c8 l       .debug_str	00000000 
000000d3 l       .debug_str	00000000 
000000de l       .debug_str	00000000 
000000eb l       .debug_str	00000000 
000000f6 l       .debug_str	00000000 
000000fe l       .debug_str	00000000 
00000109 l       .debug_str	00000000 
00000114 l       .debug_str	00000000 
0000011e l       .debug_str	00000000 
00000129 l       .debug_str	00000000 
00000134 l       .debug_str	00000000 
00000141 l       .debug_str	00000000 
0000014d l       .debug_str	00000000 
0000015a l       .debug_str	00000000 
00000168 l       .debug_str	00000000 
00000172 l       .debug_str	00000000 
0000017f l       .debug_str	00000000 
0000018b l       .debug_str	00000000 
0000018f l       .debug_str	00000000 
00000192 l       .debug_str	00000000 
00000195 l       .debug_str	00000000 
0000019a l       .debug_str	00000000 
000001a0 l       .debug_str	00000000 
000001a7 l       .debug_str	00000000 
000001af l       .debug_str	00000000 
000001b9 l       .debug_str	00000000 
000001bc l       .debug_str	00000000 
000001c0 l       .debug_str	00000000 
000001c7 l       .debug_str	00000000 
000001cb l       .debug_str	00000000 
000001cf l       .debug_str	00000000 
000001d2 l       .debug_str	00000000 
000001d4 l       .debug_str	00000000 
000001d6 l       .debug_str	00000000 
000001fe l       .debug_str	00000000 
00000205 l       .debug_str	00000000 
00000208 l       .debug_str	00000000 
00000212 l       .debug_str	00000000 
0000021d l       .debug_str	00000000 
00000226 l       .debug_str	00000000 
00000231 l       .debug_str	00000000 
0000023d l       .debug_str	00000000 
00000241 l       .debug_str	00000000 
0000024a l       .debug_str	00000000 
00000251 l       .debug_str	00000000 
00000259 l       .debug_str	00000000 
00000261 l       .debug_str	00000000 
0000026b l       .debug_str	00000000 
00000271 l       .debug_str	00000000 
00000278 l       .debug_str	00000000 
00000282 l       .debug_str	00000000 
00000289 l       .debug_str	00000000 
00000290 l       .debug_str	00000000 
00000295 l       .debug_str	00000000 
000002ac l       .debug_str	00000000 
000002d9 l       .debug_str	00000000 
000002de l       .debug_str	00000000 
00000313 l       .debug_str	00000000 
00000319 l       .debug_str	00000000 
0000031f l       .debug_str	00000000 
0000032e l       .debug_str	00000000 
0000033e l       .debug_str	00000000 
0000034e l       .debug_str	00000000 
00000356 l       .debug_str	00000000 
0000037f l       .debug_str	00000000 
000003dd l       .debug_str	00000000 
00000443 l       .debug_str	00000000 
0000044a l       .debug_str	00000000 
00000452 l       .debug_str	00000000 
0000045b l       .debug_str	00000000 
00000479 l       .debug_str	00000000 
00000489 l       .debug_str	00000000 
00000497 l       .debug_str	00000000 
000004a2 l       .debug_str	00000000 
000004af l       .debug_str	00000000 
000004be l       .debug_str	00000000 
000004c8 l       .debug_str	00000000 
000004de l       .debug_str	00000000 
000004e8 l       .debug_str	00000000 
000004f1 l       .debug_str	00000000 
000004fa l       .debug_str	00000000 
00000520 l       .debug_str	00000000 
00000536 l       .debug_str	00000000 
00000541 l       .debug_str	00000000 
00000557 l       .debug_str	00000000 
0000055f l       .debug_str	00000000 
00000580 l       .debug_str	00000000 
00000589 l       .debug_str	00000000 
00000592 l       .debug_str	00000000 
0000059d l       .debug_str	00000000 
000005a7 l       .debug_str	00000000 
000005ad l       .debug_str	00000000 
000005e5 l       .debug_str	00000000 
00000625 l       .debug_str	00000000 
0000062c l       .debug_str	00000000 
00000634 l       .debug_str	00000000 
0000064b l       .debug_str	00000000 
00000654 l       .debug_str	00000000 
00000676 l       .debug_str	00000000 
00000680 l       .debug_str	00000000 
000006a7 l       .debug_str	00000000 
000006bf l       .debug_str	00000000 
000006c9 l       .debug_str	00000000 
000006ec l       .debug_str	00000000 
00000734 l       .debug_str	00000000 
00000774 l       .debug_str	00000000 
000007bb l       .debug_str	00000000 
000007c0 l       .debug_str	00000000 
000007c4 l       .debug_str	00000000 
000007cd l       .debug_str	00000000 
000007d4 l       .debug_str	00000000 
000007da l       .debug_str	00000000 
000007df l       .debug_str	00000000 
000007e1 l       .debug_str	00000000 
000007e3 l       .debug_str	00000000 
000007e7 l       .debug_str	00000000 
000007f0 l       .debug_str	00000000 
000007f4 l       .debug_str	00000000 
0000081e l       .debug_str	00000000 
00000823 l       .debug_str	00000000 
00000863 l       .debug_str	00000000 
0000088a l       .debug_str	00000000 
0000088f l       .debug_str	00000000 
00000891 l       .debug_str	00000000 
000008a3 l       .debug_str	00000000 
000008a9 l       .debug_str	00000000 
000008ae l       .debug_str	00000000 
000008b6 l       .debug_str	00000000 
000008ba l       .debug_str	00000000 
000008c2 l       .debug_str	00000000 
000008ca l       .debug_str	00000000 
000008d1 l       .debug_str	00000000 
000008e5 l       .debug_str	00000000 
000008f1 l       .debug_str	00000000 
000008f6 l       .debug_str	00000000 
000008fe l       .debug_str	00000000 
00000905 l       .debug_str	00000000 
00000911 l       .debug_str	00000000 
00000919 l       .debug_str	00000000 
00000922 l       .debug_str	00000000 
00000927 l       .debug_str	00000000 
0000092a l       .debug_str	00000000 
00000933 l       .debug_str	00000000 
0000093a l       .debug_str	00000000 
0000093f l       .debug_str	00000000 
00000944 l       .debug_str	00000000 
0000094a l       .debug_str	00000000 
00000950 l       .debug_str	00000000 
0000095a l       .debug_str	00000000 
0000095d l       .debug_str	00000000 
00000963 l       .debug_str	00000000 
0000096d l       .debug_str	00000000 
00000975 l       .debug_str	00000000 
0000097b l       .debug_str	00000000 
00000981 l       .debug_str	00000000 
0000098c l       .debug_str	00000000 
00000995 l       .debug_str	00000000 
000009b8 l       .debug_str	00000000 
000009d7 l       .debug_str	00000000 
000009fe l       .debug_str	00000000 
00000a03 l       .debug_str	00000000 
00000a09 l       .debug_str	00000000 
00000a0f l       .debug_str	00000000 
00000a1e l       .debug_str	00000000 
00000a25 l       .debug_str	00000000 
00000a29 l       .debug_str	00000000 
00000a32 l       .debug_str	00000000 
00000a3e l       .debug_str	00000000 
00000a57 l       .debug_str	00000000 
00000a5c l       .debug_str	00000000 
00000a6d l       .debug_str	00000000 
00000a77 l       .debug_str	00000000 
00000a85 l       .debug_str	00000000 
00000a89 l       .debug_str	00000000 
00000a94 l       .debug_str	00000000 
00000a9b l       .debug_str	00000000 
00000aa1 l       .debug_str	00000000 
00000aa5 l       .debug_str	00000000 
00000aa9 l       .debug_str	00000000 
00000ab1 l       .debug_str	00000000 
00000ac8 l       .debug_str	00000000 
00000aec l       .debug_str	00000000 
00000b08 l       .debug_str	00000000 
00000b12 l       .debug_str	00000000 
00000b2c l       .debug_str	00000000 
00000b8a l       .debug_str	00000000 
00000b95 l       .debug_str	00000000 
00000bb2 l       .debug_str	00000000 
00000bcb l       .debug_str	00000000 
00000bd5 l       .debug_str	00000000 
00000beb l       .debug_str	00000000 
00000c09 l       .debug_str	00000000 
00000c12 l       .debug_str	00000000 
00000c17 l       .debug_str	00000000 
00000c1c l       .debug_str	00000000 
00000c20 l       .debug_str	00000000 
00000c29 l       .debug_str	00000000 
00000c33 l       .debug_str	00000000 
00000000 l     O .rodata..Lanon.3ed011473997af99b525cde47c9eaaac.0	00000013 .Lanon.3ed011473997af99b525cde47c9eaaac.0
00000000 l     O .rodata..Lanon.3ed011473997af99b525cde47c9eaaac.1	00000056 .Lanon.3ed011473997af99b525cde47c9eaaac.1
00000000 l     O .rodata..Lanon.3ed011473997af99b525cde47c9eaaac.10	00000001 .Lanon.3ed011473997af99b525cde47c9eaaac.10
00000000 l     O .rodata..Lanon.3ed011473997af99b525cde47c9eaaac.2	00000018 .Lanon.3ed011473997af99b525cde47c9eaaac.2
00000000 l     O .rodata.cst8	00000008 .Lanon.3ed011473997af99b525cde47c9eaaac.3
00000008 l     O .rodata.cst8	00000008 .Lanon.3ed011473997af99b525cde47c9eaaac.4
00000010 l     O .rodata.cst8	00000008 .Lanon.3ed011473997af99b525cde47c9eaaac.5
00000000 l     O .rodata..Lanon.3ed011473997af99b525cde47c9eaaac.6	00000006 .Lanon.3ed011473997af99b525cde47c9eaaac.6
00000000 l     O .rodata..Lanon.3ed011473997af99b525cde47c9eaaac.7	00000007 .Lanon.3ed011473997af99b525cde47c9eaaac.7
00000000 l     O .rodata..Lanon.3ed011473997af99b525cde47c9eaaac.8	00000003 .Lanon.3ed011473997af99b525cde47c9eaaac.8
00000000 l     O .rodata..Lanon.3ed011473997af99b525cde47c9eaaac.9	00000006 .Lanon.3ed011473997af99b525cde47c9eaaac.9
00000000 l       .debug_line	00000000 .Lline_table_start0
00000000 l     F .text._ZN4core6result19Result$LT$T$C$E$GT$6expect17hf6762f1046b9fc1dE	00000028 core::result::Result<T,E>::expect
00000000 l    d  .debug_abbrev	00000000 .debug_abbrev
00000000         *UND*	00000000 .hidden app::app_sensor::start_sensor_listener
00000000         *UND*	00000000 core::panic::Location::file
00000000         *UND*	00000000 core::panic::Location::line
00000000         *UND*	00000000 core::panic::PanicInfo::location
00000000         *UND*	00000000 core::result::unwrap_failed
00000000         *UND*	00000000 core::panicking::panic
00000000         *UND*	00000000 mynewt::sys::console::flush
00000000         *UND*	00000000 mynewt::sys::console::print
00000000         *UND*	00000000 mynewt::sys::console::buffer
00000000         *UND*	00000000 mynewt::sys::console::printint
00000000         *UND*	00000000 mynewt::kernel::os::eventq_run
00000000         *UND*	00000000 mynewt::kernel::os::eventq_dflt_get
00000000         *UND*	00000000 mynewt::sysinit
00000000         *UND*	00000000 abort
00000000 g     F .text.main	0000007a main
00000000 g     F .text.rust_begin_unwind	000000bc rust_begin_unwind



Disassembly of section .text._ZN4core6result19Result$LT$T$C$E$GT$6expect17hf6762f1046b9fc1dE:

00000000 <core::result::Result<T,E>::expect>:
_ZN4core6result19Result$LT$T$C$E$GT$6expect17hf6762f1046b9fc1dE():
/rustc/50a0defd5a93523067ef239936cc2e0755220904/src/libcore/result.rs:824
   0:	1141                	addi	sp,sp,-16
/rustc/50a0defd5a93523067ef239936cc2e0755220904/src/libcore/result.rs:1
   2:	c606                	sw	ra,12(sp)
   4:	862a                	mv	a2,a0
   6:	4505                	li	a0,1
/rustc/50a0defd5a93523067ef239936cc2e0755220904/src/libcore/result.rs:826
   8:	00a61563          	bne	a2,a0,12 <core::result::Result<T,E>::expect+0x12>
/rustc/50a0defd5a93523067ef239936cc2e0755220904/src/libcore/result.rs:829
   c:	40b2                	lw	ra,12(sp)
   e:	0141                	addi	sp,sp,16
  10:	8082                	ret
  12:	46a1                	li	a3,8
/rustc/50a0defd5a93523067ef239936cc2e0755220904/src/libcore/result.rs:827
  14:	852e                	mv	a0,a1
  16:	85b6                	mv	a1,a3
  18:	00000097          	auipc	ra,0x0
  1c:	000080e7          	jalr	ra # 18 <core::result::Result<T,E>::expect+0x18>
  20:	00000097          	auipc	ra,0x0
  24:	000080e7          	jalr	ra # 20 <core::result::Result<T,E>::expect+0x20>

Disassembly of section .text.main:

00000000 <main>:
main():
/Users/Luppy/mynewt/stm32bluepill-mynewt-sensor/rust/app/src/lib.rs:53
};

///  Main program that initialises the sensor, network driver and starts reading and sending sensor data in the background.
///  main() will be called at Mynewt startup. It replaces the C version of the main() function.
#[no_mangle]                 //  Don't mangle the name "main"
extern "C" fn main() -> ! {  //  Declare extern "C" because it will be called by Mynewt
   0:	1101                	addi	sp,sp,-32
/Users/Luppy/mynewt/stm32bluepill-mynewt-sensor/rust/app/src/lib.rs:58
    //  Initialise the Mynewt packages and internal temperature sensor driver. Any startup
    //  functions defined in pkg.yml of our custom drivers and libraries will be called by 
    //  sysinit().  Here are the startup functions consolidated by Mynewt:
    //  bin/targets/nrf52_my_sensor/generated/src/nrf52_my_sensor-sysinit-app.c
    mynewt::sysinit();
   2:	ce06                	sw	ra,28(sp)
   4:	cc26                	sw	s1,24(sp)
   6:	ca4a                	sw	s2,20(sp)
   8:	c84e                	sw	s3,16(sp)
   a:	00000097          	auipc	ra,0x0
   e:	000080e7          	jalr	ra # a <main+0xa>
/Users/Luppy/mynewt/stm32bluepill-mynewt-sensor/rust/app/src/lib.rs:65
    //  Start the Server Transport for sending sensor data to CoAP Server over NB-IoT.
    //sensor_network::start_server_transport()
        //.expect("NET fail");

    //  Start polling the temperature sensor every 10 seconds in the background.
    app_sensor::start_sensor_listener()
  12:	00000097          	auipc	ra,0x0
  16:	000080e7          	jalr	ra # 12 <main+0x12>
  1a:	000005b7          	lui	a1,0x0
  1e:	00058593          	mv	a1,a1
  22:	00000097          	auipc	ra,0x0
  26:	000080e7          	jalr	ra # 22 <main+0x22>
  2a:	00810913          	addi	s2,sp,8
  2e:	4985                	li	s3,1
  30:	00000537          	lui	a0,0x0
  34:	00050493          	mv	s1,a0
  38:	a819                	j	4e <main+0x4e>
_ZN4core6result19Result$LT$T$C$E$GT$6expect17h56ba2244a6f0a4d4E():
/rustc/50a0defd5a93523067ef239936cc2e0755220904/src/libcore/result.rs:826
  3a:	4532                	lw	a0,12(sp)
main():
/Users/Luppy/mynewt/stm32bluepill-mynewt-sensor/rust/app/src/lib.rs:79
    //  let rc = unsafe { start_mesh() };
    //  assert!(rc == 0, "BLE fail");

    //  Main event loop
    loop {                            //  Loop forever...
        os::eventq_run(               //  Processing events...
  3c:	00000097          	auipc	ra,0x0
  40:	000080e7          	jalr	ra # 3c <main+0x3c>
  44:	85a6                	mv	a1,s1
  46:	00000097          	auipc	ra,0x0
  4a:	000080e7          	jalr	ra # 46 <main+0x46>
/Users/Luppy/mynewt/stm32bluepill-mynewt-sensor/rust/app/src/lib.rs:80
            os::eventq_dflt_get()     //  From default event queue.
  4e:	854a                	mv	a0,s2
  50:	00000097          	auipc	ra,0x0
  54:	000080e7          	jalr	ra # 50 <main+0x50>
_ZN4core6result19Result$LT$T$C$E$GT$6expect17h56ba2244a6f0a4d4E():
/rustc/50a0defd5a93523067ef239936cc2e0755220904/src/libcore/result.rs:826
  58:	4522                	lw	a0,8(sp)
  5a:	ff3510e3          	bne	a0,s3,3a <main+0x3a>
/rustc/50a0defd5a93523067ef239936cc2e0755220904/src/libcore/result.rs:827
  5e:	4632                	lw	a2,12(sp)
  60:	00000537          	lui	a0,0x0
  64:	00050513          	mv	a0,a0
  68:	45a1                	li	a1,8
  6a:	00000097          	auipc	ra,0x0
  6e:	000080e7          	jalr	ra # 6a <main+0x6a>
  72:	00000097          	auipc	ra,0x0
  76:	000080e7          	jalr	ra # 72 <main+0x72>

Disassembly of section .text.rust_begin_unwind:

00000000 <rust_begin_unwind>:
rust_begin_unwind():
/Users/Luppy/mynewt/stm32bluepill-mynewt-sensor/rust/app/src/lib.rs:89
    //  Never comes here
}

///  This function is called on panic, like an assertion failure. We display the filename and line number and pause in the debugger. From https://os.phil-opp.com/freestanding-rust-binary/
#[panic_handler]
fn panic(info: &PanicInfo) -> ! {
   0:	1141                	addi	sp,sp,-16
/Users/Luppy/mynewt/stm32bluepill-mynewt-sensor/rust/app/src/lib.rs:1
/*
   2:	c606                	sw	ra,12(sp)
   4:	c426                	sw	s1,8(sp)
   6:	c24a                	sw	s2,4(sp)
   8:	c04e                	sw	s3,0(sp)
   a:	84aa                	mv	s1,a0
/Users/Luppy/mynewt/stm32bluepill-mynewt-sensor/rust/app/src/lib.rs:91
    //  Display the filename and line number to the Semihosting Console.
    console::print("panic ");
   c:	00000537          	lui	a0,0x0
  10:	00050513          	mv	a0,a0
  14:	4599                	li	a1,6
  16:	00000097          	auipc	ra,0x0
  1a:	000080e7          	jalr	ra # 16 <rust_begin_unwind+0x16>
/Users/Luppy/mynewt/stm32bluepill-mynewt-sensor/rust/app/src/lib.rs:92
    if let Some(location) = info.location() {
  1e:	8526                	mv	a0,s1
  20:	00000097          	auipc	ra,0x0
  24:	000080e7          	jalr	ra # 20 <rust_begin_unwind+0x20>
  28:	e519                	bnez	a0,36 <rust_begin_unwind+0x36>
/Users/Luppy/mynewt/stm32bluepill-mynewt-sensor/rust/app/src/lib.rs:99
        let line = location.line();
        console::print("at ");       console::buffer(&file);
        console::print(" line ");    console::printint(line as i32);
        console::print("\n");        console::flush();
    } else {
        console::print("no loc\n");  console::flush();
  2a:	00000537          	lui	a0,0x0
  2e:	00050513          	mv	a0,a0
  32:	459d                	li	a1,7
  34:	a085                	j	94 <rust_begin_unwind+0x94>
  36:	84aa                	mv	s1,a0
/Users/Luppy/mynewt/stm32bluepill-mynewt-sensor/rust/app/src/lib.rs:93
        let file = location.file();
  38:	00000097          	auipc	ra,0x0
  3c:	000080e7          	jalr	ra # 38 <rust_begin_unwind+0x38>
  40:	892a                	mv	s2,a0
  42:	89ae                	mv	s3,a1
/Users/Luppy/mynewt/stm32bluepill-mynewt-sensor/rust/app/src/lib.rs:94
        let line = location.line();
  44:	8526                	mv	a0,s1
  46:	00000097          	auipc	ra,0x0
  4a:	000080e7          	jalr	ra # 46 <rust_begin_unwind+0x46>
  4e:	84aa                	mv	s1,a0
/Users/Luppy/mynewt/stm32bluepill-mynewt-sensor/rust/app/src/lib.rs:95
        console::print("at ");       console::buffer(&file);
  50:	00000537          	lui	a0,0x0
  54:	00050513          	mv	a0,a0
  58:	458d                	li	a1,3
  5a:	00000097          	auipc	ra,0x0
  5e:	000080e7          	jalr	ra # 5a <rust_begin_unwind+0x5a>
  62:	854a                	mv	a0,s2
  64:	85ce                	mv	a1,s3
  66:	00000097          	auipc	ra,0x0
  6a:	000080e7          	jalr	ra # 66 <rust_begin_unwind+0x66>
/Users/Luppy/mynewt/stm32bluepill-mynewt-sensor/rust/app/src/lib.rs:96
        console::print(" line ");    console::printint(line as i32);
  6e:	00000537          	lui	a0,0x0
  72:	00050513          	mv	a0,a0
  76:	4599                	li	a1,6
  78:	00000097          	auipc	ra,0x0
  7c:	000080e7          	jalr	ra # 78 <rust_begin_unwind+0x78>
  80:	8526                	mv	a0,s1
  82:	00000097          	auipc	ra,0x0
  86:	000080e7          	jalr	ra # 82 <rust_begin_unwind+0x82>
/Users/Luppy/mynewt/stm32bluepill-mynewt-sensor/rust/app/src/lib.rs:97
        console::print("\n");        console::flush();
  8a:	00000537          	lui	a0,0x0
  8e:	00050513          	mv	a0,a0
  92:	4585                	li	a1,1
  94:	00000097          	auipc	ra,0x0
  98:	000080e7          	jalr	ra # 94 <rust_begin_unwind+0x94>
  9c:	00000097          	auipc	ra,0x0
  a0:	000080e7          	jalr	ra # 9c <rust_begin_unwind+0x9c>
_ZN8cortex_m3asm4bkpt17h713dffc21d2e2245E():
/Users/Luppy/mynewt/stm32bluepill-mynewt-sensor/<::core::macros::panic macros>:3
  a4:	00000537          	lui	a0,0x0
  a8:	00050513          	mv	a0,a0
  ac:	00000097          	auipc	ra,0x0
  b0:	000080e7          	jalr	ra # ac <rust_begin_unwind+0xac>
  b4:	00000097          	auipc	ra,0x0
  b8:	000080e7          	jalr	ra # b4 <rust_begin_unwind+0xb4>

app-bfe911c41f7ee229.3q6oxdh480yztqy0.rcgu.o:     file format elf32-littleriscv

SYMBOL TABLE:
00000000 l    df *ABS*	00000000 3q6oxdh480yztqy0
00000000 l       .debug_ranges	00000000 
00000000 l       .text._ZN3app10app_sensor21start_sensor_listener17h74ecb44b73629867E	00000000 
0000004c l       .text._ZN3app10app_sensor21start_sensor_listener17h74ecb44b73629867E	00000000 
0000007e l       .text._ZN3app10app_sensor21start_sensor_listener17h74ecb44b73629867E	00000000 
0000009c l       .text._ZN3app10app_sensor21start_sensor_listener17h74ecb44b73629867E	00000000 
000000aa l       .text._ZN3app10app_sensor21start_sensor_listener17h74ecb44b73629867E	00000000 
000000de l       .text._ZN3app10app_sensor21start_sensor_listener17h74ecb44b73629867E	00000000 
00000071 l       .debug_loc	00000000 
00000084 l       .debug_loc	00000000 
00000000 l       .debug_info	00000000 
00000000 l       .text._ZN3app10app_sensor21start_sensor_listener17h74ecb44b73629867E	00000000 
00000000 l       .debug_str	00000000 
00000041 l       .debug_str	00000000 
00000055 l       .debug_str	00000000 
00000085 l       .debug_str	00000000 
00000089 l       .debug_str	00000000 
00000094 l       .debug_str	00000000 
000000a2 l       .debug_str	00000000 
000000a9 l       .debug_str	00000000 
000000ad l       .debug_str	00000000 
000000b0 l       .debug_str	00000000 
000000b8 l       .debug_str	00000000 
000000bc l       .debug_str	00000000 
000000c5 l       .debug_str	00000000 
000000cf l       .debug_str	00000000 
000000d6 l       .debug_str	00000000 
000000dc l       .debug_str	00000000 
000000e2 l       .debug_str	00000000 
000000e7 l       .debug_str	00000000 
000000ef l       .debug_str	00000000 
000000f4 l       .debug_str	00000000 
0000012b l       .debug_str	00000000 
00000130 l       .debug_str	00000000 
00000134 l       .debug_str	00000000 
0000013f l       .debug_str	00000000 
0000014a l       .debug_str	00000000 
00000151 l       .debug_str	00000000 
00000158 l       .debug_str	00000000 
0000015c l       .debug_str	00000000 
00000164 l       .debug_str	00000000 
0000016f l       .debug_str	00000000 
0000017a l       .debug_str	00000000 
00000187 l       .debug_str	00000000 
00000192 l       .debug_str	00000000 
0000019a l       .debug_str	00000000 
000001a5 l       .debug_str	00000000 
000001b0 l       .debug_str	00000000 
000001ba l       .debug_str	00000000 
000001c5 l       .debug_str	00000000 
000001d0 l       .debug_str	00000000 
000001dd l       .debug_str	00000000 
000001e9 l       .debug_str	00000000 
000001f6 l       .debug_str	00000000 
00000204 l       .debug_str	00000000 
0000020e l       .debug_str	00000000 
0000021b l       .debug_str	00000000 
00000227 l       .debug_str	00000000 
0000022e l       .debug_str	00000000 
00000232 l       .debug_str	00000000 
00000237 l       .debug_str	00000000 
0000023a l       .debug_str	00000000 
00000241 l       .debug_str	00000000 
0000024a l       .debug_str	00000000 
00000250 l       .debug_str	00000000 
00000257 l       .debug_str	00000000 
0000025a l       .debug_str	00000000 
00000266 l       .debug_str	00000000 
0000026e l       .debug_str	00000000 
00000285 l       .debug_str	00000000 
000002df l       .debug_str	00000000 
000002e1 l       .debug_str	00000000 
000002e6 l       .debug_str	00000000 
00000348 l       .debug_str	00000000 
00000353 l       .debug_str	00000000 
0000039a l       .debug_str	00000000 
000003e9 l       .debug_str	00000000 
000003f3 l       .debug_str	00000000 
00000430 l       .debug_str	00000000 
00000475 l       .debug_str	00000000 
0000047e l       .debug_str	00000000 
0000048e l       .debug_str	00000000 
00000496 l       .debug_str	00000000 
000004eb l       .debug_str	00000000 
00000548 l       .debug_str	00000000 
00000554 l       .debug_str	00000000 
0000055d l       .debug_str	00000000 
00000569 l       .debug_str	00000000 
00000575 l       .debug_str	00000000 
0000057e l       .debug_str	00000000 
00000586 l       .debug_str	00000000 
0000058e l       .debug_str	00000000 
00000598 l       .debug_str	00000000 
000005ad l       .debug_str	00000000 
000005b4 l       .debug_str	00000000 
000005d4 l       .debug_str	00000000 
000005db l       .debug_str	00000000 
000005e3 l       .debug_str	00000000 
000005ed l       .debug_str	00000000 
000005f8 l       .debug_str	00000000 
00000601 l       .debug_str	00000000 
0000060c l       .debug_str	00000000 
00000618 l       .debug_str	00000000 
0000061c l       .debug_str	00000000 
00000625 l       .debug_str	00000000 
0000062c l       .debug_str	00000000 
00000634 l       .debug_str	00000000 
0000063c l       .debug_str	00000000 
00000646 l       .debug_str	00000000 
0000064c l       .debug_str	00000000 
00000653 l       .debug_str	00000000 
0000065a l       .debug_str	00000000 
00000687 l       .debug_str	00000000 
000006bc l       .debug_str	00000000 
000006c2 l       .debug_str	00000000 
000006c8 l       .debug_str	00000000 
000006d7 l       .debug_str	00000000 
000006e7 l       .debug_str	00000000 
000006f7 l       .debug_str	00000000 
000006ff l       .debug_str	00000000 
00000728 l       .debug_str	00000000 
00000786 l       .debug_str	00000000 
000007ec l       .debug_str	00000000 
000007f3 l       .debug_str	00000000 
000007fb l       .debug_str	00000000 
00000804 l       .debug_str	00000000 
00000822 l       .debug_str	00000000 
00000832 l       .debug_str	00000000 
00000840 l       .debug_str	00000000 
0000084b l       .debug_str	00000000 
00000858 l       .debug_str	00000000 
00000867 l       .debug_str	00000000 
0000087d l       .debug_str	00000000 
00000887 l       .debug_str	00000000 
00000890 l       .debug_str	00000000 
00000899 l       .debug_str	00000000 
000008bf l       .debug_str	00000000 
000008d5 l       .debug_str	00000000 
000008e0 l       .debug_str	00000000 
000008f6 l       .debug_str	00000000 
000008fe l       .debug_str	00000000 
0000091f l       .debug_str	00000000 
00000936 l       .debug_str	00000000 
0000093b l       .debug_str	00000000 
00000943 l       .debug_str	00000000 
0000094c l       .debug_str	00000000 
00000955 l       .debug_str	00000000 
0000095e l       .debug_str	00000000 
00000966 l       .debug_str	00000000 
0000096a l       .debug_str	00000000 
00000971 l       .debug_str	00000000 
0000097d l       .debug_str	00000000 
00000988 l       .debug_str	00000000 
00000990 l       .debug_str	00000000 
00000998 l       .debug_str	00000000 
00000a14 l       .debug_str	00000000 
00000a98 l       .debug_str	00000000 
00000b94 l       .debug_str	00000000 
00000c98 l       .debug_str	00000000 
00000ca6 l       .debug_str	00000000 
00000cb1 l       .debug_str	00000000 
00000cbb l       .debug_str	00000000 
00000ccf l       .debug_str	00000000 
00000cda l       .debug_str	00000000 
00000d08 l       .debug_str	00000000 
00000d83 l       .debug_str	00000000 
00000e06 l       .debug_str	00000000 
00000e14 l       .debug_str	00000000 
00000e73 l       .debug_str	00000000 
00000eda l       .debug_str	00000000 
00000ef0 l       .debug_str	00000000 
00000f00 l       .debug_str	00000000 
00000f0f l       .debug_str	00000000 
00000f13 l       .debug_str	00000000 
00000f1a l       .debug_str	00000000 
00000f20 l       .debug_str	00000000 
00000f24 l       .debug_str	00000000 
00000f2a l       .debug_str	00000000 
00000f30 l       .debug_str	00000000 
00000f3c l       .debug_str	00000000 
00000f44 l       .debug_str	00000000 
00000f4a l       .debug_str	00000000 
00000f52 l       .debug_str	00000000 
00000f58 l       .debug_str	00000000 
00000f7b l       .debug_str	00000000 
00000f8b l       .debug_str	00000000 
00000fbe l       .debug_str	00000000 
00000ffe l       .debug_str	00000000 
00001046 l       .debug_str	00000000 
0000104a l       .debug_str	00000000 
00001050 l       .debug_str	00000000 
00001056 l       .debug_str	00000000 
0000105c l       .debug_str	00000000 
0000106e l       .debug_str	00000000 
000010a3 l       .debug_str	00000000 
000010e5 l       .debug_str	00000000 
0000112f l       .debug_str	00000000 
00001133 l       .debug_str	00000000 
00001139 l       .debug_str	00000000 
0000113f l       .debug_str	00000000 
00001145 l       .debug_str	00000000 
00001157 l       .debug_str	00000000 
0000118c l       .debug_str	00000000 
000011ce l       .debug_str	00000000 
00001218 l       .debug_str	00000000 
0000121c l       .debug_str	00000000 
00001222 l       .debug_str	00000000 
00001228 l       .debug_str	00000000 
0000122e l       .debug_str	00000000 
00001234 l       .debug_str	00000000 
00001245 l       .debug_str	00000000 
00001279 l       .debug_str	00000000 
000012ba l       .debug_str	00000000 
00001303 l       .debug_str	00000000 
00001308 l       .debug_str	00000000 
0000130d l       .debug_str	00000000 
00001311 l       .debug_str	00000000 
00001317 l       .debug_str	00000000 
0000131d l       .debug_str	00000000 
00001323 l       .debug_str	00000000 
00001334 l       .debug_str	00000000 
00001368 l       .debug_str	00000000 
000013a9 l       .debug_str	00000000 
000013f2 l       .debug_str	00000000 
000013f6 l       .debug_str	00000000 
000013ff l       .debug_str	00000000 
00001410 l       .debug_str	00000000 
00001444 l       .debug_str	00000000 
00001485 l       .debug_str	00000000 
000014ce l       .debug_str	00000000 
000014d3 l       .debug_str	00000000 
000014d7 l       .debug_str	00000000 
000014e0 l       .debug_str	00000000 
000014e7 l       .debug_str	00000000 
000014ef l       .debug_str	00000000 
00001501 l       .debug_str	00000000 
00001536 l       .debug_str	00000000 
00001578 l       .debug_str	00000000 
000015c2 l       .debug_str	00000000 
000015c6 l       .debug_str	00000000 
000015cc l       .debug_str	00000000 
000015d2 l       .debug_str	00000000 
000015d8 l       .debug_str	00000000 
000015de l       .debug_str	00000000 
000015e6 l       .debug_str	00000000 
000015f4 l       .debug_str	00000000 
00001603 l       .debug_str	00000000 
00001614 l       .debug_str	00000000 
0000161f l       .debug_str	00000000 
0000162a l       .debug_str	00000000 
00001635 l       .debug_str	00000000 
0000163c l       .debug_str	00000000 
0000165f l       .debug_str	00000000 
00001671 l       .debug_str	00000000 
000016a6 l       .debug_str	00000000 
000016e8 l       .debug_str	00000000 
00001732 l       .debug_str	00000000 
00001736 l       .debug_str	00000000 
00001740 l       .debug_str	00000000 
00001752 l       .debug_str	00000000 
00001787 l       .debug_str	00000000 
000017c9 l       .debug_str	00000000 
00001813 l       .debug_str	00000000 
00001818 l       .debug_str	00000000 
00001822 l       .debug_str	00000000 
00001834 l       .debug_str	00000000 
00001869 l       .debug_str	00000000 
000018ab l       .debug_str	00000000 
000018f5 l       .debug_str	00000000 
00001909 l       .debug_str	00000000 
0000190d l       .debug_str	00000000 
0000191b l       .debug_str	00000000 
0000192b l       .debug_str	00000000 
00001934 l       .debug_str	00000000 
0000193f l       .debug_str	00000000 
0000194e l       .debug_str	00000000 
00001963 l       .debug_str	00000000 
00001994 l       .debug_str	00000000 
00001a31 l       .debug_str	00000000 
00001ad6 l       .debug_str	00000000 
00001ae1 l       .debug_str	00000000 
00001aea l       .debug_str	00000000 
00001b0b l       .debug_str	00000000 
00001b1e l       .debug_str	00000000 
00001b54 l       .debug_str	00000000 
00001bd7 l       .debug_str	00000000 
00001c62 l       .debug_str	00000000 
00001c7e l       .debug_str	00000000 
00001cca l       .debug_str	00000000 
00001d1e l       .debug_str	00000000 
00001d3b l       .debug_str	00000000 
00001d4f l       .debug_str	00000000 
00001d9b l       .debug_str	00000000 
00001def l       .debug_str	00000000 
00001e05 l       .debug_str	00000000 
00001e19 l       .debug_str	00000000 
00001e60 l       .debug_str	00000000 
00001eaf l       .debug_str	00000000 
00001eb8 l       .debug_str	00000000 
00001ec6 l       .debug_str	00000000 
00001ef7 l       .debug_str	00000000 
00001efd l       .debug_str	00000000 
00001f05 l       .debug_str	00000000 
00001f0c l       .debug_str	00000000 
00001f14 l       .debug_str	00000000 
00001f1f l       .debug_str	00000000 
00001f27 l       .debug_str	00000000 
00001f36 l       .debug_str	00000000 
00001f3a l       .debug_str	00000000 
00001f45 l       .debug_str	00000000 
00001f51 l       .debug_str	00000000 
00001f5c l       .debug_str	00000000 
00001f6d l       .debug_str	00000000 
00001f73 l       .debug_str	00000000 
00001f7b l       .debug_str	00000000 
00001f82 l       .debug_str	00000000 
00001f8c l       .debug_str	00000000 
00001f94 l       .debug_str	00000000 
00001f9c l       .debug_str	00000000 
00001fbe l       .debug_str	00000000 
00001fc9 l       .debug_str	00000000 
00001fd5 l       .debug_str	00000000 
00001fdd l       .debug_str	00000000 
00001fe6 l       .debug_str	00000000 
00001ff1 l       .debug_str	00000000 
00001ff8 l       .debug_str	00000000 
00002003 l       .debug_str	00000000 
0000200e l       .debug_str	00000000 
0000201e l       .debug_str	00000000 
00002028 l       .debug_str	00000000 
0000202e l       .debug_str	00000000 
00002050 l       .debug_str	00000000 
00002088 l       .debug_str	00000000 
000020c8 l       .debug_str	00000000 
000020cf l       .debug_str	00000000 
000020d7 l       .debug_str	00000000 
000020ee l       .debug_str	00000000 
000020f7 l       .debug_str	00000000 
00002107 l       .debug_str	00000000 
00002116 l       .debug_str	00000000 
0000211e l       .debug_str	00000000 
00002125 l       .debug_str	00000000 
0000212d l       .debug_str	00000000 
0000214b l       .debug_str	00000000 
0000215b l       .debug_str	00000000 
0000218e l       .debug_str	00000000 
000021a3 l       .debug_str	00000000 
000021ac l       .debug_str	00000000 
00002209 l       .debug_str	00000000 
0000226e l       .debug_str	00000000 
00002278 l       .debug_str	00000000 
00002288 l       .debug_str	00000000 
0000229d l       .debug_str	00000000 
000022a5 l       .debug_str	00000000 
00002309 l       .debug_str	00000000 
00002375 l       .debug_str	00000000 
0000237c l       .debug_str	00000000 
00002384 l       .debug_str	00000000 
000023a2 l       .debug_str	00000000 
000023b2 l       .debug_str	00000000 
000023e5 l       .debug_str	00000000 
000023fa l       .debug_str	00000000 
0000240d l       .debug_str	00000000 
00002422 l       .debug_str	00000000 
00002429 l       .debug_str	00000000 
0000243e l       .debug_str	00000000 
00002468 l       .debug_str	00000000 
0000249a l       .debug_str	00000000 
000024d6 l       .debug_str	00000000 
00002508 l       .debug_str	00000000 
0000250d l       .debug_str	00000000 
00002511 l       .debug_str	00000000 
00002516 l       .debug_str	00000000 
0000251a l       .debug_str	00000000 
00002523 l       .debug_str	00000000 
00002525 l       .debug_str	00000000 
00002595 l       .debug_str	00000000 
000025ec l       .debug_str	00000000 
000025ef l       .debug_str	00000000 
000025f3 l       .debug_str	00000000 
00002646 l       .debug_str	00000000 
00002685 l       .debug_str	00000000 
0000269b l       .debug_str	00000000 
0000269e l       .debug_str	00000000 
000026c6 l       .debug_str	00000000 
000026ca l       .debug_str	00000000 
00000000 l       .debug_loc	00000000 
00000029 l       .debug_loc	00000000 
0000005e l       .debug_loc	00000000 
00000000 l     O .rodata..Lanon.50097c3a41c34d74aa948b7f95e611d3.0	0000000c .Lanon.50097c3a41c34d74aa948b7f95e611d3.0
00000000 l     O .rodata..Lanon.50097c3a41c34d74aa948b7f95e611d3.3	00000002 .Lanon.50097c3a41c34d74aa948b7f95e611d3.3
00000000 l       .debug_line	00000000 .Lline_table_start0
00000000 l    d  .debug_abbrev	00000000 .debug_abbrev
00000000 g     O .rodata._ZN3app10app_sensor13SENSOR_DEVICE17h1d340860b6988c68E.llvm.12367117549817520198	0000000c .hidden _ZN3app10app_sensor13SENSOR_DEVICE17h1d340860b6988c68E.llvm.12367117549817520198
00000000 g     F .text._ZN3app10app_sensor21start_sensor_listener17h74ecb44b73629867E	000000f8 .hidden app::app_sensor::start_sensor_listener
00000000         *UND*	00000000 .hidden app::app_network::aggregate_sensor_data
00000000         *UND*	00000000 core::option::expect_failed
00000000         *UND*	00000000 mynewt::hw::sensor_mgr::find_bydevname
00000000         *UND*	00000000 mynewt::hw::sensor::register_listener
00000000         *UND*	00000000 mynewt::hw::sensor::new_sensor_listener
00000000         *UND*	00000000 mynewt::hw::sensor::bindings::set_poll_rate_ms
00000000         *UND*	00000000 mynewt::sys::console::print
00000000         *UND*	00000000 <mynewt::hw::sensor_mgr::SensorsByDevname as core::iter::traits::iterator::Iterator>::next
00000000         *UND*	00000000 abort
00000000 g     O .rodata.anon.50097c3a41c34d74aa948b7f95e611d3.1.llvm.12367117549817520198	0000000e .hidden anon.50097c3a41c34d74aa948b7f95e611d3.1.llvm.12367117549817520198
00000000 g     O .rodata.anon.50097c3a41c34d74aa948b7f95e611d3.2.llvm.12367117549817520198	00000006 .hidden anon.50097c3a41c34d74aa948b7f95e611d3.2.llvm.12367117549817520198
00000000 g     O .rodata.anon.50097c3a41c34d74aa948b7f95e611d3.4.llvm.12367117549817520198	0000000c .hidden anon.50097c3a41c34d74aa948b7f95e611d3.4.llvm.12367117549817520198
00000000         *UND*	00000000 memcpy



Disassembly of section .text._ZN3app10app_sensor21start_sensor_listener17h74ecb44b73629867E:

00000000 <app::app_sensor::start_sensor_listener>:
_ZN3app10app_sensor21start_sensor_listener17h74ecb44b73629867E():
/Users/Luppy/mynewt/stm32bluepill-mynewt-sensor/rust/app/src/app_sensor.rs:46
///  Type of sensor: Raw temperature sensor (integer sensor values 0 to 4095)
const TEMP_SENSOR_TYPE: sensor_type_t = sensor::SENSOR_TYPE_AMBIENT_TEMPERATURE_RAW;

///  Ask Mynewt to poll or read the temperature sensor and call `aggregate_sensor_data()`
///  Return `Ok()` if successful, else return `Err()` with `MynewtError` error code inside.
pub fn start_sensor_listener() -> MynewtResult<()>  {  //  Returns an error code upon error.
   0:	7159                	addi	sp,sp,-112
/Users/Luppy/mynewt/stm32bluepill-mynewt-sensor/rust/app/src/app_sensor.rs:47
    console::print("Rust TMP poll\n");
   2:	d686                	sw	ra,108(sp)
   4:	d4a6                	sw	s1,104(sp)
   6:	d2ca                	sw	s2,100(sp)
   8:	d0ce                	sw	s3,96(sp)
   a:	ced2                	sw	s4,92(sp)
   c:	ccd6                	sw	s5,88(sp)
   e:	00000537          	lui	a0,0x0
  12:	00050513          	mv	a0,a0
  16:	45b9                	li	a1,14
  18:	00000097          	auipc	ra,0x0
  1c:	000080e7          	jalr	ra # 18 <app::app_sensor::start_sensor_listener+0x18>
/Users/Luppy/mynewt/stm32bluepill-mynewt-sensor/rust/app/src/app_sensor.rs:50

    //  Fetch the sensor by name.
    let sensor = sensor_mgr::find_bydevname(&SENSOR_DEVICE)
  20:	00000537          	lui	a0,0x0
  24:	00050493          	mv	s1,a0
  28:	03810913          	addi	s2,sp,56
  2c:	854a                	mv	a0,s2
  2e:	85a6                	mv	a1,s1
  30:	00000097          	auipc	ra,0x0
  34:	000080e7          	jalr	ra # 30 <app::app_sensor::start_sensor_listener+0x30>
  38:	854a                	mv	a0,s2
  3a:	00000097          	auipc	ra,0x0
  3e:	000080e7          	jalr	ra # 3a <app::app_sensor::start_sensor_listener+0x3a>
_ZN4core6option15Option$LT$T$GT$6expect17h284c1638029c4d61E():
/rustc/50a0defd5a93523067ef239936cc2e0755220904/src/libcore/option.rs:313
  42:	cd51                	beqz	a0,de <app::app_sensor::start_sensor_listener+0xde>
_ZN3app10app_sensor21start_sensor_listener17h74ecb44b73629867E():
  44:	892e                	mv	s2,a1
  46:	6509                	lui	a0,0x2
  48:	71050593          	addi	a1,a0,1808 # 2710 <app::app_sensor::start_sensor_listener+0x2710>
/Users/Luppy/mynewt/stm32bluepill-mynewt-sensor/rust/app/src/app_sensor.rs:55
        .next()             //  Fetch the first sensor that matches
        .expect("no TMP");  //  Stop if no sensor found

    //  At power on, we ask Mynewt to poll our temperature sensor every 10 seconds.
    sensor::set_poll_rate_ms(&SENSOR_DEVICE, SENSOR_POLL_TIME) ? ;
  4c:	8526                	mv	a0,s1
  4e:	00000097          	auipc	ra,0x0
  52:	000080e7          	jalr	ra # 4e <app::app_sensor::start_sensor_listener+0x4e>
  56:	84aa                	mv	s1,a0
  58:	4a85                	li	s5,1
  5a:	07551963          	bne	a0,s5,cc <app::app_sensor::start_sensor_listener+0xcc>
/Users/Luppy/mynewt/stm32bluepill-mynewt-sensor/rust/app/src/app_sensor.rs:58

    // Create a sensor listener that will call function `aggregate_sensor_data` after polling the sensor data
    let listener = sensor::new_sensor_listener(
  5e:	00000537          	lui	a0,0x0
  62:	00050593          	mv	a1,a0
  66:	00000537          	lui	a0,0x0
  6a:	00050713          	mv	a4,a0
  6e:	1828                	addi	a0,sp,56
  70:	04000637          	lui	a2,0x4000
  74:	4681                	li	a3,0
  76:	00000097          	auipc	ra,0x0
  7a:	000080e7          	jalr	ra # 76 <app::app_sensor::start_sensor_listener+0x76>
_ZN73_$LT$core..result..Result$LT$T$C$E$GT$$u20$as$u20$core..ops..try..Try$GT$11into_result17h89f10fb0299f1696E():
/rustc/50a0defd5a93523067ef239936cc2e0755220904/src/libcore/result.rs:1283
  7e:	54f2                	lw	s1,60(sp)
  80:	59e2                	lw	s3,56(sp)
  82:	1008                	addi	a0,sp,32
  84:	008c                	addi	a1,sp,64
  86:	4661                	li	a2,24
  88:	00000097          	auipc	ra,0x0
  8c:	000080e7          	jalr	ra # 88 <app::app_sensor::start_sensor_listener+0x88>
_ZN3app10app_sensor21start_sensor_listener17h74ecb44b73629867E():
/Users/Luppy/mynewt/stm32bluepill-mynewt-sensor/rust/app/src/app_sensor.rs:62
        &TEMP_SENSOR_KEY,   //  Transmit as field: `t`
        TEMP_SENSOR_TYPE,   //  Type of sensor data: Raw temperature (integer from 0 to 4095)
        app_network::aggregate_sensor_data  //  Call this function with the polled data: `aggregate_sensor_data`
    ) ? ;
  90:	03598e63          	beq	s3,s5,cc <app::app_sensor::start_sensor_listener+0xcc>
  94:	00810993          	addi	s3,sp,8
  98:	100c                	addi	a1,sp,32
  9a:	4a61                	li	s4,24
/Users/Luppy/mynewt/stm32bluepill-mynewt-sensor/rust/app/src/app_sensor.rs:58
    let listener = sensor::new_sensor_listener(
  9c:	854e                	mv	a0,s3
  9e:	8652                	mv	a2,s4
  a0:	00000097          	auipc	ra,0x0
  a4:	000080e7          	jalr	ra # a0 <app::app_sensor::start_sensor_listener+0xa0>
  a8:	1824                	addi	s1,sp,56
/Users/Luppy/mynewt/stm32bluepill-mynewt-sensor/rust/app/src/app_sensor.rs:65

    //  Register the Listener Function to be called with the polled sensor data.
    sensor::register_listener(sensor, listener) ? ;  //  `?` means in case of error, return error now.
  aa:	8526                	mv	a0,s1
  ac:	85ce                	mv	a1,s3
  ae:	8652                	mv	a2,s4
  b0:	00000097          	auipc	ra,0x0
  b4:	000080e7          	jalr	ra # b0 <app::app_sensor::start_sensor_listener+0xb0>
  b8:	854a                	mv	a0,s2
  ba:	85a6                	mv	a1,s1
  bc:	00000097          	auipc	ra,0x0
  c0:	000080e7          	jalr	ra # bc <app::app_sensor::start_sensor_listener+0xbc>
  c4:	84aa                	mv	s1,a0
  c6:	01551363          	bne	a0,s5,cc <app::app_sensor::start_sensor_listener+0xcc>
  ca:	84d6                	mv	s1,s5
/Users/Luppy/mynewt/stm32bluepill-mynewt-sensor/rust/app/src/app_sensor.rs:69

    //  Return `Ok()` to indicate success.  This line should not end with a semicolon (;).
    Ok(())
  cc:	8526                	mv	a0,s1
  ce:	4ae6                	lw	s5,88(sp)
  d0:	4a76                	lw	s4,92(sp)
  d2:	5986                	lw	s3,96(sp)
  d4:	5916                	lw	s2,100(sp)
  d6:	54a6                	lw	s1,104(sp)
  d8:	50b6                	lw	ra,108(sp)
  da:	6165                	addi	sp,sp,112
  dc:	8082                	ret
_ZN4core6option15Option$LT$T$GT$6expect17h284c1638029c4d61E():
/rustc/50a0defd5a93523067ef239936cc2e0755220904/src/libcore/option.rs:314
  de:	00000537          	lui	a0,0x0
  e2:	00050513          	mv	a0,a0
  e6:	4599                	li	a1,6
  e8:	00000097          	auipc	ra,0x0
  ec:	000080e7          	jalr	ra # e8 <app::app_sensor::start_sensor_listener+0xe8>
  f0:	00000097          	auipc	ra,0x0
  f4:	000080e7          	jalr	ra # f0 <app::app_sensor::start_sensor_listener+0xf0>

app-bfe911c41f7ee229.3x3f5daqf9giiuet.rcgu.o:     file format elf32-littleriscv

SYMBOL TABLE:
00000000 l    df *ABS*	00000000 3x3f5daqf9giiuet
000002bf l       .debug_str	00000000 
00000000 l       .text._ZN3app11app_network21aggregate_sensor_data17h4779458603976973E	00000000 
0000001c l       .text._ZN3app11app_network21aggregate_sensor_data17h4779458603976973E	00000000 
00000322 l       .debug_str	00000000 
0000032b l       .debug_str	00000000 
00000334 l       .debug_str	00000000 
000003a4 l       .debug_str	00000000 
000003da l       .debug_str	00000000 
0000040c l       .debug_str	00000000 
00000411 l       .debug_str	00000000 
00000481 l       .debug_str	00000000 
000004af l       .debug_str	00000000 
000004d9 l       .debug_str	00000000 
00000519 l       .debug_str	00000000 
0000052f l       .debug_str	00000000 
00000000 l       .debug_loc	00000000 
00000029 l       .debug_loc	00000000 
00000052 l       .debug_loc	00000000 
00000065 l       .debug_loc	00000000 
00000000 l       .debug_info	00000000 
0000003c l       .text._ZN3app11app_network21aggregate_sensor_data17h4779458603976973E	00000000 
0000008a l       .text._ZN3app11app_network21aggregate_sensor_data17h4779458603976973E	00000000 
000000a0 l       .text._ZN3app11app_network21aggregate_sensor_data17h4779458603976973E	00000000 
000000c2 l       .text._ZN3app11app_network21aggregate_sensor_data17h4779458603976973E	00000000 
000000d6 l       .text._ZN3app11app_network21aggregate_sensor_data17h4779458603976973E	00000000 
000000ea l       .text._ZN3app11app_network21aggregate_sensor_data17h4779458603976973E	00000000 
00000358 l       .text._ZN3app11app_network21aggregate_sensor_data17h4779458603976973E	00000000 
00000000 l       .debug_str	00000000 
00000041 l       .debug_str	00000000 
00000055 l       .debug_str	00000000 
00000085 l       .debug_str	00000000 
0000008c l       .debug_str	00000000 
00000093 l       .debug_str	00000000 
00000097 l       .debug_str	00000000 
0000009f l       .debug_str	00000000 
000000aa l       .debug_str	00000000 
000000b5 l       .debug_str	00000000 
000000c2 l       .debug_str	00000000 
000000cd l       .debug_str	00000000 
000000d5 l       .debug_str	00000000 
000000e0 l       .debug_str	00000000 
000000eb l       .debug_str	00000000 
000000f5 l       .debug_str	00000000 
00000100 l       .debug_str	00000000 
0000010b l       .debug_str	00000000 
00000118 l       .debug_str	00000000 
00000124 l       .debug_str	00000000 
00000131 l       .debug_str	00000000 
0000013f l       .debug_str	00000000 
00000149 l       .debug_str	00000000 
00000156 l       .debug_str	00000000 
00000162 l       .debug_str	00000000 
00000166 l       .debug_str	00000000 
00000172 l       .debug_str	00000000 
000001ad l       .debug_str	00000000 
000001be l       .debug_str	00000000 
000001c3 l       .debug_str	00000000 
000001c7 l       .debug_str	00000000 
000001ca l       .debug_str	00000000 
000001ce l       .debug_str	00000000 
000001d1 l       .debug_str	00000000 
000001d3 l       .debug_str	00000000 
000001d5 l       .debug_str	00000000 
000001d9 l       .debug_str	00000000 
00000201 l       .debug_str	00000000 
00000205 l       .debug_str	00000000 
00000208 l       .debug_str	00000000 
0000020f l       .debug_str	00000000 
00000213 l       .debug_str	00000000 
00000217 l       .debug_str	00000000 
0000021a l       .debug_str	00000000 
00000222 l       .debug_str	00000000 
0000022b l       .debug_str	00000000 
00000235 l       .debug_str	00000000 
0000023c l       .debug_str	00000000 
00000242 l       .debug_str	00000000 
00000248 l       .debug_str	00000000 
0000024d l       .debug_str	00000000 
00000255 l       .debug_str	00000000 
0000025a l       .debug_str	00000000 
00000268 l       .debug_str	00000000 
0000026e l       .debug_str	00000000 
00000273 l       .debug_str	00000000 
00000278 l       .debug_str	00000000 
00000288 l       .debug_str	00000000 
0000028c l       .debug_str	00000000 
00000298 l       .debug_str	00000000 
000002b9 l       .debug_str	00000000 
000002bb l       .debug_str	00000000 
00000000 l       .text._ZN3app11app_network21aggregate_sensor_data17h4779458603976973E	00000000 
000002c9 l       .debug_str	00000000 
000002ce l       .debug_str	00000000 
000002d1 l       .debug_str	00000000 
000002df l       .debug_str	00000000 
000002e4 l       .debug_str	00000000 
000002f6 l       .debug_str	00000000 
0000030a l       .debug_str	00000000 
0000030e l       .debug_str	00000000 
00000317 l       .debug_str	00000000 
00000000 l     O .rodata..Lanon.74a4babd0fbf74971aba644ceb0efe3d.0	00000017 .Lanon.74a4babd0fbf74971aba644ceb0efe3d.0
00000000 l     O .rodata..Lanon.74a4babd0fbf74971aba644ceb0efe3d.1	00000001 .Lanon.74a4babd0fbf74971aba644ceb0efe3d.1
00000000 l     O .rodata..Lanon.74a4babd0fbf74971aba644ceb0efe3d.10	00000005 .Lanon.74a4babd0fbf74971aba644ceb0efe3d.10
00000008 l     O .rodata.cst4	00000004 .Lanon.74a4babd0fbf74971aba644ceb0efe3d.11
00000000 l     O .rodata..Lanon.74a4babd0fbf74971aba644ceb0efe3d.12	00000007 .Lanon.74a4babd0fbf74971aba644ceb0efe3d.12
00000000 l     O .rodata..Lanon.74a4babd0fbf74971aba644ceb0efe3d.13	00000006 .Lanon.74a4babd0fbf74971aba644ceb0efe3d.13
00000000 l     O .rodata..Lanon.74a4babd0fbf74971aba644ceb0efe3d.14	00000048 .Lanon.74a4babd0fbf74971aba644ceb0efe3d.14
00000000 l     O .rodata..Lanon.74a4babd0fbf74971aba644ceb0efe3d.2	00000001 .Lanon.74a4babd0fbf74971aba644ceb0efe3d.2
00000000 l     O .rodata..Lanon.74a4babd0fbf74971aba644ceb0efe3d.3	00000001 .Lanon.74a4babd0fbf74971aba644ceb0efe3d.3
00000000 l     O .rodata..Lanon.74a4babd0fbf74971aba644ceb0efe3d.4	00000007 .Lanon.74a4babd0fbf74971aba644ceb0efe3d.4
00000000 l     O .rodata..Lanon.74a4babd0fbf74971aba644ceb0efe3d.5	0000000d .Lanon.74a4babd0fbf74971aba644ceb0efe3d.5
00000000 l     O .rodata..Lanon.74a4babd0fbf74971aba644ceb0efe3d.6	00000003 .Lanon.74a4babd0fbf74971aba644ceb0efe3d.6
00000000 l     O .rodata..Lanon.74a4babd0fbf74971aba644ceb0efe3d.7	00000005 .Lanon.74a4babd0fbf74971aba644ceb0efe3d.7
00000000 l     O .rodata.cst4	00000004 .Lanon.74a4babd0fbf74971aba644ceb0efe3d.8
00000004 l     O .rodata.cst4	00000004 .Lanon.74a4babd0fbf74971aba644ceb0efe3d.9
00000000 l       .debug_line	00000000 .Lline_table_start0
00000000 l    d  .debug_abbrev	00000000 .debug_abbrev
00000000 g     F .text._ZN3app11app_network21aggregate_sensor_data17h4779458603976973E	000003ae .hidden app::app_network::aggregate_sensor_data
00000000         *UND*	00000000 mynewt::sys::console::print_strn
00000000         *UND*	00000000 mynewt::sys::console::flush
00000000         *UND*	00000000 mynewt::sys::console::print
00000000         *UND*	00000000 mynewt::sys::console::printint
00000000         *UND*	00000000 mynewt::Strn::new
00000000         *UND*	00000000 mynewt::libs::sensor_network::prepare_post
00000000         *UND*	00000000 mynewt::libs::sensor_network::get_device_id
00000000         *UND*	00000000 mynewt::libs::sensor_network::do_server_post
00000000         *UND*	00000000 mynewt::libs::sensor_network::init_server_post
00000000         *UND*	00000000 mynewt::encoding::coap_context::CoapContext::key_to_cstr
00000000         *UND*	00000000 mynewt::encoding::coap_context::CoapContext::to_void_ptr
00000000         *UND*	00000000 mynewt::encoding::coap_context::CoapContext::value_to_cstr
00000000         *UND*	00000000 mynewt::encoding::coap_context::CoapContext::json_set_geolocation
00000000         *UND*	00000000 mynewt::encoding::coap_context::CoapContext::json_set_text_string
00000000         *UND*	00000000 mynewt::encoding::coap_context::CoapContext::fail
00000000         *UND*	00000000 mynewt::encoding::coap_context::COAP_CONTEXT
00000000         *UND*	00000000 <str as mynewt::encoding::coap_context::ToBytesOptionalNull>::to_bytes_optional_nul
00000000         *UND*	00000000 <mynewt::Strn as mynewt::encoding::coap_context::ToBytesOptionalNull>::to_bytes_optional_nul
00000000         *UND*	00000000 json_helper_close_array
00000000         *UND*	00000000 json_helper_object_array_end_item
00000000         *UND*	00000000 json_helper_object_array_start_item
00000000         *UND*	00000000 json_helper_set_array
00000000         *UND*	00000000 json_helper_set_int
00000000         *UND*	00000000 json_helper_set_text_string
00000000         *UND*	00000000 json_rep_end_root_object
00000000         *UND*	00000000 json_rep_start_root_object



Disassembly of section .text._ZN3app11app_network21aggregate_sensor_data17h4779458603976973E:

00000000 <app::app_network::aggregate_sensor_data>:
_ZN3app11app_network21aggregate_sensor_data17h4779458603976973E():
/Users/Luppy/mynewt/stm32bluepill-mynewt-sensor/rust/app/src/app_network.rs:59
        send_sensor_data(&transmit_value)
    }
}

#[cfg(not(feature = "use_float"))]  //  If floating-point and geolocation are disabled, send sensor data without geolocation
pub fn aggregate_sensor_data(sensor_value: &SensorValue) -> MynewtResult<()>  {  //  Returns an error code upon error.
   0:	7119                	addi	sp,sp,-128
/Users/Luppy/mynewt/stm32bluepill-mynewt-sensor/rust/app/src/app_network.rs:1
/*
   2:	de86                	sw	ra,124(sp)
   4:	dca6                	sw	s1,120(sp)
   6:	daca                	sw	s2,116(sp)
   8:	d8ce                	sw	s3,112(sp)
   a:	d6d2                	sw	s4,108(sp)
   c:	d4d6                	sw	s5,104(sp)
   e:	d2da                	sw	s6,100(sp)
  10:	d0de                	sw	s7,96(sp)
  12:	cee2                	sw	s8,92(sp)
  14:	cce6                	sw	s9,88(sp)
  16:	caea                	sw	s10,84(sp)
  18:	c8ee                	sw	s11,80(sp)
  1a:	8daa                	mv	s11,a0
_ZN3app11app_network16send_sensor_data17h56c5bce6795c94c8E():
/Users/Luppy/mynewt/stm32bluepill-mynewt-sensor/rust/app/src/app_network.rs:76
///   {"key":"t",      "value":1715, "geo": { "lat": ..., "long": ... }},
///   {"key":"device", "value":"0102030405060708090a0b0c0d0e0f10"}
/// ]}
/// ```
fn send_sensor_data(val: &SensorValue) -> MynewtResult<()>  {  //  Returns an error code upon error.
    console::print("Rust send_sensor_data: ");
  1c:	00000537          	lui	a0,0x0
  20:	00050513          	mv	a0,a0
  24:	45dd                	li	a1,23
  26:	00000097          	auipc	ra,0x0
  2a:	000080e7          	jalr	ra # 26 <app::app_network::aggregate_sensor_data+0x26>
/Users/Luppy/mynewt/stm32bluepill-mynewt-sensor/rust/app/src/app_network.rs:77
    if let SensorValueType::Uint(i) = val.value {
  2e:	004dab03          	lw	s6,4(s11)
  32:	4a85                	li	s5,1
  34:	035b1863          	bne	s6,s5,64 <app::app_network::aggregate_sensor_data+0x64>
  38:	008da483          	lw	s1,8(s11)
/Users/Luppy/mynewt/stm32bluepill-mynewt-sensor/rust/app/src/app_network.rs:78
        console::print_strn(val.key);
  3c:	000da503          	lw	a0,0(s11)
  40:	00000097          	auipc	ra,0x0
  44:	000080e7          	jalr	ra # 40 <app::app_network::aggregate_sensor_data+0x40>
/Users/Luppy/mynewt/stm32bluepill-mynewt-sensor/rust/app/src/app_network.rs:79
        console::print("=");
  48:	00000537          	lui	a0,0x0
  4c:	00050513          	mv	a0,a0
  50:	4585                	li	a1,1
  52:	00000097          	auipc	ra,0x0
  56:	000080e7          	jalr	ra # 52 <app::app_network::aggregate_sensor_data+0x52>
/Users/Luppy/mynewt/stm32bluepill-mynewt-sensor/rust/app/src/app_network.rs:80
        console::printint(i as i32);
  5a:	8526                	mv	a0,s1
  5c:	00000097          	auipc	ra,0x0
  60:	000080e7          	jalr	ra # 5c <app::app_network::aggregate_sensor_data+0x5c>
/Users/Luppy/mynewt/stm32bluepill-mynewt-sensor/rust/app/src/app_network.rs:82
    }
    console::print("\n");
  64:	00000537          	lui	a0,0x0
  68:	00050913          	mv	s2,a0
  6c:	854a                	mv	a0,s2
  6e:	85d6                	mv	a1,s5
  70:	00000097          	auipc	ra,0x0
  74:	000080e7          	jalr	ra # 70 <app::app_network::aggregate_sensor_data+0x70>
/Users/Luppy/mynewt/stm32bluepill-mynewt-sensor/rust/app/src/app_network.rs:83
    console::flush(); ////
  78:	00000097          	auipc	ra,0x0
  7c:	000080e7          	jalr	ra # 78 <app::app_network::aggregate_sensor_data+0x78>
  80:	1008                	addi	a0,sp,32
/Users/Luppy/mynewt/stm32bluepill-mynewt-sensor/rust/app/src/app_network.rs:86

    //  Get a randomly-generated device ID that changes each time we restart the device.
    let device_id = sensor_network::get_device_id() ? ;
  82:	00000097          	auipc	ra,0x0
  86:	000080e7          	jalr	ra # 82 <app::app_network::aggregate_sensor_data+0x82>
_ZN73_$LT$core..result..Result$LT$T$C$E$GT$$u20$as$u20$core..ops..try..Try$GT$11into_result17h71cd768730e11bc2E():
/rustc/50a0defd5a93523067ef239936cc2e0755220904/src/libcore/result.rs:1283
  8a:	5512                	lw	a0,36(sp)
  8c:	5582                	lw	a1,32(sp)
_ZN3app11app_network16send_sensor_data17h56c5bce6795c94c8E():
/Users/Luppy/mynewt/stm32bluepill-mynewt-sensor/rust/app/src/app_network.rs:86
  8e:	01559463          	bne	a1,s5,96 <app::app_network::aggregate_sensor_data+0x96>
  92:	8aaa                	mv	s5,a0
  94:	acf5                	j	390 <app::app_network::aggregate_sensor_data+0x390>
  96:	55b2                	lw	a1,44(sp)
  98:	5622                	lw	a2,40(sp)
  9a:	ca32                	sw	a2,20(sp)
  9c:	c82a                	sw	a0,16(sp)
  9e:	cc2e                	sw	a1,24(sp)
/Users/Luppy/mynewt/stm32bluepill-mynewt-sensor/rust/app/src/app_network.rs:91

    //  Start composing the CoAP Server message with the sensor data in the payload.  This will 
    //  block other tasks from composing and posting CoAP messages (through a semaphore).
    //  We only have 1 memory buffer for composing CoAP messages so it needs to be locked.
    let rc = sensor_network::init_server_post( strn!(()) ) ? ;  //  `strn!(())` means use default CoAP URI in `syscfg.yml`
  a0:	00000537          	lui	a0,0x0
  a4:	00050593          	mv	a1,a0
  a8:	1004                	addi	s1,sp,32
  aa:	8526                	mv	a0,s1
  ac:	8656                	mv	a2,s5
  ae:	00000097          	auipc	ra,0x0
  b2:	000080e7          	jalr	ra # ae <app::app_network::aggregate_sensor_data+0xae>
  b6:	0088                	addi	a0,sp,64
  b8:	85a6                	mv	a1,s1
  ba:	00000097          	auipc	ra,0x0
  be:	000080e7          	jalr	ra # ba <app::app_network::aggregate_sensor_data+0xba>
_ZN73_$LT$core..result..Result$LT$T$C$E$GT$$u20$as$u20$core..ops..try..Try$GT$11into_result17h10d7ec831257f7bfE():
/rustc/50a0defd5a93523067ef239936cc2e0755220904/src/libcore/result.rs:1283
  c2:	4506                	lw	a0,64(sp)
  c4:	0ff57593          	andi	a1,a0,255
_ZN3app11app_network16send_sensor_data17h56c5bce6795c94c8E():
/Users/Luppy/mynewt/stm32bluepill-mynewt-sensor/rust/app/src/app_network.rs:91
  c8:	01559463          	bne	a1,s5,d0 <app::app_network::aggregate_sensor_data+0xd0>
  cc:	4a96                	lw	s5,68(sp)
  ce:	a4c9                	j	390 <app::app_network::aggregate_sensor_data+0x390>
  d0:	65c1                	lui	a1,0x10
  d2:	f0058593          	addi	a1,a1,-256 # ff00 <.Lanon.74a4babd0fbf74971aba644ceb0efe3d.11+0xfef8>
  d6:	8d6d                	and	a0,a0,a1
/Users/Luppy/mynewt/stm32bluepill-mynewt-sensor/rust/app/src/app_network.rs:94

    //  If network transport not ready, tell caller (Sensor Listener) to try again later.
    if !rc { return Err(MynewtError::SYS_EAGAIN); }
  d8:	1a050063          	beqz	a0,278 <app::app_network::aggregate_sensor_data+0x278>
  dc:	1008                	addi	a0,sp,32
  de:	03200593          	li	a1,50
/Users/Luppy/mynewt/stm32bluepill-mynewt-sensor/rust/app/src/app_network.rs:98

    //  Compose the CoAP Payload using the coap!() macro.
    //  Select @json or @cbor To encode CoAP Payload in JSON or CBOR format.
    let _payload = coap!( @json {        
  e2:	00000097          	auipc	ra,0x0
  e6:	000080e7          	jalr	ra # e2 <app::app_network::aggregate_sensor_data+0xe2>
_ZN73_$LT$core..result..Result$LT$T$C$E$GT$$u20$as$u20$core..ops..try..Try$GT$11into_result17h10d7ec831257f7bfE():
/rustc/50a0defd5a93523067ef239936cc2e0755220904/src/libcore/result.rs:1283
  ea:	5502                	lw	a0,32(sp)
  ec:	0ff57513          	andi	a0,a0,255
_ZN3app11app_network16send_sensor_data17h56c5bce6795c94c8E():
/Users/Luppy/mynewt/stm32bluepill-mynewt-sensor/rust/app/src/app_network.rs:98
  f0:	27550963          	beq	a0,s5,362 <app::app_network::aggregate_sensor_data+0x362>
  f4:	00000097          	auipc	ra,0x0
  f8:	000080e7          	jalr	ra # f4 <app::app_network::aggregate_sensor_data+0xf4>
  fc:	00000537          	lui	a0,0x0
 100:	00050993          	mv	s3,a0
 104:	854e                	mv	a0,s3
 106:	00000097          	auipc	ra,0x0
 10a:	000080e7          	jalr	ra # 106 <app::app_network::aggregate_sensor_data+0x106>
 10e:	84aa                	mv	s1,a0
 110:	00000537          	lui	a0,0x0
 114:	00050a13          	mv	s4,a0
 118:	461d                	li	a2,7
 11a:	854e                	mv	a0,s3
 11c:	85d2                	mv	a1,s4
 11e:	00000097          	auipc	ra,0x0
 122:	000080e7          	jalr	ra # 11e <app::app_network::aggregate_sensor_data+0x11e>
 126:	85aa                	mv	a1,a0
 128:	8526                	mv	a0,s1
 12a:	00000097          	auipc	ra,0x0
 12e:	000080e7          	jalr	ra # 12a <app::app_network::aggregate_sensor_data+0x12a>
 132:	140b0563          	beqz	s6,27c <app::app_network::aggregate_sensor_data+0x27c>
 136:	00cda503          	lw	a0,12(s11)
 13a:	c62a                	sw	a0,12(sp)
 13c:	010da503          	lw	a0,16(s11)
 140:	c42a                	sw	a0,8(sp)
 142:	008dad03          	lw	s10,8(s11)
 146:	00000537          	lui	a0,0x0
 14a:	00050b13          	mv	s6,a0
 14e:	4635                	li	a2,13
 150:	854e                	mv	a0,s3
 152:	85da                	mv	a1,s6
 154:	00000097          	auipc	ra,0x0
 158:	000080e7          	jalr	ra # 154 <app::app_network::aggregate_sensor_data+0x154>
 15c:	00000097          	auipc	ra,0x0
 160:	000080e7          	jalr	ra # 15c <app::app_network::aggregate_sensor_data+0x15c>
 164:	00000537          	lui	a0,0x0
 168:	00050513          	mv	a0,a0
 16c:	458d                	li	a1,3
 16e:	00000097          	auipc	ra,0x0
 172:	000080e7          	jalr	ra # 16e <app::app_network::aggregate_sensor_data+0x16e>
 176:	84aa                	mv	s1,a0
 178:	8bae                	mv	s7,a1
 17a:	000da503          	lw	a0,0(s11)
 17e:	00000097          	auipc	ra,0x0
 182:	000080e7          	jalr	ra # 17e <app::app_network::aggregate_sensor_data+0x17e>
 186:	8daa                	mv	s11,a0
 188:	8c2e                	mv	s8,a1
 18a:	854e                	mv	a0,s3
 18c:	00000097          	auipc	ra,0x0
 190:	000080e7          	jalr	ra # 18c <app::app_network::aggregate_sensor_data+0x18c>
 194:	8caa                	mv	s9,a0
 196:	854e                	mv	a0,s3
 198:	85a6                	mv	a1,s1
 19a:	865e                	mv	a2,s7
 19c:	00000097          	auipc	ra,0x0
 1a0:	000080e7          	jalr	ra # 19c <app::app_network::aggregate_sensor_data+0x19c>
 1a4:	84aa                	mv	s1,a0
 1a6:	854e                	mv	a0,s3
 1a8:	85ee                	mv	a1,s11
 1aa:	8662                	mv	a2,s8
 1ac:	00000097          	auipc	ra,0x0
 1b0:	000080e7          	jalr	ra # 1ac <app::app_network::aggregate_sensor_data+0x1ac>
 1b4:	862a                	mv	a2,a0
 1b6:	8566                	mv	a0,s9
 1b8:	85a6                	mv	a1,s1
 1ba:	00000097          	auipc	ra,0x0
 1be:	000080e7          	jalr	ra # 1ba <app::app_network::aggregate_sensor_data+0x1ba>
 1c2:	00000537          	lui	a0,0x0
 1c6:	00050513          	mv	a0,a0
 1ca:	4b95                	li	s7,5
 1cc:	85de                	mv	a1,s7
 1ce:	00000097          	auipc	ra,0x0
 1d2:	000080e7          	jalr	ra # 1ce <app::app_network::aggregate_sensor_data+0x1ce>
 1d6:	84aa                	mv	s1,a0
 1d8:	8c2e                	mv	s8,a1
 1da:	854e                	mv	a0,s3
 1dc:	00000097          	auipc	ra,0x0
 1e0:	000080e7          	jalr	ra # 1dc <app::app_network::aggregate_sensor_data+0x1dc>
 1e4:	8caa                	mv	s9,a0
 1e6:	854e                	mv	a0,s3
 1e8:	85a6                	mv	a1,s1
 1ea:	8662                	mv	a2,s8
 1ec:	00000097          	auipc	ra,0x0
 1f0:	000080e7          	jalr	ra # 1ec <app::app_network::aggregate_sensor_data+0x1ec>
 1f4:	85aa                	mv	a1,a0
 1f6:	8566                	mv	a0,s9
 1f8:	866a                	mv	a2,s10
 1fa:	4681                	li	a3,0
 1fc:	00000097          	auipc	ra,0x0
 200:	000080e7          	jalr	ra # 1fc <app::app_network::aggregate_sensor_data+0x1fc>
 204:	00000537          	lui	a0,0x0
 208:	00050593          	mv	a1,a0
 20c:	03010c13          	addi	s8,sp,48
 210:	4491                	li	s1,4
 212:	8562                	mv	a0,s8
 214:	8626                	mv	a2,s1
 216:	00000097          	auipc	ra,0x0
 21a:	000080e7          	jalr	ra # 216 <app::app_network::aggregate_sensor_data+0x216>
 21e:	00000537          	lui	a0,0x0
 222:	00050593          	mv	a1,a0
 226:	04010c93          	addi	s9,sp,64
 22a:	8566                	mv	a0,s9
 22c:	8626                	mv	a2,s1
 22e:	00000097          	auipc	ra,0x0
 232:	000080e7          	jalr	ra # 22e <app::app_network::aggregate_sensor_data+0x22e>
 236:	00000537          	lui	a0,0x0
 23a:	00050593          	mv	a1,a0
 23e:	1004                	addi	s1,sp,32
 240:	8526                	mv	a0,s1
 242:	865e                	mv	a2,s7
 244:	00000097          	auipc	ra,0x0
 248:	000080e7          	jalr	ra # 244 <app::app_network::aggregate_sensor_data+0x244>
 24c:	854e                	mv	a0,s3
 24e:	85e2                	mv	a1,s8
 250:	8666                	mv	a2,s9
 252:	86a6                	mv	a3,s1
 254:	4732                	lw	a4,12(sp)
 256:	47a2                	lw	a5,8(sp)
 258:	00000097          	auipc	ra,0x0
 25c:	000080e7          	jalr	ra # 258 <app::app_network::aggregate_sensor_data+0x258>
 260:	854e                	mv	a0,s3
 262:	85da                	mv	a1,s6
 264:	4635                	li	a2,13
 266:	00000097          	auipc	ra,0x0
 26a:	000080e7          	jalr	ra # 266 <app::app_network::aggregate_sensor_data+0x266>
 26e:	00000097          	auipc	ra,0x0
 272:	000080e7          	jalr	ra # 26e <app::app_network::aggregate_sensor_data+0x26e>
 276:	a809                	j	288 <app::app_network::aggregate_sensor_data+0x288>
 278:	5ae9                	li	s5,-6
 27a:	aa19                	j	390 <app::app_network::aggregate_sensor_data+0x390>
 27c:	4585                	li	a1,1
 27e:	854e                	mv	a0,s3
 280:	00000097          	auipc	ra,0x0
 284:	000080e7          	jalr	ra # 280 <app::app_network::aggregate_sensor_data+0x280>
 288:	00000537          	lui	a0,0x0
 28c:	00050c13          	mv	s8,a0
 290:	4b35                	li	s6,13
 292:	854e                	mv	a0,s3
 294:	85e2                	mv	a1,s8
 296:	865a                	mv	a2,s6
 298:	00000097          	auipc	ra,0x0
 29c:	000080e7          	jalr	ra # 298 <app::app_network::aggregate_sensor_data+0x298>
 2a0:	00000097          	auipc	ra,0x0
 2a4:	000080e7          	jalr	ra # 2a0 <app::app_network::aggregate_sensor_data+0x2a0>
 2a8:	00000537          	lui	a0,0x0
 2ac:	00050593          	mv	a1,a0
 2b0:	04010b93          	addi	s7,sp,64
 2b4:	4611                	li	a2,4
 2b6:	855e                	mv	a0,s7
 2b8:	00000097          	auipc	ra,0x0
 2bc:	000080e7          	jalr	ra # 2b8 <app::app_network::aggregate_sensor_data+0x2b8>
 2c0:	00000537          	lui	a0,0x0
 2c4:	00050593          	mv	a1,a0
 2c8:	1004                	addi	s1,sp,32
 2ca:	4c9d                	li	s9,7
 2cc:	8526                	mv	a0,s1
 2ce:	8666                	mv	a2,s9
 2d0:	00000097          	auipc	ra,0x0
 2d4:	000080e7          	jalr	ra # 2d0 <app::app_network::aggregate_sensor_data+0x2d0>
 2d8:	854e                	mv	a0,s3
 2da:	85de                	mv	a1,s7
 2dc:	8626                	mv	a2,s1
 2de:	00000097          	auipc	ra,0x0
 2e2:	000080e7          	jalr	ra # 2de <app::app_network::aggregate_sensor_data+0x2de>
 2e6:	00000537          	lui	a0,0x0
 2ea:	00050593          	mv	a1,a0
 2ee:	1004                	addi	s1,sp,32
 2f0:	4619                	li	a2,6
 2f2:	8526                	mv	a0,s1
 2f4:	00000097          	auipc	ra,0x0
 2f8:	000080e7          	jalr	ra # 2f4 <app::app_network::aggregate_sensor_data+0x2f4>
 2fc:	0810                	addi	a2,sp,16
 2fe:	854e                	mv	a0,s3
 300:	85a6                	mv	a1,s1
 302:	00000097          	auipc	ra,0x0
 306:	000080e7          	jalr	ra # 302 <app::app_network::aggregate_sensor_data+0x302>
 30a:	854e                	mv	a0,s3
 30c:	85e2                	mv	a1,s8
 30e:	865a                	mv	a2,s6
 310:	00000097          	auipc	ra,0x0
 314:	000080e7          	jalr	ra # 310 <app::app_network::aggregate_sensor_data+0x310>
 318:	00000097          	auipc	ra,0x0
 31c:	000080e7          	jalr	ra # 318 <app::app_network::aggregate_sensor_data+0x318>
 320:	854e                	mv	a0,s3
 322:	00000097          	auipc	ra,0x0
 326:	000080e7          	jalr	ra # 322 <app::app_network::aggregate_sensor_data+0x322>
 32a:	84aa                	mv	s1,a0
 32c:	854e                	mv	a0,s3
 32e:	85d2                	mv	a1,s4
 330:	8666                	mv	a2,s9
 332:	00000097          	auipc	ra,0x0
 336:	000080e7          	jalr	ra # 332 <app::app_network::aggregate_sensor_data+0x332>
 33a:	85aa                	mv	a1,a0
 33c:	8526                	mv	a0,s1
 33e:	00000097          	auipc	ra,0x0
 342:	000080e7          	jalr	ra # 33e <app::app_network::aggregate_sensor_data+0x33e>
 346:	00000097          	auipc	ra,0x0
 34a:	000080e7          	jalr	ra # 346 <app::app_network::aggregate_sensor_data+0x346>
 34e:	1008                	addi	a0,sp,32
/Users/Luppy/mynewt/stm32bluepill-mynewt-sensor/rust/app/src/app_network.rs:113
    });

    //  Post the CoAP Server message to the CoAP Background Task for transmission.  After posting the
    //  message to the background task, we release a semaphore that unblocks other requests
    //  to compose and post CoAP messages.
    sensor_network::do_server_post() ? ;
 350:	00000097          	auipc	ra,0x0
 354:	000080e7          	jalr	ra # 350 <app::app_network::aggregate_sensor_data+0x350>
_ZN73_$LT$core..result..Result$LT$T$C$E$GT$$u20$as$u20$core..ops..try..Try$GT$11into_result17h10d7ec831257f7bfE():
/rustc/50a0defd5a93523067ef239936cc2e0755220904/src/libcore/result.rs:1283
 358:	5502                	lw	a0,32(sp)
 35a:	0ff57513          	andi	a0,a0,255
_ZN3app11app_network16send_sensor_data17h56c5bce6795c94c8E():
/Users/Luppy/mynewt/stm32bluepill-mynewt-sensor/rust/app/src/app_network.rs:113
 35e:	01551463          	bne	a0,s5,366 <app::app_network::aggregate_sensor_data+0x366>
 362:	5a92                	lw	s5,36(sp)
 364:	a035                	j	390 <app::app_network::aggregate_sensor_data+0x390>
/Users/Luppy/mynewt/stm32bluepill-mynewt-sensor/rust/app/src/app_network.rs:116

    //  Display the URL with the random device ID for viewing the sensor data.
    console::print("NET view your sensor at \nhttps://blue-pill-geolocate.appspot.com?device=");
 366:	00000537          	lui	a0,0x0
 36a:	00050513          	mv	a0,a0
 36e:	04800593          	li	a1,72
 372:	00000097          	auipc	ra,0x0
 376:	000080e7          	jalr	ra # 372 <app::app_network::aggregate_sensor_data+0x372>
 37a:	0808                	addi	a0,sp,16
/Users/Luppy/mynewt/stm32bluepill-mynewt-sensor/rust/app/src/app_network.rs:117
    console::print_strn(&device_id); console::print("\n");
 37c:	00000097          	auipc	ra,0x0
 380:	000080e7          	jalr	ra # 37c <app::app_network::aggregate_sensor_data+0x37c>
 384:	854a                	mv	a0,s2
 386:	85d6                	mv	a1,s5
 388:	00000097          	auipc	ra,0x0
 38c:	000080e7          	jalr	ra # 388 <app::app_network::aggregate_sensor_data+0x388>
_ZN3app11app_network21aggregate_sensor_data17h4779458603976973E():
/Users/Luppy/mynewt/stm32bluepill-mynewt-sensor/rust/app/src/app_network.rs:62
}
 390:	8556                	mv	a0,s5
 392:	4dc6                	lw	s11,80(sp)
 394:	4d56                	lw	s10,84(sp)
 396:	4ce6                	lw	s9,88(sp)
 398:	4c76                	lw	s8,92(sp)
 39a:	5b86                	lw	s7,96(sp)
 39c:	5b16                	lw	s6,100(sp)
 39e:	5aa6                	lw	s5,104(sp)
 3a0:	5a36                	lw	s4,108(sp)
 3a2:	59c6                	lw	s3,112(sp)
 3a4:	5956                	lw	s2,116(sp)
 3a6:	54e6                	lw	s1,120(sp)
 3a8:	50f6                	lw	ra,124(sp)
 3aa:	6109                	addi	sp,sp,128
 3ac:	8082                	ret

app-bfe911c41f7ee229.56yjdrlkdbiscfwf.rcgu.o:     file format elf32-littleriscv

SYMBOL TABLE:
00000000 l    df *ABS*	00000000 56yjdrlkdbiscfwf
00000000 l       .text._ZN50_$LT$T$u20$as$u20$core..convert..From$LT$T$GT$$GT$4from17h81bb72f80ae8fdb5E	00000000 
00000000 l       .text._ZN50_$LT$T$u20$as$u20$core..convert..From$LT$T$GT$$GT$4from17h81bb72f80ae8fdb5E	00000000 
00000000 l       .debug_str	00000000 
00000041 l       .debug_str	00000000 
00000055 l       .debug_str	00000000 
00000085 l       .debug_str	00000000 
0000008c l       .debug_str	00000000 
00000093 l       .debug_str	00000000 
00000097 l       .debug_str	00000000 
0000009f l       .debug_str	00000000 
000000aa l       .debug_str	00000000 
000000b5 l       .debug_str	00000000 
000000c2 l       .debug_str	00000000 
000000cd l       .debug_str	00000000 
000000d5 l       .debug_str	00000000 
000000e0 l       .debug_str	00000000 
000000eb l       .debug_str	00000000 
000000f5 l       .debug_str	00000000 
00000100 l       .debug_str	00000000 
0000010b l       .debug_str	00000000 
00000118 l       .debug_str	00000000 
00000124 l       .debug_str	00000000 
00000131 l       .debug_str	00000000 
0000013f l       .debug_str	00000000 
00000149 l       .debug_str	00000000 
00000156 l       .debug_str	00000000 
00000162 l       .debug_str	00000000 
00000167 l       .debug_str	00000000 
0000016f l       .debug_str	00000000 
00000178 l       .debug_str	00000000 
0000017a l       .debug_str	00000000 
000001cb l       .debug_str	00000000 
000001ed l       .debug_str	00000000 
00000000 l       .debug_info	00000000 
00000000 l       .debug_line	00000000 .Lline_table_start0
00000000 l    d  .debug_abbrev	00000000 .debug_abbrev
00000000 g     F .text._ZN50_$LT$T$u20$as$u20$core..convert..From$LT$T$GT$$GT$4from17h81bb72f80ae8fdb5E	00000002 <T as core::convert::From<T>>::from



Disassembly of section .text._ZN50_$LT$T$u20$as$u20$core..convert..From$LT$T$GT$$GT$4from17h81bb72f80ae8fdb5E:

00000000 <<T as core::convert::From<T>>::from>:
_ZN50_$LT$T$u20$as$u20$core..convert..From$LT$T$GT$$GT$4from17h81bb72f80ae8fdb5E():
/rustc/50a0defd5a93523067ef239936cc2e0755220904/src/libcore/convert.rs:547
   0:	8082                	ret
riscv-none-embed-objdump: rust.metadata.bin: file format not recognized
riscv-none-embed-objdump: app-bfe911c41f7ee229.3bnxveu22bytmy88.rcgu.bc.z: file format not recognized
riscv-none-embed-objdump: app-bfe911c41f7ee229.3q6oxdh480yztqy0.rcgu.bc.z: file format not recognized
riscv-none-embed-objdump: app-bfe911c41f7ee229.3x3f5daqf9giiuet.rcgu.bc.z: file format not recognized
riscv-none-embed-objdump: app-bfe911c41f7ee229.56yjdrlkdbiscfwf.rcgu.bc.z: file format not recognized
