In archive target/thumbv7em-none-eabihf/debug/libapp.rlib:

app-e8778d9de5b9c761.1282ppdusipvebqh.rcgu.o:     file format elf32-littlearm

SYMBOL TABLE:
00000000 l    df *ABS*	00000000 1282ppdusipvebqh
00001e77 l       .debug_str	00000000 
000022a3 l       .debug_str	00000000 
000022a8 l       .debug_str	00000000 
00002352 l       .debug_str	00000000 
00002359 l       .debug_str	00000000 
0000235e l       .debug_str	00000000 
00002362 l       .debug_str	00000000 
00002367 l       .debug_str	00000000 
0000236d l       .debug_str	00000000 
00002372 l       .debug_str	00000000 
00002377 l       .debug_str	00000000 
0000237d l       .debug_str	00000000 
0000238b l       .debug_str	00000000 
00002395 l       .debug_str	00000000 
00002399 l       .debug_str	00000000 
000023a1 l       .debug_str	00000000 
000023a9 l       .debug_str	00000000 
000023b0 l       .debug_str	00000000 
000023c4 l       .debug_str	00000000 
000023d0 l       .debug_str	00000000 
000023db l       .debug_str	00000000 
000023e2 l       .debug_str	00000000 
000023e8 l       .debug_str	00000000 
000023f7 l       .debug_str	00000000 
00002400 l       .debug_str	00000000 
0000240c l       .debug_str	00000000 
00002425 l       .debug_str	00000000 
0000242a l       .debug_str	00000000 
0000243b l       .debug_str	00000000 
00002445 l       .debug_str	00000000 
000024a3 l       .debug_str	00000000 
000024ae l       .debug_str	00000000 
000024cb l       .debug_str	00000000 
000024cf l       .debug_str	00000000 
000024e6 l       .debug_str	00000000 
0000250a l       .debug_str	00000000 
00002526 l       .debug_str	00000000 
0000252b l       .debug_str	00000000 
00002544 l       .debug_str	00000000 
0000254e l       .debug_str	00000000 
00000000 l       .debug_str	00000000 
00000041 l       .debug_str	00000000 
00000055 l       .debug_str	00000000 
00000085 l       .debug_str	00000000 
0000008b l       .debug_str	00000000 
00000092 l       .debug_str	00000000 
00000097 l       .debug_str	00000000 
0000009a l       .debug_str	00000000 
000000a5 l       .debug_str	00000000 
000000ae l       .debug_str	00000000 
000000b3 l       .debug_str	00000000 
000000b8 l       .debug_str	00000000 
000000bf l       .debug_str	00000000 
000000c4 l       .debug_str	00000000 
000000c9 l       .debug_str	00000000 
000000d0 l       .debug_str	00000000 
000000d7 l       .debug_str	00000000 
000000da l       .debug_str	00000000 
000000de l       .debug_str	00000000 
000000e5 l       .debug_str	00000000 
000000e9 l       .debug_str	00000000 
000000ec l       .debug_str	00000000 
000000ef l       .debug_str	00000000 
000000f4 l       .debug_str	00000000 
000000fa l       .debug_str	00000000 
00000101 l       .debug_str	00000000 
00000109 l       .debug_str	00000000 
00000113 l       .debug_str	00000000 
00000117 l       .debug_str	00000000 
00000120 l       .debug_str	00000000 
00000126 l       .debug_str	00000000 
0000012a l       .debug_str	00000000 
00000137 l       .debug_str	00000000 
0000013a l       .debug_str	00000000 
0000013e l       .debug_str	00000000 
00000148 l       .debug_str	00000000 
00000151 l       .debug_str	00000000 
0000015a l       .debug_str	00000000 
0000015e l       .debug_str	00000000 
00000162 l       .debug_str	00000000 
00000164 l       .debug_str	00000000 
0000016b l       .debug_str	00000000 
0000016f l       .debug_str	00000000 
00000176 l       .debug_str	00000000 
00000179 l       .debug_str	00000000 
0000017f l       .debug_str	00000000 
0000018d l       .debug_str	00000000 
00000192 l       .debug_str	00000000 
0000019a l       .debug_str	00000000 
000001a2 l       .debug_str	00000000 
000001a8 l       .debug_str	00000000 
000001b4 l       .debug_str	00000000 
000001ba l       .debug_str	00000000 
000001bf l       .debug_str	00000000 
000001c2 l       .debug_str	00000000 
000001c6 l       .debug_str	00000000 
000001c9 l       .debug_str	00000000 
000001cc l       .debug_str	00000000 
000001cf l       .debug_str	00000000 
000001d4 l       .debug_str	00000000 
000001e0 l       .debug_str	00000000 
000001e5 l       .debug_str	00000000 
000001ec l       .debug_str	00000000 
000001f6 l       .debug_str	00000000 
00000201 l       .debug_str	00000000 
0000020e l       .debug_str	00000000 
0000021c l       .debug_str	00000000 
00000226 l       .debug_str	00000000 
00000234 l       .debug_str	00000000 
0000023e l       .debug_str	00000000 
00000247 l       .debug_str	00000000 
00000249 l       .debug_str	00000000 
00000255 l       .debug_str	00000000 
00000259 l       .debug_str	00000000 
0000025f l       .debug_str	00000000 
00000269 l       .debug_str	00000000 
0000026d l       .debug_str	00000000 
00000274 l       .debug_str	00000000 
00000285 l       .debug_str	00000000 
00000287 l       .debug_str	00000000 
00000296 l       .debug_str	00000000 
00000298 l       .debug_str	00000000 
000002d1 l       .debug_str	00000000 
000002d8 l       .debug_str	00000000 
000002df l       .debug_str	00000000 
000002f0 l       .debug_str	00000000 
000002f2 l       .debug_str	00000000 
00000331 l       .debug_str	00000000 
00000339 l       .debug_str	00000000 
0000036c l       .debug_str	00000000 
000003f7 l       .debug_str	00000000 
000004ce l       .debug_str	00000000 
000005f1 l       .debug_str	00000000 
000005f9 l       .debug_str	00000000 
000005fe l       .debug_str	00000000 
00000604 l       .debug_str	00000000 
00000608 l       .debug_str	00000000 
0000060b l       .debug_str	00000000 
00000634 l       .debug_str	00000000 
0000066a l       .debug_str	00000000 
0000066c l       .debug_str	00000000 
00000699 l       .debug_str	00000000 
0000069c l       .debug_str	00000000 
000006ec l       .debug_str	00000000 
00000749 l       .debug_str	00000000 
0000079d l       .debug_str	00000000 
00000814 l       .debug_str	00000000 
00000898 l       .debug_str	00000000 
00000913 l       .debug_str	00000000 
000009b1 l       .debug_str	00000000 
00000a5c l       .debug_str	00000000 
00000afe l       .debug_str	00000000 
00000be4 l       .debug_str	00000000 
00000ce7 l       .debug_str	00000000 
00000de9 l       .debug_str	00000000 
00000ded l       .debug_str	00000000 
00000df3 l       .debug_str	00000000 
00000df5 l       .debug_str	00000000 
00000eef l       .debug_str	00000000 
00000ef1 l       .debug_str	00000000 
00000fce l       .debug_str	00000000 
00000fd8 l       .debug_str	00000000 
00000fff l       .debug_str	00000000 
00001004 l       .debug_str	00000000 
00001008 l       .debug_str	00000000 
0000100e l       .debug_str	00000000 
00001015 l       .debug_str	00000000 
0000101a l       .debug_str	00000000 
00001034 l       .debug_str	00000000 
0000103b l       .debug_str	00000000 
00001044 l       .debug_str	00000000 
00001051 l       .debug_str	00000000 
00001081 l       .debug_str	00000000 
00001089 l       .debug_str	00000000 
000010de l       .debug_str	00000000 
00001127 l       .debug_str	00000000 
000011de l       .debug_str	00000000 
0000128c l       .debug_str	00000000 
00001357 l       .debug_str	00000000 
00001421 l       .debug_str	00000000 
000014e3 l       .debug_str	00000000 
00001588 l       .debug_str	00000000 
000015b9 l       .debug_str	00000000 
000015ff l       .debug_str	00000000 
00001640 l       .debug_str	00000000 
00001681 l       .debug_str	00000000 
000016c9 l       .debug_str	00000000 
0000170c l       .debug_str	00000000 
00001755 l       .debug_str	00000000 
00001799 l       .debug_str	00000000 
000017e1 l       .debug_str	00000000 
00001824 l       .debug_str	00000000 
0000186d l       .debug_str	00000000 
000018af l       .debug_str	00000000 
000018fa l       .debug_str	00000000 
00001948 l       .debug_str	00000000 
00001990 l       .debug_str	00000000 
000019d6 l       .debug_str	00000000 
00001a17 l       .debug_str	00000000 
00001a1b l       .debug_str	00000000 
00001a21 l       .debug_str	00000000 
00001a2b l       .debug_str	00000000 
00001a2d l       .debug_str	00000000 
00001aa9 l       .debug_str	00000000 
00001b0c l       .debug_str	00000000 
00001b15 l       .debug_str	00000000 
00001b1c l       .debug_str	00000000 
00001b5f l       .debug_str	00000000 
00001b65 l       .debug_str	00000000 
00001b69 l       .debug_str	00000000 
00001b7a l       .debug_str	00000000 
00001bf6 l       .debug_str	00000000 
00001c60 l       .debug_str	00000000 
00001ca9 l       .debug_str	00000000 
00001cda l       .debug_str	00000000 
00001ce6 l       .debug_str	00000000 
00001cef l       .debug_str	00000000 
00001cf8 l       .debug_str	00000000 
00001d02 l       .debug_str	00000000 
00001d0a l       .debug_str	00000000 
00001d16 l       .debug_str	00000000 
00001d1e l       .debug_str	00000000 
00001d30 l       .debug_str	00000000 
00001d39 l       .debug_str	00000000 
00001d6c l       .debug_str	00000000 
00001da0 l       .debug_str	00000000 
00001da6 l       .debug_str	00000000 
00001dac l       .debug_str	00000000 
00001db6 l       .debug_str	00000000 
00001dbb l       .debug_str	00000000 
00001dc4 l       .debug_str	00000000 
00001dca l       .debug_str	00000000 
00001dcc l       .debug_str	00000000 
00001e38 l       .debug_str	00000000 
00001e9f l       .debug_str	00000000 
00001ee8 l       .debug_str	00000000 
00001f18 l       .debug_str	00000000 
00001f67 l       .debug_str	00000000 
00001f9d l       .debug_str	00000000 
00001fe0 l       .debug_str	00000000 
0000200b l       .debug_str	00000000 
00002031 l       .debug_str	00000000 
00002097 l       .debug_str	00000000 
000020bf l       .debug_str	00000000 
000020c4 l       .debug_str	00000000 
000020ca l       .debug_str	00000000 
000020ce l       .debug_str	00000000 
000020d4 l       .debug_str	00000000 
00002113 l       .debug_str	00000000 
00002119 l       .debug_str	00000000 
00002156 l       .debug_str	00000000 
00002164 l       .debug_str	00000000 
0000218b l       .debug_str	00000000 
00002193 l       .debug_str	00000000 
000021c6 l       .debug_str	00000000 
000021fb l       .debug_str	00000000 
00002207 l       .debug_str	00000000 
00002210 l       .debug_str	00000000 
0000221a l       .debug_str	00000000 
0000221f l       .debug_str	00000000 
00002224 l       .debug_str	00000000 
00002253 l       .debug_str	00000000 
0000227f l       .debug_str	00000000 
0000228f l       .debug_str	00000000 
0000229e l       .debug_str	00000000 
00000000 l     O .rodata..Lanon.a4ee504787c74c401cd0a816b932eaed.0	00000012 .Lanon.a4ee504787c74c401cd0a816b932eaed.0
00000000 l    d  .text._ZN4core3ptr31_$LT$impl$u20$$BP$mut$u20$T$GT$3add17h0b73c0b2d66d2097E	00000000 .text._ZN4core3ptr31_$LT$impl$u20$$BP$mut$u20$T$GT$3add17h0b73c0b2d66d2097E
00000000 l    d  .text._ZN4core3ptr31_$LT$impl$u20$$BP$mut$u20$T$GT$5write17h3b40a936be0f2377E	00000000 .text._ZN4core3ptr31_$LT$impl$u20$$BP$mut$u20$T$GT$5write17h3b40a936be0f2377E
00000000 l    d  .text._ZN4core3ptr31_$LT$impl$u20$$BP$mut$u20$T$GT$6offset17h89d023d4e2e1f085E	00000000 .text._ZN4core3ptr31_$LT$impl$u20$$BP$mut$u20$T$GT$6offset17h89d023d4e2e1f085E
00000000 l    d  .text._ZN4core3ptr33_$LT$impl$u20$$BP$const$u20$T$GT$3add17h2aa9cc02843d2934E	00000000 .text._ZN4core3ptr33_$LT$impl$u20$$BP$const$u20$T$GT$3add17h2aa9cc02843d2934E
00000000 l    d  .text._ZN4core3ptr33_$LT$impl$u20$$BP$const$u20$T$GT$4read17h8468ea589bda223bE	00000000 .text._ZN4core3ptr33_$LT$impl$u20$$BP$const$u20$T$GT$4read17h8468ea589bda223bE
00000000 l    d  .text._ZN4core3ptr33_$LT$impl$u20$$BP$const$u20$T$GT$6offset17hc28f1d54bd82a867E	00000000 .text._ZN4core3ptr33_$LT$impl$u20$$BP$const$u20$T$GT$6offset17hc28f1d54bd82a867E
00000000 l    d  .text._ZN4core5slice29_$LT$impl$u20$$u5b$T$u5d$$GT$10as_mut_ptr17h0e1d64f7cfb2cd00E	00000000 .text._ZN4core5slice29_$LT$impl$u20$$u5b$T$u5d$$GT$10as_mut_ptr17h0e1d64f7cfb2cd00E
00000000 l    d  .text._ZN4core5slice29_$LT$impl$u20$$u5b$T$u5d$$GT$3len17hc626fd63a783867aE	00000000 .text._ZN4core5slice29_$LT$impl$u20$$u5b$T$u5d$$GT$3len17hc626fd63a783867aE
00000000 l    d  .text._ZN4core5slice77_$LT$impl$u20$core..ops..index..IndexMut$LT$I$GT$$u20$for$u20$$u5b$T$u5d$$GT$9index_mut17h16d5b7451b5053eeE	00000000 .text._ZN4core5slice77_$LT$impl$u20$core..ops..index..IndexMut$LT$I$GT$$u20$for$u20$$u5b$T$u5d$$GT$9index_mut17h16d5b7451b5053eeE
00000000 l    d  .text._ZN4core5slice77_$LT$impl$u20$core..ops..index..IndexMut$LT$I$GT$$u20$for$u20$$u5b$T$u5d$$GT$9index_mut17h6f9f60fc3fd462b0E	00000000 .text._ZN4core5slice77_$LT$impl$u20$core..ops..index..IndexMut$LT$I$GT$$u20$for$u20$$u5b$T$u5d$$GT$9index_mut17h6f9f60fc3fd462b0E
00000000 l    d  .text._ZN5druid3app23WindowDesc$LT$T$C$W$GT$12build_native17h996a5bdff71f5e9bE	00000000 .text._ZN5druid3app23WindowDesc$LT$T$C$W$GT$12build_native17h996a5bdff71f5e9bE
00000000 l    d  .text._ZN5druid3app23WindowDesc$LT$T$C$W$GT$3new17h4029e0ebd96d5be0E	00000000 .text._ZN5druid3app23WindowDesc$LT$T$C$W$GT$3new17h4029e0ebd96d5be0E
00000000 l    d  .text._ZN5druid3app24AppLauncher$LT$T$C$W$GT$11with_window17h08f512d25baf29faE	00000000 .text._ZN5druid3app24AppLauncher$LT$T$C$W$GT$11with_window17h08f512d25baf29faE
00000000 l    d  .text._ZN5druid3app24AppLauncher$LT$T$C$W$GT$17use_simple_logger17h735623ef3ad90c9fE	00000000 .text._ZN5druid3app24AppLauncher$LT$T$C$W$GT$17use_simple_logger17h735623ef3ad90c9fE
00000000 l    d  .text._ZN5druid3app24AppLauncher$LT$T$C$W$GT$6launch17hb6850734f22a9955E	00000000 .text._ZN5druid3app24AppLauncher$LT$T$C$W$GT$6launch17hb6850734f22a9955E
00000000 l    d  .text._ZN72_$LT$druid..app..WindowDesc$LT$T$C$W$GT$$u20$as$u20$core..fmt..Debug$GT$3fmt17h5c4d05a4de990e33E	00000000 .text._ZN72_$LT$druid..app..WindowDesc$LT$T$C$W$GT$$u20$as$u20$core..fmt..Debug$GT$3fmt17h5c4d05a4de990e33E
00000000 l    d  .debug_loc	00000000 .debug_loc
00000000 l    d  .debug_abbrev	00000000 .debug_abbrev
00000000 l    d  .debug_info	00000000 .debug_info
00000000 l    d  .debug_ranges	00000000 .debug_ranges
00000000 l    d  .debug_frame	00000000 .debug_frame
00000000 l    d  .debug_line	00000000 .debug_line
00000000         *UND*	00000000 <core::ops::range::RangeFrom<usize> as core::slice::SliceIndex<[T]>>::index_mut
00000000         *UND*	00000000 <druid::win_handler::AppState<u32> as druid::win_handler::GlobalWindows<u32>>::add_window
00000000         *UND*	00000000 <druid::win_handler::AppState<u32> as druid::win_handler::GlobalWindows<u32>>::set_data
00000000         *UND*	00000000 druid_shell::application::Application::init
00000000         *UND*	00000000 druid_shell::window::WindowHandle<THandler>::show
00000000         *UND*	00000000 druid_shell::window::WindowBuilder<THandler>::set_handler
00000000         *UND*	00000000 druid_shell::window::WindowBuilder<THandler>::new
00000000         *UND*	00000000 druid_shell::window::WindowBuilder<THandler>::build
00000000         *UND*	00000000 druid_shell::window::WindowBuilder<THandler>::set_size
00000000         *UND*	00000000 core::ptr::real_drop_in_place
00000000 g     F .text._ZN4core3ptr31_$LT$impl$u20$$BP$mut$u20$T$GT$3add17h0b73c0b2d66d2097E	00000022 core::ptr::<impl *mut T>::add
00000000 g     F .text._ZN4core3ptr31_$LT$impl$u20$$BP$mut$u20$T$GT$5write17h3b40a936be0f2377E	00000030 core::ptr::<impl *mut T>::write
00000000 g     F .text._ZN4core3ptr31_$LT$impl$u20$$BP$mut$u20$T$GT$6offset17h89d023d4e2e1f085E	00000024 core::ptr::<impl *mut T>::offset
00000000 g     F .text._ZN4core3ptr33_$LT$impl$u20$$BP$const$u20$T$GT$3add17h2aa9cc02843d2934E	00000022 core::ptr::<impl *const T>::add
00000000 g     F .text._ZN4core3ptr33_$LT$impl$u20$$BP$const$u20$T$GT$4read17h8468ea589bda223bE	0000001a core::ptr::<impl *const T>::read
00000000 g     F .text._ZN4core3ptr33_$LT$impl$u20$$BP$const$u20$T$GT$6offset17hc28f1d54bd82a867E	00000024 core::ptr::<impl *const T>::offset
00000000         *UND*	00000000 core::ptr::read
00000000         *UND*	00000000 core::ptr::write
00000000 g     F .text._ZN4core5slice29_$LT$impl$u20$$u5b$T$u5d$$GT$10as_mut_ptr17h0e1d64f7cfb2cd00E	00000014 core::slice::<impl [T]>::as_mut_ptr
00000000 g     F .text._ZN4core5slice29_$LT$impl$u20$$u5b$T$u5d$$GT$3len17hc626fd63a783867aE	0000001c core::slice::<impl [T]>::len
00000000 g     F .text._ZN4core5slice77_$LT$impl$u20$core..ops..index..IndexMut$LT$I$GT$$u20$for$u20$$u5b$T$u5d$$GT$9index_mut17h16d5b7451b5053eeE	00000026 core::slice::<impl core::ops::index::IndexMut<I> for [T]>::index_mut
00000000 g     F .text._ZN4core5slice77_$LT$impl$u20$core..ops..index..IndexMut$LT$I$GT$$u20$for$u20$$u5b$T$u5d$$GT$9index_mut17h6f9f60fc3fd462b0E	00000032 core::slice::<impl core::ops::index::IndexMut<I> for [T]>::index_mut
00000000         *UND*	00000000 core::result::Result<T,E>::expect
00000000         *UND*	00000000 <T as core::convert::From<T>>::from
00000000         *UND*	00000000 druid::win_handler::AppState<T>::new
00000000         *UND*	00000000 druid::win_handler::DruidHandler<T>::new_shared
00000000 g     F .text._ZN5druid3app23WindowDesc$LT$T$C$W$GT$12build_native17h996a5bdff71f5e9bE	000000dc druid::app::WindowDesc<T,W>::build_native
00000000 g     F .text._ZN5druid3app23WindowDesc$LT$T$C$W$GT$3new17h4029e0ebd96d5be0E	0000003c druid::app::WindowDesc<T,W>::new
00000000 g     F .text._ZN5druid3app24AppLauncher$LT$T$C$W$GT$11with_window17h08f512d25baf29faE	00000068 druid::app::AppLauncher<T,W>::with_window
00000000 g     F .text._ZN5druid3app24AppLauncher$LT$T$C$W$GT$17use_simple_logger17h735623ef3ad90c9fE	0000001a druid::app::AppLauncher<T,W>::use_simple_logger
00000000 g     F .text._ZN5druid3app24AppLauncher$LT$T$C$W$GT$6launch17hb6850734f22a9955E	00000158 druid::app::AppLauncher<T,W>::launch
00000000         *UND*	00000000 druid::window::WindowId::next
00000000 g     F .text._ZN72_$LT$druid..app..WindowDesc$LT$T$C$W$GT$$u20$as$u20$core..fmt..Debug$GT$3fmt17h5c4d05a4de990e33E	0000001c <druid::app::WindowDesc<T,W> as core::fmt::Debug>::fmt
00000000         *UND*	00000000 <core::result::Result<T,E> as core::ops::try::Try>::from_error
00000000         *UND*	00000000 <core::result::Result<T,E> as core::ops::try::Try>::into_result
00000000         *UND*	00000000 <druid::widget::flex::Flex<T> as druid::Widget<T>>::new_window
00000000         *UND*	00000000 heapless::vec::Vec<T,N>::new
00000000         *UND*	00000000 heapless::vec::Vec<T,N>::push
00000000         *UND*	00000000 <core::ops::range::RangeFull as core::slice::SliceIndex<[T]>>::index_mut
00000000         *UND*	00000000 <heapless::vec::Vec<T,N> as core::iter::traits::collect::IntoIterator>::into_iter
00000000         *UND*	00000000 <heapless::vec::IntoIter<T,N> as core::iter::traits::iterator::Iterator>::next
00000000         *UND*	00000000 __aeabi_memcpy8



Disassembly of section .text._ZN4core3ptr31_$LT$impl$u20$$BP$mut$u20$T$GT$3add17h0b73c0b2d66d2097E:

00000000 <core::ptr::<impl *mut T>::add>:
_ZN4core3ptr31_$LT$impl$u20$$BP$mut$u20$T$GT$3add17h0b73c0b2d66d2097E():
/rustc/50a0defd5a93523067ef239936cc2e0755220904/src/libcore/ptr.rs:1938
   0:	b580      	push	{r7, lr}
   2:	b086      	sub	sp, #24
   4:	460a      	mov	r2, r1
   6:	4603      	mov	r3, r0
   8:	9004      	str	r0, [sp, #16]
   a:	9105      	str	r1, [sp, #20]
/rustc/50a0defd5a93523067ef239936cc2e0755220904/src/libcore/ptr.rs:1941
   c:	9804      	ldr	r0, [sp, #16]
   e:	9905      	ldr	r1, [sp, #20]
  10:	9203      	str	r2, [sp, #12]
  12:	9302      	str	r3, [sp, #8]
  14:	f7ff fffe 	bl	0 <core::ptr::<impl *mut T>::add>
  18:	9001      	str	r0, [sp, #4]
  1a:	e7ff      	b.n	1c <core::ptr::<impl *mut T>::add+0x1c>
/rustc/50a0defd5a93523067ef239936cc2e0755220904/src/libcore/ptr.rs:1942
  1c:	9801      	ldr	r0, [sp, #4]
  1e:	b006      	add	sp, #24
  20:	bd80      	pop	{r7, pc}

Disassembly of section .text._ZN4core3ptr31_$LT$impl$u20$$BP$mut$u20$T$GT$5write17h3b40a936be0f2377E:

00000000 <core::ptr::<impl *mut T>::write>:
_ZN4core3ptr31_$LT$impl$u20$$BP$mut$u20$T$GT$5write17h3b40a936be0f2377E():
/rustc/50a0defd5a93523067ef239936cc2e0755220904/src/libcore/ptr.rs:2214
   0:	b5f0      	push	{r4, r5, r6, r7, lr}
   2:	b08d      	sub	sp, #52	; 0x34
   4:	460a      	mov	r2, r1
   6:	4603      	mov	r3, r0
   8:	9003      	str	r0, [sp, #12]
/rustc/50a0defd5a93523067ef239936cc2e0755220904/src/libcore/ptr.rs:2217
   a:	9803      	ldr	r0, [sp, #12]
   c:	f10d 0c10 	add.w	ip, sp, #16
  10:	46e6      	mov	lr, ip
  12:	c9f0      	ldmia	r1!, {r4, r5, r6, r7}
  14:	e8ae 00f0 	stmia.w	lr!, {r4, r5, r6, r7}
  18:	e891 00f0 	ldmia.w	r1, {r4, r5, r6, r7}
  1c:	e88e 00f0 	stmia.w	lr, {r4, r5, r6, r7}
  20:	4661      	mov	r1, ip
  22:	9202      	str	r2, [sp, #8]
  24:	9301      	str	r3, [sp, #4]
  26:	f7ff fffe 	bl	0 <core::ptr::write>
  2a:	e7ff      	b.n	2c <core::ptr::<impl *mut T>::write+0x2c>
/rustc/50a0defd5a93523067ef239936cc2e0755220904/src/libcore/ptr.rs:2218
  2c:	b00d      	add	sp, #52	; 0x34
  2e:	bdf0      	pop	{r4, r5, r6, r7, pc}

Disassembly of section .text._ZN4core3ptr31_$LT$impl$u20$$BP$mut$u20$T$GT$6offset17h89d023d4e2e1f085E:

00000000 <core::ptr::<impl *mut T>::offset>:
_ZN4core3ptr31_$LT$impl$u20$$BP$mut$u20$T$GT$6offset17h89d023d4e2e1f085E():
/rustc/50a0defd5a93523067ef239936cc2e0755220904/src/libcore/ptr.rs:1702
   0:	b086      	sub	sp, #24
   2:	460a      	mov	r2, r1
   4:	4603      	mov	r3, r0
   6:	9003      	str	r0, [sp, #12]
   8:	9104      	str	r1, [sp, #16]
/rustc/50a0defd5a93523067ef239936cc2e0755220904/src/libcore/ptr.rs:1703
   a:	9803      	ldr	r0, [sp, #12]
   c:	9904      	ldr	r1, [sp, #16]
   e:	eb00 1041 	add.w	r0, r0, r1, lsl #5
  12:	9005      	str	r0, [sp, #20]
  14:	9805      	ldr	r0, [sp, #20]
  16:	9202      	str	r2, [sp, #8]
  18:	9301      	str	r3, [sp, #4]
  1a:	9000      	str	r0, [sp, #0]
  1c:	e7ff      	b.n	1e <core::ptr::<impl *mut T>::offset+0x1e>
/rustc/50a0defd5a93523067ef239936cc2e0755220904/src/libcore/ptr.rs:1704
  1e:	9800      	ldr	r0, [sp, #0]
  20:	b006      	add	sp, #24
  22:	4770      	bx	lr

Disassembly of section .text._ZN4core3ptr33_$LT$impl$u20$$BP$const$u20$T$GT$3add17h2aa9cc02843d2934E:

00000000 <core::ptr::<impl *const T>::add>:
_ZN4core3ptr33_$LT$impl$u20$$BP$const$u20$T$GT$3add17h2aa9cc02843d2934E():
/rustc/50a0defd5a93523067ef239936cc2e0755220904/src/libcore/ptr.rs:1294
   0:	b580      	push	{r7, lr}
   2:	b086      	sub	sp, #24
   4:	460a      	mov	r2, r1
   6:	4603      	mov	r3, r0
   8:	9004      	str	r0, [sp, #16]
   a:	9105      	str	r1, [sp, #20]
/rustc/50a0defd5a93523067ef239936cc2e0755220904/src/libcore/ptr.rs:1297
   c:	9804      	ldr	r0, [sp, #16]
   e:	9905      	ldr	r1, [sp, #20]
  10:	9203      	str	r2, [sp, #12]
  12:	9302      	str	r3, [sp, #8]
  14:	f7ff fffe 	bl	0 <core::ptr::<impl *const T>::add>
  18:	9001      	str	r0, [sp, #4]
  1a:	e7ff      	b.n	1c <core::ptr::<impl *const T>::add+0x1c>
/rustc/50a0defd5a93523067ef239936cc2e0755220904/src/libcore/ptr.rs:1298
  1c:	9801      	ldr	r0, [sp, #4]
  1e:	b006      	add	sp, #24
  20:	bd80      	pop	{r7, pc}

Disassembly of section .text._ZN4core3ptr33_$LT$impl$u20$$BP$const$u20$T$GT$4read17h8468ea589bda223bE:

00000000 <core::ptr::<impl *const T>::read>:
_ZN4core3ptr33_$LT$impl$u20$$BP$const$u20$T$GT$4read17h8468ea589bda223bE():
/rustc/50a0defd5a93523067ef239936cc2e0755220904/src/libcore/ptr.rs:1447
   0:	b580      	push	{r7, lr}
   2:	b084      	sub	sp, #16
   4:	460a      	mov	r2, r1
   6:	4603      	mov	r3, r0
   8:	9103      	str	r1, [sp, #12]
/rustc/50a0defd5a93523067ef239936cc2e0755220904/src/libcore/ptr.rs:1450
   a:	9903      	ldr	r1, [sp, #12]
   c:	9202      	str	r2, [sp, #8]
   e:	9301      	str	r3, [sp, #4]
  10:	f7ff fffe 	bl	0 <core::ptr::read>
  14:	e7ff      	b.n	16 <core::ptr::<impl *const T>::read+0x16>
/rustc/50a0defd5a93523067ef239936cc2e0755220904/src/libcore/ptr.rs:1451
  16:	b004      	add	sp, #16
  18:	bd80      	pop	{r7, pc}

Disassembly of section .text._ZN4core3ptr33_$LT$impl$u20$$BP$const$u20$T$GT$6offset17hc28f1d54bd82a867E:

00000000 <core::ptr::<impl *const T>::offset>:
_ZN4core3ptr33_$LT$impl$u20$$BP$const$u20$T$GT$6offset17hc28f1d54bd82a867E():
/rustc/50a0defd5a93523067ef239936cc2e0755220904/src/libcore/ptr.rs:1076
   0:	b086      	sub	sp, #24
   2:	460a      	mov	r2, r1
   4:	4603      	mov	r3, r0
   6:	9003      	str	r0, [sp, #12]
   8:	9104      	str	r1, [sp, #16]
/rustc/50a0defd5a93523067ef239936cc2e0755220904/src/libcore/ptr.rs:1077
   a:	9803      	ldr	r0, [sp, #12]
   c:	9904      	ldr	r1, [sp, #16]
   e:	eb00 1041 	add.w	r0, r0, r1, lsl #5
  12:	9005      	str	r0, [sp, #20]
  14:	9805      	ldr	r0, [sp, #20]
  16:	9202      	str	r2, [sp, #8]
  18:	9301      	str	r3, [sp, #4]
  1a:	9000      	str	r0, [sp, #0]
  1c:	e7ff      	b.n	1e <core::ptr::<impl *const T>::offset+0x1e>
/rustc/50a0defd5a93523067ef239936cc2e0755220904/src/libcore/ptr.rs:1078
  1e:	9800      	ldr	r0, [sp, #0]
  20:	b006      	add	sp, #24
  22:	4770      	bx	lr

Disassembly of section .text._ZN4core5slice29_$LT$impl$u20$$u5b$T$u5d$$GT$10as_mut_ptr17h0e1d64f7cfb2cd00E:

00000000 <core::slice::<impl [T]>::as_mut_ptr>:
_ZN4core5slice29_$LT$impl$u20$$u5b$T$u5d$$GT$10as_mut_ptr17h0e1d64f7cfb2cd00E():
/rustc/50a0defd5a93523067ef239936cc2e0755220904/src/libcore/slice/mod.rs:412
   0:	b084      	sub	sp, #16
   2:	460a      	mov	r2, r1
   4:	4603      	mov	r3, r0
   6:	9002      	str	r0, [sp, #8]
   8:	9103      	str	r1, [sp, #12]
/rustc/50a0defd5a93523067ef239936cc2e0755220904/src/libcore/slice/mod.rs:413
   a:	9802      	ldr	r0, [sp, #8]
/rustc/50a0defd5a93523067ef239936cc2e0755220904/src/libcore/slice/mod.rs:414
   c:	9201      	str	r2, [sp, #4]
   e:	9300      	str	r3, [sp, #0]
  10:	b004      	add	sp, #16
  12:	4770      	bx	lr

Disassembly of section .text._ZN4core5slice29_$LT$impl$u20$$u5b$T$u5d$$GT$3len17hc626fd63a783867aE:

00000000 <core::slice::<impl [T]>::len>:
_ZN4core5slice29_$LT$impl$u20$$u5b$T$u5d$$GT$3len17hc626fd63a783867aE():
/rustc/50a0defd5a93523067ef239936cc2e0755220904/src/libcore/slice/mod.rs:79
   0:	b086      	sub	sp, #24
   2:	460a      	mov	r2, r1
   4:	4603      	mov	r3, r0
   6:	9002      	str	r0, [sp, #8]
   8:	9103      	str	r1, [sp, #12]
/rustc/50a0defd5a93523067ef239936cc2e0755220904/src/libcore/slice/mod.rs:81
   a:	9802      	ldr	r0, [sp, #8]
   c:	9903      	ldr	r1, [sp, #12]
   e:	9004      	str	r0, [sp, #16]
  10:	9105      	str	r1, [sp, #20]
  12:	9805      	ldr	r0, [sp, #20]
/rustc/50a0defd5a93523067ef239936cc2e0755220904/src/libcore/slice/mod.rs:83
  14:	9201      	str	r2, [sp, #4]
  16:	9300      	str	r3, [sp, #0]
  18:	b006      	add	sp, #24
  1a:	4770      	bx	lr

Disassembly of section .text._ZN4core5slice77_$LT$impl$u20$core..ops..index..IndexMut$LT$I$GT$$u20$for$u20$$u5b$T$u5d$$GT$9index_mut17h16d5b7451b5053eeE:

00000000 <core::slice::<impl core::ops::index::IndexMut<I> for [T]>::index_mut>:
_ZN4core5slice77_$LT$impl$u20$core..ops..index..IndexMut$LT$I$GT$$u20$for$u20$$u5b$T$u5d$$GT$9index_mut17h16d5b7451b5053eeE():
/rustc/50a0defd5a93523067ef239936cc2e0755220904/src/libcore/slice/mod.rs:2561
   0:	b580      	push	{r7, lr}
   2:	b088      	sub	sp, #32
   4:	460a      	mov	r2, r1
   6:	4603      	mov	r3, r0
   8:	9005      	str	r0, [sp, #20]
   a:	9106      	str	r1, [sp, #24]
/rustc/50a0defd5a93523067ef239936cc2e0755220904/src/libcore/slice/mod.rs:2562
   c:	9805      	ldr	r0, [sp, #20]
   e:	9906      	ldr	r1, [sp, #24]
  10:	9204      	str	r2, [sp, #16]
  12:	9303      	str	r3, [sp, #12]
  14:	f7ff fffe 	bl	0 <<core::ops::range::RangeFull as core::slice::SliceIndex<[T]>>::index_mut>
  18:	9002      	str	r0, [sp, #8]
  1a:	9101      	str	r1, [sp, #4]
  1c:	e7ff      	b.n	1e <core::slice::<impl core::ops::index::IndexMut<I> for [T]>::index_mut+0x1e>
/rustc/50a0defd5a93523067ef239936cc2e0755220904/src/libcore/slice/mod.rs:2563
  1e:	9802      	ldr	r0, [sp, #8]
  20:	9901      	ldr	r1, [sp, #4]
  22:	b008      	add	sp, #32
  24:	bd80      	pop	{r7, pc}

Disassembly of section .text._ZN4core5slice77_$LT$impl$u20$core..ops..index..IndexMut$LT$I$GT$$u20$for$u20$$u5b$T$u5d$$GT$9index_mut17h6f9f60fc3fd462b0E:

00000000 <core::slice::<impl core::ops::index::IndexMut<I> for [T]>::index_mut>:
_ZN4core5slice77_$LT$impl$u20$core..ops..index..IndexMut$LT$I$GT$$u20$for$u20$$u5b$T$u5d$$GT$9index_mut17h6f9f60fc3fd462b0E():
/rustc/50a0defd5a93523067ef239936cc2e0755220904/src/libcore/slice/mod.rs:2561
   0:	b580      	push	{r7, lr}
   2:	b088      	sub	sp, #32
   4:	4613      	mov	r3, r2
   6:	468c      	mov	ip, r1
   8:	4686      	mov	lr, r0
   a:	9005      	str	r0, [sp, #20]
   c:	9106      	str	r1, [sp, #24]
   e:	9207      	str	r2, [sp, #28]
/rustc/50a0defd5a93523067ef239936cc2e0755220904/src/libcore/slice/mod.rs:2562
  10:	9807      	ldr	r0, [sp, #28]
  12:	9905      	ldr	r1, [sp, #20]
  14:	9a06      	ldr	r2, [sp, #24]
  16:	9304      	str	r3, [sp, #16]
  18:	f8cd c00c 	str.w	ip, [sp, #12]
  1c:	f8cd e008 	str.w	lr, [sp, #8]
  20:	f7ff fffe 	bl	0 <<core::ops::range::RangeFrom<usize> as core::slice::SliceIndex<[T]>>::index_mut>
  24:	9001      	str	r0, [sp, #4]
  26:	9100      	str	r1, [sp, #0]
  28:	e7ff      	b.n	2a <core::slice::<impl core::ops::index::IndexMut<I> for [T]>::index_mut+0x2a>
/rustc/50a0defd5a93523067ef239936cc2e0755220904/src/libcore/slice/mod.rs:2563
  2a:	9801      	ldr	r0, [sp, #4]
  2c:	9900      	ldr	r1, [sp, #0]
  2e:	b008      	add	sp, #32
  30:	bd80      	pop	{r7, pc}

Disassembly of section .text._ZN5druid3app23WindowDesc$LT$T$C$W$GT$12build_native17h996a5bdff71f5e9bE:

00000000 <druid::app::WindowDesc<T,W>::build_native>:
_ZN5druid3app23WindowDesc$LT$T$C$W$GT$12build_native17h996a5bdff71f5e9bE():
/Users/Luppy/mynewt/druid-embedded/druid/src/app.rs:197
        self.size = Some(size.into());
        self
    }

    /// Attempt to create a platform window from this `WindowDesc`.
    pub(crate) fn build_native(
   0:	e92d 41f0 	stmdb	sp!, {r4, r5, r6, r7, r8, lr}
   4:	f5ad 6d14 	sub.w	sp, sp, #2368	; 0x940
   8:	4613      	mov	r3, r2
   a:	468c      	mov	ip, r1
   c:	9109      	str	r1, [sp, #36]	; 0x24
   e:	920a      	str	r2, [sp, #40]	; 0x28
/Users/Luppy/mynewt/druid-embedded/druid/src/app.rs:215
        let platform_menu = menu
            .as_mut()
            .map(|m| m.build_window_menu(&state.borrow().data, &state.borrow().env));
        */ ////

        let mut handler: DruidHandler<T> = DruidHandler::new_shared(self.id); ////
  10:	9909      	ldr	r1, [sp, #36]	; 0x24
  12:	69c9      	ldr	r1, [r1, #28]
  14:	9008      	str	r0, [sp, #32]
  16:	4608      	mov	r0, r1
  18:	9307      	str	r3, [sp, #28]
  1a:	f8cd c018 	str.w	ip, [sp, #24]
  1e:	f7ff fffe 	bl	0 <druid::win_handler::DruidHandler<T>::new_shared>
  22:	900b      	str	r0, [sp, #44]	; 0x2c
  24:	e7ff      	b.n	26 <druid::app::WindowDesc<T,W>::build_native+0x26>
  26:	a80c      	add	r0, sp, #48	; 0x30
/Users/Luppy/mynewt/druid-embedded/druid/src/app.rs:218
        ////let handler = DruidHandler::new_shared(state.clone(), self.id);

        let mut builder: WindowBuilder<DruidHandler<T>> = WindowBuilder::new();
  28:	f7ff fffe 	bl	0 <druid_shell::window::WindowBuilder<THandler>::new>
  2c:	e7ff      	b.n	2e <druid::app::WindowDesc<T,W>::build_native+0x2e>
/Users/Luppy/mynewt/druid-embedded/druid/src/app.rs:219
        builder.set_handler(handler); ////
  2e:	990b      	ldr	r1, [sp, #44]	; 0x2c
  30:	a80c      	add	r0, sp, #48	; 0x30
  32:	f7ff fffe 	bl	0 <druid_shell::window::WindowBuilder<THandler>::set_handler>
  36:	e7ff      	b.n	38 <druid::app::WindowDesc<T,W>::build_native+0x38>
/Users/Luppy/mynewt/druid-embedded/druid/src/app.rs:221
        ////builder.set_handler(Box::new(handler));
        if let Some(size) = self.size {
  38:	9809      	ldr	r0, [sp, #36]	; 0x24
  3a:	6800      	ldr	r0, [r0, #0]
  3c:	2801      	cmp	r0, #1
  3e:	d112      	bne.n	66 <druid::app::WindowDesc<T,W>::build_native+0x66>
  40:	e7ff      	b.n	42 <druid::app::WindowDesc<T,W>::build_native+0x42>
  42:	9809      	ldr	r0, [sp, #36]	; 0x24
  44:	ed90 0b02 	vldr	d0, [r0, #8]
  48:	ed90 1b04 	vldr	d1, [r0, #16]
  4c:	ed8d 0b12 	vstr	d0, [sp, #72]	; 0x48
  50:	ed8d 1b14 	vstr	d1, [sp, #80]	; 0x50
/Users/Luppy/mynewt/druid-embedded/druid/src/app.rs:222
            builder.set_size(size);
  54:	ed9d 0b12 	vldr	d0, [sp, #72]	; 0x48
  58:	ed9d 1b14 	vldr	d1, [sp, #80]	; 0x50
  5c:	a80c      	add	r0, sp, #48	; 0x30
  5e:	f7ff fffe 	bl	0 <druid_shell::window::WindowBuilder<THandler>::set_size>
  62:	e7ff      	b.n	64 <druid::app::WindowDesc<T,W>::build_native+0x64>
/Users/Luppy/mynewt/druid-embedded/druid/src/app.rs:221
        if let Some(size) = self.size {
  64:	e7ff      	b.n	66 <druid::app::WindowDesc<T,W>::build_native+0x66>
/Users/Luppy/mynewt/druid-embedded/druid/src/app.rs:231
        if let Some(menu) = platform_menu {
            builder.set_menu(menu);
        }
        */ ////

        let root_widget = (self.root_builder)(); ////
  66:	9809      	ldr	r0, [sp, #36]	; 0x24
  68:	6980      	ldr	r0, [r0, #24]
  6a:	a916      	add	r1, sp, #88	; 0x58
  6c:	9005      	str	r0, [sp, #20]
  6e:	4608      	mov	r0, r1
  70:	9905      	ldr	r1, [sp, #20]
  72:	4788      	blx	r1
  74:	e7ff      	b.n	76 <druid::app::WindowDesc<T,W>::build_native+0x76>
  76:	f50d 6098 	add.w	r0, sp, #1216	; 0x4c0
  7a:	a916      	add	r1, sp, #88	; 0x58
  7c:	f44f 7204 	mov.w	r2, #528	; 0x210
/Users/Luppy/mynewt/druid-embedded/druid/src/app.rs:232
        let root_box = root_widget.new_window(); ////
  80:	9004      	str	r0, [sp, #16]
  82:	f7ff fffe 	bl	0 <__aeabi_memcpy8>
  86:	a89a      	add	r0, sp, #616	; 0x268
  88:	9904      	ldr	r1, [sp, #16]
  8a:	f7ff fffe 	bl	0 <<druid::widget::flex::Flex<T> as druid::Widget<T>>::new_window>
  8e:	e7ff      	b.n	90 <druid::app::WindowDesc<T,W>::build_native+0x90>
/Users/Luppy/mynewt/druid-embedded/druid/src/app.rs:236
        //let root_win = Window::new(root_widget); ////
        //let root_box = WindowBox::new(&mut root_win); ////
        ////let root = (self.root_builder)();
        state
  90:	980a      	ldr	r0, [sp, #40]	; 0x28
/Users/Luppy/mynewt/druid-embedded/druid/src/app.rs:238
            ////.borrow_mut()
            .add_window(self.id, root_box); ////
  92:	9909      	ldr	r1, [sp, #36]	; 0x24
  94:	69c9      	ldr	r1, [r1, #28]
  96:	f50d 62da 	add.w	r2, sp, #1744	; 0x6d0
  9a:	ab9a      	add	r3, sp, #616	; 0x268
  9c:	f44f 7c16 	mov.w	ip, #600	; 0x258
  a0:	9003      	str	r0, [sp, #12]
  a2:	4610      	mov	r0, r2
  a4:	9102      	str	r1, [sp, #8]
  a6:	4619      	mov	r1, r3
  a8:	9201      	str	r2, [sp, #4]
  aa:	4662      	mov	r2, ip
  ac:	f7ff fffe 	bl	0 <__aeabi_memcpy8>
/Users/Luppy/mynewt/druid-embedded/druid/src/app.rs:236
        state
  b0:	9803      	ldr	r0, [sp, #12]
  b2:	9902      	ldr	r1, [sp, #8]
  b4:	9a01      	ldr	r2, [sp, #4]
  b6:	f7ff fffe 	bl	0 <<druid::win_handler::AppState<u32> as druid::win_handler::GlobalWindows<u32>>::add_window>
  ba:	e7ff      	b.n	bc <druid::app::WindowDesc<T,W>::build_native+0xbc>
  bc:	a80c      	add	r0, sp, #48	; 0x30
  be:	f60d 1128 	addw	r1, sp, #2344	; 0x928
/Users/Luppy/mynewt/druid-embedded/druid/src/app.rs:241
            ////.add_window(self.id, Window::new(root, title, menu));

        builder.build()
  c2:	460a      	mov	r2, r1
  c4:	e890 5078 	ldmia.w	r0, {r3, r4, r5, r6, ip, lr}
  c8:	e882 5078 	stmia.w	r2, {r3, r4, r5, r6, ip, lr}
  cc:	9808      	ldr	r0, [sp, #32]
  ce:	f7ff fffe 	bl	0 <druid_shell::window::WindowBuilder<THandler>::build>
  d2:	e7ff      	b.n	d4 <druid::app::WindowDesc<T,W>::build_native+0xd4>
/Users/Luppy/mynewt/druid-embedded/druid/src/app.rs:242
    }
  d4:	f50d 6d14 	add.w	sp, sp, #2368	; 0x940
  d8:	e8bd 81f0 	ldmia.w	sp!, {r4, r5, r6, r7, r8, pc}

Disassembly of section .text._ZN5druid3app23WindowDesc$LT$T$C$W$GT$3new17h4029e0ebd96d5be0E:

00000000 <druid::app::WindowDesc<T,W>::new>:
_ZN5druid3app23WindowDesc$LT$T$C$W$GT$3new17h4029e0ebd96d5be0E():
/Users/Luppy/mynewt/druid-embedded/druid/src/app.rs:152
    pub fn new(root: fn() -> W) -> WindowDesc<T, W> ////
   0:	b570      	push	{r4, r5, r6, lr}
   2:	b08e      	sub	sp, #56	; 0x38
   4:	460a      	mov	r2, r1
   6:	9104      	str	r1, [sp, #16]
/Users/Luppy/mynewt/druid-embedded/druid/src/app.rs:160
        let root_builder = root; ////
   8:	9904      	ldr	r1, [sp, #16]
   a:	9105      	str	r1, [sp, #20]
/Users/Luppy/mynewt/druid-embedded/druid/src/app.rs:163
            root_builder,
   c:	9905      	ldr	r1, [sp, #20]
   e:	2300      	movs	r3, #0
/Users/Luppy/mynewt/druid-embedded/druid/src/app.rs:164
            size: None,
  10:	9307      	str	r3, [sp, #28]
  12:	9306      	str	r3, [sp, #24]
/Users/Luppy/mynewt/druid-embedded/druid/src/app.rs:169
            id: WindowId::next(),
  14:	9203      	str	r2, [sp, #12]
  16:	9002      	str	r0, [sp, #8]
  18:	9101      	str	r1, [sp, #4]
  1a:	f7ff fffe 	bl	0 <druid::window::WindowId::next>
  1e:	9000      	str	r0, [sp, #0]
  20:	e7ff      	b.n	22 <druid::app::WindowDesc<T,W>::new+0x22>
/Users/Luppy/mynewt/druid-embedded/druid/src/app.rs:162
        WindowDesc {
  22:	9801      	ldr	r0, [sp, #4]
  24:	9902      	ldr	r1, [sp, #8]
  26:	6188      	str	r0, [r1, #24]
  28:	aa06      	add	r2, sp, #24
  2a:	e892 5078 	ldmia.w	r2, {r3, r4, r5, r6, ip, lr}
  2e:	e881 5078 	stmia.w	r1, {r3, r4, r5, r6, ip, lr}
  32:	9900      	ldr	r1, [sp, #0]
  34:	9a02      	ldr	r2, [sp, #8]
  36:	61d1      	str	r1, [r2, #28]
/Users/Luppy/mynewt/druid-embedded/druid/src/app.rs:172
    }
  38:	b00e      	add	sp, #56	; 0x38
  3a:	bd70      	pop	{r4, r5, r6, pc}

Disassembly of section .text._ZN5druid3app24AppLauncher$LT$T$C$W$GT$11with_window17h08f512d25baf29faE:

00000000 <druid::app::AppLauncher<T,W>::with_window>:
_ZN5druid3app24AppLauncher$LT$T$C$W$GT$11with_window17h08f512d25baf29faE():
/Users/Luppy/mynewt/druid-embedded/druid/src/app.rs:74
    pub fn with_window(window: WindowDesc<T, W>) -> Self { ////
   0:	b510      	push	{r4, lr}
   2:	b0bc      	sub	sp, #240	; 0xf0
   4:	aa06      	add	r2, sp, #24
/Users/Luppy/mynewt/druid-embedded/druid/src/app.rs:76
        let mut windows = Vec::new(); ////
   6:	9005      	str	r0, [sp, #20]
   8:	4610      	mov	r0, r2
   a:	9104      	str	r1, [sp, #16]
   c:	f7ff fffe 	bl	0 <heapless::vec::Vec<T,N>::new>
  10:	e7ff      	b.n	12 <druid::app::AppLauncher<T,W>::with_window+0x12>
  12:	a820      	add	r0, sp, #128	; 0x80
/Users/Luppy/mynewt/druid-embedded/druid/src/app.rs:77
        windows.push(window)
  14:	4601      	mov	r1, r0
  16:	9a04      	ldr	r2, [sp, #16]
  18:	e8b2 5018 	ldmia.w	r2!, {r3, r4, ip, lr}
  1c:	e8a1 5018 	stmia.w	r1!, {r3, r4, ip, lr}
  20:	e892 5018 	ldmia.w	r2, {r3, r4, ip, lr}
  24:	e881 5018 	stmia.w	r1, {r3, r4, ip, lr}
  28:	a918      	add	r1, sp, #96	; 0x60
  2a:	aa06      	add	r2, sp, #24
  2c:	9003      	str	r0, [sp, #12]
  2e:	4608      	mov	r0, r1
  30:	4611      	mov	r1, r2
  32:	9a03      	ldr	r2, [sp, #12]
  34:	f7ff fffe 	bl	0 <heapless::vec::Vec<T,N>::push>
  38:	e7ff      	b.n	2 <druid::app::AppLauncher<T,W>::with_window+0x2>
  3a:	f240 0100 	movw	r1, #0
  3e:	f2c0 0100 	movt	r1, #0
  42:	a818      	add	r0, sp, #96	; 0x60
  44:	2212      	movs	r2, #18
  46:	f7ff fffe 	bl	0 <core::result::Result<T,E>::expect>
  4a:	e7ff      	b.n	4c <druid::app::AppLauncher<T,W>::with_window+0x4c>
  4c:	a828      	add	r0, sp, #160	; 0xa0
  4e:	a906      	add	r1, sp, #24
  50:	2248      	movs	r2, #72	; 0x48
/Users/Luppy/mynewt/druid-embedded/druid/src/app.rs:80
            windows, ////
  52:	9002      	str	r0, [sp, #8]
  54:	9201      	str	r2, [sp, #4]
  56:	f7ff fffe 	bl	0 <__aeabi_memcpy8>
/Users/Luppy/mynewt/druid-embedded/druid/src/app.rs:79
        AppLauncher {
  5a:	9805      	ldr	r0, [sp, #20]
  5c:	9902      	ldr	r1, [sp, #8]
  5e:	9a01      	ldr	r2, [sp, #4]
  60:	f7ff fffe 	bl	0 <__aeabi_memcpy8>
/Users/Luppy/mynewt/druid-embedded/druid/src/app.rs:88
    }
  64:	b03c      	add	sp, #240	; 0xf0
  66:	bd10      	pop	{r4, pc}

Disassembly of section .text._ZN5druid3app24AppLauncher$LT$T$C$W$GT$17use_simple_logger17h735623ef3ad90c9fE:

00000000 <druid::app::AppLauncher<T,W>::use_simple_logger>:
_ZN5druid3app24AppLauncher$LT$T$C$W$GT$17use_simple_logger17h735623ef3ad90c9fE():
/Users/Luppy/mynewt/druid-embedded/druid/src/app.rs:112
    pub fn use_simple_logger(self) -> Self {
   0:	b580      	push	{r7, lr}
   2:	b082      	sub	sp, #8
   4:	460a      	mov	r2, r1
   6:	4603      	mov	r3, r0
   8:	f04f 0c48 	mov.w	ip, #72	; 0x48
/Users/Luppy/mynewt/druid-embedded/druid/src/app.rs:114
        self
   c:	9201      	str	r2, [sp, #4]
   e:	4662      	mov	r2, ip
  10:	9300      	str	r3, [sp, #0]
  12:	f7ff fffe 	bl	0 <__aeabi_memcpy8>
/Users/Luppy/mynewt/druid-embedded/druid/src/app.rs:115
    }
  16:	b002      	add	sp, #8
  18:	bd80      	pop	{r7, pc}

Disassembly of section .text._ZN5druid3app24AppLauncher$LT$T$C$W$GT$6launch17hb6850734f22a9955E:

00000000 <druid::app::AppLauncher<T,W>::launch>:
_ZN5druid3app24AppLauncher$LT$T$C$W$GT$6launch17hb6850734f22a9955E():
/Users/Luppy/mynewt/druid-embedded/druid/src/app.rs:121
    pub fn launch(mut self, data: T) -> Result<(), PlatformError> {
   0:	b510      	push	{r4, lr}
   2:	f5ad 7d00 	sub.w	sp, sp, #512	; 0x200
   6:	4613      	mov	r3, r2
   8:	920a      	str	r2, [sp, #40]	; 0x28
/Users/Luppy/mynewt/druid-embedded/druid/src/app.rs:122
        Application::init();
   a:	9309      	str	r3, [sp, #36]	; 0x24
   c:	9108      	str	r1, [sp, #32]
   e:	9007      	str	r0, [sp, #28]
  10:	f7ff fffe 	bl	0 <druid_shell::application::Application::init>
  14:	e7ff      	b.n	2 <druid::win_handler::AppState<T>::new+0x2>
/Users/Luppy/mynewt/druid-embedded/druid/src/app.rs:131
        let mut state = AppState::<T>::new(); ////
  16:	f7ff fffe 	bl	0 <druid::win_handler::AppState<T>::new>
  1a:	e7ff      	b.n	1c <druid::app::AppLauncher<T,W>::launch+0x1c>
/Users/Luppy/mynewt/druid-embedded/druid/src/app.rs:132
        state.set_data(data); ////
  1c:	990a      	ldr	r1, [sp, #40]	; 0x28
  1e:	a80b      	add	r0, sp, #44	; 0x2c
  20:	f7ff fffe 	bl	0 <<druid::win_handler::AppState<u32> as druid::win_handler::GlobalWindows<u32>>::set_data>
  24:	e7ff      	b.n	26 <druid::app::AppLauncher<T,W>::launch+0x26>
  26:	a820      	add	r0, sp, #128	; 0x80
  28:	2248      	movs	r2, #72	; 0x48
/Users/Luppy/mynewt/druid-embedded/druid/src/app.rs:135
        for desc in self.windows {
  2a:	9006      	str	r0, [sp, #24]
  2c:	9908      	ldr	r1, [sp, #32]
  2e:	f7ff fffe 	bl	0 <__aeabi_memcpy8>
  32:	a80c      	add	r0, sp, #48	; 0x30
  34:	9906      	ldr	r1, [sp, #24]
  36:	f7ff fffe 	bl	0 <<heapless::vec::Vec<T,N> as core::iter::traits::collect::IntoIterator>::into_iter>
  3a:	e7ff      	b.n	3c <druid::app::AppLauncher<T,W>::launch+0x3c>
  3c:	a832      	add	r0, sp, #200	; 0xc8
  3e:	a90c      	add	r1, sp, #48	; 0x30
  40:	2250      	movs	r2, #80	; 0x50
  42:	f7ff fffe 	bl	0 <__aeabi_memcpy8>
  46:	e7ff      	b.n	48 <druid::app::AppLauncher<T,W>::launch+0x48>
  48:	a84e      	add	r0, sp, #312	; 0x138
  4a:	a932      	add	r1, sp, #200	; 0xc8
  4c:	f7ff fffe 	bl	0 <<heapless::vec::IntoIter<T,N> as core::iter::traits::iterator::Iterator>::next>
  50:	e7ff      	b.n	52 <druid::app::AppLauncher<T,W>::launch+0x52>
  52:	984e      	ldr	r0, [sp, #312]	; 0x138
  54:	994f      	ldr	r1, [sp, #316]	; 0x13c
  56:	f080 0002 	eor.w	r0, r0, #2
  5a:	4308      	orrs	r0, r1
  5c:	2800      	cmp	r0, #0
  5e:	4601      	mov	r1, r0
  60:	bf18      	it	ne
  62:	2101      	movne	r1, #1
  64:	2800      	cmp	r0, #0
  66:	9105      	str	r1, [sp, #20]
  68:	d036      	beq.n	d8 <druid::app::AppLauncher<T,W>::launch+0xd8>
  6a:	e7ff      	b.n	6c <druid::app::AppLauncher<T,W>::launch+0x6c>
  6c:	9805      	ldr	r0, [sp, #20]
  6e:	2801      	cmp	r0, #1
  70:	d001      	beq.n	76 <druid::app::AppLauncher<T,W>::launch+0x76>
  72:	e7ff      	b.n	74 <druid::app::AppLauncher<T,W>::launch+0x74>
/Users/Luppy/mynewt/druid-embedded/druid/src/app.rs:142
    }
  74:	defe      	udf	#254	; 0xfe
  76:	a84e      	add	r0, sp, #312	; 0x138
  78:	a956      	add	r1, sp, #344	; 0x158
/Users/Luppy/mynewt/druid-embedded/druid/src/app.rs:135
        for desc in self.windows {
  7a:	460a      	mov	r2, r1
  7c:	e8b0 5018 	ldmia.w	r0!, {r3, r4, ip, lr}
  80:	e8a2 5018 	stmia.w	r2!, {r3, r4, ip, lr}
  84:	e890 5018 	ldmia.w	r0, {r3, r4, ip, lr}
  88:	e882 5018 	stmia.w	r2, {r3, r4, ip, lr}
  8c:	a85e      	add	r0, sp, #376	; 0x178
  8e:	4602      	mov	r2, r0
  90:	e8b1 5018 	ldmia.w	r1!, {r3, r4, ip, lr}
  94:	e8a2 5018 	stmia.w	r2!, {r3, r4, ip, lr}
  98:	e891 5018 	ldmia.w	r1, {r3, r4, ip, lr}
  9c:	e882 5018 	stmia.w	r2, {r3, r4, ip, lr}
  a0:	a946      	add	r1, sp, #280	; 0x118
  a2:	460a      	mov	r2, r1
  a4:	e8b0 5018 	ldmia.w	r0!, {r3, r4, ip, lr}
  a8:	e8a2 5018 	stmia.w	r2!, {r3, r4, ip, lr}
  ac:	e890 5018 	ldmia.w	r0, {r3, r4, ip, lr}
  b0:	e882 5018 	stmia.w	r2, {r3, r4, ip, lr}
  b4:	a866      	add	r0, sp, #408	; 0x198
  b6:	4602      	mov	r2, r0
  b8:	e8b1 5018 	ldmia.w	r1!, {r3, r4, ip, lr}
  bc:	e8a2 5018 	stmia.w	r2!, {r3, r4, ip, lr}
  c0:	e891 5018 	ldmia.w	r1, {r3, r4, ip, lr}
  c4:	e882 5018 	stmia.w	r2, {r3, r4, ip, lr}
  c8:	a976      	add	r1, sp, #472	; 0x1d8
  ca:	aa0b      	add	r2, sp, #44	; 0x2c
/Users/Luppy/mynewt/druid-embedded/druid/src/app.rs:136
            let window = desc.build_native(&mut state)?;
  cc:	9004      	str	r0, [sp, #16]
  ce:	4608      	mov	r0, r1
  d0:	9904      	ldr	r1, [sp, #16]
  d2:	f7ff fffe 	bl	0 <druid::app::AppLauncher<T,W>::launch>
  d6:	e003      	b.n	e0 <druid::app::AppLauncher<T,W>::launch+0xe0>
  d8:	a832      	add	r0, sp, #200	; 0xc8
/Users/Luppy/mynewt/druid-embedded/druid/src/app.rs:135
        for desc in self.windows {
  da:	f7ff fffe 	bl	0 <core::ptr::real_drop_in_place>
  de:	e037      	b.n	150 <druid::app::AppLauncher<T,W>::launch+0x150>
  e0:	a872      	add	r0, sp, #456	; 0x1c8
  e2:	a976      	add	r1, sp, #472	; 0x1d8
/Users/Luppy/mynewt/druid-embedded/druid/src/app.rs:136
            let window = desc.build_native(&mut state)?;
  e4:	f7ff fffe 	bl	0 <<core::result::Result<T,E> as core::ops::try::Try>::into_result>
  e8:	e7ff      	b.n	ea <druid::app::AppLauncher<T,W>::launch+0xea>
  ea:	9872      	ldr	r0, [sp, #456]	; 0x1c8
  ec:	2800      	cmp	r0, #0
  ee:	9003      	str	r0, [sp, #12]
  f0:	d01d      	beq.n	12e <druid::app::AppLauncher<T,W>::launch+0x12e>
  f2:	e7ff      	b.n	f4 <druid::app::AppLauncher<T,W>::launch+0xf4>
  f4:	9803      	ldr	r0, [sp, #12]
  f6:	2801      	cmp	r0, #1
  f8:	d1bc      	bne.n	74 <druid::app::AppLauncher<T,W>::launch+0x74>
  fa:	e7ff      	b.n	fc <druid::app::AppLauncher<T,W>::launch+0xfc>
  fc:	9873      	ldr	r0, [sp, #460]	; 0x1cc
  fe:	9974      	ldr	r1, [sp, #464]	; 0x1d0
 100:	907a      	str	r0, [sp, #488]	; 0x1e8
 102:	917b      	str	r1, [sp, #492]	; 0x1ec
 104:	987a      	ldr	r0, [sp, #488]	; 0x1e8
 106:	997b      	ldr	r1, [sp, #492]	; 0x1ec
 108:	f7ff fffe 	bl	0 <<T as core::convert::From<T>>::from>
 10c:	9002      	str	r0, [sp, #8]
 10e:	9101      	str	r1, [sp, #4]
 110:	e7ff      	b.n	112 <druid::app::AppLauncher<T,W>::launch+0x112>
 112:	9807      	ldr	r0, [sp, #28]
 114:	9902      	ldr	r1, [sp, #8]
 116:	9a01      	ldr	r2, [sp, #4]
 118:	f7ff fffe 	bl	0 <<core::result::Result<T,E> as core::ops::try::Try>::from_error>
 11c:	e7ff      	b.n	11e <druid::app::AppLauncher<T,W>::launch+0x11e>
 11e:	a832      	add	r0, sp, #200	; 0xc8
/Users/Luppy/mynewt/druid-embedded/druid/src/app.rs:135
        for desc in self.windows {
 120:	f7ff fffe 	bl	0 <core::ptr::real_drop_in_place>
 124:	e002      	b.n	12c <druid::app::AppLauncher<T,W>::launch+0x12c>
/Users/Luppy/mynewt/druid-embedded/druid/src/app.rs:142
    }
 126:	f50d 7d00 	add.w	sp, sp, #512	; 0x200
 12a:	bd10      	pop	{r4, pc}
 12c:	e7fb      	b.n	126 <druid::app::AppLauncher<T,W>::launch+0x126>
/Users/Luppy/mynewt/druid-embedded/druid/src/app.rs:136
            let window = desc.build_native(&mut state)?;
 12e:	9873      	ldr	r0, [sp, #460]	; 0x1cc
 130:	9974      	ldr	r1, [sp, #464]	; 0x1d0
 132:	9a75      	ldr	r2, [sp, #468]	; 0x1d4
 134:	927e      	str	r2, [sp, #504]	; 0x1f8
 136:	917d      	str	r1, [sp, #500]	; 0x1f4
 138:	907c      	str	r0, [sp, #496]	; 0x1f0
 13a:	987c      	ldr	r0, [sp, #496]	; 0x1f0
 13c:	997d      	ldr	r1, [sp, #500]	; 0x1f4
 13e:	9a7e      	ldr	r2, [sp, #504]	; 0x1f8
 140:	9271      	str	r2, [sp, #452]	; 0x1c4
 142:	9170      	str	r1, [sp, #448]	; 0x1c0
 144:	906f      	str	r0, [sp, #444]	; 0x1bc
 146:	a86f      	add	r0, sp, #444	; 0x1bc
/Users/Luppy/mynewt/druid-embedded/druid/src/app.rs:137
            window.show();
 148:	f7ff fffe 	bl	0 <druid_shell::window::WindowHandle<THandler>::show>
 14c:	e7ff      	b.n	14e <druid::app::AppLauncher<T,W>::launch+0x14e>
/Users/Luppy/mynewt/druid-embedded/druid/src/app.rs:135
        for desc in self.windows {
 14e:	e77b      	b.n	48 <druid::app::AppLauncher<T,W>::launch+0x48>
 150:	2000      	movs	r0, #0
/Users/Luppy/mynewt/druid-embedded/druid/src/app.rs:141
        Ok(())
 152:	9907      	ldr	r1, [sp, #28]
 154:	6008      	str	r0, [r1, #0]
/Users/Luppy/mynewt/druid-embedded/druid/src/app.rs:142
    }
 156:	e7e6      	b.n	126 <druid::app::AppLauncher<T,W>::launch+0x126>

Disassembly of section .text._ZN72_$LT$druid..app..WindowDesc$LT$T$C$W$GT$$u20$as$u20$core..fmt..Debug$GT$3fmt17h5c4d05a4de990e33E:

00000000 <<druid::app::WindowDesc<T,W> as core::fmt::Debug>::fmt>:
_ZN72_$LT$druid..app..WindowDesc$LT$T$C$W$GT$$u20$as$u20$core..fmt..Debug$GT$3fmt17h5c4d05a4de990e33E():
/Users/Luppy/mynewt/druid-embedded/druid/src/app.rs:255
    */ ////
}

/// Implement formatted output for WindowDesc
impl<T: Data + Default, W: Widget<T>> core::fmt::Debug for WindowDesc<T, W> { ////
    fn fmt(&self, _fmt: &mut ::core::fmt::Formatter<'_>) -> ::core::fmt::Result {
   0:	b086      	sub	sp, #24
   2:	460a      	mov	r2, r1
   4:	4603      	mov	r3, r0
   6:	9002      	str	r0, [sp, #8]
   8:	9103      	str	r1, [sp, #12]
   a:	2000      	movs	r0, #0
/Users/Luppy/mynewt/druid-embedded/druid/src/app.rs:257
        //  TODO
        Ok(())
   c:	f88d 0013 	strb.w	r0, [sp, #19]
/Users/Luppy/mynewt/druid-embedded/druid/src/app.rs:258
    }
  10:	f89d 0013 	ldrb.w	r0, [sp, #19]
  14:	9201      	str	r2, [sp, #4]
  16:	9300      	str	r3, [sp, #0]
  18:	b006      	add	sp, #24
  1a:	4770      	bx	lr

app-e8778d9de5b9c761.14zx61me3bpcprrd.rcgu.o:     file format elf32-littlearm

SYMBOL TABLE:
00000000 l    df *ABS*	00000000 14zx61me3bpcprrd
000001ca l       .debug_str	00000000 
00000179 l       .debug_str	00000000 
00000204 l       .debug_str	00000000 
00000206 l       .debug_str	00000000 
00000000 l       .debug_str	00000000 
00000041 l       .debug_str	00000000 
00000055 l       .debug_str	00000000 
00000085 l       .debug_str	00000000 
0000008a l       .debug_str	00000000 
00000092 l       .debug_str	00000000 
0000009b l       .debug_str	00000000 
000000a7 l       .debug_str	00000000 
000000ad l       .debug_str	00000000 
000000b1 l       .debug_str	00000000 
000000b7 l       .debug_str	00000000 
000000bb l       .debug_str	00000000 
000000c4 l       .debug_str	00000000 
000000c7 l       .debug_str	00000000 
000000d1 l       .debug_str	00000000 
000000d8 l       .debug_str	00000000 
000000de l       .debug_str	00000000 
000000e3 l       .debug_str	00000000 
000000ec l       .debug_str	00000000 
000000f5 l       .debug_str	00000000 
000000fe l       .debug_str	00000000 
00000104 l       .debug_str	00000000 
00000106 l       .debug_str	00000000 
00000157 l       .debug_str	00000000 
00000177 l       .debug_str	00000000 
00000000 l    d  .text._ZN50_$LT$T$u20$as$u20$core..convert..From$LT$T$GT$$GT$4from17h54e87a45f15bd55cE	00000000 .text._ZN50_$LT$T$u20$as$u20$core..convert..From$LT$T$GT$$GT$4from17h54e87a45f15bd55cE
00000000 l    d  .text._ZN50_$LT$T$u20$as$u20$core..convert..Into$LT$U$GT$$GT$4into17hd413a71edf04053eE	00000000 .text._ZN50_$LT$T$u20$as$u20$core..convert..Into$LT$U$GT$$GT$4into17hd413a71edf04053eE
00000000 l    d  .debug_abbrev	00000000 .debug_abbrev
00000000 l    d  .debug_info	00000000 .debug_info
00000000 l    d  .debug_ranges	00000000 .debug_ranges
00000000 l    d  .debug_frame	00000000 .debug_frame
00000000 l    d  .debug_line	00000000 .debug_line
00000000 g     F .text._ZN50_$LT$T$u20$as$u20$core..convert..From$LT$T$GT$$GT$4from17h54e87a45f15bd55cE	00000016 <T as core::convert::From<T>>::from
00000000 g     F .text._ZN50_$LT$T$u20$as$u20$core..convert..Into$LT$U$GT$$GT$4into17hd413a71edf04053eE	00000026 <T as core::convert::Into<U>>::into



Disassembly of section .text._ZN50_$LT$T$u20$as$u20$core..convert..From$LT$T$GT$$GT$4from17h54e87a45f15bd55cE:

00000000 <<T as core::convert::From<T>>::from>:
_ZN50_$LT$T$u20$as$u20$core..convert..From$LT$T$GT$$GT$4from17h54e87a45f15bd55cE():
/rustc/50a0defd5a93523067ef239936cc2e0755220904/src/libcore/convert.rs:547
   0:	b084      	sub	sp, #16
   2:	460a      	mov	r2, r1
   4:	4603      	mov	r3, r0
   6:	9002      	str	r0, [sp, #8]
   8:	9103      	str	r1, [sp, #12]
   a:	9802      	ldr	r0, [sp, #8]
   c:	9903      	ldr	r1, [sp, #12]
   e:	9201      	str	r2, [sp, #4]
  10:	9300      	str	r3, [sp, #0]
  12:	b004      	add	sp, #16
  14:	4770      	bx	lr

Disassembly of section .text._ZN50_$LT$T$u20$as$u20$core..convert..Into$LT$U$GT$$GT$4into17hd413a71edf04053eE:

00000000 <<T as core::convert::Into<U>>::into>:
_ZN50_$LT$T$u20$as$u20$core..convert..Into$LT$U$GT$$GT$4into17hd413a71edf04053eE():
/rustc/50a0defd5a93523067ef239936cc2e0755220904/src/libcore/convert.rs:539
   0:	b580      	push	{r7, lr}
   2:	b086      	sub	sp, #24
   4:	460a      	mov	r2, r1
   6:	4603      	mov	r3, r0
   8:	9004      	str	r0, [sp, #16]
   a:	9105      	str	r1, [sp, #20]
/rustc/50a0defd5a93523067ef239936cc2e0755220904/src/libcore/convert.rs:540
   c:	9804      	ldr	r0, [sp, #16]
   e:	9905      	ldr	r1, [sp, #20]
  10:	9203      	str	r2, [sp, #12]
  12:	9302      	str	r3, [sp, #8]
  14:	f7ff fffe 	bl	0 <<T as core::convert::Into<U>>::into>
  18:	9001      	str	r0, [sp, #4]
  1a:	9100      	str	r1, [sp, #0]
  1c:	e7ff      	b.n	1e <<T as core::convert::Into<U>>::into+0x1e>
/rustc/50a0defd5a93523067ef239936cc2e0755220904/src/libcore/convert.rs:541
  1e:	9801      	ldr	r0, [sp, #4]
  20:	9900      	ldr	r1, [sp, #0]
  22:	b006      	add	sp, #24
  24:	bd80      	pop	{r7, pc}

app-e8778d9de5b9c761.17v1jdrzqpaz1l1u.rcgu.o:     file format elf32-littlearm

SYMBOL TABLE:
00000000 l    df *ABS*	00000000 17v1jdrzqpaz1l1u
00000a11 l       .debug_str	00000000 
00001074 l       .debug_str	00000000 
000010c5 l       .debug_str	00000000 
000010c9 l       .debug_str	00000000 
0000110c l       .debug_str	00000000 
00001110 l       .debug_str	00000000 
00001151 l       .debug_str	00000000 
00000000 l       .debug_str	00000000 
00000041 l       .debug_str	00000000 
00000055 l       .debug_str	00000000 
00000085 l       .debug_str	00000000 
0000008b l       .debug_str	00000000 
00000092 l       .debug_str	00000000 
00000097 l       .debug_str	00000000 
0000009a l       .debug_str	00000000 
000000a5 l       .debug_str	00000000 
000000ae l       .debug_str	00000000 
000000b3 l       .debug_str	00000000 
000000b8 l       .debug_str	00000000 
000000bf l       .debug_str	00000000 
000000c4 l       .debug_str	00000000 
000000c9 l       .debug_str	00000000 
000000d0 l       .debug_str	00000000 
000000db l       .debug_str	00000000 
000000df l       .debug_str	00000000 
000000ec l       .debug_str	00000000 
000000ef l       .debug_str	00000000 
000000f3 l       .debug_str	00000000 
000000fd l       .debug_str	00000000 
00000106 l       .debug_str	00000000 
0000010f l       .debug_str	00000000 
00000113 l       .debug_str	00000000 
00000117 l       .debug_str	00000000 
00000119 l       .debug_str	00000000 
00000120 l       .debug_str	00000000 
00000124 l       .debug_str	00000000 
0000012b l       .debug_str	00000000 
0000012e l       .debug_str	00000000 
00000134 l       .debug_str	00000000 
00000142 l       .debug_str	00000000 
00000147 l       .debug_str	00000000 
0000014f l       .debug_str	00000000 
00000157 l       .debug_str	00000000 
0000015d l       .debug_str	00000000 
00000169 l       .debug_str	00000000 
0000016f l       .debug_str	00000000 
00000174 l       .debug_str	00000000 
00000177 l       .debug_str	00000000 
0000017b l       .debug_str	00000000 
0000017e l       .debug_str	00000000 
00000181 l       .debug_str	00000000 
00000184 l       .debug_str	00000000 
00000189 l       .debug_str	00000000 
00000195 l       .debug_str	00000000 
0000019a l       .debug_str	00000000 
000001a1 l       .debug_str	00000000 
000001ab l       .debug_str	00000000 
000001b6 l       .debug_str	00000000 
000001c3 l       .debug_str	00000000 
000001d1 l       .debug_str	00000000 
000001db l       .debug_str	00000000 
000001e9 l       .debug_str	00000000 
000001f3 l       .debug_str	00000000 
000001fc l       .debug_str	00000000 
000001fe l       .debug_str	00000000 
0000020a l       .debug_str	00000000 
0000020e l       .debug_str	00000000 
00000214 l       .debug_str	00000000 
0000021e l       .debug_str	00000000 
00000222 l       .debug_str	00000000 
00000229 l       .debug_str	00000000 
0000023a l       .debug_str	00000000 
0000023c l       .debug_str	00000000 
0000024b l       .debug_str	00000000 
0000024d l       .debug_str	00000000 
00000286 l       .debug_str	00000000 
0000028d l       .debug_str	00000000 
00000294 l       .debug_str	00000000 
000002a5 l       .debug_str	00000000 
000002a7 l       .debug_str	00000000 
000002e6 l       .debug_str	00000000 
000002ee l       .debug_str	00000000 
00000321 l       .debug_str	00000000 
000003ac l       .debug_str	00000000 
00000483 l       .debug_str	00000000 
000005a6 l       .debug_str	00000000 
000005ae l       .debug_str	00000000 
000005b3 l       .debug_str	00000000 
000005b9 l       .debug_str	00000000 
000005bd l       .debug_str	00000000 
000005c0 l       .debug_str	00000000 
000005e9 l       .debug_str	00000000 
0000061f l       .debug_str	00000000 
00000621 l       .debug_str	00000000 
0000064e l       .debug_str	00000000 
00000651 l       .debug_str	00000000 
000006a1 l       .debug_str	00000000 
000006fe l       .debug_str	00000000 
00000752 l       .debug_str	00000000 
000007c9 l       .debug_str	00000000 
0000084d l       .debug_str	00000000 
000008c8 l       .debug_str	00000000 
00000966 l       .debug_str	00000000 
00000ab3 l       .debug_str	00000000 
00000b99 l       .debug_str	00000000 
00000c9c l       .debug_str	00000000 
00000d9e l       .debug_str	00000000 
00000da2 l       .debug_str	00000000 
00000da8 l       .debug_str	00000000 
00000daa l       .debug_str	00000000 
00000ea4 l       .debug_str	00000000 
00000ea6 l       .debug_str	00000000 
00000f83 l       .debug_str	00000000 
00000f8d l       .debug_str	00000000 
00000fb4 l       .debug_str	00000000 
00000fb9 l       .debug_str	00000000 
00000fbd l       .debug_str	00000000 
00000fc3 l       .debug_str	00000000 
00000fca l       .debug_str	00000000 
00000fcf l       .debug_str	00000000 
00000fe9 l       .debug_str	00000000 
00000ff0 l       .debug_str	00000000 
00000ff9 l       .debug_str	00000000 
00001006 l       .debug_str	00000000 
00001036 l       .debug_str	00000000 
00000000 l    d  .text._ZN4core10intrinsics19copy_nonoverlapping17h497e09f1cbeb879fE	00000000 .text._ZN4core10intrinsics19copy_nonoverlapping17h497e09f1cbeb879fE
00000000 l    d  .debug_abbrev	00000000 .debug_abbrev
00000000 l    d  .debug_info	00000000 .debug_info
00000000 l    d  .debug_frame	00000000 .debug_frame
00000000 l    d  .debug_line	00000000 .debug_line
00000000 g     F .text._ZN4core10intrinsics19copy_nonoverlapping17h497e09f1cbeb879fE	0000002c core::intrinsics::copy_nonoverlapping
00000000         *UND*	00000000 __aeabi_memcpy8



Disassembly of section .text._ZN4core10intrinsics19copy_nonoverlapping17h497e09f1cbeb879fE:

00000000 <core::intrinsics::copy_nonoverlapping>:
_ZN4core10intrinsics19copy_nonoverlapping17h497e09f1cbeb879fE():
/rustc/50a0defd5a93523067ef239936cc2e0755220904/src/libcore/intrinsics.rs:1411
   0:	b580      	push	{r7, lr}
   2:	b086      	sub	sp, #24
   4:	4613      	mov	r3, r2
   6:	468c      	mov	ip, r1
   8:	4686      	mov	lr, r0
   a:	9003      	str	r0, [sp, #12]
   c:	9104      	str	r1, [sp, #16]
   e:	9205      	str	r2, [sp, #20]
/rustc/50a0defd5a93523067ef239936cc2e0755220904/src/libcore/intrinsics.rs:1412
  10:	9903      	ldr	r1, [sp, #12]
  12:	9804      	ldr	r0, [sp, #16]
  14:	9a05      	ldr	r2, [sp, #20]
  16:	0152      	lsls	r2, r2, #5
  18:	9302      	str	r3, [sp, #8]
  1a:	f8cd c004 	str.w	ip, [sp, #4]
  1e:	f8cd e000 	str.w	lr, [sp]
  22:	f7ff fffe 	bl	0 <__aeabi_memcpy8>
  26:	e7ff      	b.n	28 <core::intrinsics::copy_nonoverlapping+0x28>
/rustc/50a0defd5a93523067ef239936cc2e0755220904/src/libcore/intrinsics.rs:1413
  28:	b006      	add	sp, #24
  2a:	bd80      	pop	{r7, pc}

app-e8778d9de5b9c761.188963a8v4y71iwx.rcgu.o:     file format elf32-littlearm

SYMBOL TABLE:
00000000 l    df *ABS*	00000000 188963a8v4y71iwx
000008bd l       .debug_str	00000000 
00000fc4 l       .debug_str	00000000 
00000fde l       .debug_str	00000000 
00000fe5 l       .debug_str	00000000 
00000fee l       .debug_str	00000000 
00000ffb l       .debug_str	00000000 
0000102b l       .debug_str	00000000 
00001054 l       .debug_str	00000000 
00001099 l       .debug_str	00000000 
000010c3 l       .debug_str	00000000 
00000000 l       .debug_str	00000000 
00000041 l       .debug_str	00000000 
00000055 l       .debug_str	00000000 
00000085 l       .debug_str	00000000 
0000008b l       .debug_str	00000000 
00000092 l       .debug_str	00000000 
00000097 l       .debug_str	00000000 
0000009a l       .debug_str	00000000 
000000a5 l       .debug_str	00000000 
000000ae l       .debug_str	00000000 
000000b3 l       .debug_str	00000000 
000000b8 l       .debug_str	00000000 
000000bf l       .debug_str	00000000 
000000c4 l       .debug_str	00000000 
000000c9 l       .debug_str	00000000 
000000d0 l       .debug_str	00000000 
000000d4 l       .debug_str	00000000 
000000d8 l       .debug_str	00000000 
000000e5 l       .debug_str	00000000 
000000e8 l       .debug_str	00000000 
000000ec l       .debug_str	00000000 
000000f6 l       .debug_str	00000000 
000000ff l       .debug_str	00000000 
00000108 l       .debug_str	00000000 
0000010c l       .debug_str	00000000 
00000110 l       .debug_str	00000000 
00000112 l       .debug_str	00000000 
00000119 l       .debug_str	00000000 
00000120 l       .debug_str	00000000 
00000123 l       .debug_str	00000000 
00000129 l       .debug_str	00000000 
00000137 l       .debug_str	00000000 
0000013c l       .debug_str	00000000 
00000144 l       .debug_str	00000000 
0000014c l       .debug_str	00000000 
00000152 l       .debug_str	00000000 
0000015e l       .debug_str	00000000 
00000164 l       .debug_str	00000000 
00000169 l       .debug_str	00000000 
0000016c l       .debug_str	00000000 
00000170 l       .debug_str	00000000 
00000173 l       .debug_str	00000000 
00000176 l       .debug_str	00000000 
00000179 l       .debug_str	00000000 
0000017e l       .debug_str	00000000 
0000018a l       .debug_str	00000000 
0000018f l       .debug_str	00000000 
00000196 l       .debug_str	00000000 
000001a0 l       .debug_str	00000000 
000001ab l       .debug_str	00000000 
000001b8 l       .debug_str	00000000 
000001c6 l       .debug_str	00000000 
000001d0 l       .debug_str	00000000 
000001de l       .debug_str	00000000 
000001e8 l       .debug_str	00000000 
000001f1 l       .debug_str	00000000 
000001f3 l       .debug_str	00000000 
000001ff l       .debug_str	00000000 
00000203 l       .debug_str	00000000 
00000209 l       .debug_str	00000000 
00000213 l       .debug_str	00000000 
00000217 l       .debug_str	00000000 
0000021e l       .debug_str	00000000 
0000022f l       .debug_str	00000000 
00000231 l       .debug_str	00000000 
00000240 l       .debug_str	00000000 
00000242 l       .debug_str	00000000 
0000027b l       .debug_str	00000000 
00000282 l       .debug_str	00000000 
00000289 l       .debug_str	00000000 
0000029a l       .debug_str	00000000 
0000029c l       .debug_str	00000000 
000002db l       .debug_str	00000000 
000002e3 l       .debug_str	00000000 
00000316 l       .debug_str	00000000 
000003a1 l       .debug_str	00000000 
00000478 l       .debug_str	00000000 
0000059b l       .debug_str	00000000 
000005a3 l       .debug_str	00000000 
000005a8 l       .debug_str	00000000 
000005ae l       .debug_str	00000000 
000005b2 l       .debug_str	00000000 
000005b5 l       .debug_str	00000000 
000005de l       .debug_str	00000000 
00000614 l       .debug_str	00000000 
00000616 l       .debug_str	00000000 
00000643 l       .debug_str	00000000 
00000646 l       .debug_str	00000000 
00000696 l       .debug_str	00000000 
000006f3 l       .debug_str	00000000 
00000747 l       .debug_str	00000000 
000007be l       .debug_str	00000000 
00000842 l       .debug_str	00000000 
0000095b l       .debug_str	00000000 
00000a06 l       .debug_str	00000000 
00000aa8 l       .debug_str	00000000 
00000b8e l       .debug_str	00000000 
00000c91 l       .debug_str	00000000 
00000d93 l       .debug_str	00000000 
00000d97 l       .debug_str	00000000 
00000d9d l       .debug_str	00000000 
00000d9f l       .debug_str	00000000 
00000e99 l       .debug_str	00000000 
00000e9b l       .debug_str	00000000 
00000f78 l       .debug_str	00000000 
00000f82 l       .debug_str	00000000 
00000fa9 l       .debug_str	00000000 
00000fae l       .debug_str	00000000 
00000fb2 l       .debug_str	00000000 
00000fb8 l       .debug_str	00000000 
00000fbf l       .debug_str	00000000 
00000000 l    d  .text._ZN4core3mem7size_of17hc70517f858a5d1d4E	00000000 .text._ZN4core3mem7size_of17hc70517f858a5d1d4E
00000000 l    d  .text._ZN4core3mem8align_of17h355507999ee4f393E	00000000 .text._ZN4core3mem8align_of17h355507999ee4f393E
00000000 l    d  .debug_abbrev	00000000 .debug_abbrev
00000000 l    d  .debug_info	00000000 .debug_info
00000000 l    d  .debug_ranges	00000000 .debug_ranges
00000000 l    d  .debug_frame	00000000 .debug_frame
00000000 l    d  .debug_line	00000000 .debug_line
00000000 g     F .text._ZN4core3mem7size_of17hc70517f858a5d1d4E	00000012 core::mem::size_of
00000000 g     F .text._ZN4core3mem8align_of17h355507999ee4f393E	00000012 core::mem::align_of



Disassembly of section .text._ZN4core3mem7size_of17hc70517f858a5d1d4E:

00000000 <core::mem::size_of>:
_ZN4core3mem7size_of17hc70517f858a5d1d4E():
/rustc/50a0defd5a93523067ef239936cc2e0755220904/src/libcore/mem.rs:235
   0:	b082      	sub	sp, #8
   2:	2020      	movs	r0, #32
/rustc/50a0defd5a93523067ef239936cc2e0755220904/src/libcore/mem.rs:236
   4:	9001      	str	r0, [sp, #4]
   6:	9801      	ldr	r0, [sp, #4]
   8:	9000      	str	r0, [sp, #0]
   a:	e7ff      	b.n	c <core::mem::size_of+0xc>
/rustc/50a0defd5a93523067ef239936cc2e0755220904/src/libcore/mem.rs:237
   c:	9800      	ldr	r0, [sp, #0]
   e:	b002      	add	sp, #8
  10:	4770      	bx	lr

Disassembly of section .text._ZN4core3mem8align_of17h355507999ee4f393E:

00000000 <core::mem::align_of>:
_ZN4core3mem8align_of17h355507999ee4f393E():
/rustc/50a0defd5a93523067ef239936cc2e0755220904/src/libcore/mem.rs:327
   0:	b082      	sub	sp, #8
   2:	2008      	movs	r0, #8
/rustc/50a0defd5a93523067ef239936cc2e0755220904/src/libcore/mem.rs:328
   4:	9001      	str	r0, [sp, #4]
   6:	9801      	ldr	r0, [sp, #4]
   8:	9000      	str	r0, [sp, #0]
   a:	e7ff      	b.n	c <core::mem::align_of+0xc>
/rustc/50a0defd5a93523067ef239936cc2e0755220904/src/libcore/mem.rs:329
   c:	9800      	ldr	r0, [sp, #0]
   e:	b002      	add	sp, #8
  10:	4770      	bx	lr

app-e8778d9de5b9c761.1lzfbgaflgy1mvu9.rcgu.o:     file format elf32-littlearm

SYMBOL TABLE:
00000000 l    df *ABS*	00000000 1lzfbgaflgy1mvu9
00001b5f l       .debug_str	00000000 
000023fe l       .debug_str	00000000 
00002405 l       .debug_str	00000000 
0000240d l       .debug_str	00000000 
0000242b l       .debug_str	00000000 
0000243b l       .debug_str	00000000 
0000246e l       .debug_str	00000000 
00002483 l       .debug_str	00000000 
00002496 l       .debug_str	00000000 
000024ab l       .debug_str	00000000 
000024b2 l       .debug_str	00000000 
000024c7 l       .debug_str	00000000 
000024f1 l       .debug_str	00000000 
000024f5 l       .debug_str	00000000 
000024fe l       .debug_str	00000000 
00000000 l       .debug_str	00000000 
00000041 l       .debug_str	00000000 
00000055 l       .debug_str	00000000 
00000085 l       .debug_str	00000000 
00000089 l       .debug_str	00000000 
00000094 l       .debug_str	00000000 
000000a2 l       .debug_str	00000000 
000000a9 l       .debug_str	00000000 
000000ad l       .debug_str	00000000 
000000b0 l       .debug_str	00000000 
000000b8 l       .debug_str	00000000 
000000bc l       .debug_str	00000000 
000000c5 l       .debug_str	00000000 
000000cf l       .debug_str	00000000 
000000d6 l       .debug_str	00000000 
000000dc l       .debug_str	00000000 
000000e2 l       .debug_str	00000000 
000000e7 l       .debug_str	00000000 
000000ef l       .debug_str	00000000 
000000f4 l       .debug_str	00000000 
0000012b l       .debug_str	00000000 
00000132 l       .debug_str	00000000 
00000136 l       .debug_str	00000000 
0000013e l       .debug_str	00000000 
00000149 l       .debug_str	00000000 
00000154 l       .debug_str	00000000 
00000161 l       .debug_str	00000000 
0000016c l       .debug_str	00000000 
00000174 l       .debug_str	00000000 
0000017f l       .debug_str	00000000 
0000018a l       .debug_str	00000000 
00000194 l       .debug_str	00000000 
0000019f l       .debug_str	00000000 
000001aa l       .debug_str	00000000 
000001b7 l       .debug_str	00000000 
000001c3 l       .debug_str	00000000 
000001d0 l       .debug_str	00000000 
000001de l       .debug_str	00000000 
000001e8 l       .debug_str	00000000 
000001f5 l       .debug_str	00000000 
00000201 l       .debug_str	00000000 
00000206 l       .debug_str	00000000 
0000020a l       .debug_str	00000000 
00000215 l       .debug_str	00000000 
00000220 l       .debug_str	00000000 
00000227 l       .debug_str	00000000 
00000266 l       .debug_str	00000000 
0000027c l       .debug_str	00000000 
00000280 l       .debug_str	00000000 
00000283 l       .debug_str	00000000 
00000286 l       .debug_str	00000000 
00000288 l       .debug_str	00000000 
0000028a l       .debug_str	00000000 
0000028e l       .debug_str	00000000 
000002b6 l       .debug_str	00000000 
000002bd l       .debug_str	00000000 
000002c0 l       .debug_str	00000000 
000002c9 l       .debug_str	00000000 
000002cf l       .debug_str	00000000 
000002d6 l       .debug_str	00000000 
000002d9 l       .debug_str	00000000 
000002e5 l       .debug_str	00000000 
000002ed l       .debug_str	00000000 
000002f4 l       .debug_str	00000000 
000002f9 l       .debug_str	00000000 
00000310 l       .debug_str	00000000 
0000036a l       .debug_str	00000000 
0000036f l       .debug_str	00000000 
000003d1 l       .debug_str	00000000 
000003dc l       .debug_str	00000000 
00000423 l       .debug_str	00000000 
00000472 l       .debug_str	00000000 
0000047c l       .debug_str	00000000 
000004b9 l       .debug_str	00000000 
000004fe l       .debug_str	00000000 
00000507 l       .debug_str	00000000 
00000517 l       .debug_str	00000000 
0000051f l       .debug_str	00000000 
00000574 l       .debug_str	00000000 
000005d1 l       .debug_str	00000000 
000005dd l       .debug_str	00000000 
000005e6 l       .debug_str	00000000 
000005f2 l       .debug_str	00000000 
000005fe l       .debug_str	00000000 
00000607 l       .debug_str	00000000 
0000060f l       .debug_str	00000000 
00000617 l       .debug_str	00000000 
00000621 l       .debug_str	00000000 
00000636 l       .debug_str	00000000 
0000063d l       .debug_str	00000000 
0000065d l       .debug_str	00000000 
00000664 l       .debug_str	00000000 
0000066c l       .debug_str	00000000 
00000676 l       .debug_str	00000000 
00000681 l       .debug_str	00000000 
0000068a l       .debug_str	00000000 
00000695 l       .debug_str	00000000 
000006a1 l       .debug_str	00000000 
000006a5 l       .debug_str	00000000 
000006ae l       .debug_str	00000000 
000006b5 l       .debug_str	00000000 
000006bd l       .debug_str	00000000 
000006c5 l       .debug_str	00000000 
000006cf l       .debug_str	00000000 
000006d5 l       .debug_str	00000000 
000006dc l       .debug_str	00000000 
000006e3 l       .debug_str	00000000 
00000710 l       .debug_str	00000000 
00000745 l       .debug_str	00000000 
0000074b l       .debug_str	00000000 
00000751 l       .debug_str	00000000 
00000760 l       .debug_str	00000000 
00000770 l       .debug_str	00000000 
00000780 l       .debug_str	00000000 
00000788 l       .debug_str	00000000 
000007b1 l       .debug_str	00000000 
0000080f l       .debug_str	00000000 
00000875 l       .debug_str	00000000 
0000087c l       .debug_str	00000000 
00000884 l       .debug_str	00000000 
0000088d l       .debug_str	00000000 
000008ab l       .debug_str	00000000 
000008bb l       .debug_str	00000000 
000008c9 l       .debug_str	00000000 
000008d4 l       .debug_str	00000000 
000008e1 l       .debug_str	00000000 
000008f0 l       .debug_str	00000000 
00000906 l       .debug_str	00000000 
00000910 l       .debug_str	00000000 
00000919 l       .debug_str	00000000 
00000922 l       .debug_str	00000000 
00000948 l       .debug_str	00000000 
0000095e l       .debug_str	00000000 
00000969 l       .debug_str	00000000 
0000097f l       .debug_str	00000000 
00000987 l       .debug_str	00000000 
000009a8 l       .debug_str	00000000 
000009bf l       .debug_str	00000000 
000009c4 l       .debug_str	00000000 
000009cc l       .debug_str	00000000 
000009d5 l       .debug_str	00000000 
000009de l       .debug_str	00000000 
000009e7 l       .debug_str	00000000 
000009ef l       .debug_str	00000000 
000009f3 l       .debug_str	00000000 
000009fa l       .debug_str	00000000 
00000a06 l       .debug_str	00000000 
00000a11 l       .debug_str	00000000 
00000a19 l       .debug_str	00000000 
00000a21 l       .debug_str	00000000 
00000a9d l       .debug_str	00000000 
00000b21 l       .debug_str	00000000 
00000c1d l       .debug_str	00000000 
00000d21 l       .debug_str	00000000 
00000d2f l       .debug_str	00000000 
00000d3a l       .debug_str	00000000 
00000d44 l       .debug_str	00000000 
00000d58 l       .debug_str	00000000 
00000d63 l       .debug_str	00000000 
00000d91 l       .debug_str	00000000 
00000e0c l       .debug_str	00000000 
00000e8f l       .debug_str	00000000 
00000e9d l       .debug_str	00000000 
00000efc l       .debug_str	00000000 
00000f63 l       .debug_str	00000000 
00000f79 l       .debug_str	00000000 
00000f89 l       .debug_str	00000000 
00000f98 l       .debug_str	00000000 
00000f9c l       .debug_str	00000000 
00000fa3 l       .debug_str	00000000 
00000fa9 l       .debug_str	00000000 
00000fad l       .debug_str	00000000 
00000fb3 l       .debug_str	00000000 
00000fb9 l       .debug_str	00000000 
00000fc5 l       .debug_str	00000000 
00000fcd l       .debug_str	00000000 
00000fd3 l       .debug_str	00000000 
00000fdb l       .debug_str	00000000 
00000fe1 l       .debug_str	00000000 
00001004 l       .debug_str	00000000 
00001014 l       .debug_str	00000000 
00001047 l       .debug_str	00000000 
00001087 l       .debug_str	00000000 
000010cf l       .debug_str	00000000 
000010d3 l       .debug_str	00000000 
000010d9 l       .debug_str	00000000 
000010df l       .debug_str	00000000 
000010e5 l       .debug_str	00000000 
000010f7 l       .debug_str	00000000 
0000112c l       .debug_str	00000000 
0000116e l       .debug_str	00000000 
000011b8 l       .debug_str	00000000 
000011bc l       .debug_str	00000000 
000011c2 l       .debug_str	00000000 
000011c8 l       .debug_str	00000000 
000011ce l       .debug_str	00000000 
000011e0 l       .debug_str	00000000 
00001215 l       .debug_str	00000000 
00001257 l       .debug_str	00000000 
000012a1 l       .debug_str	00000000 
000012a5 l       .debug_str	00000000 
000012ab l       .debug_str	00000000 
000012b1 l       .debug_str	00000000 
000012b7 l       .debug_str	00000000 
000012bd l       .debug_str	00000000 
000012ce l       .debug_str	00000000 
00001302 l       .debug_str	00000000 
00001343 l       .debug_str	00000000 
0000138c l       .debug_str	00000000 
00001391 l       .debug_str	00000000 
00001396 l       .debug_str	00000000 
0000139a l       .debug_str	00000000 
000013a0 l       .debug_str	00000000 
000013a6 l       .debug_str	00000000 
000013ac l       .debug_str	00000000 
000013bd l       .debug_str	00000000 
000013f1 l       .debug_str	00000000 
00001432 l       .debug_str	00000000 
0000147b l       .debug_str	00000000 
0000147f l       .debug_str	00000000 
00001488 l       .debug_str	00000000 
00001499 l       .debug_str	00000000 
000014cd l       .debug_str	00000000 
0000150e l       .debug_str	00000000 
00001557 l       .debug_str	00000000 
0000155c l       .debug_str	00000000 
00001560 l       .debug_str	00000000 
00001569 l       .debug_str	00000000 
00001570 l       .debug_str	00000000 
00001578 l       .debug_str	00000000 
0000158a l       .debug_str	00000000 
000015bf l       .debug_str	00000000 
00001601 l       .debug_str	00000000 
0000164b l       .debug_str	00000000 
0000164f l       .debug_str	00000000 
00001655 l       .debug_str	00000000 
0000165b l       .debug_str	00000000 
00001661 l       .debug_str	00000000 
00001667 l       .debug_str	00000000 
0000166f l       .debug_str	00000000 
0000167d l       .debug_str	00000000 
0000168c l       .debug_str	00000000 
0000169d l       .debug_str	00000000 
000016a8 l       .debug_str	00000000 
000016b3 l       .debug_str	00000000 
000016be l       .debug_str	00000000 
000016c5 l       .debug_str	00000000 
000016e8 l       .debug_str	00000000 
000016fa l       .debug_str	00000000 
0000172f l       .debug_str	00000000 
00001771 l       .debug_str	00000000 
000017bb l       .debug_str	00000000 
000017bf l       .debug_str	00000000 
000017c9 l       .debug_str	00000000 
000017db l       .debug_str	00000000 
00001810 l       .debug_str	00000000 
00001852 l       .debug_str	00000000 
0000189c l       .debug_str	00000000 
000018a1 l       .debug_str	00000000 
000018ab l       .debug_str	00000000 
000018bd l       .debug_str	00000000 
000018f2 l       .debug_str	00000000 
00001934 l       .debug_str	00000000 
0000197e l       .debug_str	00000000 
00001992 l       .debug_str	00000000 
00001996 l       .debug_str	00000000 
000019a4 l       .debug_str	00000000 
000019b4 l       .debug_str	00000000 
000019bd l       .debug_str	00000000 
000019c8 l       .debug_str	00000000 
000019d7 l       .debug_str	00000000 
000019ec l       .debug_str	00000000 
00001a1d l       .debug_str	00000000 
00001aba l       .debug_str	00000000 
00001b6a l       .debug_str	00000000 
00001b73 l       .debug_str	00000000 
00001b94 l       .debug_str	00000000 
00001ba7 l       .debug_str	00000000 
00001bdd l       .debug_str	00000000 
00001c60 l       .debug_str	00000000 
00001ceb l       .debug_str	00000000 
00001d07 l       .debug_str	00000000 
00001d53 l       .debug_str	00000000 
00001da7 l       .debug_str	00000000 
00001dc4 l       .debug_str	00000000 
00001dd8 l       .debug_str	00000000 
00001e24 l       .debug_str	00000000 
00001e78 l       .debug_str	00000000 
00001e8e l       .debug_str	00000000 
00001ea2 l       .debug_str	00000000 
00001ee9 l       .debug_str	00000000 
00001f38 l       .debug_str	00000000 
00001f41 l       .debug_str	00000000 
00001f4f l       .debug_str	00000000 
00001f80 l       .debug_str	00000000 
00001f86 l       .debug_str	00000000 
00001f8e l       .debug_str	00000000 
00001f95 l       .debug_str	00000000 
00001f9d l       .debug_str	00000000 
00001fa8 l       .debug_str	00000000 
00001fb0 l       .debug_str	00000000 
00001fbf l       .debug_str	00000000 
00001fc3 l       .debug_str	00000000 
00001fce l       .debug_str	00000000 
00001fda l       .debug_str	00000000 
00001fe5 l       .debug_str	00000000 
00001ff6 l       .debug_str	00000000 
00001ffc l       .debug_str	00000000 
00002004 l       .debug_str	00000000 
0000200b l       .debug_str	00000000 
00002015 l       .debug_str	00000000 
0000201d l       .debug_str	00000000 
00002025 l       .debug_str	00000000 
00002047 l       .debug_str	00000000 
00002052 l       .debug_str	00000000 
0000205e l       .debug_str	00000000 
00002066 l       .debug_str	00000000 
0000206f l       .debug_str	00000000 
0000207a l       .debug_str	00000000 
00002081 l       .debug_str	00000000 
0000208c l       .debug_str	00000000 
00002097 l       .debug_str	00000000 
000020a7 l       .debug_str	00000000 
000020b1 l       .debug_str	00000000 
000020b7 l       .debug_str	00000000 
000020d9 l       .debug_str	00000000 
00002111 l       .debug_str	00000000 
00002151 l       .debug_str	00000000 
00002158 l       .debug_str	00000000 
00002160 l       .debug_str	00000000 
00002177 l       .debug_str	00000000 
00002180 l       .debug_str	00000000 
00002190 l       .debug_str	00000000 
0000219f l       .debug_str	00000000 
000021a7 l       .debug_str	00000000 
000021ae l       .debug_str	00000000 
000021b6 l       .debug_str	00000000 
000021d4 l       .debug_str	00000000 
000021e4 l       .debug_str	00000000 
00002217 l       .debug_str	00000000 
0000222c l       .debug_str	00000000 
00002235 l       .debug_str	00000000 
00002292 l       .debug_str	00000000 
000022f7 l       .debug_str	00000000 
00002301 l       .debug_str	00000000 
00002311 l       .debug_str	00000000 
00002326 l       .debug_str	00000000 
0000232e l       .debug_str	00000000 
00002392 l       .debug_str	00000000 
00000000 l     O .rodata..Lanon.7dfc9fc343765df019e48276d291c4a7.1	0000000e .Lanon.7dfc9fc343765df019e48276d291c4a7.1
00000000 l     O .rodata..Lanon.7dfc9fc343765df019e48276d291c4a7.2	00000006 .Lanon.7dfc9fc343765df019e48276d291c4a7.2
00000000 l     O .rodata..Lanon.7dfc9fc343765df019e48276d291c4a7.4	0000000c .Lanon.7dfc9fc343765df019e48276d291c4a7.4
00000000 l     O .rodata._ZN3app10app_sensor13SENSOR_DEVICE17hc0e7c685e9073da9E	0000000c app::app_sensor::SENSOR_DEVICE
00000000 l    d  .text._ZN3app10app_sensor21start_sensor_listener17h8a57f59f882a8564E	00000000 .text._ZN3app10app_sensor21start_sensor_listener17h8a57f59f882a8564E
00000000 l    d  .rodata..Lanon.7dfc9fc343765df019e48276d291c4a7.0	00000000 .rodata..Lanon.7dfc9fc343765df019e48276d291c4a7.0
00000000 l    d  .rodata._ZN3app10app_sensor13SENSOR_DEVICE17hc0e7c685e9073da9E	00000000 .rodata._ZN3app10app_sensor13SENSOR_DEVICE17hc0e7c685e9073da9E
00000000 l    d  .rodata..Lanon.7dfc9fc343765df019e48276d291c4a7.3	00000000 .rodata..Lanon.7dfc9fc343765df019e48276d291c4a7.3
00000000 l    d  .debug_abbrev	00000000 .debug_abbrev
00000000 l    d  .debug_info	00000000 .debug_info
00000000 l    d  .debug_ranges	00000000 .debug_ranges
00000000 l    d  .debug_frame	00000000 .debug_frame
00000000 l    d  .debug_line	00000000 .debug_line
00000000 g     F .text._ZN3app10app_sensor21start_sensor_listener17h8a57f59f882a8564E	00000176 .hidden app::app_sensor::start_sensor_listener
00000000         *UND*	00000000 .hidden app::app_network::aggregate_sensor_data
00000000         *UND*	00000000 core::option::Option<T>::expect
00000000         *UND*	00000000 <T as core::convert::From<T>>::from
00000000         *UND*	00000000 mynewt::hw::sensor_mgr::find_bydevname
00000000         *UND*	00000000 mynewt::hw::sensor::register_listener
00000000         *UND*	00000000 mynewt::hw::sensor::new_sensor_listener
00000000         *UND*	00000000 mynewt::hw::sensor::bindings::set_poll_rate_ms
00000000         *UND*	00000000 mynewt::sys::console::print
00000000         *UND*	00000000 <core::result::Result<T,E> as core::ops::try::Try>::from_error
00000000         *UND*	00000000 <core::result::Result<T,E> as core::ops::try::Try>::into_result
00000000         *UND*	00000000 <core::result::Result<T,E> as core::ops::try::Try>::into_result
00000000         *UND*	00000000 <mynewt::hw::sensor_mgr::SensorsByDevname as core::iter::traits::iterator::Iterator>::next



Disassembly of section .text._ZN3app10app_sensor21start_sensor_listener17h8a57f59f882a8564E:

00000000 <app::app_sensor::start_sensor_listener>:
_ZN3app10app_sensor21start_sensor_listener17h8a57f59f882a8564E():
/Users/Luppy/mynewt/stm32bluepill-mynewt-sensor/rust/app/src/app_sensor.rs:46
///  Type of sensor: Raw temperature sensor (integer sensor values 0 to 4095)
const TEMP_SENSOR_TYPE: sensor_type_t = sensor::SENSOR_TYPE_AMBIENT_TEMPERATURE_RAW;

///  Ask Mynewt to poll or read the temperature sensor and call `aggregate_sensor_data()`
///  Return `Ok()` if successful, else return `Err()` with `MynewtError` error code inside.
pub fn start_sensor_listener() -> MynewtResult<()>  {  //  Returns an error code upon error.
   0:	b5f0      	push	{r4, r5, r6, r7, lr}
   2:	b0bd      	sub	sp, #244	; 0xf4
/Users/Luppy/mynewt/stm32bluepill-mynewt-sensor/rust/app/src/app_sensor.rs:47
    console::print("Rust TMP poll\n");
   4:	f240 0000 	movw	r0, #0
   8:	f2c0 0000 	movt	r0, #0
   c:	210e      	movs	r1, #14
   e:	f7ff fffe 	bl	0 <mynewt::sys::console::print>
  12:	e7ff      	b.n	2 <app::app_sensor::start_sensor_listener+0x2>
/Users/Luppy/mynewt/stm32bluepill-mynewt-sensor/rust/app/src/app_sensor.rs:50

    //  Fetch the sensor by name.
    let sensor = sensor_mgr::find_bydevname(&SENSOR_DEVICE)
  14:	f240 0100 	movw	r1, #0
  18:	f2c0 0100 	movt	r1, #0
  1c:	a80d      	add	r0, sp, #52	; 0x34
  1e:	f7ff fffe 	bl	0 <mynewt::hw::sensor_mgr::find_bydevname>
  22:	e7ff      	b.n	24 <app::app_sensor::start_sensor_listener+0x24>
  24:	a80d      	add	r0, sp, #52	; 0x34
  26:	f7ff fffe 	bl	0 <<mynewt::hw::sensor_mgr::SensorsByDevname as core::iter::traits::iterator::Iterator>::next>
  2a:	900a      	str	r0, [sp, #40]	; 0x28
  2c:	9109      	str	r1, [sp, #36]	; 0x24
  2e:	e7ff      	b.n	30 <app::app_sensor::start_sensor_listener+0x30>
  30:	f240 0200 	movw	r2, #0
  34:	f2c0 0200 	movt	r2, #0
  38:	2306      	movs	r3, #6
  3a:	980a      	ldr	r0, [sp, #40]	; 0x28
  3c:	9909      	ldr	r1, [sp, #36]	; 0x24
  3e:	f7ff fffe 	bl	0 <core::option::Option<T>::expect>
  42:	900c      	str	r0, [sp, #48]	; 0x30
  44:	e7ff      	b.n	46 <app::app_sensor::start_sensor_listener+0x46>
/Users/Luppy/mynewt/stm32bluepill-mynewt-sensor/rust/app/src/app_sensor.rs:55
        .next()             //  Fetch the first sensor that matches
        .expect("no TMP");  //  Stop if no sensor found

    //  At power on, we ask Mynewt to poll our temperature sensor every 10 seconds.
    sensor::set_poll_rate_ms(&SENSOR_DEVICE, SENSOR_POLL_TIME) ? ;
  46:	f240 0000 	movw	r0, #0
  4a:	f2c0 0000 	movt	r0, #0
  4e:	f247 5130 	movw	r1, #30000	; 0x7530
  52:	f7ff fffe 	bl	0 <mynewt::hw::sensor::bindings::set_poll_rate_ms>
  56:	9008      	str	r0, [sp, #32]
  58:	e7ff      	b.n	5a <app::app_sensor::start_sensor_listener+0x5a>
  5a:	9808      	ldr	r0, [sp, #32]
  5c:	f7ff fffe 	bl	0 <<core::result::Result<T,E> as core::ops::try::Try>::into_result>
  60:	9011      	str	r0, [sp, #68]	; 0x44
  62:	e7ff      	b.n	64 <app::app_sensor::start_sensor_listener+0x64>
  64:	9811      	ldr	r0, [sp, #68]	; 0x44
  66:	1e41      	subs	r1, r0, #1
  68:	bf18      	it	ne
  6a:	2101      	movne	r1, #1
  6c:	2801      	cmp	r0, #1
  6e:	9107      	str	r1, [sp, #28]
  70:	d016      	beq.n	a0 <app::app_sensor::start_sensor_listener+0xa0>
  72:	e7ff      	b.n	74 <app::app_sensor::start_sensor_listener+0x74>
  74:	9807      	ldr	r0, [sp, #28]
  76:	2801      	cmp	r0, #1
  78:	d001      	beq.n	7e <app::app_sensor::start_sensor_listener+0x7e>
  7a:	e7ff      	b.n	7c <app::app_sensor::start_sensor_listener+0x7c>
/Users/Luppy/mynewt/stm32bluepill-mynewt-sensor/rust/app/src/app_sensor.rs:69
    //  Register the Listener Function to be called with the polled sensor data.
    sensor::register_listener(sensor, listener) ? ;  //  `?` means in case of error, return error now.

    //  Return `Ok()` to indicate success.  This line should not end with a semicolon (;).
    Ok(())
  7c:	defe      	udf	#254	; 0xfe
/Users/Luppy/mynewt/stm32bluepill-mynewt-sensor/rust/app/src/app_sensor.rs:55
    sensor::set_poll_rate_ms(&SENSOR_DEVICE, SENSOR_POLL_TIME) ? ;
  7e:	9811      	ldr	r0, [sp, #68]	; 0x44
  80:	9012      	str	r0, [sp, #72]	; 0x48
  82:	9812      	ldr	r0, [sp, #72]	; 0x48
  84:	f7ff fffe 	bl	0 <<T as core::convert::From<T>>::from>
  88:	9006      	str	r0, [sp, #24]
  8a:	e7ff      	b.n	8c <app::app_sensor::start_sensor_listener+0x8c>
  8c:	9806      	ldr	r0, [sp, #24]
  8e:	f7ff fffe 	bl	0 <<core::result::Result<T,E> as core::ops::try::Try>::from_error>
  92:	900b      	str	r0, [sp, #44]	; 0x2c
  94:	e7ff      	b.n	96 <app::app_sensor::start_sensor_listener+0x96>
  96:	e002      	b.n	9e <app::app_sensor::start_sensor_listener+0x9e>
/Users/Luppy/mynewt/stm32bluepill-mynewt-sensor/rust/app/src/app_sensor.rs:69
  98:	980b      	ldr	r0, [sp, #44]	; 0x2c
  9a:	b03d      	add	sp, #244	; 0xf4
  9c:	bdf0      	pop	{r4, r5, r6, r7, pc}
/Users/Luppy/mynewt/stm32bluepill-mynewt-sensor/rust/app/src/app_sensor.rs:55
    sensor::set_poll_rate_ms(&SENSOR_DEVICE, SENSOR_POLL_TIME) ? ;
  9e:	e7fb      	b.n	98 <app::app_sensor::start_sensor_listener+0x98>
/Users/Luppy/mynewt/stm32bluepill-mynewt-sensor/rust/app/src/app_sensor.rs:58
    let listener = sensor::new_sensor_listener(
  a0:	f240 0000 	movw	r0, #0
  a4:	f2c0 0000 	movt	r0, #0
  a8:	4669      	mov	r1, sp
  aa:	6008      	str	r0, [r1, #0]
  ac:	f240 0100 	movw	r1, #0
  b0:	f2c0 0100 	movt	r1, #0
  b4:	a822      	add	r0, sp, #136	; 0x88
  b6:	f04f 6280 	mov.w	r2, #67108864	; 0x4000000
  ba:	2300      	movs	r3, #0
  bc:	f7ff fffe 	bl	0 <mynewt::hw::sensor::new_sensor_listener>
  c0:	e7ff      	b.n	c2 <app::app_sensor::start_sensor_listener+0xc2>
  c2:	a81a      	add	r0, sp, #104	; 0x68
  c4:	a922      	add	r1, sp, #136	; 0x88
  c6:	f7ff fffe 	bl	0 <<core::result::Result<T,E> as core::ops::try::Try>::into_result>
  ca:	e7ff      	b.n	cc <app::app_sensor::start_sensor_listener+0xcc>
/Users/Luppy/mynewt/stm32bluepill-mynewt-sensor/rust/app/src/app_sensor.rs:62
    ) ? ;
  cc:	981a      	ldr	r0, [sp, #104]	; 0x68
  ce:	2800      	cmp	r0, #0
  d0:	9005      	str	r0, [sp, #20]
  d2:	d012      	beq.n	fa <app::app_sensor::start_sensor_listener+0xfa>
  d4:	e7ff      	b.n	d6 <app::app_sensor::start_sensor_listener+0xd6>
  d6:	9805      	ldr	r0, [sp, #20]
  d8:	2801      	cmp	r0, #1
  da:	d1cf      	bne.n	7c <app::app_sensor::start_sensor_listener+0x7c>
  dc:	e7ff      	b.n	de <app::app_sensor::start_sensor_listener+0xde>
  de:	981b      	ldr	r0, [sp, #108]	; 0x6c
  e0:	902b      	str	r0, [sp, #172]	; 0xac
  e2:	982b      	ldr	r0, [sp, #172]	; 0xac
  e4:	f7ff fffe 	bl	0 <<T as core::convert::From<T>>::from>
  e8:	9004      	str	r0, [sp, #16]
  ea:	e7ff      	b.n	ec <app::app_sensor::start_sensor_listener+0xec>
  ec:	9804      	ldr	r0, [sp, #16]
  ee:	f7ff fffe 	bl	0 <<core::result::Result<T,E> as core::ops::try::Try>::from_error>
  f2:	900b      	str	r0, [sp, #44]	; 0x2c
  f4:	e7ff      	b.n	f6 <app::app_sensor::start_sensor_listener+0xf6>
  f6:	e7ff      	b.n	f8 <app::app_sensor::start_sensor_listener+0xf8>
  f8:	e7d1      	b.n	9e <app::app_sensor::start_sensor_listener+0x9e>
  fa:	a81a      	add	r0, sp, #104	; 0x68
/Users/Luppy/mynewt/stm32bluepill-mynewt-sensor/rust/app/src/app_sensor.rs:58
    let listener = sensor::new_sensor_listener(
  fc:	3008      	adds	r0, #8
  fe:	a92c      	add	r1, sp, #176	; 0xb0
 100:	460a      	mov	r2, r1
 102:	e890 5078 	ldmia.w	r0, {r3, r4, r5, r6, ip, lr}
 106:	e882 5078 	stmia.w	r2, {r3, r4, r5, r6, ip, lr}
 10a:	a814      	add	r0, sp, #80	; 0x50
 10c:	4602      	mov	r2, r0
 10e:	e891 5078 	ldmia.w	r1, {r3, r4, r5, r6, ip, lr}
 112:	e882 5078 	stmia.w	r2, {r3, r4, r5, r6, ip, lr}
/Users/Luppy/mynewt/stm32bluepill-mynewt-sensor/rust/app/src/app_sensor.rs:65
    sensor::register_listener(sensor, listener) ? ;  //  `?` means in case of error, return error now.
 116:	990c      	ldr	r1, [sp, #48]	; 0x30
 118:	aa34      	add	r2, sp, #208	; 0xd0
 11a:	4613      	mov	r3, r2
 11c:	e890 50f0 	ldmia.w	r0, {r4, r5, r6, r7, ip, lr}
 120:	e883 50f0 	stmia.w	r3, {r4, r5, r6, r7, ip, lr}
 124:	4608      	mov	r0, r1
 126:	4611      	mov	r1, r2
 128:	f7ff fffe 	bl	0 <mynewt::hw::sensor::register_listener>
 12c:	9003      	str	r0, [sp, #12]
 12e:	e7ff      	b.n	130 <app::app_sensor::start_sensor_listener+0x130>
 130:	9803      	ldr	r0, [sp, #12]
 132:	f7ff fffe 	bl	0 <<core::result::Result<T,E> as core::ops::try::Try>::into_result>
 136:	9033      	str	r0, [sp, #204]	; 0xcc
 138:	e7ff      	b.n	13a <app::app_sensor::start_sensor_listener+0x13a>
 13a:	9833      	ldr	r0, [sp, #204]	; 0xcc
 13c:	1e41      	subs	r1, r0, #1
 13e:	bf18      	it	ne
 140:	2101      	movne	r1, #1
 142:	2801      	cmp	r0, #1
 144:	9102      	str	r1, [sp, #8]
 146:	d011      	beq.n	16c <app::app_sensor::start_sensor_listener+0x16c>
 148:	e7ff      	b.n	14a <app::app_sensor::start_sensor_listener+0x14a>
 14a:	9802      	ldr	r0, [sp, #8]
 14c:	2801      	cmp	r0, #1
 14e:	d195      	bne.n	7c <app::app_sensor::start_sensor_listener+0x7c>
 150:	e7ff      	b.n	152 <app::app_sensor::start_sensor_listener+0x152>
 152:	9833      	ldr	r0, [sp, #204]	; 0xcc
 154:	903a      	str	r0, [sp, #232]	; 0xe8
 156:	983a      	ldr	r0, [sp, #232]	; 0xe8
 158:	f7ff fffe 	bl	0 <<T as core::convert::From<T>>::from>
 15c:	9001      	str	r0, [sp, #4]
 15e:	e7ff      	b.n	160 <app::app_sensor::start_sensor_listener+0x160>
 160:	9801      	ldr	r0, [sp, #4]
 162:	f7ff fffe 	bl	0 <<core::result::Result<T,E> as core::ops::try::Try>::from_error>
 166:	900b      	str	r0, [sp, #44]	; 0x2c
 168:	e7ff      	b.n	16a <app::app_sensor::start_sensor_listener+0x16a>
 16a:	e7c5      	b.n	f8 <app::app_sensor::start_sensor_listener+0xf8>
 16c:	2000      	movs	r0, #0
/Users/Luppy/mynewt/stm32bluepill-mynewt-sensor/rust/app/src/app_sensor.rs:68
    Ok(())
 16e:	900b      	str	r0, [sp, #44]	; 0x2c
 170:	2001      	movs	r0, #1
 172:	900b      	str	r0, [sp, #44]	; 0x2c
/Users/Luppy/mynewt/stm32bluepill-mynewt-sensor/rust/app/src/app_sensor.rs:69
 174:	e790      	b.n	98 <app::app_sensor::start_sensor_listener+0x98>

app-e8778d9de5b9c761.1n5a1pth5nsctotx.rcgu.o:     file format elf32-littlearm

SYMBOL TABLE:
00000000 l    df *ABS*	00000000 1n5a1pth5nsctotx
000000ef l       .debug_str	00000000 
00000092 l       .debug_str	00000000 
0000009b l       .debug_str	00000000 
000000eb l       .debug_str	00000000 
0000013f l       .debug_str	00000000 
00000194 l       .debug_str	00000000 
00000143 l       .debug_str	00000000 
00000000 l       .debug_str	00000000 
00000041 l       .debug_str	00000000 
00000055 l       .debug_str	00000000 
00000085 l       .debug_str	00000000 
0000008a l       .debug_str	00000000 
00000000 l    d  .text._ZN46_$LT$f64$u20$as$u20$core..default..Default$GT$7default17hcf4ae9eb58d02c8eE	00000000 .text._ZN46_$LT$f64$u20$as$u20$core..default..Default$GT$7default17hcf4ae9eb58d02c8eE
00000000 l    d  .text._ZN46_$LT$u32$u20$as$u20$core..default..Default$GT$7default17ha8c135b5518357eeE	00000000 .text._ZN46_$LT$u32$u20$as$u20$core..default..Default$GT$7default17ha8c135b5518357eeE
00000000 l    d  .text._ZN47_$LT$bool$u20$as$u20$core..default..Default$GT$7default17h2647443ebe4a6b2dE	00000000 .text._ZN47_$LT$bool$u20$as$u20$core..default..Default$GT$7default17h2647443ebe4a6b2dE
00000000 l    d  .debug_abbrev	00000000 .debug_abbrev
00000000 l    d  .debug_info	00000000 .debug_info
00000000 l    d  .debug_ranges	00000000 .debug_ranges
00000000 l    d  .debug_frame	00000000 .debug_frame
00000000 l    d  .debug_line	00000000 .debug_line
00000000 g     F .text._ZN46_$LT$f64$u20$as$u20$core..default..Default$GT$7default17hcf4ae9eb58d02c8eE	00000010 .hidden <f64 as core::default::Default>::default
00000000 g     F .text._ZN46_$LT$u32$u20$as$u20$core..default..Default$GT$7default17ha8c135b5518357eeE	00000004 .hidden <u32 as core::default::Default>::default
00000000 g     F .text._ZN47_$LT$bool$u20$as$u20$core..default..Default$GT$7default17h2647443ebe4a6b2dE	00000004 .hidden <bool as core::default::Default>::default



Disassembly of section .text._ZN46_$LT$f64$u20$as$u20$core..default..Default$GT$7default17hcf4ae9eb58d02c8eE:

00000000 <<f64 as core::default::Default>::default>:
_ZN46_$LT$f64$u20$as$u20$core..default..Default$GT$7default17hcf4ae9eb58d02c8eE():
/rustc/50a0defd5a93523067ef239936cc2e0755220904/src/libcore/default.rs:124
   0:	ed9f 0b01 	vldr	d0, [pc, #4]	; 8 <<f64 as core::default::Default>::default+0x8>
   4:	4770      	bx	lr
   6:	bf00      	nop
	...

Disassembly of section .text._ZN46_$LT$u32$u20$as$u20$core..default..Default$GT$7default17ha8c135b5518357eeE:

00000000 <<u32 as core::default::Default>::default>:
_ZN46_$LT$u32$u20$as$u20$core..default..Default$GT$7default17ha8c135b5518357eeE():
/rustc/50a0defd5a93523067ef239936cc2e0755220904/src/libcore/default.rs:124
   0:	2000      	movs	r0, #0
   2:	4770      	bx	lr

Disassembly of section .text._ZN47_$LT$bool$u20$as$u20$core..default..Default$GT$7default17h2647443ebe4a6b2dE:

00000000 <<bool as core::default::Default>::default>:
_ZN47_$LT$bool$u20$as$u20$core..default..Default$GT$7default17h2647443ebe4a6b2dE():
/rustc/50a0defd5a93523067ef239936cc2e0755220904/src/libcore/default.rs:124
   0:	2000      	movs	r0, #0
   2:	4770      	bx	lr

app-e8778d9de5b9c761.1ogrl8pkaekiubxw.rcgu.o:     file format elf32-littlearm

SYMBOL TABLE:
00000000 l    df *ABS*	00000000 1ogrl8pkaekiubxw
0000422c l       .debug_str	00000000 
00004e1b l       .debug_str	00000000 
00004e26 l       .debug_str	00000000 
00004e36 l       .debug_str	00000000 
00004e46 l       .debug_str	00000000 
00004e79 l       .debug_str	00000000 
00004e8e l       .debug_str	00000000 
00004e97 l       .debug_str	00000000 
00004ef4 l       .debug_str	00000000 
00004f59 l       .debug_str	00000000 
00004f63 l       .debug_str	00000000 
00004f73 l       .debug_str	00000000 
00004f88 l       .debug_str	00000000 
00004f90 l       .debug_str	00000000 
00004ff4 l       .debug_str	00000000 
00005060 l       .debug_str	00000000 
00005067 l       .debug_str	00000000 
0000506f l       .debug_str	00000000 
0000508d l       .debug_str	00000000 
0000509d l       .debug_str	00000000 
000050d0 l       .debug_str	00000000 
000050e5 l       .debug_str	00000000 
000050f8 l       .debug_str	00000000 
0000510d l       .debug_str	00000000 
00005114 l       .debug_str	00000000 
00005129 l       .debug_str	00000000 
00005153 l       .debug_str	00000000 
000051cf l       .debug_str	00000000 
00005253 l       .debug_str	00000000 
0000525a l       .debug_str	00000000 
00005262 l       .debug_str	00000000 
00005280 l       .debug_str	00000000 
00005290 l       .debug_str	00000000 
00005300 l       .debug_str	00000000 
00005357 l       .debug_str	00000000 
000053aa l       .debug_str	00000000 
000053ae l       .debug_str	00000000 
000053b6 l       .debug_str	00000000 
000053bc l       .debug_str	00000000 
000053c1 l       .debug_str	00000000 
000053c9 l       .debug_str	00000000 
000053ce l       .debug_str	00000000 
0000543e l       .debug_str	00000000 
00005474 l       .debug_str	00000000 
000054a6 l       .debug_str	00000000 
000054aa l       .debug_str	00000000 
000054af l       .debug_str	00000000 
000054b5 l       .debug_str	00000000 
000054ba l       .debug_str	00000000 
000054e1 l       .debug_str	00000000 
0000550e l       .debug_str	00000000 
0000554b l       .debug_str	00000000 
00005566 l       .debug_str	00000000 
00005569 l       .debug_str	00000000 
0000556b l       .debug_str	00000000 
0000556d l       .debug_str	00000000 
00005572 l       .debug_str	00000000 
00000000 l       .debug_str	00000000 
00000041 l       .debug_str	00000000 
00000055 l       .debug_str	00000000 
00000085 l       .debug_str	00000000 
0000008a l       .debug_str	00000000 
00000091 l       .debug_str	00000000 
00000094 l       .debug_str	00000000 
00000099 l       .debug_str	00000000 
0000009e l       .debug_str	00000000 
000000a5 l       .debug_str	00000000 
000000ab l       .debug_str	00000000 
000000b2 l       .debug_str	00000000 
000000b7 l       .debug_str	00000000 
000000c2 l       .debug_str	00000000 
000000cb l       .debug_str	00000000 
000000d0 l       .debug_str	00000000 
000000d7 l       .debug_str	00000000 
000000de l       .debug_str	00000000 
000000e2 l       .debug_str	00000000 
000000ea l       .debug_str	00000000 
000000f5 l       .debug_str	00000000 
00000100 l       .debug_str	00000000 
0000010d l       .debug_str	00000000 
00000118 l       .debug_str	00000000 
00000120 l       .debug_str	00000000 
0000012b l       .debug_str	00000000 
00000136 l       .debug_str	00000000 
00000140 l       .debug_str	00000000 
0000014b l       .debug_str	00000000 
00000156 l       .debug_str	00000000 
00000163 l       .debug_str	00000000 
0000016f l       .debug_str	00000000 
0000017c l       .debug_str	00000000 
0000018a l       .debug_str	00000000 
00000194 l       .debug_str	00000000 
000001a1 l       .debug_str	00000000 
000001ad l       .debug_str	00000000 
000001b1 l       .debug_str	00000000 
000001bc l       .debug_str	00000000 
000001c7 l       .debug_str	00000000 
000001ce l       .debug_str	00000000 
000001d1 l       .debug_str	00000000 
000001d5 l       .debug_str	00000000 
000001dc l       .debug_str	00000000 
000001e0 l       .debug_str	00000000 
000001e4 l       .debug_str	00000000 
000001f0 l       .debug_str	00000000 
000001f9 l       .debug_str	00000000 
00000202 l       .debug_str	00000000 
00000209 l       .debug_str	00000000 
00000213 l       .debug_str	00000000 
00000219 l       .debug_str	00000000 
00000221 l       .debug_str	00000000 
0000022d l       .debug_str	00000000 
00000236 l       .debug_str	00000000 
0000023e l       .debug_str	00000000 
00000245 l       .debug_str	00000000 
00000247 l       .debug_str	00000000 
00000258 l       .debug_str	00000000 
0000026a l       .debug_str	00000000 
00000273 l       .debug_str	00000000 
000002a6 l       .debug_str	00000000 
000002da l       .debug_str	00000000 
000002e0 l       .debug_str	00000000 
000002e6 l       .debug_str	00000000 
000002ef l       .debug_str	00000000 
000002f9 l       .debug_str	00000000 
00000300 l       .debug_str	00000000 
00000306 l       .debug_str	00000000 
0000030b l       .debug_str	00000000 
00000314 l       .debug_str	00000000 
0000031a l       .debug_str	00000000 
0000031c l       .debug_str	00000000 
0000039c l       .debug_str	00000000 
0000039f l       .debug_str	00000000 
000003a3 l       .debug_str	00000000 
000003b0 l       .debug_str	00000000 
000003b9 l       .debug_str	00000000 
000003c0 l       .debug_str	00000000 
000003c2 l       .debug_str	00000000 
000003c6 l       .debug_str	00000000 
000003cd l       .debug_str	00000000 
000003d1 l       .debug_str	00000000 
000003d8 l       .debug_str	00000000 
000003de l       .debug_str	00000000 
000003ec l       .debug_str	00000000 
000003f1 l       .debug_str	00000000 
000003f9 l       .debug_str	00000000 
00000401 l       .debug_str	00000000 
00000403 l       .debug_str	00000000 
0000041f l       .debug_str	00000000 
00000427 l       .debug_str	00000000 
00000437 l       .debug_str	00000000 
0000047c l       .debug_str	00000000 
000004e9 l       .debug_str	00000000 
0000057f l       .debug_str	00000000 
0000063e l       .debug_str	00000000 
00000646 l       .debug_str	00000000 
0000064b l       .debug_str	00000000 
00000651 l       .debug_str	00000000 
00000655 l       .debug_str	00000000 
00000658 l       .debug_str	00000000 
00000681 l       .debug_str	00000000 
000006b7 l       .debug_str	00000000 
000006b9 l       .debug_str	00000000 
000006e6 l       .debug_str	00000000 
000006e9 l       .debug_str	00000000 
00000739 l       .debug_str	00000000 
00000796 l       .debug_str	00000000 
000007ea l       .debug_str	00000000 
00000861 l       .debug_str	00000000 
000008e5 l       .debug_str	00000000 
00000960 l       .debug_str	00000000 
000009fe l       .debug_str	00000000 
00000aa9 l       .debug_str	00000000 
00000b4b l       .debug_str	00000000 
00000c10 l       .debug_str	00000000 
00000ce2 l       .debug_str	00000000 
00000dab l       .debug_str	00000000 
00000e95 l       .debug_str	00000000 
00000f9c l       .debug_str	00000000 
000010a2 l       .debug_str	00000000 
000010a6 l       .debug_str	00000000 
000010a8 l       .debug_str	00000000 
000011a6 l       .debug_str	00000000 
000012a7 l       .debug_str	00000000 
000012a9 l       .debug_str	00000000 
00001389 l       .debug_str	00000000 
0000138e l       .debug_str	00000000 
00001392 l       .debug_str	00000000 
00001396 l       .debug_str	00000000 
000013a7 l       .debug_str	00000000 
000014b7 l       .debug_str	00000000 
000014c6 l       .debug_str	00000000 
000014f2 l       .debug_str	00000000 
0000152a l       .debug_str	00000000 
00001536 l       .debug_str	00000000 
0000153c l       .debug_str	00000000 
00001541 l       .debug_str	00000000 
00001544 l       .debug_str	00000000 
00001548 l       .debug_str	00000000 
0000154b l       .debug_str	00000000 
0000154e l       .debug_str	00000000 
00001551 l       .debug_str	00000000 
00001556 l       .debug_str	00000000 
00001562 l       .debug_str	00000000 
00001567 l       .debug_str	00000000 
0000156e l       .debug_str	00000000 
00001578 l       .debug_str	00000000 
00001583 l       .debug_str	00000000 
00001590 l       .debug_str	00000000 
0000159e l       .debug_str	00000000 
000015a8 l       .debug_str	00000000 
000015b6 l       .debug_str	00000000 
000015c0 l       .debug_str	00000000 
000015c9 l       .debug_str	00000000 
000015d5 l       .debug_str	00000000 
000015db l       .debug_str	00000000 
000015e5 l       .debug_str	00000000 
000015e7 l       .debug_str	00000000 
000015f6 l       .debug_str	00000000 
000015f8 l       .debug_str	00000000 
00001631 l       .debug_str	00000000 
00001638 l       .debug_str	00000000 
0000163f l       .debug_str	00000000 
00001650 l       .debug_str	00000000 
00001682 l       .debug_str	00000000 
000016aa l       .debug_str	00000000 
000016ae l       .debug_str	00000000 
000016b2 l       .debug_str	00000000 
000016bf l       .debug_str	00000000 
000016c2 l       .debug_str	00000000 
000016cc l       .debug_str	00000000 
000016d5 l       .debug_str	00000000 
00001714 l       .debug_str	00000000 
00001747 l       .debug_str	00000000 
000017d2 l       .debug_str	00000000 
000018a9 l       .debug_str	00000000 
000019cc l       .debug_str	00000000 
00001a43 l       .debug_str	00000000 
00001ac7 l       .debug_str	00000000 
00001b42 l       .debug_str	00000000 
00001be0 l       .debug_str	00000000 
00001c8b l       .debug_str	00000000 
00001d2d l       .debug_str	00000000 
00001e13 l       .debug_str	00000000 
00001f16 l       .debug_str	00000000 
00002018 l       .debug_str	00000000 
00002112 l       .debug_str	00000000 
000021ef l       .debug_str	00000000 
000021f9 l       .debug_str	00000000 
00002220 l       .debug_str	00000000 
00002225 l       .debug_str	00000000 
0000222b l       .debug_str	00000000 
00002232 l       .debug_str	00000000 
00002237 l       .debug_str	00000000 
00002251 l       .debug_str	00000000 
0000225e l       .debug_str	00000000 
0000228e l       .debug_str	00000000 
000022d6 l       .debug_str	00000000 
000022fc l       .debug_str	00000000 
00002303 l       .debug_str	00000000 
00002306 l       .debug_str	00000000 
00002310 l       .debug_str	00000000 
0000231b l       .debug_str	00000000 
00002324 l       .debug_str	00000000 
0000232f l       .debug_str	00000000 
0000233b l       .debug_str	00000000 
0000233f l       .debug_str	00000000 
00002348 l       .debug_str	00000000 
0000234f l       .debug_str	00000000 
00002357 l       .debug_str	00000000 
0000235f l       .debug_str	00000000 
00002369 l       .debug_str	00000000 
0000236f l       .debug_str	00000000 
00002376 l       .debug_str	00000000 
0000237d l       .debug_str	00000000 
00002394 l       .debug_str	00000000 
000023c1 l       .debug_str	00000000 
000023f6 l       .debug_str	00000000 
000023fc l       .debug_str	00000000 
00002402 l       .debug_str	00000000 
00002411 l       .debug_str	00000000 
00002421 l       .debug_str	00000000 
00002431 l       .debug_str	00000000 
00002439 l       .debug_str	00000000 
00002462 l       .debug_str	00000000 
000024c0 l       .debug_str	00000000 
00002526 l       .debug_str	00000000 
0000252d l       .debug_str	00000000 
00002535 l       .debug_str	00000000 
0000253e l       .debug_str	00000000 
0000255c l       .debug_str	00000000 
0000256c l       .debug_str	00000000 
0000257a l       .debug_str	00000000 
00002585 l       .debug_str	00000000 
00002592 l       .debug_str	00000000 
000025a1 l       .debug_str	00000000 
000025ab l       .debug_str	00000000 
000025c1 l       .debug_str	00000000 
000025cb l       .debug_str	00000000 
000025d4 l       .debug_str	00000000 
000025dd l       .debug_str	00000000 
00002603 l       .debug_str	00000000 
00002619 l       .debug_str	00000000 
00002624 l       .debug_str	00000000 
0000263a l       .debug_str	00000000 
00002642 l       .debug_str	00000000 
00002663 l       .debug_str	00000000 
0000266c l       .debug_str	00000000 
00002675 l       .debug_str	00000000 
00002680 l       .debug_str	00000000 
0000268a l       .debug_str	00000000 
00002690 l       .debug_str	00000000 
000026c8 l       .debug_str	00000000 
00002708 l       .debug_str	00000000 
0000270f l       .debug_str	00000000 
00002717 l       .debug_str	00000000 
0000272e l       .debug_str	00000000 
00002737 l       .debug_str	00000000 
00002759 l       .debug_str	00000000 
00002763 l       .debug_str	00000000 
0000278a l       .debug_str	00000000 
000027a2 l       .debug_str	00000000 
000027ac l       .debug_str	00000000 
000027cf l       .debug_str	00000000 
00002817 l       .debug_str	00000000 
00002883 l       .debug_str	00000000 
00002892 l       .debug_str	00000000 
0000289b l       .debug_str	00000000 
000028ce l       .debug_str	00000000 
00002903 l       .debug_str	00000000 
00002905 l       .debug_str	00000000 
00002938 l       .debug_str	00000000 
00002973 l       .debug_str	00000000 
000029a6 l       .debug_str	00000000 
000029f1 l       .debug_str	00000000 
00002a24 l       .debug_str	00000000 
00002a4d l       .debug_str	00000000 
00002afa l       .debug_str	00000000 
00002afc l       .debug_str	00000000 
00002b39 l       .debug_str	00000000 
00002cab l       .debug_str	00000000 
00002ceb l       .debug_str	00000000 
00002d22 l       .debug_str	00000000 
00002d62 l       .debug_str	00000000 
00002d93 l       .debug_str	00000000 
00002dd3 l       .debug_str	00000000 
00002dfa l       .debug_str	00000000 
00002e3a l       .debug_str	00000000 
00002e81 l       .debug_str	00000000 
00002ec1 l       .debug_str	00000000 
00002ee6 l       .debug_str	00000000 
00002f26 l       .debug_str	00000000 
00002f6d l       .debug_str	00000000 
00002fad l       .debug_str	00000000 
00002fbb l       .debug_str	00000000 
00002fbf l       .debug_str	00000000 
00002fff l       .debug_str	00000000 
0000301b l       .debug_str	00000000 
00003056 l       .debug_str	00000000 
00003058 l       .debug_str	00000000 
00003099 l       .debug_str	00000000 
0000315a l       .debug_str	00000000 
00003162 l       .debug_str	00000000 
000031a3 l       .debug_str	00000000 
000031cb l       .debug_str	00000000 
0000320c l       .debug_str	00000000 
0000324d l       .debug_str	00000000 
00003267 l       .debug_str	00000000 
000032d6 l       .debug_str	00000000 
000032ff l       .debug_str	00000000 
0000336f l       .debug_str	00000000 
0000339d l       .debug_str	00000000 
000033c7 l       .debug_str	00000000 
00003437 l       .debug_str	00000000 
000034a7 l       .debug_str	00000000 
000034aa l       .debug_str	00000000 
000034b1 l       .debug_str	00000000 
000034ba l       .debug_str	00000000 
000034c9 l       .debug_str	00000000 
000034cd l       .debug_str	00000000 
000034d5 l       .debug_str	00000000 
000034db l       .debug_str	00000000 
000034e7 l       .debug_str	00000000 
000034ef l       .debug_str	00000000 
00003549 l       .debug_str	00000000 
000035ab l       .debug_str	00000000 
000035b6 l       .debug_str	00000000 
000035fd l       .debug_str	00000000 
0000364c l       .debug_str	00000000 
00003656 l       .debug_str	00000000 
00003693 l       .debug_str	00000000 
000036d8 l       .debug_str	00000000 
000036e1 l       .debug_str	00000000 
000036f1 l       .debug_str	00000000 
000036f9 l       .debug_str	00000000 
0000374e l       .debug_str	00000000 
000037ab l       .debug_str	00000000 
000037b7 l       .debug_str	00000000 
000037c0 l       .debug_str	00000000 
000037cc l       .debug_str	00000000 
000037d8 l       .debug_str	00000000 
000037e1 l       .debug_str	00000000 
000037e9 l       .debug_str	00000000 
000037f1 l       .debug_str	00000000 
00003806 l       .debug_str	00000000 
0000380d l       .debug_str	00000000 
0000382d l       .debug_str	00000000 
00003834 l       .debug_str	00000000 
0000383c l       .debug_str	00000000 
00003846 l       .debug_str	00000000 
0000385d l       .debug_str	00000000 
00003862 l       .debug_str	00000000 
0000386a l       .debug_str	00000000 
00003873 l       .debug_str	00000000 
0000387c l       .debug_str	00000000 
00003885 l       .debug_str	00000000 
0000388d l       .debug_str	00000000 
00003894 l       .debug_str	00000000 
000038a0 l       .debug_str	00000000 
000038ab l       .debug_str	00000000 
000038b3 l       .debug_str	00000000 
000038bb l       .debug_str	00000000 
000039b7 l       .debug_str	00000000 
00003abb l       .debug_str	00000000 
00003ac9 l       .debug_str	00000000 
00003ad4 l       .debug_str	00000000 
00003ade l       .debug_str	00000000 
00003af2 l       .debug_str	00000000 
00003afd l       .debug_str	00000000 
00003b2b l       .debug_str	00000000 
00003ba6 l       .debug_str	00000000 
00003c29 l       .debug_str	00000000 
00003c37 l       .debug_str	00000000 
00003c96 l       .debug_str	00000000 
00003cfd l       .debug_str	00000000 
00003d13 l       .debug_str	00000000 
00003d23 l       .debug_str	00000000 
00003d32 l       .debug_str	00000000 
00003d36 l       .debug_str	00000000 
00003d3c l       .debug_str	00000000 
00003d40 l       .debug_str	00000000 
00003d46 l       .debug_str	00000000 
00003d4c l       .debug_str	00000000 
00003d58 l       .debug_str	00000000 
00003d60 l       .debug_str	00000000 
00003d66 l       .debug_str	00000000 
00003d6e l       .debug_str	00000000 
00003d74 l       .debug_str	00000000 
00003d97 l       .debug_str	00000000 
00003da7 l       .debug_str	00000000 
00003dda l       .debug_str	00000000 
00003e1a l       .debug_str	00000000 
00003e62 l       .debug_str	00000000 
00003e66 l       .debug_str	00000000 
00003e6c l       .debug_str	00000000 
00003e72 l       .debug_str	00000000 
00003e78 l       .debug_str	00000000 
00003e8a l       .debug_str	00000000 
00003ebf l       .debug_str	00000000 
00003f01 l       .debug_str	00000000 
00003f4b l       .debug_str	00000000 
00003f4f l       .debug_str	00000000 
00003f55 l       .debug_str	00000000 
00003f5b l       .debug_str	00000000 
00003f61 l       .debug_str	00000000 
00003f73 l       .debug_str	00000000 
00003fa8 l       .debug_str	00000000 
00003fea l       .debug_str	00000000 
00004034 l       .debug_str	00000000 
00004038 l       .debug_str	00000000 
0000403e l       .debug_str	00000000 
00004044 l       .debug_str	00000000 
0000404a l       .debug_str	00000000 
00004050 l       .debug_str	00000000 
00004061 l       .debug_str	00000000 
00004095 l       .debug_str	00000000 
000040d6 l       .debug_str	00000000 
0000411f l       .debug_str	00000000 
00004124 l       .debug_str	00000000 
00004129 l       .debug_str	00000000 
0000412d l       .debug_str	00000000 
00004133 l       .debug_str	00000000 
00004139 l       .debug_str	00000000 
0000413f l       .debug_str	00000000 
00004150 l       .debug_str	00000000 
00004184 l       .debug_str	00000000 
000041c5 l       .debug_str	00000000 
0000420e l       .debug_str	00000000 
00004212 l       .debug_str	00000000 
0000421b l       .debug_str	00000000 
00004260 l       .debug_str	00000000 
000042a1 l       .debug_str	00000000 
000042ea l       .debug_str	00000000 
000042ef l       .debug_str	00000000 
000042f3 l       .debug_str	00000000 
000042fc l       .debug_str	00000000 
00004303 l       .debug_str	00000000 
0000430b l       .debug_str	00000000 
0000431d l       .debug_str	00000000 
00004352 l       .debug_str	00000000 
00004394 l       .debug_str	00000000 
000043de l       .debug_str	00000000 
000043e2 l       .debug_str	00000000 
000043e8 l       .debug_str	00000000 
000043ee l       .debug_str	00000000 
000043f4 l       .debug_str	00000000 
000043fa l       .debug_str	00000000 
00004402 l       .debug_str	00000000 
00004410 l       .debug_str	00000000 
0000441f l       .debug_str	00000000 
00004430 l       .debug_str	00000000 
0000443b l       .debug_str	00000000 
00004446 l       .debug_str	00000000 
00004451 l       .debug_str	00000000 
00004458 l       .debug_str	00000000 
0000447b l       .debug_str	00000000 
0000448d l       .debug_str	00000000 
000044c2 l       .debug_str	00000000 
00004504 l       .debug_str	00000000 
0000454e l       .debug_str	00000000 
00004552 l       .debug_str	00000000 
0000455c l       .debug_str	00000000 
0000456e l       .debug_str	00000000 
000045a3 l       .debug_str	00000000 
000045e5 l       .debug_str	00000000 
0000462f l       .debug_str	00000000 
00004634 l       .debug_str	00000000 
0000463e l       .debug_str	00000000 
00004650 l       .debug_str	00000000 
00004685 l       .debug_str	00000000 
000046c7 l       .debug_str	00000000 
00004711 l       .debug_str	00000000 
00004725 l       .debug_str	00000000 
00004733 l       .debug_str	00000000 
00004743 l       .debug_str	00000000 
0000474c l       .debug_str	00000000 
00004757 l       .debug_str	00000000 
00004766 l       .debug_str	00000000 
0000477b l       .debug_str	00000000 
000047ac l       .debug_str	00000000 
00004849 l       .debug_str	00000000 
000048ee l       .debug_str	00000000 
000048f9 l       .debug_str	00000000 
00004902 l       .debug_str	00000000 
00004923 l       .debug_str	00000000 
00004936 l       .debug_str	00000000 
0000496c l       .debug_str	00000000 
000049ef l       .debug_str	00000000 
00004a7a l       .debug_str	00000000 
00004a96 l       .debug_str	00000000 
00004ae2 l       .debug_str	00000000 
00004b36 l       .debug_str	00000000 
00004b53 l       .debug_str	00000000 
00004b67 l       .debug_str	00000000 
00004bb3 l       .debug_str	00000000 
00004c07 l       .debug_str	00000000 
00004c1d l       .debug_str	00000000 
00004c31 l       .debug_str	00000000 
00004c78 l       .debug_str	00000000 
00004cc7 l       .debug_str	00000000 
00004cd0 l       .debug_str	00000000 
00004cde l       .debug_str	00000000 
00004d0f l       .debug_str	00000000 
00004d15 l       .debug_str	00000000 
00004d1d l       .debug_str	00000000 
00004d24 l       .debug_str	00000000 
00004d2c l       .debug_str	00000000 
00004d37 l       .debug_str	00000000 
00004d3f l       .debug_str	00000000 
00004d4e l       .debug_str	00000000 
00004d52 l       .debug_str	00000000 
00004d5d l       .debug_str	00000000 
00004d69 l       .debug_str	00000000 
00004d74 l       .debug_str	00000000 
00004d85 l       .debug_str	00000000 
00004d8b l       .debug_str	00000000 
00004d93 l       .debug_str	00000000 
00004d9a l       .debug_str	00000000 
00004da4 l       .debug_str	00000000 
00004dac l       .debug_str	00000000 
00004db4 l       .debug_str	00000000 
00004dd6 l       .debug_str	00000000 
00004de1 l       .debug_str	00000000 
00004ded l       .debug_str	00000000 
00004df5 l       .debug_str	00000000 
00004dfe l       .debug_str	00000000 
00004e09 l       .debug_str	00000000 
00004e10 l       .debug_str	00000000 
00000000 l     O .rodata..Lanon.bd437c342cddbdbfc929accfd54f3e06.2	00000010 .Lanon.bd437c342cddbdbfc929accfd54f3e06.2
00000000 l     O .rodata..Lanon.bd437c342cddbdbfc929accfd54f3e06.4	00000010 .Lanon.bd437c342cddbdbfc929accfd54f3e06.4
00000000 l     O .rodata..Lanon.bd437c342cddbdbfc929accfd54f3e06.5	0000002b .Lanon.bd437c342cddbdbfc929accfd54f3e06.5
00000000 l    d  .text._ZN4core6result13unwrap_failed17h0a60f2302c5d9a39E	00000000 .text._ZN4core6result13unwrap_failed17h0a60f2302c5d9a39E
00000000 l    d  .text._ZN4core6result13unwrap_failed17h4b1fc79e429d9a45E	00000000 .text._ZN4core6result13unwrap_failed17h4b1fc79e429d9a45E
00000000 l    d  .text._ZN4core6result13unwrap_failed17h5e62c6a63627b52eE	00000000 .text._ZN4core6result13unwrap_failed17h5e62c6a63627b52eE
00000000 l    d  .text._ZN4core6result13unwrap_failed17ha2791feafa9e1077E	00000000 .text._ZN4core6result13unwrap_failed17ha2791feafa9e1077E
00000000 l    d  .text._ZN4core6result19Result$LT$T$C$E$GT$3map17h3968bf5ff9edda95E	00000000 .text._ZN4core6result19Result$LT$T$C$E$GT$3map17h3968bf5ff9edda95E
00000000 l    d  .text._ZN4core6result19Result$LT$T$C$E$GT$6expect17h007eef74de78d7abE	00000000 .text._ZN4core6result19Result$LT$T$C$E$GT$6expect17h007eef74de78d7abE
00000000 l    d  .text._ZN4core6result19Result$LT$T$C$E$GT$6expect17h2e26ea25e04abc4cE	00000000 .text._ZN4core6result19Result$LT$T$C$E$GT$6expect17h2e26ea25e04abc4cE
00000000 l    d  .text._ZN4core6result19Result$LT$T$C$E$GT$6expect17h5147c2852c5afa14E	00000000 .text._ZN4core6result19Result$LT$T$C$E$GT$6expect17h5147c2852c5afa14E
00000000 l    d  .text._ZN4core6result19Result$LT$T$C$E$GT$6expect17h73cef2c276d9d0fdE	00000000 .text._ZN4core6result19Result$LT$T$C$E$GT$6expect17h73cef2c276d9d0fdE
00000000 l    d  .text._ZN4core6result19Result$LT$T$C$E$GT$6expect17h8f40b012fc08a295E	00000000 .text._ZN4core6result19Result$LT$T$C$E$GT$6expect17h8f40b012fc08a295E
00000000 l    d  .text._ZN4core6result19Result$LT$T$C$E$GT$6expect17hec2020ef5b3bab9cE	00000000 .text._ZN4core6result19Result$LT$T$C$E$GT$6expect17hec2020ef5b3bab9cE
00000000 l    d  .text._ZN4core6result19Result$LT$T$C$E$GT$6unwrap17h1f5d260846f7921fE	00000000 .text._ZN4core6result19Result$LT$T$C$E$GT$6unwrap17h1f5d260846f7921fE
00000000 l    d  .text._ZN4core6result19Result$LT$T$C$E$GT$6unwrap17ha43465cada9b28d9E	00000000 .text._ZN4core6result19Result$LT$T$C$E$GT$6unwrap17ha43465cada9b28d9E
00000000 l    d  .text._ZN4core6result19Result$LT$T$C$E$GT$7map_err17h05f3ea134cfcd83dE	00000000 .text._ZN4core6result19Result$LT$T$C$E$GT$7map_err17h05f3ea134cfcd83dE
00000000 l    d  .text._ZN4core6result19Result$LT$T$C$E$GT$7map_err17h1f67d751f59ce336E	00000000 .text._ZN4core6result19Result$LT$T$C$E$GT$7map_err17h1f67d751f59ce336E
00000000 l    d  .text._ZN4core6result19Result$LT$T$C$E$GT$7map_err17h6163bd8d1ff9545cE	00000000 .text._ZN4core6result19Result$LT$T$C$E$GT$7map_err17h6163bd8d1ff9545cE
00000000 l    d  .text._ZN4core6result19Result$LT$T$C$E$GT$7map_err17hc927f8ae99161931E	00000000 .text._ZN4core6result19Result$LT$T$C$E$GT$7map_err17hc927f8ae99161931E
00000000 l    d  .text._ZN73_$LT$core..result..Result$LT$T$C$E$GT$$u20$as$u20$core..ops..try..Try$GT$10from_error17h13fef641c6784503E	00000000 .text._ZN73_$LT$core..result..Result$LT$T$C$E$GT$$u20$as$u20$core..ops..try..Try$GT$10from_error17h13fef641c6784503E
00000000 l    d  .text._ZN73_$LT$core..result..Result$LT$T$C$E$GT$$u20$as$u20$core..ops..try..Try$GT$11into_result17h59202a362cb7c0c6E	00000000 .text._ZN73_$LT$core..result..Result$LT$T$C$E$GT$$u20$as$u20$core..ops..try..Try$GT$11into_result17h59202a362cb7c0c6E
00000000 l    d  .text._ZN73_$LT$core..result..Result$LT$T$C$E$GT$$u20$as$u20$core..ops..try..Try$GT$11into_result17h6387266495e27d54E	00000000 .text._ZN73_$LT$core..result..Result$LT$T$C$E$GT$$u20$as$u20$core..ops..try..Try$GT$11into_result17h6387266495e27d54E
00000000 l    d  .text._ZN73_$LT$core..result..Result$LT$T$C$E$GT$$u20$as$u20$core..ops..try..Try$GT$11into_result17hf14d14a6548b4488E	00000000 .text._ZN73_$LT$core..result..Result$LT$T$C$E$GT$$u20$as$u20$core..ops..try..Try$GT$11into_result17hf14d14a6548b4488E
00000000 l    d  .text._ZN73_$LT$core..result..Result$LT$T$C$E$GT$$u20$as$u20$core..ops..try..Try$GT$11into_result17hf4161614e935235bE	00000000 .text._ZN73_$LT$core..result..Result$LT$T$C$E$GT$$u20$as$u20$core..ops..try..Try$GT$11into_result17hf4161614e935235bE
00000000 l    d  .rodata..Lanon.bd437c342cddbdbfc929accfd54f3e06.0	00000000 .rodata..Lanon.bd437c342cddbdbfc929accfd54f3e06.0
00000000 l    d  .rodata..Lanon.bd437c342cddbdbfc929accfd54f3e06.1	00000000 .rodata..Lanon.bd437c342cddbdbfc929accfd54f3e06.1
00000000 l    d  .rodata..Lanon.bd437c342cddbdbfc929accfd54f3e06.3	00000000 .rodata..Lanon.bd437c342cddbdbfc929accfd54f3e06.3
00000000 l    d  .debug_loc	00000000 .debug_loc
00000000 l    d  .debug_abbrev	00000000 .debug_abbrev
00000000 l    d  .debug_info	00000000 .debug_info
00000000 l    d  .debug_ranges	00000000 .debug_ranges
00000000 l    d  .debug_frame	00000000 .debug_frame
00000000 l    d  .debug_line	00000000 .debug_line
00000000         *UND*	00000000 <&T as core::fmt::Display>::fmt
00000000         *UND*	00000000 core::fmt::ArgumentV1::new
00000000         *UND*	00000000 core::fmt::ArgumentV1::new
00000000         *UND*	00000000 core::fmt::ArgumentV1::new
00000000         *UND*	00000000 core::fmt::ArgumentV1::new
00000000         *UND*	00000000 core::fmt::ArgumentV1::new
00000000         *UND*	00000000 .hidden core::fmt::Arguments::new_v1
00000000         *UND*	00000000 core::ops::function::FnOnce::call_once
00000000         *UND*	00000000 core::ops::function::FnOnce::call_once
00000000 g     F .text._ZN4core6result13unwrap_failed17h0a60f2302c5d9a39E	0000008a core::result::unwrap_failed
00000000 g     F .text._ZN4core6result13unwrap_failed17h4b1fc79e429d9a45E	0000008a core::result::unwrap_failed
00000000         *UND*	00000000 core::result::unwrap_failed
00000000         *UND*	00000000 core::result::unwrap_failed
00000000 g     F .text._ZN4core6result13unwrap_failed17h5e62c6a63627b52eE	0000008a core::result::unwrap_failed
00000000 g     F .text._ZN4core6result13unwrap_failed17ha2791feafa9e1077E	00000094 core::result::unwrap_failed
00000000         *UND*	00000000 core::result::unwrap_failed
00000000 g     F .text._ZN4core6result19Result$LT$T$C$E$GT$3map17h3968bf5ff9edda95E	000000f6 core::result::Result<T,E>::map
00000000 g     F .text._ZN4core6result19Result$LT$T$C$E$GT$6expect17h007eef74de78d7abE	0000006e core::result::Result<T,E>::expect
00000000 g     F .text._ZN4core6result19Result$LT$T$C$E$GT$6expect17h2e26ea25e04abc4cE	00000090 core::result::Result<T,E>::expect
00000000 g     F .text._ZN4core6result19Result$LT$T$C$E$GT$6expect17h5147c2852c5afa14E	00000052 core::result::Result<T,E>::expect
00000000 g     F .text._ZN4core6result19Result$LT$T$C$E$GT$6expect17h73cef2c276d9d0fdE	0000008e core::result::Result<T,E>::expect
00000000 g     F .text._ZN4core6result19Result$LT$T$C$E$GT$6expect17h8f40b012fc08a295E	00000054 core::result::Result<T,E>::expect
00000000 g     F .text._ZN4core6result19Result$LT$T$C$E$GT$6expect17hec2020ef5b3bab9cE	0000005a core::result::Result<T,E>::expect
00000000 g     F .text._ZN4core6result19Result$LT$T$C$E$GT$6unwrap17h1f5d260846f7921fE	00000044 core::result::Result<T,E>::unwrap
00000000 g     F .text._ZN4core6result19Result$LT$T$C$E$GT$6unwrap17ha43465cada9b28d9E	00000044 core::result::Result<T,E>::unwrap
00000000 g     F .text._ZN4core6result19Result$LT$T$C$E$GT$7map_err17h05f3ea134cfcd83dE	00000104 core::result::Result<T,E>::map_err
00000000 g     F .text._ZN4core6result19Result$LT$T$C$E$GT$7map_err17h1f67d751f59ce336E	000000b4 core::result::Result<T,E>::map_err
00000000 g     F .text._ZN4core6result19Result$LT$T$C$E$GT$7map_err17h6163bd8d1ff9545cE	000000b4 core::result::Result<T,E>::map_err
00000000 g     F .text._ZN4core6result19Result$LT$T$C$E$GT$7map_err17hc927f8ae99161931E	000000d0 core::result::Result<T,E>::map_err
00000000         *UND*	00000000 core::panicking::panic_fmt
00000000         *UND*	00000000 <(T10, T11) as core::fmt::Debug>::fmt
00000000         *UND*	00000000 <druid_shell::error::Error as core::fmt::Debug>::fmt
00000000         *UND*	00000000 <heapless::string::String<N> as core::fmt::Write>::write_char::{{closure}}
00000000         *UND*	00000000 <heapless::string::String<N> as core::fmt::Write>::write_str::{{closure}}
00000000         *UND*	00000000 <druid::app::WindowDesc<T,W> as core::fmt::Debug>::fmt
00000000 g     F .text._ZN73_$LT$core..result..Result$LT$T$C$E$GT$$u20$as$u20$core..ops..try..Try$GT$10from_error17h13fef641c6784503E	00000028 <core::result::Result<T,E> as core::ops::try::Try>::from_error
00000000 g     F .text._ZN73_$LT$core..result..Result$LT$T$C$E$GT$$u20$as$u20$core..ops..try..Try$GT$11into_result17h59202a362cb7c0c6E	0000001a <core::result::Result<T,E> as core::ops::try::Try>::into_result
00000000 g     F .text._ZN73_$LT$core..result..Result$LT$T$C$E$GT$$u20$as$u20$core..ops..try..Try$GT$11into_result17h6387266495e27d54E	00000028 <core::result::Result<T,E> as core::ops::try::Try>::into_result
00000000 g     F .text._ZN73_$LT$core..result..Result$LT$T$C$E$GT$$u20$as$u20$core..ops..try..Try$GT$11into_result17hf14d14a6548b4488E	00000020 <core::result::Result<T,E> as core::ops::try::Try>::into_result
00000000 g     F .text._ZN73_$LT$core..result..Result$LT$T$C$E$GT$$u20$as$u20$core..ops..try..Try$GT$11into_result17hf4161614e935235bE	00000028 <core::result::Result<T,E> as core::ops::try::Try>::into_result
00000000         *UND*	00000000 <druid::widget::flex::ChildWidget<T> as core::fmt::Debug>::fmt
00000000         *UND*	00000000 heapless::string::String<N>::push::{{closure}}



Disassembly of section .text._ZN4core6result13unwrap_failed17h0a60f2302c5d9a39E:

00000000 <core::result::unwrap_failed>:
_ZN4core6result13unwrap_failed17h0a60f2302c5d9a39E():
/rustc/50a0defd5a93523067ef239936cc2e0755220904/src/libcore/result.rs:998
   0:	b098      	sub	sp, #96	; 0x60
   2:	4613      	mov	r3, r2
   4:	468c      	mov	ip, r1
   6:	4686      	mov	lr, r0
   8:	9008      	str	r0, [sp, #32]
   a:	9109      	str	r1, [sp, #36]	; 0x24
   c:	a808      	add	r0, sp, #32
/rustc/50a0defd5a93523067ef239936cc2e0755220904/src/libcore/result.rs:999
   e:	9014      	str	r0, [sp, #80]	; 0x50
  10:	9215      	str	r2, [sp, #84]	; 0x54
/Users/Luppy/mynewt/stm32bluepill-mynewt-sensor/rust/app/src/lib.rs:1
/*
  12:	9814      	ldr	r0, [sp, #80]	; 0x50
  14:	9016      	str	r0, [sp, #88]	; 0x58
  16:	9815      	ldr	r0, [sp, #84]	; 0x54
  18:	9017      	str	r0, [sp, #92]	; 0x5c
/rustc/50a0defd5a93523067ef239936cc2e0755220904/src/libcore/result.rs:999
  1a:	9816      	ldr	r0, [sp, #88]	; 0x58
/rustc/50a0defd5a93523067ef239936cc2e0755220904/src/libcore/macros.rs:18
  1c:	f240 0100 	movw	r1, #0
  20:	f2c0 0100 	movt	r1, #0
  24:	9307      	str	r3, [sp, #28]
  26:	f8cd c018 	str.w	ip, [sp, #24]
  2a:	f8cd e014 	str.w	lr, [sp, #20]
  2e:	f7ff fffe 	bl	0 <core::fmt::ArgumentV1::new>
  32:	9004      	str	r0, [sp, #16]
  34:	9103      	str	r1, [sp, #12]
  36:	e7ff      	b.n	38 <core::result::unwrap_failed+0x38>
/rustc/50a0defd5a93523067ef239936cc2e0755220904/src/libcore/result.rs:999
  38:	9817      	ldr	r0, [sp, #92]	; 0x5c
/rustc/50a0defd5a93523067ef239936cc2e0755220904/src/libcore/macros.rs:18
  3a:	f240 0100 	movw	r1, #0
  3e:	f2c0 0100 	movt	r1, #0
  42:	f7ff fffe 	bl	0 <core::fmt::ArgumentV1::new>
  46:	9002      	str	r0, [sp, #8]
  48:	9101      	str	r1, [sp, #4]
  4a:	e7ff      	b.n	4c <core::result::unwrap_failed+0x4c>
/rustc/50a0defd5a93523067ef239936cc2e0755220904/src/libcore/result.rs:999
  4c:	9804      	ldr	r0, [sp, #16]
  4e:	9010      	str	r0, [sp, #64]	; 0x40
  50:	9903      	ldr	r1, [sp, #12]
  52:	9111      	str	r1, [sp, #68]	; 0x44
  54:	9a02      	ldr	r2, [sp, #8]
  56:	9212      	str	r2, [sp, #72]	; 0x48
  58:	9b01      	ldr	r3, [sp, #4]
  5a:	9313      	str	r3, [sp, #76]	; 0x4c
/rustc/50a0defd5a93523067ef239936cc2e0755220904/src/libcore/macros.rs:18
  5c:	46ec      	mov	ip, sp
  5e:	f04f 0e02 	mov.w	lr, #2
  62:	f8cc e000 	str.w	lr, [ip]
  66:	f240 0100 	movw	r1, #0
  6a:	f2c0 0100 	movt	r1, #0
  6e:	a80a      	add	r0, sp, #40	; 0x28
  70:	ab10      	add	r3, sp, #64	; 0x40
  72:	4672      	mov	r2, lr
  74:	f7ff fffe 	bl	0 <core::fmt::Arguments::new_v1>
  78:	e7ff      	b.n	2 <core::result::unwrap_failed+0x2>
  7a:	f240 0100 	movw	r1, #0
  7e:	f2c0 0100 	movt	r1, #0
  82:	a80a      	add	r0, sp, #40	; 0x28
  84:	f7ff fffe 	bl	0 <core::panicking::panic_fmt>
  88:	defe      	udf	#254	; 0xfe

Disassembly of section .text._ZN4core6result13unwrap_failed17h4b1fc79e429d9a45E:

00000000 <core::result::unwrap_failed>:
_ZN4core6result13unwrap_failed17h4b1fc79e429d9a45E():
/rustc/50a0defd5a93523067ef239936cc2e0755220904/src/libcore/result.rs:998
   0:	b098      	sub	sp, #96	; 0x60
   2:	4613      	mov	r3, r2
   4:	468c      	mov	ip, r1
   6:	4686      	mov	lr, r0
   8:	9008      	str	r0, [sp, #32]
   a:	9109      	str	r1, [sp, #36]	; 0x24
   c:	a808      	add	r0, sp, #32
/rustc/50a0defd5a93523067ef239936cc2e0755220904/src/libcore/result.rs:999
   e:	9014      	str	r0, [sp, #80]	; 0x50
  10:	9215      	str	r2, [sp, #84]	; 0x54
/Users/Luppy/mynewt/stm32bluepill-mynewt-sensor/rust/app/src/lib.rs:1
  12:	9814      	ldr	r0, [sp, #80]	; 0x50
  14:	9016      	str	r0, [sp, #88]	; 0x58
  16:	9815      	ldr	r0, [sp, #84]	; 0x54
  18:	9017      	str	r0, [sp, #92]	; 0x5c
/rustc/50a0defd5a93523067ef239936cc2e0755220904/src/libcore/result.rs:999
  1a:	9816      	ldr	r0, [sp, #88]	; 0x58
/rustc/50a0defd5a93523067ef239936cc2e0755220904/src/libcore/macros.rs:18
  1c:	f240 0100 	movw	r1, #0
  20:	f2c0 0100 	movt	r1, #0
  24:	9307      	str	r3, [sp, #28]
  26:	f8cd c018 	str.w	ip, [sp, #24]
  2a:	f8cd e014 	str.w	lr, [sp, #20]
  2e:	f7ff fffe 	bl	0 <core::fmt::ArgumentV1::new>
  32:	9004      	str	r0, [sp, #16]
  34:	9103      	str	r1, [sp, #12]
  36:	e7ff      	b.n	38 <core::result::unwrap_failed+0x38>
/rustc/50a0defd5a93523067ef239936cc2e0755220904/src/libcore/result.rs:999
  38:	9817      	ldr	r0, [sp, #92]	; 0x5c
/rustc/50a0defd5a93523067ef239936cc2e0755220904/src/libcore/macros.rs:18
  3a:	f240 0100 	movw	r1, #0
  3e:	f2c0 0100 	movt	r1, #0
  42:	f7ff fffe 	bl	0 <core::fmt::ArgumentV1::new>
  46:	9002      	str	r0, [sp, #8]
  48:	9101      	str	r1, [sp, #4]
  4a:	e7ff      	b.n	4c <core::result::unwrap_failed+0x4c>
/rustc/50a0defd5a93523067ef239936cc2e0755220904/src/libcore/result.rs:999
  4c:	9804      	ldr	r0, [sp, #16]
  4e:	9010      	str	r0, [sp, #64]	; 0x40
  50:	9903      	ldr	r1, [sp, #12]
  52:	9111      	str	r1, [sp, #68]	; 0x44
  54:	9a02      	ldr	r2, [sp, #8]
  56:	9212      	str	r2, [sp, #72]	; 0x48
  58:	9b01      	ldr	r3, [sp, #4]
  5a:	9313      	str	r3, [sp, #76]	; 0x4c
/rustc/50a0defd5a93523067ef239936cc2e0755220904/src/libcore/macros.rs:18
  5c:	46ec      	mov	ip, sp
  5e:	f04f 0e02 	mov.w	lr, #2
  62:	f8cc e000 	str.w	lr, [ip]
  66:	f240 0100 	movw	r1, #0
  6a:	f2c0 0100 	movt	r1, #0
  6e:	a80a      	add	r0, sp, #40	; 0x28
  70:	ab10      	add	r3, sp, #64	; 0x40
  72:	4672      	mov	r2, lr
  74:	f7ff fffe 	bl	0 <core::fmt::Arguments::new_v1>
  78:	e7ff      	b.n	2 <core::result::unwrap_failed+0x2>
  7a:	f240 0100 	movw	r1, #0
  7e:	f2c0 0100 	movt	r1, #0
  82:	a80a      	add	r0, sp, #40	; 0x28
  84:	f7ff fffe 	bl	0 <core::panicking::panic_fmt>
  88:	defe      	udf	#254	; 0xfe

Disassembly of section .text._ZN4core6result13unwrap_failed17h5e62c6a63627b52eE:

00000000 <core::result::unwrap_failed>:
_ZN4core6result13unwrap_failed17h5e62c6a63627b52eE():
/rustc/50a0defd5a93523067ef239936cc2e0755220904/src/libcore/result.rs:998
   0:	b098      	sub	sp, #96	; 0x60
   2:	4613      	mov	r3, r2
   4:	468c      	mov	ip, r1
   6:	4686      	mov	lr, r0
   8:	9008      	str	r0, [sp, #32]
   a:	9109      	str	r1, [sp, #36]	; 0x24
   c:	a808      	add	r0, sp, #32
/rustc/50a0defd5a93523067ef239936cc2e0755220904/src/libcore/result.rs:999
   e:	9014      	str	r0, [sp, #80]	; 0x50
  10:	9215      	str	r2, [sp, #84]	; 0x54
/Users/Luppy/mynewt/stm32bluepill-mynewt-sensor/rust/app/src/lib.rs:1
  12:	9814      	ldr	r0, [sp, #80]	; 0x50
  14:	9016      	str	r0, [sp, #88]	; 0x58
  16:	9815      	ldr	r0, [sp, #84]	; 0x54
  18:	9017      	str	r0, [sp, #92]	; 0x5c
/rustc/50a0defd5a93523067ef239936cc2e0755220904/src/libcore/result.rs:999
  1a:	9816      	ldr	r0, [sp, #88]	; 0x58
/rustc/50a0defd5a93523067ef239936cc2e0755220904/src/libcore/macros.rs:18
  1c:	f240 0100 	movw	r1, #0
  20:	f2c0 0100 	movt	r1, #0
  24:	9307      	str	r3, [sp, #28]
  26:	f8cd c018 	str.w	ip, [sp, #24]
  2a:	f8cd e014 	str.w	lr, [sp, #20]
  2e:	f7ff fffe 	bl	0 <core::fmt::ArgumentV1::new>
  32:	9004      	str	r0, [sp, #16]
  34:	9103      	str	r1, [sp, #12]
  36:	e7ff      	b.n	38 <core::result::unwrap_failed+0x38>
/rustc/50a0defd5a93523067ef239936cc2e0755220904/src/libcore/result.rs:999
  38:	9817      	ldr	r0, [sp, #92]	; 0x5c
/rustc/50a0defd5a93523067ef239936cc2e0755220904/src/libcore/macros.rs:18
  3a:	f240 0100 	movw	r1, #0
  3e:	f2c0 0100 	movt	r1, #0
  42:	f7ff fffe 	bl	0 <core::fmt::ArgumentV1::new>
  46:	9002      	str	r0, [sp, #8]
  48:	9101      	str	r1, [sp, #4]
  4a:	e7ff      	b.n	4c <core::result::unwrap_failed+0x4c>
/rustc/50a0defd5a93523067ef239936cc2e0755220904/src/libcore/result.rs:999
  4c:	9804      	ldr	r0, [sp, #16]
  4e:	9010      	str	r0, [sp, #64]	; 0x40
  50:	9903      	ldr	r1, [sp, #12]
  52:	9111      	str	r1, [sp, #68]	; 0x44
  54:	9a02      	ldr	r2, [sp, #8]
  56:	9212      	str	r2, [sp, #72]	; 0x48
  58:	9b01      	ldr	r3, [sp, #4]
  5a:	9313      	str	r3, [sp, #76]	; 0x4c
/rustc/50a0defd5a93523067ef239936cc2e0755220904/src/libcore/macros.rs:18
  5c:	46ec      	mov	ip, sp
  5e:	f04f 0e02 	mov.w	lr, #2
  62:	f8cc e000 	str.w	lr, [ip]
  66:	f240 0100 	movw	r1, #0
  6a:	f2c0 0100 	movt	r1, #0
  6e:	a80a      	add	r0, sp, #40	; 0x28
  70:	ab10      	add	r3, sp, #64	; 0x40
  72:	4672      	mov	r2, lr
  74:	f7ff fffe 	bl	0 <core::fmt::Arguments::new_v1>
  78:	e7ff      	b.n	2 <core::result::unwrap_failed+0x2>
  7a:	f240 0100 	movw	r1, #0
  7e:	f2c0 0100 	movt	r1, #0
  82:	a80a      	add	r0, sp, #40	; 0x28
  84:	f7ff fffe 	bl	0 <core::panicking::panic_fmt>
  88:	defe      	udf	#254	; 0xfe

Disassembly of section .text._ZN4core6result13unwrap_failed17ha2791feafa9e1077E:

00000000 <core::result::unwrap_failed>:
_ZN4core6result13unwrap_failed17ha2791feafa9e1077E():
/rustc/50a0defd5a93523067ef239936cc2e0755220904/src/libcore/result.rs:998
   0:	b09c      	sub	sp, #112	; 0x70
   2:	469c      	mov	ip, r3
   4:	4696      	mov	lr, r2
   6:	460c      	mov	r4, r1
   8:	4605      	mov	r5, r0
   a:	900a      	str	r0, [sp, #40]	; 0x28
   c:	910b      	str	r1, [sp, #44]	; 0x2c
   e:	920c      	str	r2, [sp, #48]	; 0x30
  10:	930d      	str	r3, [sp, #52]	; 0x34
  12:	a80a      	add	r0, sp, #40	; 0x28
/rustc/50a0defd5a93523067ef239936cc2e0755220904/src/libcore/result.rs:999
  14:	9018      	str	r0, [sp, #96]	; 0x60
  16:	a80c      	add	r0, sp, #48	; 0x30
  18:	9019      	str	r0, [sp, #100]	; 0x64
/Users/Luppy/mynewt/stm32bluepill-mynewt-sensor/rust/app/src/lib.rs:1
  1a:	9818      	ldr	r0, [sp, #96]	; 0x60
  1c:	901a      	str	r0, [sp, #104]	; 0x68
  1e:	9819      	ldr	r0, [sp, #100]	; 0x64
  20:	901b      	str	r0, [sp, #108]	; 0x6c
/rustc/50a0defd5a93523067ef239936cc2e0755220904/src/libcore/result.rs:999
  22:	981a      	ldr	r0, [sp, #104]	; 0x68
/rustc/50a0defd5a93523067ef239936cc2e0755220904/src/libcore/macros.rs:18
  24:	f240 0100 	movw	r1, #0
  28:	f2c0 0100 	movt	r1, #0
  2c:	f8cd c024 	str.w	ip, [sp, #36]	; 0x24
  30:	f8cd e020 	str.w	lr, [sp, #32]
  34:	9407      	str	r4, [sp, #28]
  36:	9506      	str	r5, [sp, #24]
  38:	f7ff fffe 	bl	0 <core::fmt::ArgumentV1::new>
  3c:	9005      	str	r0, [sp, #20]
  3e:	9104      	str	r1, [sp, #16]
  40:	e7ff      	b.n	42 <core::result::unwrap_failed+0x42>
/rustc/50a0defd5a93523067ef239936cc2e0755220904/src/libcore/result.rs:999
  42:	981b      	ldr	r0, [sp, #108]	; 0x6c
/rustc/50a0defd5a93523067ef239936cc2e0755220904/src/libcore/macros.rs:18
  44:	f240 0100 	movw	r1, #0
  48:	f2c0 0100 	movt	r1, #0
  4c:	f7ff fffe 	bl	0 <core::fmt::ArgumentV1::new>
  50:	9003      	str	r0, [sp, #12]
  52:	9102      	str	r1, [sp, #8]
  54:	e7ff      	b.n	56 <core::result::unwrap_failed+0x56>
/rustc/50a0defd5a93523067ef239936cc2e0755220904/src/libcore/result.rs:999
  56:	9805      	ldr	r0, [sp, #20]
  58:	9014      	str	r0, [sp, #80]	; 0x50
  5a:	9904      	ldr	r1, [sp, #16]
  5c:	9115      	str	r1, [sp, #84]	; 0x54
  5e:	9a03      	ldr	r2, [sp, #12]
  60:	9216      	str	r2, [sp, #88]	; 0x58
  62:	9b02      	ldr	r3, [sp, #8]
  64:	9317      	str	r3, [sp, #92]	; 0x5c
/rustc/50a0defd5a93523067ef239936cc2e0755220904/src/libcore/macros.rs:18
  66:	46ec      	mov	ip, sp
  68:	f04f 0e02 	mov.w	lr, #2
  6c:	f8cc e000 	str.w	lr, [ip]
  70:	f240 0100 	movw	r1, #0
  74:	f2c0 0100 	movt	r1, #0
  78:	a80e      	add	r0, sp, #56	; 0x38
  7a:	ab14      	add	r3, sp, #80	; 0x50
  7c:	4672      	mov	r2, lr
  7e:	f7ff fffe 	bl	0 <core::fmt::Arguments::new_v1>
  82:	e7ff      	b.n	2 <core::result::unwrap_failed+0x2>
  84:	f240 0100 	movw	r1, #0
  88:	f2c0 0100 	movt	r1, #0
  8c:	a80e      	add	r0, sp, #56	; 0x38
  8e:	f7ff fffe 	bl	0 <core::panicking::panic_fmt>
  92:	defe      	udf	#254	; 0xfe

Disassembly of section .text._ZN4core6result19Result$LT$T$C$E$GT$3map17h3968bf5ff9edda95E:

00000000 <core::result::Result<T,E>::map>:
_ZN4core6result19Result$LT$T$C$E$GT$3map17h3968bf5ff9edda95E():
/rustc/50a0defd5a93523067ef239936cc2e0755220904/src/libcore/result.rs:458
   0:	b580      	push	{r7, lr}
   2:	b094      	sub	sp, #80	; 0x50
   4:	460a      	mov	r2, r1
   6:	2300      	movs	r3, #0
/rustc/50a0defd5a93523067ef239936cc2e0755220904/src/libcore/result.rs:460
   8:	f88d 304f 	strb.w	r3, [sp, #79]	; 0x4f
   c:	f88d 304d 	strb.w	r3, [sp, #77]	; 0x4d
  10:	f88d 304e 	strb.w	r3, [sp, #78]	; 0x4e
  14:	2301      	movs	r3, #1
  16:	f88d 304e 	strb.w	r3, [sp, #78]	; 0x4e
  1a:	f88d 304f 	strb.w	r3, [sp, #79]	; 0x4f
  1e:	f88d 304d 	strb.w	r3, [sp, #77]	; 0x4d
  22:	6809      	ldr	r1, [r1, #0]
  24:	2900      	cmp	r1, #0
  26:	9203      	str	r2, [sp, #12]
  28:	9002      	str	r0, [sp, #8]
  2a:	9101      	str	r1, [sp, #4]
  2c:	d005      	beq.n	3a <core::result::Result<T,E>::map+0x3a>
  2e:	e7ff      	b.n	30 <core::result::Result<T,E>::map+0x30>
  30:	9801      	ldr	r0, [sp, #4]
  32:	2801      	cmp	r0, #1
  34:	d02a      	beq.n	8c <core::result::Result<T,E>::map+0x8c>
  36:	e7ff      	b.n	38 <core::result::Result<T,E>::map+0x38>
/rustc/50a0defd5a93523067ef239936cc2e0755220904/src/libcore/result.rs:463
  38:	defe      	udf	#254	; 0xfe
  3a:	2000      	movs	r0, #0
/rustc/50a0defd5a93523067ef239936cc2e0755220904/src/libcore/result.rs:460
  3c:	f88d 004f 	strb.w	r0, [sp, #79]	; 0x4f
  40:	9903      	ldr	r1, [sp, #12]
  42:	684a      	ldr	r2, [r1, #4]
  44:	688b      	ldr	r3, [r1, #8]
  46:	f8d1 c00c 	ldr.w	ip, [r1, #12]
  4a:	f8cd c01c 	str.w	ip, [sp, #28]
  4e:	9306      	str	r3, [sp, #24]
  50:	9205      	str	r2, [sp, #20]
  52:	f88d 004d 	strb.w	r0, [sp, #77]	; 0x4d
  56:	9805      	ldr	r0, [sp, #20]
  58:	9a06      	ldr	r2, [sp, #24]
  5a:	9b07      	ldr	r3, [sp, #28]
  5c:	9310      	str	r3, [sp, #64]	; 0x40
  5e:	920f      	str	r2, [sp, #60]	; 0x3c
  60:	900e      	str	r0, [sp, #56]	; 0x38
  62:	980e      	ldr	r0, [sp, #56]	; 0x38
  64:	9a0f      	ldr	r2, [sp, #60]	; 0x3c
  66:	9b10      	ldr	r3, [sp, #64]	; 0x40
  68:	930d      	str	r3, [sp, #52]	; 0x34
  6a:	920c      	str	r2, [sp, #48]	; 0x30
  6c:	900b      	str	r0, [sp, #44]	; 0x2c
  6e:	a808      	add	r0, sp, #32
  70:	a90b      	add	r1, sp, #44	; 0x2c
  72:	f7ff fffe 	bl	0 <core::ops::function::FnOnce::call_once>
  76:	e7ff      	b.n	78 <core::result::Result<T,E>::map+0x78>
  78:	9808      	ldr	r0, [sp, #32]
  7a:	9909      	ldr	r1, [sp, #36]	; 0x24
  7c:	9a0a      	ldr	r2, [sp, #40]	; 0x28
  7e:	9b02      	ldr	r3, [sp, #8]
  80:	60da      	str	r2, [r3, #12]
  82:	6099      	str	r1, [r3, #8]
  84:	6058      	str	r0, [r3, #4]
  86:	2000      	movs	r0, #0
  88:	6018      	str	r0, [r3, #0]
/rustc/50a0defd5a93523067ef239936cc2e0755220904/src/libcore/result.rs:459
  8a:	e00f      	b.n	ac <core::result::Result<T,E>::map+0xac>
  8c:	2000      	movs	r0, #0
/rustc/50a0defd5a93523067ef239936cc2e0755220904/src/libcore/result.rs:461
  8e:	f88d 004e 	strb.w	r0, [sp, #78]	; 0x4e
  92:	9803      	ldr	r0, [sp, #12]
  94:	6841      	ldr	r1, [r0, #4]
  96:	6882      	ldr	r2, [r0, #8]
  98:	9111      	str	r1, [sp, #68]	; 0x44
  9a:	9212      	str	r2, [sp, #72]	; 0x48
  9c:	9911      	ldr	r1, [sp, #68]	; 0x44
  9e:	9a12      	ldr	r2, [sp, #72]	; 0x48
  a0:	9b02      	ldr	r3, [sp, #8]
  a2:	6059      	str	r1, [r3, #4]
  a4:	609a      	str	r2, [r3, #8]
  a6:	2101      	movs	r1, #1
  a8:	6019      	str	r1, [r3, #0]
/rustc/50a0defd5a93523067ef239936cc2e0755220904/src/libcore/result.rs:459
  aa:	e7ff      	b.n	ac <core::result::Result<T,E>::map+0xac>
/rustc/50a0defd5a93523067ef239936cc2e0755220904/src/libcore/result.rs:463
  ac:	f89d 004d 	ldrb.w	r0, [sp, #77]	; 0x4d
  b0:	07c0      	lsls	r0, r0, #31
  b2:	2800      	cmp	r0, #0
  b4:	d105      	bne.n	c2 <core::result::Result<T,E>::map+0xc2>
  b6:	e7ff      	b.n	b8 <core::result::Result<T,E>::map+0xb8>
  b8:	9803      	ldr	r0, [sp, #12]
  ba:	6801      	ldr	r1, [r0, #0]
  bc:	2900      	cmp	r1, #0
  be:	d006      	beq.n	ce <core::result::Result<T,E>::map+0xce>
  c0:	e00f      	b.n	e2 <core::result::Result<T,E>::map+0xe2>
  c2:	2000      	movs	r0, #0
  c4:	f88d 004d 	strb.w	r0, [sp, #77]	; 0x4d
  c8:	e7f6      	b.n	b8 <core::result::Result<T,E>::map+0xb8>
  ca:	b014      	add	sp, #80	; 0x50
  cc:	bd80      	pop	{r7, pc}
  ce:	f89d 004f 	ldrb.w	r0, [sp, #79]	; 0x4f
  d2:	07c0      	lsls	r0, r0, #31
  d4:	2800      	cmp	r0, #0
  d6:	d0f8      	beq.n	ca <core::result::Result<T,E>::map+0xca>
  d8:	e7ff      	b.n	da <core::result::Result<T,E>::map+0xda>
  da:	2000      	movs	r0, #0
  dc:	f88d 004f 	strb.w	r0, [sp, #79]	; 0x4f
  e0:	e7f3      	b.n	ca <core::result::Result<T,E>::map+0xca>
  e2:	f89d 004e 	ldrb.w	r0, [sp, #78]	; 0x4e
  e6:	07c0      	lsls	r0, r0, #31
  e8:	2800      	cmp	r0, #0
  ea:	d0ee      	beq.n	ca <core::result::Result<T,E>::map+0xca>
  ec:	e7ff      	b.n	ee <core::result::Result<T,E>::map+0xee>
  ee:	2000      	movs	r0, #0
  f0:	f88d 004e 	strb.w	r0, [sp, #78]	; 0x4e
  f4:	e7e9      	b.n	ca <core::result::Result<T,E>::map+0xca>

Disassembly of section .text._ZN4core6result19Result$LT$T$C$E$GT$6expect17h007eef74de78d7abE:

00000000 <core::result::Result<T,E>::expect>:
_ZN4core6result19Result$LT$T$C$E$GT$6expect17h007eef74de78d7abE():
/rustc/50a0defd5a93523067ef239936cc2e0755220904/src/libcore/result.rs:824
   0:	b580      	push	{r7, lr}
   2:	b08e      	sub	sp, #56	; 0x38
   4:	4613      	mov	r3, r2
   6:	468c      	mov	ip, r1
   8:	4686      	mov	lr, r0
   a:	9105      	str	r1, [sp, #20]
   c:	9206      	str	r2, [sp, #24]
/rustc/50a0defd5a93523067ef239936cc2e0755220904/src/libcore/result.rs:826
   e:	6800      	ldr	r0, [r0, #0]
  10:	2800      	cmp	r0, #0
  12:	4601      	mov	r1, r0
  14:	bf18      	it	ne
  16:	2101      	movne	r1, #1
  18:	2800      	cmp	r0, #0
  1a:	9304      	str	r3, [sp, #16]
  1c:	f8cd c00c 	str.w	ip, [sp, #12]
  20:	f8cd e008 	str.w	lr, [sp, #8]
  24:	9101      	str	r1, [sp, #4]
  26:	d005      	beq.n	34 <core::result::Result<T,E>::expect+0x34>
  28:	e7ff      	b.n	2a <core::result::Result<T,E>::expect+0x2a>
  2a:	9801      	ldr	r0, [sp, #4]
  2c:	2801      	cmp	r0, #1
  2e:	d006      	beq.n	3e <core::result::Result<T,E>::expect+0x3e>
  30:	e7ff      	b.n	32 <core::result::Result<T,E>::expect+0x32>
/rustc/50a0defd5a93523067ef239936cc2e0755220904/src/libcore/result.rs:829
  32:	defe      	udf	#254	; 0xfe
  34:	9802      	ldr	r0, [sp, #8]
  36:	6801      	ldr	r1, [r0, #0]
  38:	2900      	cmp	r1, #0
  3a:	d015      	beq.n	68 <core::result::Result<T,E>::expect+0x68>
  3c:	e016      	b.n	6c <core::result::Result<T,E>::expect+0x6c>
/rustc/50a0defd5a93523067ef239936cc2e0755220904/src/libcore/result.rs:827
  3e:	9802      	ldr	r0, [sp, #8]
  40:	6801      	ldr	r1, [r0, #0]
  42:	6842      	ldr	r2, [r0, #4]
  44:	6883      	ldr	r3, [r0, #8]
  46:	930a      	str	r3, [sp, #40]	; 0x28
  48:	9209      	str	r2, [sp, #36]	; 0x24
  4a:	9108      	str	r1, [sp, #32]
  4c:	9805      	ldr	r0, [sp, #20]
  4e:	9906      	ldr	r1, [sp, #24]
  50:	9a08      	ldr	r2, [sp, #32]
  52:	9b09      	ldr	r3, [sp, #36]	; 0x24
  54:	f8dd c028 	ldr.w	ip, [sp, #40]	; 0x28
  58:	f8cd c034 	str.w	ip, [sp, #52]	; 0x34
  5c:	930c      	str	r3, [sp, #48]	; 0x30
  5e:	920b      	str	r2, [sp, #44]	; 0x2c
  60:	aa0b      	add	r2, sp, #44	; 0x2c
  62:	f7ff fffe 	bl	0 <core::result::Result<T,E>::expect>
  66:	defe      	udf	#254	; 0xfe
/rustc/50a0defd5a93523067ef239936cc2e0755220904/src/libcore/result.rs:829
  68:	b00e      	add	sp, #56	; 0x38
  6a:	bd80      	pop	{r7, pc}
  6c:	e7fc      	b.n	68 <core::result::Result<T,E>::expect+0x68>

Disassembly of section .text._ZN4core6result19Result$LT$T$C$E$GT$6expect17h2e26ea25e04abc4cE:

00000000 <core::result::Result<T,E>::expect>:
_ZN4core6result19Result$LT$T$C$E$GT$6expect17h2e26ea25e04abc4cE():
/rustc/50a0defd5a93523067ef239936cc2e0755220904/src/libcore/result.rs:824
   0:	e92d 41f0 	stmdb	sp!, {r4, r5, r6, r7, r8, lr}
   4:	b0a8      	sub	sp, #160	; 0xa0
   6:	4613      	mov	r3, r2
   8:	468c      	mov	ip, r1
   a:	4686      	mov	lr, r0
   c:	9105      	str	r1, [sp, #20]
   e:	9206      	str	r2, [sp, #24]
/rustc/50a0defd5a93523067ef239936cc2e0755220904/src/libcore/result.rs:826
  10:	6a80      	ldr	r0, [r0, #40]	; 0x28
  12:	1e81      	subs	r1, r0, #2
  14:	bf18      	it	ne
  16:	2101      	movne	r1, #1
  18:	2802      	cmp	r0, #2
  1a:	9304      	str	r3, [sp, #16]
  1c:	f8cd c00c 	str.w	ip, [sp, #12]
  20:	f8cd e008 	str.w	lr, [sp, #8]
  24:	9101      	str	r1, [sp, #4]
  26:	d005      	beq.n	34 <core::result::Result<T,E>::expect+0x34>
  28:	e7ff      	b.n	2a <core::result::Result<T,E>::expect+0x2a>
  2a:	9801      	ldr	r0, [sp, #4]
  2c:	2801      	cmp	r0, #1
  2e:	d006      	beq.n	3e <core::result::Result<T,E>::expect+0x3e>
  30:	e7ff      	b.n	32 <core::result::Result<T,E>::expect+0x32>
/rustc/50a0defd5a93523067ef239936cc2e0755220904/src/libcore/result.rs:829
  32:	defe      	udf	#254	; 0xfe
  34:	9802      	ldr	r0, [sp, #8]
  36:	6a81      	ldr	r1, [r0, #40]	; 0x28
  38:	2902      	cmp	r1, #2
  3a:	d025      	beq.n	88 <core::result::Result<T,E>::expect+0x88>
  3c:	e027      	b.n	8e <core::result::Result<T,E>::expect+0x8e>
  3e:	a808      	add	r0, sp, #32
/rustc/50a0defd5a93523067ef239936cc2e0755220904/src/libcore/result.rs:827
  40:	4601      	mov	r1, r0
  42:	9a02      	ldr	r2, [sp, #8]
  44:	e8b2 5038 	ldmia.w	r2!, {r3, r4, r5, ip, lr}
  48:	e8a1 5038 	stmia.w	r1!, {r3, r4, r5, ip, lr}
  4c:	e8b2 5038 	ldmia.w	r2!, {r3, r4, r5, ip, lr}
  50:	e8a1 5038 	stmia.w	r1!, {r3, r4, r5, ip, lr}
  54:	e892 5078 	ldmia.w	r2, {r3, r4, r5, r6, ip, lr}
  58:	e881 5078 	stmia.w	r1, {r3, r4, r5, r6, ip, lr}
  5c:	9905      	ldr	r1, [sp, #20]
  5e:	9a06      	ldr	r2, [sp, #24]
  60:	ab18      	add	r3, sp, #96	; 0x60
  62:	469c      	mov	ip, r3
  64:	e8b0 40f0 	ldmia.w	r0!, {r4, r5, r6, r7, lr}
  68:	e8ac 40f0 	stmia.w	ip!, {r4, r5, r6, r7, lr}
  6c:	e8b0 40f0 	ldmia.w	r0!, {r4, r5, r6, r7, lr}
  70:	e8ac 40f0 	stmia.w	ip!, {r4, r5, r6, r7, lr}
  74:	e890 41f0 	ldmia.w	r0, {r4, r5, r6, r7, r8, lr}
  78:	e88c 41f0 	stmia.w	ip, {r4, r5, r6, r7, r8, lr}
  7c:	4608      	mov	r0, r1
  7e:	4611      	mov	r1, r2
  80:	461a      	mov	r2, r3
  82:	f7ff fffe 	bl	0 <core::result::Result<T,E>::expect>
  86:	defe      	udf	#254	; 0xfe
/rustc/50a0defd5a93523067ef239936cc2e0755220904/src/libcore/result.rs:829
  88:	b028      	add	sp, #160	; 0xa0
  8a:	e8bd 81f0 	ldmia.w	sp!, {r4, r5, r6, r7, r8, pc}
  8e:	e7fb      	b.n	88 <core::result::Result<T,E>::expect+0x88>

Disassembly of section .text._ZN4core6result19Result$LT$T$C$E$GT$6expect17h5147c2852c5afa14E:

00000000 <core::result::Result<T,E>::expect>:
_ZN4core6result19Result$LT$T$C$E$GT$6expect17h5147c2852c5afa14E():
/rustc/50a0defd5a93523067ef239936cc2e0755220904/src/libcore/result.rs:824
   0:	b580      	push	{r7, lr}
   2:	b08a      	sub	sp, #40	; 0x28
   4:	4613      	mov	r3, r2
   6:	468c      	mov	ip, r1
   8:	4686      	mov	lr, r0
   a:	9005      	str	r0, [sp, #20]
   c:	9106      	str	r1, [sp, #24]
   e:	9207      	str	r2, [sp, #28]
/rustc/50a0defd5a93523067ef239936cc2e0755220904/src/libcore/result.rs:826
  10:	9805      	ldr	r0, [sp, #20]
  12:	1e41      	subs	r1, r0, #1
  14:	bf18      	it	ne
  16:	2101      	movne	r1, #1
  18:	2801      	cmp	r0, #1
  1a:	9304      	str	r3, [sp, #16]
  1c:	f8cd c00c 	str.w	ip, [sp, #12]
  20:	f8cd e008 	str.w	lr, [sp, #8]
  24:	9101      	str	r1, [sp, #4]
  26:	d005      	beq.n	34 <core::result::Result<T,E>::expect+0x34>
  28:	e7ff      	b.n	2a <core::result::Result<T,E>::expect+0x2a>
  2a:	9801      	ldr	r0, [sp, #4]
  2c:	2801      	cmp	r0, #1
  2e:	d005      	beq.n	3c <core::result::Result<T,E>::expect+0x3c>
  30:	e7ff      	b.n	32 <core::result::Result<T,E>::expect+0x32>
/rustc/50a0defd5a93523067ef239936cc2e0755220904/src/libcore/result.rs:829
  32:	defe      	udf	#254	; 0xfe
  34:	9805      	ldr	r0, [sp, #20]
  36:	2801      	cmp	r0, #1
  38:	d008      	beq.n	4c <core::result::Result<T,E>::expect+0x4c>
  3a:	e009      	b.n	50 <core::result::Result<T,E>::expect+0x50>
/rustc/50a0defd5a93523067ef239936cc2e0755220904/src/libcore/result.rs:827
  3c:	9805      	ldr	r0, [sp, #20]
  3e:	9009      	str	r0, [sp, #36]	; 0x24
  40:	9806      	ldr	r0, [sp, #24]
  42:	9907      	ldr	r1, [sp, #28]
  44:	9a09      	ldr	r2, [sp, #36]	; 0x24
  46:	f7ff fffe 	bl	0 <core::result::unwrap_failed>
  4a:	defe      	udf	#254	; 0xfe
/rustc/50a0defd5a93523067ef239936cc2e0755220904/src/libcore/result.rs:829
  4c:	b00a      	add	sp, #40	; 0x28
  4e:	bd80      	pop	{r7, pc}
  50:	e7fc      	b.n	4c <core::result::Result<T,E>::expect+0x4c>

Disassembly of section .text._ZN4core6result19Result$LT$T$C$E$GT$6expect17h73cef2c276d9d0fdE:

00000000 <core::result::Result<T,E>::expect>:
_ZN4core6result19Result$LT$T$C$E$GT$6expect17h73cef2c276d9d0fdE():
/rustc/50a0defd5a93523067ef239936cc2e0755220904/src/libcore/result.rs:824
   0:	b570      	push	{r4, r5, r6, lr}
   2:	b098      	sub	sp, #96	; 0x60
   4:	4613      	mov	r3, r2
   6:	468c      	mov	ip, r1
   8:	4686      	mov	lr, r0
   a:	9105      	str	r1, [sp, #20]
   c:	9206      	str	r2, [sp, #24]
/rustc/50a0defd5a93523067ef239936cc2e0755220904/src/libcore/result.rs:826
   e:	6801      	ldr	r1, [r0, #0]
  10:	6840      	ldr	r0, [r0, #4]
  12:	f081 0102 	eor.w	r1, r1, #2
  16:	4308      	orrs	r0, r1
  18:	2800      	cmp	r0, #0
  1a:	4601      	mov	r1, r0
  1c:	bf18      	it	ne
  1e:	2101      	movne	r1, #1
  20:	2800      	cmp	r0, #0
  22:	9304      	str	r3, [sp, #16]
  24:	f8cd c00c 	str.w	ip, [sp, #12]
  28:	f8cd e008 	str.w	lr, [sp, #8]
  2c:	9101      	str	r1, [sp, #4]
  2e:	d005      	beq.n	3c <core::result::Result<T,E>::expect+0x3c>
  30:	e7ff      	b.n	32 <core::result::Result<T,E>::expect+0x32>
  32:	9801      	ldr	r0, [sp, #4]
  34:	2801      	cmp	r0, #1
  36:	d00a      	beq.n	4e <core::result::Result<T,E>::expect+0x4e>
  38:	e7ff      	b.n	3a <core::result::Result<T,E>::expect+0x3a>
/rustc/50a0defd5a93523067ef239936cc2e0755220904/src/libcore/result.rs:829
  3a:	defe      	udf	#254	; 0xfe
  3c:	9802      	ldr	r0, [sp, #8]
  3e:	6801      	ldr	r1, [r0, #0]
  40:	6842      	ldr	r2, [r0, #4]
  42:	f081 0102 	eor.w	r1, r1, #2
  46:	4311      	orrs	r1, r2
  48:	2900      	cmp	r1, #0
  4a:	d01d      	beq.n	88 <core::result::Result<T,E>::expect+0x88>
  4c:	e01e      	b.n	8c <core::result::Result<T,E>::expect+0x8c>
  4e:	a808      	add	r0, sp, #32
/rustc/50a0defd5a93523067ef239936cc2e0755220904/src/libcore/result.rs:827
  50:	4601      	mov	r1, r0
  52:	9a02      	ldr	r2, [sp, #8]
  54:	e8b2 5018 	ldmia.w	r2!, {r3, r4, ip, lr}
  58:	e8a1 5018 	stmia.w	r1!, {r3, r4, ip, lr}
  5c:	e892 5018 	ldmia.w	r2, {r3, r4, ip, lr}
  60:	e881 5018 	stmia.w	r1, {r3, r4, ip, lr}
  64:	9905      	ldr	r1, [sp, #20]
  66:	9a06      	ldr	r2, [sp, #24]
  68:	ab10      	add	r3, sp, #64	; 0x40
  6a:	469c      	mov	ip, r3
  6c:	e8b0 4070 	ldmia.w	r0!, {r4, r5, r6, lr}
  70:	e8ac 4070 	stmia.w	ip!, {r4, r5, r6, lr}
  74:	e890 4070 	ldmia.w	r0, {r4, r5, r6, lr}
  78:	e88c 4070 	stmia.w	ip, {r4, r5, r6, lr}
  7c:	4608      	mov	r0, r1
  7e:	4611      	mov	r1, r2
  80:	461a      	mov	r2, r3
  82:	f7ff fffe 	bl	0 <core::result::Result<T,E>::expect>
  86:	defe      	udf	#254	; 0xfe
/rustc/50a0defd5a93523067ef239936cc2e0755220904/src/libcore/result.rs:829
  88:	b018      	add	sp, #96	; 0x60
  8a:	bd70      	pop	{r4, r5, r6, pc}
  8c:	e7fc      	b.n	88 <core::result::Result<T,E>::expect+0x88>

Disassembly of section .text._ZN4core6result19Result$LT$T$C$E$GT$6expect17h8f40b012fc08a295E:

00000000 <core::result::Result<T,E>::expect>:
_ZN4core6result19Result$LT$T$C$E$GT$6expect17h8f40b012fc08a295E():
/rustc/50a0defd5a93523067ef239936cc2e0755220904/src/libcore/result.rs:824
   0:	b580      	push	{r7, lr}
   2:	b08a      	sub	sp, #40	; 0x28
   4:	4613      	mov	r3, r2
   6:	468c      	mov	ip, r1
   8:	4686      	mov	lr, r0
   a:	9105      	str	r1, [sp, #20]
   c:	9206      	str	r2, [sp, #24]
/rustc/50a0defd5a93523067ef239936cc2e0755220904/src/libcore/result.rs:826
   e:	6800      	ldr	r0, [r0, #0]
  10:	2800      	cmp	r0, #0
  12:	9304      	str	r3, [sp, #16]
  14:	f8cd c00c 	str.w	ip, [sp, #12]
  18:	f8cd e008 	str.w	lr, [sp, #8]
  1c:	9001      	str	r0, [sp, #4]
  1e:	d005      	beq.n	2c <core::result::Result<T,E>::expect+0x2c>
  20:	e7ff      	b.n	22 <core::result::Result<T,E>::expect+0x22>
  22:	9801      	ldr	r0, [sp, #4]
  24:	2801      	cmp	r0, #1
  26:	d006      	beq.n	36 <core::result::Result<T,E>::expect+0x36>
  28:	e7ff      	b.n	2a <core::result::Result<T,E>::expect+0x2a>
/rustc/50a0defd5a93523067ef239936cc2e0755220904/src/libcore/result.rs:829
  2a:	defe      	udf	#254	; 0xfe
  2c:	9802      	ldr	r0, [sp, #8]
  2e:	6801      	ldr	r1, [r0, #0]
  30:	2900      	cmp	r1, #0
  32:	d00c      	beq.n	4e <core::result::Result<T,E>::expect+0x4e>
  34:	e00d      	b.n	52 <core::result::Result<T,E>::expect+0x52>
/rustc/50a0defd5a93523067ef239936cc2e0755220904/src/libcore/result.rs:827
  36:	9802      	ldr	r0, [sp, #8]
  38:	6841      	ldr	r1, [r0, #4]
  3a:	6882      	ldr	r2, [r0, #8]
  3c:	9108      	str	r1, [sp, #32]
  3e:	9209      	str	r2, [sp, #36]	; 0x24
  40:	9805      	ldr	r0, [sp, #20]
  42:	9906      	ldr	r1, [sp, #24]
  44:	9a08      	ldr	r2, [sp, #32]
  46:	9b09      	ldr	r3, [sp, #36]	; 0x24
  48:	f7ff fffe 	bl	0 <core::result::Result<T,E>::expect>
  4c:	defe      	udf	#254	; 0xfe
/rustc/50a0defd5a93523067ef239936cc2e0755220904/src/libcore/result.rs:829
  4e:	b00a      	add	sp, #40	; 0x28
  50:	bd80      	pop	{r7, pc}
  52:	e7fc      	b.n	4e <core::result::Result<T,E>::expect+0x4e>

Disassembly of section .text._ZN4core6result19Result$LT$T$C$E$GT$6expect17hec2020ef5b3bab9cE:

00000000 <core::result::Result<T,E>::expect>:
_ZN4core6result19Result$LT$T$C$E$GT$6expect17hec2020ef5b3bab9cE():
/rustc/50a0defd5a93523067ef239936cc2e0755220904/src/libcore/result.rs:824
   0:	b580      	push	{r7, lr}
   2:	b08a      	sub	sp, #40	; 0x28
   4:	4613      	mov	r3, r2
   6:	468c      	mov	ip, r1
   8:	4686      	mov	lr, r0
   a:	9106      	str	r1, [sp, #24]
   c:	9207      	str	r2, [sp, #28]
/rustc/50a0defd5a93523067ef239936cc2e0755220904/src/libcore/result.rs:826
   e:	6800      	ldr	r0, [r0, #0]
  10:	2800      	cmp	r0, #0
  12:	9305      	str	r3, [sp, #20]
  14:	f8cd c010 	str.w	ip, [sp, #16]
  18:	f8cd e00c 	str.w	lr, [sp, #12]
  1c:	9002      	str	r0, [sp, #8]
  1e:	d005      	beq.n	2c <core::result::Result<T,E>::expect+0x2c>
  20:	e7ff      	b.n	22 <core::result::Result<T,E>::expect+0x22>
  22:	9802      	ldr	r0, [sp, #8]
  24:	2801      	cmp	r0, #1
  26:	d00b      	beq.n	40 <core::result::Result<T,E>::expect+0x40>
  28:	e7ff      	b.n	2a <core::result::Result<T,E>::expect+0x2a>
/rustc/50a0defd5a93523067ef239936cc2e0755220904/src/libcore/result.rs:829
  2a:	defe      	udf	#254	; 0xfe
/rustc/50a0defd5a93523067ef239936cc2e0755220904/src/libcore/result.rs:826
  2c:	9803      	ldr	r0, [sp, #12]
  2e:	6841      	ldr	r1, [r0, #4]
  30:	9108      	str	r1, [sp, #32]
  32:	9808      	ldr	r0, [sp, #32]
/rustc/50a0defd5a93523067ef239936cc2e0755220904/src/libcore/result.rs:829
  34:	9903      	ldr	r1, [sp, #12]
  36:	680a      	ldr	r2, [r1, #0]
  38:	2a00      	cmp	r2, #0
  3a:	9001      	str	r0, [sp, #4]
  3c:	d009      	beq.n	52 <core::result::Result<T,E>::expect+0x52>
  3e:	e00b      	b.n	58 <core::result::Result<T,E>::expect+0x58>
/rustc/50a0defd5a93523067ef239936cc2e0755220904/src/libcore/result.rs:827
  40:	9803      	ldr	r0, [sp, #12]
  42:	6841      	ldr	r1, [r0, #4]
  44:	9109      	str	r1, [sp, #36]	; 0x24
  46:	9806      	ldr	r0, [sp, #24]
  48:	9907      	ldr	r1, [sp, #28]
  4a:	9a09      	ldr	r2, [sp, #36]	; 0x24
  4c:	f7ff fffe 	bl	0 <core::result::unwrap_failed>
  50:	defe      	udf	#254	; 0xfe
/rustc/50a0defd5a93523067ef239936cc2e0755220904/src/libcore/result.rs:829
  52:	9801      	ldr	r0, [sp, #4]
  54:	b00a      	add	sp, #40	; 0x28
  56:	bd80      	pop	{r7, pc}
  58:	e7fb      	b.n	52 <core::result::Result<T,E>::expect+0x52>

Disassembly of section .text._ZN4core6result19Result$LT$T$C$E$GT$6unwrap17h1f5d260846f7921fE:

00000000 <core::result::Result<T,E>::unwrap>:
_ZN4core6result19Result$LT$T$C$E$GT$6unwrap17h1f5d260846f7921fE():
/rustc/50a0defd5a93523067ef239936cc2e0755220904/src/libcore/result.rs:797
   0:	b086      	sub	sp, #24
   2:	4601      	mov	r1, r0
   4:	f88d 000f 	strb.w	r0, [sp, #15]
/rustc/50a0defd5a93523067ef239936cc2e0755220904/src/libcore/result.rs:799
   8:	f89d 000f 	ldrb.w	r0, [sp, #15]
   c:	07c2      	lsls	r2, r0, #31
   e:	2a00      	cmp	r2, #0
  10:	9102      	str	r1, [sp, #8]
  12:	9001      	str	r0, [sp, #4]
  14:	d005      	beq.n	22 <core::result::Result<T,E>::unwrap+0x22>
  16:	e7ff      	b.n	18 <core::result::Result<T,E>::unwrap+0x18>
  18:	9801      	ldr	r0, [sp, #4]
  1a:	2801      	cmp	r0, #1
  1c:	d007      	beq.n	2e <core::result::Result<T,E>::unwrap+0x2e>
  1e:	e7ff      	b.n	20 <core::result::Result<T,E>::unwrap+0x20>
/rustc/50a0defd5a93523067ef239936cc2e0755220904/src/libcore/result.rs:802
  20:	defe      	udf	#254	; 0xfe
  22:	f89d 000f 	ldrb.w	r0, [sp, #15]
  26:	07c0      	lsls	r0, r0, #31
  28:	2800      	cmp	r0, #0
  2a:	d008      	beq.n	3e <core::result::Result<T,E>::unwrap+0x3e>
  2c:	e009      	b.n	42 <core::result::Result<T,E>::unwrap+0x42>
/rustc/50a0defd5a93523067ef239936cc2e0755220904/src/libcore/result.rs:800
  2e:	f240 0000 	movw	r0, #0
  32:	f2c0 0000 	movt	r0, #0
  36:	212b      	movs	r1, #43	; 0x2b
  38:	f7ff fffe 	bl	0 <core::result::unwrap_failed>
  3c:	defe      	udf	#254	; 0xfe
/rustc/50a0defd5a93523067ef239936cc2e0755220904/src/libcore/result.rs:802
  3e:	b006      	add	sp, #24
  40:	4770      	bx	lr
  42:	e7fc      	b.n	3e <core::result::Result<T,E>::unwrap+0x3e>

Disassembly of section .text._ZN4core6result19Result$LT$T$C$E$GT$6unwrap17ha43465cada9b28d9E:

00000000 <core::result::Result<T,E>::unwrap>:
_ZN4core6result19Result$LT$T$C$E$GT$6unwrap17ha43465cada9b28d9E():
/rustc/50a0defd5a93523067ef239936cc2e0755220904/src/libcore/result.rs:797
   0:	b086      	sub	sp, #24
   2:	4601      	mov	r1, r0
   4:	f88d 000f 	strb.w	r0, [sp, #15]
/rustc/50a0defd5a93523067ef239936cc2e0755220904/src/libcore/result.rs:799
   8:	f89d 000f 	ldrb.w	r0, [sp, #15]
   c:	07c2      	lsls	r2, r0, #31
   e:	2a00      	cmp	r2, #0
  10:	9102      	str	r1, [sp, #8]
  12:	9001      	str	r0, [sp, #4]
  14:	d005      	beq.n	22 <core::result::Result<T,E>::unwrap+0x22>
  16:	e7ff      	b.n	18 <core::result::Result<T,E>::unwrap+0x18>
  18:	9801      	ldr	r0, [sp, #4]
  1a:	2801      	cmp	r0, #1
  1c:	d007      	beq.n	2e <core::result::Result<T,E>::unwrap+0x2e>
  1e:	e7ff      	b.n	20 <core::result::Result<T,E>::unwrap+0x20>
/rustc/50a0defd5a93523067ef239936cc2e0755220904/src/libcore/result.rs:802
  20:	defe      	udf	#254	; 0xfe
  22:	f89d 000f 	ldrb.w	r0, [sp, #15]
  26:	07c0      	lsls	r0, r0, #31
  28:	2800      	cmp	r0, #0
  2a:	d008      	beq.n	3e <core::result::Result<T,E>::unwrap+0x3e>
  2c:	e009      	b.n	42 <core::result::Result<T,E>::unwrap+0x42>
/rustc/50a0defd5a93523067ef239936cc2e0755220904/src/libcore/result.rs:800
  2e:	f240 0000 	movw	r0, #0
  32:	f2c0 0000 	movt	r0, #0
  36:	212b      	movs	r1, #43	; 0x2b
  38:	f7ff fffe 	bl	0 <core::result::unwrap_failed>
  3c:	defe      	udf	#254	; 0xfe
/rustc/50a0defd5a93523067ef239936cc2e0755220904/src/libcore/result.rs:802
  3e:	b006      	add	sp, #24
  40:	4770      	bx	lr
  42:	e7fc      	b.n	3e <core::result::Result<T,E>::unwrap+0x3e>

Disassembly of section .text._ZN4core6result19Result$LT$T$C$E$GT$7map_err17h05f3ea134cfcd83dE:

00000000 <core::result::Result<T,E>::map_err>:
_ZN4core6result19Result$LT$T$C$E$GT$7map_err17h05f3ea134cfcd83dE():
/rustc/50a0defd5a93523067ef239936cc2e0755220904/src/libcore/result.rs:519
   0:	b580      	push	{r7, lr}
   2:	b092      	sub	sp, #72	; 0x48
   4:	460a      	mov	r2, r1
   6:	2300      	movs	r3, #0
/rustc/50a0defd5a93523067ef239936cc2e0755220904/src/libcore/result.rs:521
   8:	f88d 3047 	strb.w	r3, [sp, #71]	; 0x47
   c:	f88d 3045 	strb.w	r3, [sp, #69]	; 0x45
  10:	f88d 3046 	strb.w	r3, [sp, #70]	; 0x46
  14:	2301      	movs	r3, #1
  16:	f88d 3046 	strb.w	r3, [sp, #70]	; 0x46
  1a:	f88d 3047 	strb.w	r3, [sp, #71]	; 0x47
  1e:	f88d 3045 	strb.w	r3, [sp, #69]	; 0x45
  22:	6809      	ldr	r1, [r1, #0]
  24:	2900      	cmp	r1, #0
  26:	9205      	str	r2, [sp, #20]
  28:	9004      	str	r0, [sp, #16]
  2a:	9103      	str	r1, [sp, #12]
  2c:	d005      	beq.n	3a <core::result::Result<T,E>::map_err+0x3a>
  2e:	e7ff      	b.n	30 <core::result::Result<T,E>::map_err+0x30>
  30:	9803      	ldr	r0, [sp, #12]
  32:	2801      	cmp	r0, #1
  34:	d024      	beq.n	80 <core::result::Result<T,E>::map_err+0x80>
  36:	e7ff      	b.n	38 <core::result::Result<T,E>::map_err+0x38>
/rustc/50a0defd5a93523067ef239936cc2e0755220904/src/libcore/result.rs:524
  38:	defe      	udf	#254	; 0xfe
  3a:	2000      	movs	r0, #0
/rustc/50a0defd5a93523067ef239936cc2e0755220904/src/libcore/result.rs:521
  3c:	f88d 0047 	strb.w	r0, [sp, #71]	; 0x47
  40:	9905      	ldr	r1, [sp, #20]
  42:	684a      	ldr	r2, [r1, #4]
  44:	688b      	ldr	r3, [r1, #8]
  46:	f8d1 c00c 	ldr.w	ip, [r1, #12]
  4a:	f8cd c024 	str.w	ip, [sp, #36]	; 0x24
  4e:	9308      	str	r3, [sp, #32]
  50:	9207      	str	r2, [sp, #28]
  52:	9a07      	ldr	r2, [sp, #28]
  54:	9b08      	ldr	r3, [sp, #32]
  56:	f8dd c024 	ldr.w	ip, [sp, #36]	; 0x24
  5a:	f8cd c030 	str.w	ip, [sp, #48]	; 0x30
  5e:	930b      	str	r3, [sp, #44]	; 0x2c
  60:	920a      	str	r2, [sp, #40]	; 0x28
  62:	9a0a      	ldr	r2, [sp, #40]	; 0x28
  64:	9b0b      	ldr	r3, [sp, #44]	; 0x2c
  66:	f8dd c030 	ldr.w	ip, [sp, #48]	; 0x30
  6a:	f8dd e010 	ldr.w	lr, [sp, #16]
  6e:	f8ce c00c 	str.w	ip, [lr, #12]
  72:	f8ce 3008 	str.w	r3, [lr, #8]
  76:	f8ce 2004 	str.w	r2, [lr, #4]
  7a:	f8ce 0000 	str.w	r0, [lr]
/rustc/50a0defd5a93523067ef239936cc2e0755220904/src/libcore/result.rs:520
  7e:	e01c      	b.n	ba <core::result::Result<T,E>::map_err+0xba>
  80:	2000      	movs	r0, #0
/rustc/50a0defd5a93523067ef239936cc2e0755220904/src/libcore/result.rs:522
  82:	f88d 0046 	strb.w	r0, [sp, #70]	; 0x46
  86:	9905      	ldr	r1, [sp, #20]
  88:	684a      	ldr	r2, [r1, #4]
  8a:	688b      	ldr	r3, [r1, #8]
  8c:	920d      	str	r2, [sp, #52]	; 0x34
  8e:	930e      	str	r3, [sp, #56]	; 0x38
  90:	f88d 0045 	strb.w	r0, [sp, #69]	; 0x45
  94:	980d      	ldr	r0, [sp, #52]	; 0x34
  96:	9a0e      	ldr	r2, [sp, #56]	; 0x38
  98:	900f      	str	r0, [sp, #60]	; 0x3c
  9a:	9210      	str	r2, [sp, #64]	; 0x40
  9c:	980f      	ldr	r0, [sp, #60]	; 0x3c
  9e:	9910      	ldr	r1, [sp, #64]	; 0x40
  a0:	f7ff fffe 	bl	0 <core::ops::function::FnOnce::call_once>
  a4:	9002      	str	r0, [sp, #8]
  a6:	9101      	str	r1, [sp, #4]
  a8:	e7ff      	b.n	aa <core::result::Result<T,E>::map_err+0xaa>
  aa:	9802      	ldr	r0, [sp, #8]
  ac:	9904      	ldr	r1, [sp, #16]
  ae:	6048      	str	r0, [r1, #4]
  b0:	9a01      	ldr	r2, [sp, #4]
  b2:	608a      	str	r2, [r1, #8]
  b4:	2301      	movs	r3, #1
  b6:	600b      	str	r3, [r1, #0]
/rustc/50a0defd5a93523067ef239936cc2e0755220904/src/libcore/result.rs:520
  b8:	e7ff      	b.n	ba <core::result::Result<T,E>::map_err+0xba>
/rustc/50a0defd5a93523067ef239936cc2e0755220904/src/libcore/result.rs:524
  ba:	f89d 0045 	ldrb.w	r0, [sp, #69]	; 0x45
  be:	07c0      	lsls	r0, r0, #31
  c0:	2800      	cmp	r0, #0
  c2:	d105      	bne.n	d0 <core::result::Result<T,E>::map_err+0xd0>
  c4:	e7ff      	b.n	c6 <core::result::Result<T,E>::map_err+0xc6>
  c6:	9805      	ldr	r0, [sp, #20]
  c8:	6801      	ldr	r1, [r0, #0]
  ca:	2900      	cmp	r1, #0
  cc:	d006      	beq.n	dc <core::result::Result<T,E>::map_err+0xdc>
  ce:	e00f      	b.n	f0 <core::result::Result<T,E>::map_err+0xf0>
  d0:	2000      	movs	r0, #0
  d2:	f88d 0045 	strb.w	r0, [sp, #69]	; 0x45
  d6:	e7f6      	b.n	c6 <core::result::Result<T,E>::map_err+0xc6>
  d8:	b012      	add	sp, #72	; 0x48
  da:	bd80      	pop	{r7, pc}
  dc:	f89d 0047 	ldrb.w	r0, [sp, #71]	; 0x47
  e0:	07c0      	lsls	r0, r0, #31
  e2:	2800      	cmp	r0, #0
  e4:	d0f8      	beq.n	d8 <core::result::Result<T,E>::map_err+0xd8>
  e6:	e7ff      	b.n	e8 <core::result::Result<T,E>::map_err+0xe8>
  e8:	2000      	movs	r0, #0
  ea:	f88d 0047 	strb.w	r0, [sp, #71]	; 0x47
  ee:	e7f3      	b.n	d8 <core::result::Result<T,E>::map_err+0xd8>
  f0:	f89d 0046 	ldrb.w	r0, [sp, #70]	; 0x46
  f4:	07c0      	lsls	r0, r0, #31
  f6:	2800      	cmp	r0, #0
  f8:	d0ee      	beq.n	d8 <core::result::Result<T,E>::map_err+0xd8>
  fa:	e7ff      	b.n	fc <core::result::Result<T,E>::map_err+0xfc>
  fc:	2000      	movs	r0, #0
  fe:	f88d 0046 	strb.w	r0, [sp, #70]	; 0x46
 102:	e7e9      	b.n	d8 <core::result::Result<T,E>::map_err+0xd8>

Disassembly of section .text._ZN4core6result19Result$LT$T$C$E$GT$7map_err17h1f67d751f59ce336E:

00000000 <core::result::Result<T,E>::map_err>:
_ZN4core6result19Result$LT$T$C$E$GT$7map_err17h1f67d751f59ce336E():
/rustc/50a0defd5a93523067ef239936cc2e0755220904/src/libcore/result.rs:519
   0:	b580      	push	{r7, lr}
   2:	b088      	sub	sp, #32
   4:	4601      	mov	r1, r0
   6:	f88d 000f 	strb.w	r0, [sp, #15]
   a:	2000      	movs	r0, #0
/rustc/50a0defd5a93523067ef239936cc2e0755220904/src/libcore/result.rs:521
   c:	f88d 001f 	strb.w	r0, [sp, #31]
  10:	f88d 001d 	strb.w	r0, [sp, #29]
  14:	f88d 001e 	strb.w	r0, [sp, #30]
  18:	2001      	movs	r0, #1
  1a:	f88d 001e 	strb.w	r0, [sp, #30]
  1e:	f88d 001f 	strb.w	r0, [sp, #31]
  22:	f88d 001d 	strb.w	r0, [sp, #29]
  26:	f89d 000f 	ldrb.w	r0, [sp, #15]
  2a:	07c2      	lsls	r2, r0, #31
  2c:	2a00      	cmp	r2, #0
  2e:	9102      	str	r1, [sp, #8]
  30:	9001      	str	r0, [sp, #4]
  32:	d005      	beq.n	40 <core::result::Result<T,E>::map_err+0x40>
  34:	e7ff      	b.n	36 <core::result::Result<T,E>::map_err+0x36>
  36:	9801      	ldr	r0, [sp, #4]
  38:	2801      	cmp	r0, #1
  3a:	d007      	beq.n	4c <core::result::Result<T,E>::map_err+0x4c>
  3c:	e7ff      	b.n	3e <core::result::Result<T,E>::map_err+0x3e>
/rustc/50a0defd5a93523067ef239936cc2e0755220904/src/libcore/result.rs:524
  3e:	defe      	udf	#254	; 0xfe
  40:	2000      	movs	r0, #0
/rustc/50a0defd5a93523067ef239936cc2e0755220904/src/libcore/result.rs:521
  42:	f88d 001f 	strb.w	r0, [sp, #31]
  46:	f88d 0013 	strb.w	r0, [sp, #19]
/rustc/50a0defd5a93523067ef239936cc2e0755220904/src/libcore/result.rs:520
  4a:	e00b      	b.n	64 <core::result::Result<T,E>::map_err+0x64>
  4c:	2000      	movs	r0, #0
/rustc/50a0defd5a93523067ef239936cc2e0755220904/src/libcore/result.rs:522
  4e:	f88d 001e 	strb.w	r0, [sp, #30]
  52:	f88d 001d 	strb.w	r0, [sp, #29]
  56:	f7ff fffe 	bl	0 <<heapless::string::String<N> as core::fmt::Write>::write_str::{{closure}}>
  5a:	e7ff      	b.n	5c <core::result::Result<T,E>::map_err+0x5c>
  5c:	2001      	movs	r0, #1
  5e:	f88d 0013 	strb.w	r0, [sp, #19]
/rustc/50a0defd5a93523067ef239936cc2e0755220904/src/libcore/result.rs:520
  62:	e7ff      	b.n	64 <core::result::Result<T,E>::map_err+0x64>
/rustc/50a0defd5a93523067ef239936cc2e0755220904/src/libcore/result.rs:524
  64:	f89d 001d 	ldrb.w	r0, [sp, #29]
  68:	07c0      	lsls	r0, r0, #31
  6a:	2800      	cmp	r0, #0
  6c:	d106      	bne.n	7c <core::result::Result<T,E>::map_err+0x7c>
  6e:	e7ff      	b.n	70 <core::result::Result<T,E>::map_err+0x70>
  70:	f89d 000f 	ldrb.w	r0, [sp, #15]
  74:	07c0      	lsls	r0, r0, #31
  76:	2800      	cmp	r0, #0
  78:	d008      	beq.n	8c <core::result::Result<T,E>::map_err+0x8c>
  7a:	e011      	b.n	a0 <core::result::Result<T,E>::map_err+0xa0>
  7c:	2000      	movs	r0, #0
  7e:	f88d 001d 	strb.w	r0, [sp, #29]
  82:	e7f5      	b.n	70 <core::result::Result<T,E>::map_err+0x70>
  84:	f89d 0013 	ldrb.w	r0, [sp, #19]
  88:	b008      	add	sp, #32
  8a:	bd80      	pop	{r7, pc}
  8c:	f89d 001f 	ldrb.w	r0, [sp, #31]
  90:	07c0      	lsls	r0, r0, #31
  92:	2800      	cmp	r0, #0
  94:	d0f6      	beq.n	84 <core::result::Result<T,E>::map_err+0x84>
  96:	e7ff      	b.n	98 <core::result::Result<T,E>::map_err+0x98>
  98:	2000      	movs	r0, #0
  9a:	f88d 001f 	strb.w	r0, [sp, #31]
  9e:	e7f1      	b.n	84 <core::result::Result<T,E>::map_err+0x84>
  a0:	f89d 001e 	ldrb.w	r0, [sp, #30]
  a4:	07c0      	lsls	r0, r0, #31
  a6:	2800      	cmp	r0, #0
  a8:	d0ec      	beq.n	84 <core::result::Result<T,E>::map_err+0x84>
  aa:	e7ff      	b.n	ac <core::result::Result<T,E>::map_err+0xac>
  ac:	2000      	movs	r0, #0
  ae:	f88d 001e 	strb.w	r0, [sp, #30]
  b2:	e7e7      	b.n	84 <core::result::Result<T,E>::map_err+0x84>

Disassembly of section .text._ZN4core6result19Result$LT$T$C$E$GT$7map_err17h6163bd8d1ff9545cE:

00000000 <core::result::Result<T,E>::map_err>:
_ZN4core6result19Result$LT$T$C$E$GT$7map_err17h6163bd8d1ff9545cE():
/rustc/50a0defd5a93523067ef239936cc2e0755220904/src/libcore/result.rs:519
   0:	b580      	push	{r7, lr}
   2:	b088      	sub	sp, #32
   4:	4601      	mov	r1, r0
   6:	f88d 000f 	strb.w	r0, [sp, #15]
   a:	2000      	movs	r0, #0
/rustc/50a0defd5a93523067ef239936cc2e0755220904/src/libcore/result.rs:521
   c:	f88d 001f 	strb.w	r0, [sp, #31]
  10:	f88d 001d 	strb.w	r0, [sp, #29]
  14:	f88d 001e 	strb.w	r0, [sp, #30]
  18:	2001      	movs	r0, #1
  1a:	f88d 001e 	strb.w	r0, [sp, #30]
  1e:	f88d 001f 	strb.w	r0, [sp, #31]
  22:	f88d 001d 	strb.w	r0, [sp, #29]
  26:	f89d 000f 	ldrb.w	r0, [sp, #15]
  2a:	07c2      	lsls	r2, r0, #31
  2c:	2a00      	cmp	r2, #0
  2e:	9102      	str	r1, [sp, #8]
  30:	9001      	str	r0, [sp, #4]
  32:	d005      	beq.n	40 <core::result::Result<T,E>::map_err+0x40>
  34:	e7ff      	b.n	36 <core::result::Result<T,E>::map_err+0x36>
  36:	9801      	ldr	r0, [sp, #4]
  38:	2801      	cmp	r0, #1
  3a:	d007      	beq.n	4c <core::result::Result<T,E>::map_err+0x4c>
  3c:	e7ff      	b.n	3e <core::result::Result<T,E>::map_err+0x3e>
/rustc/50a0defd5a93523067ef239936cc2e0755220904/src/libcore/result.rs:524
  3e:	defe      	udf	#254	; 0xfe
  40:	2000      	movs	r0, #0
/rustc/50a0defd5a93523067ef239936cc2e0755220904/src/libcore/result.rs:521
  42:	f88d 001f 	strb.w	r0, [sp, #31]
  46:	f88d 0013 	strb.w	r0, [sp, #19]
/rustc/50a0defd5a93523067ef239936cc2e0755220904/src/libcore/result.rs:520
  4a:	e00b      	b.n	64 <core::result::Result<T,E>::map_err+0x64>
  4c:	2000      	movs	r0, #0
/rustc/50a0defd5a93523067ef239936cc2e0755220904/src/libcore/result.rs:522
  4e:	f88d 001e 	strb.w	r0, [sp, #30]
  52:	f88d 001d 	strb.w	r0, [sp, #29]
  56:	f7ff fffe 	bl	0 <<heapless::string::String<N> as core::fmt::Write>::write_char::{{closure}}>
  5a:	e7ff      	b.n	5c <core::result::Result<T,E>::map_err+0x5c>
  5c:	2001      	movs	r0, #1
  5e:	f88d 0013 	strb.w	r0, [sp, #19]
/rustc/50a0defd5a93523067ef239936cc2e0755220904/src/libcore/result.rs:520
  62:	e7ff      	b.n	64 <core::result::Result<T,E>::map_err+0x64>
/rustc/50a0defd5a93523067ef239936cc2e0755220904/src/libcore/result.rs:524
  64:	f89d 001d 	ldrb.w	r0, [sp, #29]
  68:	07c0      	lsls	r0, r0, #31
  6a:	2800      	cmp	r0, #0
  6c:	d106      	bne.n	7c <core::result::Result<T,E>::map_err+0x7c>
  6e:	e7ff      	b.n	70 <core::result::Result<T,E>::map_err+0x70>
  70:	f89d 000f 	ldrb.w	r0, [sp, #15]
  74:	07c0      	lsls	r0, r0, #31
  76:	2800      	cmp	r0, #0
  78:	d008      	beq.n	8c <core::result::Result<T,E>::map_err+0x8c>
  7a:	e011      	b.n	a0 <core::result::Result<T,E>::map_err+0xa0>
  7c:	2000      	movs	r0, #0
  7e:	f88d 001d 	strb.w	r0, [sp, #29]
  82:	e7f5      	b.n	70 <core::result::Result<T,E>::map_err+0x70>
  84:	f89d 0013 	ldrb.w	r0, [sp, #19]
  88:	b008      	add	sp, #32
  8a:	bd80      	pop	{r7, pc}
  8c:	f89d 001f 	ldrb.w	r0, [sp, #31]
  90:	07c0      	lsls	r0, r0, #31
  92:	2800      	cmp	r0, #0
  94:	d0f6      	beq.n	84 <core::result::Result<T,E>::map_err+0x84>
  96:	e7ff      	b.n	98 <core::result::Result<T,E>::map_err+0x98>
  98:	2000      	movs	r0, #0
  9a:	f88d 001f 	strb.w	r0, [sp, #31]
  9e:	e7f1      	b.n	84 <core::result::Result<T,E>::map_err+0x84>
  a0:	f89d 001e 	ldrb.w	r0, [sp, #30]
  a4:	07c0      	lsls	r0, r0, #31
  a6:	2800      	cmp	r0, #0
  a8:	d0ec      	beq.n	84 <core::result::Result<T,E>::map_err+0x84>
  aa:	e7ff      	b.n	ac <core::result::Result<T,E>::map_err+0xac>
  ac:	2000      	movs	r0, #0
  ae:	f88d 001e 	strb.w	r0, [sp, #30]
  b2:	e7e7      	b.n	84 <core::result::Result<T,E>::map_err+0x84>

Disassembly of section .text._ZN4core6result19Result$LT$T$C$E$GT$7map_err17hc927f8ae99161931E:

00000000 <core::result::Result<T,E>::map_err>:
_ZN4core6result19Result$LT$T$C$E$GT$7map_err17hc927f8ae99161931E():
/rustc/50a0defd5a93523067ef239936cc2e0755220904/src/libcore/result.rs:519
   0:	b580      	push	{r7, lr}
   2:	b088      	sub	sp, #32
   4:	460a      	mov	r2, r1
   6:	4603      	mov	r3, r0
   8:	f88d 0010 	strb.w	r0, [sp, #16]
   c:	f88d 1011 	strb.w	r1, [sp, #17]
  10:	2000      	movs	r0, #0
/rustc/50a0defd5a93523067ef239936cc2e0755220904/src/libcore/result.rs:521
  12:	f88d 001f 	strb.w	r0, [sp, #31]
  16:	f88d 001d 	strb.w	r0, [sp, #29]
  1a:	f88d 001e 	strb.w	r0, [sp, #30]
  1e:	2001      	movs	r0, #1
  20:	f88d 001e 	strb.w	r0, [sp, #30]
  24:	f88d 001f 	strb.w	r0, [sp, #31]
  28:	f88d 001d 	strb.w	r0, [sp, #29]
  2c:	f89d 0010 	ldrb.w	r0, [sp, #16]
  30:	07c1      	lsls	r1, r0, #31
  32:	2900      	cmp	r1, #0
  34:	9203      	str	r2, [sp, #12]
  36:	9302      	str	r3, [sp, #8]
  38:	9001      	str	r0, [sp, #4]
  3a:	d005      	beq.n	48 <core::result::Result<T,E>::map_err+0x48>
  3c:	e7ff      	b.n	3e <core::result::Result<T,E>::map_err+0x3e>
  3e:	9801      	ldr	r0, [sp, #4]
  40:	2801      	cmp	r0, #1
  42:	d007      	beq.n	54 <core::result::Result<T,E>::map_err+0x54>
  44:	e7ff      	b.n	46 <core::result::Result<T,E>::map_err+0x46>
/rustc/50a0defd5a93523067ef239936cc2e0755220904/src/libcore/result.rs:524
  46:	defe      	udf	#254	; 0xfe
  48:	2000      	movs	r0, #0
/rustc/50a0defd5a93523067ef239936cc2e0755220904/src/libcore/result.rs:521
  4a:	f88d 001f 	strb.w	r0, [sp, #31]
  4e:	f88d 0017 	strb.w	r0, [sp, #23]
/rustc/50a0defd5a93523067ef239936cc2e0755220904/src/libcore/result.rs:520
  52:	e015      	b.n	80 <core::result::Result<T,E>::map_err+0x80>
  54:	2000      	movs	r0, #0
/rustc/50a0defd5a93523067ef239936cc2e0755220904/src/libcore/result.rs:522
  56:	f88d 001e 	strb.w	r0, [sp, #30]
  5a:	f89d 1011 	ldrb.w	r1, [sp, #17]
  5e:	f88d 101b 	strb.w	r1, [sp, #27]
  62:	f88d 001d 	strb.w	r0, [sp, #29]
  66:	f89d 001b 	ldrb.w	r0, [sp, #27]
  6a:	f88d 001c 	strb.w	r0, [sp, #28]
  6e:	f89d 001c 	ldrb.w	r0, [sp, #28]
  72:	f7ff fffe 	bl	0 <heapless::string::String<N>::push::{{closure}}>
  76:	e7ff      	b.n	78 <core::result::Result<T,E>::map_err+0x78>
  78:	2001      	movs	r0, #1
  7a:	f88d 0017 	strb.w	r0, [sp, #23]
/rustc/50a0defd5a93523067ef239936cc2e0755220904/src/libcore/result.rs:520
  7e:	e7ff      	b.n	80 <core::result::Result<T,E>::map_err+0x80>
/rustc/50a0defd5a93523067ef239936cc2e0755220904/src/libcore/result.rs:524
  80:	f89d 001d 	ldrb.w	r0, [sp, #29]
  84:	07c0      	lsls	r0, r0, #31
  86:	2800      	cmp	r0, #0
  88:	d106      	bne.n	98 <core::result::Result<T,E>::map_err+0x98>
  8a:	e7ff      	b.n	8c <core::result::Result<T,E>::map_err+0x8c>
  8c:	f89d 0010 	ldrb.w	r0, [sp, #16]
  90:	07c0      	lsls	r0, r0, #31
  92:	2800      	cmp	r0, #0
  94:	d008      	beq.n	a8 <core::result::Result<T,E>::map_err+0xa8>
  96:	e011      	b.n	bc <core::result::Result<T,E>::map_err+0xbc>
  98:	2000      	movs	r0, #0
  9a:	f88d 001d 	strb.w	r0, [sp, #29]
  9e:	e7f5      	b.n	8c <core::result::Result<T,E>::map_err+0x8c>
  a0:	f89d 0017 	ldrb.w	r0, [sp, #23]
  a4:	b008      	add	sp, #32
  a6:	bd80      	pop	{r7, pc}
  a8:	f89d 001f 	ldrb.w	r0, [sp, #31]
  ac:	07c0      	lsls	r0, r0, #31
  ae:	2800      	cmp	r0, #0
  b0:	d0f6      	beq.n	a0 <core::result::Result<T,E>::map_err+0xa0>
  b2:	e7ff      	b.n	b4 <core::result::Result<T,E>::map_err+0xb4>
  b4:	2000      	movs	r0, #0
  b6:	f88d 001f 	strb.w	r0, [sp, #31]
  ba:	e7f1      	b.n	a0 <core::result::Result<T,E>::map_err+0xa0>
  bc:	f89d 001e 	ldrb.w	r0, [sp, #30]
  c0:	07c0      	lsls	r0, r0, #31
  c2:	2800      	cmp	r0, #0
  c4:	d0ec      	beq.n	a0 <core::result::Result<T,E>::map_err+0xa0>
  c6:	e7ff      	b.n	c8 <core::result::Result<T,E>::map_err+0xc8>
  c8:	2000      	movs	r0, #0
  ca:	f88d 001e 	strb.w	r0, [sp, #30]
  ce:	e7e7      	b.n	a0 <core::result::Result<T,E>::map_err+0xa0>

Disassembly of section .text._ZN73_$LT$core..result..Result$LT$T$C$E$GT$$u20$as$u20$core..ops..try..Try$GT$10from_error17h13fef641c6784503E:

00000000 <<core::result::Result<T,E> as core::ops::try::Try>::from_error>:
_ZN73_$LT$core..result..Result$LT$T$C$E$GT$$u20$as$u20$core..ops..try..Try$GT$10from_error17h13fef641c6784503E():
/rustc/50a0defd5a93523067ef239936cc2e0755220904/src/libcore/result.rs:1292
   0:	b580      	push	{r7, lr}
   2:	b085      	sub	sp, #20
   4:	4613      	mov	r3, r2
   6:	468c      	mov	ip, r1
   8:	4686      	mov	lr, r0
   a:	9103      	str	r1, [sp, #12]
   c:	9204      	str	r2, [sp, #16]
/rustc/50a0defd5a93523067ef239936cc2e0755220904/src/libcore/result.rs:1293
   e:	9903      	ldr	r1, [sp, #12]
  10:	9a04      	ldr	r2, [sp, #16]
  12:	6041      	str	r1, [r0, #4]
  14:	6082      	str	r2, [r0, #8]
  16:	2101      	movs	r1, #1
  18:	6001      	str	r1, [r0, #0]
/rustc/50a0defd5a93523067ef239936cc2e0755220904/src/libcore/result.rs:1294
  1a:	9302      	str	r3, [sp, #8]
  1c:	f8cd c004 	str.w	ip, [sp, #4]
  20:	f8cd e000 	str.w	lr, [sp]
  24:	b005      	add	sp, #20
  26:	bd80      	pop	{r7, pc}

Disassembly of section .text._ZN73_$LT$core..result..Result$LT$T$C$E$GT$$u20$as$u20$core..ops..try..Try$GT$11into_result17h59202a362cb7c0c6E:

00000000 <<core::result::Result<T,E> as core::ops::try::Try>::into_result>:
_ZN73_$LT$core..result..Result$LT$T$C$E$GT$$u20$as$u20$core..ops..try..Try$GT$11into_result17h59202a362cb7c0c6E():
/rustc/50a0defd5a93523067ef239936cc2e0755220904/src/libcore/result.rs:1282
   0:	b082      	sub	sp, #8
   2:	460a      	mov	r2, r1
   4:	4603      	mov	r3, r0
/rustc/50a0defd5a93523067ef239936cc2e0755220904/src/libcore/result.rs:1283
   6:	f8d1 c000 	ldr.w	ip, [r1]
   a:	6849      	ldr	r1, [r1, #4]
   c:	6041      	str	r1, [r0, #4]
   e:	f8c0 c000 	str.w	ip, [r0]
/rustc/50a0defd5a93523067ef239936cc2e0755220904/src/libcore/result.rs:1284
  12:	9201      	str	r2, [sp, #4]
  14:	9300      	str	r3, [sp, #0]
  16:	b002      	add	sp, #8
  18:	4770      	bx	lr

Disassembly of section .text._ZN73_$LT$core..result..Result$LT$T$C$E$GT$$u20$as$u20$core..ops..try..Try$GT$11into_result17h6387266495e27d54E:

00000000 <<core::result::Result<T,E> as core::ops::try::Try>::into_result>:
_ZN73_$LT$core..result..Result$LT$T$C$E$GT$$u20$as$u20$core..ops..try..Try$GT$11into_result17h6387266495e27d54E():
/rustc/50a0defd5a93523067ef239936cc2e0755220904/src/libcore/result.rs:1282
   0:	b510      	push	{r4, lr}
   2:	b082      	sub	sp, #8
   4:	460a      	mov	r2, r1
   6:	4603      	mov	r3, r0
/rustc/50a0defd5a93523067ef239936cc2e0755220904/src/libcore/result.rs:1283
   8:	f8d1 c000 	ldr.w	ip, [r1]
   c:	f8d1 e004 	ldr.w	lr, [r1, #4]
  10:	688c      	ldr	r4, [r1, #8]
  12:	68c9      	ldr	r1, [r1, #12]
  14:	60c1      	str	r1, [r0, #12]
  16:	6084      	str	r4, [r0, #8]
  18:	f8c0 e004 	str.w	lr, [r0, #4]
  1c:	f8c0 c000 	str.w	ip, [r0]
/rustc/50a0defd5a93523067ef239936cc2e0755220904/src/libcore/result.rs:1284
  20:	9201      	str	r2, [sp, #4]
  22:	9300      	str	r3, [sp, #0]
  24:	b002      	add	sp, #8
  26:	bd10      	pop	{r4, pc}

Disassembly of section .text._ZN73_$LT$core..result..Result$LT$T$C$E$GT$$u20$as$u20$core..ops..try..Try$GT$11into_result17hf14d14a6548b4488E:

00000000 <<core::result::Result<T,E> as core::ops::try::Try>::into_result>:
_ZN73_$LT$core..result..Result$LT$T$C$E$GT$$u20$as$u20$core..ops..try..Try$GT$11into_result17hf14d14a6548b4488E():
/rustc/50a0defd5a93523067ef239936cc2e0755220904/src/libcore/result.rs:1282
   0:	b5b0      	push	{r4, r5, r7, lr}
   2:	b082      	sub	sp, #8
   4:	460a      	mov	r2, r1
   6:	4603      	mov	r3, r0
/rustc/50a0defd5a93523067ef239936cc2e0755220904/src/libcore/result.rs:1283
   8:	e8b1 5030 	ldmia.w	r1!, {r4, r5, ip, lr}
   c:	e8a0 5030 	stmia.w	r0!, {r4, r5, ip, lr}
  10:	e891 5030 	ldmia.w	r1, {r4, r5, ip, lr}
  14:	e880 5030 	stmia.w	r0, {r4, r5, ip, lr}
/rustc/50a0defd5a93523067ef239936cc2e0755220904/src/libcore/result.rs:1284
  18:	9201      	str	r2, [sp, #4]
  1a:	9300      	str	r3, [sp, #0]
  1c:	b002      	add	sp, #8
  1e:	bdb0      	pop	{r4, r5, r7, pc}

Disassembly of section .text._ZN73_$LT$core..result..Result$LT$T$C$E$GT$$u20$as$u20$core..ops..try..Try$GT$11into_result17hf4161614e935235bE:

00000000 <<core::result::Result<T,E> as core::ops::try::Try>::into_result>:
_ZN73_$LT$core..result..Result$LT$T$C$E$GT$$u20$as$u20$core..ops..try..Try$GT$11into_result17hf4161614e935235bE():
/rustc/50a0defd5a93523067ef239936cc2e0755220904/src/libcore/result.rs:1282
   0:	b510      	push	{r4, lr}
   2:	b082      	sub	sp, #8
   4:	460a      	mov	r2, r1
   6:	4603      	mov	r3, r0
/rustc/50a0defd5a93523067ef239936cc2e0755220904/src/libcore/result.rs:1283
   8:	f8d1 c000 	ldr.w	ip, [r1]
   c:	f8d1 e004 	ldr.w	lr, [r1, #4]
  10:	688c      	ldr	r4, [r1, #8]
  12:	68c9      	ldr	r1, [r1, #12]
  14:	60c1      	str	r1, [r0, #12]
  16:	6084      	str	r4, [r0, #8]
  18:	f8c0 e004 	str.w	lr, [r0, #4]
  1c:	f8c0 c000 	str.w	ip, [r0]
/rustc/50a0defd5a93523067ef239936cc2e0755220904/src/libcore/result.rs:1284
  20:	9201      	str	r2, [sp, #4]
  22:	9300      	str	r3, [sp, #0]
  24:	b002      	add	sp, #8
  26:	bd10      	pop	{r4, pc}

app-e8778d9de5b9c761.1qij4ktei5ptks14.rcgu.o:     file format elf32-littlearm

SYMBOL TABLE:
00000000 l    df *ABS*	00000000 1qij4ktei5ptks14
000015ae l       .debug_str	00000000 
00001e5a l       .debug_str	00000000 
00001f5c l       .debug_str	00000000 
00002056 l       .debug_str	00000000 
00002133 l       .debug_str	00000000 
0000213d l       .debug_str	00000000 
00002164 l       .debug_str	00000000 
00002169 l       .debug_str	00000000 
0000216d l       .debug_str	00000000 
00002173 l       .debug_str	00000000 
0000217a l       .debug_str	00000000 
0000217f l       .debug_str	00000000 
00002199 l       .debug_str	00000000 
000021a0 l       .debug_str	00000000 
000021a9 l       .debug_str	00000000 
000021b6 l       .debug_str	00000000 
000021e6 l       .debug_str	00000000 
00002219 l       .debug_str	00000000 
00002265 l       .debug_str	00000000 
000022a8 l       .debug_str	00000000 
000022e7 l       .debug_str	00000000 
0000231e l       .debug_str	00000000 
0000236e l       .debug_str	00000000 
000023b1 l       .debug_str	00000000 
00002425 l       .debug_str	00000000 
00002457 l       .debug_str	00000000 
0000248c l       .debug_str	00000000 
00000000 l       .debug_str	00000000 
00000041 l       .debug_str	00000000 
00000055 l       .debug_str	00000000 
00000085 l       .debug_str	00000000 
0000008b l       .debug_str	00000000 
00000092 l       .debug_str	00000000 
00000097 l       .debug_str	00000000 
0000009a l       .debug_str	00000000 
000000a5 l       .debug_str	00000000 
000000ae l       .debug_str	00000000 
000000b3 l       .debug_str	00000000 
000000b8 l       .debug_str	00000000 
000000bf l       .debug_str	00000000 
000000c4 l       .debug_str	00000000 
000000c9 l       .debug_str	00000000 
000000d0 l       .debug_str	00000000 
000000d6 l       .debug_str	00000000 
000000da l       .debug_str	00000000 
000000de l       .debug_str	00000000 
000000e7 l       .debug_str	00000000 
000000f1 l       .debug_str	00000000 
000000f8 l       .debug_str	00000000 
000000fe l       .debug_str	00000000 
00000103 l       .debug_str	00000000 
00000107 l       .debug_str	00000000 
00000114 l       .debug_str	00000000 
0000011d l       .debug_str	00000000 
00000124 l       .debug_str	00000000 
00000126 l       .debug_str	00000000 
0000012a l       .debug_str	00000000 
00000131 l       .debug_str	00000000 
00000135 l       .debug_str	00000000 
0000013c l       .debug_str	00000000 
0000013f l       .debug_str	00000000 
00000145 l       .debug_str	00000000 
00000153 l       .debug_str	00000000 
00000158 l       .debug_str	00000000 
00000160 l       .debug_str	00000000 
00000168 l       .debug_str	00000000 
0000016a l       .debug_str	00000000 
0000016c l       .debug_str	00000000 
00000188 l       .debug_str	00000000 
00000190 l       .debug_str	00000000 
00000197 l       .debug_str	00000000 
000001a7 l       .debug_str	00000000 
000001ec l       .debug_str	00000000 
00000259 l       .debug_str	00000000 
000002ef l       .debug_str	00000000 
000003ae l       .debug_str	00000000 
000003b6 l       .debug_str	00000000 
000003bb l       .debug_str	00000000 
000003c1 l       .debug_str	00000000 
000003c5 l       .debug_str	00000000 
000003c8 l       .debug_str	00000000 
000003f1 l       .debug_str	00000000 
00000427 l       .debug_str	00000000 
00000429 l       .debug_str	00000000 
00000456 l       .debug_str	00000000 
00000459 l       .debug_str	00000000 
000004a9 l       .debug_str	00000000 
00000506 l       .debug_str	00000000 
0000055a l       .debug_str	00000000 
000005d1 l       .debug_str	00000000 
00000655 l       .debug_str	00000000 
000006d0 l       .debug_str	00000000 
0000076e l       .debug_str	00000000 
00000819 l       .debug_str	00000000 
000008bb l       .debug_str	00000000 
00000980 l       .debug_str	00000000 
00000a52 l       .debug_str	00000000 
00000b1b l       .debug_str	00000000 
00000c05 l       .debug_str	00000000 
00000d0c l       .debug_str	00000000 
00000e12 l       .debug_str	00000000 
00000e16 l       .debug_str	00000000 
00000e18 l       .debug_str	00000000 
00000f16 l       .debug_str	00000000 
00001017 l       .debug_str	00000000 
00001019 l       .debug_str	00000000 
000010f9 l       .debug_str	00000000 
000010fd l       .debug_str	00000000 
00001102 l       .debug_str	00000000 
00001106 l       .debug_str	00000000 
0000110a l       .debug_str	00000000 
0000111b l       .debug_str	00000000 
0000122b l       .debug_str	00000000 
0000123a l       .debug_str	00000000 
00001266 l       .debug_str	00000000 
00001299 l       .debug_str	00000000 
0000129d l       .debug_str	00000000 
000012ca l       .debug_str	00000000 
00001304 l       .debug_str	00000000 
00001336 l       .debug_str	00000000 
00001378 l       .debug_str	00000000 
000013b4 l       .debug_str	00000000 
000013b9 l       .debug_str	00000000 
000013fd l       .debug_str	00000000 
00001404 l       .debug_str	00000000 
0000140a l       .debug_str	00000000 
0000140e l       .debug_str	00000000 
00001417 l       .debug_str	00000000 
0000144a l       .debug_str	00000000 
00001486 l       .debug_str	00000000 
000014b5 l       .debug_str	00000000 
000014b9 l       .debug_str	00000000 
000014c6 l       .debug_str	00000000 
000014c9 l       .debug_str	00000000 
000014d3 l       .debug_str	00000000 
000014dc l       .debug_str	00000000 
000014e2 l       .debug_str	00000000 
000014ee l       .debug_str	00000000 
000014f4 l       .debug_str	00000000 
000014f9 l       .debug_str	00000000 
000014fc l       .debug_str	00000000 
00001500 l       .debug_str	00000000 
00001503 l       .debug_str	00000000 
00001506 l       .debug_str	00000000 
00001509 l       .debug_str	00000000 
0000150e l       .debug_str	00000000 
0000151a l       .debug_str	00000000 
0000151f l       .debug_str	00000000 
00001526 l       .debug_str	00000000 
00001530 l       .debug_str	00000000 
0000153b l       .debug_str	00000000 
00001548 l       .debug_str	00000000 
00001556 l       .debug_str	00000000 
00001560 l       .debug_str	00000000 
0000156e l       .debug_str	00000000 
00001578 l       .debug_str	00000000 
00001581 l       .debug_str	00000000 
0000158d l       .debug_str	00000000 
00001593 l       .debug_str	00000000 
0000159d l       .debug_str	00000000 
000015b0 l       .debug_str	00000000 
000015bf l       .debug_str	00000000 
000015c1 l       .debug_str	00000000 
000015fa l       .debug_str	00000000 
00001601 l       .debug_str	00000000 
00001608 l       .debug_str	00000000 
00001619 l       .debug_str	00000000 
00001658 l       .debug_str	00000000 
0000168b l       .debug_str	00000000 
00001716 l       .debug_str	00000000 
000017ed l       .debug_str	00000000 
00001910 l       .debug_str	00000000 
00001987 l       .debug_str	00000000 
00001a0b l       .debug_str	00000000 
00001a86 l       .debug_str	00000000 
00001b24 l       .debug_str	00000000 
00001bcf l       .debug_str	00000000 
00001c71 l       .debug_str	00000000 
00001d57 l       .debug_str	00000000 
00000000 l     O .rodata..Lanon.150a7a7023bbeee428646f212234417f.0	00000018 .Lanon.150a7a7023bbeee428646f212234417f.0
00000000 l     O .rodata..Lanon.150a7a7023bbeee428646f212234417f.3	00000018 .Lanon.150a7a7023bbeee428646f212234417f.3
00000000 l     O .rodata..Lanon.150a7a7023bbeee428646f212234417f.5	00000018 .Lanon.150a7a7023bbeee428646f212234417f.5
00000000 l     O .rodata..Lanon.150a7a7023bbeee428646f212234417f.6	00000018 .Lanon.150a7a7023bbeee428646f212234417f.6
00000000 l     O .rodata..Lanon.150a7a7023bbeee428646f212234417f.7	00000018 .Lanon.150a7a7023bbeee428646f212234417f.7
00000000 l     O .rodata..Lanon.150a7a7023bbeee428646f212234417f.8	00000018 .Lanon.150a7a7023bbeee428646f212234417f.8
00000000 l     O .rodata.str.0	00000048 str.0
00000000 l     O .rodata.str.1	00000039 str.1
00000000 l    d  .text._ZN4core5slice14from_raw_parts17h5f7968deaa1d5ac7E	00000000 .text._ZN4core5slice14from_raw_parts17h5f7968deaa1d5ac7E
00000000 l    d  .text._ZN4core5slice14from_raw_parts17he90d7feff102d51aE	00000000 .text._ZN4core5slice14from_raw_parts17he90d7feff102d51aE
00000000 l    d  .text._ZN4core5slice18from_raw_parts_mut17h4b15a0488e6bfaa0E	00000000 .text._ZN4core5slice18from_raw_parts_mut17h4b15a0488e6bfaa0E
00000000 l    d  .text._ZN85_$LT$core..slice..Iter$LT$T$GT$$u20$as$u20$core..iter..traits..iterator..Iterator$GT$4next17h626392e314248e3dE	00000000 .text._ZN85_$LT$core..slice..Iter$LT$T$GT$$u20$as$u20$core..iter..traits..iterator..Iterator$GT$4next17h626392e314248e3dE
00000000 l    d  .rodata.str.0	00000000 .rodata.str.0
00000000 l    d  .rodata.str.1	00000000 .rodata.str.1
00000000 l    d  .rodata..Lanon.150a7a7023bbeee428646f212234417f.1	00000000 .rodata..Lanon.150a7a7023bbeee428646f212234417f.1
00000000 l    d  .rodata..Lanon.150a7a7023bbeee428646f212234417f.2	00000000 .rodata..Lanon.150a7a7023bbeee428646f212234417f.2
00000000 l    d  .rodata..Lanon.150a7a7023bbeee428646f212234417f.4	00000000 .rodata..Lanon.150a7a7023bbeee428646f212234417f.4
00000000 l    d  .debug_abbrev	00000000 .debug_abbrev
00000000 l    d  .debug_info	00000000 .debug_info
00000000 l    d  .debug_ranges	00000000 .debug_ranges
00000000 l    d  .debug_frame	00000000 .debug_frame
00000000 l    d  .debug_line	00000000 .debug_line
00000000         *UND*	00000000 core::mem::size_of
00000000         *UND*	00000000 core::mem::size_of
00000000         *UND*	00000000 core::mem::align_of
00000000         *UND*	00000000 core::mem::align_of
00000000         *UND*	00000000 .hidden core::num::<impl usize>::saturating_mul
00000000         *UND*	00000000 core::ptr::<impl *const T>::wrapping_offset
00000000         *UND*	00000000 core::ptr::<impl *const T>::offset
00000000         *UND*	00000000 core::ptr::<impl *const T>::is_null
00000000 g     F .text._ZN4core5slice14from_raw_parts17h5f7968deaa1d5ac7E	000000aa core::slice::from_raw_parts
00000000 g     F .text._ZN4core5slice14from_raw_parts17he90d7feff102d51aE	000000aa core::slice::from_raw_parts
00000000 g     F .text._ZN4core5slice18from_raw_parts_mut17h4b15a0488e6bfaa0E	000000aa core::slice::from_raw_parts_mut
00000000         *UND*	00000000 core::panicking::panic
00000000 g     F .text._ZN85_$LT$core..slice..Iter$LT$T$GT$$u20$as$u20$core..iter..traits..iterator..Iterator$GT$4next17h626392e314248e3dE	000000a0 <core::slice::Iter<T> as core::iter::traits::iterator::Iterator>::next



Disassembly of section .text._ZN4core5slice14from_raw_parts17h5f7968deaa1d5ac7E:

00000000 <core::slice::from_raw_parts>:
_ZN4core5slice14from_raw_parts17h5f7968deaa1d5ac7E():
/rustc/50a0defd5a93523067ef239936cc2e0755220904/src/libcore/slice/mod.rs:5112
   0:	b580      	push	{r7, lr}
   2:	b08c      	sub	sp, #48	; 0x30
   4:	460a      	mov	r2, r1
   6:	4603      	mov	r3, r0
   8:	9006      	str	r0, [sp, #24]
   a:	9107      	str	r1, [sp, #28]
   c:	2001      	movs	r0, #1
/rustc/50a0defd5a93523067ef239936cc2e0755220904/src/libcore/macros.rs:184
   e:	2800      	cmp	r0, #0
  10:	9205      	str	r2, [sp, #20]
  12:	9304      	str	r3, [sp, #16]
  14:	d11b      	bne.n	4e <core::slice::from_raw_parts+0x4e>
  16:	e7ff      	b.n	18 <core::slice::from_raw_parts+0x18>
/rustc/50a0defd5a93523067ef239936cc2e0755220904/src/libcore/slice/mod.rs:5113
  18:	9806      	ldr	r0, [sp, #24]
  1a:	9003      	str	r0, [sp, #12]
  1c:	f7ff fffe 	bl	0 <core::mem::align_of>
  20:	9002      	str	r0, [sp, #8]
  22:	e7ff      	b.n	24 <core::slice::from_raw_parts+0x24>
  24:	9802      	ldr	r0, [sp, #8]
  26:	2800      	cmp	r0, #0
  28:	d038      	beq.n	9c <core::slice::from_raw_parts+0x9c>
  2a:	e7ff      	b.n	2c <core::slice::from_raw_parts+0x2c>
  2c:	9803      	ldr	r0, [sp, #12]
  2e:	9902      	ldr	r1, [sp, #8]
  30:	fbb0 f2f1 	udiv	r2, r0, r1
  34:	fb02 0211 	mls	r2, r2, r1, r0
/rustc/50a0defd5a93523067ef239936cc2e0755220904/src/libcore/macros.rs:184
  38:	2a00      	cmp	r2, #0
  3a:	d007      	beq.n	4c <core::slice::from_raw_parts+0x4c>
  3c:	e7ff      	b.n	3e <core::slice::from_raw_parts+0x3e>
/rustc/50a0defd5a93523067ef239936cc2e0755220904/src/libcore/macros.rs:12
  3e:	f240 0000 	movw	r0, #0
  42:	f2c0 0000 	movt	r0, #0
  46:	f7ff fffe 	bl	0 <core::panicking::panic>
  4a:	defe      	udf	#254	; 0xfe
/rustc/50a0defd5a93523067ef239936cc2e0755220904/src/libcore/macros.rs:184
  4c:	e7ff      	b.n	4e <core::slice::from_raw_parts+0x4e>
  4e:	2001      	movs	r0, #1
  50:	2800      	cmp	r0, #0
  52:	d117      	bne.n	84 <core::slice::from_raw_parts+0x84>
  54:	e7ff      	b.n	56 <core::slice::from_raw_parts+0x56>
/rustc/50a0defd5a93523067ef239936cc2e0755220904/src/libcore/slice/mod.rs:5114
  56:	f7ff fffe 	bl	0 <core::mem::size_of>
  5a:	9001      	str	r0, [sp, #4]
  5c:	e7ff      	b.n	5e <core::slice::from_raw_parts+0x5e>
  5e:	9907      	ldr	r1, [sp, #28]
  60:	9801      	ldr	r0, [sp, #4]
  62:	f7ff fffe 	bl	0 <core::num::<impl usize>::saturating_mul>
  66:	9000      	str	r0, [sp, #0]
  68:	e7ff      	b.n	6a <core::slice::from_raw_parts+0x6a>
/rustc/50a0defd5a93523067ef239936cc2e0755220904/src/libcore/macros.rs:184
  6a:	9800      	ldr	r0, [sp, #0]
  6c:	f1b0 3fff 	cmp.w	r0, #4294967295	; 0xffffffff
  70:	dc07      	bgt.n	82 <core::slice::from_raw_parts+0x82>
  72:	e7ff      	b.n	74 <core::slice::from_raw_parts+0x74>
/rustc/50a0defd5a93523067ef239936cc2e0755220904/src/libcore/macros.rs:12
  74:	f240 0000 	movw	r0, #0
  78:	f2c0 0000 	movt	r0, #0
  7c:	f7ff fffe 	bl	0 <core::panicking::panic>
  80:	defe      	udf	#254	; 0xfe
/rustc/50a0defd5a93523067ef239936cc2e0755220904/src/libcore/macros.rs:184
  82:	e7ff      	b.n	84 <core::slice::from_raw_parts+0x84>
/rustc/50a0defd5a93523067ef239936cc2e0755220904/src/libcore/slice/mod.rs:5116
  84:	9806      	ldr	r0, [sp, #24]
  86:	9907      	ldr	r1, [sp, #28]
  88:	900a      	str	r0, [sp, #40]	; 0x28
  8a:	910b      	str	r1, [sp, #44]	; 0x2c
  8c:	980a      	ldr	r0, [sp, #40]	; 0x28
  8e:	990b      	ldr	r1, [sp, #44]	; 0x2c
  90:	9008      	str	r0, [sp, #32]
  92:	9109      	str	r1, [sp, #36]	; 0x24
  94:	9808      	ldr	r0, [sp, #32]
  96:	9909      	ldr	r1, [sp, #36]	; 0x24
/rustc/50a0defd5a93523067ef239936cc2e0755220904/src/libcore/slice/mod.rs:5117
  98:	b00c      	add	sp, #48	; 0x30
  9a:	bd80      	pop	{r7, pc}
/rustc/50a0defd5a93523067ef239936cc2e0755220904/src/libcore/slice/mod.rs:5113
  9c:	f240 0000 	movw	r0, #0
  a0:	f2c0 0000 	movt	r0, #0
  a4:	f7ff fffe 	bl	0 <core::panicking::panic>
  a8:	defe      	udf	#254	; 0xfe

Disassembly of section .text._ZN4core5slice14from_raw_parts17he90d7feff102d51aE:

00000000 <core::slice::from_raw_parts>:
_ZN4core5slice14from_raw_parts17he90d7feff102d51aE():
/rustc/50a0defd5a93523067ef239936cc2e0755220904/src/libcore/slice/mod.rs:5112
   0:	b580      	push	{r7, lr}
   2:	b08c      	sub	sp, #48	; 0x30
   4:	460a      	mov	r2, r1
   6:	4603      	mov	r3, r0
   8:	9006      	str	r0, [sp, #24]
   a:	9107      	str	r1, [sp, #28]
   c:	2001      	movs	r0, #1
/rustc/50a0defd5a93523067ef239936cc2e0755220904/src/libcore/macros.rs:184
   e:	2800      	cmp	r0, #0
  10:	9205      	str	r2, [sp, #20]
  12:	9304      	str	r3, [sp, #16]
  14:	d11b      	bne.n	4e <core::slice::from_raw_parts+0x4e>
  16:	e7ff      	b.n	18 <core::slice::from_raw_parts+0x18>
/rustc/50a0defd5a93523067ef239936cc2e0755220904/src/libcore/slice/mod.rs:5113
  18:	9806      	ldr	r0, [sp, #24]
  1a:	9003      	str	r0, [sp, #12]
  1c:	f7ff fffe 	bl	0 <core::mem::align_of>
  20:	9002      	str	r0, [sp, #8]
  22:	e7ff      	b.n	24 <core::slice::from_raw_parts+0x24>
  24:	9802      	ldr	r0, [sp, #8]
  26:	2800      	cmp	r0, #0
  28:	d038      	beq.n	9c <core::slice::from_raw_parts+0x9c>
  2a:	e7ff      	b.n	2c <core::slice::from_raw_parts+0x2c>
  2c:	9803      	ldr	r0, [sp, #12]
  2e:	9902      	ldr	r1, [sp, #8]
  30:	fbb0 f2f1 	udiv	r2, r0, r1
  34:	fb02 0211 	mls	r2, r2, r1, r0
/rustc/50a0defd5a93523067ef239936cc2e0755220904/src/libcore/macros.rs:184
  38:	2a00      	cmp	r2, #0
  3a:	d007      	beq.n	4c <core::slice::from_raw_parts+0x4c>
  3c:	e7ff      	b.n	3e <core::slice::from_raw_parts+0x3e>
/rustc/50a0defd5a93523067ef239936cc2e0755220904/src/libcore/macros.rs:12
  3e:	f240 0000 	movw	r0, #0
  42:	f2c0 0000 	movt	r0, #0
  46:	f7ff fffe 	bl	0 <core::panicking::panic>
  4a:	defe      	udf	#254	; 0xfe
/rustc/50a0defd5a93523067ef239936cc2e0755220904/src/libcore/macros.rs:184
  4c:	e7ff      	b.n	4e <core::slice::from_raw_parts+0x4e>
  4e:	2001      	movs	r0, #1
  50:	2800      	cmp	r0, #0
  52:	d117      	bne.n	84 <core::slice::from_raw_parts+0x84>
  54:	e7ff      	b.n	56 <core::slice::from_raw_parts+0x56>
/rustc/50a0defd5a93523067ef239936cc2e0755220904/src/libcore/slice/mod.rs:5114
  56:	f7ff fffe 	bl	0 <core::mem::size_of>
  5a:	9001      	str	r0, [sp, #4]
  5c:	e7ff      	b.n	5e <core::slice::from_raw_parts+0x5e>
  5e:	9907      	ldr	r1, [sp, #28]
  60:	9801      	ldr	r0, [sp, #4]
  62:	f7ff fffe 	bl	0 <core::num::<impl usize>::saturating_mul>
  66:	9000      	str	r0, [sp, #0]
  68:	e7ff      	b.n	6a <core::slice::from_raw_parts+0x6a>
/rustc/50a0defd5a93523067ef239936cc2e0755220904/src/libcore/macros.rs:184
  6a:	9800      	ldr	r0, [sp, #0]
  6c:	f1b0 3fff 	cmp.w	r0, #4294967295	; 0xffffffff
  70:	dc07      	bgt.n	82 <core::slice::from_raw_parts+0x82>
  72:	e7ff      	b.n	74 <core::slice::from_raw_parts+0x74>
/rustc/50a0defd5a93523067ef239936cc2e0755220904/src/libcore/macros.rs:12
  74:	f240 0000 	movw	r0, #0
  78:	f2c0 0000 	movt	r0, #0
  7c:	f7ff fffe 	bl	0 <core::panicking::panic>
  80:	defe      	udf	#254	; 0xfe
/rustc/50a0defd5a93523067ef239936cc2e0755220904/src/libcore/macros.rs:184
  82:	e7ff      	b.n	84 <core::slice::from_raw_parts+0x84>
/rustc/50a0defd5a93523067ef239936cc2e0755220904/src/libcore/slice/mod.rs:5116
  84:	9806      	ldr	r0, [sp, #24]
  86:	9907      	ldr	r1, [sp, #28]
  88:	900a      	str	r0, [sp, #40]	; 0x28
  8a:	910b      	str	r1, [sp, #44]	; 0x2c
  8c:	980a      	ldr	r0, [sp, #40]	; 0x28
  8e:	990b      	ldr	r1, [sp, #44]	; 0x2c
  90:	9008      	str	r0, [sp, #32]
  92:	9109      	str	r1, [sp, #36]	; 0x24
  94:	9808      	ldr	r0, [sp, #32]
  96:	9909      	ldr	r1, [sp, #36]	; 0x24
/rustc/50a0defd5a93523067ef239936cc2e0755220904/src/libcore/slice/mod.rs:5117
  98:	b00c      	add	sp, #48	; 0x30
  9a:	bd80      	pop	{r7, pc}
/rustc/50a0defd5a93523067ef239936cc2e0755220904/src/libcore/slice/mod.rs:5113
  9c:	f240 0000 	movw	r0, #0
  a0:	f2c0 0000 	movt	r0, #0
  a4:	f7ff fffe 	bl	0 <core::panicking::panic>
  a8:	defe      	udf	#254	; 0xfe

Disassembly of section .text._ZN4core5slice18from_raw_parts_mut17h4b15a0488e6bfaa0E:

00000000 <core::slice::from_raw_parts_mut>:
_ZN4core5slice18from_raw_parts_mut17h4b15a0488e6bfaa0E():
/rustc/50a0defd5a93523067ef239936cc2e0755220904/src/libcore/slice/mod.rs:5133
   0:	b580      	push	{r7, lr}
   2:	b08c      	sub	sp, #48	; 0x30
   4:	460a      	mov	r2, r1
   6:	4603      	mov	r3, r0
   8:	9006      	str	r0, [sp, #24]
   a:	9107      	str	r1, [sp, #28]
   c:	2001      	movs	r0, #1
/rustc/50a0defd5a93523067ef239936cc2e0755220904/src/libcore/macros.rs:184
   e:	2800      	cmp	r0, #0
  10:	9205      	str	r2, [sp, #20]
  12:	9304      	str	r3, [sp, #16]
  14:	d11b      	bne.n	4e <core::slice::from_raw_parts_mut+0x4e>
  16:	e7ff      	b.n	18 <core::slice::from_raw_parts_mut+0x18>
/rustc/50a0defd5a93523067ef239936cc2e0755220904/src/libcore/slice/mod.rs:5134
  18:	9806      	ldr	r0, [sp, #24]
  1a:	9003      	str	r0, [sp, #12]
  1c:	f7ff fffe 	bl	0 <core::mem::align_of>
  20:	9002      	str	r0, [sp, #8]
  22:	e7ff      	b.n	24 <core::slice::from_raw_parts_mut+0x24>
  24:	9802      	ldr	r0, [sp, #8]
  26:	2800      	cmp	r0, #0
  28:	d038      	beq.n	9c <core::slice::from_raw_parts_mut+0x9c>
  2a:	e7ff      	b.n	2c <core::slice::from_raw_parts_mut+0x2c>
  2c:	9803      	ldr	r0, [sp, #12]
  2e:	9902      	ldr	r1, [sp, #8]
  30:	fbb0 f2f1 	udiv	r2, r0, r1
  34:	fb02 0211 	mls	r2, r2, r1, r0
/rustc/50a0defd5a93523067ef239936cc2e0755220904/src/libcore/macros.rs:184
  38:	2a00      	cmp	r2, #0
  3a:	d007      	beq.n	4c <core::slice::from_raw_parts_mut+0x4c>
  3c:	e7ff      	b.n	3e <core::slice::from_raw_parts_mut+0x3e>
/rustc/50a0defd5a93523067ef239936cc2e0755220904/src/libcore/macros.rs:12
  3e:	f240 0000 	movw	r0, #0
  42:	f2c0 0000 	movt	r0, #0
  46:	f7ff fffe 	bl	0 <core::panicking::panic>
  4a:	defe      	udf	#254	; 0xfe
/rustc/50a0defd5a93523067ef239936cc2e0755220904/src/libcore/macros.rs:184
  4c:	e7ff      	b.n	4e <core::slice::from_raw_parts_mut+0x4e>
  4e:	2001      	movs	r0, #1
  50:	2800      	cmp	r0, #0
  52:	d117      	bne.n	84 <core::slice::from_raw_parts_mut+0x84>
  54:	e7ff      	b.n	56 <core::slice::from_raw_parts_mut+0x56>
/rustc/50a0defd5a93523067ef239936cc2e0755220904/src/libcore/slice/mod.rs:5135
  56:	f7ff fffe 	bl	0 <core::mem::size_of>
  5a:	9001      	str	r0, [sp, #4]
  5c:	e7ff      	b.n	5e <core::slice::from_raw_parts_mut+0x5e>
  5e:	9907      	ldr	r1, [sp, #28]
  60:	9801      	ldr	r0, [sp, #4]
  62:	f7ff fffe 	bl	0 <core::num::<impl usize>::saturating_mul>
  66:	9000      	str	r0, [sp, #0]
  68:	e7ff      	b.n	6a <core::slice::from_raw_parts_mut+0x6a>
/rustc/50a0defd5a93523067ef239936cc2e0755220904/src/libcore/macros.rs:184
  6a:	9800      	ldr	r0, [sp, #0]
  6c:	f1b0 3fff 	cmp.w	r0, #4294967295	; 0xffffffff
  70:	dc07      	bgt.n	82 <core::slice::from_raw_parts_mut+0x82>
  72:	e7ff      	b.n	74 <core::slice::from_raw_parts_mut+0x74>
/rustc/50a0defd5a93523067ef239936cc2e0755220904/src/libcore/macros.rs:12
  74:	f240 0000 	movw	r0, #0
  78:	f2c0 0000 	movt	r0, #0
  7c:	f7ff fffe 	bl	0 <core::panicking::panic>
  80:	defe      	udf	#254	; 0xfe
/rustc/50a0defd5a93523067ef239936cc2e0755220904/src/libcore/macros.rs:184
  82:	e7ff      	b.n	84 <core::slice::from_raw_parts_mut+0x84>
/rustc/50a0defd5a93523067ef239936cc2e0755220904/src/libcore/slice/mod.rs:5137
  84:	9806      	ldr	r0, [sp, #24]
  86:	9907      	ldr	r1, [sp, #28]
  88:	900a      	str	r0, [sp, #40]	; 0x28
  8a:	910b      	str	r1, [sp, #44]	; 0x2c
  8c:	980a      	ldr	r0, [sp, #40]	; 0x28
  8e:	990b      	ldr	r1, [sp, #44]	; 0x2c
  90:	9008      	str	r0, [sp, #32]
  92:	9109      	str	r1, [sp, #36]	; 0x24
  94:	9808      	ldr	r0, [sp, #32]
  96:	9909      	ldr	r1, [sp, #36]	; 0x24
/rustc/50a0defd5a93523067ef239936cc2e0755220904/src/libcore/slice/mod.rs:5138
  98:	b00c      	add	sp, #48	; 0x30
  9a:	bd80      	pop	{r7, pc}
/rustc/50a0defd5a93523067ef239936cc2e0755220904/src/libcore/slice/mod.rs:5134
  9c:	f240 0000 	movw	r0, #0
  a0:	f2c0 0000 	movt	r0, #0
  a4:	f7ff fffe 	bl	0 <core::panicking::panic>
  a8:	defe      	udf	#254	; 0xfe

Disassembly of section .text._ZN85_$LT$core..slice..Iter$LT$T$GT$$u20$as$u20$core..iter..traits..iterator..Iterator$GT$4next17h626392e314248e3dE:

00000000 <<core::slice::Iter<T> as core::iter::traits::iterator::Iterator>::next>:
_ZN85_$LT$core..slice..Iter$LT$T$GT$$u20$as$u20$core..iter..traits..iterator..Iterator$GT$4next17h626392e314248e3dE():
/rustc/50a0defd5a93523067ef239936cc2e0755220904/src/libcore/slice/mod.rs:3079
   0:	b580      	push	{r7, lr}
   2:	b08c      	sub	sp, #48	; 0x30
   4:	4601      	mov	r1, r0
   6:	9006      	str	r0, [sp, #24]
/rustc/50a0defd5a93523067ef239936cc2e0755220904/src/libcore/slice/mod.rs:3082
   8:	9806      	ldr	r0, [sp, #24]
   a:	6800      	ldr	r0, [r0, #0]
   c:	9105      	str	r1, [sp, #20]
   e:	f7ff fffe 	bl	0 <core::ptr::<impl *const T>::is_null>
  12:	9004      	str	r0, [sp, #16]
  14:	e7ff      	b.n	16 <<core::slice::Iter<T> as core::iter::traits::iterator::Iterator>::next+0x16>
  16:	e7ff      	b.n	18 <<core::slice::Iter<T> as core::iter::traits::iterator::Iterator>::next+0x18>
/rustc/50a0defd5a93523067ef239936cc2e0755220904/src/libcore/slice/mod.rs:3083
  18:	f7ff fffe 	bl	0 <core::mem::size_of>
  1c:	9003      	str	r0, [sp, #12]
  1e:	e7ff      	b.n	20 <<core::slice::Iter<T> as core::iter::traits::iterator::Iterator>::next+0x20>
  20:	9803      	ldr	r0, [sp, #12]
  22:	2800      	cmp	r0, #0
  24:	d008      	beq.n	38 <<core::slice::Iter<T> as core::iter::traits::iterator::Iterator>::next+0x38>
  26:	e7ff      	b.n	28 <<core::slice::Iter<T> as core::iter::traits::iterator::Iterator>::next+0x28>
/rustc/50a0defd5a93523067ef239936cc2e0755220904/src/libcore/slice/mod.rs:3084
  28:	9806      	ldr	r0, [sp, #24]
  2a:	6840      	ldr	r0, [r0, #4]
  2c:	f7ff fffe 	bl	0 <core::ptr::<impl *const T>::is_null>
  30:	9002      	str	r0, [sp, #8]
  32:	e7ff      	b.n	34 <<core::slice::Iter<T> as core::iter::traits::iterator::Iterator>::next+0x34>
  34:	e7ff      	b.n	36 <<core::slice::Iter<T> as core::iter::traits::iterator::Iterator>::next+0x36>
/rustc/50a0defd5a93523067ef239936cc2e0755220904/src/libcore/slice/mod.rs:3083
  36:	e7ff      	b.n	38 <<core::slice::Iter<T> as core::iter::traits::iterator::Iterator>::next+0x38>
/rustc/50a0defd5a93523067ef239936cc2e0755220904/src/libcore/slice/mod.rs:2996
  38:	9806      	ldr	r0, [sp, #24]
  3a:	6801      	ldr	r1, [r0, #0]
  3c:	6840      	ldr	r0, [r0, #4]
/rustc/50a0defd5a93523067ef239936cc2e0755220904/src/libcore/slice/mod.rs:3086
  3e:	4281      	cmp	r1, r0
  40:	d103      	bne.n	4a <<core::slice::Iter<T> as core::iter::traits::iterator::Iterator>::next+0x4a>
  42:	e7ff      	b.n	44 <<core::slice::Iter<T> as core::iter::traits::iterator::Iterator>::next+0x44>
  44:	2000      	movs	r0, #0
/rustc/50a0defd5a93523067ef239936cc2e0755220904/src/libcore/slice/mod.rs:3087
  46:	9007      	str	r0, [sp, #28]
/rustc/50a0defd5a93523067ef239936cc2e0755220904/src/libcore/slice/mod.rs:3086
  48:	e027      	b.n	9a <<core::slice::Iter<T> as core::iter::traits::iterator::Iterator>::next+0x9a>
/rustc/50a0defd5a93523067ef239936cc2e0755220904/src/libcore/slice/mod.rs:3089
  4a:	9806      	ldr	r0, [sp, #24]
  4c:	9008      	str	r0, [sp, #32]
  4e:	2001      	movs	r0, #1
  50:	9009      	str	r0, [sp, #36]	; 0x24
_ZN4core5slice13Iter$LT$T$GT$14post_inc_start17hf289a45669b30c03E():
/rustc/50a0defd5a93523067ef239936cc2e0755220904/src/libcore/slice/mod.rs:3035
  52:	f7ff fffe 	bl	0 <core::mem::size_of>
  56:	2800      	cmp	r0, #0
  58:	d10c      	bne.n	74 <<core::slice::Iter<T> as core::iter::traits::iterator::Iterator>::next+0x74>
  5a:	e7ff      	b.n	5c <<core::slice::Iter<T> as core::iter::traits::iterator::Iterator>::next+0x5c>
/rustc/50a0defd5a93523067ef239936cc2e0755220904/src/libcore/slice/mod.rs:3037
  5c:	9808      	ldr	r0, [sp, #32]
  5e:	6840      	ldr	r0, [r0, #4]
  60:	9909      	ldr	r1, [sp, #36]	; 0x24
  62:	4249      	negs	r1, r1
  64:	f7ff fffe 	bl	0 <core::ptr::<impl *const T>::wrapping_offset>
  68:	9908      	ldr	r1, [sp, #32]
  6a:	6048      	str	r0, [r1, #4]
/rustc/50a0defd5a93523067ef239936cc2e0755220904/src/libcore/slice/mod.rs:3038
  6c:	9808      	ldr	r0, [sp, #32]
  6e:	6800      	ldr	r0, [r0, #0]
  70:	900a      	str	r0, [sp, #40]	; 0x28
/rustc/50a0defd5a93523067ef239936cc2e0755220904/src/libcore/slice/mod.rs:3035
  72:	e00c      	b.n	8e <<core::slice::Iter<T> as core::iter::traits::iterator::Iterator>::next+0x8e>
/rustc/50a0defd5a93523067ef239936cc2e0755220904/src/libcore/slice/mod.rs:3040
  74:	9808      	ldr	r0, [sp, #32]
  76:	6800      	ldr	r0, [r0, #0]
  78:	900b      	str	r0, [sp, #44]	; 0x2c
/rustc/50a0defd5a93523067ef239936cc2e0755220904/src/libcore/slice/mod.rs:3041
  7a:	9808      	ldr	r0, [sp, #32]
  7c:	6800      	ldr	r0, [r0, #0]
  7e:	9909      	ldr	r1, [sp, #36]	; 0x24
  80:	f7ff fffe 	bl	0 <core::ptr::<impl *const T>::offset>
  84:	9908      	ldr	r1, [sp, #32]
  86:	6008      	str	r0, [r1, #0]
/rustc/50a0defd5a93523067ef239936cc2e0755220904/src/libcore/slice/mod.rs:3042
  88:	980b      	ldr	r0, [sp, #44]	; 0x2c
  8a:	900a      	str	r0, [sp, #40]	; 0x28
/rustc/50a0defd5a93523067ef239936cc2e0755220904/src/libcore/slice/mod.rs:3035
  8c:	e7ff      	b.n	8e <<core::slice::Iter<T> as core::iter::traits::iterator::Iterator>::next+0x8e>
/rustc/50a0defd5a93523067ef239936cc2e0755220904/src/libcore/slice/mod.rs:3044
  8e:	980a      	ldr	r0, [sp, #40]	; 0x28
_ZN85_$LT$core..slice..Iter$LT$T$GT$$u20$as$u20$core..iter..traits..iterator..Iterator$GT$4next17h626392e314248e3dE():
/rustc/50a0defd5a93523067ef239936cc2e0755220904/src/libcore/slice/mod.rs:3089
  90:	9001      	str	r0, [sp, #4]
  92:	e7ff      	b.n	94 <<core::slice::Iter<T> as core::iter::traits::iterator::Iterator>::next+0x94>
  94:	9801      	ldr	r0, [sp, #4]
  96:	9007      	str	r0, [sp, #28]
/rustc/50a0defd5a93523067ef239936cc2e0755220904/src/libcore/slice/mod.rs:3086
  98:	e7ff      	b.n	9a <<core::slice::Iter<T> as core::iter::traits::iterator::Iterator>::next+0x9a>
/rustc/50a0defd5a93523067ef239936cc2e0755220904/src/libcore/slice/mod.rs:3092
  9a:	9807      	ldr	r0, [sp, #28]
  9c:	b00c      	add	sp, #48	; 0x30
  9e:	bd80      	pop	{r7, pc}

app-e8778d9de5b9c761.1qx9mgsfbtvmqtyb.rcgu.o:     file format elf32-littlearm

SYMBOL TABLE:
00000000 l    df *ABS*	00000000 1qx9mgsfbtvmqtyb
000002b9 l       .debug_str	00000000 
000003d6 l       .debug_str	00000000 
000003e1 l       .debug_str	00000000 
000003fe l       .debug_str	00000000 
00000417 l       .debug_str	00000000 
00000421 l       .debug_str	00000000 
00000453 l       .debug_str	00000000 
00000000 l       .debug_str	00000000 
00000041 l       .debug_str	00000000 
00000055 l       .debug_str	00000000 
00000085 l       .debug_str	00000000 
0000008a l       .debug_str	00000000 
0000008e l       .debug_str	00000000 
00000091 l       .debug_str	00000000 
00000094 l       .debug_str	00000000 
00000097 l       .debug_str	00000000 
0000009c l       .debug_str	00000000 
000000a2 l       .debug_str	00000000 
000000a9 l       .debug_str	00000000 
000000b1 l       .debug_str	00000000 
000000bb l       .debug_str	00000000 
000000c2 l       .debug_str	00000000 
000000c5 l       .debug_str	00000000 
000000c9 l       .debug_str	00000000 
000000d0 l       .debug_str	00000000 
000000d7 l       .debug_str	00000000 
000000e0 l       .debug_str	00000000 
000000ea l       .debug_str	00000000 
000000f1 l       .debug_str	00000000 
000000f7 l       .debug_str	00000000 
000000fc l       .debug_str	00000000 
00000108 l       .debug_str	00000000 
00000110 l       .debug_str	00000000 
00000117 l       .debug_str	00000000 
0000011b l       .debug_str	00000000 
00000120 l       .debug_str	00000000 
00000129 l       .debug_str	00000000 
0000012e l       .debug_str	00000000 
00000131 l       .debug_str	00000000 
00000135 l       .debug_str	00000000 
0000013e l       .debug_str	00000000 
00000145 l       .debug_str	00000000 
0000014a l       .debug_str	00000000 
0000014f l       .debug_str	00000000 
00000155 l       .debug_str	00000000 
0000015b l       .debug_str	00000000 
00000165 l       .debug_str	00000000 
00000168 l       .debug_str	00000000 
0000016e l       .debug_str	00000000 
00000178 l       .debug_str	00000000 
00000180 l       .debug_str	00000000 
00000186 l       .debug_str	00000000 
0000018c l       .debug_str	00000000 
00000197 l       .debug_str	00000000 
000001a0 l       .debug_str	00000000 
000001c3 l       .debug_str	00000000 
000001e2 l       .debug_str	00000000 
000001e4 l       .debug_str	00000000 
000001e9 l       .debug_str	00000000 
00000210 l       .debug_str	00000000 
00000215 l       .debug_str	00000000 
0000021b l       .debug_str	00000000 
00000221 l       .debug_str	00000000 
00000224 l       .debug_str	00000000 
00000233 l       .debug_str	00000000 
0000023a l       .debug_str	00000000 
0000023e l       .debug_str	00000000 
00000247 l       .debug_str	00000000 
0000024f l       .debug_str	00000000 
00000257 l       .debug_str	00000000 
0000025e l       .debug_str	00000000 
00000272 l       .debug_str	00000000 
0000027e l       .debug_str	00000000 
0000028a l       .debug_str	00000000 
000002a3 l       .debug_str	00000000 
000002a8 l       .debug_str	00000000 
000002c3 l       .debug_str	00000000 
000002d1 l       .debug_str	00000000 
000002d5 l       .debug_str	00000000 
000002e0 l       .debug_str	00000000 
000002e7 l       .debug_str	00000000 
000002ed l       .debug_str	00000000 
000002f1 l       .debug_str	00000000 
000002f5 l       .debug_str	00000000 
000002fd l       .debug_str	00000000 
00000314 l       .debug_str	00000000 
00000338 l       .debug_str	00000000 
00000354 l       .debug_str	00000000 
0000035e l       .debug_str	00000000 
00000378 l       .debug_str	00000000 
00000000 l    d  .text._ZN4core3fmt9Arguments6new_v117h3d91ecc0e3271c48E	00000000 .text._ZN4core3fmt9Arguments6new_v117h3d91ecc0e3271c48E
00000000 l    d  .debug_abbrev	00000000 .debug_abbrev
00000000 l    d  .debug_info	00000000 .debug_info
00000000 l    d  .debug_frame	00000000 .debug_frame
00000000 l    d  .debug_line	00000000 .debug_line
00000000 g     F .text._ZN4core3fmt9Arguments6new_v117h3d91ecc0e3271c48E	0000004c .hidden core::fmt::Arguments::new_v1



Disassembly of section .text._ZN4core3fmt9Arguments6new_v117h3d91ecc0e3271c48E:

00000000 <core::fmt::Arguments::new_v1>:
_ZN4core3fmt9Arguments6new_v117h3d91ecc0e3271c48E():
/rustc/50a0defd5a93523067ef239936cc2e0755220904/src/libcore/fmt/mod.rs:314
   0:	b570      	push	{r4, r5, r6, lr}
   2:	b08a      	sub	sp, #40	; 0x28
   4:	f8dd c038 	ldr.w	ip, [sp, #56]	; 0x38
   8:	469e      	mov	lr, r3
   a:	4614      	mov	r4, r2
   c:	460d      	mov	r5, r1
   e:	4606      	mov	r6, r0
  10:	9104      	str	r1, [sp, #16]
  12:	9205      	str	r2, [sp, #20]
  14:	9306      	str	r3, [sp, #24]
  16:	f8cd c01c 	str.w	ip, [sp, #28]
/rustc/50a0defd5a93523067ef239936cc2e0755220904/src/libcore/fmt/mod.rs:317
  1a:	9904      	ldr	r1, [sp, #16]
  1c:	9a05      	ldr	r2, [sp, #20]
  1e:	2300      	movs	r3, #0
/rustc/50a0defd5a93523067ef239936cc2e0755220904/src/libcore/fmt/mod.rs:318
  20:	9309      	str	r3, [sp, #36]	; 0x24
  22:	9308      	str	r3, [sp, #32]
  24:	9308      	str	r3, [sp, #32]
/rustc/50a0defd5a93523067ef239936cc2e0755220904/src/libcore/fmt/mod.rs:319
  26:	9b06      	ldr	r3, [sp, #24]
  28:	f8dd c01c 	ldr.w	ip, [sp, #28]
/rustc/50a0defd5a93523067ef239936cc2e0755220904/src/libcore/fmt/mod.rs:316
  2c:	6001      	str	r1, [r0, #0]
  2e:	6042      	str	r2, [r0, #4]
  30:	9908      	ldr	r1, [sp, #32]
  32:	9a09      	ldr	r2, [sp, #36]	; 0x24
  34:	6081      	str	r1, [r0, #8]
  36:	60c2      	str	r2, [r0, #12]
  38:	6103      	str	r3, [r0, #16]
  3a:	f8c0 c014 	str.w	ip, [r0, #20]
/rustc/50a0defd5a93523067ef239936cc2e0755220904/src/libcore/fmt/mod.rs:321
  3e:	f8cd e00c 	str.w	lr, [sp, #12]
  42:	9402      	str	r4, [sp, #8]
  44:	9501      	str	r5, [sp, #4]
  46:	9600      	str	r6, [sp, #0]
  48:	b00a      	add	sp, #40	; 0x28
  4a:	bd70      	pop	{r4, r5, r6, pc}

app-e8778d9de5b9c761.1xsbyyhihgpwwu3i.rcgu.o:     file format elf32-littlearm

SYMBOL TABLE:
00000000 l    df *ABS*	00000000 1xsbyyhihgpwwu3i
0000255a l       .debug_str	00000000 
00003207 l       .debug_str	00000000 
00003274 l       .debug_str	00000000 
000032e6 l       .debug_str	00000000 
00003390 l       .debug_str	00000000 
000033d3 l       .debug_str	00000000 
0000340e l       .debug_str	00000000 
000034a2 l       .debug_str	00000000 
000034dd l       .debug_str	00000000 
00003581 l       .debug_str	00000000 
000035bc l       .debug_str	00000000 
00003698 l       .debug_str	00000000 
000036d4 l       .debug_str	00000000 
00003769 l       .debug_str	00000000 
00003770 l       .debug_str	00000000 
00003773 l       .debug_str	00000000 
00003775 l       .debug_str	00000000 
00003779 l       .debug_str	00000000 
000037b1 l       .debug_str	00000000 
000037ed l       .debug_str	00000000 
000038ca l       .debug_str	00000000 
000038fc l       .debug_str	00000000 
00003938 l       .debug_str	00000000 
000039dd l       .debug_str	00000000 
00003a25 l       .debug_str	00000000 
00003aa6 l       .debug_str	00000000 
00003b50 l       .debug_str	00000000 
00003b55 l       .debug_str	00000000 
00003bff l       .debug_str	00000000 
00003c7d l       .debug_str	00000000 
00003d22 l       .debug_str	00000000 
00003d66 l       .debug_str	00000000 
00003e0b l       .debug_str	00000000 
00003ec4 l       .debug_str	00000000 
00003f79 l       .debug_str	00000000 
00004037 l       .debug_str	00000000 
000040e0 l       .debug_str	00000000 
000040e5 l       .debug_str	00000000 
00000000 l       .debug_str	00000000 
00000041 l       .debug_str	00000000 
00000055 l       .debug_str	00000000 
00000085 l       .debug_str	00000000 
0000008b l       .debug_str	00000000 
00000092 l       .debug_str	00000000 
00000097 l       .debug_str	00000000 
0000009a l       .debug_str	00000000 
000000a5 l       .debug_str	00000000 
000000ae l       .debug_str	00000000 
000000b3 l       .debug_str	00000000 
000000b8 l       .debug_str	00000000 
000000bf l       .debug_str	00000000 
000000c4 l       .debug_str	00000000 
000000c9 l       .debug_str	00000000 
000000d0 l       .debug_str	00000000 
000000d9 l       .debug_str	00000000 
000000dd l       .debug_str	00000000 
000000e6 l       .debug_str	00000000 
000000ea l       .debug_str	00000000 
000000ec l       .debug_str	00000000 
000000f3 l       .debug_str	00000000 
000000f7 l       .debug_str	00000000 
000000fe l       .debug_str	00000000 
00000101 l       .debug_str	00000000 
00000107 l       .debug_str	00000000 
00000115 l       .debug_str	00000000 
0000011a l       .debug_str	00000000 
00000122 l       .debug_str	00000000 
0000012a l       .debug_str	00000000 
00000133 l       .debug_str	00000000 
0000013d l       .debug_str	00000000 
00000144 l       .debug_str	00000000 
0000014a l       .debug_str	00000000 
0000014f l       .debug_str	00000000 
00000153 l       .debug_str	00000000 
00000160 l       .debug_str	00000000 
00000167 l       .debug_str	00000000 
00000169 l       .debug_str	00000000 
0000016b l       .debug_str	00000000 
00000187 l       .debug_str	00000000 
0000018f l       .debug_str	00000000 
00000196 l       .debug_str	00000000 
000001a6 l       .debug_str	00000000 
000001eb l       .debug_str	00000000 
00000258 l       .debug_str	00000000 
000002ee l       .debug_str	00000000 
000003ad l       .debug_str	00000000 
000003b5 l       .debug_str	00000000 
000003ba l       .debug_str	00000000 
000003c0 l       .debug_str	00000000 
000003c4 l       .debug_str	00000000 
000003c7 l       .debug_str	00000000 
000003f0 l       .debug_str	00000000 
00000426 l       .debug_str	00000000 
00000428 l       .debug_str	00000000 
00000455 l       .debug_str	00000000 
00000458 l       .debug_str	00000000 
000004a8 l       .debug_str	00000000 
00000505 l       .debug_str	00000000 
00000559 l       .debug_str	00000000 
000005d0 l       .debug_str	00000000 
00000654 l       .debug_str	00000000 
000006cf l       .debug_str	00000000 
0000076d l       .debug_str	00000000 
00000818 l       .debug_str	00000000 
000008ba l       .debug_str	00000000 
0000097f l       .debug_str	00000000 
00000a51 l       .debug_str	00000000 
00000b1a l       .debug_str	00000000 
00000c04 l       .debug_str	00000000 
00000d0b l       .debug_str	00000000 
00000e11 l       .debug_str	00000000 
00000e15 l       .debug_str	00000000 
00000e17 l       .debug_str	00000000 
00000f15 l       .debug_str	00000000 
00001016 l       .debug_str	00000000 
00001018 l       .debug_str	00000000 
000010f8 l       .debug_str	00000000 
000010fc l       .debug_str	00000000 
00001101 l       .debug_str	00000000 
00001105 l       .debug_str	00000000 
00001109 l       .debug_str	00000000 
0000111a l       .debug_str	00000000 
0000122a l       .debug_str	00000000 
00001239 l       .debug_str	00000000 
00001265 l       .debug_str	00000000 
000012aa l       .debug_str	00000000 
000012e3 l       .debug_str	00000000 
0000137a l       .debug_str	00000000 
00001418 l       .debug_str	00000000 
000014d3 l       .debug_str	00000000 
0000158d l       .debug_str	00000000 
0000163f l       .debug_str	00000000 
000016d4 l       .debug_str	00000000 
000016d8 l       .debug_str	00000000 
000016e5 l       .debug_str	00000000 
000016e8 l       .debug_str	00000000 
000016f2 l       .debug_str	00000000 
000016fb l       .debug_str	00000000 
00001701 l       .debug_str	00000000 
0000170d l       .debug_str	00000000 
00001713 l       .debug_str	00000000 
00001718 l       .debug_str	00000000 
0000171b l       .debug_str	00000000 
0000171f l       .debug_str	00000000 
00001722 l       .debug_str	00000000 
00001725 l       .debug_str	00000000 
00001728 l       .debug_str	00000000 
0000172d l       .debug_str	00000000 
00001739 l       .debug_str	00000000 
0000173e l       .debug_str	00000000 
00001745 l       .debug_str	00000000 
0000174f l       .debug_str	00000000 
0000175a l       .debug_str	00000000 
00001767 l       .debug_str	00000000 
00001775 l       .debug_str	00000000 
0000177f l       .debug_str	00000000 
0000178d l       .debug_str	00000000 
00001797 l       .debug_str	00000000 
000017a0 l       .debug_str	00000000 
000017ac l       .debug_str	00000000 
000017b2 l       .debug_str	00000000 
000017bc l       .debug_str	00000000 
000017cd l       .debug_str	00000000 
000017cf l       .debug_str	00000000 
000017de l       .debug_str	00000000 
000017e0 l       .debug_str	00000000 
00001819 l       .debug_str	00000000 
00001820 l       .debug_str	00000000 
00001827 l       .debug_str	00000000 
00001838 l       .debug_str	00000000 
00001877 l       .debug_str	00000000 
000018aa l       .debug_str	00000000 
00001935 l       .debug_str	00000000 
00001a0c l       .debug_str	00000000 
00001b2f l       .debug_str	00000000 
00001ba6 l       .debug_str	00000000 
00001c2a l       .debug_str	00000000 
00001ca5 l       .debug_str	00000000 
00001d43 l       .debug_str	00000000 
00001dee l       .debug_str	00000000 
00001e90 l       .debug_str	00000000 
00001f76 l       .debug_str	00000000 
00002079 l       .debug_str	00000000 
0000217b l       .debug_str	00000000 
00002275 l       .debug_str	00000000 
00002352 l       .debug_str	00000000 
0000235c l       .debug_str	00000000 
00002383 l       .debug_str	00000000 
00002388 l       .debug_str	00000000 
0000238c l       .debug_str	00000000 
00002392 l       .debug_str	00000000 
00002399 l       .debug_str	00000000 
0000239e l       .debug_str	00000000 
000023b8 l       .debug_str	00000000 
000023bf l       .debug_str	00000000 
000023c8 l       .debug_str	00000000 
000023d5 l       .debug_str	00000000 
00002405 l       .debug_str	00000000 
0000245a l       .debug_str	00000000 
000024a3 l       .debug_str	00000000 
00002608 l       .debug_str	00000000 
000026d3 l       .debug_str	00000000 
0000279d l       .debug_str	00000000 
0000285f l       .debug_str	00000000 
00002904 l       .debug_str	00000000 
00002942 l       .debug_str	00000000 
00002a07 l       .debug_str	00000000 
00002acb l       .debug_str	00000000 
00002ad0 l       .debug_str	00000000 
00002ba6 l       .debug_str	00000000 
00002c12 l       .debug_str	00000000 
00002cd6 l       .debug_str	00000000 
00002d94 l       .debug_str	00000000 
00002e6b l       .debug_str	00000000 
00002ed1 l       .debug_str	00000000 
00002f67 l       .debug_str	00000000 
00002fcf l       .debug_str	00000000 
00003074 l       .debug_str	00000000 
000030df l       .debug_str	00000000 
00003185 l       .debug_str	00000000 
000031c8 l       .debug_str	00000000 
00000000 l     O .rodata..Lanon.aadc9d776166f231854441d8dc57a79f.0	00000018 .Lanon.aadc9d776166f231854441d8dc57a79f.0
00000000 l     O .rodata.str.0	00000056 str.0
00000000 l     O .rodata.str.1	0000001c str.1
00000000 l    d  .text._ZN70_$LT$heapless..vec..Vec$LT$T$C$N$GT$$u20$as$u20$core..clone..Clone$GT$5clone17h808ee85314ccacd5E	00000000 .text._ZN70_$LT$heapless..vec..Vec$LT$T$C$N$GT$$u20$as$u20$core..clone..Clone$GT$5clone17h808ee85314ccacd5E
00000000 l    d  .text._ZN73_$LT$heapless..vec..Vec$LT$T$C$N$GT$$u20$as$u20$core..ops..drop..Drop$GT$4drop17hbca108e032cbfdbcE	00000000 .text._ZN73_$LT$heapless..vec..Vec$LT$T$C$N$GT$$u20$as$u20$core..ops..drop..Drop$GT$4drop17hbca108e032cbfdbcE
00000000 l    d  .text._ZN75_$LT$heapless..vec..Vec$LT$T$C$N$GT$$u20$as$u20$core..ops..deref..Deref$GT$5deref17h9204650c00afe19cE	00000000 .text._ZN75_$LT$heapless..vec..Vec$LT$T$C$N$GT$$u20$as$u20$core..ops..deref..Deref$GT$5deref17h9204650c00afe19cE
00000000 l    d  .text._ZN78_$LT$heapless..vec..IntoIter$LT$T$C$N$GT$$u20$as$u20$core..ops..drop..Drop$GT$4drop17h7d1689783e6c5d20E	00000000 .text._ZN78_$LT$heapless..vec..IntoIter$LT$T$C$N$GT$$u20$as$u20$core..ops..drop..Drop$GT$4drop17h7d1689783e6c5d20E
00000000 l    d  .text._ZN78_$LT$heapless..vec..Vec$LT$T$C$N$GT$$u20$as$u20$core..ops..deref..DerefMut$GT$9deref_mut17h7454097635d3ff64E	00000000 .text._ZN78_$LT$heapless..vec..Vec$LT$T$C$N$GT$$u20$as$u20$core..ops..deref..DerefMut$GT$9deref_mut17h7454097635d3ff64E
00000000 l    d  .text._ZN8heapless3vec16Vec$LT$T$C$N$GT$3new17h10f7495b52cfdf07E	00000000 .text._ZN8heapless3vec16Vec$LT$T$C$N$GT$3new17h10f7495b52cfdf07E
00000000 l    d  .text._ZN8heapless3vec16Vec$LT$T$C$N$GT$3new17h1eaccf031f7be0cfE	00000000 .text._ZN8heapless3vec16Vec$LT$T$C$N$GT$3new17h1eaccf031f7be0cfE
00000000 l    d  .text._ZN8heapless3vec16Vec$LT$T$C$N$GT$3new17ha020222b27dd855fE	00000000 .text._ZN8heapless3vec16Vec$LT$T$C$N$GT$3new17ha020222b27dd855fE
00000000 l    d  .text._ZN8heapless3vec16Vec$LT$T$C$N$GT$4push17h15d462174cf84c3cE	00000000 .text._ZN8heapless3vec16Vec$LT$T$C$N$GT$4push17h15d462174cf84c3cE
00000000 l    d  .text._ZN8heapless3vec16Vec$LT$T$C$N$GT$4push17h426eb59f85f85d19E	00000000 .text._ZN8heapless3vec16Vec$LT$T$C$N$GT$4push17h426eb59f85f85d19E
00000000 l    d  .text._ZN8heapless3vec16Vec$LT$T$C$N$GT$4push17h831a9a3e2a2a3227E	00000000 .text._ZN8heapless3vec16Vec$LT$T$C$N$GT$4push17h831a9a3e2a2a3227E
00000000 l    d  .text._ZN93_$LT$heapless..vec..Vec$LT$T$C$N$GT$$u20$as$u20$core..iter..traits..collect..IntoIterator$GT$9into_iter17h9f73b50d2d0d2966E	00000000 .text._ZN93_$LT$heapless..vec..Vec$LT$T$C$N$GT$$u20$as$u20$core..iter..traits..collect..IntoIterator$GT$9into_iter17h9f73b50d2d0d2966E
00000000 l    d  .text._ZN95_$LT$heapless..vec..IntoIter$LT$T$C$N$GT$$u20$as$u20$core..iter..traits..iterator..Iterator$GT$4next17h5a27bef6e37dfa95E	00000000 .text._ZN95_$LT$heapless..vec..IntoIter$LT$T$C$N$GT$$u20$as$u20$core..iter..traits..iterator..Iterator$GT$4next17h5a27bef6e37dfa95E
00000000 l    d  .rodata.str.0	00000000 .rodata.str.0
00000000 l    d  .rodata.str.1	00000000 .rodata.str.1
00000000 l    d  .debug_loc	00000000 .debug_loc
00000000 l    d  .debug_abbrev	00000000 .debug_abbrev
00000000 l    d  .debug_info	00000000 .debug_info
00000000 l    d  .debug_ranges	00000000 .debug_ranges
00000000 l    d  .debug_frame	00000000 .debug_frame
00000000 l    d  .debug_line	00000000 .debug_line
00000000         *UND*	00000000 core::ptr::<impl *const T>::add
00000000         *UND*	00000000 core::ptr::<impl *const T>::read
00000000         *UND*	00000000 core::slice::<impl [T]>::len
00000000         *UND*	00000000 core::slice::<impl core::ops::index::IndexMut<I> for [T]>::index_mut
00000000         *UND*	00000000 core::slice::<impl core::ops::index::IndexMut<I> for [T]>::index_mut
00000000         *UND*	00000000 core::panicking::panic
00000000 g     F .text._ZN70_$LT$heapless..vec..Vec$LT$T$C$N$GT$$u20$as$u20$core..clone..Clone$GT$5clone17h808ee85314ccacd5E	00000030 <heapless::vec::Vec<T,N> as core::clone::Clone>::clone
00000000 g     F .text._ZN73_$LT$heapless..vec..Vec$LT$T$C$N$GT$$u20$as$u20$core..ops..drop..Drop$GT$4drop17hbca108e032cbfdbcE	00000032 <heapless::vec::Vec<T,N> as core::ops::drop::Drop>::drop
00000000 g     F .text._ZN75_$LT$heapless..vec..Vec$LT$T$C$N$GT$$u20$as$u20$core..ops..deref..Deref$GT$5deref17h9204650c00afe19cE	0000001e <heapless::vec::Vec<T,N> as core::ops::deref::Deref>::deref
00000000 g     F .text._ZN78_$LT$heapless..vec..IntoIter$LT$T$C$N$GT$$u20$as$u20$core..ops..drop..Drop$GT$4drop17h7d1689783e6c5d20E	00000040 <heapless::vec::IntoIter<T,N> as core::ops::drop::Drop>::drop
00000000 g     F .text._ZN78_$LT$heapless..vec..Vec$LT$T$C$N$GT$$u20$as$u20$core..ops..deref..DerefMut$GT$9deref_mut17h7454097635d3ff64E	0000001e <heapless::vec::Vec<T,N> as core::ops::deref::DerefMut>::deref_mut
00000000 g     F .text._ZN8heapless3vec16Vec$LT$T$C$N$GT$3new17h10f7495b52cfdf07E	00000028 heapless::vec::Vec<T,N>::new
00000000 g     F .text._ZN8heapless3vec16Vec$LT$T$C$N$GT$3new17h1eaccf031f7be0cfE	0000001e heapless::vec::Vec<T,N>::new
00000000 g     F .text._ZN8heapless3vec16Vec$LT$T$C$N$GT$3new17ha020222b27dd855fE	00000024 heapless::vec::Vec<T,N>::new
00000000 g     F .text._ZN8heapless3vec16Vec$LT$T$C$N$GT$4push17h15d462174cf84c3cE	00000030 heapless::vec::Vec<T,N>::push
00000000 g     F .text._ZN8heapless3vec16Vec$LT$T$C$N$GT$4push17h426eb59f85f85d19E	00000044 heapless::vec::Vec<T,N>::push
00000000 g     F .text._ZN8heapless3vec16Vec$LT$T$C$N$GT$4push17h831a9a3e2a2a3227E	0000003c heapless::vec::Vec<T,N>::push
00000000         *UND*	00000000 heapless::vec::<impl heapless::i::Vec<A>>::new
00000000         *UND*	00000000 heapless::vec::<impl heapless::i::Vec<A>>::new
00000000         *UND*	00000000 heapless::vec::<impl heapless::i::Vec<A>>::new
00000000         *UND*	00000000 heapless::vec::<impl heapless::i::Vec<generic_array::GenericArray<T,N>>>::as_mut_slice
00000000         *UND*	00000000 heapless::vec::<impl heapless::i::Vec<generic_array::GenericArray<T,N>>>::push
00000000         *UND*	00000000 heapless::vec::<impl heapless::i::Vec<generic_array::GenericArray<T,N>>>::push
00000000         *UND*	00000000 heapless::vec::<impl heapless::i::Vec<generic_array::GenericArray<T,N>>>::push
00000000         *UND*	00000000 heapless::vec::<impl heapless::i::Vec<generic_array::GenericArray<T,N>>>::clone
00000000         *UND*	00000000 heapless::vec::<impl heapless::i::Vec<generic_array::GenericArray<T,N>>>::as_slice
00000000 g     F .text._ZN93_$LT$heapless..vec..Vec$LT$T$C$N$GT$$u20$as$u20$core..iter..traits..collect..IntoIterator$GT$9into_iter17h9f73b50d2d0d2966E	0000003a <heapless::vec::Vec<T,N> as core::iter::traits::collect::IntoIterator>::into_iter
00000000 g     F .text._ZN95_$LT$heapless..vec..IntoIter$LT$T$C$N$GT$$u20$as$u20$core..iter..traits..iterator..Iterator$GT$4next17h5a27bef6e37dfa95E	000000c8 <heapless::vec::IntoIter<T,N> as core::iter::traits::iterator::Iterator>::next
00000000         *UND*	00000000 __aeabi_memcpy8



Disassembly of section .text._ZN70_$LT$heapless..vec..Vec$LT$T$C$N$GT$$u20$as$u20$core..clone..Clone$GT$5clone17h808ee85314ccacd5E:

00000000 <<heapless::vec::Vec<T,N> as core::clone::Clone>::clone>:
_ZN70_$LT$heapless..vec..Vec$LT$T$C$N$GT$$u20$as$u20$core..clone..Clone$GT$5clone17h808ee85314ccacd5E():
/Users/Luppy/.cargo/registry/src/github.com-1ecc6299db9ec823/heapless-0.5.1/src/vec.rs:172
impl<T, N> Clone for Vec<T, N>
where
    N: ArrayLength<T>,
    T: Clone,
{
    fn clone(&self) -> Self {
   0:	b580      	push	{r7, lr}
   2:	b08a      	sub	sp, #40	; 0x28
   4:	460a      	mov	r2, r1
   6:	9102      	str	r1, [sp, #8]
/Users/Luppy/.cargo/registry/src/github.com-1ecc6299db9ec823/heapless-0.5.1/src/vec.rs:173
        Vec(self.0.clone())
   8:	9902      	ldr	r1, [sp, #8]
   a:	ab03      	add	r3, sp, #12
   c:	9001      	str	r0, [sp, #4]
   e:	4618      	mov	r0, r3
  10:	9200      	str	r2, [sp, #0]
  12:	f7ff fffe 	bl	0 <heapless::vec::<impl heapless::i::Vec<generic_array::GenericArray<T,N>>>::clone>
  16:	e7ff      	b.n	18 <<heapless::vec::Vec<T,N> as core::clone::Clone>::clone+0x18>
  18:	a803      	add	r0, sp, #12
  1a:	9901      	ldr	r1, [sp, #4]
  1c:	e8b0 100c 	ldmia.w	r0!, {r2, r3, ip}
  20:	e8a1 100c 	stmia.w	r1!, {r2, r3, ip}
  24:	e890 500c 	ldmia.w	r0, {r2, r3, ip, lr}
  28:	e881 500c 	stmia.w	r1, {r2, r3, ip, lr}
/Users/Luppy/.cargo/registry/src/github.com-1ecc6299db9ec823/heapless-0.5.1/src/vec.rs:174
    }
  2c:	b00a      	add	sp, #40	; 0x28
  2e:	bd80      	pop	{r7, pc}

Disassembly of section .text._ZN73_$LT$heapless..vec..Vec$LT$T$C$N$GT$$u20$as$u20$core..ops..drop..Drop$GT$4drop17hbca108e032cbfdbcE:

00000000 <<heapless::vec::Vec<T,N> as core::ops::drop::Drop>::drop>:
_ZN73_$LT$heapless..vec..Vec$LT$T$C$N$GT$$u20$as$u20$core..ops..drop..Drop$GT$4drop17hbca108e032cbfdbcE():
/Users/Luppy/.cargo/registry/src/github.com-1ecc6299db9ec823/heapless-0.5.1/src/vec.rs:372

impl<T, N> Drop for Vec<T, N>
where
    N: ArrayLength<T>,
{
    fn drop(&mut self) {
   0:	b580      	push	{r7, lr}
   2:	b08a      	sub	sp, #40	; 0x28
   4:	4601      	mov	r1, r0
   6:	9006      	str	r0, [sp, #24]
/Users/Luppy/.cargo/registry/src/github.com-1ecc6299db9ec823/heapless-0.5.1/src/vec.rs:373
        unsafe { ptr::drop_in_place(&mut self[..]) }
   8:	9806      	ldr	r0, [sp, #24]
   a:	9105      	str	r1, [sp, #20]
   c:	f7ff fffe 	bl	0 <<heapless::vec::Vec<T,N> as core::ops::drop::Drop>::drop>
  10:	9004      	str	r0, [sp, #16]
  12:	9103      	str	r1, [sp, #12]
  14:	e7ff      	b.n	16 <<heapless::vec::Vec<T,N> as core::ops::drop::Drop>::drop+0x16>
  16:	9804      	ldr	r0, [sp, #16]
  18:	9903      	ldr	r1, [sp, #12]
  1a:	f7ff fffe 	bl	0 <core::slice::<impl core::ops::index::IndexMut<I> for [T]>::index_mut>
  1e:	9002      	str	r0, [sp, #8]
  20:	9101      	str	r1, [sp, #4]
  22:	e7ff      	b.n	24 <<heapless::vec::Vec<T,N> as core::ops::drop::Drop>::drop+0x24>
  24:	9802      	ldr	r0, [sp, #8]
  26:	9008      	str	r0, [sp, #32]
  28:	9901      	ldr	r1, [sp, #4]
  2a:	9109      	str	r1, [sp, #36]	; 0x24
  2c:	e7ff      	b.n	2e <<heapless::vec::Vec<T,N> as core::ops::drop::Drop>::drop+0x2e>
/Users/Luppy/.cargo/registry/src/github.com-1ecc6299db9ec823/heapless-0.5.1/src/vec.rs:374
    }
  2e:	b00a      	add	sp, #40	; 0x28
  30:	bd80      	pop	{r7, pc}

Disassembly of section .text._ZN75_$LT$heapless..vec..Vec$LT$T$C$N$GT$$u20$as$u20$core..ops..deref..Deref$GT$5deref17h9204650c00afe19cE:

00000000 <<heapless::vec::Vec<T,N> as core::ops::deref::Deref>::deref>:
_ZN75_$LT$heapless..vec..Vec$LT$T$C$N$GT$$u20$as$u20$core..ops..deref..Deref$GT$5deref17h9204650c00afe19cE():
/Users/Luppy/.cargo/registry/src/github.com-1ecc6299db9ec823/heapless-0.5.1/src/vec.rs:591
where
    N: ArrayLength<T>,
{
    type Target = [T];

    fn deref(&self) -> &[T] {
   0:	b580      	push	{r7, lr}
   2:	b084      	sub	sp, #16
   4:	4601      	mov	r1, r0
   6:	9003      	str	r0, [sp, #12]
/Users/Luppy/.cargo/registry/src/github.com-1ecc6299db9ec823/heapless-0.5.1/src/vec.rs:592
        self.0.as_slice()
   8:	9803      	ldr	r0, [sp, #12]
   a:	9102      	str	r1, [sp, #8]
   c:	f7ff fffe 	bl	0 <heapless::vec::<impl heapless::i::Vec<generic_array::GenericArray<T,N>>>::as_slice>
  10:	9001      	str	r0, [sp, #4]
  12:	9100      	str	r1, [sp, #0]
  14:	e7ff      	b.n	16 <<heapless::vec::Vec<T,N> as core::ops::deref::Deref>::deref+0x16>
/Users/Luppy/.cargo/registry/src/github.com-1ecc6299db9ec823/heapless-0.5.1/src/vec.rs:593
    }
  16:	9801      	ldr	r0, [sp, #4]
  18:	9900      	ldr	r1, [sp, #0]
  1a:	b004      	add	sp, #16
  1c:	bd80      	pop	{r7, pc}

Disassembly of section .text._ZN78_$LT$heapless..vec..IntoIter$LT$T$C$N$GT$$u20$as$u20$core..ops..drop..Drop$GT$4drop17h7d1689783e6c5d20E:

00000000 <<heapless::vec::IntoIter<T,N> as core::ops::drop::Drop>::drop>:
_ZN78_$LT$heapless..vec..IntoIter$LT$T$C$N$GT$$u20$as$u20$core..ops..drop..Drop$GT$4drop17h7d1689783e6c5d20E():
/Users/Luppy/.cargo/registry/src/github.com-1ecc6299db9ec823/heapless-0.5.1/src/vec.rs:513
    fn drop(&mut self) {
   0:	b580      	push	{r7, lr}
   2:	b08a      	sub	sp, #40	; 0x28
   4:	4601      	mov	r1, r0
   6:	9006      	str	r0, [sp, #24]
/Users/Luppy/.cargo/registry/src/github.com-1ecc6299db9ec823/heapless-0.5.1/src/vec.rs:516
            ptr::drop_in_place(&mut self.vec[self.next..]);
   8:	9806      	ldr	r0, [sp, #24]
   a:	9105      	str	r1, [sp, #20]
   c:	f7ff fffe 	bl	0 <<heapless::vec::IntoIter<T,N> as core::ops::drop::Drop>::drop>
  10:	9004      	str	r0, [sp, #16]
  12:	9103      	str	r1, [sp, #12]
  14:	e7ff      	b.n	16 <<heapless::vec::IntoIter<T,N> as core::ops::drop::Drop>::drop+0x16>
  16:	9806      	ldr	r0, [sp, #24]
  18:	6c80      	ldr	r0, [r0, #72]	; 0x48
  1a:	9007      	str	r0, [sp, #28]
  1c:	9a07      	ldr	r2, [sp, #28]
  1e:	9804      	ldr	r0, [sp, #16]
  20:	9903      	ldr	r1, [sp, #12]
  22:	f7ff fffe 	bl	0 <core::slice::<impl core::ops::index::IndexMut<I> for [T]>::index_mut>
  26:	9002      	str	r0, [sp, #8]
  28:	9101      	str	r1, [sp, #4]
  2a:	e7ff      	b.n	2c <<heapless::vec::IntoIter<T,N> as core::ops::drop::Drop>::drop+0x2c>
  2c:	9802      	ldr	r0, [sp, #8]
  2e:	9008      	str	r0, [sp, #32]
  30:	9901      	ldr	r1, [sp, #4]
  32:	9109      	str	r1, [sp, #36]	; 0x24
  34:	e7ff      	b.n	36 <<heapless::vec::IntoIter<T,N> as core::ops::drop::Drop>::drop+0x36>
/Users/Luppy/.cargo/registry/src/github.com-1ecc6299db9ec823/heapless-0.5.1/src/vec.rs:518
            self.vec.0.len = 0;
  36:	9806      	ldr	r0, [sp, #24]
  38:	2100      	movs	r1, #0
  3a:	6401      	str	r1, [r0, #64]	; 0x40
/Users/Luppy/.cargo/registry/src/github.com-1ecc6299db9ec823/heapless-0.5.1/src/vec.rs:520
    }
  3c:	b00a      	add	sp, #40	; 0x28
  3e:	bd80      	pop	{r7, pc}

Disassembly of section .text._ZN78_$LT$heapless..vec..Vec$LT$T$C$N$GT$$u20$as$u20$core..ops..deref..DerefMut$GT$9deref_mut17h7454097635d3ff64E:

00000000 <<heapless::vec::Vec<T,N> as core::ops::deref::DerefMut>::deref_mut>:
_ZN78_$LT$heapless..vec..Vec$LT$T$C$N$GT$$u20$as$u20$core..ops..deref..DerefMut$GT$9deref_mut17h7454097635d3ff64E():
/Users/Luppy/.cargo/registry/src/github.com-1ecc6299db9ec823/heapless-0.5.1/src/vec.rs:600

impl<T, N> ops::DerefMut for Vec<T, N>
where
    N: ArrayLength<T>,
{
    fn deref_mut(&mut self) -> &mut [T] {
   0:	b580      	push	{r7, lr}
   2:	b084      	sub	sp, #16
   4:	4601      	mov	r1, r0
   6:	9003      	str	r0, [sp, #12]
/Users/Luppy/.cargo/registry/src/github.com-1ecc6299db9ec823/heapless-0.5.1/src/vec.rs:601
        self.0.as_mut_slice()
   8:	9803      	ldr	r0, [sp, #12]
   a:	9102      	str	r1, [sp, #8]
   c:	f7ff fffe 	bl	0 <heapless::vec::<impl heapless::i::Vec<generic_array::GenericArray<T,N>>>::as_mut_slice>
  10:	9001      	str	r0, [sp, #4]
  12:	9100      	str	r1, [sp, #0]
  14:	e7ff      	b.n	16 <<heapless::vec::Vec<T,N> as core::ops::deref::DerefMut>::deref_mut+0x16>
/Users/Luppy/.cargo/registry/src/github.com-1ecc6299db9ec823/heapless-0.5.1/src/vec.rs:602
    }
  16:	9801      	ldr	r0, [sp, #4]
  18:	9900      	ldr	r1, [sp, #0]
  1a:	b004      	add	sp, #16
  1c:	bd80      	pop	{r7, pc}

Disassembly of section .text._ZN8heapless3vec16Vec$LT$T$C$N$GT$3new17h10f7495b52cfdf07E:

00000000 <heapless::vec::Vec<T,N>::new>:
_ZN8heapless3vec16Vec$LT$T$C$N$GT$3new17h10f7495b52cfdf07E():
/Users/Luppy/.cargo/registry/src/github.com-1ecc6299db9ec823/heapless-0.5.1/src/vec.rs:196
    pub fn new() -> Self {
   0:	b580      	push	{r7, lr}
   2:	b088      	sub	sp, #32
   4:	a901      	add	r1, sp, #4
/Users/Luppy/.cargo/registry/src/github.com-1ecc6299db9ec823/heapless-0.5.1/src/vec.rs:197
        Vec(crate::i::Vec::new())
   6:	9000      	str	r0, [sp, #0]
   8:	4608      	mov	r0, r1
   a:	f7ff fffe 	bl	0 <heapless::vec::<impl heapless::i::Vec<A>>::new>
   e:	e7ff      	b.n	10 <heapless::vec::Vec<T,N>::new+0x10>
  10:	a801      	add	r0, sp, #4
  12:	9900      	ldr	r1, [sp, #0]
  14:	e8b0 100c 	ldmia.w	r0!, {r2, r3, ip}
  18:	e8a1 100c 	stmia.w	r1!, {r2, r3, ip}
  1c:	e890 500c 	ldmia.w	r0, {r2, r3, ip, lr}
  20:	e881 500c 	stmia.w	r1, {r2, r3, ip, lr}
/Users/Luppy/.cargo/registry/src/github.com-1ecc6299db9ec823/heapless-0.5.1/src/vec.rs:198
    }
  24:	b008      	add	sp, #32
  26:	bd80      	pop	{r7, pc}

Disassembly of section .text._ZN8heapless3vec16Vec$LT$T$C$N$GT$3new17h1eaccf031f7be0cfE:

00000000 <heapless::vec::Vec<T,N>::new>:
_ZN8heapless3vec16Vec$LT$T$C$N$GT$3new17h1eaccf031f7be0cfE():
/Users/Luppy/.cargo/registry/src/github.com-1ecc6299db9ec823/heapless-0.5.1/src/vec.rs:196
    pub fn new() -> Self {
   0:	b580      	push	{r7, lr}
   2:	b094      	sub	sp, #80	; 0x50
   4:	a902      	add	r1, sp, #8
/Users/Luppy/.cargo/registry/src/github.com-1ecc6299db9ec823/heapless-0.5.1/src/vec.rs:197
        Vec(crate::i::Vec::new())
   6:	9001      	str	r0, [sp, #4]
   8:	4608      	mov	r0, r1
   a:	f7ff fffe 	bl	0 <heapless::vec::<impl heapless::i::Vec<A>>::new>
   e:	e7ff      	b.n	10 <heapless::vec::Vec<T,N>::new+0x10>
  10:	a902      	add	r1, sp, #8
  12:	2248      	movs	r2, #72	; 0x48
  14:	9801      	ldr	r0, [sp, #4]
  16:	f7ff fffe 	bl	0 <__aeabi_memcpy8>
/Users/Luppy/.cargo/registry/src/github.com-1ecc6299db9ec823/heapless-0.5.1/src/vec.rs:198
    }
  1a:	b014      	add	sp, #80	; 0x50
  1c:	bd80      	pop	{r7, pc}

Disassembly of section .text._ZN8heapless3vec16Vec$LT$T$C$N$GT$3new17ha020222b27dd855fE:

00000000 <heapless::vec::Vec<T,N>::new>:
_ZN8heapless3vec16Vec$LT$T$C$N$GT$3new17ha020222b27dd855fE():
/Users/Luppy/.cargo/registry/src/github.com-1ecc6299db9ec823/heapless-0.5.1/src/vec.rs:196
    pub fn new() -> Self {
   0:	b580      	push	{r7, lr}
   2:	f5ad 7d04 	sub.w	sp, sp, #528	; 0x210
   6:	a902      	add	r1, sp, #8
/Users/Luppy/.cargo/registry/src/github.com-1ecc6299db9ec823/heapless-0.5.1/src/vec.rs:197
        Vec(crate::i::Vec::new())
   8:	9001      	str	r0, [sp, #4]
   a:	4608      	mov	r0, r1
   c:	f7ff fffe 	bl	0 <heapless::vec::<impl heapless::i::Vec<A>>::new>
  10:	e7ff      	b.n	12 <heapless::vec::Vec<T,N>::new+0x12>
  12:	a902      	add	r1, sp, #8
  14:	f44f 7202 	mov.w	r2, #520	; 0x208
  18:	9801      	ldr	r0, [sp, #4]
  1a:	f7ff fffe 	bl	0 <__aeabi_memcpy8>
/Users/Luppy/.cargo/registry/src/github.com-1ecc6299db9ec823/heapless-0.5.1/src/vec.rs:198
    }
  1e:	f50d 7d04 	add.w	sp, sp, #528	; 0x210
  22:	bd80      	pop	{r7, pc}

Disassembly of section .text._ZN8heapless3vec16Vec$LT$T$C$N$GT$4push17h15d462174cf84c3cE:

00000000 <heapless::vec::Vec<T,N>::push>:
_ZN8heapless3vec16Vec$LT$T$C$N$GT$4push17h15d462174cf84c3cE():
/Users/Luppy/.cargo/registry/src/github.com-1ecc6299db9ec823/heapless-0.5.1/src/vec.rs:246
    pub fn push(&mut self, item: T) -> Result<(), T> {
   0:	b5b0      	push	{r4, r5, r7, lr}
   2:	b088      	sub	sp, #32
   4:	4613      	mov	r3, r2
   6:	468c      	mov	ip, r1
   8:	4686      	mov	lr, r0
   a:	9104      	str	r1, [sp, #16]
/Users/Luppy/.cargo/registry/src/github.com-1ecc6299db9ec823/heapless-0.5.1/src/vec.rs:247
        self.0.push(item)
   c:	9904      	ldr	r1, [sp, #16]
   e:	6814      	ldr	r4, [r2, #0]
  10:	6855      	ldr	r5, [r2, #4]
  12:	6892      	ldr	r2, [r2, #8]
  14:	9207      	str	r2, [sp, #28]
  16:	9506      	str	r5, [sp, #24]
  18:	9405      	str	r4, [sp, #20]
  1a:	aa05      	add	r2, sp, #20
  1c:	9303      	str	r3, [sp, #12]
  1e:	f8cd c008 	str.w	ip, [sp, #8]
  22:	f8cd e004 	str.w	lr, [sp, #4]
  26:	f7ff fffe 	bl	0 <heapless::vec::<impl heapless::i::Vec<generic_array::GenericArray<T,N>>>::push>
  2a:	e7ff      	b.n	2c <heapless::vec::Vec<T,N>::push+0x2c>
/Users/Luppy/.cargo/registry/src/github.com-1ecc6299db9ec823/heapless-0.5.1/src/vec.rs:248
    }
  2c:	b008      	add	sp, #32
  2e:	bdb0      	pop	{r4, r5, r7, pc}

Disassembly of section .text._ZN8heapless3vec16Vec$LT$T$C$N$GT$4push17h426eb59f85f85d19E:

00000000 <heapless::vec::Vec<T,N>::push>:
_ZN8heapless3vec16Vec$LT$T$C$N$GT$4push17h426eb59f85f85d19E():
/Users/Luppy/.cargo/registry/src/github.com-1ecc6299db9ec823/heapless-0.5.1/src/vec.rs:246
    pub fn push(&mut self, item: T) -> Result<(), T> {
   0:	e92d 4ff0 	stmdb	sp!, {r4, r5, r6, r7, r8, r9, sl, fp, lr}
   4:	b095      	sub	sp, #84	; 0x54
   6:	4613      	mov	r3, r2
   8:	468c      	mov	ip, r1
   a:	4686      	mov	lr, r0
   c:	9103      	str	r1, [sp, #12]
/Users/Luppy/.cargo/registry/src/github.com-1ecc6299db9ec823/heapless-0.5.1/src/vec.rs:247
        self.0.push(item)
   e:	9903      	ldr	r1, [sp, #12]
  10:	ac04      	add	r4, sp, #16
  12:	4625      	mov	r5, r4
  14:	e8b2 07c0 	ldmia.w	r2!, {r6, r7, r8, r9, sl}
  18:	e8a5 07c0 	stmia.w	r5!, {r6, r7, r8, r9, sl}
  1c:	e8b2 07c0 	ldmia.w	r2!, {r6, r7, r8, r9, sl}
  20:	e8a5 07c0 	stmia.w	r5!, {r6, r7, r8, r9, sl}
  24:	e892 0fc0 	ldmia.w	r2, {r6, r7, r8, r9, sl, fp}
  28:	e885 0fc0 	stmia.w	r5, {r6, r7, r8, r9, sl, fp}
  2c:	4622      	mov	r2, r4
  2e:	9302      	str	r3, [sp, #8]
  30:	f8cd c004 	str.w	ip, [sp, #4]
  34:	f8cd e000 	str.w	lr, [sp]
  38:	f7ff fffe 	bl	0 <heapless::vec::<impl heapless::i::Vec<generic_array::GenericArray<T,N>>>::push>
  3c:	e7ff      	b.n	3e <heapless::vec::Vec<T,N>::push+0x3e>
/Users/Luppy/.cargo/registry/src/github.com-1ecc6299db9ec823/heapless-0.5.1/src/vec.rs:248
    }
  3e:	b015      	add	sp, #84	; 0x54
  40:	e8bd 8ff0 	ldmia.w	sp!, {r4, r5, r6, r7, r8, r9, sl, fp, pc}

Disassembly of section .text._ZN8heapless3vec16Vec$LT$T$C$N$GT$4push17h831a9a3e2a2a3227E:

00000000 <heapless::vec::Vec<T,N>::push>:
_ZN8heapless3vec16Vec$LT$T$C$N$GT$4push17h831a9a3e2a2a3227E():
/Users/Luppy/.cargo/registry/src/github.com-1ecc6299db9ec823/heapless-0.5.1/src/vec.rs:246
    pub fn push(&mut self, item: T) -> Result<(), T> {
   0:	e92d 43f0 	stmdb	sp!, {r4, r5, r6, r7, r8, r9, lr}
   4:	b08d      	sub	sp, #52	; 0x34
   6:	4613      	mov	r3, r2
   8:	468c      	mov	ip, r1
   a:	4686      	mov	lr, r0
   c:	9103      	str	r1, [sp, #12]
/Users/Luppy/.cargo/registry/src/github.com-1ecc6299db9ec823/heapless-0.5.1/src/vec.rs:247
        self.0.push(item)
   e:	9903      	ldr	r1, [sp, #12]
  10:	ac04      	add	r4, sp, #16
  12:	4625      	mov	r5, r4
  14:	e8b2 03c0 	ldmia.w	r2!, {r6, r7, r8, r9}
  18:	e8a5 03c0 	stmia.w	r5!, {r6, r7, r8, r9}
  1c:	e892 03c0 	ldmia.w	r2, {r6, r7, r8, r9}
  20:	e885 03c0 	stmia.w	r5, {r6, r7, r8, r9}
  24:	4622      	mov	r2, r4
  26:	9302      	str	r3, [sp, #8]
  28:	f8cd c004 	str.w	ip, [sp, #4]
  2c:	f8cd e000 	str.w	lr, [sp]
  30:	f7ff fffe 	bl	0 <heapless::vec::<impl heapless::i::Vec<generic_array::GenericArray<T,N>>>::push>
  34:	e7ff      	b.n	36 <heapless::vec::Vec<T,N>::push+0x36>
/Users/Luppy/.cargo/registry/src/github.com-1ecc6299db9ec823/heapless-0.5.1/src/vec.rs:248
    }
  36:	b00d      	add	sp, #52	; 0x34
  38:	e8bd 83f0 	ldmia.w	sp!, {r4, r5, r6, r7, r8, r9, pc}

Disassembly of section .text._ZN93_$LT$heapless..vec..Vec$LT$T$C$N$GT$$u20$as$u20$core..iter..traits..collect..IntoIterator$GT$9into_iter17h9f73b50d2d0d2966E:

00000000 <<heapless::vec::Vec<T,N> as core::iter::traits::collect::IntoIterator>::into_iter>:
_ZN93_$LT$heapless..vec..Vec$LT$T$C$N$GT$$u20$as$u20$core..iter..traits..collect..IntoIterator$GT$9into_iter17h9f73b50d2d0d2966E():
/Users/Luppy/.cargo/registry/src/github.com-1ecc6299db9ec823/heapless-0.5.1/src/vec.rs:530
    fn into_iter(self) -> Self::IntoIter {
   0:	b580      	push	{r7, lr}
   2:	b098      	sub	sp, #96	; 0x60
   4:	460a      	mov	r2, r1
   6:	4603      	mov	r3, r0
   8:	f10d 0c18 	add.w	ip, sp, #24
   c:	f04f 0e48 	mov.w	lr, #72	; 0x48
/Users/Luppy/.cargo/registry/src/github.com-1ecc6299db9ec823/heapless-0.5.1/src/vec.rs:531
        IntoIter { vec: self, next: 0 }
  10:	9005      	str	r0, [sp, #20]
  12:	4660      	mov	r0, ip
  14:	9204      	str	r2, [sp, #16]
  16:	4672      	mov	r2, lr
  18:	9303      	str	r3, [sp, #12]
  1a:	f8cd c008 	str.w	ip, [sp, #8]
  1e:	f8cd e004 	str.w	lr, [sp, #4]
  22:	f7ff fffe 	bl	0 <__aeabi_memcpy8>
  26:	9805      	ldr	r0, [sp, #20]
  28:	9902      	ldr	r1, [sp, #8]
  2a:	9a01      	ldr	r2, [sp, #4]
  2c:	f7ff fffe 	bl	0 <__aeabi_memcpy8>
  30:	2000      	movs	r0, #0
  32:	9905      	ldr	r1, [sp, #20]
  34:	6488      	str	r0, [r1, #72]	; 0x48
/Users/Luppy/.cargo/registry/src/github.com-1ecc6299db9ec823/heapless-0.5.1/src/vec.rs:532
    }
  36:	b018      	add	sp, #96	; 0x60
  38:	bd80      	pop	{r7, pc}

Disassembly of section .text._ZN95_$LT$heapless..vec..IntoIter$LT$T$C$N$GT$$u20$as$u20$core..iter..traits..iterator..Iterator$GT$4next17h5a27bef6e37dfa95E:

00000000 <<heapless::vec::IntoIter<T,N> as core::iter::traits::iterator::Iterator>::next>:
_ZN95_$LT$heapless..vec..IntoIter$LT$T$C$N$GT$$u20$as$u20$core..iter..traits..iterator..Iterator$GT$4next17h5a27bef6e37dfa95E():
/Users/Luppy/.cargo/registry/src/github.com-1ecc6299db9ec823/heapless-0.5.1/src/vec.rs:481
    fn next(&mut self) -> Option<Self::Item> {
   0:	b5b0      	push	{r4, r5, r7, lr}
   2:	b09c      	sub	sp, #112	; 0x70
   4:	460a      	mov	r2, r1
   6:	9109      	str	r1, [sp, #36]	; 0x24
/Users/Luppy/.cargo/registry/src/github.com-1ecc6299db9ec823/heapless-0.5.1/src/vec.rs:482
        if self.next < self.vec.len() {
   8:	9909      	ldr	r1, [sp, #36]	; 0x24
   a:	6c8b      	ldr	r3, [r1, #72]	; 0x48
   c:	9008      	str	r0, [sp, #32]
   e:	4608      	mov	r0, r1
  10:	9207      	str	r2, [sp, #28]
  12:	9306      	str	r3, [sp, #24]
  14:	f7ff fffe 	bl	0 <<heapless::vec::IntoIter<T,N> as core::iter::traits::iterator::Iterator>::next>
  18:	9005      	str	r0, [sp, #20]
  1a:	9104      	str	r1, [sp, #16]
  1c:	e7ff      	b.n	1e <<heapless::vec::IntoIter<T,N> as core::iter::traits::iterator::Iterator>::next+0x1e>
  1e:	9805      	ldr	r0, [sp, #20]
  20:	9904      	ldr	r1, [sp, #16]
  22:	f7ff fffe 	bl	0 <core::slice::<impl [T]>::len>
  26:	9003      	str	r0, [sp, #12]
  28:	e7ff      	b.n	2a <<heapless::vec::IntoIter<T,N> as core::iter::traits::iterator::Iterator>::next+0x2a>
  2a:	9806      	ldr	r0, [sp, #24]
  2c:	9903      	ldr	r1, [sp, #12]
  2e:	4288      	cmp	r0, r1
  30:	d233      	bcs.n	9a <<heapless::vec::IntoIter<T,N> as core::iter::traits::iterator::Iterator>::next+0x9a>
  32:	e7ff      	b.n	34 <<heapless::vec::IntoIter<T,N> as core::iter::traits::iterator::Iterator>::next+0x34>
/Users/Luppy/.cargo/registry/src/github.com-1ecc6299db9ec823/heapless-0.5.1/src/vec.rs:484
                (self.vec.0.buffer.as_ptr() as *const T)
  34:	9809      	ldr	r0, [sp, #36]	; 0x24
  36:	901a      	str	r0, [sp, #104]	; 0x68
_ZN4core3mem20MaybeUninit$LT$T$GT$6as_ptr17ha13870f20e0b0216E():
/rustc/50a0defd5a93523067ef239936cc2e0755220904/src/libcore/mem.rs:1215
  38:	981a      	ldr	r0, [sp, #104]	; 0x68
  3a:	901b      	str	r0, [sp, #108]	; 0x6c
_ZN76_$LT$core..mem..ManuallyDrop$LT$T$GT$$u20$as$u20$core..ops..deref..Deref$GT$5deref17h27b4eda8946ef862E():
/rustc/50a0defd5a93523067ef239936cc2e0755220904/src/libcore/mem.rs:879
  3c:	981b      	ldr	r0, [sp, #108]	; 0x6c
_ZN95_$LT$heapless..vec..IntoIter$LT$T$C$N$GT$$u20$as$u20$core..iter..traits..iterator..Iterator$GT$4next17h5a27bef6e37dfa95E():
/Users/Luppy/.cargo/registry/src/github.com-1ecc6299db9ec823/heapless-0.5.1/src/vec.rs:484
  3e:	9002      	str	r0, [sp, #8]
  40:	e7ff      	b.n	42 <<heapless::vec::IntoIter<T,N> as core::iter::traits::iterator::Iterator>::next+0x42>
/Users/Luppy/.cargo/registry/src/github.com-1ecc6299db9ec823/heapless-0.5.1/src/vec.rs:485
                    .add(self.next)
  42:	9809      	ldr	r0, [sp, #36]	; 0x24
  44:	6c81      	ldr	r1, [r0, #72]	; 0x48
/Users/Luppy/.cargo/registry/src/github.com-1ecc6299db9ec823/heapless-0.5.1/src/vec.rs:484
                (self.vec.0.buffer.as_ptr() as *const T)
  46:	9802      	ldr	r0, [sp, #8]
  48:	f7ff fffe 	bl	0 <core::ptr::<impl *const T>::add>
  4c:	9001      	str	r0, [sp, #4]
  4e:	e7ff      	b.n	50 <<heapless::vec::IntoIter<T,N> as core::iter::traits::iterator::Iterator>::next+0x50>
  50:	a80a      	add	r0, sp, #40	; 0x28
  52:	9901      	ldr	r1, [sp, #4]
  54:	f7ff fffe 	bl	0 <core::ptr::<impl *const T>::read>
  58:	e7ff      	b.n	5a <<heapless::vec::IntoIter<T,N> as core::iter::traits::iterator::Iterator>::next+0x5a>
/Users/Luppy/.cargo/registry/src/github.com-1ecc6299db9ec823/heapless-0.5.1/src/vec.rs:488
            self.next += 1;
  5a:	9809      	ldr	r0, [sp, #36]	; 0x24
  5c:	6c80      	ldr	r0, [r0, #72]	; 0x48
  5e:	1c41      	adds	r1, r0, #1
  60:	460a      	mov	r2, r1
  62:	4281      	cmp	r1, r0
  64:	9200      	str	r2, [sp, #0]
  66:	d328      	bcc.n	ba <<heapless::vec::IntoIter<T,N> as core::iter::traits::iterator::Iterator>::next+0xba>
  68:	e7ff      	b.n	6a <<heapless::vec::IntoIter<T,N> as core::iter::traits::iterator::Iterator>::next+0x6a>
  6a:	9809      	ldr	r0, [sp, #36]	; 0x24
  6c:	9900      	ldr	r1, [sp, #0]
  6e:	6481      	str	r1, [r0, #72]	; 0x48
  70:	a80a      	add	r0, sp, #40	; 0x28
  72:	aa12      	add	r2, sp, #72	; 0x48
/Users/Luppy/.cargo/registry/src/github.com-1ecc6299db9ec823/heapless-0.5.1/src/vec.rs:489
            Some(item)
  74:	4613      	mov	r3, r2
  76:	e8b0 5030 	ldmia.w	r0!, {r4, r5, ip, lr}
  7a:	e8a3 5030 	stmia.w	r3!, {r4, r5, ip, lr}
  7e:	e890 5030 	ldmia.w	r0, {r4, r5, ip, lr}
  82:	e883 5030 	stmia.w	r3, {r4, r5, ip, lr}
  86:	9808      	ldr	r0, [sp, #32]
  88:	e8b2 5018 	ldmia.w	r2!, {r3, r4, ip, lr}
  8c:	e8a0 5018 	stmia.w	r0!, {r3, r4, ip, lr}
  90:	e892 5018 	ldmia.w	r2, {r3, r4, ip, lr}
  94:	e880 5018 	stmia.w	r0, {r3, r4, ip, lr}
/Users/Luppy/.cargo/registry/src/github.com-1ecc6299db9ec823/heapless-0.5.1/src/vec.rs:482
        if self.next < self.vec.len() {
  98:	e00d      	b.n	b6 <<heapless::vec::IntoIter<T,N> as core::iter::traits::iterator::Iterator>::next+0xb6>
  9a:	2000      	movs	r0, #0
/Users/Luppy/.cargo/registry/src/github.com-1ecc6299db9ec823/heapless-0.5.1/src/vec.rs:491
            None
  9c:	9908      	ldr	r1, [sp, #32]
  9e:	61c8      	str	r0, [r1, #28]
  a0:	6188      	str	r0, [r1, #24]
  a2:	6148      	str	r0, [r1, #20]
  a4:	6108      	str	r0, [r1, #16]
  a6:	60c8      	str	r0, [r1, #12]
  a8:	6088      	str	r0, [r1, #8]
  aa:	6048      	str	r0, [r1, #4]
  ac:	6008      	str	r0, [r1, #0]
  ae:	6048      	str	r0, [r1, #4]
  b0:	2002      	movs	r0, #2
  b2:	6008      	str	r0, [r1, #0]
/Users/Luppy/.cargo/registry/src/github.com-1ecc6299db9ec823/heapless-0.5.1/src/vec.rs:482
        if self.next < self.vec.len() {
  b4:	e7ff      	b.n	b6 <<heapless::vec::IntoIter<T,N> as core::iter::traits::iterator::Iterator>::next+0xb6>
/Users/Luppy/.cargo/registry/src/github.com-1ecc6299db9ec823/heapless-0.5.1/src/vec.rs:493
    }
  b6:	b01c      	add	sp, #112	; 0x70
  b8:	bdb0      	pop	{r4, r5, r7, pc}
/Users/Luppy/.cargo/registry/src/github.com-1ecc6299db9ec823/heapless-0.5.1/src/vec.rs:488
            self.next += 1;
  ba:	f240 0000 	movw	r0, #0
  be:	f2c0 0000 	movt	r0, #0
  c2:	f7ff fffe 	bl	0 <core::panicking::panic>
  c6:	defe      	udf	#254	; 0xfe

app-e8778d9de5b9c761.1y4eot5dkfxexgli.rcgu.o:     file format elf32-littlearm

SYMBOL TABLE:
00000000 l    df *ABS*	00000000 1y4eot5dkfxexgli
00001280 l       .debug_str	00000000 
00001357 l       .debug_str	00000000 
00001362 l       .debug_str	00000000 
0000136f l       .debug_str	00000000 
0000137d l       .debug_str	00000000 
00001387 l       .debug_str	00000000 
00001395 l       .debug_str	00000000 
0000139f l       .debug_str	00000000 
000013b5 l       .debug_str	00000000 
000013c0 l       .debug_str	00000000 
000013cb l       .debug_str	00000000 
000013d3 l       .debug_str	00000000 
000013d5 l       .debug_str	00000000 
000013e3 l       .debug_str	00000000 
000013fd l       .debug_str	00000000 
00000000 l       .debug_str	00000000 
00000041 l       .debug_str	00000000 
00000055 l       .debug_str	00000000 
00000085 l       .debug_str	00000000 
00000089 l       .debug_str	00000000 
0000008f l       .debug_str	00000000 
0000009a l       .debug_str	00000000 
000000e6 l       .debug_str	00000000 
000000f2 l       .debug_str	00000000 
000000fb l       .debug_str	00000000 
00000102 l       .debug_str	00000000 
00000106 l       .debug_str	00000000 
00000108 l       .debug_str	00000000 
0000010c l       .debug_str	00000000 
00000113 l       .debug_str	00000000 
00000118 l       .debug_str	00000000 
0000011c l       .debug_str	00000000 
00000123 l       .debug_str	00000000 
00000126 l       .debug_str	00000000 
0000012c l       .debug_str	00000000 
0000013a l       .debug_str	00000000 
0000013f l       .debug_str	00000000 
00000147 l       .debug_str	00000000 
0000014f l       .debug_str	00000000 
00000152 l       .debug_str	00000000 
00000154 l       .debug_str	00000000 
00000156 l       .debug_str	00000000 
00000172 l       .debug_str	00000000 
0000017a l       .debug_str	00000000 
00000181 l       .debug_str	00000000 
00000191 l       .debug_str	00000000 
000001d6 l       .debug_str	00000000 
00000243 l       .debug_str	00000000 
000002d9 l       .debug_str	00000000 
00000398 l       .debug_str	00000000 
000003a0 l       .debug_str	00000000 
000003a5 l       .debug_str	00000000 
000003ab l       .debug_str	00000000 
000003af l       .debug_str	00000000 
000003b3 l       .debug_str	00000000 
000003b6 l       .debug_str	00000000 
000003df l       .debug_str	00000000 
00000415 l       .debug_str	00000000 
00000417 l       .debug_str	00000000 
00000444 l       .debug_str	00000000 
00000447 l       .debug_str	00000000 
00000497 l       .debug_str	00000000 
000004f4 l       .debug_str	00000000 
00000548 l       .debug_str	00000000 
000005bf l       .debug_str	00000000 
00000643 l       .debug_str	00000000 
000006be l       .debug_str	00000000 
0000075c l       .debug_str	00000000 
00000807 l       .debug_str	00000000 
000008a9 l       .debug_str	00000000 
0000096e l       .debug_str	00000000 
00000a40 l       .debug_str	00000000 
00000b09 l       .debug_str	00000000 
00000bf3 l       .debug_str	00000000 
00000cfa l       .debug_str	00000000 
00000e00 l       .debug_str	00000000 
00000e04 l       .debug_str	00000000 
00000e0a l       .debug_str	00000000 
00000e0c l       .debug_str	00000000 
00000f0a l       .debug_str	00000000 
0000100b l       .debug_str	00000000 
0000100d l       .debug_str	00000000 
000010ed l       .debug_str	00000000 
00001139 l       .debug_str	00000000 
00001141 l       .debug_str	00000000 
0000114a l       .debug_str	00000000 
0000114e l       .debug_str	00000000 
00001153 l       .debug_str	00000000 
00001158 l       .debug_str	00000000 
0000115e l       .debug_str	00000000 
00001162 l       .debug_str	00000000 
00001166 l       .debug_str	00000000 
00001177 l       .debug_str	00000000 
0000117c l       .debug_str	00000000 
00001184 l       .debug_str	00000000 
00001190 l       .debug_str	00000000 
00001197 l       .debug_str	00000000 
0000119f l       .debug_str	00000000 
000011a7 l       .debug_str	00000000 
000011ae l       .debug_str	00000000 
000011c2 l       .debug_str	00000000 
000011ce l       .debug_str	00000000 
000011da l       .debug_str	00000000 
000011e4 l       .debug_str	00000000 
000011ed l       .debug_str	00000000 
000011f6 l       .debug_str	00000000 
000011ff l       .debug_str	00000000 
00001205 l       .debug_str	00000000 
0000120d l       .debug_str	00000000 
00001219 l       .debug_str	00000000 
00001221 l       .debug_str	00000000 
00001232 l       .debug_str	00000000 
00001244 l       .debug_str	00000000 
0000124d l       .debug_str	00000000 
000012b4 l       .debug_str	00000000 
000012fe l       .debug_str	00000000 
00001309 l       .debug_str	00000000 
00001315 l       .debug_str	00000000 
0000131b l       .debug_str	00000000 
00001320 l       .debug_str	00000000 
00001323 l       .debug_str	00000000 
00001327 l       .debug_str	00000000 
0000132a l       .debug_str	00000000 
0000132d l       .debug_str	00000000 
00001330 l       .debug_str	00000000 
00001335 l       .debug_str	00000000 
00001341 l       .debug_str	00000000 
00001346 l       .debug_str	00000000 
0000134d l       .debug_str	00000000 
00000000 l     O .rodata..Lanon.a6670d97a74ff33f3cf6b6ecad1f804f.0	00000018 .Lanon.a6670d97a74ff33f3cf6b6ecad1f804f.0
00000000 l     O .rodata.str.0	00000015 str.0
00000000 l     O .rodata.str.1	0000001c str.1
00000000 l    d  .text._ZN3app5hello10ui_builder28_$u7b$$u7b$closure$u7d$$u7d$17hfd5a7f95b1d2a4d8E	00000000 .text._ZN3app5hello10ui_builder28_$u7b$$u7b$closure$u7d$$u7d$17hfd5a7f95b1d2a4d8E
00000000 l    d  .text._ZN3app5hello10ui_builder28_$u7b$$u7b$closure$u7d$$u7d$17heb0eef17cde9ae75E	00000000 .text._ZN3app5hello10ui_builder28_$u7b$$u7b$closure$u7d$$u7d$17heb0eef17cde9ae75E
00000000 l    d  .rodata.str.0	00000000 .rodata.str.0
00000000 l    d  .rodata.str.1	00000000 .rodata.str.1
00000000 l    d  .debug_abbrev	00000000 .debug_abbrev
00000000 l    d  .debug_info	00000000 .debug_info
00000000 l    d  .debug_ranges	00000000 .debug_ranges
00000000 l    d  .debug_frame	00000000 .debug_frame
00000000 l    d  .debug_line	00000000 .debug_line
00000000 g     F .text._ZN3app5hello10ui_builder28_$u7b$$u7b$closure$u7d$$u7d$17heb0eef17cde9ae75E	00000048 .hidden app::hello::ui_builder::{{closure}}
00000000 g     F .text._ZN3app5hello10ui_builder28_$u7b$$u7b$closure$u7d$$u7d$17hfd5a7f95b1d2a4d8E	0000002c .hidden app::hello::ui_builder::{{closure}}
00000000         *UND*	00000000 core::panicking::panic
00000000         *UND*	00000000 <T as core::convert::Into<U>>::into



Disassembly of section .text._ZN3app5hello10ui_builder28_$u7b$$u7b$closure$u7d$$u7d$17hfd5a7f95b1d2a4d8E:

00000000 <app::hello::ui_builder::{{closure}}>:
_ZN3app5hello10ui_builder28_$u7b$$u7b$closure$u7d$$u7d$17hfd5a7f95b1d2a4d8E():
/Users/Luppy/mynewt/stm32bluepill-mynewt-sensor/rust/app/src/hello.rs:37
    //  Create a line of text based on a counter value
    let text =
        LocalizedString::new("hello-counter")
        .with_arg(
            "count", 
            |data: &u32, _env| (*data).into()
   0:	b5b0      	push	{r4, r5, r7, lr}
   2:	b088      	sub	sp, #32
   4:	469c      	mov	ip, r3
   6:	4696      	mov	lr, r2
   8:	460c      	mov	r4, r1
   a:	4605      	mov	r5, r0
   c:	9105      	str	r1, [sp, #20]
   e:	9206      	str	r2, [sp, #24]
  10:	9307      	str	r3, [sp, #28]
  12:	9906      	ldr	r1, [sp, #24]
  14:	6809      	ldr	r1, [r1, #0]
  16:	f8cd c010 	str.w	ip, [sp, #16]
  1a:	f8cd e00c 	str.w	lr, [sp, #12]
  1e:	9402      	str	r4, [sp, #8]
  20:	9501      	str	r5, [sp, #4]
  22:	f7ff fffe 	bl	0 <<T as core::convert::Into<U>>::into>
  26:	e7ff      	b.n	28 <app::hello::ui_builder::{{closure}}+0x28>
  28:	b008      	add	sp, #32
  2a:	bdb0      	pop	{r4, r5, r7, pc}

Disassembly of section .text._ZN3app5hello10ui_builder28_$u7b$$u7b$closure$u7d$$u7d$17heb0eef17cde9ae75E:

00000000 <app::hello::ui_builder::{{closure}}>:
_ZN3app5hello10ui_builder28_$u7b$$u7b$closure$u7d$$u7d$17heb0eef17cde9ae75E():
/Users/Luppy/mynewt/stm32bluepill-mynewt-sensor/rust/app/src/hello.rs:45
    let label = Label::new(text);
    //  Create a button widget to increment the counter
    let button = Button::<u32>::new( ////
    ////let button = Button::new(
        "increment", 
        |_ctx, data, _env| *data += 1
   0:	b5b0      	push	{r4, r5, r7, lr}
   2:	b08a      	sub	sp, #40	; 0x28
   4:	469c      	mov	ip, r3
   6:	4696      	mov	lr, r2
   8:	460c      	mov	r4, r1
   a:	4605      	mov	r5, r0
   c:	9006      	str	r0, [sp, #24]
   e:	9107      	str	r1, [sp, #28]
  10:	9208      	str	r2, [sp, #32]
  12:	9309      	str	r3, [sp, #36]	; 0x24
  14:	9808      	ldr	r0, [sp, #32]
  16:	6800      	ldr	r0, [r0, #0]
  18:	1c41      	adds	r1, r0, #1
  1a:	460a      	mov	r2, r1
  1c:	4281      	cmp	r1, r0
  1e:	f8cd c014 	str.w	ip, [sp, #20]
  22:	f8cd e010 	str.w	lr, [sp, #16]
  26:	9403      	str	r4, [sp, #12]
  28:	9502      	str	r5, [sp, #8]
  2a:	9201      	str	r2, [sp, #4]
  2c:	d305      	bcc.n	3a <app::hello::ui_builder::{{closure}}+0x3a>
  2e:	e7ff      	b.n	30 <app::hello::ui_builder::{{closure}}+0x30>
  30:	9808      	ldr	r0, [sp, #32]
  32:	9901      	ldr	r1, [sp, #4]
  34:	6001      	str	r1, [r0, #0]
  36:	b00a      	add	sp, #40	; 0x28
  38:	bdb0      	pop	{r4, r5, r7, pc}
  3a:	f240 0000 	movw	r0, #0
  3e:	f2c0 0000 	movt	r0, #0
  42:	f7ff fffe 	bl	0 <core::panicking::panic>
  46:	defe      	udf	#254	; 0xfe

app-e8778d9de5b9c761.2bq6r878mk18oupx.rcgu.o:     file format elf32-littlearm

SYMBOL TABLE:
00000000 l    df *ABS*	00000000 2bq6r878mk18oupx
00000108 l       .debug_str	00000000 
00000000 l       .debug_str	00000000 
00000041 l       .debug_str	00000000 
00000055 l       .debug_str	00000000 
00000085 l       .debug_str	00000000 
0000008a l       .debug_str	00000000 
00000090 l       .debug_str	00000000 
0000010d l       .debug_str	00000000 
00000096 l       .debug_str	00000000 
0000009f l       .debug_str	00000000 
00000104 l       .debug_str	00000000 
00000000 l    d  .text._ZN4core5clone5impls52_$LT$impl$u20$core..clone..Clone$u20$for$u20$u32$GT$5clone17h239656854586f71aE	00000000 .text._ZN4core5clone5impls52_$LT$impl$u20$core..clone..Clone$u20$for$u20$u32$GT$5clone17h239656854586f71aE
00000000 l    d  .debug_abbrev	00000000 .debug_abbrev
00000000 l    d  .debug_info	00000000 .debug_info
00000000 l    d  .debug_frame	00000000 .debug_frame
00000000 l    d  .debug_line	00000000 .debug_line
00000000 g     F .text._ZN4core5clone5impls52_$LT$impl$u20$core..clone..Clone$u20$for$u20$u32$GT$5clone17h239656854586f71aE	00000010 .hidden core::clone::impls::<impl core::clone::Clone for u32>::clone



Disassembly of section .text._ZN4core5clone5impls52_$LT$impl$u20$core..clone..Clone$u20$for$u20$u32$GT$5clone17h239656854586f71aE:

00000000 <core::clone::impls::<impl core::clone::Clone for u32>::clone>:
_ZN4core5clone5impls52_$LT$impl$u20$core..clone..Clone$u20$for$u20$u32$GT$5clone17h239656854586f71aE():
/rustc/50a0defd5a93523067ef239936cc2e0755220904/src/libcore/clone.rs:167
   0:	b082      	sub	sp, #8
   2:	4601      	mov	r1, r0
   4:	9001      	str	r0, [sp, #4]
/rustc/50a0defd5a93523067ef239936cc2e0755220904/src/libcore/clone.rs:168
   6:	9801      	ldr	r0, [sp, #4]
   8:	6800      	ldr	r0, [r0, #0]
/rustc/50a0defd5a93523067ef239936cc2e0755220904/src/libcore/clone.rs:169
   a:	9100      	str	r1, [sp, #0]
   c:	b002      	add	sp, #8
   e:	4770      	bx	lr

app-e8778d9de5b9c761.2cm0f6rj2peynhw.rcgu.o:     file format elf32-littlearm

SYMBOL TABLE:
00000000 l    df *ABS*	00000000 2cm0f6rj2peynhw
00001660 l       .debug_str	00000000 
000022f6 l       .debug_str	00000000 
00002326 l       .debug_str	00000000 
00002357 l       .debug_str	00000000 
00002398 l       .debug_str	00000000 
0000239a l       .debug_str	00000000 
000023c7 l       .debug_str	00000000 
000023c9 l       .debug_str	00000000 
00002443 l       .debug_str	00000000 
0000245e l       .debug_str	00000000 
000024c6 l       .debug_str	00000000 
000024ed l       .debug_str	00000000 
00002561 l       .debug_str	00000000 
0000259e l       .debug_str	00000000 
00000000 l       .debug_str	00000000 
00000041 l       .debug_str	00000000 
00000055 l       .debug_str	00000000 
00000085 l       .debug_str	00000000 
0000008a l       .debug_str	00000000 
00000091 l       .debug_str	00000000 
00000094 l       .debug_str	00000000 
00000097 l       .debug_str	00000000 
0000009b l       .debug_str	00000000 
000000a2 l       .debug_str	00000000 
000000a6 l       .debug_str	00000000 
000000a9 l       .debug_str	00000000 
000000ac l       .debug_str	00000000 
000000b1 l       .debug_str	00000000 
000000b7 l       .debug_str	00000000 
000000be l       .debug_str	00000000 
000000c6 l       .debug_str	00000000 
000000d0 l       .debug_str	00000000 
000000d7 l       .debug_str	00000000 
000000dc l       .debug_str	00000000 
000000e1 l       .debug_str	00000000 
000000e8 l       .debug_str	00000000 
000000ee l       .debug_str	00000000 
000000f5 l       .debug_str	00000000 
000000fa l       .debug_str	00000000 
00000105 l       .debug_str	00000000 
0000010e l       .debug_str	00000000 
00000113 l       .debug_str	00000000 
00000119 l       .debug_str	00000000 
0000011f l       .debug_str	00000000 
00000122 l       .debug_str	00000000 
00000131 l       .debug_str	00000000 
00000138 l       .debug_str	00000000 
0000013c l       .debug_str	00000000 
00000145 l       .debug_str	00000000 
0000014d l       .debug_str	00000000 
00000155 l       .debug_str	00000000 
0000015c l       .debug_str	00000000 
00000162 l       .debug_str	00000000 
00000176 l       .debug_str	00000000 
00000182 l       .debug_str	00000000 
0000018e l       .debug_str	00000000 
00000190 l       .debug_str	00000000 
000001a9 l       .debug_str	00000000 
000001ae l       .debug_str	00000000 
000001bf l       .debug_str	00000000 
000001c9 l       .debug_str	00000000 
000001cf l       .debug_str	00000000 
000001d3 l       .debug_str	00000000 
000001d8 l       .debug_str	00000000 
000001dd l       .debug_str	00000000 
000001e3 l       .debug_str	00000000 
000001e9 l       .debug_str	00000000 
000001ed l       .debug_str	00000000 
000001fb l       .debug_str	00000000 
00000205 l       .debug_str	00000000 
00000209 l       .debug_str	00000000 
00000214 l       .debug_str	00000000 
0000021b l       .debug_str	00000000 
00000221 l       .debug_str	00000000 
00000225 l       .debug_str	00000000 
00000242 l       .debug_str	00000000 
00000246 l       .debug_str	00000000 
0000024e l       .debug_str	00000000 
00000265 l       .debug_str	00000000 
00000289 l       .debug_str	00000000 
000002a5 l       .debug_str	00000000 
000002aa l       .debug_str	00000000 
000002b3 l       .debug_str	00000000 
000002ba l       .debug_str	00000000 
000002d3 l       .debug_str	00000000 
000002dd l       .debug_str	00000000 
000002f7 l       .debug_str	00000000 
00000355 l       .debug_str	00000000 
00000360 l       .debug_str	00000000 
0000036a l       .debug_str	00000000 
0000036f l       .debug_str	00000000 
00000373 l       .debug_str	00000000 
00000380 l       .debug_str	00000000 
00000389 l       .debug_str	00000000 
00000390 l       .debug_str	00000000 
00000392 l       .debug_str	00000000 
00000396 l       .debug_str	00000000 
0000039d l       .debug_str	00000000 
000003a1 l       .debug_str	00000000 
000003a8 l       .debug_str	00000000 
000003b6 l       .debug_str	00000000 
000003bb l       .debug_str	00000000 
000003c3 l       .debug_str	00000000 
000003cb l       .debug_str	00000000 
000003cd l       .debug_str	00000000 
000003e9 l       .debug_str	00000000 
000003f9 l       .debug_str	00000000 
0000043e l       .debug_str	00000000 
000004ab l       .debug_str	00000000 
00000541 l       .debug_str	00000000 
00000600 l       .debug_str	00000000 
00000608 l       .debug_str	00000000 
0000060d l       .debug_str	00000000 
00000613 l       .debug_str	00000000 
00000617 l       .debug_str	00000000 
0000061a l       .debug_str	00000000 
00000643 l       .debug_str	00000000 
00000679 l       .debug_str	00000000 
0000067b l       .debug_str	00000000 
000006a8 l       .debug_str	00000000 
000006ab l       .debug_str	00000000 
000006fb l       .debug_str	00000000 
00000758 l       .debug_str	00000000 
000007ac l       .debug_str	00000000 
00000823 l       .debug_str	00000000 
000008a7 l       .debug_str	00000000 
00000922 l       .debug_str	00000000 
000009c0 l       .debug_str	00000000 
00000a6b l       .debug_str	00000000 
00000b0d l       .debug_str	00000000 
00000bd2 l       .debug_str	00000000 
00000ca4 l       .debug_str	00000000 
00000d6d l       .debug_str	00000000 
00000e57 l       .debug_str	00000000 
00000f5e l       .debug_str	00000000 
00001064 l       .debug_str	00000000 
00001068 l       .debug_str	00000000 
0000106a l       .debug_str	00000000 
00001168 l       .debug_str	00000000 
00001269 l       .debug_str	00000000 
0000126b l       .debug_str	00000000 
0000134b l       .debug_str	00000000 
00001350 l       .debug_str	00000000 
00001354 l       .debug_str	00000000 
00001358 l       .debug_str	00000000 
00001369 l       .debug_str	00000000 
00001479 l       .debug_str	00000000 
00001488 l       .debug_str	00000000 
000014b4 l       .debug_str	00000000 
000014e5 l       .debug_str	00000000 
00001516 l       .debug_str	00000000 
00001522 l       .debug_str	00000000 
00001528 l       .debug_str	00000000 
0000152e l       .debug_str	00000000 
00001537 l       .debug_str	00000000 
00001540 l       .debug_str	00000000 
00001549 l       .debug_str	00000000 
0000154f l       .debug_str	00000000 
00001580 l       .debug_str	00000000 
0000159f l       .debug_str	00000000 
000015a5 l       .debug_str	00000000 
000015b1 l       .debug_str	00000000 
000015b7 l       .debug_str	00000000 
000015bc l       .debug_str	00000000 
000015bf l       .debug_str	00000000 
000015c3 l       .debug_str	00000000 
000015c6 l       .debug_str	00000000 
000015c9 l       .debug_str	00000000 
000015cc l       .debug_str	00000000 
000015d1 l       .debug_str	00000000 
000015dd l       .debug_str	00000000 
000015e2 l       .debug_str	00000000 
000015e9 l       .debug_str	00000000 
000015f3 l       .debug_str	00000000 
000015fe l       .debug_str	00000000 
0000160b l       .debug_str	00000000 
00001619 l       .debug_str	00000000 
00001623 l       .debug_str	00000000 
00001631 l       .debug_str	00000000 
0000163b l       .debug_str	00000000 
00001644 l       .debug_str	00000000 
00001650 l       .debug_str	00000000 
00001656 l       .debug_str	00000000 
00001671 l       .debug_str	00000000 
00001673 l       .debug_str	00000000 
00001682 l       .debug_str	00000000 
00001684 l       .debug_str	00000000 
000016bd l       .debug_str	00000000 
000016c4 l       .debug_str	00000000 
000016cb l       .debug_str	00000000 
000016dc l       .debug_str	00000000 
0000170d l       .debug_str	00000000 
00001738 l       .debug_str	00000000 
0000173c l       .debug_str	00000000 
00001749 l       .debug_str	00000000 
0000174c l       .debug_str	00000000 
00001756 l       .debug_str	00000000 
0000175f l       .debug_str	00000000 
0000179e l       .debug_str	00000000 
000017d1 l       .debug_str	00000000 
0000185c l       .debug_str	00000000 
00001933 l       .debug_str	00000000 
00001a56 l       .debug_str	00000000 
00001acd l       .debug_str	00000000 
00001b51 l       .debug_str	00000000 
00001bcc l       .debug_str	00000000 
00001c6a l       .debug_str	00000000 
00001d15 l       .debug_str	00000000 
00001db7 l       .debug_str	00000000 
00001e9d l       .debug_str	00000000 
00001fa0 l       .debug_str	00000000 
000020a2 l       .debug_str	00000000 
0000219c l       .debug_str	00000000 
00002279 l       .debug_str	00000000 
00002283 l       .debug_str	00000000 
000022aa l       .debug_str	00000000 
000022af l       .debug_str	00000000 
000022b3 l       .debug_str	00000000 
000022ba l       .debug_str	00000000 
000022bf l       .debug_str	00000000 
000022d9 l       .debug_str	00000000 
000022e0 l       .debug_str	00000000 
000022e9 l       .debug_str	00000000 
00000000 l    d  .text._ZN4core3fmt10ArgumentV13new17h1efc532d33cc2baaE	00000000 .text._ZN4core3fmt10ArgumentV13new17h1efc532d33cc2baaE
00000000 l    d  .text._ZN4core3fmt10ArgumentV13new17h523af96781eb121dE	00000000 .text._ZN4core3fmt10ArgumentV13new17h523af96781eb121dE
00000000 l    d  .text._ZN4core3fmt10ArgumentV13new17h7705c356347656ccE	00000000 .text._ZN4core3fmt10ArgumentV13new17h7705c356347656ccE
00000000 l    d  .text._ZN4core3fmt10ArgumentV13new17hd7f7ca0968a9f9e9E	00000000 .text._ZN4core3fmt10ArgumentV13new17hd7f7ca0968a9f9e9E
00000000 l    d  .debug_abbrev	00000000 .debug_abbrev
00000000 l    d  .debug_info	00000000 .debug_info
00000000 l    d  .debug_ranges	00000000 .debug_ranges
00000000 l    d  .debug_frame	00000000 .debug_frame
00000000 l    d  .debug_line	00000000 .debug_line
00000000 g     F .text._ZN4core3fmt10ArgumentV13new17h1efc532d33cc2baaE	00000032 core::fmt::ArgumentV1::new
00000000 g     F .text._ZN4core3fmt10ArgumentV13new17h523af96781eb121dE	00000032 core::fmt::ArgumentV1::new
00000000 g     F .text._ZN4core3fmt10ArgumentV13new17h7705c356347656ccE	00000032 core::fmt::ArgumentV1::new
00000000 g     F .text._ZN4core3fmt10ArgumentV13new17hd7f7ca0968a9f9e9E	00000032 core::fmt::ArgumentV1::new



Disassembly of section .text._ZN4core3fmt10ArgumentV13new17h1efc532d33cc2baaE:

00000000 <core::fmt::ArgumentV1::new>:
_ZN4core3fmt10ArgumentV13new17h1efc532d33cc2baaE():
/rustc/50a0defd5a93523067ef239936cc2e0755220904/src/libcore/fmt/mod.rs:278
   0:	b08a      	sub	sp, #40	; 0x28
   2:	460a      	mov	r2, r1
   4:	4603      	mov	r3, r0
   6:	9004      	str	r0, [sp, #16]
   8:	9105      	str	r1, [sp, #20]
/rustc/50a0defd5a93523067ef239936cc2e0755220904/src/libcore/fmt/mod.rs:282
   a:	9805      	ldr	r0, [sp, #20]
   c:	9008      	str	r0, [sp, #32]
   e:	9808      	ldr	r0, [sp, #32]
  10:	9203      	str	r2, [sp, #12]
  12:	9302      	str	r3, [sp, #8]
  14:	9001      	str	r0, [sp, #4]
  16:	e7ff      	b.n	18 <core::fmt::ArgumentV1::new+0x18>
/rustc/50a0defd5a93523067ef239936cc2e0755220904/src/libcore/fmt/mod.rs:283
  18:	9804      	ldr	r0, [sp, #16]
  1a:	9009      	str	r0, [sp, #36]	; 0x24
  1c:	9809      	ldr	r0, [sp, #36]	; 0x24
  1e:	9000      	str	r0, [sp, #0]
  20:	e7ff      	b.n	22 <core::fmt::ArgumentV1::new+0x22>
/rustc/50a0defd5a93523067ef239936cc2e0755220904/src/libcore/fmt/mod.rs:281
  22:	9800      	ldr	r0, [sp, #0]
  24:	9006      	str	r0, [sp, #24]
  26:	9901      	ldr	r1, [sp, #4]
  28:	9107      	str	r1, [sp, #28]
/rustc/50a0defd5a93523067ef239936cc2e0755220904/src/libcore/fmt/mod.rs:286
  2a:	9806      	ldr	r0, [sp, #24]
  2c:	9907      	ldr	r1, [sp, #28]
  2e:	b00a      	add	sp, #40	; 0x28
  30:	4770      	bx	lr

Disassembly of section .text._ZN4core3fmt10ArgumentV13new17h523af96781eb121dE:

00000000 <core::fmt::ArgumentV1::new>:
_ZN4core3fmt10ArgumentV13new17h523af96781eb121dE():
/rustc/50a0defd5a93523067ef239936cc2e0755220904/src/libcore/fmt/mod.rs:278
   0:	b08a      	sub	sp, #40	; 0x28
   2:	460a      	mov	r2, r1
   4:	4603      	mov	r3, r0
   6:	9004      	str	r0, [sp, #16]
   8:	9105      	str	r1, [sp, #20]
/rustc/50a0defd5a93523067ef239936cc2e0755220904/src/libcore/fmt/mod.rs:282
   a:	9805      	ldr	r0, [sp, #20]
   c:	9008      	str	r0, [sp, #32]
   e:	9808      	ldr	r0, [sp, #32]
  10:	9203      	str	r2, [sp, #12]
  12:	9302      	str	r3, [sp, #8]
  14:	9001      	str	r0, [sp, #4]
  16:	e7ff      	b.n	18 <core::fmt::ArgumentV1::new+0x18>
/rustc/50a0defd5a93523067ef239936cc2e0755220904/src/libcore/fmt/mod.rs:283
  18:	9804      	ldr	r0, [sp, #16]
  1a:	9009      	str	r0, [sp, #36]	; 0x24
  1c:	9809      	ldr	r0, [sp, #36]	; 0x24
  1e:	9000      	str	r0, [sp, #0]
  20:	e7ff      	b.n	22 <core::fmt::ArgumentV1::new+0x22>
/rustc/50a0defd5a93523067ef239936cc2e0755220904/src/libcore/fmt/mod.rs:281
  22:	9800      	ldr	r0, [sp, #0]
  24:	9006      	str	r0, [sp, #24]
  26:	9901      	ldr	r1, [sp, #4]
  28:	9107      	str	r1, [sp, #28]
/rustc/50a0defd5a93523067ef239936cc2e0755220904/src/libcore/fmt/mod.rs:286
  2a:	9806      	ldr	r0, [sp, #24]
  2c:	9907      	ldr	r1, [sp, #28]
  2e:	b00a      	add	sp, #40	; 0x28
  30:	4770      	bx	lr

Disassembly of section .text._ZN4core3fmt10ArgumentV13new17h7705c356347656ccE:

00000000 <core::fmt::ArgumentV1::new>:
_ZN4core3fmt10ArgumentV13new17h7705c356347656ccE():
/rustc/50a0defd5a93523067ef239936cc2e0755220904/src/libcore/fmt/mod.rs:278
   0:	b08a      	sub	sp, #40	; 0x28
   2:	460a      	mov	r2, r1
   4:	4603      	mov	r3, r0
   6:	9004      	str	r0, [sp, #16]
   8:	9105      	str	r1, [sp, #20]
/rustc/50a0defd5a93523067ef239936cc2e0755220904/src/libcore/fmt/mod.rs:282
   a:	9805      	ldr	r0, [sp, #20]
   c:	9008      	str	r0, [sp, #32]
   e:	9808      	ldr	r0, [sp, #32]
  10:	9203      	str	r2, [sp, #12]
  12:	9302      	str	r3, [sp, #8]
  14:	9001      	str	r0, [sp, #4]
  16:	e7ff      	b.n	18 <core::fmt::ArgumentV1::new+0x18>
/rustc/50a0defd5a93523067ef239936cc2e0755220904/src/libcore/fmt/mod.rs:283
  18:	9804      	ldr	r0, [sp, #16]
  1a:	9009      	str	r0, [sp, #36]	; 0x24
  1c:	9809      	ldr	r0, [sp, #36]	; 0x24
  1e:	9000      	str	r0, [sp, #0]
  20:	e7ff      	b.n	22 <core::fmt::ArgumentV1::new+0x22>
/rustc/50a0defd5a93523067ef239936cc2e0755220904/src/libcore/fmt/mod.rs:281
  22:	9800      	ldr	r0, [sp, #0]
  24:	9006      	str	r0, [sp, #24]
  26:	9901      	ldr	r1, [sp, #4]
  28:	9107      	str	r1, [sp, #28]
/rustc/50a0defd5a93523067ef239936cc2e0755220904/src/libcore/fmt/mod.rs:286
  2a:	9806      	ldr	r0, [sp, #24]
  2c:	9907      	ldr	r1, [sp, #28]
  2e:	b00a      	add	sp, #40	; 0x28
  30:	4770      	bx	lr

Disassembly of section .text._ZN4core3fmt10ArgumentV13new17hd7f7ca0968a9f9e9E:

00000000 <core::fmt::ArgumentV1::new>:
_ZN4core3fmt10ArgumentV13new17hd7f7ca0968a9f9e9E():
/rustc/50a0defd5a93523067ef239936cc2e0755220904/src/libcore/fmt/mod.rs:278
   0:	b08a      	sub	sp, #40	; 0x28
   2:	460a      	mov	r2, r1
   4:	4603      	mov	r3, r0
   6:	9004      	str	r0, [sp, #16]
   8:	9105      	str	r1, [sp, #20]
/rustc/50a0defd5a93523067ef239936cc2e0755220904/src/libcore/fmt/mod.rs:282
   a:	9805      	ldr	r0, [sp, #20]
   c:	9008      	str	r0, [sp, #32]
   e:	9808      	ldr	r0, [sp, #32]
  10:	9203      	str	r2, [sp, #12]
  12:	9302      	str	r3, [sp, #8]
  14:	9001      	str	r0, [sp, #4]
  16:	e7ff      	b.n	18 <core::fmt::ArgumentV1::new+0x18>
/rustc/50a0defd5a93523067ef239936cc2e0755220904/src/libcore/fmt/mod.rs:283
  18:	9804      	ldr	r0, [sp, #16]
  1a:	9009      	str	r0, [sp, #36]	; 0x24
  1c:	9809      	ldr	r0, [sp, #36]	; 0x24
  1e:	9000      	str	r0, [sp, #0]
  20:	e7ff      	b.n	22 <core::fmt::ArgumentV1::new+0x22>
/rustc/50a0defd5a93523067ef239936cc2e0755220904/src/libcore/fmt/mod.rs:281
  22:	9800      	ldr	r0, [sp, #0]
  24:	9006      	str	r0, [sp, #24]
  26:	9901      	ldr	r1, [sp, #4]
  28:	9107      	str	r1, [sp, #28]
/rustc/50a0defd5a93523067ef239936cc2e0755220904/src/libcore/fmt/mod.rs:286
  2a:	9806      	ldr	r0, [sp, #24]
  2c:	9907      	ldr	r1, [sp, #28]
  2e:	b00a      	add	sp, #40	; 0x28
  30:	4770      	bx	lr

app-e8778d9de5b9c761.2fa743v6kswx5trd.rcgu.o:     file format elf32-littlearm

SYMBOL TABLE:
00000000 l    df *ABS*	00000000 2fa743v6kswx5trd
00000197 l       .debug_str	00000000 
00000111 l       .debug_str	00000000 
00000118 l       .debug_str	00000000 
0000011e l       .debug_str	00000000 
00000127 l       .debug_str	00000000 
00000172 l       .debug_str	00000000 
0000017b l       .debug_str	00000000 
00000180 l       .debug_str	00000000 
00000184 l       .debug_str	00000000 
0000018e l       .debug_str	00000000 
00000193 l       .debug_str	00000000 
0000019b l       .debug_str	00000000 
000001a0 l       .debug_str	00000000 
000001a7 l       .debug_str	00000000 
000001ac l       .debug_str	00000000 
000001b1 l       .debug_str	00000000 
00000000 l       .debug_str	00000000 
00000041 l       .debug_str	00000000 
00000055 l       .debug_str	00000000 
00000085 l       .debug_str	00000000 
0000008a l       .debug_str	00000000 
0000008f l       .debug_str	00000000 
00000097 l       .debug_str	00000000 
000000a0 l       .debug_str	00000000 
000000ef l       .debug_str	00000000 
000000fb l       .debug_str	00000000 
00000104 l       .debug_str	00000000 
00000107 l       .debug_str	00000000 
00000000 l     O .rodata..Lanon.05cd8a3f099736681d60422a43eea205.3	00000018 .Lanon.05cd8a3f099736681d60422a43eea205.3
00000000 l     O .rodata..Lanon.05cd8a3f099736681d60422a43eea205.5	00000010 .Lanon.05cd8a3f099736681d60422a43eea205.5
00000000 l    d  .text._ZN4core4char7methods22_$LT$impl$u20$char$GT$11encode_utf817h77a0aa8e2389f22cE	00000000 .text._ZN4core4char7methods22_$LT$impl$u20$char$GT$11encode_utf817h77a0aa8e2389f22cE
00000000 l    d  .text._ZN4core4char7methods22_$LT$impl$u20$char$GT$8len_utf817h6356b332a0878bebE	00000000 .text._ZN4core4char7methods22_$LT$impl$u20$char$GT$8len_utf817h6356b332a0878bebE
00000000 l    d  .rodata..Lanon.05cd8a3f099736681d60422a43eea205.0	00000000 .rodata..Lanon.05cd8a3f099736681d60422a43eea205.0
00000000 l    d  .rodata..Lanon.05cd8a3f099736681d60422a43eea205.1	00000000 .rodata..Lanon.05cd8a3f099736681d60422a43eea205.1
00000000 l    d  .rodata..Lanon.05cd8a3f099736681d60422a43eea205.2	00000000 .rodata..Lanon.05cd8a3f099736681d60422a43eea205.2
00000000 l    d  .rodata..Lanon.05cd8a3f099736681d60422a43eea205.4	00000000 .rodata..Lanon.05cd8a3f099736681d60422a43eea205.4
00000000 l    d  .debug_abbrev	00000000 .debug_abbrev
00000000 l    d  .debug_info	00000000 .debug_info
00000000 l    d  .debug_ranges	00000000 .debug_ranges
00000000 l    d  .debug_frame	00000000 .debug_frame
00000000 l    d  .debug_line	00000000 .debug_line
00000000         *UND*	00000000 core::fmt::ArgumentV1::new
00000000         *UND*	00000000 core::fmt::ArgumentV1::new
00000000         *UND*	00000000 core::fmt::num::imp::<impl core::fmt::Display for usize>::fmt
00000000         *UND*	00000000 core::fmt::num::<impl core::fmt::UpperHex for u32>::fmt
00000000         *UND*	00000000 .hidden core::fmt::Arguments::new_v1
00000000         *UND*	00000000 .hidden core::str::from_utf8_unchecked_mut
00000000         *UND*	00000000 .hidden core::char::convert::from_u32_unchecked
00000000 g     F .text._ZN4core4char7methods22_$LT$impl$u20$char$GT$11encode_utf817h77a0aa8e2389f22cE	0000033a .hidden core::char::methods::<impl char>::encode_utf8
00000000 g     F .text._ZN4core4char7methods22_$LT$impl$u20$char$GT$8len_utf817h6356b332a0878bebE	0000004c .hidden core::char::methods::<impl char>::len_utf8
00000000         *UND*	00000000 core::slice::<impl [T]>::get_unchecked_mut
00000000         *UND*	00000000 core::slice::<impl [T]>::get_unchecked_mut
00000000         *UND*	00000000 core::slice::<impl [T]>::len
00000000         *UND*	00000000 core::slice::<impl [T]>::is_empty
00000000         *UND*	00000000 core::panicking::panic_fmt



Disassembly of section .text._ZN4core4char7methods22_$LT$impl$u20$char$GT$11encode_utf817h77a0aa8e2389f22cE:

00000000 <core::char::methods::<impl char>::encode_utf8>:
_ZN4core4char7methods22_$LT$impl$u20$char$GT$11encode_utf817h77a0aa8e2389f22cE():
/rustc/50a0defd5a93523067ef239936cc2e0755220904/src/libcore/char/methods.rs:436
   0:	b5b0      	push	{r4, r5, r7, lr}
   2:	b0c2      	sub	sp, #264	; 0x108
   4:	4613      	mov	r3, r2
   6:	468c      	mov	ip, r1
   8:	4686      	mov	lr, r0
   a:	9027      	str	r0, [sp, #156]	; 0x9c
   c:	9128      	str	r1, [sp, #160]	; 0xa0
   e:	9229      	str	r2, [sp, #164]	; 0xa4
/rustc/50a0defd5a93523067ef239936cc2e0755220904/src/libcore/char/methods.rs:437
  10:	9827      	ldr	r0, [sp, #156]	; 0x9c
  12:	902a      	str	r0, [sp, #168]	; 0xa8
/rustc/50a0defd5a93523067ef239936cc2e0755220904/src/libcore/char/methods.rs:440
  14:	982a      	ldr	r0, [sp, #168]	; 0xa8
  16:	2880      	cmp	r0, #128	; 0x80
  18:	9326      	str	r3, [sp, #152]	; 0x98
  1a:	f8cd c094 	str.w	ip, [sp, #148]	; 0x94
  1e:	f8cd e090 	str.w	lr, [sp, #144]	; 0x90
  22:	d304      	bcc.n	2e <core::char::methods::<impl char>::encode_utf8+0x2e>
  24:	e7ff      	b.n	26 <core::char::methods::<impl char>::encode_utf8+0x26>
  26:	2000      	movs	r0, #0
  28:	f88d 00b1 	strb.w	r0, [sp, #177]	; 0xb1
  2c:	e005      	b.n	3a <core::char::methods::<impl char>::encode_utf8+0x3a>
  2e:	9828      	ldr	r0, [sp, #160]	; 0xa0
  30:	9929      	ldr	r1, [sp, #164]	; 0xa4
  32:	f7ff fffe 	bl	0 <core::slice::<impl [T]>::is_empty>
  36:	9023      	str	r0, [sp, #140]	; 0x8c
  38:	e005      	b.n	46 <core::char::methods::<impl char>::encode_utf8+0x46>
  3a:	f89d 00b1 	ldrb.w	r0, [sp, #177]	; 0xb1
  3e:	07c0      	lsls	r0, r0, #31
  40:	2800      	cmp	r0, #0
  42:	d106      	bne.n	52 <core::char::methods::<impl char>::encode_utf8+0x52>
  44:	e017      	b.n	76 <core::char::methods::<impl char>::encode_utf8+0x76>
  46:	2001      	movs	r0, #1
  48:	9923      	ldr	r1, [sp, #140]	; 0x8c
  4a:	4388      	bics	r0, r1
  4c:	f88d 00b1 	strb.w	r0, [sp, #177]	; 0xb1
  50:	e7f3      	b.n	3a <core::char::methods::<impl char>::encode_utf8+0x3a>
/rustc/50a0defd5a93523067ef239936cc2e0755220904/src/libcore/char/methods.rs:441
  52:	982a      	ldr	r0, [sp, #168]	; 0xa8
  54:	9928      	ldr	r1, [sp, #160]	; 0xa0
  56:	9a29      	ldr	r2, [sp, #164]	; 0xa4
  58:	2300      	movs	r3, #0
  5a:	9022      	str	r0, [sp, #136]	; 0x88
  5c:	4608      	mov	r0, r1
  5e:	4611      	mov	r1, r2
  60:	461a      	mov	r2, r3
  62:	f7ff fffe 	bl	0 <core::slice::<impl [T]>::get_unchecked_mut>
  66:	9021      	str	r0, [sp, #132]	; 0x84
  68:	e7ff      	b.n	6a <core::char::methods::<impl char>::encode_utf8+0x6a>
  6a:	9822      	ldr	r0, [sp, #136]	; 0x88
  6c:	9921      	ldr	r1, [sp, #132]	; 0x84
  6e:	7008      	strb	r0, [r1, #0]
  70:	2201      	movs	r2, #1
/rustc/50a0defd5a93523067ef239936cc2e0755220904/src/libcore/char/methods.rs:442
  72:	922b      	str	r2, [sp, #172]	; 0xac
/rustc/50a0defd5a93523067ef239936cc2e0755220904/src/libcore/char/methods.rs:440
  74:	e14c      	b.n	310 <core::char::methods::<impl char>::encode_utf8+0x310>
/rustc/50a0defd5a93523067ef239936cc2e0755220904/src/libcore/char/methods.rs:443
  76:	982a      	ldr	r0, [sp, #168]	; 0xa8
  78:	f5b0 6f00 	cmp.w	r0, #2048	; 0x800
  7c:	d304      	bcc.n	88 <core::char::methods::<impl char>::encode_utf8+0x88>
  7e:	e7ff      	b.n	80 <core::char::methods::<impl char>::encode_utf8+0x80>
  80:	2000      	movs	r0, #0
  82:	f88d 00b2 	strb.w	r0, [sp, #178]	; 0xb2
  86:	e005      	b.n	94 <core::char::methods::<impl char>::encode_utf8+0x94>
  88:	9828      	ldr	r0, [sp, #160]	; 0xa0
  8a:	9929      	ldr	r1, [sp, #164]	; 0xa4
  8c:	f7ff fffe 	bl	0 <core::slice::<impl [T]>::len>
  90:	9020      	str	r0, [sp, #128]	; 0x80
  92:	e005      	b.n	a0 <core::char::methods::<impl char>::encode_utf8+0xa0>
  94:	f89d 00b2 	ldrb.w	r0, [sp, #178]	; 0xb2
  98:	07c0      	lsls	r0, r0, #31
  9a:	2800      	cmp	r0, #0
  9c:	d108      	bne.n	b0 <core::char::methods::<impl char>::encode_utf8+0xb0>
  9e:	e02e      	b.n	fe <core::char::methods::<impl char>::encode_utf8+0xfe>
  a0:	2000      	movs	r0, #0
  a2:	9920      	ldr	r1, [sp, #128]	; 0x80
  a4:	2901      	cmp	r1, #1
  a6:	bf88      	it	hi
  a8:	2001      	movhi	r0, #1
  aa:	f88d 00b2 	strb.w	r0, [sp, #178]	; 0xb2
  ae:	e7f1      	b.n	94 <core::char::methods::<impl char>::encode_utf8+0x94>
/rustc/50a0defd5a93523067ef239936cc2e0755220904/src/libcore/char/methods.rs:444
  b0:	982a      	ldr	r0, [sp, #168]	; 0xa8
  b2:	f3c0 1084 	ubfx	r0, r0, #6, #5
  b6:	9928      	ldr	r1, [sp, #160]	; 0xa0
  b8:	9a29      	ldr	r2, [sp, #164]	; 0xa4
  ba:	2300      	movs	r3, #0
  bc:	901f      	str	r0, [sp, #124]	; 0x7c
  be:	4608      	mov	r0, r1
  c0:	4611      	mov	r1, r2
  c2:	461a      	mov	r2, r3
  c4:	f7ff fffe 	bl	0 <core::slice::<impl [T]>::get_unchecked_mut>
  c8:	901e      	str	r0, [sp, #120]	; 0x78
  ca:	e7ff      	b.n	cc <core::char::methods::<impl char>::encode_utf8+0xcc>
  cc:	981f      	ldr	r0, [sp, #124]	; 0x7c
  ce:	f040 01c0 	orr.w	r1, r0, #192	; 0xc0
  d2:	9a1e      	ldr	r2, [sp, #120]	; 0x78
  d4:	7011      	strb	r1, [r2, #0]
/rustc/50a0defd5a93523067ef239936cc2e0755220904/src/libcore/char/methods.rs:445
  d6:	992a      	ldr	r1, [sp, #168]	; 0xa8
  d8:	f001 013f 	and.w	r1, r1, #63	; 0x3f
  dc:	9828      	ldr	r0, [sp, #160]	; 0xa0
  de:	9b29      	ldr	r3, [sp, #164]	; 0xa4
  e0:	2201      	movs	r2, #1
  e2:	911d      	str	r1, [sp, #116]	; 0x74
  e4:	4619      	mov	r1, r3
  e6:	f7ff fffe 	bl	0 <core::slice::<impl [T]>::get_unchecked_mut>
  ea:	901c      	str	r0, [sp, #112]	; 0x70
  ec:	e7ff      	b.n	ee <core::char::methods::<impl char>::encode_utf8+0xee>
  ee:	981d      	ldr	r0, [sp, #116]	; 0x74
  f0:	f040 0180 	orr.w	r1, r0, #128	; 0x80
  f4:	9a1c      	ldr	r2, [sp, #112]	; 0x70
  f6:	7011      	strb	r1, [r2, #0]
  f8:	2102      	movs	r1, #2
/rustc/50a0defd5a93523067ef239936cc2e0755220904/src/libcore/char/methods.rs:446
  fa:	912b      	str	r1, [sp, #172]	; 0xac
/rustc/50a0defd5a93523067ef239936cc2e0755220904/src/libcore/char/methods.rs:443
  fc:	e107      	b.n	30e <core::char::methods::<impl char>::encode_utf8+0x30e>
/rustc/50a0defd5a93523067ef239936cc2e0755220904/src/libcore/char/methods.rs:447
  fe:	982a      	ldr	r0, [sp, #168]	; 0xa8
 100:	f5b0 3f80 	cmp.w	r0, #65536	; 0x10000
 104:	d304      	bcc.n	110 <core::char::methods::<impl char>::encode_utf8+0x110>
 106:	e7ff      	b.n	108 <core::char::methods::<impl char>::encode_utf8+0x108>
 108:	2000      	movs	r0, #0
 10a:	f88d 00b3 	strb.w	r0, [sp, #179]	; 0xb3
 10e:	e005      	b.n	11c <core::char::methods::<impl char>::encode_utf8+0x11c>
 110:	9828      	ldr	r0, [sp, #160]	; 0xa0
 112:	9929      	ldr	r1, [sp, #164]	; 0xa4
 114:	f7ff fffe 	bl	0 <core::slice::<impl [T]>::len>
 118:	901b      	str	r0, [sp, #108]	; 0x6c
 11a:	e005      	b.n	128 <core::char::methods::<impl char>::encode_utf8+0x128>
 11c:	f89d 00b3 	ldrb.w	r0, [sp, #179]	; 0xb3
 120:	07c0      	lsls	r0, r0, #31
 122:	2800      	cmp	r0, #0
 124:	d108      	bne.n	138 <core::char::methods::<impl char>::encode_utf8+0x138>
 126:	e03f      	b.n	1a8 <core::char::methods::<impl char>::encode_utf8+0x1a8>
 128:	2000      	movs	r0, #0
 12a:	991b      	ldr	r1, [sp, #108]	; 0x6c
 12c:	2902      	cmp	r1, #2
 12e:	bf88      	it	hi
 130:	2001      	movhi	r0, #1
 132:	f88d 00b3 	strb.w	r0, [sp, #179]	; 0xb3
 136:	e7f1      	b.n	11c <core::char::methods::<impl char>::encode_utf8+0x11c>
/rustc/50a0defd5a93523067ef239936cc2e0755220904/src/libcore/char/methods.rs:448
 138:	982a      	ldr	r0, [sp, #168]	; 0xa8
 13a:	f3c0 3003 	ubfx	r0, r0, #12, #4
 13e:	9928      	ldr	r1, [sp, #160]	; 0xa0
 140:	9a29      	ldr	r2, [sp, #164]	; 0xa4
 142:	2300      	movs	r3, #0
 144:	901a      	str	r0, [sp, #104]	; 0x68
 146:	4608      	mov	r0, r1
 148:	4611      	mov	r1, r2
 14a:	461a      	mov	r2, r3
 14c:	f7ff fffe 	bl	0 <core::slice::<impl [T]>::get_unchecked_mut>
 150:	9019      	str	r0, [sp, #100]	; 0x64
 152:	e7ff      	b.n	154 <core::char::methods::<impl char>::encode_utf8+0x154>
 154:	981a      	ldr	r0, [sp, #104]	; 0x68
 156:	f040 01e0 	orr.w	r1, r0, #224	; 0xe0
 15a:	9a19      	ldr	r2, [sp, #100]	; 0x64
 15c:	7011      	strb	r1, [r2, #0]
/rustc/50a0defd5a93523067ef239936cc2e0755220904/src/libcore/char/methods.rs:449
 15e:	992a      	ldr	r1, [sp, #168]	; 0xa8
 160:	f3c1 1185 	ubfx	r1, r1, #6, #6
 164:	9828      	ldr	r0, [sp, #160]	; 0xa0
 166:	9b29      	ldr	r3, [sp, #164]	; 0xa4
 168:	2201      	movs	r2, #1
 16a:	9118      	str	r1, [sp, #96]	; 0x60
 16c:	4619      	mov	r1, r3
 16e:	f7ff fffe 	bl	0 <core::slice::<impl [T]>::get_unchecked_mut>
 172:	9017      	str	r0, [sp, #92]	; 0x5c
 174:	e7ff      	b.n	176 <core::char::methods::<impl char>::encode_utf8+0x176>
 176:	9818      	ldr	r0, [sp, #96]	; 0x60
 178:	f040 0180 	orr.w	r1, r0, #128	; 0x80
 17c:	9a17      	ldr	r2, [sp, #92]	; 0x5c
 17e:	7011      	strb	r1, [r2, #0]
/rustc/50a0defd5a93523067ef239936cc2e0755220904/src/libcore/char/methods.rs:450
 180:	992a      	ldr	r1, [sp, #168]	; 0xa8
 182:	f001 013f 	and.w	r1, r1, #63	; 0x3f
 186:	9828      	ldr	r0, [sp, #160]	; 0xa0
 188:	9b29      	ldr	r3, [sp, #164]	; 0xa4
 18a:	2202      	movs	r2, #2
 18c:	9116      	str	r1, [sp, #88]	; 0x58
 18e:	4619      	mov	r1, r3
 190:	f7ff fffe 	bl	0 <core::slice::<impl [T]>::get_unchecked_mut>
 194:	9015      	str	r0, [sp, #84]	; 0x54
 196:	e7ff      	b.n	198 <core::char::methods::<impl char>::encode_utf8+0x198>
 198:	9816      	ldr	r0, [sp, #88]	; 0x58
 19a:	f040 0180 	orr.w	r1, r0, #128	; 0x80
 19e:	9a15      	ldr	r2, [sp, #84]	; 0x54
 1a0:	7011      	strb	r1, [r2, #0]
 1a2:	2103      	movs	r1, #3
/rustc/50a0defd5a93523067ef239936cc2e0755220904/src/libcore/char/methods.rs:451
 1a4:	912b      	str	r1, [sp, #172]	; 0xac
/rustc/50a0defd5a93523067ef239936cc2e0755220904/src/libcore/char/methods.rs:447
 1a6:	e0b1      	b.n	30c <core::char::methods::<impl char>::encode_utf8+0x30c>
/rustc/50a0defd5a93523067ef239936cc2e0755220904/src/libcore/char/methods.rs:452
 1a8:	9828      	ldr	r0, [sp, #160]	; 0xa0
 1aa:	9929      	ldr	r1, [sp, #164]	; 0xa4
 1ac:	f7ff fffe 	bl	0 <core::slice::<impl [T]>::len>
 1b0:	9014      	str	r0, [sp, #80]	; 0x50
 1b2:	e7ff      	b.n	1b4 <core::char::methods::<impl char>::encode_utf8+0x1b4>
 1b4:	9814      	ldr	r0, [sp, #80]	; 0x50
 1b6:	2804      	cmp	r0, #4
 1b8:	d349      	bcc.n	24e <core::char::methods::<impl char>::encode_utf8+0x24e>
 1ba:	e7ff      	b.n	1bc <core::char::methods::<impl char>::encode_utf8+0x1bc>
/rustc/50a0defd5a93523067ef239936cc2e0755220904/src/libcore/char/methods.rs:453
 1bc:	982a      	ldr	r0, [sp, #168]	; 0xa8
 1be:	f3c0 4082 	ubfx	r0, r0, #18, #3
 1c2:	9928      	ldr	r1, [sp, #160]	; 0xa0
 1c4:	9a29      	ldr	r2, [sp, #164]	; 0xa4
 1c6:	2300      	movs	r3, #0
 1c8:	9013      	str	r0, [sp, #76]	; 0x4c
 1ca:	4608      	mov	r0, r1
 1cc:	4611      	mov	r1, r2
 1ce:	461a      	mov	r2, r3
 1d0:	f7ff fffe 	bl	0 <core::slice::<impl [T]>::get_unchecked_mut>
 1d4:	9012      	str	r0, [sp, #72]	; 0x48
 1d6:	e7ff      	b.n	1d8 <core::char::methods::<impl char>::encode_utf8+0x1d8>
 1d8:	9813      	ldr	r0, [sp, #76]	; 0x4c
 1da:	f040 01f0 	orr.w	r1, r0, #240	; 0xf0
 1de:	9a12      	ldr	r2, [sp, #72]	; 0x48
 1e0:	7011      	strb	r1, [r2, #0]
/rustc/50a0defd5a93523067ef239936cc2e0755220904/src/libcore/char/methods.rs:454
 1e2:	992a      	ldr	r1, [sp, #168]	; 0xa8
 1e4:	f3c1 3105 	ubfx	r1, r1, #12, #6
 1e8:	9828      	ldr	r0, [sp, #160]	; 0xa0
 1ea:	9b29      	ldr	r3, [sp, #164]	; 0xa4
 1ec:	2201      	movs	r2, #1
 1ee:	9111      	str	r1, [sp, #68]	; 0x44
 1f0:	4619      	mov	r1, r3
 1f2:	f7ff fffe 	bl	0 <core::slice::<impl [T]>::get_unchecked_mut>
 1f6:	9010      	str	r0, [sp, #64]	; 0x40
 1f8:	e7ff      	b.n	1fa <core::char::methods::<impl char>::encode_utf8+0x1fa>
 1fa:	9811      	ldr	r0, [sp, #68]	; 0x44
 1fc:	f040 0180 	orr.w	r1, r0, #128	; 0x80
 200:	9a10      	ldr	r2, [sp, #64]	; 0x40
 202:	7011      	strb	r1, [r2, #0]
/rustc/50a0defd5a93523067ef239936cc2e0755220904/src/libcore/char/methods.rs:455
 204:	992a      	ldr	r1, [sp, #168]	; 0xa8
 206:	f3c1 1185 	ubfx	r1, r1, #6, #6
 20a:	9828      	ldr	r0, [sp, #160]	; 0xa0
 20c:	9b29      	ldr	r3, [sp, #164]	; 0xa4
 20e:	2202      	movs	r2, #2
 210:	910f      	str	r1, [sp, #60]	; 0x3c
 212:	4619      	mov	r1, r3
 214:	f7ff fffe 	bl	0 <core::slice::<impl [T]>::get_unchecked_mut>
 218:	900e      	str	r0, [sp, #56]	; 0x38
 21a:	e7ff      	b.n	21c <core::char::methods::<impl char>::encode_utf8+0x21c>
 21c:	980f      	ldr	r0, [sp, #60]	; 0x3c
 21e:	f040 0180 	orr.w	r1, r0, #128	; 0x80
 222:	9a0e      	ldr	r2, [sp, #56]	; 0x38
 224:	7011      	strb	r1, [r2, #0]
/rustc/50a0defd5a93523067ef239936cc2e0755220904/src/libcore/char/methods.rs:456
 226:	992a      	ldr	r1, [sp, #168]	; 0xa8
 228:	f001 013f 	and.w	r1, r1, #63	; 0x3f
 22c:	9828      	ldr	r0, [sp, #160]	; 0xa0
 22e:	9b29      	ldr	r3, [sp, #164]	; 0xa4
 230:	2203      	movs	r2, #3
 232:	910d      	str	r1, [sp, #52]	; 0x34
 234:	4619      	mov	r1, r3
 236:	f7ff fffe 	bl	0 <core::slice::<impl [T]>::get_unchecked_mut>
 23a:	900c      	str	r0, [sp, #48]	; 0x30
 23c:	e7ff      	b.n	23e <core::char::methods::<impl char>::encode_utf8+0x23e>
 23e:	980d      	ldr	r0, [sp, #52]	; 0x34
 240:	f040 0180 	orr.w	r1, r0, #128	; 0x80
 244:	9a0c      	ldr	r2, [sp, #48]	; 0x30
 246:	7011      	strb	r1, [r2, #0]
 248:	2104      	movs	r1, #4
/rustc/50a0defd5a93523067ef239936cc2e0755220904/src/libcore/char/methods.rs:457
 24a:	912b      	str	r1, [sp, #172]	; 0xac
/rustc/50a0defd5a93523067ef239936cc2e0755220904/src/libcore/char/methods.rs:447
 24c:	e05e      	b.n	30c <core::char::methods::<impl char>::encode_utf8+0x30c>
/rustc/50a0defd5a93523067ef239936cc2e0755220904/src/libcore/char/methods.rs:460
 24e:	982a      	ldr	r0, [sp, #168]	; 0xa8
 250:	f7ff fffe 	bl	0 <core::char::convert::from_u32_unchecked>
 254:	900b      	str	r0, [sp, #44]	; 0x2c
 256:	e7ff      	b.n	258 <core::char::methods::<impl char>::encode_utf8+0x258>
 258:	980b      	ldr	r0, [sp, #44]	; 0x2c
 25a:	f7ff fffe 	bl	0 <core::char::methods::<impl char>::encode_utf8>
 25e:	903c      	str	r0, [sp, #240]	; 0xf0
 260:	e7ff      	b.n	262 <core::char::methods::<impl char>::encode_utf8+0x262>
/rustc/50a0defd5a93523067ef239936cc2e0755220904/src/libcore/char/methods.rs:462
 262:	9828      	ldr	r0, [sp, #160]	; 0xa0
 264:	9929      	ldr	r1, [sp, #164]	; 0xa4
 266:	f7ff fffe 	bl	0 <core::slice::<impl [T]>::len>
 26a:	903d      	str	r0, [sp, #244]	; 0xf4
 26c:	e7ff      	b.n	26e <core::char::methods::<impl char>::encode_utf8+0x26e>
 26e:	a83c      	add	r0, sp, #240	; 0xf0
/rustc/50a0defd5a93523067ef239936cc2e0755220904/src/libcore/char/methods.rs:459
 270:	9039      	str	r0, [sp, #228]	; 0xe4
 272:	a82a      	add	r0, sp, #168	; 0xa8
 274:	903a      	str	r0, [sp, #232]	; 0xe8
 276:	a83d      	add	r0, sp, #244	; 0xf4
 278:	903b      	str	r0, [sp, #236]	; 0xec
/Users/Luppy/mynewt/stm32bluepill-mynewt-sensor/rust/app/src/lib.rs:1
/*
 27a:	9839      	ldr	r0, [sp, #228]	; 0xe4
 27c:	903e      	str	r0, [sp, #248]	; 0xf8
 27e:	983a      	ldr	r0, [sp, #232]	; 0xe8
 280:	903f      	str	r0, [sp, #252]	; 0xfc
 282:	983b      	ldr	r0, [sp, #236]	; 0xec
 284:	9040      	str	r0, [sp, #256]	; 0x100
/rustc/50a0defd5a93523067ef239936cc2e0755220904/src/libcore/char/methods.rs:460
 286:	983e      	ldr	r0, [sp, #248]	; 0xf8
/rustc/50a0defd5a93523067ef239936cc2e0755220904/src/libcore/macros.rs:18
 288:	f240 0100 	movw	r1, #0
 28c:	f2c0 0100 	movt	r1, #0
 290:	f7ff fffe 	bl	0 <core::fmt::ArgumentV1::new>
 294:	900a      	str	r0, [sp, #40]	; 0x28
 296:	9109      	str	r1, [sp, #36]	; 0x24
 298:	e7ff      	b.n	29a <core::char::methods::<impl char>::encode_utf8+0x29a>
/rustc/50a0defd5a93523067ef239936cc2e0755220904/src/libcore/char/methods.rs:461
 29a:	983f      	ldr	r0, [sp, #252]	; 0xfc
/rustc/50a0defd5a93523067ef239936cc2e0755220904/src/libcore/macros.rs:18
 29c:	f240 0100 	movw	r1, #0
 2a0:	f2c0 0100 	movt	r1, #0
 2a4:	f7ff fffe 	bl	0 <core::fmt::ArgumentV1::new>
 2a8:	9008      	str	r0, [sp, #32]
 2aa:	9107      	str	r1, [sp, #28]
 2ac:	e7ff      	b.n	2ae <core::char::methods::<impl char>::encode_utf8+0x2ae>
/rustc/50a0defd5a93523067ef239936cc2e0755220904/src/libcore/char/methods.rs:462
 2ae:	9840      	ldr	r0, [sp, #256]	; 0x100
/rustc/50a0defd5a93523067ef239936cc2e0755220904/src/libcore/macros.rs:18
 2b0:	f240 0100 	movw	r1, #0
 2b4:	f2c0 0100 	movt	r1, #0
 2b8:	f7ff fffe 	bl	0 <core::fmt::ArgumentV1::new>
 2bc:	9006      	str	r0, [sp, #24]
 2be:	9105      	str	r1, [sp, #20]
 2c0:	e7ff      	b.n	2c2 <core::char::methods::<impl char>::encode_utf8+0x2c2>
/rustc/50a0defd5a93523067ef239936cc2e0755220904/src/libcore/char/methods.rs:459
 2c2:	980a      	ldr	r0, [sp, #40]	; 0x28
 2c4:	9033      	str	r0, [sp, #204]	; 0xcc
 2c6:	9909      	ldr	r1, [sp, #36]	; 0x24
 2c8:	9134      	str	r1, [sp, #208]	; 0xd0
 2ca:	9a08      	ldr	r2, [sp, #32]
 2cc:	9235      	str	r2, [sp, #212]	; 0xd4
 2ce:	9b07      	ldr	r3, [sp, #28]
 2d0:	9336      	str	r3, [sp, #216]	; 0xd8
 2d2:	f8dd c018 	ldr.w	ip, [sp, #24]
 2d6:	f8cd c0dc 	str.w	ip, [sp, #220]	; 0xdc
 2da:	f8dd e014 	ldr.w	lr, [sp, #20]
 2de:	f8cd e0e0 	str.w	lr, [sp, #224]	; 0xe0
/rustc/50a0defd5a93523067ef239936cc2e0755220904/src/libcore/macros.rs:18
 2e2:	466c      	mov	r4, sp
 2e4:	2503      	movs	r5, #3
 2e6:	6025      	str	r5, [r4, #0]
 2e8:	f240 0100 	movw	r1, #0
 2ec:	f2c0 0100 	movt	r1, #0
 2f0:	a82d      	add	r0, sp, #180	; 0xb4
 2f2:	ab33      	add	r3, sp, #204	; 0xcc
 2f4:	462a      	mov	r2, r5
 2f6:	f7ff fffe 	bl	0 <core::fmt::Arguments::new_v1>
 2fa:	e7ff      	b.n	2 <core::char::methods::<impl char>::encode_utf8+0x2>
 2fc:	f240 0100 	movw	r1, #0
 300:	f2c0 0100 	movt	r1, #0
 304:	a82d      	add	r0, sp, #180	; 0xb4
 306:	f7ff fffe 	bl	0 <core::panicking::panic_fmt>
 30a:	defe      	udf	#254	; 0xfe
/rustc/50a0defd5a93523067ef239936cc2e0755220904/src/libcore/char/methods.rs:443
 30c:	e7ff      	b.n	30e <core::char::methods::<impl char>::encode_utf8+0x30e>
/rustc/50a0defd5a93523067ef239936cc2e0755220904/src/libcore/char/methods.rs:440
 30e:	e7ff      	b.n	310 <core::char::methods::<impl char>::encode_utf8+0x310>
/rustc/50a0defd5a93523067ef239936cc2e0755220904/src/libcore/char/methods.rs:464
 310:	9828      	ldr	r0, [sp, #160]	; 0xa0
 312:	9929      	ldr	r1, [sp, #164]	; 0xa4
 314:	9a2b      	ldr	r2, [sp, #172]	; 0xac
 316:	9241      	str	r2, [sp, #260]	; 0x104
 318:	9a41      	ldr	r2, [sp, #260]	; 0x104
 31a:	f7ff fffe 	bl	0 <core::slice::<impl [T]>::get_unchecked_mut>
 31e:	9004      	str	r0, [sp, #16]
 320:	9103      	str	r1, [sp, #12]
 322:	e7ff      	b.n	324 <core::char::methods::<impl char>::encode_utf8+0x324>
 324:	9804      	ldr	r0, [sp, #16]
 326:	9903      	ldr	r1, [sp, #12]
 328:	f7ff fffe 	bl	0 <core::str::from_utf8_unchecked_mut>
 32c:	9002      	str	r0, [sp, #8]
 32e:	9101      	str	r1, [sp, #4]
 330:	e7ff      	b.n	332 <core::char::methods::<impl char>::encode_utf8+0x332>
/rustc/50a0defd5a93523067ef239936cc2e0755220904/src/libcore/char/methods.rs:466
 332:	9802      	ldr	r0, [sp, #8]
 334:	9901      	ldr	r1, [sp, #4]
 336:	b042      	add	sp, #264	; 0x108
 338:	bdb0      	pop	{r4, r5, r7, pc}

Disassembly of section .text._ZN4core4char7methods22_$LT$impl$u20$char$GT$8len_utf817h6356b332a0878bebE:

00000000 <core::char::methods::<impl char>::len_utf8>:
_ZN4core4char7methods22_$LT$impl$u20$char$GT$8len_utf817h6356b332a0878bebE():
/rustc/50a0defd5a93523067ef239936cc2e0755220904/src/libcore/char/methods.rs:359
   0:	b084      	sub	sp, #16
   2:	4601      	mov	r1, r0
   4:	9001      	str	r0, [sp, #4]
/rustc/50a0defd5a93523067ef239936cc2e0755220904/src/libcore/char/methods.rs:360
   6:	9801      	ldr	r0, [sp, #4]
   8:	9003      	str	r0, [sp, #12]
/rustc/50a0defd5a93523067ef239936cc2e0755220904/src/libcore/char/methods.rs:361
   a:	9803      	ldr	r0, [sp, #12]
   c:	287f      	cmp	r0, #127	; 0x7f
   e:	9100      	str	r1, [sp, #0]
  10:	d803      	bhi.n	1a <core::char::methods::<impl char>::len_utf8+0x1a>
  12:	e7ff      	b.n	14 <core::char::methods::<impl char>::len_utf8+0x14>
  14:	2001      	movs	r0, #1
/rustc/50a0defd5a93523067ef239936cc2e0755220904/src/libcore/char/methods.rs:362
  16:	9002      	str	r0, [sp, #8]
/rustc/50a0defd5a93523067ef239936cc2e0755220904/src/libcore/char/methods.rs:361
  18:	e015      	b.n	46 <core::char::methods::<impl char>::len_utf8+0x46>
/rustc/50a0defd5a93523067ef239936cc2e0755220904/src/libcore/char/methods.rs:363
  1a:	9803      	ldr	r0, [sp, #12]
  1c:	2100      	movs	r1, #0
  1e:	ebb1 2fd0 	cmp.w	r1, r0, lsr #11
  22:	d103      	bne.n	2c <core::char::methods::<impl char>::len_utf8+0x2c>
  24:	e7ff      	b.n	26 <core::char::methods::<impl char>::len_utf8+0x26>
  26:	2002      	movs	r0, #2
/rustc/50a0defd5a93523067ef239936cc2e0755220904/src/libcore/char/methods.rs:364
  28:	9002      	str	r0, [sp, #8]
/rustc/50a0defd5a93523067ef239936cc2e0755220904/src/libcore/char/methods.rs:363
  2a:	e00b      	b.n	44 <core::char::methods::<impl char>::len_utf8+0x44>
/rustc/50a0defd5a93523067ef239936cc2e0755220904/src/libcore/char/methods.rs:365
  2c:	f8bd 000e 	ldrh.w	r0, [sp, #14]
  30:	2800      	cmp	r0, #0
  32:	d103      	bne.n	3c <core::char::methods::<impl char>::len_utf8+0x3c>
  34:	e7ff      	b.n	36 <core::char::methods::<impl char>::len_utf8+0x36>
  36:	2003      	movs	r0, #3
/rustc/50a0defd5a93523067ef239936cc2e0755220904/src/libcore/char/methods.rs:366
  38:	9002      	str	r0, [sp, #8]
/rustc/50a0defd5a93523067ef239936cc2e0755220904/src/libcore/char/methods.rs:365
  3a:	e002      	b.n	42 <core::char::methods::<impl char>::len_utf8+0x42>
  3c:	2004      	movs	r0, #4
/rustc/50a0defd5a93523067ef239936cc2e0755220904/src/libcore/char/methods.rs:368
  3e:	9002      	str	r0, [sp, #8]
/rustc/50a0defd5a93523067ef239936cc2e0755220904/src/libcore/char/methods.rs:365
  40:	e7ff      	b.n	42 <core::char::methods::<impl char>::len_utf8+0x42>
/rustc/50a0defd5a93523067ef239936cc2e0755220904/src/libcore/char/methods.rs:363
  42:	e7ff      	b.n	44 <core::char::methods::<impl char>::len_utf8+0x44>
/rustc/50a0defd5a93523067ef239936cc2e0755220904/src/libcore/char/methods.rs:361
  44:	e7ff      	b.n	46 <core::char::methods::<impl char>::len_utf8+0x46>
/rustc/50a0defd5a93523067ef239936cc2e0755220904/src/libcore/char/methods.rs:370
  46:	9802      	ldr	r0, [sp, #8]
  48:	b004      	add	sp, #16
  4a:	4770      	bx	lr

app-e8778d9de5b9c761.2ip78vrmjtao5zpu.rcgu.o:     file format elf32-littlearm

SYMBOL TABLE:
00000000 l    df *ABS*	00000000 2ip78vrmjtao5zpu
000000a6 l       .debug_str	00000000 
00000000 l       .debug_str	00000000 
00000041 l       .debug_str	00000000 
00000055 l       .debug_str	00000000 
00000085 l       .debug_str	00000000 
0000008b l       .debug_str	00000000 
00000090 l       .debug_str	00000000 
000000d2 l       .debug_str	00000000 
00000096 l       .debug_str	00000000 
0000009a l       .debug_str	00000000 
000000a1 l       .debug_str	00000000 
00000000 l    d  .text._ZN5kurbo4size4Size3new17hc0baef9e58da44f1E	00000000 .text._ZN5kurbo4size4Size3new17hc0baef9e58da44f1E
00000000 l    d  .debug_abbrev	00000000 .debug_abbrev
00000000 l    d  .debug_info	00000000 .debug_info
00000000 l    d  .debug_frame	00000000 .debug_frame
00000000 l    d  .debug_line	00000000 .debug_line
00000000 g     F .text._ZN5kurbo4size4Size3new17hc0baef9e58da44f1E	0000003e .hidden kurbo::size::Size::new



Disassembly of section .text._ZN5kurbo4size4Size3new17hc0baef9e58da44f1E:

00000000 <kurbo::size::Size::new>:
_ZN5kurbo4size4Size3new17hc0baef9e58da44f1E():
/Users/Luppy/mynewt/kurbo-embedded/src/size.rs:24
    /// A size with zero width or height.
    pub const ZERO: Size = Size::new(0., 0.);

    /// Create a new `Size` with the provided `width` and `height`.
    #[inline]
    pub const fn new(width: f64, height: f64) -> Self {
   0:	b08c      	sub	sp, #48	; 0x30
   2:	eeb0 2a41 	vmov.f32	s4, s2
   6:	eef0 2a61 	vmov.f32	s5, s3
   a:	eeb0 3a40 	vmov.f32	s6, s0
   e:	eef0 3a60 	vmov.f32	s7, s1
  12:	ed8d 0b04 	vstr	d0, [sp, #16]
  16:	ed8d 1b06 	vstr	d1, [sp, #24]
/Users/Luppy/mynewt/kurbo-embedded/src/size.rs:25
        Size { width, height }
  1a:	ed9d 0b04 	vldr	d0, [sp, #16]
  1e:	ed9d 1b06 	vldr	d1, [sp, #24]
  22:	ed8d 0b08 	vstr	d0, [sp, #32]
  26:	ed8d 1b0a 	vstr	d1, [sp, #40]	; 0x28
/Users/Luppy/mynewt/kurbo-embedded/src/size.rs:26
    }
  2a:	ed9d 0b08 	vldr	d0, [sp, #32]
  2e:	ed9d 1b0a 	vldr	d1, [sp, #40]	; 0x28
  32:	ed8d 2b02 	vstr	d2, [sp, #8]
  36:	ed8d 3b00 	vstr	d3, [sp]
  3a:	b00c      	add	sp, #48	; 0x30
  3c:	4770      	bx	lr

app-e8778d9de5b9c761.2klnxnhxxxpjeqgl.rcgu.o:     file format elf32-littlearm

SYMBOL TABLE:
00000000 l    df *ABS*	00000000 2klnxnhxxxpjeqgl
000000e8 l       .debug_str	00000000 
00000000 l       .debug_str	00000000 
00000041 l       .debug_str	00000000 
00000055 l       .debug_str	00000000 
00000085 l       .debug_str	00000000 
0000008a l       .debug_str	00000000 
0000008f l       .debug_str	00000000 
000000ea l       .debug_str	00000000 
00000097 l       .debug_str	00000000 
000000d5 l       .debug_str	00000000 
00000000 l    d  .text._ZN4core4char7convert18from_u32_unchecked17ha5485e8fbd8a80bbE	00000000 .text._ZN4core4char7convert18from_u32_unchecked17ha5485e8fbd8a80bbE
00000000 l    d  .debug_abbrev	00000000 .debug_abbrev
00000000 l    d  .debug_info	00000000 .debug_info
00000000 l    d  .debug_frame	00000000 .debug_frame
00000000 l    d  .debug_line	00000000 .debug_line
00000000 g     F .text._ZN4core4char7convert18from_u32_unchecked17ha5485e8fbd8a80bbE	00000018 .hidden core::char::convert::from_u32_unchecked



Disassembly of section .text._ZN4core4char7convert18from_u32_unchecked17ha5485e8fbd8a80bbE:

00000000 <core::char::convert::from_u32_unchecked>:
_ZN4core4char7convert18from_u32_unchecked17ha5485e8fbd8a80bbE():
/rustc/50a0defd5a93523067ef239936cc2e0755220904/src/libcore/char/convert.rs:101
   0:	b084      	sub	sp, #16
   2:	4601      	mov	r1, r0
   4:	9002      	str	r0, [sp, #8]
/rustc/50a0defd5a93523067ef239936cc2e0755220904/src/libcore/char/convert.rs:102
   6:	9802      	ldr	r0, [sp, #8]
   8:	9003      	str	r0, [sp, #12]
   a:	9803      	ldr	r0, [sp, #12]
   c:	9101      	str	r1, [sp, #4]
   e:	9000      	str	r0, [sp, #0]
  10:	e7ff      	b.n	12 <core::char::convert::from_u32_unchecked+0x12>
/rustc/50a0defd5a93523067ef239936cc2e0755220904/src/libcore/char/convert.rs:103
  12:	9800      	ldr	r0, [sp, #0]
  14:	b004      	add	sp, #16
  16:	4770      	bx	lr

app-e8778d9de5b9c761.2njbfqth28pfnju4.rcgu.o:     file format elf32-littlearm

SYMBOL TABLE:
00000000 l    df *ABS*	00000000 2njbfqth28pfnju4
0000010b l       .debug_str	00000000 
00000000 l       .debug_str	00000000 
00000041 l       .debug_str	00000000 
00000055 l       .debug_str	00000000 
00000085 l       .debug_str	00000000 
0000008b l       .debug_str	00000000 
00000092 l       .debug_str	00000000 
0000010f l       .debug_str	00000000 
0000009b l       .debug_str	00000000 
000000ff l       .debug_str	00000000 
00000107 l       .debug_str	00000000 
00000000 l    d  .text._ZN66_$LT$druid..window..WindowId$u20$as$u20$core..default..Default$GT$7default17h77c3ab30a1613496E	00000000 .text._ZN66_$LT$druid..window..WindowId$u20$as$u20$core..default..Default$GT$7default17h77c3ab30a1613496E
00000000 l    d  .debug_abbrev	00000000 .debug_abbrev
00000000 l    d  .debug_info	00000000 .debug_info
00000000 l    d  .debug_frame	00000000 .debug_frame
00000000 l    d  .debug_line	00000000 .debug_line
00000000         *UND*	00000000 .hidden <u32 as core::default::Default>::default
00000000 g     F .text._ZN66_$LT$druid..window..WindowId$u20$as$u20$core..default..Default$GT$7default17h77c3ab30a1613496E	00000016 .hidden <druid::window::WindowId as core::default::Default>::default



Disassembly of section .text._ZN66_$LT$druid..window..WindowId$u20$as$u20$core..default..Default$GT$7default17h77c3ab30a1613496E:

00000000 <<druid::window::WindowId as core::default::Default>::default>:
_ZN66_$LT$druid..window..WindowId$u20$as$u20$core..default..Default$GT$7default17h77c3ab30a1613496E():
/Users/Luppy/mynewt/druid-embedded/druid/src/window.rs:30
    PaintCtx, UpdateCtx, Widget, WidgetPod,
    widget::WidgetBox, WindowBox, WindowType, ////
};

/// A unique identifier for a window.
#[derive(Clone, Copy, Debug, Default, PartialEq, Eq, Hash, PartialOrd, Ord)] ////
   0:	b580      	push	{r7, lr}
   2:	b082      	sub	sp, #8
/Users/Luppy/mynewt/druid-embedded/druid/src/window.rs:32
////#[derive(Clone, Copy, Debug, PartialEq, Eq, Hash, PartialOrd, Ord)]
pub struct WindowId(pub u32); ////
   4:	f7ff fffe 	bl	0 <<u32 as core::default::Default>::default>
   8:	9000      	str	r0, [sp, #0]
   a:	e7ff      	b.n	c <<druid::window::WindowId as core::default::Default>::default+0xc>
/Users/Luppy/mynewt/druid-embedded/druid/src/window.rs:30
#[derive(Clone, Copy, Debug, Default, PartialEq, Eq, Hash, PartialOrd, Ord)] ////
   c:	9800      	ldr	r0, [sp, #0]
   e:	9001      	str	r0, [sp, #4]
  10:	9801      	ldr	r0, [sp, #4]
  12:	b002      	add	sp, #8
  14:	bd80      	pop	{r7, pc}

app-e8778d9de5b9c761.2qfblbexr6fhm2ff.rcgu.o:     file format elf32-littlearm

SYMBOL TABLE:
00000000 l    df *ABS*	00000000 2qfblbexr6fhm2ff
00000152 l       .debug_str	00000000 
00000000 l       .debug_str	00000000 
00000041 l       .debug_str	00000000 
00000055 l       .debug_str	00000000 
00000085 l       .debug_str	00000000 
0000008a l       .debug_str	00000000 
00000090 l       .debug_str	00000000 
00000096 l       .debug_str	00000000 
0000009f l       .debug_str	00000000 
00000157 l       .debug_str	00000000 
000000a2 l       .debug_str	00000000 
000000b6 l       .debug_str	00000000 
000000b8 l       .debug_str	00000000 
0000011f l       .debug_str	00000000 
0000012a l       .debug_str	00000000 
00000133 l       .debug_str	00000000 
00000136 l       .debug_str	00000000 
00000140 l       .debug_str	00000000 
00000147 l       .debug_str	00000000 
0000014d l       .debug_str	00000000 
00000000 l    d  .text._ZN4core5clone5impls54_$LT$impl$u20$core..clone..Clone$u20$for$u20$$RF$T$GT$5clone17h2ff53155b3f8e335E	00000000 .text._ZN4core5clone5impls54_$LT$impl$u20$core..clone..Clone$u20$for$u20$$RF$T$GT$5clone17h2ff53155b3f8e335E
00000000 l    d  .debug_abbrev	00000000 .debug_abbrev
00000000 l    d  .debug_info	00000000 .debug_info
00000000 l    d  .debug_frame	00000000 .debug_frame
00000000 l    d  .debug_line	00000000 .debug_line
00000000 g     F .text._ZN4core5clone5impls54_$LT$impl$u20$core..clone..Clone$u20$for$u20$$RF$T$GT$5clone17h2ff53155b3f8e335E	0000001a core::clone::impls::<impl core::clone::Clone for &T>::clone



Disassembly of section .text._ZN4core5clone5impls54_$LT$impl$u20$core..clone..Clone$u20$for$u20$$RF$T$GT$5clone17h2ff53155b3f8e335E:

00000000 <core::clone::impls::<impl core::clone::Clone for &T>::clone>:
_ZN4core5clone5impls54_$LT$impl$u20$core..clone..Clone$u20$for$u20$$RF$T$GT$5clone17h2ff53155b3f8e335E():
/rustc/50a0defd5a93523067ef239936cc2e0755220904/src/libcore/clone.rs:210
   0:	b083      	sub	sp, #12
   2:	4601      	mov	r1, r0
   4:	9002      	str	r0, [sp, #8]
/rustc/50a0defd5a93523067ef239936cc2e0755220904/src/libcore/clone.rs:211
   6:	9802      	ldr	r0, [sp, #8]
   8:	6802      	ldr	r2, [r0, #0]
   a:	6840      	ldr	r0, [r0, #4]
/rustc/50a0defd5a93523067ef239936cc2e0755220904/src/libcore/clone.rs:212
   c:	9001      	str	r0, [sp, #4]
   e:	4610      	mov	r0, r2
  10:	9a01      	ldr	r2, [sp, #4]
  12:	9100      	str	r1, [sp, #0]
  14:	4611      	mov	r1, r2
  16:	b003      	add	sp, #12
  18:	4770      	bx	lr

app-e8778d9de5b9c761.2rzl1x1s2lvaj242.rcgu.o:     file format elf32-littlearm

SYMBOL TABLE:
00000000 l    df *ABS*	00000000 2rzl1x1s2lvaj242
00002555 l       .debug_str	00000000 
00003219 l       .debug_str	00000000 
00003220 l       .debug_str	00000000 
00003225 l       .debug_str	00000000 
0000323f l       .debug_str	00000000 
0000324c l       .debug_str	00000000 
0000327c l       .debug_str	00000000 
000032d1 l       .debug_str	00000000 
0000331a l       .debug_str	00000000 
000033d1 l       .debug_str	00000000 
0000347f l       .debug_str	00000000 
0000354a l       .debug_str	00000000 
00003614 l       .debug_str	00000000 
000036d6 l       .debug_str	00000000 
0000377b l       .debug_str	00000000 
000037b0 l       .debug_str	00000000 
00003878 l       .debug_str	00000000 
000038ad l       .debug_str	00000000 
000038eb l       .debug_str	00000000 
00003920 l       .debug_str	00000000 
000039ee l       .debug_str	00000000 
00003a13 l       .debug_str	00000000 
00003a48 l       .debug_str	00000000 
00003a81 l       .debug_str	00000000 
00003a86 l       .debug_str	00000000 
00003b30 l       .debug_str	00000000 
00003b65 l       .debug_str	00000000 
00003c32 l       .debug_str	00000000 
00003c61 l       .debug_str	00000000 
00003c94 l       .debug_str	00000000 
00003cc3 l       .debug_str	00000000 
00003dda l       .debug_str	00000000 
00003e02 l       .debug_str	00000000 
00003e2c l       .debug_str	00000000 
00003e67 l       .debug_str	00000000 
00003e8d l       .debug_str	00000000 
00003f89 l       .debug_str	00000000 
00003f94 l       .debug_str	00000000 
0000403d l       .debug_str	00000000 
000040f6 l       .debug_str	00000000 
00004125 l       .debug_str	00000000 
000041e4 l       .debug_str	00000000 
0000420e l       .debug_str	00000000 
000042cc l       .debug_str	00000000 
000042f9 l       .debug_str	00000000 
00000000 l       .debug_str	00000000 
00000041 l       .debug_str	00000000 
00000055 l       .debug_str	00000000 
00000085 l       .debug_str	00000000 
0000008b l       .debug_str	00000000 
00000092 l       .debug_str	00000000 
00000097 l       .debug_str	00000000 
0000009a l       .debug_str	00000000 
000000a5 l       .debug_str	00000000 
000000ae l       .debug_str	00000000 
000000b3 l       .debug_str	00000000 
000000b8 l       .debug_str	00000000 
000000bf l       .debug_str	00000000 
000000c4 l       .debug_str	00000000 
000000c9 l       .debug_str	00000000 
000000d0 l       .debug_str	00000000 
000000d4 l       .debug_str	00000000 
000000dd l       .debug_str	00000000 
000000e4 l       .debug_str	00000000 
000000e8 l       .debug_str	00000000 
000000ee l       .debug_str	00000000 
000000f4 l       .debug_str	00000000 
000000fc l       .debug_str	00000000 
00000101 l       .debug_str	00000000 
00000105 l       .debug_str	00000000 
00000109 l       .debug_str	00000000 
0000010e l       .debug_str	00000000 
00000112 l       .debug_str	00000000 
00000116 l       .debug_str	00000000 
0000011a l       .debug_str	00000000 
0000012b l       .debug_str	00000000 
00000144 l       .debug_str	00000000 
00000149 l       .debug_str	00000000 
00000184 l       .debug_str	00000000 
000001b0 l       .debug_str	00000000 
000001b9 l       .debug_str	00000000 
000001c0 l       .debug_str	00000000 
000001c2 l       .debug_str	00000000 
000001c6 l       .debug_str	00000000 
000001cd l       .debug_str	00000000 
000001d1 l       .debug_str	00000000 
000001d8 l       .debug_str	00000000 
000001db l       .debug_str	00000000 
000001e1 l       .debug_str	00000000 
000001ef l       .debug_str	00000000 
000001f4 l       .debug_str	00000000 
000001fc l       .debug_str	00000000 
00000204 l       .debug_str	00000000 
00000206 l       .debug_str	00000000 
00000208 l       .debug_str	00000000 
00000224 l       .debug_str	00000000 
0000022c l       .debug_str	00000000 
00000233 l       .debug_str	00000000 
00000243 l       .debug_str	00000000 
00000288 l       .debug_str	00000000 
000002f5 l       .debug_str	00000000 
0000038b l       .debug_str	00000000 
0000044a l       .debug_str	00000000 
00000452 l       .debug_str	00000000 
00000457 l       .debug_str	00000000 
0000045d l       .debug_str	00000000 
00000461 l       .debug_str	00000000 
00000464 l       .debug_str	00000000 
0000048d l       .debug_str	00000000 
000004c3 l       .debug_str	00000000 
000004c5 l       .debug_str	00000000 
000004f2 l       .debug_str	00000000 
000004f5 l       .debug_str	00000000 
00000545 l       .debug_str	00000000 
000005a2 l       .debug_str	00000000 
000005f6 l       .debug_str	00000000 
0000066d l       .debug_str	00000000 
000006f1 l       .debug_str	00000000 
0000076c l       .debug_str	00000000 
0000080a l       .debug_str	00000000 
000008b5 l       .debug_str	00000000 
00000957 l       .debug_str	00000000 
00000a1c l       .debug_str	00000000 
00000aee l       .debug_str	00000000 
00000bb7 l       .debug_str	00000000 
00000ca1 l       .debug_str	00000000 
00000da8 l       .debug_str	00000000 
00000eae l       .debug_str	00000000 
00000eb2 l       .debug_str	00000000 
00000eb8 l       .debug_str	00000000 
00000eba l       .debug_str	00000000 
00000fb8 l       .debug_str	00000000 
000010b9 l       .debug_str	00000000 
000010bb l       .debug_str	00000000 
0000119b l       .debug_str	00000000 
000011a3 l       .debug_str	00000000 
000011af l       .debug_str	00000000 
000011b6 l       .debug_str	00000000 
000011be l       .debug_str	00000000 
000011c6 l       .debug_str	00000000 
000011cd l       .debug_str	00000000 
000011e1 l       .debug_str	00000000 
000011ed l       .debug_str	00000000 
000011f9 l       .debug_str	00000000 
00001203 l       .debug_str	00000000 
0000120c l       .debug_str	00000000 
00001215 l       .debug_str	00000000 
0000121e l       .debug_str	00000000 
00001224 l       .debug_str	00000000 
0000122c l       .debug_str	00000000 
00001238 l       .debug_str	00000000 
00001240 l       .debug_str	00000000 
00001251 l       .debug_str	00000000 
00001263 l       .debug_str	00000000 
0000126c l       .debug_str	00000000 
0000129f l       .debug_str	00000000 
000012d3 l       .debug_str	00000000 
0000131d l       .debug_str	00000000 
00001328 l       .debug_str	00000000 
00001334 l       .debug_str	00000000 
0000133a l       .debug_str	00000000 
0000133f l       .debug_str	00000000 
00001342 l       .debug_str	00000000 
00001346 l       .debug_str	00000000 
00001349 l       .debug_str	00000000 
0000134c l       .debug_str	00000000 
0000134f l       .debug_str	00000000 
00001354 l       .debug_str	00000000 
00001360 l       .debug_str	00000000 
00001365 l       .debug_str	00000000 
0000136c l       .debug_str	00000000 
00001376 l       .debug_str	00000000 
00001381 l       .debug_str	00000000 
0000138e l       .debug_str	00000000 
0000139c l       .debug_str	00000000 
000013a6 l       .debug_str	00000000 
000013b4 l       .debug_str	00000000 
000013be l       .debug_str	00000000 
000013d4 l       .debug_str	00000000 
000013df l       .debug_str	00000000 
000013ea l       .debug_str	00000000 
000013f2 l       .debug_str	00000000 
000013f4 l       .debug_str	00000000 
00001402 l       .debug_str	00000000 
0000141c l       .debug_str	00000000 
00001425 l       .debug_str	00000000 
00001429 l       .debug_str	00000000 
00001461 l       .debug_str	00000000 
0000149c l       .debug_str	00000000 
000014e7 l       .debug_str	00000000 
000014ed l       .debug_str	00000000 
000014f3 l       .debug_str	00000000 
000014fc l       .debug_str	00000000 
00001506 l       .debug_str	00000000 
0000150d l       .debug_str	00000000 
00001512 l       .debug_str	00000000 
0000151b l       .debug_str	00000000 
00001521 l       .debug_str	00000000 
0000155c l       .debug_str	00000000 
00001578 l       .debug_str	00000000 
000015b3 l       .debug_str	00000000 
00001615 l       .debug_str	00000000 
000016c2 l       .debug_str	00000000 
00001721 l       .debug_str	00000000 
0000175c l       .debug_str	00000000 
00001873 l       .debug_str	00000000 
0000187a l       .debug_str	00000000 
0000187d l       .debug_str	00000000 
00001883 l       .debug_str	00000000 
00001888 l       .debug_str	00000000 
00001892 l       .debug_str	00000000 
0000189f l       .debug_str	00000000 
000018a3 l       .debug_str	00000000 
000018af l       .debug_str	00000000 
000019a9 l       .debug_str	00000000 
000019ae l       .debug_str	00000000 
00001abe l       .debug_str	00000000 
00001acd l       .debug_str	00000000 
00001af9 l       .debug_str	00000000 
00001b3e l       .debug_str	00000000 
00001b77 l       .debug_str	00000000 
00001c0e l       .debug_str	00000000 
00001cac l       .debug_str	00000000 
00001d67 l       .debug_str	00000000 
00001e21 l       .debug_str	00000000 
00001ed3 l       .debug_str	00000000 
00001f68 l       .debug_str	00000000 
00002014 l       .debug_str	00000000 
0000201d l       .debug_str	00000000 
00002032 l       .debug_str	00000000 
0000203b l       .debug_str	00000000 
0000204a l       .debug_str	00000000 
00002050 l       .debug_str	00000000 
00002055 l       .debug_str	00000000 
0000205e l       .debug_str	00000000 
00002060 l       .debug_str	00000000 
00002062 l       .debug_str	00000000 
0000206c l       .debug_str	00000000 
00002077 l       .debug_str	00000000 
0000207e l       .debug_str	00000000 
000020b8 l       .debug_str	00000000 
000020c4 l       .debug_str	00000000 
000020f9 l       .debug_str	00000000 
00002130 l       .debug_str	00000000 
00002165 l       .debug_str	00000000 
0000219e l       .debug_str	00000000 
000021ab l       .debug_str	00000000 
000021e0 l       .debug_str	00000000 
0000222a l       .debug_str	00000000 
0000225f l       .debug_str	00000000 
00002294 l       .debug_str	00000000 
0000238b l       .debug_str	00000000 
000023c0 l       .debug_str	00000000 
000024cb l       .debug_str	00000000 
000024d1 l       .debug_str	00000000 
00002506 l       .debug_str	00000000 
00002520 l       .debug_str	00000000 
0000260d l       .debug_str	00000000 
00002611 l       .debug_str	00000000 
0000261e l       .debug_str	00000000 
00002628 l       .debug_str	00000000 
00002631 l       .debug_str	00000000 
0000263a l       .debug_str	00000000 
00002646 l       .debug_str	00000000 
0000264c l       .debug_str	00000000 
00002656 l       .debug_str	00000000 
00002665 l       .debug_str	00000000 
00002667 l       .debug_str	00000000 
000026a0 l       .debug_str	00000000 
000026a7 l       .debug_str	00000000 
000026ae l       .debug_str	00000000 
000026bf l       .debug_str	00000000 
000026fe l       .debug_str	00000000 
00002731 l       .debug_str	00000000 
000027bc l       .debug_str	00000000 
00002893 l       .debug_str	00000000 
000029b6 l       .debug_str	00000000 
00002a2d l       .debug_str	00000000 
00002ab1 l       .debug_str	00000000 
00002b2c l       .debug_str	00000000 
00002bca l       .debug_str	00000000 
00002c75 l       .debug_str	00000000 
00002d17 l       .debug_str	00000000 
00002dfd l       .debug_str	00000000 
00002f00 l       .debug_str	00000000 
00003002 l       .debug_str	00000000 
000030fc l       .debug_str	00000000 
000031d9 l       .debug_str	00000000 
000031e3 l       .debug_str	00000000 
0000320a l       .debug_str	00000000 
0000320f l       .debug_str	00000000 
00003213 l       .debug_str	00000000 
00000000 l     F .text._ZN4core3ptr18real_drop_in_place17h44bc9ed041fbcb59E	00000022 core::ptr::real_drop_in_place
00000000 l     F .text._ZN4core3ptr18real_drop_in_place17h9eb77396cd9100d5E	00000016 core::ptr::real_drop_in_place
00000000 l     F .text._ZN4core3ptr18real_drop_in_place17haaa4ce2a85e6ed90E	00000018 core::ptr::real_drop_in_place
00000000 l    d  .text._ZN4core3ops8function6FnOnce9call_once17h5a242a02f803781aE	00000000 .text._ZN4core3ops8function6FnOnce9call_once17h5a242a02f803781aE
00000000 l    d  .text._ZN4core3ops8function6FnOnce9call_once17h6dfdcaf127bbef75E	00000000 .text._ZN4core3ops8function6FnOnce9call_once17h6dfdcaf127bbef75E
00000000 l    d  .text._ZN4core3ops8function6FnOnce9call_once17ha6d105a3560d2bf3E	00000000 .text._ZN4core3ops8function6FnOnce9call_once17ha6d105a3560d2bf3E
00000000 l    d  .text._ZN4core3ops8function6FnOnce9call_once17hc5a3e11f490748caE	00000000 .text._ZN4core3ops8function6FnOnce9call_once17hc5a3e11f490748caE
00000000 l    d  .text._ZN4core3ptr18real_drop_in_place17h1a95d131e999654dE	00000000 .text._ZN4core3ptr18real_drop_in_place17h1a95d131e999654dE
00000000 l    d  .text._ZN4core3ptr18real_drop_in_place17h44bc9ed041fbcb59E	00000000 .text._ZN4core3ptr18real_drop_in_place17h44bc9ed041fbcb59E
00000000 l    d  .text._ZN4core3ptr18real_drop_in_place17h551a31265ef5b7c3E	00000000 .text._ZN4core3ptr18real_drop_in_place17h551a31265ef5b7c3E
00000000 l    d  .text._ZN4core3ptr18real_drop_in_place17h6042b6a1f11233b2E	00000000 .text._ZN4core3ptr18real_drop_in_place17h6042b6a1f11233b2E
00000000 l    d  .text._ZN4core3ptr18real_drop_in_place17h69faf714e6fd8538E	00000000 .text._ZN4core3ptr18real_drop_in_place17h69faf714e6fd8538E
00000000 l    d  .text._ZN4core3ptr18real_drop_in_place17h775071cc30c07e6fE	00000000 .text._ZN4core3ptr18real_drop_in_place17h775071cc30c07e6fE
00000000 l    d  .text._ZN4core3ptr18real_drop_in_place17h80b855d8501a4466E	00000000 .text._ZN4core3ptr18real_drop_in_place17h80b855d8501a4466E
00000000 l    d  .text._ZN4core3ptr18real_drop_in_place17h9eb77396cd9100d5E	00000000 .text._ZN4core3ptr18real_drop_in_place17h9eb77396cd9100d5E
00000000 l    d  .text._ZN4core3ptr18real_drop_in_place17haaa4ce2a85e6ed90E	00000000 .text._ZN4core3ptr18real_drop_in_place17haaa4ce2a85e6ed90E
00000000 l    d  .text._ZN4core3ptr18real_drop_in_place17hbdea0e0e1f8528faE	00000000 .text._ZN4core3ptr18real_drop_in_place17hbdea0e0e1f8528faE
00000000 l    d  .text._ZN4core3ptr18real_drop_in_place17hd43566409b7ba1b6E	00000000 .text._ZN4core3ptr18real_drop_in_place17hd43566409b7ba1b6E
00000000 l    d  .text._ZN4core3ptr18real_drop_in_place17hda5543241a23d1ceE	00000000 .text._ZN4core3ptr18real_drop_in_place17hda5543241a23d1ceE
00000000 l    d  .text._ZN4core5clone5Clone5clone17h74071f7e1ba09d80E	00000000 .text._ZN4core5clone5Clone5clone17h74071f7e1ba09d80E
00000000 l    d  .text._ZN4core5clone5Clone5clone17h75caca6a64f2b33bE	00000000 .text._ZN4core5clone5Clone5clone17h75caca6a64f2b33bE
00000000 l    d  .debug_abbrev	00000000 .debug_abbrev
00000000 l    d  .debug_info	00000000 .debug_info
00000000 l    d  .debug_ranges	00000000 .debug_ranges
00000000 l    d  .debug_frame	00000000 .debug_frame
00000000 l    d  .debug_line	00000000 .debug_line
00000000         *UND*	00000000 druid_shell::window::WindowHandle
00000000         *UND*	00000000 .hidden app::hello::ui_builder::{{closure}}
00000000         *UND*	00000000 .hidden app::hello::ui_builder::{{closure}}
00000000 g     F .text._ZN4core3ops8function6FnOnce9call_once17h5a242a02f803781aE	00000032 .hidden core::ops::function::FnOnce::call_once
00000000 g     F .text._ZN4core3ops8function6FnOnce9call_once17h6dfdcaf127bbef75E	00000036 .hidden core::ops::function::FnOnce::call_once
00000000 g     F .text._ZN4core3ops8function6FnOnce9call_once17ha6d105a3560d2bf3E	00000026 .hidden core::ops::function::FnOnce::call_once
00000000 g     F .text._ZN4core3ops8function6FnOnce9call_once17hc5a3e11f490748caE	0000002c .hidden core::ops::function::FnOnce::call_once
00000000 g     F .text._ZN4core3ptr18real_drop_in_place17h1a95d131e999654dE	00000016 .hidden core::ptr::real_drop_in_place
00000000 g     F .text._ZN4core3ptr18real_drop_in_place17h551a31265ef5b7c3E	0000000c .hidden core::ptr::real_drop_in_place
00000000 g     F .text._ZN4core3ptr18real_drop_in_place17h6042b6a1f11233b2E	00000018 .hidden core::ptr::real_drop_in_place
00000000 g     F .text._ZN4core3ptr18real_drop_in_place17h69faf714e6fd8538E	0000000c .hidden core::ptr::real_drop_in_place
00000000 g     F .text._ZN4core3ptr18real_drop_in_place17h775071cc30c07e6fE	0000000c .hidden core::ptr::real_drop_in_place
00000000 g     F .text._ZN4core3ptr18real_drop_in_place17h80b855d8501a4466E	00000016 .hidden core::ptr::real_drop_in_place
00000000 g     F .text._ZN4core3ptr18real_drop_in_place17hbdea0e0e1f8528faE	00000022 .hidden core::ptr::real_drop_in_place
00000000 g     F .text._ZN4core3ptr18real_drop_in_place17hd43566409b7ba1b6E	0000000c .hidden core::ptr::real_drop_in_place
00000000 g     F .text._ZN4core3ptr18real_drop_in_place17hda5543241a23d1ceE	0000001e .hidden core::ptr::real_drop_in_place
00000000 g     F .text._ZN4core5clone5Clone5clone17h74071f7e1ba09d80E	00000036 .hidden core::clone::Clone::clone
00000000 g     F .text._ZN4core5clone5Clone5clone17h75caca6a64f2b33bE	00000010 .hidden core::clone::Clone::clone
00000000         *UND*	00000000 core::clone::impls::<impl core::clone::Clone for &T>::clone
00000000         *UND*	00000000 <T as core::convert::Into<U>>::into
00000000         *UND*	00000000 <heapless::vec::Vec<T,N> as core::ops::drop::Drop>::drop
00000000         *UND*	00000000 <heapless::vec::Vec<T,N> as core::ops::drop::Drop>::drop
00000000         *UND*	00000000 <druid::localization::ArgSource<T> as core::clone::Clone>::clone
00000000         *UND*	00000000 <heapless::vec::IntoIter<T,N> as core::ops::drop::Drop>::drop



Disassembly of section .text._ZN4core3ops8function6FnOnce9call_once17h5a242a02f803781aE:

00000000 <core::ops::function::FnOnce::call_once>:
_ZN4core3ops8function6FnOnce9call_once17h5a242a02f803781aE():
/rustc/50a0defd5a93523067ef239936cc2e0755220904/src/libcore/ops/function.rs:231
   0:	b510      	push	{r4, lr}
   2:	b088      	sub	sp, #32
   4:	4613      	mov	r3, r2
   6:	468c      	mov	ip, r1
   8:	4686      	mov	lr, r0
   a:	9106      	str	r1, [sp, #24]
   c:	9207      	str	r2, [sp, #28]
   e:	9a06      	ldr	r2, [sp, #24]
  10:	9907      	ldr	r1, [sp, #28]
  12:	ac05      	add	r4, sp, #20
  14:	9104      	str	r1, [sp, #16]
  16:	4621      	mov	r1, r4
  18:	9c04      	ldr	r4, [sp, #16]
  1a:	9303      	str	r3, [sp, #12]
  1c:	4623      	mov	r3, r4
  1e:	f8cd c008 	str.w	ip, [sp, #8]
  22:	f8cd e004 	str.w	lr, [sp, #4]
  26:	f7ff fffe 	bl	0 <app::hello::ui_builder::{{closure}}>
  2a:	e7ff      	b.n	2c <core::ops::function::FnOnce::call_once+0x2c>
  2c:	e7ff      	b.n	2e <core::ops::function::FnOnce::call_once+0x2e>
  2e:	b008      	add	sp, #32
  30:	bd10      	pop	{r4, pc}

Disassembly of section .text._ZN4core3ops8function6FnOnce9call_once17h6dfdcaf127bbef75E:

00000000 <core::ops::function::FnOnce::call_once>:
_ZN4core3ops8function6FnOnce9call_once17h6dfdcaf127bbef75E():
/rustc/50a0defd5a93523067ef239936cc2e0755220904/src/libcore/ops/function.rs:231
   0:	b510      	push	{r4, lr}
   2:	b088      	sub	sp, #32
   4:	4613      	mov	r3, r2
   6:	468c      	mov	ip, r1
   8:	4686      	mov	lr, r0
   a:	9005      	str	r0, [sp, #20]
   c:	9106      	str	r1, [sp, #24]
   e:	9207      	str	r2, [sp, #28]
  10:	9905      	ldr	r1, [sp, #20]
  12:	9a06      	ldr	r2, [sp, #24]
  14:	9807      	ldr	r0, [sp, #28]
  16:	ac04      	add	r4, sp, #16
  18:	9003      	str	r0, [sp, #12]
  1a:	4620      	mov	r0, r4
  1c:	9c03      	ldr	r4, [sp, #12]
  1e:	9302      	str	r3, [sp, #8]
  20:	4623      	mov	r3, r4
  22:	f8cd c004 	str.w	ip, [sp, #4]
  26:	f8cd e000 	str.w	lr, [sp]
  2a:	f7ff fffe 	bl	0 <app::hello::ui_builder::{{closure}}>
  2e:	e7ff      	b.n	30 <core::ops::function::FnOnce::call_once+0x30>
  30:	e7ff      	b.n	32 <core::ops::function::FnOnce::call_once+0x32>
  32:	b008      	add	sp, #32
  34:	bd10      	pop	{r4, pc}

Disassembly of section .text._ZN4core3ops8function6FnOnce9call_once17ha6d105a3560d2bf3E:

00000000 <core::ops::function::FnOnce::call_once>:
_ZN4core3ops8function6FnOnce9call_once17ha6d105a3560d2bf3E():
/rustc/50a0defd5a93523067ef239936cc2e0755220904/src/libcore/ops/function.rs:231
   0:	b580      	push	{r7, lr}
   2:	b088      	sub	sp, #32
   4:	460a      	mov	r2, r1
   6:	4603      	mov	r3, r0
   8:	9006      	str	r0, [sp, #24]
   a:	9107      	str	r1, [sp, #28]
   c:	9806      	ldr	r0, [sp, #24]
   e:	9907      	ldr	r1, [sp, #28]
  10:	9204      	str	r2, [sp, #16]
  12:	9303      	str	r3, [sp, #12]
  14:	f7ff fffe 	bl	0 <<T as core::convert::Into<U>>::into>
  18:	9002      	str	r0, [sp, #8]
  1a:	9101      	str	r1, [sp, #4]
  1c:	e7ff      	b.n	1e <core::ops::function::FnOnce::call_once+0x1e>
  1e:	9802      	ldr	r0, [sp, #8]
  20:	9901      	ldr	r1, [sp, #4]
  22:	b008      	add	sp, #32
  24:	bd80      	pop	{r7, pc}

Disassembly of section .text._ZN4core3ops8function6FnOnce9call_once17hc5a3e11f490748caE:

00000000 <core::ops::function::FnOnce::call_once>:
_ZN4core3ops8function6FnOnce9call_once17hc5a3e11f490748caE():
/rustc/50a0defd5a93523067ef239936cc2e0755220904/src/libcore/ops/function.rs:231
   0:	b580      	push	{r7, lr}
   2:	b086      	sub	sp, #24
   4:	460a      	mov	r2, r1
   6:	4603      	mov	r3, r0
   8:	f8d1 c000 	ldr.w	ip, [r1]
   c:	f8d1 e004 	ldr.w	lr, [r1, #4]
  10:	6889      	ldr	r1, [r1, #8]
  12:	9105      	str	r1, [sp, #20]
  14:	f8cd e010 	str.w	lr, [sp, #16]
  18:	f8cd c00c 	str.w	ip, [sp, #12]
  1c:	a903      	add	r1, sp, #12
  1e:	9201      	str	r2, [sp, #4]
  20:	9300      	str	r3, [sp, #0]
  22:	f7ff fffe 	bl	0 <druid_shell::window::WindowHandle>
  26:	e7ff      	b.n	28 <core::ops::function::FnOnce::call_once+0x28>
  28:	b006      	add	sp, #24
  2a:	bd80      	pop	{r7, pc}

Disassembly of section .text._ZN4core3ptr18real_drop_in_place17h1a95d131e999654dE:

00000000 <core::ptr::real_drop_in_place>:
_ZN4core3ptr18real_drop_in_place17h1a95d131e999654dE():
/rustc/50a0defd5a93523067ef239936cc2e0755220904/src/libcore/ptr.rs:195
   0:	b580      	push	{r7, lr}
   2:	b082      	sub	sp, #8
   4:	4601      	mov	r1, r0
   6:	9001      	str	r0, [sp, #4]
   8:	9801      	ldr	r0, [sp, #4]
   a:	9100      	str	r1, [sp, #0]
   c:	f7ff fffe 	bl	0 <core::ptr::real_drop_in_place>
  10:	e7ff      	b.n	12 <core::ptr::real_drop_in_place+0x12>
  12:	b002      	add	sp, #8
  14:	bd80      	pop	{r7, pc}

Disassembly of section .text._ZN4core3ptr18real_drop_in_place17h44bc9ed041fbcb59E:

00000000 <core::ptr::real_drop_in_place>:
_ZN4core3ptr18real_drop_in_place17h44bc9ed041fbcb59E():
/rustc/50a0defd5a93523067ef239936cc2e0755220904/src/libcore/ptr.rs:195
   0:	b580      	push	{r7, lr}
   2:	b082      	sub	sp, #8
   4:	4601      	mov	r1, r0
   6:	9001      	str	r0, [sp, #4]
   8:	9801      	ldr	r0, [sp, #4]
   a:	6800      	ldr	r0, [r0, #0]
   c:	2800      	cmp	r0, #0
   e:	9100      	str	r1, [sp, #0]
  10:	d002      	beq.n	18 <core::ptr::real_drop_in_place+0x18>
  12:	e7ff      	b.n	14 <core::ptr::real_drop_in_place+0x14>
  14:	b002      	add	sp, #8
  16:	bd80      	pop	{r7, pc}
  18:	9801      	ldr	r0, [sp, #4]
  1a:	3004      	adds	r0, #4
  1c:	f7ff fffe 	bl	0 <core::ptr::real_drop_in_place>
  20:	e7f8      	b.n	14 <core::ptr::real_drop_in_place+0x14>

Disassembly of section .text._ZN4core3ptr18real_drop_in_place17h551a31265ef5b7c3E:

00000000 <core::ptr::real_drop_in_place>:
_ZN4core3ptr18real_drop_in_place17h551a31265ef5b7c3E():
/rustc/50a0defd5a93523067ef239936cc2e0755220904/src/libcore/ptr.rs:195
   0:	b082      	sub	sp, #8
   2:	4601      	mov	r1, r0
   4:	9001      	str	r0, [sp, #4]
   6:	9100      	str	r1, [sp, #0]
   8:	b002      	add	sp, #8
   a:	4770      	bx	lr

Disassembly of section .text._ZN4core3ptr18real_drop_in_place17h6042b6a1f11233b2E:

00000000 <core::ptr::real_drop_in_place>:
_ZN4core3ptr18real_drop_in_place17h6042b6a1f11233b2E():
/rustc/50a0defd5a93523067ef239936cc2e0755220904/src/libcore/ptr.rs:195
   0:	b580      	push	{r7, lr}
   2:	b082      	sub	sp, #8
   4:	4601      	mov	r1, r0
   6:	9001      	str	r0, [sp, #4]
   8:	9801      	ldr	r0, [sp, #4]
   a:	3014      	adds	r0, #20
   c:	9100      	str	r1, [sp, #0]
   e:	f7ff fffe 	bl	0 <core::ptr::real_drop_in_place>
  12:	e7ff      	b.n	14 <core::ptr::real_drop_in_place+0x14>
  14:	b002      	add	sp, #8
  16:	bd80      	pop	{r7, pc}

Disassembly of section .text._ZN4core3ptr18real_drop_in_place17h69faf714e6fd8538E:

00000000 <core::ptr::real_drop_in_place>:
_ZN4core3ptr18real_drop_in_place17h69faf714e6fd8538E():
/rustc/50a0defd5a93523067ef239936cc2e0755220904/src/libcore/ptr.rs:195
   0:	b082      	sub	sp, #8
   2:	4601      	mov	r1, r0
   4:	9001      	str	r0, [sp, #4]
   6:	9100      	str	r1, [sp, #0]
   8:	b002      	add	sp, #8
   a:	4770      	bx	lr

Disassembly of section .text._ZN4core3ptr18real_drop_in_place17h775071cc30c07e6fE:

00000000 <core::ptr::real_drop_in_place>:
_ZN4core3ptr18real_drop_in_place17h775071cc30c07e6fE():
/rustc/50a0defd5a93523067ef239936cc2e0755220904/src/libcore/ptr.rs:195
   0:	b082      	sub	sp, #8
   2:	4601      	mov	r1, r0
   4:	9001      	str	r0, [sp, #4]
   6:	9100      	str	r1, [sp, #0]
   8:	b002      	add	sp, #8
   a:	4770      	bx	lr

Disassembly of section .text._ZN4core3ptr18real_drop_in_place17h80b855d8501a4466E:

00000000 <core::ptr::real_drop_in_place>:
_ZN4core3ptr18real_drop_in_place17h80b855d8501a4466E():
/rustc/50a0defd5a93523067ef239936cc2e0755220904/src/libcore/ptr.rs:195
   0:	b580      	push	{r7, lr}
   2:	b082      	sub	sp, #8
   4:	4601      	mov	r1, r0
   6:	9001      	str	r0, [sp, #4]
   8:	9801      	ldr	r0, [sp, #4]
   a:	9100      	str	r1, [sp, #0]
   c:	f7ff fffe 	bl	0 <<heapless::vec::Vec<T,N> as core::ops::drop::Drop>::drop>
  10:	e7ff      	b.n	12 <core::ptr::real_drop_in_place+0x12>
  12:	b002      	add	sp, #8
  14:	bd80      	pop	{r7, pc}

Disassembly of section .text._ZN4core3ptr18real_drop_in_place17h9eb77396cd9100d5E:

00000000 <core::ptr::real_drop_in_place>:
_ZN4core3ptr18real_drop_in_place17h9eb77396cd9100d5E():
/rustc/50a0defd5a93523067ef239936cc2e0755220904/src/libcore/ptr.rs:195
   0:	b580      	push	{r7, lr}
   2:	b082      	sub	sp, #8
   4:	4601      	mov	r1, r0
   6:	9001      	str	r0, [sp, #4]
   8:	9801      	ldr	r0, [sp, #4]
   a:	9100      	str	r1, [sp, #0]
   c:	f7ff fffe 	bl	0 <<heapless::vec::Vec<T,N> as core::ops::drop::Drop>::drop>
  10:	e7ff      	b.n	12 <core::ptr::real_drop_in_place+0x12>
  12:	b002      	add	sp, #8
  14:	bd80      	pop	{r7, pc}

Disassembly of section .text._ZN4core3ptr18real_drop_in_place17haaa4ce2a85e6ed90E:

00000000 <core::ptr::real_drop_in_place>:
_ZN4core3ptr18real_drop_in_place17haaa4ce2a85e6ed90E():
/rustc/50a0defd5a93523067ef239936cc2e0755220904/src/libcore/ptr.rs:195
   0:	b580      	push	{r7, lr}
   2:	b082      	sub	sp, #8
   4:	4601      	mov	r1, r0
   6:	9001      	str	r0, [sp, #4]
   8:	9801      	ldr	r0, [sp, #4]
   a:	3024      	adds	r0, #36	; 0x24
   c:	9100      	str	r1, [sp, #0]
   e:	f7ff fffe 	bl	0 <core::ptr::real_drop_in_place>
  12:	e7ff      	b.n	14 <core::ptr::real_drop_in_place+0x14>
  14:	b002      	add	sp, #8
  16:	bd80      	pop	{r7, pc}

Disassembly of section .text._ZN4core3ptr18real_drop_in_place17hbdea0e0e1f8528faE:

00000000 <core::ptr::real_drop_in_place>:
_ZN4core3ptr18real_drop_in_place17hbdea0e0e1f8528faE():
/rustc/50a0defd5a93523067ef239936cc2e0755220904/src/libcore/ptr.rs:195
   0:	b580      	push	{r7, lr}
   2:	b082      	sub	sp, #8
   4:	4601      	mov	r1, r0
   6:	9001      	str	r0, [sp, #4]
   8:	9801      	ldr	r0, [sp, #4]
   a:	6800      	ldr	r0, [r0, #0]
   c:	2800      	cmp	r0, #0
   e:	9100      	str	r1, [sp, #0]
  10:	d102      	bne.n	18 <core::ptr::real_drop_in_place+0x18>
  12:	e7ff      	b.n	14 <core::ptr::real_drop_in_place+0x14>
  14:	b002      	add	sp, #8
  16:	bd80      	pop	{r7, pc}
  18:	9801      	ldr	r0, [sp, #4]
  1a:	3004      	adds	r0, #4
  1c:	f7ff fffe 	bl	0 <core::ptr::real_drop_in_place>
  20:	e7f8      	b.n	14 <core::ptr::real_drop_in_place+0x14>

Disassembly of section .text._ZN4core3ptr18real_drop_in_place17hd43566409b7ba1b6E:

00000000 <core::ptr::real_drop_in_place>:
_ZN4core3ptr18real_drop_in_place17hd43566409b7ba1b6E():
/rustc/50a0defd5a93523067ef239936cc2e0755220904/src/libcore/ptr.rs:195
   0:	b082      	sub	sp, #8
   2:	4601      	mov	r1, r0
   4:	9001      	str	r0, [sp, #4]
   6:	9100      	str	r1, [sp, #0]
   8:	b002      	add	sp, #8
   a:	4770      	bx	lr

Disassembly of section .text._ZN4core3ptr18real_drop_in_place17hda5543241a23d1ceE:

00000000 <core::ptr::real_drop_in_place>:
_ZN4core3ptr18real_drop_in_place17hda5543241a23d1ceE():
/rustc/50a0defd5a93523067ef239936cc2e0755220904/src/libcore/ptr.rs:195
   0:	b580      	push	{r7, lr}
   2:	b082      	sub	sp, #8
   4:	4601      	mov	r1, r0
   6:	9001      	str	r0, [sp, #4]
   8:	9801      	ldr	r0, [sp, #4]
   a:	9100      	str	r1, [sp, #0]
   c:	f7ff fffe 	bl	0 <<heapless::vec::IntoIter<T,N> as core::ops::drop::Drop>::drop>
  10:	e001      	b.n	16 <core::ptr::real_drop_in_place+0x16>
  12:	b002      	add	sp, #8
  14:	bd80      	pop	{r7, pc}
  16:	9801      	ldr	r0, [sp, #4]
  18:	f7ff fffe 	bl	0 <core::ptr::real_drop_in_place>
  1c:	e7f9      	b.n	12 <core::ptr::real_drop_in_place+0x12>

Disassembly of section .text._ZN4core5clone5Clone5clone17h74071f7e1ba09d80E:

00000000 <core::clone::Clone::clone>:
_ZN4core5clone5Clone5clone17h74071f7e1ba09d80E():
/rustc/50a0defd5a93523067ef239936cc2e0755220904/src/libcore/clone.rs:122
   0:	b580      	push	{r7, lr}
   2:	b084      	sub	sp, #16
   4:	460a      	mov	r2, r1
   6:	4603      	mov	r3, r0
   8:	9103      	str	r1, [sp, #12]
   a:	9903      	ldr	r1, [sp, #12]
   c:	9002      	str	r0, [sp, #8]
   e:	4608      	mov	r0, r1
  10:	9201      	str	r2, [sp, #4]
  12:	9300      	str	r3, [sp, #0]
  14:	f7ff fffe 	bl	0 <core::clone::impls::<impl core::clone::Clone for &T>::clone>
  18:	9a02      	ldr	r2, [sp, #8]
  1a:	6051      	str	r1, [r2, #4]
  1c:	6010      	str	r0, [r2, #0]
  1e:	e7ff      	b.n	20 <core::clone::Clone::clone+0x20>
  20:	9803      	ldr	r0, [sp, #12]
  22:	3008      	adds	r0, #8
  24:	f7ff fffe 	bl	0 <<druid::localization::ArgSource<T> as core::clone::Clone>::clone>
  28:	f8dd e000 	ldr.w	lr, [sp]
  2c:	f8ce 0008 	str.w	r0, [lr, #8]
  30:	e7ff      	b.n	32 <core::clone::Clone::clone+0x32>
  32:	b004      	add	sp, #16
  34:	bd80      	pop	{r7, pc}

Disassembly of section .text._ZN4core5clone5Clone5clone17h75caca6a64f2b33bE:

00000000 <core::clone::Clone::clone>:
_ZN4core5clone5Clone5clone17h75caca6a64f2b33bE():
/rustc/50a0defd5a93523067ef239936cc2e0755220904/src/libcore/clone.rs:122
   0:	b082      	sub	sp, #8
   2:	4601      	mov	r1, r0
   4:	9001      	str	r0, [sp, #4]
   6:	9801      	ldr	r0, [sp, #4]
   8:	6800      	ldr	r0, [r0, #0]
   a:	9100      	str	r1, [sp, #0]
   c:	b002      	add	sp, #8
   e:	4770      	bx	lr

app-e8778d9de5b9c761.2ygv37sd3w1vipd4.rcgu.o:     file format elf32-littlearm

SYMBOL TABLE:
00000000 l    df *ABS*	00000000 2ygv37sd3w1vipd4
0000010e l       .debug_str	00000000 
00000000 l       .debug_str	00000000 
00000041 l       .debug_str	00000000 
00000055 l       .debug_str	00000000 
00000085 l       .debug_str	00000000 
0000008a l       .debug_str	00000000 
0000008e l       .debug_str	00000000 
000000c8 l       .debug_str	00000000 
0000010c l       .debug_str	00000000 
000000e0 l       .debug_str	00000000 
000000e9 l       .debug_str	00000000 
000000ec l       .debug_str	00000000 
000000f6 l       .debug_str	00000000 
000000fd l       .debug_str	00000000 
00000103 l       .debug_str	00000000 
00000000 l    d  .text._ZN4core3str23from_utf8_unchecked_mut17ha8e228f36c6be651E	00000000 .text._ZN4core3str23from_utf8_unchecked_mut17ha8e228f36c6be651E
00000000 l    d  .debug_abbrev	00000000 .debug_abbrev
00000000 l    d  .debug_info	00000000 .debug_info
00000000 l    d  .debug_frame	00000000 .debug_frame
00000000 l    d  .debug_line	00000000 .debug_line
00000000 g     F .text._ZN4core3str23from_utf8_unchecked_mut17ha8e228f36c6be651E	00000016 .hidden core::str::from_utf8_unchecked_mut



Disassembly of section .text._ZN4core3str23from_utf8_unchecked_mut17ha8e228f36c6be651E:

00000000 <core::str::from_utf8_unchecked_mut>:
_ZN4core3str23from_utf8_unchecked_mut17ha8e228f36c6be651E():
/rustc/50a0defd5a93523067ef239936cc2e0755220904/src/libcore/str/mod.rs:438
   0:	b084      	sub	sp, #16
   2:	460a      	mov	r2, r1
   4:	4603      	mov	r3, r0
   6:	9002      	str	r0, [sp, #8]
   8:	9103      	str	r1, [sp, #12]
/rustc/50a0defd5a93523067ef239936cc2e0755220904/src/libcore/str/mod.rs:439
   a:	9802      	ldr	r0, [sp, #8]
   c:	9903      	ldr	r1, [sp, #12]
/rustc/50a0defd5a93523067ef239936cc2e0755220904/src/libcore/str/mod.rs:440
   e:	9201      	str	r2, [sp, #4]
  10:	9300      	str	r3, [sp, #0]
  12:	b004      	add	sp, #16
  14:	4770      	bx	lr

app-e8778d9de5b9c761.2zcdz361r20d8n2l.rcgu.o:     file format elf32-littlearm

SYMBOL TABLE:
00000000 l    df *ABS*	00000000 2zcdz361r20d8n2l
00000eaa l       .debug_str	00000000 
000011a3 l       .debug_str	00000000 
00001221 l       .debug_str	00000000 
000012b1 l       .debug_str	00000000 
00001300 l       .debug_str	00000000 
00001387 l       .debug_str	00000000 
0000138c l       .debug_str	00000000 
00001390 l       .debug_str	00000000 
00001396 l       .debug_str	00000000 
0000139c l       .debug_str	00000000 
000013a0 l       .debug_str	00000000 
000013b1 l       .debug_str	00000000 
000013bb l       .debug_str	00000000 
000013bf l       .debug_str	00000000 
00000000 l       .debug_str	00000000 
00000041 l       .debug_str	00000000 
00000055 l       .debug_str	00000000 
00000085 l       .debug_str	00000000 
0000008b l       .debug_str	00000000 
00000092 l       .debug_str	00000000 
00000097 l       .debug_str	00000000 
0000009a l       .debug_str	00000000 
000000a5 l       .debug_str	00000000 
000000ae l       .debug_str	00000000 
000000b3 l       .debug_str	00000000 
000000b8 l       .debug_str	00000000 
000000bf l       .debug_str	00000000 
000000c4 l       .debug_str	00000000 
000000c9 l       .debug_str	00000000 
000000d0 l       .debug_str	00000000 
000000d6 l       .debug_str	00000000 
000000df l       .debug_str	00000000 
000000e3 l       .debug_str	00000000 
000000f0 l       .debug_str	00000000 
000000f3 l       .debug_str	00000000 
000000f7 l       .debug_str	00000000 
00000101 l       .debug_str	00000000 
0000010a l       .debug_str	00000000 
00000113 l       .debug_str	00000000 
00000117 l       .debug_str	00000000 
0000011b l       .debug_str	00000000 
0000011d l       .debug_str	00000000 
00000124 l       .debug_str	00000000 
00000128 l       .debug_str	00000000 
0000012f l       .debug_str	00000000 
00000132 l       .debug_str	00000000 
00000138 l       .debug_str	00000000 
00000146 l       .debug_str	00000000 
0000014b l       .debug_str	00000000 
00000153 l       .debug_str	00000000 
0000015b l       .debug_str	00000000 
00000161 l       .debug_str	00000000 
0000016d l       .debug_str	00000000 
00000173 l       .debug_str	00000000 
00000178 l       .debug_str	00000000 
0000017b l       .debug_str	00000000 
0000017f l       .debug_str	00000000 
00000182 l       .debug_str	00000000 
00000185 l       .debug_str	00000000 
00000188 l       .debug_str	00000000 
0000018d l       .debug_str	00000000 
00000199 l       .debug_str	00000000 
0000019e l       .debug_str	00000000 
000001a5 l       .debug_str	00000000 
000001af l       .debug_str	00000000 
000001ba l       .debug_str	00000000 
000001c7 l       .debug_str	00000000 
000001d5 l       .debug_str	00000000 
000001df l       .debug_str	00000000 
000001ed l       .debug_str	00000000 
000001f7 l       .debug_str	00000000 
00000200 l       .debug_str	00000000 
00000202 l       .debug_str	00000000 
0000020e l       .debug_str	00000000 
00000212 l       .debug_str	00000000 
00000218 l       .debug_str	00000000 
00000222 l       .debug_str	00000000 
00000226 l       .debug_str	00000000 
0000022d l       .debug_str	00000000 
0000023e l       .debug_str	00000000 
00000240 l       .debug_str	00000000 
0000024f l       .debug_str	00000000 
00000251 l       .debug_str	00000000 
0000028a l       .debug_str	00000000 
00000291 l       .debug_str	00000000 
00000298 l       .debug_str	00000000 
000002a9 l       .debug_str	00000000 
000002ab l       .debug_str	00000000 
000002ea l       .debug_str	00000000 
000002f2 l       .debug_str	00000000 
00000325 l       .debug_str	00000000 
000003b0 l       .debug_str	00000000 
00000487 l       .debug_str	00000000 
000005aa l       .debug_str	00000000 
000005b2 l       .debug_str	00000000 
000005b7 l       .debug_str	00000000 
000005bd l       .debug_str	00000000 
000005c1 l       .debug_str	00000000 
000005c4 l       .debug_str	00000000 
000005ed l       .debug_str	00000000 
00000623 l       .debug_str	00000000 
00000625 l       .debug_str	00000000 
00000652 l       .debug_str	00000000 
00000655 l       .debug_str	00000000 
000006a5 l       .debug_str	00000000 
00000702 l       .debug_str	00000000 
00000756 l       .debug_str	00000000 
000007cd l       .debug_str	00000000 
00000851 l       .debug_str	00000000 
000008cc l       .debug_str	00000000 
0000096a l       .debug_str	00000000 
00000a15 l       .debug_str	00000000 
00000ab7 l       .debug_str	00000000 
00000b9d l       .debug_str	00000000 
00000ca0 l       .debug_str	00000000 
00000da2 l       .debug_str	00000000 
00000da6 l       .debug_str	00000000 
00000dac l       .debug_str	00000000 
00000dae l       .debug_str	00000000 
00000ea8 l       .debug_str	00000000 
00000f87 l       .debug_str	00000000 
00000f91 l       .debug_str	00000000 
00000fb8 l       .debug_str	00000000 
00000fbd l       .debug_str	00000000 
00000fc1 l       .debug_str	00000000 
00000fc7 l       .debug_str	00000000 
00000fce l       .debug_str	00000000 
00000fd3 l       .debug_str	00000000 
00000fed l       .debug_str	00000000 
00000ff4 l       .debug_str	00000000 
00000ffd l       .debug_str	00000000 
0000100a l       .debug_str	00000000 
0000103a l       .debug_str	00000000 
000010c6 l       .debug_str	00000000 
0000110d l       .debug_str	00000000 
00001116 l       .debug_str	00000000 
00001159 l       .debug_str	00000000 
00001160 l       .debug_str	00000000 
00000000 l    d  .text._ZN103_$LT$core..ops..range..RangeFrom$LT$usize$GT$$u20$as$u20$core..slice..SliceIndex$LT$$u5b$T$u5d$$GT$$GT$9index_mut17h606567cde7451029E	00000000 .text._ZN103_$LT$core..ops..range..RangeFrom$LT$usize$GT$$u20$as$u20$core..slice..SliceIndex$LT$$u5b$T$u5d$$GT$$GT$9index_mut17h606567cde7451029E
00000000 l    d  .text._ZN90_$LT$core..ops..range..RangeFull$u20$as$u20$core..slice..SliceIndex$LT$$u5b$T$u5d$$GT$$GT$9index_mut17hca0257f361317d51E	00000000 .text._ZN90_$LT$core..ops..range..RangeFull$u20$as$u20$core..slice..SliceIndex$LT$$u5b$T$u5d$$GT$$GT$9index_mut17hca0257f361317d51E
00000000 l    d  .text._ZN99_$LT$core..ops..range..Range$LT$usize$GT$$u20$as$u20$core..slice..SliceIndex$LT$$u5b$T$u5d$$GT$$GT$17get_unchecked_mut17h78f463332f19c83bE	00000000 .text._ZN99_$LT$core..ops..range..Range$LT$usize$GT$$u20$as$u20$core..slice..SliceIndex$LT$$u5b$T$u5d$$GT$$GT$17get_unchecked_mut17h78f463332f19c83bE
00000000 l    d  .text._ZN99_$LT$core..ops..range..Range$LT$usize$GT$$u20$as$u20$core..slice..SliceIndex$LT$$u5b$T$u5d$$GT$$GT$9index_mut17h676e29120cc4d0faE	00000000 .text._ZN99_$LT$core..ops..range..Range$LT$usize$GT$$u20$as$u20$core..slice..SliceIndex$LT$$u5b$T$u5d$$GT$$GT$9index_mut17h676e29120cc4d0faE
00000000 l    d  .debug_abbrev	00000000 .debug_abbrev
00000000 l    d  .debug_info	00000000 .debug_info
00000000 l    d  .debug_ranges	00000000 .debug_ranges
00000000 l    d  .debug_frame	00000000 .debug_frame
00000000 l    d  .debug_line	00000000 .debug_line
00000000 g     F .text._ZN103_$LT$core..ops..range..RangeFrom$LT$usize$GT$$u20$as$u20$core..slice..SliceIndex$LT$$u5b$T$u5d$$GT$$GT$9index_mut17h606567cde7451029E	00000050 <core::ops::range::RangeFrom<usize> as core::slice::SliceIndex<[T]>>::index_mut
00000000         *UND*	00000000 core::ptr::<impl *mut T>::add
00000000         *UND*	00000000 core::slice::from_raw_parts_mut
00000000         *UND*	00000000 core::slice::slice_index_len_fail
00000000         *UND*	00000000 core::slice::slice_index_order_fail
00000000         *UND*	00000000 core::slice::<impl [T]>::as_mut_ptr
00000000         *UND*	00000000 core::slice::<impl [T]>::len
00000000 g     F .text._ZN90_$LT$core..ops..range..RangeFull$u20$as$u20$core..slice..SliceIndex$LT$$u5b$T$u5d$$GT$$GT$9index_mut17hca0257f361317d51E	00000016 <core::ops::range::RangeFull as core::slice::SliceIndex<[T]>>::index_mut
00000000 g     F .text._ZN99_$LT$core..ops..range..Range$LT$usize$GT$$u20$as$u20$core..slice..SliceIndex$LT$$u5b$T$u5d$$GT$$GT$17get_unchecked_mut17h78f463332f19c83bE	00000052 <core::ops::range::Range<usize> as core::slice::SliceIndex<[T]>>::get_unchecked_mut
00000000 g     F .text._ZN99_$LT$core..ops..range..Range$LT$usize$GT$$u20$as$u20$core..slice..SliceIndex$LT$$u5b$T$u5d$$GT$$GT$9index_mut17h676e29120cc4d0faE	0000008a <core::ops::range::Range<usize> as core::slice::SliceIndex<[T]>>::index_mut



Disassembly of section .text._ZN103_$LT$core..ops..range..RangeFrom$LT$usize$GT$$u20$as$u20$core..slice..SliceIndex$LT$$u5b$T$u5d$$GT$$GT$9index_mut17h606567cde7451029E:

00000000 <<core::ops::range::RangeFrom<usize> as core::slice::SliceIndex<[T]>>::index_mut>:
_ZN103_$LT$core..ops..range..RangeFrom$LT$usize$GT$$u20$as$u20$core..slice..SliceIndex$LT$$u5b$T$u5d$$GT$$GT$9index_mut17h606567cde7451029E():
/rustc/50a0defd5a93523067ef239936cc2e0755220904/src/libcore/slice/mod.rs:2831
   0:	b580      	push	{r7, lr}
   2:	b08c      	sub	sp, #48	; 0x30
   4:	4613      	mov	r3, r2
   6:	468c      	mov	ip, r1
   8:	4686      	mov	lr, r0
   a:	9007      	str	r0, [sp, #28]
   c:	9108      	str	r1, [sp, #32]
   e:	9209      	str	r2, [sp, #36]	; 0x24
/rustc/50a0defd5a93523067ef239936cc2e0755220904/src/libcore/slice/mod.rs:2832
  10:	9807      	ldr	r0, [sp, #28]
  12:	9908      	ldr	r1, [sp, #32]
  14:	9a09      	ldr	r2, [sp, #36]	; 0x24
  16:	9006      	str	r0, [sp, #24]
  18:	4608      	mov	r0, r1
  1a:	4611      	mov	r1, r2
  1c:	9305      	str	r3, [sp, #20]
  1e:	f8cd c010 	str.w	ip, [sp, #16]
  22:	f8cd e00c 	str.w	lr, [sp, #12]
  26:	f7ff fffe 	bl	0 <core::slice::<impl [T]>::len>
  2a:	9002      	str	r0, [sp, #8]
  2c:	e7ff      	b.n	2e <<core::ops::range::RangeFrom<usize> as core::slice::SliceIndex<[T]>>::index_mut+0x2e>
  2e:	9806      	ldr	r0, [sp, #24]
  30:	900a      	str	r0, [sp, #40]	; 0x28
  32:	9902      	ldr	r1, [sp, #8]
  34:	910b      	str	r1, [sp, #44]	; 0x2c
  36:	9a08      	ldr	r2, [sp, #32]
  38:	9b09      	ldr	r3, [sp, #36]	; 0x24
  3a:	980a      	ldr	r0, [sp, #40]	; 0x28
  3c:	990b      	ldr	r1, [sp, #44]	; 0x2c
  3e:	f7ff fffe 	bl	0 <<core::ops::range::RangeFrom<usize> as core::slice::SliceIndex<[T]>>::index_mut>
  42:	9001      	str	r0, [sp, #4]
  44:	9100      	str	r1, [sp, #0]
  46:	e7ff      	b.n	48 <<core::ops::range::RangeFrom<usize> as core::slice::SliceIndex<[T]>>::index_mut+0x48>
/rustc/50a0defd5a93523067ef239936cc2e0755220904/src/libcore/slice/mod.rs:2833
  48:	9801      	ldr	r0, [sp, #4]
  4a:	9900      	ldr	r1, [sp, #0]
  4c:	b00c      	add	sp, #48	; 0x30
  4e:	bd80      	pop	{r7, pc}

Disassembly of section .text._ZN90_$LT$core..ops..range..RangeFull$u20$as$u20$core..slice..SliceIndex$LT$$u5b$T$u5d$$GT$$GT$9index_mut17hca0257f361317d51E:

00000000 <<core::ops::range::RangeFull as core::slice::SliceIndex<[T]>>::index_mut>:
_ZN90_$LT$core..ops..range..RangeFull$u20$as$u20$core..slice..SliceIndex$LT$$u5b$T$u5d$$GT$$GT$9index_mut17hca0257f361317d51E():
/rustc/50a0defd5a93523067ef239936cc2e0755220904/src/libcore/slice/mod.rs:2866
   0:	b085      	sub	sp, #20
   2:	460a      	mov	r2, r1
   4:	4603      	mov	r3, r0
   6:	9003      	str	r0, [sp, #12]
   8:	9104      	str	r1, [sp, #16]
/rustc/50a0defd5a93523067ef239936cc2e0755220904/src/libcore/slice/mod.rs:2867
   a:	9803      	ldr	r0, [sp, #12]
   c:	9904      	ldr	r1, [sp, #16]
/rustc/50a0defd5a93523067ef239936cc2e0755220904/src/libcore/slice/mod.rs:2868
   e:	9201      	str	r2, [sp, #4]
  10:	9300      	str	r3, [sp, #0]
  12:	b005      	add	sp, #20
  14:	4770      	bx	lr

Disassembly of section .text._ZN99_$LT$core..ops..range..Range$LT$usize$GT$$u20$as$u20$core..slice..SliceIndex$LT$$u5b$T$u5d$$GT$$GT$17get_unchecked_mut17h78f463332f19c83bE:

00000000 <<core::ops::range::Range<usize> as core::slice::SliceIndex<[T]>>::get_unchecked_mut>:
_ZN99_$LT$core..ops..range..Range$LT$usize$GT$$u20$as$u20$core..slice..SliceIndex$LT$$u5b$T$u5d$$GT$$GT$17get_unchecked_mut17h78f463332f19c83bE():
/rustc/50a0defd5a93523067ef239936cc2e0755220904/src/libcore/slice/mod.rs:2737
   0:	b5b0      	push	{r4, r5, r7, lr}
   2:	b08c      	sub	sp, #48	; 0x30
   4:	469c      	mov	ip, r3
   6:	4696      	mov	lr, r2
   8:	460c      	mov	r4, r1
   a:	4605      	mov	r5, r0
   c:	9008      	str	r0, [sp, #32]
   e:	9109      	str	r1, [sp, #36]	; 0x24
  10:	920a      	str	r2, [sp, #40]	; 0x28
  12:	930b      	str	r3, [sp, #44]	; 0x2c
/rustc/50a0defd5a93523067ef239936cc2e0755220904/src/libcore/slice/mod.rs:2738
  14:	980a      	ldr	r0, [sp, #40]	; 0x28
  16:	990b      	ldr	r1, [sp, #44]	; 0x2c
  18:	f8cd c01c 	str.w	ip, [sp, #28]
  1c:	f8cd e018 	str.w	lr, [sp, #24]
  20:	9405      	str	r4, [sp, #20]
  22:	9504      	str	r5, [sp, #16]
  24:	f7ff fffe 	bl	0 <core::slice::<impl [T]>::as_mut_ptr>
  28:	9003      	str	r0, [sp, #12]
  2a:	e7ff      	b.n	2c <<core::ops::range::Range<usize> as core::slice::SliceIndex<[T]>>::get_unchecked_mut+0x2c>
  2c:	9908      	ldr	r1, [sp, #32]
  2e:	9803      	ldr	r0, [sp, #12]
  30:	f7ff fffe 	bl	0 <core::ptr::<impl *mut T>::add>
  34:	9002      	str	r0, [sp, #8]
  36:	e7ff      	b.n	38 <<core::ops::range::Range<usize> as core::slice::SliceIndex<[T]>>::get_unchecked_mut+0x38>
  38:	9808      	ldr	r0, [sp, #32]
  3a:	9909      	ldr	r1, [sp, #36]	; 0x24
  3c:	1a09      	subs	r1, r1, r0
  3e:	9802      	ldr	r0, [sp, #8]
  40:	f7ff fffe 	bl	0 <core::slice::from_raw_parts_mut>
  44:	9001      	str	r0, [sp, #4]
  46:	9100      	str	r1, [sp, #0]
  48:	e7ff      	b.n	4a <<core::ops::range::Range<usize> as core::slice::SliceIndex<[T]>>::get_unchecked_mut+0x4a>
/rustc/50a0defd5a93523067ef239936cc2e0755220904/src/libcore/slice/mod.rs:2739
  4a:	9801      	ldr	r0, [sp, #4]
  4c:	9900      	ldr	r1, [sp, #0]
  4e:	b00c      	add	sp, #48	; 0x30
  50:	bdb0      	pop	{r4, r5, r7, pc}

Disassembly of section .text._ZN99_$LT$core..ops..range..Range$LT$usize$GT$$u20$as$u20$core..slice..SliceIndex$LT$$u5b$T$u5d$$GT$$GT$9index_mut17h676e29120cc4d0faE:

00000000 <<core::ops::range::Range<usize> as core::slice::SliceIndex<[T]>>::index_mut>:
_ZN99_$LT$core..ops..range..Range$LT$usize$GT$$u20$as$u20$core..slice..SliceIndex$LT$$u5b$T$u5d$$GT$$GT$9index_mut17h676e29120cc4d0faE():
/rustc/50a0defd5a93523067ef239936cc2e0755220904/src/libcore/slice/mod.rs:2754
   0:	b5b0      	push	{r4, r5, r7, lr}
   2:	b08e      	sub	sp, #56	; 0x38
   4:	469c      	mov	ip, r3
   6:	4696      	mov	lr, r2
   8:	460c      	mov	r4, r1
   a:	4605      	mov	r5, r0
   c:	900a      	str	r0, [sp, #40]	; 0x28
   e:	910b      	str	r1, [sp, #44]	; 0x2c
  10:	920c      	str	r2, [sp, #48]	; 0x30
  12:	930d      	str	r3, [sp, #52]	; 0x34
/rustc/50a0defd5a93523067ef239936cc2e0755220904/src/libcore/slice/mod.rs:2755
  14:	980a      	ldr	r0, [sp, #40]	; 0x28
  16:	990b      	ldr	r1, [sp, #44]	; 0x2c
  18:	4288      	cmp	r0, r1
  1a:	f8cd c024 	str.w	ip, [sp, #36]	; 0x24
  1e:	f8cd e020 	str.w	lr, [sp, #32]
  22:	9407      	str	r4, [sp, #28]
  24:	9506      	str	r5, [sp, #24]
  26:	d905      	bls.n	34 <<core::ops::range::Range<usize> as core::slice::SliceIndex<[T]>>::index_mut+0x34>
  28:	e7ff      	b.n	2a <<core::ops::range::Range<usize> as core::slice::SliceIndex<[T]>>::index_mut+0x2a>
/rustc/50a0defd5a93523067ef239936cc2e0755220904/src/libcore/slice/mod.rs:2756
  2a:	980a      	ldr	r0, [sp, #40]	; 0x28
  2c:	990b      	ldr	r1, [sp, #44]	; 0x2c
  2e:	f7ff fffe 	bl	0 <core::slice::slice_index_order_fail>
  32:	defe      	udf	#254	; 0xfe
/rustc/50a0defd5a93523067ef239936cc2e0755220904/src/libcore/slice/mod.rs:2757
  34:	980b      	ldr	r0, [sp, #44]	; 0x2c
  36:	990c      	ldr	r1, [sp, #48]	; 0x30
  38:	9a0d      	ldr	r2, [sp, #52]	; 0x34
  3a:	9005      	str	r0, [sp, #20]
  3c:	4608      	mov	r0, r1
  3e:	4611      	mov	r1, r2
  40:	f7ff fffe 	bl	0 <core::slice::<impl [T]>::len>
  44:	9004      	str	r0, [sp, #16]
  46:	e7ff      	b.n	48 <<core::ops::range::Range<usize> as core::slice::SliceIndex<[T]>>::index_mut+0x48>
  48:	9805      	ldr	r0, [sp, #20]
  4a:	9904      	ldr	r1, [sp, #16]
  4c:	4288      	cmp	r0, r1
  4e:	d90f      	bls.n	70 <<core::ops::range::Range<usize> as core::slice::SliceIndex<[T]>>::index_mut+0x70>
  50:	e7ff      	b.n	52 <<core::ops::range::Range<usize> as core::slice::SliceIndex<[T]>>::index_mut+0x52>
/rustc/50a0defd5a93523067ef239936cc2e0755220904/src/libcore/slice/mod.rs:2758
  52:	980b      	ldr	r0, [sp, #44]	; 0x2c
  54:	990c      	ldr	r1, [sp, #48]	; 0x30
  56:	9a0d      	ldr	r2, [sp, #52]	; 0x34
  58:	9003      	str	r0, [sp, #12]
  5a:	4608      	mov	r0, r1
  5c:	4611      	mov	r1, r2
  5e:	f7ff fffe 	bl	0 <core::slice::<impl [T]>::len>
  62:	9002      	str	r0, [sp, #8]
  64:	e7ff      	b.n	66 <<core::ops::range::Range<usize> as core::slice::SliceIndex<[T]>>::index_mut+0x66>
  66:	9803      	ldr	r0, [sp, #12]
  68:	9902      	ldr	r1, [sp, #8]
  6a:	f7ff fffe 	bl	0 <core::slice::slice_index_len_fail>
  6e:	defe      	udf	#254	; 0xfe
/rustc/50a0defd5a93523067ef239936cc2e0755220904/src/libcore/slice/mod.rs:2761
  70:	980a      	ldr	r0, [sp, #40]	; 0x28
  72:	990b      	ldr	r1, [sp, #44]	; 0x2c
  74:	9a0c      	ldr	r2, [sp, #48]	; 0x30
  76:	9b0d      	ldr	r3, [sp, #52]	; 0x34
  78:	f7ff fffe 	bl	0 <<core::ops::range::Range<usize> as core::slice::SliceIndex<[T]>>::index_mut>
  7c:	9001      	str	r0, [sp, #4]
  7e:	9100      	str	r1, [sp, #0]
  80:	e7ff      	b.n	82 <<core::ops::range::Range<usize> as core::slice::SliceIndex<[T]>>::index_mut+0x82>
/rustc/50a0defd5a93523067ef239936cc2e0755220904/src/libcore/slice/mod.rs:2763
  82:	9801      	ldr	r0, [sp, #4]
  84:	9900      	ldr	r1, [sp, #0]
  86:	b00e      	add	sp, #56	; 0x38
  88:	bdb0      	pop	{r4, r5, r7, pc}

app-e8778d9de5b9c761.30rgqsmo7gwuld04.rcgu.o:     file format elf32-littlearm

SYMBOL TABLE:
00000000 l    df *ABS*	00000000 30rgqsmo7gwuld04
0000082c l       .debug_str	00000000 
000007ec l       .debug_str	00000000 
000007f8 l       .debug_str	00000000 
00000800 l       .debug_str	00000000 
00000803 l       .debug_str	00000000 
0000080b l       .debug_str	00000000 
00000812 l       .debug_str	00000000 
00000818 l       .debug_str	00000000 
00000838 l       .debug_str	00000000 
00000844 l       .debug_str	00000000 
0000086b l       .debug_str	00000000 
0000086f l       .debug_str	00000000 
0000089f l       .debug_str	00000000 
000008a9 l       .debug_str	00000000 
000008b4 l       .debug_str	00000000 
000008bb l       .debug_str	00000000 
000008c1 l       .debug_str	00000000 
000008c6 l       .debug_str	00000000 
000008c9 l       .debug_str	00000000 
000008cd l       .debug_str	00000000 
000008d0 l       .debug_str	00000000 
000008d3 l       .debug_str	00000000 
000008d6 l       .debug_str	00000000 
000008db l       .debug_str	00000000 
000008e2 l       .debug_str	00000000 
000008eb l       .debug_str	00000000 
000008f6 l       .debug_str	00000000 
00000903 l       .debug_str	00000000 
00000908 l       .debug_str	00000000 
00000912 l       .debug_str	00000000 
0000093f l       .debug_str	00000000 
00000000 l       .debug_str	00000000 
00000041 l       .debug_str	00000000 
00000055 l       .debug_str	00000000 
00000085 l       .debug_str	00000000 
0000008b l       .debug_str	00000000 
00000097 l       .debug_str	00000000 
000000a0 l       .debug_str	00000000 
000000a8 l       .debug_str	00000000 
000000ad l       .debug_str	00000000 
000000b4 l       .debug_str	00000000 
000000b8 l       .debug_str	00000000 
000000ba l       .debug_str	00000000 
000000cb l       .debug_str	00000000 
000000d9 l       .debug_str	00000000 
000000df l       .debug_str	00000000 
000000e9 l       .debug_str	00000000 
000000f0 l       .debug_str	00000000 
000000f4 l       .debug_str	00000000 
000000fd l       .debug_str	00000000 
0000010f l       .debug_str	00000000 
00000126 l       .debug_str	00000000 
000001dc l       .debug_str	00000000 
000001ed l       .debug_str	00000000 
000002a5 l       .debug_str	00000000 
000002b8 l       .debug_str	00000000 
00000367 l       .debug_str	00000000 
00000372 l       .debug_str	00000000 
00000377 l       .debug_str	00000000 
000003cc l       .debug_str	00000000 
000003e7 l       .debug_str	00000000 
000003ee l       .debug_str	00000000 
000003f3 l       .debug_str	00000000 
000003f8 l       .debug_str	00000000 
0000042b l       .debug_str	00000000 
0000046d l       .debug_str	00000000 
00000476 l       .debug_str	00000000 
000004ba l       .debug_str	00000000 
0000051c l       .debug_str	00000000 
0000052d l       .debug_str	00000000 
0000057b l       .debug_str	00000000 
0000058b l       .debug_str	00000000 
000005d8 l       .debug_str	00000000 
00000628 l       .debug_str	00000000 
00000636 l       .debug_str	00000000 
00000687 l       .debug_str	00000000 
00000696 l       .debug_str	00000000 
0000070c l       .debug_str	00000000 
00000719 l       .debug_str	00000000 
0000071e l       .debug_str	00000000 
00000745 l       .debug_str	00000000 
0000074d l       .debug_str	00000000 
00000778 l       .debug_str	00000000 
0000077d l       .debug_str	00000000 
00000794 l       .debug_str	00000000 
0000079c l       .debug_str	00000000 
000007af l       .debug_str	00000000 
000007e8 l       .debug_str	00000000 
00000000 l     O .rodata.cst32	00000020 .Lanon.7176cb3313e8927fcb4e9a9d709a7653.0
00000000 l    d  .text._ZN142_$LT$druid..win_handler..DruidHandler$LT$T$GT$$u20$as$u20$druid_shell..window..WinHandler$LT$druid..win_handler..DruidHandler$LT$T$GT$$GT$$GT$11add_handler17h62df7657a810e00dE	00000000 .text._ZN142_$LT$druid..win_handler..DruidHandler$LT$T$GT$$u20$as$u20$druid_shell..window..WinHandler$LT$druid..win_handler..DruidHandler$LT$T$GT$$GT$$GT$11add_handler17h62df7657a810e00dE
00000000 l    d  .text._ZN142_$LT$druid..win_handler..DruidHandler$LT$T$GT$$u20$as$u20$druid_shell..window..WinHandler$LT$druid..win_handler..DruidHandler$LT$T$GT$$GT$$GT$13get_window_id17h91b894dbaa5e2088E	00000000 .text._ZN142_$LT$druid..win_handler..DruidHandler$LT$T$GT$$u20$as$u20$druid_shell..window..WinHandler$LT$druid..win_handler..DruidHandler$LT$T$GT$$GT$$GT$13get_window_id17h91b894dbaa5e2088E
00000000 l    d  .text._ZN142_$LT$druid..win_handler..DruidHandler$LT$T$GT$$u20$as$u20$druid_shell..window..WinHandler$LT$druid..win_handler..DruidHandler$LT$T$GT$$GT$$GT$5paint17h0d9728381392b550E	00000000 .text._ZN142_$LT$druid..win_handler..DruidHandler$LT$T$GT$$u20$as$u20$druid_shell..window..WinHandler$LT$druid..win_handler..DruidHandler$LT$T$GT$$GT$$GT$5paint17h0d9728381392b550E
00000000 l    d  .text._ZN5druid11win_handler17AppState$LT$T$GT$21assemble_window_state17h567c3fad86166acbE	00000000 .text._ZN5druid11win_handler17AppState$LT$T$GT$21assemble_window_state17h567c3fad86166acbE
00000000 l    d  .text._ZN5druid11win_handler17AppState$LT$T$GT$3new17hf5f11bbaaf6f346aE	00000000 .text._ZN5druid11win_handler17AppState$LT$T$GT$3new17hf5f11bbaaf6f346aE
00000000 l    d  .text._ZN5druid11win_handler17AppState$LT$T$GT$5paint17h17d8772ec74aa8e8E	00000000 .text._ZN5druid11win_handler17AppState$LT$T$GT$5paint17h17d8772ec74aa8e8E
00000000 l    d  .text._ZN5druid11win_handler17AppState$LT$T$GT$5paint28_$u7b$$u7b$closure$u7d$$u7d$17h59a538875ee00dffE	00000000 .text._ZN5druid11win_handler17AppState$LT$T$GT$5paint28_$u7b$$u7b$closure$u7d$$u7d$17h59a538875ee00dffE
00000000 l    d  .text._ZN5druid11win_handler21DruidHandler$LT$T$GT$10new_shared17h2a3ddbebec08c186E	00000000 .text._ZN5druid11win_handler21DruidHandler$LT$T$GT$10new_shared17h2a3ddbebec08c186E
00000000 l    d  .text._ZN5druid11win_handler26SingleWindowState$LT$T$GT$5paint17hf9e4628e89e7faaeE	00000000 .text._ZN5druid11win_handler26SingleWindowState$LT$T$GT$5paint17hf9e4628e89e7faaeE
00000000 l    d  .text._ZN5druid11win_handler26SingleWindowState$LT$T$GT$8do_paint17hbf8fa7f2b3adf352E	00000000 .text._ZN5druid11win_handler26SingleWindowState$LT$T$GT$8do_paint17hbf8fa7f2b3adf352E
00000000 l    d  .text._ZN5druid11win_handler26SingleWindowState$LT$T$GT$9do_layout17h62e7618a216607efE	00000000 .text._ZN5druid11win_handler26SingleWindowState$LT$T$GT$9do_layout17h62e7618a216607efE
00000000 l    d  .text._ZN84_$LT$druid..win_handler..DruidHandler$LT$T$GT$$u20$as$u20$core..default..Default$GT$7default17h1a038ce87e1f962fE	00000000 .text._ZN84_$LT$druid..win_handler..DruidHandler$LT$T$GT$$u20$as$u20$core..default..Default$GT$7default17h1a038ce87e1f962fE
00000000 l    d  .debug_abbrev	00000000 .debug_abbrev
00000000 l    d  .debug_info	00000000 .debug_info
00000000 l    d  .debug_ranges	00000000 .debug_ranges
00000000 l    d  .debug_frame	00000000 .debug_frame
00000000 l    d  .debug_line	00000000 .debug_line
00000000         *UND*	00000000 <druid::win_handler::AppState<u32> as druid::win_handler::GlobalWindows<u32>>::add_handler
00000000         *UND*	00000000 <druid::win_handler::AppState<u32> as druid::win_handler::GlobalWindows<u32>>::window_paint
00000000         *UND*	00000000 <druid::win_handler::AppState<u32> as druid::win_handler::GlobalWindows<u32>>::window_layout
00000000         *UND*	00000000 <piet_embedded_graphics::context::EmbedRenderContext as piet::render_context::RenderContext>::text
00000000         *UND*	00000000 <piet_embedded_graphics::context::EmbedRenderContext as piet::render_context::RenderContext>::clear
00000000 g     F .text._ZN142_$LT$druid..win_handler..DruidHandler$LT$T$GT$$u20$as$u20$druid_shell..window..WinHandler$LT$druid..win_handler..DruidHandler$LT$T$GT$$GT$$GT$11add_handler17h62df7657a810e00dE	00000034 <druid::win_handler::DruidHandler<T> as druid_shell::window::WinHandler<druid::win_handler::DruidHandler<T>>>::add_handler
00000000 g     F .text._ZN142_$LT$druid..win_handler..DruidHandler$LT$T$GT$$u20$as$u20$druid_shell..window..WinHandler$LT$druid..win_handler..DruidHandler$LT$T$GT$$GT$$GT$13get_window_id17h91b894dbaa5e2088E	00000010 <druid::win_handler::DruidHandler<T> as druid_shell::window::WinHandler<druid::win_handler::DruidHandler<T>>>::get_window_id
00000000 g     F .text._ZN142_$LT$druid..win_handler..DruidHandler$LT$T$GT$$u20$as$u20$druid_shell..window..WinHandler$LT$druid..win_handler..DruidHandler$LT$T$GT$$GT$$GT$5paint17h0d9728381392b550E	0000004a <druid::win_handler::DruidHandler<T> as druid_shell::window::WinHandler<druid::win_handler::DruidHandler<T>>>::paint
00000000         *UND*	00000000 core::option::Option<T>::map
00000000         *UND*	00000000 core::option::Option<T>::unwrap_or
00000000         *UND*	00000000 <T as core::convert::Into<U>>::into
00000000 g     F .text._ZN5druid11win_handler17AppState$LT$T$GT$21assemble_window_state17h567c3fad86166acbE	00000022 druid::win_handler::AppState<T>::assemble_window_state
00000000 g     F .text._ZN5druid11win_handler17AppState$LT$T$GT$3new17hf5f11bbaaf6f346aE	00000006 druid::win_handler::AppState<T>::new
00000000 g     F .text._ZN5druid11win_handler17AppState$LT$T$GT$5paint17h17d8772ec74aa8e8E	00000064 druid::win_handler::AppState<T>::paint
00000000 g     F .text._ZN5druid11win_handler17AppState$LT$T$GT$5paint28_$u7b$$u7b$closure$u7d$$u7d$17h59a538875ee00dffE	00000046 druid::win_handler::AppState<T>::paint::{{closure}}
00000000 g     F .text._ZN5druid11win_handler21DruidHandler$LT$T$GT$10new_shared17h2a3ddbebec08c186E	00000012 druid::win_handler::DruidHandler<T>::new_shared
00000000 g     F .text._ZN5druid11win_handler26SingleWindowState$LT$T$GT$5paint17hf9e4628e89e7faaeE	00000044 druid::win_handler::SingleWindowState<T>::paint
00000000 g     F .text._ZN5druid11win_handler26SingleWindowState$LT$T$GT$8do_paint17hbf8fa7f2b3adf352E	0000007e druid::win_handler::SingleWindowState<T>::do_paint
00000000 g     F .text._ZN5druid11win_handler26SingleWindowState$LT$T$GT$9do_layout17h62e7618a216607efE	0000003c druid::win_handler::SingleWindowState<T>::do_layout
00000000         *UND*	00000000 .hidden <druid::window::WindowId as core::default::Default>::default
00000000         *UND*	00000000 <core::marker::PhantomData<T> as core::default::Default>::default
00000000 g     F .text._ZN84_$LT$druid..win_handler..DruidHandler$LT$T$GT$$u20$as$u20$core..default..Default$GT$7default17h1a038ce87e1f962fE	0000001c <druid::win_handler::DruidHandler<T> as core::default::Default>::default



Disassembly of section .text._ZN142_$LT$druid..win_handler..DruidHandler$LT$T$GT$$u20$as$u20$druid_shell..window..WinHandler$LT$druid..win_handler..DruidHandler$LT$T$GT$$GT$$GT$11add_handler17h62df7657a810e00dE:

00000000 <<druid::win_handler::DruidHandler<T> as druid_shell::window::WinHandler<druid::win_handler::DruidHandler<T>>>::add_handler>:
_ZN142_$LT$druid..win_handler..DruidHandler$LT$T$GT$$u20$as$u20$druid_shell..window..WinHandler$LT$druid..win_handler..DruidHandler$LT$T$GT$$GT$$GT$11add_handler17h62df7657a810e00dE():
/Users/Luppy/mynewt/druid-embedded/druid/src/win_handler.rs:954

    fn get_window_id(&self) -> u32 { ////
        self.window_id.0
    }

    fn add_handler(&self, window_id: u32, handler: DruidHandler<T>) { ////
   0:	b580      	push	{r7, lr}
   2:	b088      	sub	sp, #32
   4:	4613      	mov	r3, r2
   6:	468c      	mov	ip, r1
   8:	4686      	mov	lr, r0
   a:	9003      	str	r0, [sp, #12]
   c:	9104      	str	r1, [sp, #16]
   e:	9205      	str	r2, [sp, #20]
/Users/Luppy/mynewt/druid-embedded/druid/src/win_handler.rs:955
        AppState::<T>::new().add_handler(WindowId(window_id), handler);
  10:	9302      	str	r3, [sp, #8]
  12:	f8cd c004 	str.w	ip, [sp, #4]
  16:	f8cd e000 	str.w	lr, [sp]
  1a:	f7ff fffe 	bl	0 <<druid::win_handler::DruidHandler<T> as druid_shell::window::WinHandler<druid::win_handler::DruidHandler<T>>>::add_handler>
  1e:	e7ff      	b.n	20 <<druid::win_handler::DruidHandler<T> as druid_shell::window::WinHandler<druid::win_handler::DruidHandler<T>>>::add_handler+0x20>
  20:	9804      	ldr	r0, [sp, #16]
  22:	9007      	str	r0, [sp, #28]
  24:	9a05      	ldr	r2, [sp, #20]
  26:	9907      	ldr	r1, [sp, #28]
  28:	a806      	add	r0, sp, #24
  2a:	f7ff fffe 	bl	0 <<druid::win_handler::AppState<u32> as druid::win_handler::GlobalWindows<u32>>::add_handler>
  2e:	e7ff      	b.n	30 <<druid::win_handler::DruidHandler<T> as druid_shell::window::WinHandler<druid::win_handler::DruidHandler<T>>>::add_handler+0x30>
/Users/Luppy/mynewt/druid-embedded/druid/src/win_handler.rs:956
    }
  30:	b008      	add	sp, #32
  32:	bd80      	pop	{r7, pc}

Disassembly of section .text._ZN142_$LT$druid..win_handler..DruidHandler$LT$T$GT$$u20$as$u20$druid_shell..window..WinHandler$LT$druid..win_handler..DruidHandler$LT$T$GT$$GT$$GT$13get_window_id17h91b894dbaa5e2088E:

00000000 <<druid::win_handler::DruidHandler<T> as druid_shell::window::WinHandler<druid::win_handler::DruidHandler<T>>>::get_window_id>:
_ZN142_$LT$druid..win_handler..DruidHandler$LT$T$GT$$u20$as$u20$druid_shell..window..WinHandler$LT$druid..win_handler..DruidHandler$LT$T$GT$$GT$$GT$13get_window_id17h91b894dbaa5e2088E():
/Users/Luppy/mynewt/druid-embedded/druid/src/win_handler.rs:950
    fn get_window_id(&self) -> u32 { ////
   0:	b082      	sub	sp, #8
   2:	4601      	mov	r1, r0
   4:	9001      	str	r0, [sp, #4]
/Users/Luppy/mynewt/druid-embedded/druid/src/win_handler.rs:951
        self.window_id.0
   6:	9801      	ldr	r0, [sp, #4]
   8:	6800      	ldr	r0, [r0, #0]
/Users/Luppy/mynewt/druid-embedded/druid/src/win_handler.rs:952
    }
   a:	9100      	str	r1, [sp, #0]
   c:	b002      	add	sp, #8
   e:	4770      	bx	lr

Disassembly of section .text._ZN142_$LT$druid..win_handler..DruidHandler$LT$T$GT$$u20$as$u20$druid_shell..window..WinHandler$LT$druid..win_handler..DruidHandler$LT$T$GT$$GT$$GT$5paint17h0d9728381392b550E:

00000000 <<druid::win_handler::DruidHandler<T> as druid_shell::window::WinHandler<druid::win_handler::DruidHandler<T>>>::paint>:
_ZN142_$LT$druid..win_handler..DruidHandler$LT$T$GT$$u20$as$u20$druid_shell..window..WinHandler$LT$druid..win_handler..DruidHandler$LT$T$GT$$GT$$GT$5paint17h0d9728381392b550E():
/Users/Luppy/mynewt/druid-embedded/druid/src/win_handler.rs:891
    fn paint(&mut self, piet: &mut Piet, ctx: &mut dyn WinCtx) -> bool {
   0:	b5b0      	push	{r4, r5, r7, lr}
   2:	b08c      	sub	sp, #48	; 0x30
   4:	469c      	mov	ip, r3
   6:	4696      	mov	lr, r2
   8:	460c      	mov	r4, r1
   a:	4605      	mov	r5, r0
   c:	9007      	str	r0, [sp, #28]
   e:	9108      	str	r1, [sp, #32]
  10:	9209      	str	r2, [sp, #36]	; 0x24
  12:	930a      	str	r3, [sp, #40]	; 0x28
/Users/Luppy/mynewt/druid-embedded/druid/src/win_handler.rs:892
        AppState::<T>::new().paint(self.window_id, piet, ctx) ////
  14:	f8cd c018 	str.w	ip, [sp, #24]
  18:	f8cd e014 	str.w	lr, [sp, #20]
  1c:	9404      	str	r4, [sp, #16]
  1e:	9503      	str	r5, [sp, #12]
  20:	f7ff fffe 	bl	0 <<druid::win_handler::DruidHandler<T> as druid_shell::window::WinHandler<druid::win_handler::DruidHandler<T>>>::paint>
  24:	e7ff      	b.n	26 <<druid::win_handler::DruidHandler<T> as druid_shell::window::WinHandler<druid::win_handler::DruidHandler<T>>>::paint+0x26>
  26:	9807      	ldr	r0, [sp, #28]
  28:	6801      	ldr	r1, [r0, #0]
  2a:	9a08      	ldr	r2, [sp, #32]
  2c:	9b09      	ldr	r3, [sp, #36]	; 0x24
  2e:	980a      	ldr	r0, [sp, #40]	; 0x28
  30:	46ec      	mov	ip, sp
  32:	f8cc 0000 	str.w	r0, [ip]
  36:	a80b      	add	r0, sp, #44	; 0x2c
  38:	f7ff fffe 	bl	0 <<druid::win_handler::DruidHandler<T> as druid_shell::window::WinHandler<druid::win_handler::DruidHandler<T>>>::paint>
  3c:	9002      	str	r0, [sp, #8]
  3e:	e7ff      	b.n	40 <<druid::win_handler::DruidHandler<T> as druid_shell::window::WinHandler<druid::win_handler::DruidHandler<T>>>::paint+0x40>
/Users/Luppy/mynewt/druid-embedded/druid/src/win_handler.rs:894
    }
  40:	9802      	ldr	r0, [sp, #8]
  42:	f000 0001 	and.w	r0, r0, #1
  46:	b00c      	add	sp, #48	; 0x30
  48:	bdb0      	pop	{r4, r5, r7, pc}

Disassembly of section .text._ZN5druid11win_handler17AppState$LT$T$GT$21assemble_window_state17h567c3fad86166acbE:

00000000 <druid::win_handler::AppState<T>::assemble_window_state>:
_ZN5druid11win_handler17AppState$LT$T$GT$21assemble_window_state17h567c3fad86166acbE():
/Users/Luppy/mynewt/druid-embedded/druid/src/win_handler.rs:635
    fn assemble_window_state(&mut self, window_id: WindowId) -> Option<SingleWindowState<T>> { ////
   0:	b088      	sub	sp, #32
   2:	460a      	mov	r2, r1
   4:	4603      	mov	r3, r0
   6:	9002      	str	r0, [sp, #8]
   8:	9103      	str	r1, [sp, #12]
/Users/Luppy/mynewt/druid-embedded/druid/src/win_handler.rs:638
            window_id, 
   a:	9803      	ldr	r0, [sp, #12]
/Users/Luppy/mynewt/druid-embedded/druid/src/win_handler.rs:637
        Some( SingleWindowState { 
   c:	9006      	str	r0, [sp, #24]
   e:	9806      	ldr	r0, [sp, #24]
  10:	9005      	str	r0, [sp, #20]
  12:	2001      	movs	r0, #1
  14:	9004      	str	r0, [sp, #16]
/Users/Luppy/mynewt/druid-embedded/druid/src/win_handler.rs:651
    }
  16:	9804      	ldr	r0, [sp, #16]
  18:	9905      	ldr	r1, [sp, #20]
  1a:	9201      	str	r2, [sp, #4]
  1c:	9300      	str	r3, [sp, #0]
  1e:	b008      	add	sp, #32
  20:	4770      	bx	lr

Disassembly of section .text._ZN5druid11win_handler17AppState$LT$T$GT$3new17hf5f11bbaaf6f346aE:

00000000 <druid::win_handler::AppState<T>::new>:
_ZN5druid11win_handler17AppState$LT$T$GT$3new17hf5f11bbaaf6f346aE():
/Users/Luppy/mynewt/druid-embedded/druid/src/win_handler.rs:542
    pub(crate) fn new(
   0:	b082      	sub	sp, #8
/Users/Luppy/mynewt/druid-embedded/druid/src/win_handler.rs:557
    }
   2:	b002      	add	sp, #8
   4:	4770      	bx	lr

Disassembly of section .text._ZN5druid11win_handler17AppState$LT$T$GT$5paint17h17d8772ec74aa8e8E:

00000000 <druid::win_handler::AppState<T>::paint>:
_ZN5druid11win_handler17AppState$LT$T$GT$5paint17h17d8772ec74aa8e8E():
/Users/Luppy/mynewt/druid-embedded/druid/src/win_handler.rs:653
    fn paint(&mut self, window_id: WindowId, piet: &mut Piet, ctx: &mut dyn WinCtx) -> bool {
   0:	b570      	push	{r4, r5, r6, lr}
   2:	b090      	sub	sp, #64	; 0x40
   4:	f8dd c050 	ldr.w	ip, [sp, #80]	; 0x50
   8:	469e      	mov	lr, r3
   a:	4614      	mov	r4, r2
   c:	460d      	mov	r5, r1
   e:	4606      	mov	r6, r0
  10:	9009      	str	r0, [sp, #36]	; 0x24
  12:	910a      	str	r1, [sp, #40]	; 0x28
  14:	920b      	str	r2, [sp, #44]	; 0x2c
  16:	930c      	str	r3, [sp, #48]	; 0x30
  18:	f8cd c034 	str.w	ip, [sp, #52]	; 0x34
/Users/Luppy/mynewt/druid-embedded/druid/src/win_handler.rs:654
        self.assemble_window_state(window_id)
  1c:	9809      	ldr	r0, [sp, #36]	; 0x24
  1e:	990a      	ldr	r1, [sp, #40]	; 0x28
  20:	f8cd e020 	str.w	lr, [sp, #32]
  24:	9407      	str	r4, [sp, #28]
  26:	9506      	str	r5, [sp, #24]
  28:	9605      	str	r6, [sp, #20]
  2a:	f7ff fffe 	bl	0 <druid::win_handler::AppState<T>::paint>
  2e:	9004      	str	r0, [sp, #16]
  30:	9103      	str	r1, [sp, #12]
  32:	e7ff      	b.n	34 <druid::win_handler::AppState<T>::paint+0x34>
  34:	a80b      	add	r0, sp, #44	; 0x2c
/Users/Luppy/mynewt/druid-embedded/druid/src/win_handler.rs:655
            .map(|mut win| win.paint(piet, ctx))
  36:	900e      	str	r0, [sp, #56]	; 0x38
  38:	a80c      	add	r0, sp, #48	; 0x30
  3a:	900f      	str	r0, [sp, #60]	; 0x3c
/Users/Luppy/mynewt/druid-embedded/druid/src/win_handler.rs:654
        self.assemble_window_state(window_id)
  3c:	9a0e      	ldr	r2, [sp, #56]	; 0x38
  3e:	9b0f      	ldr	r3, [sp, #60]	; 0x3c
  40:	9804      	ldr	r0, [sp, #16]
  42:	9903      	ldr	r1, [sp, #12]
  44:	f7ff fffe 	bl	0 <core::option::Option<T>::map>
  48:	b2c0      	uxtb	r0, r0
  4a:	9002      	str	r0, [sp, #8]
  4c:	e7ff      	b.n	4e <druid::win_handler::AppState<T>::paint+0x4e>
  4e:	2100      	movs	r1, #0
  50:	9802      	ldr	r0, [sp, #8]
  52:	f7ff fffe 	bl	0 <core::option::Option<T>::unwrap_or>
  56:	9001      	str	r0, [sp, #4]
  58:	e7ff      	b.n	5a <druid::win_handler::AppState<T>::paint+0x5a>
/Users/Luppy/mynewt/druid-embedded/druid/src/win_handler.rs:657
    }
  5a:	9801      	ldr	r0, [sp, #4]
  5c:	f000 0001 	and.w	r0, r0, #1
  60:	b010      	add	sp, #64	; 0x40
  62:	bd70      	pop	{r4, r5, r6, pc}

Disassembly of section .text._ZN5druid11win_handler17AppState$LT$T$GT$5paint28_$u7b$$u7b$closure$u7d$$u7d$17h59a538875ee00dffE:

00000000 <druid::win_handler::AppState<T>::paint::{{closure}}>:
_ZN5druid11win_handler17AppState$LT$T$GT$5paint28_$u7b$$u7b$closure$u7d$$u7d$17h59a538875ee00dffE():
/Users/Luppy/mynewt/druid-embedded/druid/src/win_handler.rs:655
            .map(|mut win| win.paint(piet, ctx))
   0:	b5b0      	push	{r4, r5, r7, lr}
   2:	b08a      	sub	sp, #40	; 0x28
   4:	4613      	mov	r3, r2
   6:	468c      	mov	ip, r1
   8:	4686      	mov	lr, r0
   a:	9007      	str	r0, [sp, #28]
   c:	9108      	str	r1, [sp, #32]
   e:	9209      	str	r2, [sp, #36]	; 0x24
  10:	9807      	ldr	r0, [sp, #28]
  12:	9908      	ldr	r1, [sp, #32]
  14:	6800      	ldr	r0, [r0, #0]
  16:	680a      	ldr	r2, [r1, #0]
  18:	6849      	ldr	r1, [r1, #4]
  1a:	ac09      	add	r4, sp, #36	; 0x24
  1c:	9006      	str	r0, [sp, #24]
  1e:	4620      	mov	r0, r4
  20:	9c06      	ldr	r4, [sp, #24]
  22:	9105      	str	r1, [sp, #20]
  24:	4621      	mov	r1, r4
  26:	9d05      	ldr	r5, [sp, #20]
  28:	9304      	str	r3, [sp, #16]
  2a:	462b      	mov	r3, r5
  2c:	f8cd c00c 	str.w	ip, [sp, #12]
  30:	f8cd e008 	str.w	lr, [sp, #8]
  34:	f7ff fffe 	bl	0 <druid::win_handler::AppState<T>::paint::{{closure}}>
  38:	9001      	str	r0, [sp, #4]
  3a:	e7ff      	b.n	3c <druid::win_handler::AppState<T>::paint::{{closure}}+0x3c>
  3c:	9801      	ldr	r0, [sp, #4]
  3e:	f000 0001 	and.w	r0, r0, #1
  42:	b00a      	add	sp, #40	; 0x28
  44:	bdb0      	pop	{r4, r5, r7, pc}

Disassembly of section .text._ZN5druid11win_handler21DruidHandler$LT$T$GT$10new_shared17h2a3ddbebec08c186E:

00000000 <druid::win_handler::DruidHandler<T>::new_shared>:
_ZN5druid11win_handler21DruidHandler$LT$T$GT$10new_shared17h2a3ddbebec08c186E():
/Users/Luppy/mynewt/druid-embedded/druid/src/win_handler.rs:733
    pub(crate) fn new_shared(
   0:	b084      	sub	sp, #16
   2:	4601      	mov	r1, r0
   4:	9001      	str	r0, [sp, #4]
/Users/Luppy/mynewt/druid-embedded/druid/src/win_handler.rs:739
            window_id,
   6:	9801      	ldr	r0, [sp, #4]
/Users/Luppy/mynewt/druid-embedded/druid/src/win_handler.rs:738
        DruidHandler {
   8:	9002      	str	r0, [sp, #8]
/Users/Luppy/mynewt/druid-embedded/druid/src/win_handler.rs:742
    }
   a:	9802      	ldr	r0, [sp, #8]
   c:	9100      	str	r1, [sp, #0]
   e:	b004      	add	sp, #16
  10:	4770      	bx	lr

Disassembly of section .text._ZN5druid11win_handler26SingleWindowState$LT$T$GT$5paint17hf9e4628e89e7faaeE:

00000000 <druid::win_handler::SingleWindowState<T>::paint>:
_ZN5druid11win_handler26SingleWindowState$LT$T$GT$5paint17hf9e4628e89e7faaeE():
/Users/Luppy/mynewt/druid-embedded/druid/src/win_handler.rs:372
    fn paint(&mut self, piet: &mut Piet, ctx: &mut dyn WinCtx) -> bool {
   0:	b5b0      	push	{r4, r5, r7, lr}
   2:	b088      	sub	sp, #32
   4:	469c      	mov	ip, r3
   6:	4696      	mov	lr, r2
   8:	460c      	mov	r4, r1
   a:	4605      	mov	r5, r0
   c:	9004      	str	r0, [sp, #16]
   e:	9105      	str	r1, [sp, #20]
  10:	9206      	str	r2, [sp, #24]
  12:	9307      	str	r3, [sp, #28]
/Users/Luppy/mynewt/druid-embedded/druid/src/win_handler.rs:374
        self.do_layout(piet);
  14:	9804      	ldr	r0, [sp, #16]
  16:	9905      	ldr	r1, [sp, #20]
  18:	f8cd c00c 	str.w	ip, [sp, #12]
  1c:	f8cd e008 	str.w	lr, [sp, #8]
  20:	9401      	str	r4, [sp, #4]
  22:	9500      	str	r5, [sp, #0]
  24:	f7ff fffe 	bl	0 <druid::win_handler::SingleWindowState<T>::paint>
  28:	e7ff      	b.n	2a <druid::win_handler::SingleWindowState<T>::paint+0x2a>
/Users/Luppy/mynewt/druid-embedded/druid/src/win_handler.rs:375
        piet.clear(crate::env::WINDOW_BACKGROUND_COLOR); ////
  2a:	9805      	ldr	r0, [sp, #20]
  2c:	21ff      	movs	r1, #255	; 0xff
  2e:	f7ff fffe 	bl	0 <<piet_embedded_graphics::context::EmbedRenderContext as piet::render_context::RenderContext>::clear>
  32:	e7ff      	b.n	34 <druid::win_handler::SingleWindowState<T>::paint+0x34>
/Users/Luppy/mynewt/druid-embedded/druid/src/win_handler.rs:377
        self.do_paint(piet);
  34:	9804      	ldr	r0, [sp, #16]
  36:	9905      	ldr	r1, [sp, #20]
  38:	f7ff fffe 	bl	0 <druid::win_handler::SingleWindowState<T>::paint>
  3c:	e7ff      	b.n	3e <druid::win_handler::SingleWindowState<T>::paint+0x3e>
  3e:	2000      	movs	r0, #0
/Users/Luppy/mynewt/druid-embedded/druid/src/win_handler.rs:380
    }
  40:	b008      	add	sp, #32
  42:	bdb0      	pop	{r4, r5, r7, pc}

Disassembly of section .text._ZN5druid11win_handler26SingleWindowState$LT$T$GT$8do_paint17hbf8fa7f2b3adf352E:

00000000 <druid::win_handler::SingleWindowState<T>::do_paint>:
_ZN5druid11win_handler26SingleWindowState$LT$T$GT$8do_paint17hbf8fa7f2b3adf352E():
/Users/Luppy/mynewt/druid-embedded/druid/src/win_handler.rs:417
    fn do_paint(&mut self, piet: &mut Piet) {
   0:	e92d 41f0 	stmdb	sp!, {r4, r5, r6, r7, r8, lr}
   4:	b0a2      	sub	sp, #136	; 0x88
   6:	460a      	mov	r2, r1
   8:	4603      	mov	r3, r0
   a:	9004      	str	r0, [sp, #16]
   c:	9105      	str	r1, [sp, #20]
/Users/Luppy/mynewt/druid-embedded/druid/src/win_handler.rs:419
            render_ctx: piet,
   e:	9805      	ldr	r0, [sp, #20]
/Users/Luppy/mynewt/druid-embedded/druid/src/win_handler.rs:420
            window_id: self.window_id,
  10:	9904      	ldr	r1, [sp, #16]
  12:	6809      	ldr	r1, [r1, #0]
/Users/Luppy/mynewt/druid-embedded/druid/src/win_handler.rs:421
            region: Rect::ZERO.into(),
  14:	f240 0c00 	movw	ip, #0
  18:	f2c0 0c00 	movt	ip, #0
  1c:	f10d 0e68 	add.w	lr, sp, #104	; 0x68
  20:	4674      	mov	r4, lr
  22:	e8bc 01e0 	ldmia.w	ip!, {r5, r6, r7, r8}
  26:	e8a4 01e0 	stmia.w	r4!, {r5, r6, r7, r8}
  2a:	e89c 01e0 	ldmia.w	ip, {r5, r6, r7, r8}
  2e:	e884 01e0 	stmia.w	r4, {r5, r6, r7, r8}
  32:	f10d 0c40 	add.w	ip, sp, #64	; 0x40
  36:	9003      	str	r0, [sp, #12]
  38:	4660      	mov	r0, ip
  3a:	9102      	str	r1, [sp, #8]
  3c:	4671      	mov	r1, lr
  3e:	9201      	str	r2, [sp, #4]
  40:	9300      	str	r3, [sp, #0]
  42:	f7ff fffe 	bl	0 <<T as core::convert::Into<U>>::into>
  46:	e7ff      	b.n	48 <druid::win_handler::SingleWindowState<T>::do_paint+0x48>
/Users/Luppy/mynewt/druid-embedded/druid/src/win_handler.rs:418
        let mut paint_ctx = PaintCtx {
  48:	9803      	ldr	r0, [sp, #12]
  4a:	900e      	str	r0, [sp, #56]	; 0x38
  4c:	9902      	ldr	r1, [sp, #8]
  4e:	910f      	str	r1, [sp, #60]	; 0x3c
  50:	aa10      	add	r2, sp, #64	; 0x40
  52:	ab06      	add	r3, sp, #24
  54:	e8b2 5030 	ldmia.w	r2!, {r4, r5, ip, lr}
  58:	e8a3 5030 	stmia.w	r3!, {r4, r5, ip, lr}
  5c:	e892 5030 	ldmia.w	r2, {r4, r5, ip, lr}
  60:	e883 5030 	stmia.w	r3, {r4, r5, ip, lr}
/Users/Luppy/mynewt/druid-embedded/druid/src/win_handler.rs:423
        AppState::<T>::new().window_paint(self.window_id, &mut paint_ctx); ////
  64:	f7ff fffe 	bl	0 <druid::win_handler::SingleWindowState<T>::do_paint>
  68:	e7ff      	b.n	6a <druid::win_handler::SingleWindowState<T>::do_paint+0x6a>
  6a:	9804      	ldr	r0, [sp, #16]
  6c:	6801      	ldr	r1, [r0, #0]
  6e:	a819      	add	r0, sp, #100	; 0x64
  70:	aa06      	add	r2, sp, #24
  72:	f7ff fffe 	bl	0 <<druid::win_handler::AppState<u32> as druid::win_handler::GlobalWindows<u32>>::window_paint>
  76:	e7ff      	b.n	78 <druid::win_handler::SingleWindowState<T>::do_paint+0x78>
/Users/Luppy/mynewt/druid-embedded/druid/src/win_handler.rs:425
    }
  78:	b022      	add	sp, #136	; 0x88
  7a:	e8bd 81f0 	ldmia.w	sp!, {r4, r5, r6, r7, r8, pc}

Disassembly of section .text._ZN5druid11win_handler26SingleWindowState$LT$T$GT$9do_layout17h62e7618a216607efE:

00000000 <druid::win_handler::SingleWindowState<T>::do_layout>:
_ZN5druid11win_handler26SingleWindowState$LT$T$GT$9do_layout17h62e7618a216607efE():
/Users/Luppy/mynewt/druid-embedded/druid/src/win_handler.rs:408
    fn do_layout(&mut self, piet: &mut Piet) {
   0:	b580      	push	{r7, lr}
   2:	b088      	sub	sp, #32
   4:	460a      	mov	r2, r1
   6:	4603      	mov	r3, r0
   8:	9003      	str	r0, [sp, #12]
   a:	9104      	str	r1, [sp, #16]
/Users/Luppy/mynewt/druid-embedded/druid/src/win_handler.rs:410
            text_factory: piet.text(),
   c:	9804      	ldr	r0, [sp, #16]
   e:	9202      	str	r2, [sp, #8]
  10:	9301      	str	r3, [sp, #4]
  12:	f7ff fffe 	bl	0 <<piet_embedded_graphics::context::EmbedRenderContext as piet::render_context::RenderContext>::text>
  16:	9000      	str	r0, [sp, #0]
  18:	e7ff      	b.n	1a <druid::win_handler::SingleWindowState<T>::do_layout+0x1a>
/Users/Luppy/mynewt/druid-embedded/druid/src/win_handler.rs:411
            window_id: self.window_id,
  1a:	9803      	ldr	r0, [sp, #12]
  1c:	6800      	ldr	r0, [r0, #0]
/Users/Luppy/mynewt/druid-embedded/druid/src/win_handler.rs:409
        let mut layout_ctx = LayoutCtx {
  1e:	9900      	ldr	r1, [sp, #0]
  20:	9105      	str	r1, [sp, #20]
  22:	9006      	str	r0, [sp, #24]
/Users/Luppy/mynewt/druid-embedded/druid/src/win_handler.rs:413
        AppState::<T>::new().window_layout(self.window_id, &mut layout_ctx); ////
  24:	f7ff fffe 	bl	0 <druid::win_handler::SingleWindowState<T>::do_layout>
  28:	e7ff      	b.n	2a <druid::win_handler::SingleWindowState<T>::do_layout+0x2a>
  2a:	9803      	ldr	r0, [sp, #12]
  2c:	6801      	ldr	r1, [r0, #0]
  2e:	a807      	add	r0, sp, #28
  30:	aa05      	add	r2, sp, #20
  32:	f7ff fffe 	bl	0 <<druid::win_handler::AppState<u32> as druid::win_handler::GlobalWindows<u32>>::window_layout>
  36:	e7ff      	b.n	38 <druid::win_handler::SingleWindowState<T>::do_layout+0x38>
/Users/Luppy/mynewt/druid-embedded/druid/src/win_handler.rs:415
    }
  38:	b008      	add	sp, #32
  3a:	bd80      	pop	{r7, pc}

Disassembly of section .text._ZN84_$LT$druid..win_handler..DruidHandler$LT$T$GT$$u20$as$u20$core..default..Default$GT$7default17h1a038ce87e1f962fE:

00000000 <<druid::win_handler::DruidHandler<T> as core::default::Default>::default>:
_ZN84_$LT$druid..win_handler..DruidHandler$LT$T$GT$$u20$as$u20$core..default..Default$GT$7default17h1a038ce87e1f962fE():
/Users/Luppy/mynewt/druid-embedded/druid/src/win_handler.rs:248
#[derive(Clone, Default)] ////
   0:	b580      	push	{r7, lr}
   2:	b082      	sub	sp, #8
/Users/Luppy/mynewt/druid-embedded/druid/src/win_handler.rs:255
    window_id: WindowId,
   4:	f7ff fffe 	bl	0 <<druid::window::WindowId as core::default::Default>::default>
   8:	9000      	str	r0, [sp, #0]
   a:	e7ff      	b.n	c <<druid::win_handler::DruidHandler<T> as core::default::Default>::default+0xc>
/Users/Luppy/mynewt/druid-embedded/druid/src/win_handler.rs:256
    phantom: PhantomData<T>,  ////  Needed to do compile-time checking for `Data`
   c:	f7ff fffe 	bl	0 <<core::marker::PhantomData<T> as core::default::Default>::default>
  10:	e7ff      	b.n	12 <<druid::win_handler::DruidHandler<T> as core::default::Default>::default+0x12>
/Users/Luppy/mynewt/druid-embedded/druid/src/win_handler.rs:248
#[derive(Clone, Default)] ////
  12:	9800      	ldr	r0, [sp, #0]
  14:	9001      	str	r0, [sp, #4]
  16:	9801      	ldr	r0, [sp, #4]
  18:	b002      	add	sp, #8
  1a:	bd80      	pop	{r7, pc}

app-e8778d9de5b9c761.30vy158vf52v5anu.rcgu.o:     file format elf32-littlearm

SYMBOL TABLE:
00000000 l    df *ABS*	00000000 30vy158vf52v5anu
00000355 l       .debug_str	00000000 
000001a9 l       .debug_str	00000000 
00000206 l       .debug_str	00000000 
0000025a l       .debug_str	00000000 
000002d1 l       .debug_str	00000000 
000003d0 l       .debug_str	00000000 
00000448 l       .debug_str	00000000 
000004ed l       .debug_str	00000000 
000004f3 l       .debug_str	00000000 
0000056b l       .debug_str	00000000 
00000000 l       .debug_str	00000000 
00000041 l       .debug_str	00000000 
00000055 l       .debug_str	00000000 
00000085 l       .debug_str	00000000 
0000008d l       .debug_str	00000000 
00000092 l       .debug_str	00000000 
0000009b l       .debug_str	00000000 
000000a3 l       .debug_str	00000000 
000000a8 l       .debug_str	00000000 
000000af l       .debug_str	00000000 
000000b3 l       .debug_str	00000000 
000000b9 l       .debug_str	00000000 
000000bd l       .debug_str	00000000 
000000c1 l       .debug_str	00000000 
000000c4 l       .debug_str	00000000 
000000ed l       .debug_str	00000000 
000000ef l       .debug_str	00000000 
00000125 l       .debug_str	00000000 
00000127 l       .debug_str	00000000 
00000129 l       .debug_str	00000000 
00000156 l       .debug_str	00000000 
00000159 l       .debug_str	00000000 
00000000 l    d  .text._ZN85_$LT$typenum..uint..UInt$LT$U$C$B$GT$$u20$as$u20$typenum..marker_traits..Unsigned$GT$8to_usize17hbbe968a96dc5c52bE	00000000 .text._ZN85_$LT$typenum..uint..UInt$LT$U$C$B$GT$$u20$as$u20$typenum..marker_traits..Unsigned$GT$8to_usize17hbbe968a96dc5c52bE
00000000 l    d  .text._ZN85_$LT$typenum..uint..UInt$LT$U$C$B$GT$$u20$as$u20$typenum..marker_traits..Unsigned$GT$8to_usize17hf4a50526d1de9bdcE	00000000 .text._ZN85_$LT$typenum..uint..UInt$LT$U$C$B$GT$$u20$as$u20$typenum..marker_traits..Unsigned$GT$8to_usize17hf4a50526d1de9bdcE
00000000 l    d  .debug_abbrev	00000000 .debug_abbrev
00000000 l    d  .debug_info	00000000 .debug_info
00000000 l    d  .debug_ranges	00000000 .debug_ranges
00000000 l    d  .debug_frame	00000000 .debug_frame
00000000 l    d  .debug_line	00000000 .debug_line
00000000         *UND*	00000000 .hidden core::num::<impl core::convert::From<u8> for usize>::from
00000000         *UND*	00000000 .hidden <typenum::bit::B0 as typenum::marker_traits::Bit>::to_u8
00000000         *UND*	00000000 <typenum::uint::UInt<U,B> as typenum::marker_traits::Unsigned>::to_usize
00000000 g     F .text._ZN85_$LT$typenum..uint..UInt$LT$U$C$B$GT$$u20$as$u20$typenum..marker_traits..Unsigned$GT$8to_usize17hbbe968a96dc5c52bE	00000030 <typenum::uint::UInt<U,B> as typenum::marker_traits::Unsigned>::to_usize
00000000 g     F .text._ZN85_$LT$typenum..uint..UInt$LT$U$C$B$GT$$u20$as$u20$typenum..marker_traits..Unsigned$GT$8to_usize17hf4a50526d1de9bdcE	00000030 <typenum::uint::UInt<U,B> as typenum::marker_traits::Unsigned>::to_usize



Disassembly of section .text._ZN85_$LT$typenum..uint..UInt$LT$U$C$B$GT$$u20$as$u20$typenum..marker_traits..Unsigned$GT$8to_usize17hbbe968a96dc5c52bE:

00000000 <<typenum::uint::UInt<U,B> as typenum::marker_traits::Unsigned>::to_usize>:
_ZN85_$LT$typenum..uint..UInt$LT$U$C$B$GT$$u20$as$u20$typenum..marker_traits..Unsigned$GT$8to_usize17hbbe968a96dc5c52bE():
/Users/Luppy/.cargo/registry/src/github.com-1ecc6299db9ec823/typenum-1.10.0/src/uint.rs:200
    #[inline]
    fn to_u128() -> u128 {
        u128::from(B::to_u8()) | U::to_u128() << 1
    }
    #[inline]
    fn to_usize() -> usize {
   0:	b580      	push	{r7, lr}
   2:	b084      	sub	sp, #16
/Users/Luppy/.cargo/registry/src/github.com-1ecc6299db9ec823/typenum-1.10.0/src/uint.rs:201
        usize::from(B::to_u8()) | U::to_usize() << 1
   4:	f7ff fffe 	bl	0 <<typenum::bit::B0 as typenum::marker_traits::Bit>::to_u8>
   8:	9003      	str	r0, [sp, #12]
   a:	e7ff      	b.n	c <<typenum::uint::UInt<U,B> as typenum::marker_traits::Unsigned>::to_usize+0xc>
   c:	9803      	ldr	r0, [sp, #12]
   e:	f7ff fffe 	bl	0 <core::num::<impl core::convert::From<u8> for usize>::from>
  12:	9002      	str	r0, [sp, #8]
  14:	e7ff      	b.n	16 <<typenum::uint::UInt<U,B> as typenum::marker_traits::Unsigned>::to_usize+0x16>
  16:	f7ff fffe 	bl	0 <<typenum::uint::UInt<U,B> as typenum::marker_traits::Unsigned>::to_usize>
  1a:	9001      	str	r0, [sp, #4]
  1c:	e7ff      	b.n	1e <<typenum::uint::UInt<U,B> as typenum::marker_traits::Unsigned>::to_usize+0x1e>
  1e:	9801      	ldr	r0, [sp, #4]
  20:	0041      	lsls	r1, r0, #1
  22:	9100      	str	r1, [sp, #0]
  24:	e7ff      	b.n	26 <<typenum::uint::UInt<U,B> as typenum::marker_traits::Unsigned>::to_usize+0x26>
  26:	9802      	ldr	r0, [sp, #8]
  28:	9900      	ldr	r1, [sp, #0]
  2a:	4308      	orrs	r0, r1
/Users/Luppy/.cargo/registry/src/github.com-1ecc6299db9ec823/typenum-1.10.0/src/uint.rs:202
    }
  2c:	b004      	add	sp, #16
  2e:	bd80      	pop	{r7, pc}

Disassembly of section .text._ZN85_$LT$typenum..uint..UInt$LT$U$C$B$GT$$u20$as$u20$typenum..marker_traits..Unsigned$GT$8to_usize17hf4a50526d1de9bdcE:

00000000 <<typenum::uint::UInt<U,B> as typenum::marker_traits::Unsigned>::to_usize>:
_ZN85_$LT$typenum..uint..UInt$LT$U$C$B$GT$$u20$as$u20$typenum..marker_traits..Unsigned$GT$8to_usize17hf4a50526d1de9bdcE():
/Users/Luppy/.cargo/registry/src/github.com-1ecc6299db9ec823/typenum-1.10.0/src/uint.rs:200
    fn to_usize() -> usize {
   0:	b580      	push	{r7, lr}
   2:	b084      	sub	sp, #16
/Users/Luppy/.cargo/registry/src/github.com-1ecc6299db9ec823/typenum-1.10.0/src/uint.rs:201
        usize::from(B::to_u8()) | U::to_usize() << 1
   4:	f7ff fffe 	bl	0 <<typenum::bit::B0 as typenum::marker_traits::Bit>::to_u8>
   8:	9003      	str	r0, [sp, #12]
   a:	e7ff      	b.n	c <<typenum::uint::UInt<U,B> as typenum::marker_traits::Unsigned>::to_usize+0xc>
   c:	9803      	ldr	r0, [sp, #12]
   e:	f7ff fffe 	bl	0 <core::num::<impl core::convert::From<u8> for usize>::from>
  12:	9002      	str	r0, [sp, #8]
  14:	e7ff      	b.n	16 <<typenum::uint::UInt<U,B> as typenum::marker_traits::Unsigned>::to_usize+0x16>
  16:	f7ff fffe 	bl	0 <<typenum::uint::UInt<U,B> as typenum::marker_traits::Unsigned>::to_usize>
  1a:	9001      	str	r0, [sp, #4]
  1c:	e7ff      	b.n	1e <<typenum::uint::UInt<U,B> as typenum::marker_traits::Unsigned>::to_usize+0x1e>
  1e:	9801      	ldr	r0, [sp, #4]
  20:	0041      	lsls	r1, r0, #1
  22:	9100      	str	r1, [sp, #0]
  24:	e7ff      	b.n	26 <<typenum::uint::UInt<U,B> as typenum::marker_traits::Unsigned>::to_usize+0x26>
  26:	9802      	ldr	r0, [sp, #8]
  28:	9900      	ldr	r1, [sp, #0]
  2a:	4308      	orrs	r0, r1
/Users/Luppy/.cargo/registry/src/github.com-1ecc6299db9ec823/typenum-1.10.0/src/uint.rs:202
    }
  2c:	b004      	add	sp, #16
  2e:	bd80      	pop	{r7, pc}

app-e8778d9de5b9c761.3a1nswuya333w8hf.rcgu.o:     file format elf32-littlearm

SYMBOL TABLE:
00000000 l    df *ABS*	00000000 3a1nswuya333w8hf
00001e20 l       .debug_str	00000000 
00002404 l       .debug_str	00000000 
000024a2 l       .debug_str	00000000 
0000254d l       .debug_str	00000000 
000025ef l       .debug_str	00000000 
000026d5 l       .debug_str	00000000 
000027d8 l       .debug_str	00000000 
000028da l       .debug_str	00000000 
000029d4 l       .debug_str	00000000 
00002ab1 l       .debug_str	00000000 
00002abb l       .debug_str	00000000 
00002ac1 l       .debug_str	00000000 
00002ad1 l       .debug_str	00000000 
00002b40 l       .debug_str	00000000 
00002bbe l       .debug_str	00000000 
00002bc2 l       .debug_str	00000000 
00002bc7 l       .debug_str	00000000 
00002be9 l       .debug_str	00000000 
00002bf4 l       .debug_str	00000000 
00002bff l       .debug_str	00000000 
00002c25 l       .debug_str	00000000 
00002c30 l       .debug_str	00000000 
00002c4b l       .debug_str	00000000 
00002c54 l       .debug_str	00000000 
00002c7f l       .debug_str	00000000 
00000000 l       .debug_str	00000000 
00000041 l       .debug_str	00000000 
00000055 l       .debug_str	00000000 
00000085 l       .debug_str	00000000 
0000008b l       .debug_str	00000000 
00000092 l       .debug_str	00000000 
00000097 l       .debug_str	00000000 
0000009a l       .debug_str	00000000 
000000a5 l       .debug_str	00000000 
000000ae l       .debug_str	00000000 
000000b3 l       .debug_str	00000000 
000000b8 l       .debug_str	00000000 
000000bf l       .debug_str	00000000 
000000c4 l       .debug_str	00000000 
000000c9 l       .debug_str	00000000 
000000d0 l       .debug_str	00000000 
000000d6 l       .debug_str	00000000 
000000df l       .debug_str	00000000 
000000e2 l       .debug_str	00000000 
000000e6 l       .debug_str	00000000 
000000eb l       .debug_str	00000000 
000000f5 l       .debug_str	00000000 
000000f9 l       .debug_str	00000000 
00000106 l       .debug_str	00000000 
0000010a l       .debug_str	00000000 
00000113 l       .debug_str	00000000 
0000011d l       .debug_str	00000000 
00000124 l       .debug_str	00000000 
0000012a l       .debug_str	00000000 
0000012f l       .debug_str	00000000 
0000013b l       .debug_str	00000000 
00000144 l       .debug_str	00000000 
0000014b l       .debug_str	00000000 
0000014d l       .debug_str	00000000 
00000151 l       .debug_str	00000000 
00000158 l       .debug_str	00000000 
0000015c l       .debug_str	00000000 
00000163 l       .debug_str	00000000 
00000166 l       .debug_str	00000000 
0000016c l       .debug_str	00000000 
0000017a l       .debug_str	00000000 
0000017f l       .debug_str	00000000 
00000187 l       .debug_str	00000000 
0000018f l       .debug_str	00000000 
00000191 l       .debug_str	00000000 
00000193 l       .debug_str	00000000 
000001af l       .debug_str	00000000 
000001b7 l       .debug_str	00000000 
000001be l       .debug_str	00000000 
000001ce l       .debug_str	00000000 
00000213 l       .debug_str	00000000 
00000280 l       .debug_str	00000000 
00000316 l       .debug_str	00000000 
000003d5 l       .debug_str	00000000 
000003dd l       .debug_str	00000000 
000003e2 l       .debug_str	00000000 
000003e8 l       .debug_str	00000000 
000003ec l       .debug_str	00000000 
000003f0 l       .debug_str	00000000 
000003f3 l       .debug_str	00000000 
0000041c l       .debug_str	00000000 
00000452 l       .debug_str	00000000 
00000454 l       .debug_str	00000000 
00000481 l       .debug_str	00000000 
00000484 l       .debug_str	00000000 
000004d4 l       .debug_str	00000000 
00000531 l       .debug_str	00000000 
00000585 l       .debug_str	00000000 
000005fc l       .debug_str	00000000 
00000680 l       .debug_str	00000000 
000006fb l       .debug_str	00000000 
00000799 l       .debug_str	00000000 
00000844 l       .debug_str	00000000 
000008e6 l       .debug_str	00000000 
000009ab l       .debug_str	00000000 
00000a7d l       .debug_str	00000000 
00000b46 l       .debug_str	00000000 
00000c30 l       .debug_str	00000000 
00000d37 l       .debug_str	00000000 
00000e3d l       .debug_str	00000000 
00000e41 l       .debug_str	00000000 
00000e43 l       .debug_str	00000000 
00000f41 l       .debug_str	00000000 
00001042 l       .debug_str	00000000 
00001044 l       .debug_str	00000000 
00001124 l       .debug_str	00000000 
0000121e l       .debug_str	00000000 
00001223 l       .debug_str	00000000 
00001228 l       .debug_str	00000000 
0000122c l       .debug_str	00000000 
00001230 l       .debug_str	00000000 
00001241 l       .debug_str	00000000 
00001351 l       .debug_str	00000000 
00001360 l       .debug_str	00000000 
0000138c l       .debug_str	00000000 
000013d1 l       .debug_str	00000000 
0000140a l       .debug_str	00000000 
000014a1 l       .debug_str	00000000 
0000153f l       .debug_str	00000000 
000015fa l       .debug_str	00000000 
000016b4 l       .debug_str	00000000 
00001766 l       .debug_str	00000000 
000017fb l       .debug_str	00000000 
000018a7 l       .debug_str	00000000 
000018b0 l       .debug_str	00000000 
000018c5 l       .debug_str	00000000 
000018ce l       .debug_str	00000000 
000018dd l       .debug_str	00000000 
000018e3 l       .debug_str	00000000 
000018e8 l       .debug_str	00000000 
000018f1 l       .debug_str	00000000 
000018f3 l       .debug_str	00000000 
000018f7 l       .debug_str	00000000 
000018f9 l       .debug_str	00000000 
00001903 l       .debug_str	00000000 
0000190e l       .debug_str	00000000 
000019b3 l       .debug_str	00000000 
000019bd l       .debug_str	00000000 
000019d5 l       .debug_str	00000000 
00001a14 l       .debug_str	00000000 
00001a47 l       .debug_str	00000000 
00001a8a l       .debug_str	00000000 
00001a9c l       .debug_str	00000000 
00001b07 l       .debug_str	00000000 
00001b12 l       .debug_str	00000000 
00001b82 l       .debug_str	00000000 
00001b8e l       .debug_str	00000000 
00001bff l       .debug_str	00000000 
00001c0c l       .debug_str	00000000 
00001c16 l       .debug_str	00000000 
00001c1a l       .debug_str	00000000 
00001c1c l       .debug_str	00000000 
00001c23 l       .debug_str	00000000 
00001c2a l       .debug_str	00000000 
00001c31 l       .debug_str	00000000 
00001c39 l       .debug_str	00000000 
00001c45 l       .debug_str	00000000 
00001c4c l       .debug_str	00000000 
00001c54 l       .debug_str	00000000 
00001c5c l       .debug_str	00000000 
00001c63 l       .debug_str	00000000 
00001c77 l       .debug_str	00000000 
00001c83 l       .debug_str	00000000 
00001c8f l       .debug_str	00000000 
00001c99 l       .debug_str	00000000 
00001ca2 l       .debug_str	00000000 
00001cab l       .debug_str	00000000 
00001cb4 l       .debug_str	00000000 
00001cba l       .debug_str	00000000 
00001cc2 l       .debug_str	00000000 
00001cce l       .debug_str	00000000 
00001cd6 l       .debug_str	00000000 
00001ce7 l       .debug_str	00000000 
00001cf9 l       .debug_str	00000000 
00001d02 l       .debug_str	00000000 
00001d35 l       .debug_str	00000000 
00001d69 l       .debug_str	00000000 
00001db3 l       .debug_str	00000000 
00001dbe l       .debug_str	00000000 
00001dca l       .debug_str	00000000 
00001dd0 l       .debug_str	00000000 
00001dd5 l       .debug_str	00000000 
00001dd8 l       .debug_str	00000000 
00001ddb l       .debug_str	00000000 
00001dde l       .debug_str	00000000 
00001de1 l       .debug_str	00000000 
00001de6 l       .debug_str	00000000 
00001df2 l       .debug_str	00000000 
00001df7 l       .debug_str	00000000 
00001dfe l       .debug_str	00000000 
00001e08 l       .debug_str	00000000 
00001e13 l       .debug_str	00000000 
00001e2e l       .debug_str	00000000 
00001e38 l       .debug_str	00000000 
00001e46 l       .debug_str	00000000 
00001e50 l       .debug_str	00000000 
00001e66 l       .debug_str	00000000 
00001e71 l       .debug_str	00000000 
00001e7c l       .debug_str	00000000 
00001e84 l       .debug_str	00000000 
00001e92 l       .debug_str	00000000 
00001eac l       .debug_str	00000000 
00001eb5 l       .debug_str	00000000 
00001eef l       .debug_str	00000000 
00001efb l       .debug_str	00000000 
00001f00 l       .debug_str	00000000 
00001f0a l       .debug_str	00000000 
00001f13 l       .debug_str	00000000 
00001f1c l       .debug_str	00000000 
00001f28 l       .debug_str	00000000 
00001f2e l       .debug_str	00000000 
00001f3d l       .debug_str	00000000 
00001f3f l       .debug_str	00000000 
00001f78 l       .debug_str	00000000 
00001f7f l       .debug_str	00000000 
00001f86 l       .debug_str	00000000 
00001f97 l       .debug_str	00000000 
00001fd6 l       .debug_str	00000000 
00002009 l       .debug_str	00000000 
00002094 l       .debug_str	00000000 
0000216b l       .debug_str	00000000 
0000228e l       .debug_str	00000000 
00002305 l       .debug_str	00000000 
00002389 l       .debug_str	00000000 
00000000 l     O .rodata.cst16	00000010 .Lanon.6d5daf31c762ef965dedef4c54148ef9.0
00000000 l     O .rodata..Lanon.6d5daf31c762ef965dedef4c54148ef9.1	0000000f .Lanon.6d5daf31c762ef965dedef4c54148ef9.1
00000000 l    d  .text._ZN133_$LT$druid..widget..label..LabelText$LT$T$GT$$u20$as$u20$core..convert..From$LT$druid..localization..LocalizedString$LT$T$GT$$GT$$GT$4from17h12a0c4b444ac3228E	00000000 .text._ZN133_$LT$druid..widget..label..LabelText$LT$T$GT$$u20$as$u20$core..convert..From$LT$druid..localization..LocalizedString$LT$T$GT$$GT$$GT$4from17h12a0c4b444ac3228E
00000000 l    d  .text._ZN5druid6widget5label14Label$LT$T$GT$3new17h3fefae1d9c98c409E	00000000 .text._ZN5druid6widget5label14Label$LT$T$GT$3new17h3fefae1d9c98c409E
00000000 l    d  .text._ZN5druid6widget5label14Label$LT$T$GT$7aligned17h5cd8f024e9709524E	00000000 .text._ZN5druid6widget5label14Label$LT$T$GT$7aligned17h5cd8f024e9709524E
00000000 l    d  .text._ZN75_$LT$druid..widget..label..Label$LT$T$GT$$u20$as$u20$core..clone..Clone$GT$5clone17h0fcd821ba57ee716E	00000000 .text._ZN75_$LT$druid..widget..label..Label$LT$T$GT$$u20$as$u20$core..clone..Clone$GT$5clone17h0fcd821ba57ee716E
00000000 l    d  .text._ZN79_$LT$druid..widget..label..Label$LT$T$GT$$u20$as$u20$druid..Widget$LT$T$GT$$GT$6get_id17h653efc4962bb6f24E	00000000 .text._ZN79_$LT$druid..widget..label..Label$LT$T$GT$$u20$as$u20$druid..Widget$LT$T$GT$$GT$6get_id17h653efc4962bb6f24E
00000000 l    d  .text._ZN79_$LT$druid..widget..label..Label$LT$T$GT$$u20$as$u20$druid..Widget$LT$T$GT$$GT$7to_type17hc3beb720f7038d5bE	00000000 .text._ZN79_$LT$druid..widget..label..Label$LT$T$GT$$u20$as$u20$druid..Widget$LT$T$GT$$GT$7to_type17hc3beb720f7038d5bE
00000000 l    d  .text._ZN79_$LT$druid..widget..label..LabelText$LT$T$GT$$u20$as$u20$core..clone..Clone$GT$5clone17h7d02a0984c0a15dfE	00000000 .text._ZN79_$LT$druid..widget..label..LabelText$LT$T$GT$$u20$as$u20$core..clone..Clone$GT$5clone17h7d02a0984c0a15dfE
00000000 l    d  .text._ZN95_$LT$druid..widget..label..LabelText$LT$T$GT$$u20$as$u20$core..convert..From$LT$$RF$str$GT$$GT$4from17h0a8ec7071614a627E	00000000 .text._ZN95_$LT$druid..widget..label..LabelText$LT$T$GT$$u20$as$u20$core..convert..From$LT$$RF$str$GT$$GT$4from17h0a8ec7071614a627E
00000000 l    d  .debug_loc	00000000 .debug_loc
00000000 l    d  .debug_abbrev	00000000 .debug_abbrev
00000000 l    d  .debug_info	00000000 .debug_info
00000000 l    d  .debug_ranges	00000000 .debug_ranges
00000000 l    d  .debug_frame	00000000 .debug_frame
00000000 l    d  .debug_line	00000000 .debug_line
00000000 g     F .text._ZN133_$LT$druid..widget..label..LabelText$LT$T$GT$$u20$as$u20$core..convert..From$LT$druid..localization..LocalizedString$LT$T$GT$$GT$$GT$4from17h12a0c4b444ac3228E	0000003c <druid::widget::label::LabelText<T> as core::convert::From<druid::localization::LocalizedString<T>>>::from
00000000         *UND*	00000000 core::ptr::real_drop_in_place
00000000         *UND*	00000000 .hidden core::clone::impls::<impl core::clone::Clone for u32>::clone
00000000         *UND*	00000000 core::result::Result<T,E>::expect
00000000         *UND*	00000000 <T as core::convert::Into<U>>::into
00000000         *UND*	00000000 <T as core::convert::Into<U>>::into
00000000         *UND*	00000000 druid::widget::get_widget_id
00000000 g     F .text._ZN5druid6widget5label14Label$LT$T$GT$3new17h3fefae1d9c98c409E	00000056 druid::widget::label::Label<T>::new
00000000 g     F .text._ZN5druid6widget5label14Label$LT$T$GT$7aligned17h5cd8f024e9709524E	00000080 druid::widget::label::Label<T>::aligned
00000000         *UND*	00000000 .hidden <piet::gradient::UnitPoint as core::clone::Clone>::clone
00000000         *UND*	00000000 <heapless::string::String<N> as core::clone::Clone>::clone
00000000         *UND*	00000000 <heapless::string::String<N> as core::str::FromStr>::from_str
00000000 g     F .text._ZN75_$LT$druid..widget..label..Label$LT$T$GT$$u20$as$u20$core..clone..Clone$GT$5clone17h0fcd821ba57ee716E	0000006a <druid::widget::label::Label<T> as core::clone::Clone>::clone
00000000 g     F .text._ZN79_$LT$druid..widget..label..Label$LT$T$GT$$u20$as$u20$druid..Widget$LT$T$GT$$GT$6get_id17h653efc4962bb6f24E	00000018 <druid::widget::label::Label<T> as druid::Widget<T>>::get_id
00000000 g     F .text._ZN79_$LT$druid..widget..label..Label$LT$T$GT$$u20$as$u20$druid..Widget$LT$T$GT$$GT$7to_type17hc3beb720f7038d5bE	00000040 <druid::widget::label::Label<T> as druid::Widget<T>>::to_type
00000000 g     F .text._ZN79_$LT$druid..widget..label..LabelText$LT$T$GT$$u20$as$u20$core..clone..Clone$GT$5clone17h7d02a0984c0a15dfE	00000072 <druid::widget::label::LabelText<T> as core::clone::Clone>::clone
00000000         *UND*	00000000 <druid::localization::LocalizedString<T> as core::clone::Clone>::clone
00000000 g     F .text._ZN95_$LT$druid..widget..label..LabelText$LT$T$GT$$u20$as$u20$core..convert..From$LT$$RF$str$GT$$GT$4from17h0a8ec7071614a627E	0000004e <druid::widget::label::LabelText<T> as core::convert::From<&str>>::from
00000000         *UND*	00000000 __aeabi_memcpy4
00000000         *UND*	00000000 __aeabi_memcpy8



Disassembly of section .text._ZN133_$LT$druid..widget..label..LabelText$LT$T$GT$$u20$as$u20$core..convert..From$LT$druid..localization..LocalizedString$LT$T$GT$$GT$$GT$4from17h12a0c4b444ac3228E:

00000000 <<druid::widget::label::LabelText<T> as core::convert::From<druid::localization::LocalizedString<T>>>::from>:
_ZN133_$LT$druid..widget..label..LabelText$LT$T$GT$$u20$as$u20$core..convert..From$LT$druid..localization..LocalizedString$LT$T$GT$$GT$$GT$4from17h12a0c4b444ac3228E():
/Users/Luppy/mynewt/druid-embedded/druid/src/widget/label.rs:254
        ////LabelText::Specific(src.to_string())
    }
}

impl<T> From<LocalizedString<T>> for LabelText<T> {
    fn from(src: LocalizedString<T>) -> LabelText<T> {
   0:	b580      	push	{r7, lr}
   2:	b09e      	sub	sp, #120	; 0x78
   4:	460a      	mov	r2, r1
   6:	4603      	mov	r3, r0
   8:	f10d 0c18 	add.w	ip, sp, #24
   c:	f04f 0e60 	mov.w	lr, #96	; 0x60
/Users/Luppy/mynewt/druid-embedded/druid/src/widget/label.rs:255
        LabelText::Localized(src)
  10:	9005      	str	r0, [sp, #20]
  12:	4660      	mov	r0, ip
  14:	9204      	str	r2, [sp, #16]
  16:	4672      	mov	r2, lr
  18:	9303      	str	r3, [sp, #12]
  1a:	f8cd c008 	str.w	ip, [sp, #8]
  1e:	f8cd e004 	str.w	lr, [sp, #4]
  22:	f7ff fffe 	bl	0 <__aeabi_memcpy4>
  26:	9805      	ldr	r0, [sp, #20]
  28:	3004      	adds	r0, #4
  2a:	9902      	ldr	r1, [sp, #8]
  2c:	9a01      	ldr	r2, [sp, #4]
  2e:	f7ff fffe 	bl	0 <__aeabi_memcpy4>
  32:	2000      	movs	r0, #0
  34:	9905      	ldr	r1, [sp, #20]
  36:	6008      	str	r0, [r1, #0]
/Users/Luppy/mynewt/druid-embedded/druid/src/widget/label.rs:256
    }
  38:	b01e      	add	sp, #120	; 0x78
  3a:	bd80      	pop	{r7, pc}

Disassembly of section .text._ZN5druid6widget5label14Label$LT$T$GT$3new17h3fefae1d9c98c409E:

00000000 <druid::widget::label::Label<T>::new>:
_ZN5druid6widget5label14Label$LT$T$GT$3new17h3fefae1d9c98c409E():
/Users/Luppy/mynewt/druid-embedded/druid/src/widget/label.rs:68
    pub fn new(text: impl Into<LabelText<T>>) -> Self {
   0:	b580      	push	{r7, lr}
   2:	b0b6      	sub	sp, #216	; 0xd8
/Users/Luppy/mynewt/druid-embedded/druid/src/widget/label.rs:70
            id: super::get_widget_id(), ////
   4:	9104      	str	r1, [sp, #16]
   6:	9003      	str	r0, [sp, #12]
   8:	f7ff fffe 	bl	0 <druid::widget::get_widget_id>
   c:	9002      	str	r0, [sp, #8]
   e:	e7ff      	b.n	10 <druid::widget::label::Label<T>::new+0x10>
  10:	a81e      	add	r0, sp, #120	; 0x78
  12:	2260      	movs	r2, #96	; 0x60
/Users/Luppy/mynewt/druid-embedded/druid/src/widget/label.rs:71
            text: text.into(),
  14:	9001      	str	r0, [sp, #4]
  16:	9904      	ldr	r1, [sp, #16]
  18:	f7ff fffe 	bl	0 <__aeabi_memcpy4>
  1c:	a805      	add	r0, sp, #20
  1e:	9901      	ldr	r1, [sp, #4]
  20:	f7ff fffe 	bl	0 <<T as core::convert::Into<U>>::into>
  24:	e7ff      	b.n	26 <druid::widget::label::Label<T>::new+0x26>
/Users/Luppy/mynewt/druid-embedded/druid/src/widget/label.rs:69
        Label {
  26:	9802      	ldr	r0, [sp, #8]
  28:	9903      	ldr	r1, [sp, #12]
  2a:	6108      	str	r0, [r1, #16]
  2c:	f101 0014 	add.w	r0, r1, #20
  30:	a905      	add	r1, sp, #20
  32:	2264      	movs	r2, #100	; 0x64
  34:	f7ff fffe 	bl	0 <__aeabi_memcpy4>
  38:	f240 0000 	movw	r0, #0
  3c:	f2c0 0000 	movt	r0, #0
  40:	ed90 0b00 	vldr	d0, [r0]
  44:	ed90 1b02 	vldr	d1, [r0, #8]
  48:	9803      	ldr	r0, [sp, #12]
  4a:	ed80 0b00 	vstr	d0, [r0]
  4e:	ed80 1b02 	vstr	d1, [r0, #8]
/Users/Luppy/mynewt/druid-embedded/druid/src/widget/label.rs:74
    }
  52:	b036      	add	sp, #216	; 0xd8
  54:	bd80      	pop	{r7, pc}

Disassembly of section .text._ZN5druid6widget5label14Label$LT$T$GT$7aligned17h5cd8f024e9709524E:

00000000 <druid::widget::label::Label<T>::aligned>:
_ZN5druid6widget5label14Label$LT$T$GT$7aligned17h5cd8f024e9709524E():
/Users/Luppy/mynewt/druid-embedded/druid/src/widget/label.rs:76
    pub fn aligned(text: impl Into<LabelText<T>>, align: UnitPoint) -> Self {
   0:	b580      	push	{r7, lr}
   2:	b0ac      	sub	sp, #176	; 0xb0
   4:	eeb0 2a41 	vmov.f32	s4, s2
   8:	eef0 2a61 	vmov.f32	s5, s3
   c:	eeb0 3a40 	vmov.f32	s6, s0
  10:	eef0 3a60 	vmov.f32	s7, s1
  14:	4613      	mov	r3, r2
  16:	468c      	mov	ip, r1
  18:	910c      	str	r1, [sp, #48]	; 0x30
  1a:	920d      	str	r2, [sp, #52]	; 0x34
  1c:	ed8d 0b0e 	vstr	d0, [sp, #56]	; 0x38
  20:	ed8d 1b10 	vstr	d1, [sp, #64]	; 0x40
  24:	ed8d 2b0a 	vstr	d2, [sp, #40]	; 0x28
  28:	ed8d 3b08 	vstr	d3, [sp, #32]
/Users/Luppy/mynewt/druid-embedded/druid/src/widget/label.rs:78
            id: super::get_widget_id(), ////
  2c:	9307      	str	r3, [sp, #28]
  2e:	f8cd c018 	str.w	ip, [sp, #24]
  32:	9005      	str	r0, [sp, #20]
  34:	f7ff fffe 	bl	0 <druid::widget::get_widget_id>
  38:	9004      	str	r0, [sp, #16]
  3a:	e7ff      	b.n	3c <druid::widget::label::Label<T>::aligned+0x3c>
/Users/Luppy/mynewt/druid-embedded/druid/src/widget/label.rs:79
            text: text.into(),
  3c:	990c      	ldr	r1, [sp, #48]	; 0x30
  3e:	9a0d      	ldr	r2, [sp, #52]	; 0x34
  40:	a813      	add	r0, sp, #76	; 0x4c
  42:	f7ff fffe 	bl	0 <<T as core::convert::Into<U>>::into>
  46:	e7ff      	b.n	48 <druid::widget::label::Label<T>::aligned+0x48>
/Users/Luppy/mynewt/druid-embedded/druid/src/widget/label.rs:80
            align,
  48:	ed9d 0b0e 	vldr	d0, [sp, #56]	; 0x38
  4c:	ed9d 1b10 	vldr	d1, [sp, #64]	; 0x40
/Users/Luppy/mynewt/druid-embedded/druid/src/widget/label.rs:77
        Label {
  50:	9804      	ldr	r0, [sp, #16]
  52:	9905      	ldr	r1, [sp, #20]
  54:	6108      	str	r0, [r1, #16]
  56:	f101 0014 	add.w	r0, r1, #20
  5a:	a913      	add	r1, sp, #76	; 0x4c
  5c:	2264      	movs	r2, #100	; 0x64
  5e:	ed8d 0b02 	vstr	d0, [sp, #8]
  62:	ed8d 1b00 	vstr	d1, [sp]
  66:	f7ff fffe 	bl	0 <__aeabi_memcpy4>
  6a:	ed9d 0b02 	vldr	d0, [sp, #8]
  6e:	9805      	ldr	r0, [sp, #20]
  70:	ed80 0b00 	vstr	d0, [r0]
  74:	ed9d 0b00 	vldr	d0, [sp]
  78:	ed80 0b02 	vstr	d0, [r0, #8]
/Users/Luppy/mynewt/druid-embedded/druid/src/widget/label.rs:82
    }
  7c:	b02c      	add	sp, #176	; 0xb0
  7e:	bd80      	pop	{r7, pc}

Disassembly of section .text._ZN75_$LT$druid..widget..label..Label$LT$T$GT$$u20$as$u20$core..clone..Clone$GT$5clone17h0fcd821ba57ee716E:

00000000 <<druid::widget::label::Label<T> as core::clone::Clone>::clone>:
_ZN75_$LT$druid..widget..label..Label$LT$T$GT$$u20$as$u20$core..clone..Clone$GT$5clone17h0fcd821ba57ee716E():
/Users/Luppy/mynewt/druid-embedded/druid/src/widget/label.rs:46
#[derive(Clone)] ////
   0:	b580      	push	{r7, lr}
   2:	b0a4      	sub	sp, #144	; 0x90
   4:	460a      	mov	r2, r1
   6:	9107      	str	r1, [sp, #28]
/Users/Luppy/mynewt/druid-embedded/druid/src/widget/label.rs:48
    id: u32, //// Unique Widget ID
   8:	9907      	ldr	r1, [sp, #28]
   a:	3110      	adds	r1, #16
   c:	9108      	str	r1, [sp, #32]
/Users/Luppy/mynewt/druid-embedded/druid/src/widget/label.rs:49
    text: LabelText<T>,
   e:	9907      	ldr	r1, [sp, #28]
  10:	3114      	adds	r1, #20
  12:	9109      	str	r1, [sp, #36]	; 0x24
/Users/Luppy/mynewt/druid-embedded/druid/src/widget/label.rs:50
    align: UnitPoint,
  14:	9907      	ldr	r1, [sp, #28]
  16:	910a      	str	r1, [sp, #40]	; 0x28
/Users/Luppy/mynewt/druid-embedded/druid/src/widget/label.rs:48
    id: u32, //// Unique Widget ID
  18:	9908      	ldr	r1, [sp, #32]
  1a:	9006      	str	r0, [sp, #24]
  1c:	4608      	mov	r0, r1
  1e:	9205      	str	r2, [sp, #20]
  20:	f7ff fffe 	bl	0 <core::clone::impls::<impl core::clone::Clone for u32>::clone>
  24:	9004      	str	r0, [sp, #16]
  26:	e7ff      	b.n	28 <<druid::widget::label::Label<T> as core::clone::Clone>::clone+0x28>
/Users/Luppy/mynewt/druid-embedded/druid/src/widget/label.rs:49
    text: LabelText<T>,
  28:	9909      	ldr	r1, [sp, #36]	; 0x24
  2a:	a80b      	add	r0, sp, #44	; 0x2c
  2c:	f7ff fffe 	bl	0 <<druid::widget::label::Label<T> as core::clone::Clone>::clone>
  30:	e7ff      	b.n	32 <<druid::widget::label::Label<T> as core::clone::Clone>::clone+0x32>
/Users/Luppy/mynewt/druid-embedded/druid/src/widget/label.rs:50
    align: UnitPoint,
  32:	980a      	ldr	r0, [sp, #40]	; 0x28
  34:	f7ff fffe 	bl	0 <<piet::gradient::UnitPoint as core::clone::Clone>::clone>
  38:	ed8d 0b02 	vstr	d0, [sp, #8]
  3c:	ed8d 1b00 	vstr	d1, [sp]
  40:	e7ff      	b.n	42 <<druid::widget::label::Label<T> as core::clone::Clone>::clone+0x42>
/Users/Luppy/mynewt/druid-embedded/druid/src/widget/label.rs:46
#[derive(Clone)] ////
  42:	9804      	ldr	r0, [sp, #16]
  44:	9906      	ldr	r1, [sp, #24]
  46:	6108      	str	r0, [r1, #16]
  48:	f101 0014 	add.w	r0, r1, #20
  4c:	a90b      	add	r1, sp, #44	; 0x2c
  4e:	2264      	movs	r2, #100	; 0x64
  50:	f7ff fffe 	bl	0 <__aeabi_memcpy4>
  54:	ed9d 0b02 	vldr	d0, [sp, #8]
  58:	9806      	ldr	r0, [sp, #24]
  5a:	ed80 0b00 	vstr	d0, [r0]
  5e:	ed9d 1b00 	vldr	d1, [sp]
  62:	ed80 1b02 	vstr	d1, [r0, #8]
  66:	b024      	add	sp, #144	; 0x90
  68:	bd80      	pop	{r7, pc}

Disassembly of section .text._ZN79_$LT$druid..widget..label..Label$LT$T$GT$$u20$as$u20$druid..Widget$LT$T$GT$$GT$6get_id17h653efc4962bb6f24E:

00000000 <<druid::widget::label::Label<T> as druid::Widget<T>>::get_id>:
_ZN79_$LT$druid..widget..label..Label$LT$T$GT$$u20$as$u20$druid..Widget$LT$T$GT$$GT$6get_id17h653efc4962bb6f24E():
/Users/Luppy/mynewt/druid-embedded/druid/src/widget/label.rs:152
    fn get_id(self) -> u32 { ////
   0:	b580      	push	{r7, lr}
   2:	b082      	sub	sp, #8
   4:	4601      	mov	r1, r0
/Users/Luppy/mynewt/druid-embedded/druid/src/widget/label.rs:153
        self.id
   6:	6902      	ldr	r2, [r0, #16]
/Users/Luppy/mynewt/druid-embedded/druid/src/widget/label.rs:154
    }
   8:	9101      	str	r1, [sp, #4]
   a:	9200      	str	r2, [sp, #0]
   c:	f7ff fffe 	bl	0 <core::ptr::real_drop_in_place>
  10:	e7ff      	b.n	12 <<druid::widget::label::Label<T> as druid::Widget<T>>::get_id+0x12>
  12:	9800      	ldr	r0, [sp, #0]
  14:	b002      	add	sp, #8
  16:	bd80      	pop	{r7, pc}

Disassembly of section .text._ZN79_$LT$druid..widget..label..Label$LT$T$GT$$u20$as$u20$druid..Widget$LT$T$GT$$GT$7to_type17hc3beb720f7038d5bE:

00000000 <<druid::widget::label::Label<T> as druid::Widget<T>>::to_type>:
_ZN79_$LT$druid..widget..label..Label$LT$T$GT$$u20$as$u20$druid..Widget$LT$T$GT$$GT$7to_type17hc3beb720f7038d5bE():
/Users/Luppy/mynewt/druid-embedded/druid/src/widget/label.rs:144
    fn to_type(self) -> WidgetType<T> { ////
   0:	b580      	push	{r7, lr}
   2:	b0a4      	sub	sp, #144	; 0x90
   4:	460a      	mov	r2, r1
   6:	4603      	mov	r3, r0
   8:	f10d 0c18 	add.w	ip, sp, #24
   c:	f04f 0e78 	mov.w	lr, #120	; 0x78
/Users/Luppy/mynewt/druid-embedded/druid/src/widget/label.rs:145
        WidgetType::Label(self)
  10:	9005      	str	r0, [sp, #20]
  12:	4660      	mov	r0, ip
  14:	9204      	str	r2, [sp, #16]
  16:	4672      	mov	r2, lr
  18:	9303      	str	r3, [sp, #12]
  1a:	f8cd c008 	str.w	ip, [sp, #8]
  1e:	f8cd e004 	str.w	lr, [sp, #4]
  22:	f7ff fffe 	bl	0 <__aeabi_memcpy8>
  26:	9805      	ldr	r0, [sp, #20]
  28:	3008      	adds	r0, #8
  2a:	9902      	ldr	r1, [sp, #8]
  2c:	9a01      	ldr	r2, [sp, #4]
  2e:	f7ff fffe 	bl	0 <__aeabi_memcpy8>
  32:	2000      	movs	r0, #0
  34:	9905      	ldr	r1, [sp, #20]
  36:	6048      	str	r0, [r1, #4]
  38:	2003      	movs	r0, #3
  3a:	6008      	str	r0, [r1, #0]
/Users/Luppy/mynewt/druid-embedded/druid/src/widget/label.rs:146
    }
  3c:	b024      	add	sp, #144	; 0x90
  3e:	bd80      	pop	{r7, pc}

Disassembly of section .text._ZN79_$LT$druid..widget..label..LabelText$LT$T$GT$$u20$as$u20$core..clone..Clone$GT$5clone17h7d02a0984c0a15dfE:

00000000 <<druid::widget::label::LabelText<T> as core::clone::Clone>::clone>:
_ZN79_$LT$druid..widget..label..LabelText$LT$T$GT$$u20$as$u20$core..clone..Clone$GT$5clone17h7d02a0984c0a15dfE():
/Users/Luppy/mynewt/druid-embedded/druid/src/widget/label.rs:39
#[derive(Clone)] ////
   0:	b570      	push	{r4, r5, r6, lr}
   2:	b0a6      	sub	sp, #152	; 0x98
   4:	460a      	mov	r2, r1
   6:	9104      	str	r1, [sp, #16]
   8:	9904      	ldr	r1, [sp, #16]
   a:	9105      	str	r1, [sp, #20]
   c:	9905      	ldr	r1, [sp, #20]
   e:	6809      	ldr	r1, [r1, #0]
  10:	2900      	cmp	r1, #0
  12:	9203      	str	r2, [sp, #12]
  14:	9002      	str	r0, [sp, #8]
  16:	9101      	str	r1, [sp, #4]
  18:	d005      	beq.n	26 <<druid::widget::label::LabelText<T> as core::clone::Clone>::clone+0x26>
  1a:	e7ff      	b.n	1c <<druid::widget::label::LabelText<T> as core::clone::Clone>::clone+0x1c>
  1c:	9801      	ldr	r0, [sp, #4]
  1e:	2801      	cmp	r0, #1
  20:	d013      	beq.n	4a <<druid::widget::label::LabelText<T> as core::clone::Clone>::clone+0x4a>
  22:	e7ff      	b.n	24 <<druid::widget::label::LabelText<T> as core::clone::Clone>::clone+0x24>
  24:	defe      	udf	#254	; 0xfe
/Users/Luppy/mynewt/druid-embedded/druid/src/widget/label.rs:41
    Localized(LocalizedString<T>),
  26:	9805      	ldr	r0, [sp, #20]
  28:	3004      	adds	r0, #4
  2a:	9006      	str	r0, [sp, #24]
  2c:	9906      	ldr	r1, [sp, #24]
  2e:	a807      	add	r0, sp, #28
  30:	f7ff fffe 	bl	0 <<druid::localization::LocalizedString<T> as core::clone::Clone>::clone>
  34:	e7ff      	b.n	36 <<druid::widget::label::LabelText<T> as core::clone::Clone>::clone+0x36>
/Users/Luppy/mynewt/druid-embedded/druid/src/widget/label.rs:39
#[derive(Clone)] ////
  36:	9802      	ldr	r0, [sp, #8]
  38:	3004      	adds	r0, #4
  3a:	a907      	add	r1, sp, #28
  3c:	2260      	movs	r2, #96	; 0x60
  3e:	f7ff fffe 	bl	0 <__aeabi_memcpy4>
  42:	2000      	movs	r0, #0
  44:	9902      	ldr	r1, [sp, #8]
  46:	6008      	str	r0, [r1, #0]
  48:	e011      	b.n	6e <<druid::widget::label::LabelText<T> as core::clone::Clone>::clone+0x6e>
/Users/Luppy/mynewt/druid-embedded/druid/src/widget/label.rs:42
    Specific(String),
  4a:	9805      	ldr	r0, [sp, #20]
  4c:	3004      	adds	r0, #4
  4e:	901f      	str	r0, [sp, #124]	; 0x7c
  50:	991f      	ldr	r1, [sp, #124]	; 0x7c
  52:	a820      	add	r0, sp, #128	; 0x80
  54:	f7ff fffe 	bl	0 <<heapless::string::String<N> as core::clone::Clone>::clone>
  58:	e7ff      	b.n	5a <<druid::widget::label::LabelText<T> as core::clone::Clone>::clone+0x5a>
/Users/Luppy/mynewt/druid-embedded/druid/src/widget/label.rs:39
#[derive(Clone)] ////
  5a:	9802      	ldr	r0, [sp, #8]
  5c:	1d01      	adds	r1, r0, #4
  5e:	aa20      	add	r2, sp, #128	; 0x80
  60:	e892 5078 	ldmia.w	r2, {r3, r4, r5, r6, ip, lr}
  64:	e881 5078 	stmia.w	r1, {r3, r4, r5, r6, ip, lr}
  68:	2101      	movs	r1, #1
  6a:	6001      	str	r1, [r0, #0]
  6c:	e7ff      	b.n	6e <<druid::widget::label::LabelText<T> as core::clone::Clone>::clone+0x6e>
  6e:	b026      	add	sp, #152	; 0x98
  70:	bd70      	pop	{r4, r5, r6, pc}

Disassembly of section .text._ZN95_$LT$druid..widget..label..LabelText$LT$T$GT$$u20$as$u20$core..convert..From$LT$$RF$str$GT$$GT$4from17h0a8ec7071614a627E:

00000000 <<druid::widget::label::LabelText<T> as core::convert::From<&str>>::from>:
_ZN95_$LT$druid..widget..label..LabelText$LT$T$GT$$u20$as$u20$core..convert..From$LT$$RF$str$GT$$GT$4from17h0a8ec7071614a627E():
/Users/Luppy/mynewt/druid-embedded/druid/src/widget/label.rs:247
    fn from(src: &str) -> LabelText<T> {
   0:	b570      	push	{r4, r5, r6, lr}
   2:	b092      	sub	sp, #72	; 0x48
   4:	4613      	mov	r3, r2
   6:	468c      	mov	ip, r1
   8:	9103      	str	r1, [sp, #12]
   a:	9204      	str	r2, [sp, #16]
/Users/Luppy/mynewt/druid-embedded/druid/src/widget/label.rs:248
        LabelText::Specific(String::from_str(src).expect("label text fail")) ////
   c:	9903      	ldr	r1, [sp, #12]
   e:	9a04      	ldr	r2, [sp, #16]
  10:	f10d 0e2c 	add.w	lr, sp, #44	; 0x2c
  14:	9002      	str	r0, [sp, #8]
  16:	4670      	mov	r0, lr
  18:	9301      	str	r3, [sp, #4]
  1a:	f8cd c000 	str.w	ip, [sp]
  1e:	f7ff fffe 	bl	0 <<heapless::string::String<N> as core::str::FromStr>::from_str>
  22:	e7ff      	b.n	2 <<druid::widget::label::LabelText<T> as core::convert::From<&str>>::from+0x2>
  24:	f240 0200 	movw	r2, #0
  28:	f2c0 0200 	movt	r2, #0
  2c:	a805      	add	r0, sp, #20
  2e:	a90b      	add	r1, sp, #44	; 0x2c
  30:	230f      	movs	r3, #15
  32:	f7ff fffe 	bl	0 <core::result::Result<T,E>::expect>
  36:	e7ff      	b.n	38 <<druid::widget::label::LabelText<T> as core::convert::From<&str>>::from+0x38>
  38:	9802      	ldr	r0, [sp, #8]
  3a:	1d01      	adds	r1, r0, #4
  3c:	aa05      	add	r2, sp, #20
  3e:	e892 5078 	ldmia.w	r2, {r3, r4, r5, r6, ip, lr}
  42:	e881 5078 	stmia.w	r1, {r3, r4, r5, r6, ip, lr}
  46:	2101      	movs	r1, #1
  48:	6001      	str	r1, [r0, #0]
/Users/Luppy/mynewt/druid-embedded/druid/src/widget/label.rs:250
    }
  4a:	b012      	add	sp, #72	; 0x48
  4c:	bd70      	pop	{r4, r5, r6, pc}

app-e8778d9de5b9c761.3a47hr79paw6hdfk.rcgu.o:     file format elf32-littlearm

SYMBOL TABLE:
00000000 l    df *ABS*	00000000 3a47hr79paw6hdfk
00000131 l       .debug_str	00000000 
00000000 l       .debug_str	00000000 
00000041 l       .debug_str	00000000 
00000055 l       .debug_str	00000000 
00000085 l       .debug_str	00000000 
0000008a l       .debug_str	00000000 
0000008e l       .debug_str	00000000 
00000097 l       .debug_str	00000000 
000000ee l       .debug_str	00000000 
0000012c l       .debug_str	00000000 
000000f1 l       .debug_str	00000000 
000000f6 l       .debug_str	00000000 
000000fb l       .debug_str	00000000 
000000fd l       .debug_str	00000000 
00000101 l       .debug_str	00000000 
00000108 l       .debug_str	00000000 
0000011b l       .debug_str	00000000 
00000121 l       .debug_str	00000000 
00000000 l    d  .text._ZN58_$LT$core..any..TypeId$u20$as$u20$core..cmp..PartialEq$GT$2eq17h33574f5c8ce8d28fE	00000000 .text._ZN58_$LT$core..any..TypeId$u20$as$u20$core..cmp..PartialEq$GT$2eq17h33574f5c8ce8d28fE
00000000 l    d  .debug_abbrev	00000000 .debug_abbrev
00000000 l    d  .debug_info	00000000 .debug_info
00000000 l    d  .debug_frame	00000000 .debug_frame
00000000 l    d  .debug_line	00000000 .debug_line
00000000 g     F .text._ZN58_$LT$core..any..TypeId$u20$as$u20$core..cmp..PartialEq$GT$2eq17h33574f5c8ce8d28fE	0000003e .hidden <core::any::TypeId as core::cmp::PartialEq>::eq



Disassembly of section .text._ZN58_$LT$core..any..TypeId$u20$as$u20$core..cmp..PartialEq$GT$2eq17h33574f5c8ce8d28fE:

00000000 <<core::any::TypeId as core::cmp::PartialEq>::eq>:
_ZN58_$LT$core..any..TypeId$u20$as$u20$core..cmp..PartialEq$GT$2eq17h33574f5c8ce8d28fE():
/rustc/50a0defd5a93523067ef239936cc2e0755220904/src/libcore/any.rs:421
   0:	b580      	push	{r7, lr}
   2:	b086      	sub	sp, #24
   4:	460a      	mov	r2, r1
   6:	4603      	mov	r3, r0
   8:	9002      	str	r0, [sp, #8]
   a:	9103      	str	r1, [sp, #12]
/rustc/50a0defd5a93523067ef239936cc2e0755220904/src/libcore/any.rs:424
   c:	9803      	ldr	r0, [sp, #12]
   e:	9004      	str	r0, [sp, #16]
  10:	9802      	ldr	r0, [sp, #8]
  12:	9005      	str	r0, [sp, #20]
  14:	9805      	ldr	r0, [sp, #20]
  16:	6801      	ldr	r1, [r0, #0]
  18:	6840      	ldr	r0, [r0, #4]
  1a:	f8dd c010 	ldr.w	ip, [sp, #16]
  1e:	f8dc e000 	ldr.w	lr, [ip]
  22:	f8dc c004 	ldr.w	ip, [ip, #4]
  26:	ea80 000c 	eor.w	r0, r0, ip
  2a:	ea81 010e 	eor.w	r1, r1, lr
  2e:	4308      	orrs	r0, r1
  30:	fab0 f080 	clz	r0, r0
  34:	0940      	lsrs	r0, r0, #5
/rustc/50a0defd5a93523067ef239936cc2e0755220904/src/libcore/any.rs:421
  36:	9201      	str	r2, [sp, #4]
  38:	9300      	str	r3, [sp, #0]
  3a:	b006      	add	sp, #24
  3c:	bd80      	pop	{r7, pc}

app-e8778d9de5b9c761.3d1yu74wxnzbohxd.rcgu.o:     file format elf32-littlearm

SYMBOL TABLE:
00000000 l    df *ABS*	00000000 3d1yu74wxnzbohxd
00000177 l       .debug_str	00000000 
00000000 l       .debug_str	00000000 
00000041 l       .debug_str	00000000 
00000055 l       .debug_str	00000000 
00000085 l       .debug_str	00000000 
0000008b l       .debug_str	00000000 
00000094 l       .debug_str	00000000 
000000f1 l       .debug_str	00000000 
000000f9 l       .debug_str	00000000 
00000105 l       .debug_str	00000000 
0000010b l       .debug_str	00000000 
00000185 l       .debug_str	00000000 
00000110 l       .debug_str	00000000 
00000113 l       .debug_str	00000000 
00000117 l       .debug_str	00000000 
0000011a l       .debug_str	00000000 
0000011d l       .debug_str	00000000 
00000120 l       .debug_str	00000000 
00000125 l       .debug_str	00000000 
00000131 l       .debug_str	00000000 
00000136 l       .debug_str	00000000 
0000013d l       .debug_str	00000000 
00000147 l       .debug_str	00000000 
00000152 l       .debug_str	00000000 
0000015f l       .debug_str	00000000 
0000016d l       .debug_str	00000000 
00000000 l    d  .text._ZN59_$LT$druid..BaseState$u20$as$u20$core..default..Default$GT$7default17h46f10bdea80d143dE	00000000 .text._ZN59_$LT$druid..BaseState$u20$as$u20$core..default..Default$GT$7default17h46f10bdea80d143dE
00000000 l    d  .debug_abbrev	00000000 .debug_abbrev
00000000 l    d  .debug_info	00000000 .debug_info
00000000 l    d  .debug_frame	00000000 .debug_frame
00000000 l    d  .debug_line	00000000 .debug_line
00000000         *UND*	00000000 .hidden <bool as core::default::Default>::default
00000000 g     F .text._ZN59_$LT$druid..BaseState$u20$as$u20$core..default..Default$GT$7default17h46f10bdea80d143dE	000000be .hidden <druid::BaseState as core::default::Default>::default
00000000         *UND*	00000000 .hidden <kurbo::rect::Rect as core::default::Default>::default



Disassembly of section .text._ZN59_$LT$druid..BaseState$u20$as$u20$core..default..Default$GT$7default17h46f10bdea80d143dE:

00000000 <<druid::BaseState as core::default::Default>::default>:
_ZN59_$LT$druid..BaseState$u20$as$u20$core..default..Default$GT$7default17h46f10bdea80d143dE():
/Users/Luppy/mynewt/druid-embedded/druid/src/lib.rs:120
/// that, widgets will generally not interact with it directly,
/// but it is an important part of the [`WidgetPod`] struct.
///
/// [`paint`]: trait.Widget.html#tymethod.paint
/// [`WidgetPod`]: struct.WidgetPod.html
#[derive(Clone, Copy, Default)] ////
   0:	b5f0      	push	{r4, r5, r6, r7, lr}
   2:	b093      	sub	sp, #76	; 0x4c
   4:	a90a      	add	r1, sp, #40	; 0x28
/Users/Luppy/mynewt/druid-embedded/druid/src/lib.rs:123
////#[derive(Default)]
pub struct BaseState {
    layout_rect: Rect,
   6:	9009      	str	r0, [sp, #36]	; 0x24
   8:	4608      	mov	r0, r1
   a:	f7ff fffe 	bl	0 <<kurbo::rect::Rect as core::default::Default>::default>
   e:	e7ff      	b.n	2 <<bool as core::default::Default>::default+0x2>
/Users/Luppy/mynewt/druid-embedded/druid/src/lib.rs:128

    // TODO: consider using bitflags for the booleans.

    // This should become an invalidation rect.
    needs_inval: bool,
  10:	f7ff fffe 	bl	0 <<bool as core::default::Default>::default>
  14:	9008      	str	r0, [sp, #32]
  16:	e7ff      	b.n	18 <<druid::BaseState as core::default::Default>::default+0x18>
/Users/Luppy/mynewt/druid-embedded/druid/src/lib.rs:130

    is_hot: bool,
  18:	f7ff fffe 	bl	0 <<bool as core::default::Default>::default>
  1c:	9007      	str	r0, [sp, #28]
  1e:	e7ff      	b.n	20 <<druid::BaseState as core::default::Default>::default+0x20>
/Users/Luppy/mynewt/druid-embedded/druid/src/lib.rs:132

    is_active: bool,
  20:	f7ff fffe 	bl	0 <<bool as core::default::Default>::default>
  24:	9006      	str	r0, [sp, #24]
  26:	e7ff      	b.n	28 <<druid::BaseState as core::default::Default>::default+0x28>
/Users/Luppy/mynewt/druid-embedded/druid/src/lib.rs:135

    /// Any descendant is active.
    has_active: bool,
  28:	f7ff fffe 	bl	0 <<bool as core::default::Default>::default>
  2c:	9005      	str	r0, [sp, #20]
  2e:	e7ff      	b.n	30 <<druid::BaseState as core::default::Default>::default+0x30>
/Users/Luppy/mynewt/druid-embedded/druid/src/lib.rs:138

    /// Any descendant has requested an animation frame.
    request_anim: bool,
  30:	f7ff fffe 	bl	0 <<bool as core::default::Default>::default>
  34:	9004      	str	r0, [sp, #16]
  36:	e7ff      	b.n	38 <<druid::BaseState as core::default::Default>::default+0x38>
/Users/Luppy/mynewt/druid-embedded/druid/src/lib.rs:144

    /// Any descendant has requested a timer.
    ///
    /// Note: we don't have any way of clearing this request, as it's
    /// likely not worth the complexity.
    request_timer: bool,
  38:	f7ff fffe 	bl	0 <<bool as core::default::Default>::default>
  3c:	9003      	str	r0, [sp, #12]
  3e:	e7ff      	b.n	40 <<druid::BaseState as core::default::Default>::default+0x40>
/Users/Luppy/mynewt/druid-embedded/druid/src/lib.rs:147

    /// This widget or a descendant has focus.
    has_focus: bool,
  40:	f7ff fffe 	bl	0 <<bool as core::default::Default>::default>
  44:	9002      	str	r0, [sp, #8]
  46:	e7ff      	b.n	48 <<druid::BaseState as core::default::Default>::default+0x48>
/Users/Luppy/mynewt/druid-embedded/druid/src/lib.rs:150

    /// This widget or a descendant has requested focus.
    request_focus: bool,
  48:	f7ff fffe 	bl	0 <<bool as core::default::Default>::default>
  4c:	9001      	str	r0, [sp, #4]
  4e:	e7ff      	b.n	50 <<druid::BaseState as core::default::Default>::default+0x50>
  50:	a80a      	add	r0, sp, #40	; 0x28
/Users/Luppy/mynewt/druid-embedded/druid/src/lib.rs:120
#[derive(Clone, Copy, Default)] ////
  52:	9909      	ldr	r1, [sp, #36]	; 0x24
  54:	e8b0 500c 	ldmia.w	r0!, {r2, r3, ip, lr}
  58:	e8a1 500c 	stmia.w	r1!, {r2, r3, ip, lr}
  5c:	e890 500c 	ldmia.w	r0, {r2, r3, ip, lr}
  60:	e881 500c 	stmia.w	r1, {r2, r3, ip, lr}
  64:	9808      	ldr	r0, [sp, #32]
  66:	f000 0101 	and.w	r1, r0, #1
  6a:	9a09      	ldr	r2, [sp, #36]	; 0x24
  6c:	f882 1020 	strb.w	r1, [r2, #32]
  70:	9907      	ldr	r1, [sp, #28]
  72:	f001 0301 	and.w	r3, r1, #1
  76:	f882 3021 	strb.w	r3, [r2, #33]	; 0x21
  7a:	9b06      	ldr	r3, [sp, #24]
  7c:	f003 0c01 	and.w	ip, r3, #1
  80:	f882 c022 	strb.w	ip, [r2, #34]	; 0x22
  84:	f8dd c014 	ldr.w	ip, [sp, #20]
  88:	f00c 0e01 	and.w	lr, ip, #1
  8c:	f882 e023 	strb.w	lr, [r2, #35]	; 0x23
  90:	f8dd e010 	ldr.w	lr, [sp, #16]
  94:	f00e 0401 	and.w	r4, lr, #1
  98:	f882 4024 	strb.w	r4, [r2, #36]	; 0x24
  9c:	9c03      	ldr	r4, [sp, #12]
  9e:	f004 0501 	and.w	r5, r4, #1
  a2:	f882 5025 	strb.w	r5, [r2, #37]	; 0x25
  a6:	9d02      	ldr	r5, [sp, #8]
  a8:	f005 0601 	and.w	r6, r5, #1
  ac:	f882 6026 	strb.w	r6, [r2, #38]	; 0x26
  b0:	9e01      	ldr	r6, [sp, #4]
  b2:	f006 0701 	and.w	r7, r6, #1
  b6:	f882 7027 	strb.w	r7, [r2, #39]	; 0x27
  ba:	b013      	add	sp, #76	; 0x4c
  bc:	bdf0      	pop	{r4, r5, r6, r7, pc}

app-e8778d9de5b9c761.3dknplk9qplgjng3.rcgu.o:     file format elf32-littlearm

SYMBOL TABLE:
00000000 l    df *ABS*	00000000 3dknplk9qplgjng3
00002132 l       .debug_str	00000000 
000022d8 l       .debug_str	00000000 
000022dd l       .debug_str	00000000 
000022e3 l       .debug_str	00000000 
000022e9 l       .debug_str	00000000 
000022f7 l       .debug_str	00000000 
00002301 l       .debug_str	00000000 
00002305 l       .debug_str	00000000 
0000230d l       .debug_str	00000000 
00002315 l       .debug_str	00000000 
00002329 l       .debug_str	00000000 
00002335 l       .debug_str	00000000 
00002340 l       .debug_str	00000000 
00002347 l       .debug_str	00000000 
0000234d l       .debug_str	00000000 
0000235c l       .debug_str	00000000 
00002360 l       .debug_str	00000000 
00002369 l       .debug_str	00000000 
00002375 l       .debug_str	00000000 
0000238e l       .debug_str	00000000 
00002393 l       .debug_str	00000000 
000023a4 l       .debug_str	00000000 
000023ae l       .debug_str	00000000 
0000240c l       .debug_str	00000000 
00002417 l       .debug_str	00000000 
00002434 l       .debug_str	00000000 
0000244b l       .debug_str	00000000 
0000246f l       .debug_str	00000000 
0000248b l       .debug_str	00000000 
000024a4 l       .debug_str	00000000 
000024ae l       .debug_str	00000000 
000024c8 l       .debug_str	00000000 
000024ce l       .debug_str	00000000 
000024d2 l       .debug_str	00000000 
000024d8 l       .debug_str	00000000 
00002507 l       .debug_str	00000000 
0000250f l       .debug_str	00000000 
00002518 l       .debug_str	00000000 
0000251f l       .debug_str	00000000 
0000252a l       .debug_str	00000000 
00002535 l       .debug_str	00000000 
0000253a l       .debug_str	00000000 
00002545 l       .debug_str	00000000 
00002656 l       .debug_str	00000000 
00002681 l       .debug_str	00000000 
0000268c l       .debug_str	00000000 
00002795 l       .debug_str	00000000 
000027a0 l       .debug_str	00000000 
0000285b l       .debug_str	00000000 
00000000 l       .debug_str	00000000 
00000041 l       .debug_str	00000000 
00000055 l       .debug_str	00000000 
00000085 l       .debug_str	00000000 
0000008c l       .debug_str	00000000 
00000095 l       .debug_str	00000000 
00000098 l       .debug_str	00000000 
000000a2 l       .debug_str	00000000 
000000a9 l       .debug_str	00000000 
000000af l       .debug_str	00000000 
000000b4 l       .debug_str	00000000 
000000ba l       .debug_str	00000000 
000000c0 l       .debug_str	00000000 
000000cd l       .debug_str	00000000 
000000d1 l       .debug_str	00000000 
000000da l       .debug_str	00000000 
000000e1 l       .debug_str	00000000 
000000e3 l       .debug_str	00000000 
000000e7 l       .debug_str	00000000 
000000ee l       .debug_str	00000000 
000000f3 l       .debug_str	00000000 
000000f7 l       .debug_str	00000000 
000000fe l       .debug_str	00000000 
00000101 l       .debug_str	00000000 
00000107 l       .debug_str	00000000 
00000115 l       .debug_str	00000000 
0000011a l       .debug_str	00000000 
00000122 l       .debug_str	00000000 
0000012a l       .debug_str	00000000 
0000012c l       .debug_str	00000000 
0000012e l       .debug_str	00000000 
0000014a l       .debug_str	00000000 
00000152 l       .debug_str	00000000 
00000159 l       .debug_str	00000000 
00000169 l       .debug_str	00000000 
000001ae l       .debug_str	00000000 
0000021b l       .debug_str	00000000 
000002b1 l       .debug_str	00000000 
00000370 l       .debug_str	00000000 
00000378 l       .debug_str	00000000 
0000037d l       .debug_str	00000000 
00000383 l       .debug_str	00000000 
00000387 l       .debug_str	00000000 
0000038b l       .debug_str	00000000 
0000038e l       .debug_str	00000000 
000003b7 l       .debug_str	00000000 
000003ed l       .debug_str	00000000 
000003ef l       .debug_str	00000000 
0000041c l       .debug_str	00000000 
0000041f l       .debug_str	00000000 
0000046f l       .debug_str	00000000 
000004cc l       .debug_str	00000000 
00000520 l       .debug_str	00000000 
00000597 l       .debug_str	00000000 
0000061b l       .debug_str	00000000 
00000696 l       .debug_str	00000000 
00000734 l       .debug_str	00000000 
000007df l       .debug_str	00000000 
00000881 l       .debug_str	00000000 
00000946 l       .debug_str	00000000 
00000a18 l       .debug_str	00000000 
00000ae1 l       .debug_str	00000000 
00000bcb l       .debug_str	00000000 
00000cd2 l       .debug_str	00000000 
00000dd8 l       .debug_str	00000000 
00000ddc l       .debug_str	00000000 
00000dde l       .debug_str	00000000 
00000edc l       .debug_str	00000000 
00000fdd l       .debug_str	00000000 
00000fdf l       .debug_str	00000000 
000010bf l       .debug_str	00000000 
000010c3 l       .debug_str	00000000 
000010c8 l       .debug_str	00000000 
000010cc l       .debug_str	00000000 
000010d0 l       .debug_str	00000000 
000010e1 l       .debug_str	00000000 
000011f1 l       .debug_str	00000000 
00001200 l       .debug_str	00000000 
00001225 l       .debug_str	00000000 
0000122c l       .debug_str	00000000 
0000122f l       .debug_str	00000000 
00001233 l       .debug_str	00000000 
0000123a l       .debug_str	00000000 
0000123e l       .debug_str	00000000 
00001241 l       .debug_str	00000000 
00001244 l       .debug_str	00000000 
00001249 l       .debug_str	00000000 
0000124f l       .debug_str	00000000 
00001256 l       .debug_str	00000000 
0000125e l       .debug_str	00000000 
00001268 l       .debug_str	00000000 
00001271 l       .debug_str	00000000 
00001275 l       .debug_str	00000000 
0000127b l       .debug_str	00000000 
00001283 l       .debug_str	00000000 
00001287 l       .debug_str	00000000 
00001293 l       .debug_str	00000000 
0000129a l       .debug_str	00000000 
0000129f l       .debug_str	00000000 
000012a4 l       .debug_str	00000000 
0000139e l       .debug_str	00000000 
000013a3 l       .debug_str	00000000 
000013cf l       .debug_str	00000000 
00001414 l       .debug_str	00000000 
0000144d l       .debug_str	00000000 
000014e4 l       .debug_str	00000000 
00001582 l       .debug_str	00000000 
0000163d l       .debug_str	00000000 
000016f7 l       .debug_str	00000000 
000017a9 l       .debug_str	00000000 
0000183e l       .debug_str	00000000 
000018ea l       .debug_str	00000000 
000018f3 l       .debug_str	00000000 
00001908 l       .debug_str	00000000 
00001950 l       .debug_str	00000000 
00001979 l       .debug_str	00000000 
000019bf l       .debug_str	00000000 
000019f0 l       .debug_str	00000000 
00001a21 l       .debug_str	00000000 
00001a69 l       .debug_str	00000000 
00001a9c l       .debug_str	00000000 
00001ae5 l       .debug_str	00000000 
00001b19 l       .debug_str	00000000 
00001b61 l       .debug_str	00000000 
00001b94 l       .debug_str	00000000 
00001bdf l       .debug_str	00000000 
00001c2b l       .debug_str	00000000 
00001c60 l       .debug_str	00000000 
00001c65 l       .debug_str	00000000 
00001cab l       .debug_str	00000000 
00001cdc l       .debug_str	00000000 
00001d23 l       .debug_str	00000000 
00001d55 l       .debug_str	00000000 
00001d59 l       .debug_str	00000000 
00001d86 l       .debug_str	00000000 
00001dc0 l       .debug_str	00000000 
00001df2 l       .debug_str	00000000 
00001e3b l       .debug_str	00000000 
00001e6f l       .debug_str	00000000 
00001ef5 l       .debug_str	00000000 
00001f2c l       .debug_str	00000000 
00001f33 l       .debug_str	00000000 
00001f39 l       .debug_str	00000000 
00001f43 l       .debug_str	00000000 
00001f4c l       .debug_str	00000000 
00001f5b l       .debug_str	00000000 
00001fac l       .debug_str	00000000 
00002001 l       .debug_str	00000000 
00002005 l       .debug_str	00000000 
00002009 l       .debug_str	00000000 
00002062 l       .debug_str	00000000 
00002090 l       .debug_str	00000000 
000020da l       .debug_str	00000000 
000020e3 l       .debug_str	00000000 
00002140 l       .debug_str	00000000 
000021aa l       .debug_str	00000000 
000021b3 l       .debug_str	00000000 
00002221 l       .debug_str	00000000 
0000222c l       .debug_str	00000000 
000022a0 l       .debug_str	00000000 
000022a5 l       .debug_str	00000000 
000022cb l       .debug_str	00000000 
000022cd l       .debug_str	00000000 
000022d3 l       .debug_str	00000000 
00000000 l     O .rodata..Lanon.8dc5ef6f1a21ba1875e21af000dc8235.0	00000000 .Lanon.8dc5ef6f1a21ba1875e21af000dc8235.0
00000000 l     O .rodata..Lanon.8dc5ef6f1a21ba1875e21af000dc8235.1	00000010 .Lanon.8dc5ef6f1a21ba1875e21af000dc8235.1
00000000 l     O .rodata..Lanon.8dc5ef6f1a21ba1875e21af000dc8235.2	00000010 .Lanon.8dc5ef6f1a21ba1875e21af000dc8235.2
00000000 l     O .rodata..Lanon.8dc5ef6f1a21ba1875e21af000dc8235.3	0000000f .Lanon.8dc5ef6f1a21ba1875e21af000dc8235.3
00000000 l    d  .text._ZN42_$LT$$RF$T$u20$as$u20$core..fmt..Debug$GT$3fmt17hdcad64cfcfc65b9eE	00000000 .text._ZN42_$LT$$RF$T$u20$as$u20$core..fmt..Debug$GT$3fmt17hdcad64cfcfc65b9eE
00000000 l    d  .text._ZN4core3ptr31_$LT$impl$u20$$BP$mut$u20$T$GT$3add17h94824ec008941fd2E	00000000 .text._ZN4core3ptr31_$LT$impl$u20$$BP$mut$u20$T$GT$3add17h94824ec008941fd2E
00000000 l    d  .text._ZN4core3ptr31_$LT$impl$u20$$BP$mut$u20$T$GT$5write17h27d0b1552c89c5aeE	00000000 .text._ZN4core3ptr31_$LT$impl$u20$$BP$mut$u20$T$GT$5write17h27d0b1552c89c5aeE
00000000 l    d  .text._ZN4core3ptr31_$LT$impl$u20$$BP$mut$u20$T$GT$6offset17h17561a77ff6d05b6E	00000000 .text._ZN4core3ptr31_$LT$impl$u20$$BP$mut$u20$T$GT$6offset17h17561a77ff6d05b6E
00000000 l    d  .text._ZN4core3ptr33_$LT$impl$u20$$BP$const$u20$T$GT$3add17heab5eafea15d9cc4E	00000000 .text._ZN4core3ptr33_$LT$impl$u20$$BP$const$u20$T$GT$3add17heab5eafea15d9cc4E
00000000 l    d  .text._ZN4core3ptr33_$LT$impl$u20$$BP$const$u20$T$GT$6offset17h9bd16f06a7ea778cE	00000000 .text._ZN4core3ptr33_$LT$impl$u20$$BP$const$u20$T$GT$6offset17h9bd16f06a7ea778cE
00000000 l    d  .text._ZN4core3ptr33_$LT$impl$u20$$BP$const$u20$T$GT$7is_null17h69a73973989bbaf6E	00000000 .text._ZN4core3ptr33_$LT$impl$u20$$BP$const$u20$T$GT$7is_null17h69a73973989bbaf6E
00000000 l    d  .text._ZN4core5slice29_$LT$impl$u20$$u5b$T$u5d$$GT$3len17h9df9be1d4ab20a63E	00000000 .text._ZN4core5slice29_$LT$impl$u20$$u5b$T$u5d$$GT$3len17h9df9be1d4ab20a63E
00000000 l    d  .text._ZN4core5slice29_$LT$impl$u20$$u5b$T$u5d$$GT$4iter17h23128c049e2d6471E	00000000 .text._ZN4core5slice29_$LT$impl$u20$$u5b$T$u5d$$GT$4iter17h23128c049e2d6471E
00000000 l    d  .text._ZN4core5slice29_$LT$impl$u20$$u5b$T$u5d$$GT$6as_ptr17h06db57cccaf14739E	00000000 .text._ZN4core5slice29_$LT$impl$u20$$u5b$T$u5d$$GT$6as_ptr17h06db57cccaf14739E
00000000 l    d  .text._ZN4core5slice87_$LT$impl$u20$core..iter..traits..collect..IntoIterator$u20$for$u20$$RF$$u5b$T$u5d$$GT$9into_iter17he089853155fb924aE	00000000 .text._ZN4core5slice87_$LT$impl$u20$core..iter..traits..collect..IntoIterator$u20$for$u20$$RF$$u5b$T$u5d$$GT$9into_iter17he089853155fb924aE
00000000 l    d  .text._ZN50_$LT$T$u20$as$u20$core..convert..Into$LT$U$GT$$GT$4into17h5228fec33e09f6f3E	00000000 .text._ZN50_$LT$T$u20$as$u20$core..convert..Into$LT$U$GT$$GT$4into17h5228fec33e09f6f3E
00000000 l    d  .text._ZN59_$LT$$LP$T10$C$$u20$T11$RP$$u20$as$u20$core..fmt..Debug$GT$3fmt17hc37232548e7c4f28E	00000000 .text._ZN59_$LT$$LP$T10$C$$u20$T11$RP$$u20$as$u20$core..fmt..Debug$GT$3fmt17hc37232548e7c4f28E
00000000 l    d  .text._ZN5druid12localization24LocalizedString$LT$T$GT$3new17h6d805b612eb3e4bbE	00000000 .text._ZN5druid12localization24LocalizedString$LT$T$GT$3new17h6d805b612eb3e4bbE
00000000 l    d  .text._ZN5druid12localization24LocalizedString$LT$T$GT$8with_arg17h3f0a027b1dc13913E	00000000 .text._ZN5druid12localization24LocalizedString$LT$T$GT$8with_arg17h3f0a027b1dc13913E
00000000 l    d  .text._ZN76_$LT$druid..localization..ArgSource$LT$T$GT$$u20$as$u20$core..fmt..Debug$GT$3fmt17hf9b668b5f0d9c7d2E	00000000 .text._ZN76_$LT$druid..localization..ArgSource$LT$T$GT$$u20$as$u20$core..fmt..Debug$GT$3fmt17hf9b668b5f0d9c7d2E
00000000 l    d  .text._ZN78_$LT$druid..localization..ArgSource$LT$T$GT$$u20$as$u20$core..clone..Clone$GT$5clone17h861b9290e92b7ab4E	00000000 .text._ZN78_$LT$druid..localization..ArgSource$LT$T$GT$$u20$as$u20$core..clone..Clone$GT$5clone17h861b9290e92b7ab4E
00000000 l    d  .text._ZN84_$LT$druid..localization..LocalizedString$LT$T$GT$$u20$as$u20$core..clone..Clone$GT$5clone17hf38aa69c33bdda80E	00000000 .text._ZN84_$LT$druid..localization..LocalizedString$LT$T$GT$$u20$as$u20$core..clone..Clone$GT$5clone17hf38aa69c33bdda80E
00000000 l    d  .rodata..Lanon.8dc5ef6f1a21ba1875e21af000dc8235.1	00000000 .rodata..Lanon.8dc5ef6f1a21ba1875e21af000dc8235.1
00000000 l    d  .rodata..Lanon.8dc5ef6f1a21ba1875e21af000dc8235.2	00000000 .rodata..Lanon.8dc5ef6f1a21ba1875e21af000dc8235.2
00000000 l    d  .debug_loc	00000000 .debug_loc
00000000 l    d  .debug_abbrev	00000000 .debug_abbrev
00000000 l    d  .debug_info	00000000 .debug_info
00000000 l    d  .debug_ranges	00000000 .debug_ranges
00000000 l    d  .debug_frame	00000000 .debug_frame
00000000 l    d  .debug_line	00000000 .debug_line
00000000         *UND*	00000000 <druid::widget::label::LabelText<T> as core::convert::From<druid::localization::LocalizedString<T>>>::from
00000000         *UND*	00000000 <&T as core::fmt::Debug>::fmt
00000000 g     F .text._ZN42_$LT$$RF$T$u20$as$u20$core..fmt..Debug$GT$3fmt17hdcad64cfcfc65b9eE	00000028 <&T as core::fmt::Debug>::fmt
00000000         *UND*	00000000 core::fmt::builders::DebugTuple::field
00000000         *UND*	00000000 core::fmt::builders::DebugTuple::finish
00000000         *UND*	00000000 core::fmt::Formatter::debug_tuple
00000000         *UND*	00000000 core::mem::size_of
00000000         *UND*	00000000 core::ptr::real_drop_in_place
00000000         *UND*	00000000 core::ptr::real_drop_in_place
00000000 g     F .text._ZN4core3ptr31_$LT$impl$u20$$BP$mut$u20$T$GT$3add17h94824ec008941fd2E	00000022 core::ptr::<impl *mut T>::add
00000000 g     F .text._ZN4core3ptr31_$LT$impl$u20$$BP$mut$u20$T$GT$5write17h27d0b1552c89c5aeE	00000030 core::ptr::<impl *mut T>::write
00000000 g     F .text._ZN4core3ptr31_$LT$impl$u20$$BP$mut$u20$T$GT$6offset17h17561a77ff6d05b6E	00000028 core::ptr::<impl *mut T>::offset
00000000         *UND*	00000000 core::ptr::<impl *const T>::wrapping_add
00000000 g     F .text._ZN4core3ptr33_$LT$impl$u20$$BP$const$u20$T$GT$3add17heab5eafea15d9cc4E	00000022 core::ptr::<impl *const T>::add
00000000 g     F .text._ZN4core3ptr33_$LT$impl$u20$$BP$const$u20$T$GT$6offset17h9bd16f06a7ea778cE	00000028 core::ptr::<impl *const T>::offset
00000000 g     F .text._ZN4core3ptr33_$LT$impl$u20$$BP$const$u20$T$GT$7is_null17h69a73973989bbaf6E	00000026 core::ptr::<impl *const T>::is_null
00000000         *UND*	00000000 core::ptr::null
00000000         *UND*	00000000 core::ptr::write
00000000         *UND*	00000000 core::clone::Clone::clone
00000000         *UND*	00000000 core::clone::impls::<impl core::clone::Clone for &T>::clone
00000000 g     F .text._ZN4core5slice29_$LT$impl$u20$$u5b$T$u5d$$GT$3len17h9df9be1d4ab20a63E	0000001c core::slice::<impl [T]>::len
00000000 g     F .text._ZN4core5slice29_$LT$impl$u20$$u5b$T$u5d$$GT$4iter17h23128c049e2d6471E	00000090 core::slice::<impl [T]>::iter
00000000 g     F .text._ZN4core5slice29_$LT$impl$u20$$u5b$T$u5d$$GT$6as_ptr17h06db57cccaf14739E	00000014 core::slice::<impl [T]>::as_ptr
00000000 g     F .text._ZN4core5slice87_$LT$impl$u20$core..iter..traits..collect..IntoIterator$u20$for$u20$$RF$$u5b$T$u5d$$GT$9into_iter17he089853155fb924aE	00000026 core::slice::<impl core::iter::traits::collect::IntoIterator for &[T]>::into_iter
00000000         *UND*	00000000 core::option::Option<T>::get_or_insert
00000000         *UND*	00000000 core::result::Result<T,E>::expect
00000000 g     F .text._ZN50_$LT$T$u20$as$u20$core..convert..Into$LT$U$GT$$GT$4into17h5228fec33e09f6f3E	00000030 <T as core::convert::Into<U>>::into
00000000 g     F .text._ZN59_$LT$$LP$T10$C$$u20$T11$RP$$u20$as$u20$core..fmt..Debug$GT$3fmt17hc37232548e7c4f28E	0000007a <(T10, T11) as core::fmt::Debug>::fmt
00000000 g     F .text._ZN5druid12localization24LocalizedString$LT$T$GT$3new17h6d805b612eb3e4bbE	00000060 druid::localization::LocalizedString<T>::new
00000000 g     F .text._ZN5druid12localization24LocalizedString$LT$T$GT$8with_arg17h3f0a027b1dc13913E	00000076 druid::localization::LocalizedString<T>::with_arg
00000000         *UND*	00000000 <core::option::Option<T> as core::clone::Clone>::clone
00000000         *UND*	00000000 <core::option::Option<T> as core::clone::Clone>::clone
00000000 g     F .text._ZN76_$LT$druid..localization..ArgSource$LT$T$GT$$u20$as$u20$core..fmt..Debug$GT$3fmt17hf9b668b5f0d9c7d2E	0000001c <druid::localization::ArgSource<T> as core::fmt::Debug>::fmt
00000000 g     F .text._ZN78_$LT$druid..localization..ArgSource$LT$T$GT$$u20$as$u20$core..clone..Clone$GT$5clone17h861b9290e92b7ab4E	00000022 <druid::localization::ArgSource<T> as core::clone::Clone>::clone
00000000 g     F .text._ZN84_$LT$druid..localization..LocalizedString$LT$T$GT$$u20$as$u20$core..clone..Clone$GT$5clone17hf38aa69c33bdda80E	000000a4 <druid::localization::LocalizedString<T> as core::clone::Clone>::clone
00000000         *UND*	00000000 heapless::vec::Vec<T,N>::new
00000000         *UND*	00000000 heapless::vec::Vec<T,N>::push
00000000         *UND*	00000000 __aeabi_memcpy4



Disassembly of section .text._ZN42_$LT$$RF$T$u20$as$u20$core..fmt..Debug$GT$3fmt17hdcad64cfcfc65b9eE:

00000000 <<&T as core::fmt::Debug>::fmt>:
_ZN42_$LT$$RF$T$u20$as$u20$core..fmt..Debug$GT$3fmt17hdcad64cfcfc65b9eE():
/rustc/50a0defd5a93523067ef239936cc2e0755220904/src/libcore/fmt/mod.rs:1914
   0:	b580      	push	{r7, lr}
   2:	b086      	sub	sp, #24
   4:	460a      	mov	r2, r1
   6:	4603      	mov	r3, r0
   8:	9004      	str	r0, [sp, #16]
   a:	9105      	str	r1, [sp, #20]
   c:	9804      	ldr	r0, [sp, #16]
   e:	6800      	ldr	r0, [r0, #0]
  10:	9905      	ldr	r1, [sp, #20]
  12:	9203      	str	r2, [sp, #12]
  14:	9302      	str	r3, [sp, #8]
  16:	f7ff fffe 	bl	0 <<&T as core::fmt::Debug>::fmt>
  1a:	9001      	str	r0, [sp, #4]
  1c:	e7ff      	b.n	1e <<&T as core::fmt::Debug>::fmt+0x1e>
  1e:	9801      	ldr	r0, [sp, #4]
  20:	f000 0001 	and.w	r0, r0, #1
  24:	b006      	add	sp, #24
  26:	bd80      	pop	{r7, pc}

Disassembly of section .text._ZN4core3ptr31_$LT$impl$u20$$BP$mut$u20$T$GT$3add17h94824ec008941fd2E:

00000000 <core::ptr::<impl *mut T>::add>:
_ZN4core3ptr31_$LT$impl$u20$$BP$mut$u20$T$GT$3add17h94824ec008941fd2E():
/rustc/50a0defd5a93523067ef239936cc2e0755220904/src/libcore/ptr.rs:1938
   0:	b580      	push	{r7, lr}
   2:	b086      	sub	sp, #24
   4:	460a      	mov	r2, r1
   6:	4603      	mov	r3, r0
   8:	9004      	str	r0, [sp, #16]
   a:	9105      	str	r1, [sp, #20]
/rustc/50a0defd5a93523067ef239936cc2e0755220904/src/libcore/ptr.rs:1941
   c:	9804      	ldr	r0, [sp, #16]
   e:	9905      	ldr	r1, [sp, #20]
  10:	9203      	str	r2, [sp, #12]
  12:	9302      	str	r3, [sp, #8]
  14:	f7ff fffe 	bl	0 <core::ptr::<impl *mut T>::add>
  18:	9001      	str	r0, [sp, #4]
  1a:	e7ff      	b.n	1c <core::ptr::<impl *mut T>::add+0x1c>
/rustc/50a0defd5a93523067ef239936cc2e0755220904/src/libcore/ptr.rs:1942
  1c:	9801      	ldr	r0, [sp, #4]
  1e:	b006      	add	sp, #24
  20:	bd80      	pop	{r7, pc}

Disassembly of section .text._ZN4core3ptr31_$LT$impl$u20$$BP$mut$u20$T$GT$5write17h27d0b1552c89c5aeE:

00000000 <core::ptr::<impl *mut T>::write>:
_ZN4core3ptr31_$LT$impl$u20$$BP$mut$u20$T$GT$5write17h27d0b1552c89c5aeE():
/rustc/50a0defd5a93523067ef239936cc2e0755220904/src/libcore/ptr.rs:2214
   0:	b580      	push	{r7, lr}
   2:	b086      	sub	sp, #24
   4:	460a      	mov	r2, r1
   6:	4603      	mov	r3, r0
   8:	9002      	str	r0, [sp, #8]
/rustc/50a0defd5a93523067ef239936cc2e0755220904/src/libcore/ptr.rs:2217
   a:	9802      	ldr	r0, [sp, #8]
   c:	f8d1 c000 	ldr.w	ip, [r1]
  10:	f8d1 e004 	ldr.w	lr, [r1, #4]
  14:	6889      	ldr	r1, [r1, #8]
  16:	9105      	str	r1, [sp, #20]
  18:	f8cd e010 	str.w	lr, [sp, #16]
  1c:	f8cd c00c 	str.w	ip, [sp, #12]
  20:	a903      	add	r1, sp, #12
  22:	9201      	str	r2, [sp, #4]
  24:	9300      	str	r3, [sp, #0]
  26:	f7ff fffe 	bl	0 <core::ptr::write>
  2a:	e7ff      	b.n	2c <core::ptr::<impl *mut T>::write+0x2c>
/rustc/50a0defd5a93523067ef239936cc2e0755220904/src/libcore/ptr.rs:2218
  2c:	b006      	add	sp, #24
  2e:	bd80      	pop	{r7, pc}

Disassembly of section .text._ZN4core3ptr31_$LT$impl$u20$$BP$mut$u20$T$GT$6offset17h17561a77ff6d05b6E:

00000000 <core::ptr::<impl *mut T>::offset>:
_ZN4core3ptr31_$LT$impl$u20$$BP$mut$u20$T$GT$6offset17h17561a77ff6d05b6E():
/rustc/50a0defd5a93523067ef239936cc2e0755220904/src/libcore/ptr.rs:1702
   0:	b086      	sub	sp, #24
   2:	460a      	mov	r2, r1
   4:	4603      	mov	r3, r0
   6:	9003      	str	r0, [sp, #12]
   8:	9104      	str	r1, [sp, #16]
/rustc/50a0defd5a93523067ef239936cc2e0755220904/src/libcore/ptr.rs:1703
   a:	9803      	ldr	r0, [sp, #12]
   c:	9904      	ldr	r1, [sp, #16]
   e:	eb01 0141 	add.w	r1, r1, r1, lsl #1
  12:	eb00 0081 	add.w	r0, r0, r1, lsl #2
  16:	9005      	str	r0, [sp, #20]
  18:	9805      	ldr	r0, [sp, #20]
  1a:	9202      	str	r2, [sp, #8]
  1c:	9301      	str	r3, [sp, #4]
  1e:	9000      	str	r0, [sp, #0]
  20:	e7ff      	b.n	22 <core::ptr::<impl *mut T>::offset+0x22>
/rustc/50a0defd5a93523067ef239936cc2e0755220904/src/libcore/ptr.rs:1704
  22:	9800      	ldr	r0, [sp, #0]
  24:	b006      	add	sp, #24
  26:	4770      	bx	lr

Disassembly of section .text._ZN4core3ptr33_$LT$impl$u20$$BP$const$u20$T$GT$3add17heab5eafea15d9cc4E:

00000000 <core::ptr::<impl *const T>::add>:
_ZN4core3ptr33_$LT$impl$u20$$BP$const$u20$T$GT$3add17heab5eafea15d9cc4E():
/rustc/50a0defd5a93523067ef239936cc2e0755220904/src/libcore/ptr.rs:1294
   0:	b580      	push	{r7, lr}
   2:	b086      	sub	sp, #24
   4:	460a      	mov	r2, r1
   6:	4603      	mov	r3, r0
   8:	9004      	str	r0, [sp, #16]
   a:	9105      	str	r1, [sp, #20]
/rustc/50a0defd5a93523067ef239936cc2e0755220904/src/libcore/ptr.rs:1297
   c:	9804      	ldr	r0, [sp, #16]
   e:	9905      	ldr	r1, [sp, #20]
  10:	9203      	str	r2, [sp, #12]
  12:	9302      	str	r3, [sp, #8]
  14:	f7ff fffe 	bl	0 <core::ptr::<impl *const T>::add>
  18:	9001      	str	r0, [sp, #4]
  1a:	e7ff      	b.n	1c <core::ptr::<impl *const T>::add+0x1c>
/rustc/50a0defd5a93523067ef239936cc2e0755220904/src/libcore/ptr.rs:1298
  1c:	9801      	ldr	r0, [sp, #4]
  1e:	b006      	add	sp, #24
  20:	bd80      	pop	{r7, pc}

Disassembly of section .text._ZN4core3ptr33_$LT$impl$u20$$BP$const$u20$T$GT$6offset17h9bd16f06a7ea778cE:

00000000 <core::ptr::<impl *const T>::offset>:
_ZN4core3ptr33_$LT$impl$u20$$BP$const$u20$T$GT$6offset17h9bd16f06a7ea778cE():
/rustc/50a0defd5a93523067ef239936cc2e0755220904/src/libcore/ptr.rs:1076
   0:	b086      	sub	sp, #24
   2:	460a      	mov	r2, r1
   4:	4603      	mov	r3, r0
   6:	9003      	str	r0, [sp, #12]
   8:	9104      	str	r1, [sp, #16]
/rustc/50a0defd5a93523067ef239936cc2e0755220904/src/libcore/ptr.rs:1077
   a:	9803      	ldr	r0, [sp, #12]
   c:	9904      	ldr	r1, [sp, #16]
   e:	eb01 0141 	add.w	r1, r1, r1, lsl #1
  12:	eb00 0081 	add.w	r0, r0, r1, lsl #2
  16:	9005      	str	r0, [sp, #20]
  18:	9805      	ldr	r0, [sp, #20]
  1a:	9202      	str	r2, [sp, #8]
  1c:	9301      	str	r3, [sp, #4]
  1e:	9000      	str	r0, [sp, #0]
  20:	e7ff      	b.n	22 <core::ptr::<impl *const T>::offset+0x22>
/rustc/50a0defd5a93523067ef239936cc2e0755220904/src/libcore/ptr.rs:1078
  22:	9800      	ldr	r0, [sp, #0]
  24:	b006      	add	sp, #24
  26:	4770      	bx	lr

Disassembly of section .text._ZN4core3ptr33_$LT$impl$u20$$BP$const$u20$T$GT$7is_null17h69a73973989bbaf6E:

00000000 <core::ptr::<impl *const T>::is_null>:
_ZN4core3ptr33_$LT$impl$u20$$BP$const$u20$T$GT$7is_null17h69a73973989bbaf6E():
/rustc/50a0defd5a93523067ef239936cc2e0755220904/src/libcore/ptr.rs:962
   0:	b580      	push	{r7, lr}
   2:	b084      	sub	sp, #16
   4:	4601      	mov	r1, r0
   6:	9003      	str	r0, [sp, #12]
/rustc/50a0defd5a93523067ef239936cc2e0755220904/src/libcore/ptr.rs:965
   8:	9803      	ldr	r0, [sp, #12]
   a:	9102      	str	r1, [sp, #8]
   c:	9001      	str	r0, [sp, #4]
   e:	f7ff fffe 	bl	0 <core::ptr::null>
  12:	9000      	str	r0, [sp, #0]
  14:	e7ff      	b.n	16 <core::ptr::<impl *const T>::is_null+0x16>
  16:	9801      	ldr	r0, [sp, #4]
  18:	9900      	ldr	r1, [sp, #0]
  1a:	1a42      	subs	r2, r0, r1
  1c:	fab2 f282 	clz	r2, r2
  20:	0950      	lsrs	r0, r2, #5
/rustc/50a0defd5a93523067ef239936cc2e0755220904/src/libcore/ptr.rs:966
  22:	b004      	add	sp, #16
  24:	bd80      	pop	{r7, pc}

Disassembly of section .text._ZN4core5slice29_$LT$impl$u20$$u5b$T$u5d$$GT$3len17h9df9be1d4ab20a63E:

00000000 <core::slice::<impl [T]>::len>:
_ZN4core5slice29_$LT$impl$u20$$u5b$T$u5d$$GT$3len17h9df9be1d4ab20a63E():
/rustc/50a0defd5a93523067ef239936cc2e0755220904/src/libcore/slice/mod.rs:79
   0:	b086      	sub	sp, #24
   2:	460a      	mov	r2, r1
   4:	4603      	mov	r3, r0
   6:	9002      	str	r0, [sp, #8]
   8:	9103      	str	r1, [sp, #12]
/rustc/50a0defd5a93523067ef239936cc2e0755220904/src/libcore/slice/mod.rs:81
   a:	9802      	ldr	r0, [sp, #8]
   c:	9903      	ldr	r1, [sp, #12]
   e:	9004      	str	r0, [sp, #16]
  10:	9105      	str	r1, [sp, #20]
  12:	9805      	ldr	r0, [sp, #20]
/rustc/50a0defd5a93523067ef239936cc2e0755220904/src/libcore/slice/mod.rs:83
  14:	9201      	str	r2, [sp, #4]
  16:	9300      	str	r3, [sp, #0]
  18:	b006      	add	sp, #24
  1a:	4770      	bx	lr

Disassembly of section .text._ZN4core5slice29_$LT$impl$u20$$u5b$T$u5d$$GT$4iter17h23128c049e2d6471E:

00000000 <core::slice::<impl [T]>::iter>:
_ZN4core5slice29_$LT$impl$u20$$u5b$T$u5d$$GT$4iter17h23128c049e2d6471E():
/rustc/50a0defd5a93523067ef239936cc2e0755220904/src/libcore/slice/mod.rs:535
   0:	b580      	push	{r7, lr}
   2:	b090      	sub	sp, #64	; 0x40
   4:	460a      	mov	r2, r1
   6:	4603      	mov	r3, r0
   8:	9009      	str	r0, [sp, #36]	; 0x24
   a:	910a      	str	r1, [sp, #40]	; 0x28
/rustc/50a0defd5a93523067ef239936cc2e0755220904/src/libcore/slice/mod.rs:537
   c:	9809      	ldr	r0, [sp, #36]	; 0x24
   e:	990a      	ldr	r1, [sp, #40]	; 0x28
  10:	9208      	str	r2, [sp, #32]
  12:	9307      	str	r3, [sp, #28]
  14:	f7ff fffe 	bl	0 <core::slice::<impl [T]>::iter>
  18:	900d      	str	r0, [sp, #52]	; 0x34
  1a:	e7ff      	b.n	1c <core::slice::<impl [T]>::iter+0x1c>
/rustc/50a0defd5a93523067ef239936cc2e0755220904/src/libcore/slice/mod.rs:538
  1c:	980d      	ldr	r0, [sp, #52]	; 0x34
  1e:	f7ff fffe 	bl	0 <core::slice::<impl [T]>::iter>
  22:	9006      	str	r0, [sp, #24]
  24:	e7ff      	b.n	26 <core::slice::<impl [T]>::iter+0x26>
  26:	e7ff      	b.n	28 <core::slice::<impl [T]>::iter+0x28>
/rustc/50a0defd5a93523067ef239936cc2e0755220904/src/libcore/slice/mod.rs:540
  28:	f7ff fffe 	bl	0 <core::mem::size_of>
  2c:	9005      	str	r0, [sp, #20]
  2e:	e7ff      	b.n	30 <core::slice::<impl [T]>::iter+0x30>
  30:	9805      	ldr	r0, [sp, #20]
  32:	2800      	cmp	r0, #0
  34:	d113      	bne.n	5e <core::slice::<impl [T]>::iter+0x5e>
  36:	e7ff      	b.n	38 <core::slice::<impl [T]>::iter+0x38>
/rustc/50a0defd5a93523067ef239936cc2e0755220904/src/libcore/slice/mod.rs:541
  38:	980d      	ldr	r0, [sp, #52]	; 0x34
  3a:	9909      	ldr	r1, [sp, #36]	; 0x24
  3c:	9a0a      	ldr	r2, [sp, #40]	; 0x28
  3e:	9004      	str	r0, [sp, #16]
  40:	4608      	mov	r0, r1
  42:	4611      	mov	r1, r2
  44:	f7ff fffe 	bl	0 <core::slice::<impl [T]>::iter>
  48:	9003      	str	r0, [sp, #12]
  4a:	e7ff      	b.n	4c <core::slice::<impl [T]>::iter+0x4c>
  4c:	9804      	ldr	r0, [sp, #16]
  4e:	9903      	ldr	r1, [sp, #12]
  50:	f7ff fffe 	bl	0 <core::ptr::<impl *const T>::wrapping_add>
  54:	9002      	str	r0, [sp, #8]
  56:	e7ff      	b.n	58 <core::slice::<impl [T]>::iter+0x58>
  58:	9802      	ldr	r0, [sp, #8]
  5a:	900e      	str	r0, [sp, #56]	; 0x38
/rustc/50a0defd5a93523067ef239936cc2e0755220904/src/libcore/slice/mod.rs:540
  5c:	e010      	b.n	80 <core::slice::<impl [T]>::iter+0x80>
/rustc/50a0defd5a93523067ef239936cc2e0755220904/src/libcore/slice/mod.rs:543
  5e:	980d      	ldr	r0, [sp, #52]	; 0x34
  60:	9909      	ldr	r1, [sp, #36]	; 0x24
  62:	9a0a      	ldr	r2, [sp, #40]	; 0x28
  64:	9001      	str	r0, [sp, #4]
  66:	4608      	mov	r0, r1
  68:	4611      	mov	r1, r2
  6a:	f7ff fffe 	bl	0 <core::slice::<impl [T]>::iter>
  6e:	9000      	str	r0, [sp, #0]
  70:	e7ff      	b.n	72 <core::slice::<impl [T]>::iter+0x72>
  72:	9801      	ldr	r0, [sp, #4]
  74:	9900      	ldr	r1, [sp, #0]
  76:	f7ff fffe 	bl	0 <core::slice::<impl [T]>::iter>
  7a:	900e      	str	r0, [sp, #56]	; 0x38
  7c:	e7ff      	b.n	7e <core::slice::<impl [T]>::iter+0x7e>
/rustc/50a0defd5a93523067ef239936cc2e0755220904/src/libcore/slice/mod.rs:540
  7e:	e7ff      	b.n	80 <core::slice::<impl [T]>::iter+0x80>
/rustc/50a0defd5a93523067ef239936cc2e0755220904/src/libcore/slice/mod.rs:547
  80:	980d      	ldr	r0, [sp, #52]	; 0x34
/rustc/50a0defd5a93523067ef239936cc2e0755220904/src/libcore/slice/mod.rs:548
  82:	990e      	ldr	r1, [sp, #56]	; 0x38
/rustc/50a0defd5a93523067ef239936cc2e0755220904/src/libcore/slice/mod.rs:546
  84:	900b      	str	r0, [sp, #44]	; 0x2c
  86:	910c      	str	r1, [sp, #48]	; 0x30
/rustc/50a0defd5a93523067ef239936cc2e0755220904/src/libcore/slice/mod.rs:552
  88:	980b      	ldr	r0, [sp, #44]	; 0x2c
  8a:	990c      	ldr	r1, [sp, #48]	; 0x30
  8c:	b010      	add	sp, #64	; 0x40
  8e:	bd80      	pop	{r7, pc}

Disassembly of section .text._ZN4core5slice29_$LT$impl$u20$$u5b$T$u5d$$GT$6as_ptr17h06db57cccaf14739E:

00000000 <core::slice::<impl [T]>::as_ptr>:
_ZN4core5slice29_$LT$impl$u20$$u5b$T$u5d$$GT$6as_ptr17h06db57cccaf14739E():
/rustc/50a0defd5a93523067ef239936cc2e0755220904/src/libcore/slice/mod.rs:385
   0:	b084      	sub	sp, #16
   2:	460a      	mov	r2, r1
   4:	4603      	mov	r3, r0
   6:	9002      	str	r0, [sp, #8]
   8:	9103      	str	r1, [sp, #12]
/rustc/50a0defd5a93523067ef239936cc2e0755220904/src/libcore/slice/mod.rs:386
   a:	9802      	ldr	r0, [sp, #8]
/rustc/50a0defd5a93523067ef239936cc2e0755220904/src/libcore/slice/mod.rs:387
   c:	9201      	str	r2, [sp, #4]
   e:	9300      	str	r3, [sp, #0]
  10:	b004      	add	sp, #16
  12:	4770      	bx	lr

Disassembly of section .text._ZN4core5slice87_$LT$impl$u20$core..iter..traits..collect..IntoIterator$u20$for$u20$$RF$$u5b$T$u5d$$GT$9into_iter17he089853155fb924aE:

00000000 <core::slice::<impl core::iter::traits::collect::IntoIterator for &[T]>::into_iter>:
_ZN4core5slice87_$LT$impl$u20$core..iter..traits..collect..IntoIterator$u20$for$u20$$RF$$u5b$T$u5d$$GT$9into_iter17he089853155fb924aE():
/rustc/50a0defd5a93523067ef239936cc2e0755220904/src/libcore/slice/mod.rs:2971
   0:	b580      	push	{r7, lr}
   2:	b086      	sub	sp, #24
   4:	460a      	mov	r2, r1
   6:	4603      	mov	r3, r0
   8:	9004      	str	r0, [sp, #16]
   a:	9105      	str	r1, [sp, #20]
/rustc/50a0defd5a93523067ef239936cc2e0755220904/src/libcore/slice/mod.rs:2972
   c:	9804      	ldr	r0, [sp, #16]
   e:	9905      	ldr	r1, [sp, #20]
  10:	9203      	str	r2, [sp, #12]
  12:	9302      	str	r3, [sp, #8]
  14:	f7ff fffe 	bl	0 <core::slice::<impl core::iter::traits::collect::IntoIterator for &[T]>::into_iter>
  18:	9001      	str	r0, [sp, #4]
  1a:	9100      	str	r1, [sp, #0]
  1c:	e7ff      	b.n	1e <core::slice::<impl core::iter::traits::collect::IntoIterator for &[T]>::into_iter+0x1e>
/rustc/50a0defd5a93523067ef239936cc2e0755220904/src/libcore/slice/mod.rs:2973
  1e:	9801      	ldr	r0, [sp, #4]
  20:	9900      	ldr	r1, [sp, #0]
  22:	b006      	add	sp, #24
  24:	bd80      	pop	{r7, pc}

Disassembly of section .text._ZN50_$LT$T$u20$as$u20$core..convert..Into$LT$U$GT$$GT$4into17h5228fec33e09f6f3E:

00000000 <<T as core::convert::Into<U>>::into>:
_ZN50_$LT$T$u20$as$u20$core..convert..Into$LT$U$GT$$GT$4into17h5228fec33e09f6f3E():
/rustc/50a0defd5a93523067ef239936cc2e0755220904/src/libcore/convert.rs:539
   0:	b580      	push	{r7, lr}
   2:	b09c      	sub	sp, #112	; 0x70
   4:	460a      	mov	r2, r1
   6:	4603      	mov	r3, r0
   8:	f10d 0c10 	add.w	ip, sp, #16
   c:	f04f 0e60 	mov.w	lr, #96	; 0x60
/rustc/50a0defd5a93523067ef239936cc2e0755220904/src/libcore/convert.rs:540
  10:	9003      	str	r0, [sp, #12]
  12:	4660      	mov	r0, ip
  14:	9202      	str	r2, [sp, #8]
  16:	4672      	mov	r2, lr
  18:	9301      	str	r3, [sp, #4]
  1a:	f8cd c000 	str.w	ip, [sp]
  1e:	f7ff fffe 	bl	0 <__aeabi_memcpy4>
  22:	9803      	ldr	r0, [sp, #12]
  24:	9900      	ldr	r1, [sp, #0]
  26:	f7ff fffe 	bl	0 <<druid::widget::label::LabelText<T> as core::convert::From<druid::localization::LocalizedString<T>>>::from>
  2a:	e7ff      	b.n	2c <<T as core::convert::Into<U>>::into+0x2c>
/rustc/50a0defd5a93523067ef239936cc2e0755220904/src/libcore/convert.rs:541
  2c:	b01c      	add	sp, #112	; 0x70
  2e:	bd80      	pop	{r7, pc}

Disassembly of section .text._ZN59_$LT$$LP$T10$C$$u20$T11$RP$$u20$as$u20$core..fmt..Debug$GT$3fmt17hc37232548e7c4f28E:

00000000 <<(T10, T11) as core::fmt::Debug>::fmt>:
_ZN59_$LT$$LP$T10$C$$u20$T11$RP$$u20$as$u20$core..fmt..Debug$GT$3fmt17hc37232548e7c4f28E():
/rustc/50a0defd5a93523067ef239936cc2e0755220904/src/libcore/fmt/mod.rs:2075
   0:	b580      	push	{r7, lr}
   2:	b08e      	sub	sp, #56	; 0x38
   4:	460a      	mov	r2, r1
   6:	4603      	mov	r3, r0
   8:	9007      	str	r0, [sp, #28]
   a:	9108      	str	r1, [sp, #32]
/rustc/50a0defd5a93523067ef239936cc2e0755220904/src/libcore/fmt/mod.rs:2076
   c:	9908      	ldr	r1, [sp, #32]
   e:	f240 0000 	movw	r0, #0
  12:	f2c0 0000 	movt	r0, #0
  16:	f10d 0c24 	add.w	ip, sp, #36	; 0x24
  1a:	f04f 0e00 	mov.w	lr, #0
  1e:	9006      	str	r0, [sp, #24]
  20:	4660      	mov	r0, ip
  22:	f8dd c018 	ldr.w	ip, [sp, #24]
  26:	9205      	str	r2, [sp, #20]
  28:	4662      	mov	r2, ip
  2a:	9304      	str	r3, [sp, #16]
  2c:	4673      	mov	r3, lr
  2e:	f7ff fffe 	bl	0 <core::fmt::Formatter::debug_tuple>
  32:	e7ff      	b.n	34 <<(T10, T11) as core::fmt::Debug>::fmt+0x34>
/rustc/50a0defd5a93523067ef239936cc2e0755220904/src/libcore/fmt/mod.rs:2077
  34:	9807      	ldr	r0, [sp, #28]
  36:	900c      	str	r0, [sp, #48]	; 0x30
  38:	9807      	ldr	r0, [sp, #28]
  3a:	3008      	adds	r0, #8
  3c:	900d      	str	r0, [sp, #52]	; 0x34
/rustc/50a0defd5a93523067ef239936cc2e0755220904/src/libcore/fmt/mod.rs:2079
  3e:	f240 0200 	movw	r2, #0
  42:	f2c0 0200 	movt	r2, #0
  46:	a809      	add	r0, sp, #36	; 0x24
  48:	a90c      	add	r1, sp, #48	; 0x30
  4a:	f7ff fffe 	bl	0 <core::fmt::builders::DebugTuple::field>
  4e:	9003      	str	r0, [sp, #12]
  50:	e7ff      	b.n	52 <<(T10, T11) as core::fmt::Debug>::fmt+0x52>
  52:	f240 0200 	movw	r2, #0
  56:	f2c0 0200 	movt	r2, #0
  5a:	a809      	add	r0, sp, #36	; 0x24
  5c:	a90d      	add	r1, sp, #52	; 0x34
  5e:	f7ff fffe 	bl	0 <core::fmt::builders::DebugTuple::field>
  62:	9002      	str	r0, [sp, #8]
  64:	e7ff      	b.n	66 <<(T10, T11) as core::fmt::Debug>::fmt+0x66>
  66:	a809      	add	r0, sp, #36	; 0x24
/rustc/50a0defd5a93523067ef239936cc2e0755220904/src/libcore/fmt/mod.rs:2082
  68:	f7ff fffe 	bl	0 <core::fmt::builders::DebugTuple::finish>
  6c:	9001      	str	r0, [sp, #4]
  6e:	e7ff      	b.n	70 <<(T10, T11) as core::fmt::Debug>::fmt+0x70>
/rustc/50a0defd5a93523067ef239936cc2e0755220904/src/libcore/fmt/mod.rs:2083
  70:	9801      	ldr	r0, [sp, #4]
  72:	f000 0001 	and.w	r0, r0, #1
  76:	b00e      	add	sp, #56	; 0x38
  78:	bd80      	pop	{r7, pc}

Disassembly of section .text._ZN5druid12localization24LocalizedString$LT$T$GT$3new17h6d805b612eb3e4bbE:

00000000 <druid::localization::LocalizedString<T>::new>:
_ZN5druid12localization24LocalizedString$LT$T$GT$3new17h6d805b612eb3e4bbE():
/Users/Luppy/mynewt/druid-embedded/druid/src/localization.rs:312
}
*/ ////

impl<T> LocalizedString<T> {
    /// Create a new `LocalizedString` with the given key.
    pub const fn new(key: &'static str) -> Self {
   0:	b5f0      	push	{r4, r5, r6, r7, lr}
   2:	b09b      	sub	sp, #108	; 0x6c
   4:	4613      	mov	r3, r2
   6:	468c      	mov	ip, r1
   8:	4686      	mov	lr, r0
   a:	9103      	str	r1, [sp, #12]
   c:	9204      	str	r2, [sp, #16]
/Users/Luppy/mynewt/druid-embedded/druid/src/localization.rs:314
        LocalizedString {
            key,
   e:	9903      	ldr	r1, [sp, #12]
  10:	9a04      	ldr	r2, [sp, #16]
  12:	2400      	movs	r4, #0
/Users/Luppy/mynewt/druid-embedded/druid/src/localization.rs:315
            args: None,
  14:	9405      	str	r4, [sp, #20]
/Users/Luppy/mynewt/druid-embedded/druid/src/localization.rs:316
            placeholder: None,
  16:	940d      	str	r4, [sp, #52]	; 0x34
/Users/Luppy/mynewt/druid-embedded/druid/src/localization.rs:317
            resolved: None,
  18:	9414      	str	r4, [sp, #80]	; 0x50
/Users/Luppy/mynewt/druid-embedded/druid/src/localization.rs:313
        LocalizedString {
  1a:	6001      	str	r1, [r0, #0]
  1c:	6042      	str	r2, [r0, #4]
  1e:	f100 0108 	add.w	r1, r0, #8
  22:	aa0d      	add	r2, sp, #52	; 0x34
  24:	ca70      	ldmia	r2!, {r4, r5, r6}
  26:	c170      	stmia	r1!, {r4, r5, r6}
  28:	e892 00f0 	ldmia.w	r2, {r4, r5, r6, r7}
  2c:	e881 00f0 	stmia.w	r1, {r4, r5, r6, r7}
  30:	f100 0124 	add.w	r1, r0, #36	; 0x24
  34:	aa05      	add	r2, sp, #20
  36:	caf0      	ldmia	r2!, {r4, r5, r6, r7}
  38:	c1f0      	stmia	r1!, {r4, r5, r6, r7}
  3a:	e892 00f0 	ldmia.w	r2, {r4, r5, r6, r7}
  3e:	e881 00f0 	stmia.w	r1, {r4, r5, r6, r7}
  42:	3044      	adds	r0, #68	; 0x44
  44:	a914      	add	r1, sp, #80	; 0x50
  46:	c934      	ldmia	r1!, {r2, r4, r5}
  48:	c034      	stmia	r0!, {r2, r4, r5}
  4a:	e891 0074 	ldmia.w	r1, {r2, r4, r5, r6}
  4e:	e880 0074 	stmia.w	r0, {r2, r4, r5, r6}
/Users/Luppy/mynewt/druid-embedded/druid/src/localization.rs:320
            ////resolved_lang: None,
        }
    }
  52:	9302      	str	r3, [sp, #8]
  54:	f8cd c004 	str.w	ip, [sp, #4]
  58:	f8cd e000 	str.w	lr, [sp]
  5c:	b01b      	add	sp, #108	; 0x6c
  5e:	bdf0      	pop	{r4, r5, r6, r7, pc}

Disassembly of section .text._ZN5druid12localization24LocalizedString$LT$T$GT$8with_arg17h3f0a027b1dc13913E:

00000000 <druid::localization::LocalizedString<T>::with_arg>:
_ZN5druid12localization24LocalizedString$LT$T$GT$8with_arg17h3f0a027b1dc13913E():
/Users/Luppy/mynewt/druid-embedded/druid/src/localization.rs:352
    /// Add a named argument and a corresponding [`ArgClosure`]. This closure
    /// is a function that will return a value for the given key from the current
    /// environment and data.
    ///
    /// [`ArgClosure`]: type.ArgClosure.html
    pub fn with_arg(
   0:	b5b0      	push	{r4, r5, r7, lr}
   2:	b098      	sub	sp, #96	; 0x60
   4:	f8dd c070 	ldr.w	ip, [sp, #112]	; 0x70
   8:	469e      	mov	lr, r3
   a:	4614      	mov	r4, r2
   c:	460d      	mov	r5, r1
   e:	9208      	str	r2, [sp, #32]
  10:	9309      	str	r3, [sp, #36]	; 0x24
/Users/Luppy/mynewt/druid-embedded/druid/src/localization.rs:358
        mut self,
        key: &'static str,
        f: fn(&T, &Env) -> String, ////
        ////f: impl Fn(&T, &Env) -> FluentValue<'static> + 'static,
    ) -> Self {
        self.args
  12:	3124      	adds	r1, #36	; 0x24
  14:	aa0d      	add	r2, sp, #52	; 0x34
/Users/Luppy/mynewt/druid-embedded/druid/src/localization.rs:359
            .get_or_insert(Vec::new())
  16:	9007      	str	r0, [sp, #28]
  18:	4610      	mov	r0, r2
  1a:	f8cd c018 	str.w	ip, [sp, #24]
  1e:	f8cd e014 	str.w	lr, [sp, #20]
  22:	9404      	str	r4, [sp, #16]
  24:	9503      	str	r5, [sp, #12]
  26:	9102      	str	r1, [sp, #8]
  28:	f7ff fffe 	bl	0 <heapless::vec::Vec<T,N>::new>
  2c:	e7ff      	b.n	2e <druid::localization::LocalizedString<T>::with_arg+0x2e>
  2e:	a90d      	add	r1, sp, #52	; 0x34
/Users/Luppy/mynewt/druid-embedded/druid/src/localization.rs:358
        self.args
  30:	9802      	ldr	r0, [sp, #8]
  32:	f7ff fffe 	bl	0 <core::option::Option<T>::get_or_insert>
  36:	9001      	str	r0, [sp, #4]
  38:	e7ff      	b.n	3a <druid::localization::LocalizedString<T>::with_arg+0x3a>
/Users/Luppy/mynewt/druid-embedded/druid/src/localization.rs:360
            .push((key, ArgSource(f)))
  3a:	9808      	ldr	r0, [sp, #32]
  3c:	9909      	ldr	r1, [sp, #36]	; 0x24
  3e:	9a1c      	ldr	r2, [sp, #112]	; 0x70
  40:	9217      	str	r2, [sp, #92]	; 0x5c
  42:	9014      	str	r0, [sp, #80]	; 0x50
  44:	9115      	str	r1, [sp, #84]	; 0x54
  46:	9817      	ldr	r0, [sp, #92]	; 0x5c
  48:	9016      	str	r0, [sp, #88]	; 0x58
  4a:	a80a      	add	r0, sp, #40	; 0x28
  4c:	aa14      	add	r2, sp, #80	; 0x50
/Users/Luppy/mynewt/druid-embedded/druid/src/localization.rs:358
        self.args
  4e:	9901      	ldr	r1, [sp, #4]
  50:	f7ff fffe 	bl	0 <heapless::vec::Vec<T,N>::push>
  54:	e7ff      	b.n	2 <druid::localization::LocalizedString<T>::with_arg+0x2>
  56:	f240 0100 	movw	r1, #0
  5a:	f2c0 0100 	movt	r1, #0
  5e:	a80a      	add	r0, sp, #40	; 0x28
  60:	220f      	movs	r2, #15
  62:	f7ff fffe 	bl	0 <core::result::Result<T,E>::expect>
  66:	e7ff      	b.n	68 <druid::localization::LocalizedString<T>::with_arg+0x68>
  68:	2260      	movs	r2, #96	; 0x60
/Users/Luppy/mynewt/druid-embedded/druid/src/localization.rs:363
            .expect("with arg failed"); ////
            ////.push((key, ArgSource(Arc::new(f))));
        self
  6a:	9807      	ldr	r0, [sp, #28]
  6c:	9903      	ldr	r1, [sp, #12]
  6e:	f7ff fffe 	bl	0 <__aeabi_memcpy4>
/Users/Luppy/mynewt/druid-embedded/druid/src/localization.rs:364
    }
  72:	b018      	add	sp, #96	; 0x60
  74:	bdb0      	pop	{r4, r5, r7, pc}

Disassembly of section .text._ZN76_$LT$druid..localization..ArgSource$LT$T$GT$$u20$as$u20$core..fmt..Debug$GT$3fmt17hf9b668b5f0d9c7d2E:

00000000 <<druid::localization::ArgSource<T> as core::fmt::Debug>::fmt>:
_ZN76_$LT$druid..localization..ArgSource$LT$T$GT$$u20$as$u20$core..fmt..Debug$GT$3fmt17hf9b668b5f0d9c7d2E():
/Users/Luppy/mynewt/druid-embedded/druid/src/localization.rs:468
}
*/

/// Implement formatted output for ArgSource
impl<T> core::fmt::Debug for ArgSource<T> { ////
    fn fmt(&self, _fmt: &mut ::core::fmt::Formatter<'_>) -> ::core::fmt::Result {
   0:	b086      	sub	sp, #24
   2:	460a      	mov	r2, r1
   4:	4603      	mov	r3, r0
   6:	9002      	str	r0, [sp, #8]
   8:	9103      	str	r1, [sp, #12]
   a:	2000      	movs	r0, #0
/Users/Luppy/mynewt/druid-embedded/druid/src/localization.rs:470
        //  TODO
        Ok(())
   c:	f88d 0013 	strb.w	r0, [sp, #19]
/Users/Luppy/mynewt/druid-embedded/druid/src/localization.rs:471
    }
  10:	f89d 0013 	ldrb.w	r0, [sp, #19]
  14:	9201      	str	r2, [sp, #4]
  16:	9300      	str	r3, [sp, #0]
  18:	b006      	add	sp, #24
  1a:	4770      	bx	lr

Disassembly of section .text._ZN78_$LT$druid..localization..ArgSource$LT$T$GT$$u20$as$u20$core..clone..Clone$GT$5clone17h861b9290e92b7ab4E:

00000000 <<druid::localization::ArgSource<T> as core::clone::Clone>::clone>:
_ZN78_$LT$druid..localization..ArgSource$LT$T$GT$$u20$as$u20$core..clone..Clone$GT$5clone17h861b9290e92b7ab4E():
/Users/Luppy/mynewt/druid-embedded/druid/src/localization.rs:98
#[derive(Clone)]
   0:	b580      	push	{r7, lr}
   2:	b086      	sub	sp, #24
   4:	4601      	mov	r1, r0
   6:	9003      	str	r0, [sp, #12]
/Users/Luppy/mynewt/druid-embedded/druid/src/localization.rs:99
struct ArgSource<T>(ArgClosure<T>);
   8:	9803      	ldr	r0, [sp, #12]
   a:	9005      	str	r0, [sp, #20]
   c:	9805      	ldr	r0, [sp, #20]
   e:	9102      	str	r1, [sp, #8]
  10:	f7ff fffe 	bl	0 <core::clone::Clone::clone>
  14:	9001      	str	r0, [sp, #4]
  16:	e7ff      	b.n	18 <<druid::localization::ArgSource<T> as core::clone::Clone>::clone+0x18>
/Users/Luppy/mynewt/druid-embedded/druid/src/localization.rs:98
#[derive(Clone)]
  18:	9801      	ldr	r0, [sp, #4]
  1a:	9004      	str	r0, [sp, #16]
  1c:	9804      	ldr	r0, [sp, #16]
  1e:	b006      	add	sp, #24
  20:	bd80      	pop	{r7, pc}

Disassembly of section .text._ZN84_$LT$druid..localization..LocalizedString$LT$T$GT$$u20$as$u20$core..clone..Clone$GT$5clone17hf38aa69c33bdda80E:

00000000 <<druid::localization::LocalizedString<T> as core::clone::Clone>::clone>:
_ZN84_$LT$druid..localization..LocalizedString$LT$T$GT$$u20$as$u20$core..clone..Clone$GT$5clone17hf38aa69c33bdda80E():
/Users/Luppy/mynewt/druid-embedded/druid/src/localization.rs:105
#[derive(Clone)]////
   0:	b570      	push	{r4, r5, r6, lr}
   2:	b0a0      	sub	sp, #128	; 0x80
   4:	460a      	mov	r2, r1
   6:	9105      	str	r1, [sp, #20]
/Users/Luppy/mynewt/druid-embedded/druid/src/localization.rs:108
    pub(crate) key: &'static str,
   8:	9905      	ldr	r1, [sp, #20]
   a:	9106      	str	r1, [sp, #24]
/Users/Luppy/mynewt/druid-embedded/druid/src/localization.rs:109
    placeholder: Option<String>,
   c:	9905      	ldr	r1, [sp, #20]
   e:	3108      	adds	r1, #8
  10:	9107      	str	r1, [sp, #28]
/Users/Luppy/mynewt/druid-embedded/druid/src/localization.rs:110
    args: Option<Vec<(&'static str, ArgSource<T>)>>,
  12:	9905      	ldr	r1, [sp, #20]
  14:	3124      	adds	r1, #36	; 0x24
  16:	9108      	str	r1, [sp, #32]
/Users/Luppy/mynewt/druid-embedded/druid/src/localization.rs:111
    resolved: Option<String>,
  18:	9905      	ldr	r1, [sp, #20]
  1a:	3144      	adds	r1, #68	; 0x44
  1c:	9109      	str	r1, [sp, #36]	; 0x24
/Users/Luppy/mynewt/druid-embedded/druid/src/localization.rs:108
    pub(crate) key: &'static str,
  1e:	9906      	ldr	r1, [sp, #24]
  20:	9004      	str	r0, [sp, #16]
  22:	4608      	mov	r0, r1
  24:	9203      	str	r2, [sp, #12]
  26:	f7ff fffe 	bl	0 <core::clone::impls::<impl core::clone::Clone for &T>::clone>
  2a:	9002      	str	r0, [sp, #8]
  2c:	9101      	str	r1, [sp, #4]
  2e:	e7ff      	b.n	30 <<druid::localization::LocalizedString<T> as core::clone::Clone>::clone+0x30>
/Users/Luppy/mynewt/druid-embedded/druid/src/localization.rs:109
    placeholder: Option<String>,
  30:	9907      	ldr	r1, [sp, #28]
  32:	a80a      	add	r0, sp, #40	; 0x28
  34:	f7ff fffe 	bl	0 <<core::option::Option<T> as core::clone::Clone>::clone>
  38:	e7ff      	b.n	3a <<druid::localization::LocalizedString<T> as core::clone::Clone>::clone+0x3a>
/Users/Luppy/mynewt/druid-embedded/druid/src/localization.rs:110
    args: Option<Vec<(&'static str, ArgSource<T>)>>,
  3a:	9908      	ldr	r1, [sp, #32]
  3c:	a811      	add	r0, sp, #68	; 0x44
  3e:	f7ff fffe 	bl	0 <<core::option::Option<T> as core::clone::Clone>::clone>
  42:	e7ff      	b.n	44 <<druid::localization::LocalizedString<T> as core::clone::Clone>::clone+0x44>
/Users/Luppy/mynewt/druid-embedded/druid/src/localization.rs:111
    resolved: Option<String>,
  44:	9909      	ldr	r1, [sp, #36]	; 0x24
  46:	a819      	add	r0, sp, #100	; 0x64
  48:	f7ff fffe 	bl	0 <<core::option::Option<T> as core::clone::Clone>::clone>
  4c:	e7ff      	b.n	4e <<druid::localization::LocalizedString<T> as core::clone::Clone>::clone+0x4e>
/Users/Luppy/mynewt/druid-embedded/druid/src/localization.rs:105
#[derive(Clone)]////
  4e:	9802      	ldr	r0, [sp, #8]
  50:	9904      	ldr	r1, [sp, #16]
  52:	6008      	str	r0, [r1, #0]
  54:	9a01      	ldr	r2, [sp, #4]
  56:	604a      	str	r2, [r1, #4]
  58:	f101 0308 	add.w	r3, r1, #8
  5c:	f10d 0c28 	add.w	ip, sp, #40	; 0x28
  60:	e8bc 4030 	ldmia.w	ip!, {r4, r5, lr}
  64:	e8a3 4030 	stmia.w	r3!, {r4, r5, lr}
  68:	e89c 4070 	ldmia.w	ip, {r4, r5, r6, lr}
  6c:	e883 4070 	stmia.w	r3, {r4, r5, r6, lr}
  70:	f101 0324 	add.w	r3, r1, #36	; 0x24
  74:	f10d 0c44 	add.w	ip, sp, #68	; 0x44
  78:	e8bc 4070 	ldmia.w	ip!, {r4, r5, r6, lr}
  7c:	e8a3 4070 	stmia.w	r3!, {r4, r5, r6, lr}
  80:	e89c 4070 	ldmia.w	ip, {r4, r5, r6, lr}
  84:	e883 4070 	stmia.w	r3, {r4, r5, r6, lr}
  88:	f101 0344 	add.w	r3, r1, #68	; 0x44
  8c:	f10d 0c64 	add.w	ip, sp, #100	; 0x64
  90:	e8bc 4030 	ldmia.w	ip!, {r4, r5, lr}
  94:	e8a3 4030 	stmia.w	r3!, {r4, r5, lr}
  98:	e89c 4070 	ldmia.w	ip, {r4, r5, r6, lr}
  9c:	e883 4070 	stmia.w	r3, {r4, r5, r6, lr}
  a0:	b020      	add	sp, #128	; 0x80
  a2:	bd70      	pop	{r4, r5, r6, pc}

app-e8778d9de5b9c761.3fq1obdcx764lzmp.rcgu.o:     file format elf32-littlearm

SYMBOL TABLE:
00000000 l    df *ABS*	00000000 3fq1obdcx764lzmp
000014e3 l       .debug_str	00000000 
000023f7 l       .debug_str	00000000 
00002406 l       .debug_str	00000000 
00002432 l       .debug_str	00000000 
00002459 l       .debug_str	00000000 
0000248c l       .debug_str	00000000 
000024b3 l       .debug_str	00000000 
000024e0 l       .debug_str	00000000 
00002507 l       .debug_str	00000000 
0000254a l       .debug_str	00000000 
0000254e l       .debug_str	00000000 
00002591 l       .debug_str	00000000 
00002595 l       .debug_str	00000000 
00002599 l       .debug_str	00000000 
000025ca l       .debug_str	00000000 
00000000 l       .debug_str	00000000 
00000041 l       .debug_str	00000000 
00000055 l       .debug_str	00000000 
00000085 l       .debug_str	00000000 
0000008b l       .debug_str	00000000 
00000092 l       .debug_str	00000000 
00000097 l       .debug_str	00000000 
0000009a l       .debug_str	00000000 
000000a5 l       .debug_str	00000000 
000000ae l       .debug_str	00000000 
000000b3 l       .debug_str	00000000 
000000b8 l       .debug_str	00000000 
000000bf l       .debug_str	00000000 
000000c4 l       .debug_str	00000000 
000000c9 l       .debug_str	00000000 
000000d0 l       .debug_str	00000000 
000000d4 l       .debug_str	00000000 
000000db l       .debug_str	00000000 
000000de l       .debug_str	00000000 
000000e4 l       .debug_str	00000000 
000000e8 l       .debug_str	00000000 
000000f5 l       .debug_str	00000000 
000000f8 l       .debug_str	00000000 
000000fc l       .debug_str	00000000 
00000106 l       .debug_str	00000000 
0000010f l       .debug_str	00000000 
00000118 l       .debug_str	00000000 
0000011c l       .debug_str	00000000 
00000120 l       .debug_str	00000000 
00000122 l       .debug_str	00000000 
00000129 l       .debug_str	00000000 
00000137 l       .debug_str	00000000 
0000013c l       .debug_str	00000000 
00000144 l       .debug_str	00000000 
0000014c l       .debug_str	00000000 
00000152 l       .debug_str	00000000 
0000015e l       .debug_str	00000000 
00000164 l       .debug_str	00000000 
00000169 l       .debug_str	00000000 
0000016c l       .debug_str	00000000 
00000170 l       .debug_str	00000000 
00000173 l       .debug_str	00000000 
00000176 l       .debug_str	00000000 
00000179 l       .debug_str	00000000 
0000017e l       .debug_str	00000000 
0000018a l       .debug_str	00000000 
0000018f l       .debug_str	00000000 
00000196 l       .debug_str	00000000 
000001a0 l       .debug_str	00000000 
000001ab l       .debug_str	00000000 
000001b8 l       .debug_str	00000000 
000001c6 l       .debug_str	00000000 
000001d0 l       .debug_str	00000000 
000001de l       .debug_str	00000000 
000001e8 l       .debug_str	00000000 
000001f1 l       .debug_str	00000000 
000001f3 l       .debug_str	00000000 
000001ff l       .debug_str	00000000 
00000203 l       .debug_str	00000000 
00000209 l       .debug_str	00000000 
00000213 l       .debug_str	00000000 
00000217 l       .debug_str	00000000 
0000021e l       .debug_str	00000000 
0000022f l       .debug_str	00000000 
00000231 l       .debug_str	00000000 
00000240 l       .debug_str	00000000 
00000242 l       .debug_str	00000000 
0000027b l       .debug_str	00000000 
00000282 l       .debug_str	00000000 
00000289 l       .debug_str	00000000 
0000029a l       .debug_str	00000000 
0000029c l       .debug_str	00000000 
000002db l       .debug_str	00000000 
000002e3 l       .debug_str	00000000 
00000316 l       .debug_str	00000000 
000003a1 l       .debug_str	00000000 
00000478 l       .debug_str	00000000 
0000059b l       .debug_str	00000000 
000005a3 l       .debug_str	00000000 
000005a8 l       .debug_str	00000000 
000005ae l       .debug_str	00000000 
000005b2 l       .debug_str	00000000 
000005b5 l       .debug_str	00000000 
000005de l       .debug_str	00000000 
00000614 l       .debug_str	00000000 
00000616 l       .debug_str	00000000 
00000643 l       .debug_str	00000000 
00000646 l       .debug_str	00000000 
00000696 l       .debug_str	00000000 
000006f3 l       .debug_str	00000000 
00000747 l       .debug_str	00000000 
000007be l       .debug_str	00000000 
00000842 l       .debug_str	00000000 
000008bd l       .debug_str	00000000 
0000095b l       .debug_str	00000000 
00000a06 l       .debug_str	00000000 
00000aa8 l       .debug_str	00000000 
00000b8e l       .debug_str	00000000 
00000c91 l       .debug_str	00000000 
00000d93 l       .debug_str	00000000 
00000d97 l       .debug_str	00000000 
00000d9d l       .debug_str	00000000 
00000d9f l       .debug_str	00000000 
00000e99 l       .debug_str	00000000 
00000e9b l       .debug_str	00000000 
00000f78 l       .debug_str	00000000 
00000f82 l       .debug_str	00000000 
00000fa9 l       .debug_str	00000000 
00000fae l       .debug_str	00000000 
00000fb2 l       .debug_str	00000000 
00000fb8 l       .debug_str	00000000 
00000fbf l       .debug_str	00000000 
00000fc4 l       .debug_str	00000000 
00000fde l       .debug_str	00000000 
00000fe5 l       .debug_str	00000000 
00000fee l       .debug_str	00000000 
00000ffb l       .debug_str	00000000 
0000102b l       .debug_str	00000000 
00001075 l       .debug_str	00000000 
000010be l       .debug_str	00000000 
00001101 l       .debug_str	00000000 
00001149 l       .debug_str	00000000 
0000118a l       .debug_str	00000000 
0000118f l       .debug_str	00000000 
000011e8 l       .debug_str	00000000 
000011f1 l       .debug_str	00000000 
00001264 l       .debug_str	00000000 
000012ab l       .debug_str	00000000 
000012ec l       .debug_str	00000000 
00001346 l       .debug_str	00000000 
0000138a l       .debug_str	00000000 
000013d3 l       .debug_str	00000000 
00001417 l       .debug_str	00000000 
0000145f l       .debug_str	00000000 
00001464 l       .debug_str	00000000 
00001468 l       .debug_str	00000000 
0000148e l       .debug_str	00000000 
000014d0 l       .debug_str	00000000 
000014d9 l       .debug_str	00000000 
000014ea l       .debug_str	00000000 
000014ef l       .debug_str	00000000 
000014fc l       .debug_str	00000000 
00001503 l       .debug_str	00000000 
0000151f l       .debug_str	00000000 
0000152f l       .debug_str	00000000 
00001574 l       .debug_str	00000000 
000015e1 l       .debug_str	00000000 
00001677 l       .debug_str	00000000 
00001736 l       .debug_str	00000000 
000017ad l       .debug_str	00000000 
00001831 l       .debug_str	00000000 
000018ac l       .debug_str	00000000 
0000194a l       .debug_str	00000000 
000019f5 l       .debug_str	00000000 
00001a97 l       .debug_str	00000000 
00001b5c l       .debug_str	00000000 
00001c2e l       .debug_str	00000000 
00001cf7 l       .debug_str	00000000 
00001de1 l       .debug_str	00000000 
00001ee8 l       .debug_str	00000000 
00001fee l       .debug_str	00000000 
000020ec l       .debug_str	00000000 
000021ed l       .debug_str	00000000 
000022cd l       .debug_str	00000000 
000022d2 l       .debug_str	00000000 
000022d6 l       .debug_str	00000000 
000022e7 l       .debug_str	00000000 
00000000 l    d  .text._ZN4core3ptr4read17h4d442c97f58002e5E	00000000 .text._ZN4core3ptr4read17h4d442c97f58002e5E
00000000 l    d  .text._ZN4core3ptr5write17h17fe56fd30bdaf60E	00000000 .text._ZN4core3ptr5write17h17fe56fd30bdaf60E
00000000 l    d  .text._ZN4core3ptr5write17h1dc7ac315f627609E	00000000 .text._ZN4core3ptr5write17h1dc7ac315f627609E
00000000 l    d  .text._ZN4core3ptr5write17h1dfcbfffddb73f74E	00000000 .text._ZN4core3ptr5write17h1dfcbfffddb73f74E
00000000 l    d  .debug_loc	00000000 .debug_loc
00000000 l    d  .debug_abbrev	00000000 .debug_abbrev
00000000 l    d  .debug_info	00000000 .debug_info
00000000 l    d  .debug_ranges	00000000 .debug_ranges
00000000 l    d  .debug_frame	00000000 .debug_frame
00000000 l    d  .debug_line	00000000 .debug_line
00000000         *UND*	00000000 core::intrinsics::copy_nonoverlapping
00000000 g     F .text._ZN4core3ptr4read17h4d442c97f58002e5E	0000006e core::ptr::read
00000000 g     F .text._ZN4core3ptr5write17h17fe56fd30bdaf60E	00000028 core::ptr::write
00000000 g     F .text._ZN4core3ptr5write17h1dc7ac315f627609E	0000002c core::ptr::write
00000000 g     F .text._ZN4core3ptr5write17h1dfcbfffddb73f74E	00000024 core::ptr::write



Disassembly of section .text._ZN4core3ptr4read17h4d442c97f58002e5E:

00000000 <core::ptr::read>:
_ZN4core3ptr4read17h4d442c97f58002e5E():
/rustc/50a0defd5a93523067ef239936cc2e0755220904/src/libcore/ptr.rs:572
   0:	b510      	push	{r4, lr}
   2:	b0a0      	sub	sp, #128	; 0x80
   4:	460a      	mov	r2, r1
   6:	9105      	str	r1, [sp, #20]
/rustc/50a0defd5a93523067ef239936cc2e0755220904/src/libcore/ptr.rs:573
   8:	9204      	str	r2, [sp, #16]
   a:	9003      	str	r0, [sp, #12]
   c:	e7ff      	b.n	e <core::ptr::read+0xe>
/rustc/50a0defd5a93523067ef239936cc2e0755220904/src/libcore/ptr.rs:574
   e:	9805      	ldr	r0, [sp, #20]
  10:	a906      	add	r1, sp, #24
  12:	911e      	str	r1, [sp, #120]	; 0x78
_ZN4core3mem20MaybeUninit$LT$T$GT$10as_mut_ptr17hfeceace69569875bE():
/rustc/50a0defd5a93523067ef239936cc2e0755220904/src/libcore/mem.rs:1252
  14:	991e      	ldr	r1, [sp, #120]	; 0x78
  16:	911f      	str	r1, [sp, #124]	; 0x7c
_ZN79_$LT$core..mem..ManuallyDrop$LT$T$GT$$u20$as$u20$core..ops..deref..DerefMut$GT$9deref_mut17h95beb4df816fb9faE():
/rustc/50a0defd5a93523067ef239936cc2e0755220904/src/libcore/mem.rs:887
  18:	991f      	ldr	r1, [sp, #124]	; 0x7c
_ZN4core3ptr4read17h4d442c97f58002e5E():
/rustc/50a0defd5a93523067ef239936cc2e0755220904/src/libcore/ptr.rs:574
  1a:	9002      	str	r0, [sp, #8]
  1c:	9101      	str	r1, [sp, #4]
  1e:	e7ff      	b.n	20 <core::ptr::read+0x20>
  20:	2201      	movs	r2, #1
  22:	9802      	ldr	r0, [sp, #8]
  24:	9901      	ldr	r1, [sp, #4]
  26:	f7ff fffe 	bl	0 <core::intrinsics::copy_nonoverlapping>
  2a:	e7ff      	b.n	2c <core::ptr::read+0x2c>
  2c:	a806      	add	r0, sp, #24
  2e:	a90e      	add	r1, sp, #56	; 0x38
/rustc/50a0defd5a93523067ef239936cc2e0755220904/src/libcore/ptr.rs:575
  30:	460a      	mov	r2, r1
  32:	e8b0 5018 	ldmia.w	r0!, {r3, r4, ip, lr}
  36:	e8a2 5018 	stmia.w	r2!, {r3, r4, ip, lr}
  3a:	e890 5018 	ldmia.w	r0, {r3, r4, ip, lr}
  3e:	e882 5018 	stmia.w	r2, {r3, r4, ip, lr}
  42:	a816      	add	r0, sp, #88	; 0x58
_ZN4core3mem20MaybeUninit$LT$T$GT$11assume_init17h9dde598c1247e7caE():
/rustc/50a0defd5a93523067ef239936cc2e0755220904/src/libcore/mem.rs:1294
  44:	4602      	mov	r2, r0
  46:	e8b1 5018 	ldmia.w	r1!, {r3, r4, ip, lr}
  4a:	e8a2 5018 	stmia.w	r2!, {r3, r4, ip, lr}
  4e:	e891 5018 	ldmia.w	r1, {r3, r4, ip, lr}
  52:	e882 5018 	stmia.w	r2, {r3, r4, ip, lr}
_ZN4core3mem21ManuallyDrop$LT$T$GT$10into_inner17h98a21289641b7366E():
/rustc/50a0defd5a93523067ef239936cc2e0755220904/src/libcore/mem.rs:828
  56:	9903      	ldr	r1, [sp, #12]
  58:	e8b0 500c 	ldmia.w	r0!, {r2, r3, ip, lr}
  5c:	e8a1 500c 	stmia.w	r1!, {r2, r3, ip, lr}
  60:	e890 500c 	ldmia.w	r0, {r2, r3, ip, lr}
  64:	e881 500c 	stmia.w	r1, {r2, r3, ip, lr}
_ZN4core3ptr4read17h4d442c97f58002e5E():
/rustc/50a0defd5a93523067ef239936cc2e0755220904/src/libcore/ptr.rs:575
  68:	e7ff      	b.n	6a <core::ptr::read+0x6a>
/rustc/50a0defd5a93523067ef239936cc2e0755220904/src/libcore/ptr.rs:576
  6a:	b020      	add	sp, #128	; 0x80
  6c:	bd10      	pop	{r4, pc}

Disassembly of section .text._ZN4core3ptr5write17h17fe56fd30bdaf60E:

00000000 <core::ptr::write>:
_ZN4core3ptr5write17h17fe56fd30bdaf60E():
/rustc/50a0defd5a93523067ef239936cc2e0755220904/src/libcore/ptr.rs:733
   0:	b580      	push	{r7, lr}
   2:	b083      	sub	sp, #12
   4:	460a      	mov	r2, r1
   6:	4603      	mov	r3, r0
   8:	9002      	str	r0, [sp, #8]
/rustc/50a0defd5a93523067ef239936cc2e0755220904/src/libcore/ptr.rs:734
   a:	9802      	ldr	r0, [sp, #8]
   c:	f8d1 c000 	ldr.w	ip, [r1]
  10:	f8d1 e004 	ldr.w	lr, [r1, #4]
  14:	6889      	ldr	r1, [r1, #8]
  16:	6081      	str	r1, [r0, #8]
  18:	f8c0 e004 	str.w	lr, [r0, #4]
  1c:	f8c0 c000 	str.w	ip, [r0]
/rustc/50a0defd5a93523067ef239936cc2e0755220904/src/libcore/ptr.rs:735
  20:	9201      	str	r2, [sp, #4]
  22:	9300      	str	r3, [sp, #0]
  24:	b003      	add	sp, #12
  26:	bd80      	pop	{r7, pc}

Disassembly of section .text._ZN4core3ptr5write17h1dc7ac315f627609E:

00000000 <core::ptr::write>:
_ZN4core3ptr5write17h1dc7ac315f627609E():
/rustc/50a0defd5a93523067ef239936cc2e0755220904/src/libcore/ptr.rs:733
   0:	b5f0      	push	{r4, r5, r6, r7, lr}
   2:	b083      	sub	sp, #12
   4:	460a      	mov	r2, r1
   6:	4603      	mov	r3, r0
   8:	9002      	str	r0, [sp, #8]
/rustc/50a0defd5a93523067ef239936cc2e0755220904/src/libcore/ptr.rs:734
   a:	9802      	ldr	r0, [sp, #8]
   c:	e8b1 5070 	ldmia.w	r1!, {r4, r5, r6, ip, lr}
  10:	e8a0 5070 	stmia.w	r0!, {r4, r5, r6, ip, lr}
  14:	e8b1 5070 	ldmia.w	r1!, {r4, r5, r6, ip, lr}
  18:	e8a0 5070 	stmia.w	r0!, {r4, r5, r6, ip, lr}
  1c:	e891 50f0 	ldmia.w	r1, {r4, r5, r6, r7, ip, lr}
  20:	e880 50f0 	stmia.w	r0, {r4, r5, r6, r7, ip, lr}
/rustc/50a0defd5a93523067ef239936cc2e0755220904/src/libcore/ptr.rs:735
  24:	9201      	str	r2, [sp, #4]
  26:	9300      	str	r3, [sp, #0]
  28:	b003      	add	sp, #12
  2a:	bdf0      	pop	{r4, r5, r6, r7, pc}

Disassembly of section .text._ZN4core3ptr5write17h1dfcbfffddb73f74E:

00000000 <core::ptr::write>:
_ZN4core3ptr5write17h1dfcbfffddb73f74E():
/rustc/50a0defd5a93523067ef239936cc2e0755220904/src/libcore/ptr.rs:733
   0:	b5b0      	push	{r4, r5, r7, lr}
   2:	b083      	sub	sp, #12
   4:	460a      	mov	r2, r1
   6:	4603      	mov	r3, r0
   8:	9002      	str	r0, [sp, #8]
/rustc/50a0defd5a93523067ef239936cc2e0755220904/src/libcore/ptr.rs:734
   a:	9802      	ldr	r0, [sp, #8]
   c:	e8b1 5030 	ldmia.w	r1!, {r4, r5, ip, lr}
  10:	e8a0 5030 	stmia.w	r0!, {r4, r5, ip, lr}
  14:	e891 5030 	ldmia.w	r1, {r4, r5, ip, lr}
  18:	e880 5030 	stmia.w	r0, {r4, r5, ip, lr}
/rustc/50a0defd5a93523067ef239936cc2e0755220904/src/libcore/ptr.rs:735
  1c:	9201      	str	r2, [sp, #4]
  1e:	9300      	str	r3, [sp, #0]
  20:	b003      	add	sp, #12
  22:	bdb0      	pop	{r4, r5, r7, pc}

app-e8778d9de5b9c761.3jkw5np6g4cemga0.rcgu.o:     file format elf32-littlearm

SYMBOL TABLE:
00000000 l    df *ABS*	00000000 3jkw5np6g4cemga0
000000fa l       .debug_str	00000000 
00000000 l       .debug_str	00000000 
00000041 l       .debug_str	00000000 
00000055 l       .debug_str	00000000 
00000085 l       .debug_str	00000000 
0000008d l       .debug_str	00000000 
00000100 l       .debug_str	00000000 
00000091 l       .debug_str	00000000 
0000009a l       .debug_str	00000000 
00000000 l    d  .text._ZN64_$LT$typenum..bit..B0$u20$as$u20$typenum..marker_traits..Bit$GT$5to_u817h338d1131c0d9bffaE	00000000 .text._ZN64_$LT$typenum..bit..B0$u20$as$u20$typenum..marker_traits..Bit$GT$5to_u817h338d1131c0d9bffaE
00000000 l    d  .debug_abbrev	00000000 .debug_abbrev
00000000 l    d  .debug_info	00000000 .debug_info
00000000 l    d  .debug_frame	00000000 .debug_frame
00000000 l    d  .debug_line	00000000 .debug_line
00000000 g     F .text._ZN64_$LT$typenum..bit..B0$u20$as$u20$typenum..marker_traits..Bit$GT$5to_u817h338d1131c0d9bffaE	00000004 .hidden <typenum::bit::B0 as typenum::marker_traits::Bit>::to_u8



Disassembly of section .text._ZN64_$LT$typenum..bit..B0$u20$as$u20$typenum..marker_traits..Bit$GT$5to_u817h338d1131c0d9bffaE:

00000000 <<typenum::bit::B0 as typenum::marker_traits::Bit>::to_u8>:
_ZN64_$LT$typenum..bit..B0$u20$as$u20$typenum..marker_traits..Bit$GT$5to_u817h338d1131c0d9bffaE():
/Users/Luppy/.cargo/registry/src/github.com-1ecc6299db9ec823/typenum-1.10.0/src/bit.rs:47
impl Bit for B0 {
    const U8: u8 = 0;
    const BOOL: bool = false;

    #[inline]
    fn to_u8() -> u8 {
   0:	2000      	movs	r0, #0
/Users/Luppy/.cargo/registry/src/github.com-1ecc6299db9ec823/typenum-1.10.0/src/bit.rs:49
        0
    }
   2:	4770      	bx	lr

app-e8778d9de5b9c761.3s19nmlwfj5kzizm.rcgu.o:     file format elf32-littlearm

SYMBOL TABLE:
00000000 l    df *ABS*	00000000 3s19nmlwfj5kzizm
00000240 l       .debug_str	00000000 
0000015a l       .debug_str	00000000 
0000019b l       .debug_str	00000000 
000001a4 l       .debug_str	00000000 
000001a9 l       .debug_str	00000000 
000001d4 l       .debug_str	00000000 
000001dd l       .debug_str	00000000 
00000245 l       .debug_str	00000000 
0000024d l       .debug_str	00000000 
00000255 l       .debug_str	00000000 
0000025c l       .debug_str	00000000 
00000270 l       .debug_str	00000000 
0000027c l       .debug_str	00000000 
00000281 l       .debug_str	00000000 
00000000 l       .debug_str	00000000 
00000041 l       .debug_str	00000000 
00000055 l       .debug_str	00000000 
00000085 l       .debug_str	00000000 
0000008a l       .debug_str	00000000 
0000008e l       .debug_str	00000000 
00000097 l       .debug_str	00000000 
00000099 l       .debug_str	00000000 
0000009d l       .debug_str	00000000 
000000a4 l       .debug_str	00000000 
000000ad l       .debug_str	00000000 
000000b0 l       .debug_str	00000000 
000000ba l       .debug_str	00000000 
000000c1 l       .debug_str	00000000 
000000c7 l       .debug_str	00000000 
000000cc l       .debug_str	00000000 
000000ce l       .debug_str	00000000 
0000011a l       .debug_str	00000000 
0000012d l       .debug_str	00000000 
00000134 l       .debug_str	00000000 
00000138 l       .debug_str	00000000 
0000013d l       .debug_str	00000000 
00000143 l       .debug_str	00000000 
00000148 l       .debug_str	00000000 
0000014c l       .debug_str	00000000 
00000000 l    d  .text._ZN36_$LT$dyn$u20$$u2b$core..any..Any$GT$12downcast_ref17h9d6ffccf845dd480E	00000000 .text._ZN36_$LT$dyn$u20$$u2b$core..any..Any$GT$12downcast_ref17h9d6ffccf845dd480E
00000000 l    d  .text._ZN36_$LT$dyn$u20$$u2b$core..any..Any$GT$2is17h641a4d25fbe49201E	00000000 .text._ZN36_$LT$dyn$u20$$u2b$core..any..Any$GT$2is17h641a4d25fbe49201E
00000000 l    d  .text._ZN4core3any6TypeId2of17h5b23d3839972169cE	00000000 .text._ZN4core3any6TypeId2of17h5b23d3839972169cE
00000000 l    d  .text._ZN59_$LT$dyn$u20$$u2b$core..any..Any$u2b$core..marker..Send$GT$12downcast_ref17h13ed635a41180cadE	00000000 .text._ZN59_$LT$dyn$u20$$u2b$core..any..Any$u2b$core..marker..Send$GT$12downcast_ref17h13ed635a41180cadE
00000000 l    d  .debug_abbrev	00000000 .debug_abbrev
00000000 l    d  .debug_info	00000000 .debug_info
00000000 l    d  .debug_ranges	00000000 .debug_ranges
00000000 l    d  .debug_frame	00000000 .debug_frame
00000000 l    d  .debug_line	00000000 .debug_line
00000000 g     F .text._ZN36_$LT$dyn$u20$$u2b$core..any..Any$GT$12downcast_ref17h9d6ffccf845dd480E	00000038 <dyn +core::any::Any>::downcast_ref
00000000 g     F .text._ZN36_$LT$dyn$u20$$u2b$core..any..Any$GT$2is17h641a4d25fbe49201E	0000003e <dyn +core::any::Any>::is
00000000 g     F .text._ZN4core3any6TypeId2of17h5b23d3839972169cE	00000030 core::any::TypeId::of
00000000         *UND*	00000000 .hidden <core::any::TypeId as core::cmp::PartialEq>::eq
00000000 g     F .text._ZN59_$LT$dyn$u20$$u2b$core..any..Any$u2b$core..marker..Send$GT$12downcast_ref17h13ed635a41180cadE	00000022 <dyn +core::any::Any+core::marker::Send>::downcast_ref



Disassembly of section .text._ZN36_$LT$dyn$u20$$u2b$core..any..Any$GT$12downcast_ref17h9d6ffccf845dd480E:

00000000 <<dyn +core::any::Any>::downcast_ref>:
_ZN36_$LT$dyn$u20$$u2b$core..any..Any$GT$12downcast_ref17h9d6ffccf845dd480E():
/rustc/50a0defd5a93523067ef239936cc2e0755220904/src/libcore/any.rs:189
   0:	b580      	push	{r7, lr}
   2:	b086      	sub	sp, #24
   4:	460a      	mov	r2, r1
   6:	4603      	mov	r3, r0
   8:	9003      	str	r0, [sp, #12]
   a:	9104      	str	r1, [sp, #16]
/rustc/50a0defd5a93523067ef239936cc2e0755220904/src/libcore/any.rs:190
   c:	9803      	ldr	r0, [sp, #12]
   e:	9904      	ldr	r1, [sp, #16]
  10:	9202      	str	r2, [sp, #8]
  12:	9301      	str	r3, [sp, #4]
  14:	f7ff fffe 	bl	0 <<dyn +core::any::Any>::downcast_ref>
  18:	9000      	str	r0, [sp, #0]
  1a:	e7ff      	b.n	1c <<dyn +core::any::Any>::downcast_ref+0x1c>
  1c:	9800      	ldr	r0, [sp, #0]
  1e:	07c1      	lsls	r1, r0, #31
  20:	2900      	cmp	r1, #0
  22:	d003      	beq.n	2c <<dyn +core::any::Any>::downcast_ref+0x2c>
  24:	e7ff      	b.n	26 <<dyn +core::any::Any>::downcast_ref+0x26>
/rustc/50a0defd5a93523067ef239936cc2e0755220904/src/libcore/any.rs:192
  26:	9803      	ldr	r0, [sp, #12]
  28:	9005      	str	r0, [sp, #20]
/rustc/50a0defd5a93523067ef239936cc2e0755220904/src/libcore/any.rs:190
  2a:	e002      	b.n	32 <<dyn +core::any::Any>::downcast_ref+0x32>
  2c:	2000      	movs	r0, #0
/rustc/50a0defd5a93523067ef239936cc2e0755220904/src/libcore/any.rs:195
  2e:	9005      	str	r0, [sp, #20]
/rustc/50a0defd5a93523067ef239936cc2e0755220904/src/libcore/any.rs:190
  30:	e7ff      	b.n	32 <<dyn +core::any::Any>::downcast_ref+0x32>
/rustc/50a0defd5a93523067ef239936cc2e0755220904/src/libcore/any.rs:197
  32:	9805      	ldr	r0, [sp, #20]
  34:	b006      	add	sp, #24
  36:	bd80      	pop	{r7, pc}

Disassembly of section .text._ZN36_$LT$dyn$u20$$u2b$core..any..Any$GT$2is17h641a4d25fbe49201E:

00000000 <<dyn +core::any::Any>::is>:
_ZN36_$LT$dyn$u20$$u2b$core..any..Any$GT$2is17h641a4d25fbe49201E():
/rustc/50a0defd5a93523067ef239936cc2e0755220904/src/libcore/any.rs:155
   0:	b580      	push	{r7, lr}
   2:	b08a      	sub	sp, #40	; 0x28
   4:	460a      	mov	r2, r1
   6:	4603      	mov	r3, r0
   8:	9004      	str	r0, [sp, #16]
   a:	9105      	str	r1, [sp, #20]
/rustc/50a0defd5a93523067ef239936cc2e0755220904/src/libcore/any.rs:157
   c:	9203      	str	r2, [sp, #12]
   e:	9302      	str	r3, [sp, #8]
  10:	f7ff fffe 	bl	0 <<dyn +core::any::Any>::is>
  14:	9107      	str	r1, [sp, #28]
  16:	9006      	str	r0, [sp, #24]
  18:	e7ff      	b.n	1a <<dyn +core::any::Any>::is+0x1a>
/rustc/50a0defd5a93523067ef239936cc2e0755220904/src/libcore/any.rs:160
  1a:	9804      	ldr	r0, [sp, #16]
  1c:	9905      	ldr	r1, [sp, #20]
  1e:	68c9      	ldr	r1, [r1, #12]
  20:	4788      	blx	r1
  22:	9109      	str	r1, [sp, #36]	; 0x24
  24:	9008      	str	r0, [sp, #32]
  26:	e7ff      	b.n	28 <<dyn +core::any::Any>::is+0x28>
  28:	a806      	add	r0, sp, #24
  2a:	a908      	add	r1, sp, #32
/rustc/50a0defd5a93523067ef239936cc2e0755220904/src/libcore/any.rs:163
  2c:	f7ff fffe 	bl	0 <<core::any::TypeId as core::cmp::PartialEq>::eq>
  30:	9001      	str	r0, [sp, #4]
  32:	e7ff      	b.n	34 <<dyn +core::any::Any>::is+0x34>
/rustc/50a0defd5a93523067ef239936cc2e0755220904/src/libcore/any.rs:164
  34:	9801      	ldr	r0, [sp, #4]
  36:	f000 0001 	and.w	r0, r0, #1
  3a:	b00a      	add	sp, #40	; 0x28
  3c:	bd80      	pop	{r7, pc}

Disassembly of section .text._ZN4core3any6TypeId2of17h5b23d3839972169cE:

00000000 <core::any::TypeId::of>:
_ZN4core3any6TypeId2of17h5b23d3839972169cE():
/rustc/50a0defd5a93523067ef239936cc2e0755220904/src/libcore/any.rs:447
   0:	b086      	sub	sp, #24
   2:	f249 40d9 	movw	r0, #38105	; 0x94d9
   6:	f2c1 1010 	movt	r0, #4368	; 0x1110
/rustc/50a0defd5a93523067ef239936cc2e0755220904/src/libcore/any.rs:449
   a:	9005      	str	r0, [sp, #20]
   c:	f249 7064 	movw	r0, #38756	; 0x9764
  10:	f2c7 00b0 	movt	r0, #28848	; 0x70b0
  14:	9004      	str	r0, [sp, #16]
  16:	9804      	ldr	r0, [sp, #16]
  18:	9905      	ldr	r1, [sp, #20]
  1a:	9001      	str	r0, [sp, #4]
  1c:	9100      	str	r1, [sp, #0]
  1e:	e7ff      	b.n	20 <core::any::TypeId::of+0x20>
/rustc/50a0defd5a93523067ef239936cc2e0755220904/src/libcore/any.rs:448
  20:	9801      	ldr	r0, [sp, #4]
  22:	9002      	str	r0, [sp, #8]
  24:	9900      	ldr	r1, [sp, #0]
  26:	9103      	str	r1, [sp, #12]
/rustc/50a0defd5a93523067ef239936cc2e0755220904/src/libcore/any.rs:451
  28:	9802      	ldr	r0, [sp, #8]
  2a:	9903      	ldr	r1, [sp, #12]
  2c:	b006      	add	sp, #24
  2e:	4770      	bx	lr

Disassembly of section .text._ZN59_$LT$dyn$u20$$u2b$core..any..Any$u2b$core..marker..Send$GT$12downcast_ref17h13ed635a41180cadE:

00000000 <<dyn +core::any::Any+core::marker::Send>::downcast_ref>:
_ZN59_$LT$dyn$u20$$u2b$core..any..Any$u2b$core..marker..Send$GT$12downcast_ref17h13ed635a41180cadE():
/rustc/50a0defd5a93523067ef239936cc2e0755220904/src/libcore/any.rs:286
   0:	b580      	push	{r7, lr}
   2:	b086      	sub	sp, #24
   4:	460a      	mov	r2, r1
   6:	4603      	mov	r3, r0
   8:	9004      	str	r0, [sp, #16]
   a:	9105      	str	r1, [sp, #20]
/rustc/50a0defd5a93523067ef239936cc2e0755220904/src/libcore/any.rs:287
   c:	9804      	ldr	r0, [sp, #16]
   e:	9905      	ldr	r1, [sp, #20]
  10:	9203      	str	r2, [sp, #12]
  12:	9302      	str	r3, [sp, #8]
  14:	f7ff fffe 	bl	0 <<dyn +core::any::Any+core::marker::Send>::downcast_ref>
  18:	9001      	str	r0, [sp, #4]
  1a:	e7ff      	b.n	1c <<dyn +core::any::Any+core::marker::Send>::downcast_ref+0x1c>
/rustc/50a0defd5a93523067ef239936cc2e0755220904/src/libcore/any.rs:288
  1c:	9801      	ldr	r0, [sp, #4]
  1e:	b006      	add	sp, #24
  20:	bd80      	pop	{r7, pc}

app-e8778d9de5b9c761.3w8dk09usbkzryek.rcgu.o:     file format elf32-littlearm

SYMBOL TABLE:
00000000 l    df *ABS*	00000000 3w8dk09usbkzryek
000000c8 l       .debug_str	00000000 
00000000 l       .debug_str	00000000 
00000041 l       .debug_str	00000000 
00000055 l       .debug_str	00000000 
00000085 l       .debug_str	00000000 
0000008a l       .debug_str	00000000 
000000de l       .debug_str	00000000 
0000008f l       .debug_str	00000000 
00000000 l    d  .text._ZN4core4hint21unreachable_unchecked17h7a9efbc0f951e82cE	00000000 .text._ZN4core4hint21unreachable_unchecked17h7a9efbc0f951e82cE
00000000 l    d  .debug_abbrev	00000000 .debug_abbrev
00000000 l    d  .debug_info	00000000 .debug_info
00000000 l    d  .debug_frame	00000000 .debug_frame
00000000 l    d  .debug_line	00000000 .debug_line
00000000 g     F .text._ZN4core4hint21unreachable_unchecked17h7a9efbc0f951e82cE	00000002 .hidden core::hint::unreachable_unchecked



Disassembly of section .text._ZN4core4hint21unreachable_unchecked17h7a9efbc0f951e82cE:

00000000 <core::hint::unreachable_unchecked>:
_ZN4core4hint21unreachable_unchecked17h7a9efbc0f951e82cE():
/rustc/50a0defd5a93523067ef239936cc2e0755220904/src/libcore/hint.rs:49
   0:	defe      	udf	#254	; 0xfe

app-e8778d9de5b9c761.3yooawbqsai2ga05.rcgu.o:     file format elf32-littlearm

SYMBOL TABLE:
00000000 l    df *ABS*	00000000 3yooawbqsai2ga05
0000010f l       .debug_str	00000000 
00000000 l       .debug_str	00000000 
00000041 l       .debug_str	00000000 
00000055 l       .debug_str	00000000 
00000085 l       .debug_str	00000000 
0000008a l       .debug_str	00000000 
00000091 l       .debug_str	00000000 
0000011c l       .debug_str	00000000 
0000009a l       .debug_str	00000000 
0000009e l       .debug_str	00000000 
000000a0 l       .debug_str	00000000 
00000000 l    d  .text._ZN77_$LT$core..marker..PhantomData$LT$T$GT$$u20$as$u20$core..default..Default$GT$7default17h59d9a2234ff52fafE	00000000 .text._ZN77_$LT$core..marker..PhantomData$LT$T$GT$$u20$as$u20$core..default..Default$GT$7default17h59d9a2234ff52fafE
00000000 l    d  .debug_abbrev	00000000 .debug_abbrev
00000000 l    d  .debug_info	00000000 .debug_info
00000000 l    d  .debug_frame	00000000 .debug_frame
00000000 l    d  .debug_line	00000000 .debug_line
00000000 g     F .text._ZN77_$LT$core..marker..PhantomData$LT$T$GT$$u20$as$u20$core..default..Default$GT$7default17h59d9a2234ff52fafE	00000002 <core::marker::PhantomData<T> as core::default::Default>::default



Disassembly of section .text._ZN77_$LT$core..marker..PhantomData$LT$T$GT$$u20$as$u20$core..default..Default$GT$7default17h59d9a2234ff52fafE:

00000000 <<core::marker::PhantomData<T> as core::default::Default>::default>:
_ZN77_$LT$core..marker..PhantomData$LT$T$GT$$u20$as$u20$core..default..Default$GT$7default17h59d9a2234ff52fafE():
/rustc/50a0defd5a93523067ef239936cc2e0755220904/src/libcore/marker.rs:432
   0:	4770      	bx	lr

app-e8778d9de5b9c761.47sd6ybc3pagcimj.rcgu.o:     file format elf32-littlearm

SYMBOL TABLE:
00000000 l    df *ABS*	00000000 47sd6ybc3pagcimj
00003eb6 l       .debug_str	00000000 
00004e5e l       .debug_str	00000000 
00004f03 l       .debug_str	00000000 
00004f05 l       .debug_str	00000000 
00004f4d l       .debug_str	00000000 
00004fcb l       .debug_str	00000000 
000050ac l       .debug_str	00000000 
000050bb l       .debug_str	00000000 
00005139 l       .debug_str	00000000 
000051ce l       .debug_str	00000000 
00005206 l       .debug_str	00000000 
00005284 l       .debug_str	00000000 
00005361 l       .debug_str	00000000 
00005393 l       .debug_str	00000000 
00005412 l       .debug_str	00000000 
000054a8 l       .debug_str	00000000 
00005527 l       .debug_str	00000000 
00005609 l       .debug_str	00000000 
0000568b l       .debug_str	00000000 
00005734 l       .debug_str	00000000 
00005773 l       .debug_str	00000000 
000057f5 l       .debug_str	00000000 
0000588e l       .debug_str	00000000 
000058c1 l       .debug_str	00000000 
000058f0 l       .debug_str	00000000 
00005972 l       .debug_str	00000000 
00005a0b l       .debug_str	00000000 
00005a8d l       .debug_str	00000000 
00005b36 l       .debug_str	00000000 
00005bb8 l       .debug_str	00000000 
00005c99 l       .debug_str	00000000 
00005d6d l       .debug_str	00000000 
00005d72 l       .debug_str	00000000 
00005e7e l       .debug_str	00000000 
00005f42 l       .debug_str	00000000 
00005f48 l       .debug_str	00000000 
00005f4d l       .debug_str	00000000 
00005f53 l       .debug_str	00000000 
00005f57 l       .debug_str	00000000 
00005f5b l       .debug_str	00000000 
00005f88 l       .debug_str	00000000 
00005fc2 l       .debug_str	00000000 
00005ff4 l       .debug_str	00000000 
00005ffb l       .debug_str	00000000 
00005fff l       .debug_str	00000000 
00006004 l       .debug_str	00000000 
00006114 l       .debug_str	00000000 
000061d4 l       .debug_str	00000000 
000061d8 l       .debug_str	00000000 
000062e4 l       .debug_str	00000000 
000063b4 l       .debug_str	00000000 
00000000 l       .debug_str	00000000 
00000041 l       .debug_str	00000000 
00000055 l       .debug_str	00000000 
00000085 l       .debug_str	00000000 
0000008a l       .debug_str	00000000 
00000091 l       .debug_str	00000000 
00000094 l       .debug_str	00000000 
00000099 l       .debug_str	00000000 
0000009e l       .debug_str	00000000 
000000a5 l       .debug_str	00000000 
000000ab l       .debug_str	00000000 
000000b2 l       .debug_str	00000000 
000000b7 l       .debug_str	00000000 
000000c2 l       .debug_str	00000000 
000000cb l       .debug_str	00000000 
000000d0 l       .debug_str	00000000 
000000d7 l       .debug_str	00000000 
000000da l       .debug_str	00000000 
000000de l       .debug_str	00000000 
000000e5 l       .debug_str	00000000 
000000ee l       .debug_str	00000000 
000000f0 l       .debug_str	00000000 
000000f7 l       .debug_str	00000000 
000000fb l       .debug_str	00000000 
00000102 l       .debug_str	00000000 
00000105 l       .debug_str	00000000 
0000010b l       .debug_str	00000000 
00000119 l       .debug_str	00000000 
0000011e l       .debug_str	00000000 
00000126 l       .debug_str	00000000 
0000012e l       .debug_str	00000000 
00000132 l       .debug_str	00000000 
0000013b l       .debug_str	00000000 
00000145 l       .debug_str	00000000 
0000014c l       .debug_str	00000000 
00000152 l       .debug_str	00000000 
00000157 l       .debug_str	00000000 
0000015b l       .debug_str	00000000 
00000168 l       .debug_str	00000000 
0000016f l       .debug_str	00000000 
00000173 l       .debug_str	00000000 
00000175 l       .debug_str	00000000 
00000177 l       .debug_str	00000000 
00000193 l       .debug_str	00000000 
0000019b l       .debug_str	00000000 
000001a2 l       .debug_str	00000000 
000001b2 l       .debug_str	00000000 
000001f7 l       .debug_str	00000000 
00000264 l       .debug_str	00000000 
000002fa l       .debug_str	00000000 
000003b9 l       .debug_str	00000000 
000003c1 l       .debug_str	00000000 
000003c6 l       .debug_str	00000000 
000003cc l       .debug_str	00000000 
000003d0 l       .debug_str	00000000 
000003d3 l       .debug_str	00000000 
000003fc l       .debug_str	00000000 
00000432 l       .debug_str	00000000 
00000434 l       .debug_str	00000000 
00000461 l       .debug_str	00000000 
00000464 l       .debug_str	00000000 
000004b4 l       .debug_str	00000000 
00000511 l       .debug_str	00000000 
00000565 l       .debug_str	00000000 
000005dc l       .debug_str	00000000 
00000660 l       .debug_str	00000000 
000006db l       .debug_str	00000000 
00000779 l       .debug_str	00000000 
00000824 l       .debug_str	00000000 
000008c6 l       .debug_str	00000000 
0000098b l       .debug_str	00000000 
00000a5d l       .debug_str	00000000 
00000b26 l       .debug_str	00000000 
00000c10 l       .debug_str	00000000 
00000d17 l       .debug_str	00000000 
00000e1d l       .debug_str	00000000 
00000e21 l       .debug_str	00000000 
00000e23 l       .debug_str	00000000 
00000f21 l       .debug_str	00000000 
00001022 l       .debug_str	00000000 
00001024 l       .debug_str	00000000 
00001104 l       .debug_str	00000000 
00001108 l       .debug_str	00000000 
0000110d l       .debug_str	00000000 
00001111 l       .debug_str	00000000 
00001115 l       .debug_str	00000000 
00001126 l       .debug_str	00000000 
00001236 l       .debug_str	00000000 
00001245 l       .debug_str	00000000 
00001271 l       .debug_str	00000000 
000012b6 l       .debug_str	00000000 
000012ef l       .debug_str	00000000 
00001386 l       .debug_str	00000000 
00001424 l       .debug_str	00000000 
000014df l       .debug_str	00000000 
00001599 l       .debug_str	00000000 
0000164b l       .debug_str	00000000 
0000164f l       .debug_str	00000000 
0000165c l       .debug_str	00000000 
0000165f l       .debug_str	00000000 
00001669 l       .debug_str	00000000 
00001672 l       .debug_str	00000000 
00001678 l       .debug_str	00000000 
00001684 l       .debug_str	00000000 
0000168a l       .debug_str	00000000 
0000168f l       .debug_str	00000000 
00001692 l       .debug_str	00000000 
00001696 l       .debug_str	00000000 
00001699 l       .debug_str	00000000 
0000169c l       .debug_str	00000000 
0000169f l       .debug_str	00000000 
000016a4 l       .debug_str	00000000 
000016b0 l       .debug_str	00000000 
000016b5 l       .debug_str	00000000 
000016bc l       .debug_str	00000000 
000016c6 l       .debug_str	00000000 
000016d1 l       .debug_str	00000000 
000016de l       .debug_str	00000000 
000016ec l       .debug_str	00000000 
000016f6 l       .debug_str	00000000 
00001704 l       .debug_str	00000000 
0000170e l       .debug_str	00000000 
00001717 l       .debug_str	00000000 
00001723 l       .debug_str	00000000 
00001729 l       .debug_str	00000000 
00001733 l       .debug_str	00000000 
00001744 l       .debug_str	00000000 
00001746 l       .debug_str	00000000 
00001755 l       .debug_str	00000000 
00001757 l       .debug_str	00000000 
00001790 l       .debug_str	00000000 
00001797 l       .debug_str	00000000 
0000179e l       .debug_str	00000000 
000017af l       .debug_str	00000000 
000017ee l       .debug_str	00000000 
00001821 l       .debug_str	00000000 
000018ac l       .debug_str	00000000 
00001983 l       .debug_str	00000000 
00001aa6 l       .debug_str	00000000 
00001b1d l       .debug_str	00000000 
00001ba1 l       .debug_str	00000000 
00001c1c l       .debug_str	00000000 
00001cba l       .debug_str	00000000 
00001d65 l       .debug_str	00000000 
00001e07 l       .debug_str	00000000 
00001eed l       .debug_str	00000000 
00001ff0 l       .debug_str	00000000 
000020f2 l       .debug_str	00000000 
000021ec l       .debug_str	00000000 
000022c9 l       .debug_str	00000000 
000022d3 l       .debug_str	00000000 
000022fa l       .debug_str	00000000 
000022ff l       .debug_str	00000000 
00002303 l       .debug_str	00000000 
00002309 l       .debug_str	00000000 
00002310 l       .debug_str	00000000 
00002315 l       .debug_str	00000000 
0000232f l       .debug_str	00000000 
00002336 l       .debug_str	00000000 
0000233f l       .debug_str	00000000 
0000234c l       .debug_str	00000000 
0000237c l       .debug_str	00000000 
000023d1 l       .debug_str	00000000 
0000241a l       .debug_str	00000000 
000024d1 l       .debug_str	00000000 
0000257f l       .debug_str	00000000 
0000264a l       .debug_str	00000000 
00002714 l       .debug_str	00000000 
000027d6 l       .debug_str	00000000 
00002819 l       .debug_str	00000000 
000028e2 l       .debug_str	00000000 
000029a4 l       .debug_str	00000000 
000029a9 l       .debug_str	00000000 
00002a83 l       .debug_str	00000000 
00002a8c l       .debug_str	00000000 
00002aff l       .debug_str	00000000 
00002bc7 l       .debug_str	00000000 
00002c89 l       .debug_str	00000000 
00002d64 l       .debug_str	00000000 
00002da7 l       .debug_str	00000000 
00002ea8 l       .debug_str	00000000 
00002fa2 l       .debug_str	00000000 
000030b4 l       .debug_str	00000000 
00003127 l       .debug_str	00000000 
00003227 l       .debug_str	00000000 
00003321 l       .debug_str	00000000 
00003434 l       .debug_str	00000000 
00003477 l       .debug_str	00000000 
00003530 l       .debug_str	00000000 
000035e2 l       .debug_str	00000000 
000036ac l       .debug_str	00000000 
0000371f l       .debug_str	00000000 
000037d7 l       .debug_str	00000000 
00003889 l       .debug_str	00000000 
00003954 l       .debug_str	00000000 
00003992 l       .debug_str	00000000 
00003a57 l       .debug_str	00000000 
00003b1b l       .debug_str	00000000 
00003bf1 l       .debug_str	00000000 
00003c5d l       .debug_str	00000000 
00003d21 l       .debug_str	00000000 
00003ddf l       .debug_str	00000000 
00003ef4 l       .debug_str	00000000 
00003fa9 l       .debug_str	00000000 
0000405d l       .debug_str	00000000 
00004123 l       .debug_str	00000000 
0000418f l       .debug_str	00000000 
00004243 l       .debug_str	00000000 
000042f1 l       .debug_str	00000000 
000043b8 l       .debug_str	00000000 
0000440e l       .debug_str	00000000 
000044c0 l       .debug_str	00000000 
00004516 l       .debug_str	00000000 
000045d8 l       .debug_str	00000000 
0000462e l       .debug_str	00000000 
00004728 l       .debug_str	00000000 
000047af l       .debug_str	00000000 
0000485c l       .debug_str	00000000 
0000489f l       .debug_str	00000000 
000048e2 l       .debug_str	00000000 
0000496b l       .debug_str	00000000 
00004a1a l       .debug_str	00000000 
00004aa3 l       .debug_str	00000000 
00004b8a l       .debug_str	00000000 
00004c13 l       .debug_str	00000000 
00004cb2 l       .debug_str	00000000 
00004d3e l       .debug_str	00000000 
00004de0 l       .debug_str	00000000 
00000000 l     O .rodata..Lanon.eb924658761740ebc780cbce8c76ca19.0	00000018 .Lanon.eb924658761740ebc780cbce8c76ca19.0
00000000 l     O .rodata..Lanon.eb924658761740ebc780cbce8c76ca19.1	00000018 .Lanon.eb924658761740ebc780cbce8c76ca19.1
00000000 l     O .rodata.str.0	00000056 str.0
00000000 l     O .rodata.str.1	0000001c str.1
00000000 l    d  .text._ZN8heapless3vec43_$LT$impl$u20$heapless..i..Vec$LT$A$GT$$GT$3new17h2cc593f73ffbe473E	00000000 .text._ZN8heapless3vec43_$LT$impl$u20$heapless..i..Vec$LT$A$GT$$GT$3new17h2cc593f73ffbe473E
00000000 l    d  .text._ZN8heapless3vec43_$LT$impl$u20$heapless..i..Vec$LT$A$GT$$GT$3new17h9eeb7bc695efa5b8E	00000000 .text._ZN8heapless3vec43_$LT$impl$u20$heapless..i..Vec$LT$A$GT$$GT$3new17h9eeb7bc695efa5b8E
00000000 l    d  .text._ZN8heapless3vec43_$LT$impl$u20$heapless..i..Vec$LT$A$GT$$GT$3new17hf1f97e78e314ab6fE	00000000 .text._ZN8heapless3vec43_$LT$impl$u20$heapless..i..Vec$LT$A$GT$$GT$3new17hf1f97e78e314ab6fE
00000000 l    d  .text._ZN8heapless3vec82_$LT$impl$u20$heapless..i..Vec$LT$generic_array..GenericArray$LT$T$C$N$GT$$GT$$GT$12as_mut_slice17haf3b13daa465ec95E	00000000 .text._ZN8heapless3vec82_$LT$impl$u20$heapless..i..Vec$LT$generic_array..GenericArray$LT$T$C$N$GT$$GT$$GT$12as_mut_slice17haf3b13daa465ec95E
00000000 l    d  .text._ZN8heapless3vec82_$LT$impl$u20$heapless..i..Vec$LT$generic_array..GenericArray$LT$T$C$N$GT$$GT$$GT$14push_unchecked17h20faed8a944472a4E	00000000 .text._ZN8heapless3vec82_$LT$impl$u20$heapless..i..Vec$LT$generic_array..GenericArray$LT$T$C$N$GT$$GT$$GT$14push_unchecked17h20faed8a944472a4E
00000000 l    d  .text._ZN8heapless3vec82_$LT$impl$u20$heapless..i..Vec$LT$generic_array..GenericArray$LT$T$C$N$GT$$GT$$GT$14push_unchecked17h788f7019c7275076E	00000000 .text._ZN8heapless3vec82_$LT$impl$u20$heapless..i..Vec$LT$generic_array..GenericArray$LT$T$C$N$GT$$GT$$GT$14push_unchecked17h788f7019c7275076E
00000000 l    d  .text._ZN8heapless3vec82_$LT$impl$u20$heapless..i..Vec$LT$generic_array..GenericArray$LT$T$C$N$GT$$GT$$GT$14push_unchecked17he043efc4e0adb19bE	00000000 .text._ZN8heapless3vec82_$LT$impl$u20$heapless..i..Vec$LT$generic_array..GenericArray$LT$T$C$N$GT$$GT$$GT$14push_unchecked17he043efc4e0adb19bE
00000000 l    d  .text._ZN8heapless3vec82_$LT$impl$u20$heapless..i..Vec$LT$generic_array..GenericArray$LT$T$C$N$GT$$GT$$GT$17extend_from_slice17h524c7f7f2dfbf5dfE	00000000 .text._ZN8heapless3vec82_$LT$impl$u20$heapless..i..Vec$LT$generic_array..GenericArray$LT$T$C$N$GT$$GT$$GT$17extend_from_slice17h524c7f7f2dfbf5dfE
00000000 l    d  .text._ZN8heapless3vec82_$LT$impl$u20$heapless..i..Vec$LT$generic_array..GenericArray$LT$T$C$N$GT$$GT$$GT$4push17h131d2a357101b751E	00000000 .text._ZN8heapless3vec82_$LT$impl$u20$heapless..i..Vec$LT$generic_array..GenericArray$LT$T$C$N$GT$$GT$$GT$4push17h131d2a357101b751E
00000000 l    d  .text._ZN8heapless3vec82_$LT$impl$u20$heapless..i..Vec$LT$generic_array..GenericArray$LT$T$C$N$GT$$GT$$GT$4push17h24394f2cbaf0d94dE	00000000 .text._ZN8heapless3vec82_$LT$impl$u20$heapless..i..Vec$LT$generic_array..GenericArray$LT$T$C$N$GT$$GT$$GT$4push17h24394f2cbaf0d94dE
00000000 l    d  .text._ZN8heapless3vec82_$LT$impl$u20$heapless..i..Vec$LT$generic_array..GenericArray$LT$T$C$N$GT$$GT$$GT$4push17h4159c21626dd8039E	00000000 .text._ZN8heapless3vec82_$LT$impl$u20$heapless..i..Vec$LT$generic_array..GenericArray$LT$T$C$N$GT$$GT$$GT$4push17h4159c21626dd8039E
00000000 l    d  .text._ZN8heapless3vec82_$LT$impl$u20$heapless..i..Vec$LT$generic_array..GenericArray$LT$T$C$N$GT$$GT$$GT$4push17h8d803e7f2e0b1068E	00000000 .text._ZN8heapless3vec82_$LT$impl$u20$heapless..i..Vec$LT$generic_array..GenericArray$LT$T$C$N$GT$$GT$$GT$4push17h8d803e7f2e0b1068E
00000000 l    d  .text._ZN8heapless3vec82_$LT$impl$u20$heapless..i..Vec$LT$generic_array..GenericArray$LT$T$C$N$GT$$GT$$GT$5clone17h01e1ad5e0b9e812cE	00000000 .text._ZN8heapless3vec82_$LT$impl$u20$heapless..i..Vec$LT$generic_array..GenericArray$LT$T$C$N$GT$$GT$$GT$5clone17h01e1ad5e0b9e812cE
00000000 l    d  .text._ZN8heapless3vec82_$LT$impl$u20$heapless..i..Vec$LT$generic_array..GenericArray$LT$T$C$N$GT$$GT$$GT$5clone17he06a7de6b801324fE	00000000 .text._ZN8heapless3vec82_$LT$impl$u20$heapless..i..Vec$LT$generic_array..GenericArray$LT$T$C$N$GT$$GT$$GT$5clone17he06a7de6b801324fE
00000000 l    d  .text._ZN8heapless3vec82_$LT$impl$u20$heapless..i..Vec$LT$generic_array..GenericArray$LT$T$C$N$GT$$GT$$GT$8as_slice17h69f4e9303ce44ff9E	00000000 .text._ZN8heapless3vec82_$LT$impl$u20$heapless..i..Vec$LT$generic_array..GenericArray$LT$T$C$N$GT$$GT$$GT$8as_slice17h69f4e9303ce44ff9E
00000000 l    d  .text._ZN8heapless3vec82_$LT$impl$u20$heapless..i..Vec$LT$generic_array..GenericArray$LT$T$C$N$GT$$GT$$GT$8as_slice17h82e1c78a17b80a88E	00000000 .text._ZN8heapless3vec82_$LT$impl$u20$heapless..i..Vec$LT$generic_array..GenericArray$LT$T$C$N$GT$$GT$$GT$8as_slice17h82e1c78a17b80a88E
00000000 l    d  .text._ZN8heapless3vec82_$LT$impl$u20$heapless..i..Vec$LT$generic_array..GenericArray$LT$T$C$N$GT$$GT$$GT$8capacity17h29ce3cf0b66aa6bfE	00000000 .text._ZN8heapless3vec82_$LT$impl$u20$heapless..i..Vec$LT$generic_array..GenericArray$LT$T$C$N$GT$$GT$$GT$8capacity17h29ce3cf0b66aa6bfE
00000000 l    d  .text._ZN8heapless3vec82_$LT$impl$u20$heapless..i..Vec$LT$generic_array..GenericArray$LT$T$C$N$GT$$GT$$GT$8capacity17h2a23006220ec21e9E	00000000 .text._ZN8heapless3vec82_$LT$impl$u20$heapless..i..Vec$LT$generic_array..GenericArray$LT$T$C$N$GT$$GT$$GT$8capacity17h2a23006220ec21e9E
00000000 l    d  .text._ZN8heapless3vec82_$LT$impl$u20$heapless..i..Vec$LT$generic_array..GenericArray$LT$T$C$N$GT$$GT$$GT$8capacity17h4fe848cf61d6e1bdE	00000000 .text._ZN8heapless3vec82_$LT$impl$u20$heapless..i..Vec$LT$generic_array..GenericArray$LT$T$C$N$GT$$GT$$GT$8capacity17h4fe848cf61d6e1bdE
00000000 l    d  .rodata.str.0	00000000 .rodata.str.0
00000000 l    d  .rodata.str.1	00000000 .rodata.str.1
00000000 l    d  .debug_loc	00000000 .debug_loc
00000000 l    d  .debug_abbrev	00000000 .debug_abbrev
00000000 l    d  .debug_info	00000000 .debug_info
00000000 l    d  .debug_ranges	00000000 .debug_ranges
00000000 l    d  .debug_frame	00000000 .debug_frame
00000000 l    d  .debug_line	00000000 .debug_line
00000000         *UND*	00000000 core::ptr::<impl *mut T>::add
00000000         *UND*	00000000 core::ptr::<impl *mut T>::add
00000000         *UND*	00000000 core::ptr::<impl *mut T>::add
00000000         *UND*	00000000 core::ptr::<impl *mut T>::write
00000000         *UND*	00000000 core::ptr::<impl *mut T>::write
00000000         *UND*	00000000 core::ptr::<impl *mut T>::write
00000000         *UND*	00000000 core::clone::Clone::clone
00000000         *UND*	00000000 core::slice::from_raw_parts
00000000         *UND*	00000000 core::slice::from_raw_parts
00000000         *UND*	00000000 core::slice::from_raw_parts_mut
00000000         *UND*	00000000 core::slice::<impl [T]>::len
00000000         *UND*	00000000 core::slice::<impl core::iter::traits::collect::IntoIterator for &[T]>::into_iter
00000000         *UND*	00000000 core::result::Result<T,E>::unwrap
00000000         *UND*	00000000 core::panicking::panic
00000000         *UND*	00000000 <core::slice::Iter<T> as core::iter::traits::iterator::Iterator>::next
00000000         *UND*	00000000 <typenum::uint::UInt<U,B> as typenum::marker_traits::Unsigned>::to_usize
00000000         *UND*	00000000 <typenum::uint::UInt<U,B> as typenum::marker_traits::Unsigned>::to_usize
00000000 g     F .text._ZN8heapless3vec43_$LT$impl$u20$heapless..i..Vec$LT$A$GT$$GT$3new17h2cc593f73ffbe473E	0000001e heapless::vec::<impl heapless::i::Vec<A>>::new
00000000 g     F .text._ZN8heapless3vec43_$LT$impl$u20$heapless..i..Vec$LT$A$GT$$GT$3new17h9eeb7bc695efa5b8E	0000002e heapless::vec::<impl heapless::i::Vec<A>>::new
00000000         *UND*	00000000 heapless::vec::<impl heapless::i::Vec<A>>::new
00000000 g     F .text._ZN8heapless3vec43_$LT$impl$u20$heapless..i..Vec$LT$A$GT$$GT$3new17hf1f97e78e314ab6fE	00000024 heapless::vec::<impl heapless::i::Vec<A>>::new
00000000 g     F .text._ZN8heapless3vec82_$LT$impl$u20$heapless..i..Vec$LT$generic_array..GenericArray$LT$T$C$N$GT$$GT$$GT$12as_mut_slice17haf3b13daa465ec95E	00000030 heapless::vec::<impl heapless::i::Vec<generic_array::GenericArray<T,N>>>::as_mut_slice
00000000 g     F .text._ZN8heapless3vec82_$LT$impl$u20$heapless..i..Vec$LT$generic_array..GenericArray$LT$T$C$N$GT$$GT$$GT$14push_unchecked17h20faed8a944472a4E	00000074 heapless::vec::<impl heapless::i::Vec<generic_array::GenericArray<T,N>>>::push_unchecked
00000000 g     F .text._ZN8heapless3vec82_$LT$impl$u20$heapless..i..Vec$LT$generic_array..GenericArray$LT$T$C$N$GT$$GT$$GT$14push_unchecked17h788f7019c7275076E	00000082 heapless::vec::<impl heapless::i::Vec<generic_array::GenericArray<T,N>>>::push_unchecked
00000000         *UND*	00000000 heapless::vec::<impl heapless::i::Vec<generic_array::GenericArray<T,N>>>::push_unchecked
00000000 g     F .text._ZN8heapless3vec82_$LT$impl$u20$heapless..i..Vec$LT$generic_array..GenericArray$LT$T$C$N$GT$$GT$$GT$14push_unchecked17he043efc4e0adb19bE	00000068 heapless::vec::<impl heapless::i::Vec<generic_array::GenericArray<T,N>>>::push_unchecked
00000000 g     F .text._ZN8heapless3vec82_$LT$impl$u20$heapless..i..Vec$LT$generic_array..GenericArray$LT$T$C$N$GT$$GT$$GT$17extend_from_slice17h524c7f7f2dfbf5dfE	000000e0 heapless::vec::<impl heapless::i::Vec<generic_array::GenericArray<T,N>>>::extend_from_slice
00000000         *UND*	00000000 heapless::vec::<impl heapless::i::Vec<generic_array::GenericArray<T,N>>>::extend_from_slice
00000000 g     F .text._ZN8heapless3vec82_$LT$impl$u20$heapless..i..Vec$LT$generic_array..GenericArray$LT$T$C$N$GT$$GT$$GT$4push17h131d2a357101b751E	00000094 heapless::vec::<impl heapless::i::Vec<generic_array::GenericArray<T,N>>>::push
00000000 g     F .text._ZN8heapless3vec82_$LT$impl$u20$heapless..i..Vec$LT$generic_array..GenericArray$LT$T$C$N$GT$$GT$$GT$4push17h24394f2cbaf0d94dE	0000005a heapless::vec::<impl heapless::i::Vec<generic_array::GenericArray<T,N>>>::push
00000000 g     F .text._ZN8heapless3vec82_$LT$impl$u20$heapless..i..Vec$LT$generic_array..GenericArray$LT$T$C$N$GT$$GT$$GT$4push17h4159c21626dd8039E	00000080 heapless::vec::<impl heapless::i::Vec<generic_array::GenericArray<T,N>>>::push
00000000 g     F .text._ZN8heapless3vec82_$LT$impl$u20$heapless..i..Vec$LT$generic_array..GenericArray$LT$T$C$N$GT$$GT$$GT$4push17h8d803e7f2e0b1068E	000000a0 heapless::vec::<impl heapless::i::Vec<generic_array::GenericArray<T,N>>>::push
00000000 g     F .text._ZN8heapless3vec82_$LT$impl$u20$heapless..i..Vec$LT$generic_array..GenericArray$LT$T$C$N$GT$$GT$$GT$5clone17h01e1ad5e0b9e812cE	00000054 heapless::vec::<impl heapless::i::Vec<generic_array::GenericArray<T,N>>>::clone
00000000 g     F .text._ZN8heapless3vec82_$LT$impl$u20$heapless..i..Vec$LT$generic_array..GenericArray$LT$T$C$N$GT$$GT$$GT$5clone17he06a7de6b801324fE	0000004c heapless::vec::<impl heapless::i::Vec<generic_array::GenericArray<T,N>>>::clone
00000000         *UND*	00000000 heapless::vec::<impl heapless::i::Vec<generic_array::GenericArray<T,N>>>::as_slice
00000000 g     F .text._ZN8heapless3vec82_$LT$impl$u20$heapless..i..Vec$LT$generic_array..GenericArray$LT$T$C$N$GT$$GT$$GT$8as_slice17h69f4e9303ce44ff9E	00000030 heapless::vec::<impl heapless::i::Vec<generic_array::GenericArray<T,N>>>::as_slice
00000000 g     F .text._ZN8heapless3vec82_$LT$impl$u20$heapless..i..Vec$LT$generic_array..GenericArray$LT$T$C$N$GT$$GT$$GT$8as_slice17h82e1c78a17b80a88E	00000030 heapless::vec::<impl heapless::i::Vec<generic_array::GenericArray<T,N>>>::as_slice
00000000 g     F .text._ZN8heapless3vec82_$LT$impl$u20$heapless..i..Vec$LT$generic_array..GenericArray$LT$T$C$N$GT$$GT$$GT$8capacity17h29ce3cf0b66aa6bfE	00000018 heapless::vec::<impl heapless::i::Vec<generic_array::GenericArray<T,N>>>::capacity
00000000 g     F .text._ZN8heapless3vec82_$LT$impl$u20$heapless..i..Vec$LT$generic_array..GenericArray$LT$T$C$N$GT$$GT$$GT$8capacity17h2a23006220ec21e9E	00000018 heapless::vec::<impl heapless::i::Vec<generic_array::GenericArray<T,N>>>::capacity
00000000         *UND*	00000000 heapless::vec::<impl heapless::i::Vec<generic_array::GenericArray<T,N>>>::capacity
00000000 g     F .text._ZN8heapless3vec82_$LT$impl$u20$heapless..i..Vec$LT$generic_array..GenericArray$LT$T$C$N$GT$$GT$$GT$8capacity17h4fe848cf61d6e1bdE	00000018 heapless::vec::<impl heapless::i::Vec<generic_array::GenericArray<T,N>>>::capacity
00000000         *UND*	00000000 __aeabi_memclr8
00000000         *UND*	00000000 __aeabi_memcpy8



Disassembly of section .text._ZN8heapless3vec43_$LT$impl$u20$heapless..i..Vec$LT$A$GT$$GT$3new17h2cc593f73ffbe473E:

00000000 <heapless::vec::<impl heapless::i::Vec<A>>::new>:
_ZN8heapless3vec43_$LT$impl$u20$heapless..i..Vec$LT$A$GT$$GT$3new17h2cc593f73ffbe473E():
/Users/Luppy/.cargo/registry/src/github.com-1ecc6299db9ec823/heapless-0.5.1/src/vec.rs:8
use generic_array::{ArrayLength, GenericArray};
use hash32;

impl<A> crate::i::Vec<A> {
    /// `Vec` `const` constructor; wrap the returned value in [`Vec`](../struct.Vec.html)
    pub const fn new() -> Self {
   0:	b5b0      	push	{r4, r5, r7, lr}
   2:	b087      	sub	sp, #28
/Users/Luppy/.cargo/registry/src/github.com-1ecc6299db9ec823/heapless-0.5.1/src/vec.rs:10
        Self {
            buffer: MaybeUninit::uninit(),
   4:	9000      	str	r0, [sp, #0]
   6:	e7ff      	b.n	8 <heapless::vec::<impl heapless::i::Vec<A>>::new+0x8>
   8:	a801      	add	r0, sp, #4
/Users/Luppy/.cargo/registry/src/github.com-1ecc6299db9ec823/heapless-0.5.1/src/vec.rs:9
        Self {
   a:	9900      	ldr	r1, [sp, #0]
   c:	e890 503c 	ldmia.w	r0, {r2, r3, r4, r5, ip, lr}
  10:	e881 503c 	stmia.w	r1, {r2, r3, r4, r5, ip, lr}
  14:	2000      	movs	r0, #0
  16:	9900      	ldr	r1, [sp, #0]
  18:	6188      	str	r0, [r1, #24]
/Users/Luppy/.cargo/registry/src/github.com-1ecc6299db9ec823/heapless-0.5.1/src/vec.rs:13
            len: 0,
        }
    }
  1a:	b007      	add	sp, #28
  1c:	bdb0      	pop	{r4, r5, r7, pc}

Disassembly of section .text._ZN8heapless3vec43_$LT$impl$u20$heapless..i..Vec$LT$A$GT$$GT$3new17h9eeb7bc695efa5b8E:

00000000 <heapless::vec::<impl heapless::i::Vec<A>>::new>:
_ZN8heapless3vec43_$LT$impl$u20$heapless..i..Vec$LT$A$GT$$GT$3new17h9eeb7bc695efa5b8E():
/Users/Luppy/.cargo/registry/src/github.com-1ecc6299db9ec823/heapless-0.5.1/src/vec.rs:8
    pub const fn new() -> Self {
   0:	b5b0      	push	{r4, r5, r7, lr}
   2:	b092      	sub	sp, #72	; 0x48
/Users/Luppy/.cargo/registry/src/github.com-1ecc6299db9ec823/heapless-0.5.1/src/vec.rs:10
            buffer: MaybeUninit::uninit(),
   4:	9001      	str	r0, [sp, #4]
   6:	e7ff      	b.n	8 <heapless::vec::<impl heapless::i::Vec<A>>::new+0x8>
   8:	a802      	add	r0, sp, #8
/Users/Luppy/.cargo/registry/src/github.com-1ecc6299db9ec823/heapless-0.5.1/src/vec.rs:9
        Self {
   a:	9901      	ldr	r1, [sp, #4]
   c:	e8b0 501c 	ldmia.w	r0!, {r2, r3, r4, ip, lr}
  10:	e8a1 501c 	stmia.w	r1!, {r2, r3, r4, ip, lr}
  14:	e8b0 501c 	ldmia.w	r0!, {r2, r3, r4, ip, lr}
  18:	e8a1 501c 	stmia.w	r1!, {r2, r3, r4, ip, lr}
  1c:	e890 503c 	ldmia.w	r0, {r2, r3, r4, r5, ip, lr}
  20:	e881 503c 	stmia.w	r1, {r2, r3, r4, r5, ip, lr}
  24:	2000      	movs	r0, #0
  26:	9901      	ldr	r1, [sp, #4]
  28:	6408      	str	r0, [r1, #64]	; 0x40
/Users/Luppy/.cargo/registry/src/github.com-1ecc6299db9ec823/heapless-0.5.1/src/vec.rs:13
    }
  2a:	b012      	add	sp, #72	; 0x48
  2c:	bdb0      	pop	{r4, r5, r7, pc}

Disassembly of section .text._ZN8heapless3vec43_$LT$impl$u20$heapless..i..Vec$LT$A$GT$$GT$3new17hf1f97e78e314ab6fE:

00000000 <heapless::vec::<impl heapless::i::Vec<A>>::new>:
_ZN8heapless3vec43_$LT$impl$u20$heapless..i..Vec$LT$A$GT$$GT$3new17hf1f97e78e314ab6fE():
/Users/Luppy/.cargo/registry/src/github.com-1ecc6299db9ec823/heapless-0.5.1/src/vec.rs:8
    pub const fn new() -> Self {
   0:	b580      	push	{r7, lr}
   2:	f5ad 7d02 	sub.w	sp, sp, #520	; 0x208
/Users/Luppy/.cargo/registry/src/github.com-1ecc6299db9ec823/heapless-0.5.1/src/vec.rs:10
            buffer: MaybeUninit::uninit(),
   6:	9001      	str	r0, [sp, #4]
   8:	e7ff      	b.n	a <heapless::vec::<impl heapless::i::Vec<A>>::new+0xa>
   a:	a902      	add	r1, sp, #8
   c:	f44f 7200 	mov.w	r2, #512	; 0x200
/Users/Luppy/.cargo/registry/src/github.com-1ecc6299db9ec823/heapless-0.5.1/src/vec.rs:9
        Self {
  10:	9801      	ldr	r0, [sp, #4]
  12:	f7ff fffe 	bl	0 <__aeabi_memcpy8>
  16:	2000      	movs	r0, #0
  18:	9901      	ldr	r1, [sp, #4]
  1a:	f8c1 0200 	str.w	r0, [r1, #512]	; 0x200
/Users/Luppy/.cargo/registry/src/github.com-1ecc6299db9ec823/heapless-0.5.1/src/vec.rs:13
    }
  1e:	f50d 7d02 	add.w	sp, sp, #520	; 0x208
  22:	bd80      	pop	{r7, pc}

Disassembly of section .text._ZN8heapless3vec82_$LT$impl$u20$heapless..i..Vec$LT$generic_array..GenericArray$LT$T$C$N$GT$$GT$$GT$12as_mut_slice17haf3b13daa465ec95E:

00000000 <heapless::vec::<impl heapless::i::Vec<generic_array::GenericArray<T,N>>>::as_mut_slice>:
_ZN8heapless3vec82_$LT$impl$u20$heapless..i..Vec$LT$generic_array..GenericArray$LT$T$C$N$GT$$GT$$GT$12as_mut_slice17haf3b13daa465ec95E():
/Users/Luppy/.cargo/registry/src/github.com-1ecc6299db9ec823/heapless-0.5.1/src/vec.rs:26
        // NOTE(unsafe) avoid bound checks in the slicing operation
        // &buffer[..self.len]
        unsafe { slice::from_raw_parts(self.buffer.as_ptr() as *const T, self.len) }
    }

    pub(crate) fn as_mut_slice(&mut self) -> &mut [T] {
   0:	b580      	push	{r7, lr}
   2:	b088      	sub	sp, #32
   4:	4601      	mov	r1, r0
   6:	9005      	str	r0, [sp, #20]
/Users/Luppy/.cargo/registry/src/github.com-1ecc6299db9ec823/heapless-0.5.1/src/vec.rs:29
        // NOTE(unsafe) avoid bound checks in the slicing operation
        // &mut buffer[..len]
        unsafe { slice::from_raw_parts_mut(self.buffer.as_mut_ptr() as *mut T, self.len) }
   8:	9805      	ldr	r0, [sp, #20]
   a:	9006      	str	r0, [sp, #24]
_ZN4core3mem20MaybeUninit$LT$T$GT$10as_mut_ptr17h9e46fc06f229e20cE():
/rustc/50a0defd5a93523067ef239936cc2e0755220904/src/libcore/mem.rs:1252
   c:	9806      	ldr	r0, [sp, #24]
   e:	9007      	str	r0, [sp, #28]
_ZN79_$LT$core..mem..ManuallyDrop$LT$T$GT$$u20$as$u20$core..ops..deref..DerefMut$GT$9deref_mut17ha0e0068d8d73533eE():
/rustc/50a0defd5a93523067ef239936cc2e0755220904/src/libcore/mem.rs:887
  10:	9807      	ldr	r0, [sp, #28]
_ZN8heapless3vec82_$LT$impl$u20$heapless..i..Vec$LT$generic_array..GenericArray$LT$T$C$N$GT$$GT$$GT$12as_mut_slice17haf3b13daa465ec95E():
/Users/Luppy/.cargo/registry/src/github.com-1ecc6299db9ec823/heapless-0.5.1/src/vec.rs:29
  12:	9104      	str	r1, [sp, #16]
  14:	9003      	str	r0, [sp, #12]
  16:	e7ff      	b.n	18 <heapless::vec::<impl heapless::i::Vec<generic_array::GenericArray<T,N>>>::as_mut_slice+0x18>
  18:	9805      	ldr	r0, [sp, #20]
  1a:	6c01      	ldr	r1, [r0, #64]	; 0x40
  1c:	9803      	ldr	r0, [sp, #12]
  1e:	f7ff fffe 	bl	0 <core::slice::from_raw_parts_mut>
  22:	9002      	str	r0, [sp, #8]
  24:	9101      	str	r1, [sp, #4]
  26:	e7ff      	b.n	28 <heapless::vec::<impl heapless::i::Vec<generic_array::GenericArray<T,N>>>::as_mut_slice+0x28>
/Users/Luppy/.cargo/registry/src/github.com-1ecc6299db9ec823/heapless-0.5.1/src/vec.rs:30
    }
  28:	9802      	ldr	r0, [sp, #8]
  2a:	9901      	ldr	r1, [sp, #4]
  2c:	b008      	add	sp, #32
  2e:	bd80      	pop	{r7, pc}

Disassembly of section .text._ZN8heapless3vec82_$LT$impl$u20$heapless..i..Vec$LT$generic_array..GenericArray$LT$T$C$N$GT$$GT$$GT$14push_unchecked17h20faed8a944472a4E:

00000000 <heapless::vec::<impl heapless::i::Vec<generic_array::GenericArray<T,N>>>::push_unchecked>:
_ZN8heapless3vec82_$LT$impl$u20$heapless..i..Vec$LT$generic_array..GenericArray$LT$T$C$N$GT$$GT$$GT$14push_unchecked17h20faed8a944472a4E():
/Users/Luppy/.cargo/registry/src/github.com-1ecc6299db9ec823/heapless-0.5.1/src/vec.rs:95
        } else {
            Err(item)
        }
    }

    pub(crate) unsafe fn push_unchecked(&mut self, item: T) {
   0:	b510      	push	{r4, lr}
   2:	b092      	sub	sp, #72	; 0x48
   4:	4602      	mov	r2, r0
   6:	9007      	str	r0, [sp, #28]
/Users/Luppy/.cargo/registry/src/github.com-1ecc6299db9ec823/heapless-0.5.1/src/vec.rs:98
        // NOTE(ptr::write) the memory slot that we are about to write to is uninitialized. We
        // use `ptr::write` to avoid running `T`'s destructor on the uninitialized memory
        (self.buffer.as_mut_ptr() as *mut T)
   8:	9807      	ldr	r0, [sp, #28]
   a:	9010      	str	r0, [sp, #64]	; 0x40
_ZN4core3mem20MaybeUninit$LT$T$GT$10as_mut_ptr17h9e46fc06f229e20cE():
/rustc/50a0defd5a93523067ef239936cc2e0755220904/src/libcore/mem.rs:1252
   c:	9810      	ldr	r0, [sp, #64]	; 0x40
   e:	9011      	str	r0, [sp, #68]	; 0x44
_ZN79_$LT$core..mem..ManuallyDrop$LT$T$GT$$u20$as$u20$core..ops..deref..DerefMut$GT$9deref_mut17ha0e0068d8d73533eE():
/rustc/50a0defd5a93523067ef239936cc2e0755220904/src/libcore/mem.rs:887
  10:	9811      	ldr	r0, [sp, #68]	; 0x44
_ZN8heapless3vec82_$LT$impl$u20$heapless..i..Vec$LT$generic_array..GenericArray$LT$T$C$N$GT$$GT$$GT$14push_unchecked17h20faed8a944472a4E():
/Users/Luppy/.cargo/registry/src/github.com-1ecc6299db9ec823/heapless-0.5.1/src/vec.rs:98
  12:	9106      	str	r1, [sp, #24]
  14:	9205      	str	r2, [sp, #20]
  16:	9004      	str	r0, [sp, #16]
  18:	e7ff      	b.n	1a <heapless::vec::<impl heapless::i::Vec<generic_array::GenericArray<T,N>>>::push_unchecked+0x1a>
/Users/Luppy/.cargo/registry/src/github.com-1ecc6299db9ec823/heapless-0.5.1/src/vec.rs:99
            .add(self.len)
  1a:	9807      	ldr	r0, [sp, #28]
  1c:	6c01      	ldr	r1, [r0, #64]	; 0x40
/Users/Luppy/.cargo/registry/src/github.com-1ecc6299db9ec823/heapless-0.5.1/src/vec.rs:98
        (self.buffer.as_mut_ptr() as *mut T)
  1e:	9804      	ldr	r0, [sp, #16]
  20:	f7ff fffe 	bl	0 <core::ptr::<impl *mut T>::add>
  24:	9003      	str	r0, [sp, #12]
  26:	e7ff      	b.n	28 <heapless::vec::<impl heapless::i::Vec<generic_array::GenericArray<T,N>>>::push_unchecked+0x28>
  28:	a808      	add	r0, sp, #32
/Users/Luppy/.cargo/registry/src/github.com-1ecc6299db9ec823/heapless-0.5.1/src/vec.rs:100
            .write(item);
  2a:	4601      	mov	r1, r0
  2c:	9a06      	ldr	r2, [sp, #24]
  2e:	e8b2 5018 	ldmia.w	r2!, {r3, r4, ip, lr}
  32:	e8a1 5018 	stmia.w	r1!, {r3, r4, ip, lr}
  36:	e892 5018 	ldmia.w	r2, {r3, r4, ip, lr}
  3a:	e881 5018 	stmia.w	r1, {r3, r4, ip, lr}
/Users/Luppy/.cargo/registry/src/github.com-1ecc6299db9ec823/heapless-0.5.1/src/vec.rs:98
        (self.buffer.as_mut_ptr() as *mut T)
  3e:	9903      	ldr	r1, [sp, #12]
  40:	9002      	str	r0, [sp, #8]
  42:	4608      	mov	r0, r1
  44:	9902      	ldr	r1, [sp, #8]
  46:	f7ff fffe 	bl	0 <core::ptr::<impl *mut T>::write>
  4a:	e7ff      	b.n	4c <heapless::vec::<impl heapless::i::Vec<generic_array::GenericArray<T,N>>>::push_unchecked+0x4c>
/Users/Luppy/.cargo/registry/src/github.com-1ecc6299db9ec823/heapless-0.5.1/src/vec.rs:102

        self.len += 1;
  4c:	9807      	ldr	r0, [sp, #28]
  4e:	6c00      	ldr	r0, [r0, #64]	; 0x40
  50:	1c41      	adds	r1, r0, #1
  52:	460a      	mov	r2, r1
  54:	4281      	cmp	r1, r0
  56:	9201      	str	r2, [sp, #4]
  58:	d305      	bcc.n	66 <heapless::vec::<impl heapless::i::Vec<generic_array::GenericArray<T,N>>>::push_unchecked+0x66>
  5a:	e7ff      	b.n	5c <heapless::vec::<impl heapless::i::Vec<generic_array::GenericArray<T,N>>>::push_unchecked+0x5c>
  5c:	9807      	ldr	r0, [sp, #28]
  5e:	9901      	ldr	r1, [sp, #4]
  60:	6401      	str	r1, [r0, #64]	; 0x40
/Users/Luppy/.cargo/registry/src/github.com-1ecc6299db9ec823/heapless-0.5.1/src/vec.rs:103
    }
  62:	b012      	add	sp, #72	; 0x48
  64:	bd10      	pop	{r4, pc}
/Users/Luppy/.cargo/registry/src/github.com-1ecc6299db9ec823/heapless-0.5.1/src/vec.rs:102
        self.len += 1;
  66:	f240 0000 	movw	r0, #0
  6a:	f2c0 0000 	movt	r0, #0
  6e:	f7ff fffe 	bl	0 <core::panicking::panic>
  72:	defe      	udf	#254	; 0xfe

Disassembly of section .text._ZN8heapless3vec82_$LT$impl$u20$heapless..i..Vec$LT$generic_array..GenericArray$LT$T$C$N$GT$$GT$$GT$14push_unchecked17h788f7019c7275076E:

00000000 <heapless::vec::<impl heapless::i::Vec<generic_array::GenericArray<T,N>>>::push_unchecked>:
_ZN8heapless3vec82_$LT$impl$u20$heapless..i..Vec$LT$generic_array..GenericArray$LT$T$C$N$GT$$GT$$GT$14push_unchecked17h788f7019c7275076E():
/Users/Luppy/.cargo/registry/src/github.com-1ecc6299db9ec823/heapless-0.5.1/src/vec.rs:95
    pub(crate) unsafe fn push_unchecked(&mut self, item: T) {
   0:	b570      	push	{r4, r5, r6, lr}
   2:	b09a      	sub	sp, #104	; 0x68
   4:	4602      	mov	r2, r0
   6:	9007      	str	r0, [sp, #28]
/Users/Luppy/.cargo/registry/src/github.com-1ecc6299db9ec823/heapless-0.5.1/src/vec.rs:98
        (self.buffer.as_mut_ptr() as *mut T)
   8:	9807      	ldr	r0, [sp, #28]
   a:	9018      	str	r0, [sp, #96]	; 0x60
_ZN4core3mem20MaybeUninit$LT$T$GT$10as_mut_ptr17h9b11f4ebb2064c37E():
/rustc/50a0defd5a93523067ef239936cc2e0755220904/src/libcore/mem.rs:1252
   c:	9818      	ldr	r0, [sp, #96]	; 0x60
   e:	9019      	str	r0, [sp, #100]	; 0x64
_ZN79_$LT$core..mem..ManuallyDrop$LT$T$GT$$u20$as$u20$core..ops..deref..DerefMut$GT$9deref_mut17hb30f2fb4f5296006E():
/rustc/50a0defd5a93523067ef239936cc2e0755220904/src/libcore/mem.rs:887
  10:	9819      	ldr	r0, [sp, #100]	; 0x64
_ZN8heapless3vec82_$LT$impl$u20$heapless..i..Vec$LT$generic_array..GenericArray$LT$T$C$N$GT$$GT$$GT$14push_unchecked17h788f7019c7275076E():
/Users/Luppy/.cargo/registry/src/github.com-1ecc6299db9ec823/heapless-0.5.1/src/vec.rs:98
  12:	9106      	str	r1, [sp, #24]
  14:	9205      	str	r2, [sp, #20]
  16:	9004      	str	r0, [sp, #16]
  18:	e7ff      	b.n	1a <heapless::vec::<impl heapless::i::Vec<generic_array::GenericArray<T,N>>>::push_unchecked+0x1a>
/Users/Luppy/.cargo/registry/src/github.com-1ecc6299db9ec823/heapless-0.5.1/src/vec.rs:99
            .add(self.len)
  1a:	9807      	ldr	r0, [sp, #28]
  1c:	f8d0 1200 	ldr.w	r1, [r0, #512]	; 0x200
/Users/Luppy/.cargo/registry/src/github.com-1ecc6299db9ec823/heapless-0.5.1/src/vec.rs:98
        (self.buffer.as_mut_ptr() as *mut T)
  20:	9804      	ldr	r0, [sp, #16]
  22:	f7ff fffe 	bl	0 <core::ptr::<impl *mut T>::add>
  26:	9003      	str	r0, [sp, #12]
  28:	e7ff      	b.n	2a <heapless::vec::<impl heapless::i::Vec<generic_array::GenericArray<T,N>>>::push_unchecked+0x2a>
  2a:	a808      	add	r0, sp, #32
/Users/Luppy/.cargo/registry/src/github.com-1ecc6299db9ec823/heapless-0.5.1/src/vec.rs:100
            .write(item);
  2c:	4601      	mov	r1, r0
  2e:	9a06      	ldr	r2, [sp, #24]
  30:	e8b2 5038 	ldmia.w	r2!, {r3, r4, r5, ip, lr}
  34:	e8a1 5038 	stmia.w	r1!, {r3, r4, r5, ip, lr}
  38:	e8b2 5038 	ldmia.w	r2!, {r3, r4, r5, ip, lr}
  3c:	e8a1 5038 	stmia.w	r1!, {r3, r4, r5, ip, lr}
  40:	e892 5078 	ldmia.w	r2, {r3, r4, r5, r6, ip, lr}
  44:	e881 5078 	stmia.w	r1, {r3, r4, r5, r6, ip, lr}
/Users/Luppy/.cargo/registry/src/github.com-1ecc6299db9ec823/heapless-0.5.1/src/vec.rs:98
        (self.buffer.as_mut_ptr() as *mut T)
  48:	9903      	ldr	r1, [sp, #12]
  4a:	9002      	str	r0, [sp, #8]
  4c:	4608      	mov	r0, r1
  4e:	9902      	ldr	r1, [sp, #8]
  50:	f7ff fffe 	bl	0 <core::ptr::<impl *mut T>::write>
  54:	e7ff      	b.n	56 <heapless::vec::<impl heapless::i::Vec<generic_array::GenericArray<T,N>>>::push_unchecked+0x56>
/Users/Luppy/.cargo/registry/src/github.com-1ecc6299db9ec823/heapless-0.5.1/src/vec.rs:102
        self.len += 1;
  56:	9807      	ldr	r0, [sp, #28]
  58:	f8d0 0200 	ldr.w	r0, [r0, #512]	; 0x200
  5c:	1c41      	adds	r1, r0, #1
  5e:	460a      	mov	r2, r1
  60:	4281      	cmp	r1, r0
  62:	9201      	str	r2, [sp, #4]
  64:	d306      	bcc.n	74 <heapless::vec::<impl heapless::i::Vec<generic_array::GenericArray<T,N>>>::push_unchecked+0x74>
  66:	e7ff      	b.n	68 <heapless::vec::<impl heapless::i::Vec<generic_array::GenericArray<T,N>>>::push_unchecked+0x68>
  68:	9807      	ldr	r0, [sp, #28]
  6a:	9901      	ldr	r1, [sp, #4]
  6c:	f8c0 1200 	str.w	r1, [r0, #512]	; 0x200
/Users/Luppy/.cargo/registry/src/github.com-1ecc6299db9ec823/heapless-0.5.1/src/vec.rs:103
    }
  70:	b01a      	add	sp, #104	; 0x68
  72:	bd70      	pop	{r4, r5, r6, pc}
/Users/Luppy/.cargo/registry/src/github.com-1ecc6299db9ec823/heapless-0.5.1/src/vec.rs:102
        self.len += 1;
  74:	f240 0000 	movw	r0, #0
  78:	f2c0 0000 	movt	r0, #0
  7c:	f7ff fffe 	bl	0 <core::panicking::panic>
  80:	defe      	udf	#254	; 0xfe

Disassembly of section .text._ZN8heapless3vec82_$LT$impl$u20$heapless..i..Vec$LT$generic_array..GenericArray$LT$T$C$N$GT$$GT$$GT$14push_unchecked17he043efc4e0adb19bE:

00000000 <heapless::vec::<impl heapless::i::Vec<generic_array::GenericArray<T,N>>>::push_unchecked>:
_ZN8heapless3vec82_$LT$impl$u20$heapless..i..Vec$LT$generic_array..GenericArray$LT$T$C$N$GT$$GT$$GT$14push_unchecked17he043efc4e0adb19bE():
/Users/Luppy/.cargo/registry/src/github.com-1ecc6299db9ec823/heapless-0.5.1/src/vec.rs:95
    pub(crate) unsafe fn push_unchecked(&mut self, item: T) {
   0:	b580      	push	{r7, lr}
   2:	b08c      	sub	sp, #48	; 0x30
   4:	4602      	mov	r2, r0
   6:	9006      	str	r0, [sp, #24]
/Users/Luppy/.cargo/registry/src/github.com-1ecc6299db9ec823/heapless-0.5.1/src/vec.rs:98
        (self.buffer.as_mut_ptr() as *mut T)
   8:	9806      	ldr	r0, [sp, #24]
   a:	900a      	str	r0, [sp, #40]	; 0x28
_ZN4core3mem20MaybeUninit$LT$T$GT$10as_mut_ptr17hc81258029971f42dE():
/rustc/50a0defd5a93523067ef239936cc2e0755220904/src/libcore/mem.rs:1252
   c:	980a      	ldr	r0, [sp, #40]	; 0x28
   e:	900b      	str	r0, [sp, #44]	; 0x2c
_ZN79_$LT$core..mem..ManuallyDrop$LT$T$GT$$u20$as$u20$core..ops..deref..DerefMut$GT$9deref_mut17h361fbd3a372c82f3E():
/rustc/50a0defd5a93523067ef239936cc2e0755220904/src/libcore/mem.rs:887
  10:	980b      	ldr	r0, [sp, #44]	; 0x2c
_ZN8heapless3vec82_$LT$impl$u20$heapless..i..Vec$LT$generic_array..GenericArray$LT$T$C$N$GT$$GT$$GT$14push_unchecked17he043efc4e0adb19bE():
/Users/Luppy/.cargo/registry/src/github.com-1ecc6299db9ec823/heapless-0.5.1/src/vec.rs:98
  12:	9105      	str	r1, [sp, #20]
  14:	9204      	str	r2, [sp, #16]
  16:	9003      	str	r0, [sp, #12]
  18:	e7ff      	b.n	1a <heapless::vec::<impl heapless::i::Vec<generic_array::GenericArray<T,N>>>::push_unchecked+0x1a>
/Users/Luppy/.cargo/registry/src/github.com-1ecc6299db9ec823/heapless-0.5.1/src/vec.rs:99
            .add(self.len)
  1a:	9806      	ldr	r0, [sp, #24]
  1c:	6981      	ldr	r1, [r0, #24]
/Users/Luppy/.cargo/registry/src/github.com-1ecc6299db9ec823/heapless-0.5.1/src/vec.rs:98
        (self.buffer.as_mut_ptr() as *mut T)
  1e:	9803      	ldr	r0, [sp, #12]
  20:	f7ff fffe 	bl	0 <core::ptr::<impl *mut T>::add>
  24:	9002      	str	r0, [sp, #8]
  26:	e7ff      	b.n	28 <heapless::vec::<impl heapless::i::Vec<generic_array::GenericArray<T,N>>>::push_unchecked+0x28>
/Users/Luppy/.cargo/registry/src/github.com-1ecc6299db9ec823/heapless-0.5.1/src/vec.rs:100
            .write(item);
  28:	9805      	ldr	r0, [sp, #20]
  2a:	6801      	ldr	r1, [r0, #0]
  2c:	6842      	ldr	r2, [r0, #4]
  2e:	6883      	ldr	r3, [r0, #8]
  30:	9309      	str	r3, [sp, #36]	; 0x24
  32:	9208      	str	r2, [sp, #32]
  34:	9107      	str	r1, [sp, #28]
  36:	a907      	add	r1, sp, #28
/Users/Luppy/.cargo/registry/src/github.com-1ecc6299db9ec823/heapless-0.5.1/src/vec.rs:98
        (self.buffer.as_mut_ptr() as *mut T)
  38:	9802      	ldr	r0, [sp, #8]
  3a:	f7ff fffe 	bl	0 <core::ptr::<impl *mut T>::write>
  3e:	e7ff      	b.n	40 <heapless::vec::<impl heapless::i::Vec<generic_array::GenericArray<T,N>>>::push_unchecked+0x40>
/Users/Luppy/.cargo/registry/src/github.com-1ecc6299db9ec823/heapless-0.5.1/src/vec.rs:102
        self.len += 1;
  40:	9806      	ldr	r0, [sp, #24]
  42:	6980      	ldr	r0, [r0, #24]
  44:	1c41      	adds	r1, r0, #1
  46:	460a      	mov	r2, r1
  48:	4281      	cmp	r1, r0
  4a:	9201      	str	r2, [sp, #4]
  4c:	d305      	bcc.n	5a <heapless::vec::<impl heapless::i::Vec<generic_array::GenericArray<T,N>>>::push_unchecked+0x5a>
  4e:	e7ff      	b.n	50 <heapless::vec::<impl heapless::i::Vec<generic_array::GenericArray<T,N>>>::push_unchecked+0x50>
  50:	9806      	ldr	r0, [sp, #24]
  52:	9901      	ldr	r1, [sp, #4]
  54:	6181      	str	r1, [r0, #24]
/Users/Luppy/.cargo/registry/src/github.com-1ecc6299db9ec823/heapless-0.5.1/src/vec.rs:103
    }
  56:	b00c      	add	sp, #48	; 0x30
  58:	bd80      	pop	{r7, pc}
/Users/Luppy/.cargo/registry/src/github.com-1ecc6299db9ec823/heapless-0.5.1/src/vec.rs:102
        self.len += 1;
  5a:	f240 0000 	movw	r0, #0
  5e:	f2c0 0000 	movt	r0, #0
  62:	f7ff fffe 	bl	0 <core::panicking::panic>
  66:	defe      	udf	#254	; 0xfe

Disassembly of section .text._ZN8heapless3vec82_$LT$impl$u20$heapless..i..Vec$LT$generic_array..GenericArray$LT$T$C$N$GT$$GT$$GT$17extend_from_slice17h524c7f7f2dfbf5dfE:

00000000 <heapless::vec::<impl heapless::i::Vec<generic_array::GenericArray<T,N>>>::extend_from_slice>:
_ZN8heapless3vec82_$LT$impl$u20$heapless..i..Vec$LT$generic_array..GenericArray$LT$T$C$N$GT$$GT$$GT$17extend_from_slice17h524c7f7f2dfbf5dfE():
/Users/Luppy/.cargo/registry/src/github.com-1ecc6299db9ec823/heapless-0.5.1/src/vec.rs:58
    pub(crate) fn extend_from_slice(&mut self, other: &[T]) -> Result<(), ()>
   0:	b580      	push	{r7, lr}
   2:	b09a      	sub	sp, #104	; 0x68
   4:	4613      	mov	r3, r2
   6:	468c      	mov	ip, r1
   8:	4686      	mov	lr, r0
   a:	900b      	str	r0, [sp, #44]	; 0x2c
   c:	910c      	str	r1, [sp, #48]	; 0x30
   e:	920d      	str	r2, [sp, #52]	; 0x34
/Users/Luppy/.cargo/registry/src/github.com-1ecc6299db9ec823/heapless-0.5.1/src/vec.rs:62
        if self.len + other.len() > self.capacity() {
  10:	980b      	ldr	r0, [sp, #44]	; 0x2c
  12:	6980      	ldr	r0, [r0, #24]
  14:	990c      	ldr	r1, [sp, #48]	; 0x30
  16:	9a0d      	ldr	r2, [sp, #52]	; 0x34
  18:	900a      	str	r0, [sp, #40]	; 0x28
  1a:	4608      	mov	r0, r1
  1c:	4611      	mov	r1, r2
  1e:	9309      	str	r3, [sp, #36]	; 0x24
  20:	f8cd c020 	str.w	ip, [sp, #32]
  24:	f8cd e01c 	str.w	lr, [sp, #28]
  28:	f7ff fffe 	bl	0 <core::slice::<impl [T]>::len>
  2c:	9006      	str	r0, [sp, #24]
  2e:	e7ff      	b.n	30 <heapless::vec::<impl heapless::i::Vec<generic_array::GenericArray<T,N>>>::extend_from_slice+0x30>
  30:	980a      	ldr	r0, [sp, #40]	; 0x28
  32:	9906      	ldr	r1, [sp, #24]
  34:	1842      	adds	r2, r0, r1
  36:	4613      	mov	r3, r2
  38:	4282      	cmp	r2, r0
  3a:	9305      	str	r3, [sp, #20]
  3c:	d349      	bcc.n	d2 <heapless::vec::<impl heapless::i::Vec<generic_array::GenericArray<T,N>>>::extend_from_slice+0xd2>
  3e:	e7ff      	b.n	40 <heapless::vec::<impl heapless::i::Vec<generic_array::GenericArray<T,N>>>::extend_from_slice+0x40>
  40:	980b      	ldr	r0, [sp, #44]	; 0x2c
  42:	f7ff fffe 	bl	0 <heapless::vec::<impl heapless::i::Vec<generic_array::GenericArray<T,N>>>::extend_from_slice>
  46:	9004      	str	r0, [sp, #16]
  48:	e7ff      	b.n	4a <heapless::vec::<impl heapless::i::Vec<generic_array::GenericArray<T,N>>>::extend_from_slice+0x4a>
  4a:	9805      	ldr	r0, [sp, #20]
  4c:	9904      	ldr	r1, [sp, #16]
  4e:	4288      	cmp	r0, r1
  50:	d904      	bls.n	5c <heapless::vec::<impl heapless::i::Vec<generic_array::GenericArray<T,N>>>::extend_from_slice+0x5c>
  52:	e7ff      	b.n	54 <heapless::vec::<impl heapless::i::Vec<generic_array::GenericArray<T,N>>>::extend_from_slice+0x54>
  54:	2001      	movs	r0, #1
/Users/Luppy/.cargo/registry/src/github.com-1ecc6299db9ec823/heapless-0.5.1/src/vec.rs:64
            Err(())
  56:	f88d 003b 	strb.w	r0, [sp, #59]	; 0x3b
/Users/Luppy/.cargo/registry/src/github.com-1ecc6299db9ec823/heapless-0.5.1/src/vec.rs:62
        if self.len + other.len() > self.capacity() {
  5a:	e036      	b.n	ca <heapless::vec::<impl heapless::i::Vec<generic_array::GenericArray<T,N>>>::extend_from_slice+0xca>
/Users/Luppy/.cargo/registry/src/github.com-1ecc6299db9ec823/heapless-0.5.1/src/vec.rs:66
            for elem in other {
  5c:	980c      	ldr	r0, [sp, #48]	; 0x30
  5e:	990d      	ldr	r1, [sp, #52]	; 0x34
  60:	f7ff fffe 	bl	0 <core::slice::<impl core::iter::traits::collect::IntoIterator for &[T]>::into_iter>
  64:	9003      	str	r0, [sp, #12]
  66:	9102      	str	r1, [sp, #8]
  68:	e7ff      	b.n	6a <heapless::vec::<impl heapless::i::Vec<generic_array::GenericArray<T,N>>>::extend_from_slice+0x6a>
  6a:	9803      	ldr	r0, [sp, #12]
  6c:	9010      	str	r0, [sp, #64]	; 0x40
  6e:	9902      	ldr	r1, [sp, #8]
  70:	9111      	str	r1, [sp, #68]	; 0x44
  72:	e7ff      	b.n	74 <heapless::vec::<impl heapless::i::Vec<generic_array::GenericArray<T,N>>>::extend_from_slice+0x74>
  74:	a810      	add	r0, sp, #64	; 0x40
  76:	f7ff fffe 	bl	0 <<core::slice::Iter<T> as core::iter::traits::iterator::Iterator>::next>
  7a:	9013      	str	r0, [sp, #76]	; 0x4c
  7c:	e7ff      	b.n	7e <heapless::vec::<impl heapless::i::Vec<generic_array::GenericArray<T,N>>>::extend_from_slice+0x7e>
  7e:	9813      	ldr	r0, [sp, #76]	; 0x4c
  80:	2800      	cmp	r0, #0
  82:	4601      	mov	r1, r0
  84:	bf18      	it	ne
  86:	2101      	movne	r1, #1
  88:	2800      	cmp	r0, #0
  8a:	9101      	str	r1, [sp, #4]
  8c:	d013      	beq.n	b6 <heapless::vec::<impl heapless::i::Vec<generic_array::GenericArray<T,N>>>::extend_from_slice+0xb6>
  8e:	e7ff      	b.n	90 <heapless::vec::<impl heapless::i::Vec<generic_array::GenericArray<T,N>>>::extend_from_slice+0x90>
  90:	9801      	ldr	r0, [sp, #4]
  92:	2801      	cmp	r0, #1
  94:	d001      	beq.n	9a <heapless::vec::<impl heapless::i::Vec<generic_array::GenericArray<T,N>>>::extend_from_slice+0x9a>
  96:	e7ff      	b.n	98 <heapless::vec::<impl heapless::i::Vec<generic_array::GenericArray<T,N>>>::extend_from_slice+0x98>
/Users/Luppy/.cargo/registry/src/github.com-1ecc6299db9ec823/heapless-0.5.1/src/vec.rs:73
    }
  98:	defe      	udf	#254	; 0xfe
/Users/Luppy/.cargo/registry/src/github.com-1ecc6299db9ec823/heapless-0.5.1/src/vec.rs:66
            for elem in other {
  9a:	9813      	ldr	r0, [sp, #76]	; 0x4c
  9c:	9014      	str	r0, [sp, #80]	; 0x50
  9e:	9814      	ldr	r0, [sp, #80]	; 0x50
  a0:	9012      	str	r0, [sp, #72]	; 0x48
  a2:	9812      	ldr	r0, [sp, #72]	; 0x48
  a4:	9015      	str	r0, [sp, #84]	; 0x54
/Users/Luppy/.cargo/registry/src/github.com-1ecc6299db9ec823/heapless-0.5.1/src/vec.rs:68
                    self.push_unchecked(elem.clone());
  a6:	980b      	ldr	r0, [sp, #44]	; 0x2c
  a8:	9915      	ldr	r1, [sp, #84]	; 0x54
  aa:	aa16      	add	r2, sp, #88	; 0x58
  ac:	9000      	str	r0, [sp, #0]
  ae:	4610      	mov	r0, r2
  b0:	f7ff fffe 	bl	0 <core::clone::Clone::clone>
  b4:	e003      	b.n	be <heapless::vec::<impl heapless::i::Vec<generic_array::GenericArray<T,N>>>::extend_from_slice+0xbe>
  b6:	2000      	movs	r0, #0
/Users/Luppy/.cargo/registry/src/github.com-1ecc6299db9ec823/heapless-0.5.1/src/vec.rs:71
            Ok(())
  b8:	f88d 003b 	strb.w	r0, [sp, #59]	; 0x3b
/Users/Luppy/.cargo/registry/src/github.com-1ecc6299db9ec823/heapless-0.5.1/src/vec.rs:62
        if self.len + other.len() > self.capacity() {
  bc:	e005      	b.n	ca <heapless::vec::<impl heapless::i::Vec<generic_array::GenericArray<T,N>>>::extend_from_slice+0xca>
  be:	a916      	add	r1, sp, #88	; 0x58
/Users/Luppy/.cargo/registry/src/github.com-1ecc6299db9ec823/heapless-0.5.1/src/vec.rs:68
                    self.push_unchecked(elem.clone());
  c0:	9800      	ldr	r0, [sp, #0]
  c2:	f7ff fffe 	bl	0 <heapless::vec::<impl heapless::i::Vec<generic_array::GenericArray<T,N>>>::extend_from_slice>
  c6:	e7ff      	b.n	c8 <heapless::vec::<impl heapless::i::Vec<generic_array::GenericArray<T,N>>>::extend_from_slice+0xc8>
/Users/Luppy/.cargo/registry/src/github.com-1ecc6299db9ec823/heapless-0.5.1/src/vec.rs:66
            for elem in other {
  c8:	e7d4      	b.n	74 <heapless::vec::<impl heapless::i::Vec<generic_array::GenericArray<T,N>>>::extend_from_slice+0x74>
/Users/Luppy/.cargo/registry/src/github.com-1ecc6299db9ec823/heapless-0.5.1/src/vec.rs:73
    }
  ca:	f89d 003b 	ldrb.w	r0, [sp, #59]	; 0x3b
  ce:	b01a      	add	sp, #104	; 0x68
  d0:	bd80      	pop	{r7, pc}
/Users/Luppy/.cargo/registry/src/github.com-1ecc6299db9ec823/heapless-0.5.1/src/vec.rs:62
        if self.len + other.len() > self.capacity() {
  d2:	f240 0000 	movw	r0, #0
  d6:	f2c0 0000 	movt	r0, #0
  da:	f7ff fffe 	bl	0 <core::panicking::panic>
  de:	defe      	udf	#254	; 0xfe

Disassembly of section .text._ZN8heapless3vec82_$LT$impl$u20$heapless..i..Vec$LT$generic_array..GenericArray$LT$T$C$N$GT$$GT$$GT$4push17h131d2a357101b751E:

00000000 <heapless::vec::<impl heapless::i::Vec<generic_array::GenericArray<T,N>>>::push>:
_ZN8heapless3vec82_$LT$impl$u20$heapless..i..Vec$LT$generic_array..GenericArray$LT$T$C$N$GT$$GT$$GT$4push17h131d2a357101b751E():
/Users/Luppy/.cargo/registry/src/github.com-1ecc6299db9ec823/heapless-0.5.1/src/vec.rs:86
    pub(crate) fn push(&mut self, item: T) -> Result<(), T> {
   0:	b5b0      	push	{r4, r5, r7, lr}
   2:	b098      	sub	sp, #96	; 0x60
   4:	460b      	mov	r3, r1
   6:	9105      	str	r1, [sp, #20]
/Users/Luppy/.cargo/registry/src/github.com-1ecc6299db9ec823/heapless-0.5.1/src/vec.rs:87
        if self.len < self.capacity() {
   8:	9905      	ldr	r1, [sp, #20]
   a:	f8d1 c040 	ldr.w	ip, [r1, #64]	; 0x40
   e:	9004      	str	r0, [sp, #16]
  10:	4608      	mov	r0, r1
  12:	9203      	str	r2, [sp, #12]
  14:	9302      	str	r3, [sp, #8]
  16:	f8cd c004 	str.w	ip, [sp, #4]
  1a:	f7ff fffe 	bl	0 <heapless::vec::<impl heapless::i::Vec<generic_array::GenericArray<T,N>>>::push>
  1e:	9000      	str	r0, [sp, #0]
  20:	e7ff      	b.n	22 <heapless::vec::<impl heapless::i::Vec<generic_array::GenericArray<T,N>>>::push+0x22>
  22:	9801      	ldr	r0, [sp, #4]
  24:	9900      	ldr	r1, [sp, #0]
  26:	4288      	cmp	r0, r1
  28:	d21d      	bcs.n	66 <heapless::vec::<impl heapless::i::Vec<generic_array::GenericArray<T,N>>>::push+0x66>
  2a:	e7ff      	b.n	2c <heapless::vec::<impl heapless::i::Vec<generic_array::GenericArray<T,N>>>::push+0x2c>
/Users/Luppy/.cargo/registry/src/github.com-1ecc6299db9ec823/heapless-0.5.1/src/vec.rs:88
            unsafe { self.push_unchecked(item) }
  2c:	9805      	ldr	r0, [sp, #20]
  2e:	a906      	add	r1, sp, #24
  30:	460a      	mov	r2, r1
  32:	9b03      	ldr	r3, [sp, #12]
  34:	e8b3 5030 	ldmia.w	r3!, {r4, r5, ip, lr}
  38:	e8a2 5030 	stmia.w	r2!, {r4, r5, ip, lr}
  3c:	e893 5030 	ldmia.w	r3, {r4, r5, ip, lr}
  40:	e882 5030 	stmia.w	r2, {r4, r5, ip, lr}
  44:	f7ff fffe 	bl	0 <heapless::vec::<impl heapless::i::Vec<generic_array::GenericArray<T,N>>>::push>
  48:	e7ff      	b.n	4a <heapless::vec::<impl heapless::i::Vec<generic_array::GenericArray<T,N>>>::push+0x4a>
  4a:	2000      	movs	r0, #0
/Users/Luppy/.cargo/registry/src/github.com-1ecc6299db9ec823/heapless-0.5.1/src/vec.rs:89
            Ok(())
  4c:	9904      	ldr	r1, [sp, #16]
  4e:	61c8      	str	r0, [r1, #28]
  50:	6188      	str	r0, [r1, #24]
  52:	6148      	str	r0, [r1, #20]
  54:	6108      	str	r0, [r1, #16]
  56:	60c8      	str	r0, [r1, #12]
  58:	6088      	str	r0, [r1, #8]
  5a:	6048      	str	r0, [r1, #4]
  5c:	6008      	str	r0, [r1, #0]
  5e:	6048      	str	r0, [r1, #4]
  60:	2002      	movs	r0, #2
  62:	6008      	str	r0, [r1, #0]
/Users/Luppy/.cargo/registry/src/github.com-1ecc6299db9ec823/heapless-0.5.1/src/vec.rs:87
        if self.len < self.capacity() {
  64:	e014      	b.n	90 <heapless::vec::<impl heapless::i::Vec<generic_array::GenericArray<T,N>>>::push+0x90>
  66:	a810      	add	r0, sp, #64	; 0x40
/Users/Luppy/.cargo/registry/src/github.com-1ecc6299db9ec823/heapless-0.5.1/src/vec.rs:91
            Err(item)
  68:	4601      	mov	r1, r0
  6a:	9a03      	ldr	r2, [sp, #12]
  6c:	e8b2 5018 	ldmia.w	r2!, {r3, r4, ip, lr}
  70:	e8a1 5018 	stmia.w	r1!, {r3, r4, ip, lr}
  74:	e892 5018 	ldmia.w	r2, {r3, r4, ip, lr}
  78:	e881 5018 	stmia.w	r1, {r3, r4, ip, lr}
  7c:	9904      	ldr	r1, [sp, #16]
  7e:	e8b0 500c 	ldmia.w	r0!, {r2, r3, ip, lr}
  82:	e8a1 500c 	stmia.w	r1!, {r2, r3, ip, lr}
  86:	e890 500c 	ldmia.w	r0, {r2, r3, ip, lr}
  8a:	e881 500c 	stmia.w	r1, {r2, r3, ip, lr}
/Users/Luppy/.cargo/registry/src/github.com-1ecc6299db9ec823/heapless-0.5.1/src/vec.rs:87
        if self.len < self.capacity() {
  8e:	e7ff      	b.n	90 <heapless::vec::<impl heapless::i::Vec<generic_array::GenericArray<T,N>>>::push+0x90>
/Users/Luppy/.cargo/registry/src/github.com-1ecc6299db9ec823/heapless-0.5.1/src/vec.rs:93
    }
  90:	b018      	add	sp, #96	; 0x60
  92:	bdb0      	pop	{r4, r5, r7, pc}

Disassembly of section .text._ZN8heapless3vec82_$LT$impl$u20$heapless..i..Vec$LT$generic_array..GenericArray$LT$T$C$N$GT$$GT$$GT$4push17h24394f2cbaf0d94dE:

00000000 <heapless::vec::<impl heapless::i::Vec<generic_array::GenericArray<T,N>>>::push>:
_ZN8heapless3vec82_$LT$impl$u20$heapless..i..Vec$LT$generic_array..GenericArray$LT$T$C$N$GT$$GT$$GT$4push17h24394f2cbaf0d94dE():
/Users/Luppy/.cargo/registry/src/github.com-1ecc6299db9ec823/heapless-0.5.1/src/vec.rs:86
    pub(crate) fn push(&mut self, item: T) -> Result<(), T> {
   0:	b580      	push	{r7, lr}
   2:	b088      	sub	sp, #32
   4:	460a      	mov	r2, r1
   6:	4603      	mov	r3, r0
   8:	9004      	str	r0, [sp, #16]
   a:	f88d 1017 	strb.w	r1, [sp, #23]
/Users/Luppy/.cargo/registry/src/github.com-1ecc6299db9ec823/heapless-0.5.1/src/vec.rs:87
        if self.len < self.capacity() {
   e:	9804      	ldr	r0, [sp, #16]
  10:	6801      	ldr	r1, [r0, #0]
  12:	9203      	str	r2, [sp, #12]
  14:	9302      	str	r3, [sp, #8]
  16:	9101      	str	r1, [sp, #4]
  18:	f7ff fffe 	bl	0 <heapless::vec::<impl heapless::i::Vec<generic_array::GenericArray<T,N>>>::capacity>
  1c:	9000      	str	r0, [sp, #0]
  1e:	e7ff      	b.n	20 <heapless::vec::<impl heapless::i::Vec<generic_array::GenericArray<T,N>>>::push+0x20>
  20:	9801      	ldr	r0, [sp, #4]
  22:	9900      	ldr	r1, [sp, #0]
  24:	4288      	cmp	r0, r1
  26:	d20a      	bcs.n	3e <heapless::vec::<impl heapless::i::Vec<generic_array::GenericArray<T,N>>>::push+0x3e>
  28:	e7ff      	b.n	2a <heapless::vec::<impl heapless::i::Vec<generic_array::GenericArray<T,N>>>::push+0x2a>
/Users/Luppy/.cargo/registry/src/github.com-1ecc6299db9ec823/heapless-0.5.1/src/vec.rs:88
            unsafe { self.push_unchecked(item) }
  2a:	9804      	ldr	r0, [sp, #16]
  2c:	f89d 1017 	ldrb.w	r1, [sp, #23]
  30:	f7ff fffe 	bl	0 <heapless::vec::<impl heapless::i::Vec<generic_array::GenericArray<T,N>>>::push_unchecked>
  34:	e7ff      	b.n	36 <heapless::vec::<impl heapless::i::Vec<generic_array::GenericArray<T,N>>>::push+0x36>
  36:	2000      	movs	r0, #0
/Users/Luppy/.cargo/registry/src/github.com-1ecc6299db9ec823/heapless-0.5.1/src/vec.rs:89
            Ok(())
  38:	f88d 0018 	strb.w	r0, [sp, #24]
/Users/Luppy/.cargo/registry/src/github.com-1ecc6299db9ec823/heapless-0.5.1/src/vec.rs:87
        if self.len < self.capacity() {
  3c:	e007      	b.n	4e <heapless::vec::<impl heapless::i::Vec<generic_array::GenericArray<T,N>>>::push+0x4e>
/Users/Luppy/.cargo/registry/src/github.com-1ecc6299db9ec823/heapless-0.5.1/src/vec.rs:91
            Err(item)
  3e:	f89d 0017 	ldrb.w	r0, [sp, #23]
  42:	f88d 0019 	strb.w	r0, [sp, #25]
  46:	2001      	movs	r0, #1
  48:	f88d 0018 	strb.w	r0, [sp, #24]
/Users/Luppy/.cargo/registry/src/github.com-1ecc6299db9ec823/heapless-0.5.1/src/vec.rs:87
        if self.len < self.capacity() {
  4c:	e7ff      	b.n	4e <heapless::vec::<impl heapless::i::Vec<generic_array::GenericArray<T,N>>>::push+0x4e>
/Users/Luppy/.cargo/registry/src/github.com-1ecc6299db9ec823/heapless-0.5.1/src/vec.rs:93
    }
  4e:	f89d 0018 	ldrb.w	r0, [sp, #24]
  52:	f89d 1019 	ldrb.w	r1, [sp, #25]
  56:	b008      	add	sp, #32
  58:	bd80      	pop	{r7, pc}

Disassembly of section .text._ZN8heapless3vec82_$LT$impl$u20$heapless..i..Vec$LT$generic_array..GenericArray$LT$T$C$N$GT$$GT$$GT$4push17h4159c21626dd8039E:

00000000 <heapless::vec::<impl heapless::i::Vec<generic_array::GenericArray<T,N>>>::push>:
_ZN8heapless3vec82_$LT$impl$u20$heapless..i..Vec$LT$generic_array..GenericArray$LT$T$C$N$GT$$GT$$GT$4push17h4159c21626dd8039E():
/Users/Luppy/.cargo/registry/src/github.com-1ecc6299db9ec823/heapless-0.5.1/src/vec.rs:86
    pub(crate) fn push(&mut self, item: T) -> Result<(), T> {
   0:	b580      	push	{r7, lr}
   2:	b08e      	sub	sp, #56	; 0x38
   4:	460b      	mov	r3, r1
   6:	9106      	str	r1, [sp, #24]
/Users/Luppy/.cargo/registry/src/github.com-1ecc6299db9ec823/heapless-0.5.1/src/vec.rs:87
        if self.len < self.capacity() {
   8:	9906      	ldr	r1, [sp, #24]
   a:	f8d1 c018 	ldr.w	ip, [r1, #24]
   e:	9005      	str	r0, [sp, #20]
  10:	4608      	mov	r0, r1
  12:	9204      	str	r2, [sp, #16]
  14:	9303      	str	r3, [sp, #12]
  16:	f8cd c008 	str.w	ip, [sp, #8]
  1a:	f7ff fffe 	bl	0 <heapless::vec::<impl heapless::i::Vec<generic_array::GenericArray<T,N>>>::push>
  1e:	9001      	str	r0, [sp, #4]
  20:	e7ff      	b.n	22 <heapless::vec::<impl heapless::i::Vec<generic_array::GenericArray<T,N>>>::push+0x22>
  22:	9802      	ldr	r0, [sp, #8]
  24:	9901      	ldr	r1, [sp, #4]
  26:	4288      	cmp	r0, r1
  28:	d215      	bcs.n	56 <heapless::vec::<impl heapless::i::Vec<generic_array::GenericArray<T,N>>>::push+0x56>
  2a:	e7ff      	b.n	2c <heapless::vec::<impl heapless::i::Vec<generic_array::GenericArray<T,N>>>::push+0x2c>
/Users/Luppy/.cargo/registry/src/github.com-1ecc6299db9ec823/heapless-0.5.1/src/vec.rs:88
            unsafe { self.push_unchecked(item) }
  2c:	9806      	ldr	r0, [sp, #24]
  2e:	9904      	ldr	r1, [sp, #16]
  30:	680a      	ldr	r2, [r1, #0]
  32:	684b      	ldr	r3, [r1, #4]
  34:	f8d1 c008 	ldr.w	ip, [r1, #8]
  38:	f8cd c024 	str.w	ip, [sp, #36]	; 0x24
  3c:	9308      	str	r3, [sp, #32]
  3e:	9207      	str	r2, [sp, #28]
  40:	a907      	add	r1, sp, #28
  42:	f7ff fffe 	bl	0 <heapless::vec::<impl heapless::i::Vec<generic_array::GenericArray<T,N>>>::push>
  46:	e7ff      	b.n	48 <heapless::vec::<impl heapless::i::Vec<generic_array::GenericArray<T,N>>>::push+0x48>
  48:	2000      	movs	r0, #0
/Users/Luppy/.cargo/registry/src/github.com-1ecc6299db9ec823/heapless-0.5.1/src/vec.rs:89
            Ok(())
  4a:	9905      	ldr	r1, [sp, #20]
  4c:	6088      	str	r0, [r1, #8]
  4e:	6048      	str	r0, [r1, #4]
  50:	6008      	str	r0, [r1, #0]
  52:	6008      	str	r0, [r1, #0]
/Users/Luppy/.cargo/registry/src/github.com-1ecc6299db9ec823/heapless-0.5.1/src/vec.rs:87
        if self.len < self.capacity() {
  54:	e012      	b.n	7c <heapless::vec::<impl heapless::i::Vec<generic_array::GenericArray<T,N>>>::push+0x7c>
/Users/Luppy/.cargo/registry/src/github.com-1ecc6299db9ec823/heapless-0.5.1/src/vec.rs:91
            Err(item)
  56:	9804      	ldr	r0, [sp, #16]
  58:	6801      	ldr	r1, [r0, #0]
  5a:	6842      	ldr	r2, [r0, #4]
  5c:	6883      	ldr	r3, [r0, #8]
  5e:	930d      	str	r3, [sp, #52]	; 0x34
  60:	920c      	str	r2, [sp, #48]	; 0x30
  62:	910b      	str	r1, [sp, #44]	; 0x2c
  64:	990b      	ldr	r1, [sp, #44]	; 0x2c
  66:	9a0c      	ldr	r2, [sp, #48]	; 0x30
  68:	9b0d      	ldr	r3, [sp, #52]	; 0x34
  6a:	f8dd c014 	ldr.w	ip, [sp, #20]
  6e:	f8cc 3008 	str.w	r3, [ip, #8]
  72:	f8cc 2004 	str.w	r2, [ip, #4]
  76:	f8cc 1000 	str.w	r1, [ip]
/Users/Luppy/.cargo/registry/src/github.com-1ecc6299db9ec823/heapless-0.5.1/src/vec.rs:87
        if self.len < self.capacity() {
  7a:	e7ff      	b.n	7c <heapless::vec::<impl heapless::i::Vec<generic_array::GenericArray<T,N>>>::push+0x7c>
/Users/Luppy/.cargo/registry/src/github.com-1ecc6299db9ec823/heapless-0.5.1/src/vec.rs:93
    }
  7c:	b00e      	add	sp, #56	; 0x38
  7e:	bd80      	pop	{r7, pc}

Disassembly of section .text._ZN8heapless3vec82_$LT$impl$u20$heapless..i..Vec$LT$generic_array..GenericArray$LT$T$C$N$GT$$GT$$GT$4push17h8d803e7f2e0b1068E:

00000000 <heapless::vec::<impl heapless::i::Vec<generic_array::GenericArray<T,N>>>::push>:
_ZN8heapless3vec82_$LT$impl$u20$heapless..i..Vec$LT$generic_array..GenericArray$LT$T$C$N$GT$$GT$$GT$4push17h8d803e7f2e0b1068E():
/Users/Luppy/.cargo/registry/src/github.com-1ecc6299db9ec823/heapless-0.5.1/src/vec.rs:86
    pub(crate) fn push(&mut self, item: T) -> Result<(), T> {
   0:	b5f0      	push	{r4, r5, r6, r7, lr}
   2:	b0a9      	sub	sp, #164	; 0xa4
   4:	460b      	mov	r3, r1
   6:	9105      	str	r1, [sp, #20]
/Users/Luppy/.cargo/registry/src/github.com-1ecc6299db9ec823/heapless-0.5.1/src/vec.rs:87
        if self.len < self.capacity() {
   8:	9905      	ldr	r1, [sp, #20]
   a:	f8d1 c200 	ldr.w	ip, [r1, #512]	; 0x200
   e:	9004      	str	r0, [sp, #16]
  10:	4608      	mov	r0, r1
  12:	9203      	str	r2, [sp, #12]
  14:	9302      	str	r3, [sp, #8]
  16:	f8cd c004 	str.w	ip, [sp, #4]
  1a:	f7ff fffe 	bl	0 <heapless::vec::<impl heapless::i::Vec<generic_array::GenericArray<T,N>>>::push>
  1e:	9000      	str	r0, [sp, #0]
  20:	e7ff      	b.n	22 <heapless::vec::<impl heapless::i::Vec<generic_array::GenericArray<T,N>>>::push+0x22>
  22:	9801      	ldr	r0, [sp, #4]
  24:	9900      	ldr	r1, [sp, #0]
  26:	4288      	cmp	r0, r1
  28:	d21b      	bcs.n	62 <heapless::vec::<impl heapless::i::Vec<generic_array::GenericArray<T,N>>>::push+0x62>
  2a:	e7ff      	b.n	2c <heapless::vec::<impl heapless::i::Vec<generic_array::GenericArray<T,N>>>::push+0x2c>
/Users/Luppy/.cargo/registry/src/github.com-1ecc6299db9ec823/heapless-0.5.1/src/vec.rs:88
            unsafe { self.push_unchecked(item) }
  2c:	9805      	ldr	r0, [sp, #20]
  2e:	a906      	add	r1, sp, #24
  30:	460a      	mov	r2, r1
  32:	9b03      	ldr	r3, [sp, #12]
  34:	e8b3 5070 	ldmia.w	r3!, {r4, r5, r6, ip, lr}
  38:	e8a2 5070 	stmia.w	r2!, {r4, r5, r6, ip, lr}
  3c:	e8b3 5070 	ldmia.w	r3!, {r4, r5, r6, ip, lr}
  40:	e8a2 5070 	stmia.w	r2!, {r4, r5, r6, ip, lr}
  44:	e893 50f0 	ldmia.w	r3, {r4, r5, r6, r7, ip, lr}
  48:	e882 50f0 	stmia.w	r2, {r4, r5, r6, r7, ip, lr}
  4c:	f7ff fffe 	bl	0 <heapless::vec::<impl heapless::i::Vec<generic_array::GenericArray<T,N>>>::push>
  50:	e7ff      	b.n	52 <heapless::vec::<impl heapless::i::Vec<generic_array::GenericArray<T,N>>>::push+0x52>
  52:	2140      	movs	r1, #64	; 0x40
/Users/Luppy/.cargo/registry/src/github.com-1ecc6299db9ec823/heapless-0.5.1/src/vec.rs:89
            Ok(())
  54:	9804      	ldr	r0, [sp, #16]
  56:	f7ff fffe 	bl	0 <__aeabi_memclr8>
  5a:	2002      	movs	r0, #2
  5c:	9904      	ldr	r1, [sp, #16]
  5e:	6288      	str	r0, [r1, #40]	; 0x28
/Users/Luppy/.cargo/registry/src/github.com-1ecc6299db9ec823/heapless-0.5.1/src/vec.rs:87
        if self.len < self.capacity() {
  60:	e01c      	b.n	9c <heapless::vec::<impl heapless::i::Vec<generic_array::GenericArray<T,N>>>::push+0x9c>
  62:	a818      	add	r0, sp, #96	; 0x60
/Users/Luppy/.cargo/registry/src/github.com-1ecc6299db9ec823/heapless-0.5.1/src/vec.rs:91
            Err(item)
  64:	4601      	mov	r1, r0
  66:	9a03      	ldr	r2, [sp, #12]
  68:	e8b2 5038 	ldmia.w	r2!, {r3, r4, r5, ip, lr}
  6c:	e8a1 5038 	stmia.w	r1!, {r3, r4, r5, ip, lr}
  70:	e8b2 5038 	ldmia.w	r2!, {r3, r4, r5, ip, lr}
  74:	e8a1 5038 	stmia.w	r1!, {r3, r4, r5, ip, lr}
  78:	e892 5078 	ldmia.w	r2, {r3, r4, r5, r6, ip, lr}
  7c:	e881 5078 	stmia.w	r1, {r3, r4, r5, r6, ip, lr}
  80:	9904      	ldr	r1, [sp, #16]
  82:	e8b0 501c 	ldmia.w	r0!, {r2, r3, r4, ip, lr}
  86:	e8a1 501c 	stmia.w	r1!, {r2, r3, r4, ip, lr}
  8a:	e8b0 501c 	ldmia.w	r0!, {r2, r3, r4, ip, lr}
  8e:	e8a1 501c 	stmia.w	r1!, {r2, r3, r4, ip, lr}
  92:	e890 503c 	ldmia.w	r0, {r2, r3, r4, r5, ip, lr}
  96:	e881 503c 	stmia.w	r1, {r2, r3, r4, r5, ip, lr}
/Users/Luppy/.cargo/registry/src/github.com-1ecc6299db9ec823/heapless-0.5.1/src/vec.rs:87
        if self.len < self.capacity() {
  9a:	e7ff      	b.n	9c <heapless::vec::<impl heapless::i::Vec<generic_array::GenericArray<T,N>>>::push+0x9c>
/Users/Luppy/.cargo/registry/src/github.com-1ecc6299db9ec823/heapless-0.5.1/src/vec.rs:93
    }
  9c:	b029      	add	sp, #164	; 0xa4
  9e:	bdf0      	pop	{r4, r5, r6, r7, pc}

Disassembly of section .text._ZN8heapless3vec82_$LT$impl$u20$heapless..i..Vec$LT$generic_array..GenericArray$LT$T$C$N$GT$$GT$$GT$5clone17h01e1ad5e0b9e812cE:

00000000 <heapless::vec::<impl heapless::i::Vec<generic_array::GenericArray<T,N>>>::clone>:
_ZN8heapless3vec82_$LT$impl$u20$heapless..i..Vec$LT$generic_array..GenericArray$LT$T$C$N$GT$$GT$$GT$5clone17h01e1ad5e0b9e812cE():
/Users/Luppy/.cargo/registry/src/github.com-1ecc6299db9ec823/heapless-0.5.1/src/vec.rs:40
    pub(crate) fn clone(&self) -> Self
   0:	b580      	push	{r7, lr}
   2:	b08e      	sub	sp, #56	; 0x38
   4:	460a      	mov	r2, r1
   6:	9106      	str	r1, [sp, #24]
   8:	a907      	add	r1, sp, #28
/Users/Luppy/.cargo/registry/src/github.com-1ecc6299db9ec823/heapless-0.5.1/src/vec.rs:44
        let mut new = Self::new();
   a:	9005      	str	r0, [sp, #20]
   c:	4608      	mov	r0, r1
   e:	9204      	str	r2, [sp, #16]
  10:	f7ff fffe 	bl	0 <heapless::vec::<impl heapless::i::Vec<generic_array::GenericArray<T,N>>>::clone>
  14:	e7ff      	b.n	16 <heapless::vec::<impl heapless::i::Vec<generic_array::GenericArray<T,N>>>::clone+0x16>
/Users/Luppy/.cargo/registry/src/github.com-1ecc6299db9ec823/heapless-0.5.1/src/vec.rs:45
        new.extend_from_slice(self.as_slice()).unwrap();
  16:	9806      	ldr	r0, [sp, #24]
  18:	f7ff fffe 	bl	0 <heapless::vec::<impl heapless::i::Vec<generic_array::GenericArray<T,N>>>::clone>
  1c:	9003      	str	r0, [sp, #12]
  1e:	9102      	str	r1, [sp, #8]
  20:	e7ff      	b.n	22 <heapless::vec::<impl heapless::i::Vec<generic_array::GenericArray<T,N>>>::clone+0x22>
  22:	a807      	add	r0, sp, #28
  24:	9903      	ldr	r1, [sp, #12]
  26:	9a02      	ldr	r2, [sp, #8]
  28:	f7ff fffe 	bl	0 <heapless::vec::<impl heapless::i::Vec<generic_array::GenericArray<T,N>>>::clone>
  2c:	9001      	str	r0, [sp, #4]
  2e:	e7ff      	b.n	30 <heapless::vec::<impl heapless::i::Vec<generic_array::GenericArray<T,N>>>::clone+0x30>
  30:	9801      	ldr	r0, [sp, #4]
  32:	f000 0001 	and.w	r0, r0, #1
  36:	f7ff fffe 	bl	0 <core::result::Result<T,E>::unwrap>
  3a:	e7ff      	b.n	3c <heapless::vec::<impl heapless::i::Vec<generic_array::GenericArray<T,N>>>::clone+0x3c>
  3c:	a807      	add	r0, sp, #28
/Users/Luppy/.cargo/registry/src/github.com-1ecc6299db9ec823/heapless-0.5.1/src/vec.rs:46
        new
  3e:	9905      	ldr	r1, [sp, #20]
  40:	e8b0 100c 	ldmia.w	r0!, {r2, r3, ip}
  44:	e8a1 100c 	stmia.w	r1!, {r2, r3, ip}
  48:	e890 500c 	ldmia.w	r0, {r2, r3, ip, lr}
  4c:	e881 500c 	stmia.w	r1, {r2, r3, ip, lr}
/Users/Luppy/.cargo/registry/src/github.com-1ecc6299db9ec823/heapless-0.5.1/src/vec.rs:47
    }
  50:	b00e      	add	sp, #56	; 0x38
  52:	bd80      	pop	{r7, pc}

Disassembly of section .text._ZN8heapless3vec82_$LT$impl$u20$heapless..i..Vec$LT$generic_array..GenericArray$LT$T$C$N$GT$$GT$$GT$5clone17he06a7de6b801324fE:

00000000 <heapless::vec::<impl heapless::i::Vec<generic_array::GenericArray<T,N>>>::clone>:
_ZN8heapless3vec82_$LT$impl$u20$heapless..i..Vec$LT$generic_array..GenericArray$LT$T$C$N$GT$$GT$$GT$5clone17he06a7de6b801324fE():
/Users/Luppy/.cargo/registry/src/github.com-1ecc6299db9ec823/heapless-0.5.1/src/vec.rs:40
    pub(crate) fn clone(&self) -> Self
   0:	b5b0      	push	{r4, r5, r7, lr}
   2:	b08c      	sub	sp, #48	; 0x30
   4:	460a      	mov	r2, r1
   6:	9105      	str	r1, [sp, #20]
   8:	a906      	add	r1, sp, #24
/Users/Luppy/.cargo/registry/src/github.com-1ecc6299db9ec823/heapless-0.5.1/src/vec.rs:44
        let mut new = Self::new();
   a:	9004      	str	r0, [sp, #16]
   c:	4608      	mov	r0, r1
   e:	9203      	str	r2, [sp, #12]
  10:	f7ff fffe 	bl	0 <heapless::vec::<impl heapless::i::Vec<A>>::new>
  14:	e7ff      	b.n	16 <heapless::vec::<impl heapless::i::Vec<generic_array::GenericArray<T,N>>>::clone+0x16>
/Users/Luppy/.cargo/registry/src/github.com-1ecc6299db9ec823/heapless-0.5.1/src/vec.rs:45
        new.extend_from_slice(self.as_slice()).unwrap();
  16:	9805      	ldr	r0, [sp, #20]
  18:	f7ff fffe 	bl	0 <heapless::vec::<impl heapless::i::Vec<generic_array::GenericArray<T,N>>>::as_slice>
  1c:	9002      	str	r0, [sp, #8]
  1e:	9101      	str	r1, [sp, #4]
  20:	e7ff      	b.n	22 <heapless::vec::<impl heapless::i::Vec<generic_array::GenericArray<T,N>>>::clone+0x22>
  22:	a806      	add	r0, sp, #24
  24:	9902      	ldr	r1, [sp, #8]
  26:	9a01      	ldr	r2, [sp, #4]
  28:	f7ff fffe 	bl	0 <heapless::vec::<impl heapless::i::Vec<generic_array::GenericArray<T,N>>>::extend_from_slice>
  2c:	9000      	str	r0, [sp, #0]
  2e:	e7ff      	b.n	30 <heapless::vec::<impl heapless::i::Vec<generic_array::GenericArray<T,N>>>::clone+0x30>
  30:	9800      	ldr	r0, [sp, #0]
  32:	f000 0001 	and.w	r0, r0, #1
  36:	f7ff fffe 	bl	0 <core::result::Result<T,E>::unwrap>
  3a:	e7ff      	b.n	3c <heapless::vec::<impl heapless::i::Vec<generic_array::GenericArray<T,N>>>::clone+0x3c>
  3c:	a806      	add	r0, sp, #24
/Users/Luppy/.cargo/registry/src/github.com-1ecc6299db9ec823/heapless-0.5.1/src/vec.rs:46
        new
  3e:	9904      	ldr	r1, [sp, #16]
  40:	e890 503c 	ldmia.w	r0, {r2, r3, r4, r5, ip, lr}
  44:	e881 503c 	stmia.w	r1, {r2, r3, r4, r5, ip, lr}
/Users/Luppy/.cargo/registry/src/github.com-1ecc6299db9ec823/heapless-0.5.1/src/vec.rs:47
    }
  48:	b00c      	add	sp, #48	; 0x30
  4a:	bdb0      	pop	{r4, r5, r7, pc}

Disassembly of section .text._ZN8heapless3vec82_$LT$impl$u20$heapless..i..Vec$LT$generic_array..GenericArray$LT$T$C$N$GT$$GT$$GT$8as_slice17h69f4e9303ce44ff9E:

00000000 <heapless::vec::<impl heapless::i::Vec<generic_array::GenericArray<T,N>>>::as_slice>:
_ZN8heapless3vec82_$LT$impl$u20$heapless..i..Vec$LT$generic_array..GenericArray$LT$T$C$N$GT$$GT$$GT$8as_slice17h69f4e9303ce44ff9E():
/Users/Luppy/.cargo/registry/src/github.com-1ecc6299db9ec823/heapless-0.5.1/src/vec.rs:20
    pub(crate) fn as_slice(&self) -> &[T] {
   0:	b580      	push	{r7, lr}
   2:	b088      	sub	sp, #32
   4:	4601      	mov	r1, r0
   6:	9005      	str	r0, [sp, #20]
/Users/Luppy/.cargo/registry/src/github.com-1ecc6299db9ec823/heapless-0.5.1/src/vec.rs:23
        unsafe { slice::from_raw_parts(self.buffer.as_ptr() as *const T, self.len) }
   8:	9805      	ldr	r0, [sp, #20]
   a:	9006      	str	r0, [sp, #24]
_ZN4core3mem20MaybeUninit$LT$T$GT$6as_ptr17ha13870f20e0b0216E():
/rustc/50a0defd5a93523067ef239936cc2e0755220904/src/libcore/mem.rs:1215
   c:	9806      	ldr	r0, [sp, #24]
   e:	9007      	str	r0, [sp, #28]
_ZN76_$LT$core..mem..ManuallyDrop$LT$T$GT$$u20$as$u20$core..ops..deref..Deref$GT$5deref17h27b4eda8946ef862E():
/rustc/50a0defd5a93523067ef239936cc2e0755220904/src/libcore/mem.rs:879
  10:	9807      	ldr	r0, [sp, #28]
_ZN8heapless3vec82_$LT$impl$u20$heapless..i..Vec$LT$generic_array..GenericArray$LT$T$C$N$GT$$GT$$GT$8as_slice17h69f4e9303ce44ff9E():
/Users/Luppy/.cargo/registry/src/github.com-1ecc6299db9ec823/heapless-0.5.1/src/vec.rs:23
  12:	9104      	str	r1, [sp, #16]
  14:	9003      	str	r0, [sp, #12]
  16:	e7ff      	b.n	18 <heapless::vec::<impl heapless::i::Vec<generic_array::GenericArray<T,N>>>::as_slice+0x18>
  18:	9805      	ldr	r0, [sp, #20]
  1a:	6c01      	ldr	r1, [r0, #64]	; 0x40
  1c:	9803      	ldr	r0, [sp, #12]
  1e:	f7ff fffe 	bl	0 <core::slice::from_raw_parts>
  22:	9002      	str	r0, [sp, #8]
  24:	9101      	str	r1, [sp, #4]
  26:	e7ff      	b.n	28 <heapless::vec::<impl heapless::i::Vec<generic_array::GenericArray<T,N>>>::as_slice+0x28>
/Users/Luppy/.cargo/registry/src/github.com-1ecc6299db9ec823/heapless-0.5.1/src/vec.rs:24
    }
  28:	9802      	ldr	r0, [sp, #8]
  2a:	9901      	ldr	r1, [sp, #4]
  2c:	b008      	add	sp, #32
  2e:	bd80      	pop	{r7, pc}

Disassembly of section .text._ZN8heapless3vec82_$LT$impl$u20$heapless..i..Vec$LT$generic_array..GenericArray$LT$T$C$N$GT$$GT$$GT$8as_slice17h82e1c78a17b80a88E:

00000000 <heapless::vec::<impl heapless::i::Vec<generic_array::GenericArray<T,N>>>::as_slice>:
_ZN8heapless3vec82_$LT$impl$u20$heapless..i..Vec$LT$generic_array..GenericArray$LT$T$C$N$GT$$GT$$GT$8as_slice17h82e1c78a17b80a88E():
/Users/Luppy/.cargo/registry/src/github.com-1ecc6299db9ec823/heapless-0.5.1/src/vec.rs:20
    pub(crate) fn as_slice(&self) -> &[T] {
   0:	b580      	push	{r7, lr}
   2:	b088      	sub	sp, #32
   4:	4601      	mov	r1, r0
   6:	9005      	str	r0, [sp, #20]
/Users/Luppy/.cargo/registry/src/github.com-1ecc6299db9ec823/heapless-0.5.1/src/vec.rs:23
        unsafe { slice::from_raw_parts(self.buffer.as_ptr() as *const T, self.len) }
   8:	9805      	ldr	r0, [sp, #20]
   a:	9006      	str	r0, [sp, #24]
_ZN4core3mem20MaybeUninit$LT$T$GT$6as_ptr17hc07fab61e3fa7f47E():
/rustc/50a0defd5a93523067ef239936cc2e0755220904/src/libcore/mem.rs:1215
   c:	9806      	ldr	r0, [sp, #24]
   e:	9007      	str	r0, [sp, #28]
_ZN76_$LT$core..mem..ManuallyDrop$LT$T$GT$$u20$as$u20$core..ops..deref..Deref$GT$5deref17h2874dc2b20021d49E():
/rustc/50a0defd5a93523067ef239936cc2e0755220904/src/libcore/mem.rs:879
  10:	9807      	ldr	r0, [sp, #28]
_ZN8heapless3vec82_$LT$impl$u20$heapless..i..Vec$LT$generic_array..GenericArray$LT$T$C$N$GT$$GT$$GT$8as_slice17h82e1c78a17b80a88E():
/Users/Luppy/.cargo/registry/src/github.com-1ecc6299db9ec823/heapless-0.5.1/src/vec.rs:23
  12:	9104      	str	r1, [sp, #16]
  14:	9003      	str	r0, [sp, #12]
  16:	e7ff      	b.n	18 <heapless::vec::<impl heapless::i::Vec<generic_array::GenericArray<T,N>>>::as_slice+0x18>
  18:	9805      	ldr	r0, [sp, #20]
  1a:	6981      	ldr	r1, [r0, #24]
  1c:	9803      	ldr	r0, [sp, #12]
  1e:	f7ff fffe 	bl	0 <core::slice::from_raw_parts>
  22:	9002      	str	r0, [sp, #8]
  24:	9101      	str	r1, [sp, #4]
  26:	e7ff      	b.n	28 <heapless::vec::<impl heapless::i::Vec<generic_array::GenericArray<T,N>>>::as_slice+0x28>
/Users/Luppy/.cargo/registry/src/github.com-1ecc6299db9ec823/heapless-0.5.1/src/vec.rs:24
    }
  28:	9802      	ldr	r0, [sp, #8]
  2a:	9901      	ldr	r1, [sp, #4]
  2c:	b008      	add	sp, #32
  2e:	bd80      	pop	{r7, pc}

Disassembly of section .text._ZN8heapless3vec82_$LT$impl$u20$heapless..i..Vec$LT$generic_array..GenericArray$LT$T$C$N$GT$$GT$$GT$8capacity17h29ce3cf0b66aa6bfE:

00000000 <heapless::vec::<impl heapless::i::Vec<generic_array::GenericArray<T,N>>>::capacity>:
_ZN8heapless3vec82_$LT$impl$u20$heapless..i..Vec$LT$generic_array..GenericArray$LT$T$C$N$GT$$GT$$GT$8capacity17h29ce3cf0b66aa6bfE():
/Users/Luppy/.cargo/registry/src/github.com-1ecc6299db9ec823/heapless-0.5.1/src/vec.rs:32
    pub(crate) fn capacity(&self) -> usize {
   0:	b580      	push	{r7, lr}
   2:	b084      	sub	sp, #16
   4:	4601      	mov	r1, r0
   6:	9003      	str	r0, [sp, #12]
/Users/Luppy/.cargo/registry/src/github.com-1ecc6299db9ec823/heapless-0.5.1/src/vec.rs:33
        N::to_usize()
   8:	9102      	str	r1, [sp, #8]
   a:	f7ff fffe 	bl	0 <<typenum::uint::UInt<U,B> as typenum::marker_traits::Unsigned>::to_usize>
   e:	9001      	str	r0, [sp, #4]
  10:	e7ff      	b.n	12 <heapless::vec::<impl heapless::i::Vec<generic_array::GenericArray<T,N>>>::capacity+0x12>
/Users/Luppy/.cargo/registry/src/github.com-1ecc6299db9ec823/heapless-0.5.1/src/vec.rs:34
    }
  12:	9801      	ldr	r0, [sp, #4]
  14:	b004      	add	sp, #16
  16:	bd80      	pop	{r7, pc}

Disassembly of section .text._ZN8heapless3vec82_$LT$impl$u20$heapless..i..Vec$LT$generic_array..GenericArray$LT$T$C$N$GT$$GT$$GT$8capacity17h2a23006220ec21e9E:

00000000 <heapless::vec::<impl heapless::i::Vec<generic_array::GenericArray<T,N>>>::capacity>:
_ZN8heapless3vec82_$LT$impl$u20$heapless..i..Vec$LT$generic_array..GenericArray$LT$T$C$N$GT$$GT$$GT$8capacity17h2a23006220ec21e9E():
/Users/Luppy/.cargo/registry/src/github.com-1ecc6299db9ec823/heapless-0.5.1/src/vec.rs:32
    pub(crate) fn capacity(&self) -> usize {
   0:	b580      	push	{r7, lr}
   2:	b084      	sub	sp, #16
   4:	4601      	mov	r1, r0
   6:	9003      	str	r0, [sp, #12]
/Users/Luppy/.cargo/registry/src/github.com-1ecc6299db9ec823/heapless-0.5.1/src/vec.rs:33
        N::to_usize()
   8:	9102      	str	r1, [sp, #8]
   a:	f7ff fffe 	bl	0 <<typenum::uint::UInt<U,B> as typenum::marker_traits::Unsigned>::to_usize>
   e:	9001      	str	r0, [sp, #4]
  10:	e7ff      	b.n	12 <heapless::vec::<impl heapless::i::Vec<generic_array::GenericArray<T,N>>>::capacity+0x12>
/Users/Luppy/.cargo/registry/src/github.com-1ecc6299db9ec823/heapless-0.5.1/src/vec.rs:34
    }
  12:	9801      	ldr	r0, [sp, #4]
  14:	b004      	add	sp, #16
  16:	bd80      	pop	{r7, pc}

Disassembly of section .text._ZN8heapless3vec82_$LT$impl$u20$heapless..i..Vec$LT$generic_array..GenericArray$LT$T$C$N$GT$$GT$$GT$8capacity17h4fe848cf61d6e1bdE:

00000000 <heapless::vec::<impl heapless::i::Vec<generic_array::GenericArray<T,N>>>::capacity>:
_ZN8heapless3vec82_$LT$impl$u20$heapless..i..Vec$LT$generic_array..GenericArray$LT$T$C$N$GT$$GT$$GT$8capacity17h4fe848cf61d6e1bdE():
/Users/Luppy/.cargo/registry/src/github.com-1ecc6299db9ec823/heapless-0.5.1/src/vec.rs:32
    pub(crate) fn capacity(&self) -> usize {
   0:	b580      	push	{r7, lr}
   2:	b084      	sub	sp, #16
   4:	4601      	mov	r1, r0
   6:	9003      	str	r0, [sp, #12]
/Users/Luppy/.cargo/registry/src/github.com-1ecc6299db9ec823/heapless-0.5.1/src/vec.rs:33
        N::to_usize()
   8:	9102      	str	r1, [sp, #8]
   a:	f7ff fffe 	bl	0 <<typenum::uint::UInt<U,B> as typenum::marker_traits::Unsigned>::to_usize>
   e:	9001      	str	r0, [sp, #4]
  10:	e7ff      	b.n	12 <heapless::vec::<impl heapless::i::Vec<generic_array::GenericArray<T,N>>>::capacity+0x12>
/Users/Luppy/.cargo/registry/src/github.com-1ecc6299db9ec823/heapless-0.5.1/src/vec.rs:34
    }
  12:	9801      	ldr	r0, [sp, #4]
  14:	b004      	add	sp, #16
  16:	bd80      	pop	{r7, pc}

app-e8778d9de5b9c761.499my7he7zu10zd3.rcgu.o:     file format elf32-littlearm

SYMBOL TABLE:
00000000 l    df *ABS*	00000000 499my7he7zu10zd3
000006ee l       .debug_str	00000000 
00000fb1 l       .debug_str	00000000 
00000fb7 l       .debug_str	00000000 
00000fbe l       .debug_str	00000000 
00000fc3 l       .debug_str	00000000 
00000fd0 l       .debug_str	00000000 
00000ffc l       .debug_str	00000000 
0000103a l       .debug_str	00000000 
00000000 l       .debug_str	00000000 
00000041 l       .debug_str	00000000 
00000055 l       .debug_str	00000000 
00000085 l       .debug_str	00000000 
0000008a l       .debug_str	00000000 
00000091 l       .debug_str	00000000 
00000094 l       .debug_str	00000000 
00000099 l       .debug_str	00000000 
0000009e l       .debug_str	00000000 
000000a5 l       .debug_str	00000000 
000000ab l       .debug_str	00000000 
000000b2 l       .debug_str	00000000 
000000b7 l       .debug_str	00000000 
000000c2 l       .debug_str	00000000 
000000cb l       .debug_str	00000000 
000000d0 l       .debug_str	00000000 
000000d7 l       .debug_str	00000000 
000000dc l       .debug_str	00000000 
000000e2 l       .debug_str	00000000 
000000ee l       .debug_str	00000000 
000000f4 l       .debug_str	00000000 
000000f9 l       .debug_str	00000000 
000000fc l       .debug_str	00000000 
00000100 l       .debug_str	00000000 
00000103 l       .debug_str	00000000 
00000106 l       .debug_str	00000000 
00000109 l       .debug_str	00000000 
0000010e l       .debug_str	00000000 
0000011a l       .debug_str	00000000 
0000011f l       .debug_str	00000000 
00000126 l       .debug_str	00000000 
00000130 l       .debug_str	00000000 
0000013b l       .debug_str	00000000 
00000148 l       .debug_str	00000000 
00000156 l       .debug_str	00000000 
00000160 l       .debug_str	00000000 
0000016e l       .debug_str	00000000 
00000178 l       .debug_str	00000000 
00000181 l       .debug_str	00000000 
00000185 l       .debug_str	00000000 
00000187 l       .debug_str	00000000 
0000018b l       .debug_str	00000000 
00000197 l       .debug_str	00000000 
0000019b l       .debug_str	00000000 
000001a1 l       .debug_str	00000000 
000001a4 l       .debug_str	00000000 
000001ae l       .debug_str	00000000 
000001b7 l       .debug_str	00000000 
000001c0 l       .debug_str	00000000 
000001c4 l       .debug_str	00000000 
000001c6 l       .debug_str	00000000 
000001cd l       .debug_str	00000000 
000001d1 l       .debug_str	00000000 
000001d8 l       .debug_str	00000000 
000001db l       .debug_str	00000000 
000001e1 l       .debug_str	00000000 
000001ef l       .debug_str	00000000 
000001f4 l       .debug_str	00000000 
000001fc l       .debug_str	00000000 
00000204 l       .debug_str	00000000 
0000020e l       .debug_str	00000000 
00000212 l       .debug_str	00000000 
00000219 l       .debug_str	00000000 
0000022a l       .debug_str	00000000 
0000022c l       .debug_str	00000000 
0000023b l       .debug_str	00000000 
0000023d l       .debug_str	00000000 
00000276 l       .debug_str	00000000 
0000027d l       .debug_str	00000000 
00000284 l       .debug_str	00000000 
00000295 l       .debug_str	00000000 
00000297 l       .debug_str	00000000 
000002d6 l       .debug_str	00000000 
000002de l       .debug_str	00000000 
00000311 l       .debug_str	00000000 
0000039c l       .debug_str	00000000 
00000473 l       .debug_str	00000000 
00000596 l       .debug_str	00000000 
0000059e l       .debug_str	00000000 
000005a3 l       .debug_str	00000000 
000005a9 l       .debug_str	00000000 
000005ad l       .debug_str	00000000 
000005b0 l       .debug_str	00000000 
000005d9 l       .debug_str	00000000 
0000060f l       .debug_str	00000000 
00000611 l       .debug_str	00000000 
0000063e l       .debug_str	00000000 
00000641 l       .debug_str	00000000 
00000691 l       .debug_str	00000000 
00000742 l       .debug_str	00000000 
000007b9 l       .debug_str	00000000 
0000083d l       .debug_str	00000000 
000008b8 l       .debug_str	00000000 
00000956 l       .debug_str	00000000 
00000a01 l       .debug_str	00000000 
00000aa3 l       .debug_str	00000000 
00000b89 l       .debug_str	00000000 
00000c8c l       .debug_str	00000000 
00000d8e l       .debug_str	00000000 
00000d92 l       .debug_str	00000000 
00000d98 l       .debug_str	00000000 
00000d9a l       .debug_str	00000000 
00000e94 l       .debug_str	00000000 
00000e96 l       .debug_str	00000000 
00000f73 l       .debug_str	00000000 
00000f7d l       .debug_str	00000000 
00000fac l       .debug_str	00000000 
00000000 l    d  .text._ZN5druid6window19Window$LT$T$C$W$GT$3new17h0b9be2cce058e2b0E	00000000 .text._ZN5druid6window19Window$LT$T$C$W$GT$3new17h0b9be2cce058e2b0E
00000000 l    d  .debug_loc	00000000 .debug_loc
00000000 l    d  .debug_abbrev	00000000 .debug_abbrev
00000000 l    d  .debug_info	00000000 .debug_info
00000000 l    d  .debug_frame	00000000 .debug_frame
00000000 l    d  .debug_line	00000000 .debug_line
00000000         *UND*	00000000 druid::WidgetPod<T,W>::new
00000000 g     F .text._ZN5druid6window19Window$LT$T$C$W$GT$3new17h0b9be2cce058e2b0E	0000006e druid::window::Window<T,W>::new
00000000         *UND*	00000000 __aeabi_memcpy8



Disassembly of section .text._ZN5druid6window19Window$LT$T$C$W$GT$3new17h0b9be2cce058e2b0E:

00000000 <druid::window::Window<T,W>::new>:
_ZN5druid6window19Window$LT$T$C$W$GT$3new17h0b9be2cce058e2b0E():
/Users/Luppy/mynewt/druid-embedded/druid/src/window.rs:54
    // delegate?
}

impl<T: Data + 'static, W: Widget<T> + 'static> Window<T, W> { ////
////impl<T: Data> Window<T> {
    pub fn new(
   0:	b580      	push	{r7, lr}
   2:	f5ad 6d90 	sub.w	sp, sp, #1152	; 0x480
/Users/Luppy/mynewt/druid-embedded/druid/src/window.rs:1
// Copyright 2019 The xi-editor Authors.
   6:	f50d 628d 	add.w	r2, sp, #1128	; 0x468
   a:	460b      	mov	r3, r1
   c:	f50d 7c16 	add.w	ip, sp, #600	; 0x258
  10:	f44f 7e04 	mov.w	lr, #528	; 0x210
/Users/Luppy/mynewt/druid-embedded/druid/src/window.rs:61
        ////root: &dyn Widget<T>,
        ////title: LocalizedString<T>,
        ////menu: Option<MenuDesc<T>>,
    ) -> Self {
        Window {
            root: WidgetPod::new(root), ////
  14:	9003      	str	r0, [sp, #12]
  16:	4660      	mov	r0, ip
  18:	9202      	str	r2, [sp, #8]
  1a:	4672      	mov	r2, lr
  1c:	9301      	str	r3, [sp, #4]
  1e:	f8cd c000 	str.w	ip, [sp]
  22:	f7ff fffe 	bl	0 <__aeabi_memcpy8>
  26:	a804      	add	r0, sp, #16
  28:	9900      	ldr	r1, [sp, #0]
  2a:	f7ff fffe 	bl	0 <druid::WidgetPod<T,W>::new>
  2e:	e7ff      	b.n	30 <druid::window::Window<T,W>::new+0x30>
  30:	2000      	movs	r0, #0
  32:	f2c4 006e 	movt	r0, #16494	; 0x406e
/Users/Luppy/mynewt/druid-embedded/druid/src/window.rs:64
            ////root: WidgetPod::new(WidgetBox::new(root)), ////
            ////root: WidgetPod::new(Box::new(root)),
            size: Size { //// TODO: Allow auto size
  36:	f8cd 046c 	str.w	r0, [sp, #1132]	; 0x46c
  3a:	2100      	movs	r1, #0
  3c:	f8cd 1468 	str.w	r1, [sp, #1128]	; 0x468
  40:	f8cd 0474 	str.w	r0, [sp, #1140]	; 0x474
  44:	f8cd 1470 	str.w	r1, [sp, #1136]	; 0x470
  48:	a904      	add	r1, sp, #16
  4a:	f44f 7212 	mov.w	r2, #584	; 0x248
/Users/Luppy/mynewt/druid-embedded/druid/src/window.rs:60
        Window {
  4e:	9803      	ldr	r0, [sp, #12]
  50:	f7ff fffe 	bl	0 <__aeabi_memcpy8>
  54:	9802      	ldr	r0, [sp, #8]
  56:	ed90 0b00 	vldr	d0, [r0]
  5a:	ed90 1b02 	vldr	d1, [r0, #8]
  5e:	9903      	ldr	r1, [sp, #12]
  60:	ed81 0b92 	vstr	d0, [r1, #584]	; 0x248
  64:	ed81 1b94 	vstr	d1, [r1, #592]	; 0x250
/Users/Luppy/mynewt/druid-embedded/druid/src/window.rs:74
            ////title,
            ////menu,
            ////context_menu: None,
            phantom_data: PhantomData, ////
        }
    }
  68:	f50d 6d90 	add.w	sp, sp, #1152	; 0x480
  6c:	bd80      	pop	{r7, pc}

app-e8778d9de5b9c761.4gj7jcuyk8wgzbvy.rcgu.o:     file format elf32-littlearm

SYMBOL TABLE:
00000000 l    df *ABS*	00000000 4gj7jcuyk8wgzbvy
00003481 l       .debug_str	00000000 
00003d99 l       .debug_str	00000000 
00003dd5 l       .debug_str	00000000 
00003e07 l       .debug_str	00000000 
00003e43 l       .debug_str	00000000 
00003e51 l       .debug_str	00000000 
00003eb5 l       .debug_str	00000000 
00003f60 l       .debug_str	00000000 
00003fc4 l       .debug_str	00000000 
000040bd l       .debug_str	00000000 
000041b7 l       .debug_str	00000000 
000041bc l       .debug_str	00000000 
0000427b l       .debug_str	00000000 
0000427d l       .debug_str	00000000 
0000427f l       .debug_str	00000000 
00004281 l       .debug_str	00000000 
00004285 l       .debug_str	00000000 
00004289 l       .debug_str	00000000 
00004344 l       .debug_str	00000000 
0000434d l       .debug_str	00000000 
000043f2 l       .debug_str	00000000 
000044fb l       .debug_str	00000000 
00000000 l       .debug_str	00000000 
00000041 l       .debug_str	00000000 
00000055 l       .debug_str	00000000 
00000085 l       .debug_str	00000000 
0000008a l       .debug_str	00000000 
0000008e l       .debug_str	00000000 
00000091 l       .debug_str	00000000 
0000009c l       .debug_str	00000000 
000000a7 l       .debug_str	00000000 
000000ae l       .debug_str	00000000 
000000b5 l       .debug_str	00000000 
000000b9 l       .debug_str	00000000 
000000be l       .debug_str	00000000 
000000c7 l       .debug_str	00000000 
000000cb l       .debug_str	00000000 
000000cf l       .debug_str	00000000 
000000d1 l       .debug_str	00000000 
000000d8 l       .debug_str	00000000 
000000dc l       .debug_str	00000000 
000000e3 l       .debug_str	00000000 
000000e6 l       .debug_str	00000000 
000000ec l       .debug_str	00000000 
000000fa l       .debug_str	00000000 
000000ff l       .debug_str	00000000 
00000107 l       .debug_str	00000000 
0000010f l       .debug_str	00000000 
00000118 l       .debug_str	00000000 
00000122 l       .debug_str	00000000 
00000129 l       .debug_str	00000000 
0000012f l       .debug_str	00000000 
00000134 l       .debug_str	00000000 
00000138 l       .debug_str	00000000 
0000013e l       .debug_str	00000000 
0000014b l       .debug_str	00000000 
00000152 l       .debug_str	00000000 
00000154 l       .debug_str	00000000 
00000156 l       .debug_str	00000000 
00000172 l       .debug_str	00000000 
0000017a l       .debug_str	00000000 
00000181 l       .debug_str	00000000 
00000191 l       .debug_str	00000000 
000001d6 l       .debug_str	00000000 
00000243 l       .debug_str	00000000 
000002d9 l       .debug_str	00000000 
00000398 l       .debug_str	00000000 
000003a0 l       .debug_str	00000000 
000003a5 l       .debug_str	00000000 
000003ab l       .debug_str	00000000 
000003af l       .debug_str	00000000 
000003b2 l       .debug_str	00000000 
000003db l       .debug_str	00000000 
00000411 l       .debug_str	00000000 
00000413 l       .debug_str	00000000 
00000440 l       .debug_str	00000000 
00000443 l       .debug_str	00000000 
00000493 l       .debug_str	00000000 
000004f0 l       .debug_str	00000000 
00000544 l       .debug_str	00000000 
000005bb l       .debug_str	00000000 
0000063f l       .debug_str	00000000 
000006ba l       .debug_str	00000000 
00000758 l       .debug_str	00000000 
00000803 l       .debug_str	00000000 
000008a5 l       .debug_str	00000000 
0000096a l       .debug_str	00000000 
00000a3c l       .debug_str	00000000 
00000b05 l       .debug_str	00000000 
00000bef l       .debug_str	00000000 
00000cf6 l       .debug_str	00000000 
00000dfc l       .debug_str	00000000 
00000e00 l       .debug_str	00000000 
00000e02 l       .debug_str	00000000 
00000f00 l       .debug_str	00000000 
00001001 l       .debug_str	00000000 
00001003 l       .debug_str	00000000 
000010e3 l       .debug_str	00000000 
000010e8 l       .debug_str	00000000 
000010ec l       .debug_str	00000000 
000010f0 l       .debug_str	00000000 
00001101 l       .debug_str	00000000 
00001211 l       .debug_str	00000000 
00001220 l       .debug_str	00000000 
0000124c l       .debug_str	00000000 
00001291 l       .debug_str	00000000 
000012ca l       .debug_str	00000000 
00001361 l       .debug_str	00000000 
000013ff l       .debug_str	00000000 
000014ba l       .debug_str	00000000 
00001574 l       .debug_str	00000000 
00001626 l       .debug_str	00000000 
000016bb l       .debug_str	00000000 
000016c0 l       .debug_str	00000000 
0000176c l       .debug_str	00000000 
00001778 l       .debug_str	00000000 
00001782 l       .debug_str	00000000 
00001789 l       .debug_str	00000000 
00001792 l       .debug_str	00000000 
0000179a l       .debug_str	00000000 
000017ab l       .debug_str	00000000 
000017c2 l       .debug_str	00000000 
000017f5 l       .debug_str	00000000 
000017fc l       .debug_str	00000000 
000017ff l       .debug_str	00000000 
00001806 l       .debug_str	00000000 
0000180f l       .debug_str	00000000 
00001815 l       .debug_str	00000000 
0000181c l       .debug_str	00000000 
0000181f l       .debug_str	00000000 
0000182b l       .debug_str	00000000 
00001833 l       .debug_str	00000000 
00001837 l       .debug_str	00000000 
0000184e l       .debug_str	00000000 
000018a8 l       .debug_str	00000000 
0000190a l       .debug_str	00000000 
00001915 l       .debug_str	00000000 
0000195c l       .debug_str	00000000 
000019ab l       .debug_str	00000000 
000019b5 l       .debug_str	00000000 
000019f2 l       .debug_str	00000000 
00001a37 l       .debug_str	00000000 
00001a40 l       .debug_str	00000000 
00001a50 l       .debug_str	00000000 
00001a58 l       .debug_str	00000000 
00001aad l       .debug_str	00000000 
00001b0a l       .debug_str	00000000 
00001b16 l       .debug_str	00000000 
00001b1f l       .debug_str	00000000 
00001b2b l       .debug_str	00000000 
00001b37 l       .debug_str	00000000 
00001b40 l       .debug_str	00000000 
00001b48 l       .debug_str	00000000 
00001b50 l       .debug_str	00000000 
00001b5a l       .debug_str	00000000 
00001b6f l       .debug_str	00000000 
00001b76 l       .debug_str	00000000 
00001b96 l       .debug_str	00000000 
00001b9d l       .debug_str	00000000 
00001ba5 l       .debug_str	00000000 
00001baf l       .debug_str	00000000 
00001bba l       .debug_str	00000000 
00001bc3 l       .debug_str	00000000 
00001bce l       .debug_str	00000000 
00001bda l       .debug_str	00000000 
00001bde l       .debug_str	00000000 
00001be7 l       .debug_str	00000000 
00001bee l       .debug_str	00000000 
00001bf6 l       .debug_str	00000000 
00001bfe l       .debug_str	00000000 
00001c08 l       .debug_str	00000000 
00001c0e l       .debug_str	00000000 
00001c15 l       .debug_str	00000000 
00001c1c l       .debug_str	00000000 
00001c49 l       .debug_str	00000000 
00001c7e l       .debug_str	00000000 
00001c84 l       .debug_str	00000000 
00001c8a l       .debug_str	00000000 
00001c99 l       .debug_str	00000000 
00001ca9 l       .debug_str	00000000 
00001cb9 l       .debug_str	00000000 
00001cc1 l       .debug_str	00000000 
00001cea l       .debug_str	00000000 
00001d48 l       .debug_str	00000000 
00001dae l       .debug_str	00000000 
00001db5 l       .debug_str	00000000 
00001dbd l       .debug_str	00000000 
00001dc6 l       .debug_str	00000000 
00001de4 l       .debug_str	00000000 
00001df4 l       .debug_str	00000000 
00001e02 l       .debug_str	00000000 
00001e0d l       .debug_str	00000000 
00001e1a l       .debug_str	00000000 
00001e29 l       .debug_str	00000000 
00001e3f l       .debug_str	00000000 
00001e49 l       .debug_str	00000000 
00001e52 l       .debug_str	00000000 
00001e5b l       .debug_str	00000000 
00001e81 l       .debug_str	00000000 
00001e97 l       .debug_str	00000000 
00001ea2 l       .debug_str	00000000 
00001eb8 l       .debug_str	00000000 
00001ec0 l       .debug_str	00000000 
00001ee1 l       .debug_str	00000000 
00001ef8 l       .debug_str	00000000 
00001efd l       .debug_str	00000000 
00001f05 l       .debug_str	00000000 
00001f0e l       .debug_str	00000000 
00001f17 l       .debug_str	00000000 
00001f20 l       .debug_str	00000000 
00001f28 l       .debug_str	00000000 
00001f2c l       .debug_str	00000000 
00001f33 l       .debug_str	00000000 
00001f3f l       .debug_str	00000000 
00001f4a l       .debug_str	00000000 
00001f52 l       .debug_str	00000000 
00001f5a l       .debug_str	00000000 
00001fd6 l       .debug_str	00000000 
0000205a l       .debug_str	00000000 
00002156 l       .debug_str	00000000 
0000225a l       .debug_str	00000000 
00002268 l       .debug_str	00000000 
00002273 l       .debug_str	00000000 
0000227d l       .debug_str	00000000 
00002291 l       .debug_str	00000000 
0000229c l       .debug_str	00000000 
000022ca l       .debug_str	00000000 
00002345 l       .debug_str	00000000 
000023c8 l       .debug_str	00000000 
000023d6 l       .debug_str	00000000 
00002435 l       .debug_str	00000000 
0000249c l       .debug_str	00000000 
000024b2 l       .debug_str	00000000 
000024c2 l       .debug_str	00000000 
000024d1 l       .debug_str	00000000 
000024d5 l       .debug_str	00000000 
000024db l       .debug_str	00000000 
000024df l       .debug_str	00000000 
000024e5 l       .debug_str	00000000 
000024eb l       .debug_str	00000000 
000024f7 l       .debug_str	00000000 
000024ff l       .debug_str	00000000 
00002505 l       .debug_str	00000000 
0000250d l       .debug_str	00000000 
00002513 l       .debug_str	00000000 
00002536 l       .debug_str	00000000 
00002546 l       .debug_str	00000000 
00002579 l       .debug_str	00000000 
000025b9 l       .debug_str	00000000 
00002601 l       .debug_str	00000000 
00002605 l       .debug_str	00000000 
0000260b l       .debug_str	00000000 
00002611 l       .debug_str	00000000 
00002617 l       .debug_str	00000000 
00002629 l       .debug_str	00000000 
0000265e l       .debug_str	00000000 
000026a0 l       .debug_str	00000000 
000026ea l       .debug_str	00000000 
000026ee l       .debug_str	00000000 
000026f4 l       .debug_str	00000000 
000026fa l       .debug_str	00000000 
00002700 l       .debug_str	00000000 
00002712 l       .debug_str	00000000 
00002747 l       .debug_str	00000000 
00002789 l       .debug_str	00000000 
000027d3 l       .debug_str	00000000 
000027d7 l       .debug_str	00000000 
000027dd l       .debug_str	00000000 
000027e3 l       .debug_str	00000000 
000027e9 l       .debug_str	00000000 
000027ef l       .debug_str	00000000 
00002800 l       .debug_str	00000000 
00002834 l       .debug_str	00000000 
00002875 l       .debug_str	00000000 
000028be l       .debug_str	00000000 
000028c3 l       .debug_str	00000000 
000028c8 l       .debug_str	00000000 
000028cc l       .debug_str	00000000 
000028d2 l       .debug_str	00000000 
000028d8 l       .debug_str	00000000 
000028de l       .debug_str	00000000 
000028ef l       .debug_str	00000000 
00002923 l       .debug_str	00000000 
00002964 l       .debug_str	00000000 
000029ad l       .debug_str	00000000 
000029b1 l       .debug_str	00000000 
000029ba l       .debug_str	00000000 
000029cb l       .debug_str	00000000 
000029ff l       .debug_str	00000000 
00002a40 l       .debug_str	00000000 
00002a89 l       .debug_str	00000000 
00002a8e l       .debug_str	00000000 
00002a92 l       .debug_str	00000000 
00002a9b l       .debug_str	00000000 
00002aa2 l       .debug_str	00000000 
00002aaa l       .debug_str	00000000 
00002abc l       .debug_str	00000000 
00002af1 l       .debug_str	00000000 
00002b33 l       .debug_str	00000000 
00002b7d l       .debug_str	00000000 
00002b81 l       .debug_str	00000000 
00002b87 l       .debug_str	00000000 
00002b8d l       .debug_str	00000000 
00002b93 l       .debug_str	00000000 
00002b99 l       .debug_str	00000000 
00002ba1 l       .debug_str	00000000 
00002baf l       .debug_str	00000000 
00002bbe l       .debug_str	00000000 
00002bcf l       .debug_str	00000000 
00002bda l       .debug_str	00000000 
00002be5 l       .debug_str	00000000 
00002bf0 l       .debug_str	00000000 
00002bf7 l       .debug_str	00000000 
00002c1a l       .debug_str	00000000 
00002c2c l       .debug_str	00000000 
00002c61 l       .debug_str	00000000 
00002ca3 l       .debug_str	00000000 
00002ced l       .debug_str	00000000 
00002cf1 l       .debug_str	00000000 
00002cfb l       .debug_str	00000000 
00002d0d l       .debug_str	00000000 
00002d42 l       .debug_str	00000000 
00002d84 l       .debug_str	00000000 
00002dce l       .debug_str	00000000 
00002dd3 l       .debug_str	00000000 
00002ddd l       .debug_str	00000000 
00002def l       .debug_str	00000000 
00002e24 l       .debug_str	00000000 
00002e66 l       .debug_str	00000000 
00002eb0 l       .debug_str	00000000 
00002ec4 l       .debug_str	00000000 
00002ec8 l       .debug_str	00000000 
00002ed6 l       .debug_str	00000000 
00002ee6 l       .debug_str	00000000 
00002eef l       .debug_str	00000000 
00002efa l       .debug_str	00000000 
00002f09 l       .debug_str	00000000 
00002f1e l       .debug_str	00000000 
00002f4f l       .debug_str	00000000 
00002fec l       .debug_str	00000000 
00003091 l       .debug_str	00000000 
0000309c l       .debug_str	00000000 
000030a5 l       .debug_str	00000000 
000030c6 l       .debug_str	00000000 
000030d9 l       .debug_str	00000000 
0000310f l       .debug_str	00000000 
00003192 l       .debug_str	00000000 
0000321d l       .debug_str	00000000 
00003239 l       .debug_str	00000000 
00003285 l       .debug_str	00000000 
000032d9 l       .debug_str	00000000 
000032f6 l       .debug_str	00000000 
0000330a l       .debug_str	00000000 
00003356 l       .debug_str	00000000 
000033aa l       .debug_str	00000000 
000033c0 l       .debug_str	00000000 
000033d4 l       .debug_str	00000000 
0000341b l       .debug_str	00000000 
0000346a l       .debug_str	00000000 
00003473 l       .debug_str	00000000 
000034b2 l       .debug_str	00000000 
000034b8 l       .debug_str	00000000 
000034c0 l       .debug_str	00000000 
000034c7 l       .debug_str	00000000 
000034cf l       .debug_str	00000000 
000034da l       .debug_str	00000000 
000034e2 l       .debug_str	00000000 
000034f1 l       .debug_str	00000000 
000034f5 l       .debug_str	00000000 
00003500 l       .debug_str	00000000 
0000350c l       .debug_str	00000000 
00003517 l       .debug_str	00000000 
00003528 l       .debug_str	00000000 
0000352e l       .debug_str	00000000 
00003536 l       .debug_str	00000000 
0000353d l       .debug_str	00000000 
00003547 l       .debug_str	00000000 
0000354f l       .debug_str	00000000 
00003557 l       .debug_str	00000000 
00003579 l       .debug_str	00000000 
00003584 l       .debug_str	00000000 
00003590 l       .debug_str	00000000 
00003598 l       .debug_str	00000000 
000035a1 l       .debug_str	00000000 
000035ac l       .debug_str	00000000 
000035b3 l       .debug_str	00000000 
000035be l       .debug_str	00000000 
000035c9 l       .debug_str	00000000 
000035d9 l       .debug_str	00000000 
000035e3 l       .debug_str	00000000 
000035e9 l       .debug_str	00000000 
0000360b l       .debug_str	00000000 
00003643 l       .debug_str	00000000 
00003683 l       .debug_str	00000000 
0000368a l       .debug_str	00000000 
00003692 l       .debug_str	00000000 
000036a9 l       .debug_str	00000000 
000036b2 l       .debug_str	00000000 
000036c2 l       .debug_str	00000000 
000036d1 l       .debug_str	00000000 
000036d9 l       .debug_str	00000000 
000036e0 l       .debug_str	00000000 
000036e8 l       .debug_str	00000000 
00003706 l       .debug_str	00000000 
00003716 l       .debug_str	00000000 
00003749 l       .debug_str	00000000 
0000375e l       .debug_str	00000000 
00003767 l       .debug_str	00000000 
000037c4 l       .debug_str	00000000 
00003829 l       .debug_str	00000000 
00003833 l       .debug_str	00000000 
00003843 l       .debug_str	00000000 
00003858 l       .debug_str	00000000 
00003860 l       .debug_str	00000000 
000038c4 l       .debug_str	00000000 
00003930 l       .debug_str	00000000 
00003937 l       .debug_str	00000000 
0000393f l       .debug_str	00000000 
0000395d l       .debug_str	00000000 
0000396d l       .debug_str	00000000 
000039a0 l       .debug_str	00000000 
000039b5 l       .debug_str	00000000 
000039c8 l       .debug_str	00000000 
000039dd l       .debug_str	00000000 
000039e4 l       .debug_str	00000000 
000039f9 l       .debug_str	00000000 
00003a23 l       .debug_str	00000000 
00003a55 l       .debug_str	00000000 
00003a5b l       .debug_str	00000000 
00003a69 l       .debug_str	00000000 
00003a72 l       .debug_str	00000000 
00003ab6 l       .debug_str	00000000 
00003b69 l       .debug_str	00000000 
00003c12 l       .debug_str	00000000 
00003c17 l       .debug_str	00000000 
00003c2e l       .debug_str	00000000 
00003c36 l       .debug_str	00000000 
00003c49 l       .debug_str	00000000 
00003c82 l       .debug_str	00000000 
00003cc0 l       .debug_str	00000000 
00003ccc l       .debug_str	00000000 
00003cd4 l       .debug_str	00000000 
00003cdc l       .debug_str	00000000 
00003ce3 l       .debug_str	00000000 
00003cef l       .debug_str	00000000 
00003cfb l       .debug_str	00000000 
00003d0c l       .debug_str	00000000 
00003d14 l       .debug_str	00000000 
00003d16 l       .debug_str	00000000 
00003d4f l       .debug_str	00000000 
00003d8c l       .debug_str	00000000 
00000000 l     O .rodata..Lanon.32fe249d86a73ef701b0927096d6337e.2	00000018 .Lanon.32fe249d86a73ef701b0927096d6337e.2
00000000 l    d  .text._ZN4core6option15Option$LT$T$GT$13get_or_insert17h645101fd0fc8a671E	00000000 .text._ZN4core6option15Option$LT$T$GT$13get_or_insert17h645101fd0fc8a671E
00000000 l    d  .text._ZN4core6option15Option$LT$T$GT$3map17h4ff806972031671cE	00000000 .text._ZN4core6option15Option$LT$T$GT$3map17h4ff806972031671cE
00000000 l    d  .text._ZN4core6option15Option$LT$T$GT$6expect17h2e45d1e49fabacddE	00000000 .text._ZN4core6option15Option$LT$T$GT$6expect17h2e45d1e49fabacddE
00000000 l    d  .text._ZN4core6option15Option$LT$T$GT$6unwrap17h3c0faaaa4c2bd8f6E	00000000 .text._ZN4core6option15Option$LT$T$GT$6unwrap17h3c0faaaa4c2bd8f6E
00000000 l    d  .text._ZN68_$LT$core..option..Option$LT$T$GT$$u20$as$u20$core..clone..Clone$GT$5clone17h511b067211bf11f3E	00000000 .text._ZN68_$LT$core..option..Option$LT$T$GT$$u20$as$u20$core..clone..Clone$GT$5clone17h511b067211bf11f3E
00000000 l    d  .text._ZN68_$LT$core..option..Option$LT$T$GT$$u20$as$u20$core..clone..Clone$GT$5clone17h98b2813f17718312E	00000000 .text._ZN68_$LT$core..option..Option$LT$T$GT$$u20$as$u20$core..clone..Clone$GT$5clone17h98b2813f17718312E
00000000 l    d  .rodata..Lanon.32fe249d86a73ef701b0927096d6337e.0	00000000 .rodata..Lanon.32fe249d86a73ef701b0927096d6337e.0
00000000 l    d  .rodata..Lanon.32fe249d86a73ef701b0927096d6337e.1	00000000 .rodata..Lanon.32fe249d86a73ef701b0927096d6337e.1
00000000 l    d  .debug_loc	00000000 .debug_loc
00000000 l    d  .debug_abbrev	00000000 .debug_abbrev
00000000 l    d  .debug_info	00000000 .debug_info
00000000 l    d  .debug_ranges	00000000 .debug_ranges
00000000 l    d  .debug_frame	00000000 .debug_frame
00000000 l    d  .debug_line	00000000 .debug_line
00000000         *UND*	00000000 core::ptr::real_drop_in_place
00000000         *UND*	00000000 core::ptr::real_drop_in_place
00000000         *UND*	00000000 .hidden core::hint::unreachable_unchecked
00000000         *UND*	00000000 core::option::expect_failed
00000000 g     F .text._ZN4core6option15Option$LT$T$GT$13get_or_insert17h645101fd0fc8a671E	000000ba core::option::Option<T>::get_or_insert
00000000 g     F .text._ZN4core6option15Option$LT$T$GT$3map17h4ff806972031671cE	000000bc core::option::Option<T>::map
00000000 g     F .text._ZN4core6option15Option$LT$T$GT$6expect17h2e45d1e49fabacddE	00000056 core::option::Option<T>::expect
00000000 g     F .text._ZN4core6option15Option$LT$T$GT$6unwrap17h3c0faaaa4c2bd8f6E	0000004a core::option::Option<T>::unwrap
00000000         *UND*	00000000 core::panicking::panic
00000000         *UND*	00000000 druid::win_handler::AppState<T>::paint::{{closure}}
00000000 g     F .text._ZN68_$LT$core..option..Option$LT$T$GT$$u20$as$u20$core..clone..Clone$GT$5clone17h511b067211bf11f3E	0000005e <core::option::Option<T> as core::clone::Clone>::clone
00000000 g     F .text._ZN68_$LT$core..option..Option$LT$T$GT$$u20$as$u20$core..clone..Clone$GT$5clone17h98b2813f17718312E	00000056 <core::option::Option<T> as core::clone::Clone>::clone
00000000         *UND*	00000000 <heapless::vec::Vec<T,N> as core::clone::Clone>::clone
00000000         *UND*	00000000 <heapless::string::String<N> as core::clone::Clone>::clone



Disassembly of section .text._ZN4core6option15Option$LT$T$GT$13get_or_insert17h645101fd0fc8a671E:

00000000 <core::option::Option<T>::get_or_insert>:
_ZN4core6option15Option$LT$T$GT$13get_or_insert17h645101fd0fc8a671E():
/rustc/50a0defd5a93523067ef239936cc2e0755220904/src/libcore/option.rs:781
   0:	b510      	push	{r4, lr}
   2:	b096      	sub	sp, #88	; 0x58
   4:	4602      	mov	r2, r0
   6:	9004      	str	r0, [sp, #16]
   8:	2000      	movs	r0, #0
/rustc/50a0defd5a93523067ef239936cc2e0755220904/src/libcore/option.rs:787
   a:	f88d 0057 	strb.w	r0, [sp, #87]	; 0x57
   e:	2001      	movs	r0, #1
  10:	f88d 0057 	strb.w	r0, [sp, #87]	; 0x57
/rustc/50a0defd5a93523067ef239936cc2e0755220904/src/libcore/option.rs:783
  14:	9804      	ldr	r0, [sp, #16]
  16:	6800      	ldr	r0, [r0, #0]
  18:	2800      	cmp	r0, #0
  1a:	9103      	str	r1, [sp, #12]
  1c:	9202      	str	r2, [sp, #8]
  1e:	d11e      	bne.n	5e <core::option::Option<T>::get_or_insert+0x5e>
  20:	e7ff      	b.n	22 <core::option::Option<T>::get_or_insert+0x22>
  22:	2000      	movs	r0, #0
  24:	f88d 0057 	strb.w	r0, [sp, #87]	; 0x57
  28:	a80d      	add	r0, sp, #52	; 0x34
  2a:	9903      	ldr	r1, [sp, #12]
  2c:	4602      	mov	r2, r0
  2e:	e8b1 5008 	ldmia.w	r1!, {r3, ip, lr}
  32:	e8a2 5008 	stmia.w	r2!, {r3, ip, lr}
  36:	e891 5018 	ldmia.w	r1, {r3, r4, ip, lr}
  3a:	e882 5018 	stmia.w	r2, {r3, r4, ip, lr}
  3e:	a905      	add	r1, sp, #20
  40:	3104      	adds	r1, #4
  42:	e8b0 100c 	ldmia.w	r0!, {r2, r3, ip}
  46:	e8a1 100c 	stmia.w	r1!, {r2, r3, ip}
  4a:	e890 500c 	ldmia.w	r0, {r2, r3, ip, lr}
  4e:	e881 500c 	stmia.w	r1, {r2, r3, ip, lr}
  52:	2001      	movs	r0, #1
  54:	9005      	str	r0, [sp, #20]
  56:	9804      	ldr	r0, [sp, #16]
  58:	f7ff fffe 	bl	0 <core::ptr::real_drop_in_place>
  5c:	e01b      	b.n	96 <core::option::Option<T>::get_or_insert+0x96>
/rustc/50a0defd5a93523067ef239936cc2e0755220904/src/libcore/option.rs:788
  5e:	9804      	ldr	r0, [sp, #16]
  60:	6800      	ldr	r0, [r0, #0]
  62:	2800      	cmp	r0, #0
  64:	9001      	str	r0, [sp, #4]
  66:	d010      	beq.n	8a <core::option::Option<T>::get_or_insert+0x8a>
  68:	e7ff      	b.n	6a <core::option::Option<T>::get_or_insert+0x6a>
  6a:	9801      	ldr	r0, [sp, #4]
  6c:	2801      	cmp	r0, #1
  6e:	d001      	beq.n	74 <core::option::Option<T>::get_or_insert+0x74>
  70:	e7ff      	b.n	72 <core::option::Option<T>::get_or_insert+0x72>
/rustc/50a0defd5a93523067ef239936cc2e0755220904/src/libcore/option.rs:791
  72:	defe      	udf	#254	; 0xfe
/rustc/50a0defd5a93523067ef239936cc2e0755220904/src/libcore/option.rs:788
  74:	9804      	ldr	r0, [sp, #16]
  76:	3004      	adds	r0, #4
  78:	9014      	str	r0, [sp, #80]	; 0x50
  7a:	9814      	ldr	r0, [sp, #80]	; 0x50
/rustc/50a0defd5a93523067ef239936cc2e0755220904/src/libcore/option.rs:791
  7c:	f89d 1057 	ldrb.w	r1, [sp, #87]	; 0x57
  80:	07c9      	lsls	r1, r1, #31
  82:	2900      	cmp	r1, #0
  84:	9000      	str	r0, [sp, #0]
  86:	d111      	bne.n	ac <core::option::Option<T>::get_or_insert+0xac>
  88:	e002      	b.n	90 <core::option::Option<T>::get_or_insert+0x90>
/rustc/50a0defd5a93523067ef239936cc2e0755220904/src/libcore/option.rs:789
  8a:	f7ff fffe 	bl	0 <core::hint::unreachable_unchecked>
  8e:	defe      	udf	#254	; 0xfe
/rustc/50a0defd5a93523067ef239936cc2e0755220904/src/libcore/option.rs:791
  90:	9800      	ldr	r0, [sp, #0]
  92:	b016      	add	sp, #88	; 0x58
  94:	bd10      	pop	{r4, pc}
/rustc/50a0defd5a93523067ef239936cc2e0755220904/src/libcore/option.rs:783
  96:	9804      	ldr	r0, [sp, #16]
  98:	a905      	add	r1, sp, #20
  9a:	e8b1 500c 	ldmia.w	r1!, {r2, r3, ip, lr}
  9e:	e8a0 500c 	stmia.w	r0!, {r2, r3, ip, lr}
  a2:	e891 500c 	ldmia.w	r1, {r2, r3, ip, lr}
  a6:	e880 500c 	stmia.w	r0, {r2, r3, ip, lr}
/rustc/50a0defd5a93523067ef239936cc2e0755220904/src/libcore/option.rs:782
  aa:	e7d8      	b.n	5e <core::option::Option<T>::get_or_insert+0x5e>
  ac:	2000      	movs	r0, #0
/rustc/50a0defd5a93523067ef239936cc2e0755220904/src/libcore/option.rs:791
  ae:	f88d 0057 	strb.w	r0, [sp, #87]	; 0x57
  b2:	9803      	ldr	r0, [sp, #12]
  b4:	f7ff fffe 	bl	0 <core::ptr::real_drop_in_place>
  b8:	e7ea      	b.n	90 <core::option::Option<T>::get_or_insert+0x90>

Disassembly of section .text._ZN4core6option15Option$LT$T$GT$3map17h4ff806972031671cE:

00000000 <core::option::Option<T>::map>:
_ZN4core6option15Option$LT$T$GT$3map17h4ff806972031671cE():
/rustc/50a0defd5a93523067ef239936cc2e0755220904/src/libcore/option.rs:414
   0:	b5b0      	push	{r4, r5, r7, lr}
   2:	b08e      	sub	sp, #56	; 0x38
   4:	469c      	mov	ip, r3
   6:	4696      	mov	lr, r2
   8:	460c      	mov	r4, r1
   a:	4605      	mov	r5, r0
   c:	9006      	str	r0, [sp, #24]
   e:	9107      	str	r1, [sp, #28]
  10:	9208      	str	r2, [sp, #32]
  12:	9309      	str	r3, [sp, #36]	; 0x24
  14:	2000      	movs	r0, #0
/rustc/50a0defd5a93523067ef239936cc2e0755220904/src/libcore/option.rs:416
  16:	f88d 0036 	strb.w	r0, [sp, #54]	; 0x36
  1a:	f88d 0037 	strb.w	r0, [sp, #55]	; 0x37
  1e:	2001      	movs	r0, #1
  20:	f88d 0037 	strb.w	r0, [sp, #55]	; 0x37
  24:	f88d 0036 	strb.w	r0, [sp, #54]	; 0x36
  28:	9806      	ldr	r0, [sp, #24]
  2a:	2800      	cmp	r0, #0
  2c:	f8cd c014 	str.w	ip, [sp, #20]
  30:	f8cd e010 	str.w	lr, [sp, #16]
  34:	9403      	str	r4, [sp, #12]
  36:	9502      	str	r5, [sp, #8]
  38:	9001      	str	r0, [sp, #4]
  3a:	d01b      	beq.n	74 <core::option::Option<T>::map+0x74>
  3c:	e7ff      	b.n	3e <core::option::Option<T>::map+0x3e>
  3e:	9801      	ldr	r0, [sp, #4]
  40:	2801      	cmp	r0, #1
  42:	d001      	beq.n	48 <core::option::Option<T>::map+0x48>
  44:	e7ff      	b.n	46 <core::option::Option<T>::map+0x46>
/rustc/50a0defd5a93523067ef239936cc2e0755220904/src/libcore/option.rs:419
  46:	defe      	udf	#254	; 0xfe
  48:	2000      	movs	r0, #0
/rustc/50a0defd5a93523067ef239936cc2e0755220904/src/libcore/option.rs:416
  4a:	f88d 0037 	strb.w	r0, [sp, #55]	; 0x37
  4e:	9907      	ldr	r1, [sp, #28]
  50:	910b      	str	r1, [sp, #44]	; 0x2c
  52:	f88d 0036 	strb.w	r0, [sp, #54]	; 0x36
  56:	9808      	ldr	r0, [sp, #32]
  58:	9909      	ldr	r1, [sp, #36]	; 0x24
  5a:	9a0b      	ldr	r2, [sp, #44]	; 0x2c
  5c:	920c      	str	r2, [sp, #48]	; 0x30
  5e:	9a0c      	ldr	r2, [sp, #48]	; 0x30
  60:	f7ff fffe 	bl	0 <druid::win_handler::AppState<T>::paint::{{closure}}>
  64:	9000      	str	r0, [sp, #0]
  66:	e7ff      	b.n	68 <core::option::Option<T>::map+0x68>
  68:	9800      	ldr	r0, [sp, #0]
  6a:	f000 0101 	and.w	r1, r0, #1
  6e:	f88d 102b 	strb.w	r1, [sp, #43]	; 0x2b
/rustc/50a0defd5a93523067ef239936cc2e0755220904/src/libcore/option.rs:415
  72:	e006      	b.n	82 <core::option::Option<T>::map+0x82>
  74:	2000      	movs	r0, #0
/rustc/50a0defd5a93523067ef239936cc2e0755220904/src/libcore/option.rs:417
  76:	f88d 002b 	strb.w	r0, [sp, #43]	; 0x2b
  7a:	2002      	movs	r0, #2
  7c:	f88d 002b 	strb.w	r0, [sp, #43]	; 0x2b
/rustc/50a0defd5a93523067ef239936cc2e0755220904/src/libcore/option.rs:415
  80:	e7ff      	b.n	82 <core::option::Option<T>::map+0x82>
/rustc/50a0defd5a93523067ef239936cc2e0755220904/src/libcore/option.rs:419
  82:	f89d 0036 	ldrb.w	r0, [sp, #54]	; 0x36
  86:	07c0      	lsls	r0, r0, #31
  88:	2800      	cmp	r0, #0
  8a:	d104      	bne.n	96 <core::option::Option<T>::map+0x96>
  8c:	e7ff      	b.n	8e <core::option::Option<T>::map+0x8e>
  8e:	9806      	ldr	r0, [sp, #24]
  90:	2801      	cmp	r0, #1
  92:	d008      	beq.n	a6 <core::option::Option<T>::map+0xa6>
  94:	e011      	b.n	ba <core::option::Option<T>::map+0xba>
  96:	2000      	movs	r0, #0
  98:	f88d 0036 	strb.w	r0, [sp, #54]	; 0x36
  9c:	e7f7      	b.n	8e <core::option::Option<T>::map+0x8e>
  9e:	f89d 002b 	ldrb.w	r0, [sp, #43]	; 0x2b
  a2:	b00e      	add	sp, #56	; 0x38
  a4:	bdb0      	pop	{r4, r5, r7, pc}
  a6:	f89d 0037 	ldrb.w	r0, [sp, #55]	; 0x37
  aa:	07c0      	lsls	r0, r0, #31
  ac:	2800      	cmp	r0, #0
  ae:	d0f6      	beq.n	9e <core::option::Option<T>::map+0x9e>
  b0:	e7ff      	b.n	b2 <core::option::Option<T>::map+0xb2>
  b2:	2000      	movs	r0, #0
  b4:	f88d 0037 	strb.w	r0, [sp, #55]	; 0x37
  b8:	e7f1      	b.n	9e <core::option::Option<T>::map+0x9e>
  ba:	e7f0      	b.n	9e <core::option::Option<T>::map+0x9e>

Disassembly of section .text._ZN4core6option15Option$LT$T$GT$6expect17h2e45d1e49fabacddE:

00000000 <core::option::Option<T>::expect>:
_ZN4core6option15Option$LT$T$GT$6expect17h2e45d1e49fabacddE():
/rustc/50a0defd5a93523067ef239936cc2e0755220904/src/libcore/option.rs:311
   0:	b5b0      	push	{r4, r5, r7, lr}
   2:	b08c      	sub	sp, #48	; 0x30
   4:	469c      	mov	ip, r3
   6:	4696      	mov	lr, r2
   8:	460c      	mov	r4, r1
   a:	4605      	mov	r5, r0
   c:	9007      	str	r0, [sp, #28]
   e:	9108      	str	r1, [sp, #32]
  10:	9209      	str	r2, [sp, #36]	; 0x24
  12:	930a      	str	r3, [sp, #40]	; 0x28
/rustc/50a0defd5a93523067ef239936cc2e0755220904/src/libcore/option.rs:313
  14:	9807      	ldr	r0, [sp, #28]
  16:	2800      	cmp	r0, #0
  18:	f8cd c018 	str.w	ip, [sp, #24]
  1c:	f8cd e014 	str.w	lr, [sp, #20]
  20:	9404      	str	r4, [sp, #16]
  22:	9503      	str	r5, [sp, #12]
  24:	9002      	str	r0, [sp, #8]
  26:	d00d      	beq.n	44 <core::option::Option<T>::expect+0x44>
  28:	e7ff      	b.n	2a <core::option::Option<T>::expect+0x2a>
  2a:	9802      	ldr	r0, [sp, #8]
  2c:	2801      	cmp	r0, #1
  2e:	d001      	beq.n	34 <core::option::Option<T>::expect+0x34>
  30:	e7ff      	b.n	32 <core::option::Option<T>::expect+0x32>
/rustc/50a0defd5a93523067ef239936cc2e0755220904/src/libcore/option.rs:316
  32:	defe      	udf	#254	; 0xfe
/rustc/50a0defd5a93523067ef239936cc2e0755220904/src/libcore/option.rs:313
  34:	9808      	ldr	r0, [sp, #32]
  36:	900b      	str	r0, [sp, #44]	; 0x2c
  38:	980b      	ldr	r0, [sp, #44]	; 0x2c
/rustc/50a0defd5a93523067ef239936cc2e0755220904/src/libcore/option.rs:316
  3a:	9907      	ldr	r1, [sp, #28]
  3c:	2901      	cmp	r1, #1
  3e:	9001      	str	r0, [sp, #4]
  40:	d005      	beq.n	4e <core::option::Option<T>::expect+0x4e>
  42:	e007      	b.n	54 <core::option::Option<T>::expect+0x54>
/rustc/50a0defd5a93523067ef239936cc2e0755220904/src/libcore/option.rs:314
  44:	9809      	ldr	r0, [sp, #36]	; 0x24
  46:	990a      	ldr	r1, [sp, #40]	; 0x28
  48:	f7ff fffe 	bl	0 <core::option::expect_failed>
  4c:	defe      	udf	#254	; 0xfe
/rustc/50a0defd5a93523067ef239936cc2e0755220904/src/libcore/option.rs:316
  4e:	9801      	ldr	r0, [sp, #4]
  50:	b00c      	add	sp, #48	; 0x30
  52:	bdb0      	pop	{r4, r5, r7, pc}
  54:	e7fb      	b.n	4e <core::option::Option<T>::expect+0x4e>

Disassembly of section .text._ZN4core6option15Option$LT$T$GT$6unwrap17h3c0faaaa4c2bd8f6E:

00000000 <core::option::Option<T>::unwrap>:
_ZN4core6option15Option$LT$T$GT$6unwrap17h3c0faaaa4c2bd8f6E():
/rustc/50a0defd5a93523067ef239936cc2e0755220904/src/libcore/option.rs:344
   0:	b086      	sub	sp, #24
   2:	4601      	mov	r1, r0
   4:	9004      	str	r0, [sp, #16]
/rustc/50a0defd5a93523067ef239936cc2e0755220904/src/libcore/option.rs:346
   6:	9804      	ldr	r0, [sp, #16]
   8:	2800      	cmp	r0, #0
   a:	4602      	mov	r2, r0
   c:	bf18      	it	ne
   e:	2201      	movne	r2, #1
  10:	2800      	cmp	r0, #0
  12:	9103      	str	r1, [sp, #12]
  14:	9202      	str	r2, [sp, #8]
  16:	d00d      	beq.n	34 <core::option::Option<T>::unwrap+0x34>
  18:	e7ff      	b.n	1a <core::option::Option<T>::unwrap+0x1a>
  1a:	9802      	ldr	r0, [sp, #8]
  1c:	2801      	cmp	r0, #1
  1e:	d001      	beq.n	24 <core::option::Option<T>::unwrap+0x24>
  20:	e7ff      	b.n	22 <core::option::Option<T>::unwrap+0x22>
/rustc/50a0defd5a93523067ef239936cc2e0755220904/src/libcore/option.rs:349
  22:	defe      	udf	#254	; 0xfe
/rustc/50a0defd5a93523067ef239936cc2e0755220904/src/libcore/option.rs:346
  24:	9804      	ldr	r0, [sp, #16]
  26:	9005      	str	r0, [sp, #20]
  28:	9805      	ldr	r0, [sp, #20]
/rustc/50a0defd5a93523067ef239936cc2e0755220904/src/libcore/option.rs:349
  2a:	9904      	ldr	r1, [sp, #16]
  2c:	2900      	cmp	r1, #0
  2e:	9001      	str	r0, [sp, #4]
  30:	d107      	bne.n	42 <core::option::Option<T>::unwrap+0x42>
  32:	e009      	b.n	48 <core::option::Option<T>::unwrap+0x48>
/rustc/50a0defd5a93523067ef239936cc2e0755220904/src/libcore/macros.rs:12
  34:	f240 0000 	movw	r0, #0
  38:	f2c0 0000 	movt	r0, #0
  3c:	f7ff fffe 	bl	0 <core::panicking::panic>
  40:	defe      	udf	#254	; 0xfe
/rustc/50a0defd5a93523067ef239936cc2e0755220904/src/libcore/option.rs:349
  42:	9801      	ldr	r0, [sp, #4]
  44:	b006      	add	sp, #24
  46:	4770      	bx	lr
  48:	e7fb      	b.n	42 <core::option::Option<T>::unwrap+0x42>

Disassembly of section .text._ZN68_$LT$core..option..Option$LT$T$GT$$u20$as$u20$core..clone..Clone$GT$5clone17h511b067211bf11f3E:

00000000 <<core::option::Option<T> as core::clone::Clone>::clone>:
_ZN68_$LT$core..option..Option$LT$T$GT$$u20$as$u20$core..clone..Clone$GT$5clone17h511b067211bf11f3E():
/rustc/50a0defd5a93523067ef239936cc2e0755220904/src/libcore/option.rs:148
   0:	b510      	push	{r4, lr}
   2:	b08e      	sub	sp, #56	; 0x38
   4:	460a      	mov	r2, r1
   6:	9104      	str	r1, [sp, #16]
   8:	9904      	ldr	r1, [sp, #16]
   a:	9105      	str	r1, [sp, #20]
   c:	9905      	ldr	r1, [sp, #20]
   e:	6809      	ldr	r1, [r1, #0]
  10:	2900      	cmp	r1, #0
  12:	9203      	str	r2, [sp, #12]
  14:	9002      	str	r0, [sp, #8]
  16:	9101      	str	r1, [sp, #4]
  18:	d005      	beq.n	26 <<core::option::Option<T> as core::clone::Clone>::clone+0x26>
  1a:	e7ff      	b.n	1c <<core::option::Option<T> as core::clone::Clone>::clone+0x1c>
  1c:	9801      	ldr	r0, [sp, #4]
  1e:	2801      	cmp	r0, #1
  20:	d005      	beq.n	2e <<core::option::Option<T> as core::clone::Clone>::clone+0x2e>
  22:	e7ff      	b.n	24 <<core::option::Option<T> as core::clone::Clone>::clone+0x24>
  24:	defe      	udf	#254	; 0xfe
  26:	2000      	movs	r0, #0
  28:	9902      	ldr	r1, [sp, #8]
  2a:	6008      	str	r0, [r1, #0]
  2c:	e015      	b.n	5a <<core::option::Option<T> as core::clone::Clone>::clone+0x5a>
/rustc/50a0defd5a93523067ef239936cc2e0755220904/src/libcore/option.rs:156
  2e:	9805      	ldr	r0, [sp, #20]
  30:	3004      	adds	r0, #4
  32:	9006      	str	r0, [sp, #24]
  34:	9906      	ldr	r1, [sp, #24]
  36:	a807      	add	r0, sp, #28
  38:	f7ff fffe 	bl	0 <<heapless::vec::Vec<T,N> as core::clone::Clone>::clone>
  3c:	e7ff      	b.n	3e <<core::option::Option<T> as core::clone::Clone>::clone+0x3e>
/rustc/50a0defd5a93523067ef239936cc2e0755220904/src/libcore/option.rs:148
  3e:	9802      	ldr	r0, [sp, #8]
  40:	1d01      	adds	r1, r0, #4
  42:	aa07      	add	r2, sp, #28
  44:	e8b2 5008 	ldmia.w	r2!, {r3, ip, lr}
  48:	e8a1 5008 	stmia.w	r1!, {r3, ip, lr}
  4c:	e892 5018 	ldmia.w	r2, {r3, r4, ip, lr}
  50:	e881 5018 	stmia.w	r1, {r3, r4, ip, lr}
  54:	2101      	movs	r1, #1
  56:	6001      	str	r1, [r0, #0]
  58:	e7ff      	b.n	5a <<core::option::Option<T> as core::clone::Clone>::clone+0x5a>
  5a:	b00e      	add	sp, #56	; 0x38
  5c:	bd10      	pop	{r4, pc}

Disassembly of section .text._ZN68_$LT$core..option..Option$LT$T$GT$$u20$as$u20$core..clone..Clone$GT$5clone17h98b2813f17718312E:

00000000 <<core::option::Option<T> as core::clone::Clone>::clone>:
_ZN68_$LT$core..option..Option$LT$T$GT$$u20$as$u20$core..clone..Clone$GT$5clone17h98b2813f17718312E():
/rustc/50a0defd5a93523067ef239936cc2e0755220904/src/libcore/option.rs:148
   0:	b570      	push	{r4, r5, r6, lr}
   2:	b08c      	sub	sp, #48	; 0x30
   4:	460a      	mov	r2, r1
   6:	9103      	str	r1, [sp, #12]
   8:	9903      	ldr	r1, [sp, #12]
   a:	9104      	str	r1, [sp, #16]
   c:	9904      	ldr	r1, [sp, #16]
   e:	6809      	ldr	r1, [r1, #0]
  10:	2900      	cmp	r1, #0
  12:	9202      	str	r2, [sp, #8]
  14:	9001      	str	r0, [sp, #4]
  16:	9100      	str	r1, [sp, #0]
  18:	d005      	beq.n	26 <<core::option::Option<T> as core::clone::Clone>::clone+0x26>
  1a:	e7ff      	b.n	1c <<core::option::Option<T> as core::clone::Clone>::clone+0x1c>
  1c:	9800      	ldr	r0, [sp, #0]
  1e:	2801      	cmp	r0, #1
  20:	d005      	beq.n	2e <<core::option::Option<T> as core::clone::Clone>::clone+0x2e>
  22:	e7ff      	b.n	24 <<core::option::Option<T> as core::clone::Clone>::clone+0x24>
  24:	defe      	udf	#254	; 0xfe
  26:	2000      	movs	r0, #0
  28:	9901      	ldr	r1, [sp, #4]
  2a:	6008      	str	r0, [r1, #0]
  2c:	e011      	b.n	52 <<core::option::Option<T> as core::clone::Clone>::clone+0x52>
/rustc/50a0defd5a93523067ef239936cc2e0755220904/src/libcore/option.rs:156
  2e:	9804      	ldr	r0, [sp, #16]
  30:	3004      	adds	r0, #4
  32:	9005      	str	r0, [sp, #20]
  34:	9905      	ldr	r1, [sp, #20]
  36:	a806      	add	r0, sp, #24
  38:	f7ff fffe 	bl	0 <<heapless::string::String<N> as core::clone::Clone>::clone>
  3c:	e7ff      	b.n	3e <<core::option::Option<T> as core::clone::Clone>::clone+0x3e>
/rustc/50a0defd5a93523067ef239936cc2e0755220904/src/libcore/option.rs:148
  3e:	9801      	ldr	r0, [sp, #4]
  40:	1d01      	adds	r1, r0, #4
  42:	aa06      	add	r2, sp, #24
  44:	e892 5078 	ldmia.w	r2, {r3, r4, r5, r6, ip, lr}
  48:	e881 5078 	stmia.w	r1, {r3, r4, r5, r6, ip, lr}
  4c:	2101      	movs	r1, #1
  4e:	6001      	str	r1, [r0, #0]
  50:	e7ff      	b.n	52 <<core::option::Option<T> as core::clone::Clone>::clone+0x52>
  52:	b00c      	add	sp, #48	; 0x30
  54:	bd70      	pop	{r4, r5, r6, pc}

app-e8778d9de5b9c761.4qg6ekcg1rnvzjtl.rcgu.o:     file format elf32-littlearm

SYMBOL TABLE:
00000000 l    df *ABS*	00000000 4qg6ekcg1rnvzjtl
00000685 l       .debug_str	00000000 
00000d8c l       .debug_str	00000000 
00000d8e l       .debug_str	00000000 
00000e88 l       .debug_str	00000000 
00000e8a l       .debug_str	00000000 
00000f67 l       .debug_str	00000000 
00000f71 l       .debug_str	00000000 
00000fa0 l       .debug_str	00000000 
00000fda l       .debug_str	00000000 
00001002 l       .debug_str	00000000 
0000103c l       .debug_str	00000000 
00000000 l       .debug_str	00000000 
00000041 l       .debug_str	00000000 
00000055 l       .debug_str	00000000 
00000085 l       .debug_str	00000000 
0000008a l       .debug_str	00000000 
00000091 l       .debug_str	00000000 
00000094 l       .debug_str	00000000 
00000099 l       .debug_str	00000000 
0000009e l       .debug_str	00000000 
000000a5 l       .debug_str	00000000 
000000ab l       .debug_str	00000000 
000000b2 l       .debug_str	00000000 
000000b7 l       .debug_str	00000000 
000000c2 l       .debug_str	00000000 
000000cb l       .debug_str	00000000 
000000d0 l       .debug_str	00000000 
000000d6 l       .debug_str	00000000 
000000e2 l       .debug_str	00000000 
000000e8 l       .debug_str	00000000 
000000ed l       .debug_str	00000000 
000000f0 l       .debug_str	00000000 
000000f4 l       .debug_str	00000000 
000000f7 l       .debug_str	00000000 
000000fa l       .debug_str	00000000 
000000fd l       .debug_str	00000000 
00000102 l       .debug_str	00000000 
0000010e l       .debug_str	00000000 
00000113 l       .debug_str	00000000 
0000011a l       .debug_str	00000000 
00000124 l       .debug_str	00000000 
0000012f l       .debug_str	00000000 
0000013c l       .debug_str	00000000 
0000014a l       .debug_str	00000000 
00000154 l       .debug_str	00000000 
00000162 l       .debug_str	00000000 
0000016c l       .debug_str	00000000 
00000175 l       .debug_str	00000000 
00000179 l       .debug_str	00000000 
0000017b l       .debug_str	00000000 
0000017f l       .debug_str	00000000 
0000018b l       .debug_str	00000000 
0000018f l       .debug_str	00000000 
00000195 l       .debug_str	00000000 
00000198 l       .debug_str	00000000 
000001a2 l       .debug_str	00000000 
000001ab l       .debug_str	00000000 
000001b4 l       .debug_str	00000000 
000001b8 l       .debug_str	00000000 
000001ba l       .debug_str	00000000 
000001c1 l       .debug_str	00000000 
000001c5 l       .debug_str	00000000 
000001cc l       .debug_str	00000000 
000001cf l       .debug_str	00000000 
000001d5 l       .debug_str	00000000 
000001e3 l       .debug_str	00000000 
000001e8 l       .debug_str	00000000 
000001f0 l       .debug_str	00000000 
000001f8 l       .debug_str	00000000 
00000202 l       .debug_str	00000000 
00000206 l       .debug_str	00000000 
0000020d l       .debug_str	00000000 
0000021e l       .debug_str	00000000 
00000220 l       .debug_str	00000000 
0000022f l       .debug_str	00000000 
00000231 l       .debug_str	00000000 
0000026a l       .debug_str	00000000 
00000271 l       .debug_str	00000000 
00000278 l       .debug_str	00000000 
00000289 l       .debug_str	00000000 
0000028b l       .debug_str	00000000 
000002ca l       .debug_str	00000000 
000002d2 l       .debug_str	00000000 
00000305 l       .debug_str	00000000 
00000390 l       .debug_str	00000000 
00000467 l       .debug_str	00000000 
0000058a l       .debug_str	00000000 
00000592 l       .debug_str	00000000 
00000597 l       .debug_str	00000000 
0000059d l       .debug_str	00000000 
000005a1 l       .debug_str	00000000 
000005a4 l       .debug_str	00000000 
000005cd l       .debug_str	00000000 
00000603 l       .debug_str	00000000 
00000605 l       .debug_str	00000000 
00000632 l       .debug_str	00000000 
00000635 l       .debug_str	00000000 
000006e2 l       .debug_str	00000000 
00000736 l       .debug_str	00000000 
000007ad l       .debug_str	00000000 
00000831 l       .debug_str	00000000 
000008ac l       .debug_str	00000000 
0000094a l       .debug_str	00000000 
000009f5 l       .debug_str	00000000 
00000a97 l       .debug_str	00000000 
00000b7d l       .debug_str	00000000 
00000c80 l       .debug_str	00000000 
00000d82 l       .debug_str	00000000 
00000d86 l       .debug_str	00000000 
00000000 l    d  .text._ZN5druid22WidgetPod$LT$T$C$W$GT$3new17h8ba74bf1189ade89E	00000000 .text._ZN5druid22WidgetPod$LT$T$C$W$GT$3new17h8ba74bf1189ade89E
00000000 l    d  .text._ZN5druid22WidgetPod$LT$T$C$W$GT$3new17hcb22abb8771fd513E	00000000 .text._ZN5druid22WidgetPod$LT$T$C$W$GT$3new17hcb22abb8771fd513E
00000000 l    d  .debug_loc	00000000 .debug_loc
00000000 l    d  .debug_abbrev	00000000 .debug_abbrev
00000000 l    d  .debug_info	00000000 .debug_info
00000000 l    d  .debug_ranges	00000000 .debug_ranges
00000000 l    d  .debug_frame	00000000 .debug_frame
00000000 l    d  .debug_line	00000000 .debug_line
00000000         *UND*	00000000 .hidden <druid::BaseState as core::default::Default>::default
00000000 g     F .text._ZN5druid22WidgetPod$LT$T$C$W$GT$3new17h8ba74bf1189ade89E	0000006c druid::WidgetPod<T,W>::new
00000000 g     F .text._ZN5druid22WidgetPod$LT$T$C$W$GT$3new17hcb22abb8771fd513E	0000004c druid::WidgetPod<T,W>::new
00000000         *UND*	00000000 __aeabi_memcpy8



Disassembly of section .text._ZN5druid22WidgetPod$LT$T$C$W$GT$3new17h8ba74bf1189ade89E:

00000000 <druid::WidgetPod<T,W>::new>:
_ZN5druid22WidgetPod$LT$T$C$W$GT$3new17h8ba74bf1189ade89E():
/Users/Luppy/mynewt/druid-embedded/druid/src/lib.rs:453
    /// Create a new widget pod.
    ///
    /// In a widget hierarchy, each widget is wrapped in a `WidgetPod`
    /// so it can participate in layout and event flow. The process of
    /// adding a child widget to a container should call this method.
    pub fn new(inner: W) -> WidgetPod<T, W> {
   0:	b510      	push	{r4, lr}
   2:	f5ad 7d16 	sub.w	sp, sp, #600	; 0x258
   6:	aa04      	add	r2, sp, #16
/Users/Luppy/mynewt/druid-embedded/druid/src/lib.rs:455
        WidgetPod {
            state: Default::default(),
   8:	9003      	str	r0, [sp, #12]
   a:	4610      	mov	r0, r2
   c:	9102      	str	r1, [sp, #8]
   e:	f7ff fffe 	bl	0 <<druid::BaseState as core::default::Default>::default>
  12:	e7ff      	b.n	14 <druid::WidgetPod<T,W>::new+0x14>
  14:	2000      	movs	r0, #0
/Users/Luppy/mynewt/druid-embedded/druid/src/lib.rs:456
            old_data: None,
  16:	900f      	str	r0, [sp, #60]	; 0x3c
/Users/Luppy/mynewt/druid-embedded/druid/src/lib.rs:457
            env: None,
  18:	f88d 0047 	strb.w	r0, [sp, #71]	; 0x47
  1c:	a812      	add	r0, sp, #72	; 0x48
  1e:	f44f 7104 	mov.w	r1, #528	; 0x210
/Users/Luppy/mynewt/druid-embedded/druid/src/lib.rs:458
            inner,
  22:	9001      	str	r0, [sp, #4]
  24:	9a02      	ldr	r2, [sp, #8]
  26:	9100      	str	r1, [sp, #0]
  28:	4611      	mov	r1, r2
  2a:	9a00      	ldr	r2, [sp, #0]
  2c:	f7ff fffe 	bl	0 <__aeabi_memcpy8>
  30:	a804      	add	r0, sp, #16
/Users/Luppy/mynewt/druid-embedded/druid/src/lib.rs:454
        WidgetPod {
  32:	9903      	ldr	r1, [sp, #12]
  34:	e8b0 501c 	ldmia.w	r0!, {r2, r3, r4, ip, lr}
  38:	e8a1 501c 	stmia.w	r1!, {r2, r3, r4, ip, lr}
  3c:	e890 501c 	ldmia.w	r0, {r2, r3, r4, ip, lr}
  40:	e881 501c 	stmia.w	r1, {r2, r3, r4, ip, lr}
  44:	980f      	ldr	r0, [sp, #60]	; 0x3c
  46:	9910      	ldr	r1, [sp, #64]	; 0x40
  48:	9a03      	ldr	r2, [sp, #12]
  4a:	f8c2 0238 	str.w	r0, [r2, #568]	; 0x238
  4e:	f8c2 123c 	str.w	r1, [r2, #572]	; 0x23c
  52:	f89d 0047 	ldrb.w	r0, [sp, #71]	; 0x47
  56:	f882 0240 	strb.w	r0, [r2, #576]	; 0x240
  5a:	f102 0028 	add.w	r0, r2, #40	; 0x28
  5e:	9901      	ldr	r1, [sp, #4]
  60:	9a00      	ldr	r2, [sp, #0]
  62:	f7ff fffe 	bl	0 <__aeabi_memcpy8>
/Users/Luppy/mynewt/druid-embedded/druid/src/lib.rs:460
        }
    }
  66:	f50d 7d16 	add.w	sp, sp, #600	; 0x258
  6a:	bd10      	pop	{r4, pc}

Disassembly of section .text._ZN5druid22WidgetPod$LT$T$C$W$GT$3new17hcb22abb8771fd513E:

00000000 <druid::WidgetPod<T,W>::new>:
_ZN5druid22WidgetPod$LT$T$C$W$GT$3new17hcb22abb8771fd513E():
/Users/Luppy/mynewt/druid-embedded/druid/src/lib.rs:453
    pub fn new(inner: W) -> WidgetPod<T, W> {
   0:	b5b0      	push	{r4, r5, r7, lr}
   2:	b092      	sub	sp, #72	; 0x48
   4:	460a      	mov	r2, r1
   6:	9103      	str	r1, [sp, #12]
   8:	a904      	add	r1, sp, #16
/Users/Luppy/mynewt/druid-embedded/druid/src/lib.rs:455
            state: Default::default(),
   a:	9002      	str	r0, [sp, #8]
   c:	4608      	mov	r0, r1
   e:	9201      	str	r2, [sp, #4]
  10:	f7ff fffe 	bl	0 <<druid::BaseState as core::default::Default>::default>
  14:	e7ff      	b.n	16 <druid::WidgetPod<T,W>::new+0x16>
  16:	2000      	movs	r0, #0
/Users/Luppy/mynewt/druid-embedded/druid/src/lib.rs:456
            old_data: None,
  18:	900f      	str	r0, [sp, #60]	; 0x3c
/Users/Luppy/mynewt/druid-embedded/druid/src/lib.rs:457
            env: None,
  1a:	f88d 0047 	strb.w	r0, [sp, #71]	; 0x47
/Users/Luppy/mynewt/druid-embedded/druid/src/lib.rs:458
            inner,
  1e:	9803      	ldr	r0, [sp, #12]
  20:	a904      	add	r1, sp, #16
/Users/Luppy/mynewt/druid-embedded/druid/src/lib.rs:454
        WidgetPod {
  22:	9a02      	ldr	r2, [sp, #8]
  24:	e8b1 5038 	ldmia.w	r1!, {r3, r4, r5, ip, lr}
  28:	e8a2 5038 	stmia.w	r2!, {r3, r4, r5, ip, lr}
  2c:	e891 5038 	ldmia.w	r1, {r3, r4, r5, ip, lr}
  30:	e882 5038 	stmia.w	r2, {r3, r4, r5, ip, lr}
  34:	990f      	ldr	r1, [sp, #60]	; 0x3c
  36:	9a10      	ldr	r2, [sp, #64]	; 0x40
  38:	9b02      	ldr	r3, [sp, #8]
  3a:	6299      	str	r1, [r3, #40]	; 0x28
  3c:	62da      	str	r2, [r3, #44]	; 0x2c
  3e:	f89d 1047 	ldrb.w	r1, [sp, #71]	; 0x47
  42:	f883 1034 	strb.w	r1, [r3, #52]	; 0x34
  46:	6318      	str	r0, [r3, #48]	; 0x30
/Users/Luppy/mynewt/druid-embedded/druid/src/lib.rs:460
    }
  48:	b012      	add	sp, #72	; 0x48
  4a:	bdb0      	pop	{r4, r5, r7, pc}

app-e8778d9de5b9c761.4tqjkmj4gtfz939t.rcgu.o:     file format elf32-littlearm

SYMBOL TABLE:
00000000 l    df *ABS*	00000000 4tqjkmj4gtfz939t
00000986 l       .debug_str	00000000 
000008d0 l       .debug_str	00000000 
000008dc l       .debug_str	00000000 
000008f5 l       .debug_str	00000000 
000008fa l       .debug_str	00000000 
0000090b l       .debug_str	00000000 
00000915 l       .debug_str	00000000 
00000923 l       .debug_str	00000000 
0000092e l       .debug_str	00000000 
00000935 l       .debug_str	00000000 
0000093b l       .debug_str	00000000 
0000093f l       .debug_str	00000000 
00000943 l       .debug_str	00000000 
0000094b l       .debug_str	00000000 
00000962 l       .debug_str	00000000 
000009a2 l       .debug_str	00000000 
000009ac l       .debug_str	00000000 
000009c6 l       .debug_str	00000000 
00000a24 l       .debug_str	00000000 
00000a2f l       .debug_str	00000000 
00000a4c l       .debug_str	00000000 
00000a65 l       .debug_str	00000000 
00000a6f l       .debug_str	00000000 
00000a85 l       .debug_str	00000000 
00000a89 l       .debug_str	00000000 
00000a8f l       .debug_str	00000000 
00000a99 l       .debug_str	00000000 
00000aa4 l       .debug_str	00000000 
00000aad l       .debug_str	00000000 
00000ab8 l       .debug_str	00000000 
00000ac4 l       .debug_str	00000000 
00000acd l       .debug_str	00000000 
00000ad4 l       .debug_str	00000000 
00000adc l       .debug_str	00000000 
00000ae4 l       .debug_str	00000000 
00000aee l       .debug_str	00000000 
00000af4 l       .debug_str	00000000 
00000afb l       .debug_str	00000000 
00000b02 l       .debug_str	00000000 
00000b2f l       .debug_str	00000000 
00000b64 l       .debug_str	00000000 
00000b6a l       .debug_str	00000000 
00000b70 l       .debug_str	00000000 
00000b7f l       .debug_str	00000000 
00000b8f l       .debug_str	00000000 
00000b9f l       .debug_str	00000000 
00000ba7 l       .debug_str	00000000 
00000bd0 l       .debug_str	00000000 
00000c2e l       .debug_str	00000000 
00000c94 l       .debug_str	00000000 
00000c9b l       .debug_str	00000000 
00000ca3 l       .debug_str	00000000 
00000cac l       .debug_str	00000000 
00000cca l       .debug_str	00000000 
00000cda l       .debug_str	00000000 
00000ce8 l       .debug_str	00000000 
00000cf3 l       .debug_str	00000000 
00000d00 l       .debug_str	00000000 
00000d0f l       .debug_str	00000000 
00000d25 l       .debug_str	00000000 
00000d2f l       .debug_str	00000000 
00000d38 l       .debug_str	00000000 
00000d41 l       .debug_str	00000000 
00000d67 l       .debug_str	00000000 
00000d7d l       .debug_str	00000000 
00000d88 l       .debug_str	00000000 
00000d9e l       .debug_str	00000000 
00000da6 l       .debug_str	00000000 
00000dc7 l       .debug_str	00000000 
00000dd0 l       .debug_str	00000000 
00000dd9 l       .debug_str	00000000 
00000de4 l       .debug_str	00000000 
00000dee l       .debug_str	00000000 
00000e15 l       .debug_str	00000000 
00000e2d l       .debug_str	00000000 
00000e37 l       .debug_str	00000000 
00000e5a l       .debug_str	00000000 
00000e61 l       .debug_str	00000000 
00000e66 l       .debug_str	00000000 
00000e8d l       .debug_str	00000000 
00000e92 l       .debug_str	00000000 
00000e98 l       .debug_str	00000000 
00000e9e l       .debug_str	00000000 
00000ea2 l       .debug_str	00000000 
00000eaf l       .debug_str	00000000 
00000eb6 l       .debug_str	00000000 
00000eba l       .debug_str	00000000 
00000ebc l       .debug_str	00000000 
00000ec4 l       .debug_str	00000000 
00000ecb l       .debug_str	00000000 
00000ed1 l       .debug_str	00000000 
00000ed8 l       .debug_str	00000000 
00000ede l       .debug_str	00000000 
00000ee3 l       .debug_str	00000000 
00000ef2 l       .debug_str	00000000 
00000f00 l       .debug_str	00000000 
00000f0a l       .debug_str	00000000 
00000f0f l       .debug_str	00000000 
00000000 l       .debug_str	00000000 
00000041 l       .debug_str	00000000 
00000055 l       .debug_str	00000000 
00000085 l       .debug_str	00000000 
00000089 l       .debug_str	00000000 
00000096 l       .debug_str	00000000 
000000a2 l       .debug_str	00000000 
000000a9 l       .debug_str	00000000 
000000ad l       .debug_str	00000000 
000000b1 l       .debug_str	00000000 
000000b5 l       .debug_str	00000000 
000000ba l       .debug_str	00000000 
000000f1 l       .debug_str	00000000 
000000fd l       .debug_str	00000000 
00000103 l       .debug_str	00000000 
0000013a l       .debug_str	00000000 
00000145 l       .debug_str	00000000 
0000014d l       .debug_str	00000000 
0000014f l       .debug_str	00000000 
00000153 l       .debug_str	00000000 
00000155 l       .debug_str	00000000 
0000015c l       .debug_str	00000000 
0000015f l       .debug_str	00000000 
00000166 l       .debug_str	00000000 
0000016f l       .debug_str	00000000 
00000174 l       .debug_str	00000000 
0000017e l       .debug_str	00000000 
00000192 l       .debug_str	00000000 
00000198 l       .debug_str	00000000 
000001a2 l       .debug_str	00000000 
000001b1 l       .debug_str	00000000 
000001e7 l       .debug_str	00000000 
000001eb l       .debug_str	00000000 
00000219 l       .debug_str	00000000 
00000225 l       .debug_str	00000000 
0000022c l       .debug_str	00000000 
0000022f l       .debug_str	00000000 
00000239 l       .debug_str	00000000 
0000023f l       .debug_str	00000000 
00000244 l       .debug_str	00000000 
0000024b l       .debug_str	00000000 
0000024f l       .debug_str	00000000 
00000254 l       .debug_str	00000000 
00000276 l       .debug_str	00000000 
000002ae l       .debug_str	00000000 
000002b0 l       .debug_str	00000000 
000002b5 l       .debug_str	00000000 
000002b9 l       .debug_str	00000000 
000002f9 l       .debug_str	00000000 
00000300 l       .debug_str	00000000 
00000304 l       .debug_str	00000000 
0000030f l       .debug_str	00000000 
0000031a l       .debug_str	00000000 
00000321 l       .debug_str	00000000 
00000338 l       .debug_str	00000000 
00000340 l       .debug_str	00000000 
0000034a l       .debug_str	00000000 
00000361 l       .debug_str	00000000 
0000036a l       .debug_str	00000000 
000003a1 l       .debug_str	00000000 
000003aa l       .debug_str	00000000 
000003ad l       .debug_str	00000000 
000003b5 l       .debug_str	00000000 
000003b9 l       .debug_str	00000000 
000003c0 l       .debug_str	00000000 
000003c8 l       .debug_str	00000000 
000003dc l       .debug_str	00000000 
0000040f l       .debug_str	00000000 
0000041a l       .debug_str	00000000 
00000450 l       .debug_str	00000000 
00000457 l       .debug_str	00000000 
0000045f l       .debug_str	00000000 
0000046a l       .debug_str	00000000 
00000475 l       .debug_str	00000000 
00000482 l       .debug_str	00000000 
0000048d l       .debug_str	00000000 
00000495 l       .debug_str	00000000 
000004a0 l       .debug_str	00000000 
000004ab l       .debug_str	00000000 
000004b5 l       .debug_str	00000000 
000004c0 l       .debug_str	00000000 
000004cb l       .debug_str	00000000 
000004d8 l       .debug_str	00000000 
000004e4 l       .debug_str	00000000 
000004f1 l       .debug_str	00000000 
000004ff l       .debug_str	00000000 
00000509 l       .debug_str	00000000 
00000516 l       .debug_str	00000000 
00000522 l       .debug_str	00000000 
00000526 l       .debug_str	00000000 
00000529 l       .debug_str	00000000 
0000052c l       .debug_str	00000000 
00000531 l       .debug_str	00000000 
00000537 l       .debug_str	00000000 
0000053e l       .debug_str	00000000 
00000546 l       .debug_str	00000000 
00000550 l       .debug_str	00000000 
00000553 l       .debug_str	00000000 
00000557 l       .debug_str	00000000 
0000055e l       .debug_str	00000000 
0000059c l       .debug_str	00000000 
000005af l       .debug_str	00000000 
000005b2 l       .debug_str	00000000 
000005b4 l       .debug_str	00000000 
000005dc l       .debug_str	00000000 
0000061f l       .debug_str	00000000 
00000637 l       .debug_str	00000000 
00000677 l       .debug_str	00000000 
0000068c l       .debug_str	00000000 
000006c6 l       .debug_str	00000000 
000006d5 l       .debug_str	00000000 
00000714 l       .debug_str	00000000 
00000728 l       .debug_str	00000000 
0000072c l       .debug_str	00000000 
0000072f l       .debug_str	00000000 
00000738 l       .debug_str	00000000 
0000073d l       .debug_str	00000000 
00000747 l       .debug_str	00000000 
0000074c l       .debug_str	00000000 
00000752 l       .debug_str	00000000 
00000757 l       .debug_str	00000000 
0000075c l       .debug_str	00000000 
00000763 l       .debug_str	00000000 
0000076c l       .debug_str	00000000 
00000776 l       .debug_str	00000000 
0000077d l       .debug_str	00000000 
00000783 l       .debug_str	00000000 
00000788 l       .debug_str	00000000 
00000794 l       .debug_str	00000000 
0000079c l       .debug_str	00000000 
000007a5 l       .debug_str	00000000 
000007aa l       .debug_str	00000000 
000007ad l       .debug_str	00000000 
000007b6 l       .debug_str	00000000 
000007bd l       .debug_str	00000000 
000007c2 l       .debug_str	00000000 
000007c7 l       .debug_str	00000000 
000007cd l       .debug_str	00000000 
000007d3 l       .debug_str	00000000 
000007dd l       .debug_str	00000000 
000007e0 l       .debug_str	00000000 
000007e6 l       .debug_str	00000000 
000007f0 l       .debug_str	00000000 
000007f8 l       .debug_str	00000000 
000007fe l       .debug_str	00000000 
00000804 l       .debug_str	00000000 
0000080f l       .debug_str	00000000 
00000818 l       .debug_str	00000000 
0000083b l       .debug_str	00000000 
0000085a l       .debug_str	00000000 
00000881 l       .debug_str	00000000 
00000886 l       .debug_str	00000000 
0000088c l       .debug_str	00000000 
00000892 l       .debug_str	00000000 
000008a1 l       .debug_str	00000000 
000008a8 l       .debug_str	00000000 
000008ac l       .debug_str	00000000 
000008b5 l       .debug_str	00000000 
000008bd l       .debug_str	00000000 
000008c4 l       .debug_str	00000000 
00000000 l     O .rodata..Lanon.bac663b3816e7d91b107f43521ed4537.0	00000012 .Lanon.bac663b3816e7d91b107f43521ed4537.0
00000000 l     O .rodata.cst4	00000004 .Lanon.bac663b3816e7d91b107f43521ed4537.1
00000000 l     O .rodata..Lanon.bac663b3816e7d91b107f43521ed4537.10	00000010 .Lanon.bac663b3816e7d91b107f43521ed4537.10
00000000 l     O .rodata.cst8	00000008 .Lanon.bac663b3816e7d91b107f43521ed4537.11
00000000 l     O .rodata..Lanon.bac663b3816e7d91b107f43521ed4537.12	0000000e .Lanon.bac663b3816e7d91b107f43521ed4537.12
00000000 l     O .rodata..Lanon.bac663b3816e7d91b107f43521ed4537.13	0000000f .Lanon.bac663b3816e7d91b107f43521ed4537.13
00000000 l     O .rodata..Lanon.bac663b3816e7d91b107f43521ed4537.14	00000013 .Lanon.bac663b3816e7d91b107f43521ed4537.14
00000000 l     O .rodata..Lanon.bac663b3816e7d91b107f43521ed4537.15	00000018 .Lanon.bac663b3816e7d91b107f43521ed4537.15
00000000 l     O .rodata..Lanon.bac663b3816e7d91b107f43521ed4537.16	00000018 .Lanon.bac663b3816e7d91b107f43521ed4537.16
00000000 l     O .rodata..Lanon.bac663b3816e7d91b107f43521ed4537.17	00000010 .Lanon.bac663b3816e7d91b107f43521ed4537.17
00000000 l     O .rodata..Lanon.bac663b3816e7d91b107f43521ed4537.18	00000018 .Lanon.bac663b3816e7d91b107f43521ed4537.18
00000000 l     O .rodata..Lanon.bac663b3816e7d91b107f43521ed4537.19	00000018 .Lanon.bac663b3816e7d91b107f43521ed4537.19
00000000 l     O .rodata..Lanon.bac663b3816e7d91b107f43521ed4537.20	00000018 .Lanon.bac663b3816e7d91b107f43521ed4537.20
00000000 l     O .rodata..Lanon.bac663b3816e7d91b107f43521ed4537.21	00000010 .Lanon.bac663b3816e7d91b107f43521ed4537.21
00000000 l     O .rodata..Lanon.bac663b3816e7d91b107f43521ed4537.22	00000018 .Lanon.bac663b3816e7d91b107f43521ed4537.22
00000000 l     O .rodata..Lanon.bac663b3816e7d91b107f43521ed4537.23	00000018 .Lanon.bac663b3816e7d91b107f43521ed4537.23
00000000 l     O .rodata..Lanon.bac663b3816e7d91b107f43521ed4537.24	00000010 .Lanon.bac663b3816e7d91b107f43521ed4537.24
00000000 l     O .rodata..Lanon.bac663b3816e7d91b107f43521ed4537.25	00000010 .Lanon.bac663b3816e7d91b107f43521ed4537.25
00000000 l     O .rodata..Lanon.bac663b3816e7d91b107f43521ed4537.26	00000018 .Lanon.bac663b3816e7d91b107f43521ed4537.26
00000000 l     O .rodata..Lanon.bac663b3816e7d91b107f43521ed4537.27	00000018 .Lanon.bac663b3816e7d91b107f43521ed4537.27
00000000 l     O .rodata..Lanon.bac663b3816e7d91b107f43521ed4537.28	00000010 .Lanon.bac663b3816e7d91b107f43521ed4537.28
00000000 l     O .rodata..Lanon.bac663b3816e7d91b107f43521ed4537.29	00000018 .Lanon.bac663b3816e7d91b107f43521ed4537.29
00000000 l     O .rodata..Lanon.bac663b3816e7d91b107f43521ed4537.30	00000018 .Lanon.bac663b3816e7d91b107f43521ed4537.30
00000000 l     O .rodata..Lanon.bac663b3816e7d91b107f43521ed4537.31	00000010 .Lanon.bac663b3816e7d91b107f43521ed4537.31
00000000 l     O .rodata..Lanon.bac663b3816e7d91b107f43521ed4537.32	00000010 .Lanon.bac663b3816e7d91b107f43521ed4537.32
00000000 l     O .rodata..Lanon.bac663b3816e7d91b107f43521ed4537.33	00000018 .Lanon.bac663b3816e7d91b107f43521ed4537.33
00000000 l     O .rodata..Lanon.bac663b3816e7d91b107f43521ed4537.34	00000018 .Lanon.bac663b3816e7d91b107f43521ed4537.34
00000000 l     O .rodata..Lanon.bac663b3816e7d91b107f43521ed4537.35	00000010 .Lanon.bac663b3816e7d91b107f43521ed4537.35
00000000 l     O .rodata..Lanon.bac663b3816e7d91b107f43521ed4537.36	00000010 .Lanon.bac663b3816e7d91b107f43521ed4537.36
00000000 l     O .rodata..Lanon.bac663b3816e7d91b107f43521ed4537.37	00000018 .Lanon.bac663b3816e7d91b107f43521ed4537.37
00000000 l     O .rodata..Lanon.bac663b3816e7d91b107f43521ed4537.38	00000018 .Lanon.bac663b3816e7d91b107f43521ed4537.38
00000000 l     O .rodata..Lanon.bac663b3816e7d91b107f43521ed4537.39	00000010 .Lanon.bac663b3816e7d91b107f43521ed4537.39
00000000 l     O .rodata..Lanon.bac663b3816e7d91b107f43521ed4537.40	00000010 .Lanon.bac663b3816e7d91b107f43521ed4537.40
00000000 l     O .rodata..Lanon.bac663b3816e7d91b107f43521ed4537.41	00000018 .Lanon.bac663b3816e7d91b107f43521ed4537.41
00000000 l     O .rodata..Lanon.bac663b3816e7d91b107f43521ed4537.42	00000018 .Lanon.bac663b3816e7d91b107f43521ed4537.42
00000000 l     O .rodata..Lanon.bac663b3816e7d91b107f43521ed4537.43	00000010 .Lanon.bac663b3816e7d91b107f43521ed4537.43
00000000 l     O .rodata..Lanon.bac663b3816e7d91b107f43521ed4537.44	00000010 .Lanon.bac663b3816e7d91b107f43521ed4537.44
00000000 l     O .rodata..Lanon.bac663b3816e7d91b107f43521ed4537.45	00000018 .Lanon.bac663b3816e7d91b107f43521ed4537.45
00000000 l     O .rodata..Lanon.bac663b3816e7d91b107f43521ed4537.46	00000018 .Lanon.bac663b3816e7d91b107f43521ed4537.46
00000000 l     O .rodata..Lanon.bac663b3816e7d91b107f43521ed4537.47	00000010 .Lanon.bac663b3816e7d91b107f43521ed4537.47
00000000 l     O .rodata..Lanon.bac663b3816e7d91b107f43521ed4537.48	00000010 .Lanon.bac663b3816e7d91b107f43521ed4537.48
00000000 l     O .rodata..Lanon.bac663b3816e7d91b107f43521ed4537.49	00000010 .Lanon.bac663b3816e7d91b107f43521ed4537.49
00000000 l     O .rodata..Lanon.bac663b3816e7d91b107f43521ed4537.5	00000018 .Lanon.bac663b3816e7d91b107f43521ed4537.5
00000000 l     O .rodata..Lanon.bac663b3816e7d91b107f43521ed4537.50	00000010 .Lanon.bac663b3816e7d91b107f43521ed4537.50
00000000 l     O .rodata..Lanon.bac663b3816e7d91b107f43521ed4537.52	00000018 .Lanon.bac663b3816e7d91b107f43521ed4537.52
00000000 l     O .rodata..Lanon.bac663b3816e7d91b107f43521ed4537.53	00000018 .Lanon.bac663b3816e7d91b107f43521ed4537.53
00000008 l     O .rodata.cst8	00000008 .Lanon.bac663b3816e7d91b107f43521ed4537.54
00000000 l     O .rodata..Lanon.bac663b3816e7d91b107f43521ed4537.55	00000018 .Lanon.bac663b3816e7d91b107f43521ed4537.55
00000010 l     O .rodata.cst8	00000008 .Lanon.bac663b3816e7d91b107f43521ed4537.56
00000000 l     O .rodata..Lanon.bac663b3816e7d91b107f43521ed4537.57	00000018 .Lanon.bac663b3816e7d91b107f43521ed4537.57
00000000 l     O .rodata..Lanon.bac663b3816e7d91b107f43521ed4537.7	00000008 .Lanon.bac663b3816e7d91b107f43521ed4537.7
00000000 l     O .rodata..Lanon.bac663b3816e7d91b107f43521ed4537.8	00000000 .Lanon.bac663b3816e7d91b107f43521ed4537.8
00000000 l     O .bss._ZN3app12touch_sensor10I2C_BUFFER17hfa1944673a76ec70E	00000001 app::touch_sensor::I2C_BUFFER
00000000 l     O .bss._ZN3app12touch_sensor10TOUCH_DATA17hde96d054269a2747E	00000052 app::touch_sensor::TOUCH_DATA
00000000 l     O .bss._ZN3app12touch_sensor11TOUCH_DELAY17habef3bcc5b9c57b6E	00000000 app::touch_sensor::TOUCH_DELAY
00000000 l     O .bss._ZN3app12touch_sensor11TOUCH_EVENT17hefc60bc73e330654E	00000010 app::touch_sensor::TOUCH_EVENT
00000000 l     O .bss._ZN3app12touch_sensor11TOUCH_RESET17hfd29759f2e19be20E	00000004 app::touch_sensor::TOUCH_RESET
00000000 l     F .text._ZN3app12touch_sensor14read_touchdata17ha906c689a3379a60E	000006b0 app::touch_sensor::read_touchdata
00000000 l     F .text._ZN3app12touch_sensor19read_register_range17hc34bf884ffc5ee78E	0000018a app::touch_sensor::read_register_range
00000000 l     F .text._ZN3app12touch_sensor20touch_event_callback17h39d848bfa9959f39E	00000066 app::touch_sensor::touch_event_callback
00000000 l     F .text._ZN3app12touch_sensor23touch_interrupt_handler17h5d764c4f6036dbc5E	00000046 app::touch_sensor::touch_interrupt_handler
00000000 l     O .bss._ZN3app12touch_sensor3buf17h397d658bd6619f2eE	0000003f app::touch_sensor::buf
00000000 l     O .bss._ZN3app12touch_sensor8I2C_DATA17h5562daf71c4aed4eE	00000008 app::touch_sensor::I2C_DATA
00000000 l     O .rodata.str.0	0000001c str.0
00000000 l     O .rodata.str.1	00000021 str.1
00000000 l     O .rodata.str.2	0000001c str.2
00000000 l    d  .text._ZN3app12touch_sensor18start_touch_sensor17hbd67a0ba21d1d764E	00000000 .text._ZN3app12touch_sensor18start_touch_sensor17hbd67a0ba21d1d764E
00000000 l    d  .text._ZN3app12touch_sensor23touch_interrupt_handler17h5d764c4f6036dbc5E	00000000 .text._ZN3app12touch_sensor23touch_interrupt_handler17h5d764c4f6036dbc5E
00000000 l    d  .text._ZN3app12touch_sensor20touch_event_callback17h39d848bfa9959f39E	00000000 .text._ZN3app12touch_sensor20touch_event_callback17h39d848bfa9959f39E
00000000 l    d  .text._ZN3app12touch_sensor14read_touchdata17ha906c689a3379a60E	00000000 .text._ZN3app12touch_sensor14read_touchdata17ha906c689a3379a60E
00000000 l    d  .text._ZN3app12touch_sensor19read_register_range17hc34bf884ffc5ee78E	00000000 .text._ZN3app12touch_sensor19read_register_range17hc34bf884ffc5ee78E
00000000 l    d  .bss._ZN3app12touch_sensor11TOUCH_RESET17hfd29759f2e19be20E	00000000 .bss._ZN3app12touch_sensor11TOUCH_RESET17hfd29759f2e19be20E
00000000 l    d  .bss._ZN3app12touch_sensor11TOUCH_DELAY17habef3bcc5b9c57b6E	00000000 .bss._ZN3app12touch_sensor11TOUCH_DELAY17habef3bcc5b9c57b6E
00000000 l    d  .rodata..Lanon.bac663b3816e7d91b107f43521ed4537.2	00000000 .rodata..Lanon.bac663b3816e7d91b107f43521ed4537.2
00000000 l    d  .rodata..Lanon.bac663b3816e7d91b107f43521ed4537.3	00000000 .rodata..Lanon.bac663b3816e7d91b107f43521ed4537.3
00000000 l    d  .rodata..Lanon.bac663b3816e7d91b107f43521ed4537.4	00000000 .rodata..Lanon.bac663b3816e7d91b107f43521ed4537.4
00000000 l    d  .rodata..Lanon.bac663b3816e7d91b107f43521ed4537.6	00000000 .rodata..Lanon.bac663b3816e7d91b107f43521ed4537.6
00000000 l    d  .rodata..Lanon.bac663b3816e7d91b107f43521ed4537.9	00000000 .rodata..Lanon.bac663b3816e7d91b107f43521ed4537.9
00000000 l    d  .bss._ZN3app12touch_sensor10TOUCH_DATA17hde96d054269a2747E	00000000 .bss._ZN3app12touch_sensor10TOUCH_DATA17hde96d054269a2747E
00000000 l    d  .rodata.str.0	00000000 .rodata.str.0
00000000 l    d  .rodata.str.1	00000000 .rodata.str.1
00000000 l    d  .rodata.str.2	00000000 .rodata.str.2
00000000 l    d  .bss._ZN3app12touch_sensor3buf17h397d658bd6619f2eE	00000000 .bss._ZN3app12touch_sensor3buf17h397d658bd6619f2eE
00000000 l    d  .bss._ZN3app12touch_sensor11TOUCH_EVENT17hefc60bc73e330654E	00000000 .bss._ZN3app12touch_sensor11TOUCH_EVENT17hefc60bc73e330654E
00000000 l    d  .rodata..Lanon.bac663b3816e7d91b107f43521ed4537.51	00000000 .rodata..Lanon.bac663b3816e7d91b107f43521ed4537.51
00000000 l    d  .bss._ZN3app12touch_sensor8I2C_DATA17h5562daf71c4aed4eE	00000000 .bss._ZN3app12touch_sensor8I2C_DATA17h5562daf71c4aed4eE
00000000 l    d  .bss._ZN3app12touch_sensor10I2C_BUFFER17hfa1944673a76ec70E	00000000 .bss._ZN3app12touch_sensor10I2C_BUFFER17hfa1944673a76ec70E
00000000 l    d  .debug_abbrev	00000000 .debug_abbrev
00000000 l    d  .debug_info	00000000 .debug_info
00000000 l    d  .debug_ranges	00000000 .debug_ranges
00000000 l    d  .debug_frame	00000000 .debug_frame
00000000 l    d  .debug_line	00000000 .debug_line
00000000         *UND*	00000000 piet_embedded_graphics::display::show_touch
00000000 g     F .text._ZN3app12touch_sensor18start_touch_sensor17hbd67a0ba21d1d764E	00000268 .hidden app::touch_sensor::start_touch_sensor
00000000         *UND*	00000000 <&T as core::fmt::Debug>::fmt
00000000         *UND*	00000000 core::fmt::ArgumentV1::new
00000000         *UND*	00000000 core::fmt::ArgumentV1::new
00000000         *UND*	00000000 .hidden core::fmt::Arguments::new_v1
00000000         *UND*	00000000 core::ptr::null_mut
00000000         *UND*	00000000 core::iter::range::<impl core::iter::traits::iterator::Iterator for core::ops::range::Range<A>>::next
00000000         *UND*	00000000 core::slice::<impl [T]>::as_mut_ptr
00000000         *UND*	00000000 core::slice::<impl [T]>::len
00000000         *UND*	00000000 core::result::Result<T,E>::expect
00000000         *UND*	00000000 core::result::Result<T,E>::expect
00000000         *UND*	00000000 core::panicking::panic_bounds_check
00000000         *UND*	00000000 core::panicking::panic
00000000         *UND*	00000000 core::panicking::panic_fmt
00000000         *UND*	00000000 <T as core::convert::From<T>>::from
00000000         *UND*	00000000 <core::fmt::Arguments as core::fmt::Display>::fmt
00000000         *UND*	00000000 <I as core::iter::traits::collect::IntoIterator>::into_iter
00000000         *UND*	00000000 mynewt::hal::GPIO::init
00000000         *UND*	00000000 mynewt::sys::console::print
00000000         *UND*	00000000 mynewt::kernel::os::eventq_dflt_get
00000000         *UND*	00000000 <core::result::Result<T,E> as core::ops::try::Try>::from_error
00000000         *UND*	00000000 <core::result::Result<T,E> as core::ops::try::Try>::into_result
00000000         *UND*	00000000 <mynewt::hal::GPIO as embedded_hal::digital::v2::OutputPin>::set_low
00000000         *UND*	00000000 <mynewt::hal::GPIO as embedded_hal::digital::v2::OutputPin>::set_high
00000000         *UND*	00000000 <mynewt::hal::Delay as embedded_hal::blocking::delay::DelayMs<u8>>::delay_ms
00000000         *UND*	00000000 __aeabi_memclr
00000000         *UND*	00000000 __aeabi_memcpy
00000000         *UND*	00000000 hal_gpio_irq_enable
00000000         *UND*	00000000 hal_gpio_irq_init
00000000         *UND*	00000000 hal_i2c_master_read
00000000         *UND*	00000000 hal_i2c_master_write
00000000         *UND*	00000000 os_eventq_put



Disassembly of section .text._ZN3app12touch_sensor18start_touch_sensor17hbd67a0ba21d1d764E:

00000000 <app::touch_sensor::start_touch_sensor>:
_ZN3app12touch_sensor18start_touch_sensor17hbd67a0ba21d1d764E():
/Users/Luppy/mynewt/stm32bluepill-mynewt-sensor/rust/app/src/touch_sensor.rs:38
/// ```rust
/// let peripherals = nrf52::Peripherals::take().unwrap();
/// let nfcpins = peripherals.UICR.nfcpins.read().bits();
/// console::print("nfcpins = "); console::printhex(nfcpins as u8); console::print("\n");
/// ```
pub fn start_touch_sensor() -> MynewtResult<()> {
   0:	b5b0      	push	{r4, r5, r7, lr}
   2:	b0bc      	sub	sp, #240	; 0xf0
/Users/Luppy/mynewt/stm32bluepill-mynewt-sensor/rust/app/src/touch_sensor.rs:39
    console::print("Rust touch sensor\n");
   4:	f240 0000 	movw	r0, #0
   8:	f2c0 0000 	movt	r0, #0
   c:	2112      	movs	r1, #18
   e:	f7ff fffe 	bl	0 <mynewt::sys::console::print>
  12:	e7ff      	b.n	2 <app::touch_sensor::start_touch_sensor+0x2>
/Users/Luppy/mynewt/stm32bluepill-mynewt-sensor/rust/app/src/touch_sensor.rs:42

    //  Init GPIO for the Reset Pin
    unsafe { TOUCH_RESET.init(TOUCH_RESET_PIN) ? };
  14:	f240 0000 	movw	r0, #0
  18:	f2c0 0000 	movt	r0, #0
  1c:	210a      	movs	r1, #10
  1e:	f7ff fffe 	bl	0 <mynewt::hal::GPIO::init>
  22:	9010      	str	r0, [sp, #64]	; 0x40
  24:	e7ff      	b.n	26 <app::touch_sensor::start_touch_sensor+0x26>
  26:	9810      	ldr	r0, [sp, #64]	; 0x40
  28:	f7ff fffe 	bl	0 <<core::result::Result<T,E> as core::ops::try::Try>::into_result>
  2c:	9012      	str	r0, [sp, #72]	; 0x48
  2e:	e7ff      	b.n	30 <app::touch_sensor::start_touch_sensor+0x30>
  30:	9812      	ldr	r0, [sp, #72]	; 0x48
  32:	1e41      	subs	r1, r0, #1
  34:	bf18      	it	ne
  36:	2101      	movne	r1, #1
  38:	2801      	cmp	r0, #1
  3a:	910f      	str	r1, [sp, #60]	; 0x3c
  3c:	d015      	beq.n	6a <app::touch_sensor::start_touch_sensor+0x6a>
  3e:	e7ff      	b.n	40 <app::touch_sensor::start_touch_sensor+0x40>
  40:	980f      	ldr	r0, [sp, #60]	; 0x3c
  42:	2801      	cmp	r0, #1
  44:	d001      	beq.n	4a <app::touch_sensor::start_touch_sensor+0x4a>
  46:	e7ff      	b.n	48 <app::touch_sensor::start_touch_sensor+0x48>
/Users/Luppy/mynewt/stm32bluepill-mynewt-sensor/rust/app/src/touch_sensor.rs:68
    assert_eq!(rc, 0, "IRQ init fail");

    //  Start monitoring for touch controller interrupts
    unsafe { hal::hal_gpio_irq_enable(TOUCH_INTERRUPT_PIN) };
    Ok(())
}
  48:	defe      	udf	#254	; 0xfe
/Users/Luppy/mynewt/stm32bluepill-mynewt-sensor/rust/app/src/touch_sensor.rs:42
    unsafe { TOUCH_RESET.init(TOUCH_RESET_PIN) ? };
  4a:	9812      	ldr	r0, [sp, #72]	; 0x48
  4c:	9013      	str	r0, [sp, #76]	; 0x4c
  4e:	9813      	ldr	r0, [sp, #76]	; 0x4c
  50:	f7ff fffe 	bl	0 <<T as core::convert::From<T>>::from>
  54:	900e      	str	r0, [sp, #56]	; 0x38
  56:	e7ff      	b.n	58 <app::touch_sensor::start_touch_sensor+0x58>
  58:	980e      	ldr	r0, [sp, #56]	; 0x38
  5a:	f7ff fffe 	bl	0 <<core::result::Result<T,E> as core::ops::try::Try>::from_error>
  5e:	9011      	str	r0, [sp, #68]	; 0x44
  60:	e7ff      	b.n	62 <app::touch_sensor::start_touch_sensor+0x62>
  62:	e7ff      	b.n	64 <app::touch_sensor::start_touch_sensor+0x64>
/Users/Luppy/mynewt/stm32bluepill-mynewt-sensor/rust/app/src/touch_sensor.rs:68
}
  64:	9811      	ldr	r0, [sp, #68]	; 0x44
  66:	b03c      	add	sp, #240	; 0xf0
  68:	bdb0      	pop	{r4, r5, r7, pc}
/Users/Luppy/mynewt/stm32bluepill-mynewt-sensor/rust/app/src/touch_sensor.rs:46
        TOUCH_RESET.set_low() ? ;
  6a:	f240 0000 	movw	r0, #0
  6e:	f2c0 0000 	movt	r0, #0
  72:	f7ff fffe 	bl	0 <<mynewt::hal::GPIO as embedded_hal::digital::v2::OutputPin>::set_low>
  76:	900d      	str	r0, [sp, #52]	; 0x34
  78:	e7ff      	b.n	7a <app::touch_sensor::start_touch_sensor+0x7a>
  7a:	980d      	ldr	r0, [sp, #52]	; 0x34
  7c:	f7ff fffe 	bl	0 <<core::result::Result<T,E> as core::ops::try::Try>::into_result>
  80:	9015      	str	r0, [sp, #84]	; 0x54
  82:	e7ff      	b.n	84 <app::touch_sensor::start_touch_sensor+0x84>
  84:	9815      	ldr	r0, [sp, #84]	; 0x54
  86:	1e41      	subs	r1, r0, #1
  88:	bf18      	it	ne
  8a:	2101      	movne	r1, #1
  8c:	2801      	cmp	r0, #1
  8e:	910c      	str	r1, [sp, #48]	; 0x30
  90:	d011      	beq.n	b6 <app::touch_sensor::start_touch_sensor+0xb6>
  92:	e7ff      	b.n	94 <app::touch_sensor::start_touch_sensor+0x94>
  94:	980c      	ldr	r0, [sp, #48]	; 0x30
  96:	2801      	cmp	r0, #1
  98:	d1d6      	bne.n	48 <app::touch_sensor::start_touch_sensor+0x48>
  9a:	e7ff      	b.n	9c <app::touch_sensor::start_touch_sensor+0x9c>
  9c:	9815      	ldr	r0, [sp, #84]	; 0x54
  9e:	9016      	str	r0, [sp, #88]	; 0x58
  a0:	9816      	ldr	r0, [sp, #88]	; 0x58
  a2:	f7ff fffe 	bl	0 <<T as core::convert::From<T>>::from>
  a6:	900b      	str	r0, [sp, #44]	; 0x2c
  a8:	e7ff      	b.n	aa <app::touch_sensor::start_touch_sensor+0xaa>
  aa:	980b      	ldr	r0, [sp, #44]	; 0x2c
  ac:	f7ff fffe 	bl	0 <<core::result::Result<T,E> as core::ops::try::Try>::from_error>
  b0:	9011      	str	r0, [sp, #68]	; 0x44
  b2:	e7ff      	b.n	b4 <app::touch_sensor::start_touch_sensor+0xb4>
  b4:	e7d6      	b.n	64 <app::touch_sensor::start_touch_sensor+0x64>
/Users/Luppy/mynewt/stm32bluepill-mynewt-sensor/rust/app/src/touch_sensor.rs:47
        TOUCH_DELAY.delay_ms(20);
  b6:	f240 0000 	movw	r0, #0
  ba:	f2c0 0000 	movt	r0, #0
  be:	2114      	movs	r1, #20
  c0:	f7ff fffe 	bl	0 <<mynewt::hal::Delay as embedded_hal::blocking::delay::DelayMs<u8>>::delay_ms>
  c4:	e7ff      	b.n	2 <app::touch_sensor::start_touch_sensor+0x2>
/Users/Luppy/mynewt/stm32bluepill-mynewt-sensor/rust/app/src/touch_sensor.rs:48
        TOUCH_RESET.set_high() ? ;
  c6:	f240 0000 	movw	r0, #0
  ca:	f2c0 0000 	movt	r0, #0
  ce:	f7ff fffe 	bl	0 <<mynewt::hal::GPIO as embedded_hal::digital::v2::OutputPin>::set_high>
  d2:	900a      	str	r0, [sp, #40]	; 0x28
  d4:	e7ff      	b.n	d6 <app::touch_sensor::start_touch_sensor+0xd6>
  d6:	980a      	ldr	r0, [sp, #40]	; 0x28
  d8:	f7ff fffe 	bl	0 <<core::result::Result<T,E> as core::ops::try::Try>::into_result>
  dc:	9018      	str	r0, [sp, #96]	; 0x60
  de:	e7ff      	b.n	e0 <app::touch_sensor::start_touch_sensor+0xe0>
  e0:	9818      	ldr	r0, [sp, #96]	; 0x60
  e2:	1e41      	subs	r1, r0, #1
  e4:	bf18      	it	ne
  e6:	2101      	movne	r1, #1
  e8:	2801      	cmp	r0, #1
  ea:	9109      	str	r1, [sp, #36]	; 0x24
  ec:	d011      	beq.n	112 <app::touch_sensor::start_touch_sensor+0x112>
  ee:	e7ff      	b.n	f0 <app::touch_sensor::start_touch_sensor+0xf0>
  f0:	9809      	ldr	r0, [sp, #36]	; 0x24
  f2:	2801      	cmp	r0, #1
  f4:	d1a8      	bne.n	48 <app::touch_sensor::start_touch_sensor+0x48>
  f6:	e7ff      	b.n	f8 <app::touch_sensor::start_touch_sensor+0xf8>
  f8:	9818      	ldr	r0, [sp, #96]	; 0x60
  fa:	9019      	str	r0, [sp, #100]	; 0x64
  fc:	9819      	ldr	r0, [sp, #100]	; 0x64
  fe:	f7ff fffe 	bl	0 <<T as core::convert::From<T>>::from>
 102:	9008      	str	r0, [sp, #32]
 104:	e7ff      	b.n	106 <app::touch_sensor::start_touch_sensor+0x106>
 106:	9808      	ldr	r0, [sp, #32]
 108:	f7ff fffe 	bl	0 <<core::result::Result<T,E> as core::ops::try::Try>::from_error>
 10c:	9011      	str	r0, [sp, #68]	; 0x44
 10e:	e7ff      	b.n	110 <app::touch_sensor::start_touch_sensor+0x110>
 110:	e7a8      	b.n	64 <app::touch_sensor::start_touch_sensor+0x64>
/Users/Luppy/mynewt/stm32bluepill-mynewt-sensor/rust/app/src/touch_sensor.rs:49
        TOUCH_DELAY.delay_ms(200); TOUCH_DELAY.delay_ms(200);    
 112:	f240 0000 	movw	r0, #0
 116:	f2c0 0000 	movt	r0, #0
 11a:	21c8      	movs	r1, #200	; 0xc8
 11c:	f7ff fffe 	bl	0 <<mynewt::hal::Delay as embedded_hal::blocking::delay::DelayMs<u8>>::delay_ms>
 120:	e7ff      	b.n	2 <app::touch_sensor::start_touch_sensor+0x2>
 122:	f240 0000 	movw	r0, #0
 126:	f2c0 0000 	movt	r0, #0
 12a:	21c8      	movs	r1, #200	; 0xc8
 12c:	f7ff fffe 	bl	0 <<mynewt::hal::Delay as embedded_hal::blocking::delay::DelayMs<u8>>::delay_ms>
 130:	e7ff      	b.n	2 <app::touch_sensor::start_touch_sensor+0x2>
/Users/Luppy/mynewt/stm32bluepill-mynewt-sensor/rust/app/src/touch_sensor.rs:53
    unsafe { TOUCH_EVENT.ev_cb = Some( touch_event_callback ) };
 132:	f240 0000 	movw	r0, #0
 136:	f2c0 0000 	movt	r0, #0
 13a:	f240 0100 	movw	r1, #0
 13e:	f2c0 0100 	movt	r1, #0
 142:	6041      	str	r1, [r0, #4]
/Users/Luppy/mynewt/stm32bluepill-mynewt-sensor/rust/app/src/touch_sensor.rs:58
        Some( touch_interrupt_handler ),  //  Call `touch_interrupt_handler()` upon detecting interrupt
 144:	f240 0000 	movw	r0, #0
 148:	f2c0 0000 	movt	r0, #0
 14c:	901c      	str	r0, [sp, #112]	; 0x70
/Users/Luppy/mynewt/stm32bluepill-mynewt-sensor/rust/app/src/touch_sensor.rs:59
        core::ptr::null_mut(),            //  No arguments for `touch_interrupt_handler()`
 14e:	f7ff fffe 	bl	0 <core::ptr::null_mut>
 152:	9007      	str	r0, [sp, #28]
 154:	e7ff      	b.n	156 <app::touch_sensor::start_touch_sensor+0x156>
/Users/Luppy/mynewt/stm32bluepill-mynewt-sensor/rust/app/src/touch_sensor.rs:56
    let rc = unsafe { hal::hal_gpio_irq_init(
 156:	991c      	ldr	r1, [sp, #112]	; 0x70
 158:	4668      	mov	r0, sp
 15a:	2201      	movs	r2, #1
 15c:	6002      	str	r2, [r0, #0]
 15e:	201c      	movs	r0, #28
 160:	2302      	movs	r3, #2
 162:	9a07      	ldr	r2, [sp, #28]
 164:	f7ff fffe 	bl	0 <hal_gpio_irq_init>
 168:	901b      	str	r0, [sp, #108]	; 0x6c
 16a:	e7ff      	b.n	16c <app::touch_sensor::start_touch_sensor+0x16c>
 16c:	a81b      	add	r0, sp, #108	; 0x6c
/Users/Luppy/mynewt/stm32bluepill-mynewt-sensor/rust/app/src/touch_sensor.rs:63
    assert_eq!(rc, 0, "IRQ init fail");
 16e:	901d      	str	r0, [sp, #116]	; 0x74
 170:	f240 0000 	movw	r0, #0
 174:	f2c0 0000 	movt	r0, #0
 178:	901e      	str	r0, [sp, #120]	; 0x78
 17a:	981d      	ldr	r0, [sp, #116]	; 0x74
 17c:	901f      	str	r0, [sp, #124]	; 0x7c
 17e:	981e      	ldr	r0, [sp, #120]	; 0x78
 180:	9020      	str	r0, [sp, #128]	; 0x80
 182:	981f      	ldr	r0, [sp, #124]	; 0x7c
 184:	6800      	ldr	r0, [r0, #0]
 186:	9920      	ldr	r1, [sp, #128]	; 0x80
 188:	6809      	ldr	r1, [r1, #0]
 18a:	4288      	cmp	r0, r1
 18c:	d014      	beq.n	1b8 <app::touch_sensor::start_touch_sensor+0x1b8>
 18e:	e7ff      	b.n	190 <app::touch_sensor::start_touch_sensor+0x190>
 190:	981f      	ldr	r0, [sp, #124]	; 0x7c
 192:	9030      	str	r0, [sp, #192]	; 0xc0
 194:	9820      	ldr	r0, [sp, #128]	; 0x80
 196:	9031      	str	r0, [sp, #196]	; 0xc4
 198:	4668      	mov	r0, sp
 19a:	2100      	movs	r1, #0
 19c:	6001      	str	r1, [r0, #0]
 19e:	f240 0100 	movw	r1, #0
 1a2:	f2c0 0100 	movt	r1, #0
 1a6:	f240 0300 	movw	r3, #0
 1aa:	f2c0 0300 	movt	r3, #0
 1ae:	a832      	add	r0, sp, #200	; 0xc8
 1b0:	2201      	movs	r2, #1
 1b2:	f7ff fffe 	bl	0 <core::fmt::Arguments::new_v1>
 1b6:	e003      	b.n	1c0 <app::touch_sensor::start_touch_sensor+0x1c0>
 1b8:	201c      	movs	r0, #28
/Users/Luppy/mynewt/stm32bluepill-mynewt-sensor/rust/app/src/touch_sensor.rs:66
    unsafe { hal::hal_gpio_irq_enable(TOUCH_INTERRUPT_PIN) };
 1ba:	f7ff fffe 	bl	0 <hal_gpio_irq_enable>
 1be:	e04e      	b.n	25e <app::touch_sensor::start_touch_sensor+0x25e>
 1c0:	a830      	add	r0, sp, #192	; 0xc0
/Users/Luppy/mynewt/stm32bluepill-mynewt-sensor/rust/app/src/touch_sensor.rs:63
    assert_eq!(rc, 0, "IRQ init fail");
 1c2:	902d      	str	r0, [sp, #180]	; 0xb4
 1c4:	a831      	add	r0, sp, #196	; 0xc4
 1c6:	902e      	str	r0, [sp, #184]	; 0xb8
 1c8:	a832      	add	r0, sp, #200	; 0xc8
 1ca:	902f      	str	r0, [sp, #188]	; 0xbc
 1cc:	982d      	ldr	r0, [sp, #180]	; 0xb4
 1ce:	9038      	str	r0, [sp, #224]	; 0xe0
 1d0:	982e      	ldr	r0, [sp, #184]	; 0xb8
 1d2:	9039      	str	r0, [sp, #228]	; 0xe4
 1d4:	982f      	ldr	r0, [sp, #188]	; 0xbc
 1d6:	903a      	str	r0, [sp, #232]	; 0xe8
 1d8:	9838      	ldr	r0, [sp, #224]	; 0xe0
 1da:	f240 0100 	movw	r1, #0
 1de:	f2c0 0100 	movt	r1, #0
 1e2:	f7ff fffe 	bl	0 <core::fmt::ArgumentV1::new>
 1e6:	9006      	str	r0, [sp, #24]
 1e8:	9105      	str	r1, [sp, #20]
 1ea:	e7ff      	b.n	1ec <app::touch_sensor::start_touch_sensor+0x1ec>
 1ec:	9839      	ldr	r0, [sp, #228]	; 0xe4
 1ee:	f240 0100 	movw	r1, #0
 1f2:	f2c0 0100 	movt	r1, #0
 1f6:	f7ff fffe 	bl	0 <core::fmt::ArgumentV1::new>
 1fa:	9004      	str	r0, [sp, #16]
 1fc:	9103      	str	r1, [sp, #12]
 1fe:	e7ff      	b.n	200 <app::touch_sensor::start_touch_sensor+0x200>
 200:	983a      	ldr	r0, [sp, #232]	; 0xe8
 202:	f240 0100 	movw	r1, #0
 206:	f2c0 0100 	movt	r1, #0
 20a:	f7ff fffe 	bl	0 <core::fmt::ArgumentV1::new>
 20e:	9002      	str	r0, [sp, #8]
 210:	9101      	str	r1, [sp, #4]
 212:	e7ff      	b.n	214 <app::touch_sensor::start_touch_sensor+0x214>
 214:	9806      	ldr	r0, [sp, #24]
 216:	9027      	str	r0, [sp, #156]	; 0x9c
 218:	9905      	ldr	r1, [sp, #20]
 21a:	9128      	str	r1, [sp, #160]	; 0xa0
 21c:	9a04      	ldr	r2, [sp, #16]
 21e:	9229      	str	r2, [sp, #164]	; 0xa4
 220:	9b03      	ldr	r3, [sp, #12]
 222:	932a      	str	r3, [sp, #168]	; 0xa8
 224:	f8dd c008 	ldr.w	ip, [sp, #8]
 228:	f8cd c0ac 	str.w	ip, [sp, #172]	; 0xac
 22c:	f8dd e004 	ldr.w	lr, [sp, #4]
 230:	f8cd e0b0 	str.w	lr, [sp, #176]	; 0xb0
 234:	466c      	mov	r4, sp
 236:	2503      	movs	r5, #3
 238:	6025      	str	r5, [r4, #0]
 23a:	f240 0100 	movw	r1, #0
 23e:	f2c0 0100 	movt	r1, #0
 242:	a821      	add	r0, sp, #132	; 0x84
 244:	ab27      	add	r3, sp, #156	; 0x9c
 246:	462a      	mov	r2, r5
 248:	f7ff fffe 	bl	0 <core::fmt::Arguments::new_v1>
 24c:	e7ff      	b.n	2 <app::touch_sensor::start_touch_sensor+0x2>
 24e:	f240 0100 	movw	r1, #0
 252:	f2c0 0100 	movt	r1, #0
 256:	a821      	add	r0, sp, #132	; 0x84
 258:	f7ff fffe 	bl	0 <core::panicking::panic_fmt>
 25c:	defe      	udf	#254	; 0xfe
 25e:	2000      	movs	r0, #0
/Users/Luppy/mynewt/stm32bluepill-mynewt-sensor/rust/app/src/touch_sensor.rs:67
    Ok(())
 260:	9011      	str	r0, [sp, #68]	; 0x44
 262:	2001      	movs	r0, #1
 264:	9011      	str	r0, [sp, #68]	; 0x44
/Users/Luppy/mynewt/stm32bluepill-mynewt-sensor/rust/app/src/touch_sensor.rs:68
}
 266:	e6fd      	b.n	64 <app::touch_sensor::start_touch_sensor+0x64>

Disassembly of section .text._ZN3app12touch_sensor23touch_interrupt_handler17h5d764c4f6036dbc5E:

00000000 <app::touch_sensor::touch_interrupt_handler>:
_ZN3app12touch_sensor23touch_interrupt_handler17h5d764c4f6036dbc5E():
/Users/Luppy/mynewt/stm32bluepill-mynewt-sensor/rust/app/src/touch_sensor.rs:71

/// Interrupt handler for the touch controller, triggered when a touch is detected
extern "C" fn touch_interrupt_handler(arg: *mut core::ffi::c_void) {
   0:	b580      	push	{r7, lr}
   2:	b086      	sub	sp, #24
   4:	4601      	mov	r1, r0
   6:	9002      	str	r0, [sp, #8]
/Users/Luppy/mynewt/stm32bluepill-mynewt-sensor/rust/app/src/touch_sensor.rs:73
    //  We forward a touch event to the Default Event Queue for deferred processing.  Don't do any processing here.
    unsafe { TOUCH_EVENT.ev_arg = arg };
   8:	9802      	ldr	r0, [sp, #8]
   a:	f240 0200 	movw	r2, #0
   e:	f2c0 0200 	movt	r2, #0
  12:	6090      	str	r0, [r2, #8]
  14:	a804      	add	r0, sp, #16
/Users/Luppy/mynewt/stm32bluepill-mynewt-sensor/rust/app/src/touch_sensor.rs:75
    //  Fetch the Default Event Queue. TODO: Use dedicated Event Queue for higher priority processing.
    let queue = os::eventq_dflt_get()
  16:	9101      	str	r1, [sp, #4]
  18:	f7ff fffe 	bl	0 <mynewt::kernel::os::eventq_dflt_get>
  1c:	e7ff      	b.n	2 <app::touch_sensor::touch_interrupt_handler+0x2>
  1e:	f240 0100 	movw	r1, #0
  22:	f2c0 0100 	movt	r1, #0
  26:	a804      	add	r0, sp, #16
  28:	2208      	movs	r2, #8
  2a:	f7ff fffe 	bl	0 <core::result::Result<T,E>::expect>
  2e:	9003      	str	r0, [sp, #12]
  30:	e7ff      	b.n	32 <app::touch_sensor::touch_interrupt_handler+0x32>
/Users/Luppy/mynewt/stm32bluepill-mynewt-sensor/rust/app/src/touch_sensor.rs:77
        .expect("GET fail");
	unsafe { os::os_eventq_put(queue, &mut TOUCH_EVENT) };  //  Trigger the callback function `touch_event_callback()`
  32:	9803      	ldr	r0, [sp, #12]
  34:	f240 0100 	movw	r1, #0
  38:	f2c0 0100 	movt	r1, #0
  3c:	f7ff fffe 	bl	0 <os_eventq_put>
  40:	e7ff      	b.n	42 <app::touch_sensor::touch_interrupt_handler+0x42>
/Users/Luppy/mynewt/stm32bluepill-mynewt-sensor/rust/app/src/touch_sensor.rs:78
}
  42:	b006      	add	sp, #24
  44:	bd80      	pop	{r7, pc}

Disassembly of section .text._ZN3app12touch_sensor20touch_event_callback17h39d848bfa9959f39E:

00000000 <app::touch_sensor::touch_event_callback>:
_ZN3app12touch_sensor20touch_event_callback17h39d848bfa9959f39E():
/Users/Luppy/mynewt/stm32bluepill-mynewt-sensor/rust/app/src/touch_sensor.rs:81

/// Callback for the touch event that is triggered when a touch is detected
extern "C" fn touch_event_callback(_event: *mut os_event) {
   0:	b580      	push	{r7, lr}
   2:	b086      	sub	sp, #24
   4:	4601      	mov	r1, r0
   6:	9005      	str	r0, [sp, #20]
/Users/Luppy/mynewt/stm32bluepill-mynewt-sensor/rust/app/src/touch_sensor.rs:85
    //  console::printhex(unsafe { os::os_time_get() } as u8); console::print(" touch\n");
    unsafe { 
        //  Fetch the touch data from the touch controller
        read_touchdata(&mut TOUCH_DATA)
   8:	f240 0000 	movw	r0, #0
   c:	f2c0 0000 	movt	r0, #0
  10:	9104      	str	r1, [sp, #16]
  12:	f7ff fffe 	bl	0 <app::touch_sensor::touch_event_callback>
  16:	9003      	str	r0, [sp, #12]
  18:	e7ff      	b.n	1a <app::touch_sensor::touch_event_callback+0x1a>
  1a:	f240 0100 	movw	r1, #0
  1e:	f2c0 0100 	movt	r1, #0
  22:	220e      	movs	r2, #14
  24:	9803      	ldr	r0, [sp, #12]
  26:	f7ff fffe 	bl	0 <core::result::Result<T,E>::expect>
  2a:	e7ff      	b.n	2c <app::touch_sensor::touch_event_callback+0x2c>
/Users/Luppy/mynewt/stm32bluepill-mynewt-sensor/rust/app/src/touch_sensor.rs:89
            .expect("touchdata fail");
        //  Display the touch data
        druid::show_touch(
            TOUCH_DATA.touches[0].x,
  2c:	e7ff      	b.n	2e <app::touch_sensor::touch_event_callback+0x2e>
  2e:	f240 0000 	movw	r0, #0
  32:	f2c0 0000 	movt	r0, #0
  36:	8800      	ldrh	r0, [r0, #0]
/Users/Luppy/mynewt/stm32bluepill-mynewt-sensor/rust/app/src/touch_sensor.rs:90
            TOUCH_DATA.touches[0].y
  38:	9002      	str	r0, [sp, #8]
  3a:	e7ff      	b.n	3c <app::touch_sensor::touch_event_callback+0x3c>
  3c:	f240 0000 	movw	r0, #0
  40:	f2c0 0000 	movt	r0, #0
/Users/Luppy/mynewt/stm32bluepill-mynewt-sensor/rust/app/src/touch_sensor.rs:88
        druid::show_touch(
  44:	8841      	ldrh	r1, [r0, #2]
  46:	9802      	ldr	r0, [sp, #8]
  48:	f7ff fffe 	bl	0 <piet_embedded_graphics::display::show_touch>
  4c:	9001      	str	r0, [sp, #4]
  4e:	e7ff      	b.n	50 <app::touch_sensor::touch_event_callback+0x50>
  50:	f240 0100 	movw	r1, #0
  54:	f2c0 0100 	movt	r1, #0
  58:	220f      	movs	r2, #15
  5a:	9801      	ldr	r0, [sp, #4]
  5c:	f7ff fffe 	bl	0 <core::result::Result<T,E>::expect>
  60:	e7ff      	b.n	62 <app::touch_sensor::touch_event_callback+0x62>
/Users/Luppy/mynewt/stm32bluepill-mynewt-sensor/rust/app/src/touch_sensor.rs:97
    }
    //  Disable the console output because it slows down the rendering
    //  console::printint(unsafe { TOUCH_DATA.touches[0].x } as i32); console::print(", ");
    //  console::printint(unsafe { TOUCH_DATA.touches[0].y } as i32); console::print("\n");
    //  console::flush();   
}
  62:	b006      	add	sp, #24
  64:	bd80      	pop	{r7, pc}

Disassembly of section .text._ZN3app12touch_sensor14read_touchdata17ha906c689a3379a60E:

00000000 <app::touch_sensor::read_touchdata>:
_ZN3app12touch_sensor14read_touchdata17ha906c689a3379a60E():
/Users/Luppy/mynewt/stm32bluepill-mynewt-sensor/rust/app/src/touch_sensor.rs:104
/// Touch data will be populated here
static mut TOUCH_DATA: TouchEventInfo = fill_zero!(TouchEventInfo);

/// Read touch controller data. This only works when the screen has been tapped and the touch controller wakes up.
/// Ported from https://github.com/lupyuen/hynitron_i2c_cst0xxse/blob/master/cst0xx_core.c#L407-L466
fn read_touchdata(data: &mut TouchEventInfo) -> MynewtResult<()> {
   0:	b580      	push	{r7, lr}
   2:	b0e6      	sub	sp, #408	; 0x198
   4:	4601      	mov	r1, r0
   6:	902e      	str	r0, [sp, #184]	; 0xb8
/Users/Luppy/mynewt/stm32bluepill-mynewt-sensor/rust/app/src/touch_sensor.rs:105
    read_register_range(           //  Read the range of I2C registers...
   8:	4668      	mov	r0, sp
   a:	223f      	movs	r2, #63	; 0x3f
   c:	6002      	str	r2, [r0, #0]
   e:	f240 0300 	movw	r3, #0
  12:	f2c0 0300 	movt	r3, #0
  16:	2015      	movs	r0, #21
  18:	f04f 0c00 	mov.w	ip, #0
  1c:	912d      	str	r1, [sp, #180]	; 0xb4
  1e:	4661      	mov	r1, ip
  20:	f7ff fffe 	bl	0 <app::touch_sensor::read_touchdata>
  24:	902c      	str	r0, [sp, #176]	; 0xb0
  26:	e7ff      	b.n	28 <app::touch_sensor::read_touchdata+0x28>
  28:	f240 0100 	movw	r1, #0
  2c:	f2c0 0100 	movt	r1, #0
  30:	2213      	movs	r2, #19
  32:	982c      	ldr	r0, [sp, #176]	; 0xb0
  34:	f7ff fffe 	bl	0 <core::result::Result<T,E>::expect>
  38:	e7ff      	b.n	3a <app::touch_sensor::read_touchdata+0x3a>
  3a:	f50d 7089 	add.w	r0, sp, #274	; 0x112
  3e:	2152      	movs	r1, #82	; 0x52
/Users/Luppy/mynewt/stm32bluepill-mynewt-sensor/rust/app/src/touch_sensor.rs:111
        TOUCH_CONTROLLER_ADDRESS,  //  From the touch controller
        0,                         //  Starting from register 0
        POINT_READ_BUF as u8,      //  Number of registers to read
        unsafe { &mut buf }        //  Save the read data into `buf`
    ).expect("read touchdata fail");
    *data = fill_zero!(TouchEventInfo);
  40:	902b      	str	r0, [sp, #172]	; 0xac
  42:	912a      	str	r1, [sp, #168]	; 0xa8
  44:	f7ff fffe 	bl	0 <__aeabi_memclr>
  48:	a830      	add	r0, sp, #192	; 0xc0
  4a:	992b      	ldr	r1, [sp, #172]	; 0xac
  4c:	9a2a      	ldr	r2, [sp, #168]	; 0xa8
  4e:	f7ff fffe 	bl	0 <__aeabi_memcpy>
  52:	9029      	str	r0, [sp, #164]	; 0xa4
  54:	e7ff      	b.n	56 <app::touch_sensor::read_touchdata+0x56>
  56:	982e      	ldr	r0, [sp, #184]	; 0xb8
  58:	a930      	add	r1, sp, #192	; 0xc0
  5a:	2252      	movs	r2, #82	; 0x52
  5c:	f7ff fffe 	bl	0 <__aeabi_memcpy>
/Users/Luppy/mynewt/stm32bluepill-mynewt-sensor/rust/app/src/touch_sensor.rs:112
    data.point_num = unsafe { buf[FT_TOUCH_POINT_NUM] & 0x0F };
  60:	9028      	str	r0, [sp, #160]	; 0xa0
  62:	e7ff      	b.n	64 <app::touch_sensor::read_touchdata+0x64>
  64:	f240 0000 	movw	r0, #0
  68:	f2c0 0000 	movt	r0, #0
  6c:	7880      	ldrb	r0, [r0, #2]
  6e:	f000 000f 	and.w	r0, r0, #15
  72:	992e      	ldr	r1, [sp, #184]	; 0xb8
  74:	f881 0051 	strb.w	r0, [r1, #81]	; 0x51
/Users/Luppy/mynewt/stm32bluepill-mynewt-sensor/rust/app/src/touch_sensor.rs:113
    data.count     = 0;
  78:	982e      	ldr	r0, [sp, #184]	; 0xb8
  7a:	2100      	movs	r1, #0
  7c:	f880 1050 	strb.w	r1, [r0, #80]	; 0x50
/Users/Luppy/mynewt/stm32bluepill-mynewt-sensor/rust/app/src/touch_sensor.rs:116

    //  Populate the first 5 touch points
    for i in 0..CFG_MAX_TOUCH_POINTS {
  80:	9159      	str	r1, [sp, #356]	; 0x164
  82:	2005      	movs	r0, #5
  84:	905a      	str	r0, [sp, #360]	; 0x168
  86:	9859      	ldr	r0, [sp, #356]	; 0x164
  88:	995a      	ldr	r1, [sp, #360]	; 0x168
  8a:	f7ff fffe 	bl	0 <<I as core::iter::traits::collect::IntoIterator>::into_iter>
  8e:	9027      	str	r0, [sp, #156]	; 0x9c
  90:	9126      	str	r1, [sp, #152]	; 0x98
  92:	e7ff      	b.n	94 <app::touch_sensor::read_touchdata+0x94>
  94:	9827      	ldr	r0, [sp, #156]	; 0x9c
  96:	905b      	str	r0, [sp, #364]	; 0x16c
  98:	9926      	ldr	r1, [sp, #152]	; 0x98
  9a:	915c      	str	r1, [sp, #368]	; 0x170
  9c:	e7ff      	b.n	9e <app::touch_sensor::read_touchdata+0x9e>
  9e:	a85b      	add	r0, sp, #364	; 0x16c
  a0:	f7ff fffe 	bl	0 <core::iter::range::<impl core::iter::traits::iterator::Iterator for core::ops::range::Range<A>>::next>
  a4:	915f      	str	r1, [sp, #380]	; 0x17c
  a6:	905e      	str	r0, [sp, #376]	; 0x178
  a8:	e7ff      	b.n	aa <app::touch_sensor::read_touchdata+0xaa>
  aa:	985e      	ldr	r0, [sp, #376]	; 0x178
  ac:	2800      	cmp	r0, #0
  ae:	9025      	str	r0, [sp, #148]	; 0x94
  b0:	d014      	beq.n	dc <app::touch_sensor::read_touchdata+0xdc>
  b2:	e7ff      	b.n	b4 <app::touch_sensor::read_touchdata+0xb4>
  b4:	9825      	ldr	r0, [sp, #148]	; 0x94
  b6:	2801      	cmp	r0, #1
  b8:	d001      	beq.n	be <app::touch_sensor::read_touchdata+0xbe>
  ba:	e7ff      	b.n	bc <app::touch_sensor::read_touchdata+0xbc>
/Users/Luppy/mynewt/stm32bluepill-mynewt-sensor/rust/app/src/touch_sensor.rs:149
            && (data.point_num == 0) {
            break;
        }
    }
    Ok(())
}
  bc:	defe      	udf	#254	; 0xfe
/Users/Luppy/mynewt/stm32bluepill-mynewt-sensor/rust/app/src/touch_sensor.rs:116
    for i in 0..CFG_MAX_TOUCH_POINTS {
  be:	985f      	ldr	r0, [sp, #380]	; 0x17c
  c0:	9060      	str	r0, [sp, #384]	; 0x180
  c2:	9860      	ldr	r0, [sp, #384]	; 0x180
  c4:	905d      	str	r0, [sp, #372]	; 0x174
  c6:	985d      	ldr	r0, [sp, #372]	; 0x174
  c8:	9061      	str	r0, [sp, #388]	; 0x184
/Users/Luppy/mynewt/stm32bluepill-mynewt-sensor/rust/app/src/touch_sensor.rs:117
        let pointid = unsafe { buf[HYN_TOUCH_ID_POS + HYN_TOUCH_STEP * i] } >> 4;
  ca:	9861      	ldr	r0, [sp, #388]	; 0x184
  cc:	2106      	movs	r1, #6
  ce:	fba1 0100 	umull	r0, r1, r1, r0
  d2:	2900      	cmp	r1, #0
  d4:	9024      	str	r0, [sp, #144]	; 0x90
  d6:	f040 81cd 	bne.w	474 <app::touch_sensor::read_touchdata+0x474>
  da:	e007      	b.n	ec <app::touch_sensor::read_touchdata+0xec>
/Users/Luppy/mynewt/stm32bluepill-mynewt-sensor/rust/app/src/touch_sensor.rs:116
    for i in 0..CFG_MAX_TOUCH_POINTS {
  dc:	e7ff      	b.n	de <app::touch_sensor::read_touchdata+0xde>
  de:	2000      	movs	r0, #0
/Users/Luppy/mynewt/stm32bluepill-mynewt-sensor/rust/app/src/touch_sensor.rs:148
    Ok(())
  e0:	902f      	str	r0, [sp, #188]	; 0xbc
  e2:	2001      	movs	r0, #1
  e4:	902f      	str	r0, [sp, #188]	; 0xbc
/Users/Luppy/mynewt/stm32bluepill-mynewt-sensor/rust/app/src/touch_sensor.rs:149
}
  e6:	982f      	ldr	r0, [sp, #188]	; 0xbc
  e8:	b066      	add	sp, #408	; 0x198
  ea:	bd80      	pop	{r7, pc}
/Users/Luppy/mynewt/stm32bluepill-mynewt-sensor/rust/app/src/touch_sensor.rs:117
        let pointid = unsafe { buf[HYN_TOUCH_ID_POS + HYN_TOUCH_STEP * i] } >> 4;
  ec:	9824      	ldr	r0, [sp, #144]	; 0x90
  ee:	1d41      	adds	r1, r0, #5
  f0:	460a      	mov	r2, r1
  f2:	4281      	cmp	r1, r0
  f4:	9223      	str	r2, [sp, #140]	; 0x8c
  f6:	f0c0 81c4 	bcc.w	482 <app::touch_sensor::read_touchdata+0x482>
  fa:	e7ff      	b.n	fc <app::touch_sensor::read_touchdata+0xfc>
  fc:	9823      	ldr	r0, [sp, #140]	; 0x8c
  fe:	283e      	cmp	r0, #62	; 0x3e
 100:	f200 81c6 	bhi.w	490 <app::touch_sensor::read_touchdata+0x490>
 104:	e7ff      	b.n	2 <app::touch_sensor::read_touchdata+0x2>
 106:	f240 0000 	movw	r0, #0
 10a:	f2c0 0000 	movt	r0, #0
 10e:	9923      	ldr	r1, [sp, #140]	; 0x8c
 110:	5c40      	ldrb	r0, [r0, r1]
 112:	0900      	lsrs	r0, r0, #4
 114:	9022      	str	r0, [sp, #136]	; 0x88
 116:	e7ff      	b.n	118 <app::touch_sensor::read_touchdata+0x118>
 118:	9822      	ldr	r0, [sp, #136]	; 0x88
 11a:	f88d 0189 	strb.w	r0, [sp, #393]	; 0x189
/Users/Luppy/mynewt/stm32bluepill-mynewt-sensor/rust/app/src/touch_sensor.rs:118
        if pointid >= HYN_MAX_ID { break; }
 11e:	f89d 1189 	ldrb.w	r1, [sp, #393]	; 0x189
 122:	290f      	cmp	r1, #15
 124:	d302      	bcc.n	12c <app::touch_sensor::read_touchdata+0x12c>
 126:	e7ff      	b.n	128 <app::touch_sensor::read_touchdata+0x128>
 128:	e7ff      	b.n	12a <app::touch_sensor::read_touchdata+0x12a>
 12a:	e7d8      	b.n	de <app::touch_sensor::read_touchdata+0xde>
/Users/Luppy/mynewt/stm32bluepill-mynewt-sensor/rust/app/src/touch_sensor.rs:121
        data.count += 1;
 12c:	982e      	ldr	r0, [sp, #184]	; 0xb8
 12e:	f890 0050 	ldrb.w	r0, [r0, #80]	; 0x50
 132:	3001      	adds	r0, #1
 134:	b2c1      	uxtb	r1, r0
 136:	4602      	mov	r2, r0
 138:	4281      	cmp	r1, r0
 13a:	9221      	str	r2, [sp, #132]	; 0x84
 13c:	f040 81b1 	bne.w	4a2 <app::touch_sensor::read_touchdata+0x4a2>
 140:	e7ff      	b.n	142 <app::touch_sensor::read_touchdata+0x142>
 142:	982e      	ldr	r0, [sp, #184]	; 0xb8
 144:	9921      	ldr	r1, [sp, #132]	; 0x84
 146:	f880 1050 	strb.w	r1, [r0, #80]	; 0x50
/Users/Luppy/mynewt/stm32bluepill-mynewt-sensor/rust/app/src/touch_sensor.rs:122
        let x_high = unsafe { buf[HYN_TOUCH_X_H_POS + HYN_TOUCH_STEP * i] & 0x0F } as u16;
 14a:	9861      	ldr	r0, [sp, #388]	; 0x184
 14c:	2206      	movs	r2, #6
 14e:	fba2 0200 	umull	r0, r2, r2, r0
 152:	2a00      	cmp	r2, #0
 154:	9020      	str	r0, [sp, #128]	; 0x80
 156:	f040 81ab 	bne.w	4b0 <app::touch_sensor::read_touchdata+0x4b0>
 15a:	e7ff      	b.n	15c <app::touch_sensor::read_touchdata+0x15c>
 15c:	9820      	ldr	r0, [sp, #128]	; 0x80
 15e:	1cc1      	adds	r1, r0, #3
 160:	460a      	mov	r2, r1
 162:	4281      	cmp	r1, r0
 164:	921f      	str	r2, [sp, #124]	; 0x7c
 166:	f0c0 81aa 	bcc.w	4be <app::touch_sensor::read_touchdata+0x4be>
 16a:	e7ff      	b.n	16c <app::touch_sensor::read_touchdata+0x16c>
 16c:	981f      	ldr	r0, [sp, #124]	; 0x7c
 16e:	283e      	cmp	r0, #62	; 0x3e
 170:	f200 81ac 	bhi.w	4cc <app::touch_sensor::read_touchdata+0x4cc>
 174:	e7ff      	b.n	2 <app::touch_sensor::read_touchdata+0x2>
 176:	f240 0000 	movw	r0, #0
 17a:	f2c0 0000 	movt	r0, #0
 17e:	991f      	ldr	r1, [sp, #124]	; 0x7c
 180:	5c40      	ldrb	r0, [r0, r1]
 182:	f000 000f 	and.w	r0, r0, #15
 186:	f8ad 018a 	strh.w	r0, [sp, #394]	; 0x18a
/Users/Luppy/mynewt/stm32bluepill-mynewt-sensor/rust/app/src/touch_sensor.rs:123
        let x_low  = unsafe { buf[HYN_TOUCH_X_L_POS + HYN_TOUCH_STEP * i] } as u16;
 18a:	9861      	ldr	r0, [sp, #388]	; 0x184
 18c:	2206      	movs	r2, #6
 18e:	fba2 0200 	umull	r0, r2, r2, r0
 192:	2a00      	cmp	r2, #0
 194:	901e      	str	r0, [sp, #120]	; 0x78
 196:	f040 81a2 	bne.w	4de <app::touch_sensor::read_touchdata+0x4de>
 19a:	e7ff      	b.n	19c <app::touch_sensor::read_touchdata+0x19c>
 19c:	981e      	ldr	r0, [sp, #120]	; 0x78
 19e:	1d01      	adds	r1, r0, #4
 1a0:	460a      	mov	r2, r1
 1a2:	4281      	cmp	r1, r0
 1a4:	921d      	str	r2, [sp, #116]	; 0x74
 1a6:	f0c0 81a1 	bcc.w	4ec <app::touch_sensor::read_touchdata+0x4ec>
 1aa:	e7ff      	b.n	1ac <app::touch_sensor::read_touchdata+0x1ac>
 1ac:	981d      	ldr	r0, [sp, #116]	; 0x74
 1ae:	283e      	cmp	r0, #62	; 0x3e
 1b0:	f200 81a3 	bhi.w	4fa <app::touch_sensor::read_touchdata+0x4fa>
 1b4:	e7ff      	b.n	2 <app::touch_sensor::read_touchdata+0x2>
 1b6:	f240 0000 	movw	r0, #0
 1ba:	f2c0 0000 	movt	r0, #0
 1be:	991d      	ldr	r1, [sp, #116]	; 0x74
 1c0:	5c40      	ldrb	r0, [r0, r1]
 1c2:	f8ad 018c 	strh.w	r0, [sp, #396]	; 0x18c
/Users/Luppy/mynewt/stm32bluepill-mynewt-sensor/rust/app/src/touch_sensor.rs:124
        data.touches[i].x  = (x_high << 8) | x_low;
 1c6:	f8bd 018a 	ldrh.w	r0, [sp, #394]	; 0x18a
 1ca:	0200      	lsls	r0, r0, #8
 1cc:	901c      	str	r0, [sp, #112]	; 0x70
 1ce:	e7ff      	b.n	1d0 <app::touch_sensor::read_touchdata+0x1d0>
 1d0:	f8bd 018c 	ldrh.w	r0, [sp, #396]	; 0x18c
 1d4:	9961      	ldr	r1, [sp, #388]	; 0x184
 1d6:	2909      	cmp	r1, #9
 1d8:	901b      	str	r0, [sp, #108]	; 0x6c
 1da:	911a      	str	r1, [sp, #104]	; 0x68
 1dc:	f200 8196 	bhi.w	50c <app::touch_sensor::read_touchdata+0x50c>
 1e0:	e7ff      	b.n	1e2 <app::touch_sensor::read_touchdata+0x1e2>
 1e2:	982e      	ldr	r0, [sp, #184]	; 0xb8
 1e4:	991c      	ldr	r1, [sp, #112]	; 0x70
 1e6:	9a1b      	ldr	r2, [sp, #108]	; 0x6c
 1e8:	ea41 0302 	orr.w	r3, r1, r2
 1ec:	f8dd c068 	ldr.w	ip, [sp, #104]	; 0x68
 1f0:	f820 303c 	strh.w	r3, [r0, ip, lsl #3]
/Users/Luppy/mynewt/stm32bluepill-mynewt-sensor/rust/app/src/touch_sensor.rs:126
        let y_high = unsafe { buf[HYN_TOUCH_Y_H_POS + HYN_TOUCH_STEP * i] & 0x0F } as u16;
 1f4:	9861      	ldr	r0, [sp, #388]	; 0x184
 1f6:	2306      	movs	r3, #6
 1f8:	fba3 0300 	umull	r0, r3, r3, r0
 1fc:	2b00      	cmp	r3, #0
 1fe:	9019      	str	r0, [sp, #100]	; 0x64
 200:	f040 818d 	bne.w	51e <app::touch_sensor::read_touchdata+0x51e>
 204:	e7ff      	b.n	206 <app::touch_sensor::read_touchdata+0x206>
 206:	9819      	ldr	r0, [sp, #100]	; 0x64
 208:	1d41      	adds	r1, r0, #5
 20a:	460a      	mov	r2, r1
 20c:	4281      	cmp	r1, r0
 20e:	9218      	str	r2, [sp, #96]	; 0x60
 210:	f0c0 818c 	bcc.w	52c <app::touch_sensor::read_touchdata+0x52c>
 214:	e7ff      	b.n	216 <app::touch_sensor::read_touchdata+0x216>
 216:	9818      	ldr	r0, [sp, #96]	; 0x60
 218:	283e      	cmp	r0, #62	; 0x3e
 21a:	f200 818e 	bhi.w	53a <app::touch_sensor::read_touchdata+0x53a>
 21e:	e7ff      	b.n	2 <app::touch_sensor::read_touchdata+0x2>
 220:	f240 0000 	movw	r0, #0
 224:	f2c0 0000 	movt	r0, #0
 228:	9918      	ldr	r1, [sp, #96]	; 0x60
 22a:	5c40      	ldrb	r0, [r0, r1]
 22c:	f000 000f 	and.w	r0, r0, #15
 230:	f8ad 018e 	strh.w	r0, [sp, #398]	; 0x18e
/Users/Luppy/mynewt/stm32bluepill-mynewt-sensor/rust/app/src/touch_sensor.rs:127
        let y_low  = unsafe { buf[HYN_TOUCH_Y_L_POS + HYN_TOUCH_STEP * i] } as u16;
 234:	9861      	ldr	r0, [sp, #388]	; 0x184
 236:	2206      	movs	r2, #6
 238:	fba2 0200 	umull	r0, r2, r2, r0
 23c:	2a00      	cmp	r2, #0
 23e:	9017      	str	r0, [sp, #92]	; 0x5c
 240:	f040 8184 	bne.w	54c <app::touch_sensor::read_touchdata+0x54c>
 244:	e7ff      	b.n	246 <app::touch_sensor::read_touchdata+0x246>
 246:	9817      	ldr	r0, [sp, #92]	; 0x5c
 248:	1d81      	adds	r1, r0, #6
 24a:	460a      	mov	r2, r1
 24c:	4281      	cmp	r1, r0
 24e:	9216      	str	r2, [sp, #88]	; 0x58
 250:	f0c0 8183 	bcc.w	55a <app::touch_sensor::read_touchdata+0x55a>
 254:	e7ff      	b.n	256 <app::touch_sensor::read_touchdata+0x256>
 256:	9816      	ldr	r0, [sp, #88]	; 0x58
 258:	283e      	cmp	r0, #62	; 0x3e
 25a:	f200 8185 	bhi.w	568 <app::touch_sensor::read_touchdata+0x568>
 25e:	e7ff      	b.n	2 <app::touch_sensor::read_touchdata+0x2>
 260:	f240 0000 	movw	r0, #0
 264:	f2c0 0000 	movt	r0, #0
 268:	9916      	ldr	r1, [sp, #88]	; 0x58
 26a:	5c40      	ldrb	r0, [r0, r1]
 26c:	f8ad 0190 	strh.w	r0, [sp, #400]	; 0x190
/Users/Luppy/mynewt/stm32bluepill-mynewt-sensor/rust/app/src/touch_sensor.rs:128
        data.touches[i].y  = (y_high << 8) | y_low;
 270:	f8bd 018e 	ldrh.w	r0, [sp, #398]	; 0x18e
 274:	0200      	lsls	r0, r0, #8
 276:	9015      	str	r0, [sp, #84]	; 0x54
 278:	e7ff      	b.n	27a <app::touch_sensor::read_touchdata+0x27a>
 27a:	f8bd 0190 	ldrh.w	r0, [sp, #400]	; 0x190
 27e:	9961      	ldr	r1, [sp, #388]	; 0x184
 280:	2909      	cmp	r1, #9
 282:	9014      	str	r0, [sp, #80]	; 0x50
 284:	9113      	str	r1, [sp, #76]	; 0x4c
 286:	f200 8178 	bhi.w	57a <app::touch_sensor::read_touchdata+0x57a>
 28a:	e7ff      	b.n	28c <app::touch_sensor::read_touchdata+0x28c>
 28c:	982e      	ldr	r0, [sp, #184]	; 0xb8
 28e:	9913      	ldr	r1, [sp, #76]	; 0x4c
 290:	eb00 00c1 	add.w	r0, r0, r1, lsl #3
 294:	9a15      	ldr	r2, [sp, #84]	; 0x54
 296:	9b14      	ldr	r3, [sp, #80]	; 0x50
 298:	ea42 0c03 	orr.w	ip, r2, r3
 29c:	f8a0 c002 	strh.w	ip, [r0, #2]
/Users/Luppy/mynewt/stm32bluepill-mynewt-sensor/rust/app/src/touch_sensor.rs:132
            unsafe { buf[HYN_TOUCH_EVENT_POS + HYN_TOUCH_STEP * i] } >> 6;
 2a0:	9861      	ldr	r0, [sp, #388]	; 0x184
 2a2:	f04f 0c06 	mov.w	ip, #6
 2a6:	fbac 0c00 	umull	r0, ip, ip, r0
 2aa:	f1bc 0f00 	cmp.w	ip, #0
 2ae:	9012      	str	r0, [sp, #72]	; 0x48
 2b0:	f040 816c 	bne.w	58c <app::touch_sensor::read_touchdata+0x58c>
 2b4:	e7ff      	b.n	2b6 <app::touch_sensor::read_touchdata+0x2b6>
 2b6:	9812      	ldr	r0, [sp, #72]	; 0x48
 2b8:	1cc1      	adds	r1, r0, #3
 2ba:	460a      	mov	r2, r1
 2bc:	4281      	cmp	r1, r0
 2be:	9211      	str	r2, [sp, #68]	; 0x44
 2c0:	f0c0 816b 	bcc.w	59a <app::touch_sensor::read_touchdata+0x59a>
 2c4:	e7ff      	b.n	2c6 <app::touch_sensor::read_touchdata+0x2c6>
 2c6:	9811      	ldr	r0, [sp, #68]	; 0x44
 2c8:	283e      	cmp	r0, #62	; 0x3e
 2ca:	f200 816d 	bhi.w	5a8 <app::touch_sensor::read_touchdata+0x5a8>
 2ce:	e7ff      	b.n	2 <app::touch_sensor::read_touchdata+0x2>
 2d0:	f240 0000 	movw	r0, #0
 2d4:	f2c0 0000 	movt	r0, #0
 2d8:	9911      	ldr	r1, [sp, #68]	; 0x44
 2da:	5c40      	ldrb	r0, [r0, r1]
 2dc:	0980      	lsrs	r0, r0, #6
 2de:	9010      	str	r0, [sp, #64]	; 0x40
 2e0:	e7ff      	b.n	2e2 <app::touch_sensor::read_touchdata+0x2e2>
/Users/Luppy/mynewt/stm32bluepill-mynewt-sensor/rust/app/src/touch_sensor.rs:131
        data.touches[i].action =
 2e2:	9861      	ldr	r0, [sp, #388]	; 0x184
 2e4:	2809      	cmp	r0, #9
 2e6:	900f      	str	r0, [sp, #60]	; 0x3c
 2e8:	f200 8167 	bhi.w	5ba <app::touch_sensor::read_touchdata+0x5ba>
 2ec:	e7ff      	b.n	2ee <app::touch_sensor::read_touchdata+0x2ee>
 2ee:	982e      	ldr	r0, [sp, #184]	; 0xb8
 2f0:	990f      	ldr	r1, [sp, #60]	; 0x3c
 2f2:	eb00 00c1 	add.w	r0, r0, r1, lsl #3
 2f6:	9a10      	ldr	r2, [sp, #64]	; 0x40
 2f8:	7102      	strb	r2, [r0, #4]
/Users/Luppy/mynewt/stm32bluepill-mynewt-sensor/rust/app/src/touch_sensor.rs:134
            unsafe { buf[HYN_TOUCH_ID_POS    + HYN_TOUCH_STEP * i] } >> 4;
 2fa:	9861      	ldr	r0, [sp, #388]	; 0x184
 2fc:	2306      	movs	r3, #6
 2fe:	fba3 0300 	umull	r0, r3, r3, r0
 302:	2b00      	cmp	r3, #0
 304:	900e      	str	r0, [sp, #56]	; 0x38
 306:	f040 8161 	bne.w	5cc <app::touch_sensor::read_touchdata+0x5cc>
 30a:	e7ff      	b.n	30c <app::touch_sensor::read_touchdata+0x30c>
 30c:	980e      	ldr	r0, [sp, #56]	; 0x38
 30e:	1d41      	adds	r1, r0, #5
 310:	460a      	mov	r2, r1
 312:	4281      	cmp	r1, r0
 314:	920d      	str	r2, [sp, #52]	; 0x34
 316:	f0c0 8160 	bcc.w	5da <app::touch_sensor::read_touchdata+0x5da>
 31a:	e7ff      	b.n	31c <app::touch_sensor::read_touchdata+0x31c>
 31c:	980d      	ldr	r0, [sp, #52]	; 0x34
 31e:	283e      	cmp	r0, #62	; 0x3e
 320:	f200 8162 	bhi.w	5e8 <app::touch_sensor::read_touchdata+0x5e8>
 324:	e7ff      	b.n	2 <app::touch_sensor::read_touchdata+0x2>
 326:	f240 0000 	movw	r0, #0
 32a:	f2c0 0000 	movt	r0, #0
 32e:	990d      	ldr	r1, [sp, #52]	; 0x34
 330:	5c40      	ldrb	r0, [r0, r1]
 332:	0900      	lsrs	r0, r0, #4
 334:	900c      	str	r0, [sp, #48]	; 0x30
 336:	e7ff      	b.n	338 <app::touch_sensor::read_touchdata+0x338>
/Users/Luppy/mynewt/stm32bluepill-mynewt-sensor/rust/app/src/touch_sensor.rs:133
        data.touches[i].finger =
 338:	9861      	ldr	r0, [sp, #388]	; 0x184
 33a:	2809      	cmp	r0, #9
 33c:	900b      	str	r0, [sp, #44]	; 0x2c
 33e:	f200 815c 	bhi.w	5fa <app::touch_sensor::read_touchdata+0x5fa>
 342:	e7ff      	b.n	344 <app::touch_sensor::read_touchdata+0x344>
 344:	982e      	ldr	r0, [sp, #184]	; 0xb8
 346:	990b      	ldr	r1, [sp, #44]	; 0x2c
 348:	eb00 00c1 	add.w	r0, r0, r1, lsl #3
 34c:	9a0c      	ldr	r2, [sp, #48]	; 0x30
 34e:	7142      	strb	r2, [r0, #5]
/Users/Luppy/mynewt/stm32bluepill-mynewt-sensor/rust/app/src/touch_sensor.rs:138
            unsafe { buf[HYN_TOUCH_XY_POS + HYN_TOUCH_STEP * i] };  //  Can't be constant value
 350:	9861      	ldr	r0, [sp, #388]	; 0x184
 352:	2306      	movs	r3, #6
 354:	fba3 0300 	umull	r0, r3, r3, r0
 358:	2b00      	cmp	r3, #0
 35a:	900a      	str	r0, [sp, #40]	; 0x28
 35c:	f040 8156 	bne.w	60c <app::touch_sensor::read_touchdata+0x60c>
 360:	e7ff      	b.n	362 <app::touch_sensor::read_touchdata+0x362>
 362:	980a      	ldr	r0, [sp, #40]	; 0x28
 364:	1dc1      	adds	r1, r0, #7
 366:	460a      	mov	r2, r1
 368:	4281      	cmp	r1, r0
 36a:	9209      	str	r2, [sp, #36]	; 0x24
 36c:	f0c0 8155 	bcc.w	61a <app::touch_sensor::read_touchdata+0x61a>
 370:	e7ff      	b.n	372 <app::touch_sensor::read_touchdata+0x372>
 372:	9809      	ldr	r0, [sp, #36]	; 0x24
 374:	283e      	cmp	r0, #62	; 0x3e
 376:	f200 8157 	bhi.w	628 <app::touch_sensor::read_touchdata+0x628>
 37a:	e7ff      	b.n	2 <app::touch_sensor::read_touchdata+0x2>
 37c:	f240 0000 	movw	r0, #0
 380:	f2c0 0000 	movt	r0, #0
 384:	9909      	ldr	r1, [sp, #36]	; 0x24
 386:	5c40      	ldrb	r0, [r0, r1]
/Users/Luppy/mynewt/stm32bluepill-mynewt-sensor/rust/app/src/touch_sensor.rs:137
        data.touches[i].pressure =
 388:	9a61      	ldr	r2, [sp, #388]	; 0x184
 38a:	2a09      	cmp	r2, #9
 38c:	9008      	str	r0, [sp, #32]
 38e:	9207      	str	r2, [sp, #28]
 390:	f200 8153 	bhi.w	63a <app::touch_sensor::read_touchdata+0x63a>
 394:	e7ff      	b.n	396 <app::touch_sensor::read_touchdata+0x396>
 396:	982e      	ldr	r0, [sp, #184]	; 0xb8
 398:	9907      	ldr	r1, [sp, #28]
 39a:	eb00 00c1 	add.w	r0, r0, r1, lsl #3
 39e:	9a08      	ldr	r2, [sp, #32]
 3a0:	7182      	strb	r2, [r0, #6]
/Users/Luppy/mynewt/stm32bluepill-mynewt-sensor/rust/app/src/touch_sensor.rs:140
            unsafe { buf[HYN_TOUCH_MISC   + HYN_TOUCH_STEP * i] } >> 4;
 3a2:	9861      	ldr	r0, [sp, #388]	; 0x184
 3a4:	2306      	movs	r3, #6
 3a6:	fba3 0300 	umull	r0, r3, r3, r0
 3aa:	2b00      	cmp	r3, #0
 3ac:	9006      	str	r0, [sp, #24]
 3ae:	f040 814d 	bne.w	64c <app::touch_sensor::read_touchdata+0x64c>
 3b2:	e7ff      	b.n	3b4 <app::touch_sensor::read_touchdata+0x3b4>
 3b4:	9806      	ldr	r0, [sp, #24]
 3b6:	f100 0108 	add.w	r1, r0, #8
 3ba:	460a      	mov	r2, r1
 3bc:	4281      	cmp	r1, r0
 3be:	9205      	str	r2, [sp, #20]
 3c0:	f0c0 814b 	bcc.w	65a <app::touch_sensor::read_touchdata+0x65a>
 3c4:	e7ff      	b.n	3c6 <app::touch_sensor::read_touchdata+0x3c6>
 3c6:	9805      	ldr	r0, [sp, #20]
 3c8:	283e      	cmp	r0, #62	; 0x3e
 3ca:	f200 814d 	bhi.w	668 <app::touch_sensor::read_touchdata+0x668>
 3ce:	e7ff      	b.n	2 <app::touch_sensor::read_touchdata+0x2>
 3d0:	f240 0000 	movw	r0, #0
 3d4:	f2c0 0000 	movt	r0, #0
 3d8:	9905      	ldr	r1, [sp, #20]
 3da:	5c40      	ldrb	r0, [r0, r1]
 3dc:	0900      	lsrs	r0, r0, #4
 3de:	9004      	str	r0, [sp, #16]
 3e0:	e7ff      	b.n	3e2 <app::touch_sensor::read_touchdata+0x3e2>
/Users/Luppy/mynewt/stm32bluepill-mynewt-sensor/rust/app/src/touch_sensor.rs:139
        data.touches[i].area =
 3e2:	9861      	ldr	r0, [sp, #388]	; 0x184
 3e4:	2809      	cmp	r0, #9
 3e6:	9003      	str	r0, [sp, #12]
 3e8:	f200 8147 	bhi.w	67a <app::touch_sensor::read_touchdata+0x67a>
 3ec:	e7ff      	b.n	3ee <app::touch_sensor::read_touchdata+0x3ee>
 3ee:	982e      	ldr	r0, [sp, #184]	; 0xb8
 3f0:	9903      	ldr	r1, [sp, #12]
 3f2:	eb00 00c1 	add.w	r0, r0, r1, lsl #3
 3f6:	9a04      	ldr	r2, [sp, #16]
 3f8:	71c2      	strb	r2, [r0, #7]
/Users/Luppy/mynewt/stm32bluepill-mynewt-sensor/rust/app/src/touch_sensor.rs:143
        if (data.touches[i].action == 0 || data.touches[i].action == 2)  //  If touch is down or contact
 3fa:	9861      	ldr	r0, [sp, #388]	; 0x184
 3fc:	280a      	cmp	r0, #10
 3fe:	9002      	str	r0, [sp, #8]
 400:	d322      	bcc.n	448 <app::touch_sensor::read_touchdata+0x448>
 402:	e143      	b.n	68c <app::touch_sensor::read_touchdata+0x68c>
 404:	2000      	movs	r0, #0
 406:	f88d 0192 	strb.w	r0, [sp, #402]	; 0x192
 40a:	e008      	b.n	41e <app::touch_sensor::read_touchdata+0x41e>
/Users/Luppy/mynewt/stm32bluepill-mynewt-sensor/rust/app/src/touch_sensor.rs:144
            && (data.point_num == 0) {
 40c:	982e      	ldr	r0, [sp, #184]	; 0xb8
 40e:	f890 0051 	ldrb.w	r0, [r0, #81]	; 0x51
 412:	fab0 f080 	clz	r0, r0
 416:	0940      	lsrs	r0, r0, #5
/Users/Luppy/mynewt/stm32bluepill-mynewt-sensor/rust/app/src/touch_sensor.rs:143
        if (data.touches[i].action == 0 || data.touches[i].action == 2)  //  If touch is down or contact
 418:	f88d 0192 	strb.w	r0, [sp, #402]	; 0x192
 41c:	e7ff      	b.n	41e <app::touch_sensor::read_touchdata+0x41e>
 41e:	f89d 0192 	ldrb.w	r0, [sp, #402]	; 0x192
 422:	07c0      	lsls	r0, r0, #31
 424:	2800      	cmp	r0, #0
 426:	d123      	bne.n	470 <app::touch_sensor::read_touchdata+0x470>
 428:	e023      	b.n	472 <app::touch_sensor::read_touchdata+0x472>
 42a:	2001      	movs	r0, #1
 42c:	f88d 0193 	strb.w	r0, [sp, #403]	; 0x193
 430:	e004      	b.n	43c <app::touch_sensor::read_touchdata+0x43c>
 432:	9861      	ldr	r0, [sp, #388]	; 0x184
 434:	280a      	cmp	r0, #10
 436:	9001      	str	r0, [sp, #4]
 438:	d30e      	bcc.n	458 <app::touch_sensor::read_touchdata+0x458>
 43a:	e130      	b.n	69e <app::touch_sensor::read_touchdata+0x69e>
 43c:	f89d 0193 	ldrb.w	r0, [sp, #403]	; 0x193
 440:	07c0      	lsls	r0, r0, #31
 442:	2800      	cmp	r0, #0
 444:	d1e2      	bne.n	40c <app::touch_sensor::read_touchdata+0x40c>
 446:	e7dd      	b.n	404 <app::touch_sensor::read_touchdata+0x404>
 448:	982e      	ldr	r0, [sp, #184]	; 0xb8
 44a:	9902      	ldr	r1, [sp, #8]
 44c:	eb00 00c1 	add.w	r0, r0, r1, lsl #3
 450:	7900      	ldrb	r0, [r0, #4]
 452:	2800      	cmp	r0, #0
 454:	d0e9      	beq.n	42a <app::touch_sensor::read_touchdata+0x42a>
 456:	e7ec      	b.n	432 <app::touch_sensor::read_touchdata+0x432>
 458:	982e      	ldr	r0, [sp, #184]	; 0xb8
 45a:	9901      	ldr	r1, [sp, #4]
 45c:	eb00 00c1 	add.w	r0, r0, r1, lsl #3
 460:	7900      	ldrb	r0, [r0, #4]
 462:	3802      	subs	r0, #2
 464:	fab0 f080 	clz	r0, r0
 468:	0940      	lsrs	r0, r0, #5
 46a:	f88d 0193 	strb.w	r0, [sp, #403]	; 0x193
 46e:	e7e5      	b.n	43c <app::touch_sensor::read_touchdata+0x43c>
/Users/Luppy/mynewt/stm32bluepill-mynewt-sensor/rust/app/src/touch_sensor.rs:145
            break;
 470:	e65b      	b.n	12a <app::touch_sensor::read_touchdata+0x12a>
/Users/Luppy/mynewt/stm32bluepill-mynewt-sensor/rust/app/src/touch_sensor.rs:116
    for i in 0..CFG_MAX_TOUCH_POINTS {
 472:	e614      	b.n	9e <app::touch_sensor::read_touchdata+0x9e>
/Users/Luppy/mynewt/stm32bluepill-mynewt-sensor/rust/app/src/touch_sensor.rs:117
        let pointid = unsafe { buf[HYN_TOUCH_ID_POS + HYN_TOUCH_STEP * i] } >> 4;
 474:	f240 0000 	movw	r0, #0
 478:	f2c0 0000 	movt	r0, #0
 47c:	f7ff fffe 	bl	0 <core::panicking::panic>
 480:	defe      	udf	#254	; 0xfe
 482:	f240 0000 	movw	r0, #0
 486:	f2c0 0000 	movt	r0, #0
 48a:	f7ff fffe 	bl	0 <core::panicking::panic>
 48e:	defe      	udf	#254	; 0xfe
 490:	f240 0000 	movw	r0, #0
 494:	f2c0 0000 	movt	r0, #0
 498:	223f      	movs	r2, #63	; 0x3f
 49a:	9923      	ldr	r1, [sp, #140]	; 0x8c
 49c:	f7ff fffe 	bl	0 <core::panicking::panic_bounds_check>
 4a0:	defe      	udf	#254	; 0xfe
/Users/Luppy/mynewt/stm32bluepill-mynewt-sensor/rust/app/src/touch_sensor.rs:121
        data.count += 1;
 4a2:	f240 0000 	movw	r0, #0
 4a6:	f2c0 0000 	movt	r0, #0
 4aa:	f7ff fffe 	bl	0 <core::panicking::panic>
 4ae:	defe      	udf	#254	; 0xfe
/Users/Luppy/mynewt/stm32bluepill-mynewt-sensor/rust/app/src/touch_sensor.rs:122
        let x_high = unsafe { buf[HYN_TOUCH_X_H_POS + HYN_TOUCH_STEP * i] & 0x0F } as u16;
 4b0:	f240 0000 	movw	r0, #0
 4b4:	f2c0 0000 	movt	r0, #0
 4b8:	f7ff fffe 	bl	0 <core::panicking::panic>
 4bc:	defe      	udf	#254	; 0xfe
 4be:	f240 0000 	movw	r0, #0
 4c2:	f2c0 0000 	movt	r0, #0
 4c6:	f7ff fffe 	bl	0 <core::panicking::panic>
 4ca:	defe      	udf	#254	; 0xfe
 4cc:	f240 0000 	movw	r0, #0
 4d0:	f2c0 0000 	movt	r0, #0
 4d4:	223f      	movs	r2, #63	; 0x3f
 4d6:	991f      	ldr	r1, [sp, #124]	; 0x7c
 4d8:	f7ff fffe 	bl	0 <core::panicking::panic_bounds_check>
 4dc:	defe      	udf	#254	; 0xfe
/Users/Luppy/mynewt/stm32bluepill-mynewt-sensor/rust/app/src/touch_sensor.rs:123
        let x_low  = unsafe { buf[HYN_TOUCH_X_L_POS + HYN_TOUCH_STEP * i] } as u16;
 4de:	f240 0000 	movw	r0, #0
 4e2:	f2c0 0000 	movt	r0, #0
 4e6:	f7ff fffe 	bl	0 <core::panicking::panic>
 4ea:	defe      	udf	#254	; 0xfe
 4ec:	f240 0000 	movw	r0, #0
 4f0:	f2c0 0000 	movt	r0, #0
 4f4:	f7ff fffe 	bl	0 <core::panicking::panic>
 4f8:	defe      	udf	#254	; 0xfe
 4fa:	f240 0000 	movw	r0, #0
 4fe:	f2c0 0000 	movt	r0, #0
 502:	223f      	movs	r2, #63	; 0x3f
 504:	991d      	ldr	r1, [sp, #116]	; 0x74
 506:	f7ff fffe 	bl	0 <core::panicking::panic_bounds_check>
 50a:	defe      	udf	#254	; 0xfe
/Users/Luppy/mynewt/stm32bluepill-mynewt-sensor/rust/app/src/touch_sensor.rs:124
        data.touches[i].x  = (x_high << 8) | x_low;
 50c:	f240 0000 	movw	r0, #0
 510:	f2c0 0000 	movt	r0, #0
 514:	220a      	movs	r2, #10
 516:	991a      	ldr	r1, [sp, #104]	; 0x68
 518:	f7ff fffe 	bl	0 <core::panicking::panic_bounds_check>
 51c:	defe      	udf	#254	; 0xfe
/Users/Luppy/mynewt/stm32bluepill-mynewt-sensor/rust/app/src/touch_sensor.rs:126
        let y_high = unsafe { buf[HYN_TOUCH_Y_H_POS + HYN_TOUCH_STEP * i] & 0x0F } as u16;
 51e:	f240 0000 	movw	r0, #0
 522:	f2c0 0000 	movt	r0, #0
 526:	f7ff fffe 	bl	0 <core::panicking::panic>
 52a:	defe      	udf	#254	; 0xfe
 52c:	f240 0000 	movw	r0, #0
 530:	f2c0 0000 	movt	r0, #0
 534:	f7ff fffe 	bl	0 <core::panicking::panic>
 538:	defe      	udf	#254	; 0xfe
 53a:	f240 0000 	movw	r0, #0
 53e:	f2c0 0000 	movt	r0, #0
 542:	223f      	movs	r2, #63	; 0x3f
 544:	9918      	ldr	r1, [sp, #96]	; 0x60
 546:	f7ff fffe 	bl	0 <core::panicking::panic_bounds_check>
 54a:	defe      	udf	#254	; 0xfe
/Users/Luppy/mynewt/stm32bluepill-mynewt-sensor/rust/app/src/touch_sensor.rs:127
        let y_low  = unsafe { buf[HYN_TOUCH_Y_L_POS + HYN_TOUCH_STEP * i] } as u16;
 54c:	f240 0000 	movw	r0, #0
 550:	f2c0 0000 	movt	r0, #0
 554:	f7ff fffe 	bl	0 <core::panicking::panic>
 558:	defe      	udf	#254	; 0xfe
 55a:	f240 0000 	movw	r0, #0
 55e:	f2c0 0000 	movt	r0, #0
 562:	f7ff fffe 	bl	0 <core::panicking::panic>
 566:	defe      	udf	#254	; 0xfe
 568:	f240 0000 	movw	r0, #0
 56c:	f2c0 0000 	movt	r0, #0
 570:	223f      	movs	r2, #63	; 0x3f
 572:	9916      	ldr	r1, [sp, #88]	; 0x58
 574:	f7ff fffe 	bl	0 <core::panicking::panic_bounds_check>
 578:	defe      	udf	#254	; 0xfe
/Users/Luppy/mynewt/stm32bluepill-mynewt-sensor/rust/app/src/touch_sensor.rs:128
        data.touches[i].y  = (y_high << 8) | y_low;
 57a:	f240 0000 	movw	r0, #0
 57e:	f2c0 0000 	movt	r0, #0
 582:	220a      	movs	r2, #10
 584:	9913      	ldr	r1, [sp, #76]	; 0x4c
 586:	f7ff fffe 	bl	0 <core::panicking::panic_bounds_check>
 58a:	defe      	udf	#254	; 0xfe
/Users/Luppy/mynewt/stm32bluepill-mynewt-sensor/rust/app/src/touch_sensor.rs:132
            unsafe { buf[HYN_TOUCH_EVENT_POS + HYN_TOUCH_STEP * i] } >> 6;
 58c:	f240 0000 	movw	r0, #0
 590:	f2c0 0000 	movt	r0, #0
 594:	f7ff fffe 	bl	0 <core::panicking::panic>
 598:	defe      	udf	#254	; 0xfe
 59a:	f240 0000 	movw	r0, #0
 59e:	f2c0 0000 	movt	r0, #0
 5a2:	f7ff fffe 	bl	0 <core::panicking::panic>
 5a6:	defe      	udf	#254	; 0xfe
 5a8:	f240 0000 	movw	r0, #0
 5ac:	f2c0 0000 	movt	r0, #0
 5b0:	223f      	movs	r2, #63	; 0x3f
 5b2:	9911      	ldr	r1, [sp, #68]	; 0x44
 5b4:	f7ff fffe 	bl	0 <core::panicking::panic_bounds_check>
 5b8:	defe      	udf	#254	; 0xfe
/Users/Luppy/mynewt/stm32bluepill-mynewt-sensor/rust/app/src/touch_sensor.rs:131
        data.touches[i].action =
 5ba:	f240 0000 	movw	r0, #0
 5be:	f2c0 0000 	movt	r0, #0
 5c2:	220a      	movs	r2, #10
 5c4:	990f      	ldr	r1, [sp, #60]	; 0x3c
 5c6:	f7ff fffe 	bl	0 <core::panicking::panic_bounds_check>
 5ca:	defe      	udf	#254	; 0xfe
/Users/Luppy/mynewt/stm32bluepill-mynewt-sensor/rust/app/src/touch_sensor.rs:134
            unsafe { buf[HYN_TOUCH_ID_POS    + HYN_TOUCH_STEP * i] } >> 4;
 5cc:	f240 0000 	movw	r0, #0
 5d0:	f2c0 0000 	movt	r0, #0
 5d4:	f7ff fffe 	bl	0 <core::panicking::panic>
 5d8:	defe      	udf	#254	; 0xfe
 5da:	f240 0000 	movw	r0, #0
 5de:	f2c0 0000 	movt	r0, #0
 5e2:	f7ff fffe 	bl	0 <core::panicking::panic>
 5e6:	defe      	udf	#254	; 0xfe
 5e8:	f240 0000 	movw	r0, #0
 5ec:	f2c0 0000 	movt	r0, #0
 5f0:	223f      	movs	r2, #63	; 0x3f
 5f2:	990d      	ldr	r1, [sp, #52]	; 0x34
 5f4:	f7ff fffe 	bl	0 <core::panicking::panic_bounds_check>
 5f8:	defe      	udf	#254	; 0xfe
/Users/Luppy/mynewt/stm32bluepill-mynewt-sensor/rust/app/src/touch_sensor.rs:133
        data.touches[i].finger =
 5fa:	f240 0000 	movw	r0, #0
 5fe:	f2c0 0000 	movt	r0, #0
 602:	220a      	movs	r2, #10
 604:	990b      	ldr	r1, [sp, #44]	; 0x2c
 606:	f7ff fffe 	bl	0 <core::panicking::panic_bounds_check>
 60a:	defe      	udf	#254	; 0xfe
/Users/Luppy/mynewt/stm32bluepill-mynewt-sensor/rust/app/src/touch_sensor.rs:138
            unsafe { buf[HYN_TOUCH_XY_POS + HYN_TOUCH_STEP * i] };  //  Can't be constant value
 60c:	f240 0000 	movw	r0, #0
 610:	f2c0 0000 	movt	r0, #0
 614:	f7ff fffe 	bl	0 <core::panicking::panic>
 618:	defe      	udf	#254	; 0xfe
 61a:	f240 0000 	movw	r0, #0
 61e:	f2c0 0000 	movt	r0, #0
 622:	f7ff fffe 	bl	0 <core::panicking::panic>
 626:	defe      	udf	#254	; 0xfe
 628:	f240 0000 	movw	r0, #0
 62c:	f2c0 0000 	movt	r0, #0
 630:	223f      	movs	r2, #63	; 0x3f
 632:	9909      	ldr	r1, [sp, #36]	; 0x24
 634:	f7ff fffe 	bl	0 <core::panicking::panic_bounds_check>
 638:	defe      	udf	#254	; 0xfe
/Users/Luppy/mynewt/stm32bluepill-mynewt-sensor/rust/app/src/touch_sensor.rs:137
        data.touches[i].pressure =
 63a:	f240 0000 	movw	r0, #0
 63e:	f2c0 0000 	movt	r0, #0
 642:	220a      	movs	r2, #10
 644:	9907      	ldr	r1, [sp, #28]
 646:	f7ff fffe 	bl	0 <core::panicking::panic_bounds_check>
 64a:	defe      	udf	#254	; 0xfe
/Users/Luppy/mynewt/stm32bluepill-mynewt-sensor/rust/app/src/touch_sensor.rs:140
            unsafe { buf[HYN_TOUCH_MISC   + HYN_TOUCH_STEP * i] } >> 4;
 64c:	f240 0000 	movw	r0, #0
 650:	f2c0 0000 	movt	r0, #0
 654:	f7ff fffe 	bl	0 <core::panicking::panic>
 658:	defe      	udf	#254	; 0xfe
 65a:	f240 0000 	movw	r0, #0
 65e:	f2c0 0000 	movt	r0, #0
 662:	f7ff fffe 	bl	0 <core::panicking::panic>
 666:	defe      	udf	#254	; 0xfe
 668:	f240 0000 	movw	r0, #0
 66c:	f2c0 0000 	movt	r0, #0
 670:	223f      	movs	r2, #63	; 0x3f
 672:	9905      	ldr	r1, [sp, #20]
 674:	f7ff fffe 	bl	0 <core::panicking::panic_bounds_check>
 678:	defe      	udf	#254	; 0xfe
/Users/Luppy/mynewt/stm32bluepill-mynewt-sensor/rust/app/src/touch_sensor.rs:139
        data.touches[i].area =
 67a:	f240 0000 	movw	r0, #0
 67e:	f2c0 0000 	movt	r0, #0
 682:	220a      	movs	r2, #10
 684:	9903      	ldr	r1, [sp, #12]
 686:	f7ff fffe 	bl	0 <core::panicking::panic_bounds_check>
 68a:	defe      	udf	#254	; 0xfe
/Users/Luppy/mynewt/stm32bluepill-mynewt-sensor/rust/app/src/touch_sensor.rs:143
        if (data.touches[i].action == 0 || data.touches[i].action == 2)  //  If touch is down or contact
 68c:	f240 0000 	movw	r0, #0
 690:	f2c0 0000 	movt	r0, #0
 694:	220a      	movs	r2, #10
 696:	9902      	ldr	r1, [sp, #8]
 698:	f7ff fffe 	bl	0 <core::panicking::panic_bounds_check>
 69c:	defe      	udf	#254	; 0xfe
 69e:	f240 0000 	movw	r0, #0
 6a2:	f2c0 0000 	movt	r0, #0
 6a6:	220a      	movs	r2, #10
 6a8:	9901      	ldr	r1, [sp, #4]
 6aa:	f7ff fffe 	bl	0 <core::panicking::panic_bounds_check>
 6ae:	defe      	udf	#254	; 0xfe

Disassembly of section .text._ZN3app12touch_sensor19read_register_range17hc34bf884ffc5ee78E:

00000000 <app::touch_sensor::read_register_range>:
_ZN3app12touch_sensor19read_register_range17hc34bf884ffc5ee78E():
/Users/Luppy/mynewt/stm32bluepill-mynewt-sensor/rust/app/src/touch_sensor.rs:208

/// Event that will be forwarded to the Event Queue when a touch interrupt is triggered
static mut TOUCH_EVENT: os_event = fill_zero!(os_event);  //  Init all fields to 0 or NULL

/// Read a range of I2C registers from the I2C address `addr` (7-bit address), starting at `start_register` for count `num_registers`. Save into `buffer`.
fn read_register_range(addr: u8, start_register: u8, num_registers: u8, buffer: &mut[u8]) -> MynewtResult<()> {
   0:	b570      	push	{r4, r5, r6, lr}
   2:	b094      	sub	sp, #80	; 0x50
   4:	f8dd c060 	ldr.w	ip, [sp, #96]	; 0x60
   8:	469e      	mov	lr, r3
   a:	4614      	mov	r4, r2
   c:	460d      	mov	r5, r1
   e:	4606      	mov	r6, r0
  10:	f88d 0031 	strb.w	r0, [sp, #49]	; 0x31
  14:	f88d 1032 	strb.w	r1, [sp, #50]	; 0x32
  18:	f88d 2033 	strb.w	r2, [sp, #51]	; 0x33
  1c:	930d      	str	r3, [sp, #52]	; 0x34
  1e:	f8cd c038 	str.w	ip, [sp, #56]	; 0x38
/Users/Luppy/mynewt/stm32bluepill-mynewt-sensor/rust/app/src/touch_sensor.rs:209
    assert!(buffer.len() >= num_registers as usize, "i2c buf");  //  Buffer too small
  22:	980d      	ldr	r0, [sp, #52]	; 0x34
  24:	990e      	ldr	r1, [sp, #56]	; 0x38
  26:	f8cd e02c 	str.w	lr, [sp, #44]	; 0x2c
  2a:	940a      	str	r4, [sp, #40]	; 0x28
  2c:	9509      	str	r5, [sp, #36]	; 0x24
  2e:	9608      	str	r6, [sp, #32]
  30:	f7ff fffe 	bl	0 <core::slice::<impl [T]>::len>
  34:	9007      	str	r0, [sp, #28]
  36:	e7ff      	b.n	38 <app::touch_sensor::read_register_range+0x38>
  38:	f89d 0033 	ldrb.w	r0, [sp, #51]	; 0x33
  3c:	9907      	ldr	r1, [sp, #28]
  3e:	4281      	cmp	r1, r0
  40:	d207      	bcs.n	52 <app::touch_sensor::read_register_range+0x52>
  42:	e7ff      	b.n	44 <app::touch_sensor::read_register_range+0x44>
  44:	f240 0000 	movw	r0, #0
  48:	f2c0 0000 	movt	r0, #0
  4c:	f7ff fffe 	bl	0 <core::panicking::panic>
  50:	defe      	udf	#254	; 0xfe
/Users/Luppy/mynewt/stm32bluepill-mynewt-sensor/rust/app/src/touch_sensor.rs:210
    assert!(start_register + num_registers < 128, "i2c addr");   //  Not 7-bit address
  52:	f89d 0032 	ldrb.w	r0, [sp, #50]	; 0x32
  56:	f89d 1033 	ldrb.w	r1, [sp, #51]	; 0x33
  5a:	4408      	add	r0, r1
  5c:	b2c1      	uxtb	r1, r0
  5e:	4602      	mov	r2, r0
  60:	4281      	cmp	r1, r0
  62:	9206      	str	r2, [sp, #24]
  64:	f040 808a 	bne.w	17c <app::touch_sensor::read_register_range+0x17c>
  68:	e7ff      	b.n	6a <app::touch_sensor::read_register_range+0x6a>
  6a:	9806      	ldr	r0, [sp, #24]
  6c:	b241      	sxtb	r1, r0
  6e:	f1b1 3fff 	cmp.w	r1, #4294967295	; 0xffffffff
  72:	dc07      	bgt.n	84 <app::touch_sensor::read_register_range+0x84>
  74:	e7ff      	b.n	76 <app::touch_sensor::read_register_range+0x76>
  76:	f240 0000 	movw	r0, #0
  7a:	f2c0 0000 	movt	r0, #0
  7e:	f7ff fffe 	bl	0 <core::panicking::panic>
  82:	defe      	udf	#254	; 0xfe
/Users/Luppy/mynewt/stm32bluepill-mynewt-sensor/rust/app/src/touch_sensor.rs:219
    //    Send the Start Condition (High to Low SDA Transition)...
    //    Followed by I2C Address (7 bits)...
    //    Followed by Write Mode (1 bit, value 0)...
    //    Followed by starting Register Number (8 bits)
    unsafe { 
        I2C_BUFFER[0] = start_register;  //  I2C Packet buffer contains starting Register Number (1 byte)
  84:	f89d 0032 	ldrb.w	r0, [sp, #50]	; 0x32
  88:	9005      	str	r0, [sp, #20]
  8a:	e7ff      	b.n	8c <app::touch_sensor::read_register_range+0x8c>
  8c:	f240 0000 	movw	r0, #0
  90:	f2c0 0000 	movt	r0, #0
  94:	9905      	ldr	r1, [sp, #20]
  96:	7001      	strb	r1, [r0, #0]
/Users/Luppy/mynewt/stm32bluepill-mynewt-sensor/rust/app/src/touch_sensor.rs:220
        I2C_DATA.address = addr;         //  I2C Packet address (7 bits)
  98:	f89d 2031 	ldrb.w	r2, [sp, #49]	; 0x31
  9c:	f240 0300 	movw	r3, #0
  a0:	f2c0 0300 	movt	r3, #0
  a4:	701a      	strb	r2, [r3, #0]
  a6:	2101      	movs	r1, #1
/Users/Luppy/mynewt/stm32bluepill-mynewt-sensor/rust/app/src/touch_sensor.rs:221
        I2C_DATA.len = I2C_BUFFER.len() as u16;     //  I2C Packet data size is 1 byte
  a8:	f7ff fffe 	bl	0 <core::slice::<impl [T]>::len>
  ac:	9004      	str	r0, [sp, #16]
  ae:	e7ff      	b.n	b0 <app::touch_sensor::read_register_range+0xb0>
  b0:	f240 0000 	movw	r0, #0
  b4:	f2c0 0000 	movt	r0, #0
  b8:	9904      	ldr	r1, [sp, #16]
  ba:	8041      	strh	r1, [r0, #2]
/Users/Luppy/mynewt/stm32bluepill-mynewt-sensor/rust/app/src/touch_sensor.rs:222
        I2C_DATA.buffer = I2C_BUFFER.as_mut_ptr();  //  I2C Packet data points to packet buffer
  bc:	f240 0000 	movw	r0, #0
  c0:	f2c0 0000 	movt	r0, #0
  c4:	2101      	movs	r1, #1
  c6:	f7ff fffe 	bl	0 <core::slice::<impl [T]>::as_mut_ptr>
  ca:	9003      	str	r0, [sp, #12]
  cc:	e7ff      	b.n	ce <app::touch_sensor::read_register_range+0xce>
  ce:	f240 0000 	movw	r0, #0
  d2:	f2c0 0000 	movt	r0, #0
  d6:	9903      	ldr	r1, [sp, #12]
  d8:	6041      	str	r1, [r0, #4]
  da:	2201      	movs	r2, #1
  dc:	f44f 737a 	mov.w	r3, #1000	; 0x3e8
  e0:	f04f 0c00 	mov.w	ip, #0
/Users/Luppy/mynewt/stm32bluepill-mynewt-sensor/rust/app/src/touch_sensor.rs:224
    };
    let _rc1 = unsafe { hal::hal_i2c_master_write(1, &mut I2C_DATA, 1000, 0) };  //  No stop yet, must continue even if we hit an error
  e4:	9002      	str	r0, [sp, #8]
  e6:	4610      	mov	r0, r2
  e8:	9902      	ldr	r1, [sp, #8]
  ea:	461a      	mov	r2, r3
  ec:	4663      	mov	r3, ip
  ee:	f7ff fffe 	bl	0 <hal_i2c_master_write>
  f2:	9010      	str	r0, [sp, #64]	; 0x40
  f4:	e7ff      	b.n	f6 <app::touch_sensor::read_register_range+0xf6>
/Users/Luppy/mynewt/stm32bluepill-mynewt-sensor/rust/app/src/touch_sensor.rs:230
    //  Step 3: Prepare to receive the stream of I2C Device Register values...
    //    Send the Start Condition (High to Low SDA Transition)...
    //    Followed by I2C Address (7 bits)...
    //    Followed by Read Mode (1 bit, value 1)
    unsafe { 
        I2C_BUFFER[0] = 0x00;     //  I2C Packet buffer should be empty (provided by caller)
  f6:	e7ff      	b.n	f8 <app::touch_sensor::read_register_range+0xf8>
  f8:	f240 0000 	movw	r0, #0
  fc:	f2c0 0000 	movt	r0, #0
 100:	2100      	movs	r1, #0
 102:	7001      	strb	r1, [r0, #0]
/Users/Luppy/mynewt/stm32bluepill-mynewt-sensor/rust/app/src/touch_sensor.rs:231
        I2C_DATA.address = addr;  //  I2C Packet address (7 bits)
 104:	f89d 0031 	ldrb.w	r0, [sp, #49]	; 0x31
 108:	f240 0100 	movw	r1, #0
 10c:	f2c0 0100 	movt	r1, #0
 110:	7008      	strb	r0, [r1, #0]
/Users/Luppy/mynewt/stm32bluepill-mynewt-sensor/rust/app/src/touch_sensor.rs:232
        I2C_DATA.len = num_registers as u16;    //  I2C Packet data size is number of Registers to read
 112:	f89d 0033 	ldrb.w	r0, [sp, #51]	; 0x33
 116:	8048      	strh	r0, [r1, #2]
/Users/Luppy/mynewt/stm32bluepill-mynewt-sensor/rust/app/src/touch_sensor.rs:233
        I2C_DATA.buffer = buffer.as_mut_ptr();  //  I2C Packet data points to packet buffer
 118:	980d      	ldr	r0, [sp, #52]	; 0x34
 11a:	990e      	ldr	r1, [sp, #56]	; 0x38
 11c:	f7ff fffe 	bl	0 <core::slice::<impl [T]>::as_mut_ptr>
 120:	9001      	str	r0, [sp, #4]
 122:	e7ff      	b.n	124 <app::touch_sensor::read_register_range+0x124>
 124:	f240 0000 	movw	r0, #0
 128:	f2c0 0000 	movt	r0, #0
 12c:	9901      	ldr	r1, [sp, #4]
 12e:	6041      	str	r1, [r0, #4]
 130:	f44f 727a 	mov.w	r2, #1000	; 0x3e8
 134:	2301      	movs	r3, #1
/Users/Luppy/mynewt/stm32bluepill-mynewt-sensor/rust/app/src/touch_sensor.rs:237
    };
    //  Step 4: Receive the requested number of Register values from I2C Device (1 byte per register)
    //  Step 5: Send the Stop Condition (Low to High SDA Transition)
    let rc2 = unsafe { hal::hal_i2c_master_read(1, &mut I2C_DATA, 1000, 1) };
 136:	9000      	str	r0, [sp, #0]
 138:	4618      	mov	r0, r3
 13a:	9900      	ldr	r1, [sp, #0]
 13c:	f7ff fffe 	bl	0 <hal_i2c_master_read>
 140:	9011      	str	r0, [sp, #68]	; 0x44
 142:	e7ff      	b.n	144 <app::touch_sensor::read_register_range+0x144>
/Users/Luppy/mynewt/stm32bluepill-mynewt-sensor/rust/app/src/touch_sensor.rs:238
    if rc2 == hal::HAL_I2C_ERR_ADDR_NACK as i32 {
 144:	9811      	ldr	r0, [sp, #68]	; 0x44
 146:	2804      	cmp	r0, #4
 148:	d113      	bne.n	172 <app::touch_sensor::read_register_range+0x172>
 14a:	e7ff      	b.n	14c <app::touch_sensor::read_register_range+0x14c>
 14c:	2000      	movs	r0, #0
/Users/Luppy/mynewt/stm32bluepill-mynewt-sensor/rust/app/src/touch_sensor.rs:239
        assert!(false, "i2c fail");  //  I2C read failed
 14e:	2800      	cmp	r0, #0
 150:	d107      	bne.n	162 <app::touch_sensor::read_register_range+0x162>
 152:	e7ff      	b.n	154 <app::touch_sensor::read_register_range+0x154>
 154:	f240 0000 	movw	r0, #0
 158:	f2c0 0000 	movt	r0, #0
 15c:	f7ff fffe 	bl	0 <core::panicking::panic>
 160:	defe      	udf	#254	; 0xfe
 162:	2000      	movs	r0, #0
/Users/Luppy/mynewt/stm32bluepill-mynewt-sensor/rust/app/src/touch_sensor.rs:240
        return Ok(());               //  TODO: Return an error
 164:	900f      	str	r0, [sp, #60]	; 0x3c
 166:	2001      	movs	r0, #1
 168:	900f      	str	r0, [sp, #60]	; 0x3c
 16a:	e7ff      	b.n	16c <app::touch_sensor::read_register_range+0x16c>
/Users/Luppy/mynewt/stm32bluepill-mynewt-sensor/rust/app/src/touch_sensor.rs:243
    }
    Ok(())
}
 16c:	980f      	ldr	r0, [sp, #60]	; 0x3c
 16e:	b014      	add	sp, #80	; 0x50
 170:	bd70      	pop	{r4, r5, r6, pc}
 172:	2000      	movs	r0, #0
/Users/Luppy/mynewt/stm32bluepill-mynewt-sensor/rust/app/src/touch_sensor.rs:242
    Ok(())
 174:	900f      	str	r0, [sp, #60]	; 0x3c
 176:	2001      	movs	r0, #1
 178:	900f      	str	r0, [sp, #60]	; 0x3c
/Users/Luppy/mynewt/stm32bluepill-mynewt-sensor/rust/app/src/touch_sensor.rs:243
}
 17a:	e7f7      	b.n	16c <app::touch_sensor::read_register_range+0x16c>
/Users/Luppy/mynewt/stm32bluepill-mynewt-sensor/rust/app/src/touch_sensor.rs:210
    assert!(start_register + num_registers < 128, "i2c addr");   //  Not 7-bit address
 17c:	f240 0000 	movw	r0, #0
 180:	f2c0 0000 	movt	r0, #0
 184:	f7ff fffe 	bl	0 <core::panicking::panic>
 188:	defe      	udf	#254	; 0xfe

app-e8778d9de5b9c761.4twe6dvkf1ial8e4.rcgu.o:     file format elf32-littlearm

SYMBOL TABLE:
00000000 l    df *ABS*	00000000 4twe6dvkf1ial8e4
00000114 l       .debug_str	00000000 
00000000 l       .debug_str	00000000 
00000041 l       .debug_str	00000000 
00000055 l       .debug_str	00000000 
00000085 l       .debug_str	00000000 
0000008a l       .debug_str	00000000 
00000093 l       .debug_str	00000000 
0000009c l       .debug_str	00000000 
00000119 l       .debug_str	00000000 
000000fc l       .debug_str	00000000 
00000102 l       .debug_str	00000000 
00000104 l       .debug_str	00000000 
00000108 l       .debug_str	00000000 
0000010a l       .debug_str	00000000 
00000000 l    d  .text._ZN64_$LT$piet..gradient..UnitPoint$u20$as$u20$core..clone..Clone$GT$5clone17h8edcf51b8e9484d2E	00000000 .text._ZN64_$LT$piet..gradient..UnitPoint$u20$as$u20$core..clone..Clone$GT$5clone17h8edcf51b8e9484d2E
00000000 l    d  .debug_abbrev	00000000 .debug_abbrev
00000000 l    d  .debug_info	00000000 .debug_info
00000000 l    d  .debug_frame	00000000 .debug_frame
00000000 l    d  .debug_line	00000000 .debug_line
00000000 g     F .text._ZN64_$LT$piet..gradient..UnitPoint$u20$as$u20$core..clone..Clone$GT$5clone17h8edcf51b8e9484d2E	00000016 .hidden <piet::gradient::UnitPoint as core::clone::Clone>::clone



Disassembly of section .text._ZN64_$LT$piet..gradient..UnitPoint$u20$as$u20$core..clone..Clone$GT$5clone17h8edcf51b8e9484d2E:

00000000 <<piet::gradient::UnitPoint as core::clone::Clone>::clone>:
_ZN64_$LT$piet..gradient..UnitPoint$u20$as$u20$core..clone..Clone$GT$5clone17h8edcf51b8e9484d2E():
/Users/Luppy/mynewt/piet-embedded/piet/src/gradient.rs:188
    /// values on the other axis may extend outside the target rectangle.
    Fill,
}

/// A representation of a point relative to a unit rectangle.
#[derive(Debug, Clone, Copy)]
   0:	b082      	sub	sp, #8
   2:	4601      	mov	r1, r0
   4:	9001      	str	r0, [sp, #4]
   6:	9801      	ldr	r0, [sp, #4]
   8:	ed90 0b00 	vldr	d0, [r0]
   c:	ed90 1b02 	vldr	d1, [r0, #8]
  10:	9100      	str	r1, [sp, #0]
  12:	b002      	add	sp, #8
  14:	4770      	bx	lr

app-e8778d9de5b9c761.4zw3p3cvoyaljwtu.rcgu.o:     file format elf32-littlearm

SYMBOL TABLE:
00000000 l    df *ABS*	00000000 4zw3p3cvoyaljwtu
00000493 l       .debug_str	00000000 
000003e1 l       .debug_str	00000000 
00000444 l       .debug_str	00000000 
00000471 l       .debug_str	00000000 
00000478 l       .debug_str	00000000 
0000047b l       .debug_str	00000000 
00000481 l       .debug_str	00000000 
00000487 l       .debug_str	00000000 
00000490 l       .debug_str	00000000 
0000049d l       .debug_str	00000000 
000004a4 l       .debug_str	00000000 
000004aa l       .debug_str	00000000 
000004af l       .debug_str	00000000 
000004b8 l       .debug_str	00000000 
000004be l       .debug_str	00000000 
000004c0 l       .debug_str	00000000 
000004c4 l       .debug_str	00000000 
00000544 l       .debug_str	00000000 
000005aa l       .debug_str	00000000 
000005da l       .debug_str	00000000 
000005df l       .debug_str	00000000 
0000063d l       .debug_str	00000000 
000006a0 l       .debug_str	00000000 
00000000 l       .debug_str	00000000 
00000041 l       .debug_str	00000000 
00000055 l       .debug_str	00000000 
00000085 l       .debug_str	00000000 
0000008c l       .debug_str	00000000 
00000098 l       .debug_str	00000000 
000000a1 l       .debug_str	00000000 
000000aa l       .debug_str	00000000 
000000b1 l       .debug_str	00000000 
000000be l       .debug_str	00000000 
000000c8 l       .debug_str	00000000 
000000cc l       .debug_str	00000000 
000000d2 l       .debug_str	00000000 
000000da l       .debug_str	00000000 
000000e0 l       .debug_str	00000000 
000000ec l       .debug_str	00000000 
000000f0 l       .debug_str	00000000 
000000f9 l       .debug_str	00000000 
00000101 l       .debug_str	00000000 
00000106 l       .debug_str	00000000 
0000010d l       .debug_str	00000000 
0000010f l       .debug_str	00000000 
00000120 l       .debug_str	00000000 
00000132 l       .debug_str	00000000 
0000013b l       .debug_str	00000000 
0000016e l       .debug_str	00000000 
000001a2 l       .debug_str	00000000 
000001a7 l       .debug_str	00000000 
000001ad l       .debug_str	00000000 
000001b3 l       .debug_str	00000000 
000001b7 l       .debug_str	00000000 
000001be l       .debug_str	00000000 
000001c3 l       .debug_str	00000000 
000001f6 l       .debug_str	00000000 
0000022b l       .debug_str	00000000 
0000028c l       .debug_str	00000000 
000002b8 l       .debug_str	00000000 
00000322 l       .debug_str	00000000 
00000355 l       .debug_str	00000000 
000003b6 l       .debug_str	00000000 
00000000 l     O .rodata..Lanon.46d592ddec283241db5ec43378a5cfff.0	00000018 .Lanon.46d592ddec283241db5ec43378a5cfff.0
00000000 l     O .rodata..Lanon.46d592ddec283241db5ec43378a5cfff.3	00000018 .Lanon.46d592ddec283241db5ec43378a5cfff.3
00000000 l    d  .text._ZN11druid_shell8platform8embedded6window28WindowHandle$LT$THandler$GT$4show17h86e7bfe43beafbe2E	00000000 .text._ZN11druid_shell8platform8embedded6window28WindowHandle$LT$THandler$GT$4show17h86e7bfe43beafbe2E
00000000 l    d  .text._ZN11druid_shell8platform8embedded6window29WindowBuilder$LT$THandler$GT$11set_handler17he5b31d04620da42bE	00000000 .text._ZN11druid_shell8platform8embedded6window29WindowBuilder$LT$THandler$GT$11set_handler17he5b31d04620da42bE
00000000 l    d  .text._ZN11druid_shell8platform8embedded6window29WindowBuilder$LT$THandler$GT$3new17hce58c6ab1beef086E	00000000 .text._ZN11druid_shell8platform8embedded6window29WindowBuilder$LT$THandler$GT$3new17hce58c6ab1beef086E
00000000 l    d  .text._ZN11druid_shell8platform8embedded6window29WindowBuilder$LT$THandler$GT$5build17hd29fb84d8434106bE	00000000 .text._ZN11druid_shell8platform8embedded6window29WindowBuilder$LT$THandler$GT$5build17hd29fb84d8434106bE
00000000 l    d  .text._ZN11druid_shell8platform8embedded6window29WindowBuilder$LT$THandler$GT$8set_size17h798283b82a9a484cE	00000000 .text._ZN11druid_shell8platform8embedded6window29WindowBuilder$LT$THandler$GT$8set_size17h798283b82a9a484cE
00000000 l    d  .rodata..Lanon.46d592ddec283241db5ec43378a5cfff.0	00000000 .rodata..Lanon.46d592ddec283241db5ec43378a5cfff.0
00000000 l    d  .rodata..Lanon.46d592ddec283241db5ec43378a5cfff.1	00000000 .rodata..Lanon.46d592ddec283241db5ec43378a5cfff.1
00000000 l    d  .rodata..Lanon.46d592ddec283241db5ec43378a5cfff.2	00000000 .rodata..Lanon.46d592ddec283241db5ec43378a5cfff.2
00000000 l    d  .debug_loc	00000000 .debug_loc
00000000 l    d  .debug_abbrev	00000000 .debug_abbrev
00000000 l    d  .debug_info	00000000 .debug_info
00000000 l    d  .debug_ranges	00000000 .debug_ranges
00000000 l    d  .debug_frame	00000000 .debug_frame
00000000 l    d  .debug_line	00000000 .debug_line
00000000         *UND*	00000000 <druid_shell::platform::embedded::window::DruidContext as druid_shell::window::WinCtx>::invalidate
00000000         *UND*	00000000 <druid_shell::platform::embedded::window::DruidContext as druid_shell::window::WinCtx>::set_cursor
00000000         *UND*	00000000 <druid_shell::platform::embedded::window::DruidContext as druid_shell::window::WinCtx>::text_factory
00000000         *UND*	00000000 <piet_embedded_graphics::context::EmbedRenderContext as piet::render_context::RenderContext>::finish
00000000         *UND*	00000000 druid_shell::platform::embedded::window::PIET_CONTEXT
00000000         *UND*	00000000 druid_shell::platform::embedded::window::DRUID_CONTEXT
00000000 g     F .text._ZN11druid_shell8platform8embedded6window28WindowHandle$LT$THandler$GT$4show17h86e7bfe43beafbe2E	0000006a druid_shell::platform::embedded::window::WindowHandle<THandler>::show
00000000 g     F .text._ZN11druid_shell8platform8embedded6window29WindowBuilder$LT$THandler$GT$11set_handler17he5b31d04620da42bE	0000004a druid_shell::platform::embedded::window::WindowBuilder<THandler>::set_handler
00000000 g     F .text._ZN11druid_shell8platform8embedded6window29WindowBuilder$LT$THandler$GT$3new17hce58c6ab1beef086E	00000050 druid_shell::platform::embedded::window::WindowBuilder<THandler>::new
00000000 g     F .text._ZN11druid_shell8platform8embedded6window29WindowBuilder$LT$THandler$GT$5build17hd29fb84d8434106bE	00000068 druid_shell::platform::embedded::window::WindowBuilder<THandler>::build
00000000 g     F .text._ZN11druid_shell8platform8embedded6window29WindowBuilder$LT$THandler$GT$8set_size17h798283b82a9a484cE	0000003e druid_shell::platform::embedded::window::WindowBuilder<THandler>::set_size
00000000         *UND*	00000000 <druid::win_handler::DruidHandler<T> as druid_shell::window::WinHandler<druid::win_handler::DruidHandler<T>>>::add_handler
00000000         *UND*	00000000 <druid::win_handler::DruidHandler<T> as druid_shell::window::WinHandler<druid::win_handler::DruidHandler<T>>>::get_window_id
00000000         *UND*	00000000 <druid::win_handler::DruidHandler<T> as druid_shell::window::WinHandler<druid::win_handler::DruidHandler<T>>>::paint
00000000         *UND*	00000000 core::ptr::real_drop_in_place
00000000         *UND*	00000000 core::panicking::panic
00000000         *UND*	00000000 .hidden kurbo::size::Size::new
00000000         *UND*	00000000 <druid::win_handler::DruidHandler<T> as core::clone::Clone>::clone
00000000         *UND*	00000000 <druid::win_handler::DruidHandler<T> as core::default::Default>::default



Disassembly of section .text._ZN11druid_shell8platform8embedded6window28WindowHandle$LT$THandler$GT$4show17h86e7bfe43beafbe2E:

00000000 <druid_shell::platform::embedded::window::WindowHandle<THandler>::show>:
_ZN11druid_shell8platform8embedded6window28WindowHandle$LT$THandler$GT$4show17h86e7bfe43beafbe2E():
/Users/Luppy/mynewt/druid-embedded/druid-shell/src/platform/embedded/window.rs:361
    }
}

impl<THandler: WinHandler<THandler> + Clone + Default> WindowHandle<THandler> {  ////  THandler is DruidHandler<T: Data + 'static>
////impl WindowHandle {
    pub fn show(&self) {
   0:	b580      	push	{r7, lr}
   2:	b086      	sub	sp, #24
   4:	4601      	mov	r1, r0
   6:	9003      	str	r0, [sp, #12]
/Users/Luppy/mynewt/druid-embedded/druid-shell/src/platform/embedded/window.rs:362
        unsafe { self.state.handler.clone().paint(&mut PIET_CONTEXT, &mut DRUID_CONTEXT); }
   8:	9803      	ldr	r0, [sp, #12]
   a:	3008      	adds	r0, #8
   c:	9102      	str	r1, [sp, #8]
   e:	f7ff fffe 	bl	0 <<druid::win_handler::DruidHandler<T> as core::clone::Clone>::clone>
  12:	9004      	str	r0, [sp, #16]
  14:	e7ff      	b.n	16 <druid_shell::platform::embedded::window::WindowHandle<THandler>::show+0x16>
  16:	f240 0100 	movw	r1, #0
  1a:	f2c0 0100 	movt	r1, #0
  1e:	f240 0200 	movw	r2, #0
  22:	f2c0 0200 	movt	r2, #0
  26:	f240 0300 	movw	r3, #0
  2a:	f2c0 0300 	movt	r3, #0
  2e:	a804      	add	r0, sp, #16
  30:	f7ff fffe 	bl	0 <<druid::win_handler::DruidHandler<T> as druid_shell::window::WinHandler<druid::win_handler::DruidHandler<T>>>::paint>
  34:	9001      	str	r0, [sp, #4]
  36:	e7ff      	b.n	38 <druid_shell::platform::embedded::window::WindowHandle<THandler>::show+0x38>
  38:	e7ff      	b.n	3a <druid_shell::platform::embedded::window::WindowHandle<THandler>::show+0x3a>
/Users/Luppy/mynewt/druid-embedded/druid-shell/src/platform/embedded/window.rs:363
        if let Err(_) = unsafe { PIET_CONTEXT.finish() } {
  3a:	f240 0000 	movw	r0, #0
  3e:	f2c0 0000 	movt	r0, #0
  42:	f7ff fffe 	bl	0 <<piet_embedded_graphics::context::EmbedRenderContext as piet::render_context::RenderContext>::finish>
  46:	f88d 0017 	strb.w	r0, [sp, #23]
  4a:	e7ff      	b.n	4c <druid_shell::platform::embedded::window::WindowHandle<THandler>::show+0x4c>
  4c:	f89d 0017 	ldrb.w	r0, [sp, #23]
  50:	07c0      	lsls	r0, r0, #31
  52:	2800      	cmp	r0, #0
  54:	d007      	beq.n	66 <druid_shell::platform::embedded::window::WindowHandle<THandler>::show+0x66>
  56:	e7ff      	b.n	58 <druid_shell::platform::embedded::window::WindowHandle<THandler>::show+0x58>
/Users/Luppy/mynewt/stm32bluepill-mynewt-sensor/<::core::macros::panic macros>:3
  58:	f240 0000 	movw	r0, #0
  5c:	f2c0 0000 	movt	r0, #0
  60:	f7ff fffe 	bl	0 <core::panicking::panic>
  64:	defe      	udf	#254	; 0xfe
/Users/Luppy/mynewt/druid-embedded/druid-shell/src/platform/embedded/window.rs:366
            panic!("piet error on render");
        }
    }
  66:	b006      	add	sp, #24
  68:	bd80      	pop	{r7, pc}

Disassembly of section .text._ZN11druid_shell8platform8embedded6window29WindowBuilder$LT$THandler$GT$11set_handler17he5b31d04620da42bE:

00000000 <druid_shell::platform::embedded::window::WindowBuilder<THandler>::set_handler>:
_ZN11druid_shell8platform8embedded6window29WindowBuilder$LT$THandler$GT$11set_handler17he5b31d04620da42bE():
/Users/Luppy/mynewt/druid-embedded/druid-shell/src/platform/embedded/window.rs:158
    pub fn set_handler(&mut self, handler: THandler) { ////
   0:	b580      	push	{r7, lr}
   2:	b088      	sub	sp, #32
   4:	460a      	mov	r2, r1
   6:	4603      	mov	r3, r0
   8:	9005      	str	r0, [sp, #20]
   a:	9106      	str	r1, [sp, #24]
   c:	a806      	add	r0, sp, #24
/Users/Luppy/mynewt/druid-embedded/druid-shell/src/platform/embedded/window.rs:160
        let window_id = handler.get_window_id(); ////
   e:	9204      	str	r2, [sp, #16]
  10:	9303      	str	r3, [sp, #12]
  12:	f7ff fffe 	bl	0 <<druid::win_handler::DruidHandler<T> as druid_shell::window::WinHandler<druid::win_handler::DruidHandler<T>>>::get_window_id>
  16:	9007      	str	r0, [sp, #28]
  18:	e7ff      	b.n	1a <druid_shell::platform::embedded::window::WindowBuilder<THandler>::set_handler+0x1a>
/Users/Luppy/mynewt/druid-embedded/druid-shell/src/platform/embedded/window.rs:161
        self.window_id = window_id; ////
  1a:	9807      	ldr	r0, [sp, #28]
  1c:	9905      	ldr	r1, [sp, #20]
  1e:	6108      	str	r0, [r1, #16]
/Users/Luppy/mynewt/druid-embedded/druid-shell/src/platform/embedded/window.rs:162
        handler.add_handler(window_id, handler.clone()); ////
  20:	9907      	ldr	r1, [sp, #28]
  22:	a806      	add	r0, sp, #24
  24:	9102      	str	r1, [sp, #8]
  26:	f7ff fffe 	bl	0 <<druid::win_handler::DruidHandler<T> as core::clone::Clone>::clone>
  2a:	9001      	str	r0, [sp, #4]
  2c:	e7ff      	b.n	2e <druid_shell::platform::embedded::window::WindowBuilder<THandler>::set_handler+0x2e>
  2e:	a806      	add	r0, sp, #24
  30:	9902      	ldr	r1, [sp, #8]
  32:	9a01      	ldr	r2, [sp, #4]
  34:	f7ff fffe 	bl	0 <<druid::win_handler::DruidHandler<T> as druid_shell::window::WinHandler<druid::win_handler::DruidHandler<T>>>::add_handler>
  38:	e7ff      	b.n	3a <druid_shell::platform::embedded::window::WindowBuilder<THandler>::set_handler+0x3a>
/Users/Luppy/mynewt/druid-embedded/druid-shell/src/platform/embedded/window.rs:163
        self.handler = handler; ////
  3a:	9806      	ldr	r0, [sp, #24]
  3c:	9000      	str	r0, [sp, #0]
  3e:	e7ff      	b.n	40 <druid_shell::platform::embedded::window::WindowBuilder<THandler>::set_handler+0x40>
  40:	9805      	ldr	r0, [sp, #20]
  42:	9900      	ldr	r1, [sp, #0]
  44:	6141      	str	r1, [r0, #20]
/Users/Luppy/mynewt/druid-embedded/druid-shell/src/platform/embedded/window.rs:165
    }
  46:	b008      	add	sp, #32
  48:	bd80      	pop	{r7, pc}

Disassembly of section .text._ZN11druid_shell8platform8embedded6window29WindowBuilder$LT$THandler$GT$3new17hce58c6ab1beef086E:

00000000 <druid_shell::platform::embedded::window::WindowBuilder<THandler>::new>:
_ZN11druid_shell8platform8embedded6window29WindowBuilder$LT$THandler$GT$3new17hce58c6ab1beef086E():
/Users/Luppy/mynewt/druid-embedded/druid-shell/src/platform/embedded/window.rs:141
    pub fn new() -> Self { ////
   0:	b580      	push	{r7, lr}
   2:	b08c      	sub	sp, #48	; 0x30
   4:	ed9f 0b10 	vldr	d0, [pc, #64]	; 48 <druid_shell::platform::embedded::window::WindowBuilder<THandler>::new+0x48>
   8:	ed8d 0b08 	vstr	d0, [sp, #32]
/Users/Luppy/mynewt/druid-embedded/druid-shell/src/platform/embedded/window.rs:145
            size: Size::new( ////
   c:	ed9d 1b08 	vldr	d1, [sp, #32]
  10:	9007      	str	r0, [sp, #28]
  12:	f7ff fffe 	bl	0 <kurbo::size::Size::new>
  16:	ed8d 0b04 	vstr	d0, [sp, #16]
  1a:	ed8d 1b02 	vstr	d1, [sp, #8]
  1e:	e7ff      	b.n	2 <<druid::win_handler::DruidHandler<T> as core::default::Default>::default+0x2>
/Users/Luppy/mynewt/druid-embedded/druid-shell/src/platform/embedded/window.rs:150
            handler: Default::default(), ////
  20:	f7ff fffe 	bl	0 <<druid::win_handler::DruidHandler<T> as core::default::Default>::default>
  24:	9001      	str	r0, [sp, #4]
  26:	e7ff      	b.n	28 <druid_shell::platform::embedded::window::WindowBuilder<THandler>::new+0x28>
  28:	2000      	movs	r0, #0
/Users/Luppy/mynewt/druid-embedded/druid-shell/src/platform/embedded/window.rs:143
        WindowBuilder  {
  2a:	9907      	ldr	r1, [sp, #28]
  2c:	6108      	str	r0, [r1, #16]
  2e:	9801      	ldr	r0, [sp, #4]
  30:	6148      	str	r0, [r1, #20]
  32:	ed9d 0b04 	vldr	d0, [sp, #16]
  36:	ed81 0b00 	vstr	d0, [r1]
  3a:	ed9d 1b02 	vldr	d1, [sp, #8]
  3e:	ed81 1b02 	vstr	d1, [r1, #8]
/Users/Luppy/mynewt/druid-embedded/druid-shell/src/platform/embedded/window.rs:156
    }
  42:	b00c      	add	sp, #48	; 0x30
  44:	bd80      	pop	{r7, pc}
  46:	bf00      	nop
  48:	00000000 	.word	0x00000000
  4c:	406e0000 	.word	0x406e0000

Disassembly of section .text._ZN11druid_shell8platform8embedded6window29WindowBuilder$LT$THandler$GT$5build17hd29fb84d8434106bE:

00000000 <druid_shell::platform::embedded::window::WindowBuilder<THandler>::build>:
_ZN11druid_shell8platform8embedded6window29WindowBuilder$LT$THandler$GT$5build17hd29fb84d8434106bE():
/Users/Luppy/mynewt/druid-embedded/druid-shell/src/platform/embedded/window.rs:171
    pub fn build(self) -> Result<WindowHandle<THandler>, Error> { ////
   0:	b580      	push	{r7, lr}
   2:	b08c      	sub	sp, #48	; 0x30
   4:	460a      	mov	r2, r1
   6:	4603      	mov	r3, r0
/Users/Luppy/mynewt/druid-embedded/druid-shell/src/platform/embedded/window.rs:173
        let window_id = self.window_id; ////
   8:	f8d1 c010 	ldr.w	ip, [r1, #16]
   c:	f8cd c008 	str.w	ip, [sp, #8]
/Users/Luppy/mynewt/druid-embedded/druid-shell/src/platform/embedded/window.rs:174
        let handler = self.handler; ////
  10:	6949      	ldr	r1, [r1, #20]
  12:	9103      	str	r1, [sp, #12]
/Users/Luppy/mynewt/druid-embedded/druid-shell/src/platform/embedded/window.rs:176
            window_id, ////
  14:	9902      	ldr	r1, [sp, #8]
/Users/Luppy/mynewt/druid-embedded/druid-shell/src/platform/embedded/window.rs:177
            handler, ////
  16:	f8dd c00c 	ldr.w	ip, [sp, #12]
/Users/Luppy/mynewt/druid-embedded/druid-shell/src/platform/embedded/window.rs:175
        let state = WindowState {
  1a:	9104      	str	r1, [sp, #16]
  1c:	f8cd c014 	str.w	ip, [sp, #20]
/Users/Luppy/mynewt/druid-embedded/druid-shell/src/platform/embedded/window.rs:180
            window_id, ////
  20:	9902      	ldr	r1, [sp, #8]
/Users/Luppy/mynewt/druid-embedded/druid-shell/src/platform/embedded/window.rs:181
            state, ////
  22:	f8dd c010 	ldr.w	ip, [sp, #16]
  26:	f8dd e014 	ldr.w	lr, [sp, #20]
/Users/Luppy/mynewt/druid-embedded/druid-shell/src/platform/embedded/window.rs:179
        let handle = WindowHandle {
  2a:	9106      	str	r1, [sp, #24]
  2c:	f8cd c01c 	str.w	ip, [sp, #28]
  30:	f8cd e020 	str.w	lr, [sp, #32]
/Users/Luppy/mynewt/druid-embedded/druid-shell/src/platform/embedded/window.rs:184
        Ok(handle)
  34:	9906      	ldr	r1, [sp, #24]
  36:	f8dd c01c 	ldr.w	ip, [sp, #28]
  3a:	f8dd e020 	ldr.w	lr, [sp, #32]
  3e:	f8cd e02c 	str.w	lr, [sp, #44]	; 0x2c
  42:	f8cd c028 	str.w	ip, [sp, #40]	; 0x28
  46:	9109      	str	r1, [sp, #36]	; 0x24
  48:	9909      	ldr	r1, [sp, #36]	; 0x24
  4a:	f8dd c028 	ldr.w	ip, [sp, #40]	; 0x28
  4e:	f8dd e02c 	ldr.w	lr, [sp, #44]	; 0x2c
  52:	f8c0 e00c 	str.w	lr, [r0, #12]
  56:	f8c0 c008 	str.w	ip, [r0, #8]
  5a:	6041      	str	r1, [r0, #4]
  5c:	2100      	movs	r1, #0
  5e:	6001      	str	r1, [r0, #0]
/Users/Luppy/mynewt/druid-embedded/druid-shell/src/platform/embedded/window.rs:356
    }
  60:	9201      	str	r2, [sp, #4]
  62:	9300      	str	r3, [sp, #0]
  64:	b00c      	add	sp, #48	; 0x30
  66:	bd80      	pop	{r7, pc}

Disassembly of section .text._ZN11druid_shell8platform8embedded6window29WindowBuilder$LT$THandler$GT$8set_size17h798283b82a9a484cE:

00000000 <druid_shell::platform::embedded::window::WindowBuilder<THandler>::set_size>:
_ZN11druid_shell8platform8embedded6window29WindowBuilder$LT$THandler$GT$8set_size17h798283b82a9a484cE():
/Users/Luppy/mynewt/druid-embedded/druid-shell/src/platform/embedded/window.rs:167
    pub fn set_size(&mut self, size: Size) {
   0:	b08c      	sub	sp, #48	; 0x30
   2:	eeb0 2a41 	vmov.f32	s4, s2
   6:	eef0 2a61 	vmov.f32	s5, s3
   a:	eeb0 3a40 	vmov.f32	s6, s0
   e:	eef0 3a60 	vmov.f32	s7, s1
  12:	4601      	mov	r1, r0
  14:	9007      	str	r0, [sp, #28]
  16:	ed8d 0b08 	vstr	d0, [sp, #32]
  1a:	ed8d 1b0a 	vstr	d1, [sp, #40]	; 0x28
/Users/Luppy/mynewt/druid-embedded/druid-shell/src/platform/embedded/window.rs:168
        self.size = size;
  1e:	ed9d 0b08 	vldr	d0, [sp, #32]
  22:	ed9d 1b0a 	vldr	d1, [sp, #40]	; 0x28
  26:	9807      	ldr	r0, [sp, #28]
  28:	ed80 0b00 	vstr	d0, [r0]
  2c:	ed80 1b02 	vstr	d1, [r0, #8]
  30:	ed8d 2b04 	vstr	d2, [sp, #16]
  34:	ed8d 3b02 	vstr	d3, [sp, #8]
/Users/Luppy/mynewt/druid-embedded/druid-shell/src/platform/embedded/window.rs:169
    }
  38:	9101      	str	r1, [sp, #4]
  3a:	b00c      	add	sp, #48	; 0x30
  3c:	4770      	bx	lr

app-e8778d9de5b9c761.5av5n9x95x8xqwr1.rcgu.o:     file format elf32-littlearm

SYMBOL TABLE:
00000000 l    df *ABS*	00000000 5av5n9x95x8xqwr1
0000219a l       .debug_str	00000000 
00002759 l       .debug_str	00000000 
00002762 l       .debug_str	00000000 
00002795 l       .debug_str	00000000 
000027c9 l       .debug_str	00000000 
00002813 l       .debug_str	00000000 
0000281e l       .debug_str	00000000 
00002834 l       .debug_str	00000000 
0000283f l       .debug_str	00000000 
0000284a l       .debug_str	00000000 
00002852 l       .debug_str	00000000 
00002860 l       .debug_str	00000000 
0000287a l       .debug_str	00000000 
00002883 l       .debug_str	00000000 
000028bd l       .debug_str	00000000 
000028c9 l       .debug_str	00000000 
00000000 l       .debug_str	00000000 
00000041 l       .debug_str	00000000 
00000055 l       .debug_str	00000000 
00000085 l       .debug_str	00000000 
0000008b l       .debug_str	00000000 
00000092 l       .debug_str	00000000 
00000097 l       .debug_str	00000000 
0000009a l       .debug_str	00000000 
000000a5 l       .debug_str	00000000 
000000ae l       .debug_str	00000000 
000000b3 l       .debug_str	00000000 
000000b8 l       .debug_str	00000000 
000000bf l       .debug_str	00000000 
000000c4 l       .debug_str	00000000 
000000c9 l       .debug_str	00000000 
000000d0 l       .debug_str	00000000 
000000d4 l       .debug_str	00000000 
000000da l       .debug_str	00000000 
00000103 l       .debug_str	00000000 
0000010a l       .debug_str	00000000 
00000138 l       .debug_str	00000000 
00000143 l       .debug_str	00000000 
00000146 l       .debug_str	00000000 
0000014a l       .debug_str	00000000 
00000154 l       .debug_str	00000000 
0000015d l       .debug_str	00000000 
00000166 l       .debug_str	00000000 
0000016a l       .debug_str	00000000 
0000016e l       .debug_str	00000000 
00000170 l       .debug_str	00000000 
00000177 l       .debug_str	00000000 
0000017b l       .debug_str	00000000 
00000182 l       .debug_str	00000000 
00000185 l       .debug_str	00000000 
0000018b l       .debug_str	00000000 
00000199 l       .debug_str	00000000 
0000019e l       .debug_str	00000000 
000001a6 l       .debug_str	00000000 
000001ae l       .debug_str	00000000 
000001b4 l       .debug_str	00000000 
000001c0 l       .debug_str	00000000 
000001c6 l       .debug_str	00000000 
000001cb l       .debug_str	00000000 
000001ce l       .debug_str	00000000 
000001d2 l       .debug_str	00000000 
000001d5 l       .debug_str	00000000 
000001d8 l       .debug_str	00000000 
000001db l       .debug_str	00000000 
000001e0 l       .debug_str	00000000 
000001ec l       .debug_str	00000000 
000001f1 l       .debug_str	00000000 
000001f8 l       .debug_str	00000000 
00000202 l       .debug_str	00000000 
0000020d l       .debug_str	00000000 
0000021a l       .debug_str	00000000 
00000228 l       .debug_str	00000000 
00000232 l       .debug_str	00000000 
00000240 l       .debug_str	00000000 
0000024a l       .debug_str	00000000 
00000253 l       .debug_str	00000000 
00000255 l       .debug_str	00000000 
00000261 l       .debug_str	00000000 
00000265 l       .debug_str	00000000 
0000026b l       .debug_str	00000000 
00000275 l       .debug_str	00000000 
00000279 l       .debug_str	00000000 
00000280 l       .debug_str	00000000 
00000291 l       .debug_str	00000000 
00000293 l       .debug_str	00000000 
000002a2 l       .debug_str	00000000 
000002a4 l       .debug_str	00000000 
000002dd l       .debug_str	00000000 
000002e4 l       .debug_str	00000000 
000002eb l       .debug_str	00000000 
000002fc l       .debug_str	00000000 
000002fe l       .debug_str	00000000 
0000033d l       .debug_str	00000000 
00000345 l       .debug_str	00000000 
00000378 l       .debug_str	00000000 
00000403 l       .debug_str	00000000 
000004da l       .debug_str	00000000 
000005fd l       .debug_str	00000000 
00000605 l       .debug_str	00000000 
0000060a l       .debug_str	00000000 
00000610 l       .debug_str	00000000 
00000614 l       .debug_str	00000000 
00000617 l       .debug_str	00000000 
00000640 l       .debug_str	00000000 
00000676 l       .debug_str	00000000 
00000678 l       .debug_str	00000000 
000006a5 l       .debug_str	00000000 
000006a8 l       .debug_str	00000000 
000006f8 l       .debug_str	00000000 
00000755 l       .debug_str	00000000 
000007a9 l       .debug_str	00000000 
00000820 l       .debug_str	00000000 
000008a4 l       .debug_str	00000000 
0000091f l       .debug_str	00000000 
000009bd l       .debug_str	00000000 
00000a68 l       .debug_str	00000000 
00000b0a l       .debug_str	00000000 
00000bf0 l       .debug_str	00000000 
00000cf3 l       .debug_str	00000000 
00000df5 l       .debug_str	00000000 
00000df9 l       .debug_str	00000000 
00000dff l       .debug_str	00000000 
00000e01 l       .debug_str	00000000 
00000efb l       .debug_str	00000000 
00000efd l       .debug_str	00000000 
00000fda l       .debug_str	00000000 
00000fe4 l       .debug_str	00000000 
00000ff0 l       .debug_str	00000000 
00000ffd l       .debug_str	00000000 
00001024 l       .debug_str	00000000 
00001029 l       .debug_str	00000000 
0000102d l       .debug_str	00000000 
00001033 l       .debug_str	00000000 
0000103a l       .debug_str	00000000 
0000103f l       .debug_str	00000000 
00001059 l       .debug_str	00000000 
00001060 l       .debug_str	00000000 
00001069 l       .debug_str	00000000 
00001076 l       .debug_str	00000000 
000010a6 l       .debug_str	00000000 
000010ab l       .debug_str	00000000 
000010b8 l       .debug_str	00000000 
000010bc l       .debug_str	00000000 
000010c5 l       .debug_str	00000000 
000010cf l       .debug_str	00000000 
000010d6 l       .debug_str	00000000 
000010db l       .debug_str	00000000 
000010e7 l       .debug_str	00000000 
000010ee l       .debug_str	00000000 
0000110a l       .debug_str	00000000 
0000111a l       .debug_str	00000000 
0000115f l       .debug_str	00000000 
000011cc l       .debug_str	00000000 
00001262 l       .debug_str	00000000 
00001321 l       .debug_str	00000000 
00001398 l       .debug_str	00000000 
0000141c l       .debug_str	00000000 
00001497 l       .debug_str	00000000 
00001535 l       .debug_str	00000000 
000015e0 l       .debug_str	00000000 
00001682 l       .debug_str	00000000 
00001747 l       .debug_str	00000000 
00001819 l       .debug_str	00000000 
000018e2 l       .debug_str	00000000 
000019cc l       .debug_str	00000000 
00001ad3 l       .debug_str	00000000 
00001bd9 l       .debug_str	00000000 
00001cd7 l       .debug_str	00000000 
00001dd8 l       .debug_str	00000000 
00001eb8 l       .debug_str	00000000 
00001fb2 l       .debug_str	00000000 
00001fb7 l       .debug_str	00000000 
00001fbc l       .debug_str	00000000 
00001fc0 l       .debug_str	00000000 
00001fd1 l       .debug_str	00000000 
000020e1 l       .debug_str	00000000 
000020f0 l       .debug_str	00000000 
0000211c l       .debug_str	00000000 
00002161 l       .debug_str	00000000 
00002231 l       .debug_str	00000000 
000022cf l       .debug_str	00000000 
0000238a l       .debug_str	00000000 
00002444 l       .debug_str	00000000 
000024f6 l       .debug_str	00000000 
0000258b l       .debug_str	00000000 
00002637 l       .debug_str	00000000 
00002640 l       .debug_str	00000000 
00002655 l       .debug_str	00000000 
0000265b l       .debug_str	00000000 
00002665 l       .debug_str	00000000 
0000266e l       .debug_str	00000000 
0000267d l       .debug_str	00000000 
00002683 l       .debug_str	00000000 
00002688 l       .debug_str	00000000 
00002691 l       .debug_str	00000000 
00002693 l       .debug_str	00000000 
00002695 l       .debug_str	00000000 
0000269f l       .debug_str	00000000 
000026aa l       .debug_str	00000000 
000026b1 l       .debug_str	00000000 
000026b8 l       .debug_str	00000000 
000026c0 l       .debug_str	00000000 
000026cc l       .debug_str	00000000 
000026d4 l       .debug_str	00000000 
000026dc l       .debug_str	00000000 
000026e3 l       .debug_str	00000000 
000026f7 l       .debug_str	00000000 
00002703 l       .debug_str	00000000 
0000270f l       .debug_str	00000000 
00002719 l       .debug_str	00000000 
00002722 l       .debug_str	00000000 
0000272b l       .debug_str	00000000 
00002733 l       .debug_str	00000000 
0000273f l       .debug_str	00000000 
00002747 l       .debug_str	00000000 
00000000 l     O .rodata..Lanon.fcaafde8b97c0f86d29cd158ff20c69b.0	0000000d .Lanon.fcaafde8b97c0f86d29cd158ff20c69b.0
00000000 l     O .rodata..Lanon.fcaafde8b97c0f86d29cd158ff20c69b.1	0000000d .Lanon.fcaafde8b97c0f86d29cd158ff20c69b.1
00000000 l     O .rodata..Lanon.fcaafde8b97c0f86d29cd158ff20c69b.2	00000005 .Lanon.fcaafde8b97c0f86d29cd158ff20c69b.2
00000000 l     O .rodata..Lanon.fcaafde8b97c0f86d29cd158ff20c69b.3	00000009 .Lanon.fcaafde8b97c0f86d29cd158ff20c69b.3
00000000 l     F .text._ZN3app5hello10ui_builder17hbb4278c3f9fe08f9E	000000b8 app::hello::ui_builder
00000000 l    d  .text._ZN3app5hello6launch17h060f692f7c03af86E	00000000 .text._ZN3app5hello6launch17h060f692f7c03af86E
00000000 l    d  .text._ZN3app5hello10ui_builder17hbb4278c3f9fe08f9E	00000000 .text._ZN3app5hello10ui_builder17hbb4278c3f9fe08f9E
00000000 l    d  .debug_abbrev	00000000 .debug_abbrev
00000000 l    d  .debug_info	00000000 .debug_info
00000000 l    d  .debug_ranges	00000000 .debug_ranges
00000000 l    d  .debug_frame	00000000 .debug_frame
00000000 l    d  .debug_line	00000000 .debug_line
00000000 g     F .text._ZN3app5hello6launch17h060f692f7c03af86E	00000062 .hidden app::hello::launch
00000000         *UND*	00000000 core::ops::function::FnOnce::call_once
00000000         *UND*	00000000 core::ops::function::FnOnce::call_once
00000000         *UND*	00000000 core::ptr::real_drop_in_place
00000000         *UND*	00000000 core::result::Result<T,E>::expect
00000000         *UND*	00000000 druid::localization::LocalizedString<T>::new
00000000         *UND*	00000000 druid::localization::LocalizedString<T>::with_arg
00000000         *UND*	00000000 druid::app::WindowDesc<T,W>::new
00000000         *UND*	00000000 druid::app::AppLauncher<T,W>::with_window
00000000         *UND*	00000000 druid::app::AppLauncher<T,W>::use_simple_logger
00000000         *UND*	00000000 druid::app::AppLauncher<T,W>::launch
00000000         *UND*	00000000 druid::widget::flex::Flex<T>::add_child
00000000         *UND*	00000000 druid::widget::flex::Column::new
00000000         *UND*	00000000 druid::widget::label::Label<T>::new
00000000         *UND*	00000000 druid::widget::button::Button<T>::new
00000000         *UND*	00000000 __aeabi_memcpy4
00000000         *UND*	00000000 __aeabi_memcpy8



Disassembly of section .text._ZN3app5hello6launch17h060f692f7c03af86E:

00000000 <app::hello::launch>:
_ZN3app5hello6launch17h060f692f7c03af86E():
/Users/Luppy/mynewt/stm32bluepill-mynewt-sensor/rust/app/src/hello.rs:19

#![no_std]  ////
use druid::widget::{Align, Button, Column, Label, Padding};
use druid::{AppLauncher, LocalizedString, Widget, WindowDesc};

pub fn launch() {
   0:	b510      	push	{r4, lr}
   2:	b0b8      	sub	sp, #224	; 0xe0
/Users/Luppy/mynewt/stm32bluepill-mynewt-sensor/rust/app/src/hello.rs:21
    //  Build a new window
    let main_window = WindowDesc::new(ui_builder);
   4:	f240 0100 	movw	r1, #0
   8:	f2c0 0100 	movt	r1, #0
   c:	4668      	mov	r0, sp
   e:	f7ff fffe 	bl	0 <druid::app::WindowDesc<T,W>::new>
  12:	e7ff      	b.n	14 <app::hello::launch+0x14>
  14:	2000      	movs	r0, #0
/Users/Luppy/mynewt/stm32bluepill-mynewt-sensor/rust/app/src/hello.rs:22
    let data = 0_u32;
  16:	9008      	str	r0, [sp, #32]
  18:	4668      	mov	r0, sp
  1a:	a930      	add	r1, sp, #192	; 0xc0
/Users/Luppy/mynewt/stm32bluepill-mynewt-sensor/rust/app/src/hello.rs:24
    //  Launch the window
    AppLauncher::with_window(main_window)
  1c:	460a      	mov	r2, r1
  1e:	e8b0 5018 	ldmia.w	r0!, {r3, r4, ip, lr}
  22:	e8a2 5018 	stmia.w	r2!, {r3, r4, ip, lr}
  26:	e890 5018 	ldmia.w	r0, {r3, r4, ip, lr}
  2a:	e882 5018 	stmia.w	r2, {r3, r4, ip, lr}
  2e:	a81e      	add	r0, sp, #120	; 0x78
  30:	f7ff fffe 	bl	0 <druid::app::AppLauncher<T,W>::with_window>
  34:	e7ff      	b.n	36 <app::hello::launch+0x36>
  36:	a80c      	add	r0, sp, #48	; 0x30
  38:	a91e      	add	r1, sp, #120	; 0x78
  3a:	f7ff fffe 	bl	0 <druid::app::AppLauncher<T,W>::use_simple_logger>
  3e:	e7ff      	b.n	40 <app::hello::launch+0x40>
/Users/Luppy/mynewt/stm32bluepill-mynewt-sensor/rust/app/src/hello.rs:26
        .use_simple_logger()
        .launch(data)
  40:	9a08      	ldr	r2, [sp, #32]
  42:	a809      	add	r0, sp, #36	; 0x24
  44:	a90c      	add	r1, sp, #48	; 0x30
/Users/Luppy/mynewt/stm32bluepill-mynewt-sensor/rust/app/src/hello.rs:24
    AppLauncher::with_window(main_window)
  46:	f7ff fffe 	bl	0 <druid::app::AppLauncher<T,W>::launch>
  4a:	e7ff      	b.n	2 <app::hello::launch+0x2>
  4c:	f240 0100 	movw	r1, #0
  50:	f2c0 0100 	movt	r1, #0
  54:	a809      	add	r0, sp, #36	; 0x24
  56:	220d      	movs	r2, #13
  58:	f7ff fffe 	bl	0 <core::result::Result<T,E>::expect>
  5c:	e7ff      	b.n	5e <app::hello::launch+0x5e>
/Users/Luppy/mynewt/stm32bluepill-mynewt-sensor/rust/app/src/hello.rs:28
        .expect("launch failed");
}
  5e:	b038      	add	sp, #224	; 0xe0
  60:	bd10      	pop	{r4, pc}

Disassembly of section .text._ZN3app5hello10ui_builder17hbb4278c3f9fe08f9E:

00000000 <app::hello::ui_builder>:
_ZN3app5hello10ui_builder17hbb4278c3f9fe08f9E():
/Users/Luppy/mynewt/stm32bluepill-mynewt-sensor/rust/app/src/hello.rs:31

/// Build the UI for the window. The window state consists of 1 value: `count` of type `u32`.
fn ui_builder() -> impl Widget<u32> {  //  `u32` is the window state
   0:	b580      	push	{r7, lr}
   2:	f5ad 6d98 	sub.w	sp, sp, #1216	; 0x4c0
/Users/Luppy/mynewt/stm32bluepill-mynewt-sensor/rust/app/src/hello.rs:34
    //  Create a line of text based on a counter value
    let text =
        LocalizedString::new("hello-counter")
   6:	f240 0100 	movw	r1, #0
   a:	f2c0 0100 	movt	r1, #0
   e:	aa1d      	add	r2, sp, #116	; 0x74
  10:	230d      	movs	r3, #13
  12:	9004      	str	r0, [sp, #16]
  14:	4610      	mov	r0, r2
  16:	461a      	mov	r2, r3
  18:	f7ff fffe 	bl	0 <druid::localization::LocalizedString<T>::new>
  1c:	e7ff      	b.n	2 <core::ops::function::FnOnce::call_once+0x2>
  1e:	f240 0000 	movw	r0, #0
  22:	f2c0 0000 	movt	r0, #0
  26:	4669      	mov	r1, sp
  28:	6008      	str	r0, [r1, #0]
  2a:	f240 0200 	movw	r2, #0
  2e:	f2c0 0200 	movt	r2, #0
  32:	a805      	add	r0, sp, #20
  34:	a91d      	add	r1, sp, #116	; 0x74
  36:	2305      	movs	r3, #5
  38:	f7ff fffe 	bl	0 <druid::localization::LocalizedString<T>::with_arg>
  3c:	e7ff      	b.n	3e <app::hello::ui_builder+0x3e>
  3e:	a854      	add	r0, sp, #336	; 0x150
  40:	a905      	add	r1, sp, #20
  42:	2260      	movs	r2, #96	; 0x60
/Users/Luppy/mynewt/stm32bluepill-mynewt-sensor/rust/app/src/hello.rs:40
        .with_arg(
            "count", 
            |data: &u32, _env| (*data).into()
        );
    //  Create a label widget to display the text
    let label = Label::new(text);
  44:	9003      	str	r0, [sp, #12]
  46:	f7ff fffe 	bl	0 <__aeabi_memcpy4>
  4a:	a836      	add	r0, sp, #216	; 0xd8
  4c:	9903      	ldr	r1, [sp, #12]
  4e:	f7ff fffe 	bl	0 <druid::widget::label::Label<T>::new>
  52:	e7ff      	b.n	2 <app::hello::ui_builder+0x2>
/Users/Luppy/mynewt/stm32bluepill-mynewt-sensor/rust/app/src/hello.rs:42
    //  Create a button widget to increment the counter
    let button = Button::<u32>::new( ////
  54:	f240 0100 	movw	r1, #0
  58:	f2c0 0100 	movt	r1, #0
  5c:	f240 0300 	movw	r3, #0
  60:	f2c0 0300 	movt	r3, #0
  64:	a86c      	add	r0, sp, #432	; 0x1b0
  66:	2209      	movs	r2, #9
  68:	f7ff fffe 	bl	0 <druid::widget::button::Button<T>::new>
  6c:	e7ff      	b.n	6e <app::hello::ui_builder+0x6e>
  6e:	a88e      	add	r0, sp, #568	; 0x238
/Users/Luppy/mynewt/stm32bluepill-mynewt-sensor/rust/app/src/hello.rs:49
        "increment", 
        |_ctx, data, _env| *data += 1
    );

    //  Create a column for the UI
    let mut col = Column::new();
  70:	f7ff fffe 	bl	0 <druid::widget::flex::Column::new>
  74:	e7ff      	b.n	76 <app::hello::ui_builder+0x76>
  76:	f50d 6089 	add.w	r0, sp, #1096	; 0x448
  7a:	a936      	add	r1, sp, #216	; 0xd8
  7c:	2278      	movs	r2, #120	; 0x78
/Users/Luppy/mynewt/stm32bluepill-mynewt-sensor/rust/app/src/hello.rs:51
    //  Add the label and button widgets to the column
    col.add_child(label, 1.0); ////
  7e:	9002      	str	r0, [sp, #8]
  80:	f7ff fffe 	bl	0 <__aeabi_memcpy8>
  84:	a88e      	add	r0, sp, #568	; 0x238
  86:	ed9f 0b0a 	vldr	d0, [pc, #40]	; b0 <app::hello::ui_builder+0xb0>
  8a:	9902      	ldr	r1, [sp, #8]
  8c:	f7ff fffe 	bl	0 <druid::widget::flex::Flex<T>::add_child>
  90:	e7ff      	b.n	92 <app::hello::ui_builder+0x92>
  92:	a98e      	add	r1, sp, #568	; 0x238
  94:	f44f 7204 	mov.w	r2, #528	; 0x210
/Users/Luppy/mynewt/stm32bluepill-mynewt-sensor/rust/app/src/hello.rs:64
    col.add_child(
        Padding::new(5.0, button), 
        1.0
    );
    */
    col
  98:	9804      	ldr	r0, [sp, #16]
  9a:	f7ff fffe 	bl	0 <__aeabi_memcpy8>
  9e:	a86c      	add	r0, sp, #432	; 0x1b0
/Users/Luppy/mynewt/stm32bluepill-mynewt-sensor/rust/app/src/hello.rs:65
}
  a0:	f7ff fffe 	bl	0 <core::ptr::real_drop_in_place>
  a4:	e7ff      	b.n	a6 <app::hello::ui_builder+0xa6>
  a6:	f50d 6d98 	add.w	sp, sp, #1216	; 0x4c0
  aa:	bd80      	pop	{r7, pc}
  ac:	bf00      	nop
  ae:	bf00      	nop
  b0:	00000000 	.word	0x00000000
  b4:	3ff00000 	.word	0x3ff00000

app-e8778d9de5b9c761.5bvltiph22g7nrf3.rcgu.o:     file format elf32-littlearm

SYMBOL TABLE:
00000000 l    df *ABS*	00000000 5bvltiph22g7nrf3
0000198b l       .debug_str	00000000 
00001b51 l       .debug_str	00000000 
00001b6b l       .debug_str	00000000 
00001b74 l       .debug_str	00000000 
00001bae l       .debug_str	00000000 
00001bba l       .debug_str	00000000 
00001bd2 l       .debug_str	00000000 
00001c13 l       .debug_str	00000000 
00000000 l       .debug_str	00000000 
00000041 l       .debug_str	00000000 
00000055 l       .debug_str	00000000 
00000085 l       .debug_str	00000000 
0000008b l       .debug_str	00000000 
00000092 l       .debug_str	00000000 
00000099 l       .debug_str	00000000 
0000009c l       .debug_str	00000000 
000000a0 l       .debug_str	00000000 
000000a6 l       .debug_str	00000000 
000000ab l       .debug_str	00000000 
000000b5 l       .debug_str	00000000 
000000b9 l       .debug_str	00000000 
000000c6 l       .debug_str	00000000 
000000ca l       .debug_str	00000000 
000000d3 l       .debug_str	00000000 
000000d6 l       .debug_str	00000000 
000000e0 l       .debug_str	00000000 
000000e7 l       .debug_str	00000000 
000000ed l       .debug_str	00000000 
000000f2 l       .debug_str	00000000 
000000fe l       .debug_str	00000000 
00000103 l       .debug_str	00000000 
0000010a l       .debug_str	00000000 
0000010f l       .debug_str	00000000 
00000118 l       .debug_str	00000000 
0000011f l       .debug_str	00000000 
00000121 l       .debug_str	00000000 
00000125 l       .debug_str	00000000 
0000012c l       .debug_str	00000000 
00000130 l       .debug_str	00000000 
00000137 l       .debug_str	00000000 
0000013a l       .debug_str	00000000 
00000140 l       .debug_str	00000000 
0000014e l       .debug_str	00000000 
00000153 l       .debug_str	00000000 
0000015b l       .debug_str	00000000 
00000163 l       .debug_str	00000000 
00000165 l       .debug_str	00000000 
00000167 l       .debug_str	00000000 
00000183 l       .debug_str	00000000 
0000018b l       .debug_str	00000000 
00000192 l       .debug_str	00000000 
000001a2 l       .debug_str	00000000 
000001e7 l       .debug_str	00000000 
00000254 l       .debug_str	00000000 
000002ea l       .debug_str	00000000 
000003a9 l       .debug_str	00000000 
000003b1 l       .debug_str	00000000 
000003b6 l       .debug_str	00000000 
000003bc l       .debug_str	00000000 
000003c0 l       .debug_str	00000000 
000003c4 l       .debug_str	00000000 
000003c7 l       .debug_str	00000000 
000003f0 l       .debug_str	00000000 
00000426 l       .debug_str	00000000 
00000428 l       .debug_str	00000000 
00000455 l       .debug_str	00000000 
00000458 l       .debug_str	00000000 
000004a8 l       .debug_str	00000000 
00000505 l       .debug_str	00000000 
00000559 l       .debug_str	00000000 
000005d0 l       .debug_str	00000000 
00000654 l       .debug_str	00000000 
000006cf l       .debug_str	00000000 
0000076d l       .debug_str	00000000 
00000818 l       .debug_str	00000000 
000008ba l       .debug_str	00000000 
0000097f l       .debug_str	00000000 
00000a51 l       .debug_str	00000000 
00000b1a l       .debug_str	00000000 
00000c04 l       .debug_str	00000000 
00000d0b l       .debug_str	00000000 
00000e11 l       .debug_str	00000000 
00000e15 l       .debug_str	00000000 
00000e17 l       .debug_str	00000000 
00000f15 l       .debug_str	00000000 
00001016 l       .debug_str	00000000 
00001018 l       .debug_str	00000000 
000010f8 l       .debug_str	00000000 
000010fd l       .debug_str	00000000 
000011f7 l       .debug_str	00000000 
000011fc l       .debug_str	00000000 
00001201 l       .debug_str	00000000 
00001205 l       .debug_str	00000000 
00001209 l       .debug_str	00000000 
0000121a l       .debug_str	00000000 
0000132a l       .debug_str	00000000 
00001339 l       .debug_str	00000000 
00001365 l       .debug_str	00000000 
000013aa l       .debug_str	00000000 
000013e3 l       .debug_str	00000000 
0000147a l       .debug_str	00000000 
00001518 l       .debug_str	00000000 
000015d3 l       .debug_str	00000000 
0000168d l       .debug_str	00000000 
0000173f l       .debug_str	00000000 
000017d4 l       .debug_str	00000000 
00001880 l       .debug_str	00000000 
00001889 l       .debug_str	00000000 
0000189e l       .debug_str	00000000 
000018a7 l       .debug_str	00000000 
000018b6 l       .debug_str	00000000 
000018bc l       .debug_str	00000000 
000018c1 l       .debug_str	00000000 
000018ca l       .debug_str	00000000 
000018cc l       .debug_str	00000000 
000018d0 l       .debug_str	00000000 
000018d2 l       .debug_str	00000000 
000018dc l       .debug_str	00000000 
000018e7 l       .debug_str	00000000 
000018ee l       .debug_str	00000000 
000018f6 l       .debug_str	00000000 
00001902 l       .debug_str	00000000 
00001909 l       .debug_str	00000000 
00001911 l       .debug_str	00000000 
00001919 l       .debug_str	00000000 
00001920 l       .debug_str	00000000 
00001934 l       .debug_str	00000000 
00001940 l       .debug_str	00000000 
0000194c l       .debug_str	00000000 
00001956 l       .debug_str	00000000 
0000195f l       .debug_str	00000000 
00001968 l       .debug_str	00000000 
00001971 l       .debug_str	00000000 
00001977 l       .debug_str	00000000 
0000197f l       .debug_str	00000000 
00001993 l       .debug_str	00000000 
000019a4 l       .debug_str	00000000 
000019b6 l       .debug_str	00000000 
000019bf l       .debug_str	00000000 
000019f2 l       .debug_str	00000000 
00001a26 l       .debug_str	00000000 
00001a70 l       .debug_str	00000000 
00001a7b l       .debug_str	00000000 
00001a87 l       .debug_str	00000000 
00001a8d l       .debug_str	00000000 
00001a92 l       .debug_str	00000000 
00001a95 l       .debug_str	00000000 
00001a98 l       .debug_str	00000000 
00001a9b l       .debug_str	00000000 
00001a9e l       .debug_str	00000000 
00001aa3 l       .debug_str	00000000 
00001aaf l       .debug_str	00000000 
00001ab4 l       .debug_str	00000000 
00001abb l       .debug_str	00000000 
00001ac5 l       .debug_str	00000000 
00001ad0 l       .debug_str	00000000 
00001add l       .debug_str	00000000 
00001aeb l       .debug_str	00000000 
00001af5 l       .debug_str	00000000 
00001b03 l       .debug_str	00000000 
00001b0d l       .debug_str	00000000 
00001b23 l       .debug_str	00000000 
00001b2e l       .debug_str	00000000 
00001b39 l       .debug_str	00000000 
00001b41 l       .debug_str	00000000 
00001b43 l       .debug_str	00000000 
00000000 l     O .rodata.cst16	00000010 .Lanon.336735209e89f9694807ec3446db23b2.0
00000000 l    d  .text._ZN5druid6widget6button15Button$LT$T$GT$3new17h866cfa916b15e5e3E	00000000 .text._ZN5druid6widget6button15Button$LT$T$GT$3new17h866cfa916b15e5e3E
00000000 l    d  .debug_abbrev	00000000 .debug_abbrev
00000000 l    d  .debug_info	00000000 .debug_info
00000000 l    d  .debug_frame	00000000 .debug_frame
00000000 l    d  .debug_line	00000000 .debug_line
00000000         *UND*	00000000 druid::widget::get_widget_id
00000000         *UND*	00000000 druid::widget::label::Label<T>::aligned
00000000 g     F .text._ZN5druid6widget6button15Button$LT$T$GT$3new17h866cfa916b15e5e3E	00000060 druid::widget::button::Button<T>::new
00000000         *UND*	00000000 __aeabi_memcpy8



Disassembly of section .text._ZN5druid6widget6button15Button$LT$T$GT$3new17h866cfa916b15e5e3E:

00000000 <druid::widget::button::Button<T>::new>:
_ZN5druid6widget6button15Button$LT$T$GT$3new17h866cfa916b15e5e3E():
/Users/Luppy/mynewt/druid-embedded/druid/src/widget/button.rs:44

impl<T: Data + 'static> Button<T> { ////
////impl<T: Data + 'static> Button<T> {
    /// Create a new button. The closure provided will be called when the button
    /// is clicked.
    pub fn new(
   0:	b510      	push	{r4, lr}
   2:	b0a8      	sub	sp, #160	; 0xa0
   4:	469c      	mov	ip, r3
   6:	4696      	mov	lr, r2
   8:	460c      	mov	r4, r1
   a:	9107      	str	r1, [sp, #28]
   c:	9208      	str	r2, [sp, #32]
   e:	9309      	str	r3, [sp, #36]	; 0x24
/Users/Luppy/mynewt/druid-embedded/druid/src/widget/button.rs:50
        text: impl Into<LabelText<T>>,
        action: fn(&mut EventCtx<T>, &mut T, &Env), ////
        ////action: impl Fn(&mut EventCtx, &mut T, &Env) + 'static,
    ) -> Button<T> {
        Button {
            id: super::get_widget_id(), ////
  10:	f8cd c018 	str.w	ip, [sp, #24]
  14:	f8cd e014 	str.w	lr, [sp, #20]
  18:	9404      	str	r4, [sp, #16]
  1a:	9003      	str	r0, [sp, #12]
  1c:	f7ff fffe 	bl	0 <druid::widget::get_widget_id>
  20:	9002      	str	r0, [sp, #8]
  22:	e7ff      	b.n	24 <druid::widget::button::Button<T>::new+0x24>
/Users/Luppy/mynewt/druid-embedded/druid/src/widget/button.rs:51
            label: Label::aligned(text, UnitPoint::CENTER),
  24:	9907      	ldr	r1, [sp, #28]
  26:	9a08      	ldr	r2, [sp, #32]
  28:	f240 0000 	movw	r0, #0
  2c:	f2c0 0000 	movt	r0, #0
  30:	ed90 0b00 	vldr	d0, [r0]
  34:	ed90 1b02 	vldr	d1, [r0, #8]
  38:	a80a      	add	r0, sp, #40	; 0x28
  3a:	f7ff fffe 	bl	0 <druid::widget::label::Label<T>::aligned>
  3e:	e7ff      	b.n	40 <druid::widget::button::Button<T>::new+0x40>
/Users/Luppy/mynewt/druid-embedded/druid/src/widget/button.rs:52
            action, ////
  40:	9809      	ldr	r0, [sp, #36]	; 0x24
/Users/Luppy/mynewt/druid-embedded/druid/src/widget/button.rs:49
        Button {
  42:	9902      	ldr	r1, [sp, #8]
  44:	9a03      	ldr	r2, [sp, #12]
  46:	6791      	str	r1, [r2, #120]	; 0x78
  48:	a90a      	add	r1, sp, #40	; 0x28
  4a:	2278      	movs	r2, #120	; 0x78
  4c:	9b03      	ldr	r3, [sp, #12]
  4e:	9001      	str	r0, [sp, #4]
  50:	4618      	mov	r0, r3
  52:	f7ff fffe 	bl	0 <__aeabi_memcpy8>
  56:	9801      	ldr	r0, [sp, #4]
  58:	9903      	ldr	r1, [sp, #12]
  5a:	67c8      	str	r0, [r1, #124]	; 0x7c
/Users/Luppy/mynewt/druid-embedded/druid/src/widget/button.rs:55
            ////action: Box::new(action),
        }
    }
  5c:	b028      	add	sp, #160	; 0xa0
  5e:	bd10      	pop	{r4, pc}

app-e8778d9de5b9c761.5e5gz0c3lulgp609.rcgu.o:     file format elf32-littlearm

SYMBOL TABLE:
00000000 l    df *ABS*	00000000 5e5gz0c3lulgp609
00001203 l       .debug_str	00000000 
00001882 l       .debug_str	00000000 
0000188b l       .debug_str	00000000 
000018a0 l       .debug_str	00000000 
000018a9 l       .debug_str	00000000 
000018b8 l       .debug_str	00000000 
00001909 l       .debug_str	00000000 
00001939 l       .debug_str	00000000 
0000198a l       .debug_str	00000000 
00001a86 l       .debug_str	00000000 
00000000 l       .debug_str	00000000 
00000041 l       .debug_str	00000000 
00000055 l       .debug_str	00000000 
00000085 l       .debug_str	00000000 
0000008a l       .debug_str	00000000 
00000092 l       .debug_str	00000000 
0000009b l       .debug_str	00000000 
000000a4 l       .debug_str	00000000 
000000a7 l       .debug_str	00000000 
000000b1 l       .debug_str	00000000 
000000b8 l       .debug_str	00000000 
000000be l       .debug_str	00000000 
000000c3 l       .debug_str	00000000 
000000c5 l       .debug_str	00000000 
000000cb l       .debug_str	00000000 
000000d2 l       .debug_str	00000000 
000000d8 l       .debug_str	00000000 
000000dc l       .debug_str	00000000 
000000e6 l       .debug_str	00000000 
000000ea l       .debug_str	00000000 
000000f7 l       .debug_str	00000000 
000000fb l       .debug_str	00000000 
00000107 l       .debug_str	00000000 
0000010e l       .debug_str	00000000 
00000113 l       .debug_str	00000000 
0000011c l       .debug_str	00000000 
00000123 l       .debug_str	00000000 
00000125 l       .debug_str	00000000 
00000129 l       .debug_str	00000000 
00000130 l       .debug_str	00000000 
00000134 l       .debug_str	00000000 
0000013b l       .debug_str	00000000 
0000013e l       .debug_str	00000000 
00000144 l       .debug_str	00000000 
00000152 l       .debug_str	00000000 
00000157 l       .debug_str	00000000 
0000015f l       .debug_str	00000000 
00000167 l       .debug_str	00000000 
00000169 l       .debug_str	00000000 
00000185 l       .debug_str	00000000 
0000018d l       .debug_str	00000000 
00000194 l       .debug_str	00000000 
000001a4 l       .debug_str	00000000 
000001e9 l       .debug_str	00000000 
00000256 l       .debug_str	00000000 
000002ec l       .debug_str	00000000 
000003ab l       .debug_str	00000000 
000003b3 l       .debug_str	00000000 
000003b8 l       .debug_str	00000000 
000003be l       .debug_str	00000000 
000003c2 l       .debug_str	00000000 
000003c6 l       .debug_str	00000000 
000003c9 l       .debug_str	00000000 
000003f2 l       .debug_str	00000000 
00000428 l       .debug_str	00000000 
0000042a l       .debug_str	00000000 
00000457 l       .debug_str	00000000 
0000045a l       .debug_str	00000000 
000004aa l       .debug_str	00000000 
00000507 l       .debug_str	00000000 
0000055b l       .debug_str	00000000 
000005d2 l       .debug_str	00000000 
00000656 l       .debug_str	00000000 
000006d1 l       .debug_str	00000000 
0000076f l       .debug_str	00000000 
0000081a l       .debug_str	00000000 
000008bc l       .debug_str	00000000 
00000981 l       .debug_str	00000000 
00000a53 l       .debug_str	00000000 
00000b1c l       .debug_str	00000000 
00000c06 l       .debug_str	00000000 
00000d0d l       .debug_str	00000000 
00000e13 l       .debug_str	00000000 
00000e17 l       .debug_str	00000000 
00000e19 l       .debug_str	00000000 
00000f17 l       .debug_str	00000000 
00001018 l       .debug_str	00000000 
0000101a l       .debug_str	00000000 
000010fa l       .debug_str	00000000 
000010ff l       .debug_str	00000000 
000011f9 l       .debug_str	00000000 
000011fe l       .debug_str	00000000 
00001207 l       .debug_str	00000000 
0000120b l       .debug_str	00000000 
0000121c l       .debug_str	00000000 
0000132c l       .debug_str	00000000 
0000133b l       .debug_str	00000000 
00001367 l       .debug_str	00000000 
000013ac l       .debug_str	00000000 
000013e5 l       .debug_str	00000000 
0000147c l       .debug_str	00000000 
0000151a l       .debug_str	00000000 
000015d5 l       .debug_str	00000000 
0000168f l       .debug_str	00000000 
00001741 l       .debug_str	00000000 
000017d6 l       .debug_str	00000000 
00000000 l    d  .text._ZN50_$LT$T$u20$as$u20$core..convert..Into$LT$U$GT$$GT$4into17ha4736d3c0b10fa0bE	00000000 .text._ZN50_$LT$T$u20$as$u20$core..convert..Into$LT$U$GT$$GT$4into17ha4736d3c0b10fa0bE
00000000 l    d  .text._ZN50_$LT$T$u20$as$u20$core..convert..Into$LT$U$GT$$GT$4into17hf143a76e7980ef3eE	00000000 .text._ZN50_$LT$T$u20$as$u20$core..convert..Into$LT$U$GT$$GT$4into17hf143a76e7980ef3eE
00000000 l    d  .debug_abbrev	00000000 .debug_abbrev
00000000 l    d  .debug_info	00000000 .debug_info
00000000 l    d  .debug_ranges	00000000 .debug_ranges
00000000 l    d  .debug_frame	00000000 .debug_frame
00000000 l    d  .debug_line	00000000 .debug_line
00000000 g     F .text._ZN50_$LT$T$u20$as$u20$core..convert..Into$LT$U$GT$$GT$4into17ha4736d3c0b10fa0bE	00000026 <T as core::convert::Into<U>>::into
00000000 g     F .text._ZN50_$LT$T$u20$as$u20$core..convert..Into$LT$U$GT$$GT$4into17hf143a76e7980ef3eE	0000001a <T as core::convert::Into<U>>::into
00000000         *UND*	00000000 <heapless::string::String<N> as core::convert::From<u32>>::from
00000000         *UND*	00000000 <druid::widget::label::LabelText<T> as core::convert::From<&str>>::from



Disassembly of section .text._ZN50_$LT$T$u20$as$u20$core..convert..Into$LT$U$GT$$GT$4into17ha4736d3c0b10fa0bE:

00000000 <<T as core::convert::Into<U>>::into>:
_ZN50_$LT$T$u20$as$u20$core..convert..Into$LT$U$GT$$GT$4into17ha4736d3c0b10fa0bE():
/rustc/50a0defd5a93523067ef239936cc2e0755220904/src/libcore/convert.rs:539
   0:	b580      	push	{r7, lr}
   2:	b086      	sub	sp, #24
   4:	4613      	mov	r3, r2
   6:	468c      	mov	ip, r1
   8:	4686      	mov	lr, r0
   a:	9104      	str	r1, [sp, #16]
   c:	9205      	str	r2, [sp, #20]
/rustc/50a0defd5a93523067ef239936cc2e0755220904/src/libcore/convert.rs:540
   e:	9904      	ldr	r1, [sp, #16]
  10:	9a05      	ldr	r2, [sp, #20]
  12:	9303      	str	r3, [sp, #12]
  14:	f8cd c008 	str.w	ip, [sp, #8]
  18:	f8cd e004 	str.w	lr, [sp, #4]
  1c:	f7ff fffe 	bl	0 <<druid::widget::label::LabelText<T> as core::convert::From<&str>>::from>
  20:	e7ff      	b.n	22 <<T as core::convert::Into<U>>::into+0x22>
/rustc/50a0defd5a93523067ef239936cc2e0755220904/src/libcore/convert.rs:541
  22:	b006      	add	sp, #24
  24:	bd80      	pop	{r7, pc}

Disassembly of section .text._ZN50_$LT$T$u20$as$u20$core..convert..Into$LT$U$GT$$GT$4into17hf143a76e7980ef3eE:

00000000 <<T as core::convert::Into<U>>::into>:
_ZN50_$LT$T$u20$as$u20$core..convert..Into$LT$U$GT$$GT$4into17hf143a76e7980ef3eE():
/rustc/50a0defd5a93523067ef239936cc2e0755220904/src/libcore/convert.rs:539
   0:	b580      	push	{r7, lr}
   2:	b084      	sub	sp, #16
   4:	460a      	mov	r2, r1
   6:	4603      	mov	r3, r0
   8:	9103      	str	r1, [sp, #12]
/rustc/50a0defd5a93523067ef239936cc2e0755220904/src/libcore/convert.rs:540
   a:	9903      	ldr	r1, [sp, #12]
   c:	9202      	str	r2, [sp, #8]
   e:	9301      	str	r3, [sp, #4]
  10:	f7ff fffe 	bl	0 <<heapless::string::String<N> as core::convert::From<u32>>::from>
  14:	e7ff      	b.n	16 <<T as core::convert::Into<U>>::into+0x16>
/rustc/50a0defd5a93523067ef239936cc2e0755220904/src/libcore/convert.rs:541
  16:	b004      	add	sp, #16
  18:	bd80      	pop	{r7, pc}

app-e8778d9de5b9c761.77tf53q507yi3nx.rcgu.o:     file format elf32-littlearm

SYMBOL TABLE:
00000000 l    df *ABS*	00000000 77tf53q507yi3nx
000026e9 l       .debug_str	00000000 
000029c8 l       .debug_str	00000000 
000029cc l       .debug_str	00000000 
000029d5 l       .debug_str	00000000 
000029e1 l       .debug_str	00000000 
000029fa l       .debug_str	00000000 
000029ff l       .debug_str	00000000 
00002a10 l       .debug_str	00000000 
00002a1a l       .debug_str	00000000 
00002a78 l       .debug_str	00000000 
00002a83 l       .debug_str	00000000 
00002aa0 l       .debug_str	00000000 
00002aa4 l       .debug_str	00000000 
00002abb l       .debug_str	00000000 
00002adf l       .debug_str	00000000 
00002afb l       .debug_str	00000000 
00002b14 l       .debug_str	00000000 
00002b1e l       .debug_str	00000000 
00000000 l       .debug_str	00000000 
00000041 l       .debug_str	00000000 
00000055 l       .debug_str	00000000 
00000085 l       .debug_str	00000000 
0000008a l       .debug_str	00000000 
00000091 l       .debug_str	00000000 
00000094 l       .debug_str	00000000 
00000099 l       .debug_str	00000000 
0000009e l       .debug_str	00000000 
000000a5 l       .debug_str	00000000 
000000ab l       .debug_str	00000000 
000000b2 l       .debug_str	00000000 
000000b7 l       .debug_str	00000000 
000000c2 l       .debug_str	00000000 
000000cb l       .debug_str	00000000 
000000d0 l       .debug_str	00000000 
000000d7 l       .debug_str	00000000 
000000da l       .debug_str	00000000 
000000de l       .debug_str	00000000 
000000e5 l       .debug_str	00000000 
000000e9 l       .debug_str	00000000 
000000ec l       .debug_str	00000000 
000000ef l       .debug_str	00000000 
000000f4 l       .debug_str	00000000 
000000fa l       .debug_str	00000000 
00000101 l       .debug_str	00000000 
00000109 l       .debug_str	00000000 
00000113 l       .debug_str	00000000 
00000117 l       .debug_str	00000000 
00000120 l       .debug_str	00000000 
00000123 l       .debug_str	00000000 
00000127 l       .debug_str	00000000 
00000131 l       .debug_str	00000000 
0000013a l       .debug_str	00000000 
00000143 l       .debug_str	00000000 
00000147 l       .debug_str	00000000 
0000014b l       .debug_str	00000000 
0000014d l       .debug_str	00000000 
00000154 l       .debug_str	00000000 
00000158 l       .debug_str	00000000 
0000015f l       .debug_str	00000000 
00000162 l       .debug_str	00000000 
00000168 l       .debug_str	00000000 
00000176 l       .debug_str	00000000 
0000017b l       .debug_str	00000000 
00000183 l       .debug_str	00000000 
0000018b l       .debug_str	00000000 
00000191 l       .debug_str	00000000 
0000019d l       .debug_str	00000000 
000001a3 l       .debug_str	00000000 
000001a8 l       .debug_str	00000000 
000001ab l       .debug_str	00000000 
000001af l       .debug_str	00000000 
000001b2 l       .debug_str	00000000 
000001b5 l       .debug_str	00000000 
000001b8 l       .debug_str	00000000 
000001bd l       .debug_str	00000000 
000001c9 l       .debug_str	00000000 
000001ce l       .debug_str	00000000 
000001d5 l       .debug_str	00000000 
000001df l       .debug_str	00000000 
000001ea l       .debug_str	00000000 
000001f7 l       .debug_str	00000000 
00000205 l       .debug_str	00000000 
0000020f l       .debug_str	00000000 
0000021d l       .debug_str	00000000 
00000227 l       .debug_str	00000000 
00000230 l       .debug_str	00000000 
00000232 l       .debug_str	00000000 
0000023e l       .debug_str	00000000 
00000242 l       .debug_str	00000000 
00000248 l       .debug_str	00000000 
00000252 l       .debug_str	00000000 
00000256 l       .debug_str	00000000 
0000025d l       .debug_str	00000000 
0000026e l       .debug_str	00000000 
00000270 l       .debug_str	00000000 
0000027f l       .debug_str	00000000 
00000281 l       .debug_str	00000000 
000002ba l       .debug_str	00000000 
000002c1 l       .debug_str	00000000 
000002c8 l       .debug_str	00000000 
000002d9 l       .debug_str	00000000 
000002db l       .debug_str	00000000 
0000031a l       .debug_str	00000000 
00000322 l       .debug_str	00000000 
00000355 l       .debug_str	00000000 
000003e0 l       .debug_str	00000000 
000004b7 l       .debug_str	00000000 
000005da l       .debug_str	00000000 
000005e2 l       .debug_str	00000000 
000005e7 l       .debug_str	00000000 
000005ed l       .debug_str	00000000 
000005f1 l       .debug_str	00000000 
000005f4 l       .debug_str	00000000 
0000061d l       .debug_str	00000000 
00000653 l       .debug_str	00000000 
00000655 l       .debug_str	00000000 
00000682 l       .debug_str	00000000 
00000685 l       .debug_str	00000000 
000006d5 l       .debug_str	00000000 
00000732 l       .debug_str	00000000 
00000786 l       .debug_str	00000000 
000007fd l       .debug_str	00000000 
00000881 l       .debug_str	00000000 
000008fc l       .debug_str	00000000 
0000099a l       .debug_str	00000000 
00000a45 l       .debug_str	00000000 
00000ae7 l       .debug_str	00000000 
00000bcd l       .debug_str	00000000 
00000cd0 l       .debug_str	00000000 
00000dd2 l       .debug_str	00000000 
00000dd6 l       .debug_str	00000000 
00000ddc l       .debug_str	00000000 
00000dde l       .debug_str	00000000 
00000ed8 l       .debug_str	00000000 
00000eda l       .debug_str	00000000 
00000fb7 l       .debug_str	00000000 
00000fc1 l       .debug_str	00000000 
00000fc8 l       .debug_str	00000000 
00001010 l       .debug_str	00000000 
0000103d l       .debug_str	00000000 
00001043 l       .debug_str	00000000 
00001048 l       .debug_str	00000000 
00001052 l       .debug_str	00000000 
0000105f l       .debug_str	00000000 
00001063 l       .debug_str	00000000 
0000106c l       .debug_str	00000000 
00001076 l       .debug_str	00000000 
0000107d l       .debug_str	00000000 
00001082 l       .debug_str	00000000 
0000108e l       .debug_str	00000000 
00001095 l       .debug_str	00000000 
000010b1 l       .debug_str	00000000 
000010c1 l       .debug_str	00000000 
00001106 l       .debug_str	00000000 
00001173 l       .debug_str	00000000 
00001209 l       .debug_str	00000000 
000012c8 l       .debug_str	00000000 
0000133f l       .debug_str	00000000 
000013c3 l       .debug_str	00000000 
0000143e l       .debug_str	00000000 
000014dc l       .debug_str	00000000 
00001587 l       .debug_str	00000000 
00001629 l       .debug_str	00000000 
000016ee l       .debug_str	00000000 
000017c0 l       .debug_str	00000000 
00001889 l       .debug_str	00000000 
00001973 l       .debug_str	00000000 
00001a7a l       .debug_str	00000000 
00001b80 l       .debug_str	00000000 
00001c7e l       .debug_str	00000000 
00001d7f l       .debug_str	00000000 
00001e5f l       .debug_str	00000000 
00001f59 l       .debug_str	00000000 
00001f5e l       .debug_str	00000000 
00001f63 l       .debug_str	00000000 
00001f67 l       .debug_str	00000000 
00001f78 l       .debug_str	00000000 
00002088 l       .debug_str	00000000 
00002097 l       .debug_str	00000000 
000020c3 l       .debug_str	00000000 
00002108 l       .debug_str	00000000 
00002141 l       .debug_str	00000000 
000021d8 l       .debug_str	00000000 
00002276 l       .debug_str	00000000 
00002331 l       .debug_str	00000000 
000023eb l       .debug_str	00000000 
0000249d l       .debug_str	00000000 
00002532 l       .debug_str	00000000 
000025de l       .debug_str	00000000 
000025e7 l       .debug_str	00000000 
000025fc l       .debug_str	00000000 
00002605 l       .debug_str	00000000 
00002614 l       .debug_str	00000000 
0000261a l       .debug_str	00000000 
0000261f l       .debug_str	00000000 
00002628 l       .debug_str	00000000 
0000262a l       .debug_str	00000000 
0000262c l       .debug_str	00000000 
00002636 l       .debug_str	00000000 
00002641 l       .debug_str	00000000 
00002684 l       .debug_str	00000000 
000026b4 l       .debug_str	00000000 
000026f2 l       .debug_str	00000000 
00002765 l       .debug_str	00000000 
00002775 l       .debug_str	00000000 
0000277f l       .debug_str	00000000 
00002784 l       .debug_str	00000000 
0000278b l       .debug_str	00000000 
00002790 l       .debug_str	00000000 
000027bf l       .debug_str	00000000 
000027c4 l       .debug_str	00000000 
000027ca l       .debug_str	00000000 
000027d1 l       .debug_str	00000000 
000027d6 l       .debug_str	00000000 
000027e3 l       .debug_str	00000000 
0000280f l       .debug_str	00000000 
0000281f l       .debug_str	00000000 
0000282e l       .debug_str	00000000 
0000289a l       .debug_str	00000000 
000028a3 l       .debug_str	00000000 
000028a8 l       .debug_str	00000000 
000028d3 l       .debug_str	00000000 
000028d7 l       .debug_str	00000000 
000028fb l       .debug_str	00000000 
00002901 l       .debug_str	00000000 
0000290c l       .debug_str	00000000 
00002933 l       .debug_str	00000000 
00002938 l       .debug_str	00000000 
0000293e l       .debug_str	00000000 
00002943 l       .debug_str	00000000 
00002948 l       .debug_str	00000000 
00002956 l       .debug_str	00000000 
00002960 l       .debug_str	00000000 
00002964 l       .debug_str	00000000 
0000296c l       .debug_str	00000000 
00002974 l       .debug_str	00000000 
0000297b l       .debug_str	00000000 
0000298f l       .debug_str	00000000 
0000299b l       .debug_str	00000000 
000029a6 l       .debug_str	00000000 
000029ad l       .debug_str	00000000 
000029b3 l       .debug_str	00000000 
000029b9 l       .debug_str	00000000 
00000000 l     O .rodata..Lanon.fd923320856bfff1320c90495e36209e.0	0000000e .Lanon.fd923320856bfff1320c90495e36209e.0
00000000 l    d  .text._ZN4core3ptr31_$LT$impl$u20$$BP$mut$u20$T$GT$5write17h8c24b60498b7d38bE	00000000 .text._ZN4core3ptr31_$LT$impl$u20$$BP$mut$u20$T$GT$5write17h8c24b60498b7d38bE
00000000 l    d  .text._ZN5druid6widget4flex13Flex$LT$T$GT$9add_child17heaa1be96be184a9cE	00000000 .text._ZN5druid6widget4flex13Flex$LT$T$GT$9add_child17heaa1be96be184a9cE
00000000 l    d  .text._ZN5druid6widget4flex6Column3new17h6f3cf4b0b409fc8eE	00000000 .text._ZN5druid6widget4flex6Column3new17h6f3cf4b0b409fc8eE
00000000 l    d  .text._ZN77_$LT$druid..widget..flex..Flex$LT$T$GT$$u20$as$u20$druid..Widget$LT$T$GT$$GT$10new_window17ha8293696ac7a7007E	00000000 .text._ZN77_$LT$druid..widget..flex..Flex$LT$T$GT$$u20$as$u20$druid..Widget$LT$T$GT$$GT$10new_window17ha8293696ac7a7007E
00000000 l    d  .text._ZN78_$LT$druid..widget..flex..ChildWidget$LT$T$GT$$u20$as$u20$core..fmt..Debug$GT$3fmt17h143306599a500ad1E	00000000 .text._ZN78_$LT$druid..widget..flex..ChildWidget$LT$T$GT$$u20$as$u20$core..fmt..Debug$GT$3fmt17h143306599a500ad1E
00000000 l    d  .debug_loc	00000000 .debug_loc
00000000 l    d  .debug_abbrev	00000000 .debug_abbrev
00000000 l    d  .debug_info	00000000 .debug_info
00000000 l    d  .debug_ranges	00000000 .debug_ranges
00000000 l    d  .debug_frame	00000000 .debug_frame
00000000 l    d  .debug_line	00000000 .debug_line
00000000 g     F .text._ZN4core3ptr31_$LT$impl$u20$$BP$mut$u20$T$GT$5write17h8c24b60498b7d38bE	0000003e core::ptr::<impl *mut T>::write
00000000         *UND*	00000000 core::ptr::write
00000000         *UND*	00000000 core::result::Result<T,E>::expect
00000000         *UND*	00000000 druid::WidgetPod<T,W>::new
00000000         *UND*	00000000 druid::widget::get_widget_id
00000000 g     F .text._ZN5druid6widget4flex13Flex$LT$T$GT$9add_child17heaa1be96be184a9cE	000000b0 druid::widget::flex::Flex<T>::add_child
00000000 g     F .text._ZN5druid6widget4flex6Column3new17h6f3cf4b0b409fc8eE	00000040 druid::widget::flex::Column::new
00000000         *UND*	00000000 druid::widget::widgetbox::WidgetBox<D>::new
00000000         *UND*	00000000 druid::window::Window<T,W>::new
00000000 g     F .text._ZN77_$LT$druid..widget..flex..Flex$LT$T$GT$$u20$as$u20$druid..Widget$LT$T$GT$$GT$10new_window17ha8293696ac7a7007E	00000064 <druid::widget::flex::Flex<T> as druid::Widget<T>>::new_window
00000000 g     F .text._ZN78_$LT$druid..widget..flex..ChildWidget$LT$T$GT$$u20$as$u20$core..fmt..Debug$GT$3fmt17h143306599a500ad1E	0000001c <druid::widget::flex::ChildWidget<T> as core::fmt::Debug>::fmt
00000000         *UND*	00000000 heapless::vec::Vec<T,N>::new
00000000         *UND*	00000000 heapless::vec::Vec<T,N>::push
00000000         *UND*	00000000 __aeabi_memcpy8



Disassembly of section .text._ZN4core3ptr31_$LT$impl$u20$$BP$mut$u20$T$GT$5write17h8c24b60498b7d38bE:

00000000 <core::ptr::<impl *mut T>::write>:
_ZN4core3ptr31_$LT$impl$u20$$BP$mut$u20$T$GT$5write17h8c24b60498b7d38bE():
/rustc/50a0defd5a93523067ef239936cc2e0755220904/src/libcore/ptr.rs:2214
   0:	e92d 43f0 	stmdb	sp!, {r4, r5, r6, r7, r8, r9, lr}
   4:	b095      	sub	sp, #84	; 0x54
   6:	460a      	mov	r2, r1
   8:	4603      	mov	r3, r0
   a:	9003      	str	r0, [sp, #12]
/rustc/50a0defd5a93523067ef239936cc2e0755220904/src/libcore/ptr.rs:2217
   c:	9803      	ldr	r0, [sp, #12]
   e:	f10d 0c10 	add.w	ip, sp, #16
  12:	46e6      	mov	lr, ip
  14:	e8b1 01f0 	ldmia.w	r1!, {r4, r5, r6, r7, r8}
  18:	e8ae 01f0 	stmia.w	lr!, {r4, r5, r6, r7, r8}
  1c:	e8b1 01f0 	ldmia.w	r1!, {r4, r5, r6, r7, r8}
  20:	e8ae 01f0 	stmia.w	lr!, {r4, r5, r6, r7, r8}
  24:	e891 03f0 	ldmia.w	r1, {r4, r5, r6, r7, r8, r9}
  28:	e88e 03f0 	stmia.w	lr, {r4, r5, r6, r7, r8, r9}
  2c:	4661      	mov	r1, ip
  2e:	9202      	str	r2, [sp, #8]
  30:	9301      	str	r3, [sp, #4]
  32:	f7ff fffe 	bl	0 <core::ptr::write>
  36:	e7ff      	b.n	38 <core::ptr::<impl *mut T>::write+0x38>
/rustc/50a0defd5a93523067ef239936cc2e0755220904/src/libcore/ptr.rs:2218
  38:	b015      	add	sp, #84	; 0x54
  3a:	e8bd 83f0 	ldmia.w	sp!, {r4, r5, r6, r7, r8, r9, pc}

Disassembly of section .text._ZN5druid6widget4flex13Flex$LT$T$GT$9add_child17heaa1be96be184a9cE:

00000000 <druid::widget::flex::Flex<T>::add_child>:
_ZN5druid6widget4flex13Flex$LT$T$GT$9add_child17heaa1be96be184a9cE():
/Users/Luppy/mynewt/druid-embedded/druid/src/widget/flex.rs:137
    /// "major axis".
    ///
    /// If `flex` is non-zero, then all the space left over after layout of
    /// the non-flex children is divided up, in proportion to the `flex` value,
    /// among the flex children.
    pub fn add_child<W: Widget<T> + Clone>(&mut self, child: W, flex: f64) { ////
   0:	b5f0      	push	{r4, r5, r6, r7, lr}
   2:	b0eb      	sub	sp, #428	; 0x1ac
   4:	eeb0 1a40 	vmov.f32	s2, s0
   8:	eef0 1a60 	vmov.f32	s3, s1
   c:	460a      	mov	r2, r1
   e:	4603      	mov	r3, r0
  10:	9009      	str	r0, [sp, #36]	; 0x24
  12:	ed8d 0b0a 	vstr	d0, [sp, #40]	; 0x28
/Users/Luppy/mynewt/druid-embedded/druid/src/widget/flex.rs:139
    ////pub fn add_child(&mut self, child: impl Widget<T> + 'static, flex: f64) {
        let params = Params { flex };
  16:	ed9d 0b0a 	vldr	d0, [sp, #40]	; 0x28
  1a:	ed8d 0b0c 	vstr	d0, [sp, #48]	; 0x30
  1e:	a82c      	add	r0, sp, #176	; 0xb0
  20:	f04f 0c78 	mov.w	ip, #120	; 0x78
/Users/Luppy/mynewt/druid-embedded/druid/src/widget/flex.rs:142
        let child = ChildWidget {
            widget: WidgetPod::new(
                WidgetBox::<T>::new(child)
  24:	9008      	str	r0, [sp, #32]
  26:	9207      	str	r2, [sp, #28]
  28:	4662      	mov	r2, ip
  2a:	ed8d 1b04 	vstr	d1, [sp, #16]
  2e:	9303      	str	r3, [sp, #12]
  30:	f7ff fffe 	bl	0 <__aeabi_memcpy8>
  34:	9808      	ldr	r0, [sp, #32]
  36:	f7ff fffe 	bl	0 <druid::widget::widgetbox::WidgetBox<D>::new>
  3a:	9002      	str	r0, [sp, #8]
  3c:	e7ff      	b.n	3e <druid::widget::flex::Flex<T>::add_child+0x3e>
  3e:	a81e      	add	r0, sp, #120	; 0x78
/Users/Luppy/mynewt/druid-embedded/druid/src/widget/flex.rs:141
            widget: WidgetPod::new(
  40:	9902      	ldr	r1, [sp, #8]
  42:	f7ff fffe 	bl	0 <druid::WidgetPod<T,W>::new>
  46:	e7ff      	b.n	48 <druid::widget::flex::Flex<T>::add_child+0x48>
/Users/Luppy/mynewt/druid-embedded/druid/src/widget/flex.rs:145
            ),
            ////widget: WidgetPod::new(child).boxed(),
            params,
  48:	ed9d 0b0c 	vldr	d0, [sp, #48]	; 0x30
  4c:	a81e      	add	r0, sp, #120	; 0x78
  4e:	a90e      	add	r1, sp, #56	; 0x38
/Users/Luppy/mynewt/druid-embedded/druid/src/widget/flex.rs:140
        let child = ChildWidget {
  50:	460a      	mov	r2, r1
  52:	e8b0 5018 	ldmia.w	r0!, {r3, r4, ip, lr}
  56:	e8a2 5018 	stmia.w	r2!, {r3, r4, ip, lr}
  5a:	e8b0 5038 	ldmia.w	r0!, {r3, r4, r5, ip, lr}
  5e:	e8a2 5038 	stmia.w	r2!, {r3, r4, r5, ip, lr}
  62:	e890 5038 	ldmia.w	r0, {r3, r4, r5, ip, lr}
  66:	e882 5038 	stmia.w	r2, {r3, r4, r5, ip, lr}
  6a:	ed8d 0b1c 	vstr	d0, [sp, #112]	; 0x70
/Users/Luppy/mynewt/druid-embedded/druid/src/widget/flex.rs:147
        };
        self.children.push(child)
  6e:	9809      	ldr	r0, [sp, #36]	; 0x24
  70:	aa5a      	add	r2, sp, #360	; 0x168
  72:	4613      	mov	r3, r2
  74:	e8b1 5070 	ldmia.w	r1!, {r4, r5, r6, ip, lr}
  78:	e8a3 5070 	stmia.w	r3!, {r4, r5, r6, ip, lr}
  7c:	e8b1 5070 	ldmia.w	r1!, {r4, r5, r6, ip, lr}
  80:	e8a3 5070 	stmia.w	r3!, {r4, r5, r6, ip, lr}
  84:	e891 50f0 	ldmia.w	r1, {r4, r5, r6, r7, ip, lr}
  88:	e883 50f0 	stmia.w	r3, {r4, r5, r6, r7, ip, lr}
  8c:	a94a      	add	r1, sp, #296	; 0x128
  8e:	9001      	str	r0, [sp, #4]
  90:	4608      	mov	r0, r1
  92:	9901      	ldr	r1, [sp, #4]
  94:	f7ff fffe 	bl	0 <heapless::vec::Vec<T,N>::push>
  98:	e7ff      	b.n	2 <druid::widget::flex::Flex<T>::add_child+0x2>
  9a:	f240 0100 	movw	r1, #0
  9e:	f2c0 0100 	movt	r1, #0
  a2:	a84a      	add	r0, sp, #296	; 0x128
  a4:	220e      	movs	r2, #14
  a6:	f7ff fffe 	bl	0 <core::result::Result<T,E>::expect>
  aa:	e7ff      	b.n	ac <druid::widget::flex::Flex<T>::add_child+0xac>
/Users/Luppy/mynewt/druid-embedded/druid/src/widget/flex.rs:150
            .expect("add child fail"); ////
        ////self.children.push(child);
    }
  ac:	b06b      	add	sp, #428	; 0x1ac
  ae:	bdf0      	pop	{r4, r5, r6, r7, pc}

Disassembly of section .text._ZN5druid6widget4flex6Column3new17h6f3cf4b0b409fc8eE:

00000000 <druid::widget::flex::Column::new>:
_ZN5druid6widget4flex6Column3new17h6f3cf4b0b409fc8eE():
/Users/Luppy/mynewt/druid-embedded/druid/src/widget/flex.rs:115
    pub fn new<T: Data + 'static + Default>() -> Flex<T> { ////
   0:	b580      	push	{r7, lr}
   2:	f5ad 7d06 	sub.w	sp, sp, #536	; 0x218
/Users/Luppy/mynewt/druid-embedded/druid/src/widget/flex.rs:118
            id: super::get_widget_id(), ////
   6:	9002      	str	r0, [sp, #8]
   8:	f7ff fffe 	bl	0 <druid::widget::get_widget_id>
   c:	9001      	str	r0, [sp, #4]
   e:	e7ff      	b.n	10 <druid::widget::flex::Column::new+0x10>
  10:	2001      	movs	r0, #1
/Users/Luppy/mynewt/druid-embedded/druid/src/widget/flex.rs:119
            direction: Axis::Vertical,
  12:	f88d 000f 	strb.w	r0, [sp, #15]
  16:	a804      	add	r0, sp, #16
/Users/Luppy/mynewt/druid-embedded/druid/src/widget/flex.rs:121
            children: Vec::new(),
  18:	f7ff fffe 	bl	0 <heapless::vec::Vec<T,N>::new>
  1c:	e7ff      	b.n	1e <druid::widget::flex::Column::new+0x1e>
/Users/Luppy/mynewt/druid-embedded/druid/src/widget/flex.rs:117
        Flex {
  1e:	9801      	ldr	r0, [sp, #4]
  20:	9902      	ldr	r1, [sp, #8]
  22:	f8c1 0208 	str.w	r0, [r1, #520]	; 0x208
  26:	f89d 200f 	ldrb.w	r2, [sp, #15]
  2a:	f881 220c 	strb.w	r2, [r1, #524]	; 0x20c
  2e:	a904      	add	r1, sp, #16
  30:	f44f 7202 	mov.w	r2, #520	; 0x208
  34:	9802      	ldr	r0, [sp, #8]
  36:	f7ff fffe 	bl	0 <__aeabi_memcpy8>
/Users/Luppy/mynewt/druid-embedded/druid/src/widget/flex.rs:123
    }
  3a:	f50d 7d06 	add.w	sp, sp, #536	; 0x218
  3e:	bd80      	pop	{r7, pc}

Disassembly of section .text._ZN77_$LT$druid..widget..flex..Flex$LT$T$GT$$u20$as$u20$druid..Widget$LT$T$GT$$GT$10new_window17ha8293696ac7a7007E:

00000000 <<druid::widget::flex::Flex<T> as druid::Widget<T>>::new_window>:
_ZN77_$LT$druid..widget..flex..Flex$LT$T$GT$$u20$as$u20$druid..Widget$LT$T$GT$$GT$10new_window17ha8293696ac7a7007E():
/Users/Luppy/mynewt/druid-embedded/druid/src/widget/flex.rs:266

    fn to_type(self) -> WidgetType<T> { ////
        WidgetType::Flex(self)
    }

    fn new_window(self) -> WindowBox<T> { ////
   0:	b580      	push	{r7, lr}
   2:	f5ad 6d39 	sub.w	sp, sp, #2960	; 0xb90
   6:	460a      	mov	r2, r1
   8:	ab9e      	add	r3, sp, #632	; 0x278
   a:	f44f 7c04 	mov.w	ip, #528	; 0x210
/Users/Luppy/mynewt/druid-embedded/druid/src/widget/flex.rs:267
        let window = Window::new(self);
   e:	9007      	str	r0, [sp, #28]
  10:	4618      	mov	r0, r3
  12:	9206      	str	r2, [sp, #24]
  14:	4662      	mov	r2, ip
  16:	9305      	str	r3, [sp, #20]
  18:	f7ff fffe 	bl	0 <__aeabi_memcpy8>
  1c:	a808      	add	r0, sp, #32
  1e:	9905      	ldr	r1, [sp, #20]
  20:	f7ff fffe 	bl	0 <druid::window::Window<T,W>::new>
  24:	e7ff      	b.n	26 <<druid::widget::flex::Flex<T> as druid::Widget<T>>::new_window+0x26>
  26:	f60d 1038 	addw	r0, sp, #2360	; 0x938
  2a:	a908      	add	r1, sp, #32
  2c:	f44f 7216 	mov.w	r2, #600	; 0x258
/Users/Luppy/mynewt/druid-embedded/druid/src/widget/flex.rs:269
        let window_box = WindowBox(
            WindowType::Flex(window),
  30:	9004      	str	r0, [sp, #16]
  32:	9203      	str	r2, [sp, #12]
  34:	f7ff fffe 	bl	0 <__aeabi_memcpy8>
  38:	f50d 60dc 	add.w	r0, sp, #1760	; 0x6e0
  3c:	9002      	str	r0, [sp, #8]
  3e:	9904      	ldr	r1, [sp, #16]
  40:	9a03      	ldr	r2, [sp, #12]
  42:	f7ff fffe 	bl	0 <__aeabi_memcpy8>
  46:	f50d 6091 	add.w	r0, sp, #1160	; 0x488
/Users/Luppy/mynewt/druid-embedded/druid/src/widget/flex.rs:268
        let window_box = WindowBox(
  4a:	9001      	str	r0, [sp, #4]
  4c:	9902      	ldr	r1, [sp, #8]
  4e:	9a03      	ldr	r2, [sp, #12]
  50:	f7ff fffe 	bl	0 <__aeabi_memcpy8>
/Users/Luppy/mynewt/druid-embedded/druid/src/widget/flex.rs:272
            //PhantomData,
        );
        window_box
  54:	9807      	ldr	r0, [sp, #28]
  56:	9901      	ldr	r1, [sp, #4]
  58:	9a03      	ldr	r2, [sp, #12]
  5a:	f7ff fffe 	bl	0 <__aeabi_memcpy8>
/Users/Luppy/mynewt/druid-embedded/druid/src/widget/flex.rs:273
    }
  5e:	f50d 6d39 	add.w	sp, sp, #2960	; 0xb90
  62:	bd80      	pop	{r7, pc}

Disassembly of section .text._ZN78_$LT$druid..widget..flex..ChildWidget$LT$T$GT$$u20$as$u20$core..fmt..Debug$GT$3fmt17h143306599a500ad1E:

00000000 <<druid::widget::flex::ChildWidget<T> as core::fmt::Debug>::fmt>:
_ZN78_$LT$druid..widget..flex..ChildWidget$LT$T$GT$$u20$as$u20$core..fmt..Debug$GT$3fmt17h143306599a500ad1E():
/Users/Luppy/mynewt/druid-embedded/druid/src/widget/flex.rs:282
    }
}

/// Implement formatted output for ChildWidget
impl<T: Data> core::fmt::Debug for ChildWidget<T> { ////
    fn fmt(&self, _fmt: &mut ::core::fmt::Formatter<'_>) -> ::core::fmt::Result {
   0:	b086      	sub	sp, #24
   2:	460a      	mov	r2, r1
   4:	4603      	mov	r3, r0
   6:	9002      	str	r0, [sp, #8]
   8:	9103      	str	r1, [sp, #12]
   a:	2000      	movs	r0, #0
/Users/Luppy/mynewt/druid-embedded/druid/src/widget/flex.rs:284
        //  TODO
        Ok(())
   c:	f88d 0013 	strb.w	r0, [sp, #19]
/Users/Luppy/mynewt/druid-embedded/druid/src/widget/flex.rs:285
    }
  10:	f89d 0013 	ldrb.w	r0, [sp, #19]
  14:	9201      	str	r2, [sp, #4]
  16:	9300      	str	r3, [sp, #0]
  18:	b006      	add	sp, #24
  1a:	4770      	bx	lr

app-e8778d9de5b9c761.bdudpkmv1a24i6h.rcgu.o:     file format elf32-littlearm

SYMBOL TABLE:
00000000 l    df *ABS*	00000000 bdudpkmv1a24i6h
00001c0c l       .debug_str	00000000 
000027d1 l       .debug_str	00000000 
000028ae l       .debug_str	00000000 
000028b8 l       .debug_str	00000000 
000028be l       .debug_str	00000000 
000028ce l       .debug_str	00000000 
000028d9 l       .debug_str	00000000 
000028de l       .debug_str	00000000 
00002908 l       .debug_str	00000000 
00002913 l       .debug_str	00000000 
0000291e l       .debug_str	00000000 
00000000 l       .debug_str	00000000 
00000041 l       .debug_str	00000000 
00000055 l       .debug_str	00000000 
00000085 l       .debug_str	00000000 
0000008b l       .debug_str	00000000 
00000092 l       .debug_str	00000000 
00000097 l       .debug_str	00000000 
0000009a l       .debug_str	00000000 
000000a5 l       .debug_str	00000000 
000000ae l       .debug_str	00000000 
000000b3 l       .debug_str	00000000 
000000b8 l       .debug_str	00000000 
000000bf l       .debug_str	00000000 
000000c4 l       .debug_str	00000000 
000000c9 l       .debug_str	00000000 
000000d0 l       .debug_str	00000000 
000000da l       .debug_str	00000000 
000000de l       .debug_str	00000000 
000000e2 l       .debug_str	00000000 
000000e6 l       .debug_str	00000000 
000000ed l       .debug_str	00000000 
000000ef l       .debug_str	00000000 
00000100 l       .debug_str	00000000 
00000102 l       .debug_str	00000000 
00000111 l       .debug_str	00000000 
0000011a l       .debug_str	00000000 
00000120 l       .debug_str	00000000 
00000123 l       .debug_str	00000000 
00000128 l       .debug_str	00000000 
00000132 l       .debug_str	00000000 
0000013f l       .debug_str	00000000 
00000143 l       .debug_str	00000000 
0000014c l       .debug_str	00000000 
00000156 l       .debug_str	00000000 
0000015d l       .debug_str	00000000 
00000163 l       .debug_str	00000000 
00000168 l       .debug_str	00000000 
00000174 l       .debug_str	00000000 
0000017d l       .debug_str	00000000 
00000184 l       .debug_str	00000000 
00000186 l       .debug_str	00000000 
0000018a l       .debug_str	00000000 
00000191 l       .debug_str	00000000 
00000195 l       .debug_str	00000000 
0000019c l       .debug_str	00000000 
0000019f l       .debug_str	00000000 
000001a5 l       .debug_str	00000000 
000001b3 l       .debug_str	00000000 
000001b8 l       .debug_str	00000000 
000001c0 l       .debug_str	00000000 
000001c8 l       .debug_str	00000000 
000001ca l       .debug_str	00000000 
000001e6 l       .debug_str	00000000 
000001ee l       .debug_str	00000000 
000001fe l       .debug_str	00000000 
00000243 l       .debug_str	00000000 
000002b0 l       .debug_str	00000000 
00000346 l       .debug_str	00000000 
00000405 l       .debug_str	00000000 
0000040d l       .debug_str	00000000 
00000412 l       .debug_str	00000000 
00000418 l       .debug_str	00000000 
0000041c l       .debug_str	00000000 
0000041f l       .debug_str	00000000 
00000448 l       .debug_str	00000000 
0000047e l       .debug_str	00000000 
00000480 l       .debug_str	00000000 
000004ad l       .debug_str	00000000 
000004b0 l       .debug_str	00000000 
00000500 l       .debug_str	00000000 
0000055d l       .debug_str	00000000 
000005b1 l       .debug_str	00000000 
00000628 l       .debug_str	00000000 
000006ac l       .debug_str	00000000 
00000727 l       .debug_str	00000000 
000007c5 l       .debug_str	00000000 
00000870 l       .debug_str	00000000 
00000912 l       .debug_str	00000000 
000009d7 l       .debug_str	00000000 
00000aa9 l       .debug_str	00000000 
00000b72 l       .debug_str	00000000 
00000c5c l       .debug_str	00000000 
00000d63 l       .debug_str	00000000 
00000e69 l       .debug_str	00000000 
00000e6d l       .debug_str	00000000 
00000e6f l       .debug_str	00000000 
00000f6d l       .debug_str	00000000 
0000106e l       .debug_str	00000000 
00001070 l       .debug_str	00000000 
00001150 l       .debug_str	00000000 
0000124a l       .debug_str	00000000 
0000124f l       .debug_str	00000000 
00001254 l       .debug_str	00000000 
00001258 l       .debug_str	00000000 
0000125c l       .debug_str	00000000 
0000126d l       .debug_str	00000000 
0000137d l       .debug_str	00000000 
0000138c l       .debug_str	00000000 
000013b8 l       .debug_str	00000000 
000013fd l       .debug_str	00000000 
00001436 l       .debug_str	00000000 
000014cd l       .debug_str	00000000 
0000156b l       .debug_str	00000000 
00001626 l       .debug_str	00000000 
000016e0 l       .debug_str	00000000 
00001792 l       .debug_str	00000000 
00001827 l       .debug_str	00000000 
000018d3 l       .debug_str	00000000 
000018dc l       .debug_str	00000000 
000018f1 l       .debug_str	00000000 
000018fa l       .debug_str	00000000 
00001909 l       .debug_str	00000000 
0000190f l       .debug_str	00000000 
00001914 l       .debug_str	00000000 
0000191d l       .debug_str	00000000 
0000191f l       .debug_str	00000000 
00001923 l       .debug_str	00000000 
00001925 l       .debug_str	00000000 
0000192f l       .debug_str	00000000 
0000193a l       .debug_str	00000000 
0000193c l       .debug_str	00000000 
00001983 l       .debug_str	00000000 
000019ad l       .debug_str	00000000 
00001a20 l       .debug_str	00000000 
00001a2b l       .debug_str	00000000 
00001a37 l       .debug_str	00000000 
00001a3b l       .debug_str	00000000 
00001a42 l       .debug_str	00000000 
00001a49 l       .debug_str	00000000 
00001a50 l       .debug_str	00000000 
00001a58 l       .debug_str	00000000 
00001a64 l       .debug_str	00000000 
00001a6b l       .debug_str	00000000 
00001a73 l       .debug_str	00000000 
00001a7b l       .debug_str	00000000 
00001a82 l       .debug_str	00000000 
00001a96 l       .debug_str	00000000 
00001aa2 l       .debug_str	00000000 
00001aae l       .debug_str	00000000 
00001ab8 l       .debug_str	00000000 
00001ac1 l       .debug_str	00000000 
00001aca l       .debug_str	00000000 
00001ad3 l       .debug_str	00000000 
00001ad9 l       .debug_str	00000000 
00001ae1 l       .debug_str	00000000 
00001aed l       .debug_str	00000000 
00001af5 l       .debug_str	00000000 
00001b07 l       .debug_str	00000000 
00001b10 l       .debug_str	00000000 
00001b43 l       .debug_str	00000000 
00001b77 l       .debug_str	00000000 
00001bc1 l       .debug_str	00000000 
00001bcc l       .debug_str	00000000 
00001bd8 l       .debug_str	00000000 
00001bde l       .debug_str	00000000 
00001be3 l       .debug_str	00000000 
00001be6 l       .debug_str	00000000 
00001be9 l       .debug_str	00000000 
00001bec l       .debug_str	00000000 
00001bef l       .debug_str	00000000 
00001bf4 l       .debug_str	00000000 
00001c00 l       .debug_str	00000000 
00001c05 l       .debug_str	00000000 
00001c16 l       .debug_str	00000000 
00001c21 l       .debug_str	00000000 
00001c2e l       .debug_str	00000000 
00001c3c l       .debug_str	00000000 
00001c46 l       .debug_str	00000000 
00001c54 l       .debug_str	00000000 
00001c5e l       .debug_str	00000000 
00001c74 l       .debug_str	00000000 
00001c7f l       .debug_str	00000000 
00001c8a l       .debug_str	00000000 
00001c92 l       .debug_str	00000000 
00001ca0 l       .debug_str	00000000 
00001cba l       .debug_str	00000000 
00001cc3 l       .debug_str	00000000 
00001cfd l       .debug_str	00000000 
00001d09 l       .debug_str	00000000 
00001d0e l       .debug_str	00000000 
00001d18 l       .debug_str	00000000 
00001d21 l       .debug_str	00000000 
00001d2a l       .debug_str	00000000 
00001d36 l       .debug_str	00000000 
00001d3c l       .debug_str	00000000 
00001d75 l       .debug_str	00000000 
00001d7c l       .debug_str	00000000 
00001d83 l       .debug_str	00000000 
00001d94 l       .debug_str	00000000 
00001dd3 l       .debug_str	00000000 
00001e06 l       .debug_str	00000000 
00001e91 l       .debug_str	00000000 
00001f68 l       .debug_str	00000000 
0000208b l       .debug_str	00000000 
00002102 l       .debug_str	00000000 
00002186 l       .debug_str	00000000 
00002201 l       .debug_str	00000000 
0000229f l       .debug_str	00000000 
0000234a l       .debug_str	00000000 
000023ec l       .debug_str	00000000 
000024d2 l       .debug_str	00000000 
000025d5 l       .debug_str	00000000 
000026d7 l       .debug_str	00000000 
00000000 l    d  .text._ZN5druid6widget9widgetbox18WidgetBox$LT$D$GT$3new17h5bb7d58ca334c630E	00000000 .text._ZN5druid6widget9widgetbox18WidgetBox$LT$D$GT$3new17h5bb7d58ca334c630E
00000000 l    d  .text._ZN83_$LT$druid..widget..widgetbox..WidgetBox$LT$D$GT$$u20$as$u20$core..clone..Clone$GT$5clone17ha6d5f3895312e385E	00000000 .text._ZN83_$LT$druid..widget..widgetbox..WidgetBox$LT$D$GT$$u20$as$u20$core..clone..Clone$GT$5clone17ha6d5f3895312e385E
00000000 l    d  .debug_loc	00000000 .debug_loc
00000000 l    d  .debug_abbrev	00000000 .debug_abbrev
00000000 l    d  .debug_info	00000000 .debug_info
00000000 l    d  .debug_ranges	00000000 .debug_ranges
00000000 l    d  .debug_frame	00000000 .debug_frame
00000000 l    d  .debug_line	00000000 .debug_line
00000000         *UND*	00000000 <druid::widget::widgetbox::WidgetBox<u32> as druid::widget::widgetbox::GlobalState<u32>>::add_widget
00000000         *UND*	00000000 .hidden core::clone::impls::<impl core::clone::Clone for u32>::clone
00000000 g     F .text._ZN5druid6widget9widgetbox18WidgetBox$LT$D$GT$3new17h5bb7d58ca334c630E	00000068 druid::widget::widgetbox::WidgetBox<D>::new
00000000         *UND*	00000000 <core::marker::PhantomData<T> as core::clone::Clone>::clone
00000000         *UND*	00000000 <druid::widget::label::Label<T> as core::clone::Clone>::clone
00000000         *UND*	00000000 <druid::widget::label::Label<T> as druid::Widget<T>>::get_id
00000000         *UND*	00000000 <druid::widget::label::Label<T> as druid::Widget<T>>::to_type
00000000 g     F .text._ZN83_$LT$druid..widget..widgetbox..WidgetBox$LT$D$GT$$u20$as$u20$core..clone..Clone$GT$5clone17ha6d5f3895312e385E	0000002e <druid::widget::widgetbox::WidgetBox<D> as core::clone::Clone>::clone
00000000         *UND*	00000000 __aeabi_memcpy8



Disassembly of section .text._ZN5druid6widget9widgetbox18WidgetBox$LT$D$GT$3new17h5bb7d58ca334c630E:

00000000 <druid::widget::widgetbox::WidgetBox<D>::new>:
_ZN5druid6widget9widgetbox18WidgetBox$LT$D$GT$3new17h5bb7d58ca334c630E():
/Users/Luppy/mynewt/druid-embedded/druid/src/widget/widgetbox.rs:66
}

/// Generic implementation of `WidgetBox`
impl<D: Data + 'static> WidgetBox<D> {
    /// Create a new box for the `Widget`
    pub fn new<W: Widget<D> + Clone>(widget: W) -> Self {
   0:	b580      	push	{r7, lr}
   2:	f5ad 6da9 	sub.w	sp, sp, #1352	; 0x548
   6:	4601      	mov	r1, r0
   8:	aa06      	add	r2, sp, #24
/Users/Luppy/mynewt/druid-embedded/druid/src/widget/widgetbox.rs:67
        let id = widget.clone().get_id();
   a:	9004      	str	r0, [sp, #16]
   c:	4610      	mov	r0, r2
   e:	9a04      	ldr	r2, [sp, #16]
  10:	9103      	str	r1, [sp, #12]
  12:	4611      	mov	r1, r2
  14:	f7ff fffe 	bl	0 <<druid::widget::label::Label<T> as core::clone::Clone>::clone>
  18:	e7ff      	b.n	1a <druid::widget::widgetbox::WidgetBox<D>::new+0x1a>
  1a:	a806      	add	r0, sp, #24
  1c:	f7ff fffe 	bl	0 <<druid::widget::label::Label<T> as druid::Widget<T>>::get_id>
  20:	9005      	str	r0, [sp, #20]
  22:	e7ff      	b.n	24 <druid::widget::widgetbox::WidgetBox<D>::new+0x24>
  24:	a8aa      	add	r0, sp, #680	; 0x2a8
  26:	2278      	movs	r2, #120	; 0x78
/Users/Luppy/mynewt/druid-embedded/druid/src/widget/widgetbox.rs:68
        let widget_type: WidgetType<D> = widget.to_type();
  28:	9002      	str	r0, [sp, #8]
  2a:	9903      	ldr	r1, [sp, #12]
  2c:	f7ff fffe 	bl	0 <__aeabi_memcpy8>
  30:	a824      	add	r0, sp, #144	; 0x90
  32:	9902      	ldr	r1, [sp, #8]
  34:	f7ff fffe 	bl	0 <<druid::widget::label::Label<T> as druid::Widget<T>>::to_type>
  38:	e7ff      	b.n	3a <druid::widget::widgetbox::WidgetBox<D>::new+0x3a>
/Users/Luppy/mynewt/druid-embedded/druid/src/widget/widgetbox.rs:70
        let widget_box: WidgetBox<D> = WidgetBox(
            id,
  3a:	9805      	ldr	r0, [sp, #20]
/Users/Luppy/mynewt/druid-embedded/druid/src/widget/widgetbox.rs:69
        let widget_box: WidgetBox<D> = WidgetBox(
  3c:	90c9      	str	r0, [sp, #804]	; 0x324
  3e:	a8c9      	add	r0, sp, #804	; 0x324
/Users/Luppy/mynewt/druid-embedded/druid/src/widget/widgetbox.rs:73
            PhantomData,
        );
        widget_box.clone().add_widget(widget_type);
  40:	f7ff fffe 	bl	0 <druid::widget::widgetbox::WidgetBox<D>::new>
  44:	90cb      	str	r0, [sp, #812]	; 0x32c
  46:	e7ff      	b.n	48 <druid::widget::widgetbox::WidgetBox<D>::new+0x48>
  48:	a8cc      	add	r0, sp, #816	; 0x330
  4a:	a924      	add	r1, sp, #144	; 0x90
  4c:	f44f 7206 	mov.w	r2, #536	; 0x218
  50:	9001      	str	r0, [sp, #4]
  52:	f7ff fffe 	bl	0 <__aeabi_memcpy8>
  56:	a8cb      	add	r0, sp, #812	; 0x32c
  58:	9901      	ldr	r1, [sp, #4]
  5a:	f7ff fffe 	bl	0 <<druid::widget::widgetbox::WidgetBox<u32> as druid::widget::widgetbox::GlobalState<u32>>::add_widget>
  5e:	e7ff      	b.n	60 <druid::widget::widgetbox::WidgetBox<D>::new+0x60>
/Users/Luppy/mynewt/druid-embedded/druid/src/widget/widgetbox.rs:74
        widget_box
  60:	98c9      	ldr	r0, [sp, #804]	; 0x324
/Users/Luppy/mynewt/druid-embedded/druid/src/widget/widgetbox.rs:75
    }
  62:	f50d 6da9 	add.w	sp, sp, #1352	; 0x548
  66:	bd80      	pop	{r7, pc}

Disassembly of section .text._ZN83_$LT$druid..widget..widgetbox..WidgetBox$LT$D$GT$$u20$as$u20$core..clone..Clone$GT$5clone17ha6d5f3895312e385E:

00000000 <<druid::widget::widgetbox::WidgetBox<D> as core::clone::Clone>::clone>:
_ZN83_$LT$druid..widget..widgetbox..WidgetBox$LT$D$GT$$u20$as$u20$core..clone..Clone$GT$5clone17ha6d5f3895312e385E():
/Users/Luppy/mynewt/druid-embedded/druid/src/widget/widgetbox.rs:44
#[derive(Clone, Default)]
   0:	b580      	push	{r7, lr}
   2:	b086      	sub	sp, #24
   4:	4601      	mov	r1, r0
   6:	9002      	str	r0, [sp, #8]
/Users/Luppy/mynewt/druid-embedded/druid/src/widget/widgetbox.rs:46
    u32,  //  Widget ID
   8:	9802      	ldr	r0, [sp, #8]
   a:	9004      	str	r0, [sp, #16]
/Users/Luppy/mynewt/druid-embedded/druid/src/widget/widgetbox.rs:47
    PhantomData<D>,  //  Needed to do compile-time checking for `Data`
   c:	9802      	ldr	r0, [sp, #8]
   e:	9005      	str	r0, [sp, #20]
/Users/Luppy/mynewt/druid-embedded/druid/src/widget/widgetbox.rs:46
    u32,  //  Widget ID
  10:	9804      	ldr	r0, [sp, #16]
  12:	9101      	str	r1, [sp, #4]
  14:	f7ff fffe 	bl	0 <core::clone::impls::<impl core::clone::Clone for u32>::clone>
  18:	9000      	str	r0, [sp, #0]
  1a:	e7ff      	b.n	1c <<druid::widget::widgetbox::WidgetBox<D> as core::clone::Clone>::clone+0x1c>
/Users/Luppy/mynewt/druid-embedded/druid/src/widget/widgetbox.rs:47
    PhantomData<D>,  //  Needed to do compile-time checking for `Data`
  1c:	9805      	ldr	r0, [sp, #20]
  1e:	f7ff fffe 	bl	0 <<core::marker::PhantomData<T> as core::clone::Clone>::clone>
  22:	e7ff      	b.n	24 <<druid::widget::widgetbox::WidgetBox<D> as core::clone::Clone>::clone+0x24>
/Users/Luppy/mynewt/druid-embedded/druid/src/widget/widgetbox.rs:44
#[derive(Clone, Default)]
  24:	9800      	ldr	r0, [sp, #0]
  26:	9003      	str	r0, [sp, #12]
  28:	9803      	ldr	r0, [sp, #12]
  2a:	b006      	add	sp, #24
  2c:	bd80      	pop	{r7, pc}

app-e8778d9de5b9c761.c2y9ceq5qri7oo6.rcgu.o:     file format elf32-littlearm

SYMBOL TABLE:
00000000 l    df *ABS*	00000000 c2y9ceq5qri7oo6
0000032c l       .debug_str	00000000 
00000375 l       .debug_str	00000000 
00000379 l       .debug_str	00000000 
00000381 l       .debug_str	00000000 
00000398 l       .debug_str	00000000 
000003bc l       .debug_str	00000000 
000003d8 l       .debug_str	00000000 
000003e2 l       .debug_str	00000000 
000003fc l       .debug_str	00000000 
0000045a l       .debug_str	00000000 
00000465 l       .debug_str	00000000 
00000482 l       .debug_str	00000000 
0000049b l       .debug_str	00000000 
000004a5 l       .debug_str	00000000 
000004bb l       .debug_str	00000000 
000004d9 l       .debug_str	00000000 
000004e2 l       .debug_str	00000000 
000004e7 l       .debug_str	00000000 
000004ec l       .debug_str	00000000 
000004f0 l       .debug_str	00000000 
000004f9 l       .debug_str	00000000 
00000503 l       .debug_str	00000000 
0000051b l       .debug_str	00000000 
00000000 l       .debug_str	00000000 
00000041 l       .debug_str	00000000 
00000055 l       .debug_str	00000000 
00000085 l       .debug_str	00000000 
0000008a l       .debug_str	00000000 
0000008e l       .debug_str	00000000 
00000091 l       .debug_str	00000000 
00000094 l       .debug_str	00000000 
00000097 l       .debug_str	00000000 
0000009c l       .debug_str	00000000 
000000a2 l       .debug_str	00000000 
000000a9 l       .debug_str	00000000 
000000b1 l       .debug_str	00000000 
000000bb l       .debug_str	00000000 
000000c2 l       .debug_str	00000000 
000000c5 l       .debug_str	00000000 
000000c9 l       .debug_str	00000000 
000000d0 l       .debug_str	00000000 
000000d4 l       .debug_str	00000000 
000000dd l       .debug_str	00000000 
000000e1 l       .debug_str	00000000 
0000010b l       .debug_str	00000000 
00000110 l       .debug_str	00000000 
00000115 l       .debug_str	00000000 
00000117 l       .debug_str	00000000 
00000129 l       .debug_str	00000000 
0000012f l       .debug_str	00000000 
00000132 l       .debug_str	00000000 
00000136 l       .debug_str	00000000 
0000013b l       .debug_str	00000000 
00000143 l       .debug_str	00000000 
00000147 l       .debug_str	00000000 
0000014f l       .debug_str	00000000 
00000157 l       .debug_str	00000000 
0000015e l       .debug_str	00000000 
00000164 l       .debug_str	00000000 
00000178 l       .debug_str	00000000 
00000184 l       .debug_str	00000000 
00000189 l       .debug_str	00000000 
00000191 l       .debug_str	00000000 
00000198 l       .debug_str	00000000 
0000019c l       .debug_str	00000000 
000001a1 l       .debug_str	00000000 
000001a8 l       .debug_str	00000000 
000001b1 l       .debug_str	00000000 
000001bb l       .debug_str	00000000 
000001c2 l       .debug_str	00000000 
000001c7 l       .debug_str	00000000 
000001d3 l       .debug_str	00000000 
000001db l       .debug_str	00000000 
000001e4 l       .debug_str	00000000 
000001e9 l       .debug_str	00000000 
000001ec l       .debug_str	00000000 
000001f0 l       .debug_str	00000000 
000001f9 l       .debug_str	00000000 
00000200 l       .debug_str	00000000 
00000205 l       .debug_str	00000000 
0000020a l       .debug_str	00000000 
00000210 l       .debug_str	00000000 
00000216 l       .debug_str	00000000 
00000220 l       .debug_str	00000000 
00000223 l       .debug_str	00000000 
00000229 l       .debug_str	00000000 
00000233 l       .debug_str	00000000 
0000023b l       .debug_str	00000000 
00000241 l       .debug_str	00000000 
00000247 l       .debug_str	00000000 
00000252 l       .debug_str	00000000 
0000025b l       .debug_str	00000000 
0000027e l       .debug_str	00000000 
0000029d l       .debug_str	00000000 
0000029f l       .debug_str	00000000 
000002a4 l       .debug_str	00000000 
000002cb l       .debug_str	00000000 
000002d0 l       .debug_str	00000000 
000002d6 l       .debug_str	00000000 
000002dc l       .debug_str	00000000 
000002df l       .debug_str	00000000 
000002ee l       .debug_str	00000000 
000002f5 l       .debug_str	00000000 
000002f9 l       .debug_str	00000000 
00000302 l       .debug_str	00000000 
0000030e l       .debug_str	00000000 
00000327 l       .debug_str	00000000 
0000033d l       .debug_str	00000000 
00000347 l       .debug_str	00000000 
00000355 l       .debug_str	00000000 
00000359 l       .debug_str	00000000 
00000364 l       .debug_str	00000000 
0000036b l       .debug_str	00000000 
00000371 l       .debug_str	00000000 
00000000 l     O .rodata.cst8	00000008 .Lanon.3ed011473997af99b525cde47c9eaaac.0
00000008 l     O .rodata.cst8	00000008 .Lanon.3ed011473997af99b525cde47c9eaaac.1
00000000 l     O .rodata..Lanon.3ed011473997af99b525cde47c9eaaac.10	00000003 .Lanon.3ed011473997af99b525cde47c9eaaac.10
00000000 l     O .rodata..Lanon.3ed011473997af99b525cde47c9eaaac.11	00000006 .Lanon.3ed011473997af99b525cde47c9eaaac.11
00000000 l     O .rodata..Lanon.3ed011473997af99b525cde47c9eaaac.12	00000001 .Lanon.3ed011473997af99b525cde47c9eaaac.12
00000000 l     O .rodata..Lanon.3ed011473997af99b525cde47c9eaaac.3	00000018 .Lanon.3ed011473997af99b525cde47c9eaaac.3
00000010 l     O .rodata.cst8	00000008 .Lanon.3ed011473997af99b525cde47c9eaaac.4
00000018 l     O .rodata.cst8	00000008 .Lanon.3ed011473997af99b525cde47c9eaaac.5
00000020 l     O .rodata.cst8	00000008 .Lanon.3ed011473997af99b525cde47c9eaaac.6
00000028 l     O .rodata.cst8	00000008 .Lanon.3ed011473997af99b525cde47c9eaaac.7
00000000 l     O .rodata..Lanon.3ed011473997af99b525cde47c9eaaac.8	00000006 .Lanon.3ed011473997af99b525cde47c9eaaac.8
00000000 l     O .rodata..Lanon.3ed011473997af99b525cde47c9eaaac.9	00000007 .Lanon.3ed011473997af99b525cde47c9eaaac.9
00000000 l    d  .text.main	00000000 .text.main
00000000 l    d  .text.rust_begin_unwind	00000000 .text.rust_begin_unwind
00000000 l    d  .rodata..Lanon.3ed011473997af99b525cde47c9eaaac.2	00000000 .rodata..Lanon.3ed011473997af99b525cde47c9eaaac.2
00000000 l    d  .debug_abbrev	00000000 .debug_abbrev
00000000 l    d  .debug_info	00000000 .debug_info
00000000 l    d  .debug_ranges	00000000 .debug_ranges
00000000 l    d  .debug_frame	00000000 .debug_frame
00000000 l    d  .debug_line	00000000 .debug_line
00000000         *UND*	00000000 piet_embedded_graphics::display::start_display
00000000         *UND*	00000000 .hidden app::app_sensor::start_sensor_listener
00000000         *UND*	00000000 .hidden app::touch_sensor::start_touch_sensor
00000000         *UND*	00000000 .hidden app::hello::launch
00000000         *UND*	00000000 core::panic::Location::file
00000000         *UND*	00000000 core::panic::Location::line
00000000         *UND*	00000000 core::panic::PanicInfo::payload
00000000         *UND*	00000000 core::panic::PanicInfo::location
00000000         *UND*	00000000 core::option::Option<T>::unwrap
00000000         *UND*	00000000 core::result::Result<T,E>::expect
00000000         *UND*	00000000 core::result::Result<T,E>::expect
00000000         *UND*	00000000 core::panicking::panic
00000000         *UND*	00000000 <dyn +core::any::Any+core::marker::Send>::downcast_ref
00000000         *UND*	00000000 mynewt::sys::console::flush
00000000         *UND*	00000000 mynewt::sys::console::print
00000000         *UND*	00000000 mynewt::sys::console::buffer
00000000         *UND*	00000000 mynewt::sys::console::printint
00000000         *UND*	00000000 mynewt::kernel::os::eventq_run
00000000         *UND*	00000000 mynewt::kernel::os::eventq_dflt_get
00000000         *UND*	00000000 mynewt::sysinit
00000000 g     F .text.main	000000b4 main
00000000 g     F .text.rust_begin_unwind	000000f2 rust_begin_unwind
00000000         *UND*	00000000 start_ble



Disassembly of section .text.main:

00000000 <main>:
main():
/Users/Luppy/mynewt/stm32bluepill-mynewt-sensor/rust/app/src/lib.rs:53
};

///  Main program that initialises the sensor, network driver and starts reading and sending sensor data in the background.
///  main() will be called at Mynewt startup. It replaces the C version of the main() function.
#[no_mangle]                 //  Don't mangle the name "main"
extern "C" fn main() -> ! {  //  Declare extern "C" because it will be called by Mynewt
   0:	b088      	sub	sp, #32
/Users/Luppy/mynewt/stm32bluepill-mynewt-sensor/rust/app/src/lib.rs:58
    //  Initialise the Mynewt packages and internal temperature sensor driver. Any startup
    //  functions defined in pkg.yml of our custom drivers and libraries will be called by 
    //  sysinit().  Here are the startup functions consolidated by Mynewt:
    //  bin/targets/nrf52_my_sensor/generated/src/nrf52_my_sensor-sysinit-app.c
    mynewt::sysinit();
   2:	f7ff fffe 	bl	0 <mynewt::sysinit>
   6:	e7ff      	b.n	2 <app::app_sensor::start_sensor_listener+0x2>
/Users/Luppy/mynewt/stm32bluepill-mynewt-sensor/rust/app/src/lib.rs:66
    //  sensor_network::start_server_transport()
    //    .expect("NET fail");

    //  Start polling the simulated temperature sensor every 10 seconds in the background.
    //  TODO: Replace by touch handler.
    app_sensor::start_sensor_listener()
   8:	f7ff fffe 	bl	0 <app::app_sensor::start_sensor_listener>
   c:	9004      	str	r0, [sp, #16]
   e:	e7ff      	b.n	10 <main+0x10>
  10:	f240 0100 	movw	r1, #0
  14:	f2c0 0100 	movt	r1, #0
  18:	2208      	movs	r2, #8
  1a:	9804      	ldr	r0, [sp, #16]
  1c:	f7ff fffe 	bl	0 <core::result::Result<T,E>::expect>
  20:	e7ff      	b.n	2 <start_ble+0x2>
/Users/Luppy/mynewt/stm32bluepill-mynewt-sensor/rust/app/src/lib.rs:71
        .expect("TMP fail");

    //  Start Bluetooth Beacon.  TODO: Create a safe wrapper for starting Bluetooth LE.
    extern { fn start_ble() -> i32; }
    let rc = unsafe { start_ble() };
  22:	f7ff fffe 	bl	0 <start_ble>
  26:	9005      	str	r0, [sp, #20]
  28:	e7ff      	b.n	2a <main+0x2a>
/Users/Luppy/mynewt/stm32bluepill-mynewt-sensor/rust/app/src/lib.rs:72
    assert!(rc == 0, "BLE fail");
  2a:	9805      	ldr	r0, [sp, #20]
  2c:	2800      	cmp	r0, #0
  2e:	d007      	beq.n	40 <main+0x40>
  30:	e7ff      	b.n	32 <main+0x32>
  32:	f240 0000 	movw	r0, #0
  36:	f2c0 0000 	movt	r0, #0
  3a:	f7ff fffe 	bl	0 <core::panicking::panic>
  3e:	defe      	udf	#254	; 0xfe
/Users/Luppy/mynewt/stm32bluepill-mynewt-sensor/rust/app/src/lib.rs:75

    //  Start the display
    druid::start_display()
  40:	f7ff fffe 	bl	0 <piet_embedded_graphics::display::start_display>
  44:	9003      	str	r0, [sp, #12]
  46:	e7ff      	b.n	48 <main+0x48>
  48:	f240 0100 	movw	r1, #0
  4c:	f2c0 0100 	movt	r1, #0
  50:	2208      	movs	r2, #8
  52:	9803      	ldr	r0, [sp, #12]
  54:	f7ff fffe 	bl	0 <core::result::Result<T,E>::expect>
  58:	e7ff      	b.n	2 <app::touch_sensor::start_touch_sensor+0x2>
/Users/Luppy/mynewt/stm32bluepill-mynewt-sensor/rust/app/src/lib.rs:83
    //  Test the display
    //  druid::test_display()
    //      .expect("DSP test fail");

    //  Start the touch sensor
    touch_sensor::start_touch_sensor()
  5a:	f7ff fffe 	bl	0 <app::touch_sensor::start_touch_sensor>
  5e:	9002      	str	r0, [sp, #8]
  60:	e7ff      	b.n	62 <main+0x62>
  62:	f240 0100 	movw	r1, #0
  66:	f2c0 0100 	movt	r1, #0
  6a:	2208      	movs	r2, #8
  6c:	9802      	ldr	r0, [sp, #8]
  6e:	f7ff fffe 	bl	0 <core::result::Result<T,E>::expect>
  72:	e7ff      	b.n	2 <app::hello::launch+0x2>
/Users/Luppy/mynewt/stm32bluepill-mynewt-sensor/rust/app/src/lib.rs:91
    //  Test the touch sensor
    //  touch_sensor::test()
    //      .expect("TCH test fail");

    //  Launch the Druid UI
    hello::launch();
  74:	f7ff fffe 	bl	0 <app::hello::launch>
  78:	e7ff      	b.n	7a <main+0x7a>
  7a:	a806      	add	r0, sp, #24
/Users/Luppy/mynewt/stm32bluepill-mynewt-sensor/rust/app/src/lib.rs:96

    //  Main event loop
    loop {                            //  Loop forever...
        os::eventq_run(               //  Processing events...
            os::eventq_dflt_get()     //  From default event queue.
  7c:	f7ff fffe 	bl	0 <mynewt::kernel::os::eventq_dflt_get>
  80:	e7ff      	b.n	22 <main+0x22>
  82:	f240 0100 	movw	r1, #0
  86:	f2c0 0100 	movt	r1, #0
  8a:	a806      	add	r0, sp, #24
  8c:	2208      	movs	r2, #8
  8e:	f7ff fffe 	bl	0 <core::result::Result<T,E>::expect>
  92:	9001      	str	r0, [sp, #4]
  94:	e7ff      	b.n	96 <main+0x96>
/Users/Luppy/mynewt/stm32bluepill-mynewt-sensor/rust/app/src/lib.rs:95
        os::eventq_run(               //  Processing events...
  96:	9801      	ldr	r0, [sp, #4]
  98:	f7ff fffe 	bl	0 <mynewt::kernel::os::eventq_run>
  9c:	9000      	str	r0, [sp, #0]
  9e:	e7ff      	b.n	a0 <main+0xa0>
  a0:	f240 0100 	movw	r1, #0
  a4:	f2c0 0100 	movt	r1, #0
  a8:	2208      	movs	r2, #8
  aa:	9800      	ldr	r0, [sp, #0]
  ac:	f7ff fffe 	bl	0 <core::result::Result<T,E>::expect>
  b0:	e7ff      	b.n	b2 <main+0xb2>
/Users/Luppy/mynewt/stm32bluepill-mynewt-sensor/rust/app/src/lib.rs:94
    loop {                            //  Loop forever...
  b2:	e7e2      	b.n	7a <main+0x7a>

Disassembly of section .text.rust_begin_unwind:

00000000 <rust_begin_unwind>:
rust_begin_unwind():
/Users/Luppy/mynewt/stm32bluepill-mynewt-sensor/rust/app/src/lib.rs:105
    //  Never comes here
}

///  This function is called on panic, like an assertion failure. We display the filename and line number and pause in the debugger. From https://os.phil-opp.com/freestanding-rust-binary/
#[panic_handler]
fn panic(info: &PanicInfo) -> ! {
   0:	b08c      	sub	sp, #48	; 0x30
   2:	4601      	mov	r1, r0
   4:	9006      	str	r0, [sp, #24]
/Users/Luppy/mynewt/stm32bluepill-mynewt-sensor/rust/app/src/lib.rs:107
    //  Display the filename and line number to the Semihosting Console.
    console::print("panic ");
   6:	f240 0000 	movw	r0, #0
   a:	f2c0 0000 	movt	r0, #0
   e:	2206      	movs	r2, #6
  10:	9105      	str	r1, [sp, #20]
  12:	4611      	mov	r1, r2
  14:	f7ff fffe 	bl	0 <mynewt::sys::console::print>
  18:	e7ff      	b.n	1a <rust_begin_unwind+0x1a>
/Users/Luppy/mynewt/stm32bluepill-mynewt-sensor/rust/app/src/lib.rs:108
    if let Some(location) = info.location() {
  1a:	9806      	ldr	r0, [sp, #24]
  1c:	f7ff fffe 	bl	0 <core::panic::PanicInfo::location>
  20:	9007      	str	r0, [sp, #28]
  22:	e7ff      	b.n	24 <rust_begin_unwind+0x24>
  24:	9807      	ldr	r0, [sp, #28]
  26:	2800      	cmp	r0, #0
  28:	d032      	beq.n	90 <rust_begin_unwind+0x90>
  2a:	e7ff      	b.n	2c <rust_begin_unwind+0x2c>
  2c:	9807      	ldr	r0, [sp, #28]
  2e:	9008      	str	r0, [sp, #32]
/Users/Luppy/mynewt/stm32bluepill-mynewt-sensor/rust/app/src/lib.rs:109
        let file = location.file();
  30:	9808      	ldr	r0, [sp, #32]
  32:	f7ff fffe 	bl	0 <core::panic::Location::file>
  36:	910a      	str	r1, [sp, #40]	; 0x28
  38:	9009      	str	r0, [sp, #36]	; 0x24
  3a:	e7ff      	b.n	3c <rust_begin_unwind+0x3c>
/Users/Luppy/mynewt/stm32bluepill-mynewt-sensor/rust/app/src/lib.rs:110
        let line = location.line();
  3c:	9808      	ldr	r0, [sp, #32]
  3e:	f7ff fffe 	bl	0 <core::panic::Location::line>
  42:	900b      	str	r0, [sp, #44]	; 0x2c
  44:	e7ff      	b.n	46 <rust_begin_unwind+0x46>
/Users/Luppy/mynewt/stm32bluepill-mynewt-sensor/rust/app/src/lib.rs:111
        console::print("at ");       console::buffer(&file);
  46:	f240 0000 	movw	r0, #0
  4a:	f2c0 0000 	movt	r0, #0
  4e:	2103      	movs	r1, #3
  50:	f7ff fffe 	bl	0 <mynewt::sys::console::print>
  54:	e7ff      	b.n	56 <rust_begin_unwind+0x56>
  56:	9809      	ldr	r0, [sp, #36]	; 0x24
  58:	990a      	ldr	r1, [sp, #40]	; 0x28
  5a:	f7ff fffe 	bl	0 <mynewt::sys::console::buffer>
  5e:	e7ff      	b.n	2 <rust_begin_unwind+0x2>
/Users/Luppy/mynewt/stm32bluepill-mynewt-sensor/rust/app/src/lib.rs:112
        console::print(" line ");    console::printint(line as i32);
  60:	f240 0000 	movw	r0, #0
  64:	f2c0 0000 	movt	r0, #0
  68:	2106      	movs	r1, #6
  6a:	f7ff fffe 	bl	0 <mynewt::sys::console::print>
  6e:	e7ff      	b.n	70 <rust_begin_unwind+0x70>
  70:	980b      	ldr	r0, [sp, #44]	; 0x2c
  72:	f7ff fffe 	bl	0 <mynewt::sys::console::printint>
  76:	e7ff      	b.n	2 <rust_begin_unwind+0x2>
/Users/Luppy/mynewt/stm32bluepill-mynewt-sensor/rust/app/src/lib.rs:113
        console::print("\n");        console::flush();
  78:	f240 0000 	movw	r0, #0
  7c:	f2c0 0000 	movt	r0, #0
  80:	2101      	movs	r1, #1
  82:	f7ff fffe 	bl	0 <mynewt::sys::console::print>
  86:	e7ff      	b.n	2 <mynewt::sys::console::flush+0x2>
  88:	f7ff fffe 	bl	0 <mynewt::sys::console::flush>
  8c:	e7ff      	b.n	8e <rust_begin_unwind+0x8e>
/Users/Luppy/mynewt/stm32bluepill-mynewt-sensor/rust/app/src/lib.rs:108
    if let Some(location) = info.location() {
  8e:	e00a      	b.n	a6 <rust_begin_unwind+0xa6>
/Users/Luppy/mynewt/stm32bluepill-mynewt-sensor/rust/app/src/lib.rs:115
    } else {
        console::print("no loc\n");  console::flush();
  90:	f240 0000 	movw	r0, #0
  94:	f2c0 0000 	movt	r0, #0
  98:	2107      	movs	r1, #7
  9a:	f7ff fffe 	bl	0 <mynewt::sys::console::print>
  9e:	e7ff      	b.n	2 <mynewt::sys::console::flush+0x2>
  a0:	f7ff fffe 	bl	0 <mynewt::sys::console::flush>
  a4:	e7ff      	b.n	a6 <rust_begin_unwind+0xa6>
_ZN8cortex_m3asm4bkpt17h15d676c3288af66bE():
/Users/Luppy/.cargo/registry/src/github.com-1ecc6299db9ec823/cortex-m-0.6.1/src/asm.rs:11
/// exception.
#[inline(always)]
pub fn bkpt() {
    match () {
        #[cfg(all(cortex_m, feature = "inline-asm"))]
        () => unsafe { asm!("bkpt" :::: "volatile") },
  a6:	be00      	bkpt	0x0000
rust_begin_unwind():
/Users/Luppy/mynewt/stm32bluepill-mynewt-sensor/rust/app/src/lib.rs:118
    }
    //  Pause in the debugger.
    bkpt();
  a8:	e7ff      	b.n	aa <rust_begin_unwind+0xaa>
/Users/Luppy/mynewt/stm32bluepill-mynewt-sensor/rust/app/src/lib.rs:120
    //  Display the payload.
    console::print(info.payload().downcast_ref::<&str>().unwrap());
  aa:	9806      	ldr	r0, [sp, #24]
  ac:	f7ff fffe 	bl	0 <core::panic::PanicInfo::payload>
  b0:	9004      	str	r0, [sp, #16]
  b2:	9103      	str	r1, [sp, #12]
  b4:	e7ff      	b.n	b6 <rust_begin_unwind+0xb6>
  b6:	9804      	ldr	r0, [sp, #16]
  b8:	9903      	ldr	r1, [sp, #12]
  ba:	f7ff fffe 	bl	0 <<dyn +core::any::Any+core::marker::Send>::downcast_ref>
  be:	9002      	str	r0, [sp, #8]
  c0:	e7ff      	b.n	c2 <rust_begin_unwind+0xc2>
  c2:	9802      	ldr	r0, [sp, #8]
  c4:	f7ff fffe 	bl	0 <core::option::Option<T>::unwrap>
  c8:	9001      	str	r0, [sp, #4]
  ca:	e7ff      	b.n	cc <rust_begin_unwind+0xcc>
  cc:	9801      	ldr	r0, [sp, #4]
  ce:	6800      	ldr	r0, [r0, #0]
  d0:	9901      	ldr	r1, [sp, #4]
  d2:	6849      	ldr	r1, [r1, #4]
  d4:	f7ff fffe 	bl	0 <mynewt::sys::console::print>
  d8:	e7ff      	b.n	2 <rust_begin_unwind+0x2>
/Users/Luppy/mynewt/stm32bluepill-mynewt-sensor/rust/app/src/lib.rs:121
    console::print("\n");  console::flush();
  da:	f240 0000 	movw	r0, #0
  de:	f2c0 0000 	movt	r0, #0
  e2:	2101      	movs	r1, #1
  e4:	f7ff fffe 	bl	0 <mynewt::sys::console::print>
  e8:	e7ff      	b.n	2 <mynewt::sys::console::flush+0x2>
  ea:	f7ff fffe 	bl	0 <mynewt::sys::console::flush>
  ee:	e7ff      	b.n	f0 <rust_begin_unwind+0xf0>
/Users/Luppy/mynewt/stm32bluepill-mynewt-sensor/rust/app/src/lib.rs:123
    //  Loop forever so that device won't restart.
    loop {}
  f0:	e7fe      	b.n	f0 <rust_begin_unwind+0xf0>

app-e8778d9de5b9c761.lkz3ecyyoqzis4e.rcgu.o:     file format elf32-littlearm

SYMBOL TABLE:
00000000 l    df *ABS*	00000000 lkz3ecyyoqzis4e
000004b6 l       .debug_str	00000000 
0000049e l       .debug_str	00000000 
000004a1 l       .debug_str	00000000 
000004a7 l       .debug_str	00000000 
000004ad l       .debug_str	00000000 
000004b9 l       .debug_str	00000000 
000004c3 l       .debug_str	00000000 
000004ca l       .debug_str	00000000 
000004d0 l       .debug_str	00000000 
000004d5 l       .debug_str	00000000 
000004de l       .debug_str	00000000 
000004e4 l       .debug_str	00000000 
000004e6 l       .debug_str	00000000 
000004ea l       .debug_str	00000000 
00000556 l       .debug_str	00000000 
000005aa l       .debug_str	00000000 
000005da l       .debug_str	00000000 
000005df l       .debug_str	00000000 
00000629 l       .debug_str	00000000 
00000000 l       .debug_str	00000000 
00000041 l       .debug_str	00000000 
00000055 l       .debug_str	00000000 
00000085 l       .debug_str	00000000 
00000091 l       .debug_str	00000000 
00000098 l       .debug_str	00000000 
000000a5 l       .debug_str	00000000 
000000a9 l       .debug_str	00000000 
000000b2 l       .debug_str	00000000 
000000bb l       .debug_str	00000000 
000000c5 l       .debug_str	00000000 
000000c9 l       .debug_str	00000000 
000000cf l       .debug_str	00000000 
000000d7 l       .debug_str	00000000 
000000dd l       .debug_str	00000000 
000000e9 l       .debug_str	00000000 
000000f2 l       .debug_str	00000000 
000000fa l       .debug_str	00000000 
000000ff l       .debug_str	00000000 
00000106 l       .debug_str	00000000 
00000108 l       .debug_str	00000000 
00000119 l       .debug_str	00000000 
0000012b l       .debug_str	00000000 
00000134 l       .debug_str	00000000 
00000167 l       .debug_str	00000000 
0000019b l       .debug_str	00000000 
000001a0 l       .debug_str	00000000 
000001a6 l       .debug_str	00000000 
000001ac l       .debug_str	00000000 
000001b0 l       .debug_str	00000000 
000001b7 l       .debug_str	00000000 
000001bc l       .debug_str	00000000 
000001ef l       .debug_str	00000000 
00000224 l       .debug_str	00000000 
00000228 l       .debug_str	00000000 
00000262 l       .debug_str	00000000 
00000299 l       .debug_str	00000000 
000002e8 l       .debug_str	00000000 
00000314 l       .debug_str	00000000 
0000036c l       .debug_str	00000000 
0000039f l       .debug_str	00000000 
000003ee l       .debug_str	00000000 
00000419 l       .debug_str	00000000 
0000046a l       .debug_str	00000000 
00000497 l       .debug_str	00000000 
00000000 l    d  .text._ZN11druid_shell6window12WindowHandle17hf99865cdbe1bb3d0E	00000000 .text._ZN11druid_shell6window12WindowHandle17hf99865cdbe1bb3d0E
00000000 l    d  .text._ZN11druid_shell6window28WindowHandle$LT$THandler$GT$4show17ha8d45025ee34bf41E	00000000 .text._ZN11druid_shell6window28WindowHandle$LT$THandler$GT$4show17ha8d45025ee34bf41E
00000000 l    d  .text._ZN11druid_shell6window29WindowBuilder$LT$THandler$GT$11set_handler17h6b02580e6503ce1bE	00000000 .text._ZN11druid_shell6window29WindowBuilder$LT$THandler$GT$11set_handler17h6b02580e6503ce1bE
00000000 l    d  .text._ZN11druid_shell6window29WindowBuilder$LT$THandler$GT$3new17h73f6a30ae73a8468E	00000000 .text._ZN11druid_shell6window29WindowBuilder$LT$THandler$GT$3new17h73f6a30ae73a8468E
00000000 l    d  .text._ZN11druid_shell6window29WindowBuilder$LT$THandler$GT$5build17h69c8a13e8bdb7012E	00000000 .text._ZN11druid_shell6window29WindowBuilder$LT$THandler$GT$5build17h69c8a13e8bdb7012E
00000000 l    d  .text._ZN11druid_shell6window29WindowBuilder$LT$THandler$GT$8set_size17ha4a6bb419ce918b0E	00000000 .text._ZN11druid_shell6window29WindowBuilder$LT$THandler$GT$8set_size17ha4a6bb419ce918b0E
00000000 l    d  .debug_loc	00000000 .debug_loc
00000000 l    d  .debug_abbrev	00000000 .debug_abbrev
00000000 l    d  .debug_info	00000000 .debug_info
00000000 l    d  .debug_ranges	00000000 .debug_ranges
00000000 l    d  .debug_frame	00000000 .debug_frame
00000000 l    d  .debug_line	00000000 .debug_line
00000000 g     F .text._ZN11druid_shell6window12WindowHandle17hf99865cdbe1bb3d0E	00000024 druid_shell::window::WindowHandle
00000000 g     F .text._ZN11druid_shell6window28WindowHandle$LT$THandler$GT$4show17ha8d45025ee34bf41E	00000016 druid_shell::window::WindowHandle<THandler>::show
00000000 g     F .text._ZN11druid_shell6window29WindowBuilder$LT$THandler$GT$11set_handler17h6b02580e6503ce1bE	0000001e druid_shell::window::WindowBuilder<THandler>::set_handler
00000000 g     F .text._ZN11druid_shell6window29WindowBuilder$LT$THandler$GT$3new17h73f6a30ae73a8468E	00000020 druid_shell::window::WindowBuilder<THandler>::new
00000000 g     F .text._ZN11druid_shell6window29WindowBuilder$LT$THandler$GT$5build17h69c8a13e8bdb7012E	0000003e druid_shell::window::WindowBuilder<THandler>::build
00000000 g     F .text._ZN11druid_shell6window29WindowBuilder$LT$THandler$GT$8set_size17ha4a6bb419ce918b0E	0000003e druid_shell::window::WindowBuilder<THandler>::set_size
00000000         *UND*	00000000 druid_shell::platform::embedded::window::WindowHandle<THandler>::show
00000000         *UND*	00000000 druid_shell::platform::embedded::window::WindowBuilder<THandler>::set_handler
00000000         *UND*	00000000 druid_shell::platform::embedded::window::WindowBuilder<THandler>::new
00000000         *UND*	00000000 druid_shell::platform::embedded::window::WindowBuilder<THandler>::build
00000000         *UND*	00000000 druid_shell::platform::embedded::window::WindowBuilder<THandler>::set_size
00000000         *UND*	00000000 core::result::Result<T,E>::map
00000000         *UND*	00000000 core::result::Result<T,E>::map_err



Disassembly of section .text._ZN11druid_shell6window12WindowHandle17hf99865cdbe1bb3d0E:

00000000 <druid_shell::window::WindowHandle>:
_ZN11druid_shell6window12WindowHandle17hf99865cdbe1bb3d0E():
/Users/Luppy/mynewt/druid-embedded/druid-shell/src/window.rs:77
    }
*/ ////

/// A handle to a platform window object.
#[derive(Clone, Default)]
pub struct WindowHandle<THandler: WinHandler<THandler>> (  ////  THandler is DruidHandler<T: Data + 'static>
   0:	b580      	push	{r7, lr}
   2:	b082      	sub	sp, #8
   4:	460a      	mov	r2, r1
   6:	4603      	mov	r3, r0
   8:	f8d1 c000 	ldr.w	ip, [r1]
   c:	f8d1 e004 	ldr.w	lr, [r1, #4]
  10:	6889      	ldr	r1, [r1, #8]
  12:	6081      	str	r1, [r0, #8]
  14:	f8c0 e004 	str.w	lr, [r0, #4]
  18:	f8c0 c000 	str.w	ip, [r0]
  1c:	9201      	str	r2, [sp, #4]
  1e:	9300      	str	r3, [sp, #0]
  20:	b002      	add	sp, #8
  22:	bd80      	pop	{r7, pc}

Disassembly of section .text._ZN11druid_shell6window28WindowHandle$LT$THandler$GT$4show17ha8d45025ee34bf41E:

00000000 <druid_shell::window::WindowHandle<THandler>::show>:
_ZN11druid_shell6window28WindowHandle$LT$THandler$GT$4show17ha8d45025ee34bf41E():
/Users/Luppy/mynewt/druid-embedded/druid-shell/src/window.rs:87
impl<THandler: WinHandler<THandler> + Clone + Default> WindowHandle<THandler> {  ////  THandler is DruidHandler<T: Data + 'static>
    /// Make this window visible.
    ///
    /// This is part of the initialization process; it should only be called
    /// once, when a window is first created.
    pub fn show(&self) {
   0:	b580      	push	{r7, lr}
   2:	b082      	sub	sp, #8
   4:	4601      	mov	r1, r0
   6:	9001      	str	r0, [sp, #4]
/Users/Luppy/mynewt/druid-embedded/druid-shell/src/window.rs:88
        self.0.show()
   8:	9801      	ldr	r0, [sp, #4]
   a:	9100      	str	r1, [sp, #0]
   c:	f7ff fffe 	bl	0 <druid_shell::platform::embedded::window::WindowHandle<THandler>::show>
  10:	e7ff      	b.n	12 <druid_shell::window::WindowHandle<THandler>::show+0x12>
/Users/Luppy/mynewt/druid-embedded/druid-shell/src/window.rs:89
    }
  12:	b002      	add	sp, #8
  14:	bd80      	pop	{r7, pc}

Disassembly of section .text._ZN11druid_shell6window29WindowBuilder$LT$THandler$GT$11set_handler17h6b02580e6503ce1bE:

00000000 <druid_shell::window::WindowBuilder<THandler>::set_handler>:
_ZN11druid_shell6window29WindowBuilder$LT$THandler$GT$11set_handler17h6b02580e6503ce1bE():
/Users/Luppy/mynewt/druid-embedded/druid-shell/src/window.rs:160

    /// Set the [`WinHandler`]. This is the object that will receive
    /// callbacks from this window.
    ///
    /// [`WinHandler`]: trait.WinHandler.html
    pub fn set_handler(&mut self, handler: THandler) { ////
   0:	b580      	push	{r7, lr}
   2:	b084      	sub	sp, #16
   4:	460a      	mov	r2, r1
   6:	4603      	mov	r3, r0
   8:	9002      	str	r0, [sp, #8]
   a:	9103      	str	r1, [sp, #12]
/Users/Luppy/mynewt/druid-embedded/druid-shell/src/window.rs:162
    ////pub fn set_handler(&mut self, handler: Box<dyn WinHandler>) {
        self.0.set_handler(handler)
   c:	9802      	ldr	r0, [sp, #8]
   e:	9903      	ldr	r1, [sp, #12]
  10:	9201      	str	r2, [sp, #4]
  12:	9300      	str	r3, [sp, #0]
  14:	f7ff fffe 	bl	0 <druid_shell::platform::embedded::window::WindowBuilder<THandler>::set_handler>
  18:	e7ff      	b.n	1a <druid_shell::window::WindowBuilder<THandler>::set_handler+0x1a>
/Users/Luppy/mynewt/druid-embedded/druid-shell/src/window.rs:163
    }
  1a:	b004      	add	sp, #16
  1c:	bd80      	pop	{r7, pc}

Disassembly of section .text._ZN11druid_shell6window29WindowBuilder$LT$THandler$GT$3new17h73f6a30ae73a8468E:

00000000 <druid_shell::window::WindowBuilder<THandler>::new>:
_ZN11druid_shell6window29WindowBuilder$LT$THandler$GT$3new17h73f6a30ae73a8468E():
/Users/Luppy/mynewt/druid-embedded/druid-shell/src/window.rs:148
    pub fn new() -> Self { ////
   0:	b5b0      	push	{r4, r5, r7, lr}
   2:	b08a      	sub	sp, #40	; 0x28
   4:	a902      	add	r1, sp, #8
/Users/Luppy/mynewt/druid-embedded/druid-shell/src/window.rs:151
            platform::WindowBuilder::new(),
   6:	9001      	str	r0, [sp, #4]
   8:	4608      	mov	r0, r1
   a:	f7ff fffe 	bl	0 <druid_shell::platform::embedded::window::WindowBuilder<THandler>::new>
   e:	e7ff      	b.n	10 <druid_shell::window::WindowBuilder<THandler>::new+0x10>
  10:	a802      	add	r0, sp, #8
/Users/Luppy/mynewt/druid-embedded/druid-shell/src/window.rs:150
        WindowBuilder(
  12:	9901      	ldr	r1, [sp, #4]
  14:	e890 503c 	ldmia.w	r0, {r2, r3, r4, r5, ip, lr}
  18:	e881 503c 	stmia.w	r1, {r2, r3, r4, r5, ip, lr}
/Users/Luppy/mynewt/druid-embedded/druid-shell/src/window.rs:154
    }
  1c:	b00a      	add	sp, #40	; 0x28
  1e:	bdb0      	pop	{r4, r5, r7, pc}

Disassembly of section .text._ZN11druid_shell6window29WindowBuilder$LT$THandler$GT$5build17h69c8a13e8bdb7012E:

00000000 <druid_shell::window::WindowBuilder<THandler>::build>:
_ZN11druid_shell6window29WindowBuilder$LT$THandler$GT$5build17h69c8a13e8bdb7012E():
/Users/Luppy/mynewt/druid-embedded/druid-shell/src/window.rs:185
    */ ////

    /// Attempt to construct the platform window.
    ///
    /// If this fails, your application should exit.
    pub fn build(self) -> Result<WindowHandle<THandler>, Error> { ////
   0:	e92d 41f0 	stmdb	sp!, {r4, r5, r6, r7, r8, lr}
   4:	b090      	sub	sp, #64	; 0x40
   6:	460a      	mov	r2, r1
   8:	ab0a      	add	r3, sp, #40	; 0x28
/Users/Luppy/mynewt/druid-embedded/druid-shell/src/window.rs:187
    ////pub fn build(self) -> Result<WindowHandle, Error> {
        self.0.build().map(WindowHandle).map_err(Into::into)
   a:	469c      	mov	ip, r3
   c:	e891 41f0 	ldmia.w	r1, {r4, r5, r6, r7, r8, lr}
  10:	e88c 41f0 	stmia.w	ip, {r4, r5, r6, r7, r8, lr}
  14:	a906      	add	r1, sp, #24
  16:	9001      	str	r0, [sp, #4]
  18:	4608      	mov	r0, r1
  1a:	4619      	mov	r1, r3
  1c:	9200      	str	r2, [sp, #0]
  1e:	f7ff fffe 	bl	0 <druid_shell::platform::embedded::window::WindowBuilder<THandler>::build>
  22:	e7ff      	b.n	24 <druid_shell::window::WindowBuilder<THandler>::build+0x24>
  24:	a802      	add	r0, sp, #8
  26:	a906      	add	r1, sp, #24
  28:	f7ff fffe 	bl	0 <core::result::Result<T,E>::map>
  2c:	e7ff      	b.n	2e <druid_shell::window::WindowBuilder<THandler>::build+0x2e>
  2e:	a902      	add	r1, sp, #8
  30:	9801      	ldr	r0, [sp, #4]
  32:	f7ff fffe 	bl	0 <core::result::Result<T,E>::map_err>
  36:	e7ff      	b.n	38 <druid_shell::window::WindowBuilder<THandler>::build+0x38>
/Users/Luppy/mynewt/druid-embedded/druid-shell/src/window.rs:188
    }
  38:	b010      	add	sp, #64	; 0x40
  3a:	e8bd 81f0 	ldmia.w	sp!, {r4, r5, r6, r7, r8, pc}

Disassembly of section .text._ZN11druid_shell6window29WindowBuilder$LT$THandler$GT$8set_size17ha4a6bb419ce918b0E:

00000000 <druid_shell::window::WindowBuilder<THandler>::set_size>:
_ZN11druid_shell6window29WindowBuilder$LT$THandler$GT$8set_size17ha4a6bb419ce918b0E():
/Users/Luppy/mynewt/druid-embedded/druid-shell/src/window.rs:166
    pub fn set_size(&mut self, size: Size) {
   0:	b580      	push	{r7, lr}
   2:	b08c      	sub	sp, #48	; 0x30
   4:	eeb0 2a41 	vmov.f32	s4, s2
   8:	eef0 2a61 	vmov.f32	s5, s3
   c:	eeb0 3a40 	vmov.f32	s6, s0
  10:	eef0 3a60 	vmov.f32	s7, s1
  14:	4601      	mov	r1, r0
  16:	9007      	str	r0, [sp, #28]
  18:	ed8d 0b08 	vstr	d0, [sp, #32]
  1c:	ed8d 1b0a 	vstr	d1, [sp, #40]	; 0x28
/Users/Luppy/mynewt/druid-embedded/druid-shell/src/window.rs:167
        self.0.set_size(size)
  20:	9807      	ldr	r0, [sp, #28]
  22:	ed9d 0b08 	vldr	d0, [sp, #32]
  26:	ed9d 1b0a 	vldr	d1, [sp, #40]	; 0x28
  2a:	ed8d 2b04 	vstr	d2, [sp, #16]
  2e:	ed8d 3b02 	vstr	d3, [sp, #8]
  32:	9101      	str	r1, [sp, #4]
  34:	f7ff fffe 	bl	0 <druid_shell::platform::embedded::window::WindowBuilder<THandler>::set_size>
  38:	e7ff      	b.n	3a <druid_shell::window::WindowBuilder<THandler>::set_size+0x3a>
/Users/Luppy/mynewt/druid-embedded/druid-shell/src/window.rs:168
    }
  3a:	b00c      	add	sp, #48	; 0x30
  3c:	bd80      	pop	{r7, pc}

app-e8778d9de5b9c761.mremlt5apis6xgg.rcgu.o:     file format elf32-littlearm

SYMBOL TABLE:
00000000 l    df *ABS*	00000000 mremlt5apis6xgg
00000315 l       .debug_str	00000000 
000002fc l       .debug_str	00000000 
00000300 l       .debug_str	00000000 
00000308 l       .debug_str	00000000 
0000030d l       .debug_str	00000000 
0000031a l       .debug_str	00000000 
00000328 l       .debug_str	00000000 
0000032e l       .debug_str	00000000 
00000333 l       .debug_str	00000000 
00000338 l       .debug_str	00000000 
00000348 l       .debug_str	00000000 
0000034c l       .debug_str	00000000 
00000358 l       .debug_str	00000000 
00000379 l       .debug_str	00000000 
0000037d l       .debug_str	00000000 
0000037f l       .debug_str	00000000 
00000389 l       .debug_str	00000000 
0000038d l       .debug_str	00000000 
00000390 l       .debug_str	00000000 
00000395 l       .debug_str	00000000 
0000039e l       .debug_str	00000000 
000003ac l       .debug_str	00000000 
000003be l       .debug_str	00000000 
000003d2 l       .debug_str	00000000 
000003d6 l       .debug_str	00000000 
000003df l       .debug_str	00000000 
00000000 l       .debug_str	00000000 
00000041 l       .debug_str	00000000 
00000055 l       .debug_str	00000000 
00000085 l       .debug_str	00000000 
0000008c l       .debug_str	00000000 
00000093 l       .debug_str	00000000 
00000097 l       .debug_str	00000000 
0000009f l       .debug_str	00000000 
000000aa l       .debug_str	00000000 
000000b5 l       .debug_str	00000000 
000000c2 l       .debug_str	00000000 
000000cd l       .debug_str	00000000 
000000d5 l       .debug_str	00000000 
000000e0 l       .debug_str	00000000 
000000eb l       .debug_str	00000000 
000000f5 l       .debug_str	00000000 
00000100 l       .debug_str	00000000 
0000010b l       .debug_str	00000000 
00000118 l       .debug_str	00000000 
00000124 l       .debug_str	00000000 
00000131 l       .debug_str	00000000 
0000013f l       .debug_str	00000000 
00000149 l       .debug_str	00000000 
00000156 l       .debug_str	00000000 
00000162 l       .debug_str	00000000 
00000166 l       .debug_str	00000000 
00000172 l       .debug_str	00000000 
00000177 l       .debug_str	00000000 
0000017b l       .debug_str	00000000 
00000184 l       .debug_str	00000000 
000001c5 l       .debug_str	00000000 
000001ce l       .debug_str	00000000 
000001d7 l       .debug_str	00000000 
000001da l       .debug_str	00000000 
000001e4 l       .debug_str	00000000 
000001eb l       .debug_str	00000000 
000001f1 l       .debug_str	00000000 
000001f7 l       .debug_str	00000000 
000001fc l       .debug_str	00000000 
00000201 l       .debug_str	00000000 
00000241 l       .debug_str	00000000 
00000257 l       .debug_str	00000000 
0000025b l       .debug_str	00000000 
0000025e l       .debug_str	00000000 
00000262 l       .debug_str	00000000 
00000265 l       .debug_str	00000000 
00000267 l       .debug_str	00000000 
00000269 l       .debug_str	00000000 
0000026d l       .debug_str	00000000 
00000295 l       .debug_str	00000000 
000002d0 l       .debug_str	00000000 
000002e1 l       .debug_str	00000000 
000002ee l       .debug_str	00000000 
000002f1 l       .debug_str	00000000 
000002f8 l       .debug_str	00000000 
00000000 l     O .rodata..Lanon.a2440acfecb68d8142ca22995e3b5c85.0	00000017 .Lanon.a2440acfecb68d8142ca22995e3b5c85.0
00000000 l     O .rodata..Lanon.a2440acfecb68d8142ca22995e3b5c85.1	00000001 .Lanon.a2440acfecb68d8142ca22995e3b5c85.1
00000000 l     O .rodata..Lanon.a2440acfecb68d8142ca22995e3b5c85.15	0000000d .Lanon.a2440acfecb68d8142ca22995e3b5c85.15
00000000 l     O .rodata..Lanon.a2440acfecb68d8142ca22995e3b5c85.17	00000003 .Lanon.a2440acfecb68d8142ca22995e3b5c85.17
00000000 l     O .rodata..Lanon.a2440acfecb68d8142ca22995e3b5c85.19	00000005 .Lanon.a2440acfecb68d8142ca22995e3b5c85.19
00000000 l     O .rodata..Lanon.a2440acfecb68d8142ca22995e3b5c85.2	00000001 .Lanon.a2440acfecb68d8142ca22995e3b5c85.2
00000000 l     O .rodata.cst4	00000004 .Lanon.a2440acfecb68d8142ca22995e3b5c85.20
00000004 l     O .rodata.cst4	00000004 .Lanon.a2440acfecb68d8142ca22995e3b5c85.21
00000000 l     O .rodata..Lanon.a2440acfecb68d8142ca22995e3b5c85.22	00000005 .Lanon.a2440acfecb68d8142ca22995e3b5c85.22
00000000 l     O .rodata..Lanon.a2440acfecb68d8142ca22995e3b5c85.3	00000001 .Lanon.a2440acfecb68d8142ca22995e3b5c85.3
00000008 l     O .rodata.cst4	00000004 .Lanon.a2440acfecb68d8142ca22995e3b5c85.31
00000000 l     O .rodata..Lanon.a2440acfecb68d8142ca22995e3b5c85.32	00000007 .Lanon.a2440acfecb68d8142ca22995e3b5c85.32
00000000 l     O .rodata..Lanon.a2440acfecb68d8142ca22995e3b5c85.34	00000006 .Lanon.a2440acfecb68d8142ca22995e3b5c85.34
00000000 l     O .rodata..Lanon.a2440acfecb68d8142ca22995e3b5c85.39	00000048 .Lanon.a2440acfecb68d8142ca22995e3b5c85.39
00000000 l     O .rodata..Lanon.a2440acfecb68d8142ca22995e3b5c85.8	00000007 .Lanon.a2440acfecb68d8142ca22995e3b5c85.8
00000000 l     F .text._ZN3app11app_network16send_sensor_data17h0c4518bef6584411E	000005a2 app::app_network::send_sensor_data
00000000 l    d  .text._ZN3app11app_network21aggregate_sensor_data17hdada6e611eee4c20E	00000000 .text._ZN3app11app_network21aggregate_sensor_data17hdada6e611eee4c20E
00000000 l    d  .text._ZN3app11app_network16send_sensor_data17h0c4518bef6584411E	00000000 .text._ZN3app11app_network16send_sensor_data17h0c4518bef6584411E
00000000 l    d  .debug_abbrev	00000000 .debug_abbrev
00000000 l    d  .debug_info	00000000 .debug_info
00000000 l    d  .debug_ranges	00000000 .debug_ranges
00000000 l    d  .debug_frame	00000000 .debug_frame
00000000 l    d  .debug_line	00000000 .debug_line
00000000 g     F .text._ZN3app11app_network21aggregate_sensor_data17hdada6e611eee4c20E	0000001a .hidden app::app_network::aggregate_sensor_data
00000000         *UND*	00000000 <T as core::convert::From<T>>::from
00000000         *UND*	00000000 mynewt::sys::console::print_strn
00000000         *UND*	00000000 mynewt::sys::console::flush
00000000         *UND*	00000000 mynewt::sys::console::print
00000000         *UND*	00000000 mynewt::sys::console::printint
00000000         *UND*	00000000 mynewt::Strn::new
00000000         *UND*	00000000 mynewt::libs::sensor_network::prepare_post
00000000         *UND*	00000000 mynewt::libs::sensor_network::get_device_id
00000000         *UND*	00000000 mynewt::libs::sensor_network::do_server_post
00000000         *UND*	00000000 mynewt::libs::sensor_network::init_server_post
00000000         *UND*	00000000 mynewt::encoding::coap_context::CoapContext::key_to_cstr
00000000         *UND*	00000000 mynewt::encoding::coap_context::CoapContext::to_void_ptr
00000000         *UND*	00000000 mynewt::encoding::coap_context::CoapContext::value_to_cstr
00000000         *UND*	00000000 mynewt::encoding::coap_context::CoapContext::json_set_geolocation
00000000         *UND*	00000000 mynewt::encoding::coap_context::CoapContext::json_set_text_string
00000000         *UND*	00000000 mynewt::encoding::coap_context::CoapContext::fail
00000000         *UND*	00000000 mynewt::encoding::coap_context::COAP_CONTEXT
00000000         *UND*	00000000 <core::result::Result<T,E> as core::ops::try::Try>::from_error
00000000         *UND*	00000000 <core::result::Result<T,E> as core::ops::try::Try>::into_result
00000000         *UND*	00000000 <core::result::Result<T,E> as core::ops::try::Try>::into_result
00000000         *UND*	00000000 <str as mynewt::encoding::coap_context::ToBytesOptionalNull>::to_bytes_optional_nul
00000000         *UND*	00000000 <mynewt::Strn as mynewt::encoding::coap_context::ToBytesOptionalNull>::to_bytes_optional_nul
00000000         *UND*	00000000 json_helper_close_array
00000000         *UND*	00000000 json_helper_object_array_end_item
00000000         *UND*	00000000 json_helper_object_array_start_item
00000000         *UND*	00000000 json_helper_set_array
00000000         *UND*	00000000 json_helper_set_int
00000000         *UND*	00000000 json_helper_set_text_string
00000000         *UND*	00000000 json_rep_end_root_object
00000000         *UND*	00000000 json_rep_start_root_object



Disassembly of section .text._ZN3app11app_network21aggregate_sensor_data17hdada6e611eee4c20E:

00000000 <app::app_network::aggregate_sensor_data>:
_ZN3app11app_network21aggregate_sensor_data17hdada6e611eee4c20E():
/Users/Luppy/mynewt/stm32bluepill-mynewt-sensor/rust/app/src/app_network.rs:59
        send_sensor_data(&transmit_value)
    }
}

#[cfg(not(feature = "use_float"))]  //  If floating-point and geolocation are disabled, send sensor data without geolocation
pub fn aggregate_sensor_data(sensor_value: &SensorValue) -> MynewtResult<()>  {  //  Returns an error code upon error.
   0:	b580      	push	{r7, lr}
   2:	b084      	sub	sp, #16
   4:	4601      	mov	r1, r0
   6:	9003      	str	r0, [sp, #12]
/Users/Luppy/mynewt/stm32bluepill-mynewt-sensor/rust/app/src/app_network.rs:61
    //  Transmit sensor value without geolocation and return the result
    send_sensor_data(sensor_value)
   8:	9803      	ldr	r0, [sp, #12]
   a:	9102      	str	r1, [sp, #8]
   c:	f7ff fffe 	bl	0 <app::app_network::aggregate_sensor_data>
  10:	9001      	str	r0, [sp, #4]
  12:	e7ff      	b.n	14 <app::app_network::aggregate_sensor_data+0x14>
/Users/Luppy/mynewt/stm32bluepill-mynewt-sensor/rust/app/src/app_network.rs:62
}
  14:	9801      	ldr	r0, [sp, #4]
  16:	b004      	add	sp, #16
  18:	bd80      	pop	{r7, pc}

Disassembly of section .text._ZN3app11app_network16send_sensor_data17h0c4518bef6584411E:

00000000 <app::app_network::send_sensor_data>:
_ZN3app11app_network16send_sensor_data17h0c4518bef6584411E():
/Users/Luppy/mynewt/stm32bluepill-mynewt-sensor/rust/app/src/app_network.rs:75
/// {"values":[
///   {"key":"t",      "value":1715, "geo": { "lat": ..., "long": ... }},
///   {"key":"device", "value":"0102030405060708090a0b0c0d0e0f10"}
/// ]}
/// ```
fn send_sensor_data(val: &SensorValue) -> MynewtResult<()>  {  //  Returns an error code upon error.
   0:	b580      	push	{r7, lr}
   2:	f5ad 7d1c 	sub.w	sp, sp, #624	; 0x270
   6:	4601      	mov	r1, r0
   8:	902b      	str	r0, [sp, #172]	; 0xac
/Users/Luppy/mynewt/stm32bluepill-mynewt-sensor/rust/app/src/app_network.rs:76
    console::print("Rust send_sensor_data: ");
   a:	f240 0000 	movw	r0, #0
   e:	f2c0 0000 	movt	r0, #0
  12:	2217      	movs	r2, #23
  14:	912a      	str	r1, [sp, #168]	; 0xa8
  16:	4611      	mov	r1, r2
  18:	f7ff fffe 	bl	0 <mynewt::sys::console::print>
  1c:	e7ff      	b.n	1e <app::app_network::send_sensor_data+0x1e>
/Users/Luppy/mynewt/stm32bluepill-mynewt-sensor/rust/app/src/app_network.rs:77
    if let SensorValueType::Uint(i) = val.value {
  1e:	982b      	ldr	r0, [sp, #172]	; 0xac
  20:	6840      	ldr	r0, [r0, #4]
  22:	2801      	cmp	r0, #1
  24:	d115      	bne.n	52 <app::app_network::send_sensor_data+0x52>
  26:	e7ff      	b.n	28 <app::app_network::send_sensor_data+0x28>
  28:	982b      	ldr	r0, [sp, #172]	; 0xac
  2a:	6880      	ldr	r0, [r0, #8]
  2c:	902d      	str	r0, [sp, #180]	; 0xb4
/Users/Luppy/mynewt/stm32bluepill-mynewt-sensor/rust/app/src/app_network.rs:78
        console::print_strn(val.key);
  2e:	982b      	ldr	r0, [sp, #172]	; 0xac
  30:	6800      	ldr	r0, [r0, #0]
  32:	f7ff fffe 	bl	0 <mynewt::sys::console::print_strn>
  36:	e7ff      	b.n	2 <app::app_network::send_sensor_data+0x2>
/Users/Luppy/mynewt/stm32bluepill-mynewt-sensor/rust/app/src/app_network.rs:79
        console::print("=");
  38:	f240 0000 	movw	r0, #0
  3c:	f2c0 0000 	movt	r0, #0
  40:	2101      	movs	r1, #1
  42:	f7ff fffe 	bl	0 <mynewt::sys::console::print>
  46:	e7ff      	b.n	48 <app::app_network::send_sensor_data+0x48>
/Users/Luppy/mynewt/stm32bluepill-mynewt-sensor/rust/app/src/app_network.rs:80
        console::printint(i as i32);
  48:	982d      	ldr	r0, [sp, #180]	; 0xb4
  4a:	f7ff fffe 	bl	0 <mynewt::sys::console::printint>
  4e:	e7ff      	b.n	50 <app::app_network::send_sensor_data+0x50>
/Users/Luppy/mynewt/stm32bluepill-mynewt-sensor/rust/app/src/app_network.rs:77
    if let SensorValueType::Uint(i) = val.value {
  50:	e7ff      	b.n	52 <app::app_network::send_sensor_data+0x52>
/Users/Luppy/mynewt/stm32bluepill-mynewt-sensor/rust/app/src/app_network.rs:82
    }
    console::print("\n");
  52:	f240 0000 	movw	r0, #0
  56:	f2c0 0000 	movt	r0, #0
  5a:	2101      	movs	r1, #1
  5c:	f7ff fffe 	bl	0 <mynewt::sys::console::print>
  60:	e7ff      	b.n	2 <mynewt::sys::console::flush+0x2>
/Users/Luppy/mynewt/stm32bluepill-mynewt-sensor/rust/app/src/app_network.rs:83
    console::flush(); ////
  62:	f7ff fffe 	bl	0 <mynewt::sys::console::flush>
  66:	e7ff      	b.n	68 <app::app_network::send_sensor_data+0x68>
  68:	a835      	add	r0, sp, #212	; 0xd4
/Users/Luppy/mynewt/stm32bluepill-mynewt-sensor/rust/app/src/app_network.rs:86

    //  Get a randomly-generated device ID that changes each time we restart the device.
    let device_id = sensor_network::get_device_id() ? ;
  6a:	f7ff fffe 	bl	0 <mynewt::libs::sensor_network::get_device_id>
  6e:	e7ff      	b.n	70 <app::app_network::send_sensor_data+0x70>
  70:	a831      	add	r0, sp, #196	; 0xc4
  72:	a935      	add	r1, sp, #212	; 0xd4
  74:	f7ff fffe 	bl	0 <<core::result::Result<T,E> as core::ops::try::Try>::into_result>
  78:	e7ff      	b.n	7a <app::app_network::send_sensor_data+0x7a>
  7a:	9831      	ldr	r0, [sp, #196]	; 0xc4
  7c:	2800      	cmp	r0, #0
  7e:	9029      	str	r0, [sp, #164]	; 0xa4
  80:	d017      	beq.n	b2 <app::app_network::send_sensor_data+0xb2>
  82:	e7ff      	b.n	84 <app::app_network::send_sensor_data+0x84>
  84:	9829      	ldr	r0, [sp, #164]	; 0xa4
  86:	2801      	cmp	r0, #1
  88:	d001      	beq.n	8e <app::app_network::send_sensor_data+0x8e>
  8a:	e7ff      	b.n	8c <app::app_network::send_sensor_data+0x8c>
/Users/Luppy/mynewt/stm32bluepill-mynewt-sensor/rust/app/src/app_network.rs:121
    console::print("NET view your sensor at \nhttps://blue-pill-geolocate.appspot.com?device=");
    console::print_strn(&device_id); console::print("\n");

    //  The CoAP Background Task will transmit the message in the background.
    Ok(())
}
  8c:	defe      	udf	#254	; 0xfe
/Users/Luppy/mynewt/stm32bluepill-mynewt-sensor/rust/app/src/app_network.rs:86
    let device_id = sensor_network::get_device_id() ? ;
  8e:	9832      	ldr	r0, [sp, #200]	; 0xc8
  90:	9039      	str	r0, [sp, #228]	; 0xe4
  92:	9839      	ldr	r0, [sp, #228]	; 0xe4
  94:	f7ff fffe 	bl	0 <<T as core::convert::From<T>>::from>
  98:	9028      	str	r0, [sp, #160]	; 0xa0
  9a:	e7ff      	b.n	9c <app::app_network::send_sensor_data+0x9c>
  9c:	9828      	ldr	r0, [sp, #160]	; 0xa0
  9e:	f7ff fffe 	bl	0 <<core::result::Result<T,E> as core::ops::try::Try>::from_error>
  a2:	902c      	str	r0, [sp, #176]	; 0xb0
  a4:	e7ff      	b.n	a6 <app::app_network::send_sensor_data+0xa6>
  a6:	e003      	b.n	b0 <app::app_network::send_sensor_data+0xb0>
/Users/Luppy/mynewt/stm32bluepill-mynewt-sensor/rust/app/src/app_network.rs:121
}
  a8:	982c      	ldr	r0, [sp, #176]	; 0xb0
  aa:	f50d 7d1c 	add.w	sp, sp, #624	; 0x270
  ae:	bd80      	pop	{r7, pc}
/Users/Luppy/mynewt/stm32bluepill-mynewt-sensor/rust/app/src/app_network.rs:86
    let device_id = sensor_network::get_device_id() ? ;
  b0:	e7fa      	b.n	a8 <app::app_network::send_sensor_data+0xa8>
  b2:	9832      	ldr	r0, [sp, #200]	; 0xc8
  b4:	9933      	ldr	r1, [sp, #204]	; 0xcc
  b6:	9a34      	ldr	r2, [sp, #208]	; 0xd0
  b8:	923c      	str	r2, [sp, #240]	; 0xf0
  ba:	913b      	str	r1, [sp, #236]	; 0xec
  bc:	903a      	str	r0, [sp, #232]	; 0xe8
  be:	983a      	ldr	r0, [sp, #232]	; 0xe8
  c0:	993b      	ldr	r1, [sp, #236]	; 0xec
  c2:	9a3c      	ldr	r2, [sp, #240]	; 0xf0
  c4:	9230      	str	r2, [sp, #192]	; 0xc0
  c6:	912f      	str	r1, [sp, #188]	; 0xbc
  c8:	902e      	str	r0, [sp, #184]	; 0xb8
/Users/Luppy/mynewt/stm32bluepill-mynewt-sensor/rust/app/src/app_network.rs:91
    let rc = sensor_network::init_server_post( strn!(()) ) ? ;  //  `strn!(())` means use default CoAP URI in `syscfg.yml`
  ca:	f240 0100 	movw	r1, #0
  ce:	f2c0 0100 	movt	r1, #0
  d2:	a842      	add	r0, sp, #264	; 0x108
  d4:	2201      	movs	r2, #1
  d6:	f7ff fffe 	bl	0 <mynewt::Strn::new>
  da:	e7ff      	b.n	dc <app::app_network::send_sensor_data+0xdc>
  dc:	a840      	add	r0, sp, #256	; 0x100
  de:	a942      	add	r1, sp, #264	; 0x108
  e0:	f7ff fffe 	bl	0 <mynewt::libs::sensor_network::init_server_post>
  e4:	e7ff      	b.n	e6 <app::app_network::send_sensor_data+0xe6>
  e6:	a83e      	add	r0, sp, #248	; 0xf8
  e8:	a940      	add	r1, sp, #256	; 0x100
  ea:	f7ff fffe 	bl	0 <<core::result::Result<T,E> as core::ops::try::Try>::into_result>
  ee:	e7ff      	b.n	f0 <app::app_network::send_sensor_data+0xf0>
  f0:	f89d 00f8 	ldrb.w	r0, [sp, #248]	; 0xf8
  f4:	07c1      	lsls	r1, r0, #31
  f6:	2900      	cmp	r1, #0
  f8:	9027      	str	r0, [sp, #156]	; 0x9c
  fa:	d012      	beq.n	122 <app::app_network::send_sensor_data+0x122>
  fc:	e7ff      	b.n	fe <app::app_network::send_sensor_data+0xfe>
  fe:	9827      	ldr	r0, [sp, #156]	; 0x9c
 100:	2801      	cmp	r0, #1
 102:	d1c3      	bne.n	8c <app::app_network::send_sensor_data+0x8c>
 104:	e7ff      	b.n	106 <app::app_network::send_sensor_data+0x106>
 106:	983f      	ldr	r0, [sp, #252]	; 0xfc
 108:	9045      	str	r0, [sp, #276]	; 0x114
 10a:	9845      	ldr	r0, [sp, #276]	; 0x114
 10c:	f7ff fffe 	bl	0 <<T as core::convert::From<T>>::from>
 110:	9026      	str	r0, [sp, #152]	; 0x98
 112:	e7ff      	b.n	114 <app::app_network::send_sensor_data+0x114>
 114:	9826      	ldr	r0, [sp, #152]	; 0x98
 116:	f7ff fffe 	bl	0 <<core::result::Result<T,E> as core::ops::try::Try>::from_error>
 11a:	902c      	str	r0, [sp, #176]	; 0xb0
 11c:	e7ff      	b.n	11e <app::app_network::send_sensor_data+0x11e>
 11e:	e7ff      	b.n	120 <app::app_network::send_sensor_data+0x120>
 120:	e7c6      	b.n	b0 <app::app_network::send_sensor_data+0xb0>
 122:	f89d 00f9 	ldrb.w	r0, [sp, #249]	; 0xf9
 126:	f88d 011b 	strb.w	r0, [sp, #283]	; 0x11b
 12a:	f89d 011b 	ldrb.w	r0, [sp, #283]	; 0x11b
 12e:	f88d 00f7 	strb.w	r0, [sp, #247]	; 0xf7
/Users/Luppy/mynewt/stm32bluepill-mynewt-sensor/rust/app/src/app_network.rs:94
    if !rc { return Err(MynewtError::SYS_EAGAIN); }
 132:	f89d 00f7 	ldrb.w	r0, [sp, #247]	; 0xf7
 136:	07c0      	lsls	r0, r0, #31
 138:	2800      	cmp	r0, #0
 13a:	d106      	bne.n	14a <app::app_network::send_sensor_data+0x14a>
 13c:	e7ff      	b.n	13e <app::app_network::send_sensor_data+0x13e>
 13e:	f06f 0005 	mvn.w	r0, #5
 142:	9047      	str	r0, [sp, #284]	; 0x11c
 144:	9847      	ldr	r0, [sp, #284]	; 0x11c
 146:	902c      	str	r0, [sp, #176]	; 0xb0
 148:	e7ea      	b.n	120 <app::app_network::send_sensor_data+0x120>
 14a:	a84b      	add	r0, sp, #300	; 0x12c
 14c:	2132      	movs	r1, #50	; 0x32
/Users/Luppy/mynewt/stm32bluepill-mynewt-sensor/rust/app/src/app_network.rs:98
    let _payload = coap!( @json {        
 14e:	f7ff fffe 	bl	0 <mynewt::libs::sensor_network::prepare_post>
 152:	e7ff      	b.n	154 <app::app_network::send_sensor_data+0x154>
 154:	a849      	add	r0, sp, #292	; 0x124
 156:	a94b      	add	r1, sp, #300	; 0x12c
 158:	f7ff fffe 	bl	0 <<core::result::Result<T,E> as core::ops::try::Try>::into_result>
 15c:	e7ff      	b.n	15e <app::app_network::send_sensor_data+0x15e>
 15e:	f89d 0124 	ldrb.w	r0, [sp, #292]	; 0x124
 162:	07c1      	lsls	r1, r0, #31
 164:	2900      	cmp	r1, #0
 166:	9025      	str	r0, [sp, #148]	; 0x94
 168:	d013      	beq.n	192 <app::app_network::send_sensor_data+0x192>
 16a:	e7ff      	b.n	16c <app::app_network::send_sensor_data+0x16c>
 16c:	9825      	ldr	r0, [sp, #148]	; 0x94
 16e:	2801      	cmp	r0, #1
 170:	f47f af8c 	bne.w	8c <app::app_network::send_sensor_data+0x8c>
 174:	e7ff      	b.n	176 <app::app_network::send_sensor_data+0x176>
 176:	984a      	ldr	r0, [sp, #296]	; 0x128
 178:	904d      	str	r0, [sp, #308]	; 0x134
 17a:	984d      	ldr	r0, [sp, #308]	; 0x134
 17c:	f7ff fffe 	bl	0 <<T as core::convert::From<T>>::from>
 180:	9024      	str	r0, [sp, #144]	; 0x90
 182:	e7ff      	b.n	184 <app::app_network::send_sensor_data+0x184>
 184:	9824      	ldr	r0, [sp, #144]	; 0x90
 186:	f7ff fffe 	bl	0 <<core::result::Result<T,E> as core::ops::try::Try>::from_error>
 18a:	902c      	str	r0, [sp, #176]	; 0xb0
 18c:	e7ff      	b.n	18e <app::app_network::send_sensor_data+0x18e>
 18e:	e7ff      	b.n	190 <app::app_network::send_sensor_data+0x190>
 190:	e7c6      	b.n	120 <app::app_network::send_sensor_data+0x120>
 192:	f89d 0125 	ldrb.w	r0, [sp, #293]	; 0x125
 196:	f88d 013b 	strb.w	r0, [sp, #315]	; 0x13b
 19a:	f7ff fffe 	bl	0 <json_rep_start_root_object>
 19e:	e7ff      	b.n	2 <app::app_network::send_sensor_data+0x2>
 1a0:	f240 0000 	movw	r0, #0
 1a4:	f2c0 0000 	movt	r0, #0
 1a8:	904f      	str	r0, [sp, #316]	; 0x13c
 1aa:	2007      	movs	r0, #7
 1ac:	9050      	str	r0, [sp, #320]	; 0x140
 1ae:	f240 0000 	movw	r0, #0
 1b2:	f2c0 0000 	movt	r0, #0
 1b6:	f7ff fffe 	bl	0 <mynewt::encoding::coap_context::CoapContext::to_void_ptr>
 1ba:	9023      	str	r0, [sp, #140]	; 0x8c
 1bc:	e7ff      	b.n	1be <app::app_network::send_sensor_data+0x1be>
 1be:	984f      	ldr	r0, [sp, #316]	; 0x13c
 1c0:	9950      	ldr	r1, [sp, #320]	; 0x140
 1c2:	9084      	str	r0, [sp, #528]	; 0x210
 1c4:	9185      	str	r1, [sp, #532]	; 0x214
_ZN4core3str21_$LT$impl$u20$str$GT$8as_bytes17hbca31947ef6ad219E():
/rustc/50a0defd5a93523067ef239936cc2e0755220904/src/libcore/str/mod.rs:2153
 1c6:	9884      	ldr	r0, [sp, #528]	; 0x210
 1c8:	9985      	ldr	r1, [sp, #532]	; 0x214
 1ca:	9086      	str	r0, [sp, #536]	; 0x218
 1cc:	9187      	str	r1, [sp, #540]	; 0x21c
 1ce:	9986      	ldr	r1, [sp, #536]	; 0x218
 1d0:	9a87      	ldr	r2, [sp, #540]	; 0x21c
_ZN3app11app_network16send_sensor_data17h0c4518bef6584411E():
/Users/Luppy/mynewt/stm32bluepill-mynewt-sensor/rust/app/src/app_network.rs:98
 1d2:	9122      	str	r1, [sp, #136]	; 0x88
 1d4:	9221      	str	r2, [sp, #132]	; 0x84
 1d6:	e7ff      	b.n	1d8 <app::app_network::send_sensor_data+0x1d8>
 1d8:	f240 0000 	movw	r0, #0
 1dc:	f2c0 0000 	movt	r0, #0
 1e0:	9922      	ldr	r1, [sp, #136]	; 0x88
 1e2:	9a21      	ldr	r2, [sp, #132]	; 0x84
 1e4:	f7ff fffe 	bl	0 <mynewt::encoding::coap_context::CoapContext::key_to_cstr>
 1e8:	9020      	str	r0, [sp, #128]	; 0x80
 1ea:	e7ff      	b.n	1ec <app::app_network::send_sensor_data+0x1ec>
 1ec:	9823      	ldr	r0, [sp, #140]	; 0x8c
 1ee:	9920      	ldr	r1, [sp, #128]	; 0x80
 1f0:	f7ff fffe 	bl	0 <json_helper_set_array>
 1f4:	e7ff      	b.n	1f6 <app::app_network::send_sensor_data+0x1f6>
 1f6:	982b      	ldr	r0, [sp, #172]	; 0xac
 1f8:	68c1      	ldr	r1, [r0, #12]
 1fa:	6900      	ldr	r0, [r0, #16]
 1fc:	9151      	str	r1, [sp, #324]	; 0x144
 1fe:	9052      	str	r0, [sp, #328]	; 0x148
 200:	982b      	ldr	r0, [sp, #172]	; 0xac
 202:	6840      	ldr	r0, [r0, #4]
 204:	2801      	cmp	r0, #1
 206:	f040 80d9 	bne.w	3bc <app::app_network::send_sensor_data+0x3bc>
 20a:	e7ff      	b.n	20c <app::app_network::send_sensor_data+0x20c>
 20c:	982b      	ldr	r0, [sp, #172]	; 0xac
 20e:	6880      	ldr	r0, [r0, #8]
 210:	9053      	str	r0, [sp, #332]	; 0x14c
 212:	f240 0000 	movw	r0, #0
 216:	f2c0 0000 	movt	r0, #0
 21a:	9054      	str	r0, [sp, #336]	; 0x150
 21c:	200d      	movs	r0, #13
 21e:	9055      	str	r0, [sp, #340]	; 0x154
 220:	9854      	ldr	r0, [sp, #336]	; 0x150
 222:	9955      	ldr	r1, [sp, #340]	; 0x154
 224:	9098      	str	r0, [sp, #608]	; 0x260
 226:	9199      	str	r1, [sp, #612]	; 0x264
_ZN4core3str21_$LT$impl$u20$str$GT$8as_bytes17hbca31947ef6ad219E():
/rustc/50a0defd5a93523067ef239936cc2e0755220904/src/libcore/str/mod.rs:2153
 228:	9898      	ldr	r0, [sp, #608]	; 0x260
 22a:	9999      	ldr	r1, [sp, #612]	; 0x264
 22c:	909a      	str	r0, [sp, #616]	; 0x268
 22e:	919b      	str	r1, [sp, #620]	; 0x26c
 230:	999a      	ldr	r1, [sp, #616]	; 0x268
 232:	9a9b      	ldr	r2, [sp, #620]	; 0x26c
_ZN3app11app_network16send_sensor_data17h0c4518bef6584411E():
/Users/Luppy/mynewt/stm32bluepill-mynewt-sensor/rust/app/src/app_network.rs:98
 234:	911f      	str	r1, [sp, #124]	; 0x7c
 236:	921e      	str	r2, [sp, #120]	; 0x78
 238:	e7ff      	b.n	23a <app::app_network::send_sensor_data+0x23a>
 23a:	f240 0000 	movw	r0, #0
 23e:	f2c0 0000 	movt	r0, #0
 242:	991f      	ldr	r1, [sp, #124]	; 0x7c
 244:	9a1e      	ldr	r2, [sp, #120]	; 0x78
 246:	f7ff fffe 	bl	0 <mynewt::encoding::coap_context::CoapContext::key_to_cstr>
 24a:	901d      	str	r0, [sp, #116]	; 0x74
 24c:	e7ff      	b.n	24e <app::app_network::send_sensor_data+0x24e>
 24e:	981d      	ldr	r0, [sp, #116]	; 0x74
 250:	f7ff fffe 	bl	0 <json_helper_object_array_start_item>
 254:	e7ff      	b.n	2 <app::app_network::send_sensor_data+0x2>
 256:	f240 0000 	movw	r0, #0
 25a:	f2c0 0000 	movt	r0, #0
 25e:	2103      	movs	r1, #3
 260:	f7ff fffe 	bl	0 <<str as mynewt::encoding::coap_context::ToBytesOptionalNull>::to_bytes_optional_nul>
 264:	901c      	str	r0, [sp, #112]	; 0x70
 266:	911b      	str	r1, [sp, #108]	; 0x6c
 268:	e7ff      	b.n	26a <app::app_network::send_sensor_data+0x26a>
 26a:	981c      	ldr	r0, [sp, #112]	; 0x70
 26c:	9056      	str	r0, [sp, #344]	; 0x158
 26e:	991b      	ldr	r1, [sp, #108]	; 0x6c
 270:	9157      	str	r1, [sp, #348]	; 0x15c
 272:	9a2b      	ldr	r2, [sp, #172]	; 0xac
 274:	6810      	ldr	r0, [r2, #0]
 276:	f7ff fffe 	bl	0 <<mynewt::Strn as mynewt::encoding::coap_context::ToBytesOptionalNull>::to_bytes_optional_nul>
 27a:	901a      	str	r0, [sp, #104]	; 0x68
 27c:	9119      	str	r1, [sp, #100]	; 0x64
 27e:	e7ff      	b.n	280 <app::app_network::send_sensor_data+0x280>
 280:	981a      	ldr	r0, [sp, #104]	; 0x68
 282:	9058      	str	r0, [sp, #352]	; 0x160
 284:	9919      	ldr	r1, [sp, #100]	; 0x64
 286:	9159      	str	r1, [sp, #356]	; 0x164
 288:	f240 0000 	movw	r0, #0
 28c:	f2c0 0000 	movt	r0, #0
 290:	f7ff fffe 	bl	0 <mynewt::encoding::coap_context::CoapContext::to_void_ptr>
 294:	9018      	str	r0, [sp, #96]	; 0x60
 296:	e7ff      	b.n	298 <app::app_network::send_sensor_data+0x298>
 298:	9956      	ldr	r1, [sp, #344]	; 0x158
 29a:	9a57      	ldr	r2, [sp, #348]	; 0x15c
 29c:	f240 0000 	movw	r0, #0
 2a0:	f2c0 0000 	movt	r0, #0
 2a4:	f7ff fffe 	bl	0 <mynewt::encoding::coap_context::CoapContext::key_to_cstr>
 2a8:	9017      	str	r0, [sp, #92]	; 0x5c
 2aa:	e7ff      	b.n	2ac <app::app_network::send_sensor_data+0x2ac>
 2ac:	9958      	ldr	r1, [sp, #352]	; 0x160
 2ae:	9a59      	ldr	r2, [sp, #356]	; 0x164
 2b0:	f240 0000 	movw	r0, #0
 2b4:	f2c0 0000 	movt	r0, #0
 2b8:	f7ff fffe 	bl	0 <mynewt::encoding::coap_context::CoapContext::value_to_cstr>
 2bc:	9016      	str	r0, [sp, #88]	; 0x58
 2be:	e7ff      	b.n	2c0 <app::app_network::send_sensor_data+0x2c0>
 2c0:	9818      	ldr	r0, [sp, #96]	; 0x60
 2c2:	9917      	ldr	r1, [sp, #92]	; 0x5c
 2c4:	9a16      	ldr	r2, [sp, #88]	; 0x58
 2c6:	f7ff fffe 	bl	0 <json_helper_set_text_string>
 2ca:	e7ff      	b.n	2 <app::app_network::send_sensor_data+0x2>
 2cc:	f240 0000 	movw	r0, #0
 2d0:	f2c0 0000 	movt	r0, #0
 2d4:	2105      	movs	r1, #5
 2d6:	f7ff fffe 	bl	0 <<str as mynewt::encoding::coap_context::ToBytesOptionalNull>::to_bytes_optional_nul>
 2da:	9015      	str	r0, [sp, #84]	; 0x54
 2dc:	9114      	str	r1, [sp, #80]	; 0x50
 2de:	e7ff      	b.n	2e0 <app::app_network::send_sensor_data+0x2e0>
 2e0:	9815      	ldr	r0, [sp, #84]	; 0x54
 2e2:	905a      	str	r0, [sp, #360]	; 0x168
 2e4:	9914      	ldr	r1, [sp, #80]	; 0x50
 2e6:	915b      	str	r1, [sp, #364]	; 0x16c
 2e8:	9a53      	ldr	r2, [sp, #332]	; 0x14c
 2ea:	2300      	movs	r3, #0
 2ec:	935d      	str	r3, [sp, #372]	; 0x174
 2ee:	925c      	str	r2, [sp, #368]	; 0x170
 2f0:	f240 0000 	movw	r0, #0
 2f4:	f2c0 0000 	movt	r0, #0
 2f8:	f7ff fffe 	bl	0 <mynewt::encoding::coap_context::CoapContext::to_void_ptr>
 2fc:	9013      	str	r0, [sp, #76]	; 0x4c
 2fe:	e7ff      	b.n	300 <app::app_network::send_sensor_data+0x300>
 300:	995a      	ldr	r1, [sp, #360]	; 0x168
 302:	9a5b      	ldr	r2, [sp, #364]	; 0x16c
 304:	f240 0000 	movw	r0, #0
 308:	f2c0 0000 	movt	r0, #0
 30c:	f7ff fffe 	bl	0 <mynewt::encoding::coap_context::CoapContext::key_to_cstr>
 310:	9012      	str	r0, [sp, #72]	; 0x48
 312:	e7ff      	b.n	314 <app::app_network::send_sensor_data+0x314>
 314:	9a5c      	ldr	r2, [sp, #368]	; 0x170
 316:	9b5d      	ldr	r3, [sp, #372]	; 0x174
 318:	9813      	ldr	r0, [sp, #76]	; 0x4c
 31a:	9912      	ldr	r1, [sp, #72]	; 0x48
 31c:	f7ff fffe 	bl	0 <json_helper_set_int>
 320:	e7ff      	b.n	2 <app::app_network::send_sensor_data+0x2>
 322:	f240 0100 	movw	r1, #0
 326:	f2c0 0100 	movt	r1, #0
 32a:	a85e      	add	r0, sp, #376	; 0x178
 32c:	2204      	movs	r2, #4
 32e:	f7ff fffe 	bl	0 <mynewt::Strn::new>
 332:	e7ff      	b.n	6 <app::app_network::send_sensor_data+0x6>
 334:	f240 0100 	movw	r1, #0
 338:	f2c0 0100 	movt	r1, #0
 33c:	a861      	add	r0, sp, #388	; 0x184
 33e:	2204      	movs	r2, #4
 340:	f7ff fffe 	bl	0 <mynewt::Strn::new>
 344:	e7ff      	b.n	2 <app::app_network::send_sensor_data+0x2>
 346:	f240 0100 	movw	r1, #0
 34a:	f2c0 0100 	movt	r1, #0
 34e:	a864      	add	r0, sp, #400	; 0x190
 350:	2205      	movs	r2, #5
 352:	f7ff fffe 	bl	0 <mynewt::Strn::new>
 356:	e7ff      	b.n	358 <app::app_network::send_sensor_data+0x358>
 358:	9851      	ldr	r0, [sp, #324]	; 0x144
 35a:	9952      	ldr	r1, [sp, #328]	; 0x148
 35c:	466a      	mov	r2, sp
 35e:	6051      	str	r1, [r2, #4]
 360:	6010      	str	r0, [r2, #0]
 362:	f240 0000 	movw	r0, #0
 366:	f2c0 0000 	movt	r0, #0
 36a:	a95e      	add	r1, sp, #376	; 0x178
 36c:	aa61      	add	r2, sp, #388	; 0x184
 36e:	ab64      	add	r3, sp, #400	; 0x190
 370:	f7ff fffe 	bl	0 <mynewt::encoding::coap_context::CoapContext::json_set_geolocation>
 374:	e7ff      	b.n	2 <app::app_network::send_sensor_data+0x2>
 376:	f240 0000 	movw	r0, #0
 37a:	f2c0 0000 	movt	r0, #0
 37e:	9067      	str	r0, [sp, #412]	; 0x19c
 380:	200d      	movs	r0, #13
 382:	9068      	str	r0, [sp, #416]	; 0x1a0
 384:	9867      	ldr	r0, [sp, #412]	; 0x19c
 386:	9968      	ldr	r1, [sp, #416]	; 0x1a0
 388:	9094      	str	r0, [sp, #592]	; 0x250
 38a:	9195      	str	r1, [sp, #596]	; 0x254
_ZN4core3str21_$LT$impl$u20$str$GT$8as_bytes17hbca31947ef6ad219E():
/rustc/50a0defd5a93523067ef239936cc2e0755220904/src/libcore/str/mod.rs:2153
 38c:	9894      	ldr	r0, [sp, #592]	; 0x250
 38e:	9995      	ldr	r1, [sp, #596]	; 0x254
 390:	9096      	str	r0, [sp, #600]	; 0x258
 392:	9197      	str	r1, [sp, #604]	; 0x25c
 394:	9996      	ldr	r1, [sp, #600]	; 0x258
 396:	9a97      	ldr	r2, [sp, #604]	; 0x25c
_ZN3app11app_network16send_sensor_data17h0c4518bef6584411E():
/Users/Luppy/mynewt/stm32bluepill-mynewt-sensor/rust/app/src/app_network.rs:98
 398:	9111      	str	r1, [sp, #68]	; 0x44
 39a:	9210      	str	r2, [sp, #64]	; 0x40
 39c:	e7ff      	b.n	39e <app::app_network::send_sensor_data+0x39e>
 39e:	f240 0000 	movw	r0, #0
 3a2:	f2c0 0000 	movt	r0, #0
 3a6:	9911      	ldr	r1, [sp, #68]	; 0x44
 3a8:	9a10      	ldr	r2, [sp, #64]	; 0x40
 3aa:	f7ff fffe 	bl	0 <mynewt::encoding::coap_context::CoapContext::key_to_cstr>
 3ae:	900f      	str	r0, [sp, #60]	; 0x3c
 3b0:	e7ff      	b.n	3b2 <app::app_network::send_sensor_data+0x3b2>
 3b2:	980f      	ldr	r0, [sp, #60]	; 0x3c
 3b4:	f7ff fffe 	bl	0 <json_helper_object_array_end_item>
 3b8:	e7ff      	b.n	3ba <app::app_network::send_sensor_data+0x3ba>
 3ba:	e00c      	b.n	3d6 <app::app_network::send_sensor_data+0x3d6>
 3bc:	2001      	movs	r0, #1
 3be:	f88d 01a7 	strb.w	r0, [sp, #423]	; 0x1a7
 3c2:	f89d 11a7 	ldrb.w	r1, [sp, #423]	; 0x1a7
 3c6:	f240 0000 	movw	r0, #0
 3ca:	f2c0 0000 	movt	r0, #0
 3ce:	f7ff fffe 	bl	0 <mynewt::encoding::coap_context::CoapContext::fail>
 3d2:	e7ff      	b.n	3d4 <app::app_network::send_sensor_data+0x3d4>
 3d4:	e7ff      	b.n	3d6 <app::app_network::send_sensor_data+0x3d6>
 3d6:	f240 0000 	movw	r0, #0
 3da:	f2c0 0000 	movt	r0, #0
 3de:	906a      	str	r0, [sp, #424]	; 0x1a8
 3e0:	200d      	movs	r0, #13
 3e2:	906b      	str	r0, [sp, #428]	; 0x1ac
 3e4:	986a      	ldr	r0, [sp, #424]	; 0x1a8
 3e6:	996b      	ldr	r1, [sp, #428]	; 0x1ac
 3e8:	9090      	str	r0, [sp, #576]	; 0x240
 3ea:	9191      	str	r1, [sp, #580]	; 0x244
_ZN4core3str21_$LT$impl$u20$str$GT$8as_bytes17hbca31947ef6ad219E():
/rustc/50a0defd5a93523067ef239936cc2e0755220904/src/libcore/str/mod.rs:2153
 3ec:	9890      	ldr	r0, [sp, #576]	; 0x240
 3ee:	9991      	ldr	r1, [sp, #580]	; 0x244
 3f0:	9092      	str	r0, [sp, #584]	; 0x248
 3f2:	9193      	str	r1, [sp, #588]	; 0x24c
 3f4:	9992      	ldr	r1, [sp, #584]	; 0x248
 3f6:	9a93      	ldr	r2, [sp, #588]	; 0x24c
_ZN3app11app_network16send_sensor_data17h0c4518bef6584411E():
/Users/Luppy/mynewt/stm32bluepill-mynewt-sensor/rust/app/src/app_network.rs:98
 3f8:	910e      	str	r1, [sp, #56]	; 0x38
 3fa:	920d      	str	r2, [sp, #52]	; 0x34
 3fc:	e7ff      	b.n	3fe <app::app_network::send_sensor_data+0x3fe>
 3fe:	f240 0000 	movw	r0, #0
 402:	f2c0 0000 	movt	r0, #0
 406:	990e      	ldr	r1, [sp, #56]	; 0x38
 408:	9a0d      	ldr	r2, [sp, #52]	; 0x34
 40a:	f7ff fffe 	bl	0 <mynewt::encoding::coap_context::CoapContext::key_to_cstr>
 40e:	900c      	str	r0, [sp, #48]	; 0x30
 410:	e7ff      	b.n	412 <app::app_network::send_sensor_data+0x412>
 412:	980c      	ldr	r0, [sp, #48]	; 0x30
 414:	f7ff fffe 	bl	0 <json_helper_object_array_start_item>
 418:	e7ff      	b.n	a <app::app_network::send_sensor_data+0xa>
 41a:	f240 0100 	movw	r1, #0
 41e:	f2c0 0100 	movt	r1, #0
 422:	a86d      	add	r0, sp, #436	; 0x1b4
 424:	2204      	movs	r2, #4
 426:	f7ff fffe 	bl	0 <mynewt::Strn::new>
 42a:	e7ff      	b.n	42c <app::app_network::send_sensor_data+0x42c>
 42c:	a86d      	add	r0, sp, #436	; 0x1b4
 42e:	906c      	str	r0, [sp, #432]	; 0x1b0
 430:	f240 0100 	movw	r1, #0
 434:	f2c0 0100 	movt	r1, #0
 438:	a871      	add	r0, sp, #452	; 0x1c4
 43a:	2207      	movs	r2, #7
 43c:	f7ff fffe 	bl	0 <mynewt::Strn::new>
 440:	e7ff      	b.n	442 <app::app_network::send_sensor_data+0x442>
 442:	a871      	add	r0, sp, #452	; 0x1c4
 444:	9070      	str	r0, [sp, #448]	; 0x1c0
 446:	996c      	ldr	r1, [sp, #432]	; 0x1b0
 448:	9a70      	ldr	r2, [sp, #448]	; 0x1c0
 44a:	f240 0000 	movw	r0, #0
 44e:	f2c0 0000 	movt	r0, #0
 452:	f7ff fffe 	bl	0 <mynewt::encoding::coap_context::CoapContext::json_set_text_string>
 456:	e7ff      	b.n	2 <app::app_network::send_sensor_data+0x2>
 458:	f240 0100 	movw	r1, #0
 45c:	f2c0 0100 	movt	r1, #0
 460:	a875      	add	r0, sp, #468	; 0x1d4
 462:	2206      	movs	r2, #6
 464:	f7ff fffe 	bl	0 <mynewt::Strn::new>
 468:	e7ff      	b.n	46a <app::app_network::send_sensor_data+0x46a>
 46a:	a875      	add	r0, sp, #468	; 0x1d4
 46c:	9074      	str	r0, [sp, #464]	; 0x1d0
 46e:	a82e      	add	r0, sp, #184	; 0xb8
/Users/Luppy/mynewt/stm32bluepill-mynewt-sensor/rust/app/src/app_network.rs:107
        "device": &device_id,
 470:	9078      	str	r0, [sp, #480]	; 0x1e0
/Users/Luppy/mynewt/stm32bluepill-mynewt-sensor/rust/app/src/app_network.rs:98
    let _payload = coap!( @json {        
 472:	9974      	ldr	r1, [sp, #464]	; 0x1d0
 474:	9a78      	ldr	r2, [sp, #480]	; 0x1e0
 476:	f240 0000 	movw	r0, #0
 47a:	f2c0 0000 	movt	r0, #0
 47e:	f7ff fffe 	bl	0 <mynewt::encoding::coap_context::CoapContext::json_set_text_string>
 482:	e7ff      	b.n	2 <app::app_network::send_sensor_data+0x2>
 484:	f240 0000 	movw	r0, #0
 488:	f2c0 0000 	movt	r0, #0
 48c:	9079      	str	r0, [sp, #484]	; 0x1e4
 48e:	200d      	movs	r0, #13
 490:	907a      	str	r0, [sp, #488]	; 0x1e8
 492:	9879      	ldr	r0, [sp, #484]	; 0x1e4
 494:	997a      	ldr	r1, [sp, #488]	; 0x1e8
 496:	908c      	str	r0, [sp, #560]	; 0x230
 498:	918d      	str	r1, [sp, #564]	; 0x234
_ZN4core3str21_$LT$impl$u20$str$GT$8as_bytes17hbca31947ef6ad219E():
/rustc/50a0defd5a93523067ef239936cc2e0755220904/src/libcore/str/mod.rs:2153
 49a:	988c      	ldr	r0, [sp, #560]	; 0x230
 49c:	998d      	ldr	r1, [sp, #564]	; 0x234
 49e:	908e      	str	r0, [sp, #568]	; 0x238
 4a0:	918f      	str	r1, [sp, #572]	; 0x23c
 4a2:	998e      	ldr	r1, [sp, #568]	; 0x238
 4a4:	9a8f      	ldr	r2, [sp, #572]	; 0x23c
_ZN3app11app_network16send_sensor_data17h0c4518bef6584411E():
/Users/Luppy/mynewt/stm32bluepill-mynewt-sensor/rust/app/src/app_network.rs:98
 4a6:	910b      	str	r1, [sp, #44]	; 0x2c
 4a8:	920a      	str	r2, [sp, #40]	; 0x28
 4aa:	e7ff      	b.n	4ac <app::app_network::send_sensor_data+0x4ac>
 4ac:	f240 0000 	movw	r0, #0
 4b0:	f2c0 0000 	movt	r0, #0
 4b4:	990b      	ldr	r1, [sp, #44]	; 0x2c
 4b6:	9a0a      	ldr	r2, [sp, #40]	; 0x28
 4b8:	f7ff fffe 	bl	0 <mynewt::encoding::coap_context::CoapContext::key_to_cstr>
 4bc:	9009      	str	r0, [sp, #36]	; 0x24
 4be:	e7ff      	b.n	4c0 <app::app_network::send_sensor_data+0x4c0>
 4c0:	9809      	ldr	r0, [sp, #36]	; 0x24
 4c2:	f7ff fffe 	bl	0 <json_helper_object_array_end_item>
 4c6:	e7ff      	b.n	2 <app::app_network::send_sensor_data+0x2>
 4c8:	f240 0000 	movw	r0, #0
 4cc:	f2c0 0000 	movt	r0, #0
 4d0:	907b      	str	r0, [sp, #492]	; 0x1ec
 4d2:	2007      	movs	r0, #7
 4d4:	907c      	str	r0, [sp, #496]	; 0x1f0
 4d6:	f240 0000 	movw	r0, #0
 4da:	f2c0 0000 	movt	r0, #0
 4de:	f7ff fffe 	bl	0 <mynewt::encoding::coap_context::CoapContext::to_void_ptr>
 4e2:	9008      	str	r0, [sp, #32]
 4e4:	e7ff      	b.n	4e6 <app::app_network::send_sensor_data+0x4e6>
 4e6:	987b      	ldr	r0, [sp, #492]	; 0x1ec
 4e8:	997c      	ldr	r1, [sp, #496]	; 0x1f0
 4ea:	9088      	str	r0, [sp, #544]	; 0x220
 4ec:	9189      	str	r1, [sp, #548]	; 0x224
_ZN4core3str21_$LT$impl$u20$str$GT$8as_bytes17hbca31947ef6ad219E():
/rustc/50a0defd5a93523067ef239936cc2e0755220904/src/libcore/str/mod.rs:2153
 4ee:	9888      	ldr	r0, [sp, #544]	; 0x220
 4f0:	9989      	ldr	r1, [sp, #548]	; 0x224
 4f2:	908a      	str	r0, [sp, #552]	; 0x228
 4f4:	918b      	str	r1, [sp, #556]	; 0x22c
 4f6:	998a      	ldr	r1, [sp, #552]	; 0x228
 4f8:	9a8b      	ldr	r2, [sp, #556]	; 0x22c
_ZN3app11app_network16send_sensor_data17h0c4518bef6584411E():
/Users/Luppy/mynewt/stm32bluepill-mynewt-sensor/rust/app/src/app_network.rs:98
 4fa:	9107      	str	r1, [sp, #28]
 4fc:	9206      	str	r2, [sp, #24]
 4fe:	e7ff      	b.n	500 <app::app_network::send_sensor_data+0x500>
 500:	f240 0000 	movw	r0, #0
 504:	f2c0 0000 	movt	r0, #0
 508:	9907      	ldr	r1, [sp, #28]
 50a:	9a06      	ldr	r2, [sp, #24]
 50c:	f7ff fffe 	bl	0 <mynewt::encoding::coap_context::CoapContext::key_to_cstr>
 510:	9005      	str	r0, [sp, #20]
 512:	e7ff      	b.n	514 <app::app_network::send_sensor_data+0x514>
 514:	9808      	ldr	r0, [sp, #32]
 516:	9905      	ldr	r1, [sp, #20]
 518:	f7ff fffe 	bl	0 <json_helper_close_array>
 51c:	e7ff      	b.n	2 <json_rep_end_root_object+0x2>
 51e:	f7ff fffe 	bl	0 <json_rep_end_root_object>
 522:	e7ff      	b.n	524 <app::app_network::send_sensor_data+0x524>
 524:	a87f      	add	r0, sp, #508	; 0x1fc
/Users/Luppy/mynewt/stm32bluepill-mynewt-sensor/rust/app/src/app_network.rs:113
    sensor_network::do_server_post() ? ;
 526:	f7ff fffe 	bl	0 <mynewt::libs::sensor_network::do_server_post>
 52a:	e7ff      	b.n	52c <app::app_network::send_sensor_data+0x52c>
 52c:	a87d      	add	r0, sp, #500	; 0x1f4
 52e:	a97f      	add	r1, sp, #508	; 0x1fc
 530:	f7ff fffe 	bl	0 <<core::result::Result<T,E> as core::ops::try::Try>::into_result>
 534:	e7ff      	b.n	536 <app::app_network::send_sensor_data+0x536>
 536:	f89d 01f4 	ldrb.w	r0, [sp, #500]	; 0x1f4
 53a:	07c1      	lsls	r1, r0, #31
 53c:	2900      	cmp	r1, #0
 53e:	9004      	str	r0, [sp, #16]
 540:	d012      	beq.n	568 <app::app_network::send_sensor_data+0x568>
 542:	e7ff      	b.n	544 <app::app_network::send_sensor_data+0x544>
 544:	9804      	ldr	r0, [sp, #16]
 546:	2801      	cmp	r0, #1
 548:	f47f ada0 	bne.w	8c <app::app_network::send_sensor_data+0x8c>
 54c:	e7ff      	b.n	54e <app::app_network::send_sensor_data+0x54e>
 54e:	987e      	ldr	r0, [sp, #504]	; 0x1f8
 550:	9081      	str	r0, [sp, #516]	; 0x204
 552:	9881      	ldr	r0, [sp, #516]	; 0x204
 554:	f7ff fffe 	bl	0 <<T as core::convert::From<T>>::from>
 558:	9003      	str	r0, [sp, #12]
 55a:	e7ff      	b.n	55c <app::app_network::send_sensor_data+0x55c>
 55c:	9803      	ldr	r0, [sp, #12]
 55e:	f7ff fffe 	bl	0 <<core::result::Result<T,E> as core::ops::try::Try>::from_error>
 562:	902c      	str	r0, [sp, #176]	; 0xb0
 564:	e7ff      	b.n	566 <app::app_network::send_sensor_data+0x566>
 566:	e613      	b.n	190 <app::app_network::send_sensor_data+0x190>
 568:	f89d 01f5 	ldrb.w	r0, [sp, #501]	; 0x1f5
 56c:	f88d 020b 	strb.w	r0, [sp, #523]	; 0x20b
/Users/Luppy/mynewt/stm32bluepill-mynewt-sensor/rust/app/src/app_network.rs:116
    console::print("NET view your sensor at \nhttps://blue-pill-geolocate.appspot.com?device=");
 570:	f240 0000 	movw	r0, #0
 574:	f2c0 0000 	movt	r0, #0
 578:	2148      	movs	r1, #72	; 0x48
 57a:	f7ff fffe 	bl	0 <mynewt::sys::console::print>
 57e:	e7ff      	b.n	580 <app::app_network::send_sensor_data+0x580>
 580:	a82e      	add	r0, sp, #184	; 0xb8
/Users/Luppy/mynewt/stm32bluepill-mynewt-sensor/rust/app/src/app_network.rs:117
    console::print_strn(&device_id); console::print("\n");
 582:	f7ff fffe 	bl	0 <mynewt::sys::console::print_strn>
 586:	e7ff      	b.n	2 <app::app_network::send_sensor_data+0x2>
 588:	f240 0000 	movw	r0, #0
 58c:	f2c0 0000 	movt	r0, #0
 590:	2101      	movs	r1, #1
 592:	f7ff fffe 	bl	0 <mynewt::sys::console::print>
 596:	e7ff      	b.n	598 <app::app_network::send_sensor_data+0x598>
 598:	2000      	movs	r0, #0
/Users/Luppy/mynewt/stm32bluepill-mynewt-sensor/rust/app/src/app_network.rs:120
    Ok(())
 59a:	902c      	str	r0, [sp, #176]	; 0xb0
 59c:	2001      	movs	r0, #1
 59e:	902c      	str	r0, [sp, #176]	; 0xb0
/Users/Luppy/mynewt/stm32bluepill-mynewt-sensor/rust/app/src/app_network.rs:121
}
 5a0:	e582      	b.n	a8 <app::app_network::send_sensor_data+0xa8>

app-e8778d9de5b9c761.q3r0ovd390knhs6.rcgu.o:     file format elf32-littlearm

SYMBOL TABLE:
00000000 l    df *ABS*	00000000 q3r0ovd390knhs6
00001fc4 l       .debug_str	00000000 
0000207c l       .debug_str	00000000 
00002084 l       .debug_str	00000000 
0000208c l       .debug_str	00000000 
000020a0 l       .debug_str	00000000 
000020ac l       .debug_str	00000000 
000020b8 l       .debug_str	00000000 
000020d1 l       .debug_str	00000000 
000020d6 l       .debug_str	00000000 
000020e7 l       .debug_str	00000000 
000020f1 l       .debug_str	00000000 
000020ff l       .debug_str	00000000 
00002103 l       .debug_str	00000000 
0000210e l       .debug_str	00000000 
00002115 l       .debug_str	00000000 
0000211b l       .debug_str	00000000 
0000211f l       .debug_str	00000000 
00002123 l       .debug_str	00000000 
0000213a l       .debug_str	00000000 
0000215e l       .debug_str	00000000 
0000217a l       .debug_str	00000000 
00002184 l       .debug_str	00000000 
0000219e l       .debug_str	00000000 
000021fc l       .debug_str	00000000 
00002207 l       .debug_str	00000000 
00002224 l       .debug_str	00000000 
0000223d l       .debug_str	00000000 
00002247 l       .debug_str	00000000 
00002343 l       .debug_str	00000000 
00002345 l       .debug_str	00000000 
00002347 l       .debug_str	00000000 
0000234f l       .debug_str	00000000 
00002442 l       .debug_str	00000000 
00002446 l       .debug_str	00000000 
0000244b l       .debug_str	00000000 
00000000 l       .debug_str	00000000 
00000041 l       .debug_str	00000000 
00000055 l       .debug_str	00000000 
00000085 l       .debug_str	00000000 
0000008c l       .debug_str	00000000 
00000095 l       .debug_str	00000000 
0000009c l       .debug_str	00000000 
000000a0 l       .debug_str	00000000 
000000a2 l       .debug_str	00000000 
000000a6 l       .debug_str	00000000 
000000ad l       .debug_str	00000000 
000000b2 l       .debug_str	00000000 
000000b6 l       .debug_str	00000000 
000000bd l       .debug_str	00000000 
000000c0 l       .debug_str	00000000 
000000c6 l       .debug_str	00000000 
000000d4 l       .debug_str	00000000 
000000d9 l       .debug_str	00000000 
000000e1 l       .debug_str	00000000 
000000e9 l       .debug_str	00000000 
000000ec l       .debug_str	00000000 
000000ee l       .debug_str	00000000 
000000f0 l       .debug_str	00000000 
0000010c l       .debug_str	00000000 
00000114 l       .debug_str	00000000 
0000011b l       .debug_str	00000000 
0000012b l       .debug_str	00000000 
00000170 l       .debug_str	00000000 
000001dd l       .debug_str	00000000 
00000273 l       .debug_str	00000000 
00000332 l       .debug_str	00000000 
0000033a l       .debug_str	00000000 
0000033f l       .debug_str	00000000 
00000345 l       .debug_str	00000000 
00000349 l       .debug_str	00000000 
0000034d l       .debug_str	00000000 
00000350 l       .debug_str	00000000 
00000379 l       .debug_str	00000000 
000003af l       .debug_str	00000000 
000003b1 l       .debug_str	00000000 
000003de l       .debug_str	00000000 
000003e1 l       .debug_str	00000000 
00000431 l       .debug_str	00000000 
0000048e l       .debug_str	00000000 
000004e2 l       .debug_str	00000000 
00000559 l       .debug_str	00000000 
000005dd l       .debug_str	00000000 
00000658 l       .debug_str	00000000 
000006f6 l       .debug_str	00000000 
000007a1 l       .debug_str	00000000 
00000843 l       .debug_str	00000000 
00000908 l       .debug_str	00000000 
000009da l       .debug_str	00000000 
00000aa3 l       .debug_str	00000000 
00000b8d l       .debug_str	00000000 
00000c94 l       .debug_str	00000000 
00000d9a l       .debug_str	00000000 
00000d9e l       .debug_str	00000000 
00000da4 l       .debug_str	00000000 
00000da6 l       .debug_str	00000000 
00000ea4 l       .debug_str	00000000 
00000fa5 l       .debug_str	00000000 
00000fa7 l       .debug_str	00000000 
00001087 l       .debug_str	00000000 
0000117e l       .debug_str	00000000 
00001185 l       .debug_str	00000000 
00001188 l       .debug_str	00000000 
0000118c l       .debug_str	00000000 
00001193 l       .debug_str	00000000 
00001197 l       .debug_str	00000000 
0000119a l       .debug_str	00000000 
0000119d l       .debug_str	00000000 
000011a2 l       .debug_str	00000000 
000011a8 l       .debug_str	00000000 
000011af l       .debug_str	00000000 
000011b7 l       .debug_str	00000000 
000011c1 l       .debug_str	00000000 
000011c7 l       .debug_str	00000000 
000011d0 l       .debug_str	00000000 
000011db l       .debug_str	00000000 
000011e5 l       .debug_str	00000000 
000011e9 l       .debug_str	00000000 
0000122a l       .debug_str	00000000 
00001233 l       .debug_str	00000000 
0000123c l       .debug_str	00000000 
00001246 l       .debug_str	00000000 
0000124d l       .debug_str	00000000 
00001253 l       .debug_str	00000000 
00001258 l       .debug_str	00000000 
0000125d l       .debug_str	00000000 
00001262 l       .debug_str	00000000 
00001267 l       .debug_str	00000000 
00001298 l       .debug_str	00000000 
00001395 l       .debug_str	00000000 
00001397 l       .debug_str	00000000 
000013ef l       .debug_str	00000000 
000014ed l       .debug_str	00000000 
00001543 l       .debug_str	00000000 
00001599 l       .debug_str	00000000 
00001696 l       .debug_str	00000000 
00001702 l       .debug_str	00000000 
000017e6 l       .debug_str	00000000 
00001870 l       .debug_str	00000000 
00001955 l       .debug_str	00000000 
0000195b l       .debug_str	00000000 
000019c5 l       .debug_str	00000000 
00001aa8 l       .debug_str	00000000 
00001b30 l       .debug_str	00000000 
00001b98 l       .debug_str	00000000 
00001c77 l       .debug_str	00000000 
00001cea l       .debug_str	00000000 
00001dc8 l       .debug_str	00000000 
00001e06 l       .debug_str	00000000 
00001ee4 l       .debug_str	00000000 
00001f40 l       .debug_str	00000000 
00001f45 l       .debug_str	00000000 
00001f4c l       .debug_str	00000000 
00001f58 l       .debug_str	00000000 
00001f60 l       .debug_str	00000000 
00001f67 l       .debug_str	00000000 
00001f6b l       .debug_str	00000000 
00001f70 l       .debug_str	00000000 
00001f79 l       .debug_str	00000000 
00001f7e l       .debug_str	00000000 
00001f81 l       .debug_str	00000000 
00001f8a l       .debug_str	00000000 
00001f91 l       .debug_str	00000000 
00001f96 l       .debug_str	00000000 
00001f9b l       .debug_str	00000000 
00001fa1 l       .debug_str	00000000 
00001fa7 l       .debug_str	00000000 
00001fb1 l       .debug_str	00000000 
00001fb4 l       .debug_str	00000000 
00001fba l       .debug_str	00000000 
00001fcc l       .debug_str	00000000 
00001fd2 l       .debug_str	00000000 
00001fd8 l       .debug_str	00000000 
00001fe3 l       .debug_str	00000000 
00001fec l       .debug_str	00000000 
0000200f l       .debug_str	00000000 
0000202e l       .debug_str	00000000 
00002033 l       .debug_str	00000000 
0000205a l       .debug_str	00000000 
00002060 l       .debug_str	00000000 
0000206f l       .debug_str	00000000 
00002073 l       .debug_str	00000000 
00000000 l     O .rodata..Lanon.8c2065eb472c726b22a378e8c16404cc.0	00000018 .Lanon.8c2065eb472c726b22a378e8c16404cc.0
00000000 l     O .rodata..Lanon.8c2065eb472c726b22a378e8c16404cc.2	00000008 .Lanon.8c2065eb472c726b22a378e8c16404cc.2
00000000 l    d  .text._ZN4core3fmt5Write9write_fmt17hcf9098e655e27e3dE	00000000 .text._ZN4core3fmt5Write9write_fmt17hcf9098e655e27e3dE
00000000 l    d  .text._ZN50_$LT$$RF$mut$u20$W$u20$as$u20$core..fmt..Write$GT$10write_char17hce87fd846bb8b21bE	00000000 .text._ZN50_$LT$$RF$mut$u20$W$u20$as$u20$core..fmt..Write$GT$10write_char17hce87fd846bb8b21bE
00000000 l    d  .text._ZN50_$LT$$RF$mut$u20$W$u20$as$u20$core..fmt..Write$GT$9write_fmt17ha9e8326ccf863428E	00000000 .text._ZN50_$LT$$RF$mut$u20$W$u20$as$u20$core..fmt..Write$GT$9write_fmt17ha9e8326ccf863428E
00000000 l    d  .text._ZN50_$LT$$RF$mut$u20$W$u20$as$u20$core..fmt..Write$GT$9write_str17hdf43caedb8139834E	00000000 .text._ZN50_$LT$$RF$mut$u20$W$u20$as$u20$core..fmt..Write$GT$9write_str17hdf43caedb8139834E
00000000 l    d  .text._ZN70_$LT$heapless..string..String$LT$N$GT$$u20$as$u20$core..fmt..Write$GT$10write_char17hc9e24d8a5619e189E	00000000 .text._ZN70_$LT$heapless..string..String$LT$N$GT$$u20$as$u20$core..fmt..Write$GT$10write_char17hc9e24d8a5619e189E
00000000 l    d  .text._ZN70_$LT$heapless..string..String$LT$N$GT$$u20$as$u20$core..fmt..Write$GT$10write_char28_$u7b$$u7b$closure$u7d$$u7d$17h849c6e88e24a628eE	00000000 .text._ZN70_$LT$heapless..string..String$LT$N$GT$$u20$as$u20$core..fmt..Write$GT$10write_char28_$u7b$$u7b$closure$u7d$$u7d$17h849c6e88e24a628eE
00000000 l    d  .text._ZN70_$LT$heapless..string..String$LT$N$GT$$u20$as$u20$core..fmt..Write$GT$9write_str17h9a0a4c3ff0db3b55E	00000000 .text._ZN70_$LT$heapless..string..String$LT$N$GT$$u20$as$u20$core..fmt..Write$GT$9write_str17h9a0a4c3ff0db3b55E
00000000 l    d  .text._ZN70_$LT$heapless..string..String$LT$N$GT$$u20$as$u20$core..fmt..Write$GT$9write_str28_$u7b$$u7b$closure$u7d$$u7d$17ha166d6f7e5de18d8E	00000000 .text._ZN70_$LT$heapless..string..String$LT$N$GT$$u20$as$u20$core..fmt..Write$GT$9write_str28_$u7b$$u7b$closure$u7d$$u7d$17ha166d6f7e5de18d8E
00000000 l    d  .text._ZN72_$LT$heapless..string..String$LT$N$GT$$u20$as$u20$core..clone..Clone$GT$5clone17ha6598099d63c46aaE	00000000 .text._ZN72_$LT$heapless..string..String$LT$N$GT$$u20$as$u20$core..clone..Clone$GT$5clone17ha6598099d63c46aaE
00000000 l    d  .text._ZN84_$LT$heapless..string..String$LT$N$GT$$u20$as$u20$core..convert..From$LT$u32$GT$$GT$4from17hc126ed3975eefd87E	00000000 .text._ZN84_$LT$heapless..string..String$LT$N$GT$$u20$as$u20$core..convert..From$LT$u32$GT$$GT$4from17hc126ed3975eefd87E
00000000 l    d  .text._ZN8heapless6string15String$LT$N$GT$4push17h5d32b0d0131a4689E	00000000 .text._ZN8heapless6string15String$LT$N$GT$4push17h5d32b0d0131a4689E
00000000 l    d  .text._ZN8heapless6string15String$LT$N$GT$4push28_$u7b$$u7b$closure$u7d$$u7d$17h9db4833d42431a72E	00000000 .text._ZN8heapless6string15String$LT$N$GT$4push28_$u7b$$u7b$closure$u7d$$u7d$17h9db4833d42431a72E
00000000 l    d  .rodata..Lanon.8c2065eb472c726b22a378e8c16404cc.0	00000000 .rodata..Lanon.8c2065eb472c726b22a378e8c16404cc.0
00000000 l    d  .rodata..Lanon.8c2065eb472c726b22a378e8c16404cc.1	00000000 .rodata..Lanon.8c2065eb472c726b22a378e8c16404cc.1
00000000 l    d  .debug_loc	00000000 .debug_loc
00000000 l    d  .debug_abbrev	00000000 .debug_abbrev
00000000 l    d  .debug_info	00000000 .debug_info
00000000 l    d  .debug_ranges	00000000 .debug_ranges
00000000 l    d  .debug_frame	00000000 .debug_frame
00000000 l    d  .debug_line	00000000 .debug_line
00000000         *UND*	00000000 core::fmt::ArgumentV1::new
00000000         *UND*	00000000 core::fmt::num::imp::<impl core::fmt::Display for u32>::fmt
00000000 g     F .text._ZN4core3fmt5Write9write_fmt17hcf9098e655e27e3dE	00000046 core::fmt::Write::write_fmt
00000000         *UND*	00000000 core::fmt::write
00000000         *UND*	00000000 .hidden core::fmt::Arguments::new_v1
00000000         *UND*	00000000 core::ptr::real_drop_in_place
00000000         *UND*	00000000 .hidden core::char::methods::<impl char>::encode_utf8
00000000         *UND*	00000000 .hidden core::char::methods::<impl char>::len_utf8
00000000         *UND*	00000000 core::result::Result<T,E>::unwrap
00000000         *UND*	00000000 core::result::Result<T,E>::map_err
00000000         *UND*	00000000 core::result::Result<T,E>::map_err
00000000         *UND*	00000000 core::result::Result<T,E>::map_err
00000000 g     F .text._ZN50_$LT$$RF$mut$u20$W$u20$as$u20$core..fmt..Write$GT$10write_char17hce87fd846bb8b21bE	00000028 <&mut W as core::fmt::Write>::write_char
00000000 g     F .text._ZN50_$LT$$RF$mut$u20$W$u20$as$u20$core..fmt..Write$GT$9write_fmt17ha9e8326ccf863428E	00000038 <&mut W as core::fmt::Write>::write_fmt
00000000 g     F .text._ZN50_$LT$$RF$mut$u20$W$u20$as$u20$core..fmt..Write$GT$9write_str17hdf43caedb8139834E	00000034 <&mut W as core::fmt::Write>::write_str
00000000 g     F .text._ZN70_$LT$heapless..string..String$LT$N$GT$$u20$as$u20$core..fmt..Write$GT$10write_char17hc9e24d8a5619e189E	00000034 <heapless::string::String<N> as core::fmt::Write>::write_char
00000000 g     F .text._ZN70_$LT$heapless..string..String$LT$N$GT$$u20$as$u20$core..fmt..Write$GT$10write_char28_$u7b$$u7b$closure$u7d$$u7d$17h849c6e88e24a628eE	00000006 <heapless::string::String<N> as core::fmt::Write>::write_char::{{closure}}
00000000 g     F .text._ZN70_$LT$heapless..string..String$LT$N$GT$$u20$as$u20$core..fmt..Write$GT$9write_str17h9a0a4c3ff0db3b55E	00000040 <heapless::string::String<N> as core::fmt::Write>::write_str
00000000 g     F .text._ZN70_$LT$heapless..string..String$LT$N$GT$$u20$as$u20$core..fmt..Write$GT$9write_str28_$u7b$$u7b$closure$u7d$$u7d$17ha166d6f7e5de18d8E	00000006 <heapless::string::String<N> as core::fmt::Write>::write_str::{{closure}}
00000000 g     F .text._ZN72_$LT$heapless..string..String$LT$N$GT$$u20$as$u20$core..clone..Clone$GT$5clone17ha6598099d63c46aaE	00000034 <heapless::string::String<N> as core::clone::Clone>::clone
00000000 g     F .text._ZN84_$LT$heapless..string..String$LT$N$GT$$u20$as$u20$core..convert..From$LT$u32$GT$$GT$4from17hc126ed3975eefd87E	00000080 <heapless::string::String<N> as core::convert::From<u32>>::from
00000000         *UND*	00000000 heapless::vec::<impl heapless::i::Vec<generic_array::GenericArray<T,N>>>::extend_from_slice
00000000         *UND*	00000000 heapless::vec::<impl heapless::i::Vec<generic_array::GenericArray<T,N>>>::push
00000000         *UND*	00000000 heapless::vec::<impl heapless::i::Vec<generic_array::GenericArray<T,N>>>::clone
00000000         *UND*	00000000 heapless::string::String<N>::new
00000000 g     F .text._ZN8heapless6string15String$LT$N$GT$4push17h5d32b0d0131a4689E	00000096 heapless::string::String<N>::push
00000000 g     F .text._ZN8heapless6string15String$LT$N$GT$4push28_$u7b$$u7b$closure$u7d$$u7d$17h9db4833d42431a72E	0000000e heapless::string::String<N>::push::{{closure}}
00000000         *UND*	00000000 heapless::string::String<N>::push_str



Disassembly of section .text._ZN4core3fmt5Write9write_fmt17hcf9098e655e27e3dE:

00000000 <core::fmt::Write::write_fmt>:
_ZN4core3fmt5Write9write_fmt17hcf9098e655e27e3dE():
/rustc/50a0defd5a93523067ef239936cc2e0755220904/src/libcore/fmt/mod.rs:194
   0:	e92d 41f0 	stmdb	sp!, {r4, r5, r6, r7, r8, lr}
   4:	b08c      	sub	sp, #48	; 0x30
   6:	460a      	mov	r2, r1
   8:	4603      	mov	r3, r0
   a:	9005      	str	r0, [sp, #20]
   c:	a806      	add	r0, sp, #24
/rustc/50a0defd5a93523067ef239936cc2e0755220904/src/libcore/fmt/mod.rs:195
   e:	4684      	mov	ip, r0
  10:	e891 41f0 	ldmia.w	r1, {r4, r5, r6, r7, r8, lr}
  14:	e88c 41f0 	stmia.w	ip, {r4, r5, r6, r7, r8, lr}
  18:	f240 0100 	movw	r1, #0
  1c:	f2c0 0100 	movt	r1, #0
  20:	f10d 0c14 	add.w	ip, sp, #20
  24:	9004      	str	r0, [sp, #16]
  26:	4660      	mov	r0, ip
  28:	f8dd c010 	ldr.w	ip, [sp, #16]
  2c:	9203      	str	r2, [sp, #12]
  2e:	4662      	mov	r2, ip
  30:	9302      	str	r3, [sp, #8]
  32:	f7ff fffe 	bl	0 <core::fmt::write>
  36:	9001      	str	r0, [sp, #4]
  38:	e7ff      	b.n	3a <core::fmt::Write::write_fmt+0x3a>
/rustc/50a0defd5a93523067ef239936cc2e0755220904/src/libcore/fmt/mod.rs:196
  3a:	9801      	ldr	r0, [sp, #4]
  3c:	f000 0001 	and.w	r0, r0, #1
  40:	b00c      	add	sp, #48	; 0x30
  42:	e8bd 81f0 	ldmia.w	sp!, {r4, r5, r6, r7, r8, pc}

Disassembly of section .text._ZN50_$LT$$RF$mut$u20$W$u20$as$u20$core..fmt..Write$GT$10write_char17hce87fd846bb8b21bE:

00000000 <<&mut W as core::fmt::Write>::write_char>:
_ZN50_$LT$$RF$mut$u20$W$u20$as$u20$core..fmt..Write$GT$10write_char17hce87fd846bb8b21bE():
/rustc/50a0defd5a93523067ef239936cc2e0755220904/src/libcore/fmt/mod.rs:205
   0:	b580      	push	{r7, lr}
   2:	b086      	sub	sp, #24
   4:	460a      	mov	r2, r1
   6:	4603      	mov	r3, r0
   8:	9004      	str	r0, [sp, #16]
   a:	9105      	str	r1, [sp, #20]
/rustc/50a0defd5a93523067ef239936cc2e0755220904/src/libcore/fmt/mod.rs:206
   c:	9804      	ldr	r0, [sp, #16]
   e:	6800      	ldr	r0, [r0, #0]
  10:	9905      	ldr	r1, [sp, #20]
  12:	9203      	str	r2, [sp, #12]
  14:	9302      	str	r3, [sp, #8]
  16:	f7ff fffe 	bl	0 <<&mut W as core::fmt::Write>::write_char>
  1a:	9001      	str	r0, [sp, #4]
  1c:	e7ff      	b.n	1e <<&mut W as core::fmt::Write>::write_char+0x1e>
/rustc/50a0defd5a93523067ef239936cc2e0755220904/src/libcore/fmt/mod.rs:207
  1e:	9801      	ldr	r0, [sp, #4]
  20:	f000 0001 	and.w	r0, r0, #1
  24:	b006      	add	sp, #24
  26:	bd80      	pop	{r7, pc}

Disassembly of section .text._ZN50_$LT$$RF$mut$u20$W$u20$as$u20$core..fmt..Write$GT$9write_fmt17ha9e8326ccf863428E:

00000000 <<&mut W as core::fmt::Write>::write_fmt>:
_ZN50_$LT$$RF$mut$u20$W$u20$as$u20$core..fmt..Write$GT$9write_fmt17ha9e8326ccf863428E():
/rustc/50a0defd5a93523067ef239936cc2e0755220904/src/libcore/fmt/mod.rs:209
   0:	e92d 43f0 	stmdb	sp!, {r4, r5, r6, r7, r8, r9, lr}
   4:	b08b      	sub	sp, #44	; 0x2c
   6:	460a      	mov	r2, r1
   8:	4603      	mov	r3, r0
   a:	9004      	str	r0, [sp, #16]
/rustc/50a0defd5a93523067ef239936cc2e0755220904/src/libcore/fmt/mod.rs:210
   c:	9804      	ldr	r0, [sp, #16]
   e:	6800      	ldr	r0, [r0, #0]
  10:	f10d 0c14 	add.w	ip, sp, #20
  14:	46e6      	mov	lr, ip
  16:	e891 03f0 	ldmia.w	r1, {r4, r5, r6, r7, r8, r9}
  1a:	e88e 03f0 	stmia.w	lr, {r4, r5, r6, r7, r8, r9}
  1e:	4661      	mov	r1, ip
  20:	9203      	str	r2, [sp, #12]
  22:	9302      	str	r3, [sp, #8]
  24:	f7ff fffe 	bl	0 <<&mut W as core::fmt::Write>::write_fmt>
  28:	9001      	str	r0, [sp, #4]
  2a:	e7ff      	b.n	2c <<&mut W as core::fmt::Write>::write_fmt+0x2c>
/rustc/50a0defd5a93523067ef239936cc2e0755220904/src/libcore/fmt/mod.rs:211
  2c:	9801      	ldr	r0, [sp, #4]
  2e:	f000 0001 	and.w	r0, r0, #1
  32:	b00b      	add	sp, #44	; 0x2c
  34:	e8bd 83f0 	ldmia.w	sp!, {r4, r5, r6, r7, r8, r9, pc}

Disassembly of section .text._ZN50_$LT$$RF$mut$u20$W$u20$as$u20$core..fmt..Write$GT$9write_str17hdf43caedb8139834E:

00000000 <<&mut W as core::fmt::Write>::write_str>:
_ZN50_$LT$$RF$mut$u20$W$u20$as$u20$core..fmt..Write$GT$9write_str17hdf43caedb8139834E():
/rustc/50a0defd5a93523067ef239936cc2e0755220904/src/libcore/fmt/mod.rs:201
   0:	b580      	push	{r7, lr}
   2:	b088      	sub	sp, #32
   4:	4613      	mov	r3, r2
   6:	468c      	mov	ip, r1
   8:	4686      	mov	lr, r0
   a:	9005      	str	r0, [sp, #20]
   c:	9106      	str	r1, [sp, #24]
   e:	9207      	str	r2, [sp, #28]
/rustc/50a0defd5a93523067ef239936cc2e0755220904/src/libcore/fmt/mod.rs:202
  10:	9805      	ldr	r0, [sp, #20]
  12:	6800      	ldr	r0, [r0, #0]
  14:	9906      	ldr	r1, [sp, #24]
  16:	9a07      	ldr	r2, [sp, #28]
  18:	9304      	str	r3, [sp, #16]
  1a:	f8cd c00c 	str.w	ip, [sp, #12]
  1e:	f8cd e008 	str.w	lr, [sp, #8]
  22:	f7ff fffe 	bl	0 <<&mut W as core::fmt::Write>::write_str>
  26:	9001      	str	r0, [sp, #4]
  28:	e7ff      	b.n	2a <<&mut W as core::fmt::Write>::write_str+0x2a>
/rustc/50a0defd5a93523067ef239936cc2e0755220904/src/libcore/fmt/mod.rs:203
  2a:	9801      	ldr	r0, [sp, #4]
  2c:	f000 0001 	and.w	r0, r0, #1
  30:	b008      	add	sp, #32
  32:	bd80      	pop	{r7, pc}

Disassembly of section .text._ZN70_$LT$heapless..string..String$LT$N$GT$$u20$as$u20$core..fmt..Write$GT$10write_char17hc9e24d8a5619e189E:

00000000 <<heapless::string::String<N> as core::fmt::Write>::write_char>:
_ZN70_$LT$heapless..string..String$LT$N$GT$$u20$as$u20$core..fmt..Write$GT$10write_char17hc9e24d8a5619e189E():
/Users/Luppy/.cargo/registry/src/github.com-1ecc6299db9ec823/heapless-0.5.1/src/string.rs:443
{
    fn write_str(&mut self, s: &str) -> Result<(), fmt::Error> {
        self.push_str(s).map_err(|_| fmt::Error)
    }

    fn write_char(&mut self, c: char) -> Result<(), fmt::Error> {
   0:	b580      	push	{r7, lr}
   2:	b088      	sub	sp, #32
   4:	460a      	mov	r2, r1
   6:	4603      	mov	r3, r0
   8:	9005      	str	r0, [sp, #20]
   a:	9106      	str	r1, [sp, #24]
/Users/Luppy/.cargo/registry/src/github.com-1ecc6299db9ec823/heapless-0.5.1/src/string.rs:444
        self.push(c).map_err(|_| fmt::Error)
   c:	9805      	ldr	r0, [sp, #20]
   e:	9906      	ldr	r1, [sp, #24]
  10:	9204      	str	r2, [sp, #16]
  12:	9303      	str	r3, [sp, #12]
  14:	f7ff fffe 	bl	0 <<heapless::string::String<N> as core::fmt::Write>::write_char>
  18:	9002      	str	r0, [sp, #8]
  1a:	e7ff      	b.n	1c <<heapless::string::String<N> as core::fmt::Write>::write_char+0x1c>
  1c:	9802      	ldr	r0, [sp, #8]
  1e:	f000 0001 	and.w	r0, r0, #1
  22:	f7ff fffe 	bl	0 <core::result::Result<T,E>::map_err>
  26:	9001      	str	r0, [sp, #4]
  28:	e7ff      	b.n	2a <<heapless::string::String<N> as core::fmt::Write>::write_char+0x2a>
/Users/Luppy/.cargo/registry/src/github.com-1ecc6299db9ec823/heapless-0.5.1/src/string.rs:445
    }
  2a:	9801      	ldr	r0, [sp, #4]
  2c:	f000 0001 	and.w	r0, r0, #1
  30:	b008      	add	sp, #32
  32:	bd80      	pop	{r7, pc}

Disassembly of section .text._ZN70_$LT$heapless..string..String$LT$N$GT$$u20$as$u20$core..fmt..Write$GT$10write_char28_$u7b$$u7b$closure$u7d$$u7d$17h849c6e88e24a628eE:

00000000 <<heapless::string::String<N> as core::fmt::Write>::write_char::{{closure}}>:
_ZN70_$LT$heapless..string..String$LT$N$GT$$u20$as$u20$core..fmt..Write$GT$10write_char28_$u7b$$u7b$closure$u7d$$u7d$17h849c6e88e24a628eE():
/Users/Luppy/.cargo/registry/src/github.com-1ecc6299db9ec823/heapless-0.5.1/src/string.rs:444
        self.push(c).map_err(|_| fmt::Error)
   0:	b082      	sub	sp, #8
   2:	b002      	add	sp, #8
   4:	4770      	bx	lr

Disassembly of section .text._ZN70_$LT$heapless..string..String$LT$N$GT$$u20$as$u20$core..fmt..Write$GT$9write_str17h9a0a4c3ff0db3b55E:

00000000 <<heapless::string::String<N> as core::fmt::Write>::write_str>:
_ZN70_$LT$heapless..string..String$LT$N$GT$$u20$as$u20$core..fmt..Write$GT$9write_str17h9a0a4c3ff0db3b55E():
/Users/Luppy/.cargo/registry/src/github.com-1ecc6299db9ec823/heapless-0.5.1/src/string.rs:439
    fn write_str(&mut self, s: &str) -> Result<(), fmt::Error> {
   0:	b580      	push	{r7, lr}
   2:	b08a      	sub	sp, #40	; 0x28
   4:	4613      	mov	r3, r2
   6:	468c      	mov	ip, r1
   8:	4686      	mov	lr, r0
   a:	9006      	str	r0, [sp, #24]
   c:	9107      	str	r1, [sp, #28]
   e:	9208      	str	r2, [sp, #32]
/Users/Luppy/.cargo/registry/src/github.com-1ecc6299db9ec823/heapless-0.5.1/src/string.rs:440
        self.push_str(s).map_err(|_| fmt::Error)
  10:	9806      	ldr	r0, [sp, #24]
  12:	9907      	ldr	r1, [sp, #28]
  14:	9a08      	ldr	r2, [sp, #32]
  16:	9305      	str	r3, [sp, #20]
  18:	f8cd c010 	str.w	ip, [sp, #16]
  1c:	f8cd e00c 	str.w	lr, [sp, #12]
  20:	f7ff fffe 	bl	0 <heapless::string::String<N>::push_str>
  24:	9002      	str	r0, [sp, #8]
  26:	e7ff      	b.n	28 <<heapless::string::String<N> as core::fmt::Write>::write_str+0x28>
  28:	9802      	ldr	r0, [sp, #8]
  2a:	f000 0001 	and.w	r0, r0, #1
  2e:	f7ff fffe 	bl	0 <core::result::Result<T,E>::map_err>
  32:	9001      	str	r0, [sp, #4]
  34:	e7ff      	b.n	36 <<heapless::string::String<N> as core::fmt::Write>::write_str+0x36>
/Users/Luppy/.cargo/registry/src/github.com-1ecc6299db9ec823/heapless-0.5.1/src/string.rs:441
    }
  36:	9801      	ldr	r0, [sp, #4]
  38:	f000 0001 	and.w	r0, r0, #1
  3c:	b00a      	add	sp, #40	; 0x28
  3e:	bd80      	pop	{r7, pc}

Disassembly of section .text._ZN70_$LT$heapless..string..String$LT$N$GT$$u20$as$u20$core..fmt..Write$GT$9write_str28_$u7b$$u7b$closure$u7d$$u7d$17ha166d6f7e5de18d8E:

00000000 <<heapless::string::String<N> as core::fmt::Write>::write_str::{{closure}}>:
_ZN70_$LT$heapless..string..String$LT$N$GT$$u20$as$u20$core..fmt..Write$GT$9write_str28_$u7b$$u7b$closure$u7d$$u7d$17ha166d6f7e5de18d8E():
/Users/Luppy/.cargo/registry/src/github.com-1ecc6299db9ec823/heapless-0.5.1/src/string.rs:440
        self.push_str(s).map_err(|_| fmt::Error)
   0:	b082      	sub	sp, #8
   2:	b002      	add	sp, #8
   4:	4770      	bx	lr

Disassembly of section .text._ZN72_$LT$heapless..string..String$LT$N$GT$$u20$as$u20$core..clone..Clone$GT$5clone17ha6598099d63c46aaE:

00000000 <<heapless::string::String<N> as core::clone::Clone>::clone>:
_ZN72_$LT$heapless..string..String$LT$N$GT$$u20$as$u20$core..clone..Clone$GT$5clone17ha6598099d63c46aaE():
/Users/Luppy/.cargo/registry/src/github.com-1ecc6299db9ec823/heapless-0.5.1/src/string.rs:390
    fn clone(&self) -> Self {
   0:	b570      	push	{r4, r5, r6, lr}
   2:	b090      	sub	sp, #64	; 0x40
   4:	460a      	mov	r2, r1
   6:	9103      	str	r1, [sp, #12]
/Users/Luppy/.cargo/registry/src/github.com-1ecc6299db9ec823/heapless-0.5.1/src/string.rs:392
            vec: self.0.vec.clone(),
   8:	9903      	ldr	r1, [sp, #12]
   a:	ab0a      	add	r3, sp, #40	; 0x28
   c:	9002      	str	r0, [sp, #8]
   e:	4618      	mov	r0, r3
  10:	9201      	str	r2, [sp, #4]
  12:	f7ff fffe 	bl	0 <heapless::vec::<impl heapless::i::Vec<generic_array::GenericArray<T,N>>>::clone>
  16:	e7ff      	b.n	18 <<heapless::string::String<N> as core::clone::Clone>::clone+0x18>
  18:	a80a      	add	r0, sp, #40	; 0x28
  1a:	a904      	add	r1, sp, #16
/Users/Luppy/.cargo/registry/src/github.com-1ecc6299db9ec823/heapless-0.5.1/src/string.rs:391
        Self(crate::i::String {
  1c:	460a      	mov	r2, r1
  1e:	e890 5078 	ldmia.w	r0, {r3, r4, r5, r6, ip, lr}
  22:	e882 5078 	stmia.w	r2, {r3, r4, r5, r6, ip, lr}
  26:	9802      	ldr	r0, [sp, #8]
  28:	e891 503c 	ldmia.w	r1, {r2, r3, r4, r5, ip, lr}
  2c:	e880 503c 	stmia.w	r0, {r2, r3, r4, r5, ip, lr}
/Users/Luppy/.cargo/registry/src/github.com-1ecc6299db9ec823/heapless-0.5.1/src/string.rs:394
    }
  30:	b010      	add	sp, #64	; 0x40
  32:	bd70      	pop	{r4, r5, r6, pc}

Disassembly of section .text._ZN84_$LT$heapless..string..String$LT$N$GT$$u20$as$u20$core..convert..From$LT$u32$GT$$GT$4from17hc126ed3975eefd87E:

00000000 <<heapless::string::String<N> as core::convert::From<u32>>::from>:
_ZN84_$LT$heapless..string..String$LT$N$GT$$u20$as$u20$core..convert..From$LT$u32$GT$$GT$4from17hc126ed3975eefd87E():
/Users/Luppy/.cargo/registry/src/github.com-1ecc6299db9ec823/heapless-0.5.1/src/string.rs:545
    ($num:ty, $size:ty) => {
        impl<N> From<$num> for String<N>
        where
            N: ArrayLength<u8> + IsGreaterOrEqual<$size, Output = True>,
        {
            fn from(s: $num) -> Self {
   0:	b5b0      	push	{r4, r5, r7, lr}
   2:	b098      	sub	sp, #96	; 0x60
   4:	460a      	mov	r2, r1
   6:	9107      	str	r1, [sp, #28]
   8:	a908      	add	r1, sp, #32
/Users/Luppy/.cargo/registry/src/github.com-1ecc6299db9ec823/heapless-0.5.1/src/string.rs:546
                let mut new = String::new();
   a:	9006      	str	r0, [sp, #24]
   c:	4608      	mov	r0, r1
   e:	9205      	str	r2, [sp, #20]
  10:	f7ff fffe 	bl	0 <heapless::string::String<N>::new>
  14:	e7ff      	b.n	16 <<heapless::string::String<N> as core::convert::From<u32>>::from+0x16>
  16:	a807      	add	r0, sp, #28
/Users/Luppy/.cargo/registry/src/github.com-1ecc6299db9ec823/heapless-0.5.1/src/string.rs:547
                write!(&mut new, "{}", s).unwrap();
  18:	9016      	str	r0, [sp, #88]	; 0x58
/Users/Luppy/mynewt/stm32bluepill-mynewt-sensor/rust/app/src/lib.rs:1
/*
  1a:	9816      	ldr	r0, [sp, #88]	; 0x58
  1c:	9017      	str	r0, [sp, #92]	; 0x5c
/Users/Luppy/.cargo/registry/src/github.com-1ecc6299db9ec823/heapless-0.5.1/src/string.rs:547
  1e:	9817      	ldr	r0, [sp, #92]	; 0x5c
/Users/Luppy/mynewt/stm32bluepill-mynewt-sensor/<::core::macros::write macros>:2
  20:	f240 0100 	movw	r1, #0
  24:	f2c0 0100 	movt	r1, #0
  28:	f7ff fffe 	bl	0 <core::fmt::ArgumentV1::new>
  2c:	9004      	str	r0, [sp, #16]
  2e:	9103      	str	r1, [sp, #12]
  30:	e7ff      	b.n	32 <<heapless::string::String<N> as core::convert::From<u32>>::from+0x32>
/Users/Luppy/.cargo/registry/src/github.com-1ecc6299db9ec823/heapless-0.5.1/src/string.rs:547
  32:	9804      	ldr	r0, [sp, #16]
  34:	9014      	str	r0, [sp, #80]	; 0x50
  36:	9903      	ldr	r1, [sp, #12]
  38:	9115      	str	r1, [sp, #84]	; 0x54
/Users/Luppy/mynewt/stm32bluepill-mynewt-sensor/<::core::macros::write macros>:2
  3a:	466a      	mov	r2, sp
  3c:	2301      	movs	r3, #1
  3e:	6013      	str	r3, [r2, #0]
  40:	f240 0100 	movw	r1, #0
  44:	f2c0 0100 	movt	r1, #0
  48:	a80e      	add	r0, sp, #56	; 0x38
  4a:	aa14      	add	r2, sp, #80	; 0x50
  4c:	9202      	str	r2, [sp, #8]
  4e:	461a      	mov	r2, r3
  50:	9b02      	ldr	r3, [sp, #8]
  52:	f7ff fffe 	bl	0 <core::fmt::Arguments::new_v1>
  56:	e7ff      	b.n	58 <<heapless::string::String<N> as core::convert::From<u32>>::from+0x58>
  58:	a808      	add	r0, sp, #32
  5a:	a90e      	add	r1, sp, #56	; 0x38
  5c:	f7ff fffe 	bl	0 <<heapless::string::String<N> as core::convert::From<u32>>::from>
  60:	9001      	str	r0, [sp, #4]
  62:	e7ff      	b.n	64 <<heapless::string::String<N> as core::convert::From<u32>>::from+0x64>
/Users/Luppy/.cargo/registry/src/github.com-1ecc6299db9ec823/heapless-0.5.1/src/string.rs:547
  64:	9801      	ldr	r0, [sp, #4]
  66:	f000 0001 	and.w	r0, r0, #1
  6a:	f7ff fffe 	bl	0 <core::result::Result<T,E>::unwrap>
  6e:	e7ff      	b.n	70 <<heapless::string::String<N> as core::convert::From<u32>>::from+0x70>
  70:	a808      	add	r0, sp, #32
/Users/Luppy/.cargo/registry/src/github.com-1ecc6299db9ec823/heapless-0.5.1/src/string.rs:548
                new
  72:	9906      	ldr	r1, [sp, #24]
  74:	e890 503c 	ldmia.w	r0, {r2, r3, r4, r5, ip, lr}
  78:	e881 503c 	stmia.w	r1, {r2, r3, r4, r5, ip, lr}
/Users/Luppy/.cargo/registry/src/github.com-1ecc6299db9ec823/heapless-0.5.1/src/string.rs:549
            }
  7c:	b018      	add	sp, #96	; 0x60
  7e:	bdb0      	pop	{r4, r5, r7, pc}

Disassembly of section .text._ZN8heapless6string15String$LT$N$GT$4push17h5d32b0d0131a4689E:

00000000 <heapless::string::String<N>::push>:
_ZN8heapless6string15String$LT$N$GT$4push17h5d32b0d0131a4689E():
/Users/Luppy/.cargo/registry/src/github.com-1ecc6299db9ec823/heapless-0.5.1/src/string.rs:245
    pub fn push(&mut self, c: char) -> Result<(), ()> {
   0:	b580      	push	{r7, lr}
   2:	b094      	sub	sp, #80	; 0x50
   4:	460a      	mov	r2, r1
   6:	4603      	mov	r3, r0
   8:	900b      	str	r0, [sp, #44]	; 0x2c
   a:	910c      	str	r1, [sp, #48]	; 0x30
/Users/Luppy/.cargo/registry/src/github.com-1ecc6299db9ec823/heapless-0.5.1/src/string.rs:246
        match c.len_utf8() {
   c:	980c      	ldr	r0, [sp, #48]	; 0x30
   e:	920a      	str	r2, [sp, #40]	; 0x28
  10:	9309      	str	r3, [sp, #36]	; 0x24
  12:	f7ff fffe 	bl	0 <core::char::methods::<impl char>::len_utf8>
  16:	9008      	str	r0, [sp, #32]
  18:	e7ff      	b.n	1a <heapless::string::String<N>::push+0x1a>
/Users/Luppy/.cargo/registry/src/github.com-1ecc6299db9ec823/heapless-0.5.1/src/string.rs:247
            1 => self.0.vec.push(c as u8).map_err(|_| {}),
  1a:	9808      	ldr	r0, [sp, #32]
  1c:	2801      	cmp	r0, #1
  1e:	d111      	bne.n	44 <heapless::string::String<N>::push+0x44>
  20:	e7ff      	b.n	22 <heapless::string::String<N>::push+0x22>
  22:	980b      	ldr	r0, [sp, #44]	; 0x2c
  24:	990c      	ldr	r1, [sp, #48]	; 0x30
  26:	f7ff fffe 	bl	0 <heapless::vec::<impl heapless::i::Vec<generic_array::GenericArray<T,N>>>::push>
  2a:	9007      	str	r0, [sp, #28]
  2c:	9106      	str	r1, [sp, #24]
  2e:	e7ff      	b.n	30 <heapless::string::String<N>::push+0x30>
  30:	9807      	ldr	r0, [sp, #28]
  32:	f000 0001 	and.w	r0, r0, #1
  36:	9906      	ldr	r1, [sp, #24]
  38:	f7ff fffe 	bl	0 <core::result::Result<T,E>::map_err>
  3c:	f88d 0037 	strb.w	r0, [sp, #55]	; 0x37
  40:	e7ff      	b.n	42 <heapless::string::String<N>::push+0x42>
/Users/Luppy/.cargo/registry/src/github.com-1ecc6299db9ec823/heapless-0.5.1/src/string.rs:246
        match c.len_utf8() {
  42:	e024      	b.n	8e <heapless::string::String<N>::push+0x8e>
/Users/Luppy/.cargo/registry/src/github.com-1ecc6299db9ec823/heapless-0.5.1/src/string.rs:248
            _ => self
  44:	980b      	ldr	r0, [sp, #44]	; 0x2c
/Users/Luppy/.cargo/registry/src/github.com-1ecc6299db9ec823/heapless-0.5.1/src/string.rs:251
                .extend_from_slice(c.encode_utf8(&mut [0; 4]).as_bytes()),
  46:	990c      	ldr	r1, [sp, #48]	; 0x30
  48:	2200      	movs	r2, #0
  4a:	920f      	str	r2, [sp, #60]	; 0x3c
  4c:	aa0f      	add	r2, sp, #60	; 0x3c
  4e:	2304      	movs	r3, #4
  50:	9005      	str	r0, [sp, #20]
  52:	4608      	mov	r0, r1
  54:	4611      	mov	r1, r2
  56:	461a      	mov	r2, r3
  58:	f7ff fffe 	bl	0 <core::char::methods::<impl char>::encode_utf8>
  5c:	9004      	str	r0, [sp, #16]
  5e:	9103      	str	r1, [sp, #12]
  60:	e7ff      	b.n	62 <heapless::string::String<N>::push+0x62>
  62:	9804      	ldr	r0, [sp, #16]
  64:	9010      	str	r0, [sp, #64]	; 0x40
  66:	9903      	ldr	r1, [sp, #12]
  68:	9111      	str	r1, [sp, #68]	; 0x44
_ZN4core3str21_$LT$impl$u20$str$GT$8as_bytes17hbca31947ef6ad219E():
/rustc/50a0defd5a93523067ef239936cc2e0755220904/src/libcore/str/mod.rs:2153
  6a:	9a10      	ldr	r2, [sp, #64]	; 0x40
  6c:	9b11      	ldr	r3, [sp, #68]	; 0x44
  6e:	9212      	str	r2, [sp, #72]	; 0x48
  70:	9313      	str	r3, [sp, #76]	; 0x4c
  72:	9912      	ldr	r1, [sp, #72]	; 0x48
  74:	9a13      	ldr	r2, [sp, #76]	; 0x4c
_ZN8heapless6string15String$LT$N$GT$4push17h5d32b0d0131a4689E():
/Users/Luppy/.cargo/registry/src/github.com-1ecc6299db9ec823/heapless-0.5.1/src/string.rs:251
  76:	9102      	str	r1, [sp, #8]
  78:	9201      	str	r2, [sp, #4]
  7a:	e7ff      	b.n	7c <heapless::string::String<N>::push+0x7c>
/Users/Luppy/.cargo/registry/src/github.com-1ecc6299db9ec823/heapless-0.5.1/src/string.rs:248
            _ => self
  7c:	9805      	ldr	r0, [sp, #20]
  7e:	9902      	ldr	r1, [sp, #8]
  80:	9a01      	ldr	r2, [sp, #4]
  82:	f7ff fffe 	bl	0 <heapless::vec::<impl heapless::i::Vec<generic_array::GenericArray<T,N>>>::extend_from_slice>
  86:	f88d 0037 	strb.w	r0, [sp, #55]	; 0x37
  8a:	e7ff      	b.n	8c <heapless::string::String<N>::push+0x8c>
/Users/Luppy/.cargo/registry/src/github.com-1ecc6299db9ec823/heapless-0.5.1/src/string.rs:246
        match c.len_utf8() {
  8c:	e7ff      	b.n	8e <heapless::string::String<N>::push+0x8e>
/Users/Luppy/.cargo/registry/src/github.com-1ecc6299db9ec823/heapless-0.5.1/src/string.rs:253
    }
  8e:	f89d 0037 	ldrb.w	r0, [sp, #55]	; 0x37
  92:	b014      	add	sp, #80	; 0x50
  94:	bd80      	pop	{r7, pc}

Disassembly of section .text._ZN8heapless6string15String$LT$N$GT$4push28_$u7b$$u7b$closure$u7d$$u7d$17h9db4833d42431a72E:

00000000 <heapless::string::String<N>::push::{{closure}}>:
_ZN8heapless6string15String$LT$N$GT$4push28_$u7b$$u7b$closure$u7d$$u7d$17h9db4833d42431a72E():
/Users/Luppy/.cargo/registry/src/github.com-1ecc6299db9ec823/heapless-0.5.1/src/string.rs:247
            1 => self.0.vec.push(c as u8).map_err(|_| {}),
   0:	b082      	sub	sp, #8
   2:	4601      	mov	r1, r0
   4:	f88d 0007 	strb.w	r0, [sp, #7]
   8:	9100      	str	r1, [sp, #0]
   a:	b002      	add	sp, #8
   c:	4770      	bx	lr

app-e8778d9de5b9c761.qot13mgjz4d3r2s.rcgu.o:     file format elf32-littlearm

SYMBOL TABLE:
00000000 l    df *ABS*	00000000 qot13mgjz4d3r2s
0000010c l       .debug_str	00000000 
00000000 l       .debug_str	00000000 
00000041 l       .debug_str	00000000 
00000055 l       .debug_str	00000000 
00000085 l       .debug_str	00000000 
0000008b l       .debug_str	00000000 
00000090 l       .debug_str	00000000 
00000099 l       .debug_str	00000000 
0000010f l       .debug_str	00000000 
000000f7 l       .debug_str	00000000 
000000ff l       .debug_str	00000000 
00000102 l       .debug_str	00000000 
00000106 l       .debug_str	00000000 
00000109 l       .debug_str	00000000 
00000000 l    d  .text._ZN60_$LT$kurbo..rect..Rect$u20$as$u20$core..default..Default$GT$7default17h9e0791da85cd1c59E	00000000 .text._ZN60_$LT$kurbo..rect..Rect$u20$as$u20$core..default..Default$GT$7default17h9e0791da85cd1c59E
00000000 l    d  .debug_abbrev	00000000 .debug_abbrev
00000000 l    d  .debug_info	00000000 .debug_info
00000000 l    d  .debug_frame	00000000 .debug_frame
00000000 l    d  .debug_line	00000000 .debug_line
00000000         *UND*	00000000 .hidden <f64 as core::default::Default>::default
00000000 g     F .text._ZN60_$LT$kurbo..rect..Rect$u20$as$u20$core..default..Default$GT$7default17h9e0791da85cd1c59E	00000054 .hidden <kurbo::rect::Rect as core::default::Default>::default



Disassembly of section .text._ZN60_$LT$kurbo..rect..Rect$u20$as$u20$core..default..Default$GT$7default17h9e0791da85cd1c59E:

00000000 <<kurbo::rect::Rect as core::default::Default>::default>:
_ZN60_$LT$kurbo..rect..Rect$u20$as$u20$core..default..Default$GT$7default17h9e0791da85cd1c59E():
/Users/Luppy/mynewt/kurbo-embedded/src/rect.rs:10
////use std::ops::{Add, Sub};

use crate::{Insets, PathEl, Point, RoundedRect, Shape, Size, Vec2};

/// A rectangle.
#[derive(Clone, Copy, Default, Debug)]
   0:	b580      	push	{r7, lr}
   2:	b08a      	sub	sp, #40	; 0x28
/Users/Luppy/mynewt/kurbo-embedded/src/rect.rs:13
pub struct Rect {
    /// The minimum x coordinate (left edge).
    pub x0: f64,
   4:	9009      	str	r0, [sp, #36]	; 0x24
   6:	f7ff fffe 	bl	0 <<f64 as core::default::Default>::default>
   a:	ed8d 0b06 	vstr	d0, [sp, #24]
   e:	e7ff      	b.n	2 <<f64 as core::default::Default>::default+0x2>
/Users/Luppy/mynewt/kurbo-embedded/src/rect.rs:15
    /// The minimum y coordinate (top edge in y-down spaces).
    pub y0: f64,
  10:	f7ff fffe 	bl	0 <<f64 as core::default::Default>::default>
  14:	ed8d 0b04 	vstr	d0, [sp, #16]
  18:	e7ff      	b.n	2 <<f64 as core::default::Default>::default+0x2>
/Users/Luppy/mynewt/kurbo-embedded/src/rect.rs:17
    /// The maximum x coordinate (right edge).
    pub x1: f64,
  1a:	f7ff fffe 	bl	0 <<f64 as core::default::Default>::default>
  1e:	ed8d 0b02 	vstr	d0, [sp, #8]
  22:	e7ff      	b.n	2 <<f64 as core::default::Default>::default+0x2>
/Users/Luppy/mynewt/kurbo-embedded/src/rect.rs:19
    /// The maximum y coordinate (bottom edge in y-down spaces).
    pub y1: f64,
  24:	f7ff fffe 	bl	0 <<f64 as core::default::Default>::default>
  28:	ed8d 0b00 	vstr	d0, [sp]
  2c:	e7ff      	b.n	2e <<kurbo::rect::Rect as core::default::Default>::default+0x2e>
/Users/Luppy/mynewt/kurbo-embedded/src/rect.rs:10
#[derive(Clone, Copy, Default, Debug)]
  2e:	ed9d 0b06 	vldr	d0, [sp, #24]
  32:	9809      	ldr	r0, [sp, #36]	; 0x24
  34:	ed80 0b00 	vstr	d0, [r0]
  38:	ed9d 1b04 	vldr	d1, [sp, #16]
  3c:	ed80 1b02 	vstr	d1, [r0, #8]
  40:	ed9d 2b02 	vldr	d2, [sp, #8]
  44:	ed80 2b04 	vstr	d2, [r0, #16]
  48:	ed9d 3b00 	vldr	d3, [sp]
  4c:	ed80 3b06 	vstr	d3, [r0, #24]
  50:	b00a      	add	sp, #40	; 0x28
  52:	bd80      	pop	{r7, pc}

app-e8778d9de5b9c761.rbuamrd1o5aw03f.rcgu.o:     file format elf32-littlearm

SYMBOL TABLE:
00000000 l    df *ABS*	00000000 rbuamrd1o5aw03f
00000232 l       .debug_str	00000000 
00000107 l       .debug_str	00000000 
0000010b l       .debug_str	00000000 
00000119 l       .debug_str	00000000 
00000163 l       .debug_str	00000000 
00000172 l       .debug_str	00000000 
000001bd l       .debug_str	00000000 
000001cd l       .debug_str	00000000 
000001d1 l       .debug_str	00000000 
000001d6 l       .debug_str	00000000 
000001e4 l       .debug_str	00000000 
00000228 l       .debug_str	00000000 
0000029b l       .debug_str	00000000 
000002a0 l       .debug_str	00000000 
000002a5 l       .debug_str	00000000 
000002a9 l       .debug_str	00000000 
000002ab l       .debug_str	00000000 
000002ad l       .debug_str	00000000 
000002b3 l       .debug_str	00000000 
00000000 l       .debug_str	00000000 
00000041 l       .debug_str	00000000 
00000055 l       .debug_str	00000000 
00000085 l       .debug_str	00000000 
0000008a l       .debug_str	00000000 
0000008e l       .debug_str	00000000 
00000097 l       .debug_str	00000000 
000000de l       .debug_str	00000000 
000000ea l       .debug_str	00000000 
000000f1 l       .debug_str	00000000 
000000f5 l       .debug_str	00000000 
000000fa l       .debug_str	00000000 
00000100 l       .debug_str	00000000 
00000102 l       .debug_str	00000000 
00000000 l     F .text._ZN4core3num23_$LT$impl$u20$usize$GT$11checked_mul17h45787bac19673519E	00000050 core::num::<impl usize>::checked_mul
00000000 l     F .text._ZN4core3num23_$LT$impl$u20$usize$GT$15overflowing_mul17he51f3b9539248e02E	00000052 core::num::<impl usize>::overflowing_mul
00000000 l     F .text._ZN4core3num23_$LT$impl$u20$usize$GT$9max_value17had26df9b2ec2b98eE	00000006 core::num::<impl usize>::max_value
00000000 l    d  .text._ZN4core3num23_$LT$impl$u20$usize$GT$11checked_mul17h45787bac19673519E	00000000 .text._ZN4core3num23_$LT$impl$u20$usize$GT$11checked_mul17h45787bac19673519E
00000000 l    d  .text._ZN4core3num23_$LT$impl$u20$usize$GT$14saturating_mul17he0aa56ac4fb6653bE	00000000 .text._ZN4core3num23_$LT$impl$u20$usize$GT$14saturating_mul17he0aa56ac4fb6653bE
00000000 l    d  .text._ZN4core3num23_$LT$impl$u20$usize$GT$15overflowing_mul17he51f3b9539248e02E	00000000 .text._ZN4core3num23_$LT$impl$u20$usize$GT$15overflowing_mul17he51f3b9539248e02E
00000000 l    d  .text._ZN4core3num23_$LT$impl$u20$usize$GT$9max_value17had26df9b2ec2b98eE	00000000 .text._ZN4core3num23_$LT$impl$u20$usize$GT$9max_value17had26df9b2ec2b98eE
00000000 l    d  .text._ZN4core3num65_$LT$impl$u20$core..convert..From$LT$u8$GT$$u20$for$u20$usize$GT$4from17h7e979004d4b0caa6E	00000000 .text._ZN4core3num65_$LT$impl$u20$core..convert..From$LT$u8$GT$$u20$for$u20$usize$GT$4from17h7e979004d4b0caa6E
00000000 l    d  .debug_abbrev	00000000 .debug_abbrev
00000000 l    d  .debug_info	00000000 .debug_info
00000000 l    d  .debug_ranges	00000000 .debug_ranges
00000000 l    d  .debug_frame	00000000 .debug_frame
00000000 l    d  .debug_line	00000000 .debug_line
00000000 g     F .text._ZN4core3num23_$LT$impl$u20$usize$GT$14saturating_mul17he0aa56ac4fb6653bE	0000003a .hidden core::num::<impl usize>::saturating_mul
00000000 g     F .text._ZN4core3num65_$LT$impl$u20$core..convert..From$LT$u8$GT$$u20$for$u20$usize$GT$4from17h7e979004d4b0caa6E	00000012 .hidden core::num::<impl core::convert::From<u8> for usize>::from
00000000         *UND*	00000000 core::option::Option<T>::unwrap_or



Disassembly of section .text._ZN4core3num23_$LT$impl$u20$usize$GT$11checked_mul17h45787bac19673519E:

00000000 <core::num::<impl usize>::checked_mul>:
_ZN4core3num23_$LT$impl$u20$usize$GT$11checked_mul17h45787bac19673519E():
/rustc/50a0defd5a93523067ef239936cc2e0755220904/src/libcore/num/mod.rs:2722
   0:	b580      	push	{r7, lr}
   2:	b08a      	sub	sp, #40	; 0x28
   4:	460a      	mov	r2, r1
   6:	4603      	mov	r3, r0
   8:	9004      	str	r0, [sp, #16]
   a:	9105      	str	r1, [sp, #20]
/rustc/50a0defd5a93523067ef239936cc2e0755220904/src/libcore/num/mod.rs:2723
   c:	9804      	ldr	r0, [sp, #16]
   e:	9905      	ldr	r1, [sp, #20]
  10:	9203      	str	r2, [sp, #12]
  12:	9302      	str	r3, [sp, #8]
  14:	f7ff fffe 	bl	0 <core::num::<impl usize>::checked_mul>
  18:	9001      	str	r0, [sp, #4]
  1a:	9100      	str	r1, [sp, #0]
  1c:	e7ff      	b.n	1e <core::num::<impl usize>::checked_mul+0x1e>
  1e:	9801      	ldr	r0, [sp, #4]
  20:	9008      	str	r0, [sp, #32]
  22:	9900      	ldr	r1, [sp, #0]
  24:	f001 0201 	and.w	r2, r1, #1
  28:	f88d 2027 	strb.w	r2, [sp, #39]	; 0x27
/rustc/50a0defd5a93523067ef239936cc2e0755220904/src/libcore/num/mod.rs:2724
  2c:	f89d 2027 	ldrb.w	r2, [sp, #39]	; 0x27
  30:	07d2      	lsls	r2, r2, #31
  32:	2a00      	cmp	r2, #0
  34:	d003      	beq.n	3e <core::num::<impl usize>::checked_mul+0x3e>
  36:	e7ff      	b.n	38 <core::num::<impl usize>::checked_mul+0x38>
  38:	2000      	movs	r0, #0
  3a:	9006      	str	r0, [sp, #24]
  3c:	e004      	b.n	48 <core::num::<impl usize>::checked_mul+0x48>
  3e:	9808      	ldr	r0, [sp, #32]
  40:	9007      	str	r0, [sp, #28]
  42:	2001      	movs	r0, #1
  44:	9006      	str	r0, [sp, #24]
  46:	e7ff      	b.n	48 <core::num::<impl usize>::checked_mul+0x48>
/rustc/50a0defd5a93523067ef239936cc2e0755220904/src/libcore/num/mod.rs:2725
  48:	9806      	ldr	r0, [sp, #24]
  4a:	9907      	ldr	r1, [sp, #28]
  4c:	b00a      	add	sp, #40	; 0x28
  4e:	bd80      	pop	{r7, pc}

Disassembly of section .text._ZN4core3num23_$LT$impl$u20$usize$GT$14saturating_mul17he0aa56ac4fb6653bE:

00000000 <core::num::<impl usize>::saturating_mul>:
_ZN4core3num23_$LT$impl$u20$usize$GT$14saturating_mul17he0aa56ac4fb6653bE():
/rustc/50a0defd5a93523067ef239936cc2e0755220904/src/libcore/num/mod.rs:2999
   0:	b580      	push	{r7, lr}
   2:	b088      	sub	sp, #32
   4:	460a      	mov	r2, r1
   6:	4603      	mov	r3, r0
   8:	9006      	str	r0, [sp, #24]
   a:	9107      	str	r1, [sp, #28]
/rustc/50a0defd5a93523067ef239936cc2e0755220904/src/libcore/num/mod.rs:3000
   c:	9806      	ldr	r0, [sp, #24]
   e:	9907      	ldr	r1, [sp, #28]
  10:	9205      	str	r2, [sp, #20]
  12:	9304      	str	r3, [sp, #16]
  14:	f7ff fffe 	bl	0 <core::num::<impl usize>::saturating_mul>
  18:	9003      	str	r0, [sp, #12]
  1a:	9102      	str	r1, [sp, #8]
  1c:	e7ff      	b.n	1e <core::num::<impl usize>::saturating_mul+0x1e>
  1e:	f7ff fffe 	bl	0 <core::num::<impl usize>::saturating_mul>
  22:	9001      	str	r0, [sp, #4]
  24:	e7ff      	b.n	26 <core::num::<impl usize>::saturating_mul+0x26>
  26:	9803      	ldr	r0, [sp, #12]
  28:	9902      	ldr	r1, [sp, #8]
  2a:	9a01      	ldr	r2, [sp, #4]
  2c:	f7ff fffe 	bl	0 <core::option::Option<T>::unwrap_or>
  30:	9000      	str	r0, [sp, #0]
  32:	e7ff      	b.n	34 <core::num::<impl usize>::saturating_mul+0x34>
/rustc/50a0defd5a93523067ef239936cc2e0755220904/src/libcore/num/mod.rs:3001
  34:	9800      	ldr	r0, [sp, #0]
  36:	b008      	add	sp, #32
  38:	bd80      	pop	{r7, pc}

Disassembly of section .text._ZN4core3num23_$LT$impl$u20$usize$GT$15overflowing_mul17he51f3b9539248e02E:

00000000 <core::num::<impl usize>::overflowing_mul>:
_ZN4core3num23_$LT$impl$u20$usize$GT$15overflowing_mul17he51f3b9539248e02E():
/rustc/50a0defd5a93523067ef239936cc2e0755220904/src/libcore/num/mod.rs:3403
   0:	b08c      	sub	sp, #48	; 0x30
   2:	460a      	mov	r2, r1
   4:	4603      	mov	r3, r0
   6:	9004      	str	r0, [sp, #16]
   8:	9105      	str	r1, [sp, #20]
/rustc/50a0defd5a93523067ef239936cc2e0755220904/src/libcore/num/mod.rs:3404
   a:	9804      	ldr	r0, [sp, #16]
   c:	9905      	ldr	r1, [sp, #20]
   e:	fba0 0101 	umull	r0, r1, r0, r1
  12:	2900      	cmp	r1, #0
  14:	bf18      	it	ne
  16:	2101      	movne	r1, #1
  18:	900a      	str	r0, [sp, #40]	; 0x28
  1a:	f88d 102c 	strb.w	r1, [sp, #44]	; 0x2c
  1e:	980a      	ldr	r0, [sp, #40]	; 0x28
  20:	f89d 102c 	ldrb.w	r1, [sp, #44]	; 0x2c
  24:	9203      	str	r2, [sp, #12]
  26:	9302      	str	r3, [sp, #8]
  28:	9001      	str	r0, [sp, #4]
  2a:	9100      	str	r1, [sp, #0]
  2c:	e7ff      	b.n	2e <core::num::<impl usize>::overflowing_mul+0x2e>
  2e:	9801      	ldr	r0, [sp, #4]
  30:	9008      	str	r0, [sp, #32]
  32:	9900      	ldr	r1, [sp, #0]
  34:	f001 0201 	and.w	r2, r1, #1
  38:	f88d 2027 	strb.w	r2, [sp, #39]	; 0x27
/rustc/50a0defd5a93523067ef239936cc2e0755220904/src/libcore/num/mod.rs:3405
  3c:	9a08      	ldr	r2, [sp, #32]
  3e:	f89d 3027 	ldrb.w	r3, [sp, #39]	; 0x27
  42:	9206      	str	r2, [sp, #24]
  44:	f88d 301c 	strb.w	r3, [sp, #28]
/rustc/50a0defd5a93523067ef239936cc2e0755220904/src/libcore/num/mod.rs:3406
  48:	9806      	ldr	r0, [sp, #24]
  4a:	f89d 101c 	ldrb.w	r1, [sp, #28]
  4e:	b00c      	add	sp, #48	; 0x30
  50:	4770      	bx	lr

Disassembly of section .text._ZN4core3num23_$LT$impl$u20$usize$GT$9max_value17had26df9b2ec2b98eE:

00000000 <core::num::<impl usize>::max_value>:
_ZN4core3num23_$LT$impl$u20$usize$GT$9max_value17had26df9b2ec2b98eE():
/rustc/50a0defd5a93523067ef239936cc2e0755220904/src/libcore/num/mod.rs:2327
   0:	f04f 30ff 	mov.w	r0, #4294967295	; 0xffffffff
   4:	4770      	bx	lr

Disassembly of section .text._ZN4core3num65_$LT$impl$u20$core..convert..From$LT$u8$GT$$u20$for$u20$usize$GT$4from17h7e979004d4b0caa6E:

00000000 <core::num::<impl core::convert::From<u8> for usize>::from>:
_ZN4core3num65_$LT$impl$u20$core..convert..From$LT$u8$GT$$u20$for$u20$usize$GT$4from17h7e979004d4b0caa6E():
/rustc/50a0defd5a93523067ef239936cc2e0755220904/src/libcore/num/mod.rs:5107
   0:	b082      	sub	sp, #8
   2:	4601      	mov	r1, r0
   4:	f88d 0007 	strb.w	r0, [sp, #7]
/rustc/50a0defd5a93523067ef239936cc2e0755220904/src/libcore/num/mod.rs:5108
   8:	f89d 0007 	ldrb.w	r0, [sp, #7]
/rustc/50a0defd5a93523067ef239936cc2e0755220904/src/libcore/num/mod.rs:5109
   c:	9100      	str	r1, [sp, #0]
   e:	b002      	add	sp, #8
  10:	4770      	bx	lr
arm-none-eabi-objdump: rust.metadata.bin: File format not recognized
arm-none-eabi-objdump: app-e8778d9de5b9c761.1282ppdusipvebqh.rcgu.bc.z: File format not recognized
arm-none-eabi-objdump: app-e8778d9de5b9c761.14zx61me3bpcprrd.rcgu.bc.z: File format not recognized
arm-none-eabi-objdump: app-e8778d9de5b9c761.17v1jdrzqpaz1l1u.rcgu.bc.z: File format not recognized
arm-none-eabi-objdump: app-e8778d9de5b9c761.188963a8v4y71iwx.rcgu.bc.z: File format not recognized
arm-none-eabi-objdump: app-e8778d9de5b9c761.1lzfbgaflgy1mvu9.rcgu.bc.z: File format not recognized
arm-none-eabi-objdump: app-e8778d9de5b9c761.1n5a1pth5nsctotx.rcgu.bc.z: File format not recognized
arm-none-eabi-objdump: app-e8778d9de5b9c761.1ogrl8pkaekiubxw.rcgu.bc.z: File format not recognized
arm-none-eabi-objdump: app-e8778d9de5b9c761.1qij4ktei5ptks14.rcgu.bc.z: File format not recognized
arm-none-eabi-objdump: app-e8778d9de5b9c761.1qx9mgsfbtvmqtyb.rcgu.bc.z: File format not recognized
arm-none-eabi-objdump: app-e8778d9de5b9c761.1xsbyyhihgpwwu3i.rcgu.bc.z: File format not recognized
arm-none-eabi-objdump: app-e8778d9de5b9c761.1y4eot5dkfxexgli.rcgu.bc.z: File format not recognized
arm-none-eabi-objdump: app-e8778d9de5b9c761.2bq6r878mk18oupx.rcgu.bc.z: File format not recognized
arm-none-eabi-objdump: app-e8778d9de5b9c761.2cm0f6rj2peynhw.rcgu.bc.z: File format not recognized
arm-none-eabi-objdump: app-e8778d9de5b9c761.2fa743v6kswx5trd.rcgu.bc.z: File format not recognized
arm-none-eabi-objdump: app-e8778d9de5b9c761.2ip78vrmjtao5zpu.rcgu.bc.z: File format not recognized
arm-none-eabi-objdump: app-e8778d9de5b9c761.2klnxnhxxxpjeqgl.rcgu.bc.z: File format not recognized
arm-none-eabi-objdump: app-e8778d9de5b9c761.2njbfqth28pfnju4.rcgu.bc.z: File format not recognized
arm-none-eabi-objdump: app-e8778d9de5b9c761.2qfblbexr6fhm2ff.rcgu.bc.z: File format not recognized
arm-none-eabi-objdump: app-e8778d9de5b9c761.2rzl1x1s2lvaj242.rcgu.bc.z: File format not recognized
arm-none-eabi-objdump: app-e8778d9de5b9c761.2ygv37sd3w1vipd4.rcgu.bc.z: File format not recognized
arm-none-eabi-objdump: app-e8778d9de5b9c761.2zcdz361r20d8n2l.rcgu.bc.z: File format not recognized
arm-none-eabi-objdump: app-e8778d9de5b9c761.30rgqsmo7gwuld04.rcgu.bc.z: File format not recognized
arm-none-eabi-objdump: app-e8778d9de5b9c761.30vy158vf52v5anu.rcgu.bc.z: File format not recognized
arm-none-eabi-objdump: app-e8778d9de5b9c761.3a1nswuya333w8hf.rcgu.bc.z: File format not recognized
arm-none-eabi-objdump: app-e8778d9de5b9c761.3a47hr79paw6hdfk.rcgu.bc.z: File format not recognized
arm-none-eabi-objdump: app-e8778d9de5b9c761.3d1yu74wxnzbohxd.rcgu.bc.z: File format not recognized
arm-none-eabi-objdump: app-e8778d9de5b9c761.3dknplk9qplgjng3.rcgu.bc.z: File format not recognized
arm-none-eabi-objdump: app-e8778d9de5b9c761.3fq1obdcx764lzmp.rcgu.bc.z: File format not recognized
arm-none-eabi-objdump: app-e8778d9de5b9c761.3jkw5np6g4cemga0.rcgu.bc.z: File format not recognized
arm-none-eabi-objdump: app-e8778d9de5b9c761.3s19nmlwfj5kzizm.rcgu.bc.z: File format not recognized
arm-none-eabi-objdump: app-e8778d9de5b9c761.3w8dk09usbkzryek.rcgu.bc.z: File format not recognized
arm-none-eabi-objdump: app-e8778d9de5b9c761.3yooawbqsai2ga05.rcgu.bc.z: File format not recognized
arm-none-eabi-objdump: app-e8778d9de5b9c761.47sd6ybc3pagcimj.rcgu.bc.z: File format not recognized
arm-none-eabi-objdump: app-e8778d9de5b9c761.499my7he7zu10zd3.rcgu.bc.z: File format not recognized
arm-none-eabi-objdump: app-e8778d9de5b9c761.4gj7jcuyk8wgzbvy.rcgu.bc.z: File format not recognized
arm-none-eabi-objdump: app-e8778d9de5b9c761.4qg6ekcg1rnvzjtl.rcgu.bc.z: File format not recognized
arm-none-eabi-objdump: app-e8778d9de5b9c761.4tqjkmj4gtfz939t.rcgu.bc.z: File format not recognized
arm-none-eabi-objdump: app-e8778d9de5b9c761.4twe6dvkf1ial8e4.rcgu.bc.z: File format not recognized
arm-none-eabi-objdump: app-e8778d9de5b9c761.4zw3p3cvoyaljwtu.rcgu.bc.z: File format not recognized
arm-none-eabi-objdump: app-e8778d9de5b9c761.5av5n9x95x8xqwr1.rcgu.bc.z: File format not recognized
arm-none-eabi-objdump: app-e8778d9de5b9c761.5bvltiph22g7nrf3.rcgu.bc.z: File format not recognized
arm-none-eabi-objdump: app-e8778d9de5b9c761.5e5gz0c3lulgp609.rcgu.bc.z: File format not recognized
arm-none-eabi-objdump: app-e8778d9de5b9c761.77tf53q507yi3nx.rcgu.bc.z: File format not recognized
arm-none-eabi-objdump: app-e8778d9de5b9c761.bdudpkmv1a24i6h.rcgu.bc.z: File format not recognized
arm-none-eabi-objdump: app-e8778d9de5b9c761.c2y9ceq5qri7oo6.rcgu.bc.z: File format not recognized
arm-none-eabi-objdump: app-e8778d9de5b9c761.lkz3ecyyoqzis4e.rcgu.bc.z: File format not recognized
arm-none-eabi-objdump: app-e8778d9de5b9c761.mremlt5apis6xgg.rcgu.bc.z: File format not recognized
arm-none-eabi-objdump: app-e8778d9de5b9c761.q3r0ovd390knhs6.rcgu.bc.z: File format not recognized
arm-none-eabi-objdump: app-e8778d9de5b9c761.qot13mgjz4d3r2s.rcgu.bc.z: File format not recognized
arm-none-eabi-objdump: app-e8778d9de5b9c761.rbuamrd1o5aw03f.rcgu.bc.z: File format not recognized
