In archive src/libcompiler_builtins-26b11cd3df3b5c44.rlib:

compiler_builtins-26b11cd3df3b5c44.compiler_builtins.f34lpfze-cgu.0.rcgu.o:     file format elf32-littlearm

SYMBOL TABLE:
00000000 l    df *ABS*	00000000 compiler_builtins.f34lpfze-cgu.0
00000000 l       .debug_str	00000000 
00000039 l       .debug_str	00000000 
0000008c l       .debug_str	00000000 
000000d4 l       .debug_str	00000000 
000000e6 l       .debug_str	00000000 
000000eb l       .debug_str	00000000 
000000f0 l       .debug_str	00000000 
000000f5 l       .debug_str	00000000 
000000f9 l       .debug_str	00000000 
000000fd l       .debug_str	00000000 
00000111 l       .debug_str	00000000 
0000014f l       .debug_str	00000000 
00000155 l       .debug_str	00000000 
0000015c l       .debug_str	00000000 
0000019e l       .debug_str	00000000 
000001a4 l       .debug_str	00000000 
000001a6 l       .debug_str	00000000 
000001aa l       .debug_str	00000000 
000001e7 l       .debug_str	00000000 
000001ed l       .debug_str	00000000 
000001f1 l       .debug_str	00000000 
000001f4 l       .debug_str	00000000 
000001f9 l       .debug_str	00000000 
000001ff l       .debug_str	00000000 
00000207 l       .debug_str	00000000 
00000211 l       .debug_str	00000000 
00000218 l       .debug_str	00000000 
00000223 l       .debug_str	00000000 
0000022a l       .debug_str	00000000 
00000243 l       .debug_str	00000000 
0000024d l       .debug_str	00000000 
00000258 l       .debug_str	00000000 
00000264 l       .debug_str	00000000 
0000026c l       .debug_str	00000000 
00000273 l       .debug_str	00000000 
00000280 l       .debug_str	00000000 
0000028b l       .debug_str	00000000 
00000295 l       .debug_str	00000000 
000002a3 l       .debug_str	00000000 
000002b3 l       .debug_str	00000000 
000002bd l       .debug_str	00000000 
000002c8 l       .debug_str	00000000 
000002cb l       .debug_str	00000000 
000002d6 l       .debug_str	00000000 
000002d9 l       .debug_str	00000000 
000002e8 l       .debug_str	00000000 
000002f3 l       .debug_str	00000000 
000002fd l       .debug_str	00000000 
0000030b l       .debug_str	00000000 
0000030f l       .debug_str	00000000 
00000319 l       .debug_str	00000000 
00000324 l       .debug_str	00000000 
0000032f l       .debug_str	00000000 
00000332 l       .debug_str	00000000 
00000339 l       .debug_str	00000000 
00000342 l       .debug_str	00000000 
00000346 l       .debug_str	00000000 
00000353 l       .debug_str	00000000 
0000035e l       .debug_str	00000000 
0000036c l       .debug_str	00000000 
00000375 l       .debug_str	00000000 
0000037f l       .debug_str	00000000 
00000389 l       .debug_str	00000000 
00000390 l       .debug_str	00000000 
00000394 l       .debug_str	00000000 
000003a0 l       .debug_str	00000000 
000003ad l       .debug_str	00000000 
000003b1 l       .debug_str	00000000 
000003bb l       .debug_str	00000000 
000003be l       .debug_str	00000000 
000003c9 l       .debug_str	00000000 
000003d2 l       .debug_str	00000000 
000003dc l       .debug_str	00000000 
000003e7 l       .debug_str	00000000 
000003ed l       .debug_str	00000000 
000003fa l       .debug_str	00000000 
00000403 l       .debug_str	00000000 
00000410 l       .debug_str	00000000 
0000041c l       .debug_str	00000000 
00000425 l       .debug_str	00000000 
0000042e l       .debug_str	00000000 
0000043a l       .debug_str	00000000 
00000446 l       .debug_str	00000000 
00000453 l       .debug_str	00000000 
0000045d l       .debug_str	00000000 
00000466 l       .debug_str	00000000 
00000472 l       .debug_str	00000000 
00000486 l       .debug_str	00000000 
00000490 l       .debug_str	00000000 
00000499 l       .debug_str	00000000 
000004a4 l       .debug_str	00000000 
000004ad l       .debug_str	00000000 
000004b7 l       .debug_str	00000000 
000004bb l       .debug_str	00000000 
000004c1 l       .debug_str	00000000 
000004cb l       .debug_str	00000000 
000004d5 l       .debug_str	00000000 
000004df l       .debug_str	00000000 
000004e9 l       .debug_str	00000000 
000004f3 l       .debug_str	00000000 
000004fe l       .debug_str	00000000 
00000508 l       .debug_str	00000000 
00000516 l       .debug_str	00000000 
00000521 l       .debug_str	00000000 
0000052b l       .debug_str	00000000 
00000539 l       .debug_str	00000000 
00000544 l       .debug_str	00000000 
0000054e l       .debug_str	00000000 
0000055c l       .debug_str	00000000 
0000056a l       .debug_str	00000000 
00000574 l       .debug_str	00000000 
00000584 l       .debug_str	00000000 
00000593 l       .debug_str	00000000 
0000059d l       .debug_str	00000000 
000005a7 l       .debug_str	00000000 
000005b4 l       .debug_str	00000000 
000005c0 l       .debug_str	00000000 
000005cc l       .debug_str	00000000 
000005d9 l       .debug_str	00000000 
000005e6 l       .debug_str	00000000 
000005f1 l       .debug_str	00000000 
000005fd l       .debug_str	00000000 
00000609 l       .debug_str	00000000 
00000615 l       .debug_str	00000000 
00000621 l       .debug_str	00000000 
0000062f l       .debug_str	00000000 
0000063d l       .debug_str	00000000 
0000064b l       .debug_str	00000000 
00000659 l       .debug_str	00000000 
00000663 l       .debug_str	00000000 
0000066d l       .debug_str	00000000 
00000677 l       .debug_str	00000000 
00000681 l       .debug_str	00000000 
0000068e l       .debug_str	00000000 
0000069b l       .debug_str	00000000 
000006a8 l       .debug_str	00000000 
000006b5 l       .debug_str	00000000 
000006be l       .debug_str	00000000 
000006c9 l       .debug_str	00000000 
000006d4 l       .debug_str	00000000 
000006dd l       .debug_str	00000000 
000006e8 l       .debug_str	00000000 
000006f3 l       .debug_str	00000000 
000006fb l       .debug_str	00000000 
00000703 l       .debug_str	00000000 
0000070b l       .debug_str	00000000 
00000713 l       .debug_str	00000000 
0000071b l       .debug_str	00000000 
00000723 l       .debug_str	00000000 
0000072b l       .debug_str	00000000 
00000733 l       .debug_str	00000000 
0000073b l       .debug_str	00000000 
00000743 l       .debug_str	00000000 
0000074c l       .debug_str	00000000 
00000756 l       .debug_str	00000000 
00000763 l       .debug_str	00000000 
0000076e l       .debug_str	00000000 
00000777 l       .debug_str	00000000 
0000077c l       .debug_str	00000000 
0000077f l       .debug_str	00000000 
00000788 l       .debug_str	00000000 
00000793 l       .debug_str	00000000 
0000079c l       .debug_str	00000000 
000007a5 l       .debug_str	00000000 
000007ae l       .debug_str	00000000 
000007b7 l       .debug_str	00000000 
000007c0 l       .debug_str	00000000 
000007d0 l       .debug_str	00000000 
000007ed l       .debug_str	00000000 
000007f6 l       .debug_str	00000000 
00000801 l       .debug_str	00000000 
00000811 l       .debug_str	00000000 
0000081e l       .debug_str	00000000 
00000829 l       .debug_str	00000000 
00000834 l       .debug_str	00000000 
0000083f l       .debug_str	00000000 
0000084f l       .debug_str	00000000 
0000085d l       .debug_str	00000000 
00000862 l       .debug_str	00000000 
00000869 l       .debug_str	00000000 
0000086f l       .debug_str	00000000 
0000087e l       .debug_str	00000000 
0000088e l       .debug_str	00000000 
0000089e l       .debug_str	00000000 
000008ad l       .debug_str	00000000 
000008bd l       .debug_str	00000000 
000008cb l       .debug_str	00000000 
000008da l       .debug_str	00000000 
000008e9 l       .debug_str	00000000 
000008f7 l       .debug_str	00000000 
00000906 l       .debug_str	00000000 
00000915 l       .debug_str	00000000 
00000922 l       .debug_str	00000000 
0000092c l       .debug_str	00000000 
00000936 l       .debug_str	00000000 
00000944 l       .debug_str	00000000 
00000953 l       .debug_str	00000000 
00000962 l       .debug_str	00000000 
0000096f l       .debug_str	00000000 
00000978 l       .debug_str	00000000 
00000984 l       .debug_str	00000000 
00000992 l       .debug_str	00000000 
000009a0 l       .debug_str	00000000 
000009ad l       .debug_str	00000000 
000009ba l       .debug_str	00000000 
000009c7 l       .debug_str	00000000 
000009d6 l       .debug_str	00000000 
000009e5 l       .debug_str	00000000 
000009f4 l       .debug_str	00000000 
00000a02 l       .debug_str	00000000 
00000a0f l       .debug_str	00000000 
00000a1c l       .debug_str	00000000 
00000a2a l       .debug_str	00000000 
00000a38 l       .debug_str	00000000 
00000a44 l       .debug_str	00000000 
00000a50 l       .debug_str	00000000 
00000a5c l       .debug_str	00000000 
00000a68 l       .debug_str	00000000 
00000a74 l       .debug_str	00000000 
00000a80 l       .debug_str	00000000 
00000a8d l       .debug_str	00000000 
00000a9a l       .debug_str	00000000 
00000aa7 l       .debug_str	00000000 
00000ab4 l       .debug_str	00000000 
00000ac2 l       .debug_str	00000000 
00000ad0 l       .debug_str	00000000 
00000add l       .debug_str	00000000 
00000aea l       .debug_str	00000000 
00000af4 l       .debug_str	00000000 
00000b01 l       .debug_str	00000000 
00000b0e l       .debug_str	00000000 
00000b18 l       .debug_str	00000000 
00000b26 l       .debug_str	00000000 
00000b34 l       .debug_str	00000000 
00000b42 l       .debug_str	00000000 
00000b50 l       .debug_str	00000000 
00000b5f l       .debug_str	00000000 
00000b6e l       .debug_str	00000000 
00000b7d l       .debug_str	00000000 
00000b8c l       .debug_str	00000000 
00000b9b l       .debug_str	00000000 
00000baa l       .debug_str	00000000 
00000bb9 l       .debug_str	00000000 
00000bc8 l       .debug_str	00000000 
00000bd7 l       .debug_str	00000000 
00000be6 l       .debug_str	00000000 
00000bf5 l       .debug_str	00000000 
00000c04 l       .debug_str	00000000 
00000c0d l       .debug_str	00000000 
00000c16 l       .debug_str	00000000 
00000c20 l       .debug_str	00000000 
00000c2a l       .debug_str	00000000 
00000c37 l       .debug_str	00000000 
00000c44 l       .debug_str	00000000 
00000c4d l       .debug_str	00000000 
00000c56 l       .debug_str	00000000 
00000c5f l       .debug_str	00000000 
00000c68 l       .debug_str	00000000 
00000000 l    d  .text.memcpy	00000000 .text.memcpy
00000000 l    d  .text.memmove	00000000 .text.memmove
00000000 l    d  .text.memset	00000000 .text.memset
00000000 l    d  .text.memcmp	00000000 .text.memcmp
00000000 l    d  .text.__aeabi_uidivmod	00000000 .text.__aeabi_uidivmod
00000000 l    d  .text.__aeabi_uldivmod	00000000 .text.__aeabi_uldivmod
00000000 l    d  .text.__aeabi_idivmod	00000000 .text.__aeabi_idivmod
00000000 l    d  .text.__aeabi_ldivmod	00000000 .text.__aeabi_ldivmod
00000000 l    d  .text.__aeabi_memcpy	00000000 .text.__aeabi_memcpy
00000000 l    d  .text.__aeabi_memcpy4	00000000 .text.__aeabi_memcpy4
00000000 l    d  .text.__aeabi_memcpy8	00000000 .text.__aeabi_memcpy8
00000000 l    d  .text.__aeabi_memmove	00000000 .text.__aeabi_memmove
00000000 l    d  .text..Lanon.109065a98eeed0521bf961624aa4abd9.0	00000000 .text..Lanon.109065a98eeed0521bf961624aa4abd9.0
00000000 l    d  .text.__aeabi_memset	00000000 .text.__aeabi_memset
00000000 l    d  .text.__aeabi_memset4	00000000 .text.__aeabi_memset4
00000000 l    d  .text.__aeabi_memset8	00000000 .text.__aeabi_memset8
00000000 l    d  .text.__aeabi_memclr	00000000 .text.__aeabi_memclr
00000000 l    d  .text..Lanon.109065a98eeed0521bf961624aa4abd9.1	00000000 .text..Lanon.109065a98eeed0521bf961624aa4abd9.1
00000000 l    d  .text._ZN17compiler_builtins3int6addsub13rust_i128_add17hc1690810c99a2fbaE	00000000 .text._ZN17compiler_builtins3int6addsub13rust_i128_add17hc1690810c99a2fbaE
00000000 l    d  .text._ZN17compiler_builtins3int6addsub14rust_i128_addo17h7b6ea810664b46deE	00000000 .text._ZN17compiler_builtins3int6addsub14rust_i128_addo17h7b6ea810664b46deE
00000000 l    d  .text._ZN17compiler_builtins3int6addsub14rust_u128_addo17h63ee12c6b1f04fdfE	00000000 .text._ZN17compiler_builtins3int6addsub14rust_u128_addo17h63ee12c6b1f04fdfE
00000000 l    d  .text._ZN17compiler_builtins3int6addsub13rust_i128_sub17hb52b2568dc550873E	00000000 .text._ZN17compiler_builtins3int6addsub13rust_i128_sub17hb52b2568dc550873E
00000000 l    d  .text._ZN17compiler_builtins3int6addsub14rust_i128_subo17h809f0ec4bb6a5987E	00000000 .text._ZN17compiler_builtins3int6addsub14rust_i128_subo17h809f0ec4bb6a5987E
00000000 l    d  .text._ZN17compiler_builtins3int6addsub14rust_u128_subo17h4cf17d0e34c7d2ffE	00000000 .text._ZN17compiler_builtins3int6addsub14rust_u128_subo17h4cf17d0e34c7d2ffE
00000000 l    d  .text.__muldi3	00000000 .text.__muldi3
00000000 l    d  .text.__aeabi_lmul	00000000 .text.__aeabi_lmul
00000000 l    d  .text.__multi3	00000000 .text.__multi3
00000000 l    d  .text.__mulosi4	00000000 .text.__mulosi4
00000000 l    d  .text.__mulodi4	00000000 .text.__mulodi4
00000000 l    d  .text.__muloti4	00000000 .text.__muloti4
00000000 l    d  .text._ZN17compiler_builtins3int3mul13rust_i128_mul17hee060e4cf574d250E	00000000 .text._ZN17compiler_builtins3int3mul13rust_i128_mul17hee060e4cf574d250E
00000000 l    d  .text._ZN17compiler_builtins3int3mul14rust_i128_mulo17h7dbac307fda3729eE	00000000 .text._ZN17compiler_builtins3int3mul14rust_i128_mulo17h7dbac307fda3729eE
00000000 l    d  .text._ZN17compiler_builtins3int3mul14rust_u128_mulo17h9cdaa35554bdafd2E	00000000 .text._ZN17compiler_builtins3int3mul14rust_u128_mulo17h9cdaa35554bdafd2E
00000000 l    d  .text.__divsi3	00000000 .text.__divsi3
00000000 l    d  .text.__aeabi_idiv	00000000 .text.__aeabi_idiv
00000000 l    d  .text.__divdi3	00000000 .text.__divdi3
00000000 l    d  .text._ZN17compiler_builtins3int4sdiv8__modsi317ha55d12a915c783ffE	00000000 .text._ZN17compiler_builtins3int4sdiv8__modsi317ha55d12a915c783ffE
00000000 l    d  .text.__moddi3	00000000 .text.__moddi3
00000000 l    d  .text._ZN17compiler_builtins3int4sdiv11__divmodsi417h15a785fc4c4609ccE	00000000 .text._ZN17compiler_builtins3int4sdiv11__divmodsi417h15a785fc4c4609ccE
00000000 l    d  .text.__divmoddi4	00000000 .text.__divmoddi4
00000000 l    d  .text._ZN17compiler_builtins3int4sdiv13rust_i128_div17hba816bd7aff5f749E	00000000 .text._ZN17compiler_builtins3int4sdiv13rust_i128_div17hba816bd7aff5f749E
00000000 l    d  .text._ZN17compiler_builtins3int4sdiv13rust_i128_rem17hd7698bbb5a017427E	00000000 .text._ZN17compiler_builtins3int4sdiv13rust_i128_rem17hd7698bbb5a017427E
00000000 l    d  .text.__ashldi3	00000000 .text.__ashldi3
00000000 l    d  .text.__aeabi_llsl	00000000 .text.__aeabi_llsl
00000000 l    d  .text.__ashrdi3	00000000 .text.__ashrdi3
00000000 l    d  .text.__aeabi_lasr	00000000 .text.__aeabi_lasr
00000000 l    d  .text.__lshrdi3	00000000 .text.__lshrdi3
00000000 l    d  .text.__aeabi_llsr	00000000 .text.__aeabi_llsr
00000000 l    d  .text._ZN17compiler_builtins3int5shift13rust_i128_shl17hb3618dc516d362bfE	00000000 .text._ZN17compiler_builtins3int5shift13rust_i128_shl17hb3618dc516d362bfE
00000000 l    d  .text._ZN17compiler_builtins3int5shift14rust_i128_shlo17hd92352339c832a35E	00000000 .text._ZN17compiler_builtins3int5shift14rust_i128_shlo17hd92352339c832a35E
00000000 l    d  .text._ZN17compiler_builtins3int5shift13rust_i128_shr17h3a8269e86e1552deE	00000000 .text._ZN17compiler_builtins3int5shift13rust_i128_shr17h3a8269e86e1552deE
00000000 l    d  .text._ZN17compiler_builtins3int5shift14rust_i128_shro17ha7d04b67e033b50aE	00000000 .text._ZN17compiler_builtins3int5shift14rust_i128_shro17ha7d04b67e033b50aE
00000000 l    d  .text._ZN17compiler_builtins3int5shift13rust_u128_shr17hff924baacf55883dE	00000000 .text._ZN17compiler_builtins3int5shift13rust_u128_shr17hff924baacf55883dE
00000000 l    d  .text._ZN17compiler_builtins3int5shift14rust_u128_shro17h0a5feea8783a26e2E	00000000 .text._ZN17compiler_builtins3int5shift14rust_u128_shro17h0a5feea8783a26e2E
00000000 l    d  .text.__udivsi3	00000000 .text.__udivsi3
00000000 l    d  .text.__aeabi_uidiv	00000000 .text.__aeabi_uidiv
00000000 l    d  .text._ZN17compiler_builtins3int4udiv9__umodsi317h64b67705e2fe5457E	00000000 .text._ZN17compiler_builtins3int4udiv9__umodsi317h64b67705e2fe5457E
00000000 l    d  .text._ZN17compiler_builtins3int4udiv12__udivmodsi417h9cf0f22494bf3884E	00000000 .text._ZN17compiler_builtins3int4udiv12__udivmodsi417h9cf0f22494bf3884E
00000000 l    d  .text.__udivdi3	00000000 .text.__udivdi3
00000000 l    d  .text.__umoddi3	00000000 .text.__umoddi3
00000000 l    d  .text.__udivti3	00000000 .text.__udivti3
00000000 l    d  .text.__umodti3	00000000 .text.__umodti3
00000000 l    d  .text.__udivmoddi4	00000000 .text.__udivmoddi4
00000000 l    d  .text.__udivmodti4	00000000 .text.__udivmodti4
00000000 l    d  .text._ZN17compiler_builtins3int4udiv13rust_u128_div17h126d1909db3140ffE	00000000 .text._ZN17compiler_builtins3int4udiv13rust_u128_div17h126d1909db3140ffE
00000000 l    d  .text._ZN17compiler_builtins3int4udiv13rust_u128_rem17hd6298656faf5ac7aE	00000000 .text._ZN17compiler_builtins3int4udiv13rust_u128_rem17hd6298656faf5ac7aE
00000000 l    d  .text._ZN51_$LT$u32$u20$as$u20$compiler_builtins..int..Int$GT$12extract_sign17h33adf43c30dffd40E	00000000 .text._ZN51_$LT$u32$u20$as$u20$compiler_builtins..int..Int$GT$12extract_sign17h33adf43c30dffd40E
00000000 l    d  .text._ZN51_$LT$i32$u20$as$u20$compiler_builtins..int..Int$GT$12extract_sign17h59aff4784251113aE	00000000 .text._ZN51_$LT$i32$u20$as$u20$compiler_builtins..int..Int$GT$12extract_sign17h59aff4784251113aE
00000000 l    d  .text._ZN51_$LT$i32$u20$as$u20$compiler_builtins..int..Int$GT$13from_unsigned17h912ba4681c884616E	00000000 .text._ZN51_$LT$i32$u20$as$u20$compiler_builtins..int..Int$GT$13from_unsigned17h912ba4681c884616E
00000000 l    d  .text._ZN51_$LT$u32$u20$as$u20$compiler_builtins..int..Int$GT$9max_value17h29aad6492bdd7a34E	00000000 .text._ZN51_$LT$u32$u20$as$u20$compiler_builtins..int..Int$GT$9max_value17h29aad6492bdd7a34E
00000000 l    d  .text._ZN51_$LT$u32$u20$as$u20$compiler_builtins..int..Int$GT$9min_value17h1d6e54bc61bbfdbfE	00000000 .text._ZN51_$LT$u32$u20$as$u20$compiler_builtins..int..Int$GT$9min_value17h1d6e54bc61bbfdbfE
00000000 l    d  .text._ZN51_$LT$u32$u20$as$u20$compiler_builtins..int..Int$GT$15overflowing_add17h06eb618729cc02ffE	00000000 .text._ZN51_$LT$u32$u20$as$u20$compiler_builtins..int..Int$GT$15overflowing_add17h06eb618729cc02ffE
00000000 l    d  .text._ZN51_$LT$u32$u20$as$u20$compiler_builtins..int..Int$GT$12aborting_div17hd8eecf1c06795427E	00000000 .text._ZN51_$LT$u32$u20$as$u20$compiler_builtins..int..Int$GT$12aborting_div17hd8eecf1c06795427E
00000000 l    d  .text._ZN51_$LT$u32$u20$as$u20$compiler_builtins..int..Int$GT$12aborting_rem17h39cc4c01441f9605E	00000000 .text._ZN51_$LT$u32$u20$as$u20$compiler_builtins..int..Int$GT$12aborting_rem17h39cc4c01441f9605E
00000000 l    d  .text._ZN51_$LT$i32$u20$as$u20$compiler_builtins..int..Int$GT$9from_bool17h5ce29bcefc738cd3E	00000000 .text._ZN51_$LT$i32$u20$as$u20$compiler_builtins..int..Int$GT$9from_bool17h5ce29bcefc738cd3E
00000000 l    d  .text._ZN51_$LT$i32$u20$as$u20$compiler_builtins..int..Int$GT$9max_value17hdb9ce960eb51b051E	00000000 .text._ZN51_$LT$i32$u20$as$u20$compiler_builtins..int..Int$GT$9max_value17hdb9ce960eb51b051E
00000000 l    d  .text._ZN51_$LT$i32$u20$as$u20$compiler_builtins..int..Int$GT$9min_value17h1224b5d40c822689E	00000000 .text._ZN51_$LT$i32$u20$as$u20$compiler_builtins..int..Int$GT$9min_value17h1224b5d40c822689E
00000000 l    d  .text._ZN51_$LT$i32$u20$as$u20$compiler_builtins..int..Int$GT$12wrapping_add17hb39f70ea35030430E	00000000 .text._ZN51_$LT$i32$u20$as$u20$compiler_builtins..int..Int$GT$12wrapping_add17hb39f70ea35030430E
00000000 l    d  .text._ZN51_$LT$i32$u20$as$u20$compiler_builtins..int..Int$GT$12wrapping_mul17hdf40fbc326f60bb8E	00000000 .text._ZN51_$LT$i32$u20$as$u20$compiler_builtins..int..Int$GT$12wrapping_mul17hdf40fbc326f60bb8E
00000000 l    d  .text._ZN51_$LT$i32$u20$as$u20$compiler_builtins..int..Int$GT$12wrapping_sub17hbaffacd5e0e4f3a4E	00000000 .text._ZN51_$LT$i32$u20$as$u20$compiler_builtins..int..Int$GT$12wrapping_sub17hbaffacd5e0e4f3a4E
00000000 l    d  .text._ZN51_$LT$i32$u20$as$u20$compiler_builtins..int..Int$GT$12wrapping_shl17h19bd9310d067da86E	00000000 .text._ZN51_$LT$i32$u20$as$u20$compiler_builtins..int..Int$GT$12wrapping_shl17h19bd9310d067da86E
00000000 l    d  .text._ZN51_$LT$i32$u20$as$u20$compiler_builtins..int..Int$GT$15overflowing_add17hbfefb848da74fd48E	00000000 .text._ZN51_$LT$i32$u20$as$u20$compiler_builtins..int..Int$GT$15overflowing_add17hbfefb848da74fd48E
00000000 l    d  .text._ZN51_$LT$i32$u20$as$u20$compiler_builtins..int..Int$GT$12aborting_div17h639bbfcbc7f6e051E	00000000 .text._ZN51_$LT$i32$u20$as$u20$compiler_builtins..int..Int$GT$12aborting_div17h639bbfcbc7f6e051E
00000000 l    d  .text._ZN51_$LT$i32$u20$as$u20$compiler_builtins..int..Int$GT$12aborting_rem17hbfec48ea99737c40E	00000000 .text._ZN51_$LT$i32$u20$as$u20$compiler_builtins..int..Int$GT$12aborting_rem17hbfec48ea99737c40E
00000000 l    d  .text._ZN51_$LT$i32$u20$as$u20$compiler_builtins..int..Int$GT$13leading_zeros17h493896b73a4e3913E	00000000 .text._ZN51_$LT$i32$u20$as$u20$compiler_builtins..int..Int$GT$13leading_zeros17h493896b73a4e3913E
00000000 l    d  .text._ZN51_$LT$u64$u20$as$u20$compiler_builtins..int..Int$GT$12extract_sign17h71b2b4864ef7bc8cE	00000000 .text._ZN51_$LT$u64$u20$as$u20$compiler_builtins..int..Int$GT$12extract_sign17h71b2b4864ef7bc8cE
00000000 l    d  .text._ZN51_$LT$i64$u20$as$u20$compiler_builtins..int..Int$GT$12extract_sign17h83e3ddee6223dd9cE	00000000 .text._ZN51_$LT$i64$u20$as$u20$compiler_builtins..int..Int$GT$12extract_sign17h83e3ddee6223dd9cE
00000000 l    d  .text._ZN51_$LT$i64$u20$as$u20$compiler_builtins..int..Int$GT$13from_unsigned17h1afee29cc1c7acb7E	00000000 .text._ZN51_$LT$i64$u20$as$u20$compiler_builtins..int..Int$GT$13from_unsigned17h1afee29cc1c7acb7E
00000000 l    d  .text._ZN51_$LT$u64$u20$as$u20$compiler_builtins..int..Int$GT$9max_value17h9309223f57092cc4E	00000000 .text._ZN51_$LT$u64$u20$as$u20$compiler_builtins..int..Int$GT$9max_value17h9309223f57092cc4E
00000000 l    d  .text._ZN51_$LT$u64$u20$as$u20$compiler_builtins..int..Int$GT$9min_value17h6657c7e8f4ee069dE	00000000 .text._ZN51_$LT$u64$u20$as$u20$compiler_builtins..int..Int$GT$9min_value17h6657c7e8f4ee069dE
00000000 l    d  .text._ZN51_$LT$u64$u20$as$u20$compiler_builtins..int..Int$GT$15overflowing_add17h3328873e68c8d23fE	00000000 .text._ZN51_$LT$u64$u20$as$u20$compiler_builtins..int..Int$GT$15overflowing_add17h3328873e68c8d23fE
00000000 l    d  .text._ZN51_$LT$u64$u20$as$u20$compiler_builtins..int..Int$GT$12aborting_div17hc0244a985da9e5d7E	00000000 .text._ZN51_$LT$u64$u20$as$u20$compiler_builtins..int..Int$GT$12aborting_div17hc0244a985da9e5d7E
00000000 l    d  .text._ZN51_$LT$u64$u20$as$u20$compiler_builtins..int..Int$GT$12aborting_rem17hc5259316a099a85eE	00000000 .text._ZN51_$LT$u64$u20$as$u20$compiler_builtins..int..Int$GT$12aborting_rem17hc5259316a099a85eE
00000000 l    d  .text._ZN51_$LT$i64$u20$as$u20$compiler_builtins..int..Int$GT$9from_bool17h2985c7fff1557d13E	00000000 .text._ZN51_$LT$i64$u20$as$u20$compiler_builtins..int..Int$GT$9from_bool17h2985c7fff1557d13E
00000000 l    d  .text._ZN51_$LT$i64$u20$as$u20$compiler_builtins..int..Int$GT$9max_value17h38a927b2268cd881E	00000000 .text._ZN51_$LT$i64$u20$as$u20$compiler_builtins..int..Int$GT$9max_value17h38a927b2268cd881E
00000000 l    d  .text._ZN51_$LT$i64$u20$as$u20$compiler_builtins..int..Int$GT$9min_value17h4ba184aca481ae0aE	00000000 .text._ZN51_$LT$i64$u20$as$u20$compiler_builtins..int..Int$GT$9min_value17h4ba184aca481ae0aE
00000000 l    d  .text._ZN51_$LT$i64$u20$as$u20$compiler_builtins..int..Int$GT$12wrapping_add17hc307005aec61ad80E	00000000 .text._ZN51_$LT$i64$u20$as$u20$compiler_builtins..int..Int$GT$12wrapping_add17hc307005aec61ad80E
00000000 l    d  .text._ZN51_$LT$i64$u20$as$u20$compiler_builtins..int..Int$GT$12wrapping_mul17h355876921f34d3edE	00000000 .text._ZN51_$LT$i64$u20$as$u20$compiler_builtins..int..Int$GT$12wrapping_mul17h355876921f34d3edE
00000000 l    d  .text._ZN51_$LT$i64$u20$as$u20$compiler_builtins..int..Int$GT$12wrapping_sub17hab2c71ed25260a36E	00000000 .text._ZN51_$LT$i64$u20$as$u20$compiler_builtins..int..Int$GT$12wrapping_sub17hab2c71ed25260a36E
00000000 l    d  .text._ZN51_$LT$i64$u20$as$u20$compiler_builtins..int..Int$GT$12wrapping_shl17h9cb6b0fea82242d9E	00000000 .text._ZN51_$LT$i64$u20$as$u20$compiler_builtins..int..Int$GT$12wrapping_shl17h9cb6b0fea82242d9E
00000000 l    d  .text._ZN51_$LT$i64$u20$as$u20$compiler_builtins..int..Int$GT$15overflowing_add17hf2a83a1a50fbc16fE	00000000 .text._ZN51_$LT$i64$u20$as$u20$compiler_builtins..int..Int$GT$15overflowing_add17hf2a83a1a50fbc16fE
00000000 l    d  .text._ZN51_$LT$i64$u20$as$u20$compiler_builtins..int..Int$GT$12aborting_div17hfc8c410c2aab6cb0E	00000000 .text._ZN51_$LT$i64$u20$as$u20$compiler_builtins..int..Int$GT$12aborting_div17hfc8c410c2aab6cb0E
00000000 l    d  .text._ZN51_$LT$i64$u20$as$u20$compiler_builtins..int..Int$GT$12aborting_rem17h915ab6a088b8ab8bE	00000000 .text._ZN51_$LT$i64$u20$as$u20$compiler_builtins..int..Int$GT$12aborting_rem17h915ab6a088b8ab8bE
00000000 l    d  .text._ZN51_$LT$i64$u20$as$u20$compiler_builtins..int..Int$GT$13leading_zeros17hd06722f271716343E	00000000 .text._ZN51_$LT$i64$u20$as$u20$compiler_builtins..int..Int$GT$13leading_zeros17hd06722f271716343E
00000000 l    d  .text._ZN52_$LT$u128$u20$as$u20$compiler_builtins..int..Int$GT$12extract_sign17h54f5d9f6912932b4E	00000000 .text._ZN52_$LT$u128$u20$as$u20$compiler_builtins..int..Int$GT$12extract_sign17h54f5d9f6912932b4E
00000000 l    d  .text._ZN52_$LT$i128$u20$as$u20$compiler_builtins..int..Int$GT$12extract_sign17h9d8961dd365d2212E	00000000 .text._ZN52_$LT$i128$u20$as$u20$compiler_builtins..int..Int$GT$12extract_sign17h9d8961dd365d2212E
00000000 l    d  .text._ZN52_$LT$i128$u20$as$u20$compiler_builtins..int..Int$GT$13from_unsigned17h46eb238f8024026cE	00000000 .text._ZN52_$LT$i128$u20$as$u20$compiler_builtins..int..Int$GT$13from_unsigned17h46eb238f8024026cE
00000000 l    d  .text._ZN52_$LT$u128$u20$as$u20$compiler_builtins..int..Int$GT$9max_value17h8a7c76afc9c615ffE	00000000 .text._ZN52_$LT$u128$u20$as$u20$compiler_builtins..int..Int$GT$9max_value17h8a7c76afc9c615ffE
00000000 l    d  .text._ZN52_$LT$u128$u20$as$u20$compiler_builtins..int..Int$GT$9min_value17hee40099e11196ad3E	00000000 .text._ZN52_$LT$u128$u20$as$u20$compiler_builtins..int..Int$GT$9min_value17hee40099e11196ad3E
00000000 l    d  .text._ZN52_$LT$u128$u20$as$u20$compiler_builtins..int..Int$GT$15overflowing_add17h427042b03dbadd5dE	00000000 .text._ZN52_$LT$u128$u20$as$u20$compiler_builtins..int..Int$GT$15overflowing_add17h427042b03dbadd5dE
00000000 l    d  .text._ZN52_$LT$u128$u20$as$u20$compiler_builtins..int..Int$GT$12aborting_div17h27a57baa605fa62cE	00000000 .text._ZN52_$LT$u128$u20$as$u20$compiler_builtins..int..Int$GT$12aborting_div17h27a57baa605fa62cE
00000000 l    d  .text._ZN52_$LT$u128$u20$as$u20$compiler_builtins..int..Int$GT$12aborting_rem17h00ad1ff11268c56fE	00000000 .text._ZN52_$LT$u128$u20$as$u20$compiler_builtins..int..Int$GT$12aborting_rem17h00ad1ff11268c56fE
00000000 l    d  .text._ZN52_$LT$i128$u20$as$u20$compiler_builtins..int..Int$GT$9from_bool17h9be4e299856bec49E	00000000 .text._ZN52_$LT$i128$u20$as$u20$compiler_builtins..int..Int$GT$9from_bool17h9be4e299856bec49E
00000000 l    d  .text._ZN52_$LT$i128$u20$as$u20$compiler_builtins..int..Int$GT$9max_value17hf71a0b5f8136d1deE	00000000 .text._ZN52_$LT$i128$u20$as$u20$compiler_builtins..int..Int$GT$9max_value17hf71a0b5f8136d1deE
00000000 l    d  .text._ZN52_$LT$i128$u20$as$u20$compiler_builtins..int..Int$GT$9min_value17hc2cb32d55cb828b8E	00000000 .text._ZN52_$LT$i128$u20$as$u20$compiler_builtins..int..Int$GT$9min_value17hc2cb32d55cb828b8E
00000000 l    d  .text._ZN52_$LT$i128$u20$as$u20$compiler_builtins..int..Int$GT$12wrapping_add17h4f5617214a5602b2E	00000000 .text._ZN52_$LT$i128$u20$as$u20$compiler_builtins..int..Int$GT$12wrapping_add17h4f5617214a5602b2E
00000000 l    d  .text._ZN52_$LT$i128$u20$as$u20$compiler_builtins..int..Int$GT$12wrapping_mul17hb0fa787bb0399bceE	00000000 .text._ZN52_$LT$i128$u20$as$u20$compiler_builtins..int..Int$GT$12wrapping_mul17hb0fa787bb0399bceE
00000000 l    d  .text._ZN52_$LT$i128$u20$as$u20$compiler_builtins..int..Int$GT$12wrapping_sub17hac10a1a389091212E	00000000 .text._ZN52_$LT$i128$u20$as$u20$compiler_builtins..int..Int$GT$12wrapping_sub17hac10a1a389091212E
00000000 l    d  .text._ZN52_$LT$i128$u20$as$u20$compiler_builtins..int..Int$GT$12wrapping_shl17hf3fd9a091d8ca7afE	00000000 .text._ZN52_$LT$i128$u20$as$u20$compiler_builtins..int..Int$GT$12wrapping_shl17hf3fd9a091d8ca7afE
00000000 l    d  .text._ZN52_$LT$i128$u20$as$u20$compiler_builtins..int..Int$GT$15overflowing_add17h97923dff9358c8f1E	00000000 .text._ZN52_$LT$i128$u20$as$u20$compiler_builtins..int..Int$GT$15overflowing_add17h97923dff9358c8f1E
00000000 l    d  .text._ZN52_$LT$i128$u20$as$u20$compiler_builtins..int..Int$GT$12aborting_div17h268dde6fc0cc8311E	00000000 .text._ZN52_$LT$i128$u20$as$u20$compiler_builtins..int..Int$GT$12aborting_div17h268dde6fc0cc8311E
00000000 l    d  .text._ZN52_$LT$i128$u20$as$u20$compiler_builtins..int..Int$GT$12aborting_rem17h3b27c2da81205d13E	00000000 .text._ZN52_$LT$i128$u20$as$u20$compiler_builtins..int..Int$GT$12aborting_rem17h3b27c2da81205d13E
00000000 l    d  .text._ZN52_$LT$i128$u20$as$u20$compiler_builtins..int..Int$GT$13leading_zeros17he2388646cbcfbaf0E	00000000 .text._ZN52_$LT$i128$u20$as$u20$compiler_builtins..int..Int$GT$13leading_zeros17he2388646cbcfbaf0E
00000000 l    d  .text._ZN56_$LT$i64$u20$as$u20$compiler_builtins..int..LargeInt$GT$3low17hab22e0c7935ffddeE	00000000 .text._ZN56_$LT$i64$u20$as$u20$compiler_builtins..int..LargeInt$GT$3low17hab22e0c7935ffddeE
00000000 l    d  .text._ZN56_$LT$i64$u20$as$u20$compiler_builtins..int..LargeInt$GT$4high17h36e5923a9920504eE	00000000 .text._ZN56_$LT$i64$u20$as$u20$compiler_builtins..int..LargeInt$GT$4high17h36e5923a9920504eE
00000000 l    d  .text._ZN56_$LT$i64$u20$as$u20$compiler_builtins..int..LargeInt$GT$10from_parts17h6771ef238b646afeE	00000000 .text._ZN56_$LT$i64$u20$as$u20$compiler_builtins..int..LargeInt$GT$10from_parts17h6771ef238b646afeE
00000000 l    d  .text._ZN57_$LT$i128$u20$as$u20$compiler_builtins..int..LargeInt$GT$3low17h6fc60cc7c251eaf4E	00000000 .text._ZN57_$LT$i128$u20$as$u20$compiler_builtins..int..LargeInt$GT$3low17h6fc60cc7c251eaf4E
00000000 l    d  .text._ZN57_$LT$i128$u20$as$u20$compiler_builtins..int..LargeInt$GT$4high17hda152460f860e7eaE	00000000 .text._ZN57_$LT$i128$u20$as$u20$compiler_builtins..int..LargeInt$GT$4high17hda152460f860e7eaE
00000000 l    d  .text._ZN57_$LT$i128$u20$as$u20$compiler_builtins..int..LargeInt$GT$10from_parts17h4b05453ca62bce04E	00000000 .text._ZN57_$LT$i128$u20$as$u20$compiler_builtins..int..LargeInt$GT$10from_parts17h4b05453ca62bce04E
00000000 l    d  .text._ZN67_$LT$u32$u20$as$u20$compiler_builtins..int..CastInto$LT$i64$GT$$GT$4cast17hc9fef88750a9416eE	00000000 .text._ZN67_$LT$u32$u20$as$u20$compiler_builtins..int..CastInto$LT$i64$GT$$GT$4cast17hc9fef88750a9416eE
00000000 l    d  .text._ZN68_$LT$u32$u20$as$u20$compiler_builtins..int..CastInto$LT$i128$GT$$GT$4cast17h21aedfda4e7a0525E	00000000 .text._ZN68_$LT$u32$u20$as$u20$compiler_builtins..int..CastInto$LT$i128$GT$$GT$4cast17h21aedfda4e7a0525E
00000000 l    d  .text._ZN67_$LT$i32$u20$as$u20$compiler_builtins..int..CastInto$LT$i64$GT$$GT$4cast17h26dc26ff041e24bbE	00000000 .text._ZN67_$LT$i32$u20$as$u20$compiler_builtins..int..CastInto$LT$i64$GT$$GT$4cast17h26dc26ff041e24bbE
00000000 l    d  .text._ZN68_$LT$i32$u20$as$u20$compiler_builtins..int..CastInto$LT$i128$GT$$GT$4cast17h6667ed2402f2130bE	00000000 .text._ZN68_$LT$i32$u20$as$u20$compiler_builtins..int..CastInto$LT$i128$GT$$GT$4cast17h6667ed2402f2130bE
00000000 l    d  .text._ZN68_$LT$u64$u20$as$u20$compiler_builtins..int..CastInto$LT$i128$GT$$GT$4cast17ha5e94be2abc73f48E	00000000 .text._ZN68_$LT$u64$u20$as$u20$compiler_builtins..int..CastInto$LT$i128$GT$$GT$4cast17ha5e94be2abc73f48E
00000000 l    d  .text._ZN68_$LT$i64$u20$as$u20$compiler_builtins..int..CastInto$LT$i128$GT$$GT$4cast17hc963927caff004deE	00000000 .text._ZN68_$LT$i64$u20$as$u20$compiler_builtins..int..CastInto$LT$i128$GT$$GT$4cast17hc963927caff004deE
00000000 l    d  .text._ZN68_$LT$i128$u20$as$u20$compiler_builtins..int..CastInto$LT$i32$GT$$GT$4cast17h6d5240993509f82eE	00000000 .text._ZN68_$LT$i128$u20$as$u20$compiler_builtins..int..CastInto$LT$i32$GT$$GT$4cast17h6d5240993509f82eE
00000000 l    d  .text._ZN55_$LT$u32$u20$as$u20$compiler_builtins..int..WideInt$GT$8wide_mul17h42ad4962ba9037e9E	00000000 .text._ZN55_$LT$u32$u20$as$u20$compiler_builtins..int..WideInt$GT$8wide_mul17h42ad4962ba9037e9E
00000000 l    d  .text._ZN55_$LT$u32$u20$as$u20$compiler_builtins..int..WideInt$GT$15wide_shift_left17h313bc0d781de8304E	00000000 .text._ZN55_$LT$u32$u20$as$u20$compiler_builtins..int..WideInt$GT$15wide_shift_left17h313bc0d781de8304E
00000000 l    d  .text._ZN55_$LT$u32$u20$as$u20$compiler_builtins..int..WideInt$GT$28wide_shift_right_with_sticky17h8109bdc72e06bfdcE	00000000 .text._ZN55_$LT$u32$u20$as$u20$compiler_builtins..int..WideInt$GT$28wide_shift_right_with_sticky17h8109bdc72e06bfdcE
00000000 l    d  .text._ZN55_$LT$u64$u20$as$u20$compiler_builtins..int..WideInt$GT$8wide_mul17hda13b9597728566bE	00000000 .text._ZN55_$LT$u64$u20$as$u20$compiler_builtins..int..WideInt$GT$8wide_mul17hda13b9597728566bE
00000000 l    d  .text._ZN55_$LT$u64$u20$as$u20$compiler_builtins..int..WideInt$GT$15wide_shift_left17h29b3f43e358ad09cE	00000000 .text._ZN55_$LT$u64$u20$as$u20$compiler_builtins..int..WideInt$GT$15wide_shift_left17h29b3f43e358ad09cE
00000000 l    d  .text._ZN55_$LT$u64$u20$as$u20$compiler_builtins..int..WideInt$GT$28wide_shift_right_with_sticky17h498f9ce8c9e4ba3cE	00000000 .text._ZN55_$LT$u64$u20$as$u20$compiler_builtins..int..WideInt$GT$28wide_shift_right_with_sticky17h498f9ce8c9e4ba3cE
00000000 l    d  .text.__clzsi2	00000000 .text.__clzsi2
00000000 l    d  .text.__floatsisf	00000000 .text.__floatsisf
00000000 l    d  .text.__aeabi_i2f	00000000 .text.__aeabi_i2f
00000000 l    d  .text.__floatsidf	00000000 .text.__floatsidf
00000000 l    d  .text.__aeabi_i2d	00000000 .text.__aeabi_i2d
00000000 l    d  .text.__floatdisf	00000000 .text.__floatdisf
00000000 l    d  .text.__aeabi_l2f	00000000 .text.__aeabi_l2f
00000000 l    d  .text.__floatdidf	00000000 .text.__floatdidf
00000000 l    d  .text.__aeabi_l2d	00000000 .text.__aeabi_l2d
00000000 l    d  .text.__floattisf	00000000 .text.__floattisf
00000000 l    d  .text.__floattidf	00000000 .text.__floattidf
00000000 l    d  .text.__floatunsisf	00000000 .text.__floatunsisf
00000000 l    d  .text.__aeabi_ui2f	00000000 .text.__aeabi_ui2f
00000000 l    d  .text.__floatunsidf	00000000 .text.__floatunsidf
00000000 l    d  .text.__aeabi_ui2d	00000000 .text.__aeabi_ui2d
00000000 l    d  .text.__floatundisf	00000000 .text.__floatundisf
00000000 l    d  .text.__aeabi_ul2f	00000000 .text.__aeabi_ul2f
00000000 l    d  .text.__floatundidf	00000000 .text.__floatundidf
00000000 l    d  .text.__aeabi_ul2d	00000000 .text.__aeabi_ul2d
00000000 l    d  .text.__floatuntisf	00000000 .text.__floatuntisf
00000000 l    d  .text.__floatuntidf	00000000 .text.__floatuntidf
00000000 l    d  .text.__fixsfsi	00000000 .text.(float, int, long long, short, float, short, int)
00000000 l    d  .text.__aeabi_f2iz	00000000 .text.__aeabi_f2iz
00000000 l    d  .text.__fixsfdi	00000000 .text.(float, int, long long, short, float, double, int)
00000000 l    d  .text.__aeabi_f2lz	00000000 .text.__aeabi_f2lz
00000000 l    d  .text.__fixsfti	00000000 .text.__fixsfti
00000000 l    d  .text.__fixdfsi	00000000 .text.(float, int, long long, double, float, short, int)
00000000 l    d  .text.__aeabi_d2iz	00000000 .text.__aeabi_d2iz
00000000 l    d  .text.__fixdfdi	00000000 .text.(float, int, long long, double, float, double, int)
00000000 l    d  .text.__aeabi_d2lz	00000000 .text.__aeabi_d2lz
00000000 l    d  .text.__fixdfti	00000000 .text.__fixdfti
00000000 l    d  .text.__fixunssfsi	00000000 .text.__fixunssfsi
00000000 l    d  .text.__aeabi_f2uiz	00000000 .text.__aeabi_f2uiz
00000000 l    d  .text.__fixunssfdi	00000000 .text.__fixunssfdi
00000000 l    d  .text.__aeabi_f2ulz	00000000 .text.__aeabi_f2ulz
00000000 l    d  .text.__fixunssfti	00000000 .text.__fixunssfti
00000000 l    d  .text.__fixunsdfsi	00000000 .text.__fixunsdfsi
00000000 l    d  .text.__aeabi_d2uiz	00000000 .text.__aeabi_d2uiz
00000000 l    d  .text.__fixunsdfdi	00000000 .text.__fixunsdfdi
00000000 l    d  .text.__aeabi_d2ulz	00000000 .text.__aeabi_d2ulz
00000000 l    d  .text.__fixunsdfti	00000000 .text.__fixunsdfti
00000000 l    d  .text.__gesf2	00000000 .text.__gesf2
00000000 l    d  .text.__unordsf2	00000000 .text.__unordsf2
00000000 l    d  .text.__aeabi_fcmpun	00000000 .text.__aeabi_fcmpun
00000000 l    d  .text.__eqsf2	00000000 .text.__eqsf2
00000000 l    d  .text.__gedf2	00000000 .text.__gedf2
00000000 l    d  .text.__unorddf2	00000000 .text.__unorddf2
00000000 l    d  .text.__aeabi_dcmpun	00000000 .text.__aeabi_dcmpun
00000000 l    d  .text.__eqdf2	00000000 .text.__eqdf2
00000000 l    d  .text.__aeabi_fcmple	00000000 .text.__aeabi_fcmple
00000000 l    d  .text.__aeabi_fcmpge	00000000 .text.__aeabi_fcmpge
00000000 l    d  .text.__aeabi_fcmpeq	00000000 .text.__aeabi_fcmpeq
00000000 l    d  .text.__aeabi_fcmplt	00000000 .text.__aeabi_fcmplt
00000000 l    d  .text.__aeabi_fcmpgt	00000000 .text.__aeabi_fcmpgt
00000000 l    d  .text.__aeabi_dcmple	00000000 .text.__aeabi_dcmple
00000000 l    d  .text.__aeabi_dcmpge	00000000 .text.__aeabi_dcmpge
00000000 l    d  .text.__aeabi_dcmpeq	00000000 .text.__aeabi_dcmpeq
00000000 l    d  .text.__aeabi_dcmplt	00000000 .text.__aeabi_dcmplt
00000000 l    d  .text.__aeabi_dcmpgt	00000000 .text.__aeabi_dcmpgt
00000000 l    d  .text.__gesf2vfp	00000000 .text.__gesf2vfp
00000000 l    d  .text.__gedf2vfp	00000000 .text.__gedf2vfp
00000000 l    d  .text.__gtsf2vfp	00000000 .text.__gtsf2vfp
00000000 l    d  .text.__gtdf2vfp	00000000 .text.__gtdf2vfp
00000000 l    d  .text.__ltsf2vfp	00000000 .text.__ltsf2vfp
00000000 l    d  .text.__ltdf2vfp	00000000 .text.__ltdf2vfp
00000000 l    d  .text.__lesf2vfp	00000000 .text.(long,...)(short, float, vf,  *)
00000000 l    d  .text.__ledf2vfp	00000000 .text.(long,...)(double, float, vf,  *)
00000000 l    d  .text.__nesf2vfp	00000000 .text.__nesf2vfp
00000000 l    d  .text.__nedf2vfp	00000000 .text.__nedf2vfp
00000000 l    d  .text.__eqsf2vfp	00000000 .text.__eqsf2vfp
00000000 l    d  .text.__eqdf2vfp	00000000 .text.__eqdf2vfp
00000000 l    d  .text.__addsf3	00000000 .text.__addsf3
00000000 l    d  .text.__aeabi_fadd	00000000 .text.__aeabi_fadd
00000000 l    d  .text.__adddf3	00000000 .text.__adddf3
00000000 l    d  .text.__aeabi_dadd	00000000 .text.__aeabi_dadd
00000000 l    d  .text.__addsf3vfp	00000000 .text.__addsf3vfp
00000000 l    d  .text.__adddf3vfp	00000000 .text.__adddf3vfp
00000000 l    d  .text.__powisf2	00000000 .text.__powisf2
00000000 l    d  .text.__powidf2	00000000 .text.__powidf2
00000000 l    d  .text.__subsf3	00000000 .text.__subsf3
00000000 l    d  .text.__aeabi_fsub	00000000 .text.__aeabi_fsub
00000000 l    d  .text.__subdf3	00000000 .text.__subdf3
00000000 l    d  .text.__aeabi_dsub	00000000 .text.__aeabi_dsub
00000000 l    d  .text.__subsf3vfp	00000000 .text.(short, bool __restrict, short, float, vfp)
00000000 l    d  .text.__subdf3vfp	00000000 .text.(short, bool __restrict, double, float, vfp)
00000000 l    d  .text.__mulsf3	00000000 .text.__mulsf3
00000000 l    d  .text.__aeabi_fmul	00000000 .text.__aeabi_fmul
00000000 l    d  .text.__muldf3	00000000 .text.__muldf3
00000000 l    d  .text.__aeabi_dmul	00000000 .text.__aeabi_dmul
00000000 l    d  .text.__mulsf3vfp	00000000 .text.__mulsf3vfp
00000000 l    d  .text.__muldf3vfp	00000000 .text.__muldf3vfp
00000000 l    d  .text.__divsf3	00000000 .text.__divsf3
00000000 l    d  .text.__aeabi_fdiv	00000000 .text.__aeabi_fdiv
00000000 l    d  .text.__divdf3	00000000 .text.__divdf3
00000000 l    d  .text.__aeabi_ddiv	00000000 .text.__aeabi_ddiv
00000000 l    d  .text.__divsf3vfp	00000000 .text.(double, int, void, short, float, vfp)
00000000 l    d  .text.__divdf3vfp	00000000 .text.(double, int, void, double, float, vfp)
00000000 l    d  .text.__aeabi_f2d	00000000 .text.__aeabi_f2d
00000000 l    d  .text.__extendsfdf2vfp	00000000 .text.__extendsfdf2vfp
00000000 l    d  .text._ZN55_$LT$f32$u20$as$u20$compiler_builtins..float..Float$GT$11signed_repr17hf0ed93956b902812E	00000000 .text._ZN55_$LT$f32$u20$as$u20$compiler_builtins..float..Float$GT$11signed_repr17hf0ed93956b902812E
00000000 l    d  .text._ZN55_$LT$f32$u20$as$u20$compiler_builtins..float..Float$GT$9from_repr17h54017aa9053fbe21E	00000000 .text._ZN55_$LT$f32$u20$as$u20$compiler_builtins..float..Float$GT$9from_repr17h54017aa9053fbe21E
00000000 l    d  .text._ZN55_$LT$f32$u20$as$u20$compiler_builtins..float..Float$GT$10from_parts17h520e72223ba72e43E	00000000 .text._ZN55_$LT$f32$u20$as$u20$compiler_builtins..float..Float$GT$10from_parts17h520e72223ba72e43E
00000000 l    d  .text._ZN55_$LT$f32$u20$as$u20$compiler_builtins..float..Float$GT$9normalize17h49a2612df8824186E	00000000 .text._ZN55_$LT$f32$u20$as$u20$compiler_builtins..float..Float$GT$9normalize17h49a2612df8824186E
00000000 l    d  .text._ZN55_$LT$f64$u20$as$u20$compiler_builtins..float..Float$GT$11signed_repr17hdb5d10c47536870bE	00000000 .text._ZN55_$LT$f64$u20$as$u20$compiler_builtins..float..Float$GT$11signed_repr17hdb5d10c47536870bE
00000000 l    d  .text._ZN55_$LT$f64$u20$as$u20$compiler_builtins..float..Float$GT$9from_repr17h74667411c3d40656E	00000000 .text._ZN55_$LT$f64$u20$as$u20$compiler_builtins..float..Float$GT$9from_repr17h74667411c3d40656E
00000000 l    d  .text._ZN55_$LT$f64$u20$as$u20$compiler_builtins..float..Float$GT$10from_parts17h0c4d4fd83cc3a52aE	00000000 .text._ZN55_$LT$f64$u20$as$u20$compiler_builtins..float..Float$GT$10from_parts17h0c4d4fd83cc3a52aE
00000000 l    d  .text._ZN55_$LT$f64$u20$as$u20$compiler_builtins..float..Float$GT$9normalize17h32270a1a68f34ff6E	00000000 .text._ZN55_$LT$f64$u20$as$u20$compiler_builtins..float..Float$GT$9normalize17h32270a1a68f34ff6E
00000000 l    d  .text.fmod	00000000 .text.fmod
00000000 l    d  .text.fmodf	00000000 .text.fmodf
00000000 l    d  .debug_abbrev	00000000 .debug_abbrev
00000000 l    d  .debug_ranges	00000000 .debug_ranges
00000000 l    d  .debug_frame	00000000 .debug_frame
00000000 l    d  .debug_line	00000000 .debug_line
00000000 g     F .text._ZN17compiler_builtins3int3mul13rust_i128_mul17hee060e4cf574d250E	00000062 .hidden compiler_builtins::int::mul::rust_i128_mul
00000000 g     F .text._ZN17compiler_builtins3int3mul13rust_i128_mul17hee060e4cf574d250E	00000062 .hidden compiler_builtins::int::mul::rust_u128_mul
00000000 g     F .text._ZN17compiler_builtins3int3mul14rust_i128_mulo17h7dbac307fda3729eE	00000182 .hidden compiler_builtins::int::mul::rust_i128_mulo
00000000 g     F .text._ZN17compiler_builtins3int3mul14rust_u128_mulo17h9cdaa35554bdafd2E	00000080 .hidden compiler_builtins::int::mul::rust_u128_mulo
00000000 g     F .text._ZN17compiler_builtins3int4sdiv11__divmodsi417h15a785fc4c4609ccE	00000004 .hidden compiler_builtins::int::sdiv::__divmodsi4
00000000 g     F .text._ZN17compiler_builtins3int4sdiv13rust_i128_div17hba816bd7aff5f749E	00000082 .hidden compiler_builtins::int::sdiv::rust_i128_div
00000000 g     F .text._ZN17compiler_builtins3int4sdiv13rust_i128_rem17hd7698bbb5a017427E	00000076 .hidden compiler_builtins::int::sdiv::rust_i128_rem
00000000 g     F .text._ZN17compiler_builtins3int4sdiv8__modsi317ha55d12a915c783ffE	00000004 .hidden compiler_builtins::int::sdiv::__modsi3
00000000 g     F .text._ZN17compiler_builtins3int4udiv12__udivmodsi417h9cf0f22494bf3884E	00000004 .hidden compiler_builtins::int::udiv::__udivmodsi4
00000000 g     F .text._ZN17compiler_builtins3int4udiv13rust_u128_div17h126d1909db3140ffE	00000034 .hidden compiler_builtins::int::udiv::rust_u128_div
00000000 g     F .text._ZN17compiler_builtins3int4udiv13rust_u128_rem17hd6298656faf5ac7aE	00000044 .hidden compiler_builtins::int::udiv::rust_u128_rem
00000000 g     F .text._ZN17compiler_builtins3int4udiv9__umodsi317h64b67705e2fe5457E	00000004 .hidden compiler_builtins::int::udiv::__umodsi3
00000000 g     F .text._ZN17compiler_builtins3int5shift13rust_i128_shl17hb3618dc516d362bfE	000000b2 .hidden compiler_builtins::int::shift::rust_i128_shl
00000000 g     F .text._ZN17compiler_builtins3int5shift13rust_i128_shr17h3a8269e86e1552deE	000000b4 .hidden compiler_builtins::int::shift::rust_i128_shr
00000000 g     F .text._ZN17compiler_builtins3int5shift13rust_i128_shl17hb3618dc516d362bfE	000000b2 .hidden compiler_builtins::int::shift::rust_u128_shl
00000000 g     F .text._ZN17compiler_builtins3int5shift13rust_u128_shr17hff924baacf55883dE	000000b4 .hidden compiler_builtins::int::shift::rust_u128_shr
00000000 g     F .text._ZN17compiler_builtins3int5shift14rust_i128_shlo17hd92352339c832a35E	000000f8 .hidden compiler_builtins::int::shift::rust_i128_shlo
00000000 g     F .text._ZN17compiler_builtins3int5shift14rust_i128_shro17ha7d04b67e033b50aE	000000fc .hidden compiler_builtins::int::shift::rust_i128_shro
00000000 g     F .text._ZN17compiler_builtins3int5shift14rust_i128_shlo17hd92352339c832a35E	000000f8 .hidden compiler_builtins::int::shift::rust_u128_shlo
00000000 g     F .text._ZN17compiler_builtins3int5shift14rust_u128_shro17h0a5feea8783a26e2E	000000fa .hidden compiler_builtins::int::shift::rust_u128_shro
00000000 g     F .text._ZN17compiler_builtins3int6addsub13rust_i128_add17hc1690810c99a2fbaE	00000022 .hidden compiler_builtins::int::addsub::rust_i128_add
00000000 g     F .text._ZN17compiler_builtins3int6addsub13rust_i128_sub17hb52b2568dc550873E	0000004a .hidden compiler_builtins::int::addsub::rust_i128_sub
00000000 g     F .text._ZN17compiler_builtins3int6addsub13rust_i128_add17hc1690810c99a2fbaE	00000022 .hidden compiler_builtins::int::addsub::rust_u128_add
00000000 g     F .text._ZN17compiler_builtins3int6addsub13rust_i128_sub17hb52b2568dc550873E	0000004a .hidden compiler_builtins::int::addsub::rust_u128_sub
00000000 g     F .text._ZN17compiler_builtins3int6addsub14rust_i128_addo17h7b6ea810664b46deE	00000054 .hidden compiler_builtins::int::addsub::rust_i128_addo
00000000 g     F .text._ZN17compiler_builtins3int6addsub14rust_i128_subo17h809f0ec4bb6a5987E	00000084 .hidden compiler_builtins::int::addsub::rust_i128_subo
00000000 g     F .text._ZN17compiler_builtins3int6addsub14rust_u128_addo17h63ee12c6b1f04fdfE	00000046 .hidden compiler_builtins::int::addsub::rust_u128_addo
00000000 g     F .text._ZN17compiler_builtins3int6addsub14rust_u128_subo17h4cf17d0e34c7d2ffE	0000006e .hidden compiler_builtins::int::addsub::rust_u128_subo
00000000 g     F .text._ZN51_$LT$i32$u20$as$u20$compiler_builtins..int..Int$GT$12aborting_div17h639bbfcbc7f6e051E	00000018 .hidden <i32 as compiler_builtins::int::Int>::aborting_div
00000000 g     F .text._ZN51_$LT$i32$u20$as$u20$compiler_builtins..int..Int$GT$12aborting_rem17hbfec48ea99737c40E	0000001c .hidden <i32 as compiler_builtins::int::Int>::aborting_rem
00000000 g     F .text._ZN51_$LT$i32$u20$as$u20$compiler_builtins..int..Int$GT$12extract_sign17h59aff4784251113aE	0000000c .hidden <i32 as compiler_builtins::int::Int>::extract_sign
00000000 g     F .text._ZN51_$LT$i32$u20$as$u20$compiler_builtins..int..Int$GT$12wrapping_add17hb39f70ea35030430E	00000004 .hidden <i32 as compiler_builtins::int::Int>::wrapping_add
00000000 g     F .text._ZN51_$LT$i32$u20$as$u20$compiler_builtins..int..Int$GT$12wrapping_mul17hdf40fbc326f60bb8E	00000004 .hidden <i32 as compiler_builtins::int::Int>::wrapping_mul
00000000 g     F .text._ZN51_$LT$i32$u20$as$u20$compiler_builtins..int..Int$GT$12wrapping_shl17h19bd9310d067da86E	00000008 .hidden <i32 as compiler_builtins::int::Int>::wrapping_shl
00000000 g     F .text._ZN51_$LT$i32$u20$as$u20$compiler_builtins..int..Int$GT$12wrapping_sub17hbaffacd5e0e4f3a4E	00000004 .hidden <i32 as compiler_builtins::int::Int>::wrapping_sub
00000000 g     F .text._ZN51_$LT$i32$u20$as$u20$compiler_builtins..int..Int$GT$13from_unsigned17h912ba4681c884616E	00000002 .hidden <i32 as compiler_builtins::int::Int>::from_unsigned
00000000 g     F .text._ZN51_$LT$i32$u20$as$u20$compiler_builtins..int..Int$GT$13leading_zeros17h493896b73a4e3913E	00000006 .hidden <i32 as compiler_builtins::int::Int>::leading_zeros
00000000 g     F .text._ZN51_$LT$i32$u20$as$u20$compiler_builtins..int..Int$GT$15overflowing_add17hbfefb848da74fd48E	0000000c .hidden <i32 as compiler_builtins::int::Int>::overflowing_add
00000000 g     F .text._ZN51_$LT$i32$u20$as$u20$compiler_builtins..int..Int$GT$13from_unsigned17h912ba4681c884616E	00000002 .hidden <i32 as compiler_builtins::int::Int>::unsigned
00000000 g     F .text._ZN51_$LT$i32$u20$as$u20$compiler_builtins..int..Int$GT$9from_bool17h5ce29bcefc738cd3E	00000002 .hidden <i32 as compiler_builtins::int::Int>::from_bool
00000000 g     F .text._ZN51_$LT$i32$u20$as$u20$compiler_builtins..int..Int$GT$9max_value17hdb9ce960eb51b051E	00000006 .hidden <i32 as compiler_builtins::int::Int>::max_value
00000000 g     F .text._ZN51_$LT$i32$u20$as$u20$compiler_builtins..int..Int$GT$9min_value17h1224b5d40c822689E	00000006 .hidden <i32 as compiler_builtins::int::Int>::min_value
00000000 g     F .text._ZN51_$LT$i64$u20$as$u20$compiler_builtins..int..Int$GT$12aborting_div17hfc8c410c2aab6cb0E	00000038 .hidden <i64 as compiler_builtins::int::Int>::aborting_div
00000000 g     F .text._ZN51_$LT$i64$u20$as$u20$compiler_builtins..int..Int$GT$12aborting_rem17h915ab6a088b8ab8bE	0000003c .hidden <i64 as compiler_builtins::int::Int>::aborting_rem
00000000 g     F .text._ZN51_$LT$i64$u20$as$u20$compiler_builtins..int..Int$GT$12extract_sign17h83e3ddee6223dd9cE	00000016 .hidden <i64 as compiler_builtins::int::Int>::extract_sign
00000000 g     F .text._ZN51_$LT$i64$u20$as$u20$compiler_builtins..int..Int$GT$12wrapping_add17hc307005aec61ad80E	00000006 .hidden <i64 as compiler_builtins::int::Int>::wrapping_add
00000000 g     F .text._ZN51_$LT$i64$u20$as$u20$compiler_builtins..int..Int$GT$12wrapping_mul17h355876921f34d3edE	00000012 .hidden <i64 as compiler_builtins::int::Int>::wrapping_mul
00000000 g     F .text._ZN51_$LT$i64$u20$as$u20$compiler_builtins..int..Int$GT$12wrapping_shl17h9cb6b0fea82242d9E	00000026 .hidden <i64 as compiler_builtins::int::Int>::wrapping_shl
00000000 g     F .text._ZN51_$LT$i64$u20$as$u20$compiler_builtins..int..Int$GT$12wrapping_sub17hab2c71ed25260a36E	00000006 .hidden <i64 as compiler_builtins::int::Int>::wrapping_sub
00000000 g     F .text._ZN51_$LT$i64$u20$as$u20$compiler_builtins..int..Int$GT$13from_unsigned17h1afee29cc1c7acb7E	00000002 .hidden <i64 as compiler_builtins::int::Int>::from_unsigned
00000000 g     F .text._ZN51_$LT$i64$u20$as$u20$compiler_builtins..int..Int$GT$13leading_zeros17hd06722f271716343E	00000012 .hidden <i64 as compiler_builtins::int::Int>::leading_zeros
00000000 g     F .text._ZN51_$LT$i64$u20$as$u20$compiler_builtins..int..Int$GT$15overflowing_add17hf2a83a1a50fbc16fE	00000042 .hidden <i64 as compiler_builtins::int::Int>::overflowing_add
00000000 g     F .text._ZN51_$LT$i64$u20$as$u20$compiler_builtins..int..Int$GT$13from_unsigned17h1afee29cc1c7acb7E	00000002 .hidden <i64 as compiler_builtins::int::Int>::unsigned
00000000 g     F .text._ZN51_$LT$i64$u20$as$u20$compiler_builtins..int..Int$GT$9from_bool17h2985c7fff1557d13E	00000004 .hidden <i64 as compiler_builtins::int::Int>::from_bool
00000000 g     F .text._ZN51_$LT$i64$u20$as$u20$compiler_builtins..int..Int$GT$9max_value17h38a927b2268cd881E	0000000a .hidden <i64 as compiler_builtins::int::Int>::max_value
00000000 g     F .text._ZN51_$LT$i64$u20$as$u20$compiler_builtins..int..Int$GT$9min_value17h4ba184aca481ae0aE	00000008 .hidden <i64 as compiler_builtins::int::Int>::min_value
00000000 g     F .text._ZN51_$LT$u32$u20$as$u20$compiler_builtins..int..Int$GT$12aborting_div17hd8eecf1c06795427E	0000000e .hidden <u32 as compiler_builtins::int::Int>::aborting_div
00000000 g     F .text._ZN51_$LT$u32$u20$as$u20$compiler_builtins..int..Int$GT$12aborting_rem17h39cc4c01441f9605E	00000012 .hidden <u32 as compiler_builtins::int::Int>::aborting_rem
00000000 g     F .text._ZN51_$LT$u32$u20$as$u20$compiler_builtins..int..Int$GT$12extract_sign17h33adf43c30dffd40E	00000006 .hidden <u32 as compiler_builtins::int::Int>::extract_sign
00000000 g     F .text._ZN51_$LT$i32$u20$as$u20$compiler_builtins..int..Int$GT$12wrapping_add17hb39f70ea35030430E	00000004 .hidden <u32 as compiler_builtins::int::Int>::wrapping_add
00000000 g     F .text._ZN51_$LT$i32$u20$as$u20$compiler_builtins..int..Int$GT$12wrapping_mul17hdf40fbc326f60bb8E	00000004 .hidden <u32 as compiler_builtins::int::Int>::wrapping_mul
00000000 g     F .text._ZN51_$LT$i32$u20$as$u20$compiler_builtins..int..Int$GT$12wrapping_shl17h19bd9310d067da86E	00000008 .hidden <u32 as compiler_builtins::int::Int>::wrapping_shl
00000000 g     F .text._ZN51_$LT$i32$u20$as$u20$compiler_builtins..int..Int$GT$12wrapping_sub17hbaffacd5e0e4f3a4E	00000004 .hidden <u32 as compiler_builtins::int::Int>::wrapping_sub
00000000 g     F .text._ZN51_$LT$i32$u20$as$u20$compiler_builtins..int..Int$GT$13from_unsigned17h912ba4681c884616E	00000002 .hidden <u32 as compiler_builtins::int::Int>::from_unsigned
00000000 g     F .text._ZN51_$LT$i32$u20$as$u20$compiler_builtins..int..Int$GT$13leading_zeros17h493896b73a4e3913E	00000006 .hidden <u32 as compiler_builtins::int::Int>::leading_zeros
00000000 g     F .text._ZN51_$LT$u32$u20$as$u20$compiler_builtins..int..Int$GT$15overflowing_add17h06eb618729cc02ffE	0000000c .hidden <u32 as compiler_builtins::int::Int>::overflowing_add
00000000 g     F .text._ZN51_$LT$i32$u20$as$u20$compiler_builtins..int..Int$GT$13from_unsigned17h912ba4681c884616E	00000002 .hidden <u32 as compiler_builtins::int::Int>::unsigned
00000000 g     F .text._ZN51_$LT$i32$u20$as$u20$compiler_builtins..int..Int$GT$9from_bool17h5ce29bcefc738cd3E	00000002 .hidden <u32 as compiler_builtins::int::Int>::from_bool
00000000 g     F .text._ZN51_$LT$u32$u20$as$u20$compiler_builtins..int..Int$GT$9max_value17h29aad6492bdd7a34E	00000006 .hidden <u32 as compiler_builtins::int::Int>::max_value
00000000 g     F .text._ZN51_$LT$u32$u20$as$u20$compiler_builtins..int..Int$GT$9min_value17h1d6e54bc61bbfdbfE	00000004 .hidden <u32 as compiler_builtins::int::Int>::min_value
00000000 g     F .text._ZN51_$LT$u64$u20$as$u20$compiler_builtins..int..Int$GT$12aborting_div17hc0244a985da9e5d7E	00000012 .hidden <u64 as compiler_builtins::int::Int>::aborting_div
00000000 g     F .text._ZN51_$LT$u64$u20$as$u20$compiler_builtins..int..Int$GT$12aborting_rem17hc5259316a099a85eE	00000016 .hidden <u64 as compiler_builtins::int::Int>::aborting_rem
00000000 g     F .text._ZN51_$LT$u64$u20$as$u20$compiler_builtins..int..Int$GT$12extract_sign17h71b2b4864ef7bc8cE	00000008 .hidden <u64 as compiler_builtins::int::Int>::extract_sign
00000000 g     F .text._ZN51_$LT$i64$u20$as$u20$compiler_builtins..int..Int$GT$12wrapping_add17hc307005aec61ad80E	00000006 .hidden <u64 as compiler_builtins::int::Int>::wrapping_add
00000000 g     F .text._ZN51_$LT$i64$u20$as$u20$compiler_builtins..int..Int$GT$12wrapping_mul17h355876921f34d3edE	00000012 .hidden <u64 as compiler_builtins::int::Int>::wrapping_mul
00000000 g     F .text._ZN51_$LT$i64$u20$as$u20$compiler_builtins..int..Int$GT$12wrapping_shl17h9cb6b0fea82242d9E	00000026 .hidden <u64 as compiler_builtins::int::Int>::wrapping_shl
00000000 g     F .text._ZN51_$LT$i64$u20$as$u20$compiler_builtins..int..Int$GT$12wrapping_sub17hab2c71ed25260a36E	00000006 .hidden <u64 as compiler_builtins::int::Int>::wrapping_sub
00000000 g     F .text._ZN51_$LT$i64$u20$as$u20$compiler_builtins..int..Int$GT$13from_unsigned17h1afee29cc1c7acb7E	00000002 .hidden <u64 as compiler_builtins::int::Int>::from_unsigned
00000000 g     F .text._ZN51_$LT$i64$u20$as$u20$compiler_builtins..int..Int$GT$13leading_zeros17hd06722f271716343E	00000012 .hidden <u64 as compiler_builtins::int::Int>::leading_zeros
00000000 g     F .text._ZN51_$LT$u64$u20$as$u20$compiler_builtins..int..Int$GT$15overflowing_add17h3328873e68c8d23fE	0000000e .hidden <u64 as compiler_builtins::int::Int>::overflowing_add
00000000 g     F .text._ZN51_$LT$i64$u20$as$u20$compiler_builtins..int..Int$GT$13from_unsigned17h1afee29cc1c7acb7E	00000002 .hidden <u64 as compiler_builtins::int::Int>::unsigned
00000000 g     F .text._ZN51_$LT$i64$u20$as$u20$compiler_builtins..int..Int$GT$9from_bool17h2985c7fff1557d13E	00000004 .hidden <u64 as compiler_builtins::int::Int>::from_bool
00000000 g     F .text._ZN51_$LT$u64$u20$as$u20$compiler_builtins..int..Int$GT$9max_value17h9309223f57092cc4E	0000000a .hidden <u64 as compiler_builtins::int::Int>::max_value
00000000 g     F .text._ZN51_$LT$u64$u20$as$u20$compiler_builtins..int..Int$GT$9min_value17h6657c7e8f4ee069dE	00000006 .hidden <u64 as compiler_builtins::int::Int>::min_value
00000000 g     F .text._ZN52_$LT$i128$u20$as$u20$compiler_builtins..int..Int$GT$12aborting_div17h268dde6fc0cc8311E	0000004e .hidden <i128 as compiler_builtins::int::Int>::aborting_div
00000000 g     F .text._ZN52_$LT$i128$u20$as$u20$compiler_builtins..int..Int$GT$12aborting_rem17h3b27c2da81205d13E	0000004e .hidden <i128 as compiler_builtins::int::Int>::aborting_rem
00000000 g     F .text._ZN52_$LT$i128$u20$as$u20$compiler_builtins..int..Int$GT$12extract_sign17h9d8961dd365d2212E	00000036 .hidden <i128 as compiler_builtins::int::Int>::extract_sign
00000000 g     F .text._ZN52_$LT$i128$u20$as$u20$compiler_builtins..int..Int$GT$12wrapping_add17h4f5617214a5602b2E	00000018 .hidden <i128 as compiler_builtins::int::Int>::wrapping_add
00000000 g     F .text._ZN52_$LT$i128$u20$as$u20$compiler_builtins..int..Int$GT$12wrapping_mul17hb0fa787bb0399bceE	00000014 .hidden <i128 as compiler_builtins::int::Int>::wrapping_mul
00000000 g     F .text._ZN52_$LT$i128$u20$as$u20$compiler_builtins..int..Int$GT$12wrapping_shl17hf3fd9a091d8ca7afE	000000de .hidden <i128 as compiler_builtins::int::Int>::wrapping_shl
00000000 g     F .text._ZN52_$LT$i128$u20$as$u20$compiler_builtins..int..Int$GT$12wrapping_sub17hac10a1a389091212E	00000018 .hidden <i128 as compiler_builtins::int::Int>::wrapping_sub
00000000 g     F .text._ZN52_$LT$i128$u20$as$u20$compiler_builtins..int..Int$GT$13from_unsigned17h46eb238f8024026cE	00000002 .hidden <i128 as compiler_builtins::int::Int>::from_unsigned
00000000 g     F .text._ZN52_$LT$i128$u20$as$u20$compiler_builtins..int..Int$GT$13leading_zeros17he2388646cbcfbaf0E	0000002e .hidden <i128 as compiler_builtins::int::Int>::leading_zeros
00000000 g     F .text._ZN52_$LT$i128$u20$as$u20$compiler_builtins..int..Int$GT$15overflowing_add17h97923dff9358c8f1E	00000058 .hidden <i128 as compiler_builtins::int::Int>::overflowing_add
00000000 g     F .text._ZN52_$LT$i128$u20$as$u20$compiler_builtins..int..Int$GT$13from_unsigned17h46eb238f8024026cE	00000002 .hidden <i128 as compiler_builtins::int::Int>::unsigned
00000000 g     F .text._ZN52_$LT$i128$u20$as$u20$compiler_builtins..int..Int$GT$9from_bool17h9be4e299856bec49E	00000008 .hidden <i128 as compiler_builtins::int::Int>::from_bool
00000000 g     F .text._ZN52_$LT$i128$u20$as$u20$compiler_builtins..int..Int$GT$9max_value17hf71a0b5f8136d1deE	00000012 .hidden <i128 as compiler_builtins::int::Int>::max_value
00000000 g     F .text._ZN52_$LT$i128$u20$as$u20$compiler_builtins..int..Int$GT$9min_value17hc2cb32d55cb828b8E	0000000c .hidden <i128 as compiler_builtins::int::Int>::min_value
00000000 g     F .text._ZN52_$LT$u128$u20$as$u20$compiler_builtins..int..Int$GT$12aborting_div17h27a57baa605fa62cE	00000030 .hidden <u128 as compiler_builtins::int::Int>::aborting_div
00000000 g     F .text._ZN52_$LT$u128$u20$as$u20$compiler_builtins..int..Int$GT$12aborting_rem17h00ad1ff11268c56fE	00000030 .hidden <u128 as compiler_builtins::int::Int>::aborting_rem
00000000 g     F .text._ZN52_$LT$u128$u20$as$u20$compiler_builtins..int..Int$GT$12extract_sign17h54f5d9f6912932b4E	00000012 .hidden <u128 as compiler_builtins::int::Int>::extract_sign
00000000 g     F .text._ZN52_$LT$i128$u20$as$u20$compiler_builtins..int..Int$GT$12wrapping_add17h4f5617214a5602b2E	00000018 .hidden <u128 as compiler_builtins::int::Int>::wrapping_add
00000000 g     F .text._ZN52_$LT$i128$u20$as$u20$compiler_builtins..int..Int$GT$12wrapping_mul17hb0fa787bb0399bceE	00000014 .hidden <u128 as compiler_builtins::int::Int>::wrapping_mul
00000000 g     F .text._ZN52_$LT$i128$u20$as$u20$compiler_builtins..int..Int$GT$12wrapping_shl17hf3fd9a091d8ca7afE	000000de .hidden <u128 as compiler_builtins::int::Int>::wrapping_shl
00000000 g     F .text._ZN52_$LT$i128$u20$as$u20$compiler_builtins..int..Int$GT$12wrapping_sub17hac10a1a389091212E	00000018 .hidden <u128 as compiler_builtins::int::Int>::wrapping_sub
00000000 g     F .text._ZN52_$LT$i128$u20$as$u20$compiler_builtins..int..Int$GT$13from_unsigned17h46eb238f8024026cE	00000002 .hidden <u128 as compiler_builtins::int::Int>::from_unsigned
00000000 g     F .text._ZN52_$LT$i128$u20$as$u20$compiler_builtins..int..Int$GT$13leading_zeros17he2388646cbcfbaf0E	0000002e .hidden <u128 as compiler_builtins::int::Int>::leading_zeros
00000000 g     F .text._ZN52_$LT$u128$u20$as$u20$compiler_builtins..int..Int$GT$15overflowing_add17h427042b03dbadd5dE	00000028 .hidden <u128 as compiler_builtins::int::Int>::overflowing_add
00000000 g     F .text._ZN52_$LT$i128$u20$as$u20$compiler_builtins..int..Int$GT$13from_unsigned17h46eb238f8024026cE	00000002 .hidden <u128 as compiler_builtins::int::Int>::unsigned
00000000 g     F .text._ZN52_$LT$i128$u20$as$u20$compiler_builtins..int..Int$GT$9from_bool17h9be4e299856bec49E	00000008 .hidden <u128 as compiler_builtins::int::Int>::from_bool
00000000 g     F .text._ZN52_$LT$u128$u20$as$u20$compiler_builtins..int..Int$GT$9max_value17h8a7c76afc9c615ffE	00000012 .hidden <u128 as compiler_builtins::int::Int>::max_value
00000000 g     F .text._ZN52_$LT$u128$u20$as$u20$compiler_builtins..int..Int$GT$9min_value17hee40099e11196ad3E	0000000a .hidden <u128 as compiler_builtins::int::Int>::min_value
00000000 g     F .text._ZN55_$LT$f32$u20$as$u20$compiler_builtins..float..Float$GT$10from_parts17h520e72223ba72e43E	0000000e .hidden <f32 as compiler_builtins::float::Float>::from_parts
00000000 g     F .text._ZN55_$LT$f32$u20$as$u20$compiler_builtins..float..Float$GT$11signed_repr17hf0ed93956b902812E	00000002 .hidden <f32 as compiler_builtins::float::Float>::signed_repr
00000000 g     F .text._ZN55_$LT$f32$u20$as$u20$compiler_builtins..float..Float$GT$11signed_repr17hf0ed93956b902812E	00000002 .hidden <f32 as compiler_builtins::float::Float>::repr
00000000 g     F .text._ZN55_$LT$f32$u20$as$u20$compiler_builtins..float..Float$GT$9from_repr17h54017aa9053fbe21E	00000002 .hidden <f32 as compiler_builtins::float::Float>::from_repr
00000000 g     F .text._ZN55_$LT$f32$u20$as$u20$compiler_builtins..float..Float$GT$9normalize17h49a2612df8824186E	00000016 .hidden <f32 as compiler_builtins::float::Float>::normalize
00000000 g     F .text._ZN55_$LT$f64$u20$as$u20$compiler_builtins..float..Float$GT$10from_parts17h0c4d4fd83cc3a52aE	00000012 .hidden <f64 as compiler_builtins::float::Float>::from_parts
00000000 g     F .text._ZN55_$LT$f64$u20$as$u20$compiler_builtins..float..Float$GT$11signed_repr17hdb5d10c47536870bE	00000002 .hidden <f64 as compiler_builtins::float::Float>::signed_repr
00000000 g     F .text._ZN55_$LT$f64$u20$as$u20$compiler_builtins..float..Float$GT$11signed_repr17hdb5d10c47536870bE	00000002 .hidden <f64 as compiler_builtins::float::Float>::repr
00000000 g     F .text._ZN55_$LT$f64$u20$as$u20$compiler_builtins..float..Float$GT$9from_repr17h74667411c3d40656E	00000002 .hidden <f64 as compiler_builtins::float::Float>::from_repr
00000000 g     F .text._ZN55_$LT$f64$u20$as$u20$compiler_builtins..float..Float$GT$9normalize17h32270a1a68f34ff6E	0000003e .hidden <f64 as compiler_builtins::float::Float>::normalize
00000000 g     F .text._ZN55_$LT$u32$u20$as$u20$compiler_builtins..int..WideInt$GT$15wide_shift_left17h313bc0d781de8304E	00000028 .hidden <u32 as compiler_builtins::int::WideInt>::wide_shift_left
00000000 g     F .text._ZN55_$LT$u32$u20$as$u20$compiler_builtins..int..WideInt$GT$28wide_shift_right_with_sticky17h8109bdc72e06bfdcE	00000048 .hidden <u32 as compiler_builtins::int::WideInt>::wide_shift_right_with_sticky
00000000 g     F .text._ZN55_$LT$u32$u20$as$u20$compiler_builtins..int..WideInt$GT$8wide_mul17h42ad4962ba9037e9E	00000006 .hidden <u32 as compiler_builtins::int::WideInt>::wide_mul
00000000 g     F .text._ZN55_$LT$u64$u20$as$u20$compiler_builtins..int..WideInt$GT$15wide_shift_left17h29b3f43e358ad09cE	00000092 .hidden <u64 as compiler_builtins::int::WideInt>::wide_shift_left
00000000 g     F .text._ZN55_$LT$u64$u20$as$u20$compiler_builtins..int..WideInt$GT$28wide_shift_right_with_sticky17h498f9ce8c9e4ba3cE	00000146 .hidden <u64 as compiler_builtins::int::WideInt>::wide_shift_right_with_sticky
00000000 g     F .text._ZN55_$LT$u64$u20$as$u20$compiler_builtins..int..WideInt$GT$8wide_mul17hda13b9597728566bE	0000002c .hidden <u64 as compiler_builtins::int::WideInt>::wide_mul
00000000 g     F .text._ZN56_$LT$i64$u20$as$u20$compiler_builtins..int..LargeInt$GT$10from_parts17h6771ef238b646afeE	00000002 .hidden <i64 as compiler_builtins::int::LargeInt>::from_parts
00000000 g     F .text._ZN51_$LT$i32$u20$as$u20$compiler_builtins..int..Int$GT$13from_unsigned17h912ba4681c884616E	00000002 .hidden <i64 as compiler_builtins::int::LargeInt>::high_as_low
00000000 g     F .text._ZN51_$LT$i32$u20$as$u20$compiler_builtins..int..Int$GT$13from_unsigned17h912ba4681c884616E	00000002 .hidden <i64 as compiler_builtins::int::LargeInt>::low_as_high
00000000 g     F .text._ZN56_$LT$i64$u20$as$u20$compiler_builtins..int..LargeInt$GT$3low17hab22e0c7935ffddeE	00000002 .hidden <i64 as compiler_builtins::int::LargeInt>::low
00000000 g     F .text._ZN56_$LT$i64$u20$as$u20$compiler_builtins..int..LargeInt$GT$4high17h36e5923a9920504eE	00000004 .hidden <i64 as compiler_builtins::int::LargeInt>::high
00000000 g     F .text._ZN56_$LT$i64$u20$as$u20$compiler_builtins..int..LargeInt$GT$10from_parts17h6771ef238b646afeE	00000002 .hidden <u64 as compiler_builtins::int::LargeInt>::from_parts
00000000 g     F .text._ZN51_$LT$i32$u20$as$u20$compiler_builtins..int..Int$GT$13from_unsigned17h912ba4681c884616E	00000002 .hidden <u64 as compiler_builtins::int::LargeInt>::high_as_low
00000000 g     F .text._ZN51_$LT$i32$u20$as$u20$compiler_builtins..int..Int$GT$13from_unsigned17h912ba4681c884616E	00000002 .hidden <u64 as compiler_builtins::int::LargeInt>::low_as_high
00000000 g     F .text._ZN56_$LT$i64$u20$as$u20$compiler_builtins..int..LargeInt$GT$3low17hab22e0c7935ffddeE	00000002 .hidden <u64 as compiler_builtins::int::LargeInt>::low
00000000 g     F .text._ZN56_$LT$i64$u20$as$u20$compiler_builtins..int..LargeInt$GT$4high17h36e5923a9920504eE	00000004 .hidden <u64 as compiler_builtins::int::LargeInt>::high
00000000 g     F .text._ZN57_$LT$i128$u20$as$u20$compiler_builtins..int..LargeInt$GT$10from_parts17h4b05453ca62bce04E	00000002 .hidden <i128 as compiler_builtins::int::LargeInt>::from_parts
00000000 g     F .text._ZN51_$LT$i64$u20$as$u20$compiler_builtins..int..Int$GT$13from_unsigned17h1afee29cc1c7acb7E	00000002 .hidden <i128 as compiler_builtins::int::LargeInt>::high_as_low
00000000 g     F .text._ZN51_$LT$i64$u20$as$u20$compiler_builtins..int..Int$GT$13from_unsigned17h1afee29cc1c7acb7E	00000002 .hidden <i128 as compiler_builtins::int::LargeInt>::low_as_high
00000000 g     F .text._ZN57_$LT$i128$u20$as$u20$compiler_builtins..int..LargeInt$GT$3low17h6fc60cc7c251eaf4E	00000002 .hidden <i128 as compiler_builtins::int::LargeInt>::low
00000000 g     F .text._ZN57_$LT$i128$u20$as$u20$compiler_builtins..int..LargeInt$GT$4high17hda152460f860e7eaE	00000006 .hidden <i128 as compiler_builtins::int::LargeInt>::high
00000000 g     F .text._ZN57_$LT$i128$u20$as$u20$compiler_builtins..int..LargeInt$GT$10from_parts17h4b05453ca62bce04E	00000002 .hidden <u128 as compiler_builtins::int::LargeInt>::from_parts
00000000 g     F .text._ZN51_$LT$i64$u20$as$u20$compiler_builtins..int..Int$GT$13from_unsigned17h1afee29cc1c7acb7E	00000002 .hidden <u128 as compiler_builtins::int::LargeInt>::high_as_low
00000000 g     F .text._ZN51_$LT$i64$u20$as$u20$compiler_builtins..int..Int$GT$13from_unsigned17h1afee29cc1c7acb7E	00000002 .hidden <u128 as compiler_builtins::int::LargeInt>::low_as_high
00000000 g     F .text._ZN57_$LT$i128$u20$as$u20$compiler_builtins..int..LargeInt$GT$3low17h6fc60cc7c251eaf4E	00000002 .hidden <u128 as compiler_builtins::int::LargeInt>::low
00000000 g     F .text._ZN57_$LT$i128$u20$as$u20$compiler_builtins..int..LargeInt$GT$4high17hda152460f860e7eaE	00000006 .hidden <u128 as compiler_builtins::int::LargeInt>::high
00000000 g     F .text._ZN51_$LT$i32$u20$as$u20$compiler_builtins..int..Int$GT$13from_unsigned17h912ba4681c884616E	00000002 .hidden <i32 as compiler_builtins::int::CastInto<i32>>::cast
00000000 g     F .text._ZN67_$LT$i32$u20$as$u20$compiler_builtins..int..CastInto$LT$i64$GT$$GT$4cast17h26dc26ff041e24bbE	00000004 .hidden <i32 as compiler_builtins::int::CastInto<i64>>::cast
00000000 g     F .text._ZN51_$LT$i32$u20$as$u20$compiler_builtins..int..Int$GT$13from_unsigned17h912ba4681c884616E	00000002 .hidden <i32 as compiler_builtins::int::CastInto<u32>>::cast
00000000 g     F .text._ZN67_$LT$i32$u20$as$u20$compiler_builtins..int..CastInto$LT$i64$GT$$GT$4cast17h26dc26ff041e24bbE	00000004 .hidden <i32 as compiler_builtins::int::CastInto<u64>>::cast
00000000 g     F .text._ZN56_$LT$i64$u20$as$u20$compiler_builtins..int..LargeInt$GT$3low17hab22e0c7935ffddeE	00000002 .hidden <i64 as compiler_builtins::int::CastInto<i32>>::cast
00000000 g     F .text._ZN51_$LT$i64$u20$as$u20$compiler_builtins..int..Int$GT$13from_unsigned17h1afee29cc1c7acb7E	00000002 .hidden <i64 as compiler_builtins::int::CastInto<i64>>::cast
00000000 g     F .text._ZN56_$LT$i64$u20$as$u20$compiler_builtins..int..LargeInt$GT$3low17hab22e0c7935ffddeE	00000002 .hidden <i64 as compiler_builtins::int::CastInto<u32>>::cast
00000000 g     F .text._ZN51_$LT$i64$u20$as$u20$compiler_builtins..int..Int$GT$13from_unsigned17h1afee29cc1c7acb7E	00000002 .hidden <i64 as compiler_builtins::int::CastInto<u64>>::cast
00000000 g     F .text._ZN51_$LT$i32$u20$as$u20$compiler_builtins..int..Int$GT$13from_unsigned17h912ba4681c884616E	00000002 .hidden <u32 as compiler_builtins::int::CastInto<i32>>::cast
00000000 g     F .text._ZN67_$LT$u32$u20$as$u20$compiler_builtins..int..CastInto$LT$i64$GT$$GT$4cast17hc9fef88750a9416eE	00000004 .hidden <u32 as compiler_builtins::int::CastInto<i64>>::cast
00000000 g     F .text._ZN51_$LT$i32$u20$as$u20$compiler_builtins..int..Int$GT$13from_unsigned17h912ba4681c884616E	00000002 .hidden <u32 as compiler_builtins::int::CastInto<u32>>::cast
00000000 g     F .text._ZN67_$LT$u32$u20$as$u20$compiler_builtins..int..CastInto$LT$i64$GT$$GT$4cast17hc9fef88750a9416eE	00000004 .hidden <u32 as compiler_builtins::int::CastInto<u64>>::cast
00000000 g     F .text._ZN56_$LT$i64$u20$as$u20$compiler_builtins..int..LargeInt$GT$3low17hab22e0c7935ffddeE	00000002 .hidden <u64 as compiler_builtins::int::CastInto<i32>>::cast
00000000 g     F .text._ZN51_$LT$i64$u20$as$u20$compiler_builtins..int..Int$GT$13from_unsigned17h1afee29cc1c7acb7E	00000002 .hidden <u64 as compiler_builtins::int::CastInto<i64>>::cast
00000000 g     F .text._ZN56_$LT$i64$u20$as$u20$compiler_builtins..int..LargeInt$GT$3low17hab22e0c7935ffddeE	00000002 .hidden <u64 as compiler_builtins::int::CastInto<u32>>::cast
00000000 g     F .text._ZN51_$LT$i64$u20$as$u20$compiler_builtins..int..Int$GT$13from_unsigned17h1afee29cc1c7acb7E	00000002 .hidden <u64 as compiler_builtins::int::CastInto<u64>>::cast
00000000 g     F .text._ZN68_$LT$i128$u20$as$u20$compiler_builtins..int..CastInto$LT$i32$GT$$GT$4cast17h6d5240993509f82eE	00000002 .hidden <i128 as compiler_builtins::int::CastInto<i32>>::cast
00000000 g     F .text._ZN57_$LT$i128$u20$as$u20$compiler_builtins..int..LargeInt$GT$3low17h6fc60cc7c251eaf4E	00000002 .hidden <i128 as compiler_builtins::int::CastInto<i64>>::cast
00000000 g     F .text._ZN68_$LT$i128$u20$as$u20$compiler_builtins..int..CastInto$LT$i32$GT$$GT$4cast17h6d5240993509f82eE	00000002 .hidden <i128 as compiler_builtins::int::CastInto<u32>>::cast
00000000 g     F .text._ZN57_$LT$i128$u20$as$u20$compiler_builtins..int..LargeInt$GT$3low17h6fc60cc7c251eaf4E	00000002 .hidden <i128 as compiler_builtins::int::CastInto<u64>>::cast
00000000 g     F .text._ZN68_$LT$i32$u20$as$u20$compiler_builtins..int..CastInto$LT$i128$GT$$GT$4cast17h6667ed2402f2130bE	00000008 .hidden <i32 as compiler_builtins::int::CastInto<i128>>::cast
00000000 g     F .text._ZN68_$LT$i32$u20$as$u20$compiler_builtins..int..CastInto$LT$i128$GT$$GT$4cast17h6667ed2402f2130bE	00000008 .hidden <i32 as compiler_builtins::int::CastInto<u128>>::cast
00000000 g     F .text._ZN68_$LT$i64$u20$as$u20$compiler_builtins..int..CastInto$LT$i128$GT$$GT$4cast17hc963927caff004deE	00000006 .hidden <i64 as compiler_builtins::int::CastInto<i128>>::cast
00000000 g     F .text._ZN68_$LT$i64$u20$as$u20$compiler_builtins..int..CastInto$LT$i128$GT$$GT$4cast17hc963927caff004deE	00000006 .hidden <i64 as compiler_builtins::int::CastInto<u128>>::cast
00000000 g     F .text._ZN68_$LT$i128$u20$as$u20$compiler_builtins..int..CastInto$LT$i32$GT$$GT$4cast17h6d5240993509f82eE	00000002 .hidden <u128 as compiler_builtins::int::CastInto<i32>>::cast
00000000 g     F .text._ZN57_$LT$i128$u20$as$u20$compiler_builtins..int..LargeInt$GT$3low17h6fc60cc7c251eaf4E	00000002 .hidden <u128 as compiler_builtins::int::CastInto<i64>>::cast
00000000 g     F .text._ZN68_$LT$i128$u20$as$u20$compiler_builtins..int..CastInto$LT$i32$GT$$GT$4cast17h6d5240993509f82eE	00000002 .hidden <u128 as compiler_builtins::int::CastInto<u32>>::cast
00000000 g     F .text._ZN57_$LT$i128$u20$as$u20$compiler_builtins..int..LargeInt$GT$3low17h6fc60cc7c251eaf4E	00000002 .hidden <u128 as compiler_builtins::int::CastInto<u64>>::cast
00000000 g     F .text._ZN68_$LT$u32$u20$as$u20$compiler_builtins..int..CastInto$LT$i128$GT$$GT$4cast17h21aedfda4e7a0525E	00000008 .hidden <u32 as compiler_builtins::int::CastInto<i128>>::cast
00000000 g     F .text._ZN68_$LT$u32$u20$as$u20$compiler_builtins..int..CastInto$LT$i128$GT$$GT$4cast17h21aedfda4e7a0525E	00000008 .hidden <u32 as compiler_builtins::int::CastInto<u128>>::cast
00000000 g     F .text._ZN68_$LT$u64$u20$as$u20$compiler_builtins..int..CastInto$LT$i128$GT$$GT$4cast17ha5e94be2abc73f48E	00000006 .hidden <u64 as compiler_builtins::int::CastInto<i128>>::cast
00000000 g     F .text._ZN68_$LT$u64$u20$as$u20$compiler_builtins..int..CastInto$LT$i128$GT$$GT$4cast17ha5e94be2abc73f48E	00000006 .hidden <u64 as compiler_builtins::int::CastInto<u128>>::cast
00000000 g     F .text._ZN52_$LT$i128$u20$as$u20$compiler_builtins..int..Int$GT$13from_unsigned17h46eb238f8024026cE	00000002 .hidden <i128 as compiler_builtins::int::CastInto<i128>>::cast
00000000 g     F .text._ZN52_$LT$i128$u20$as$u20$compiler_builtins..int..Int$GT$13from_unsigned17h46eb238f8024026cE	00000002 .hidden <i128 as compiler_builtins::int::CastInto<u128>>::cast
00000000 g     F .text._ZN51_$LT$i32$u20$as$u20$compiler_builtins..int..Int$GT$13from_unsigned17h912ba4681c884616E	00000002 .hidden <i32 as compiler_builtins::int::CastInto<isize>>::cast
00000000 g     F .text._ZN51_$LT$i32$u20$as$u20$compiler_builtins..int..Int$GT$13from_unsigned17h912ba4681c884616E	00000002 .hidden <i32 as compiler_builtins::int::CastInto<usize>>::cast
00000000 g     F .text._ZN56_$LT$i64$u20$as$u20$compiler_builtins..int..LargeInt$GT$3low17hab22e0c7935ffddeE	00000002 .hidden <i64 as compiler_builtins::int::CastInto<isize>>::cast
00000000 g     F .text._ZN56_$LT$i64$u20$as$u20$compiler_builtins..int..LargeInt$GT$3low17hab22e0c7935ffddeE	00000002 .hidden <i64 as compiler_builtins::int::CastInto<usize>>::cast
00000000 g     F .text._ZN52_$LT$i128$u20$as$u20$compiler_builtins..int..Int$GT$13from_unsigned17h46eb238f8024026cE	00000002 .hidden <u128 as compiler_builtins::int::CastInto<i128>>::cast
00000000 g     F .text._ZN52_$LT$i128$u20$as$u20$compiler_builtins..int..Int$GT$13from_unsigned17h46eb238f8024026cE	00000002 .hidden <u128 as compiler_builtins::int::CastInto<u128>>::cast
00000000 g     F .text._ZN51_$LT$i32$u20$as$u20$compiler_builtins..int..Int$GT$13from_unsigned17h912ba4681c884616E	00000002 .hidden <u32 as compiler_builtins::int::CastInto<isize>>::cast
00000000 g     F .text._ZN51_$LT$i32$u20$as$u20$compiler_builtins..int..Int$GT$13from_unsigned17h912ba4681c884616E	00000002 .hidden <u32 as compiler_builtins::int::CastInto<usize>>::cast
00000000 g     F .text._ZN56_$LT$i64$u20$as$u20$compiler_builtins..int..LargeInt$GT$3low17hab22e0c7935ffddeE	00000002 .hidden <u64 as compiler_builtins::int::CastInto<isize>>::cast
00000000 g     F .text._ZN56_$LT$i64$u20$as$u20$compiler_builtins..int..LargeInt$GT$3low17hab22e0c7935ffddeE	00000002 .hidden <u64 as compiler_builtins::int::CastInto<usize>>::cast
00000000 g     F .text._ZN68_$LT$i128$u20$as$u20$compiler_builtins..int..CastInto$LT$i32$GT$$GT$4cast17h6d5240993509f82eE	00000002 .hidden <i128 as compiler_builtins::int::CastInto<isize>>::cast
00000000 g     F .text._ZN68_$LT$i128$u20$as$u20$compiler_builtins..int..CastInto$LT$i32$GT$$GT$4cast17h6d5240993509f82eE	00000002 .hidden <i128 as compiler_builtins::int::CastInto<usize>>::cast
00000000 g     F .text._ZN68_$LT$i128$u20$as$u20$compiler_builtins..int..CastInto$LT$i32$GT$$GT$4cast17h6d5240993509f82eE	00000002 .hidden <u128 as compiler_builtins::int::CastInto<isize>>::cast
00000000 g     F .text._ZN68_$LT$i128$u20$as$u20$compiler_builtins..int..CastInto$LT$i32$GT$$GT$4cast17h6d5240993509f82eE	00000002 .hidden <u128 as compiler_builtins::int::CastInto<usize>>::cast
00000000 g     F .text.__adddf3	0000033c .hidden __adddf3
00000000 g     F .text.__adddf3vfp	00000008 .hidden __adddf3vfp
00000000 g     F .text.__addsf3	0000018e .hidden __addsf3
00000000 g     F .text.__addsf3vfp	00000008 .hidden __addsf3vfp
00000000 g     F .text.__aeabi_d2iz	0000005e .hidden __aeabi_d2iz
00000000 g     F .text.__aeabi_d2lz	000000ce .hidden __aeabi_d2lz
00000000 g     F .text.__aeabi_d2uiz	0000004e .hidden __aeabi_d2uiz
00000000 g     F .text.__aeabi_d2ulz	0000009a .hidden __aeabi_d2ulz
00000000 g     F .text.__aeabi_dadd	00000004 .hidden __aeabi_dadd
00000000 g     F .text.__aeabi_dcmpeq	00000046 .hidden __aeabi_dcmpeq
00000000 g     F .text.__aeabi_dcmpge	00000060 .hidden __aeabi_dcmpge
00000000 g     F .text.__aeabi_dcmpgt	0000006c .hidden __aeabi_dcmpgt
00000000 g     F .text.__aeabi_dcmple	0000006c .hidden __aeabi_dcmple
00000000 g     F .text.__aeabi_dcmplt	0000005c .hidden __aeabi_dcmplt
00000000 g     F .text.__aeabi_dcmpun	00000034 .hidden __aeabi_dcmpun
00000000 g     F .text.__aeabi_ddiv	00000004 .hidden __aeabi_ddiv
00000000 g     F .text.__aeabi_dmul	00000004 .hidden __aeabi_dmul
00000000 g     F .text.__aeabi_dsub	00000008 .hidden __aeabi_dsub
00000000 g     F .text.__aeabi_f2d	00000086 .hidden __aeabi_f2d
00000000 g     F .text.__aeabi_f2iz	00000060 .hidden __aeabi_f2iz
00000000 g     F .text.__aeabi_f2lz	00000098 .hidden __aeabi_f2lz
00000000 g     F .text.__aeabi_f2uiz	0000004e .hidden __aeabi_f2uiz
00000000 g     F .text.__aeabi_f2ulz	00000072 .hidden __aeabi_f2ulz
00000000 g     F .text.__aeabi_fadd	00000004 .hidden __aeabi_fadd
00000000 g     F .text.__aeabi_fcmpeq	00000032 .hidden __aeabi_fcmpeq
00000000 g     F .text.__aeabi_fcmpge	00000042 .hidden __aeabi_fcmpge
00000000 g     F .text.__aeabi_fcmpgt	00000050 .hidden __aeabi_fcmpgt
00000000 g     F .text.__aeabi_fcmple	00000050 .hidden __aeabi_fcmple
00000000 g     F .text.__aeabi_fcmplt	0000003e .hidden __aeabi_fcmplt
00000000 g     F .text.__aeabi_fcmpun	00000024 .hidden __aeabi_fcmpun
00000000 g     F .text.__aeabi_fdiv	00000004 .hidden __aeabi_fdiv
00000000 g     F .text.__aeabi_fmul	00000004 .hidden __aeabi_fmul
00000000 g     F .text.__aeabi_fsub	00000008 .hidden __aeabi_fsub
00000000 g     F .text.__aeabi_i2d	00000058 .hidden __aeabi_i2d
00000000 g     F .text.__aeabi_i2f	0000008a .hidden __aeabi_i2f
00000000 g     F .text.__aeabi_idiv	0000002a .hidden __aeabi_idiv
00000000 g     F .text.__aeabi_idivmod	00000010 .hidden __aeabi_idivmod
00000000 g     F .text.__aeabi_l2d	0000012e .hidden __aeabi_l2d
00000000 g     F .text.__aeabi_l2f	00000110 .hidden __aeabi_l2f
00000000 g     F .text.__aeabi_lasr	0000002c .hidden __aeabi_lasr
00000000 g     F .text.__aeabi_ldivmod	00000016 .hidden __aeabi_ldivmod
00000000 g     F .text.__aeabi_llsl	0000002c .hidden __aeabi_llsl
00000000 g     F .text.__aeabi_llsr	0000002c .hidden __aeabi_llsr
00000000 g     F .text.__aeabi_lmul	00000042 .hidden __aeabi_lmul
00000000  w    F .text.__aeabi_memclr	00000006 .hidden __aeabi_memclr
00000000  w    F .text..Lanon.109065a98eeed0521bf961624aa4abd9.1	00000006 .hidden __aeabi_memclr4
00000000  w    F .text..Lanon.109065a98eeed0521bf961624aa4abd9.1	00000006 .hidden __aeabi_memclr8
00000000  w    F .text.__aeabi_memcpy	0000005e .hidden __aeabi_memcpy
00000000  w    F .text.__aeabi_memcpy4	00000096 .hidden __aeabi_memcpy4
00000000  w    F .text.__aeabi_memcpy8	00000004 .hidden __aeabi_memcpy8
00000000  w    F .text.__aeabi_memmove	000000d2 .hidden __aeabi_memmove
00000000  w    F .text..Lanon.109065a98eeed0521bf961624aa4abd9.0	00000004 .hidden __aeabi_memmove4
00000000  w    F .text..Lanon.109065a98eeed0521bf961624aa4abd9.0	00000004 .hidden __aeabi_memmove8
00000000  w    F .text.__aeabi_memset	0000004e .hidden __aeabi_memset
00000000  w    F .text.__aeabi_memset4	00000088 .hidden __aeabi_memset4
00000000  w    F .text.__aeabi_memset8	00000004 .hidden __aeabi_memset8
00000000 g     F .text.__aeabi_ui2d	00000048 .hidden __aeabi_ui2d
00000000 g     F .text.__aeabi_ui2f	0000007e .hidden __aeabi_ui2f
00000000 g     F .text.__aeabi_uidiv	00000158 .hidden __aeabi_uidiv
00000000 g     F .text.__aeabi_uidivmod	00000012 .hidden __aeabi_uidivmod
00000000 g     F .text.__aeabi_ul2d	0000010a .hidden __aeabi_ul2d
00000000 g     F .text.__aeabi_ul2f	000000f8 .hidden __aeabi_ul2f
00000000 g     F .text.__aeabi_uldivmod	00000016 .hidden __aeabi_uldivmod
00000000 g     F .text.__ashldi3	0000002c .hidden __ashldi3
00000000 g     F .text._ZN17compiler_builtins3int5shift13rust_i128_shl17hb3618dc516d362bfE	000000b2 .hidden __ashlti3
00000000 g     F .text.__ashrdi3	0000002c .hidden __ashrdi3
00000000 g     F .text._ZN17compiler_builtins3int5shift13rust_i128_shr17h3a8269e86e1552deE	000000b4 .hidden __ashrti3
00000000 g     F .text.__clzsi2	0000003c .hidden __clzsi2
00000000 g     F .text.__divdf3	000002b6 .hidden __divdf3
00000000 g     F .text.__divdf3vfp	00000008 .hidden __divdf3vfp
00000000 g     F .text.__divdi3	0000003e .hidden __divdi3
00000000 g     F .text.__divmoddi4	00000068 .hidden __divmoddi4
00000000         *UND*	00000000 __divmodsi4
00000000 g     F .text.__divsf3	0000015c .hidden __divsf3
00000000 g     F .text.__divsf3vfp	00000008 .hidden __divsf3vfp
00000000 g     F .text.__divsi3	0000002a .hidden __divsi3
00000000 g     F .text._ZN17compiler_builtins3int4sdiv13rust_i128_div17hba816bd7aff5f749E	00000082 .hidden __divti3
00000000 g     F .text.__eqdf2	00000074 .hidden __eqdf2
00000000 g     F .text.__eqdf2vfp	0000000e .hidden __eqdf2vfp
00000000 g     F .text.__eqsf2	00000056 .hidden __eqsf2
00000000 g     F .text.__eqsf2vfp	0000000e .hidden __eqsf2vfp
00000000 g     F .text.__aeabi_f2d	00000086 .hidden __extendsfdf2
00000000 g     F .text.__extendsfdf2vfp	00000008 .hidden __extendsfdf2vfp
00000000 g     F .text.__fixdfdi	000000d2 .hidden __fixdfdi
00000000 g     F .text.__fixdfsi	0000005e .hidden __fixdfsi
00000000 g     F .text.__fixdfti	00000148 .hidden __fixdfti
00000000 g     F .text.__fixsfdi	00000096 .hidden __fixsfdi
00000000 g     F .text.__fixsfsi	00000060 .hidden __fixsfsi
00000000 g     F .text.__fixsfti	00000108 .hidden __fixsfti
00000000 g     F .text.__fixunsdfdi	0000009a .hidden __fixunsdfdi
00000000 g     F .text.__fixunsdfsi	0000004e .hidden __fixunsdfsi
00000000 g     F .text.__fixunsdfti	0000013a .hidden __fixunsdfti
00000000 g     F .text.__fixunssfdi	00000072 .hidden __fixunssfdi
00000000 g     F .text.__fixunssfsi	0000004e .hidden __fixunssfsi
00000000 g     F .text.__fixunssfti	000000f6 .hidden __fixunssfti
00000000 g     F .text.__floatdidf	00000130 .hidden __floatdidf
00000000 g     F .text.__floatdisf	00000112 .hidden __floatdisf
00000000 g     F .text.__floatsidf	00000058 .hidden __floatsidf
00000000 g     F .text.__floatsisf	0000008c .hidden __floatsisf
00000000 g     F .text.__floattidf	000002ee .hidden __floattidf
00000000 g     F .text.__floattisf	00000296 .hidden __floattisf
00000000 g     F .text.__floatundidf	0000010c .hidden __floatundidf
00000000 g     F .text.__floatundisf	000000fa .hidden __floatundisf
00000000 g     F .text.__floatunsidf	00000048 .hidden __floatunsidf
00000000 g     F .text.__floatunsisf	00000080 .hidden __floatunsisf
00000000 g     F .text.__floatuntidf	000002ac .hidden __floatuntidf
00000000 g     F .text.__floatuntisf	00000258 .hidden __floatuntisf
00000000 g     F .text.__gedf2	00000074 .hidden __gedf2
00000000 g     F .text.__gedf2vfp	0000000e .hidden __gedf2vfp
00000000 g     F .text.__gesf2	00000056 .hidden __gesf2
00000000 g     F .text.__gesf2vfp	0000000e .hidden __gesf2vfp
00000000 g     F .text.__gedf2	00000074 .hidden __gtdf2
00000000 g     F .text.__gtdf2vfp	0000000e .hidden __gtdf2vfp
00000000 g     F .text.__gesf2	00000056 .hidden __gtsf2
00000000 g     F .text.__gtsf2vfp	0000000e .hidden __gtsf2vfp
00000000 g     F .text.__eqdf2	00000074 .hidden __ledf2
00000000 g     F .text.__ledf2vfp	0000000e .hidden __ledf2vfp
00000000 g     F .text.__eqsf2	00000056 .hidden __lesf2
00000000 g     F .text.__lesf2vfp	0000000e .hidden __lesf2vfp
00000000 g     F .text.__lshrdi3	0000002c .hidden __lshrdi3
00000000 g     F .text._ZN17compiler_builtins3int5shift13rust_u128_shr17hff924baacf55883dE	000000b4 .hidden __lshrti3
00000000 g     F .text.__eqdf2	00000074 .hidden __ltdf2
00000000 g     F .text.__ltdf2vfp	0000000e .hidden __ltdf2vfp
00000000 g     F .text.__eqsf2	00000056 .hidden __ltsf2
00000000 g     F .text.__ltsf2vfp	0000000e .hidden __ltsf2vfp
00000000 g     F .text.__moddi3	00000038 .hidden __moddi3
00000000         *UND*	00000000 __modsi3
00000000 g     F .text._ZN17compiler_builtins3int4sdiv13rust_i128_rem17hd7698bbb5a017427E	00000076 .hidden __modti3
00000000 g     F .text.__muldf3	000002c0 .hidden __muldf3
00000000 g     F .text.__muldf3vfp	00000008 .hidden __muldf3vfp
00000000 g     F .text.__muldi3	00000042 .hidden __muldi3
00000000 g     F .text.__mulodi4	000000b6 .hidden __mulodi4
00000000 g     F .text.__mulosi4	0000006c .hidden __mulosi4
00000000 g     F .text.__muloti4	00000158 .hidden __muloti4
00000000 g     F .text.__mulsf3	0000013a .hidden __mulsf3
00000000 g     F .text.__mulsf3vfp	00000008 .hidden __mulsf3vfp
00000000 g     F .text.__multi3	00000062 .hidden __multi3
00000000 g     F .text.__eqdf2	00000074 .hidden __nedf2
00000000 g     F .text.__nedf2vfp	0000000e .hidden __nedf2vfp
00000000 g     F .text.__eqsf2	00000056 .hidden __nesf2
00000000 g     F .text.__nesf2vfp	0000000e .hidden __nesf2vfp
00000000 g     F .text.__powidf2	0000008a .hidden __powidf2
00000000 g     F .text.__powisf2	0000005a .hidden __powisf2
00000000 g     F .text.__subdf3	00000008 .hidden __subdf3
00000000 g     F .text.__subdf3vfp	00000008 .hidden __subdf3vfp
00000000 g     F .text.__subsf3	00000008 .hidden __subsf3
00000000 g     F .text.__subsf3vfp	00000008 .hidden __subsf3vfp
00000000 g     F .text.__udivdi3	00000014 .hidden __udivdi3
00000000 g     F .text.__udivmoddi4	00000394 .hidden __udivmoddi4
00000000         *UND*	00000000 __udivmodsi4
00000000 g     F .text.__udivmodti4	0000092c .hidden __udivmodti4
00000000 g     F .text.__udivsi3	00000166 .hidden __udivsi3
00000000 g     F .text.__udivti3	00000034 .hidden __udivti3
00000000 g     F .text.__umoddi3	00000020 .hidden __umoddi3
00000000         *UND*	00000000 __umodsi3
00000000 g     F .text.__umodti3	00000044 .hidden __umodti3
00000000 g     F .text.__unorddf2	00000034 .hidden __unorddf2
00000000 g     F .text.__unordsf2	00000024 .hidden __unordsf2
00000000 g     F .text.fmod	0000041c .hidden fmod
00000000 g     F .text.fmodf	00000236 .hidden fmodf
00000000 g     F .text.memcmp	00000074 .hidden memcmp
00000000 g     F .text.memcpy	0000005e .hidden memcpy
00000000 g     F .text.memmove	000000d0 .hidden memmove
00000000 g     F .text.memset	00000050 .hidden memset



Disassembly of section .text.memcpy:

00000000 <memcpy>:
memcpy():
/cargo/registry/src/github.com-1ecc6299db9ec823/compiler_builtins-0.1.9/src/mem.rs:9
   0:	b5b0      	push	{r4, r5, r7, lr}
/cargo/registry/src/github.com-1ecc6299db9ec823/compiler_builtins-0.1.9/src/mem.rs:14
   2:	b33a      	cbz	r2, 54 <memcpy+0x54>
offset<u8>():
/rustc/3c235d5600393dfe6c36eeed34042efad8d4f26e/src/libcore/ptr.rs:1077
   4:	1e53      	subs	r3, r2, #1
   6:	f002 0c03 	and.w	ip, r2, #3
   a:	2b03      	cmp	r3, #3
   c:	d204      	bcs.n	18 <memcpy+0x18>
memcpy():
   e:	2200      	movs	r2, #0
/cargo/registry/src/github.com-1ecc6299db9ec823/compiler_builtins-0.1.9/src/mem.rs:14
  10:	f1bc 0f00 	cmp.w	ip, #0
  14:	d113      	bne.n	3e <memcpy+0x3e>
  16:	e01d      	b.n	54 <memcpy+0x54>
offset<u8>():
/rustc/3c235d5600393dfe6c36eeed34042efad8d4f26e/src/libcore/ptr.rs:1077
  18:	eba2 0e0c 	sub.w	lr, r2, ip
  1c:	2200      	movs	r2, #0
memcpy():
/cargo/registry/src/github.com-1ecc6299db9ec823/compiler_builtins-0.1.9/src/mem.rs:15
  1e:	5c8b      	ldrb	r3, [r1, r2]
  20:	188c      	adds	r4, r1, r2
  22:	5483      	strb	r3, [r0, r2]
  24:	1883      	adds	r3, r0, r2
/cargo/registry/src/github.com-1ecc6299db9ec823/compiler_builtins-0.1.9/src/mem.rs:16
  26:	3204      	adds	r2, #4
/cargo/registry/src/github.com-1ecc6299db9ec823/compiler_builtins-0.1.9/src/mem.rs:15
  28:	7865      	ldrb	r5, [r4, #1]
/cargo/registry/src/github.com-1ecc6299db9ec823/compiler_builtins-0.1.9/src/mem.rs:14
  2a:	4596      	cmp	lr, r2
/cargo/registry/src/github.com-1ecc6299db9ec823/compiler_builtins-0.1.9/src/mem.rs:15
  2c:	705d      	strb	r5, [r3, #1]
  2e:	78a5      	ldrb	r5, [r4, #2]
  30:	709d      	strb	r5, [r3, #2]
  32:	78e4      	ldrb	r4, [r4, #3]
  34:	70dc      	strb	r4, [r3, #3]
/cargo/registry/src/github.com-1ecc6299db9ec823/compiler_builtins-0.1.9/src/mem.rs:14
  36:	d1f2      	bne.n	1e <memcpy+0x1e>
  38:	f1bc 0f00 	cmp.w	ip, #0
  3c:	d00a      	beq.n	54 <memcpy+0x54>
/cargo/registry/src/github.com-1ecc6299db9ec823/compiler_builtins-0.1.9/src/mem.rs:15
  3e:	5c8b      	ldrb	r3, [r1, r2]
/cargo/registry/src/github.com-1ecc6299db9ec823/compiler_builtins-0.1.9/src/mem.rs:14
  40:	f1bc 0f01 	cmp.w	ip, #1
/cargo/registry/src/github.com-1ecc6299db9ec823/compiler_builtins-0.1.9/src/mem.rs:15
  44:	5483      	strb	r3, [r0, r2]
/cargo/registry/src/github.com-1ecc6299db9ec823/compiler_builtins-0.1.9/src/mem.rs:14
  46:	d005      	beq.n	54 <memcpy+0x54>
  48:	1c53      	adds	r3, r2, #1
  4a:	f1bc 0f02 	cmp.w	ip, #2
/cargo/registry/src/github.com-1ecc6299db9ec823/compiler_builtins-0.1.9/src/mem.rs:15
  4e:	5ccd      	ldrb	r5, [r1, r3]
  50:	54c5      	strb	r5, [r0, r3]
/cargo/registry/src/github.com-1ecc6299db9ec823/compiler_builtins-0.1.9/src/mem.rs:14
  52:	d100      	bne.n	56 <memcpy+0x56>
/cargo/registry/src/github.com-1ecc6299db9ec823/compiler_builtins-0.1.9/src/mem.rs:19
  54:	bdb0      	pop	{r4, r5, r7, pc}
  56:	3202      	adds	r2, #2
/cargo/registry/src/github.com-1ecc6299db9ec823/compiler_builtins-0.1.9/src/mem.rs:15
  58:	5c89      	ldrb	r1, [r1, r2]
  5a:	5481      	strb	r1, [r0, r2]
/cargo/registry/src/github.com-1ecc6299db9ec823/compiler_builtins-0.1.9/src/mem.rs:19
  5c:	bdb0      	pop	{r4, r5, r7, pc}

Disassembly of section .text.memmove:

00000000 <memmove>:
memmove():
/cargo/registry/src/github.com-1ecc6299db9ec823/compiler_builtins-0.1.9/src/mem.rs:22
   0:	b5b0      	push	{r4, r5, r7, lr}
/cargo/registry/src/github.com-1ecc6299db9ec823/compiler_builtins-0.1.9/src/mem.rs:26
   2:	4281      	cmp	r1, r0
   4:	d21b      	bcs.n	3e <memmove+0x3e>
/cargo/registry/src/github.com-1ecc6299db9ec823/compiler_builtins-0.1.9/src/mem.rs:29
   6:	2a00      	cmp	r2, #0
   8:	d061      	beq.n	ce <memmove+0xce>
/cargo/registry/src/github.com-1ecc6299db9ec823/compiler_builtins-0.1.9/src/mem.rs:30
   a:	f012 0e03 	ands.w	lr, r2, #3
   e:	f1a2 0c01 	sub.w	ip, r2, #1
  12:	d042      	beq.n	9a <memmove+0x9a>
/cargo/registry/src/github.com-1ecc6299db9ec823/compiler_builtins-0.1.9/src/mem.rs:31
  14:	f811 300c 	ldrb.w	r3, [r1, ip]
/cargo/registry/src/github.com-1ecc6299db9ec823/compiler_builtins-0.1.9/src/mem.rs:29
  18:	f1be 0f01 	cmp.w	lr, #1
/cargo/registry/src/github.com-1ecc6299db9ec823/compiler_builtins-0.1.9/src/mem.rs:31
  1c:	f800 300c 	strb.w	r3, [r0, ip]
  20:	4663      	mov	r3, ip
/cargo/registry/src/github.com-1ecc6299db9ec823/compiler_builtins-0.1.9/src/mem.rs:29
  22:	d03b      	beq.n	9c <memmove+0x9c>
/cargo/registry/src/github.com-1ecc6299db9ec823/compiler_builtins-0.1.9/src/mem.rs:30
  24:	1e93      	subs	r3, r2, #2
/cargo/registry/src/github.com-1ecc6299db9ec823/compiler_builtins-0.1.9/src/mem.rs:29
  26:	f1be 0f02 	cmp.w	lr, #2
/cargo/registry/src/github.com-1ecc6299db9ec823/compiler_builtins-0.1.9/src/mem.rs:31
  2a:	5ccc      	ldrb	r4, [r1, r3]
  2c:	54c4      	strb	r4, [r0, r3]
/cargo/registry/src/github.com-1ecc6299db9ec823/compiler_builtins-0.1.9/src/mem.rs:29
  2e:	d035      	beq.n	9c <memmove+0x9c>
/cargo/registry/src/github.com-1ecc6299db9ec823/compiler_builtins-0.1.9/src/mem.rs:30
  30:	1ed3      	subs	r3, r2, #3
/cargo/registry/src/github.com-1ecc6299db9ec823/compiler_builtins-0.1.9/src/mem.rs:31
  32:	5cca      	ldrb	r2, [r1, r3]
  34:	54c2      	strb	r2, [r0, r3]
/cargo/registry/src/github.com-1ecc6299db9ec823/compiler_builtins-0.1.9/src/mem.rs:30
  36:	f1bc 0f03 	cmp.w	ip, #3
  3a:	d232      	bcs.n	a2 <memmove+0xa2>
  3c:	e047      	b.n	ce <memmove+0xce>
/cargo/registry/src/github.com-1ecc6299db9ec823/compiler_builtins-0.1.9/src/mem.rs:36
  3e:	2a00      	cmp	r2, #0
  40:	d045      	beq.n	ce <memmove+0xce>
offset<u8>():
/rustc/3c235d5600393dfe6c36eeed34042efad8d4f26e/src/libcore/ptr.rs:1077
  42:	1e53      	subs	r3, r2, #1
  44:	f002 0c03 	and.w	ip, r2, #3
  48:	2b03      	cmp	r3, #3
  4a:	d204      	bcs.n	56 <memmove+0x56>
memmove():
  4c:	2200      	movs	r2, #0
/cargo/registry/src/github.com-1ecc6299db9ec823/compiler_builtins-0.1.9/src/mem.rs:36
  4e:	f1bc 0f00 	cmp.w	ip, #0
  52:	d113      	bne.n	7c <memmove+0x7c>
  54:	e03b      	b.n	ce <memmove+0xce>
offset<u8>():
/rustc/3c235d5600393dfe6c36eeed34042efad8d4f26e/src/libcore/ptr.rs:1077
  56:	eba2 0e0c 	sub.w	lr, r2, ip
  5a:	2200      	movs	r2, #0
memmove():
/cargo/registry/src/github.com-1ecc6299db9ec823/compiler_builtins-0.1.9/src/mem.rs:37
  5c:	5c8c      	ldrb	r4, [r1, r2]
  5e:	188b      	adds	r3, r1, r2
  60:	5484      	strb	r4, [r0, r2]
  62:	1884      	adds	r4, r0, r2
/cargo/registry/src/github.com-1ecc6299db9ec823/compiler_builtins-0.1.9/src/mem.rs:38
  64:	3204      	adds	r2, #4
/cargo/registry/src/github.com-1ecc6299db9ec823/compiler_builtins-0.1.9/src/mem.rs:37
  66:	785d      	ldrb	r5, [r3, #1]
/cargo/registry/src/github.com-1ecc6299db9ec823/compiler_builtins-0.1.9/src/mem.rs:36
  68:	4596      	cmp	lr, r2
/cargo/registry/src/github.com-1ecc6299db9ec823/compiler_builtins-0.1.9/src/mem.rs:37
  6a:	7065      	strb	r5, [r4, #1]
  6c:	789d      	ldrb	r5, [r3, #2]
  6e:	70a5      	strb	r5, [r4, #2]
  70:	78db      	ldrb	r3, [r3, #3]
  72:	70e3      	strb	r3, [r4, #3]
/cargo/registry/src/github.com-1ecc6299db9ec823/compiler_builtins-0.1.9/src/mem.rs:36
  74:	d1f2      	bne.n	5c <memmove+0x5c>
  76:	f1bc 0f00 	cmp.w	ip, #0
  7a:	d028      	beq.n	ce <memmove+0xce>
/cargo/registry/src/github.com-1ecc6299db9ec823/compiler_builtins-0.1.9/src/mem.rs:37
  7c:	5c8b      	ldrb	r3, [r1, r2]
/cargo/registry/src/github.com-1ecc6299db9ec823/compiler_builtins-0.1.9/src/mem.rs:36
  7e:	f1bc 0f01 	cmp.w	ip, #1
/cargo/registry/src/github.com-1ecc6299db9ec823/compiler_builtins-0.1.9/src/mem.rs:37
  82:	5483      	strb	r3, [r0, r2]
/cargo/registry/src/github.com-1ecc6299db9ec823/compiler_builtins-0.1.9/src/mem.rs:36
  84:	d023      	beq.n	ce <memmove+0xce>
  86:	1c53      	adds	r3, r2, #1
  88:	f1bc 0f02 	cmp.w	ip, #2
/cargo/registry/src/github.com-1ecc6299db9ec823/compiler_builtins-0.1.9/src/mem.rs:37
  8c:	5ccd      	ldrb	r5, [r1, r3]
  8e:	54c5      	strb	r5, [r0, r3]
/cargo/registry/src/github.com-1ecc6299db9ec823/compiler_builtins-0.1.9/src/mem.rs:36
  90:	d01d      	beq.n	ce <memmove+0xce>
  92:	3202      	adds	r2, #2
/cargo/registry/src/github.com-1ecc6299db9ec823/compiler_builtins-0.1.9/src/mem.rs:37
  94:	5c89      	ldrb	r1, [r1, r2]
  96:	5481      	strb	r1, [r0, r2]
/cargo/registry/src/github.com-1ecc6299db9ec823/compiler_builtins-0.1.9/src/mem.rs:42
  98:	bdb0      	pop	{r4, r5, r7, pc}
  9a:	4613      	mov	r3, r2
/cargo/registry/src/github.com-1ecc6299db9ec823/compiler_builtins-0.1.9/src/mem.rs:30
  9c:	f1bc 0f03 	cmp.w	ip, #3
  a0:	d315      	bcc.n	ce <memmove+0xce>
  a2:	f1a1 0c04 	sub.w	ip, r1, #4
  a6:	f1a0 0e02 	sub.w	lr, r0, #2
/cargo/registry/src/github.com-1ecc6299db9ec823/compiler_builtins-0.1.9/src/mem.rs:31
  aa:	eb0c 0203 	add.w	r2, ip, r3
  ae:	eb0e 0103 	add.w	r1, lr, r3
  b2:	78d4      	ldrb	r4, [r2, #3]
  b4:	704c      	strb	r4, [r1, #1]
  b6:	7894      	ldrb	r4, [r2, #2]
  b8:	f80e 4003 	strb.w	r4, [lr, r3]
  bc:	7852      	ldrb	r2, [r2, #1]
  be:	f801 2c01 	strb.w	r2, [r1, #-1]
  c2:	f81c 2003 	ldrb.w	r2, [ip, r3]
/cargo/registry/src/github.com-1ecc6299db9ec823/compiler_builtins-0.1.9/src/mem.rs:30
  c6:	3b04      	subs	r3, #4
/cargo/registry/src/github.com-1ecc6299db9ec823/compiler_builtins-0.1.9/src/mem.rs:31
  c8:	f801 2c02 	strb.w	r2, [r1, #-2]
/cargo/registry/src/github.com-1ecc6299db9ec823/compiler_builtins-0.1.9/src/mem.rs:29
  cc:	d1ed      	bne.n	aa <memmove+0xaa>
/cargo/registry/src/github.com-1ecc6299db9ec823/compiler_builtins-0.1.9/src/mem.rs:42
  ce:	bdb0      	pop	{r4, r5, r7, pc}

Disassembly of section .text.memset:

00000000 <memset>:
memset():
/cargo/registry/src/github.com-1ecc6299db9ec823/compiler_builtins-0.1.9/src/mem.rs:47
   0:	2a00      	cmp	r2, #0
/cargo/registry/src/github.com-1ecc6299db9ec823/compiler_builtins-0.1.9/src/mem.rs:52
   2:	bf08      	it	eq
   4:	4770      	bxeq	lr
   6:	b580      	push	{r7, lr}
/cargo/registry/src/github.com-1ecc6299db9ec823/compiler_builtins-0.1.9/src/mem.rs:47
   8:	1e53      	subs	r3, r2, #1
   a:	f002 0c03 	and.w	ip, r2, #3
   e:	2b03      	cmp	r3, #3
  10:	d201      	bcs.n	16 <memset+0x16>
  12:	2200      	movs	r2, #0
  14:	e00a      	b.n	2c <memset+0x2c>
  16:	eba2 0e0c 	sub.w	lr, r2, ip
  1a:	2200      	movs	r2, #0
/cargo/registry/src/github.com-1ecc6299db9ec823/compiler_builtins-0.1.9/src/mem.rs:48
  1c:	5481      	strb	r1, [r0, r2]
  1e:	1883      	adds	r3, r0, r2
/cargo/registry/src/github.com-1ecc6299db9ec823/compiler_builtins-0.1.9/src/mem.rs:49
  20:	3204      	adds	r2, #4
/cargo/registry/src/github.com-1ecc6299db9ec823/compiler_builtins-0.1.9/src/mem.rs:47
  22:	4596      	cmp	lr, r2
/cargo/registry/src/github.com-1ecc6299db9ec823/compiler_builtins-0.1.9/src/mem.rs:48
  24:	70d9      	strb	r1, [r3, #3]
  26:	7099      	strb	r1, [r3, #2]
  28:	7059      	strb	r1, [r3, #1]
/cargo/registry/src/github.com-1ecc6299db9ec823/compiler_builtins-0.1.9/src/mem.rs:47
  2a:	d1f7      	bne.n	1c <memset+0x1c>
  2c:	f1bc 0f00 	cmp.w	ip, #0
  30:	e8bd 4080 	ldmia.w	sp!, {r7, lr}
/cargo/registry/src/github.com-1ecc6299db9ec823/compiler_builtins-0.1.9/src/mem.rs:48
  34:	bf1c      	itt	ne
  36:	5481      	strbne	r1, [r0, r2]
/cargo/registry/src/github.com-1ecc6299db9ec823/compiler_builtins-0.1.9/src/mem.rs:47
  38:	f1bc 0f01 	cmpne.w	ip, #1
  3c:	d100      	bne.n	40 <memset+0x40>
/cargo/registry/src/github.com-1ecc6299db9ec823/compiler_builtins-0.1.9/src/mem.rs:52
  3e:	4770      	bx	lr
offset<u8>():
/rustc/3c235d5600393dfe6c36eeed34042efad8d4f26e/src/libcore/ptr.rs:1697
  40:	4402      	add	r2, r0
memset():
/cargo/registry/src/github.com-1ecc6299db9ec823/compiler_builtins-0.1.9/src/mem.rs:47
  42:	f1bc 0f02 	cmp.w	ip, #2
/cargo/registry/src/github.com-1ecc6299db9ec823/compiler_builtins-0.1.9/src/mem.rs:48
  46:	7051      	strb	r1, [r2, #1]
  48:	bf1c      	itt	ne
  4a:	7091      	strbne	r1, [r2, #2]
/cargo/registry/src/github.com-1ecc6299db9ec823/compiler_builtins-0.1.9/src/mem.rs:52
  4c:	4770      	bxne	lr
  4e:	4770      	bx	lr

Disassembly of section .text.memcmp:

00000000 <memcmp>:
memcmp():
/cargo/registry/src/github.com-1ecc6299db9ec823/compiler_builtins-0.1.9/src/mem.rs:55
   0:	b5b0      	push	{r4, r5, r7, lr}
/cargo/registry/src/github.com-1ecc6299db9ec823/compiler_builtins-0.1.9/src/mem.rs:57
   2:	b382      	cbz	r2, 66 <memcmp+0x66>
   4:	f04f 0c03 	mov.w	ip, #3
/cargo/registry/src/github.com-1ecc6299db9ec823/compiler_builtins-0.1.9/src/mem.rs:59
   8:	eb01 040c 	add.w	r4, r1, ip
/cargo/registry/src/github.com-1ecc6299db9ec823/compiler_builtins-0.1.9/src/mem.rs:58
   c:	eb00 050c 	add.w	r5, r0, ip
/cargo/registry/src/github.com-1ecc6299db9ec823/compiler_builtins-0.1.9/src/mem.rs:59
  10:	f814 ec03 	ldrb.w	lr, [r4, #-3]
/cargo/registry/src/github.com-1ecc6299db9ec823/compiler_builtins-0.1.9/src/mem.rs:58
  14:	f815 3c03 	ldrb.w	r3, [r5, #-3]
/cargo/registry/src/github.com-1ecc6299db9ec823/compiler_builtins-0.1.9/src/mem.rs:60
  18:	4573      	cmp	r3, lr
  1a:	d126      	bne.n	6a <memcmp+0x6a>
  1c:	f1ac 0302 	sub.w	r3, ip, #2
/cargo/registry/src/github.com-1ecc6299db9ec823/compiler_builtins-0.1.9/src/mem.rs:57
  20:	4293      	cmp	r3, r2
  22:	d225      	bcs.n	70 <memcmp+0x70>
/cargo/registry/src/github.com-1ecc6299db9ec823/compiler_builtins-0.1.9/src/mem.rs:59
  24:	f814 ec02 	ldrb.w	lr, [r4, #-2]
/cargo/registry/src/github.com-1ecc6299db9ec823/compiler_builtins-0.1.9/src/mem.rs:58
  28:	f815 3c02 	ldrb.w	r3, [r5, #-2]
/cargo/registry/src/github.com-1ecc6299db9ec823/compiler_builtins-0.1.9/src/mem.rs:60
  2c:	4573      	cmp	r3, lr
  2e:	d11c      	bne.n	6a <memcmp+0x6a>
  30:	f1ac 0301 	sub.w	r3, ip, #1
/cargo/registry/src/github.com-1ecc6299db9ec823/compiler_builtins-0.1.9/src/mem.rs:57
  34:	4293      	cmp	r3, r2
  36:	d214      	bcs.n	62 <memcmp+0x62>
/cargo/registry/src/github.com-1ecc6299db9ec823/compiler_builtins-0.1.9/src/mem.rs:59
  38:	f814 ec01 	ldrb.w	lr, [r4, #-1]
/cargo/registry/src/github.com-1ecc6299db9ec823/compiler_builtins-0.1.9/src/mem.rs:58
  3c:	f815 3c01 	ldrb.w	r3, [r5, #-1]
/cargo/registry/src/github.com-1ecc6299db9ec823/compiler_builtins-0.1.9/src/mem.rs:60
  40:	4573      	cmp	r3, lr
  42:	d112      	bne.n	6a <memcmp+0x6a>
/cargo/registry/src/github.com-1ecc6299db9ec823/compiler_builtins-0.1.9/src/mem.rs:57
  44:	4594      	cmp	ip, r2
  46:	d20c      	bcs.n	62 <memcmp+0x62>
/cargo/registry/src/github.com-1ecc6299db9ec823/compiler_builtins-0.1.9/src/mem.rs:59
  48:	f811 e00c 	ldrb.w	lr, [r1, ip]
/cargo/registry/src/github.com-1ecc6299db9ec823/compiler_builtins-0.1.9/src/mem.rs:58
  4c:	f810 300c 	ldrb.w	r3, [r0, ip]
/cargo/registry/src/github.com-1ecc6299db9ec823/compiler_builtins-0.1.9/src/mem.rs:60
  50:	4573      	cmp	r3, lr
  52:	d10a      	bne.n	6a <memcmp+0x6a>
/cargo/registry/src/github.com-1ecc6299db9ec823/compiler_builtins-0.1.9/src/mem.rs:57
  54:	f10c 0304 	add.w	r3, ip, #4
  58:	f10c 0501 	add.w	r5, ip, #1
  5c:	4295      	cmp	r5, r2
  5e:	469c      	mov	ip, r3
  60:	d3d2      	bcc.n	8 <memcmp+0x8>
  62:	2000      	movs	r0, #0
/cargo/registry/src/github.com-1ecc6299db9ec823/compiler_builtins-0.1.9/src/mem.rs:66
  64:	bdb0      	pop	{r4, r5, r7, pc}
  66:	2000      	movs	r0, #0
  68:	bdb0      	pop	{r4, r5, r7, pc}
/cargo/registry/src/github.com-1ecc6299db9ec823/compiler_builtins-0.1.9/src/mem.rs:61
  6a:	eba3 000e 	sub.w	r0, r3, lr
/cargo/registry/src/github.com-1ecc6299db9ec823/compiler_builtins-0.1.9/src/mem.rs:66
  6e:	bdb0      	pop	{r4, r5, r7, pc}
  70:	2000      	movs	r0, #0
  72:	bdb0      	pop	{r4, r5, r7, pc}

Disassembly of section .text.__aeabi_uidivmod:

00000000 <__aeabi_uidivmod>:
__aeabi_uidivmod():
/cargo/registry/src/github.com-1ecc6299db9ec823/compiler_builtins-0.1.9/src/arm.rs:11
   0:	b500      	push	{lr}
   2:	b081      	sub	sp, #4
   4:	466a      	mov	r2, sp
   6:	f7ff fffe 	bl	0 <__udivmodsi4>
   a:	9900      	ldr	r1, [sp, #0]
   c:	b001      	add	sp, #4
   e:	bd00      	pop	{pc}
/cargo/registry/src/github.com-1ecc6299db9ec823/compiler_builtins-0.1.9/src/arm.rs:18
  10:	defe      	udf	#254	; 0xfe

Disassembly of section .text.__aeabi_uldivmod:

00000000 <__aeabi_uldivmod>:
__aeabi_uldivmod():
/cargo/registry/src/github.com-1ecc6299db9ec823/compiler_builtins-0.1.9/src/arm.rs:39
   0:	b510      	push	{r4, lr}
   2:	b084      	sub	sp, #16
   4:	ac02      	add	r4, sp, #8
   6:	9400      	str	r4, [sp, #0]
   8:	f7ff fffe 	bl	0 <__aeabi_uldivmod>
   c:	9a02      	ldr	r2, [sp, #8]
   e:	9b03      	ldr	r3, [sp, #12]
  10:	b004      	add	sp, #16
  12:	bd10      	pop	{r4, pc}
/cargo/registry/src/github.com-1ecc6299db9ec823/compiler_builtins-0.1.9/src/arm.rs:48
  14:	defe      	udf	#254	; 0xfe

Disassembly of section .text.__aeabi_idivmod:

00000000 <__aeabi_idivmod>:
__aeabi_idivmod():
/cargo/registry/src/github.com-1ecc6299db9ec823/compiler_builtins-0.1.9/src/arm.rs:71
   0:	b513      	push	{r0, r1, r4, lr}
   2:	f7ff fffe 	bl	0 <__aeabi_idivmod>
   6:	bc06      	pop	{r1, r2}
   8:	4342      	muls	r2, r0
   a:	1a89      	subs	r1, r1, r2
   c:	bd10      	pop	{r4, pc}
/cargo/registry/src/github.com-1ecc6299db9ec823/compiler_builtins-0.1.9/src/arm.rs:77
   e:	defe      	udf	#254	; 0xfe

Disassembly of section .text.__aeabi_ldivmod:

00000000 <__aeabi_ldivmod>:
__aeabi_ldivmod():
/cargo/registry/src/github.com-1ecc6299db9ec823/compiler_builtins-0.1.9/src/arm.rs:97
   0:	b510      	push	{r4, lr}
   2:	b084      	sub	sp, #16
   4:	ac02      	add	r4, sp, #8
   6:	9400      	str	r4, [sp, #0]
   8:	f7ff fffe 	bl	0 <__aeabi_ldivmod>
   c:	9a02      	ldr	r2, [sp, #8]
   e:	9b03      	ldr	r3, [sp, #12]
  10:	b004      	add	sp, #16
  12:	bd10      	pop	{r4, pc}
/cargo/registry/src/github.com-1ecc6299db9ec823/compiler_builtins-0.1.9/src/arm.rs:106
  14:	defe      	udf	#254	; 0xfe

Disassembly of section .text.__aeabi_memcpy:

00000000 <__aeabi_memcpy>:
__aeabi_memcpy():
/cargo/registry/src/github.com-1ecc6299db9ec823/compiler_builtins-0.1.9/src/arm.rs:130
   0:	b5b0      	push	{r4, r5, r7, lr}
memcpy():
/cargo/registry/src/github.com-1ecc6299db9ec823/compiler_builtins-0.1.9/src/mem.rs:14
   2:	b35a      	cbz	r2, 5c <__aeabi_memcpy+0x5c>
offset<u8>():
/rustc/3c235d5600393dfe6c36eeed34042efad8d4f26e/src/libcore/ptr.rs:1077
   4:	1e53      	subs	r3, r2, #1
   6:	f002 0c03 	and.w	ip, r2, #3
   a:	2b03      	cmp	r3, #3
   c:	d204      	bcs.n	18 <__aeabi_memcpy+0x18>
memcpy():
   e:	2200      	movs	r2, #0
/cargo/registry/src/github.com-1ecc6299db9ec823/compiler_builtins-0.1.9/src/mem.rs:14
  10:	f1bc 0f00 	cmp.w	ip, #0
  14:	d113      	bne.n	3e <__aeabi_memcpy+0x3e>
  16:	e021      	b.n	5c <__aeabi_memcpy+0x5c>
offset<u8>():
/rustc/3c235d5600393dfe6c36eeed34042efad8d4f26e/src/libcore/ptr.rs:1077
  18:	eba2 0e0c 	sub.w	lr, r2, ip
  1c:	2200      	movs	r2, #0
memcpy():
/cargo/registry/src/github.com-1ecc6299db9ec823/compiler_builtins-0.1.9/src/mem.rs:15
  1e:	5c8b      	ldrb	r3, [r1, r2]
  20:	188c      	adds	r4, r1, r2
  22:	5483      	strb	r3, [r0, r2]
  24:	1883      	adds	r3, r0, r2
/cargo/registry/src/github.com-1ecc6299db9ec823/compiler_builtins-0.1.9/src/mem.rs:16
  26:	3204      	adds	r2, #4
/cargo/registry/src/github.com-1ecc6299db9ec823/compiler_builtins-0.1.9/src/mem.rs:15
  28:	7865      	ldrb	r5, [r4, #1]
/cargo/registry/src/github.com-1ecc6299db9ec823/compiler_builtins-0.1.9/src/mem.rs:14
  2a:	4596      	cmp	lr, r2
/cargo/registry/src/github.com-1ecc6299db9ec823/compiler_builtins-0.1.9/src/mem.rs:15
  2c:	705d      	strb	r5, [r3, #1]
  2e:	78a5      	ldrb	r5, [r4, #2]
  30:	709d      	strb	r5, [r3, #2]
  32:	78e4      	ldrb	r4, [r4, #3]
  34:	70dc      	strb	r4, [r3, #3]
/cargo/registry/src/github.com-1ecc6299db9ec823/compiler_builtins-0.1.9/src/mem.rs:14
  36:	d1f2      	bne.n	1e <__aeabi_memcpy+0x1e>
  38:	f1bc 0f00 	cmp.w	ip, #0
  3c:	d00e      	beq.n	5c <__aeabi_memcpy+0x5c>
/cargo/registry/src/github.com-1ecc6299db9ec823/compiler_builtins-0.1.9/src/mem.rs:15
  3e:	5c8b      	ldrb	r3, [r1, r2]
/cargo/registry/src/github.com-1ecc6299db9ec823/compiler_builtins-0.1.9/src/mem.rs:14
  40:	f1bc 0f01 	cmp.w	ip, #1
/cargo/registry/src/github.com-1ecc6299db9ec823/compiler_builtins-0.1.9/src/mem.rs:15
  44:	5483      	strb	r3, [r0, r2]
/cargo/registry/src/github.com-1ecc6299db9ec823/compiler_builtins-0.1.9/src/mem.rs:14
  46:	d009      	beq.n	5c <__aeabi_memcpy+0x5c>
  48:	1c53      	adds	r3, r2, #1
  4a:	f1bc 0f02 	cmp.w	ip, #2
/cargo/registry/src/github.com-1ecc6299db9ec823/compiler_builtins-0.1.9/src/mem.rs:15
  4e:	5ccd      	ldrb	r5, [r1, r3]
  50:	54c5      	strb	r5, [r0, r3]
__aeabi_memcpy():
/cargo/registry/src/github.com-1ecc6299db9ec823/compiler_builtins-0.1.9/src/arm.rs:132
  52:	bf08      	it	eq
  54:	bdb0      	popeq	{r4, r5, r7, pc}
memcpy():
  56:	3202      	adds	r2, #2
/cargo/registry/src/github.com-1ecc6299db9ec823/compiler_builtins-0.1.9/src/mem.rs:15
  58:	5c89      	ldrb	r1, [r1, r2]
  5a:	5481      	strb	r1, [r0, r2]
__aeabi_memcpy():
/cargo/registry/src/github.com-1ecc6299db9ec823/compiler_builtins-0.1.9/src/arm.rs:132
  5c:	bdb0      	pop	{r4, r5, r7, pc}

Disassembly of section .text.__aeabi_memcpy4:

00000000 <__aeabi_memcpy4>:
__aeabi_memcpy4():
/cargo/registry/src/github.com-1ecc6299db9ec823/compiler_builtins-0.1.9/src/arm.rs:143
   0:	2a04      	cmp	r2, #4
/cargo/registry/src/github.com-1ecc6299db9ec823/compiler_builtins-0.1.9/src/arm.rs:150
   2:	bf38      	it	cc
   4:	f7ff bffe 	bcc.w	0 <__aeabi_memcpy4>
   8:	b5b0      	push	{r4, r5, r7, lr}
copy_nonoverlapping<u32>():
/rustc/3c235d5600393dfe6c36eeed34042efad8d4f26e/src/libcore/intrinsics.rs:1422
   a:	f1a2 0c04 	sub.w	ip, r2, #4
   e:	2301      	movs	r3, #1
  10:	eb03 039c 	add.w	r3, r3, ip, lsr #2
  14:	f013 0303 	ands.w	r3, r3, #3
  18:	d00e      	beq.n	38 <__aeabi_memcpy4+0x38>
  1a:	468e      	mov	lr, r1
write<u32>():
/rustc/3c235d5600393dfe6c36eeed34042efad8d4f26e/src/libcore/ptr.rs:735
  1c:	4604      	mov	r4, r0
copy_nonoverlapping<u32>():
/rustc/3c235d5600393dfe6c36eeed34042efad8d4f26e/src/libcore/intrinsics.rs:1422
  1e:	f85e 5b04 	ldr.w	r5, [lr], #4
__aeabi_memcpy4():
/cargo/registry/src/github.com-1ecc6299db9ec823/compiler_builtins-0.1.9/src/arm.rs:143
  22:	2b01      	cmp	r3, #1
write<u32>():
/rustc/3c235d5600393dfe6c36eeed34042efad8d4f26e/src/libcore/ptr.rs:735
  24:	f844 5b04 	str.w	r5, [r4], #4
__aeabi_memcpy4():
/cargo/registry/src/github.com-1ecc6299db9ec823/compiler_builtins-0.1.9/src/arm.rs:143
  28:	d11f      	bne.n	6a <__aeabi_memcpy4+0x6a>
  2a:	4663      	mov	r3, ip
  2c:	4620      	mov	r0, r4
  2e:	4671      	mov	r1, lr
copy_nonoverlapping<u32>():
/rustc/3c235d5600393dfe6c36eeed34042efad8d4f26e/src/libcore/intrinsics.rs:1422
  30:	f1bc 0f0c 	cmp.w	ip, #12
  34:	d204      	bcs.n	40 <__aeabi_memcpy4+0x40>
  36:	e012      	b.n	5e <__aeabi_memcpy4+0x5e>
  38:	4613      	mov	r3, r2
  3a:	f1bc 0f0c 	cmp.w	ip, #12
  3e:	d30e      	bcc.n	5e <__aeabi_memcpy4+0x5e>
  40:	680d      	ldr	r5, [r1, #0]
__aeabi_memcpy4():
/cargo/registry/src/github.com-1ecc6299db9ec823/compiler_builtins-0.1.9/src/arm.rs:147
  42:	3b10      	subs	r3, #16
write<u32>():
/rustc/3c235d5600393dfe6c36eeed34042efad8d4f26e/src/libcore/ptr.rs:735
  44:	6005      	str	r5, [r0, #0]
__aeabi_memcpy4():
/cargo/registry/src/github.com-1ecc6299db9ec823/compiler_builtins-0.1.9/src/arm.rs:143
  46:	2b03      	cmp	r3, #3
copy_nonoverlapping<u32>():
/rustc/3c235d5600393dfe6c36eeed34042efad8d4f26e/src/libcore/intrinsics.rs:1422
  48:	684d      	ldr	r5, [r1, #4]
write<u32>():
/rustc/3c235d5600393dfe6c36eeed34042efad8d4f26e/src/libcore/ptr.rs:735
  4a:	6045      	str	r5, [r0, #4]
copy_nonoverlapping<u32>():
/rustc/3c235d5600393dfe6c36eeed34042efad8d4f26e/src/libcore/intrinsics.rs:1422
  4c:	688d      	ldr	r5, [r1, #8]
write<u32>():
/rustc/3c235d5600393dfe6c36eeed34042efad8d4f26e/src/libcore/ptr.rs:735
  4e:	6085      	str	r5, [r0, #8]
copy_nonoverlapping<u32>():
/rustc/3c235d5600393dfe6c36eeed34042efad8d4f26e/src/libcore/intrinsics.rs:1422
  50:	68cd      	ldr	r5, [r1, #12]
offset<u32>():
/rustc/3c235d5600393dfe6c36eeed34042efad8d4f26e/src/libcore/ptr.rs:1697
  52:	f101 0110 	add.w	r1, r1, #16
write<u32>():
/rustc/3c235d5600393dfe6c36eeed34042efad8d4f26e/src/libcore/ptr.rs:735
  56:	60c5      	str	r5, [r0, #12]
offset<u32>():
/rustc/3c235d5600393dfe6c36eeed34042efad8d4f26e/src/libcore/ptr.rs:1697
  58:	f100 0010 	add.w	r0, r0, #16
__aeabi_memcpy4():
/cargo/registry/src/github.com-1ecc6299db9ec823/compiler_builtins-0.1.9/src/arm.rs:143
  5c:	d8f0      	bhi.n	40 <__aeabi_memcpy4+0x40>
copy_nonoverlapping<u32>():
/rustc/3c235d5600393dfe6c36eeed34042efad8d4f26e/src/libcore/intrinsics.rs:1422
  5e:	f002 0203 	and.w	r2, r2, #3
  62:	e8bd 40b0 	ldmia.w	sp!, {r4, r5, r7, lr}
__aeabi_memcpy4():
/cargo/registry/src/github.com-1ecc6299db9ec823/compiler_builtins-0.1.9/src/arm.rs:150
  66:	f7ff bffe 	b.w	0 <__aeabi_memcpy4>
copy_nonoverlapping<u32>():
/rustc/3c235d5600393dfe6c36eeed34042efad8d4f26e/src/libcore/intrinsics.rs:1422
  6a:	684d      	ldr	r5, [r1, #4]
__aeabi_memcpy4():
/cargo/registry/src/github.com-1ecc6299db9ec823/compiler_builtins-0.1.9/src/arm.rs:143
  6c:	2b02      	cmp	r3, #2
write<u32>():
/rustc/3c235d5600393dfe6c36eeed34042efad8d4f26e/src/libcore/ptr.rs:735
  6e:	6045      	str	r5, [r0, #4]
__aeabi_memcpy4():
/cargo/registry/src/github.com-1ecc6299db9ec823/compiler_builtins-0.1.9/src/arm.rs:143
  70:	d107      	bne.n	82 <__aeabi_memcpy4+0x82>
  72:	f1a2 0308 	sub.w	r3, r2, #8
  76:	3108      	adds	r1, #8
  78:	3008      	adds	r0, #8
copy_nonoverlapping<u32>():
/rustc/3c235d5600393dfe6c36eeed34042efad8d4f26e/src/libcore/intrinsics.rs:1422
  7a:	f1bc 0f0c 	cmp.w	ip, #12
  7e:	d2df      	bcs.n	40 <__aeabi_memcpy4+0x40>
  80:	e7ed      	b.n	5e <__aeabi_memcpy4+0x5e>
  82:	688b      	ldr	r3, [r1, #8]
offset<u32>():
/rustc/3c235d5600393dfe6c36eeed34042efad8d4f26e/src/libcore/ptr.rs:1697
  84:	310c      	adds	r1, #12
write<u32>():
/rustc/3c235d5600393dfe6c36eeed34042efad8d4f26e/src/libcore/ptr.rs:735
  86:	6083      	str	r3, [r0, #8]
__aeabi_memcpy4():
/cargo/registry/src/github.com-1ecc6299db9ec823/compiler_builtins-0.1.9/src/arm.rs:147
  88:	f1a2 030c 	sub.w	r3, r2, #12
offset<u32>():
/rustc/3c235d5600393dfe6c36eeed34042efad8d4f26e/src/libcore/ptr.rs:1697
  8c:	300c      	adds	r0, #12
copy_nonoverlapping<u32>():
/rustc/3c235d5600393dfe6c36eeed34042efad8d4f26e/src/libcore/intrinsics.rs:1422
  8e:	f1bc 0f0c 	cmp.w	ip, #12
  92:	d2d5      	bcs.n	40 <__aeabi_memcpy4+0x40>
  94:	e7e3      	b.n	5e <__aeabi_memcpy4+0x5e>

Disassembly of section .text.__aeabi_memcpy8:

00000000 <__aeabi_memcpy8>:
__aeabi_memcpy8():
/cargo/registry/src/github.com-1ecc6299db9ec823/compiler_builtins-0.1.9/src/arm.rs:157
   0:	f7ff bffe 	b.w	0 <__aeabi_memcpy8>

Disassembly of section .text.__aeabi_memmove:

00000000 <__aeabi_memmove>:
__aeabi_memmove():
/cargo/registry/src/github.com-1ecc6299db9ec823/compiler_builtins-0.1.9/src/arm.rs:163
   0:	b5b0      	push	{r4, r5, r7, lr}
memmove():
/cargo/registry/src/github.com-1ecc6299db9ec823/compiler_builtins-0.1.9/src/mem.rs:26
   2:	4281      	cmp	r1, r0
   4:	d21b      	bcs.n	3e <__aeabi_memmove+0x3e>
/cargo/registry/src/github.com-1ecc6299db9ec823/compiler_builtins-0.1.9/src/mem.rs:29
   6:	2a00      	cmp	r2, #0
   8:	d062      	beq.n	d0 <__aeabi_memmove+0xd0>
/cargo/registry/src/github.com-1ecc6299db9ec823/compiler_builtins-0.1.9/src/mem.rs:30
   a:	f012 0e03 	ands.w	lr, r2, #3
   e:	f1a2 0c01 	sub.w	ip, r2, #1
  12:	d043      	beq.n	9c <__aeabi_memmove+0x9c>
/cargo/registry/src/github.com-1ecc6299db9ec823/compiler_builtins-0.1.9/src/mem.rs:31
  14:	f811 300c 	ldrb.w	r3, [r1, ip]
/cargo/registry/src/github.com-1ecc6299db9ec823/compiler_builtins-0.1.9/src/mem.rs:29
  18:	f1be 0f01 	cmp.w	lr, #1
/cargo/registry/src/github.com-1ecc6299db9ec823/compiler_builtins-0.1.9/src/mem.rs:31
  1c:	f800 300c 	strb.w	r3, [r0, ip]
  20:	4663      	mov	r3, ip
/cargo/registry/src/github.com-1ecc6299db9ec823/compiler_builtins-0.1.9/src/mem.rs:29
  22:	d03c      	beq.n	9e <__aeabi_memmove+0x9e>
/cargo/registry/src/github.com-1ecc6299db9ec823/compiler_builtins-0.1.9/src/mem.rs:30
  24:	1e93      	subs	r3, r2, #2
/cargo/registry/src/github.com-1ecc6299db9ec823/compiler_builtins-0.1.9/src/mem.rs:29
  26:	f1be 0f02 	cmp.w	lr, #2
/cargo/registry/src/github.com-1ecc6299db9ec823/compiler_builtins-0.1.9/src/mem.rs:31
  2a:	5ccc      	ldrb	r4, [r1, r3]
  2c:	54c4      	strb	r4, [r0, r3]
/cargo/registry/src/github.com-1ecc6299db9ec823/compiler_builtins-0.1.9/src/mem.rs:29
  2e:	d036      	beq.n	9e <__aeabi_memmove+0x9e>
/cargo/registry/src/github.com-1ecc6299db9ec823/compiler_builtins-0.1.9/src/mem.rs:30
  30:	1ed3      	subs	r3, r2, #3
/cargo/registry/src/github.com-1ecc6299db9ec823/compiler_builtins-0.1.9/src/mem.rs:31
  32:	5cca      	ldrb	r2, [r1, r3]
  34:	54c2      	strb	r2, [r0, r3]
/cargo/registry/src/github.com-1ecc6299db9ec823/compiler_builtins-0.1.9/src/mem.rs:30
  36:	f1bc 0f03 	cmp.w	ip, #3
  3a:	d233      	bcs.n	a4 <__aeabi_memmove+0xa4>
  3c:	e048      	b.n	d0 <__aeabi_memmove+0xd0>
/cargo/registry/src/github.com-1ecc6299db9ec823/compiler_builtins-0.1.9/src/mem.rs:36
  3e:	2a00      	cmp	r2, #0
  40:	d046      	beq.n	d0 <__aeabi_memmove+0xd0>
offset<u8>():
/rustc/3c235d5600393dfe6c36eeed34042efad8d4f26e/src/libcore/ptr.rs:1077
  42:	1e53      	subs	r3, r2, #1
  44:	f002 0c03 	and.w	ip, r2, #3
  48:	2b03      	cmp	r3, #3
  4a:	d204      	bcs.n	56 <__aeabi_memmove+0x56>
memmove():
  4c:	2200      	movs	r2, #0
/cargo/registry/src/github.com-1ecc6299db9ec823/compiler_builtins-0.1.9/src/mem.rs:36
  4e:	f1bc 0f00 	cmp.w	ip, #0
  52:	d113      	bne.n	7c <__aeabi_memmove+0x7c>
  54:	e03c      	b.n	d0 <__aeabi_memmove+0xd0>
offset<u8>():
/rustc/3c235d5600393dfe6c36eeed34042efad8d4f26e/src/libcore/ptr.rs:1077
  56:	eba2 0e0c 	sub.w	lr, r2, ip
  5a:	2200      	movs	r2, #0
memmove():
/cargo/registry/src/github.com-1ecc6299db9ec823/compiler_builtins-0.1.9/src/mem.rs:37
  5c:	5c8b      	ldrb	r3, [r1, r2]
  5e:	188c      	adds	r4, r1, r2
  60:	5483      	strb	r3, [r0, r2]
  62:	1883      	adds	r3, r0, r2
/cargo/registry/src/github.com-1ecc6299db9ec823/compiler_builtins-0.1.9/src/mem.rs:38
  64:	3204      	adds	r2, #4
/cargo/registry/src/github.com-1ecc6299db9ec823/compiler_builtins-0.1.9/src/mem.rs:37
  66:	7865      	ldrb	r5, [r4, #1]
/cargo/registry/src/github.com-1ecc6299db9ec823/compiler_builtins-0.1.9/src/mem.rs:36
  68:	4596      	cmp	lr, r2
/cargo/registry/src/github.com-1ecc6299db9ec823/compiler_builtins-0.1.9/src/mem.rs:37
  6a:	705d      	strb	r5, [r3, #1]
  6c:	78a5      	ldrb	r5, [r4, #2]
  6e:	709d      	strb	r5, [r3, #2]
  70:	78e4      	ldrb	r4, [r4, #3]
  72:	70dc      	strb	r4, [r3, #3]
/cargo/registry/src/github.com-1ecc6299db9ec823/compiler_builtins-0.1.9/src/mem.rs:36
  74:	d1f2      	bne.n	5c <__aeabi_memmove+0x5c>
  76:	f1bc 0f00 	cmp.w	ip, #0
  7a:	d029      	beq.n	d0 <__aeabi_memmove+0xd0>
/cargo/registry/src/github.com-1ecc6299db9ec823/compiler_builtins-0.1.9/src/mem.rs:37
  7c:	5c8b      	ldrb	r3, [r1, r2]
/cargo/registry/src/github.com-1ecc6299db9ec823/compiler_builtins-0.1.9/src/mem.rs:36
  7e:	f1bc 0f01 	cmp.w	ip, #1
/cargo/registry/src/github.com-1ecc6299db9ec823/compiler_builtins-0.1.9/src/mem.rs:37
  82:	5483      	strb	r3, [r0, r2]
/cargo/registry/src/github.com-1ecc6299db9ec823/compiler_builtins-0.1.9/src/mem.rs:36
  84:	d024      	beq.n	d0 <__aeabi_memmove+0xd0>
  86:	1c53      	adds	r3, r2, #1
  88:	f1bc 0f02 	cmp.w	ip, #2
/cargo/registry/src/github.com-1ecc6299db9ec823/compiler_builtins-0.1.9/src/mem.rs:37
  8c:	5ccd      	ldrb	r5, [r1, r3]
  8e:	54c5      	strb	r5, [r0, r3]
__aeabi_memmove():
/cargo/registry/src/github.com-1ecc6299db9ec823/compiler_builtins-0.1.9/src/arm.rs:165
  90:	bf08      	it	eq
  92:	bdb0      	popeq	{r4, r5, r7, pc}
memmove():
  94:	3202      	adds	r2, #2
/cargo/registry/src/github.com-1ecc6299db9ec823/compiler_builtins-0.1.9/src/mem.rs:37
  96:	5c89      	ldrb	r1, [r1, r2]
  98:	5481      	strb	r1, [r0, r2]
__aeabi_memmove():
/cargo/registry/src/github.com-1ecc6299db9ec823/compiler_builtins-0.1.9/src/arm.rs:165
  9a:	bdb0      	pop	{r4, r5, r7, pc}
  9c:	4613      	mov	r3, r2
memmove():
/cargo/registry/src/github.com-1ecc6299db9ec823/compiler_builtins-0.1.9/src/mem.rs:30
  9e:	f1bc 0f03 	cmp.w	ip, #3
  a2:	d315      	bcc.n	d0 <__aeabi_memmove+0xd0>
  a4:	f1a1 0c04 	sub.w	ip, r1, #4
  a8:	f1a0 0e02 	sub.w	lr, r0, #2
/cargo/registry/src/github.com-1ecc6299db9ec823/compiler_builtins-0.1.9/src/mem.rs:31
  ac:	eb0c 0103 	add.w	r1, ip, r3
  b0:	eb0e 0203 	add.w	r2, lr, r3
  b4:	78c8      	ldrb	r0, [r1, #3]
  b6:	7050      	strb	r0, [r2, #1]
  b8:	7888      	ldrb	r0, [r1, #2]
  ba:	f80e 0003 	strb.w	r0, [lr, r3]
  be:	7848      	ldrb	r0, [r1, #1]
  c0:	f802 0c01 	strb.w	r0, [r2, #-1]
  c4:	f81c 0003 	ldrb.w	r0, [ip, r3]
/cargo/registry/src/github.com-1ecc6299db9ec823/compiler_builtins-0.1.9/src/mem.rs:30
  c8:	3b04      	subs	r3, #4
/cargo/registry/src/github.com-1ecc6299db9ec823/compiler_builtins-0.1.9/src/mem.rs:31
  ca:	f802 0c02 	strb.w	r0, [r2, #-2]
/cargo/registry/src/github.com-1ecc6299db9ec823/compiler_builtins-0.1.9/src/mem.rs:29
  ce:	d1ed      	bne.n	ac <__aeabi_memmove+0xac>
__aeabi_memmove():
/cargo/registry/src/github.com-1ecc6299db9ec823/compiler_builtins-0.1.9/src/arm.rs:165
  d0:	bdb0      	pop	{r4, r5, r7, pc}

Disassembly of section .text..Lanon.109065a98eeed0521bf961624aa4abd9.0:

00000000 <__aeabi_memmove4>:
__aeabi_memmove8():
/cargo/registry/src/github.com-1ecc6299db9ec823/compiler_builtins-0.1.9/src/arm.rs:171
   0:	f7ff bffe 	b.w	0 <__aeabi_memmove4>

Disassembly of section .text.__aeabi_memset:

00000000 <__aeabi_memset>:
__aeabi_memset():
/cargo/registry/src/github.com-1ecc6299db9ec823/compiler_builtins-0.1.9/src/mem.rs:47
   0:	2900      	cmp	r1, #0
/cargo/registry/src/github.com-1ecc6299db9ec823/compiler_builtins-0.1.9/src/arm.rs:187
   2:	bf08      	it	eq
   4:	4770      	bxeq	lr
   6:	b580      	push	{r7, lr}
/cargo/registry/src/github.com-1ecc6299db9ec823/compiler_builtins-0.1.9/src/mem.rs:47
   8:	1e4b      	subs	r3, r1, #1
   a:	f001 0c03 	and.w	ip, r1, #3
   e:	2b03      	cmp	r3, #3
  10:	d201      	bcs.n	16 <__aeabi_memset+0x16>
  12:	2100      	movs	r1, #0
  14:	e00a      	b.n	2c <__aeabi_memset+0x2c>
  16:	eba1 0e0c 	sub.w	lr, r1, ip
  1a:	2100      	movs	r1, #0
/cargo/registry/src/github.com-1ecc6299db9ec823/compiler_builtins-0.1.9/src/mem.rs:48
  1c:	5442      	strb	r2, [r0, r1]
  1e:	1843      	adds	r3, r0, r1
/cargo/registry/src/github.com-1ecc6299db9ec823/compiler_builtins-0.1.9/src/mem.rs:49
  20:	3104      	adds	r1, #4
/cargo/registry/src/github.com-1ecc6299db9ec823/compiler_builtins-0.1.9/src/mem.rs:47
  22:	458e      	cmp	lr, r1
/cargo/registry/src/github.com-1ecc6299db9ec823/compiler_builtins-0.1.9/src/mem.rs:48
  24:	70da      	strb	r2, [r3, #3]
  26:	709a      	strb	r2, [r3, #2]
  28:	705a      	strb	r2, [r3, #1]
/cargo/registry/src/github.com-1ecc6299db9ec823/compiler_builtins-0.1.9/src/mem.rs:47
  2a:	d1f7      	bne.n	1c <__aeabi_memset+0x1c>
  2c:	f1bc 0f00 	cmp.w	ip, #0
  30:	e8bd 4080 	ldmia.w	sp!, {r7, lr}
/cargo/registry/src/github.com-1ecc6299db9ec823/compiler_builtins-0.1.9/src/mem.rs:48
  34:	bf1c      	itt	ne
  36:	5442      	strbne	r2, [r0, r1]
/cargo/registry/src/github.com-1ecc6299db9ec823/compiler_builtins-0.1.9/src/mem.rs:47
  38:	f1bc 0f01 	cmpne.w	ip, #1
  3c:	d100      	bne.n	40 <__aeabi_memset+0x40>
/cargo/registry/src/github.com-1ecc6299db9ec823/compiler_builtins-0.1.9/src/arm.rs:187
  3e:	4770      	bx	lr
offset<u8>():
/rustc/3c235d5600393dfe6c36eeed34042efad8d4f26e/src/libcore/ptr.rs:1697
  40:	4408      	add	r0, r1
__aeabi_memset():
/cargo/registry/src/github.com-1ecc6299db9ec823/compiler_builtins-0.1.9/src/mem.rs:47
  42:	f1bc 0f02 	cmp.w	ip, #2
/cargo/registry/src/github.com-1ecc6299db9ec823/compiler_builtins-0.1.9/src/mem.rs:48
  46:	7042      	strb	r2, [r0, #1]
  48:	bf18      	it	ne
  4a:	7082      	strbne	r2, [r0, #2]
/cargo/registry/src/github.com-1ecc6299db9ec823/compiler_builtins-0.1.9/src/arm.rs:187
  4c:	4770      	bx	lr

Disassembly of section .text.__aeabi_memset4:

00000000 <__aeabi_memset4>:
__aeabi_memset4():
/cargo/registry/src/github.com-1ecc6299db9ec823/compiler_builtins-0.1.9/src/arm.rs:192
   0:	4613      	mov	r3, r2
/cargo/registry/src/github.com-1ecc6299db9ec823/compiler_builtins-0.1.9/src/arm.rs:197
   2:	b2d2      	uxtb	r2, r2
/cargo/registry/src/github.com-1ecc6299db9ec823/compiler_builtins-0.1.9/src/arm.rs:200
   4:	2904      	cmp	r1, #4
/cargo/registry/src/github.com-1ecc6299db9ec823/compiler_builtins-0.1.9/src/arm.rs:206
   6:	bf38      	it	cc
   8:	f7ff bffe 	bcc.w	0 <__aeabi_memset4>
   c:	b510      	push	{r4, lr}
write<u32>():
/rustc/3c235d5600393dfe6c36eeed34042efad8d4f26e/src/libcore/ptr.rs:735
   e:	f1a1 0e04 	sub.w	lr, r1, #4
__aeabi_memset4():
  12:	ea42 6303 	orr.w	r3, r2, r3, lsl #24
  16:	2401      	movs	r4, #1
  18:	ea43 4302 	orr.w	r3, r3, r2, lsl #16
write<u32>():
/rustc/3c235d5600393dfe6c36eeed34042efad8d4f26e/src/libcore/ptr.rs:735
  1c:	eb04 049e 	add.w	r4, r4, lr, lsr #2
__aeabi_memset4():
  20:	ea43 2302 	orr.w	r3, r3, r2, lsl #8
write<u32>():
/rustc/3c235d5600393dfe6c36eeed34042efad8d4f26e/src/libcore/ptr.rs:735
  24:	f014 0403 	ands.w	r4, r4, #3
  28:	d00a      	beq.n	40 <__aeabi_memset4+0x40>
  2a:	4684      	mov	ip, r0
__aeabi_memset4():
/cargo/registry/src/github.com-1ecc6299db9ec823/compiler_builtins-0.1.9/src/arm.rs:200
  2c:	2c01      	cmp	r4, #1
write<u32>():
/rustc/3c235d5600393dfe6c36eeed34042efad8d4f26e/src/libcore/ptr.rs:735
  2e:	f84c 3b04 	str.w	r3, [ip], #4
__aeabi_memset4():
/cargo/registry/src/github.com-1ecc6299db9ec823/compiler_builtins-0.1.9/src/arm.rs:200
  32:	d10a      	bne.n	4a <__aeabi_memset4+0x4a>
  34:	4674      	mov	r4, lr
  36:	4660      	mov	r0, ip
write<u32>():
/rustc/3c235d5600393dfe6c36eeed34042efad8d4f26e/src/libcore/ptr.rs:735
  38:	f1be 0f0c 	cmp.w	lr, #12
  3c:	d214      	bcs.n	68 <__aeabi_memset4+0x68>
  3e:	e01c      	b.n	7a <__aeabi_memset4+0x7a>
  40:	460c      	mov	r4, r1
  42:	f1be 0f0c 	cmp.w	lr, #12
  46:	d318      	bcc.n	7a <__aeabi_memset4+0x7a>
  48:	e00e      	b.n	68 <__aeabi_memset4+0x68>
__aeabi_memset4():
/cargo/registry/src/github.com-1ecc6299db9ec823/compiler_builtins-0.1.9/src/arm.rs:200
  4a:	2c02      	cmp	r4, #2
write<u32>():
/rustc/3c235d5600393dfe6c36eeed34042efad8d4f26e/src/libcore/ptr.rs:735
  4c:	6043      	str	r3, [r0, #4]
__aeabi_memset4():
/cargo/registry/src/github.com-1ecc6299db9ec823/compiler_builtins-0.1.9/src/arm.rs:200
  4e:	d103      	bne.n	58 <__aeabi_memset4+0x58>
  50:	3008      	adds	r0, #8
  52:	f1a1 0408 	sub.w	r4, r1, #8
  56:	e003      	b.n	60 <__aeabi_memset4+0x60>
write<u32>():
/rustc/3c235d5600393dfe6c36eeed34042efad8d4f26e/src/libcore/ptr.rs:735
  58:	6083      	str	r3, [r0, #8]
offset<u32>():
/rustc/3c235d5600393dfe6c36eeed34042efad8d4f26e/src/libcore/ptr.rs:1697
  5a:	300c      	adds	r0, #12
__aeabi_memset4():
/cargo/registry/src/github.com-1ecc6299db9ec823/compiler_builtins-0.1.9/src/arm.rs:203
  5c:	f1a1 040c 	sub.w	r4, r1, #12
  60:	4684      	mov	ip, r0
write<u32>():
/rustc/3c235d5600393dfe6c36eeed34042efad8d4f26e/src/libcore/ptr.rs:735
  62:	f1be 0f0c 	cmp.w	lr, #12
  66:	d308      	bcc.n	7a <__aeabi_memset4+0x7a>
  68:	e9c0 3300 	strd	r3, r3, [r0]
__aeabi_memset4():
/cargo/registry/src/github.com-1ecc6299db9ec823/compiler_builtins-0.1.9/src/arm.rs:203
  6c:	3c10      	subs	r4, #16
write<u32>():
/rustc/3c235d5600393dfe6c36eeed34042efad8d4f26e/src/libcore/ptr.rs:735
  6e:	e9c0 3302 	strd	r3, r3, [r0, #8]
offset<u32>():
/rustc/3c235d5600393dfe6c36eeed34042efad8d4f26e/src/libcore/ptr.rs:1697
  72:	3010      	adds	r0, #16
__aeabi_memset4():
/cargo/registry/src/github.com-1ecc6299db9ec823/compiler_builtins-0.1.9/src/arm.rs:200
  74:	2c03      	cmp	r4, #3
  76:	d8f7      	bhi.n	68 <__aeabi_memset4+0x68>
offset<u32>():
/rustc/3c235d5600393dfe6c36eeed34042efad8d4f26e/src/libcore/ptr.rs:1697
  78:	4684      	mov	ip, r0
write<u32>():
/rustc/3c235d5600393dfe6c36eeed34042efad8d4f26e/src/libcore/ptr.rs:735
  7a:	f001 0103 	and.w	r1, r1, #3
  7e:	e8bd 4010 	ldmia.w	sp!, {r4, lr}
__aeabi_memset4():
/cargo/registry/src/github.com-1ecc6299db9ec823/compiler_builtins-0.1.9/src/arm.rs:206
  82:	4660      	mov	r0, ip
  84:	f7ff bffe 	b.w	0 <__aeabi_memset4>

Disassembly of section .text.__aeabi_memset8:

00000000 <__aeabi_memset8>:
__aeabi_memset8():
/cargo/registry/src/github.com-1ecc6299db9ec823/compiler_builtins-0.1.9/src/arm.rs:213
   0:	f7ff bffe 	b.w	0 <__aeabi_memset8>

Disassembly of section .text.__aeabi_memclr:

00000000 <__aeabi_memclr>:
__aeabi_memclr():
/cargo/registry/src/github.com-1ecc6299db9ec823/compiler_builtins-0.1.9/src/arm.rs:220
   0:	2200      	movs	r2, #0
   2:	f7ff bffe 	b.w	0 <__aeabi_memclr>

Disassembly of section .text..Lanon.109065a98eeed0521bf961624aa4abd9.1:

00000000 <__aeabi_memclr4>:
__aeabi_memclr8():
/cargo/registry/src/github.com-1ecc6299db9ec823/compiler_builtins-0.1.9/src/arm.rs:227
   0:	2200      	movs	r2, #0
   2:	f7ff bffe 	b.w	0 <__aeabi_memclr4>

Disassembly of section .text._ZN17compiler_builtins3int6addsub13rust_i128_add17hc1690810c99a2fbaE:

00000000 <compiler_builtins::int::addsub::rust_i128_add>:
_ZN17compiler_builtins3int6addsub13rust_i128_add17hc1690810c99a2fbaE():
/cargo/registry/src/github.com-1ecc6299db9ec823/compiler_builtins-0.1.9/src/macros.rs:293
   0:	b580      	push	{r7, lr}
   2:	e9dd ec04 	ldrd	lr, ip, [sp, #16]
wrapping_add():
/rustc/3c235d5600393dfe6c36eeed34042efad8d4f26e/src/libcore/num/mod.rs:2843
   6:	eb1e 0e02 	adds.w	lr, lr, r2
   a:	eb43 030c 	adc.w	r3, r3, ip
   e:	e9dd 2c02 	ldrd	r2, ip, [sp, #8]
overflowing_add():
/rustc/3c235d5600393dfe6c36eeed34042efad8d4f26e/src/libcore/num/mod.rs:3123
  12:	1880      	adds	r0, r0, r2
  14:	eb51 010c 	adcs.w	r1, r1, ip
wrapping_add():
/rustc/3c235d5600393dfe6c36eeed34042efad8d4f26e/src/libcore/num/mod.rs:2843
  18:	f15e 0200 	adcs.w	r2, lr, #0
  1c:	f143 0300 	adc.w	r3, r3, #0
_ZN17compiler_builtins3int6addsub13rust_i128_add17hc1690810c99a2fbaE():
/cargo/registry/src/github.com-1ecc6299db9ec823/compiler_builtins-0.1.9/src/macros.rs:295
  20:	bd80      	pop	{r7, pc}

Disassembly of section .text._ZN17compiler_builtins3int6addsub14rust_i128_addo17h7b6ea810664b46deE:

00000000 <compiler_builtins::int::addsub::rust_i128_addo>:
_ZN17compiler_builtins3int6addsub14rust_i128_addo17h7b6ea810664b46deE():
/cargo/registry/src/github.com-1ecc6299db9ec823/compiler_builtins-0.1.9/src/macros.rs:293
   0:	e92d 41f0 	stmdb	sp!, {r4, r5, r6, r7, r8, lr}
   4:	e9dd 8e06 	ldrd	r8, lr, [sp, #24]
   8:	2100      	movs	r1, #0
   a:	e9dd 4c0a 	ldrd	r4, ip, [sp, #40]	; 0x28
   e:	9e08      	ldr	r6, [sp, #32]
wrapping_add():
/rustc/3c235d5600393dfe6c36eeed34042efad8d4f26e/src/libcore/num/mod.rs:2843
  10:	eb14 0408 	adds.w	r4, r4, r8
  14:	9f09      	ldr	r7, [sp, #36]	; 0x24
  16:	eb4c 050e 	adc.w	r5, ip, lr
overflowing_add():
/rustc/3c235d5600393dfe6c36eeed34042efad8d4f26e/src/libcore/num/mod.rs:3123
  1a:	18b6      	adds	r6, r6, r2
  1c:	415f      	adcs	r7, r3
_ZN17compiler_builtins3int6addsub14rust_i128_addo17h7b6ea810664b46deE():
/cargo/registry/src/github.com-1ecc6299db9ec823/compiler_builtins-0.1.9/src/macros.rs:295
  1e:	6006      	str	r6, [r0, #0]
wrapping_add():
/rustc/3c235d5600393dfe6c36eeed34042efad8d4f26e/src/libcore/num/mod.rs:2843
  20:	f154 0400 	adcs.w	r4, r4, #0
_ZN17compiler_builtins3int6addsub14rust_i128_addo17h7b6ea810664b46deE():
/cargo/registry/src/github.com-1ecc6299db9ec823/compiler_builtins-0.1.9/src/macros.rs:295
  24:	6047      	str	r7, [r0, #4]
wrapping_add():
/rustc/3c235d5600393dfe6c36eeed34042efad8d4f26e/src/libcore/num/mod.rs:2843
  26:	f145 0500 	adc.w	r5, r5, #0
addo<i128>():
  2a:	1ab2      	subs	r2, r6, r2
  2c:	eb77 0203 	sbcs.w	r2, r7, r3
_ZN17compiler_builtins3int6addsub14rust_i128_addo17h7b6ea810664b46deE():
/cargo/registry/src/github.com-1ecc6299db9ec823/compiler_builtins-0.1.9/src/macros.rs:295
  30:	6084      	str	r4, [r0, #8]
addo<i128>():
  32:	eb74 0208 	sbcs.w	r2, r4, r8
_ZN17compiler_builtins3int6addsub14rust_i128_addo17h7b6ea810664b46deE():
/cargo/registry/src/github.com-1ecc6299db9ec823/compiler_builtins-0.1.9/src/macros.rs:295
  36:	60c5      	str	r5, [r0, #12]
addo<i128>():
  38:	eb75 020e 	sbcs.w	r2, r5, lr
  3c:	f04f 0200 	mov.w	r2, #0
  40:	bfb8      	it	lt
  42:	2201      	movlt	r2, #1
ge():
/rustc/3c235d5600393dfe6c36eeed34042efad8d4f26e/src/libcore/cmp.rs:978
  44:	f1bc 0f00 	cmp.w	ip, #0
  48:	bfb8      	it	lt
  4a:	2101      	movlt	r1, #1
addo<i128>():
/cargo/registry/src/github.com-1ecc6299db9ec823/compiler_builtins-0.1.9/src/int/addsub.rs:44
  4c:	4051      	eors	r1, r2
_ZN17compiler_builtins3int6addsub14rust_i128_addo17h7b6ea810664b46deE():
/cargo/registry/src/github.com-1ecc6299db9ec823/compiler_builtins-0.1.9/src/macros.rs:295
  4e:	7401      	strb	r1, [r0, #16]
  50:	e8bd 81f0 	ldmia.w	sp!, {r4, r5, r6, r7, r8, pc}

Disassembly of section .text._ZN17compiler_builtins3int6addsub14rust_u128_addo17h63ee12c6b1f04fdfE:

00000000 <compiler_builtins::int::addsub::rust_u128_addo>:
_ZN17compiler_builtins3int6addsub14rust_u128_addo17h63ee12c6b1f04fdfE():
/cargo/registry/src/github.com-1ecc6299db9ec823/compiler_builtins-0.1.9/src/macros.rs:293
   0:	e92d 41f0 	stmdb	sp!, {r4, r5, r6, r7, r8, lr}
   4:	e9dd 8c06 	ldrd	r8, ip, [sp, #24]
   8:	2700      	movs	r7, #0
   a:	e9dd 4e0a 	ldrd	r4, lr, [sp, #40]	; 0x28
   e:	9d08      	ldr	r5, [sp, #32]
wrapping_add():
/rustc/3c235d5600393dfe6c36eeed34042efad8d4f26e/src/libcore/num/mod.rs:2843
  10:	eb14 0408 	adds.w	r4, r4, r8
  14:	9e09      	ldr	r6, [sp, #36]	; 0x24
  16:	eb4e 010c 	adc.w	r1, lr, ip
overflowing_add():
/rustc/3c235d5600393dfe6c36eeed34042efad8d4f26e/src/libcore/num/mod.rs:3123
  1a:	18ad      	adds	r5, r5, r2
  1c:	415e      	adcs	r6, r3
_ZN17compiler_builtins3int6addsub14rust_u128_addo17h63ee12c6b1f04fdfE():
/cargo/registry/src/github.com-1ecc6299db9ec823/compiler_builtins-0.1.9/src/macros.rs:295
  1e:	6005      	str	r5, [r0, #0]
wrapping_add():
/rustc/3c235d5600393dfe6c36eeed34042efad8d4f26e/src/libcore/num/mod.rs:2843
  20:	f154 0400 	adcs.w	r4, r4, #0
_ZN17compiler_builtins3int6addsub14rust_u128_addo17h63ee12c6b1f04fdfE():
/cargo/registry/src/github.com-1ecc6299db9ec823/compiler_builtins-0.1.9/src/macros.rs:295
  24:	6046      	str	r6, [r0, #4]
wrapping_add():
/rustc/3c235d5600393dfe6c36eeed34042efad8d4f26e/src/libcore/num/mod.rs:2843
  26:	f141 0100 	adc.w	r1, r1, #0
lt():
/rustc/3c235d5600393dfe6c36eeed34042efad8d4f26e/src/libcore/cmp.rs:974
  2a:	1aaa      	subs	r2, r5, r2
  2c:	eb76 0203 	sbcs.w	r2, r6, r3
_ZN17compiler_builtins3int6addsub14rust_u128_addo17h63ee12c6b1f04fdfE():
/cargo/registry/src/github.com-1ecc6299db9ec823/compiler_builtins-0.1.9/src/macros.rs:295
  30:	6084      	str	r4, [r0, #8]
lt():
/rustc/3c235d5600393dfe6c36eeed34042efad8d4f26e/src/libcore/cmp.rs:974
  32:	eb74 0208 	sbcs.w	r2, r4, r8
_ZN17compiler_builtins3int6addsub14rust_u128_addo17h63ee12c6b1f04fdfE():
/cargo/registry/src/github.com-1ecc6299db9ec823/compiler_builtins-0.1.9/src/macros.rs:295
  36:	60c1      	str	r1, [r0, #12]
lt():
/rustc/3c235d5600393dfe6c36eeed34042efad8d4f26e/src/libcore/cmp.rs:974
  38:	eb71 010c 	sbcs.w	r1, r1, ip
  3c:	bf38      	it	cc
  3e:	2701      	movcc	r7, #1
_ZN17compiler_builtins3int6addsub14rust_u128_addo17h63ee12c6b1f04fdfE():
/cargo/registry/src/github.com-1ecc6299db9ec823/compiler_builtins-0.1.9/src/macros.rs:295
  40:	7407      	strb	r7, [r0, #16]
  42:	e8bd 81f0 	ldmia.w	sp!, {r4, r5, r6, r7, r8, pc}

Disassembly of section .text._ZN17compiler_builtins3int6addsub13rust_i128_sub17hb52b2568dc550873E:

00000000 <compiler_builtins::int::addsub::rust_i128_sub>:
_ZN17compiler_builtins3int6addsub13rust_i128_sub17hb52b2568dc550873E():
/cargo/registry/src/github.com-1ecc6299db9ec823/compiler_builtins-0.1.9/src/macros.rs:293
   0:	b5f0      	push	{r4, r5, r6, r7, lr}
   2:	b081      	sub	sp, #4
   4:	9c06      	ldr	r4, [sp, #24]
   6:	f04f 0e00 	mov.w	lr, #0
   a:	f8dd c01c 	ldr.w	ip, [sp, #28]
overflowing_add():
/rustc/3c235d5600393dfe6c36eeed34042efad8d4f26e/src/libcore/num/mod.rs:3123
   e:	4267      	negs	r7, r4
  10:	9e08      	ldr	r6, [sp, #32]
  12:	eb7e 0c0c 	sbcs.w	ip, lr, ip
  16:	9d09      	ldr	r5, [sp, #36]	; 0x24
  18:	f14e 0400 	adc.w	r4, lr, #0
  1c:	f1c4 0401 	rsb	r4, r4, #1
not():
/rustc/3c235d5600393dfe6c36eeed34042efad8d4f26e/src/libcore/ops/bit.rs:51
  20:	43f6      	mvns	r6, r6
overflowing_add():
/rustc/3c235d5600393dfe6c36eeed34042efad8d4f26e/src/libcore/num/mod.rs:3123
  22:	f084 0401 	eor.w	r4, r4, #1
wrapping_add():
/rustc/3c235d5600393dfe6c36eeed34042efad8d4f26e/src/libcore/num/mod.rs:2843
  26:	1992      	adds	r2, r2, r6
not():
/rustc/3c235d5600393dfe6c36eeed34042efad8d4f26e/src/libcore/ops/bit.rs:51
  28:	ea6f 0505 	mvn.w	r5, r5
wrapping_add():
/rustc/3c235d5600393dfe6c36eeed34042efad8d4f26e/src/libcore/num/mod.rs:2843
  2c:	416b      	adcs	r3, r5
overflowing_add():
/rustc/3c235d5600393dfe6c36eeed34042efad8d4f26e/src/libcore/num/mod.rs:3123
  2e:	1e66      	subs	r6, r4, #1
wrapping_add():
/rustc/3c235d5600393dfe6c36eeed34042efad8d4f26e/src/libcore/num/mod.rs:2843
  30:	f152 0200 	adcs.w	r2, r2, #0
  34:	f143 0300 	adc.w	r3, r3, #0
overflowing_add():
/rustc/3c235d5600393dfe6c36eeed34042efad8d4f26e/src/libcore/num/mod.rs:3123
  38:	19c0      	adds	r0, r0, r7
  3a:	eb51 010c 	adcs.w	r1, r1, ip
wrapping_add():
/rustc/3c235d5600393dfe6c36eeed34042efad8d4f26e/src/libcore/num/mod.rs:2843
  3e:	f152 0200 	adcs.w	r2, r2, #0
  42:	f143 0300 	adc.w	r3, r3, #0
_ZN17compiler_builtins3int6addsub13rust_i128_sub17hb52b2568dc550873E():
/cargo/registry/src/github.com-1ecc6299db9ec823/compiler_builtins-0.1.9/src/macros.rs:295
  46:	b001      	add	sp, #4
  48:	bdf0      	pop	{r4, r5, r6, r7, pc}

Disassembly of section .text._ZN17compiler_builtins3int6addsub14rust_i128_subo17h809f0ec4bb6a5987E:

00000000 <compiler_builtins::int::addsub::rust_i128_subo>:
_ZN17compiler_builtins3int6addsub14rust_i128_subo17h809f0ec4bb6a5987E():
/cargo/registry/src/github.com-1ecc6299db9ec823/compiler_builtins-0.1.9/src/macros.rs:293
   0:	e92d 43f0 	stmdb	sp!, {r4, r5, r6, r7, r8, r9, lr}
   4:	b081      	sub	sp, #4
   6:	990a      	ldr	r1, [sp, #40]	; 0x28
   8:	f04f 0e00 	mov.w	lr, #0
   c:	f8dd c02c 	ldr.w	ip, [sp, #44]	; 0x2c
overflowing_add():
/rustc/3c235d5600393dfe6c36eeed34042efad8d4f26e/src/libcore/num/mod.rs:3123
  10:	4249      	negs	r1, r1
  12:	9f0c      	ldr	r7, [sp, #48]	; 0x30
  14:	eb7e 0c0c 	sbcs.w	ip, lr, ip
  18:	f8dd 8034 	ldr.w	r8, [sp, #52]	; 0x34
  1c:	f14e 0400 	adc.w	r4, lr, #0
  20:	e9dd 5908 	ldrd	r5, r9, [sp, #32]
  24:	f1c4 0401 	rsb	r4, r4, #1
not():
/rustc/3c235d5600393dfe6c36eeed34042efad8d4f26e/src/libcore/ops/bit.rs:51
  28:	43ff      	mvns	r7, r7
overflowing_add():
/rustc/3c235d5600393dfe6c36eeed34042efad8d4f26e/src/libcore/num/mod.rs:3123
  2a:	f084 0401 	eor.w	r4, r4, #1
not():
/rustc/3c235d5600393dfe6c36eeed34042efad8d4f26e/src/libcore/ops/bit.rs:51
  2e:	ea6f 0608 	mvn.w	r6, r8
wrapping_add():
/rustc/3c235d5600393dfe6c36eeed34042efad8d4f26e/src/libcore/num/mod.rs:2843
  32:	197f      	adds	r7, r7, r5
  34:	eb46 0609 	adc.w	r6, r6, r9
overflowing_add():
/rustc/3c235d5600393dfe6c36eeed34042efad8d4f26e/src/libcore/num/mod.rs:3123
  38:	3c01      	subs	r4, #1
wrapping_add():
/rustc/3c235d5600393dfe6c36eeed34042efad8d4f26e/src/libcore/num/mod.rs:2843
  3a:	f157 0400 	adcs.w	r4, r7, #0
  3e:	f146 0600 	adc.w	r6, r6, #0
overflowing_add():
/rustc/3c235d5600393dfe6c36eeed34042efad8d4f26e/src/libcore/num/mod.rs:3123
  42:	1889      	adds	r1, r1, r2
  44:	eb53 070c 	adcs.w	r7, r3, ip
wrapping_add():
/rustc/3c235d5600393dfe6c36eeed34042efad8d4f26e/src/libcore/num/mod.rs:2843
  48:	f154 0400 	adcs.w	r4, r4, #0
  4c:	f146 0600 	adc.w	r6, r6, #0
_ZN17compiler_builtins3int6addsub14rust_i128_subo17h809f0ec4bb6a5987E():
/cargo/registry/src/github.com-1ecc6299db9ec823/compiler_builtins-0.1.9/src/macros.rs:295
  50:	e9c0 1700 	strd	r1, r7, [r0]
subo<i128>():
  54:	1a51      	subs	r1, r2, r1
  56:	eb73 0107 	sbcs.w	r1, r3, r7
_ZN17compiler_builtins3int6addsub14rust_i128_subo17h809f0ec4bb6a5987E():
/cargo/registry/src/github.com-1ecc6299db9ec823/compiler_builtins-0.1.9/src/macros.rs:295
  5a:	e9c0 4602 	strd	r4, r6, [r0, #8]
subo<i128>():
  5e:	eb75 0104 	sbcs.w	r1, r5, r4
  62:	eb79 0106 	sbcs.w	r1, r9, r6
  66:	f04f 0100 	mov.w	r1, #0
  6a:	bfb8      	it	lt
  6c:	2101      	movlt	r1, #1
ge():
/rustc/3c235d5600393dfe6c36eeed34042efad8d4f26e/src/libcore/cmp.rs:978
  6e:	f1b8 0f00 	cmp.w	r8, #0
  72:	bfb8      	it	lt
  74:	f04f 0e01 	movlt.w	lr, #1
subo<i128>():
/cargo/registry/src/github.com-1ecc6299db9ec823/compiler_builtins-0.1.9/src/int/addsub.rs:66
  78:	ea81 010e 	eor.w	r1, r1, lr
_ZN17compiler_builtins3int6addsub14rust_i128_subo17h809f0ec4bb6a5987E():
/cargo/registry/src/github.com-1ecc6299db9ec823/compiler_builtins-0.1.9/src/macros.rs:295
  7c:	7401      	strb	r1, [r0, #16]
  7e:	b001      	add	sp, #4
  80:	e8bd 83f0 	ldmia.w	sp!, {r4, r5, r6, r7, r8, r9, pc}

Disassembly of section .text._ZN17compiler_builtins3int6addsub14rust_u128_subo17h4cf17d0e34c7d2ffE:

00000000 <compiler_builtins::int::addsub::rust_u128_subo>:
_ZN17compiler_builtins3int6addsub14rust_u128_subo17h4cf17d0e34c7d2ffE():
/cargo/registry/src/github.com-1ecc6299db9ec823/compiler_builtins-0.1.9/src/macros.rs:293
   0:	e92d 41f0 	stmdb	sp!, {r4, r5, r6, r7, r8, lr}
   4:	9908      	ldr	r1, [sp, #32]
   6:	f04f 0e00 	mov.w	lr, #0
   a:	f8dd c024 	ldr.w	ip, [sp, #36]	; 0x24
overflowing_add():
/rustc/3c235d5600393dfe6c36eeed34042efad8d4f26e/src/libcore/num/mod.rs:3123
   e:	4249      	negs	r1, r1
  10:	9e0a      	ldr	r6, [sp, #40]	; 0x28
  12:	9d0b      	ldr	r5, [sp, #44]	; 0x2c
  14:	eb7e 0c0c 	sbcs.w	ip, lr, ip
  18:	f14e 0400 	adc.w	r4, lr, #0
  1c:	e9dd 7806 	ldrd	r7, r8, [sp, #24]
  20:	f1c4 0401 	rsb	r4, r4, #1
not():
/rustc/3c235d5600393dfe6c36eeed34042efad8d4f26e/src/libcore/ops/bit.rs:51
  24:	43f6      	mvns	r6, r6
overflowing_add():
/rustc/3c235d5600393dfe6c36eeed34042efad8d4f26e/src/libcore/num/mod.rs:3123
  26:	f084 0401 	eor.w	r4, r4, #1
not():
/rustc/3c235d5600393dfe6c36eeed34042efad8d4f26e/src/libcore/ops/bit.rs:51
  2a:	43ed      	mvns	r5, r5
wrapping_add():
/rustc/3c235d5600393dfe6c36eeed34042efad8d4f26e/src/libcore/num/mod.rs:2843
  2c:	19f6      	adds	r6, r6, r7
  2e:	eb45 0508 	adc.w	r5, r5, r8
overflowing_add():
/rustc/3c235d5600393dfe6c36eeed34042efad8d4f26e/src/libcore/num/mod.rs:3123
  32:	3c01      	subs	r4, #1
wrapping_add():
/rustc/3c235d5600393dfe6c36eeed34042efad8d4f26e/src/libcore/num/mod.rs:2843
  34:	f156 0400 	adcs.w	r4, r6, #0
  38:	f145 0500 	adc.w	r5, r5, #0
overflowing_add():
/rustc/3c235d5600393dfe6c36eeed34042efad8d4f26e/src/libcore/num/mod.rs:3123
  3c:	1889      	adds	r1, r1, r2
  3e:	eb53 060c 	adcs.w	r6, r3, ip
wrapping_add():
/rustc/3c235d5600393dfe6c36eeed34042efad8d4f26e/src/libcore/num/mod.rs:2843
  42:	f154 0400 	adcs.w	r4, r4, #0
  46:	f145 0500 	adc.w	r5, r5, #0
_ZN17compiler_builtins3int6addsub14rust_u128_subo17h4cf17d0e34c7d2ffE():
/cargo/registry/src/github.com-1ecc6299db9ec823/compiler_builtins-0.1.9/src/macros.rs:295
  4a:	e9c0 1600 	strd	r1, r6, [r0]
gt():
/rustc/3c235d5600393dfe6c36eeed34042efad8d4f26e/src/libcore/cmp.rs:980
  4e:	1a51      	subs	r1, r2, r1
  50:	eb73 0106 	sbcs.w	r1, r3, r6
_ZN17compiler_builtins3int6addsub14rust_u128_subo17h4cf17d0e34c7d2ffE():
/cargo/registry/src/github.com-1ecc6299db9ec823/compiler_builtins-0.1.9/src/macros.rs:295
  54:	e9c0 4502 	strd	r4, r5, [r0, #8]
gt():
/rustc/3c235d5600393dfe6c36eeed34042efad8d4f26e/src/libcore/cmp.rs:980
  58:	eb77 0104 	sbcs.w	r1, r7, r4
  5c:	eb78 0105 	sbcs.w	r1, r8, r5
  60:	bf38      	it	cc
  62:	f04f 0e01 	movcc.w	lr, #1
_ZN17compiler_builtins3int6addsub14rust_u128_subo17h4cf17d0e34c7d2ffE():
/cargo/registry/src/github.com-1ecc6299db9ec823/compiler_builtins-0.1.9/src/macros.rs:295
  66:	f880 e010 	strb.w	lr, [r0, #16]
  6a:	e8bd 81f0 	ldmia.w	sp!, {r4, r5, r6, r7, r8, pc}

Disassembly of section .text.__muldi3:

00000000 <__muldi3>:
__muldi3():
/cargo/registry/src/github.com-1ecc6299db9ec823/compiler_builtins-0.1.9/src/macros.rs:214
   0:	e92d 41f0 	stmdb	sp!, {r4, r5, r6, r7, r8, lr}
bitand():
/rustc/3c235d5600393dfe6c36eeed34042efad8d4f26e/src/libcore/ops/bit.rs:135
   4:	fa1f fc80 	uxth.w	ip, r0
   8:	fa1f fe82 	uxth.w	lr, r2
shr():
/rustc/3c235d5600393dfe6c36eeed34042efad8d4f26e/src/libcore/ops/bit.rs:505
   c:	0c05      	lsrs	r5, r0, #16
wrapping_mul():
/rustc/3c235d5600393dfe6c36eeed34042efad8d4f26e/src/libcore/num/mod.rs:2884
   e:	fb0e f80c 	mul.w	r8, lr, ip
shr():
/rustc/3c235d5600393dfe6c36eeed34042efad8d4f26e/src/libcore/ops/bit.rs:505
  12:	0c17      	lsrs	r7, r2, #16
wrapping_mul():
/rustc/3c235d5600393dfe6c36eeed34042efad8d4f26e/src/libcore/num/mod.rs:2884
  14:	fb0e f405 	mul.w	r4, lr, r5
  18:	4351      	muls	r1, r2
add_assign():
/rustc/3c235d5600393dfe6c36eeed34042efad8d4f26e/src/libcore/ops/arith.rs:698
  1a:	eb04 4418 	add.w	r4, r4, r8, lsr #16
  1e:	fb07 1105 	mla	r1, r7, r5, r1
shr():
/rustc/3c235d5600393dfe6c36eeed34042efad8d4f26e/src/libcore/ops/bit.rs:505
  22:	fa1f fe84 	uxth.w	lr, r4
add_assign():
/rustc/3c235d5600393dfe6c36eeed34042efad8d4f26e/src/libcore/ops/arith.rs:698
  26:	fb03 1000 	mla	r0, r3, r0, r1
  2a:	fb07 e60c 	mla	r6, r7, ip, lr
wrapping_add():
/rustc/3c235d5600393dfe6c36eeed34042efad8d4f26e/src/libcore/num/mod.rs:2843
  2e:	eb00 4014 	add.w	r0, r0, r4, lsr #16
  32:	eb00 4116 	add.w	r1, r0, r6, lsr #16
bitand_assign():
/rustc/3c235d5600393dfe6c36eeed34042efad8d4f26e/src/libcore/ops/bit.rs:612
  36:	fa1f f088 	uxth.w	r0, r8
add_assign():
/rustc/3c235d5600393dfe6c36eeed34042efad8d4f26e/src/libcore/ops/arith.rs:698
  3a:	ea40 4006 	orr.w	r0, r0, r6, lsl #16
__muldi3():
/cargo/registry/src/github.com-1ecc6299db9ec823/compiler_builtins-0.1.9/src/macros.rs:216
  3e:	e8bd 81f0 	ldmia.w	sp!, {r4, r5, r6, r7, r8, pc}

Disassembly of section .text.__aeabi_lmul:

00000000 <__aeabi_lmul>:
__aeabi_lmul():
/cargo/registry/src/github.com-1ecc6299db9ec823/compiler_builtins-0.1.9/src/macros.rs:254
   0:	e92d 41f0 	stmdb	sp!, {r4, r5, r6, r7, r8, lr}
bitand():
/rustc/3c235d5600393dfe6c36eeed34042efad8d4f26e/src/libcore/ops/bit.rs:135
   4:	fa1f fc80 	uxth.w	ip, r0
   8:	fa1f fe82 	uxth.w	lr, r2
shr():
/rustc/3c235d5600393dfe6c36eeed34042efad8d4f26e/src/libcore/ops/bit.rs:505
   c:	0c05      	lsrs	r5, r0, #16
wrapping_mul():
/rustc/3c235d5600393dfe6c36eeed34042efad8d4f26e/src/libcore/num/mod.rs:2884
   e:	fb0e f80c 	mul.w	r8, lr, ip
shr():
/rustc/3c235d5600393dfe6c36eeed34042efad8d4f26e/src/libcore/ops/bit.rs:505
  12:	0c17      	lsrs	r7, r2, #16
wrapping_mul():
/rustc/3c235d5600393dfe6c36eeed34042efad8d4f26e/src/libcore/num/mod.rs:2884
  14:	fb0e f405 	mul.w	r4, lr, r5
  18:	4351      	muls	r1, r2
add_assign():
/rustc/3c235d5600393dfe6c36eeed34042efad8d4f26e/src/libcore/ops/arith.rs:698
  1a:	eb04 4418 	add.w	r4, r4, r8, lsr #16
  1e:	fb07 1105 	mla	r1, r7, r5, r1
shr():
/rustc/3c235d5600393dfe6c36eeed34042efad8d4f26e/src/libcore/ops/bit.rs:505
  22:	fa1f fe84 	uxth.w	lr, r4
add_assign():
/rustc/3c235d5600393dfe6c36eeed34042efad8d4f26e/src/libcore/ops/arith.rs:698
  26:	fb03 1000 	mla	r0, r3, r0, r1
  2a:	fb07 e60c 	mla	r6, r7, ip, lr
wrapping_add():
/rustc/3c235d5600393dfe6c36eeed34042efad8d4f26e/src/libcore/num/mod.rs:2843
  2e:	eb00 4014 	add.w	r0, r0, r4, lsr #16
  32:	eb00 4116 	add.w	r1, r0, r6, lsr #16
bitand_assign():
/rustc/3c235d5600393dfe6c36eeed34042efad8d4f26e/src/libcore/ops/bit.rs:612
  36:	fa1f f088 	uxth.w	r0, r8
add_assign():
/rustc/3c235d5600393dfe6c36eeed34042efad8d4f26e/src/libcore/ops/arith.rs:698
  3a:	ea40 4006 	orr.w	r0, r0, r6, lsl #16
__aeabi_lmul():
/cargo/registry/src/github.com-1ecc6299db9ec823/compiler_builtins-0.1.9/src/macros.rs:256
  3e:	e8bd 81f0 	ldmia.w	sp!, {r4, r5, r6, r7, r8, pc}

Disassembly of section .text.__multi3:

00000000 <__multi3>:
__multi3():
/cargo/registry/src/github.com-1ecc6299db9ec823/compiler_builtins-0.1.9/src/macros.rs:254
   0:	e92d 41f0 	stmdb	sp!, {r4, r5, r6, r7, r8, lr}
   4:	9e06      	ldr	r6, [sp, #24]
   6:	f8dd 801c 	ldr.w	r8, [sp, #28]
wrapping_mul():
/rustc/3c235d5600393dfe6c36eeed34042efad8d4f26e/src/libcore/num/mod.rs:1047
   a:	fba6 5402 	umull	r5, r4, r6, r2
   e:	fb06 4303 	mla	r3, r6, r3, r4
/rustc/3c235d5600393dfe6c36eeed34042efad8d4f26e/src/libcore/num/mod.rs:2884
  12:	fba6 ce00 	umull	ip, lr, r6, r0
/rustc/3c235d5600393dfe6c36eeed34042efad8d4f26e/src/libcore/num/mod.rs:1047
  16:	fb08 3302 	mla	r3, r8, r2, r3
  1a:	9a08      	ldr	r2, [sp, #32]
add_assign():
/rustc/3c235d5600393dfe6c36eeed34042efad8d4f26e/src/libcore/ops/arith.rs:698
  1c:	fbe8 5301 	umlal	r5, r3, r8, r1
wrapping_mul():
/rustc/3c235d5600393dfe6c36eeed34042efad8d4f26e/src/libcore/num/mod.rs:1047
  20:	fba2 4700 	umull	r4, r7, r2, r0
  24:	fb02 7201 	mla	r2, r2, r1, r7
  28:	9f09      	ldr	r7, [sp, #36]	; 0x24
  2a:	fb07 2700 	mla	r7, r7, r0, r2
add_assign():
/rustc/3c235d5600393dfe6c36eeed34042efad8d4f26e/src/libcore/ops/arith.rs:698
  2e:	192a      	adds	r2, r5, r4
wrapping_mul():
/rustc/3c235d5600393dfe6c36eeed34042efad8d4f26e/src/libcore/num/mod.rs:2884
  30:	fba6 4501 	umull	r4, r5, r6, r1
add_assign():
/rustc/3c235d5600393dfe6c36eeed34042efad8d4f26e/src/libcore/ops/arith.rs:698
  34:	417b      	adcs	r3, r7
  36:	eb14 040e 	adds.w	r4, r4, lr
wrapping_add():
/rustc/3c235d5600393dfe6c36eeed34042efad8d4f26e/src/libcore/num/mod.rs:1006
  3a:	eb52 0405 	adcs.w	r4, r2, r5
add_assign():
/rustc/3c235d5600393dfe6c36eeed34042efad8d4f26e/src/libcore/ops/arith.rs:698
  3e:	fbe6 e201 	umlal	lr, r2, r6, r1
wrapping_add():
/rustc/3c235d5600393dfe6c36eeed34042efad8d4f26e/src/libcore/num/mod.rs:1006
  42:	f143 0300 	adc.w	r3, r3, #0
wrapping_mul():
/rustc/3c235d5600393dfe6c36eeed34042efad8d4f26e/src/libcore/num/mod.rs:2884
  46:	fba8 1400 	umull	r1, r4, r8, r0
add_assign():
/rustc/3c235d5600393dfe6c36eeed34042efad8d4f26e/src/libcore/ops/arith.rs:698
  4a:	eb11 010e 	adds.w	r1, r1, lr
wrapping_add():
/rustc/3c235d5600393dfe6c36eeed34042efad8d4f26e/src/libcore/num/mod.rs:1006
  4e:	eb52 0104 	adcs.w	r1, r2, r4
add_assign():
/rustc/3c235d5600393dfe6c36eeed34042efad8d4f26e/src/libcore/ops/arith.rs:698
  52:	fbe8 e200 	umlal	lr, r2, r8, r0
wrapping_add():
/rustc/3c235d5600393dfe6c36eeed34042efad8d4f26e/src/libcore/num/mod.rs:1006
  56:	f143 0300 	adc.w	r3, r3, #0
__multi3():
/cargo/registry/src/github.com-1ecc6299db9ec823/compiler_builtins-0.1.9/src/macros.rs:256
  5a:	4660      	mov	r0, ip
  5c:	4671      	mov	r1, lr
  5e:	e8bd 81f0 	ldmia.w	sp!, {r4, r5, r6, r7, r8, pc}

Disassembly of section .text.__mulosi4:

00000000 <__mulosi4>:
__mulosi4():
/cargo/registry/src/github.com-1ecc6299db9ec823/compiler_builtins-0.1.9/src/macros.rs:254
   0:	b510      	push	{r4, lr}
   2:	4604      	mov	r4, r0
   4:	2000      	movs	r0, #0
mulo<i32>():
/cargo/registry/src/github.com-1ecc6299db9ec823/compiler_builtins-0.1.9/src/int/mul.rs:33
   6:	6010      	str	r0, [r2, #0]
wrapping_mul():
/rustc/3c235d5600393dfe6c36eeed34042efad8d4f26e/src/libcore/num/mod.rs:1047
   8:	fb01 f004 	mul.w	r0, r1, r4
mulo<i32>():
/cargo/registry/src/github.com-1ecc6299db9ec823/compiler_builtins-0.1.9/src/int/mul.rs:35
   c:	f1b4 4f00 	cmp.w	r4, #2147483648	; 0x80000000
  10:	d102      	bne.n	18 <__mulosi4+0x18>
/cargo/registry/src/github.com-1ecc6299db9ec823/compiler_builtins-0.1.9/src/int/mul.rs:36
  12:	2902      	cmp	r1, #2
  14:	d314      	bcc.n	40 <__mulosi4+0x40>
  16:	e026      	b.n	66 <__mulosi4+0x66>
/cargo/registry/src/github.com-1ecc6299db9ec823/compiler_builtins-0.1.9/src/int/mul.rs:41
  18:	f1b1 4f00 	cmp.w	r1, #2147483648	; 0x80000000
  1c:	d102      	bne.n	24 <__mulosi4+0x24>
/cargo/registry/src/github.com-1ecc6299db9ec823/compiler_builtins-0.1.9/src/int/mul.rs:42
  1e:	2c02      	cmp	r4, #2
  20:	d30e      	bcc.n	40 <__mulosi4+0x40>
  22:	e020      	b.n	66 <__mulosi4+0x66>
bitxor():
/rustc/3c235d5600393dfe6c36eeed34042efad8d4f26e/src/libcore/ops/bit.rs:306
  24:	ea84 73e4 	eor.w	r3, r4, r4, asr #31
sub():
/rustc/3c235d5600393dfe6c36eeed34042efad8d4f26e/src/libcore/ops/arith.rs:198
  28:	eba3 7ce4 	sub.w	ip, r3, r4, asr #31
mulo<i32>():
/cargo/registry/src/github.com-1ecc6299db9ec823/compiler_builtins-0.1.9/src/int/mul.rs:53
  2c:	f1bc 0f02 	cmp.w	ip, #2
  30:	bfa2      	ittt	ge
  32:	ea81 73e1 	eorge.w	r3, r1, r1, asr #31
  36:	eba3 7ee1 	subge.w	lr, r3, r1, asr #31
  3a:	f1be 0f02 	cmpge.w	lr, #2
  3e:	da00      	bge.n	42 <__mulosi4+0x42>
__mulosi4():
/cargo/registry/src/github.com-1ecc6299db9ec823/compiler_builtins-0.1.9/src/macros.rs:256
  40:	bd10      	pop	{r4, pc}
mulo<i32>():
  42:	17c9      	asrs	r1, r1, #31
  44:	17e3      	asrs	r3, r4, #31
/cargo/registry/src/github.com-1ecc6299db9ec823/compiler_builtins-0.1.9/src/int/mul.rs:56
  46:	428b      	cmp	r3, r1
  48:	d104      	bne.n	54 <__mulosi4+0x54>
  4a:	f06f 4100 	mvn.w	r1, #2147483648	; 0x80000000
checked_div():
/rustc/3c235d5600393dfe6c36eeed34042efad8d4f26e/src/libcore/num/mod.rs:673
  4e:	fbb1 f1fe 	udiv	r1, r1, lr
  52:	e005      	b.n	60 <__mulosi4+0x60>
neg():
/rustc/3c235d5600393dfe6c36eeed34042efad8d4f26e/src/libcore/ops/arith.rs:637
  54:	f1ce 0100 	rsb	r1, lr, #0
  58:	f04f 4300 	mov.w	r3, #2147483648	; 0x80000000
checked_div():
/rustc/3c235d5600393dfe6c36eeed34042efad8d4f26e/src/libcore/num/mod.rs:673
  5c:	fb93 f1f1 	sdiv	r1, r3, r1
mulo<i32>():
  60:	458c      	cmp	ip, r1
__mulosi4():
/cargo/registry/src/github.com-1ecc6299db9ec823/compiler_builtins-0.1.9/src/macros.rs:256
  62:	bfd8      	it	le
  64:	bd10      	pople	{r4, pc}
  66:	2101      	movs	r1, #1
mulo<i32>():
  68:	6011      	str	r1, [r2, #0]
__mulosi4():
/cargo/registry/src/github.com-1ecc6299db9ec823/compiler_builtins-0.1.9/src/macros.rs:256
  6a:	bd10      	pop	{r4, pc}

Disassembly of section .text.__mulodi4:

00000000 <__mulodi4>:
__mulodi4():
/cargo/registry/src/github.com-1ecc6299db9ec823/compiler_builtins-0.1.9/src/macros.rs:254
   0:	e92d 43f0 	stmdb	sp!, {r4, r5, r6, r7, r8, r9, lr}
   4:	b081      	sub	sp, #4
   6:	9e08      	ldr	r6, [sp, #32]
   8:	2700      	movs	r7, #0
mulo<i64>():
/cargo/registry/src/github.com-1ecc6299db9ec823/compiler_builtins-0.1.9/src/int/mul.rs:33
   a:	6037      	str	r7, [r6, #0]
wrapping_mul():
/rustc/3c235d5600393dfe6c36eeed34042efad8d4f26e/src/libcore/num/mod.rs:1047
   c:	fba2 4700 	umull	r4, r7, r2, r0
  10:	fb02 7701 	mla	r7, r2, r1, r7
  14:	fb03 7500 	mla	r5, r3, r0, r7
eq():
/rustc/3c235d5600393dfe6c36eeed34042efad8d4f26e/src/libcore/cmp.rs:894
  18:	f081 4700 	eor.w	r7, r1, #2147483648	; 0x80000000
  1c:	4307      	orrs	r7, r0
mulo<i64>():
/cargo/registry/src/github.com-1ecc6299db9ec823/compiler_builtins-0.1.9/src/int/mul.rs:35
  1e:	d104      	bne.n	2a <__mulodi4+0x2a>
/cargo/registry/src/github.com-1ecc6299db9ec823/compiler_builtins-0.1.9/src/int/mul.rs:36
  20:	1e90      	subs	r0, r2, #2
  22:	f173 0000 	sbcs.w	r0, r3, #0
  26:	d23f      	bcs.n	a8 <__mulodi4+0xa8>
  28:	e040      	b.n	ac <__mulodi4+0xac>
  2a:	f04f 4700 	mov.w	r7, #2147483648	; 0x80000000
eq():
/rustc/3c235d5600393dfe6c36eeed34042efad8d4f26e/src/libcore/cmp.rs:894
  2e:	405f      	eors	r7, r3
  30:	4317      	orrs	r7, r2
mulo<i64>():
/cargo/registry/src/github.com-1ecc6299db9ec823/compiler_builtins-0.1.9/src/int/mul.rs:41
  32:	d104      	bne.n	3e <__mulodi4+0x3e>
/cargo/registry/src/github.com-1ecc6299db9ec823/compiler_builtins-0.1.9/src/int/mul.rs:42
  34:	3802      	subs	r0, #2
  36:	f171 0000 	sbcs.w	r0, r1, #0
  3a:	d235      	bcs.n	a8 <__mulodi4+0xa8>
  3c:	e036      	b.n	ac <__mulodi4+0xac>
bitxor():
/rustc/3c235d5600393dfe6c36eeed34042efad8d4f26e/src/libcore/ops/bit.rs:306
  3e:	ea82 72e3 	eor.w	r2, r2, r3, asr #31
  42:	ea83 77e3 	eor.w	r7, r3, r3, asr #31
sub():
/rustc/3c235d5600393dfe6c36eeed34042efad8d4f26e/src/libcore/ops/arith.rs:198
  46:	ebb2 72e3 	subs.w	r2, r2, r3, asr #31
bitxor():
/rustc/3c235d5600393dfe6c36eeed34042efad8d4f26e/src/libcore/ops/bit.rs:306
  4a:	ea80 70e1 	eor.w	r0, r0, r1, asr #31
sub():
/rustc/3c235d5600393dfe6c36eeed34042efad8d4f26e/src/libcore/ops/arith.rs:198
  4e:	eb67 7ce3 	sbc.w	ip, r7, r3, asr #31
bitxor():
/rustc/3c235d5600393dfe6c36eeed34042efad8d4f26e/src/libcore/ops/bit.rs:306
  52:	ea81 77e1 	eor.w	r7, r1, r1, asr #31
sub():
/rustc/3c235d5600393dfe6c36eeed34042efad8d4f26e/src/libcore/ops/arith.rs:198
  56:	ebb0 79e1 	subs.w	r9, r0, r1, asr #31
  5a:	eb67 78e1 	sbc.w	r8, r7, r1, asr #31
lt():
/rustc/3c235d5600393dfe6c36eeed34042efad8d4f26e/src/libcore/cmp.rs:974
  5e:	f1b9 0002 	subs.w	r0, r9, #2
  62:	f178 0000 	sbcs.w	r0, r8, #0
mulo<i64>():
/cargo/registry/src/github.com-1ecc6299db9ec823/compiler_builtins-0.1.9/src/int/mul.rs:53
  66:	db21      	blt.n	ac <__mulodi4+0xac>
  68:	1e90      	subs	r0, r2, #2
  6a:	f17c 0000 	sbcs.w	r0, ip, #0
  6e:	db1d      	blt.n	ac <__mulodi4+0xac>
  70:	17d8      	asrs	r0, r3, #31
  72:	17c9      	asrs	r1, r1, #31
eq():
/rustc/3c235d5600393dfe6c36eeed34042efad8d4f26e/src/libcore/cmp.rs:894
  74:	4048      	eors	r0, r1
  76:	4300      	orrs	r0, r0
mulo<i64>():
/cargo/registry/src/github.com-1ecc6299db9ec823/compiler_builtins-0.1.9/src/int/mul.rs:56
  78:	d107      	bne.n	8a <__mulodi4+0x8a>
checked_div():
/rustc/3c235d5600393dfe6c36eeed34042efad8d4f26e/src/libcore/num/mod.rs:673
  7a:	f04f 30ff 	mov.w	r0, #4294967295	; 0xffffffff
  7e:	f06f 4100 	mvn.w	r1, #2147483648	; 0x80000000
  82:	4663      	mov	r3, ip
  84:	f7ff fffe 	bl	0 <__mulodi4>
  88:	e009      	b.n	9e <__mulodi4+0x9e>
neg():
/rustc/3c235d5600393dfe6c36eeed34042efad8d4f26e/src/libcore/ops/arith.rs:637
  8a:	4252      	negs	r2, r2
  8c:	f04f 0000 	mov.w	r0, #0
  90:	eb60 030c 	sbc.w	r3, r0, ip
checked_div():
/rustc/3c235d5600393dfe6c36eeed34042efad8d4f26e/src/libcore/num/mod.rs:673
  94:	2000      	movs	r0, #0
  96:	f04f 4100 	mov.w	r1, #2147483648	; 0x80000000
  9a:	f7ff fffe 	bl	0 <__mulodi4>
mulo<i64>():
  9e:	ebb0 0009 	subs.w	r0, r0, r9
  a2:	eb71 0008 	sbcs.w	r0, r1, r8
  a6:	da01      	bge.n	ac <__mulodi4+0xac>
  a8:	2001      	movs	r0, #1
  aa:	6030      	str	r0, [r6, #0]
__mulodi4():
/cargo/registry/src/github.com-1ecc6299db9ec823/compiler_builtins-0.1.9/src/macros.rs:256
  ac:	4620      	mov	r0, r4
  ae:	4629      	mov	r1, r5
  b0:	b001      	add	sp, #4
  b2:	e8bd 83f0 	ldmia.w	sp!, {r4, r5, r6, r7, r8, r9, pc}

Disassembly of section .text.__muloti4:

00000000 <__muloti4>:
__muloti4():
/cargo/registry/src/github.com-1ecc6299db9ec823/compiler_builtins-0.1.9/src/macros.rs:254
   0:	e92d 4ff0 	stmdb	sp!, {r4, r5, r6, r7, r8, r9, sl, fp, lr}
   4:	b089      	sub	sp, #36	; 0x24
   6:	460f      	mov	r7, r1
wrapping_mul():
/rustc/3c235d5600393dfe6c36eeed34042efad8d4f26e/src/libcore/num/mod.rs:1047
   8:	e88d 000f 	stmia.w	sp, {r0, r1, r2, r3}
   c:	4680      	mov	r8, r0
   e:	9916      	ldr	r1, [sp, #88]	; 0x58
  10:	2000      	movs	r0, #0
  12:	f10d 0b48 	add.w	fp, sp, #72	; 0x48
  16:	9d15      	ldr	r5, [sp, #84]	; 0x54
  18:	461c      	mov	r4, r3
  1a:	4616      	mov	r6, r2
mulo<i128>():
/cargo/registry/src/github.com-1ecc6299db9ec823/compiler_builtins-0.1.9/src/int/mul.rs:33
  1c:	6008      	str	r0, [r1, #0]
  1e:	e89b 0e00 	ldmia.w	fp, {r9, sl, fp}
wrapping_mul():
/rustc/3c235d5600393dfe6c36eeed34042efad8d4f26e/src/libcore/num/mod.rs:1047
  22:	4651      	mov	r1, sl
  24:	465a      	mov	r2, fp
  26:	462b      	mov	r3, r5
  28:	4648      	mov	r0, r9
  2a:	f7ff fffe 	bl	0 <__muloti4>
  2e:	9008      	str	r0, [sp, #32]
eq():
/rustc/3c235d5600393dfe6c36eeed34042efad8d4f26e/src/libcore/cmp.rs:894
  30:	ea48 0006 	orr.w	r0, r8, r6
wrapping_mul():
/rustc/3c235d5600393dfe6c36eeed34042efad8d4f26e/src/libcore/num/mod.rs:1047
  34:	e9cd 2106 	strd	r2, r1, [sp, #24]
eq():
/rustc/3c235d5600393dfe6c36eeed34042efad8d4f26e/src/libcore/cmp.rs:894
  38:	f084 4100 	eor.w	r1, r4, #2147483648	; 0x80000000
  3c:	4339      	orrs	r1, r7
  3e:	4308      	orrs	r0, r1
mulo<i128>():
/cargo/registry/src/github.com-1ecc6299db9ec823/compiler_builtins-0.1.9/src/int/mul.rs:35
  40:	d109      	bne.n	56 <__muloti4+0x56>
/cargo/registry/src/github.com-1ecc6299db9ec823/compiler_builtins-0.1.9/src/int/mul.rs:36
  42:	f1b9 0002 	subs.w	r0, r9, #2
  46:	f17a 0000 	sbcs.w	r0, sl, #0
  4a:	f17b 0000 	sbcs.w	r0, fp, #0
  4e:	f175 0000 	sbcs.w	r0, r5, #0
  52:	d278      	bcs.n	146 <__muloti4+0x146>
  54:	e07a      	b.n	14c <__muloti4+0x14c>
  56:	f04f 4000 	mov.w	r0, #2147483648	; 0x80000000
eq():
/rustc/3c235d5600393dfe6c36eeed34042efad8d4f26e/src/libcore/cmp.rs:894
  5a:	ea49 010b 	orr.w	r1, r9, fp
  5e:	4068      	eors	r0, r5
  60:	ea40 000a 	orr.w	r0, r0, sl
  64:	4308      	orrs	r0, r1
mulo<i128>():
/cargo/registry/src/github.com-1ecc6299db9ec823/compiler_builtins-0.1.9/src/int/mul.rs:41
  66:	d109      	bne.n	7c <__muloti4+0x7c>
/cargo/registry/src/github.com-1ecc6299db9ec823/compiler_builtins-0.1.9/src/int/mul.rs:42
  68:	f1b8 0002 	subs.w	r0, r8, #2
  6c:	f177 0000 	sbcs.w	r0, r7, #0
  70:	f176 0000 	sbcs.w	r0, r6, #0
  74:	f174 0000 	sbcs.w	r0, r4, #0
  78:	d265      	bcs.n	146 <__muloti4+0x146>
  7a:	e067      	b.n	14c <__muloti4+0x14c>
bitxor():
/rustc/3c235d5600393dfe6c36eeed34042efad8d4f26e/src/libcore/ops/bit.rs:306
  7c:	ea89 72e5 	eor.w	r2, r9, r5, asr #31
  80:	ea8a 71e5 	eor.w	r1, sl, r5, asr #31
sub():
/rustc/3c235d5600393dfe6c36eeed34042efad8d4f26e/src/libcore/ops/arith.rs:198
  84:	ebb2 72e5 	subs.w	r2, r2, r5, asr #31
bitxor():
/rustc/3c235d5600393dfe6c36eeed34042efad8d4f26e/src/libcore/ops/bit.rs:306
  88:	ea8b 70e5 	eor.w	r0, fp, r5, asr #31
sub():
/rustc/3c235d5600393dfe6c36eeed34042efad8d4f26e/src/libcore/ops/arith.rs:198
  8c:	eb71 71e5 	sbcs.w	r1, r1, r5, asr #31
  90:	9305      	str	r3, [sp, #20]
  92:	eb70 7ee5 	sbcs.w	lr, r0, r5, asr #31
bitxor():
/rustc/3c235d5600393dfe6c36eeed34042efad8d4f26e/src/libcore/ops/bit.rs:306
  96:	ea85 73e5 	eor.w	r3, r5, r5, asr #31
sub():
/rustc/3c235d5600393dfe6c36eeed34042efad8d4f26e/src/libcore/ops/arith.rs:198
  9a:	eb63 7ce5 	sbc.w	ip, r3, r5, asr #31
bitxor():
/rustc/3c235d5600393dfe6c36eeed34042efad8d4f26e/src/libcore/ops/bit.rs:306
  9e:	ea88 73e4 	eor.w	r3, r8, r4, asr #31
sub():
/rustc/3c235d5600393dfe6c36eeed34042efad8d4f26e/src/libcore/ops/arith.rs:198
  a2:	ebb3 7be4 	subs.w	fp, r3, r4, asr #31
bitxor():
/rustc/3c235d5600393dfe6c36eeed34042efad8d4f26e/src/libcore/ops/bit.rs:306
  a6:	ea87 77e4 	eor.w	r7, r7, r4, asr #31
  aa:	ea86 76e4 	eor.w	r6, r6, r4, asr #31
sub():
/rustc/3c235d5600393dfe6c36eeed34042efad8d4f26e/src/libcore/ops/arith.rs:198
  ae:	eb77 7ae4 	sbcs.w	sl, r7, r4, asr #31
bitxor():
/rustc/3c235d5600393dfe6c36eeed34042efad8d4f26e/src/libcore/ops/bit.rs:306
  b2:	ea84 70e4 	eor.w	r0, r4, r4, asr #31
sub():
/rustc/3c235d5600393dfe6c36eeed34042efad8d4f26e/src/libcore/ops/arith.rs:198
  b6:	eb76 79e4 	sbcs.w	r9, r6, r4, asr #31
  ba:	eb60 78e4 	sbc.w	r8, r0, r4, asr #31
lt():
/rustc/3c235d5600393dfe6c36eeed34042efad8d4f26e/src/libcore/cmp.rs:974
  be:	f1bb 0002 	subs.w	r0, fp, #2
  c2:	f17a 0000 	sbcs.w	r0, sl, #0
  c6:	9b05      	ldr	r3, [sp, #20]
  c8:	f179 0000 	sbcs.w	r0, r9, #0
  cc:	f178 0000 	sbcs.w	r0, r8, #0
mulo<i128>():
/cargo/registry/src/github.com-1ecc6299db9ec823/compiler_builtins-0.1.9/src/int/mul.rs:53
  d0:	db3c      	blt.n	14c <__muloti4+0x14c>
  d2:	1e90      	subs	r0, r2, #2
  d4:	f171 0000 	sbcs.w	r0, r1, #0
  d8:	f17e 0000 	sbcs.w	r0, lr, #0
  dc:	f17c 0000 	sbcs.w	r0, ip, #0
  e0:	db34      	blt.n	14c <__muloti4+0x14c>
  e2:	17e8      	asrs	r0, r5, #31
  e4:	17e3      	asrs	r3, r4, #31
eq():
/rustc/3c235d5600393dfe6c36eeed34042efad8d4f26e/src/libcore/cmp.rs:894
  e6:	4058      	eors	r0, r3
  e8:	4300      	orrs	r0, r0
  ea:	4300      	orrs	r0, r0
mulo<i128>():
/cargo/registry/src/github.com-1ecc6299db9ec823/compiler_builtins-0.1.9/src/int/mul.rs:56
  ec:	d10e      	bne.n	10c <__muloti4+0x10c>
checked_div():
/rustc/3c235d5600393dfe6c36eeed34042efad8d4f26e/src/libcore/num/mod.rs:673
  ee:	e9cd 2100 	strd	r2, r1, [sp]
  f2:	f04f 30ff 	mov.w	r0, #4294967295	; 0xffffffff
  f6:	f04f 31ff 	mov.w	r1, #4294967295	; 0xffffffff
  fa:	f04f 32ff 	mov.w	r2, #4294967295	; 0xffffffff
  fe:	f06f 4300 	mvn.w	r3, #2147483648	; 0x80000000
 102:	e9cd ec02 	strd	lr, ip, [sp, #8]
 106:	f7ff fffe 	bl	0 <__muloti4>
 10a:	e012      	b.n	132 <__muloti4+0x132>
neg():
/rustc/3c235d5600393dfe6c36eeed34042efad8d4f26e/src/libcore/ops/arith.rs:637
 10c:	4250      	negs	r0, r2
 10e:	f04f 0200 	mov.w	r2, #0
 112:	eb72 0101 	sbcs.w	r1, r2, r1
 116:	eb72 030e 	sbcs.w	r3, r2, lr
checked_div():
/rustc/3c235d5600393dfe6c36eeed34042efad8d4f26e/src/libcore/num/mod.rs:673
 11a:	e88d 000b 	stmia.w	sp, {r0, r1, r3}
neg():
/rustc/3c235d5600393dfe6c36eeed34042efad8d4f26e/src/libcore/ops/arith.rs:637
 11e:	eb62 020c 	sbc.w	r2, r2, ip
checked_div():
/rustc/3c235d5600393dfe6c36eeed34042efad8d4f26e/src/libcore/num/mod.rs:673
 122:	9203      	str	r2, [sp, #12]
 124:	2000      	movs	r0, #0
 126:	2100      	movs	r1, #0
 128:	2200      	movs	r2, #0
 12a:	f04f 4300 	mov.w	r3, #2147483648	; 0x80000000
 12e:	f7ff fffe 	bl	0 <__muloti4>
mulo<i128>():
 132:	ebb0 000b 	subs.w	r0, r0, fp
 136:	eb71 000a 	sbcs.w	r0, r1, sl
 13a:	eb72 0009 	sbcs.w	r0, r2, r9
 13e:	eb73 0008 	sbcs.w	r0, r3, r8
 142:	9b05      	ldr	r3, [sp, #20]
 144:	da02      	bge.n	14c <__muloti4+0x14c>
 146:	9916      	ldr	r1, [sp, #88]	; 0x58
 148:	2001      	movs	r0, #1
 14a:	6008      	str	r0, [r1, #0]
__muloti4():
/cargo/registry/src/github.com-1ecc6299db9ec823/compiler_builtins-0.1.9/src/macros.rs:256
 14c:	9808      	ldr	r0, [sp, #32]
 14e:	e9dd 2106 	ldrd	r2, r1, [sp, #24]
 152:	b009      	add	sp, #36	; 0x24
 154:	e8bd 8ff0 	ldmia.w	sp!, {r4, r5, r6, r7, r8, r9, sl, fp, pc}

Disassembly of section .text._ZN17compiler_builtins3int3mul13rust_i128_mul17hee060e4cf574d250E:

00000000 <compiler_builtins::int::mul::rust_i128_mul>:
_ZN17compiler_builtins3int3mul13rust_i128_mul17hee060e4cf574d250E():
/cargo/registry/src/github.com-1ecc6299db9ec823/compiler_builtins-0.1.9/src/macros.rs:293
   0:	e92d 41f0 	stmdb	sp!, {r4, r5, r6, r7, r8, lr}
   4:	9e06      	ldr	r6, [sp, #24]
   6:	f8dd 801c 	ldr.w	r8, [sp, #28]
wrapping_mul():
/rustc/3c235d5600393dfe6c36eeed34042efad8d4f26e/src/libcore/num/mod.rs:1047
   a:	fba6 5402 	umull	r5, r4, r6, r2
   e:	fb06 4303 	mla	r3, r6, r3, r4
/rustc/3c235d5600393dfe6c36eeed34042efad8d4f26e/src/libcore/num/mod.rs:2884
  12:	fba6 ce00 	umull	ip, lr, r6, r0
/rustc/3c235d5600393dfe6c36eeed34042efad8d4f26e/src/libcore/num/mod.rs:1047
  16:	fb08 3302 	mla	r3, r8, r2, r3
  1a:	9a08      	ldr	r2, [sp, #32]
add_assign():
/rustc/3c235d5600393dfe6c36eeed34042efad8d4f26e/src/libcore/ops/arith.rs:698
  1c:	fbe8 5301 	umlal	r5, r3, r8, r1
wrapping_mul():
/rustc/3c235d5600393dfe6c36eeed34042efad8d4f26e/src/libcore/num/mod.rs:1047
  20:	fba2 4700 	umull	r4, r7, r2, r0
  24:	fb02 7201 	mla	r2, r2, r1, r7
  28:	9f09      	ldr	r7, [sp, #36]	; 0x24
  2a:	fb07 2700 	mla	r7, r7, r0, r2
add_assign():
/rustc/3c235d5600393dfe6c36eeed34042efad8d4f26e/src/libcore/ops/arith.rs:698
  2e:	192a      	adds	r2, r5, r4
wrapping_mul():
/rustc/3c235d5600393dfe6c36eeed34042efad8d4f26e/src/libcore/num/mod.rs:2884
  30:	fba6 4501 	umull	r4, r5, r6, r1
add_assign():
/rustc/3c235d5600393dfe6c36eeed34042efad8d4f26e/src/libcore/ops/arith.rs:698
  34:	417b      	adcs	r3, r7
  36:	eb14 040e 	adds.w	r4, r4, lr
wrapping_add():
/rustc/3c235d5600393dfe6c36eeed34042efad8d4f26e/src/libcore/num/mod.rs:1006
  3a:	eb52 0405 	adcs.w	r4, r2, r5
add_assign():
/rustc/3c235d5600393dfe6c36eeed34042efad8d4f26e/src/libcore/ops/arith.rs:698
  3e:	fbe6 e201 	umlal	lr, r2, r6, r1
wrapping_add():
/rustc/3c235d5600393dfe6c36eeed34042efad8d4f26e/src/libcore/num/mod.rs:1006
  42:	f143 0300 	adc.w	r3, r3, #0
wrapping_mul():
/rustc/3c235d5600393dfe6c36eeed34042efad8d4f26e/src/libcore/num/mod.rs:2884
  46:	fba8 1400 	umull	r1, r4, r8, r0
add_assign():
/rustc/3c235d5600393dfe6c36eeed34042efad8d4f26e/src/libcore/ops/arith.rs:698
  4a:	eb11 010e 	adds.w	r1, r1, lr
wrapping_add():
/rustc/3c235d5600393dfe6c36eeed34042efad8d4f26e/src/libcore/num/mod.rs:1006
  4e:	eb52 0104 	adcs.w	r1, r2, r4
add_assign():
/rustc/3c235d5600393dfe6c36eeed34042efad8d4f26e/src/libcore/ops/arith.rs:698
  52:	fbe8 e200 	umlal	lr, r2, r8, r0
wrapping_add():
/rustc/3c235d5600393dfe6c36eeed34042efad8d4f26e/src/libcore/num/mod.rs:1006
  56:	f143 0300 	adc.w	r3, r3, #0
_ZN17compiler_builtins3int3mul13rust_i128_mul17hee060e4cf574d250E():
/cargo/registry/src/github.com-1ecc6299db9ec823/compiler_builtins-0.1.9/src/macros.rs:295
  5a:	4660      	mov	r0, ip
  5c:	4671      	mov	r1, lr
  5e:	e8bd 81f0 	ldmia.w	sp!, {r4, r5, r6, r7, r8, pc}

Disassembly of section .text._ZN17compiler_builtins3int3mul14rust_i128_mulo17h7dbac307fda3729eE:

00000000 <compiler_builtins::int::mul::rust_i128_mulo>:
_ZN17compiler_builtins3int3mul14rust_i128_mulo17h7dbac307fda3729eE():
/cargo/registry/src/github.com-1ecc6299db9ec823/compiler_builtins-0.1.9/src/macros.rs:293
   0:	e92d 4ff0 	stmdb	sp!, {r4, r5, r6, r7, r8, r9, sl, fp, lr}
   4:	b089      	sub	sp, #36	; 0x24
   6:	f8dd 805c 	ldr.w	r8, [sp, #92]	; 0x5c
   a:	f10d 0a50 	add.w	sl, sp, #80	; 0x50
   e:	9e13      	ldr	r6, [sp, #76]	; 0x4c
  10:	461f      	mov	r7, r3
wrapping_mul():
/rustc/3c235d5600393dfe6c36eeed34042efad8d4f26e/src/libcore/num/mod.rs:1047
  12:	9603      	str	r6, [sp, #12]
  14:	4615      	mov	r5, r2
  16:	f8dd b048 	ldr.w	fp, [sp, #72]	; 0x48
  1a:	4604      	mov	r4, r0
  1c:	e88d 080c 	stmia.w	sp, {r2, r3, fp}
  20:	4643      	mov	r3, r8
  22:	e89a 0601 	ldmia.w	sl, {r0, r9, sl}
  26:	4649      	mov	r1, r9
  28:	4652      	mov	r2, sl
  2a:	f7ff fffe 	bl	0 <compiler_builtins::int::mul::rust_i128_mulo>
  2e:	9108      	str	r1, [sp, #32]
eq():
/rustc/3c235d5600393dfe6c36eeed34042efad8d4f26e/src/libcore/cmp.rs:894
  30:	f086 4100 	eor.w	r1, r6, #2147483648	; 0x80000000
wrapping_mul():
/rustc/3c235d5600393dfe6c36eeed34042efad8d4f26e/src/libcore/num/mod.rs:1047
  34:	e9cd 0206 	strd	r0, r2, [sp, #24]
eq():
/rustc/3c235d5600393dfe6c36eeed34042efad8d4f26e/src/libcore/cmp.rs:894
  38:	ea45 000b 	orr.w	r0, r5, fp
  3c:	4339      	orrs	r1, r7
  3e:	4308      	orrs	r0, r1
mulo<i128>():
/cargo/registry/src/github.com-1ecc6299db9ec823/compiler_builtins-0.1.9/src/int/mul.rs:35
  40:	d10e      	bne.n	60 <compiler_builtins::int::mul::rust_i128_mulo+0x60>
/cargo/registry/src/github.com-1ecc6299db9ec823/compiler_builtins-0.1.9/src/int/mul.rs:36
  42:	9814      	ldr	r0, [sp, #80]	; 0x50
  44:	f04f 0b00 	mov.w	fp, #0
  48:	f1d0 0001 	rsbs	r0, r0, #1
  4c:	eb7b 0009 	sbcs.w	r0, fp, r9
  50:	eb7b 000a 	sbcs.w	r0, fp, sl
  54:	eb7b 0008 	sbcs.w	r0, fp, r8
  58:	bf38      	it	cc
  5a:	f04f 0b01 	movcc.w	fp, #1
  5e:	e084      	b.n	16a <compiler_builtins::int::mul::rust_i128_mulo+0x16a>
  60:	f04f 4000 	mov.w	r0, #2147483648	; 0x80000000
  64:	9a14      	ldr	r2, [sp, #80]	; 0x50
eq():
/rustc/3c235d5600393dfe6c36eeed34042efad8d4f26e/src/libcore/cmp.rs:894
  66:	ea80 0008 	eor.w	r0, r0, r8
  6a:	ea42 010a 	orr.w	r1, r2, sl
  6e:	ea40 0009 	orr.w	r0, r0, r9
  72:	4308      	orrs	r0, r1
mulo<i128>():
/cargo/registry/src/github.com-1ecc6299db9ec823/compiler_builtins-0.1.9/src/int/mul.rs:41
  74:	d10e      	bne.n	94 <compiler_builtins::int::mul::rust_i128_mulo+0x94>
/cargo/registry/src/github.com-1ecc6299db9ec823/compiler_builtins-0.1.9/src/int/mul.rs:42
  76:	f1d5 0001 	rsbs	r0, r5, #1
  7a:	4659      	mov	r1, fp
  7c:	f04f 0b00 	mov.w	fp, #0
  80:	eb7b 0007 	sbcs.w	r0, fp, r7
  84:	eb7b 0001 	sbcs.w	r0, fp, r1
  88:	eb7b 0006 	sbcs.w	r0, fp, r6
  8c:	bf38      	it	cc
  8e:	f04f 0b01 	movcc.w	fp, #1
  92:	e06a      	b.n	16a <compiler_builtins::int::mul::rust_i128_mulo+0x16a>
bitxor():
/rustc/3c235d5600393dfe6c36eeed34042efad8d4f26e/src/libcore/ops/bit.rs:306
  94:	ea82 72e8 	eor.w	r2, r2, r8, asr #31
  98:	ea89 71e8 	eor.w	r1, r9, r8, asr #31
sub():
/rustc/3c235d5600393dfe6c36eeed34042efad8d4f26e/src/libcore/ops/arith.rs:198
  9c:	ebb2 72e8 	subs.w	r2, r2, r8, asr #31
bitxor():
/rustc/3c235d5600393dfe6c36eeed34042efad8d4f26e/src/libcore/ops/bit.rs:306
  a0:	ea8a 70e8 	eor.w	r0, sl, r8, asr #31
sub():
/rustc/3c235d5600393dfe6c36eeed34042efad8d4f26e/src/libcore/ops/arith.rs:198
  a4:	eb71 71e8 	sbcs.w	r1, r1, r8, asr #31
  a8:	9305      	str	r3, [sp, #20]
  aa:	eb70 7ee8 	sbcs.w	lr, r0, r8, asr #31
bitxor():
/rustc/3c235d5600393dfe6c36eeed34042efad8d4f26e/src/libcore/ops/bit.rs:306
  ae:	ea88 73e8 	eor.w	r3, r8, r8, asr #31
  b2:	ea85 75e6 	eor.w	r5, r5, r6, asr #31
sub():
/rustc/3c235d5600393dfe6c36eeed34042efad8d4f26e/src/libcore/ops/arith.rs:198
  b6:	eb63 7ce8 	sbc.w	ip, r3, r8, asr #31
bitxor():
/rustc/3c235d5600393dfe6c36eeed34042efad8d4f26e/src/libcore/ops/bit.rs:306
  ba:	ea87 77e6 	eor.w	r7, r7, r6, asr #31
sub():
/rustc/3c235d5600393dfe6c36eeed34042efad8d4f26e/src/libcore/ops/arith.rs:198
  be:	ebb5 75e6 	subs.w	r5, r5, r6, asr #31
bitxor():
/rustc/3c235d5600393dfe6c36eeed34042efad8d4f26e/src/libcore/ops/bit.rs:306
  c2:	ea8b 73e6 	eor.w	r3, fp, r6, asr #31
sub():
/rustc/3c235d5600393dfe6c36eeed34042efad8d4f26e/src/libcore/ops/arith.rs:198
  c6:	eb77 77e6 	sbcs.w	r7, r7, r6, asr #31
bitxor():
/rustc/3c235d5600393dfe6c36eeed34042efad8d4f26e/src/libcore/ops/bit.rs:306
  ca:	ea86 70e6 	eor.w	r0, r6, r6, asr #31
sub():
/rustc/3c235d5600393dfe6c36eeed34042efad8d4f26e/src/libcore/ops/arith.rs:198
  ce:	eb73 79e6 	sbcs.w	r9, r3, r6, asr #31
  d2:	46b2      	mov	sl, r6
  d4:	eb60 76e6 	sbc.w	r6, r0, r6, asr #31
lt():
/rustc/3c235d5600393dfe6c36eeed34042efad8d4f26e/src/libcore/cmp.rs:974
  d8:	1ea8      	subs	r0, r5, #2
  da:	f04f 0b00 	mov.w	fp, #0
  de:	f177 0000 	sbcs.w	r0, r7, #0
  e2:	f179 0000 	sbcs.w	r0, r9, #0
  e6:	f176 0000 	sbcs.w	r0, r6, #0
mulo<i128>():
/cargo/registry/src/github.com-1ecc6299db9ec823/compiler_builtins-0.1.9/src/int/mul.rs:53
  ea:	db3d      	blt.n	168 <compiler_builtins::int::mul::rust_i128_mulo+0x168>
  ec:	1e90      	subs	r0, r2, #2
  ee:	9b05      	ldr	r3, [sp, #20]
  f0:	f171 0000 	sbcs.w	r0, r1, #0
  f4:	f17e 0000 	sbcs.w	r0, lr, #0
  f8:	f17c 0000 	sbcs.w	r0, ip, #0
  fc:	db35      	blt.n	16a <compiler_builtins::int::mul::rust_i128_mulo+0x16a>
  fe:	ea4f 70e8 	mov.w	r0, r8, asr #31
 102:	ea4f 73ea 	mov.w	r3, sl, asr #31
eq():
/rustc/3c235d5600393dfe6c36eeed34042efad8d4f26e/src/libcore/cmp.rs:894
 106:	4058      	eors	r0, r3
 108:	4300      	orrs	r0, r0
 10a:	4300      	orrs	r0, r0
mulo<i128>():
/cargo/registry/src/github.com-1ecc6299db9ec823/compiler_builtins-0.1.9/src/int/mul.rs:56
 10c:	d110      	bne.n	130 <compiler_builtins::int::mul::rust_i128_mulo+0x130>
checked_div():
/rustc/3c235d5600393dfe6c36eeed34042efad8d4f26e/src/libcore/num/mod.rs:673
 10e:	e9cd 2100 	strd	r2, r1, [sp]
 112:	f04f 30ff 	mov.w	r0, #4294967295	; 0xffffffff
 116:	f04f 31ff 	mov.w	r1, #4294967295	; 0xffffffff
 11a:	f04f 32ff 	mov.w	r2, #4294967295	; 0xffffffff
 11e:	f06f 4300 	mvn.w	r3, #2147483648	; 0x80000000
 122:	e9cd ec02 	strd	lr, ip, [sp, #8]
 126:	f7ff fffe 	bl	0 <compiler_builtins::int::mul::rust_i128_mulo>
 12a:	f04f 0b00 	mov.w	fp, #0
 12e:	e011      	b.n	154 <compiler_builtins::int::mul::rust_i128_mulo+0x154>
neg():
/rustc/3c235d5600393dfe6c36eeed34042efad8d4f26e/src/libcore/ops/arith.rs:637
 130:	4250      	negs	r0, r2
 132:	f04f 0b00 	mov.w	fp, #0
 136:	eb7b 0101 	sbcs.w	r1, fp, r1
 13a:	eb7b 020e 	sbcs.w	r2, fp, lr
 13e:	eb6b 030c 	sbc.w	r3, fp, ip
checked_div():
/rustc/3c235d5600393dfe6c36eeed34042efad8d4f26e/src/libcore/num/mod.rs:673
 142:	e88d 000f 	stmia.w	sp, {r0, r1, r2, r3}
 146:	2000      	movs	r0, #0
 148:	2100      	movs	r1, #0
 14a:	2200      	movs	r2, #0
 14c:	f04f 4300 	mov.w	r3, #2147483648	; 0x80000000
 150:	f7ff fffe 	bl	0 <compiler_builtins::int::mul::rust_i128_mulo>
mulo<i128>():
 154:	1b40      	subs	r0, r0, r5
 156:	eb71 0007 	sbcs.w	r0, r1, r7
 15a:	eb72 0009 	sbcs.w	r0, r2, r9
 15e:	eb73 0006 	sbcs.w	r0, r3, r6
 162:	bfb8      	it	lt
 164:	f04f 0b01 	movlt.w	fp, #1
_ZN17compiler_builtins3int3mul14rust_i128_mulo17h7dbac307fda3729eE():
 168:	9b05      	ldr	r3, [sp, #20]
/cargo/registry/src/github.com-1ecc6299db9ec823/compiler_builtins-0.1.9/src/macros.rs:295
 16a:	9806      	ldr	r0, [sp, #24]
 16c:	6020      	str	r0, [r4, #0]
 16e:	f884 b010 	strb.w	fp, [r4, #16]
 172:	9808      	ldr	r0, [sp, #32]
 174:	6060      	str	r0, [r4, #4]
 176:	9807      	ldr	r0, [sp, #28]
 178:	e9c4 0302 	strd	r0, r3, [r4, #8]
 17c:	b009      	add	sp, #36	; 0x24
 17e:	e8bd 8ff0 	ldmia.w	sp!, {r4, r5, r6, r7, r8, r9, sl, fp, pc}

Disassembly of section .text._ZN17compiler_builtins3int3mul14rust_u128_mulo17h9cdaa35554bdafd2E:

00000000 <compiler_builtins::int::mul::rust_u128_mulo>:
_ZN17compiler_builtins3int3mul14rust_u128_mulo17h9cdaa35554bdafd2E():
/cargo/registry/src/github.com-1ecc6299db9ec823/compiler_builtins-0.1.9/src/macros.rs:293
   0:	e92d 4ff0 	stmdb	sp!, {r4, r5, r6, r7, r8, r9, sl, fp, lr}
   4:	b085      	sub	sp, #20
   6:	f8dd 804c 	ldr.w	r8, [sp, #76]	; 0x4c
   a:	4604      	mov	r4, r0
   c:	f8dd 9044 	ldr.w	r9, [sp, #68]	; 0x44
  10:	f8dd a048 	ldr.w	sl, [sp, #72]	; 0x48
  14:	9f10      	ldr	r7, [sp, #64]	; 0x40
checked_div():
/rustc/3c235d5600393dfe6c36eeed34042efad8d4f26e/src/libcore/num/mod.rs:2562
  16:	ea49 0008 	orr.w	r0, r9, r8
  1a:	ea47 010a 	orr.w	r1, r7, sl
  1e:	4308      	orrs	r0, r1
  20:	d02c      	beq.n	7c <compiler_builtins::int::mul::rust_u128_mulo+0x7c>
mulo<u128>():
  22:	e9dd b00e 	ldrd	fp, r0, [sp, #56]	; 0x38
  26:	461d      	mov	r5, r3
wrapping_mul():
/rustc/3c235d5600393dfe6c36eeed34042efad8d4f26e/src/libcore/num/mod.rs:2884
  28:	e88d 080c 	stmia.w	sp, {r2, r3, fp}
  2c:	4616      	mov	r6, r2
  2e:	4649      	mov	r1, r9
  30:	9003      	str	r0, [sp, #12]
  32:	4638      	mov	r0, r7
  34:	4652      	mov	r2, sl
  36:	4643      	mov	r3, r8
  38:	f7ff fffe 	bl	0 <compiler_builtins::int::mul::rust_u128_mulo>
checked_div():
/rustc/3c235d5600393dfe6c36eeed34042efad8d4f26e/src/libcore/num/mod.rs:2563
  3c:	e88d 0680 	stmia.w	sp, {r7, r9, sl}
  40:	f8cd 800c 	str.w	r8, [sp, #12]
_ZN17compiler_builtins3int3mul14rust_u128_mulo17h9cdaa35554bdafd2E():
/cargo/registry/src/github.com-1ecc6299db9ec823/compiler_builtins-0.1.9/src/macros.rs:295
  44:	e884 000f 	stmia.w	r4, {r0, r1, r2, r3}
checked_div():
/rustc/3c235d5600393dfe6c36eeed34042efad8d4f26e/src/libcore/num/mod.rs:2563
  48:	f04f 30ff 	mov.w	r0, #4294967295	; 0xffffffff
  4c:	f04f 31ff 	mov.w	r1, #4294967295	; 0xffffffff
  50:	f04f 32ff 	mov.w	r2, #4294967295	; 0xffffffff
  54:	f04f 33ff 	mov.w	r3, #4294967295	; 0xffffffff
  58:	f7ff fffe 	bl	0 <compiler_builtins::int::mul::rust_u128_mulo>
gt():
/rustc/3c235d5600393dfe6c36eeed34042efad8d4f26e/src/libcore/cmp.rs:980
  5c:	1b80      	subs	r0, r0, r6
  5e:	f04f 0700 	mov.w	r7, #0
  62:	eb71 0005 	sbcs.w	r0, r1, r5
  66:	eb72 000b 	sbcs.w	r0, r2, fp
  6a:	980f      	ldr	r0, [sp, #60]	; 0x3c
  6c:	eb73 0000 	sbcs.w	r0, r3, r0
  70:	bf38      	it	cc
  72:	2701      	movcc	r7, #1
_ZN17compiler_builtins3int3mul14rust_u128_mulo17h9cdaa35554bdafd2E():
/cargo/registry/src/github.com-1ecc6299db9ec823/compiler_builtins-0.1.9/src/macros.rs:295
  74:	7427      	strb	r7, [r4, #16]
  76:	b005      	add	sp, #20
  78:	e8bd 8ff0 	ldmia.w	sp!, {r4, r5, r6, r7, r8, r9, sl, fp, pc}
abort():
/cargo/registry/src/github.com-1ecc6299db9ec823/compiler_builtins-0.1.9/src/lib.rs:41
  7c:	defe      	udf	#254	; 0xfe
  7e:	defe      	udf	#254	; 0xfe

Disassembly of section .text.__divsi3:

00000000 <__divsi3>:
__divsi3():
/rustc/3c235d5600393dfe6c36eeed34042efad8d4f26e/src/libcore/ops/bit.rs:306
   0:	ea81 72e1 	eor.w	r2, r1, r1, asr #31
wrapping_sub():
/rustc/3c235d5600393dfe6c36eeed34042efad8d4f26e/src/libcore/num/mod.rs:1027
   4:	eba2 72e1 	sub.w	r2, r2, r1, asr #31
checked_div():
/rustc/3c235d5600393dfe6c36eeed34042efad8d4f26e/src/libcore/num/mod.rs:2562
   8:	2a00      	cmp	r2, #0
__divsi3():
   a:	bf1f      	itttt	ne
   c:	17c9      	asrne	r1, r1, #31
   e:	ea81 71e0 	eorne.w	r1, r1, r0, asr #31
  12:	17c3      	asrne	r3, r0, #31
bitxor():
/rustc/3c235d5600393dfe6c36eeed34042efad8d4f26e/src/libcore/ops/bit.rs:306
  14:	4058      	eorne	r0, r3
wrapping_sub():
/rustc/3c235d5600393dfe6c36eeed34042efad8d4f26e/src/libcore/num/mod.rs:1027
  16:	bf1f      	itttt	ne
  18:	1ac0      	subne	r0, r0, r3
checked_div():
/rustc/3c235d5600393dfe6c36eeed34042efad8d4f26e/src/libcore/num/mod.rs:2563
  1a:	fbb0 f0f2 	udivne	r0, r0, r2
bitxor():
/rustc/3c235d5600393dfe6c36eeed34042efad8d4f26e/src/libcore/ops/bit.rs:306
  1e:	4048      	eorne	r0, r1
sub():
/rustc/3c235d5600393dfe6c36eeed34042efad8d4f26e/src/libcore/ops/arith.rs:198
  20:	1a40      	subne	r0, r0, r1
__divsi3():
/cargo/registry/src/github.com-1ecc6299db9ec823/compiler_builtins-0.1.9/src/macros.rs:216
  22:	bf18      	it	ne
  24:	4770      	bxne	lr
abort():
/cargo/registry/src/github.com-1ecc6299db9ec823/compiler_builtins-0.1.9/src/lib.rs:41
  26:	defe      	udf	#254	; 0xfe
  28:	defe      	udf	#254	; 0xfe

Disassembly of section .text.__aeabi_idiv:

00000000 <__aeabi_idiv>:
__aeabi_idiv():
/rustc/3c235d5600393dfe6c36eeed34042efad8d4f26e/src/libcore/ops/bit.rs:306
   0:	ea81 72e1 	eor.w	r2, r1, r1, asr #31
wrapping_sub():
/rustc/3c235d5600393dfe6c36eeed34042efad8d4f26e/src/libcore/num/mod.rs:1027
   4:	eba2 72e1 	sub.w	r2, r2, r1, asr #31
checked_div():
/rustc/3c235d5600393dfe6c36eeed34042efad8d4f26e/src/libcore/num/mod.rs:2562
   8:	2a00      	cmp	r2, #0
__aeabi_idiv():
   a:	bf1f      	itttt	ne
   c:	17c9      	asrne	r1, r1, #31
   e:	ea81 71e0 	eorne.w	r1, r1, r0, asr #31
  12:	17c3      	asrne	r3, r0, #31
bitxor():
/rustc/3c235d5600393dfe6c36eeed34042efad8d4f26e/src/libcore/ops/bit.rs:306
  14:	4058      	eorne	r0, r3
wrapping_sub():
/rustc/3c235d5600393dfe6c36eeed34042efad8d4f26e/src/libcore/num/mod.rs:1027
  16:	bf1f      	itttt	ne
  18:	1ac0      	subne	r0, r0, r3
checked_div():
/rustc/3c235d5600393dfe6c36eeed34042efad8d4f26e/src/libcore/num/mod.rs:2563
  1a:	fbb0 f0f2 	udivne	r0, r0, r2
bitxor():
/rustc/3c235d5600393dfe6c36eeed34042efad8d4f26e/src/libcore/ops/bit.rs:306
  1e:	4048      	eorne	r0, r1
sub():
/rustc/3c235d5600393dfe6c36eeed34042efad8d4f26e/src/libcore/ops/arith.rs:198
  20:	1a40      	subne	r0, r0, r1
__aeabi_idiv():
/cargo/registry/src/github.com-1ecc6299db9ec823/compiler_builtins-0.1.9/src/macros.rs:256
  22:	bf18      	it	ne
  24:	4770      	bxne	lr
abort():
/cargo/registry/src/github.com-1ecc6299db9ec823/compiler_builtins-0.1.9/src/lib.rs:41
  26:	defe      	udf	#254	; 0xfe
  28:	defe      	udf	#254	; 0xfe

Disassembly of section .text.__divdi3:

00000000 <__divdi3>:
__divdi3():
/cargo/registry/src/github.com-1ecc6299db9ec823/compiler_builtins-0.1.9/src/macros.rs:254
   0:	b5b0      	push	{r4, r5, r7, lr}
   2:	469c      	mov	ip, r3
bitxor():
/rustc/3c235d5600393dfe6c36eeed34042efad8d4f26e/src/libcore/ops/bit.rs:306
   4:	ea82 72e3 	eor.w	r2, r2, r3, asr #31
   8:	ea83 73e3 	eor.w	r3, r3, r3, asr #31
wrapping_sub():
/rustc/3c235d5600393dfe6c36eeed34042efad8d4f26e/src/libcore/num/mod.rs:1027
   c:	ebb2 72ec 	subs.w	r2, r2, ip, asr #31
  10:	eb63 73ec 	sbc.w	r3, r3, ip, asr #31
checked_div():
/rustc/3c235d5600393dfe6c36eeed34042efad8d4f26e/src/libcore/num/mod.rs:2562
  14:	ea52 0e03 	orrs.w	lr, r2, r3
  18:	d00f      	beq.n	3a <__divdi3+0x3a>
div<i64>():
  1a:	17cc      	asrs	r4, r1, #31
bitxor():
/rustc/3c235d5600393dfe6c36eeed34042efad8d4f26e/src/libcore/ops/bit.rs:306
  1c:	4060      	eors	r0, r4
div<i64>():
  1e:	ea4f 7cec 	mov.w	ip, ip, asr #31
  22:	ea8c 75e1 	eor.w	r5, ip, r1, asr #31
bitxor():
/rustc/3c235d5600393dfe6c36eeed34042efad8d4f26e/src/libcore/ops/bit.rs:306
  26:	4061      	eors	r1, r4
wrapping_sub():
/rustc/3c235d5600393dfe6c36eeed34042efad8d4f26e/src/libcore/num/mod.rs:1027
  28:	1b00      	subs	r0, r0, r4
  2a:	41a1      	sbcs	r1, r4
checked_div():
/rustc/3c235d5600393dfe6c36eeed34042efad8d4f26e/src/libcore/num/mod.rs:2563
  2c:	f7ff fffe 	bl	0 <__divdi3>
bitxor():
/rustc/3c235d5600393dfe6c36eeed34042efad8d4f26e/src/libcore/ops/bit.rs:306
  30:	4068      	eors	r0, r5
  32:	4069      	eors	r1, r5
sub():
/rustc/3c235d5600393dfe6c36eeed34042efad8d4f26e/src/libcore/ops/arith.rs:198
  34:	1b40      	subs	r0, r0, r5
  36:	41a9      	sbcs	r1, r5
__divdi3():
/cargo/registry/src/github.com-1ecc6299db9ec823/compiler_builtins-0.1.9/src/macros.rs:256
  38:	bdb0      	pop	{r4, r5, r7, pc}
abort():
/cargo/registry/src/github.com-1ecc6299db9ec823/compiler_builtins-0.1.9/src/lib.rs:41
  3a:	defe      	udf	#254	; 0xfe
  3c:	defe      	udf	#254	; 0xfe

Disassembly of section .text._ZN17compiler_builtins3int4sdiv8__modsi317ha55d12a915c783ffE:

00000000 <compiler_builtins::int::sdiv::__modsi3>:
_ZN17compiler_builtins3int4sdiv8__modsi317ha55d12a915c783ffE():
/cargo/registry/src/github.com-1ecc6299db9ec823/compiler_builtins-0.1.9/src/macros.rs:77
   0:	f7ff bffe 	b.w	0 <__modsi3>

Disassembly of section .text.__moddi3:

00000000 <__moddi3>:
__moddi3():
/cargo/registry/src/github.com-1ecc6299db9ec823/compiler_builtins-0.1.9/src/macros.rs:254
   0:	eb12 72e3 	adds.w	r2, r2, r3, asr #31
   4:	eb43 7ce3 	adc.w	ip, r3, r3, asr #31
   8:	ea82 72e3 	eor.w	r2, r2, r3, asr #31
   c:	ea8c 73e3 	eor.w	r3, ip, r3, asr #31
checked_rem():
/rustc/3c235d5600393dfe6c36eeed34042efad8d4f26e/src/libcore/num/mod.rs:2608
  10:	ea52 0c03 	orrs.w	ip, r2, r3
  14:	d00e      	beq.n	34 <__moddi3+0x34>
mod_<i64>():
/rustc/3c235d5600393dfe6c36eeed34042efad8d4f26e/src/libcore/num/mod.rs:2608
  16:	b510      	push	{r4, lr}
  18:	17cc      	asrs	r4, r1, #31
bitxor():
/rustc/3c235d5600393dfe6c36eeed34042efad8d4f26e/src/libcore/ops/bit.rs:306
  1a:	4060      	eors	r0, r4
  1c:	4061      	eors	r1, r4
wrapping_sub():
/rustc/3c235d5600393dfe6c36eeed34042efad8d4f26e/src/libcore/num/mod.rs:1027
  1e:	1b00      	subs	r0, r0, r4
  20:	41a1      	sbcs	r1, r4
checked_rem():
/rustc/3c235d5600393dfe6c36eeed34042efad8d4f26e/src/libcore/num/mod.rs:2611
  22:	f7ff fffe 	bl	0 <__moddi3>
bitxor():
/rustc/3c235d5600393dfe6c36eeed34042efad8d4f26e/src/libcore/ops/bit.rs:306
  26:	ea82 0004 	eor.w	r0, r2, r4
  2a:	ea83 0104 	eor.w	r1, r3, r4
sub():
/rustc/3c235d5600393dfe6c36eeed34042efad8d4f26e/src/libcore/ops/arith.rs:198
  2e:	1b00      	subs	r0, r0, r4
  30:	41a1      	sbcs	r1, r4
__moddi3():
/cargo/registry/src/github.com-1ecc6299db9ec823/compiler_builtins-0.1.9/src/macros.rs:256
  32:	bd10      	pop	{r4, pc}
abort():
/cargo/registry/src/github.com-1ecc6299db9ec823/compiler_builtins-0.1.9/src/lib.rs:41
  34:	defe      	udf	#254	; 0xfe
  36:	defe      	udf	#254	; 0xfe

Disassembly of section .text._ZN17compiler_builtins3int4sdiv11__divmodsi417h15a785fc4c4609ccE:

00000000 <compiler_builtins::int::sdiv::__divmodsi4>:
_ZN17compiler_builtins3int4sdiv11__divmodsi417h15a785fc4c4609ccE():
/cargo/registry/src/github.com-1ecc6299db9ec823/compiler_builtins-0.1.9/src/macros.rs:77
   0:	f7ff bffe 	b.w	0 <__divmodsi4>

Disassembly of section .text.__divmoddi4:

00000000 <__divmoddi4>:
__divmoddi4():
/cargo/registry/src/github.com-1ecc6299db9ec823/compiler_builtins-0.1.9/src/macros.rs:254
   0:	e92d 47f0 	stmdb	sp!, {r4, r5, r6, r7, r8, r9, sl, lr}
   4:	4680      	mov	r8, r0
bitxor():
/rustc/3c235d5600393dfe6c36eeed34042efad8d4f26e/src/libcore/ops/bit.rs:306
   6:	ea82 70e3 	eor.w	r0, r2, r3, asr #31
   a:	4692      	mov	sl, r2
   c:	460c      	mov	r4, r1
   e:	ea83 71e3 	eor.w	r1, r3, r3, asr #31
wrapping_sub():
/rustc/3c235d5600393dfe6c36eeed34042efad8d4f26e/src/libcore/num/mod.rs:1027
  12:	ebb0 72e3 	subs.w	r2, r0, r3, asr #31
  16:	461e      	mov	r6, r3
  18:	eb61 73e3 	sbc.w	r3, r1, r3, asr #31
checked_div():
/rustc/3c235d5600393dfe6c36eeed34042efad8d4f26e/src/libcore/num/mod.rs:2562
  1c:	ea52 0003 	orrs.w	r0, r2, r3
  20:	d020      	beq.n	64 <__divmoddi4+0x64>
div<i64>():
  22:	17f0      	asrs	r0, r6, #31
  24:	17e1      	asrs	r1, r4, #31
  26:	ea80 77e4 	eor.w	r7, r0, r4, asr #31
bitxor():
/rustc/3c235d5600393dfe6c36eeed34042efad8d4f26e/src/libcore/ops/bit.rs:306
  2a:	ea81 0008 	eor.w	r0, r1, r8
  2e:	ea81 0504 	eor.w	r5, r1, r4
wrapping_sub():
/rustc/3c235d5600393dfe6c36eeed34042efad8d4f26e/src/libcore/num/mod.rs:1027
  32:	1a40      	subs	r0, r0, r1
  34:	eb65 0101 	sbc.w	r1, r5, r1
  38:	f8dd 9020 	ldr.w	r9, [sp, #32]
checked_div():
/rustc/3c235d5600393dfe6c36eeed34042efad8d4f26e/src/libcore/num/mod.rs:2563
  3c:	f7ff fffe 	bl	0 <__divmoddi4>
bitxor():
/rustc/3c235d5600393dfe6c36eeed34042efad8d4f26e/src/libcore/ops/bit.rs:306
  40:	4078      	eors	r0, r7
  42:	4079      	eors	r1, r7
sub():
/rustc/3c235d5600393dfe6c36eeed34042efad8d4f26e/src/libcore/ops/arith.rs:198
  44:	1bc0      	subs	r0, r0, r7
  46:	41b9      	sbcs	r1, r7
wrapping_mul():
/rustc/3c235d5600393dfe6c36eeed34042efad8d4f26e/src/libcore/num/mod.rs:1047
  48:	fba0 230a 	umull	r2, r3, r0, sl
  4c:	fb00 3306 	mla	r3, r0, r6, r3
sub():
/rustc/3c235d5600393dfe6c36eeed34042efad8d4f26e/src/libcore/ops/arith.rs:198
  50:	ebb8 0202 	subs.w	r2, r8, r2
wrapping_mul():
/rustc/3c235d5600393dfe6c36eeed34042efad8d4f26e/src/libcore/num/mod.rs:1047
  54:	fb01 330a 	mla	r3, r1, sl, r3
sub():
/rustc/3c235d5600393dfe6c36eeed34042efad8d4f26e/src/libcore/ops/arith.rs:198
  58:	eb64 0303 	sbc.w	r3, r4, r3
divmod<i64,closure>():
/cargo/registry/src/github.com-1ecc6299db9ec823/compiler_builtins-0.1.9/src/int/sdiv.rs:51
  5c:	e9c9 2300 	strd	r2, r3, [r9]
__divmoddi4():
/cargo/registry/src/github.com-1ecc6299db9ec823/compiler_builtins-0.1.9/src/macros.rs:256
  60:	e8bd 87f0 	ldmia.w	sp!, {r4, r5, r6, r7, r8, r9, sl, pc}
abort():
/cargo/registry/src/github.com-1ecc6299db9ec823/compiler_builtins-0.1.9/src/lib.rs:41
  64:	defe      	udf	#254	; 0xfe
  66:	defe      	udf	#254	; 0xfe

Disassembly of section .text._ZN17compiler_builtins3int4sdiv13rust_i128_div17hba816bd7aff5f749E:

00000000 <compiler_builtins::int::sdiv::rust_i128_div>:
_ZN17compiler_builtins3int4sdiv13rust_i128_div17hba816bd7aff5f749E():
/cargo/registry/src/github.com-1ecc6299db9ec823/compiler_builtins-0.1.9/src/macros.rs:293
   0:	e92d 41f0 	stmdb	sp!, {r4, r5, r6, r7, r8, lr}
   4:	b084      	sub	sp, #16
   6:	e9dd 640c 	ldrd	r6, r4, [sp, #48]	; 0x30
   a:	9d0a      	ldr	r5, [sp, #40]	; 0x28
bitxor():
/rustc/3c235d5600393dfe6c36eeed34042efad8d4f26e/src/libcore/ops/bit.rs:306
   c:	ea84 77e4 	eor.w	r7, r4, r4, asr #31
  10:	ea86 78e4 	eor.w	r8, r6, r4, asr #31
  14:	9e0b      	ldr	r6, [sp, #44]	; 0x2c
  16:	ea85 75e4 	eor.w	r5, r5, r4, asr #31
  1a:	ea86 76e4 	eor.w	r6, r6, r4, asr #31
wrapping_sub():
/rustc/3c235d5600393dfe6c36eeed34042efad8d4f26e/src/libcore/num/mod.rs:1027
  1e:	ebb5 7ce4 	subs.w	ip, r5, r4, asr #31
  22:	eb76 7ee4 	sbcs.w	lr, r6, r4, asr #31
  26:	eb78 78e4 	sbcs.w	r8, r8, r4, asr #31
  2a:	eb67 76e4 	sbc.w	r6, r7, r4, asr #31
checked_div():
/rustc/3c235d5600393dfe6c36eeed34042efad8d4f26e/src/libcore/num/mod.rs:2562
  2e:	ea4c 0508 	orr.w	r5, ip, r8
  32:	ea4e 0706 	orr.w	r7, lr, r6
  36:	433d      	orrs	r5, r7
  38:	d021      	beq.n	7e <compiler_builtins::int::sdiv::rust_i128_div+0x7e>
div<i128>():
  3a:	17dd      	asrs	r5, r3, #31
bitxor():
/rustc/3c235d5600393dfe6c36eeed34042efad8d4f26e/src/libcore/ops/bit.rs:306
  3c:	4068      	eors	r0, r5
  3e:	4069      	eors	r1, r5
wrapping_sub():
/rustc/3c235d5600393dfe6c36eeed34042efad8d4f26e/src/libcore/num/mod.rs:1027
  40:	1b40      	subs	r0, r0, r5
div<i128>():
  42:	ea4f 74e4 	mov.w	r4, r4, asr #31
bitxor():
/rustc/3c235d5600393dfe6c36eeed34042efad8d4f26e/src/libcore/ops/bit.rs:306
  46:	ea82 0205 	eor.w	r2, r2, r5
wrapping_sub():
/rustc/3c235d5600393dfe6c36eeed34042efad8d4f26e/src/libcore/num/mod.rs:1027
  4a:	41a9      	sbcs	r1, r5
div<i128>():
  4c:	ea84 74e3 	eor.w	r4, r4, r3, asr #31
bitxor():
/rustc/3c235d5600393dfe6c36eeed34042efad8d4f26e/src/libcore/ops/bit.rs:306
  50:	ea83 0305 	eor.w	r3, r3, r5
wrapping_sub():
/rustc/3c235d5600393dfe6c36eeed34042efad8d4f26e/src/libcore/num/mod.rs:1027
  54:	41aa      	sbcs	r2, r5
  56:	41ab      	sbcs	r3, r5
checked_div():
/rustc/3c235d5600393dfe6c36eeed34042efad8d4f26e/src/libcore/num/mod.rs:2563
  58:	e9cd ce00 	strd	ip, lr, [sp]
  5c:	e9cd 8602 	strd	r8, r6, [sp, #8]
  60:	f7ff fffe 	bl	0 <compiler_builtins::int::sdiv::rust_i128_div>
bitxor():
/rustc/3c235d5600393dfe6c36eeed34042efad8d4f26e/src/libcore/ops/bit.rs:306
  64:	4060      	eors	r0, r4
  66:	4061      	eors	r1, r4
sub():
/rustc/3c235d5600393dfe6c36eeed34042efad8d4f26e/src/libcore/ops/arith.rs:198
  68:	1b00      	subs	r0, r0, r4
bitxor():
/rustc/3c235d5600393dfe6c36eeed34042efad8d4f26e/src/libcore/ops/bit.rs:306
  6a:	ea82 0204 	eor.w	r2, r2, r4
sub():
/rustc/3c235d5600393dfe6c36eeed34042efad8d4f26e/src/libcore/ops/arith.rs:198
  6e:	41a1      	sbcs	r1, r4
bitxor():
/rustc/3c235d5600393dfe6c36eeed34042efad8d4f26e/src/libcore/ops/bit.rs:306
  70:	ea83 0304 	eor.w	r3, r3, r4
sub():
/rustc/3c235d5600393dfe6c36eeed34042efad8d4f26e/src/libcore/ops/arith.rs:198
  74:	41a2      	sbcs	r2, r4
  76:	41a3      	sbcs	r3, r4
_ZN17compiler_builtins3int4sdiv13rust_i128_div17hba816bd7aff5f749E():
/cargo/registry/src/github.com-1ecc6299db9ec823/compiler_builtins-0.1.9/src/macros.rs:295
  78:	b004      	add	sp, #16
  7a:	e8bd 81f0 	ldmia.w	sp!, {r4, r5, r6, r7, r8, pc}
abort():
/cargo/registry/src/github.com-1ecc6299db9ec823/compiler_builtins-0.1.9/src/lib.rs:41
  7e:	defe      	udf	#254	; 0xfe
  80:	defe      	udf	#254	; 0xfe

Disassembly of section .text._ZN17compiler_builtins3int4sdiv13rust_i128_rem17hd7698bbb5a017427E:

00000000 <compiler_builtins::int::sdiv::rust_i128_rem>:
_ZN17compiler_builtins3int4sdiv13rust_i128_rem17hd7698bbb5a017427E():
/cargo/registry/src/github.com-1ecc6299db9ec823/compiler_builtins-0.1.9/src/macros.rs:293
   0:	b5f0      	push	{r4, r5, r6, r7, lr}
   2:	b085      	sub	sp, #20
   4:	9c0d      	ldr	r4, [sp, #52]	; 0x34
   6:	9e0a      	ldr	r6, [sp, #40]	; 0x28
   8:	eb16 76e4 	adds.w	r6, r6, r4, asr #31
   c:	ea86 7ce4 	eor.w	ip, r6, r4, asr #31
  10:	e9dd 560b 	ldrd	r5, r6, [sp, #44]	; 0x2c
  14:	eb55 75e4 	adcs.w	r5, r5, r4, asr #31
  18:	eb56 76e4 	adcs.w	r6, r6, r4, asr #31
  1c:	ea85 75e4 	eor.w	r5, r5, r4, asr #31
  20:	ea86 7ee4 	eor.w	lr, r6, r4, asr #31
  24:	eb44 76e4 	adc.w	r6, r4, r4, asr #31
  28:	ea86 76e4 	eor.w	r6, r6, r4, asr #31
checked_rem():
/rustc/3c235d5600393dfe6c36eeed34042efad8d4f26e/src/libcore/num/mod.rs:2608
  2c:	ea4c 070e 	orr.w	r7, ip, lr
  30:	ea45 0406 	orr.w	r4, r5, r6
  34:	433c      	orrs	r4, r7
  36:	d01c      	beq.n	72 <compiler_builtins::int::sdiv::rust_i128_rem+0x72>
mod_<i128>():
  38:	17dc      	asrs	r4, r3, #31
bitxor():
/rustc/3c235d5600393dfe6c36eeed34042efad8d4f26e/src/libcore/ops/bit.rs:306
  3a:	4060      	eors	r0, r4
  3c:	4061      	eors	r1, r4
wrapping_sub():
/rustc/3c235d5600393dfe6c36eeed34042efad8d4f26e/src/libcore/num/mod.rs:1027
  3e:	1b00      	subs	r0, r0, r4
bitxor():
/rustc/3c235d5600393dfe6c36eeed34042efad8d4f26e/src/libcore/ops/bit.rs:306
  40:	ea82 0204 	eor.w	r2, r2, r4
wrapping_sub():
/rustc/3c235d5600393dfe6c36eeed34042efad8d4f26e/src/libcore/num/mod.rs:1027
  44:	41a1      	sbcs	r1, r4
bitxor():
/rustc/3c235d5600393dfe6c36eeed34042efad8d4f26e/src/libcore/ops/bit.rs:306
  46:	ea83 0304 	eor.w	r3, r3, r4
wrapping_sub():
/rustc/3c235d5600393dfe6c36eeed34042efad8d4f26e/src/libcore/num/mod.rs:1027
  4a:	41a2      	sbcs	r2, r4
  4c:	41a3      	sbcs	r3, r4
checked_rem():
/rustc/3c235d5600393dfe6c36eeed34042efad8d4f26e/src/libcore/num/mod.rs:2611
  4e:	e9cd c500 	strd	ip, r5, [sp]
  52:	e9cd e602 	strd	lr, r6, [sp, #8]
  56:	f7ff fffe 	bl	0 <compiler_builtins::int::sdiv::rust_i128_rem>
bitxor():
/rustc/3c235d5600393dfe6c36eeed34042efad8d4f26e/src/libcore/ops/bit.rs:306
  5a:	4060      	eors	r0, r4
  5c:	4061      	eors	r1, r4
sub():
/rustc/3c235d5600393dfe6c36eeed34042efad8d4f26e/src/libcore/ops/arith.rs:198
  5e:	1b00      	subs	r0, r0, r4
bitxor():
/rustc/3c235d5600393dfe6c36eeed34042efad8d4f26e/src/libcore/ops/bit.rs:306
  60:	ea82 0204 	eor.w	r2, r2, r4
sub():
/rustc/3c235d5600393dfe6c36eeed34042efad8d4f26e/src/libcore/ops/arith.rs:198
  64:	41a1      	sbcs	r1, r4
bitxor():
/rustc/3c235d5600393dfe6c36eeed34042efad8d4f26e/src/libcore/ops/bit.rs:306
  66:	ea83 0304 	eor.w	r3, r3, r4
sub():
/rustc/3c235d5600393dfe6c36eeed34042efad8d4f26e/src/libcore/ops/arith.rs:198
  6a:	41a2      	sbcs	r2, r4
  6c:	41a3      	sbcs	r3, r4
_ZN17compiler_builtins3int4sdiv13rust_i128_rem17hd7698bbb5a017427E():
/cargo/registry/src/github.com-1ecc6299db9ec823/compiler_builtins-0.1.9/src/macros.rs:295
  6e:	b005      	add	sp, #20
  70:	bdf0      	pop	{r4, r5, r6, r7, pc}
abort():
/cargo/registry/src/github.com-1ecc6299db9ec823/compiler_builtins-0.1.9/src/lib.rs:41
  72:	defe      	udf	#254	; 0xfe
  74:	defe      	udf	#254	; 0xfe

Disassembly of section .text.__ashldi3:

00000000 <__ashldi3>:
__ashldi3():
/cargo/registry/src/github.com-1ecc6299db9ec823/compiler_builtins-0.1.9/src/int/shift.rs:9
   0:	0693      	lsls	r3, r2, #26
shl():
/rustc/3c235d5600393dfe6c36eeed34042efad8d4f26e/src/libcore/ops/bit.rs:396
   2:	bf41      	itttt	mi
   4:	f002 011f 	andmi.w	r1, r2, #31
   8:	fa00 f101 	lslmi.w	r1, r0, r1
   c:	2000      	movmi	r0, #0
__ashldi3():
/cargo/registry/src/github.com-1ecc6299db9ec823/compiler_builtins-0.1.9/src/macros.rs:216
   e:	4770      	bxmi	lr
/cargo/registry/src/github.com-1ecc6299db9ec823/compiler_builtins-0.1.9/src/int/shift.rs:11
  10:	2a00      	cmp	r2, #0
/cargo/registry/src/github.com-1ecc6299db9ec823/compiler_builtins-0.1.9/src/macros.rs:216
  12:	bf08      	it	eq
  14:	4770      	bxeq	lr
shl():
/rustc/3c235d5600393dfe6c36eeed34042efad8d4f26e/src/libcore/ops/bit.rs:396
  16:	f002 031f 	and.w	r3, r2, #31
__ashldi3():
/cargo/registry/src/github.com-1ecc6299db9ec823/compiler_builtins-0.1.9/src/int/shift.rs:16
  1a:	4252      	negs	r2, r2
shr():
/rustc/3c235d5600393dfe6c36eeed34042efad8d4f26e/src/libcore/ops/bit.rs:505
  1c:	f002 021f 	and.w	r2, r2, #31
shl():
/rustc/3c235d5600393dfe6c36eeed34042efad8d4f26e/src/libcore/ops/bit.rs:396
  20:	4099      	lsls	r1, r3
shr():
/rustc/3c235d5600393dfe6c36eeed34042efad8d4f26e/src/libcore/ops/bit.rs:505
  22:	fa20 f202 	lsr.w	r2, r0, r2
bitor():
/rustc/3c235d5600393dfe6c36eeed34042efad8d4f26e/src/libcore/ops/bit.rs:219
  26:	4311      	orrs	r1, r2
shl():
/rustc/3c235d5600393dfe6c36eeed34042efad8d4f26e/src/libcore/ops/bit.rs:396
  28:	4098      	lsls	r0, r3
__ashldi3():
/cargo/registry/src/github.com-1ecc6299db9ec823/compiler_builtins-0.1.9/src/macros.rs:216
  2a:	4770      	bx	lr

Disassembly of section .text.__aeabi_llsl:

00000000 <__aeabi_llsl>:
__aeabi_llsl():
/cargo/registry/src/github.com-1ecc6299db9ec823/compiler_builtins-0.1.9/src/int/shift.rs:9
   0:	0693      	lsls	r3, r2, #26
shl():
/rustc/3c235d5600393dfe6c36eeed34042efad8d4f26e/src/libcore/ops/bit.rs:396
   2:	bf41      	itttt	mi
   4:	f002 011f 	andmi.w	r1, r2, #31
   8:	fa00 f101 	lslmi.w	r1, r0, r1
   c:	2000      	movmi	r0, #0
__aeabi_llsl():
/cargo/registry/src/github.com-1ecc6299db9ec823/compiler_builtins-0.1.9/src/macros.rs:256
   e:	4770      	bxmi	lr
/cargo/registry/src/github.com-1ecc6299db9ec823/compiler_builtins-0.1.9/src/int/shift.rs:11
  10:	2a00      	cmp	r2, #0
/cargo/registry/src/github.com-1ecc6299db9ec823/compiler_builtins-0.1.9/src/macros.rs:256
  12:	bf08      	it	eq
  14:	4770      	bxeq	lr
shl():
/rustc/3c235d5600393dfe6c36eeed34042efad8d4f26e/src/libcore/ops/bit.rs:396
  16:	f002 031f 	and.w	r3, r2, #31
__aeabi_llsl():
/cargo/registry/src/github.com-1ecc6299db9ec823/compiler_builtins-0.1.9/src/int/shift.rs:16
  1a:	4252      	negs	r2, r2
shr():
/rustc/3c235d5600393dfe6c36eeed34042efad8d4f26e/src/libcore/ops/bit.rs:505
  1c:	f002 021f 	and.w	r2, r2, #31
shl():
/rustc/3c235d5600393dfe6c36eeed34042efad8d4f26e/src/libcore/ops/bit.rs:396
  20:	4099      	lsls	r1, r3
shr():
/rustc/3c235d5600393dfe6c36eeed34042efad8d4f26e/src/libcore/ops/bit.rs:505
  22:	fa20 f202 	lsr.w	r2, r0, r2
bitor():
/rustc/3c235d5600393dfe6c36eeed34042efad8d4f26e/src/libcore/ops/bit.rs:219
  26:	4311      	orrs	r1, r2
shl():
/rustc/3c235d5600393dfe6c36eeed34042efad8d4f26e/src/libcore/ops/bit.rs:396
  28:	4098      	lsls	r0, r3
__aeabi_llsl():
/cargo/registry/src/github.com-1ecc6299db9ec823/compiler_builtins-0.1.9/src/macros.rs:256
  2a:	4770      	bx	lr

Disassembly of section .text.__ashrdi3:

00000000 <__ashrdi3>:
__ashrdi3():
/cargo/registry/src/github.com-1ecc6299db9ec823/compiler_builtins-0.1.9/src/int/shift.rs:30
   0:	0693      	lsls	r3, r2, #26
shr():
/rustc/3c235d5600393dfe6c36eeed34042efad8d4f26e/src/libcore/ops/bit.rs:505
   2:	bf41      	itttt	mi
   4:	f002 001f 	andmi.w	r0, r2, #31
   8:	fa41 f000 	asrmi.w	r0, r1, r0
   c:	17c9      	asrmi	r1, r1, #31
__ashrdi3():
/cargo/registry/src/github.com-1ecc6299db9ec823/compiler_builtins-0.1.9/src/macros.rs:216
   e:	4770      	bxmi	lr
/cargo/registry/src/github.com-1ecc6299db9ec823/compiler_builtins-0.1.9/src/int/shift.rs:33
  10:	2a00      	cmp	r2, #0
/cargo/registry/src/github.com-1ecc6299db9ec823/compiler_builtins-0.1.9/src/macros.rs:216
  12:	bf08      	it	eq
  14:	4770      	bxeq	lr
shr():
/rustc/3c235d5600393dfe6c36eeed34042efad8d4f26e/src/libcore/ops/bit.rs:505
  16:	f002 031f 	and.w	r3, r2, #31
__ashrdi3():
/cargo/registry/src/github.com-1ecc6299db9ec823/compiler_builtins-0.1.9/src/int/shift.rs:37
  1a:	4252      	negs	r2, r2
shl():
/rustc/3c235d5600393dfe6c36eeed34042efad8d4f26e/src/libcore/ops/bit.rs:396
  1c:	f002 021f 	and.w	r2, r2, #31
shr():
/rustc/3c235d5600393dfe6c36eeed34042efad8d4f26e/src/libcore/ops/bit.rs:505
  20:	40d8      	lsrs	r0, r3
shl():
/rustc/3c235d5600393dfe6c36eeed34042efad8d4f26e/src/libcore/ops/bit.rs:396
  22:	fa01 f202 	lsl.w	r2, r1, r2
bitor():
/rustc/3c235d5600393dfe6c36eeed34042efad8d4f26e/src/libcore/ops/bit.rs:219
  26:	4310      	orrs	r0, r2
shr():
/rustc/3c235d5600393dfe6c36eeed34042efad8d4f26e/src/libcore/ops/bit.rs:505
  28:	4119      	asrs	r1, r3
__ashrdi3():
/cargo/registry/src/github.com-1ecc6299db9ec823/compiler_builtins-0.1.9/src/macros.rs:216
  2a:	4770      	bx	lr

Disassembly of section .text.__aeabi_lasr:

00000000 <__aeabi_lasr>:
__aeabi_lasr():
/cargo/registry/src/github.com-1ecc6299db9ec823/compiler_builtins-0.1.9/src/int/shift.rs:30
   0:	0693      	lsls	r3, r2, #26
shr():
/rustc/3c235d5600393dfe6c36eeed34042efad8d4f26e/src/libcore/ops/bit.rs:505
   2:	bf41      	itttt	mi
   4:	f002 001f 	andmi.w	r0, r2, #31
   8:	fa41 f000 	asrmi.w	r0, r1, r0
   c:	17c9      	asrmi	r1, r1, #31
__aeabi_lasr():
/cargo/registry/src/github.com-1ecc6299db9ec823/compiler_builtins-0.1.9/src/macros.rs:256
   e:	4770      	bxmi	lr
/cargo/registry/src/github.com-1ecc6299db9ec823/compiler_builtins-0.1.9/src/int/shift.rs:33
  10:	2a00      	cmp	r2, #0
/cargo/registry/src/github.com-1ecc6299db9ec823/compiler_builtins-0.1.9/src/macros.rs:256
  12:	bf08      	it	eq
  14:	4770      	bxeq	lr
shr():
/rustc/3c235d5600393dfe6c36eeed34042efad8d4f26e/src/libcore/ops/bit.rs:505
  16:	f002 031f 	and.w	r3, r2, #31
__aeabi_lasr():
/cargo/registry/src/github.com-1ecc6299db9ec823/compiler_builtins-0.1.9/src/int/shift.rs:37
  1a:	4252      	negs	r2, r2
shl():
/rustc/3c235d5600393dfe6c36eeed34042efad8d4f26e/src/libcore/ops/bit.rs:396
  1c:	f002 021f 	and.w	r2, r2, #31
shr():
/rustc/3c235d5600393dfe6c36eeed34042efad8d4f26e/src/libcore/ops/bit.rs:505
  20:	40d8      	lsrs	r0, r3
shl():
/rustc/3c235d5600393dfe6c36eeed34042efad8d4f26e/src/libcore/ops/bit.rs:396
  22:	fa01 f202 	lsl.w	r2, r1, r2
bitor():
/rustc/3c235d5600393dfe6c36eeed34042efad8d4f26e/src/libcore/ops/bit.rs:219
  26:	4310      	orrs	r0, r2
shr():
/rustc/3c235d5600393dfe6c36eeed34042efad8d4f26e/src/libcore/ops/bit.rs:505
  28:	4119      	asrs	r1, r3
__aeabi_lasr():
/cargo/registry/src/github.com-1ecc6299db9ec823/compiler_builtins-0.1.9/src/macros.rs:256
  2a:	4770      	bx	lr

Disassembly of section .text.__lshrdi3:

00000000 <__lshrdi3>:
__lshrdi3():
/cargo/registry/src/github.com-1ecc6299db9ec823/compiler_builtins-0.1.9/src/int/shift.rs:52
   0:	0693      	lsls	r3, r2, #26
shr():
/rustc/3c235d5600393dfe6c36eeed34042efad8d4f26e/src/libcore/ops/bit.rs:505
   2:	bf41      	itttt	mi
   4:	f002 001f 	andmi.w	r0, r2, #31
   8:	fa21 f000 	lsrmi.w	r0, r1, r0
   c:	2100      	movmi	r1, #0
__lshrdi3():
/cargo/registry/src/github.com-1ecc6299db9ec823/compiler_builtins-0.1.9/src/macros.rs:216
   e:	4770      	bxmi	lr
/cargo/registry/src/github.com-1ecc6299db9ec823/compiler_builtins-0.1.9/src/int/shift.rs:54
  10:	2a00      	cmp	r2, #0
/cargo/registry/src/github.com-1ecc6299db9ec823/compiler_builtins-0.1.9/src/macros.rs:216
  12:	bf08      	it	eq
  14:	4770      	bxeq	lr
shr():
/rustc/3c235d5600393dfe6c36eeed34042efad8d4f26e/src/libcore/ops/bit.rs:505
  16:	f002 031f 	and.w	r3, r2, #31
__lshrdi3():
/cargo/registry/src/github.com-1ecc6299db9ec823/compiler_builtins-0.1.9/src/int/shift.rs:57
  1a:	4252      	negs	r2, r2
shl():
/rustc/3c235d5600393dfe6c36eeed34042efad8d4f26e/src/libcore/ops/bit.rs:396
  1c:	f002 021f 	and.w	r2, r2, #31
shr():
/rustc/3c235d5600393dfe6c36eeed34042efad8d4f26e/src/libcore/ops/bit.rs:505
  20:	40d8      	lsrs	r0, r3
shl():
/rustc/3c235d5600393dfe6c36eeed34042efad8d4f26e/src/libcore/ops/bit.rs:396
  22:	fa01 f202 	lsl.w	r2, r1, r2
bitor():
/rustc/3c235d5600393dfe6c36eeed34042efad8d4f26e/src/libcore/ops/bit.rs:219
  26:	4310      	orrs	r0, r2
shr():
/rustc/3c235d5600393dfe6c36eeed34042efad8d4f26e/src/libcore/ops/bit.rs:505
  28:	40d9      	lsrs	r1, r3
__lshrdi3():
/cargo/registry/src/github.com-1ecc6299db9ec823/compiler_builtins-0.1.9/src/macros.rs:216
  2a:	4770      	bx	lr

Disassembly of section .text.__aeabi_llsr:

00000000 <__aeabi_llsr>:
__aeabi_llsr():
/cargo/registry/src/github.com-1ecc6299db9ec823/compiler_builtins-0.1.9/src/int/shift.rs:52
   0:	0693      	lsls	r3, r2, #26
shr():
/rustc/3c235d5600393dfe6c36eeed34042efad8d4f26e/src/libcore/ops/bit.rs:505
   2:	bf41      	itttt	mi
   4:	f002 001f 	andmi.w	r0, r2, #31
   8:	fa21 f000 	lsrmi.w	r0, r1, r0
   c:	2100      	movmi	r1, #0
__aeabi_llsr():
/cargo/registry/src/github.com-1ecc6299db9ec823/compiler_builtins-0.1.9/src/macros.rs:256
   e:	4770      	bxmi	lr
/cargo/registry/src/github.com-1ecc6299db9ec823/compiler_builtins-0.1.9/src/int/shift.rs:54
  10:	2a00      	cmp	r2, #0
/cargo/registry/src/github.com-1ecc6299db9ec823/compiler_builtins-0.1.9/src/macros.rs:256
  12:	bf08      	it	eq
  14:	4770      	bxeq	lr
shr():
/rustc/3c235d5600393dfe6c36eeed34042efad8d4f26e/src/libcore/ops/bit.rs:505
  16:	f002 031f 	and.w	r3, r2, #31
__aeabi_llsr():
/cargo/registry/src/github.com-1ecc6299db9ec823/compiler_builtins-0.1.9/src/int/shift.rs:57
  1a:	4252      	negs	r2, r2
shl():
/rustc/3c235d5600393dfe6c36eeed34042efad8d4f26e/src/libcore/ops/bit.rs:396
  1c:	f002 021f 	and.w	r2, r2, #31
shr():
/rustc/3c235d5600393dfe6c36eeed34042efad8d4f26e/src/libcore/ops/bit.rs:505
  20:	40d8      	lsrs	r0, r3
shl():
/rustc/3c235d5600393dfe6c36eeed34042efad8d4f26e/src/libcore/ops/bit.rs:396
  22:	fa01 f202 	lsl.w	r2, r1, r2
bitor():
/rustc/3c235d5600393dfe6c36eeed34042efad8d4f26e/src/libcore/ops/bit.rs:219
  26:	4310      	orrs	r0, r2
shr():
/rustc/3c235d5600393dfe6c36eeed34042efad8d4f26e/src/libcore/ops/bit.rs:505
  28:	40d9      	lsrs	r1, r3
__aeabi_llsr():
/cargo/registry/src/github.com-1ecc6299db9ec823/compiler_builtins-0.1.9/src/macros.rs:256
  2a:	4770      	bx	lr

Disassembly of section .text._ZN17compiler_builtins3int5shift13rust_i128_shl17hb3618dc516d362bfE:

00000000 <compiler_builtins::int::shift::rust_i128_shl>:
_ZN17compiler_builtins3int5shift13rust_i128_shl17hb3618dc516d362bfE():
/cargo/registry/src/github.com-1ecc6299db9ec823/compiler_builtins-0.1.9/src/macros.rs:293
   0:	b5f0      	push	{r4, r5, r6, r7, lr}
   2:	9d05      	ldr	r5, [sp, #20]
ashl<u128>():
/cargo/registry/src/github.com-1ecc6299db9ec823/compiler_builtins-0.1.9/src/int/shift.rs:9
   4:	066c      	lsls	r4, r5, #25
   6:	d43d      	bmi.n	84 <compiler_builtins::int::shift::rust_i128_shl+0x84>
/cargo/registry/src/github.com-1ecc6299db9ec823/compiler_builtins-0.1.9/src/int/shift.rs:11
   8:	b3dd      	cbz	r5, 82 <compiler_builtins::int::shift::rust_i128_shl+0x82>
shl():
/rustc/3c235d5600393dfe6c36eeed34042efad8d4f26e/src/libcore/ops/bit.rs:396
   a:	f005 0e3f 	and.w	lr, r5, #63	; 0x3f
ashl<u128>():
/cargo/registry/src/github.com-1ecc6299db9ec823/compiler_builtins-0.1.9/src/int/shift.rs:16
   e:	426d      	negs	r5, r5
shl():
/rustc/3c235d5600393dfe6c36eeed34042efad8d4f26e/src/libcore/ops/bit.rs:396
  10:	f1ce 0620 	rsb	r6, lr, #32
shr():
/rustc/3c235d5600393dfe6c36eeed34042efad8d4f26e/src/libcore/ops/bit.rs:505
  14:	f005 053f 	and.w	r5, r5, #63	; 0x3f
shl():
/rustc/3c235d5600393dfe6c36eeed34042efad8d4f26e/src/libcore/ops/bit.rs:396
  18:	fa01 fc0e 	lsl.w	ip, r1, lr
  1c:	fa03 f30e 	lsl.w	r3, r3, lr
  20:	fa20 f406 	lsr.w	r4, r0, r6
  24:	ea4c 0c04 	orr.w	ip, ip, r4
  28:	f1ae 0420 	sub.w	r4, lr, #32
  2c:	fa22 f606 	lsr.w	r6, r2, r6
  30:	2c00      	cmp	r4, #0
  32:	bfa8      	it	ge
  34:	fa00 fc04 	lslge.w	ip, r0, r4
  38:	4333      	orrs	r3, r6
  3a:	2c00      	cmp	r4, #0
shr():
/rustc/3c235d5600393dfe6c36eeed34042efad8d4f26e/src/libcore/ops/bit.rs:505
  3c:	fa21 f605 	lsr.w	r6, r1, r5
  40:	f1a5 0720 	sub.w	r7, r5, #32
shl():
/rustc/3c235d5600393dfe6c36eeed34042efad8d4f26e/src/libcore/ops/bit.rs:396
  44:	bfa8      	it	ge
  46:	fa02 f304 	lslge.w	r3, r2, r4
shr():
/rustc/3c235d5600393dfe6c36eeed34042efad8d4f26e/src/libcore/ops/bit.rs:505
  4a:	2f00      	cmp	r7, #0
  4c:	bfa8      	it	ge
  4e:	2600      	movge	r6, #0
bitor():
/rustc/3c235d5600393dfe6c36eeed34042efad8d4f26e/src/libcore/ops/bit.rs:219
  50:	4333      	orrs	r3, r6
shr():
/rustc/3c235d5600393dfe6c36eeed34042efad8d4f26e/src/libcore/ops/bit.rs:505
  52:	fa20 f605 	lsr.w	r6, r0, r5
  56:	f1c5 0520 	rsb	r5, r5, #32
  5a:	2f00      	cmp	r7, #0
shl():
/rustc/3c235d5600393dfe6c36eeed34042efad8d4f26e/src/libcore/ops/bit.rs:396
  5c:	fa00 f00e 	lsl.w	r0, r0, lr
shr():
/rustc/3c235d5600393dfe6c36eeed34042efad8d4f26e/src/libcore/ops/bit.rs:505
  60:	fa01 f505 	lsl.w	r5, r1, r5
  64:	ea45 0506 	orr.w	r5, r5, r6
  68:	bfa8      	it	ge
  6a:	fa21 f507 	lsrge.w	r5, r1, r7
shl():
/rustc/3c235d5600393dfe6c36eeed34042efad8d4f26e/src/libcore/ops/bit.rs:396
  6e:	fa02 f10e 	lsl.w	r1, r2, lr
  72:	2c00      	cmp	r4, #0
  74:	bfa8      	it	ge
  76:	2100      	movge	r1, #0
bitor():
/rustc/3c235d5600393dfe6c36eeed34042efad8d4f26e/src/libcore/ops/bit.rs:219
  78:	ea45 0201 	orr.w	r2, r5, r1
ashl<u128>():
  7c:	4661      	mov	r1, ip
shl():
/rustc/3c235d5600393dfe6c36eeed34042efad8d4f26e/src/libcore/ops/bit.rs:396
  7e:	bfa8      	it	ge
  80:	2000      	movge	r0, #0
_ZN17compiler_builtins3int5shift13rust_i128_shl17hb3618dc516d362bfE():
/cargo/registry/src/github.com-1ecc6299db9ec823/compiler_builtins-0.1.9/src/macros.rs:295
  82:	bdf0      	pop	{r4, r5, r6, r7, pc}
shl():
/rustc/3c235d5600393dfe6c36eeed34042efad8d4f26e/src/libcore/ops/bit.rs:396
  84:	f005 023f 	and.w	r2, r5, #63	; 0x3f
  88:	f1c2 0320 	rsb	r3, r2, #32
  8c:	4091      	lsls	r1, r2
  8e:	fa20 f303 	lsr.w	r3, r0, r3
  92:	430b      	orrs	r3, r1
  94:	f1a2 0120 	sub.w	r1, r2, #32
  98:	2900      	cmp	r1, #0
  9a:	bfa8      	it	ge
  9c:	fa00 f301 	lslge.w	r3, r0, r1
  a0:	fa00 f202 	lsl.w	r2, r0, r2
  a4:	f04f 0000 	mov.w	r0, #0
ashl<u128>():
  a8:	f04f 0100 	mov.w	r1, #0
shl():
/rustc/3c235d5600393dfe6c36eeed34042efad8d4f26e/src/libcore/ops/bit.rs:396
  ac:	bfa8      	it	ge
  ae:	2200      	movge	r2, #0
_ZN17compiler_builtins3int5shift13rust_i128_shl17hb3618dc516d362bfE():
/cargo/registry/src/github.com-1ecc6299db9ec823/compiler_builtins-0.1.9/src/macros.rs:295
  b0:	bdf0      	pop	{r4, r5, r6, r7, pc}

Disassembly of section .text._ZN17compiler_builtins3int5shift14rust_i128_shlo17hd92352339c832a35E:

00000000 <compiler_builtins::int::shift::rust_i128_shlo>:
_ZN17compiler_builtins3int5shift14rust_i128_shlo17hd92352339c832a35E():
/cargo/registry/src/github.com-1ecc6299db9ec823/compiler_builtins-0.1.9/src/macros.rs:293
   0:	e92d 4ff0 	stmdb	sp!, {r4, r5, r6, r7, r8, r9, sl, fp, lr}
   4:	b081      	sub	sp, #4
   6:	f8dd 9030 	ldr.w	r9, [sp, #48]	; 0x30
   a:	f10d 0c34 	add.w	ip, sp, #52	; 0x34
ashl<u128>():
/cargo/registry/src/github.com-1ecc6299db9ec823/compiler_builtins-0.1.9/src/int/shift.rs:9
   e:	ea5f 6749 	movs.w	r7, r9, lsl #25
  12:	e89c 1180 	ldmia.w	ip, {r7, r8, ip}
  16:	d448      	bmi.n	aa <compiler_builtins::int::shift::rust_i128_shlo+0xaa>
  18:	e9dd 560a 	ldrd	r5, r6, [sp, #40]	; 0x28
/cargo/registry/src/github.com-1ecc6299db9ec823/compiler_builtins-0.1.9/src/int/shift.rs:11
  1c:	f1b9 0f00 	cmp.w	r9, #0
  20:	d058      	beq.n	d4 <compiler_builtins::int::shift::rust_i128_shlo+0xd4>
shl():
/rustc/3c235d5600393dfe6c36eeed34042efad8d4f26e/src/libcore/ops/bit.rs:396
  22:	f009 043f 	and.w	r4, r9, #63	; 0x3f
  26:	46e6      	mov	lr, ip
  28:	f1c4 0120 	rsb	r1, r4, #32
  2c:	40a6      	lsls	r6, r4
  2e:	fa03 fa04 	lsl.w	sl, r3, r4
  32:	fa22 f701 	lsr.w	r7, r2, r1
  36:	fa25 f101 	lsr.w	r1, r5, r1
  3a:	ea41 0b06 	orr.w	fp, r1, r6
ashl<u128>():
/cargo/registry/src/github.com-1ecc6299db9ec823/compiler_builtins-0.1.9/src/int/shift.rs:16
  3e:	f1c9 0600 	rsb	r6, r9, #0
shr():
/rustc/3c235d5600393dfe6c36eeed34042efad8d4f26e/src/libcore/ops/bit.rs:505
  42:	f006 013f 	and.w	r1, r6, #63	; 0x3f
shl():
/rustc/3c235d5600393dfe6c36eeed34042efad8d4f26e/src/libcore/ops/bit.rs:396
  46:	ea4a 0a07 	orr.w	sl, sl, r7
  4a:	f1a4 0720 	sub.w	r7, r4, #32
shr():
/rustc/3c235d5600393dfe6c36eeed34042efad8d4f26e/src/libcore/ops/bit.rs:505
  4e:	f1a1 0c20 	sub.w	ip, r1, #32
shl():
/rustc/3c235d5600393dfe6c36eeed34042efad8d4f26e/src/libcore/ops/bit.rs:396
  52:	2f00      	cmp	r7, #0
  54:	bfa8      	it	ge
  56:	fa02 fa07 	lslge.w	sl, r2, r7
  5a:	2f00      	cmp	r7, #0
shr():
/rustc/3c235d5600393dfe6c36eeed34042efad8d4f26e/src/libcore/ops/bit.rs:505
  5c:	fa23 f601 	lsr.w	r6, r3, r1
shl():
/rustc/3c235d5600393dfe6c36eeed34042efad8d4f26e/src/libcore/ops/bit.rs:396
  60:	bfa8      	it	ge
  62:	fa05 fb07 	lslge.w	fp, r5, r7
shr():
/rustc/3c235d5600393dfe6c36eeed34042efad8d4f26e/src/libcore/ops/bit.rs:505
  66:	f1bc 0f00 	cmp.w	ip, #0
  6a:	bfa8      	it	ge
  6c:	2600      	movge	r6, #0
  6e:	f1bc 0f00 	cmp.w	ip, #0
bitor():
/rustc/3c235d5600393dfe6c36eeed34042efad8d4f26e/src/libcore/ops/bit.rs:219
  72:	ea46 060b 	orr.w	r6, r6, fp
shr():
/rustc/3c235d5600393dfe6c36eeed34042efad8d4f26e/src/libcore/ops/bit.rs:505
  76:	fa22 fb01 	lsr.w	fp, r2, r1
  7a:	f1c1 0120 	rsb	r1, r1, #32
shl():
/rustc/3c235d5600393dfe6c36eeed34042efad8d4f26e/src/libcore/ops/bit.rs:396
  7e:	fa02 f204 	lsl.w	r2, r2, r4
shr():
/rustc/3c235d5600393dfe6c36eeed34042efad8d4f26e/src/libcore/ops/bit.rs:505
  82:	fa03 f101 	lsl.w	r1, r3, r1
  86:	ea41 010b 	orr.w	r1, r1, fp
  8a:	bfa8      	it	ge
  8c:	fa23 f10c 	lsrge.w	r1, r3, ip
shl():
/rustc/3c235d5600393dfe6c36eeed34042efad8d4f26e/src/libcore/ops/bit.rs:396
  90:	2f00      	cmp	r7, #0
  92:	fa05 f304 	lsl.w	r3, r5, r4
  96:	9f0d      	ldr	r7, [sp, #52]	; 0x34
  98:	bfa8      	it	ge
  9a:	2300      	movge	r3, #0
bitor():
/rustc/3c235d5600393dfe6c36eeed34042efad8d4f26e/src/libcore/ops/bit.rs:219
  9c:	ea41 0503 	orr.w	r5, r1, r3
  a0:	46f4      	mov	ip, lr
ashl<u128>():
  a2:	4653      	mov	r3, sl
shl():
/rustc/3c235d5600393dfe6c36eeed34042efad8d4f26e/src/libcore/ops/bit.rs:396
  a4:	bfa8      	it	ge
  a6:	2200      	movge	r2, #0
  a8:	e014      	b.n	d4 <compiler_builtins::int::shift::rust_i128_shlo+0xd4>
  aa:	f009 043f 	and.w	r4, r9, #63	; 0x3f
  ae:	f1c4 0520 	rsb	r5, r4, #32
  b2:	40a3      	lsls	r3, r4
  b4:	fa22 f505 	lsr.w	r5, r2, r5
  b8:	ea45 0603 	orr.w	r6, r5, r3
  bc:	f1a4 0320 	sub.w	r3, r4, #32
  c0:	fa02 f504 	lsl.w	r5, r2, r4
  c4:	2b00      	cmp	r3, #0
  c6:	bfa8      	it	ge
  c8:	fa02 f603 	lslge.w	r6, r2, r3
  cc:	bfa8      	it	ge
  ce:	2500      	movge	r5, #0
  d0:	2200      	movs	r2, #0
ashl<u128>():
  d2:	2300      	movs	r3, #0
_ZN17compiler_builtins3int5shift14rust_i128_shlo17hd92352339c832a35E():
/cargo/registry/src/github.com-1ecc6299db9ec823/compiler_builtins-0.1.9/src/macros.rs:295
  d4:	e880 006c 	stmia.w	r0, {r2, r3, r5, r6}
/cargo/registry/src/github.com-1ecc6299db9ec823/compiler_builtins-0.1.9/src/int/shift.rs:106
  d8:	f1d9 027f 	rsbs	r2, r9, #127	; 0x7f
  dc:	f04f 0100 	mov.w	r1, #0
  e0:	eb71 0207 	sbcs.w	r2, r1, r7
  e4:	eb71 0208 	sbcs.w	r2, r1, r8
  e8:	eb71 020c 	sbcs.w	r2, r1, ip
  ec:	bf38      	it	cc
  ee:	2101      	movcc	r1, #1
/cargo/registry/src/github.com-1ecc6299db9ec823/compiler_builtins-0.1.9/src/macros.rs:295
  f0:	7401      	strb	r1, [r0, #16]
  f2:	b001      	add	sp, #4
  f4:	e8bd 8ff0 	ldmia.w	sp!, {r4, r5, r6, r7, r8, r9, sl, fp, pc}

Disassembly of section .text._ZN17compiler_builtins3int5shift13rust_i128_shr17h3a8269e86e1552deE:

00000000 <compiler_builtins::int::shift::rust_i128_shr>:
_ZN17compiler_builtins3int5shift13rust_i128_shr17h3a8269e86e1552deE():
/cargo/registry/src/github.com-1ecc6299db9ec823/compiler_builtins-0.1.9/src/macros.rs:293
   0:	b5f0      	push	{r4, r5, r6, r7, lr}
   2:	9d05      	ldr	r5, [sp, #20]
ashr<i128>():
/cargo/registry/src/github.com-1ecc6299db9ec823/compiler_builtins-0.1.9/src/int/shift.rs:30
   4:	066c      	lsls	r4, r5, #25
   6:	d43e      	bmi.n	86 <compiler_builtins::int::shift::rust_i128_shr+0x86>
/cargo/registry/src/github.com-1ecc6299db9ec823/compiler_builtins-0.1.9/src/int/shift.rs:33
   8:	b3e5      	cbz	r5, 84 <compiler_builtins::int::shift::rust_i128_shr+0x84>
shr():
/rustc/3c235d5600393dfe6c36eeed34042efad8d4f26e/src/libcore/ops/bit.rs:505
   a:	f005 0e3f 	and.w	lr, r5, #63	; 0x3f
ashr<i128>():
/cargo/registry/src/github.com-1ecc6299db9ec823/compiler_builtins-0.1.9/src/int/shift.rs:37
   e:	426d      	negs	r5, r5
shr():
/rustc/3c235d5600393dfe6c36eeed34042efad8d4f26e/src/libcore/ops/bit.rs:505
  10:	f1ce 0620 	rsb	r6, lr, #32
shl():
/rustc/3c235d5600393dfe6c36eeed34042efad8d4f26e/src/libcore/ops/bit.rs:396
  14:	f005 053f 	and.w	r5, r5, #63	; 0x3f
shr():
/rustc/3c235d5600393dfe6c36eeed34042efad8d4f26e/src/libcore/ops/bit.rs:505
  18:	fa22 fc0e 	lsr.w	ip, r2, lr
  1c:	fa20 f00e 	lsr.w	r0, r0, lr
  20:	fa03 f406 	lsl.w	r4, r3, r6
  24:	ea4c 0c04 	orr.w	ip, ip, r4
  28:	f1ae 0420 	sub.w	r4, lr, #32
  2c:	fa01 f606 	lsl.w	r6, r1, r6
  30:	2c00      	cmp	r4, #0
  32:	bfa8      	it	ge
  34:	fa43 fc04 	asrge.w	ip, r3, r4
  38:	4330      	orrs	r0, r6
  3a:	2c00      	cmp	r4, #0
shl():
/rustc/3c235d5600393dfe6c36eeed34042efad8d4f26e/src/libcore/ops/bit.rs:396
  3c:	fa02 f605 	lsl.w	r6, r2, r5
  40:	f1a5 0720 	sub.w	r7, r5, #32
shr():
/rustc/3c235d5600393dfe6c36eeed34042efad8d4f26e/src/libcore/ops/bit.rs:505
  44:	bfa8      	it	ge
  46:	fa21 f004 	lsrge.w	r0, r1, r4
shl():
/rustc/3c235d5600393dfe6c36eeed34042efad8d4f26e/src/libcore/ops/bit.rs:396
  4a:	2f00      	cmp	r7, #0
  4c:	bfa8      	it	ge
  4e:	2600      	movge	r6, #0
bitor():
/rustc/3c235d5600393dfe6c36eeed34042efad8d4f26e/src/libcore/ops/bit.rs:219
  50:	4330      	orrs	r0, r6
shl():
/rustc/3c235d5600393dfe6c36eeed34042efad8d4f26e/src/libcore/ops/bit.rs:396
  52:	fa03 f605 	lsl.w	r6, r3, r5
  56:	f1c5 0520 	rsb	r5, r5, #32
  5a:	2f00      	cmp	r7, #0
shr():
/rustc/3c235d5600393dfe6c36eeed34042efad8d4f26e/src/libcore/ops/bit.rs:505
  5c:	fa21 f10e 	lsr.w	r1, r1, lr
shl():
/rustc/3c235d5600393dfe6c36eeed34042efad8d4f26e/src/libcore/ops/bit.rs:396
  60:	fa22 f505 	lsr.w	r5, r2, r5
  64:	ea45 0506 	orr.w	r5, r5, r6
  68:	bfa8      	it	ge
  6a:	fa02 f507 	lslge.w	r5, r2, r7
shr():
/rustc/3c235d5600393dfe6c36eeed34042efad8d4f26e/src/libcore/ops/bit.rs:505
  6e:	2c00      	cmp	r4, #0
  70:	bfa8      	it	ge
  72:	2100      	movge	r1, #0
  74:	fa43 f70e 	asr.w	r7, r3, lr
bitor():
/rustc/3c235d5600393dfe6c36eeed34042efad8d4f26e/src/libcore/ops/bit.rs:219
  78:	ea41 0105 	orr.w	r1, r1, r5
shr():
/rustc/3c235d5600393dfe6c36eeed34042efad8d4f26e/src/libcore/ops/bit.rs:505
  7c:	bfa8      	it	ge
  7e:	17df      	asrge	r7, r3, #31
ashr<i128>():
  80:	4662      	mov	r2, ip
  82:	463b      	mov	r3, r7
_ZN17compiler_builtins3int5shift13rust_i128_shr17h3a8269e86e1552deE():
/cargo/registry/src/github.com-1ecc6299db9ec823/compiler_builtins-0.1.9/src/macros.rs:295
  84:	bdf0      	pop	{r4, r5, r6, r7, pc}
shr():
/rustc/3c235d5600393dfe6c36eeed34042efad8d4f26e/src/libcore/ops/bit.rs:505
  86:	f005 013f 	and.w	r1, r5, #63	; 0x3f
  8a:	fa22 f001 	lsr.w	r0, r2, r1
  8e:	f1c1 0220 	rsb	r2, r1, #32
  92:	fa03 f202 	lsl.w	r2, r3, r2
  96:	4310      	orrs	r0, r2
  98:	f1a1 0220 	sub.w	r2, r1, #32
  9c:	fa43 f101 	asr.w	r1, r3, r1
  a0:	2a00      	cmp	r2, #0
  a2:	bfa8      	it	ge
  a4:	fa43 f002 	asrge.w	r0, r3, r2
  a8:	ea4f 72e3 	mov.w	r2, r3, asr #31
  ac:	bfa8      	it	ge
  ae:	17d9      	asrge	r1, r3, #31
ashr<i128>():
  b0:	4613      	mov	r3, r2
_ZN17compiler_builtins3int5shift13rust_i128_shr17h3a8269e86e1552deE():
/cargo/registry/src/github.com-1ecc6299db9ec823/compiler_builtins-0.1.9/src/macros.rs:295
  b2:	bdf0      	pop	{r4, r5, r6, r7, pc}

Disassembly of section .text._ZN17compiler_builtins3int5shift14rust_i128_shro17ha7d04b67e033b50aE:

00000000 <compiler_builtins::int::shift::rust_i128_shro>:
_ZN17compiler_builtins3int5shift14rust_i128_shro17ha7d04b67e033b50aE():
/cargo/registry/src/github.com-1ecc6299db9ec823/compiler_builtins-0.1.9/src/macros.rs:293
   0:	e92d 4ff0 	stmdb	sp!, {r4, r5, r6, r7, r8, r9, sl, fp, lr}
   4:	b081      	sub	sp, #4
   6:	f8dd 9030 	ldr.w	r9, [sp, #48]	; 0x30
   a:	f10d 0c34 	add.w	ip, sp, #52	; 0x34
ashr<i128>():
/cargo/registry/src/github.com-1ecc6299db9ec823/compiler_builtins-0.1.9/src/int/shift.rs:30
   e:	ea5f 6749 	movs.w	r7, r9, lsl #25
  12:	e89c 1180 	ldmia.w	ip, {r7, r8, ip}
  16:	e9dd 650a 	ldrd	r6, r5, [sp, #40]	; 0x28
  1a:	d447      	bmi.n	ac <compiler_builtins::int::shift::rust_i128_shro+0xac>
/cargo/registry/src/github.com-1ecc6299db9ec823/compiler_builtins-0.1.9/src/int/shift.rs:33
  1c:	f1b9 0f00 	cmp.w	r9, #0
  20:	d059      	beq.n	d6 <compiler_builtins::int::shift::rust_i128_shro+0xd6>
shr():
/rustc/3c235d5600393dfe6c36eeed34042efad8d4f26e/src/libcore/ops/bit.rs:505
  22:	f009 043f 	and.w	r4, r9, #63	; 0x3f
  26:	46e6      	mov	lr, ip
  28:	f1c4 0120 	rsb	r1, r4, #32
  2c:	40e2      	lsrs	r2, r4
  2e:	fa26 fa04 	lsr.w	sl, r6, r4
  32:	fa05 f701 	lsl.w	r7, r5, r1
  36:	fa03 f101 	lsl.w	r1, r3, r1
  3a:	ea42 0b01 	orr.w	fp, r2, r1
ashr<i128>():
/cargo/registry/src/github.com-1ecc6299db9ec823/compiler_builtins-0.1.9/src/int/shift.rs:37
  3e:	f1c9 0200 	rsb	r2, r9, #0
shl():
/rustc/3c235d5600393dfe6c36eeed34042efad8d4f26e/src/libcore/ops/bit.rs:396
  42:	f002 013f 	and.w	r1, r2, #63	; 0x3f
shr():
/rustc/3c235d5600393dfe6c36eeed34042efad8d4f26e/src/libcore/ops/bit.rs:505
  46:	ea4a 0a07 	orr.w	sl, sl, r7
  4a:	f1a4 0720 	sub.w	r7, r4, #32
shl():
/rustc/3c235d5600393dfe6c36eeed34042efad8d4f26e/src/libcore/ops/bit.rs:396
  4e:	f1a1 0c20 	sub.w	ip, r1, #32
shr():
/rustc/3c235d5600393dfe6c36eeed34042efad8d4f26e/src/libcore/ops/bit.rs:505
  52:	2f00      	cmp	r7, #0
  54:	bfa8      	it	ge
  56:	fa45 fa07 	asrge.w	sl, r5, r7
  5a:	2f00      	cmp	r7, #0
shl():
/rustc/3c235d5600393dfe6c36eeed34042efad8d4f26e/src/libcore/ops/bit.rs:396
  5c:	fa06 f201 	lsl.w	r2, r6, r1
shr():
/rustc/3c235d5600393dfe6c36eeed34042efad8d4f26e/src/libcore/ops/bit.rs:505
  60:	bfa8      	it	ge
  62:	fa23 fb07 	lsrge.w	fp, r3, r7
shl():
/rustc/3c235d5600393dfe6c36eeed34042efad8d4f26e/src/libcore/ops/bit.rs:396
  66:	f1bc 0f00 	cmp.w	ip, #0
  6a:	bfa8      	it	ge
  6c:	2200      	movge	r2, #0
  6e:	f1bc 0f00 	cmp.w	ip, #0
bitor():
/rustc/3c235d5600393dfe6c36eeed34042efad8d4f26e/src/libcore/ops/bit.rs:219
  72:	ea42 020b 	orr.w	r2, r2, fp
shl():
/rustc/3c235d5600393dfe6c36eeed34042efad8d4f26e/src/libcore/ops/bit.rs:396
  76:	fa05 fb01 	lsl.w	fp, r5, r1
  7a:	f1c1 0120 	rsb	r1, r1, #32
shr():
/rustc/3c235d5600393dfe6c36eeed34042efad8d4f26e/src/libcore/ops/bit.rs:505
  7e:	fa23 f304 	lsr.w	r3, r3, r4
shl():
/rustc/3c235d5600393dfe6c36eeed34042efad8d4f26e/src/libcore/ops/bit.rs:396
  82:	fa26 f101 	lsr.w	r1, r6, r1
  86:	ea41 010b 	orr.w	r1, r1, fp
  8a:	bfa8      	it	ge
  8c:	fa06 f10c 	lslge.w	r1, r6, ip
shr():
/rustc/3c235d5600393dfe6c36eeed34042efad8d4f26e/src/libcore/ops/bit.rs:505
  90:	2f00      	cmp	r7, #0
  92:	bfa8      	it	ge
  94:	2300      	movge	r3, #0
  96:	9f0d      	ldr	r7, [sp, #52]	; 0x34
bitor():
/rustc/3c235d5600393dfe6c36eeed34042efad8d4f26e/src/libcore/ops/bit.rs:219
  98:	ea43 0301 	orr.w	r3, r3, r1
shr():
/rustc/3c235d5600393dfe6c36eeed34042efad8d4f26e/src/libcore/ops/bit.rs:505
  9c:	fa45 f104 	asr.w	r1, r5, r4
  a0:	bfa8      	it	ge
  a2:	17e9      	asrge	r1, r5, #31
  a4:	46f4      	mov	ip, lr
ashr<i128>():
  a6:	4656      	mov	r6, sl
  a8:	460d      	mov	r5, r1
  aa:	e014      	b.n	d6 <compiler_builtins::int::shift::rust_i128_shro+0xd6>
shr():
/rustc/3c235d5600393dfe6c36eeed34042efad8d4f26e/src/libcore/ops/bit.rs:505
  ac:	f009 033f 	and.w	r3, r9, #63	; 0x3f
  b0:	f1c3 0420 	rsb	r4, r3, #32
  b4:	fa26 f203 	lsr.w	r2, r6, r3
  b8:	17ee      	asrs	r6, r5, #31
  ba:	fa05 f404 	lsl.w	r4, r5, r4
  be:	4322      	orrs	r2, r4
  c0:	f1a3 0420 	sub.w	r4, r3, #32
  c4:	fa45 f303 	asr.w	r3, r5, r3
  c8:	2c00      	cmp	r4, #0
  ca:	bfa8      	it	ge
  cc:	fa45 f204 	asrge.w	r2, r5, r4
  d0:	bfa8      	it	ge
  d2:	17eb      	asrge	r3, r5, #31
ashr<i128>():
  d4:	4635      	mov	r5, r6
_ZN17compiler_builtins3int5shift14rust_i128_shro17ha7d04b67e033b50aE():
/cargo/registry/src/github.com-1ecc6299db9ec823/compiler_builtins-0.1.9/src/macros.rs:295
  d6:	e880 004c 	stmia.w	r0, {r2, r3, r6}
/cargo/registry/src/github.com-1ecc6299db9ec823/compiler_builtins-0.1.9/src/int/shift.rs:123
  da:	f1d9 027f 	rsbs	r2, r9, #127	; 0x7f
  de:	f04f 0100 	mov.w	r1, #0
  e2:	eb71 0207 	sbcs.w	r2, r1, r7
/cargo/registry/src/github.com-1ecc6299db9ec823/compiler_builtins-0.1.9/src/macros.rs:295
  e6:	60c5      	str	r5, [r0, #12]
/cargo/registry/src/github.com-1ecc6299db9ec823/compiler_builtins-0.1.9/src/int/shift.rs:123
  e8:	eb71 0208 	sbcs.w	r2, r1, r8
  ec:	eb71 020c 	sbcs.w	r2, r1, ip
  f0:	bf38      	it	cc
  f2:	2101      	movcc	r1, #1
/cargo/registry/src/github.com-1ecc6299db9ec823/compiler_builtins-0.1.9/src/macros.rs:295
  f4:	7401      	strb	r1, [r0, #16]
  f6:	b001      	add	sp, #4
  f8:	e8bd 8ff0 	ldmia.w	sp!, {r4, r5, r6, r7, r8, r9, sl, fp, pc}

Disassembly of section .text._ZN17compiler_builtins3int5shift13rust_u128_shr17hff924baacf55883dE:

00000000 <compiler_builtins::int::shift::rust_u128_shr>:
_ZN17compiler_builtins3int5shift13rust_u128_shr17hff924baacf55883dE():
/cargo/registry/src/github.com-1ecc6299db9ec823/compiler_builtins-0.1.9/src/macros.rs:293
   0:	b5f0      	push	{r4, r5, r6, r7, lr}
   2:	9d05      	ldr	r5, [sp, #20]
lshr<u128>():
/cargo/registry/src/github.com-1ecc6299db9ec823/compiler_builtins-0.1.9/src/int/shift.rs:52
   4:	066c      	lsls	r4, r5, #25
   6:	d43d      	bmi.n	84 <compiler_builtins::int::shift::rust_u128_shr+0x84>
/cargo/registry/src/github.com-1ecc6299db9ec823/compiler_builtins-0.1.9/src/int/shift.rs:54
   8:	b3dd      	cbz	r5, 82 <compiler_builtins::int::shift::rust_u128_shr+0x82>
shr():
/rustc/3c235d5600393dfe6c36eeed34042efad8d4f26e/src/libcore/ops/bit.rs:505
   a:	f005 0e3f 	and.w	lr, r5, #63	; 0x3f
lshr<u128>():
/cargo/registry/src/github.com-1ecc6299db9ec823/compiler_builtins-0.1.9/src/int/shift.rs:57
   e:	426d      	negs	r5, r5
shr():
/rustc/3c235d5600393dfe6c36eeed34042efad8d4f26e/src/libcore/ops/bit.rs:505
  10:	f1ce 0620 	rsb	r6, lr, #32
shl():
/rustc/3c235d5600393dfe6c36eeed34042efad8d4f26e/src/libcore/ops/bit.rs:396
  14:	f005 053f 	and.w	r5, r5, #63	; 0x3f
shr():
/rustc/3c235d5600393dfe6c36eeed34042efad8d4f26e/src/libcore/ops/bit.rs:505
  18:	fa22 fc0e 	lsr.w	ip, r2, lr
  1c:	fa20 f00e 	lsr.w	r0, r0, lr
  20:	fa03 f406 	lsl.w	r4, r3, r6
  24:	ea4c 0c04 	orr.w	ip, ip, r4
  28:	f1ae 0420 	sub.w	r4, lr, #32
  2c:	fa01 f606 	lsl.w	r6, r1, r6
  30:	2c00      	cmp	r4, #0
  32:	bfa8      	it	ge
  34:	fa23 fc04 	lsrge.w	ip, r3, r4
  38:	4330      	orrs	r0, r6
  3a:	2c00      	cmp	r4, #0
shl():
/rustc/3c235d5600393dfe6c36eeed34042efad8d4f26e/src/libcore/ops/bit.rs:396
  3c:	fa02 f605 	lsl.w	r6, r2, r5
  40:	f1a5 0720 	sub.w	r7, r5, #32
shr():
/rustc/3c235d5600393dfe6c36eeed34042efad8d4f26e/src/libcore/ops/bit.rs:505
  44:	bfa8      	it	ge
  46:	fa21 f004 	lsrge.w	r0, r1, r4
shl():
/rustc/3c235d5600393dfe6c36eeed34042efad8d4f26e/src/libcore/ops/bit.rs:396
  4a:	2f00      	cmp	r7, #0
  4c:	bfa8      	it	ge
  4e:	2600      	movge	r6, #0
bitor():
/rustc/3c235d5600393dfe6c36eeed34042efad8d4f26e/src/libcore/ops/bit.rs:219
  50:	4330      	orrs	r0, r6
shl():
/rustc/3c235d5600393dfe6c36eeed34042efad8d4f26e/src/libcore/ops/bit.rs:396
  52:	fa03 f605 	lsl.w	r6, r3, r5
  56:	f1c5 0520 	rsb	r5, r5, #32
  5a:	2f00      	cmp	r7, #0
shr():
/rustc/3c235d5600393dfe6c36eeed34042efad8d4f26e/src/libcore/ops/bit.rs:505
  5c:	fa21 f10e 	lsr.w	r1, r1, lr
shl():
/rustc/3c235d5600393dfe6c36eeed34042efad8d4f26e/src/libcore/ops/bit.rs:396
  60:	fa22 f505 	lsr.w	r5, r2, r5
shr():
/rustc/3c235d5600393dfe6c36eeed34042efad8d4f26e/src/libcore/ops/bit.rs:505
  64:	fa23 f30e 	lsr.w	r3, r3, lr
shl():
/rustc/3c235d5600393dfe6c36eeed34042efad8d4f26e/src/libcore/ops/bit.rs:396
  68:	ea45 0506 	orr.w	r5, r5, r6
  6c:	bfa8      	it	ge
  6e:	fa02 f507 	lslge.w	r5, r2, r7
shr():
/rustc/3c235d5600393dfe6c36eeed34042efad8d4f26e/src/libcore/ops/bit.rs:505
  72:	2c00      	cmp	r4, #0
  74:	bfa8      	it	ge
  76:	2100      	movge	r1, #0
lshr<u128>():
  78:	4662      	mov	r2, ip
bitor():
/rustc/3c235d5600393dfe6c36eeed34042efad8d4f26e/src/libcore/ops/bit.rs:219
  7a:	ea41 0105 	orr.w	r1, r1, r5
shr():
/rustc/3c235d5600393dfe6c36eeed34042efad8d4f26e/src/libcore/ops/bit.rs:505
  7e:	bfa8      	it	ge
  80:	2300      	movge	r3, #0
_ZN17compiler_builtins3int5shift13rust_u128_shr17hff924baacf55883dE():
/cargo/registry/src/github.com-1ecc6299db9ec823/compiler_builtins-0.1.9/src/macros.rs:295
  82:	bdf0      	pop	{r4, r5, r6, r7, pc}
shr():
/rustc/3c235d5600393dfe6c36eeed34042efad8d4f26e/src/libcore/ops/bit.rs:505
  84:	f005 013f 	and.w	r1, r5, #63	; 0x3f
  88:	fa22 f001 	lsr.w	r0, r2, r1
  8c:	f1c1 0220 	rsb	r2, r1, #32
  90:	fa03 f202 	lsl.w	r2, r3, r2
  94:	4310      	orrs	r0, r2
  96:	f1a1 0220 	sub.w	r2, r1, #32
  9a:	fa23 f101 	lsr.w	r1, r3, r1
  9e:	2a00      	cmp	r2, #0
  a0:	bfa8      	it	ge
  a2:	fa23 f002 	lsrge.w	r0, r3, r2
  a6:	f04f 0200 	mov.w	r2, #0
lshr<u128>():
  aa:	f04f 0300 	mov.w	r3, #0
shr():
/rustc/3c235d5600393dfe6c36eeed34042efad8d4f26e/src/libcore/ops/bit.rs:505
  ae:	bfa8      	it	ge
  b0:	2100      	movge	r1, #0
_ZN17compiler_builtins3int5shift13rust_u128_shr17hff924baacf55883dE():
/cargo/registry/src/github.com-1ecc6299db9ec823/compiler_builtins-0.1.9/src/macros.rs:295
  b2:	bdf0      	pop	{r4, r5, r6, r7, pc}

Disassembly of section .text._ZN17compiler_builtins3int5shift14rust_u128_shro17h0a5feea8783a26e2E:

00000000 <compiler_builtins::int::shift::rust_u128_shro>:
_ZN17compiler_builtins3int5shift14rust_u128_shro17h0a5feea8783a26e2E():
/cargo/registry/src/github.com-1ecc6299db9ec823/compiler_builtins-0.1.9/src/macros.rs:293
   0:	e92d 4ff0 	stmdb	sp!, {r4, r5, r6, r7, r8, r9, sl, fp, lr}
   4:	b081      	sub	sp, #4
   6:	f8dd 9030 	ldr.w	r9, [sp, #48]	; 0x30
   a:	f10d 0c34 	add.w	ip, sp, #52	; 0x34
lshr<u128>():
/cargo/registry/src/github.com-1ecc6299db9ec823/compiler_builtins-0.1.9/src/int/shift.rs:52
   e:	ea5f 6749 	movs.w	r7, r9, lsl #25
  12:	e89c 1180 	ldmia.w	ip, {r7, r8, ip}
  16:	e9dd 650a 	ldrd	r6, r5, [sp, #40]	; 0x28
  1a:	d446      	bmi.n	aa <compiler_builtins::int::shift::rust_u128_shro+0xaa>
/cargo/registry/src/github.com-1ecc6299db9ec823/compiler_builtins-0.1.9/src/int/shift.rs:54
  1c:	f1b9 0f00 	cmp.w	r9, #0
  20:	d058      	beq.n	d4 <compiler_builtins::int::shift::rust_u128_shro+0xd4>
shr():
/rustc/3c235d5600393dfe6c36eeed34042efad8d4f26e/src/libcore/ops/bit.rs:505
  22:	f009 043f 	and.w	r4, r9, #63	; 0x3f
  26:	46e6      	mov	lr, ip
  28:	f1c4 0120 	rsb	r1, r4, #32
  2c:	40e2      	lsrs	r2, r4
  2e:	fa26 fa04 	lsr.w	sl, r6, r4
  32:	fa05 f701 	lsl.w	r7, r5, r1
  36:	fa03 f101 	lsl.w	r1, r3, r1
  3a:	ea42 0b01 	orr.w	fp, r2, r1
lshr<u128>():
/cargo/registry/src/github.com-1ecc6299db9ec823/compiler_builtins-0.1.9/src/int/shift.rs:57
  3e:	f1c9 0200 	rsb	r2, r9, #0
shl():
/rustc/3c235d5600393dfe6c36eeed34042efad8d4f26e/src/libcore/ops/bit.rs:396
  42:	f002 013f 	and.w	r1, r2, #63	; 0x3f
shr():
/rustc/3c235d5600393dfe6c36eeed34042efad8d4f26e/src/libcore/ops/bit.rs:505
  46:	ea4a 0a07 	orr.w	sl, sl, r7
  4a:	f1a4 0720 	sub.w	r7, r4, #32
shl():
/rustc/3c235d5600393dfe6c36eeed34042efad8d4f26e/src/libcore/ops/bit.rs:396
  4e:	f1a1 0c20 	sub.w	ip, r1, #32
shr():
/rustc/3c235d5600393dfe6c36eeed34042efad8d4f26e/src/libcore/ops/bit.rs:505
  52:	2f00      	cmp	r7, #0
  54:	bfa8      	it	ge
  56:	fa25 fa07 	lsrge.w	sl, r5, r7
  5a:	2f00      	cmp	r7, #0
shl():
/rustc/3c235d5600393dfe6c36eeed34042efad8d4f26e/src/libcore/ops/bit.rs:396
  5c:	fa06 f201 	lsl.w	r2, r6, r1
shr():
/rustc/3c235d5600393dfe6c36eeed34042efad8d4f26e/src/libcore/ops/bit.rs:505
  60:	bfa8      	it	ge
  62:	fa23 fb07 	lsrge.w	fp, r3, r7
shl():
/rustc/3c235d5600393dfe6c36eeed34042efad8d4f26e/src/libcore/ops/bit.rs:396
  66:	f1bc 0f00 	cmp.w	ip, #0
  6a:	bfa8      	it	ge
  6c:	2200      	movge	r2, #0
  6e:	f1bc 0f00 	cmp.w	ip, #0
bitor():
/rustc/3c235d5600393dfe6c36eeed34042efad8d4f26e/src/libcore/ops/bit.rs:219
  72:	ea42 020b 	orr.w	r2, r2, fp
shl():
/rustc/3c235d5600393dfe6c36eeed34042efad8d4f26e/src/libcore/ops/bit.rs:396
  76:	fa05 fb01 	lsl.w	fp, r5, r1
  7a:	f1c1 0120 	rsb	r1, r1, #32
shr():
/rustc/3c235d5600393dfe6c36eeed34042efad8d4f26e/src/libcore/ops/bit.rs:505
  7e:	fa23 f304 	lsr.w	r3, r3, r4
  82:	fa25 f504 	lsr.w	r5, r5, r4
shl():
/rustc/3c235d5600393dfe6c36eeed34042efad8d4f26e/src/libcore/ops/bit.rs:396
  86:	fa26 f101 	lsr.w	r1, r6, r1
  8a:	ea41 010b 	orr.w	r1, r1, fp
  8e:	bfa8      	it	ge
  90:	fa06 f10c 	lslge.w	r1, r6, ip
shr():
/rustc/3c235d5600393dfe6c36eeed34042efad8d4f26e/src/libcore/ops/bit.rs:505
  94:	2f00      	cmp	r7, #0
  96:	bfa8      	it	ge
  98:	2300      	movge	r3, #0
  9a:	9f0d      	ldr	r7, [sp, #52]	; 0x34
bitor():
/rustc/3c235d5600393dfe6c36eeed34042efad8d4f26e/src/libcore/ops/bit.rs:219
  9c:	ea43 0301 	orr.w	r3, r3, r1
  a0:	46f4      	mov	ip, lr
lshr<u128>():
  a2:	4656      	mov	r6, sl
shr():
/rustc/3c235d5600393dfe6c36eeed34042efad8d4f26e/src/libcore/ops/bit.rs:505
  a4:	bfa8      	it	ge
  a6:	2500      	movge	r5, #0
  a8:	e014      	b.n	d4 <compiler_builtins::int::shift::rust_u128_shro+0xd4>
  aa:	f009 033f 	and.w	r3, r9, #63	; 0x3f
  ae:	f1c3 0420 	rsb	r4, r3, #32
  b2:	fa26 f203 	lsr.w	r2, r6, r3
  b6:	2600      	movs	r6, #0
  b8:	fa05 f404 	lsl.w	r4, r5, r4
  bc:	4322      	orrs	r2, r4
  be:	f1a3 0420 	sub.w	r4, r3, #32
  c2:	fa25 f303 	lsr.w	r3, r5, r3
  c6:	2c00      	cmp	r4, #0
  c8:	bfa8      	it	ge
  ca:	fa25 f204 	lsrge.w	r2, r5, r4
  ce:	bfa8      	it	ge
  d0:	2300      	movge	r3, #0
lshr<u128>():
  d2:	2500      	movs	r5, #0
_ZN17compiler_builtins3int5shift14rust_u128_shro17h0a5feea8783a26e2E():
/cargo/registry/src/github.com-1ecc6299db9ec823/compiler_builtins-0.1.9/src/macros.rs:295
  d4:	e880 004c 	stmia.w	r0, {r2, r3, r6}
/cargo/registry/src/github.com-1ecc6299db9ec823/compiler_builtins-0.1.9/src/int/shift.rs:131
  d8:	f1d9 027f 	rsbs	r2, r9, #127	; 0x7f
  dc:	f04f 0100 	mov.w	r1, #0
  e0:	eb71 0207 	sbcs.w	r2, r1, r7
/cargo/registry/src/github.com-1ecc6299db9ec823/compiler_builtins-0.1.9/src/macros.rs:295
  e4:	60c5      	str	r5, [r0, #12]
/cargo/registry/src/github.com-1ecc6299db9ec823/compiler_builtins-0.1.9/src/int/shift.rs:131
  e6:	eb71 0208 	sbcs.w	r2, r1, r8
  ea:	eb71 020c 	sbcs.w	r2, r1, ip
  ee:	bf38      	it	cc
  f0:	2101      	movcc	r1, #1
/cargo/registry/src/github.com-1ecc6299db9ec823/compiler_builtins-0.1.9/src/macros.rs:295
  f2:	7401      	strb	r1, [r0, #16]
  f4:	b001      	add	sp, #4
  f6:	e8bd 8ff0 	ldmia.w	sp!, {r4, r5, r6, r7, r8, r9, sl, fp, pc}

Disassembly of section .text.__udivsi3:

00000000 <__udivsi3>:
__udivsi3():
/cargo/registry/src/github.com-1ecc6299db9ec823/compiler_builtins-0.1.9/src/int/udiv.rs:159
   0:	2900      	cmp	r1, #0
   2:	f000 80ae 	beq.w	162 <__udivsi3+0x162>
   6:	e92d 43f0 	stmdb	sp!, {r4, r5, r6, r7, r8, r9, lr}
/cargo/registry/src/github.com-1ecc6299db9ec823/compiler_builtins-0.1.9/src/int/udiv.rs:165
   a:	b138      	cbz	r0, 1c <__udivsi3+0x1c>
leading_zeros():
/rustc/3c235d5600393dfe6c36eeed34042efad8d4f26e/src/libcore/num/mod.rs:2239
   c:	fab0 f480 	clz	r4, r0
  10:	fab1 fe81 	clz	lr, r1
wrapping_sub():
/rustc/3c235d5600393dfe6c36eeed34042efad8d4f26e/src/libcore/num/mod.rs:2863
  14:	ebae 0304 	sub.w	r3, lr, r4
__udivsi3():
/cargo/registry/src/github.com-1ecc6299db9ec823/compiler_builtins-0.1.9/src/int/udiv.rs:172
  18:	2b20      	cmp	r3, #32
  1a:	d302      	bcc.n	22 <__udivsi3+0x22>
  1c:	2000      	movs	r0, #0
/cargo/registry/src/github.com-1ecc6299db9ec823/compiler_builtins-0.1.9/src/macros.rs:216
  1e:	e8bd 83f0 	ldmia.w	sp!, {r4, r5, r6, r7, r8, r9, pc}
/cargo/registry/src/github.com-1ecc6299db9ec823/compiler_builtins-0.1.9/src/int/udiv.rs:177
  22:	2b1f      	cmp	r3, #31
  24:	d0fb      	beq.n	1e <__udivsi3+0x1e>
/cargo/registry/src/github.com-1ecc6299db9ec823/compiler_builtins-0.1.9/src/int/udiv.rs:184
  26:	f1c3 051f 	rsb	r5, r3, #31
/cargo/registry/src/github.com-1ecc6299db9ec823/compiler_builtins-0.1.9/src/int/udiv.rs:181
  2a:	1c5a      	adds	r2, r3, #1
/cargo/registry/src/github.com-1ecc6299db9ec823/compiler_builtins-0.1.9/src/int/udiv.rs:184
  2c:	f005 051f 	and.w	r5, r5, #31
/cargo/registry/src/github.com-1ecc6299db9ec823/compiler_builtins-0.1.9/src/int/udiv.rs:185
  30:	f002 021f 	and.w	r2, r2, #31
/cargo/registry/src/github.com-1ecc6299db9ec823/compiler_builtins-0.1.9/src/int/udiv.rs:192
  34:	2b03      	cmp	r3, #3
/cargo/registry/src/github.com-1ecc6299db9ec823/compiler_builtins-0.1.9/src/int/udiv.rs:184
  36:	fa00 f905 	lsl.w	r9, r0, r5
/cargo/registry/src/github.com-1ecc6299db9ec823/compiler_builtins-0.1.9/src/int/udiv.rs:192
  3a:	f10e 0501 	add.w	r5, lr, #1
  3e:	eba5 0504 	sub.w	r5, r5, r4
/cargo/registry/src/github.com-1ecc6299db9ec823/compiler_builtins-0.1.9/src/int/udiv.rs:185
  42:	fa20 f202 	lsr.w	r2, r0, r2
/cargo/registry/src/github.com-1ecc6299db9ec823/compiler_builtins-0.1.9/src/int/udiv.rs:192
  46:	f005 0c03 	and.w	ip, r5, #3
  4a:	d205      	bcs.n	58 <__udivsi3+0x58>
  4c:	f04f 0e00 	mov.w	lr, #0
/cargo/registry/src/github.com-1ecc6299db9ec823/compiler_builtins-0.1.9/src/int/udiv.rs:191
  50:	f1bc 0f00 	cmp.w	ip, #0
  54:	d14a      	bne.n	ec <__udivsi3+0xec>
  56:	e059      	b.n	10c <__udivsi3+0x10c>
/cargo/registry/src/github.com-1ecc6299db9ec823/compiler_builtins-0.1.9/src/int/udiv.rs:192
  58:	eb04 030c 	add.w	r3, r4, ip
  5c:	f04f 0801 	mov.w	r8, #1
  60:	3b01      	subs	r3, #1
  62:	eba3 030e 	sub.w	r3, r3, lr
  66:	f04f 0e00 	mov.w	lr, #0
/cargo/registry/src/github.com-1ecc6299db9ec823/compiler_builtins-0.1.9/src/int/udiv.rs:195
  6a:	ea4f 75d9 	mov.w	r5, r9, lsr #31
  6e:	ea45 0242 	orr.w	r2, r5, r2, lsl #1
/cargo/registry/src/github.com-1ecc6299db9ec823/compiler_builtins-0.1.9/src/int/udiv.rs:191
  72:	3304      	adds	r3, #4
wrapping_sub():
/rustc/3c235d5600393dfe6c36eeed34042efad8d4f26e/src/libcore/num/mod.rs:2863
  74:	ea6f 0502 	mvn.w	r5, r2
  78:	440d      	add	r5, r1
__udivsi3():
/cargo/registry/src/github.com-1ecc6299db9ec823/compiler_builtins-0.1.9/src/int/udiv.rs:206
  7a:	ea01 76e5 	and.w	r6, r1, r5, asr #31
/cargo/registry/src/github.com-1ecc6299db9ec823/compiler_builtins-0.1.9/src/int/udiv.rs:205
  7e:	ea08 75e5 	and.w	r5, r8, r5, asr #31
/cargo/registry/src/github.com-1ecc6299db9ec823/compiler_builtins-0.1.9/src/int/udiv.rs:206
  82:	eba2 0206 	sub.w	r2, r2, r6
/cargo/registry/src/github.com-1ecc6299db9ec823/compiler_builtins-0.1.9/src/int/udiv.rs:195
  86:	f3c9 7680 	ubfx	r6, r9, #30, #1
  8a:	ea46 0242 	orr.w	r2, r6, r2, lsl #1
wrapping_sub():
/rustc/3c235d5600393dfe6c36eeed34042efad8d4f26e/src/libcore/num/mod.rs:2863
  8e:	ea6f 0602 	mvn.w	r6, r2
  92:	440e      	add	r6, r1
__udivsi3():
/cargo/registry/src/github.com-1ecc6299db9ec823/compiler_builtins-0.1.9/src/int/udiv.rs:206
  94:	ea01 77e6 	and.w	r7, r1, r6, asr #31
/cargo/registry/src/github.com-1ecc6299db9ec823/compiler_builtins-0.1.9/src/int/udiv.rs:205
  98:	ea08 76e6 	and.w	r6, r8, r6, asr #31
/cargo/registry/src/github.com-1ecc6299db9ec823/compiler_builtins-0.1.9/src/int/udiv.rs:206
  9c:	eba2 0207 	sub.w	r2, r2, r7
/cargo/registry/src/github.com-1ecc6299db9ec823/compiler_builtins-0.1.9/src/int/udiv.rs:195
  a0:	f3c9 7740 	ubfx	r7, r9, #29, #1
  a4:	ea47 0242 	orr.w	r2, r7, r2, lsl #1
wrapping_sub():
/rustc/3c235d5600393dfe6c36eeed34042efad8d4f26e/src/libcore/num/mod.rs:2863
  a8:	ea6f 0702 	mvn.w	r7, r2
  ac:	440f      	add	r7, r1
__udivsi3():
/cargo/registry/src/github.com-1ecc6299db9ec823/compiler_builtins-0.1.9/src/int/udiv.rs:206
  ae:	ea01 74e7 	and.w	r4, r1, r7, asr #31
/cargo/registry/src/github.com-1ecc6299db9ec823/compiler_builtins-0.1.9/src/int/udiv.rs:205
  b2:	ea08 77e7 	and.w	r7, r8, r7, asr #31
/cargo/registry/src/github.com-1ecc6299db9ec823/compiler_builtins-0.1.9/src/int/udiv.rs:206
  b6:	eba2 0204 	sub.w	r2, r2, r4
/cargo/registry/src/github.com-1ecc6299db9ec823/compiler_builtins-0.1.9/src/int/udiv.rs:195
  ba:	f3c9 7400 	ubfx	r4, r9, #28, #1
  be:	ea44 0242 	orr.w	r2, r4, r2, lsl #1
wrapping_sub():
/rustc/3c235d5600393dfe6c36eeed34042efad8d4f26e/src/libcore/num/mod.rs:2863
  c2:	ea6f 0402 	mvn.w	r4, r2
  c6:	440c      	add	r4, r1
__udivsi3():
/cargo/registry/src/github.com-1ecc6299db9ec823/compiler_builtins-0.1.9/src/int/udiv.rs:206
  c8:	ea01 70e4 	and.w	r0, r1, r4, asr #31
  cc:	eba2 0200 	sub.w	r2, r2, r0
/cargo/registry/src/github.com-1ecc6299db9ec823/compiler_builtins-0.1.9/src/int/udiv.rs:196
  d0:	ea4e 0049 	orr.w	r0, lr, r9, lsl #1
/cargo/registry/src/github.com-1ecc6299db9ec823/compiler_builtins-0.1.9/src/int/udiv.rs:205
  d4:	ea08 7ee4 	and.w	lr, r8, r4, asr #31
/cargo/registry/src/github.com-1ecc6299db9ec823/compiler_builtins-0.1.9/src/int/udiv.rs:196
  d8:	ea45 0040 	orr.w	r0, r5, r0, lsl #1
  dc:	ea46 0040 	orr.w	r0, r6, r0, lsl #1
  e0:	ea47 0940 	orr.w	r9, r7, r0, lsl #1
/cargo/registry/src/github.com-1ecc6299db9ec823/compiler_builtins-0.1.9/src/int/udiv.rs:191
  e4:	d1c1      	bne.n	6a <__udivsi3+0x6a>
  e6:	f1bc 0f00 	cmp.w	ip, #0
  ea:	d00f      	beq.n	10c <__udivsi3+0x10c>
/cargo/registry/src/github.com-1ecc6299db9ec823/compiler_builtins-0.1.9/src/int/udiv.rs:195
  ec:	ea4f 75d9 	mov.w	r5, r9, lsr #31
/cargo/registry/src/github.com-1ecc6299db9ec823/compiler_builtins-0.1.9/src/int/udiv.rs:196
  f0:	ea4e 0349 	orr.w	r3, lr, r9, lsl #1
/cargo/registry/src/github.com-1ecc6299db9ec823/compiler_builtins-0.1.9/src/int/udiv.rs:195
  f4:	ea45 0542 	orr.w	r5, r5, r2, lsl #1
  f8:	2401      	movs	r4, #1
/cargo/registry/src/github.com-1ecc6299db9ec823/compiler_builtins-0.1.9/src/int/udiv.rs:191
  fa:	f1bc 0f01 	cmp.w	ip, #1
wrapping_sub():
/rustc/3c235d5600393dfe6c36eeed34042efad8d4f26e/src/libcore/num/mod.rs:2863
  fe:	ea6f 0205 	mvn.w	r2, r5
 102:	440a      	add	r2, r1
__udivsi3():
/cargo/registry/src/github.com-1ecc6299db9ec823/compiler_builtins-0.1.9/src/int/udiv.rs:205
 104:	ea04 7ee2 	and.w	lr, r4, r2, asr #31
/cargo/registry/src/github.com-1ecc6299db9ec823/compiler_builtins-0.1.9/src/int/udiv.rs:191
 108:	d104      	bne.n	114 <__udivsi3+0x114>
/cargo/registry/src/github.com-1ecc6299db9ec823/compiler_builtins-0.1.9/src/int/udiv.rs:196
 10a:	4699      	mov	r9, r3
/cargo/registry/src/github.com-1ecc6299db9ec823/compiler_builtins-0.1.9/src/int/udiv.rs:209
 10c:	ea4e 0049 	orr.w	r0, lr, r9, lsl #1
/cargo/registry/src/github.com-1ecc6299db9ec823/compiler_builtins-0.1.9/src/macros.rs:216
 110:	e8bd 83f0 	ldmia.w	sp!, {r4, r5, r6, r7, r8, r9, pc}
 114:	17d0      	asrs	r0, r2, #31
/cargo/registry/src/github.com-1ecc6299db9ec823/compiler_builtins-0.1.9/src/int/udiv.rs:196
 116:	ea4e 0243 	orr.w	r2, lr, r3, lsl #1
/cargo/registry/src/github.com-1ecc6299db9ec823/compiler_builtins-0.1.9/src/int/udiv.rs:206
 11a:	4008      	ands	r0, r1
/cargo/registry/src/github.com-1ecc6299db9ec823/compiler_builtins-0.1.9/src/int/udiv.rs:195
 11c:	f3c9 7380 	ubfx	r3, r9, #30, #1
/cargo/registry/src/github.com-1ecc6299db9ec823/compiler_builtins-0.1.9/src/int/udiv.rs:206
 120:	1a28      	subs	r0, r5, r0
/cargo/registry/src/github.com-1ecc6299db9ec823/compiler_builtins-0.1.9/src/int/udiv.rs:191
 122:	f1bc 0f02 	cmp.w	ip, #2
/cargo/registry/src/github.com-1ecc6299db9ec823/compiler_builtins-0.1.9/src/int/udiv.rs:195
 126:	ea43 0340 	orr.w	r3, r3, r0, lsl #1
wrapping_sub():
/rustc/3c235d5600393dfe6c36eeed34042efad8d4f26e/src/libcore/num/mod.rs:2863
 12a:	ea6f 0003 	mvn.w	r0, r3
 12e:	eb00 0501 	add.w	r5, r0, r1
__udivsi3():
/cargo/registry/src/github.com-1ecc6299db9ec823/compiler_builtins-0.1.9/src/int/udiv.rs:205
 132:	ea04 7ee5 	and.w	lr, r4, r5, asr #31
/cargo/registry/src/github.com-1ecc6299db9ec823/compiler_builtins-0.1.9/src/int/udiv.rs:191
 136:	d103      	bne.n	140 <__udivsi3+0x140>
/cargo/registry/src/github.com-1ecc6299db9ec823/compiler_builtins-0.1.9/src/int/udiv.rs:209
 138:	ea4e 0042 	orr.w	r0, lr, r2, lsl #1
/cargo/registry/src/github.com-1ecc6299db9ec823/compiler_builtins-0.1.9/src/macros.rs:216
 13c:	e8bd 83f0 	ldmia.w	sp!, {r4, r5, r6, r7, r8, r9, pc}
 140:	17e8      	asrs	r0, r5, #31
/cargo/registry/src/github.com-1ecc6299db9ec823/compiler_builtins-0.1.9/src/int/udiv.rs:196
 142:	ea4e 0242 	orr.w	r2, lr, r2, lsl #1
/cargo/registry/src/github.com-1ecc6299db9ec823/compiler_builtins-0.1.9/src/int/udiv.rs:206
 146:	4008      	ands	r0, r1
 148:	1a18      	subs	r0, r3, r0
/cargo/registry/src/github.com-1ecc6299db9ec823/compiler_builtins-0.1.9/src/int/udiv.rs:195
 14a:	f3c9 7340 	ubfx	r3, r9, #29, #1
 14e:	ea43 0040 	orr.w	r0, r3, r0, lsl #1
wrapping_sub():
/rustc/3c235d5600393dfe6c36eeed34042efad8d4f26e/src/libcore/num/mod.rs:2863
 152:	43c0      	mvns	r0, r0
 154:	4408      	add	r0, r1
__udivsi3():
/cargo/registry/src/github.com-1ecc6299db9ec823/compiler_builtins-0.1.9/src/int/udiv.rs:204
 156:	ea4f 7ed0 	mov.w	lr, r0, lsr #31
/cargo/registry/src/github.com-1ecc6299db9ec823/compiler_builtins-0.1.9/src/int/udiv.rs:209
 15a:	ea4e 0042 	orr.w	r0, lr, r2, lsl #1
/cargo/registry/src/github.com-1ecc6299db9ec823/compiler_builtins-0.1.9/src/macros.rs:216
 15e:	e8bd 83f0 	ldmia.w	sp!, {r4, r5, r6, r7, r8, r9, pc}
abort():
/cargo/registry/src/github.com-1ecc6299db9ec823/compiler_builtins-0.1.9/src/lib.rs:41
 162:	defe      	udf	#254	; 0xfe
 164:	defe      	udf	#254	; 0xfe

Disassembly of section .text.__aeabi_uidiv:

00000000 <__aeabi_uidiv>:
__aeabi_uidiv():
/cargo/registry/src/github.com-1ecc6299db9ec823/compiler_builtins-0.1.9/src/int/udiv.rs:159
   0:	2900      	cmp	r1, #0
   2:	f000 80a7 	beq.w	154 <__aeabi_uidiv+0x154>
   6:	e92d 43f0 	stmdb	sp!, {r4, r5, r6, r7, r8, r9, lr}
/cargo/registry/src/github.com-1ecc6299db9ec823/compiler_builtins-0.1.9/src/int/udiv.rs:165
   a:	b138      	cbz	r0, 1c <__aeabi_uidiv+0x1c>
leading_zeros():
/rustc/3c235d5600393dfe6c36eeed34042efad8d4f26e/src/libcore/num/mod.rs:2239
   c:	fab0 f480 	clz	r4, r0
  10:	fab1 fe81 	clz	lr, r1
wrapping_sub():
/rustc/3c235d5600393dfe6c36eeed34042efad8d4f26e/src/libcore/num/mod.rs:2863
  14:	ebae 0304 	sub.w	r3, lr, r4
__aeabi_uidiv():
/cargo/registry/src/github.com-1ecc6299db9ec823/compiler_builtins-0.1.9/src/int/udiv.rs:172
  18:	2b1f      	cmp	r3, #31
  1a:	d902      	bls.n	22 <__aeabi_uidiv+0x22>
  1c:	2000      	movs	r0, #0
/cargo/registry/src/github.com-1ecc6299db9ec823/compiler_builtins-0.1.9/src/macros.rs:256
  1e:	e8bd 83f0 	ldmia.w	sp!, {r4, r5, r6, r7, r8, r9, pc}
/cargo/registry/src/github.com-1ecc6299db9ec823/compiler_builtins-0.1.9/src/int/udiv.rs:177
  22:	f000 8095 	beq.w	150 <__aeabi_uidiv+0x150>
/cargo/registry/src/github.com-1ecc6299db9ec823/compiler_builtins-0.1.9/src/int/udiv.rs:184
  26:	f1c3 051f 	rsb	r5, r3, #31
/cargo/registry/src/github.com-1ecc6299db9ec823/compiler_builtins-0.1.9/src/int/udiv.rs:181
  2a:	1c5a      	adds	r2, r3, #1
/cargo/registry/src/github.com-1ecc6299db9ec823/compiler_builtins-0.1.9/src/int/udiv.rs:184
  2c:	f005 051f 	and.w	r5, r5, #31
/cargo/registry/src/github.com-1ecc6299db9ec823/compiler_builtins-0.1.9/src/int/udiv.rs:185
  30:	f002 021f 	and.w	r2, r2, #31
/cargo/registry/src/github.com-1ecc6299db9ec823/compiler_builtins-0.1.9/src/int/udiv.rs:192
  34:	2b03      	cmp	r3, #3
/cargo/registry/src/github.com-1ecc6299db9ec823/compiler_builtins-0.1.9/src/int/udiv.rs:184
  36:	fa00 f905 	lsl.w	r9, r0, r5
/cargo/registry/src/github.com-1ecc6299db9ec823/compiler_builtins-0.1.9/src/int/udiv.rs:192
  3a:	f10e 0501 	add.w	r5, lr, #1
  3e:	eba5 0504 	sub.w	r5, r5, r4
/cargo/registry/src/github.com-1ecc6299db9ec823/compiler_builtins-0.1.9/src/int/udiv.rs:185
  42:	fa20 f202 	lsr.w	r2, r0, r2
/cargo/registry/src/github.com-1ecc6299db9ec823/compiler_builtins-0.1.9/src/int/udiv.rs:192
  46:	f005 0c03 	and.w	ip, r5, #3
  4a:	d205      	bcs.n	58 <__aeabi_uidiv+0x58>
  4c:	f04f 0e00 	mov.w	lr, #0
/cargo/registry/src/github.com-1ecc6299db9ec823/compiler_builtins-0.1.9/src/int/udiv.rs:191
  50:	f1bc 0f00 	cmp.w	ip, #0
  54:	d149      	bne.n	ea <__aeabi_uidiv+0xea>
  56:	e079      	b.n	14c <__aeabi_uidiv+0x14c>
/cargo/registry/src/github.com-1ecc6299db9ec823/compiler_builtins-0.1.9/src/int/udiv.rs:192
  58:	eb04 030c 	add.w	r3, r4, ip
  5c:	f04f 0801 	mov.w	r8, #1
  60:	3b01      	subs	r3, #1
  62:	eba3 030e 	sub.w	r3, r3, lr
  66:	f04f 0e00 	mov.w	lr, #0
/cargo/registry/src/github.com-1ecc6299db9ec823/compiler_builtins-0.1.9/src/int/udiv.rs:195
  6a:	0052      	lsls	r2, r2, #1
/cargo/registry/src/github.com-1ecc6299db9ec823/compiler_builtins-0.1.9/src/int/udiv.rs:191
  6c:	3304      	adds	r3, #4
/cargo/registry/src/github.com-1ecc6299db9ec823/compiler_builtins-0.1.9/src/int/udiv.rs:195
  6e:	ea42 72d9 	orr.w	r2, r2, r9, lsr #31
wrapping_sub():
/rustc/3c235d5600393dfe6c36eeed34042efad8d4f26e/src/libcore/num/mod.rs:2863
  72:	ea6f 0502 	mvn.w	r5, r2
  76:	440d      	add	r5, r1
__aeabi_uidiv():
/cargo/registry/src/github.com-1ecc6299db9ec823/compiler_builtins-0.1.9/src/int/udiv.rs:206
  78:	ea01 76e5 	and.w	r6, r1, r5, asr #31
/cargo/registry/src/github.com-1ecc6299db9ec823/compiler_builtins-0.1.9/src/int/udiv.rs:205
  7c:	ea08 75e5 	and.w	r5, r8, r5, asr #31
/cargo/registry/src/github.com-1ecc6299db9ec823/compiler_builtins-0.1.9/src/int/udiv.rs:206
  80:	eba2 0206 	sub.w	r2, r2, r6
/cargo/registry/src/github.com-1ecc6299db9ec823/compiler_builtins-0.1.9/src/int/udiv.rs:195
  84:	f3c9 7680 	ubfx	r6, r9, #30, #1
  88:	ea46 0242 	orr.w	r2, r6, r2, lsl #1
wrapping_sub():
