In archive target/thumbv7m-none-eabi/release/libmylib.rlib:

mylib-027f427c946f972f.mylib.6llr0fzg-cgu.0.rcgu.o:     file format elf32-littlearm

SYMBOL TABLE:
00000000 l    df *ABS*	00000000 mylib.6llr0fzg-cgu.0
00004396 l       .debug_str	00000000 
00004c1d l       .debug_str	00000000 
00004c51 l       .debug_str	00000000 
00004c63 l       .debug_str	00000000 
00004c67 l       .debug_str	00000000 
00004c70 l       .debug_str	00000000 
00004c7b l       .debug_str	00000000 
00004cb9 l       .debug_str	00000000 
00004cd1 l       .debug_str	00000000 
00004cd5 l       .debug_str	00000000 
00004cd9 l       .debug_str	00000000 
00004d2c l       .debug_str	00000000 
00004d40 l       .debug_str	00000000 
00004d4a l       .debug_str	00000000 
00004d53 l       .debug_str	00000000 
00004d5a l       .debug_str	00000000 
00004d64 l       .debug_str	00000000 
00004d69 l       .debug_str	00000000 
00004d71 l       .debug_str	00000000 
00004d76 l       .debug_str	00000000 
00004d7b l       .debug_str	00000000 
00004d82 l       .debug_str	00000000 
00004d8e l       .debug_str	00000000 
00004d96 l       .debug_str	00000000 
00004d9f l       .debug_str	00000000 
00004da4 l       .debug_str	00000000 
00004da7 l       .debug_str	00000000 
00004db0 l       .debug_str	00000000 
00004db7 l       .debug_str	00000000 
00004dba l       .debug_str	00000000 
00004dc0 l       .debug_str	00000000 
00004dca l       .debug_str	00000000 
00004dd2 l       .debug_str	00000000 
00004dd8 l       .debug_str	00000000 
00004de3 l       .debug_str	00000000 
00004dec l       .debug_str	00000000 
00004e0f l       .debug_str	00000000 
00004e2e l       .debug_str	00000000 
00004e55 l       .debug_str	00000000 
00004e5f l       .debug_str	00000000 
00004e75 l       .debug_str	00000000 
00004ecb l       .debug_str	00000000 
00004ed7 l       .debug_str	00000000 
00004f0f l       .debug_str	00000000 
00004f11 l       .debug_str	00000000 
00004f68 l       .debug_str	00000000 
00004f75 l       .debug_str	00000000 
00004fa9 l       .debug_str	00000000 
00004faf l       .debug_str	00000000 
00004fdf l       .debug_str	00000000 
00004fe8 l       .debug_str	00000000 
00004fee l       .debug_str	00000000 
00005032 l       .debug_str	00000000 
0000504d l       .debug_str	00000000 
00005055 l       .debug_str	00000000 
0000505a l       .debug_str	00000000 
00005068 l       .debug_str	00000000 
00005072 l       .debug_str	00000000 
00005080 l       .debug_str	00000000 
00005094 l       .debug_str	00000000 
00005117 l       .debug_str	00000000 
00005121 l       .debug_str	00000000 
00005127 l       .debug_str	00000000 
0000512d l       .debug_str	00000000 
00005131 l       .debug_str	00000000 
0000513e l       .debug_str	00000000 
000051c4 l       .debug_str	00000000 
000051d3 l       .debug_str	00000000 
000051d5 l       .debug_str	00000000 
0000524a l       .debug_str	00000000 
00005275 l       .debug_str	00000000 
0000527b l       .debug_str	00000000 
000052d3 l       .debug_str	00000000 
000052e1 l       .debug_str	00000000 
0000532c l       .debug_str	00000000 
0000533c l       .debug_str	00000000 
0000534a l       .debug_str	00000000 
0000534e l       .debug_str	00000000 
00005350 l       .debug_str	00000000 
00005352 l       .debug_str	00000000 
00005399 l       .debug_str	00000000 
000053a5 l       .debug_str	00000000 
000053ec l       .debug_str	00000000 
000053f5 l       .debug_str	00000000 
00005401 l       .debug_str	00000000 
0000540a l       .debug_str	00000000 
0000540e l       .debug_str	00000000 
00005418 l       .debug_str	00000000 
0000547b l       .debug_str	00000000 
00005483 l       .debug_str	00000000 
0000549e l       .debug_str	00000000 
000054a4 l       .debug_str	00000000 
000054ae l       .debug_str	00000000 
000054b4 l       .debug_str	00000000 
000054bf l       .debug_str	00000000 
000054c8 l       .debug_str	00000000 
000054d2 l       .debug_str	00000000 
00005504 l       .debug_str	00000000 
0000550b l       .debug_str	00000000 
00005547 l       .debug_str	00000000 
0000555a l       .debug_str	00000000 
00005560 l       .debug_str	00000000 
000055a4 l       .debug_str	00000000 
000055ba l       .debug_str	00000000 
000055c3 l       .debug_str	00000000 
00005605 l       .debug_str	00000000 
00005617 l       .debug_str	00000000 
00005620 l       .debug_str	00000000 
00005624 l       .debug_str	00000000 
0000564e l       .debug_str	00000000 
00005653 l       .debug_str	00000000 
0000569b l       .debug_str	00000000 
000056a4 l       .debug_str	00000000 
000056ec l       .debug_str	00000000 
000056f5 l       .debug_str	00000000 
0000573d l       .debug_str	00000000 
00005745 l       .debug_str	00000000 
0000578d l       .debug_str	00000000 
000057c3 l       .debug_str	00000000 
0000583b l       .debug_str	00000000 
00005843 l       .debug_str	00000000 
000058ba l       .debug_str	00000000 
0000594f l       .debug_str	00000000 
000059d6 l       .debug_str	00000000 
00005a4e l       .debug_str	00000000 
00005ad3 l       .debug_str	00000000 
00005b4a l       .debug_str	00000000 
00005bd6 l       .debug_str	00000000 
00005bec l       .debug_str	00000000 
00005c6f l       .debug_str	00000000 
00005cf6 l       .debug_str	00000000 
00005d85 l       .debug_str	00000000 
00005df5 l       .debug_str	00000000 
00005e67 l       .debug_str	00000000 
00005ed8 l       .debug_str	00000000 
00005f46 l       .debug_str	00000000 
00005fb5 l       .debug_str	00000000 
00006027 l       .debug_str	00000000 
0000609e l       .debug_str	00000000 
0000610d l       .debug_str	00000000 
0000617b l       .debug_str	00000000 
00006202 l       .debug_str	00000000 
00006281 l       .debug_str	00000000 
00006302 l       .debug_str	00000000 
00006386 l       .debug_str	00000000 
0000640d l       .debug_str	00000000 
00006419 l       .debug_str	00000000 
00006425 l       .debug_str	00000000 
0000643a l       .debug_str	00000000 
000064b2 l       .debug_str	00000000 
00006531 l       .debug_str	00000000 
00006577 l       .debug_str	00000000 
0000658d l       .debug_str	00000000 
00006615 l       .debug_str	00000000 
000066a0 l       .debug_str	00000000 
00006732 l       .debug_str	00000000 
00006737 l       .debug_str	00000000 
00006776 l       .debug_str	00000000 
00006787 l       .debug_str	00000000 
000067c2 l       .debug_str	00000000 
000067d4 l       .debug_str	00000000 
000067d9 l       .debug_str	00000000 
000067db l       .debug_str	00000000 
000067ed l       .debug_str	00000000 
000067f3 l       .debug_str	00000000 
00006858 l       .debug_str	00000000 
0000688b l       .debug_str	00000000 
00006891 l       .debug_str	00000000 
00006899 l       .debug_str	00000000 
0000689e l       .debug_str	00000000 
000068ab l       .debug_str	00000000 
000068b8 l       .debug_str	00000000 
000068bf l       .debug_str	00000000 
000068cf l       .debug_str	00000000 
000068e1 l       .debug_str	00000000 
000068ed l       .debug_str	00000000 
000068f2 l       .debug_str	00000000 
000068fa l       .debug_str	00000000 
000068fe l       .debug_str	00000000 
00006903 l       .debug_str	00000000 
0000690b l       .debug_str	00000000 
00006929 l       .debug_str	00000000 
00006932 l       .debug_str	00000000 
00006937 l       .debug_str	00000000 
0000693c l       .debug_str	00000000 
00006940 l       .debug_str	00000000 
00006949 l       .debug_str	00000000 
00006953 l       .debug_str	00000000 
0000696b l       .debug_str	00000000 
00006982 l       .debug_str	00000000 
00000000 l       .debug_str	00000000 
00000041 l       .debug_str	00000000 
0000004c l       .debug_str	00000000 
0000007c l       .debug_str	00000000 
00000082 l       .debug_str	00000000 
00000089 l       .debug_str	00000000 
00000092 l       .debug_str	00000000 
0000009f l       .debug_str	00000000 
000000ac l       .debug_str	00000000 
000000b7 l       .debug_str	00000000 
000000ba l       .debug_str	00000000 
000000ce l       .debug_str	00000000 
000000db l       .debug_str	00000000 
000000e7 l       .debug_str	00000000 
00000131 l       .debug_str	00000000 
00000134 l       .debug_str	00000000 
0000013b l       .debug_str	00000000 
0000014d l       .debug_str	00000000 
00000156 l       .debug_str	00000000 
00000165 l       .debug_str	00000000 
00000169 l       .debug_str	00000000 
00000171 l       .debug_str	00000000 
00000176 l       .debug_str	00000000 
0000017d l       .debug_str	00000000 
00000181 l       .debug_str	00000000 
00000186 l       .debug_str	00000000 
0000018a l       .debug_str	00000000 
00000190 l       .debug_str	00000000 
00000197 l       .debug_str	00000000 
0000019a l       .debug_str	00000000 
000001a6 l       .debug_str	00000000 
000001ae l       .debug_str	00000000 
000001b2 l       .debug_str	00000000 
000001bd l       .debug_str	00000000 
000001c8 l       .debug_str	00000000 
000001cf l       .debug_str	00000000 
000001e6 l       .debug_str	00000000 
00000247 l       .debug_str	00000000 
00000249 l       .debug_str	00000000 
0000024e l       .debug_str	00000000 
00000252 l       .debug_str	00000000 
000002bb l       .debug_str	00000000 
000002c6 l       .debug_str	00000000 
00000314 l       .debug_str	00000000 
0000036a l       .debug_str	00000000 
00000374 l       .debug_str	00000000 
000003b8 l       .debug_str	00000000 
00000404 l       .debug_str	00000000 
0000040d l       .debug_str	00000000 
0000041d l       .debug_str	00000000 
00000425 l       .debug_str	00000000 
00000481 l       .debug_str	00000000 
000004e5 l       .debug_str	00000000 
000004f1 l       .debug_str	00000000 
000004fa l       .debug_str	00000000 
00000506 l       .debug_str	00000000 
00000512 l       .debug_str	00000000 
0000051b l       .debug_str	00000000 
00000523 l       .debug_str	00000000 
0000052d l       .debug_str	00000000 
00000535 l       .debug_str	00000000 
0000053f l       .debug_str	00000000 
00000554 l       .debug_str	00000000 
0000055b l       .debug_str	00000000 
00000582 l       .debug_str	00000000 
00000589 l       .debug_str	00000000 
00000591 l       .debug_str	00000000 
0000059b l       .debug_str	00000000 
000005a6 l       .debug_str	00000000 
000005af l       .debug_str	00000000 
000005ba l       .debug_str	00000000 
000005c6 l       .debug_str	00000000 
000005ca l       .debug_str	00000000 
000005d3 l       .debug_str	00000000 
000005da l       .debug_str	00000000 
000005e2 l       .debug_str	00000000 
000005ea l       .debug_str	00000000 
000005f4 l       .debug_str	00000000 
000005fa l       .debug_str	00000000 
00000601 l       .debug_str	00000000 
00000608 l       .debug_str	00000000 
00000635 l       .debug_str	00000000 
0000066a l       .debug_str	00000000 
00000670 l       .debug_str	00000000 
00000676 l       .debug_str	00000000 
00000685 l       .debug_str	00000000 
00000695 l       .debug_str	00000000 
000006a5 l       .debug_str	00000000 
000006ad l       .debug_str	00000000 
000006dd l       .debug_str	00000000 
00000742 l       .debug_str	00000000 
000007af l       .debug_str	00000000 
000007b6 l       .debug_str	00000000 
000007be l       .debug_str	00000000 
000007c7 l       .debug_str	00000000 
000007e5 l       .debug_str	00000000 
000007f5 l       .debug_str	00000000 
00000803 l       .debug_str	00000000 
0000080e l       .debug_str	00000000 
0000081b l       .debug_str	00000000 
0000082a l       .debug_str	00000000 
00000840 l       .debug_str	00000000 
0000084a l       .debug_str	00000000 
00000853 l       .debug_str	00000000 
0000085c l       .debug_str	00000000 
00000889 l       .debug_str	00000000 
0000089f l       .debug_str	00000000 
000008aa l       .debug_str	00000000 
000008c0 l       .debug_str	00000000 
000008c8 l       .debug_str	00000000 
000008f0 l       .debug_str	00000000 
00000907 l       .debug_str	00000000 
0000090c l       .debug_str	00000000 
00000914 l       .debug_str	00000000 
0000091d l       .debug_str	00000000 
00000926 l       .debug_str	00000000 
0000092f l       .debug_str	00000000 
00000937 l       .debug_str	00000000 
0000093e l       .debug_str	00000000 
0000094a l       .debug_str	00000000 
00000955 l       .debug_str	00000000 
0000095d l       .debug_str	00000000 
00000965 l       .debug_str	00000000 
00000a6f l       .debug_str	00000000 
00000b81 l       .debug_str	00000000 
00000b8f l       .debug_str	00000000 
00000b9a l       .debug_str	00000000 
00000ba4 l       .debug_str	00000000 
00000baf l       .debug_str	00000000 
00000be4 l       .debug_str	00000000 
00000c6d l       .debug_str	00000000 
00000cfe l       .debug_str	00000000 
00000d0c l       .debug_str	00000000 
00000d72 l       .debug_str	00000000 
00000de0 l       .debug_str	00000000 
00000df6 l       .debug_str	00000000 
00000e06 l       .debug_str	00000000 
00000e15 l       .debug_str	00000000 
00000e19 l       .debug_str	00000000 
00000e20 l       .debug_str	00000000 
00000e26 l       .debug_str	00000000 
00000e2a l       .debug_str	00000000 
00000e30 l       .debug_str	00000000 
00000e36 l       .debug_str	00000000 
00000e42 l       .debug_str	00000000 
00000e4a l       .debug_str	00000000 
00000e50 l       .debug_str	00000000 
00000e58 l       .debug_str	00000000 
00000e5e l       .debug_str	00000000 
00000e81 l       .debug_str	00000000 
00000e91 l       .debug_str	00000000 
00000ecb l       .debug_str	00000000 
00000f12 l       .debug_str	00000000 
00000f61 l       .debug_str	00000000 
00000f65 l       .debug_str	00000000 
00000f6b l       .debug_str	00000000 
00000f71 l       .debug_str	00000000 
00000f77 l       .debug_str	00000000 
00000f89 l       .debug_str	00000000 
00000fc5 l       .debug_str	00000000 
0000100e l       .debug_str	00000000 
0000105f l       .debug_str	00000000 
00001063 l       .debug_str	00000000 
00001069 l       .debug_str	00000000 
0000106f l       .debug_str	00000000 
00001075 l       .debug_str	00000000 
00001087 l       .debug_str	00000000 
000010c3 l       .debug_str	00000000 
0000110c l       .debug_str	00000000 
0000115d l       .debug_str	00000000 
00001161 l       .debug_str	00000000 
00001167 l       .debug_str	00000000 
0000116d l       .debug_str	00000000 
00001173 l       .debug_str	00000000 
00001179 l       .debug_str	00000000 
0000118a l       .debug_str	00000000 
000011c5 l       .debug_str	00000000 
0000120d l       .debug_str	00000000 
0000125d l       .debug_str	00000000 
00001262 l       .debug_str	00000000 
00001267 l       .debug_str	00000000 
0000126b l       .debug_str	00000000 
00001271 l       .debug_str	00000000 
00001277 l       .debug_str	00000000 
0000127d l       .debug_str	00000000 
0000128e l       .debug_str	00000000 
000012c9 l       .debug_str	00000000 
00001311 l       .debug_str	00000000 
00001361 l       .debug_str	00000000 
00001365 l       .debug_str	00000000 
0000136e l       .debug_str	00000000 
0000137f l       .debug_str	00000000 
000013ba l       .debug_str	00000000 
00001402 l       .debug_str	00000000 
00001452 l       .debug_str	00000000 
00001457 l       .debug_str	00000000 
0000145b l       .debug_str	00000000 
00001464 l       .debug_str	00000000 
0000146b l       .debug_str	00000000 
00001473 l       .debug_str	00000000 
00001485 l       .debug_str	00000000 
000014c1 l       .debug_str	00000000 
0000150a l       .debug_str	00000000 
0000155b l       .debug_str	00000000 
0000155f l       .debug_str	00000000 
00001565 l       .debug_str	00000000 
0000156b l       .debug_str	00000000 
00001571 l       .debug_str	00000000 
00001577 l       .debug_str	00000000 
0000157f l       .debug_str	00000000 
0000158d l       .debug_str	00000000 
0000159c l       .debug_str	00000000 
000015ad l       .debug_str	00000000 
000015b8 l       .debug_str	00000000 
000015c3 l       .debug_str	00000000 
000015ce l       .debug_str	00000000 
000015d5 l       .debug_str	00000000 
000015f8 l       .debug_str	00000000 
0000160a l       .debug_str	00000000 
00001646 l       .debug_str	00000000 
0000168f l       .debug_str	00000000 
000016e0 l       .debug_str	00000000 
000016e4 l       .debug_str	00000000 
000016ee l       .debug_str	00000000 
00001700 l       .debug_str	00000000 
0000173c l       .debug_str	00000000 
00001785 l       .debug_str	00000000 
000017d6 l       .debug_str	00000000 
000017db l       .debug_str	00000000 
000017e5 l       .debug_str	00000000 
000017f7 l       .debug_str	00000000 
00001833 l       .debug_str	00000000 
0000187c l       .debug_str	00000000 
000018cd l       .debug_str	00000000 
000018e1 l       .debug_str	00000000 
000018e5 l       .debug_str	00000000 
000018f3 l       .debug_str	00000000 
00001903 l       .debug_str	00000000 
0000190c l       .debug_str	00000000 
00001917 l       .debug_str	00000000 
00001926 l       .debug_str	00000000 
0000193b l       .debug_str	00000000 
00001973 l       .debug_str	00000000 
00001a1e l       .debug_str	00000000 
00001ad1 l       .debug_str	00000000 
00001adc l       .debug_str	00000000 
00001ae5 l       .debug_str	00000000 
00001b06 l       .debug_str	00000000 
00001b19 l       .debug_str	00000000 
00001b56 l       .debug_str	00000000 
00001be7 l       .debug_str	00000000 
00001c80 l       .debug_str	00000000 
00001c9c l       .debug_str	00000000 
00001cef l       .debug_str	00000000 
00001d4a l       .debug_str	00000000 
00001d67 l       .debug_str	00000000 
00001d7b l       .debug_str	00000000 
00001dce l       .debug_str	00000000 
00001e29 l       .debug_str	00000000 
00001e3f l       .debug_str	00000000 
00001e53 l       .debug_str	00000000 
00001ea1 l       .debug_str	00000000 
00001ef7 l       .debug_str	00000000 
00001f00 l       .debug_str	00000000 
00001f0e l       .debug_str	00000000 
00001f46 l       .debug_str	00000000 
00001f4c l       .debug_str	00000000 
00001f54 l       .debug_str	00000000 
00001f5b l       .debug_str	00000000 
00001f63 l       .debug_str	00000000 
00001f6e l       .debug_str	00000000 
00001f76 l       .debug_str	00000000 
00001f85 l       .debug_str	00000000 
00001f89 l       .debug_str	00000000 
00001f94 l       .debug_str	00000000 
00001fa0 l       .debug_str	00000000 
00001fab l       .debug_str	00000000 
00001fbc l       .debug_str	00000000 
00001fc2 l       .debug_str	00000000 
00001fca l       .debug_str	00000000 
00001fd1 l       .debug_str	00000000 
00001fdb l       .debug_str	00000000 
00001fe3 l       .debug_str	00000000 
00001feb l       .debug_str	00000000 
00002014 l       .debug_str	00000000 
0000201f l       .debug_str	00000000 
0000202b l       .debug_str	00000000 
00002033 l       .debug_str	00000000 
0000203c l       .debug_str	00000000 
00002047 l       .debug_str	00000000 
0000204e l       .debug_str	00000000 
00002059 l       .debug_str	00000000 
00002064 l       .debug_str	00000000 
00002074 l       .debug_str	00000000 
0000207e l       .debug_str	00000000 
00002084 l       .debug_str	00000000 
000020ad l       .debug_str	00000000 
000020ec l       .debug_str	00000000 
00002133 l       .debug_str	00000000 
0000213a l       .debug_str	00000000 
00002142 l       .debug_str	00000000 
00002159 l       .debug_str	00000000 
00002162 l       .debug_str	00000000 
00002172 l       .debug_str	00000000 
000021ac l       .debug_str	00000000 
000021c1 l       .debug_str	00000000 
000021ca l       .debug_str	00000000 
0000222e l       .debug_str	00000000 
0000229a l       .debug_str	00000000 
000022a4 l       .debug_str	00000000 
000022b4 l       .debug_str	00000000 
000022c9 l       .debug_str	00000000 
000022d1 l       .debug_str	00000000 
0000233c l       .debug_str	00000000 
000023af l       .debug_str	00000000 
000023b6 l       .debug_str	00000000 
000023be l       .debug_str	00000000 
000023dc l       .debug_str	00000000 
000023ec l       .debug_str	00000000 
00002426 l       .debug_str	00000000 
0000243b l       .debug_str	00000000 
0000244e l       .debug_str	00000000 
00002463 l       .debug_str	00000000 
0000246a l       .debug_str	00000000 
0000247f l       .debug_str	00000000 
000024b0 l       .debug_str	00000000 
00002533 l       .debug_str	00000000 
000025be l       .debug_str	00000000 
000025c5 l       .debug_str	00000000 
000025cd l       .debug_str	00000000 
000025eb l       .debug_str	00000000 
000025fb l       .debug_str	00000000 
0000263d l       .debug_str	00000000 
00002647 l       .debug_str	00000000 
00002654 l       .debug_str	00000000 
0000265c l       .debug_str	00000000 
00002665 l       .debug_str	00000000 
0000266c l       .debug_str	00000000 
00002672 l       .debug_str	00000000 
00002678 l       .debug_str	00000000 
0000267d l       .debug_str	00000000 
000026b3 l       .debug_str	00000000 
000026c0 l       .debug_str	00000000 
000026f6 l       .debug_str	00000000 
00002709 l       .debug_str	00000000 
00002745 l       .debug_str	00000000 
00002756 l       .debug_str	00000000 
0000275b l       .debug_str	00000000 
00002795 l       .debug_str	00000000 
0000279c l       .debug_str	00000000 
0000279f l       .debug_str	00000000 
000027a3 l       .debug_str	00000000 
000027aa l       .debug_str	00000000 
000027ae l       .debug_str	00000000 
000027b1 l       .debug_str	00000000 
000027b4 l       .debug_str	00000000 
000027b9 l       .debug_str	00000000 
000027bf l       .debug_str	00000000 
000027c6 l       .debug_str	00000000 
000027ce l       .debug_str	00000000 
000027d8 l       .debug_str	00000000 
000027db l       .debug_str	00000000 
000027ea l       .debug_str	00000000 
000027f4 l       .debug_str	00000000 
000027fc l       .debug_str	00000000 
00002807 l       .debug_str	00000000 
00002812 l       .debug_str	00000000 
0000281f l       .debug_str	00000000 
0000282a l       .debug_str	00000000 
00002832 l       .debug_str	00000000 
0000283d l       .debug_str	00000000 
00002848 l       .debug_str	00000000 
00002852 l       .debug_str	00000000 
0000285d l       .debug_str	00000000 
00002868 l       .debug_str	00000000 
00002875 l       .debug_str	00000000 
00002881 l       .debug_str	00000000 
0000288e l       .debug_str	00000000 
0000289c l       .debug_str	00000000 
000028a6 l       .debug_str	00000000 
000028b3 l       .debug_str	00000000 
000028bf l       .debug_str	00000000 
000028c3 l       .debug_str	00000000 
000028cc l       .debug_str	00000000 
00002929 l       .debug_str	00000000 
0000292e l       .debug_str	00000000 
00002933 l       .debug_str	00000000 
00002935 l       .debug_str	00000000 
0000293b l       .debug_str	00000000 
00002940 l       .debug_str	00000000 
00002945 l       .debug_str	00000000 
0000294b l       .debug_str	00000000 
00002959 l       .debug_str	00000000 
00002963 l       .debug_str	00000000 
00002967 l       .debug_str	00000000 
0000296f l       .debug_str	00000000 
00002977 l       .debug_str	00000000 
0000297e l       .debug_str	00000000 
0000298a l       .debug_str	00000000 
00002995 l       .debug_str	00000000 
0000299c l       .debug_str	00000000 
000029a2 l       .debug_str	00000000 
000029a6 l       .debug_str	00000000 
000029ac l       .debug_str	00000000 
000029b2 l       .debug_str	00000000 
000029b5 l       .debug_str	00000000 
000029c4 l       .debug_str	00000000 
000029c8 l       .debug_str	00000000 
000029d1 l       .debug_str	00000000 
000029dd l       .debug_str	00000000 
000029f6 l       .debug_str	00000000 
000029fb l       .debug_str	00000000 
00002a0c l       .debug_str	00000000 
00002a16 l       .debug_str	00000000 
00002a74 l       .debug_str	00000000 
00002a7f l       .debug_str	00000000 
00002a9c l       .debug_str	00000000 
00002aa0 l       .debug_str	00000000 
00002aa8 l       .debug_str	00000000 
00002abf l       .debug_str	00000000 
00002ae3 l       .debug_str	00000000 
00002aff l       .debug_str	00000000 
00002b04 l       .debug_str	00000000 
00002b1d l       .debug_str	00000000 
00002b27 l       .debug_str	00000000 
00002b41 l       .debug_str	00000000 
00002b9e l       .debug_str	00000000 
00002ba3 l       .debug_str	00000000 
00002bff l       .debug_str	00000000 
00002c03 l       .debug_str	00000000 
00002c76 l       .debug_str	00000000 
00002ca8 l       .debug_str	00000000 
00002cbc l       .debug_str	00000000 
00002cc5 l       .debug_str	00000000 
00002ccc l       .debug_str	00000000 
00002cd7 l       .debug_str	00000000 
00002ce2 l       .debug_str	00000000 
00002ce6 l       .debug_str	00000000 
00002ceb l       .debug_str	00000000 
00002cf4 l       .debug_str	00000000 
00002d36 l       .debug_str	00000000 
00002d80 l       .debug_str	00000000 
00002d87 l       .debug_str	00000000 
00002d95 l       .debug_str	00000000 
00002da2 l       .debug_str	00000000 
00002dca l       .debug_str	00000000 
00002dfe l       .debug_str	00000000 
00002e06 l       .debug_str	00000000 
00002e10 l       .debug_str	00000000 
00002e16 l       .debug_str	00000000 
00002e1b l       .debug_str	00000000 
00002e23 l       .debug_str	00000000 
00002e2c l       .debug_str	00000000 
00002e42 l       .debug_str	00000000 
00002e60 l       .debug_str	00000000 
00002e69 l       .debug_str	00000000 
00002e72 l       .debug_str	00000000 
00002e88 l       .debug_str	00000000 
00002ea6 l       .debug_str	00000000 
00002eab l       .debug_str	00000000 
00002eaf l       .debug_str	00000000 
00002eb8 l       .debug_str	00000000 
00002ece l       .debug_str	00000000 
00002eec l       .debug_str	00000000 
00002ef3 l       .debug_str	00000000 
00002f08 l       .debug_str	00000000 
00002f25 l       .debug_str	00000000 
00002f2d l       .debug_str	00000000 
00002f37 l       .debug_str	00000000 
00002f4e l       .debug_str	00000000 
00002f6d l       .debug_str	00000000 
00002f77 l       .debug_str	00000000 
00002f7d l       .debug_str	00000000 
00002f8a l       .debug_str	00000000 
00002f8e l       .debug_str	00000000 
00002f96 l       .debug_str	00000000 
00002feb l       .debug_str	00000000 
00003048 l       .debug_str	00000000 
00003050 l       .debug_str	00000000 
00003055 l       .debug_str	00000000 
00003062 l       .debug_str	00000000 
00003068 l       .debug_str	00000000 
00003071 l       .debug_str	00000000 
0000309a l       .debug_str	00000000 
000030ef l       .debug_str	00000000 
0000314c l       .debug_str	00000000 
00003155 l       .debug_str	00000000 
0000317e l       .debug_str	00000000 
000031d3 l       .debug_str	00000000 
00003230 l       .debug_str	00000000 
0000323a l       .debug_str	00000000 
00003263 l       .debug_str	00000000 
000032b8 l       .debug_str	00000000 
00003315 l       .debug_str	00000000 
0000331b l       .debug_str	00000000 
00003344 l       .debug_str	00000000 
00003399 l       .debug_str	00000000 
000033f6 l       .debug_str	00000000 
000033ff l       .debug_str	00000000 
00003428 l       .debug_str	00000000 
0000347d l       .debug_str	00000000 
000034da l       .debug_str	00000000 
000034f5 l       .debug_str	00000000 
000034fb l       .debug_str	00000000 
00003504 l       .debug_str	00000000 
0000350b l       .debug_str	00000000 
00003518 l       .debug_str	00000000 
00003551 l       .debug_str	00000000 
00003592 l       .debug_str	00000000 
00003599 l       .debug_str	00000000 
000035ac l       .debug_str	00000000 
000035c7 l       .debug_str	00000000 
000035e1 l       .debug_str	00000000 
000035e6 l       .debug_str	00000000 
000035f7 l       .debug_str	00000000 
00003610 l       .debug_str	00000000 
00003621 l       .debug_str	00000000 
0000363a l       .debug_str	00000000 
0000364b l       .debug_str	00000000 
00003664 l       .debug_str	00000000 
00003676 l       .debug_str	00000000 
00003690 l       .debug_str	00000000 
000036a0 l       .debug_str	00000000 
000036b8 l       .debug_str	00000000 
000036be l       .debug_str	00000000 
000036d8 l       .debug_str	00000000 
000036dc l       .debug_str	00000000 
000036e0 l       .debug_str	00000000 
000036e5 l       .debug_str	00000000 
000036f1 l       .debug_str	00000000 
00003723 l       .debug_str	00000000 
0000372d l       .debug_str	00000000 
00003739 l       .debug_str	00000000 
0000376b l       .debug_str	00000000 
00003770 l       .debug_str	00000000 
00003777 l       .debug_str	00000000 
000037a0 l       .debug_str	00000000 
000037c8 l       .debug_str	00000000 
00003818 l       .debug_str	00000000 
00003840 l       .debug_str	00000000 
00003882 l       .debug_str	00000000 
000038aa l       .debug_str	00000000 
000038de l       .debug_str	00000000 
00003906 l       .debug_str	00000000 
00003947 l       .debug_str	00000000 
0000396f l       .debug_str	00000000 
000039a2 l       .debug_str	00000000 
000039ca l       .debug_str	00000000 
000039f6 l       .debug_str	00000000 
000039fb l       .debug_str	00000000 
00003a01 l       .debug_str	00000000 
00003a0b l       .debug_str	00000000 
00003a14 l       .debug_str	00000000 
00003a1d l       .debug_str	00000000 
00003a28 l       .debug_str	00000000 
00003a32 l       .debug_str	00000000 
00003a60 l       .debug_str	00000000 
00003a78 l       .debug_str	00000000 
00003a82 l       .debug_str	00000000 
00003aac l       .debug_str	00000000 
00003ab4 l       .debug_str	00000000 
00003abb l       .debug_str	00000000 
00003ae6 l       .debug_str	00000000 
00003b16 l       .debug_str	00000000 
00003b2f l       .debug_str	00000000 
00003b3a l       .debug_str	00000000 
00003b62 l       .debug_str	00000000 
00003b90 l       .debug_str	00000000 
00003b9a l       .debug_str	00000000 
00003ba2 l       .debug_str	00000000 
00003ba9 l       .debug_str	00000000 
00003bb0 l       .debug_str	00000000 
00003bb5 l       .debug_str	00000000 
00003bdf l       .debug_str	00000000 
00003c0e l       .debug_str	00000000 
00003c26 l       .debug_str	00000000 
00003c30 l       .debug_str	00000000 
00003c58 l       .debug_str	00000000 
00003c85 l       .debug_str	00000000 
00003cad l       .debug_str	00000000 
00003cd7 l       .debug_str	00000000 
00003cdf l       .debug_str	00000000 
00003ce8 l       .debug_str	00000000 
00003cf6 l       .debug_str	00000000 
00003cfd l       .debug_str	00000000 
00003d04 l       .debug_str	00000000 
00003d14 l       .debug_str	00000000 
00003d1d l       .debug_str	00000000 
00003d2b l       .debug_str	00000000 
00003d39 l       .debug_str	00000000 
00003d45 l       .debug_str	00000000 
00003d51 l       .debug_str	00000000 
00003d5a l       .debug_str	00000000 
00003d69 l       .debug_str	00000000 
00003d71 l       .debug_str	00000000 
00003d8a l       .debug_str	00000000 
00003d9b l       .debug_str	00000000 
00003da3 l       .debug_str	00000000 
00003dbd l       .debug_str	00000000 
00003dc9 l       .debug_str	00000000 
00003df5 l       .debug_str	00000000 
00003e0e l       .debug_str	00000000 
00003e19 l       .debug_str	00000000 
00003e44 l       .debug_str	00000000 
00003e4d l       .debug_str	00000000 
00003e68 l       .debug_str	00000000 
00003e75 l       .debug_str	00000000 
00003ea2 l       .debug_str	00000000 
00003eaa l       .debug_str	00000000 
00003ed2 l       .debug_str	00000000 
00003ee8 l       .debug_str	00000000 
00003ef3 l       .debug_str	00000000 
00003ef7 l       .debug_str	00000000 
00003f12 l       .debug_str	00000000 
00003f1a l       .debug_str	00000000 
00003f42 l       .debug_str	00000000 
00003f6d l       .debug_str	00000000 
00003f95 l       .debug_str	00000000 
00003fc3 l       .debug_str	00000000 
00003feb l       .debug_str	00000000 
0000401e l       .debug_str	00000000 
00004046 l       .debug_str	00000000 
00004071 l       .debug_str	00000000 
0000407a l       .debug_str	00000000 
0000408f l       .debug_str	00000000 
0000409a l       .debug_str	00000000 
000040a1 l       .debug_str	00000000 
000040c9 l       .debug_str	00000000 
000040f3 l       .debug_str	00000000 
0000411b l       .debug_str	00000000 
00004156 l       .debug_str	00000000 
0000417e l       .debug_str	00000000 
000041bb l       .debug_str	00000000 
000041e3 l       .debug_str	00000000 
00004223 l       .debug_str	00000000 
0000424b l       .debug_str	00000000 
0000427f l       .debug_str	00000000 
00004288 l       .debug_str	00000000 
0000429b l       .debug_str	00000000 
000042a6 l       .debug_str	00000000 
000042b6 l       .debug_str	00000000 
000042d2 l       .debug_str	00000000 
000042e0 l       .debug_str	00000000 
00004308 l       .debug_str	00000000 
00004343 l       .debug_str	00000000 
00004348 l       .debug_str	00000000 
00004354 l       .debug_str	00000000 
00004356 l       .debug_str	00000000 
00004359 l       .debug_str	00000000 
0000436a l       .debug_str	00000000 
00004383 l       .debug_str	00000000 
00004387 l       .debug_str	00000000 
00004391 l       .debug_str	00000000 
0000439d l       .debug_str	00000000 
000043a5 l       .debug_str	00000000 
000043ad l       .debug_str	00000000 
000043b4 l       .debug_str	00000000 
000043bb l       .debug_str	00000000 
000043e2 l       .debug_str	00000000 
00004435 l       .debug_str	00000000 
00004490 l       .debug_str	00000000 
000044a9 l       .debug_str	00000000 
000044b4 l       .debug_str	00000000 
000044e3 l       .debug_str	00000000 
00004517 l       .debug_str	00000000 
0000456d l       .debug_str	00000000 
000045cb l       .debug_str	00000000 
000045f3 l       .debug_str	00000000 
00004636 l       .debug_str	00000000 
00004645 l       .debug_str	00000000 
00004650 l       .debug_str	00000000 
0000465f l       .debug_str	00000000 
00004674 l       .debug_str	00000000 
0000468c l       .debug_str	00000000 
000046df l       .debug_str	00000000 
0000473a l       .debug_str	00000000 
0000474f l       .debug_str	00000000 
00004768 l       .debug_str	00000000 
00004790 l       .debug_str	00000000 
000047d6 l       .debug_str	00000000 
00004808 l       .debug_str	00000000 
00004816 l       .debug_str	00000000 
0000481a l       .debug_str	00000000 
00004828 l       .debug_str	00000000 
00004866 l       .debug_str	00000000 
00004876 l       .debug_str	00000000 
0000487a l       .debug_str	00000000 
0000487f l       .debug_str	00000000 
00004883 l       .debug_str	00000000 
00004888 l       .debug_str	00000000 
0000488e l       .debug_str	00000000 
0000489e l       .debug_str	00000000 
000048aa l       .debug_str	00000000 
000048b6 l       .debug_str	00000000 
000048c2 l       .debug_str	00000000 
000048cf l       .debug_str	00000000 
000048db l       .debug_str	00000000 
000048e9 l       .debug_str	00000000 
00004900 l       .debug_str	00000000 
00004915 l       .debug_str	00000000 
00004918 l       .debug_str	00000000 
00004938 l       .debug_str	00000000 
00004941 l       .debug_str	00000000 
0000497b l       .debug_str	00000000 
0000498c l       .debug_str	00000000 
0000498e l       .debug_str	00000000 
000049bd l       .debug_str	00000000 
000049c8 l       .debug_str	00000000 
000049e2 l       .debug_str	00000000 
000049ee l       .debug_str	00000000 
000049f8 l       .debug_str	00000000 
000049fe l       .debug_str	00000000 
00004a03 l       .debug_str	00000000 
00004a14 l       .debug_str	00000000 
00004a1d l       .debug_str	00000000 
00004a25 l       .debug_str	00000000 
00004a2f l       .debug_str	00000000 
00004a3c l       .debug_str	00000000 
00004a83 l       .debug_str	00000000 
00004aa1 l       .debug_str	00000000 
00004aaa l       .debug_str	00000000 
00004ab2 l       .debug_str	00000000 
00004abb l       .debug_str	00000000 
00004ac2 l       .debug_str	00000000 
00004ac8 l       .debug_str	00000000 
00004b31 l       .debug_str	00000000 
00004ba2 l       .debug_str	00000000 
00004bb0 l       .debug_str	00000000 
00004bc4 l       .debug_str	00000000 
00004c00 l       .debug_str	00000000 
00004c0b l       .debug_str	00000000 
00004c11 l       .debug_str	00000000 
00000000 l     O .bss..L_MergedGlobals	00000041 .L_MergedGlobals
00000000 l     O .rodata..Lanon.b8b19a1dfda4939b48ac32d4017c0cc3.10	00000010 .Lanon.b8b19a1dfda4939b48ac32d4017c0cc3.10
00000000 l     O .rodata..Lanon.b8b19a1dfda4939b48ac32d4017c0cc3.13	00000018 .Lanon.b8b19a1dfda4939b48ac32d4017c0cc3.13
00000000 l     O .rodata..Lanon.b8b19a1dfda4939b48ac32d4017c0cc3.14	0000000a .Lanon.b8b19a1dfda4939b48ac32d4017c0cc3.14
00000000 l     O .rodata..Lanon.b8b19a1dfda4939b48ac32d4017c0cc3.15	0000000d .Lanon.b8b19a1dfda4939b48ac32d4017c0cc3.15
00000000 l     O .rodata..Lanon.b8b19a1dfda4939b48ac32d4017c0cc3.17	00000010 .Lanon.b8b19a1dfda4939b48ac32d4017c0cc3.17
00000000 l     O .rodata..Lanon.b8b19a1dfda4939b48ac32d4017c0cc3.19	00000018 .Lanon.b8b19a1dfda4939b48ac32d4017c0cc3.19
00000000 l     O .rodata..Lanon.b8b19a1dfda4939b48ac32d4017c0cc3.2	00000001 .Lanon.b8b19a1dfda4939b48ac32d4017c0cc3.2
00000000 l     O .rodata..Lanon.b8b19a1dfda4939b48ac32d4017c0cc3.20	00000011 .Lanon.b8b19a1dfda4939b48ac32d4017c0cc3.20
00000000 l     O .rodata..Lanon.b8b19a1dfda4939b48ac32d4017c0cc3.21	00000018 .Lanon.b8b19a1dfda4939b48ac32d4017c0cc3.21
00000000 l     O .rodata..Lanon.b8b19a1dfda4939b48ac32d4017c0cc3.23	00000018 .Lanon.b8b19a1dfda4939b48ac32d4017c0cc3.23
00000000 l     O .rodata..Lanon.b8b19a1dfda4939b48ac32d4017c0cc3.24	00000016 .Lanon.b8b19a1dfda4939b48ac32d4017c0cc3.24
00000000 l     O .rodata..Lanon.b8b19a1dfda4939b48ac32d4017c0cc3.26	00000018 .Lanon.b8b19a1dfda4939b48ac32d4017c0cc3.26
00000000 l     O .rodata..Lanon.b8b19a1dfda4939b48ac32d4017c0cc3.27	00000018 .Lanon.b8b19a1dfda4939b48ac32d4017c0cc3.27
00000000 l     O .rodata..Lanon.b8b19a1dfda4939b48ac32d4017c0cc3.28	00000019 .Lanon.b8b19a1dfda4939b48ac32d4017c0cc3.28
00000000 l     O .rodata..Lanon.b8b19a1dfda4939b48ac32d4017c0cc3.29	0000000a .Lanon.b8b19a1dfda4939b48ac32d4017c0cc3.29
00000000 l     O .rodata.cst8	00000008 .Lanon.b8b19a1dfda4939b48ac32d4017c0cc3.30
00000000 l     O .rodata.cst16	00000010 .Lanon.b8b19a1dfda4939b48ac32d4017c0cc3.31
00000000 l     O .rodata..Lanon.b8b19a1dfda4939b48ac32d4017c0cc3.32	00000010 .Lanon.b8b19a1dfda4939b48ac32d4017c0cc3.32
00000000 l     O .rodata..Lanon.b8b19a1dfda4939b48ac32d4017c0cc3.34	00000018 .Lanon.b8b19a1dfda4939b48ac32d4017c0cc3.34
00000000 l     O .rodata..Lanon.b8b19a1dfda4939b48ac32d4017c0cc3.35	00000010 .Lanon.b8b19a1dfda4939b48ac32d4017c0cc3.35
00000000 l     O .rodata..Lanon.b8b19a1dfda4939b48ac32d4017c0cc3.36	00000010 .Lanon.b8b19a1dfda4939b48ac32d4017c0cc3.36
00000000 l     O .rodata..Lanon.b8b19a1dfda4939b48ac32d4017c0cc3.37	00000011 .Lanon.b8b19a1dfda4939b48ac32d4017c0cc3.37
00000000 l     O .rodata..Lanon.b8b19a1dfda4939b48ac32d4017c0cc3.38	00000011 .Lanon.b8b19a1dfda4939b48ac32d4017c0cc3.38
00000000 l     O .rodata..Lanon.b8b19a1dfda4939b48ac32d4017c0cc3.39	00000010 .Lanon.b8b19a1dfda4939b48ac32d4017c0cc3.39
00000000 l     O .rodata..Lanon.b8b19a1dfda4939b48ac32d4017c0cc3.41	00000018 .Lanon.b8b19a1dfda4939b48ac32d4017c0cc3.41
00000000 l     O .rodata..Lanon.b8b19a1dfda4939b48ac32d4017c0cc3.42	00000010 .Lanon.b8b19a1dfda4939b48ac32d4017c0cc3.42
00000000 l     O .rodata..Lanon.b8b19a1dfda4939b48ac32d4017c0cc3.44	00000018 .Lanon.b8b19a1dfda4939b48ac32d4017c0cc3.44
00000000 l     O .rodata..Lanon.b8b19a1dfda4939b48ac32d4017c0cc3.45	00000007 .Lanon.b8b19a1dfda4939b48ac32d4017c0cc3.45
00000000 l     O .rodata..Lanon.b8b19a1dfda4939b48ac32d4017c0cc3.46	0000000d .Lanon.b8b19a1dfda4939b48ac32d4017c0cc3.46
00000004 l     O .rodata.cst4	00000004 .Lanon.b8b19a1dfda4939b48ac32d4017c0cc3.47
00000000 l     O .rodata..Lanon.b8b19a1dfda4939b48ac32d4017c0cc3.48	00000006 .Lanon.b8b19a1dfda4939b48ac32d4017c0cc3.48
00000000 l     O .rodata..Lanon.b8b19a1dfda4939b48ac32d4017c0cc3.49	00000006 .Lanon.b8b19a1dfda4939b48ac32d4017c0cc3.49
00000000 l     O .rodata..Lanon.b8b19a1dfda4939b48ac32d4017c0cc3.5	00000018 .Lanon.b8b19a1dfda4939b48ac32d4017c0cc3.5
00000000 l     O .rodata..Lanon.b8b19a1dfda4939b48ac32d4017c0cc3.50	00000003 .Lanon.b8b19a1dfda4939b48ac32d4017c0cc3.50
00000000 l     O .rodata..Lanon.b8b19a1dfda4939b48ac32d4017c0cc3.51	00000005 .Lanon.b8b19a1dfda4939b48ac32d4017c0cc3.51
00000000 l     O .rodata..Lanon.b8b19a1dfda4939b48ac32d4017c0cc3.52	00000018 .Lanon.b8b19a1dfda4939b48ac32d4017c0cc3.52
00000000 l     O .rodata..Lanon.b8b19a1dfda4939b48ac32d4017c0cc3.53	0000004b .Lanon.b8b19a1dfda4939b48ac32d4017c0cc3.53
00000000 l     O .rodata..Lanon.b8b19a1dfda4939b48ac32d4017c0cc3.54	00000018 .Lanon.b8b19a1dfda4939b48ac32d4017c0cc3.54
00000000 l     O .rodata..Lanon.b8b19a1dfda4939b48ac32d4017c0cc3.55	00000018 .Lanon.b8b19a1dfda4939b48ac32d4017c0cc3.55
00000000 l     O .rodata..Lanon.b8b19a1dfda4939b48ac32d4017c0cc3.56	00000021 .Lanon.b8b19a1dfda4939b48ac32d4017c0cc3.56
00000000 l     O .rodata..Lanon.b8b19a1dfda4939b48ac32d4017c0cc3.57	00000012 .Lanon.b8b19a1dfda4939b48ac32d4017c0cc3.57
00000000 l     O .rodata..Lanon.b8b19a1dfda4939b48ac32d4017c0cc3.58	00000009 .Lanon.b8b19a1dfda4939b48ac32d4017c0cc3.58
00000008 l     O .rodata.cst8	00000008 .Lanon.b8b19a1dfda4939b48ac32d4017c0cc3.59
00000000 l     O .rodata.cst4	00000004 .Lanon.b8b19a1dfda4939b48ac32d4017c0cc3.6
00000000 l     O .rodata..Lanon.b8b19a1dfda4939b48ac32d4017c0cc3.60	00000001 .Lanon.b8b19a1dfda4939b48ac32d4017c0cc3.60
00000000 l     O .rodata..Lanon.b8b19a1dfda4939b48ac32d4017c0cc3.61	0000000e .Lanon.b8b19a1dfda4939b48ac32d4017c0cc3.61
00000000 l     O .rodata..Lanon.b8b19a1dfda4939b48ac32d4017c0cc3.62	00000002 .Lanon.b8b19a1dfda4939b48ac32d4017c0cc3.62
00000000 l     O .rodata..Lanon.b8b19a1dfda4939b48ac32d4017c0cc3.63	0000000c .Lanon.b8b19a1dfda4939b48ac32d4017c0cc3.63
00000000 l     O .rodata..Lanon.b8b19a1dfda4939b48ac32d4017c0cc3.64	00000009 .Lanon.b8b19a1dfda4939b48ac32d4017c0cc3.64
00000000 l     O .rodata..Lanon.b8b19a1dfda4939b48ac32d4017c0cc3.65	0000000d .Lanon.b8b19a1dfda4939b48ac32d4017c0cc3.65
00000000 l     O .rodata..Lanon.b8b19a1dfda4939b48ac32d4017c0cc3.66	0000000c .Lanon.b8b19a1dfda4939b48ac32d4017c0cc3.66
00000000 l     O .rodata..Lanon.b8b19a1dfda4939b48ac32d4017c0cc3.67	0000000b .Lanon.b8b19a1dfda4939b48ac32d4017c0cc3.67
00000000 l     O .rodata..Lanon.b8b19a1dfda4939b48ac32d4017c0cc3.68	0000000c .Lanon.b8b19a1dfda4939b48ac32d4017c0cc3.68
00000000 l     O .rodata..Lanon.b8b19a1dfda4939b48ac32d4017c0cc3.69	0000000a .Lanon.b8b19a1dfda4939b48ac32d4017c0cc3.69
00000000 l     O .rodata..Lanon.b8b19a1dfda4939b48ac32d4017c0cc3.70	0000000a .Lanon.b8b19a1dfda4939b48ac32d4017c0cc3.70
00000000 l     O .rodata..Lanon.b8b19a1dfda4939b48ac32d4017c0cc3.71	00000009 .Lanon.b8b19a1dfda4939b48ac32d4017c0cc3.71
00000000 l     O .rodata..Lanon.b8b19a1dfda4939b48ac32d4017c0cc3.72	0000000a .Lanon.b8b19a1dfda4939b48ac32d4017c0cc3.72
00000000 l     O .rodata..Lanon.b8b19a1dfda4939b48ac32d4017c0cc3.73	0000000a .Lanon.b8b19a1dfda4939b48ac32d4017c0cc3.73
00000000 l     O .rodata..Lanon.b8b19a1dfda4939b48ac32d4017c0cc3.74	00000007 .Lanon.b8b19a1dfda4939b48ac32d4017c0cc3.74
00000000 l     O .rodata..Lanon.b8b19a1dfda4939b48ac32d4017c0cc3.75	0000000a .Lanon.b8b19a1dfda4939b48ac32d4017c0cc3.75
00000000 l     O .rodata..Lanon.b8b19a1dfda4939b48ac32d4017c0cc3.76	0000000c .Lanon.b8b19a1dfda4939b48ac32d4017c0cc3.76
00000000 l     O .rodata..Lanon.b8b19a1dfda4939b48ac32d4017c0cc3.77	0000000a .Lanon.b8b19a1dfda4939b48ac32d4017c0cc3.77
00000000 l     O .rodata..Lanon.b8b19a1dfda4939b48ac32d4017c0cc3.78	0000000a .Lanon.b8b19a1dfda4939b48ac32d4017c0cc3.78
00000000 l     O .rodata..Lanon.b8b19a1dfda4939b48ac32d4017c0cc3.79	00000007 .Lanon.b8b19a1dfda4939b48ac32d4017c0cc3.79
00000000 l     O .rodata..Lanon.b8b19a1dfda4939b48ac32d4017c0cc3.8	00000018 .Lanon.b8b19a1dfda4939b48ac32d4017c0cc3.8
00000000 l     O .rodata..Lanon.b8b19a1dfda4939b48ac32d4017c0cc3.9	00000010 .Lanon.b8b19a1dfda4939b48ac32d4017c0cc3.9
00000000 l     F .text._ZN42_$LT$$RF$T$u20$as$u20$core..fmt..Debug$GT$3fmt17h1f0136c3ba751a36E	0000003a _ZN42_$LT$$RF$T$u20$as$u20$core..fmt..Debug$GT$3fmt17h1f0136c3ba751a36E
00000000 l     F .text._ZN42_$LT$$RF$T$u20$as$u20$core..fmt..Debug$GT$3fmt17h3fa8abbf6979cbeeE	0000003a _ZN42_$LT$$RF$T$u20$as$u20$core..fmt..Debug$GT$3fmt17h3fa8abbf6979cbeeE
00000000 l     F .text._ZN42_$LT$$RF$T$u20$as$u20$core..fmt..Debug$GT$3fmt17h530cfbedaa48e1ffE	0000003a _ZN42_$LT$$RF$T$u20$as$u20$core..fmt..Debug$GT$3fmt17h530cfbedaa48e1ffE
00000000 l     F .text._ZN42_$LT$$RF$T$u20$as$u20$core..fmt..Debug$GT$3fmt17h62e4b28e7b44a166E	00000036 _ZN42_$LT$$RF$T$u20$as$u20$core..fmt..Debug$GT$3fmt17h62e4b28e7b44a166E
00000000 l     F .text._ZN5mylib13listen_sensor16read_temperature17he2b173009b04e774E	0000052e _ZN5mylib13listen_sensor16read_temperature17he2b173009b04e774E
00000000 l     O .data._ZN5mylib6mynewt2hw6sensor17LISTENER_INTERNAL17h5b34e5ea47eba469E	00000018 _ZN5mylib6mynewt2hw6sensor17LISTENER_INTERNAL17h5b34e5ea47eba469E
00000000 l     F .text._ZN5mylib6mynewt2hw6sensor21null_sensor_data_func17h8c8fbcbcaa41b7f7E	00000004 _ZN5mylib6mynewt2hw6sensor21null_sensor_data_func17h8c8fbcbcaa41b7f7E
00000001 l     O .bss..L_MergedGlobals	00000040 _ZN5mylib6mynewt8encoding12json_context12JSON_CONTEXT17h5aa4665faa64923cE
00000000 l     O .bss._ZN5mylib9send_coap12NETWORK_TASK17hfcc51f12750b4bbfE	00000050 _ZN5mylib9send_coap12NETWORK_TASK17hfcc51f12750b4bbfE
00000000 l     O .bss..L_MergedGlobals	00000001 _ZN5mylib9send_coap16NETWORK_IS_READY17h550bda5aa6c72cc8E.0.0
00000000 l     F .text._ZN5mylib9send_coap17network_task_func17h80783602aca0275eE	0000011a _ZN5mylib9send_coap17network_task_func17h80783602aca0275eE
00000000 l     O .bss._ZN5mylib9send_coap18NETWORK_TASK_STACK17hb88b519d3760d3edE	00000400 _ZN5mylib9send_coap18NETWORK_TASK_STACK17hb88b519d3760d3edE
00000000 l     O .rodata.str.4	00000010 str.4
00000000 l    d  .text._ZN42_$LT$$RF$T$u20$as$u20$core..fmt..Debug$GT$3fmt17h1f0136c3ba751a36E	00000000 .text._ZN42_$LT$$RF$T$u20$as$u20$core..fmt..Debug$GT$3fmt17h1f0136c3ba751a36E
00000000 l    d  .text._ZN42_$LT$$RF$T$u20$as$u20$core..fmt..Debug$GT$3fmt17h3fa8abbf6979cbeeE	00000000 .text._ZN42_$LT$$RF$T$u20$as$u20$core..fmt..Debug$GT$3fmt17h3fa8abbf6979cbeeE
00000000 l    d  .text._ZN42_$LT$$RF$T$u20$as$u20$core..fmt..Debug$GT$3fmt17h530cfbedaa48e1ffE	00000000 .text._ZN42_$LT$$RF$T$u20$as$u20$core..fmt..Debug$GT$3fmt17h530cfbedaa48e1ffE
00000000 l    d  .text._ZN42_$LT$$RF$T$u20$as$u20$core..fmt..Debug$GT$3fmt17h62e4b28e7b44a166E	00000000 .text._ZN42_$LT$$RF$T$u20$as$u20$core..fmt..Debug$GT$3fmt17h62e4b28e7b44a166E
00000000 l    d  .text._ZN86_$LT$mylib..mynewt..encoding..json..json_encoder$u20$as$u20$core..default..Default$GT$7default17h74ef3e3f8bfcfad5E	00000000 .text._ZN86_$LT$mylib..mynewt..encoding..json..json_encoder$u20$as$u20$core..default..Default$GT$7default17h74ef3e3f8bfcfad5E
00000000 l    d  .text._ZN85_$LT$mylib..mynewt..encoding..json..json_enum_t$u20$as$u20$core..default..Default$GT$7default17hb8fb7ff50ec756e0E	00000000 .text._ZN85_$LT$mylib..mynewt..encoding..json..json_enum_t$u20$as$u20$core..default..Default$GT$7default17hb8fb7ff50ec756e0E
00000000 l    d  .text._ZN114_$LT$mylib..mynewt..encoding..json..json_array_t__bindgen_ty_1__bindgen_ty_1$u20$as$u20$core..default..Default$GT$7default17h1112828cb5da557fE	00000000 .text._ZN114_$LT$mylib..mynewt..encoding..json..json_array_t__bindgen_ty_1__bindgen_ty_1$u20$as$u20$core..default..Default$GT$7default17h1112828cb5da557fE
00000000 l    d  .text._ZN100_$LT$mylib..mynewt..encoding..json..json_array_t__bindgen_ty_1$u20$as$u20$core..default..Default$GT$7default17h16593dc2438f23f8E	00000000 .text._ZN100_$LT$mylib..mynewt..encoding..json..json_array_t__bindgen_ty_1$u20$as$u20$core..default..Default$GT$7default17h16593dc2438f23f8E
00000000 l    d  .text._ZN86_$LT$mylib..mynewt..encoding..json..json_array_t$u20$as$u20$core..default..Default$GT$7default17h4491f17a40de2dd3E	00000000 .text._ZN86_$LT$mylib..mynewt..encoding..json..json_array_t$u20$as$u20$core..default..Default$GT$7default17h4491f17a40de2dd3E
00000000 l    d  .text._ZN99_$LT$mylib..mynewt..encoding..json..json_attr_t__bindgen_ty_1$u20$as$u20$core..default..Default$GT$7default17heb68683c39c1f293E	00000000 .text._ZN99_$LT$mylib..mynewt..encoding..json..json_attr_t__bindgen_ty_1$u20$as$u20$core..default..Default$GT$7default17heb68683c39c1f293E
00000000 l    d  .text._ZN85_$LT$mylib..mynewt..encoding..json..json_attr_t$u20$as$u20$core..default..Default$GT$7default17he79dad0131e0fe00E	00000000 .text._ZN85_$LT$mylib..mynewt..encoding..json..json_attr_t$u20$as$u20$core..default..Default$GT$7default17he79dad0131e0fe00E
00000000 l    d  .text._ZN91_$LT$$u5b$u8$u5d$$u20$as$u20$mylib..mynewt..encoding..json_context..ToBytesOptionalNull$GT$21to_bytes_optional_nul17he5c365489b21c4e8E	00000000 .text._ZN91_$LT$$u5b$u8$u5d$$u20$as$u20$mylib..mynewt..encoding..json_context..ToBytesOptionalNull$GT$21to_bytes_optional_nul17he5c365489b21c4e8E
00000000 l    d  .text._ZN82_$LT$str$u20$as$u20$mylib..mynewt..encoding..json_context..ToBytesOptionalNull$GT$21to_bytes_optional_nul17h3de49f39e358682cE	00000000 .text._ZN82_$LT$str$u20$as$u20$mylib..mynewt..encoding..json_context..ToBytesOptionalNull$GT$21to_bytes_optional_nul17h3de49f39e358682cE
00000000 l    d  .text._ZN86_$LT$$RF$str$u20$as$u20$mylib..mynewt..encoding..json_context..ToBytesOptionalNull$GT$21to_bytes_optional_nul17h3f37abd775ab63b7E	00000000 .text._ZN86_$LT$$RF$str$u20$as$u20$mylib..mynewt..encoding..json_context..ToBytesOptionalNull$GT$21to_bytes_optional_nul17h3f37abd775ab63b7E
00000000 l    d  .text._ZN94_$LT$cstr_core..CStr$u20$as$u20$mylib..mynewt..encoding..json_context..ToBytesOptionalNull$GT$21to_bytes_optional_nul17hc03786ccf50dfcd9E	00000000 .text._ZN94_$LT$cstr_core..CStr$u20$as$u20$mylib..mynewt..encoding..json_context..ToBytesOptionalNull$GT$21to_bytes_optional_nul17hc03786ccf50dfcd9E
00000000 l    d  .text._ZN78_$LT$mylib..mynewt..kernel..os..os_event$u20$as$u20$core..default..Default$GT$7default17h60329e49f6af5542E	00000000 .text._ZN78_$LT$mylib..mynewt..kernel..os..os_event$u20$as$u20$core..default..Default$GT$7default17h60329e49f6af5542E
00000000 l    d  .text._ZN80_$LT$mylib..mynewt..kernel..os..os_callout$u20$as$u20$core..default..Default$GT$7default17h59e16564df463ab2E	00000000 .text._ZN80_$LT$mylib..mynewt..kernel..os..os_callout$u20$as$u20$core..default..Default$GT$7default17h59e16564df463ab2E
00000000 l    d  .text._ZN79_$LT$mylib..mynewt..kernel..os..hal_timer$u20$as$u20$core..default..Default$GT$7default17h95eb8861ccb6e581E	00000000 .text._ZN79_$LT$mylib..mynewt..kernel..os..hal_timer$u20$as$u20$core..default..Default$GT$7default17h95eb8861ccb6e581E
00000000 l    d  .text._ZN76_$LT$mylib..mynewt..kernel..os..os_dev$u20$as$u20$core..default..Default$GT$7default17heee54d14943ae30bE	00000000 .text._ZN76_$LT$mylib..mynewt..kernel..os..os_dev$u20$as$u20$core..default..Default$GT$7default17heee54d14943ae30bE
00000000 l    d  .text._ZN77_$LT$mylib..mynewt..kernel..os..os_mbuf$u20$as$u20$core..default..Default$GT$7default17h805a30a4174fc3feE	00000000 .text._ZN77_$LT$mylib..mynewt..kernel..os..os_mbuf$u20$as$u20$core..default..Default$GT$7default17h805a30a4174fc3feE
00000000 l    d  .text._ZN80_$LT$mylib..mynewt..kernel..os..os_mempool$u20$as$u20$core..default..Default$GT$7default17hb91a9779b21a67f5E	00000000 .text._ZN80_$LT$mylib..mynewt..kernel..os..os_mempool$u20$as$u20$core..default..Default$GT$7default17hb91a9779b21a67f5E
00000000 l    d  .text._ZN85_$LT$mylib..mynewt..kernel..os..os_sanity_check$u20$as$u20$core..default..Default$GT$7default17h0580a8ef43068b5cE	00000000 .text._ZN85_$LT$mylib..mynewt..kernel..os..os_sanity_check$u20$as$u20$core..default..Default$GT$7default17h0580a8ef43068b5cE
00000000 l    d  .text._ZN77_$LT$mylib..mynewt..kernel..os..os_task$u20$as$u20$core..default..Default$GT$7default17h6d2c843017fb103aE	00000000 .text._ZN77_$LT$mylib..mynewt..kernel..os..os_task$u20$as$u20$core..default..Default$GT$7default17h6d2c843017fb103aE
00000000 l    d  .text._ZN76_$LT$mylib..mynewt..kernel..os..os_sem$u20$as$u20$core..default..Default$GT$7default17h6997ebc1361d13c1E	00000000 .text._ZN76_$LT$mylib..mynewt..kernel..os..os_sem$u20$as$u20$core..default..Default$GT$7default17h6997ebc1361d13c1E
00000000 l    d  .text._ZN100_$LT$mylib..mynewt..hw..sensor..bindings..os_dev__bindgen_ty_1$u20$as$u20$core..default..Default$GT$7default17hcd4a18262380ebb6E	00000000 .text._ZN100_$LT$mylib..mynewt..hw..sensor..bindings..os_dev__bindgen_ty_1$u20$as$u20$core..default..Default$GT$7default17hcd4a18262380ebb6E
00000000 l    d  .text._ZN93_$LT$mylib..mynewt..hw..sensor..bindings..sensor_data_t$u20$as$u20$core..default..Default$GT$7default17h5e3387a5d7c5a28cE	00000000 .text._ZN93_$LT$mylib..mynewt..hw..sensor..bindings..sensor_data_t$u20$as$u20$core..default..Default$GT$7default17h5e3387a5d7c5a28cE
00000000 l    d  .text._ZN95_$LT$mylib..mynewt..hw..sensor..bindings..sensor_listener$u20$as$u20$core..default..Default$GT$7default17hc95bf8f65b77ba33E	00000000 .text._ZN95_$LT$mylib..mynewt..hw..sensor..bindings..sensor_listener$u20$as$u20$core..default..Default$GT$7default17hc95bf8f65b77ba33E
00000000 l    d  .text._ZN98_$LT$mylib..mynewt..hw..sensor..bindings..sensor_type_traits$u20$as$u20$core..default..Default$GT$7default17h4fbb3273a4fca19fE	00000000 .text._ZN98_$LT$mylib..mynewt..hw..sensor..bindings..sensor_type_traits$u20$as$u20$core..default..Default$GT$7default17h4fbb3273a4fca19fE
00000000 l    d  .text._ZN100_$LT$mylib..mynewt..hw..sensor..bindings..sensor_notify_ev_ctx$u20$as$u20$core..default..Default$GT$7default17h9f43ca6dd3c1b8f4E	00000000 .text._ZN100_$LT$mylib..mynewt..hw..sensor..bindings..sensor_notify_ev_ctx$u20$as$u20$core..default..Default$GT$7default17h9f43ca6dd3c1b8f4E
00000000 l    d  .text._ZN86_$LT$mylib..mynewt..hw..sensor..bindings..sensor$u20$as$u20$core..default..Default$GT$7default17hc1b68b390ba8111bE	00000000 .text._ZN86_$LT$mylib..mynewt..hw..sensor..bindings..sensor$u20$as$u20$core..default..Default$GT$7default17hc1b68b390ba8111bE
00000000 l    d  .text._ZN93_$LT$mylib..mynewt..hw..sensor..bindings.._bindgen_ty_1$u20$as$u20$core..default..Default$GT$7default17h22a737f206bd9fdaE	00000000 .text._ZN93_$LT$mylib..mynewt..hw..sensor..bindings.._bindgen_ty_1$u20$as$u20$core..default..Default$GT$7default17h22a737f206bd9fdaE
00000000 l    d  .text._ZN5mylib6mynewt2hw6sensor21null_sensor_data_func17h8c8fbcbcaa41b7f7E	00000000 .text._ZN5mylib6mynewt2hw6sensor21null_sensor_data_func17h8c8fbcbcaa41b7f7E
00000000 l    d  .text._ZN101_$LT$mylib..mynewt..libs..sensor_coap..json_value__bindgen_ty_1$u20$as$u20$core..default..Default$GT$7default17h89bb081803e0a779E	00000000 .text._ZN101_$LT$mylib..mynewt..libs..sensor_coap..json_value__bindgen_ty_1$u20$as$u20$core..default..Default$GT$7default17h89bb081803e0a779E
00000000 l    d  .text._ZN104_$LT$mylib..mynewt..libs..sensor_network..sensor_network_interface$u20$as$u20$core..default..Default$GT$7default17h84e5157db1edf8f7E	00000000 .text._ZN104_$LT$mylib..mynewt..libs..sensor_network..sensor_network_interface$u20$as$u20$core..default..Default$GT$7default17h84e5157db1edf8f7E
00000000 l    d  .text._ZN5mylib6mynewt6result95_$LT$impl$u20$core..convert..From$LT$mylib..mynewt..result..MynewtError$GT$$u20$for$u20$i32$GT$4from17h1c388bf109d56bacE	00000000 .text._ZN5mylib6mynewt6result95_$LT$impl$u20$core..convert..From$LT$mylib..mynewt..result..MynewtError$GT$$u20$for$u20$i32$GT$4from17h1c388bf109d56bacE
00000000 l    d  .text._ZN5mylib13listen_sensor16read_temperature17he2b173009b04e774E	00000000 .text._ZN5mylib13listen_sensor16read_temperature17he2b173009b04e774E
00000000 l    d  .text._ZN5mylib9send_coap17network_task_func17h80783602aca0275eE	00000000 .text._ZN5mylib9send_coap17network_task_func17h80783602aca0275eE
00000000 l    d  .text.main	00000000 .text.main
00000000 l    d  .text.rust_begin_unwind	00000000 .text.rust_begin_unwind
00000000 l    d  .text._ZN85_$LT$mylib..mynewt..encoding..json_context..JsonError$u20$as$u20$core..fmt..Debug$GT$3fmt17h791993af2606cd45E	00000000 .text._ZN85_$LT$mylib..mynewt..encoding..json_context..JsonError$u20$as$u20$core..fmt..Debug$GT$3fmt17h791993af2606cd45E
00000000 l    d  .text._ZN71_$LT$mylib..mynewt..result..MynewtError$u20$as$u20$core..fmt..Debug$GT$3fmt17h4da449ccb002d0a5E	00000000 .text._ZN71_$LT$mylib..mynewt..result..MynewtError$u20$as$u20$core..fmt..Debug$GT$3fmt17h4da449ccb002d0a5E
00000000 l    d  .rodata..Lanon.b8b19a1dfda4939b48ac32d4017c0cc3.0	00000000 .rodata..Lanon.b8b19a1dfda4939b48ac32d4017c0cc3.0
00000000 l    d  .rodata..Lanon.b8b19a1dfda4939b48ac32d4017c0cc3.1	00000000 .rodata..Lanon.b8b19a1dfda4939b48ac32d4017c0cc3.1
00000000 l    d  .rodata..Lanon.b8b19a1dfda4939b48ac32d4017c0cc3.3	00000000 .rodata..Lanon.b8b19a1dfda4939b48ac32d4017c0cc3.3
00000000 l    d  .rodata..Lanon.b8b19a1dfda4939b48ac32d4017c0cc3.4	00000000 .rodata..Lanon.b8b19a1dfda4939b48ac32d4017c0cc3.4
00000000 l    d  .rodata..Lanon.b8b19a1dfda4939b48ac32d4017c0cc3.7	00000000 .rodata..Lanon.b8b19a1dfda4939b48ac32d4017c0cc3.7
00000000 l    d  .rodata..Lanon.b8b19a1dfda4939b48ac32d4017c0cc3.11	00000000 .rodata..Lanon.b8b19a1dfda4939b48ac32d4017c0cc3.11
00000000 l    d  .rodata..Lanon.b8b19a1dfda4939b48ac32d4017c0cc3.12	00000000 .rodata..Lanon.b8b19a1dfda4939b48ac32d4017c0cc3.12
00000000 l    d  .data._ZN5mylib6mynewt2hw6sensor17LISTENER_INTERNAL17h5b34e5ea47eba469E	00000000 .data._ZN5mylib6mynewt2hw6sensor17LISTENER_INTERNAL17h5b34e5ea47eba469E
00000000 l    d  .rodata..Lanon.b8b19a1dfda4939b48ac32d4017c0cc3.16	00000000 .rodata..Lanon.b8b19a1dfda4939b48ac32d4017c0cc3.16
00000000 l    d  .rodata..Lanon.b8b19a1dfda4939b48ac32d4017c0cc3.18	00000000 .rodata..Lanon.b8b19a1dfda4939b48ac32d4017c0cc3.18
00000000 l    d  .rodata..Lanon.b8b19a1dfda4939b48ac32d4017c0cc3.22	00000000 .rodata..Lanon.b8b19a1dfda4939b48ac32d4017c0cc3.22
00000000 l    d  .rodata..Lanon.b8b19a1dfda4939b48ac32d4017c0cc3.25	00000000 .rodata..Lanon.b8b19a1dfda4939b48ac32d4017c0cc3.25
00000000 l    d  .bss._ZN5mylib9send_coap12NETWORK_TASK17hfcc51f12750b4bbfE	00000000 .bss._ZN5mylib9send_coap12NETWORK_TASK17hfcc51f12750b4bbfE
00000000 l    d  .bss._ZN5mylib9send_coap18NETWORK_TASK_STACK17hb88b519d3760d3edE	00000000 .bss._ZN5mylib9send_coap18NETWORK_TASK_STACK17hb88b519d3760d3edE
00000000 l    d  .rodata..Lanon.b8b19a1dfda4939b48ac32d4017c0cc3.33	00000000 .rodata..Lanon.b8b19a1dfda4939b48ac32d4017c0cc3.33
00000000 l    d  .rodata.str.4	00000000 .rodata.str.4
00000000 l    d  .rodata..Lanon.b8b19a1dfda4939b48ac32d4017c0cc3.40	00000000 .rodata..Lanon.b8b19a1dfda4939b48ac32d4017c0cc3.40
00000000 l    d  .rodata..Lanon.b8b19a1dfda4939b48ac32d4017c0cc3.43	00000000 .rodata..Lanon.b8b19a1dfda4939b48ac32d4017c0cc3.43
00000000 l    d  .bss..L_MergedGlobals	00000000 .bss..L_MergedGlobals
00000000 l    d  .debug_loc	00000000 .debug_loc
00000000 l    d  .debug_abbrev	00000000 .debug_abbrev
00000000 l    d  .debug_info	00000000 .debug_info
00000000 l    d  .debug_ranges	00000000 .debug_ranges
00000000 l    d  .debug_frame	00000000 .debug_frame
00000000 l    d  .debug_line	00000000 .debug_line
00000000 g     F .text._ZN100_$LT$mylib..mynewt..encoding..json..json_array_t__bindgen_ty_1$u20$as$u20$core..default..Default$GT$7default17h16593dc2438f23f8E	00000010 _ZN100_$LT$mylib..mynewt..encoding..json..json_array_t__bindgen_ty_1$u20$as$u20$core..default..Default$GT$7default17h16593dc2438f23f8E
00000000 g     F .text._ZN100_$LT$mylib..mynewt..hw..sensor..bindings..os_dev__bindgen_ty_1$u20$as$u20$core..default..Default$GT$7default17hcd4a18262380ebb6E	00000004 _ZN100_$LT$mylib..mynewt..hw..sensor..bindings..os_dev__bindgen_ty_1$u20$as$u20$core..default..Default$GT$7default17hcd4a18262380ebb6E
00000000 g     F .text._ZN100_$LT$mylib..mynewt..hw..sensor..bindings..os_dev__bindgen_ty_1$u20$as$u20$core..default..Default$GT$7default17hcd4a18262380ebb6E	00000004 _ZN100_$LT$mylib..mynewt..hw..sensor..bindings..sensor__bindgen_ty_1$u20$as$u20$core..default..Default$GT$7default17h202a7a5b2f44a5a5E
00000000 g     F .text._ZN100_$LT$mylib..mynewt..hw..sensor..bindings..os_dev__bindgen_ty_1$u20$as$u20$core..default..Default$GT$7default17hcd4a18262380ebb6E	00000004 _ZN100_$LT$mylib..mynewt..hw..sensor..bindings..sensor__bindgen_ty_2$u20$as$u20$core..default..Default$GT$7default17hdf81e51dd8daf47dE
00000000 g     F .text._ZN100_$LT$mylib..mynewt..hw..sensor..bindings..os_dev__bindgen_ty_1$u20$as$u20$core..default..Default$GT$7default17hcd4a18262380ebb6E	00000004 _ZN100_$LT$mylib..mynewt..hw..sensor..bindings..sensor__bindgen_ty_3$u20$as$u20$core..default..Default$GT$7default17hd1ed0f9a80eee059E
00000000 g     F .text._ZN100_$LT$mylib..mynewt..hw..sensor..bindings..os_dev__bindgen_ty_1$u20$as$u20$core..default..Default$GT$7default17hcd4a18262380ebb6E	00000004 _ZN100_$LT$mylib..mynewt..hw..sensor..bindings..sensor__bindgen_ty_4$u20$as$u20$core..default..Default$GT$7default17h87d7c989cbb458fdE
00000000 g     F .text._ZN100_$LT$mylib..mynewt..hw..sensor..bindings..sensor_notify_ev_ctx$u20$as$u20$core..default..Default$GT$7default17h9f43ca6dd3c1b8f4E	00000006 _ZN100_$LT$mylib..mynewt..hw..sensor..bindings..sensor_notify_ev_ctx$u20$as$u20$core..default..Default$GT$7default17h9f43ca6dd3c1b8f4E
00000000 g     F .text._ZN100_$LT$mylib..mynewt..hw..sensor..bindings..os_dev__bindgen_ty_1$u20$as$u20$core..default..Default$GT$7default17hcd4a18262380ebb6E	00000004 _ZN101_$LT$mylib..mynewt..hw..sensor..bindings..os_task__bindgen_ty_1$u20$as$u20$core..default..Default$GT$7default17h12d10d37930db9bdE
00000000 g     F .text._ZN100_$LT$mylib..mynewt..hw..sensor..bindings..sensor_notify_ev_ctx$u20$as$u20$core..default..Default$GT$7default17h9f43ca6dd3c1b8f4E	00000006 _ZN101_$LT$mylib..mynewt..hw..sensor..bindings..os_task__bindgen_ty_2$u20$as$u20$core..default..Default$GT$7default17h6b1677077b824b58E
00000000 g     F .text._ZN100_$LT$mylib..mynewt..hw..sensor..bindings..os_dev__bindgen_ty_1$u20$as$u20$core..default..Default$GT$7default17hcd4a18262380ebb6E	00000004 _ZN101_$LT$mylib..mynewt..hw..sensor..bindings..os_task__bindgen_ty_3$u20$as$u20$core..default..Default$GT$7default17h541792eaf8ba7dd4E
00000000 g     F .text._ZN101_$LT$mylib..mynewt..libs..sensor_coap..json_value__bindgen_ty_1$u20$as$u20$core..default..Default$GT$7default17h89bb081803e0a779E	0000000c _ZN101_$LT$mylib..mynewt..libs..sensor_coap..json_value__bindgen_ty_1$u20$as$u20$core..default..Default$GT$7default17h89bb081803e0a779E
00000000 g     F .text._ZN100_$LT$mylib..mynewt..hw..sensor..bindings..os_dev__bindgen_ty_1$u20$as$u20$core..default..Default$GT$7default17hcd4a18262380ebb6E	00000004 _ZN101_$LT$mylib..mynewt..libs..sensor_coap..os_mempool__bindgen_ty_1$u20$as$u20$core..default..Default$GT$7default17h9847fc533ff0e454E
00000000 g     F .text._ZN100_$LT$mylib..mynewt..hw..sensor..bindings..os_dev__bindgen_ty_1$u20$as$u20$core..default..Default$GT$7default17hcd4a18262380ebb6E	00000004 _ZN101_$LT$mylib..mynewt..libs..sensor_coap..os_mempool__bindgen_ty_2$u20$as$u20$core..default..Default$GT$7default17hf3980a7dcbcff0a6E
00000000 g     F .text._ZN100_$LT$mylib..mynewt..hw..sensor..bindings..os_dev__bindgen_ty_1$u20$as$u20$core..default..Default$GT$7default17hcd4a18262380ebb6E	00000004 _ZN102_$LT$mylib..mynewt..hw..sensor..bindings..os_event__bindgen_ty_1$u20$as$u20$core..default..Default$GT$7default17h3153fa4382abf670E
00000000 g     F .text._ZN100_$LT$mylib..mynewt..hw..sensor..bindings..os_dev__bindgen_ty_1$u20$as$u20$core..default..Default$GT$7default17hcd4a18262380ebb6E	00000004 _ZN102_$LT$mylib..mynewt..hw..sensor..bindings..os_mutex__bindgen_ty_1$u20$as$u20$core..default..Default$GT$7default17h4a8e8cf45f14ab0dE
00000000 g     F .text._ZN100_$LT$mylib..mynewt..hw..sensor..bindings..os_dev__bindgen_ty_1$u20$as$u20$core..default..Default$GT$7default17hcd4a18262380ebb6E	00000004 _ZN102_$LT$mylib..mynewt..libs..sensor_coap..os_memblock__bindgen_ty_1$u20$as$u20$core..default..Default$GT$7default17h17868ed7ffb78ffaE
00000000 g     F .text._ZN100_$LT$mylib..mynewt..hw..sensor..bindings..sensor_notify_ev_ctx$u20$as$u20$core..default..Default$GT$7default17h9f43ca6dd3c1b8f4E	00000006 _ZN103_$LT$mylib..mynewt..hw..sensor..bindings..os_eventq__bindgen_ty_1$u20$as$u20$core..default..Default$GT$7default17ha6dadbb1902651c2E
00000000 g     F .text._ZN100_$LT$mylib..mynewt..hw..sensor..bindings..os_dev__bindgen_ty_1$u20$as$u20$core..default..Default$GT$7default17hcd4a18262380ebb6E	00000004 _ZN103_$LT$mylib..mynewt..libs..sensor_coap..os_mbuf_pool__bindgen_ty_1$u20$as$u20$core..default..Default$GT$7default17h64429062c56b35afE
00000000 g     F .text._ZN100_$LT$mylib..mynewt..hw..sensor..bindings..sensor_notify_ev_ctx$u20$as$u20$core..default..Default$GT$7default17h9f43ca6dd3c1b8f4E	00000006 _ZN104_$LT$mylib..mynewt..hw..sensor..bindings..os_callout__bindgen_ty_1$u20$as$u20$core..default..Default$GT$7default17h1e2c9d561d7ae53eE
00000000 g     F .text._ZN100_$LT$mylib..mynewt..hw..sensor..bindings..os_dev__bindgen_ty_1$u20$as$u20$core..default..Default$GT$7default17hcd4a18262380ebb6E	00000004 _ZN104_$LT$mylib..mynewt..hw..sensor..bindings..os_mempool__bindgen_ty_1$u20$as$u20$core..default..Default$GT$7default17hf9e98e3b82d49b01E
00000000 g     F .text._ZN100_$LT$mylib..mynewt..hw..sensor..bindings..os_dev__bindgen_ty_1$u20$as$u20$core..default..Default$GT$7default17hcd4a18262380ebb6E	00000004 _ZN104_$LT$mylib..mynewt..hw..sensor..bindings..os_mempool__bindgen_ty_2$u20$as$u20$core..default..Default$GT$7default17hb43af71dfb364093E
00000000 g     F .text._ZN104_$LT$mylib..mynewt..libs..sensor_network..sensor_network_interface$u20$as$u20$core..default..Default$GT$7default17h84e5157db1edf8f7E	0000000e _ZN104_$LT$mylib..mynewt..libs..sensor_network..sensor_network_interface$u20$as$u20$core..default..Default$GT$7default17h84e5157db1edf8f7E
00000000 g     F .text._ZN100_$LT$mylib..mynewt..hw..sensor..bindings..os_dev__bindgen_ty_1$u20$as$u20$core..default..Default$GT$7default17hcd4a18262380ebb6E	00000004 _ZN105_$LT$mylib..mynewt..hw..sensor..bindings..os_memblock__bindgen_ty_1$u20$as$u20$core..default..Default$GT$7default17he67c4afd5849128bE
00000000 g     F .text._ZN100_$LT$mylib..mynewt..hw..sensor..bindings..os_dev__bindgen_ty_1$u20$as$u20$core..default..Default$GT$7default17hcd4a18262380ebb6E	00000004 _ZN106_$LT$mylib..mynewt..libs..mynewt_rust..os_sanity_check__bindgen_ty_1$u20$as$u20$core..default..Default$GT$7default17hca832e9c4f92bcc5E
00000000 g     F .text._ZN100_$LT$mylib..mynewt..hw..sensor..bindings..os_dev__bindgen_ty_1$u20$as$u20$core..default..Default$GT$7default17hcd4a18262380ebb6E	00000004 _ZN106_$LT$mylib..mynewt..libs..mynewt_rust..sensor_listener__bindgen_ty_1$u20$as$u20$core..default..Default$GT$7default17h40c2a9ae59d811f1E
00000000 g     F .text._ZN100_$LT$mylib..mynewt..hw..sensor..bindings..os_dev__bindgen_ty_1$u20$as$u20$core..default..Default$GT$7default17hcd4a18262380ebb6E	00000004 _ZN106_$LT$mylib..mynewt..libs..mynewt_rust..sensor_notifier__bindgen_ty_1$u20$as$u20$core..default..Default$GT$7default17h704bd30905dad423E
00000000 g     F .text._ZN100_$LT$mylib..mynewt..hw..sensor..bindings..os_dev__bindgen_ty_1$u20$as$u20$core..default..Default$GT$7default17hcd4a18262380ebb6E	00000004 _ZN107_$LT$mylib..mynewt..hw..sensor..bindings.._bindgen_ty_1__bindgen_ty_1$u20$as$u20$core..default..Default$GT$7default17hc22e9c3ea1431340E
00000000 g     F .text._ZN100_$LT$mylib..mynewt..hw..sensor..bindings..os_dev__bindgen_ty_1$u20$as$u20$core..default..Default$GT$7default17hcd4a18262380ebb6E	00000004 _ZN107_$LT$mylib..mynewt..kernel..os..os_time_change_listener__bindgen_ty_1$u20$as$u20$core..default..Default$GT$7default17h2f9ac2fcbdc476e9E
00000000 g     F .text._ZN100_$LT$mylib..mynewt..hw..sensor..bindings..os_dev__bindgen_ty_1$u20$as$u20$core..default..Default$GT$7default17hcd4a18262380ebb6E	00000004 _ZN109_$LT$mylib..mynewt..hw..sensor..bindings..os_sanity_check__bindgen_ty_1$u20$as$u20$core..default..Default$GT$7default17h5c07e1b19a12b456E
00000000 g     F .text._ZN100_$LT$mylib..mynewt..hw..sensor..bindings..os_dev__bindgen_ty_1$u20$as$u20$core..default..Default$GT$7default17hcd4a18262380ebb6E	00000004 _ZN109_$LT$mylib..mynewt..hw..sensor..bindings..sensor_listener__bindgen_ty_1$u20$as$u20$core..default..Default$GT$7default17hc203d1a0b687906dE
00000000 g     F .text._ZN100_$LT$mylib..mynewt..hw..sensor..bindings..os_dev__bindgen_ty_1$u20$as$u20$core..default..Default$GT$7default17hcd4a18262380ebb6E	00000004 _ZN109_$LT$mylib..mynewt..hw..sensor..bindings..sensor_notifier__bindgen_ty_1$u20$as$u20$core..default..Default$GT$7default17hdc97dd20760e1907E
00000000 g     F .text._ZN100_$LT$mylib..mynewt..hw..sensor..bindings..os_dev__bindgen_ty_1$u20$as$u20$core..default..Default$GT$7default17hcd4a18262380ebb6E	00000004 _ZN109_$LT$mylib..mynewt..libs..mynewt_rust..sensor_type_traits__bindgen_ty_1$u20$as$u20$core..default..Default$GT$7default17h2e5660034b4eadc9E
00000000 g     F .text._ZN100_$LT$mylib..mynewt..hw..sensor..bindings..sensor_notify_ev_ctx$u20$as$u20$core..default..Default$GT$7default17h9f43ca6dd3c1b8f4E	00000006 _ZN112_$LT$mylib..mynewt..encoding..json..json_value__bindgen_ty_1__bindgen_ty_1$u20$as$u20$core..default..Default$GT$7default17hb0537c58c6ebf82cE
00000000 g     F .text._ZN100_$LT$mylib..mynewt..hw..sensor..bindings..os_dev__bindgen_ty_1$u20$as$u20$core..default..Default$GT$7default17hcd4a18262380ebb6E	00000004 _ZN112_$LT$mylib..mynewt..hw..sensor..bindings..sensor_type_traits__bindgen_ty_1$u20$as$u20$core..default..Default$GT$7default17h1343cb53072b4553E
00000000 g     F .text._ZN114_$LT$mylib..mynewt..encoding..json..json_array_t__bindgen_ty_1__bindgen_ty_1$u20$as$u20$core..default..Default$GT$7default17h1112828cb5da557fE	0000000a _ZN114_$LT$mylib..mynewt..encoding..json..json_array_t__bindgen_ty_1__bindgen_ty_1$u20$as$u20$core..default..Default$GT$7default17h1112828cb5da557fE
00000000 g     F .text._ZN114_$LT$mylib..mynewt..encoding..json..json_array_t__bindgen_ty_1__bindgen_ty_1$u20$as$u20$core..default..Default$GT$7default17h1112828cb5da557fE	0000000a _ZN114_$LT$mylib..mynewt..encoding..json..json_array_t__bindgen_ty_1__bindgen_ty_2$u20$as$u20$core..default..Default$GT$7default17h54942988f3c2c49eE
00000000 g     F .text._ZN100_$LT$mylib..mynewt..hw..sensor..bindings..os_dev__bindgen_ty_1$u20$as$u20$core..default..Default$GT$7default17hcd4a18262380ebb6E	00000004 _ZN114_$LT$mylib..mynewt..encoding..json..json_array_t__bindgen_ty_1__bindgen_ty_3$u20$as$u20$core..default..Default$GT$7default17ha586880d1c1d4e55E
00000000 g     F .text._ZN100_$LT$mylib..mynewt..hw..sensor..bindings..os_dev__bindgen_ty_1$u20$as$u20$core..default..Default$GT$7default17hcd4a18262380ebb6E	00000004 _ZN114_$LT$mylib..mynewt..encoding..json..json_array_t__bindgen_ty_1__bindgen_ty_4$u20$as$u20$core..default..Default$GT$7default17h9eaa83d741e9b711E
00000000 g     F .text._ZN100_$LT$mylib..mynewt..hw..sensor..bindings..os_dev__bindgen_ty_1$u20$as$u20$core..default..Default$GT$7default17hcd4a18262380ebb6E	00000004 _ZN114_$LT$mylib..mynewt..encoding..json..json_array_t__bindgen_ty_1__bindgen_ty_5$u20$as$u20$core..default..Default$GT$7default17hff363b4e1e659f8bE
00000000 g     F .text._ZN100_$LT$mylib..mynewt..hw..sensor..bindings..os_dev__bindgen_ty_1$u20$as$u20$core..default..Default$GT$7default17hcd4a18262380ebb6E	00000004 _ZN114_$LT$mylib..mynewt..encoding..json..json_array_t__bindgen_ty_1__bindgen_ty_6$u20$as$u20$core..default..Default$GT$7default17h87e9a9e628d89438E
00000000 g     F .text._ZN100_$LT$mylib..mynewt..hw..sensor..bindings..sensor_notify_ev_ctx$u20$as$u20$core..default..Default$GT$7default17h9f43ca6dd3c1b8f4E	00000006 _ZN115_$LT$mylib..mynewt..libs..sensor_coap..json_value__bindgen_ty_1__bindgen_ty_1$u20$as$u20$core..default..Default$GT$7default17hc1916502b8b292d7E
00000000         *UND*	00000000 _ZN4core3fmt3num3imp51_$LT$impl$u20$core..fmt..Display$u20$for$u20$u8$GT$3fmt17heb4d046d241d78d0E
00000000         *UND*	00000000 _ZN4core3fmt3num3imp52_$LT$impl$u20$core..fmt..Display$u20$for$u20$i32$GT$3fmt17h33b3bbdbc74b88baE
00000000         *UND*	00000000 _ZN4core3fmt3num3imp52_$LT$impl$u20$core..fmt..Display$u20$for$u20$u32$GT$3fmt17ha7805aa8d849f46cE
00000000         *UND*	00000000 _ZN4core3fmt3num52_$LT$impl$u20$core..fmt..LowerHex$u20$for$u20$u8$GT$3fmt17he275dc913fe9b8e5E
00000000         *UND*	00000000 _ZN4core3fmt3num52_$LT$impl$u20$core..fmt..UpperHex$u20$for$u20$u8$GT$3fmt17h1d24bfddebe6efa8E
00000000         *UND*	00000000 _ZN4core3fmt3num53_$LT$impl$u20$core..fmt..LowerHex$u20$for$u20$i32$GT$3fmt17hb2119167a92723afE
00000000         *UND*	00000000 _ZN4core3fmt3num53_$LT$impl$u20$core..fmt..LowerHex$u20$for$u20$u32$GT$3fmt17hc8816b6e2fbd78aaE
00000000         *UND*	00000000 _ZN4core3fmt3num53_$LT$impl$u20$core..fmt..UpperHex$u20$for$u20$i32$GT$3fmt17hc44988ae29d24532E
00000000         *UND*	00000000 _ZN4core3fmt3num53_$LT$impl$u20$core..fmt..UpperHex$u20$for$u20$u32$GT$3fmt17hc1bd8b99f165c287E
00000000         *UND*	00000000 _ZN4core3fmt8builders10DebugTuple6finish17h24d91625b3672e6dE
00000000         *UND*	00000000 _ZN4core3fmt9Formatter11debug_tuple17h793087e8ecab9022E
00000000         *UND*	00000000 _ZN4core3fmt9Formatter15debug_lower_hex17h6ead2f28bb05b574E
00000000         *UND*	00000000 _ZN4core3fmt9Formatter15debug_upper_hex17hd6d96e6aa5cb78d8E
00000000         *UND*	00000000 _ZN4core5panic8Location4file17h94cc6af18de736c4E
00000000         *UND*	00000000 _ZN4core5panic8Location4line17h3ffc63f14d0a6636E
00000000         *UND*	00000000 _ZN4core5panic9PanicInfo8location17h5226165d8771f8a2E
00000000         *UND*	00000000 _ZN4core5slice20slice_index_len_fail17hedb5bb240677a6b7E
00000000         *UND*	00000000 _ZN4core9panicking18panic_bounds_check17h946762cd0671aec9E
00000000         *UND*	00000000 _ZN4core9panicking5panic17h53ca63c6ac6312f8E
00000000         *UND*	00000000 _ZN4core9panicking9panic_fmt17h6b4d8e87b0965449E
00000000 g     F .text._ZN5mylib6mynewt6result95_$LT$impl$u20$core..convert..From$LT$mylib..mynewt..result..MynewtError$GT$$u20$for$u20$i32$GT$4from17h1c388bf109d56bacE	00000002 _ZN5mylib6mynewt6result95_$LT$impl$u20$core..convert..From$LT$mylib..mynewt..result..MynewtError$GT$$u20$for$u20$i32$GT$4from17h1c388bf109d56bacE
00000000 g     F .text._ZN71_$LT$mylib..mynewt..result..MynewtError$u20$as$u20$core..fmt..Debug$GT$3fmt17h4da449ccb002d0a5E	0000011a _ZN71_$LT$mylib..mynewt..result..MynewtError$u20$as$u20$core..fmt..Debug$GT$3fmt17h4da449ccb002d0a5E
00000000 g     F .text._ZN76_$LT$mylib..mynewt..kernel..os..os_dev$u20$as$u20$core..default..Default$GT$7default17heee54d14943ae30bE	0000000a _ZN76_$LT$mylib..mynewt..kernel..os..os_dev$u20$as$u20$core..default..Default$GT$7default17heee54d14943ae30bE
00000000 g     F .text._ZN76_$LT$mylib..mynewt..kernel..os..os_sem$u20$as$u20$core..default..Default$GT$7default17h6997ebc1361d13c1E	00000008 _ZN76_$LT$mylib..mynewt..kernel..os..os_sem$u20$as$u20$core..default..Default$GT$7default17h6997ebc1361d13c1E
00000000 g     F .text._ZN77_$LT$mylib..mynewt..kernel..os..os_mbuf$u20$as$u20$core..default..Default$GT$7default17h805a30a4174fc3feE	0000000c _ZN77_$LT$mylib..mynewt..kernel..os..os_mbuf$u20$as$u20$core..default..Default$GT$7default17h805a30a4174fc3feE
00000000 g     F .text._ZN77_$LT$mylib..mynewt..kernel..os..os_task$u20$as$u20$core..default..Default$GT$7default17h6d2c843017fb103aE	0000000a _ZN77_$LT$mylib..mynewt..kernel..os..os_task$u20$as$u20$core..default..Default$GT$7default17h6d2c843017fb103aE
00000000 g     F .text._ZN78_$LT$mylib..mynewt..kernel..os..os_event$u20$as$u20$core..default..Default$GT$7default17h60329e49f6af5542E	0000000c _ZN78_$LT$mylib..mynewt..kernel..os..os_event$u20$as$u20$core..default..Default$GT$7default17h60329e49f6af5542E
00000000 g     F .text._ZN114_$LT$mylib..mynewt..encoding..json..json_array_t__bindgen_ty_1__bindgen_ty_1$u20$as$u20$core..default..Default$GT$7default17h1112828cb5da557fE	0000000a _ZN78_$LT$mylib..mynewt..kernel..os..os_mutex$u20$as$u20$core..default..Default$GT$7default17h090fa54d3695b99fE
00000000 g     F .text._ZN79_$LT$mylib..mynewt..kernel..os..hal_timer$u20$as$u20$core..default..Default$GT$7default17h95eb8861ccb6e581E	00000010 _ZN79_$LT$mylib..mynewt..kernel..os..hal_timer$u20$as$u20$core..default..Default$GT$7default17h95eb8861ccb6e581E
00000000 g     F .text._ZN77_$LT$mylib..mynewt..kernel..os..os_mbuf$u20$as$u20$core..default..Default$GT$7default17h805a30a4174fc3feE	0000000c _ZN79_$LT$mylib..mynewt..kernel..os..os_eventq$u20$as$u20$core..default..Default$GT$7default17h435c8d71b7feb852E
00000000 g     F .text._ZN79_$LT$mylib..mynewt..kernel..os..hal_timer$u20$as$u20$core..default..Default$GT$7default17h95eb8861ccb6e581E	00000010 _ZN79_$LT$mylib..mynewt..kernel..os..os_mqueue$u20$as$u20$core..default..Default$GT$7default17hf95b48d61f7f1a9aE
00000000 g     F .text._ZN80_$LT$mylib..mynewt..kernel..os..os_callout$u20$as$u20$core..default..Default$GT$7default17h59e16564df463ab2E	00000014 _ZN80_$LT$mylib..mynewt..kernel..os..os_callout$u20$as$u20$core..default..Default$GT$7default17h59e16564df463ab2E
00000000 g     F .text._ZN80_$LT$mylib..mynewt..kernel..os..os_mempool$u20$as$u20$core..default..Default$GT$7default17hb91a9779b21a67f5E	00000012 _ZN80_$LT$mylib..mynewt..kernel..os..os_mempool$u20$as$u20$core..default..Default$GT$7default17hb91a9779b21a67f5E
00000000 g     F .text._ZN100_$LT$mylib..mynewt..hw..sensor..bindings..os_dev__bindgen_ty_1$u20$as$u20$core..default..Default$GT$7default17hcd4a18262380ebb6E	00000004 _ZN81_$LT$mylib..mynewt..kernel..os..os_memblock$u20$as$u20$core..default..Default$GT$7default17h21b4e327aaa29047E
00000000 g     F .text._ZN100_$LT$mylib..mynewt..hw..sensor..bindings..os_dev__bindgen_ty_1$u20$as$u20$core..default..Default$GT$7default17hcd4a18262380ebb6E	00000004 _ZN81_$LT$mylib..mynewt..kernel..os..os_task_obj$u20$as$u20$core..default..Default$GT$7default17hebbb70f1f8787709E
00000000 g     F .text._ZN100_$LT$mylib..mynewt..hw..sensor..bindings..os_dev__bindgen_ty_1$u20$as$u20$core..default..Default$GT$7default17hcd4a18262380ebb6E	00000004 _ZN82_$LT$mylib..mynewt..encoding..tinycbor..File$u20$as$u20$core..default..Default$GT$7default17h5f1931b50c8cd873E
00000000 g     F .text._ZN114_$LT$mylib..mynewt..encoding..json..json_array_t__bindgen_ty_1__bindgen_ty_1$u20$as$u20$core..default..Default$GT$7default17h1112828cb5da557fE	0000000a _ZN82_$LT$mylib..mynewt..kernel..os..os_mbuf_pool$u20$as$u20$core..default..Default$GT$7default17h7993ddb07318551eE
00000000 g     F .text._ZN100_$LT$mylib..mynewt..hw..sensor..bindings..sensor_notify_ev_ctx$u20$as$u20$core..default..Default$GT$7default17h9f43ca6dd3c1b8f4E	00000006 _ZN82_$LT$mylib..mynewt..kernel..os..os_task_list$u20$as$u20$core..default..Default$GT$7default17h347986c2e4b710baE
00000000 g     F .text._ZN82_$LT$str$u20$as$u20$mylib..mynewt..encoding..json_context..ToBytesOptionalNull$GT$21to_bytes_optional_nul17h3de49f39e358682cE	00000002 _ZN82_$LT$str$u20$as$u20$mylib..mynewt..encoding..json_context..ToBytesOptionalNull$GT$21to_bytes_optional_nul17h3de49f39e358682cE
00000000 g     F .text._ZN100_$LT$mylib..mynewt..encoding..json..json_array_t__bindgen_ty_1$u20$as$u20$core..default..Default$GT$7default17h16593dc2438f23f8E	00000010 _ZN84_$LT$mylib..mynewt..encoding..json..json_value$u20$as$u20$core..default..Default$GT$7default17hc919b539430c1fb4E
00000000 g     F .text._ZN76_$LT$mylib..mynewt..kernel..os..os_sem$u20$as$u20$core..default..Default$GT$7default17h6997ebc1361d13c1E	00000008 _ZN84_$LT$mylib..mynewt..kernel..os..os_mbuf_pkthdr$u20$as$u20$core..default..Default$GT$7default17hbef2ad8bf89206a0E
00000000 g     F .text._ZN76_$LT$mylib..mynewt..kernel..os..os_dev$u20$as$u20$core..default..Default$GT$7default17heee54d14943ae30bE	0000000a _ZN84_$LT$mylib..mynewt..kernel..os..os_mempool_ext$u20$as$u20$core..default..Default$GT$7default17h6174e59d992c33d7E
00000000 g     F .text._ZN100_$LT$mylib..mynewt..hw..sensor..bindings..sensor_notify_ev_ctx$u20$as$u20$core..default..Default$GT$7default17h9f43ca6dd3c1b8f4E	00000006 _ZN84_$LT$mylib..mynewt..kernel..os..os_task_stailq$u20$as$u20$core..default..Default$GT$7default17hfe7b8d16cd92f88fE
00000000 g     F .text._ZN77_$LT$mylib..mynewt..kernel..os..os_mbuf$u20$as$u20$core..default..Default$GT$7default17h805a30a4174fc3feE	0000000c _ZN84_$LT$mylib..mynewt..libs..sensor_coap..os_mbuf$u20$as$u20$core..default..Default$GT$7default17h84e6a528335fbb70E
00000000 g     F .text._ZN85_$LT$mylib..mynewt..encoding..json..json_attr_t$u20$as$u20$core..default..Default$GT$7default17he79dad0131e0fe00E	0000000a _ZN85_$LT$mylib..mynewt..encoding..json..json_attr_t$u20$as$u20$core..default..Default$GT$7default17he79dad0131e0fe00E
00000000 g     F .text._ZN85_$LT$mylib..mynewt..encoding..json..json_enum_t$u20$as$u20$core..default..Default$GT$7default17hb8fb7ff50ec756e0E	00000008 _ZN85_$LT$mylib..mynewt..encoding..json..json_enum_t$u20$as$u20$core..default..Default$GT$7default17hb8fb7ff50ec756e0E
00000000 g     F .text._ZN85_$LT$mylib..mynewt..encoding..json_context..JsonError$u20$as$u20$core..fmt..Debug$GT$3fmt17h791993af2606cd45E	00000034 _ZN85_$LT$mylib..mynewt..encoding..json_context..JsonError$u20$as$u20$core..fmt..Debug$GT$3fmt17h791993af2606cd45E
00000000 g     F .text._ZN100_$LT$mylib..mynewt..hw..sensor..bindings..sensor_notify_ev_ctx$u20$as$u20$core..default..Default$GT$7default17h9f43ca6dd3c1b8f4E	00000006 _ZN85_$LT$mylib..mynewt..kernel..os..os_callout_list$u20$as$u20$core..default..Default$GT$7default17h07171735b2694f58E
00000000 g     F .text._ZN85_$LT$mylib..mynewt..kernel..os..os_sanity_check$u20$as$u20$core..default..Default$GT$7default17h0580a8ef43068b5cE	0000000e _ZN85_$LT$mylib..mynewt..kernel..os..os_sanity_check$u20$as$u20$core..default..Default$GT$7default17h0580a8ef43068b5cE
00000000 g     F .text._ZN5mylib6mynewt6result95_$LT$impl$u20$core..convert..From$LT$mylib..mynewt..result..MynewtError$GT$$u20$for$u20$i32$GT$4from17h1c388bf109d56bacE	00000002 _ZN85_$LT$mylib..mynewt..result..MynewtError$u20$as$u20$core..convert..From$LT$i32$GT$$GT$4from17hae45c884906ff521E
00000000 g     F .text._ZN86_$LT$$RF$str$u20$as$u20$mylib..mynewt..encoding..json_context..ToBytesOptionalNull$GT$21to_bytes_optional_nul17h3f37abd775ab63b7E	00000008 _ZN86_$LT$$RF$str$u20$as$u20$mylib..mynewt..encoding..json_context..ToBytesOptionalNull$GT$21to_bytes_optional_nul17h3f37abd775ab63b7E
00000000 g     F .text._ZN86_$LT$mylib..mynewt..encoding..json..json_array_t$u20$as$u20$core..default..Default$GT$7default17h4491f17a40de2dd3E	0000000a _ZN86_$LT$mylib..mynewt..encoding..json..json_array_t$u20$as$u20$core..default..Default$GT$7default17h4491f17a40de2dd3E
00000000 g     F .text._ZN86_$LT$mylib..mynewt..encoding..json..json_encoder$u20$as$u20$core..default..Default$GT$7default17h74ef3e3f8bfcfad5E	0000000a _ZN86_$LT$mylib..mynewt..encoding..json..json_encoder$u20$as$u20$core..default..Default$GT$7default17h74ef3e3f8bfcfad5E
00000000 g     F .text._ZN86_$LT$mylib..mynewt..hw..sensor..bindings..sensor$u20$as$u20$core..default..Default$GT$7default17hc1b68b390ba8111bE	0000000a _ZN86_$LT$mylib..mynewt..hw..sensor..bindings..sensor$u20$as$u20$core..default..Default$GT$7default17hc1b68b390ba8111bE
00000000 g     F .text._ZN77_$LT$mylib..mynewt..kernel..os..os_mbuf$u20$as$u20$core..default..Default$GT$7default17h805a30a4174fc3feE	0000000c _ZN87_$LT$mylib..mynewt..encoding..tinycbor..CborValue$u20$as$u20$core..default..Default$GT$7default17hd30f92e3ad413937E
00000000 g     F .text._ZN80_$LT$mylib..mynewt..kernel..os..os_mempool$u20$as$u20$core..default..Default$GT$7default17hb91a9779b21a67f5E	00000012 _ZN87_$LT$mylib..mynewt..libs..sensor_coap..os_mempool$u20$as$u20$core..default..Default$GT$7default17h4776d304279fc383E
00000000 g     F .text._ZN114_$LT$mylib..mynewt..encoding..json..json_array_t__bindgen_ty_1__bindgen_ty_1$u20$as$u20$core..default..Default$GT$7default17h1112828cb5da557fE	0000000a _ZN88_$LT$mylib..mynewt..encoding..tinycbor..CborParser$u20$as$u20$core..default..Default$GT$7default17hb9d63c796775d6e6E
00000000 g     F .text._ZN100_$LT$mylib..mynewt..hw..sensor..bindings..sensor_notify_ev_ctx$u20$as$u20$core..default..Default$GT$7default17h9f43ca6dd3c1b8f4E	00000006 _ZN88_$LT$mylib..mynewt..encoding..tinycbor..cbor_iovec$u20$as$u20$core..default..Default$GT$7default17h5c55d776aa1edf7cE
00000000 g     F .text._ZN100_$LT$mylib..mynewt..hw..sensor..bindings..os_dev__bindgen_ty_1$u20$as$u20$core..default..Default$GT$7default17hcd4a18262380ebb6E	00000004 _ZN88_$LT$mylib..mynewt..libs..sensor_coap..os_memblock$u20$as$u20$core..default..Default$GT$7default17h4c6babd4817b5dc9E
00000000 g     F .text._ZN77_$LT$mylib..mynewt..kernel..os..os_mbuf$u20$as$u20$core..default..Default$GT$7default17h805a30a4174fc3feE	0000000c _ZN89_$LT$mylib..mynewt..encoding..tinycbor..CborEncoder$u20$as$u20$core..default..Default$GT$7default17h0028831f9d3d7384E
00000000 g     F .text._ZN85_$LT$mylib..mynewt..kernel..os..os_sanity_check$u20$as$u20$core..default..Default$GT$7default17h0580a8ef43068b5cE	0000000e _ZN89_$LT$mylib..mynewt..kernel..os..os_time_change_info$u20$as$u20$core..default..Default$GT$7default17h1d324dbc6106dbc7E
00000000 g     F .text._ZN114_$LT$mylib..mynewt..encoding..json..json_array_t__bindgen_ty_1__bindgen_ty_1$u20$as$u20$core..default..Default$GT$7default17h1112828cb5da557fE	0000000a _ZN89_$LT$mylib..mynewt..libs..sensor_coap..os_mbuf_pool$u20$as$u20$core..default..Default$GT$7default17h8439915b9e43e5a0E
00000000 g     F .text._ZN77_$LT$mylib..mynewt..kernel..os..os_mbuf$u20$as$u20$core..default..Default$GT$7default17h805a30a4174fc3feE	0000000c _ZN89_$LT$mylib..mynewt..libs..sensor_coap..sensor_value$u20$as$u20$core..default..Default$GT$7default17hc817f58264d6561dE
00000000 g     F .text._ZN104_$LT$mylib..mynewt..libs..sensor_network..sensor_network_interface$u20$as$u20$core..default..Default$GT$7default17h84e5157db1edf8f7E	0000000e _ZN90_$LT$mylib..mynewt..hw..sensor..bindings..sensor_itf$u20$as$u20$core..default..Default$GT$7default17h0a114847adc57b62E
00000000 g     F .text._ZN100_$LT$mylib..mynewt..hw..sensor..bindings..os_dev__bindgen_ty_1$u20$as$u20$core..default..Default$GT$7default17hcd4a18262380ebb6E	00000004 _ZN90_$LT$mylib..mynewt..kernel..os..os_dev__bindgen_ty_1$u20$as$u20$core..default..Default$GT$7default17h73d9bb84f42182f7E
00000000 g     F .text._ZN100_$LT$mylib..mynewt..hw..sensor..bindings..os_dev__bindgen_ty_1$u20$as$u20$core..default..Default$GT$7default17hcd4a18262380ebb6E	00000004 _ZN90_$LT$mylib..mynewt..kernel..os..os_sem__bindgen_ty_1$u20$as$u20$core..default..Default$GT$7default17h184cb39cf20daf48E
00000000 g     F .text._ZN91_$LT$$u5b$u8$u5d$$u20$as$u20$mylib..mynewt..encoding..json_context..ToBytesOptionalNull$GT$21to_bytes_optional_nul17he5c365489b21c4e8E	00000002 _ZN91_$LT$$u5b$u8$u5d$$u20$as$u20$mylib..mynewt..encoding..json_context..ToBytesOptionalNull$GT$21to_bytes_optional_nul17he5c365489b21c4e8E
00000000 g     F .text._ZN100_$LT$mylib..mynewt..hw..sensor..bindings..os_dev__bindgen_ty_1$u20$as$u20$core..default..Default$GT$7default17hcd4a18262380ebb6E	00000004 _ZN91_$LT$mylib..mynewt..kernel..os..os_mbuf__bindgen_ty_1$u20$as$u20$core..default..Default$GT$7default17h6f17eb4ea5a8f2f9E
00000000 g     F .text._ZN100_$LT$mylib..mynewt..hw..sensor..bindings..os_dev__bindgen_ty_1$u20$as$u20$core..default..Default$GT$7default17hcd4a18262380ebb6E	00000004 _ZN91_$LT$mylib..mynewt..kernel..os..os_task__bindgen_ty_1$u20$as$u20$core..default..Default$GT$7default17h9376a795fed675bfE
00000000 g     F .text._ZN100_$LT$mylib..mynewt..hw..sensor..bindings..sensor_notify_ev_ctx$u20$as$u20$core..default..Default$GT$7default17h9f43ca6dd3c1b8f4E	00000006 _ZN91_$LT$mylib..mynewt..kernel..os..os_task__bindgen_ty_2$u20$as$u20$core..default..Default$GT$7default17he4454ad88a4ea808E
00000000 g     F .text._ZN100_$LT$mylib..mynewt..hw..sensor..bindings..os_dev__bindgen_ty_1$u20$as$u20$core..default..Default$GT$7default17hcd4a18262380ebb6E	00000004 _ZN91_$LT$mylib..mynewt..kernel..os..os_task__bindgen_ty_3$u20$as$u20$core..default..Default$GT$7default17h3e0497677508c642E
00000000 g     F .text._ZN100_$LT$mylib..mynewt..hw..sensor..bindings..os_dev__bindgen_ty_1$u20$as$u20$core..default..Default$GT$7default17hcd4a18262380ebb6E	00000004 _ZN92_$LT$mylib..mynewt..kernel..os..os_event__bindgen_ty_1$u20$as$u20$core..default..Default$GT$7default17h9a171e045ad46b75E
00000000 g     F .text._ZN100_$LT$mylib..mynewt..hw..sensor..bindings..os_dev__bindgen_ty_1$u20$as$u20$core..default..Default$GT$7default17hcd4a18262380ebb6E	00000004 _ZN92_$LT$mylib..mynewt..kernel..os..os_mutex__bindgen_ty_1$u20$as$u20$core..default..Default$GT$7default17h4483b388e7f0a6e6E
00000000 g     F .text._ZN93_$LT$mylib..mynewt..hw..sensor..bindings.._bindgen_ty_1$u20$as$u20$core..default..Default$GT$7default17h22a737f206bd9fdaE	0000000a _ZN93_$LT$mylib..mynewt..hw..sensor..bindings.._bindgen_ty_1$u20$as$u20$core..default..Default$GT$7default17h22a737f206bd9fdaE
00000000 g     F .text._ZN93_$LT$mylib..mynewt..hw..sensor..bindings..sensor_data_t$u20$as$u20$core..default..Default$GT$7default17h5e3387a5d7c5a28cE	00000008 _ZN93_$LT$mylib..mynewt..hw..sensor..bindings..sensor_data_t$u20$as$u20$core..default..Default$GT$7default17h5e3387a5d7c5a28cE
00000000 g     F .text._ZN100_$LT$mylib..mynewt..hw..sensor..bindings..sensor_notify_ev_ctx$u20$as$u20$core..default..Default$GT$7default17h9f43ca6dd3c1b8f4E	00000006 _ZN93_$LT$mylib..mynewt..kernel..os..hal_timer__bindgen_ty_1$u20$as$u20$core..default..Default$GT$7default17h27e67fad0cdd12dcE
00000000 g     F .text._ZN100_$LT$mylib..mynewt..hw..sensor..bindings..sensor_notify_ev_ctx$u20$as$u20$core..default..Default$GT$7default17h9f43ca6dd3c1b8f4E	00000006 _ZN93_$LT$mylib..mynewt..kernel..os..os_eventq__bindgen_ty_1$u20$as$u20$core..default..Default$GT$7default17h17f54e13b45139faE
00000000 g     F .text._ZN100_$LT$mylib..mynewt..hw..sensor..bindings..sensor_notify_ev_ctx$u20$as$u20$core..default..Default$GT$7default17h9f43ca6dd3c1b8f4E	00000006 _ZN93_$LT$mylib..mynewt..kernel..os..os_mqueue__bindgen_ty_1$u20$as$u20$core..default..Default$GT$7default17h6144783423a92385E
00000000 g     F .text._ZN114_$LT$mylib..mynewt..encoding..json..json_array_t__bindgen_ty_1__bindgen_ty_1$u20$as$u20$core..default..Default$GT$7default17h1112828cb5da557fE	0000000a _ZN93_$LT$mylib..mynewt..kernel..os..os_time_change_listener$u20$as$u20$core..default..Default$GT$7default17h264a01564110ef26E
00000000 g     F .text._ZN94_$LT$cstr_core..CStr$u20$as$u20$mylib..mynewt..encoding..json_context..ToBytesOptionalNull$GT$21to_bytes_optional_nul17hc03786ccf50dfcd9E	00000002 _ZN94_$LT$cstr_core..CStr$u20$as$u20$mylib..mynewt..encoding..json_context..ToBytesOptionalNull$GT$21to_bytes_optional_nul17hc03786ccf50dfcd9E
00000000 g     F .text._ZN100_$LT$mylib..mynewt..hw..sensor..bindings..sensor_notify_ev_ctx$u20$as$u20$core..default..Default$GT$7default17h9f43ca6dd3c1b8f4E	00000006 _ZN94_$LT$mylib..mynewt..kernel..os..os_callout__bindgen_ty_1$u20$as$u20$core..default..Default$GT$7default17h09972ca1e1dbbce7E
00000000 g     F .text._ZN100_$LT$mylib..mynewt..hw..sensor..bindings..os_dev__bindgen_ty_1$u20$as$u20$core..default..Default$GT$7default17hcd4a18262380ebb6E	00000004 _ZN94_$LT$mylib..mynewt..kernel..os..os_mempool__bindgen_ty_1$u20$as$u20$core..default..Default$GT$7default17h8b4aad59a1b5904fE
00000000 g     F .text._ZN100_$LT$mylib..mynewt..hw..sensor..bindings..os_dev__bindgen_ty_1$u20$as$u20$core..default..Default$GT$7default17hcd4a18262380ebb6E	00000004 _ZN94_$LT$mylib..mynewt..kernel..os..os_mempool__bindgen_ty_2$u20$as$u20$core..default..Default$GT$7default17hb05df16b18863487E
00000000 g     F .text._ZN95_$LT$mylib..mynewt..hw..sensor..bindings..sensor_listener$u20$as$u20$core..default..Default$GT$7default17hc95bf8f65b77ba33E	00000010 _ZN95_$LT$mylib..mynewt..hw..sensor..bindings..sensor_listener$u20$as$u20$core..default..Default$GT$7default17hc95bf8f65b77ba33E
00000000 g     F .text._ZN77_$LT$mylib..mynewt..kernel..os..os_mbuf$u20$as$u20$core..default..Default$GT$7default17h805a30a4174fc3feE	0000000c _ZN95_$LT$mylib..mynewt..hw..sensor..bindings..sensor_notifier$u20$as$u20$core..default..Default$GT$7default17h9d41e9202eef58ebE
00000000 g     F .text._ZN100_$LT$mylib..mynewt..hw..sensor..bindings..sensor_notify_ev_ctx$u20$as$u20$core..default..Default$GT$7default17h9f43ca6dd3c1b8f4E	00000006 _ZN95_$LT$mylib..mynewt..hw..sensor..bindings..sensor_read_ctx$u20$as$u20$core..default..Default$GT$7default17h72cf23fb0e9f2fccE
00000000 g     F .text._ZN100_$LT$mylib..mynewt..hw..sensor..bindings..os_dev__bindgen_ty_1$u20$as$u20$core..default..Default$GT$7default17hcd4a18262380ebb6E	00000004 _ZN95_$LT$mylib..mynewt..kernel..os..os_memblock__bindgen_ty_1$u20$as$u20$core..default..Default$GT$7default17h2946c7b4aa3bf561E
00000000 g     F .text._ZN100_$LT$mylib..mynewt..hw..sensor..bindings..os_dev__bindgen_ty_1$u20$as$u20$core..default..Default$GT$7default17hcd4a18262380ebb6E	00000004 _ZN95_$LT$mylib..mynewt..kernel..os..os_task_obj__bindgen_ty_1$u20$as$u20$core..default..Default$GT$7default17hfe10832761553555E
00000000 g     F .text._ZN95_$LT$mylib..mynewt..hw..sensor..bindings..sensor_listener$u20$as$u20$core..default..Default$GT$7default17hc95bf8f65b77ba33E	00000010 _ZN96_$LT$mylib..mynewt..hw..sensor..bindings..sensor_timestamp$u20$as$u20$core..default..Default$GT$7default17hacbcb9e1c0ab98c2E
00000000 g     F .text._ZN100_$LT$mylib..mynewt..hw..sensor..bindings..os_dev__bindgen_ty_1$u20$as$u20$core..default..Default$GT$7default17hcd4a18262380ebb6E	00000004 _ZN96_$LT$mylib..mynewt..kernel..os..os_mbuf_pool__bindgen_ty_1$u20$as$u20$core..default..Default$GT$7default17he386fb36eb883e22E
00000000 g     F .text._ZN100_$LT$mylib..mynewt..hw..sensor..bindings..os_dev__bindgen_ty_1$u20$as$u20$core..default..Default$GT$7default17hcd4a18262380ebb6E	00000004 _ZN97_$LT$mylib..mynewt..libs..mynewt_rust..os_dev__bindgen_ty_1$u20$as$u20$core..default..Default$GT$7default17hb9be6e854cd05ccbE
00000000 g     F .text._ZN100_$LT$mylib..mynewt..hw..sensor..bindings..os_dev__bindgen_ty_1$u20$as$u20$core..default..Default$GT$7default17hcd4a18262380ebb6E	00000004 _ZN97_$LT$mylib..mynewt..libs..mynewt_rust..sensor__bindgen_ty_1$u20$as$u20$core..default..Default$GT$7default17he8df793035562006E
00000000 g     F .text._ZN100_$LT$mylib..mynewt..hw..sensor..bindings..os_dev__bindgen_ty_1$u20$as$u20$core..default..Default$GT$7default17hcd4a18262380ebb6E	00000004 _ZN97_$LT$mylib..mynewt..libs..mynewt_rust..sensor__bindgen_ty_2$u20$as$u20$core..default..Default$GT$7default17h886d3417d4e7db0fE
00000000 g     F .text._ZN100_$LT$mylib..mynewt..hw..sensor..bindings..os_dev__bindgen_ty_1$u20$as$u20$core..default..Default$GT$7default17hcd4a18262380ebb6E	00000004 _ZN97_$LT$mylib..mynewt..libs..mynewt_rust..sensor__bindgen_ty_3$u20$as$u20$core..default..Default$GT$7default17hb5cd46b36a4a40d8E
00000000 g     F .text._ZN100_$LT$mylib..mynewt..hw..sensor..bindings..os_dev__bindgen_ty_1$u20$as$u20$core..default..Default$GT$7default17hcd4a18262380ebb6E	00000004 _ZN97_$LT$mylib..mynewt..libs..mynewt_rust..sensor__bindgen_ty_4$u20$as$u20$core..default..Default$GT$7default17h667a93c0c34465a2E
00000000 g     F .text._ZN101_$LT$mylib..mynewt..libs..sensor_coap..json_value__bindgen_ty_1$u20$as$u20$core..default..Default$GT$7default17h89bb081803e0a779E	0000000c _ZN98_$LT$mylib..mynewt..encoding..json..json_value__bindgen_ty_1$u20$as$u20$core..default..Default$GT$7default17ha7a65131aa1d3c26E
00000000 g     F .text._ZN85_$LT$mylib..mynewt..encoding..json..json_enum_t$u20$as$u20$core..default..Default$GT$7default17hb8fb7ff50ec756e0E	00000008 _ZN98_$LT$mylib..mynewt..hw..sensor..bindings..sensor_read_ev_ctx$u20$as$u20$core..default..Default$GT$7default17ha90074766d9e7d56E
00000000 g     F .text._ZN98_$LT$mylib..mynewt..hw..sensor..bindings..sensor_type_traits$u20$as$u20$core..default..Default$GT$7default17h4fbb3273a4fca19fE	0000000a _ZN98_$LT$mylib..mynewt..hw..sensor..bindings..sensor_type_traits$u20$as$u20$core..default..Default$GT$7default17h4fbb3273a4fca19fE
00000000 g     F .text._ZN100_$LT$mylib..mynewt..hw..sensor..bindings..os_dev__bindgen_ty_1$u20$as$u20$core..default..Default$GT$7default17hcd4a18262380ebb6E	00000004 _ZN98_$LT$mylib..mynewt..kernel..os..os_mbuf_pkthdr__bindgen_ty_1$u20$as$u20$core..default..Default$GT$7default17h885575c343088f75E
00000000 g     F .text._ZN100_$LT$mylib..mynewt..hw..sensor..bindings..os_dev__bindgen_ty_1$u20$as$u20$core..default..Default$GT$7default17hcd4a18262380ebb6E	00000004 _ZN98_$LT$mylib..mynewt..libs..mynewt_rust..os_task__bindgen_ty_1$u20$as$u20$core..default..Default$GT$7default17h1fa8444de3805a7dE
00000000 g     F .text._ZN100_$LT$mylib..mynewt..hw..sensor..bindings..sensor_notify_ev_ctx$u20$as$u20$core..default..Default$GT$7default17h9f43ca6dd3c1b8f4E	00000006 _ZN98_$LT$mylib..mynewt..libs..mynewt_rust..os_task__bindgen_ty_2$u20$as$u20$core..default..Default$GT$7default17h33a4a581f5235da5E
00000000 g     F .text._ZN100_$LT$mylib..mynewt..hw..sensor..bindings..os_dev__bindgen_ty_1$u20$as$u20$core..default..Default$GT$7default17hcd4a18262380ebb6E	00000004 _ZN98_$LT$mylib..mynewt..libs..mynewt_rust..os_task__bindgen_ty_3$u20$as$u20$core..default..Default$GT$7default17h5fcca9cde27ff40dE
00000000 g     F .text._ZN100_$LT$mylib..mynewt..hw..sensor..bindings..os_dev__bindgen_ty_1$u20$as$u20$core..default..Default$GT$7default17hcd4a18262380ebb6E	00000004 _ZN98_$LT$mylib..mynewt..libs..sensor_coap..os_mbuf__bindgen_ty_1$u20$as$u20$core..default..Default$GT$7default17h0577a84e06995e88E
00000000 g     F .text._ZN99_$LT$mylib..mynewt..encoding..json..json_attr_t__bindgen_ty_1$u20$as$u20$core..default..Default$GT$7default17heb68683c39c1f293E	0000000a _ZN99_$LT$mylib..mynewt..encoding..json..json_attr_t__bindgen_ty_1$u20$as$u20$core..default..Default$GT$7default17heb68683c39c1f293E
00000000 g     F .text._ZN93_$LT$mylib..mynewt..hw..sensor..bindings..sensor_data_t$u20$as$u20$core..default..Default$GT$7default17h5e3387a5d7c5a28cE	00000008 _ZN99_$LT$mylib..mynewt..encoding..json..json_attr_t__bindgen_ty_2$u20$as$u20$core..default..Default$GT$7default17h492562eff138ecb8E
00000000 g     F .text._ZN79_$LT$mylib..mynewt..kernel..os..hal_timer$u20$as$u20$core..default..Default$GT$7default17h95eb8861ccb6e581E	00000010 _ZN99_$LT$mylib..mynewt..hw..sensor..bindings..sensor_notify_os_ev$u20$as$u20$core..default..Default$GT$7default17h711d0e023f7a36b9E
00000000 g     F .text._ZN100_$LT$mylib..mynewt..hw..sensor..bindings..os_dev__bindgen_ty_1$u20$as$u20$core..default..Default$GT$7default17hcd4a18262380ebb6E	00000004 _ZN99_$LT$mylib..mynewt..kernel..os..os_sanity_check__bindgen_ty_1$u20$as$u20$core..default..Default$GT$7default17haa9c32f621892257E
00000000 g     F .text._ZN100_$LT$mylib..mynewt..hw..sensor..bindings..os_dev__bindgen_ty_1$u20$as$u20$core..default..Default$GT$7default17hcd4a18262380ebb6E	00000004 _ZN99_$LT$mylib..mynewt..libs..mynewt_rust..os_event__bindgen_ty_1$u20$as$u20$core..default..Default$GT$7default17hb929b0576c648371E
00000000 g     F .text._ZN100_$LT$mylib..mynewt..hw..sensor..bindings..os_dev__bindgen_ty_1$u20$as$u20$core..default..Default$GT$7default17hcd4a18262380ebb6E	00000004 _ZN99_$LT$mylib..mynewt..libs..mynewt_rust..os_mutex__bindgen_ty_1$u20$as$u20$core..default..Default$GT$7default17hac36a7f9a0939808E
00000000         *UND*	00000000 _ZN9cstr_core4CStr8from_ptr17h8dd780023dafede8E
00000000         *UND*	00000000 __aeabi_memclr4
00000000         *UND*	00000000 __aeabi_memclr8
00000000         *UND*	00000000 __aeabi_memcpy
00000000         *UND*	00000000 __bkpt
00000000         *UND*	00000000 cbor_encode_int
00000000         *UND*	00000000 cbor_encode_text_string
00000000         *UND*	00000000 cbor_encoder_close_container
00000000         *UND*	00000000 cbor_encoder_create_map
00000000         *UND*	00000000 console_buffer
00000000         *UND*	00000000 console_flush
00000000         *UND*	00000000 console_printhex
00000000         *UND*	00000000 device_get_name
00000000         *UND*	00000000 do_collector_post
00000000         *UND*	00000000 do_server_post
00000000         *UND*	00000000 g_encoder
00000000         *UND*	00000000 get_device_id
00000000         *UND*	00000000 get_temp_data
00000000         *UND*	00000000 get_temp_raw_data
00000000         *UND*	00000000 init_collector_post
00000000         *UND*	00000000 init_server_post
00000000         *UND*	00000000 is_collector_node
00000000         *UND*	00000000 is_null_sensor
00000000         *UND*	00000000 is_null_sensor_data
00000000         *UND*	00000000 is_sensor_node
00000000         *UND*	00000000 is_standalone_node
00000000         *UND*	00000000 json_helper_close_array
00000000         *UND*	00000000 json_helper_object_array_end_item
00000000         *UND*	00000000 json_helper_object_array_start_item
00000000         *UND*	00000000 json_helper_set_array
00000000         *UND*	00000000 json_helper_set_int
00000000         *UND*	00000000 json_helper_set_text_string
00000000         *UND*	00000000 json_rep_end_root_object
00000000         *UND*	00000000 json_rep_start_root_object
00000000 g     F .text.main	00000192 main
00000000         *UND*	00000000 null_sensor
00000000         *UND*	00000000 os_eventq_dflt_get
00000000         *UND*	00000000 os_eventq_run
00000000         *UND*	00000000 os_task_init
00000000         *UND*	00000000 os_time_delay
00000000         *UND*	00000000 register_collector_transport
00000000         *UND*	00000000 register_server_transport
00000000         *UND*	00000000 root_map
00000000 g     F .text.rust_begin_unwind	00000072 rust_begin_unwind
00000000         *UND*	00000000 rust_sysinit
00000000         *UND*	00000000 sensor_get_device
00000000         *UND*	00000000 sensor_mgr_find_next_bydevname
00000000         *UND*	00000000 sensor_register_listener
00000000         *UND*	00000000 sensor_set_poll_rate_ms
00000000         *UND*	00000000 should_send_to_collector



Disassembly of section .text._ZN42_$LT$$RF$T$u20$as$u20$core..fmt..Debug$GT$3fmt17h1f0136c3ba751a36E:

00000000 <_ZN42_$LT$$RF$T$u20$as$u20$core..fmt..Debug$GT$3fmt17h1f0136c3ba751a36E>:
_ZN42_$LT$$RF$T$u20$as$u20$core..fmt..Debug$GT$3fmt17h1f0136c3ba751a36E():
/rustc/50a0defd5a93523067ef239936cc2e0755220904/src/libcore/fmt/mod.rs:1914
   0:	b5b0      	push	{r4, r5, r7, lr}
   2:	6805      	ldr	r5, [r0, #0]
_ZN4core3fmt3num50_$LT$impl$u20$core..fmt..Debug$u20$for$u20$u32$GT$3fmt17hc183193e86b0db88E():
/rustc/50a0defd5a93523067ef239936cc2e0755220904/src/libcore/fmt/num.rs:147
   4:	4608      	mov	r0, r1
   6:	460c      	mov	r4, r1
   8:	f7ff fffe 	bl	0 <_ZN4core3fmt9Formatter15debug_lower_hex17h6ead2f28bb05b574E>
   c:	b128      	cbz	r0, 1a <_ZN42_$LT$$RF$T$u20$as$u20$core..fmt..Debug$GT$3fmt17h1f0136c3ba751a36E+0x1a>
/rustc/50a0defd5a93523067ef239936cc2e0755220904/src/libcore/fmt/num.rs:148
   e:	4628      	mov	r0, r5
  10:	4621      	mov	r1, r4
  12:	e8bd 40b0 	ldmia.w	sp!, {r4, r5, r7, lr}
  16:	f7ff bffe 	b.w	0 <_ZN4core3fmt3num53_$LT$impl$u20$core..fmt..LowerHex$u20$for$u20$u32$GT$3fmt17hc8816b6e2fbd78aaE>
/rustc/50a0defd5a93523067ef239936cc2e0755220904/src/libcore/fmt/num.rs:149
  1a:	4620      	mov	r0, r4
  1c:	f7ff fffe 	bl	0 <_ZN4core3fmt9Formatter15debug_upper_hex17hd6d96e6aa5cb78d8E>
  20:	b128      	cbz	r0, 2e <_ZN42_$LT$$RF$T$u20$as$u20$core..fmt..Debug$GT$3fmt17h1f0136c3ba751a36E+0x2e>
/rustc/50a0defd5a93523067ef239936cc2e0755220904/src/libcore/fmt/num.rs:150
  22:	4628      	mov	r0, r5
  24:	4621      	mov	r1, r4
  26:	e8bd 40b0 	ldmia.w	sp!, {r4, r5, r7, lr}
  2a:	f7ff bffe 	b.w	0 <_ZN4core3fmt3num53_$LT$impl$u20$core..fmt..UpperHex$u20$for$u20$u32$GT$3fmt17hc1bd8b99f165c287E>
/rustc/50a0defd5a93523067ef239936cc2e0755220904/src/libcore/fmt/num.rs:152
  2e:	4628      	mov	r0, r5
  30:	4621      	mov	r1, r4
  32:	e8bd 40b0 	ldmia.w	sp!, {r4, r5, r7, lr}
  36:	f7ff bffe 	b.w	0 <_ZN4core3fmt3num3imp52_$LT$impl$u20$core..fmt..Display$u20$for$u20$u32$GT$3fmt17ha7805aa8d849f46cE>

Disassembly of section .text._ZN42_$LT$$RF$T$u20$as$u20$core..fmt..Debug$GT$3fmt17h3fa8abbf6979cbeeE:

00000000 <_ZN42_$LT$$RF$T$u20$as$u20$core..fmt..Debug$GT$3fmt17h3fa8abbf6979cbeeE>:
_ZN42_$LT$$RF$T$u20$as$u20$core..fmt..Debug$GT$3fmt17h3fa8abbf6979cbeeE():
/rustc/50a0defd5a93523067ef239936cc2e0755220904/src/libcore/fmt/mod.rs:1914
   0:	b5b0      	push	{r4, r5, r7, lr}
   2:	6805      	ldr	r5, [r0, #0]
_ZN4core3fmt3num50_$LT$impl$u20$core..fmt..Debug$u20$for$u20$i32$GT$3fmt17hc0a5c2426ccebe61E():
/rustc/50a0defd5a93523067ef239936cc2e0755220904/src/libcore/fmt/num.rs:147
   4:	4608      	mov	r0, r1
   6:	460c      	mov	r4, r1
   8:	f7ff fffe 	bl	0 <_ZN4core3fmt9Formatter15debug_lower_hex17h6ead2f28bb05b574E>
   c:	b128      	cbz	r0, 1a <_ZN42_$LT$$RF$T$u20$as$u20$core..fmt..Debug$GT$3fmt17h3fa8abbf6979cbeeE+0x1a>
/rustc/50a0defd5a93523067ef239936cc2e0755220904/src/libcore/fmt/num.rs:148
   e:	4628      	mov	r0, r5
  10:	4621      	mov	r1, r4
  12:	e8bd 40b0 	ldmia.w	sp!, {r4, r5, r7, lr}
  16:	f7ff bffe 	b.w	0 <_ZN4core3fmt3num53_$LT$impl$u20$core..fmt..LowerHex$u20$for$u20$i32$GT$3fmt17hb2119167a92723afE>
/rustc/50a0defd5a93523067ef239936cc2e0755220904/src/libcore/fmt/num.rs:149
  1a:	4620      	mov	r0, r4
  1c:	f7ff fffe 	bl	0 <_ZN4core3fmt9Formatter15debug_upper_hex17hd6d96e6aa5cb78d8E>
  20:	b128      	cbz	r0, 2e <_ZN42_$LT$$RF$T$u20$as$u20$core..fmt..Debug$GT$3fmt17h3fa8abbf6979cbeeE+0x2e>
/rustc/50a0defd5a93523067ef239936cc2e0755220904/src/libcore/fmt/num.rs:150
  22:	4628      	mov	r0, r5
  24:	4621      	mov	r1, r4
  26:	e8bd 40b0 	ldmia.w	sp!, {r4, r5, r7, lr}
  2a:	f7ff bffe 	b.w	0 <_ZN4core3fmt3num53_$LT$impl$u20$core..fmt..UpperHex$u20$for$u20$i32$GT$3fmt17hc44988ae29d24532E>
/rustc/50a0defd5a93523067ef239936cc2e0755220904/src/libcore/fmt/num.rs:152
  2e:	4628      	mov	r0, r5
  30:	4621      	mov	r1, r4
  32:	e8bd 40b0 	ldmia.w	sp!, {r4, r5, r7, lr}
  36:	f7ff bffe 	b.w	0 <_ZN4core3fmt3num3imp52_$LT$impl$u20$core..fmt..Display$u20$for$u20$i32$GT$3fmt17h33b3bbdbc74b88baE>

Disassembly of section .text._ZN42_$LT$$RF$T$u20$as$u20$core..fmt..Debug$GT$3fmt17h530cfbedaa48e1ffE:

00000000 <_ZN42_$LT$$RF$T$u20$as$u20$core..fmt..Debug$GT$3fmt17h530cfbedaa48e1ffE>:
_ZN42_$LT$$RF$T$u20$as$u20$core..fmt..Debug$GT$3fmt17h530cfbedaa48e1ffE():
/rustc/50a0defd5a93523067ef239936cc2e0755220904/src/libcore/fmt/mod.rs:1914
   0:	b5b0      	push	{r4, r5, r7, lr}
   2:	6805      	ldr	r5, [r0, #0]
_ZN4core3fmt3num49_$LT$impl$u20$core..fmt..Debug$u20$for$u20$u8$GT$3fmt17h271d1c938b44f4eaE():
/rustc/50a0defd5a93523067ef239936cc2e0755220904/src/libcore/fmt/num.rs:147
   4:	4608      	mov	r0, r1
   6:	460c      	mov	r4, r1
   8:	f7ff fffe 	bl	0 <_ZN4core3fmt9Formatter15debug_lower_hex17h6ead2f28bb05b574E>
   c:	b128      	cbz	r0, 1a <_ZN42_$LT$$RF$T$u20$as$u20$core..fmt..Debug$GT$3fmt17h530cfbedaa48e1ffE+0x1a>
/rustc/50a0defd5a93523067ef239936cc2e0755220904/src/libcore/fmt/num.rs:148
   e:	4628      	mov	r0, r5
  10:	4621      	mov	r1, r4
  12:	e8bd 40b0 	ldmia.w	sp!, {r4, r5, r7, lr}
  16:	f7ff bffe 	b.w	0 <_ZN4core3fmt3num52_$LT$impl$u20$core..fmt..LowerHex$u20$for$u20$u8$GT$3fmt17he275dc913fe9b8e5E>
/rustc/50a0defd5a93523067ef239936cc2e0755220904/src/libcore/fmt/num.rs:149
  1a:	4620      	mov	r0, r4
  1c:	f7ff fffe 	bl	0 <_ZN4core3fmt9Formatter15debug_upper_hex17hd6d96e6aa5cb78d8E>
  20:	b128      	cbz	r0, 2e <_ZN42_$LT$$RF$T$u20$as$u20$core..fmt..Debug$GT$3fmt17h530cfbedaa48e1ffE+0x2e>
/rustc/50a0defd5a93523067ef239936cc2e0755220904/src/libcore/fmt/num.rs:150
  22:	4628      	mov	r0, r5
  24:	4621      	mov	r1, r4
  26:	e8bd 40b0 	ldmia.w	sp!, {r4, r5, r7, lr}
  2a:	f7ff bffe 	b.w	0 <_ZN4core3fmt3num52_$LT$impl$u20$core..fmt..UpperHex$u20$for$u20$u8$GT$3fmt17h1d24bfddebe6efa8E>
/rustc/50a0defd5a93523067ef239936cc2e0755220904/src/libcore/fmt/num.rs:152
  2e:	4628      	mov	r0, r5
  30:	4621      	mov	r1, r4
  32:	e8bd 40b0 	ldmia.w	sp!, {r4, r5, r7, lr}
  36:	f7ff bffe 	b.w	0 <_ZN4core3fmt3num3imp51_$LT$impl$u20$core..fmt..Display$u20$for$u20$u8$GT$3fmt17heb4d046d241d78d0E>

Disassembly of section .text._ZN42_$LT$$RF$T$u20$as$u20$core..fmt..Debug$GT$3fmt17h62e4b28e7b44a166E:

00000000 <_ZN42_$LT$$RF$T$u20$as$u20$core..fmt..Debug$GT$3fmt17h62e4b28e7b44a166E>:
_ZN42_$LT$$RF$T$u20$as$u20$core..fmt..Debug$GT$3fmt17h62e4b28e7b44a166E():
/rustc/50a0defd5a93523067ef239936cc2e0755220904/src/libcore/fmt/mod.rs:1914
   0:	b510      	push	{r4, lr}
   2:	b084      	sub	sp, #16
   4:	6800      	ldr	r0, [r0, #0]
   6:	ac01      	add	r4, sp, #4
_ZN85_$LT$mylib..mynewt..encoding..json_context..JsonError$u20$as$u20$core..fmt..Debug$GT$3fmt17h791993af2606cd45E():
/Users/Luppy/mynewt/stm32bluepill-mynewt-sensor/src/mynewt/encoding/json_context.rs:88
        ptr as *mut c_void
    }
}

/// Error codes for JSON encoding failure
#[derive(Debug, PartialEq)]
   8:	7800      	ldrb	r0, [r0, #0]
   a:	2801      	cmp	r0, #1
   c:	d106      	bne.n	1c <_ZN42_$LT$$RF$T$u20$as$u20$core..fmt..Debug$GT$3fmt17h62e4b28e7b44a166E+0x1c>
   e:	f240 0200 	movw	r2, #0
  12:	4620      	mov	r0, r4
  14:	f2c0 0200 	movt	r2, #0
  18:	230e      	movs	r3, #14
  1a:	e005      	b.n	28 <_ZN42_$LT$$RF$T$u20$as$u20$core..fmt..Debug$GT$3fmt17h62e4b28e7b44a166E+0x28>
  1c:	f240 0200 	movw	r2, #0
  20:	4620      	mov	r0, r4
  22:	f2c0 0200 	movt	r2, #0
  26:	2302      	movs	r3, #2
  28:	f7ff fffe 	bl	0 <_ZN4core3fmt9Formatter11debug_tuple17h793087e8ecab9022E>
  2c:	4620      	mov	r0, r4
  2e:	f7ff fffe 	bl	0 <_ZN4core3fmt8builders10DebugTuple6finish17h24d91625b3672e6dE>
_ZN42_$LT$$RF$T$u20$as$u20$core..fmt..Debug$GT$3fmt17h62e4b28e7b44a166E():
/rustc/50a0defd5a93523067ef239936cc2e0755220904/src/libcore/fmt/mod.rs:1914
  32:	b004      	add	sp, #16
  34:	bd10      	pop	{r4, pc}

Disassembly of section .text._ZN86_$LT$mylib..mynewt..encoding..json..json_encoder$u20$as$u20$core..default..Default$GT$7default17h74ef3e3f8bfcfad5E:

00000000 <_ZN86_$LT$mylib..mynewt..encoding..json..json_encoder$u20$as$u20$core..default..Default$GT$7default17h74ef3e3f8bfcfad5E>:
_ZN86_$LT$mylib..mynewt..encoding..json..json_encoder$u20$as$u20$core..default..Default$GT$7default17h74ef3e3f8bfcfad5E():
/Users/Luppy/mynewt/stm32bluepill-mynewt-sensor/src/mynewt/encoding/json.rs:212
    pub je_arg: *mut ::cty::c_void,
    pub _bitfield_1: __BindgenBitfieldUnit<[u8; 1usize], u8>,
    pub je_encode_buf: [::cty::c_char; 64usize],
}
impl Default for json_encoder {
    fn default() -> Self {
   0:	b580      	push	{r7, lr}
_ZN4core3mem6zeroed17h0e97358d3a198163E():
/rustc/50a0defd5a93523067ef239936cc2e0755220904/src/libcore/mem.rs:447
   2:	214c      	movs	r1, #76	; 0x4c
   4:	f7ff fffe 	bl	0 <__aeabi_memclr4>
_ZN86_$LT$mylib..mynewt..encoding..json..json_encoder$u20$as$u20$core..default..Default$GT$7default17h74ef3e3f8bfcfad5E():
/Users/Luppy/mynewt/stm32bluepill-mynewt-sensor/src/mynewt/encoding/json.rs:214
        unsafe { ::core::mem::zeroed() }
    }
   8:	bd80      	pop	{r7, pc}

Disassembly of section .text._ZN85_$LT$mylib..mynewt..encoding..json..json_enum_t$u20$as$u20$core..default..Default$GT$7default17hb8fb7ff50ec756e0E:

00000000 <_ZN85_$LT$mylib..mynewt..encoding..json..json_enum_t$u20$as$u20$core..default..Default$GT$7default17hb8fb7ff50ec756e0E>:
_ZN85_$LT$mylib..mynewt..encoding..json..json_enum_t$u20$as$u20$core..default..Default$GT$7default17hb8fb7ff50ec756e0E():
/Users/Luppy/mynewt/stm32bluepill-mynewt-sensor/src/mynewt/encoding/json.rs:296
    pub value: ::cty::c_longlong,
}
impl Default for json_enum_t {
    fn default() -> Self {
        unsafe { ::core::mem::zeroed() }
    }
   0:	2000      	movs	r0, #0
   2:	2100      	movs	r1, #0
   4:	2200      	movs	r2, #0
   6:	4770      	bx	lr

Disassembly of section .text._ZN114_$LT$mylib..mynewt..encoding..json..json_array_t__bindgen_ty_1__bindgen_ty_1$u20$as$u20$core..default..Default$GT$7default17h1112828cb5da557fE:

00000000 <_ZN114_$LT$mylib..mynewt..encoding..json..json_array_t__bindgen_ty_1__bindgen_ty_1$u20$as$u20$core..default..Default$GT$7default17h1112828cb5da557fE>:
_ZN114_$LT$mylib..mynewt..encoding..json..json_array_t__bindgen_ty_1__bindgen_ty_1$u20$as$u20$core..default..Default$GT$7default17h1112828cb5da557fE():
/Users/Luppy/mynewt/stm32bluepill-mynewt-sensor/src/mynewt/encoding/json.rs:322
    pub subtype: *const json_attr_t,
    pub base: *mut ::cty::c_char,
    pub stride: usize,
}
impl Default for json_array_t__bindgen_ty_1__bindgen_ty_1 {
    fn default() -> Self {
   0:	2100      	movs	r1, #0
_ZN4core3mem6zeroed17h56ff5bb525bf15a8E():
/rustc/50a0defd5a93523067ef239936cc2e0755220904/src/libcore/mem.rs:447
   2:	e9c0 1100 	strd	r1, r1, [r0]
   6:	6081      	str	r1, [r0, #8]
_ZN114_$LT$mylib..mynewt..encoding..json..json_array_t__bindgen_ty_1__bindgen_ty_1$u20$as$u20$core..default..Default$GT$7default17h1112828cb5da557fE():
/Users/Luppy/mynewt/stm32bluepill-mynewt-sensor/src/mynewt/encoding/json.rs:324
        unsafe { ::core::mem::zeroed() }
    }
   8:	4770      	bx	lr

Disassembly of section .text._ZN100_$LT$mylib..mynewt..encoding..json..json_array_t__bindgen_ty_1$u20$as$u20$core..default..Default$GT$7default17h16593dc2438f23f8E:

00000000 <_ZN100_$LT$mylib..mynewt..encoding..json..json_array_t__bindgen_ty_1$u20$as$u20$core..default..Default$GT$7default17h16593dc2438f23f8E>:
_ZN100_$LT$mylib..mynewt..encoding..json..json_array_t__bindgen_ty_1$u20$as$u20$core..default..Default$GT$7default17h16593dc2438f23f8E():
/Users/Luppy/mynewt/stm32bluepill-mynewt-sensor/src/mynewt/encoding/json.rs:374
    fn default() -> Self {
        unsafe { ::core::mem::zeroed() }
    }
}
impl Default for json_array_t__bindgen_ty_1 {
    fn default() -> Self {
   0:	2100      	movs	r1, #0
_ZN4core3mem6zeroed17he4ed684eda0565cfE():
/rustc/50a0defd5a93523067ef239936cc2e0755220904/src/libcore/mem.rs:447
   2:	e9c0 1100 	strd	r1, r1, [r0]
   6:	e9c0 1102 	strd	r1, r1, [r0, #8]
   a:	e9c0 1104 	strd	r1, r1, [r0, #16]
_ZN100_$LT$mylib..mynewt..encoding..json..json_array_t__bindgen_ty_1$u20$as$u20$core..default..Default$GT$7default17h16593dc2438f23f8E():
/Users/Luppy/mynewt/stm32bluepill-mynewt-sensor/src/mynewt/encoding/json.rs:376
        unsafe { ::core::mem::zeroed() }
    }
   e:	4770      	bx	lr

Disassembly of section .text._ZN86_$LT$mylib..mynewt..encoding..json..json_array_t$u20$as$u20$core..default..Default$GT$7default17h4491f17a40de2dd3E:

00000000 <_ZN86_$LT$mylib..mynewt..encoding..json..json_array_t$u20$as$u20$core..default..Default$GT$7default17h4491f17a40de2dd3E>:
_ZN86_$LT$mylib..mynewt..encoding..json..json_array_t$u20$as$u20$core..default..Default$GT$7default17h4491f17a40de2dd3E():
/Users/Luppy/mynewt/stm32bluepill-mynewt-sensor/src/mynewt/encoding/json.rs:379
}
impl Default for json_array_t {
    fn default() -> Self {
   0:	b580      	push	{r7, lr}
_ZN4core3mem6zeroed17h8d21a25ea997ba61E():
/rustc/50a0defd5a93523067ef239936cc2e0755220904/src/libcore/mem.rs:447
   2:	2128      	movs	r1, #40	; 0x28
   4:	f7ff fffe 	bl	0 <__aeabi_memclr8>
_ZN86_$LT$mylib..mynewt..encoding..json..json_array_t$u20$as$u20$core..default..Default$GT$7default17h4491f17a40de2dd3E():
/Users/Luppy/mynewt/stm32bluepill-mynewt-sensor/src/mynewt/encoding/json.rs:381
        unsafe { ::core::mem::zeroed() }
    }
   8:	bd80      	pop	{r7, pc}

Disassembly of section .text._ZN99_$LT$mylib..mynewt..encoding..json..json_attr_t__bindgen_ty_1$u20$as$u20$core..default..Default$GT$7default17heb68683c39c1f293E:

00000000 <_ZN99_$LT$mylib..mynewt..encoding..json..json_attr_t__bindgen_ty_1$u20$as$u20$core..default..Default$GT$7default17heb68683c39c1f293E>:
_ZN99_$LT$mylib..mynewt..encoding..json..json_attr_t__bindgen_ty_1$u20$as$u20$core..default..Default$GT$7default17heb68683c39c1f293E():
/Users/Luppy/mynewt/stm32bluepill-mynewt-sensor/src/mynewt/encoding/json.rs:406
    pub array: __BindgenUnionField<json_array_t>,
    pub offset: __BindgenUnionField<usize>,
    pub bindgen_union_field: [u64; 6usize],
}
impl Default for json_attr_t__bindgen_ty_1 {
    fn default() -> Self {
   0:	b580      	push	{r7, lr}
_ZN4core3mem6zeroed17h218712bd4c8126b9E():
/rustc/50a0defd5a93523067ef239936cc2e0755220904/src/libcore/mem.rs:447
   2:	2130      	movs	r1, #48	; 0x30
   4:	f7ff fffe 	bl	0 <__aeabi_memclr8>
_ZN99_$LT$mylib..mynewt..encoding..json..json_attr_t__bindgen_ty_1$u20$as$u20$core..default..Default$GT$7default17heb68683c39c1f293E():
/Users/Luppy/mynewt/stm32bluepill-mynewt-sensor/src/mynewt/encoding/json.rs:408
        unsafe { ::core::mem::zeroed() }
    }
   8:	bd80      	pop	{r7, pc}

Disassembly of section .text._ZN85_$LT$mylib..mynewt..encoding..json..json_attr_t$u20$as$u20$core..default..Default$GT$7default17he79dad0131e0fe00E:

00000000 <_ZN85_$LT$mylib..mynewt..encoding..json..json_attr_t$u20$as$u20$core..default..Default$GT$7default17he79dad0131e0fe00E>:
_ZN85_$LT$mylib..mynewt..encoding..json..json_attr_t$u20$as$u20$core..default..Default$GT$7default17he79dad0131e0fe00E():
/Users/Luppy/mynewt/stm32bluepill-mynewt-sensor/src/mynewt/encoding/json.rs:426
    fn default() -> Self {
        unsafe { ::core::mem::zeroed() }
    }
}
impl Default for json_attr_t {
    fn default() -> Self {
   0:	b580      	push	{r7, lr}
_ZN4core3mem6zeroed17h47941bd33bef1c8aE():
/rustc/50a0defd5a93523067ef239936cc2e0755220904/src/libcore/mem.rs:447
   2:	2150      	movs	r1, #80	; 0x50
   4:	f7ff fffe 	bl	0 <__aeabi_memclr8>
_ZN85_$LT$mylib..mynewt..encoding..json..json_attr_t$u20$as$u20$core..default..Default$GT$7default17he79dad0131e0fe00E():
/Users/Luppy/mynewt/stm32bluepill-mynewt-sensor/src/mynewt/encoding/json.rs:428
        unsafe { ::core::mem::zeroed() }
    }
   8:	bd80      	pop	{r7, pc}

Disassembly of section .text._ZN91_$LT$$u5b$u8$u5d$$u20$as$u20$mylib..mynewt..encoding..json_context..ToBytesOptionalNull$GT$21to_bytes_optional_nul17he5c365489b21c4e8E:

00000000 <_ZN91_$LT$$u5b$u8$u5d$$u20$as$u20$mylib..mynewt..encoding..json_context..ToBytesOptionalNull$GT$21to_bytes_optional_nul17he5c365489b21c4e8E>:
_ZN91_$LT$$u5b$u8$u5d$$u20$as$u20$mylib..mynewt..encoding..json_context..ToBytesOptionalNull$GT$21to_bytes_optional_nul17he5c365489b21c4e8E():
/Users/Luppy/mynewt/stm32bluepill-mynewt-sensor/src/mynewt/encoding/json_context.rs:107
/// Convert the type to array of bytes that may or may not end with null
impl ToBytesOptionalNull for [u8] {
    /// Convert the type to array of bytes that may or may not end with null
    fn to_bytes_optional_nul(&self) -> &[u8] {
        self
    }
   0:	4770      	bx	lr

Disassembly of section .text._ZN82_$LT$str$u20$as$u20$mylib..mynewt..encoding..json_context..ToBytesOptionalNull$GT$21to_bytes_optional_nul17h3de49f39e358682cE:

00000000 <_ZN82_$LT$str$u20$as$u20$mylib..mynewt..encoding..json_context..ToBytesOptionalNull$GT$21to_bytes_optional_nul17h3de49f39e358682cE>:
_ZN82_$LT$str$u20$as$u20$mylib..mynewt..encoding..json_context..ToBytesOptionalNull$GT$21to_bytes_optional_nul17h3de49f39e358682cE():
/Users/Luppy/mynewt/stm32bluepill-mynewt-sensor/src/mynewt/encoding/json_context.rs:115
/// Convert the type to array of bytes that may or may not end with null
impl ToBytesOptionalNull for str {
    /// Convert the type to array of bytes that may or may not end with null
    fn to_bytes_optional_nul(&self) -> &[u8] {
        self.as_bytes()
    }
   0:	4770      	bx	lr

Disassembly of section .text._ZN86_$LT$$RF$str$u20$as$u20$mylib..mynewt..encoding..json_context..ToBytesOptionalNull$GT$21to_bytes_optional_nul17h3f37abd775ab63b7E:

00000000 <_ZN86_$LT$$RF$str$u20$as$u20$mylib..mynewt..encoding..json_context..ToBytesOptionalNull$GT$21to_bytes_optional_nul17h3f37abd775ab63b7E>:
_ZN86_$LT$$RF$str$u20$as$u20$mylib..mynewt..encoding..json_context..ToBytesOptionalNull$GT$21to_bytes_optional_nul17h3f37abd775ab63b7E():
/Users/Luppy/mynewt/stm32bluepill-mynewt-sensor/src/mynewt/encoding/json_context.rs:122

/// Convert the type to array of bytes that may or may not end with null
impl ToBytesOptionalNull for &str {
    /// Convert the type to array of bytes that may or may not end with null
    fn to_bytes_optional_nul(&self) -> &[u8] {
        self.as_bytes()
   0:	e9d0 2100 	ldrd	r2, r1, [r0]
/Users/Luppy/mynewt/stm32bluepill-mynewt-sensor/src/mynewt/encoding/json_context.rs:123
    }
   4:	4610      	mov	r0, r2
   6:	4770      	bx	lr

Disassembly of section .text._ZN94_$LT$cstr_core..CStr$u20$as$u20$mylib..mynewt..encoding..json_context..ToBytesOptionalNull$GT$21to_bytes_optional_nul17hc03786ccf50dfcd9E:

00000000 <_ZN94_$LT$cstr_core..CStr$u20$as$u20$mylib..mynewt..encoding..json_context..ToBytesOptionalNull$GT$21to_bytes_optional_nul17hc03786ccf50dfcd9E>:
_ZN94_$LT$cstr_core..CStr$u20$as$u20$mylib..mynewt..encoding..json_context..ToBytesOptionalNull$GT$21to_bytes_optional_nul17hc03786ccf50dfcd9E():
/Users/Luppy/mynewt/stm32bluepill-mynewt-sensor/src/mynewt/encoding/json_context.rs:131
/// Convert the type to array of bytes that may or may not end with null. CStr always includes nulls.
impl ToBytesOptionalNull for CStr {
    /// Convert the type to array of bytes that may or may not end with null. CStr always includes nulls.
    fn to_bytes_optional_nul(&self) -> &[u8] {
        self.to_bytes_with_nul()
    }
   0:	4770      	bx	lr

Disassembly of section .text._ZN78_$LT$mylib..mynewt..kernel..os..os_event$u20$as$u20$core..default..Default$GT$7default17h60329e49f6af5542E:

00000000 <_ZN78_$LT$mylib..mynewt..kernel..os..os_event$u20$as$u20$core..default..Default$GT$7default17h60329e49f6af5542E>:
_ZN78_$LT$mylib..mynewt..kernel..os..os_event$u20$as$u20$core..default..Default$GT$7default17h60329e49f6af5542E():
/Users/Luppy/mynewt/stm32bluepill-mynewt-sensor/src/mynewt/kernel/os.rs:409
    fn default() -> Self {
        unsafe { ::core::mem::zeroed() }
    }
}
impl Default for os_event {
    fn default() -> Self {
   0:	2100      	movs	r1, #0
_ZN4core3mem6zeroed17h9c0a6d06b5ababeeE():
/rustc/50a0defd5a93523067ef239936cc2e0755220904/src/libcore/mem.rs:447
   2:	e9c0 1100 	strd	r1, r1, [r0]
   6:	e9c0 1102 	strd	r1, r1, [r0, #8]
_ZN78_$LT$mylib..mynewt..kernel..os..os_event$u20$as$u20$core..default..Default$GT$7default17h60329e49f6af5542E():
/Users/Luppy/mynewt/stm32bluepill-mynewt-sensor/src/mynewt/kernel/os.rs:411
        unsafe { ::core::mem::zeroed() }
    }
   a:	4770      	bx	lr

Disassembly of section .text._ZN80_$LT$mylib..mynewt..kernel..os..os_callout$u20$as$u20$core..default..Default$GT$7default17h59e16564df463ab2E:

00000000 <_ZN80_$LT$mylib..mynewt..kernel..os..os_callout$u20$as$u20$core..default..Default$GT$7default17h59e16564df463ab2E>:
_ZN80_$LT$mylib..mynewt..kernel..os..os_callout$u20$as$u20$core..default..Default$GT$7default17h59e16564df463ab2E():
/Users/Luppy/mynewt/stm32bluepill-mynewt-sensor/src/mynewt/kernel/os.rs:541
    fn default() -> Self {
        unsafe { ::core::mem::zeroed() }
    }
}
impl Default for os_callout {
    fn default() -> Self {
   0:	2100      	movs	r1, #0
_ZN4core3mem6zeroed17hdce3c0b48ca06277E():
/rustc/50a0defd5a93523067ef239936cc2e0755220904/src/libcore/mem.rs:447
   2:	e9c0 1100 	strd	r1, r1, [r0]
   6:	e9c0 1102 	strd	r1, r1, [r0, #8]
   a:	e9c0 1104 	strd	r1, r1, [r0, #16]
   e:	e9c0 1106 	strd	r1, r1, [r0, #24]
_ZN80_$LT$mylib..mynewt..kernel..os..os_callout$u20$as$u20$core..default..Default$GT$7default17h59e16564df463ab2E():
/Users/Luppy/mynewt/stm32bluepill-mynewt-sensor/src/mynewt/kernel/os.rs:543
        unsafe { ::core::mem::zeroed() }
    }
  12:	4770      	bx	lr

Disassembly of section .text._ZN79_$LT$mylib..mynewt..kernel..os..hal_timer$u20$as$u20$core..default..Default$GT$7default17h95eb8861ccb6e581E:

00000000 <_ZN79_$LT$mylib..mynewt..kernel..os..hal_timer$u20$as$u20$core..default..Default$GT$7default17h95eb8861ccb6e581E>:
_ZN79_$LT$mylib..mynewt..kernel..os..hal_timer$u20$as$u20$core..default..Default$GT$7default17h95eb8861ccb6e581E():
/Users/Luppy/mynewt/stm32bluepill-mynewt-sensor/src/mynewt/kernel/os.rs:642
    fn default() -> Self {
        unsafe { ::core::mem::zeroed() }
    }
}
impl Default for hal_timer {
    fn default() -> Self {
   0:	2100      	movs	r1, #0
_ZN4core3mem6zeroed17h2fcb045d13337a42E():
/rustc/50a0defd5a93523067ef239936cc2e0755220904/src/libcore/mem.rs:447
   2:	e9c0 1100 	strd	r1, r1, [r0]
   6:	e9c0 1102 	strd	r1, r1, [r0, #8]
   a:	e9c0 1104 	strd	r1, r1, [r0, #16]
_ZN79_$LT$mylib..mynewt..kernel..os..hal_timer$u20$as$u20$core..default..Default$GT$7default17h95eb8861ccb6e581E():
/Users/Luppy/mynewt/stm32bluepill-mynewt-sensor/src/mynewt/kernel/os.rs:644
        unsafe { ::core::mem::zeroed() }
    }
   e:	4770      	bx	lr

Disassembly of section .text._ZN76_$LT$mylib..mynewt..kernel..os..os_dev$u20$as$u20$core..default..Default$GT$7default17heee54d14943ae30bE:

00000000 <_ZN76_$LT$mylib..mynewt..kernel..os..os_dev$u20$as$u20$core..default..Default$GT$7default17heee54d14943ae30bE>:
_ZN76_$LT$mylib..mynewt..kernel..os..os_dev$u20$as$u20$core..default..Default$GT$7default17heee54d14943ae30bE():
/Users/Luppy/mynewt/stm32bluepill-mynewt-sensor/src/mynewt/kernel/os.rs:812
    fn default() -> Self {
        unsafe { ::core::mem::zeroed() }
    }
}
impl Default for os_dev {
    fn default() -> Self {
   0:	b580      	push	{r7, lr}
_ZN4core3mem6zeroed17h84e0467a60186be0E():
/rustc/50a0defd5a93523067ef239936cc2e0755220904/src/libcore/mem.rs:447
   2:	2124      	movs	r1, #36	; 0x24
   4:	f7ff fffe 	bl	0 <__aeabi_memclr4>
_ZN76_$LT$mylib..mynewt..kernel..os..os_dev$u20$as$u20$core..default..Default$GT$7default17heee54d14943ae30bE():
/Users/Luppy/mynewt/stm32bluepill-mynewt-sensor/src/mynewt/kernel/os.rs:814
        unsafe { ::core::mem::zeroed() }
    }
   8:	bd80      	pop	{r7, pc}

Disassembly of section .text._ZN77_$LT$mylib..mynewt..kernel..os..os_mbuf$u20$as$u20$core..default..Default$GT$7default17h805a30a4174fc3feE:

00000000 <_ZN77_$LT$mylib..mynewt..kernel..os..os_mbuf$u20$as$u20$core..default..Default$GT$7default17h805a30a4174fc3feE>:
_ZN77_$LT$mylib..mynewt..kernel..os..os_mbuf$u20$as$u20$core..default..Default$GT$7default17h805a30a4174fc3feE():
/Users/Luppy/mynewt/stm32bluepill-mynewt-sensor/src/mynewt/kernel/os.rs:1040
    fn default() -> Self {
        unsafe { ::core::mem::zeroed() }
    }
}
impl Default for os_mbuf {
    fn default() -> Self {
   0:	2100      	movs	r1, #0
_ZN4core3mem6zeroed17hd50cd4c21637a6a6E():
/rustc/50a0defd5a93523067ef239936cc2e0755220904/src/libcore/mem.rs:447
   2:	e9c0 1100 	strd	r1, r1, [r0]
   6:	e9c0 1102 	strd	r1, r1, [r0, #8]
_ZN77_$LT$mylib..mynewt..kernel..os..os_mbuf$u20$as$u20$core..default..Default$GT$7default17h805a30a4174fc3feE():
/Users/Luppy/mynewt/stm32bluepill-mynewt-sensor/src/mynewt/kernel/os.rs:1042
        unsafe { ::core::mem::zeroed() }
    }
   a:	4770      	bx	lr

Disassembly of section .text._ZN80_$LT$mylib..mynewt..kernel..os..os_mempool$u20$as$u20$core..default..Default$GT$7default17hb91a9779b21a67f5E:

00000000 <_ZN80_$LT$mylib..mynewt..kernel..os..os_mempool$u20$as$u20$core..default..Default$GT$7default17hb91a9779b21a67f5E>:
_ZN80_$LT$mylib..mynewt..kernel..os..os_mempool$u20$as$u20$core..default..Default$GT$7default17hb91a9779b21a67f5E():
/Users/Luppy/mynewt/stm32bluepill-mynewt-sensor/src/mynewt/kernel/os.rs:1521
    fn default() -> Self {
        unsafe { ::core::mem::zeroed() }
    }
}
impl Default for os_mempool {
    fn default() -> Self {
   0:	2100      	movs	r1, #0
_ZN4core3mem6zeroed17h2d7f56e2eaed47e4E():
/rustc/50a0defd5a93523067ef239936cc2e0755220904/src/libcore/mem.rs:447
   2:	e9c0 1100 	strd	r1, r1, [r0]
   6:	e9c0 1102 	strd	r1, r1, [r0, #8]
   a:	e9c0 1104 	strd	r1, r1, [r0, #16]
   e:	6181      	str	r1, [r0, #24]
_ZN80_$LT$mylib..mynewt..kernel..os..os_mempool$u20$as$u20$core..default..Default$GT$7default17hb91a9779b21a67f5E():
/Users/Luppy/mynewt/stm32bluepill-mynewt-sensor/src/mynewt/kernel/os.rs:1523
        unsafe { ::core::mem::zeroed() }
    }
  10:	4770      	bx	lr

Disassembly of section .text._ZN85_$LT$mylib..mynewt..kernel..os..os_sanity_check$u20$as$u20$core..default..Default$GT$7default17h0580a8ef43068b5cE:

00000000 <_ZN85_$LT$mylib..mynewt..kernel..os..os_sanity_check$u20$as$u20$core..default..Default$GT$7default17h0580a8ef43068b5cE>:
_ZN85_$LT$mylib..mynewt..kernel..os..os_sanity_check$u20$as$u20$core..default..Default$GT$7default17h0580a8ef43068b5cE():
/Users/Luppy/mynewt/stm32bluepill-mynewt-sensor/src/mynewt/kernel/os.rs:1780
    fn default() -> Self {
        unsafe { ::core::mem::zeroed() }
    }
}
impl Default for os_sanity_check {
    fn default() -> Self {
   0:	2100      	movs	r1, #0
_ZN4core3mem6zeroed17h4d1a58bffec0d670E():
/rustc/50a0defd5a93523067ef239936cc2e0755220904/src/libcore/mem.rs:447
   2:	e9c0 1100 	strd	r1, r1, [r0]
   6:	e9c0 1102 	strd	r1, r1, [r0, #8]
   a:	6101      	str	r1, [r0, #16]
_ZN85_$LT$mylib..mynewt..kernel..os..os_sanity_check$u20$as$u20$core..default..Default$GT$7default17h0580a8ef43068b5cE():
/Users/Luppy/mynewt/stm32bluepill-mynewt-sensor/src/mynewt/kernel/os.rs:1782
        unsafe { ::core::mem::zeroed() }
    }
   c:	4770      	bx	lr

Disassembly of section .text._ZN77_$LT$mylib..mynewt..kernel..os..os_task$u20$as$u20$core..default..Default$GT$7default17h6d2c843017fb103aE:

00000000 <_ZN77_$LT$mylib..mynewt..kernel..os..os_task$u20$as$u20$core..default..Default$GT$7default17h6d2c843017fb103aE>:
_ZN77_$LT$mylib..mynewt..kernel..os..os_task$u20$as$u20$core..default..Default$GT$7default17h6d2c843017fb103aE():
/Users/Luppy/mynewt/stm32bluepill-mynewt-sensor/src/mynewt/kernel/os.rs:1918
    fn default() -> Self {
        unsafe { ::core::mem::zeroed() }
    }
}
impl Default for os_task {
    fn default() -> Self {
   0:	b580      	push	{r7, lr}
_ZN4core3mem6zeroed17hc14c9317ef659c13E():
/rustc/50a0defd5a93523067ef239936cc2e0755220904/src/libcore/mem.rs:447
   2:	2150      	movs	r1, #80	; 0x50
   4:	f7ff fffe 	bl	0 <__aeabi_memclr4>
_ZN77_$LT$mylib..mynewt..kernel..os..os_task$u20$as$u20$core..default..Default$GT$7default17h6d2c843017fb103aE():
/Users/Luppy/mynewt/stm32bluepill-mynewt-sensor/src/mynewt/kernel/os.rs:1920
        unsafe { ::core::mem::zeroed() }
    }
   8:	bd80      	pop	{r7, pc}

Disassembly of section .text._ZN76_$LT$mylib..mynewt..kernel..os..os_sem$u20$as$u20$core..default..Default$GT$7default17h6997ebc1361d13c1E:

00000000 <_ZN76_$LT$mylib..mynewt..kernel..os..os_sem$u20$as$u20$core..default..Default$GT$7default17h6997ebc1361d13c1E>:
_ZN76_$LT$mylib..mynewt..kernel..os..os_sem$u20$as$u20$core..default..Default$GT$7default17h6997ebc1361d13c1E():
/Users/Luppy/mynewt/stm32bluepill-mynewt-sensor/src/mynewt/kernel/os.rs:2131
    fn default() -> Self {
        unsafe { ::core::mem::zeroed() }
    }
}
impl Default for os_sem {
    fn default() -> Self {
   0:	2100      	movs	r1, #0
_ZN4core3mem6zeroed17h55538ed743ee77baE():
/rustc/50a0defd5a93523067ef239936cc2e0755220904/src/libcore/mem.rs:447
   2:	e9c0 1100 	strd	r1, r1, [r0]
_ZN76_$LT$mylib..mynewt..kernel..os..os_sem$u20$as$u20$core..default..Default$GT$7default17h6997ebc1361d13c1E():
/Users/Luppy/mynewt/stm32bluepill-mynewt-sensor/src/mynewt/kernel/os.rs:2133
        unsafe { ::core::mem::zeroed() }
    }
   6:	4770      	bx	lr

Disassembly of section .text._ZN100_$LT$mylib..mynewt..hw..sensor..bindings..os_dev__bindgen_ty_1$u20$as$u20$core..default..Default$GT$7default17hcd4a18262380ebb6E:

00000000 <_ZN100_$LT$mylib..mynewt..hw..sensor..bindings..os_dev__bindgen_ty_1$u20$as$u20$core..default..Default$GT$7default17hcd4a18262380ebb6E>:
_ZN100_$LT$mylib..mynewt..hw..sensor..bindings..os_dev__bindgen_ty_1$u20$as$u20$core..default..Default$GT$7default17hcd4a18262380ebb6E():
/Users/Luppy/mynewt/stm32bluepill-mynewt-sensor/src/mynewt/hw/sensor/bindings.rs:207
    pub stqe_next: *mut os_dev,
}
impl Default for os_dev__bindgen_ty_1 {
    fn default() -> Self {
        unsafe { ::core::mem::zeroed() }
    }
   0:	2000      	movs	r0, #0
   2:	4770      	bx	lr

Disassembly of section .text._ZN93_$LT$mylib..mynewt..hw..sensor..bindings..sensor_data_t$u20$as$u20$core..default..Default$GT$7default17h5e3387a5d7c5a28cE:

00000000 <_ZN93_$LT$mylib..mynewt..hw..sensor..bindings..sensor_data_t$u20$as$u20$core..default..Default$GT$7default17h5e3387a5d7c5a28cE>:
_ZN93_$LT$mylib..mynewt..hw..sensor..bindings..sensor_data_t$u20$as$u20$core..default..Default$GT$7default17h5e3387a5d7c5a28cE():
/Users/Luppy/mynewt/stm32bluepill-mynewt-sensor/src/mynewt/hw/sensor/bindings.rs:359
    pub spd: __BindgenUnionField<*mut sensor_press_data>,
    pub srhd: __BindgenUnionField<*mut sensor_humid_data>,
    pub bindgen_union_field: u64,
}
impl Default for sensor_data_t {
    fn default() -> Self {
   0:	2100      	movs	r1, #0
_ZN4core3mem6zeroed17hb889edbcd4dc81e2E():
/rustc/50a0defd5a93523067ef239936cc2e0755220904/src/libcore/mem.rs:447
   2:	e9c0 1100 	strd	r1, r1, [r0]
_ZN93_$LT$mylib..mynewt..hw..sensor..bindings..sensor_data_t$u20$as$u20$core..default..Default$GT$7default17h5e3387a5d7c5a28cE():
/Users/Luppy/mynewt/stm32bluepill-mynewt-sensor/src/mynewt/hw/sensor/bindings.rs:361
        unsafe { ::core::mem::zeroed() }
    }
   6:	4770      	bx	lr

Disassembly of section .text._ZN95_$LT$mylib..mynewt..hw..sensor..bindings..sensor_listener$u20$as$u20$core..default..Default$GT$7default17hc95bf8f65b77ba33E:

00000000 <_ZN95_$LT$mylib..mynewt..hw..sensor..bindings..sensor_listener$u20$as$u20$core..default..Default$GT$7default17hc95bf8f65b77ba33E>:
_ZN95_$LT$mylib..mynewt..hw..sensor..bindings..sensor_listener$u20$as$u20$core..default..Default$GT$7default17hc95bf8f65b77ba33E():
/Users/Luppy/mynewt/stm32bluepill-mynewt-sensor/src/mynewt/hw/sensor/bindings.rs:443
    fn default() -> Self {
        unsafe { ::core::mem::zeroed() }
    }
}
impl Default for sensor_listener {
    fn default() -> Self {
   0:	2100      	movs	r1, #0
_ZN4core3mem6zeroed17h65478f9931bd2d80E():
/rustc/50a0defd5a93523067ef239936cc2e0755220904/src/libcore/mem.rs:447
   2:	e9c0 1100 	strd	r1, r1, [r0]
   6:	e9c0 1102 	strd	r1, r1, [r0, #8]
   a:	e9c0 1104 	strd	r1, r1, [r0, #16]
_ZN95_$LT$mylib..mynewt..hw..sensor..bindings..sensor_listener$u20$as$u20$core..default..Default$GT$7default17hc95bf8f65b77ba33E():
/Users/Luppy/mynewt/stm32bluepill-mynewt-sensor/src/mynewt/hw/sensor/bindings.rs:445
        unsafe { ::core::mem::zeroed() }
    }
   e:	4770      	bx	lr

Disassembly of section .text._ZN98_$LT$mylib..mynewt..hw..sensor..bindings..sensor_type_traits$u20$as$u20$core..default..Default$GT$7default17h4fbb3273a4fca19fE:

00000000 <_ZN98_$LT$mylib..mynewt..hw..sensor..bindings..sensor_type_traits$u20$as$u20$core..default..Default$GT$7default17h4fbb3273a4fca19fE>:
_ZN98_$LT$mylib..mynewt..hw..sensor..bindings..sensor_type_traits$u20$as$u20$core..default..Default$GT$7default17h4fbb3273a4fca19fE():
/Users/Luppy/mynewt/stm32bluepill-mynewt-sensor/src/mynewt/hw/sensor/bindings.rs:503
    fn default() -> Self {
        unsafe { ::core::mem::zeroed() }
    }
}
impl Default for sensor_type_traits {
    fn default() -> Self {
   0:	b580      	push	{r7, lr}
_ZN4core3mem6zeroed17hde92197f1c36d6f1E():
/rustc/50a0defd5a93523067ef239936cc2e0755220904/src/libcore/mem.rs:447
   2:	2130      	movs	r1, #48	; 0x30
   4:	f7ff fffe 	bl	0 <__aeabi_memclr8>
_ZN98_$LT$mylib..mynewt..hw..sensor..bindings..sensor_type_traits$u20$as$u20$core..default..Default$GT$7default17h4fbb3273a4fca19fE():
/Users/Luppy/mynewt/stm32bluepill-mynewt-sensor/src/mynewt/hw/sensor/bindings.rs:505
        unsafe { ::core::mem::zeroed() }
    }
   8:	bd80      	pop	{r7, pc}

Disassembly of section .text._ZN100_$LT$mylib..mynewt..hw..sensor..bindings..sensor_notify_ev_ctx$u20$as$u20$core..default..Default$GT$7default17h9f43ca6dd3c1b8f4E:

00000000 <_ZN100_$LT$mylib..mynewt..hw..sensor..bindings..sensor_notify_ev_ctx$u20$as$u20$core..default..Default$GT$7default17h9f43ca6dd3c1b8f4E>:
_ZN100_$LT$mylib..mynewt..hw..sensor..bindings..sensor_notify_ev_ctx$u20$as$u20$core..default..Default$GT$7default17h9f43ca6dd3c1b8f4E():
/Users/Luppy/mynewt/stm32bluepill-mynewt-sensor/src/mynewt/hw/sensor/bindings.rs:515
    pub snec_evtype: sensor_event_type_t,
}
impl Default for sensor_notify_ev_ctx {
    fn default() -> Self {
        unsafe { ::core::mem::zeroed() }
    }
   0:	2000      	movs	r0, #0
   2:	2100      	movs	r1, #0
   4:	4770      	bx	lr

Disassembly of section .text._ZN86_$LT$mylib..mynewt..hw..sensor..bindings..sensor$u20$as$u20$core..default..Default$GT$7default17hc1b68b390ba8111bE:

00000000 <_ZN86_$LT$mylib..mynewt..hw..sensor..bindings..sensor$u20$as$u20$core..default..Default$GT$7default17hc1b68b390ba8111bE>:
_ZN86_$LT$mylib..mynewt..hw..sensor..bindings..sensor$u20$as$u20$core..default..Default$GT$7default17hc1b68b390ba8111bE():
/Users/Luppy/mynewt/stm32bluepill-mynewt-sensor/src/mynewt/hw/sensor/bindings.rs:739
    fn default() -> Self {
        unsafe { ::core::mem::zeroed() }
    }
}
impl Default for sensor {
    fn default() -> Self {
   0:	b580      	push	{r7, lr}
_ZN4core3mem6zeroed17h30f5c62bae705222E():
/rustc/50a0defd5a93523067ef239936cc2e0755220904/src/libcore/mem.rs:447
   2:	2188      	movs	r1, #136	; 0x88
   4:	f7ff fffe 	bl	0 <__aeabi_memclr8>
_ZN86_$LT$mylib..mynewt..hw..sensor..bindings..sensor$u20$as$u20$core..default..Default$GT$7default17hc1b68b390ba8111bE():
/Users/Luppy/mynewt/stm32bluepill-mynewt-sensor/src/mynewt/hw/sensor/bindings.rs:741
        unsafe { ::core::mem::zeroed() }
    }
   8:	bd80      	pop	{r7, pc}

Disassembly of section .text._ZN93_$LT$mylib..mynewt..hw..sensor..bindings.._bindgen_ty_1$u20$as$u20$core..default..Default$GT$7default17h22a737f206bd9fdaE:

00000000 <_ZN93_$LT$mylib..mynewt..hw..sensor..bindings.._bindgen_ty_1$u20$as$u20$core..default..Default$GT$7default17h22a737f206bd9fdaE>:
_ZN93_$LT$mylib..mynewt..hw..sensor..bindings.._bindgen_ty_1$u20$as$u20$core..default..Default$GT$7default17h22a737f206bd9fdaE():
/Users/Luppy/mynewt/stm32bluepill-mynewt-sensor/src/mynewt/hw/sensor/bindings.rs:1833
    fn default() -> Self {
        unsafe { ::core::mem::zeroed() }
    }
}
impl Default for _bindgen_ty_1 {
    fn default() -> Self {
   0:	b580      	push	{r7, lr}
_ZN4core3mem6zeroed17h6e59f9f1a44b9ec4E():
/rustc/50a0defd5a93523067ef239936cc2e0755220904/src/libcore/mem.rs:447
   2:	2134      	movs	r1, #52	; 0x34
   4:	f7ff fffe 	bl	0 <__aeabi_memclr4>
_ZN93_$LT$mylib..mynewt..hw..sensor..bindings.._bindgen_ty_1$u20$as$u20$core..default..Default$GT$7default17h22a737f206bd9fdaE():
/Users/Luppy/mynewt/stm32bluepill-mynewt-sensor/src/mynewt/hw/sensor/bindings.rs:1835
        unsafe { ::core::mem::zeroed() }
    }
   8:	bd80      	pop	{r7, pc}

Disassembly of section .text._ZN5mylib6mynewt2hw6sensor21null_sensor_data_func17h8c8fbcbcaa41b7f7E:

00000000 <_ZN5mylib6mynewt2hw6sensor21null_sensor_data_func17h8c8fbcbcaa41b7f7E>:
_ZN5mylib6mynewt2hw6sensor21null_sensor_data_func17h8c8fbcbcaa41b7f7E():
/Users/Luppy/mynewt/stm32bluepill-mynewt-sensor/src/mynewt/hw/sensor.rs:88
extern fn null_sensor_data_func(
    _sensor: sensor_ptr, 
    _arg: sensor_arg, 
    _sensor_data: sensor_data_ptr, 
    _sensor_type: sensor_type_t) -> i32
    { 0 }
   0:	2000      	movs	r0, #0
   2:	4770      	bx	lr

Disassembly of section .text._ZN101_$LT$mylib..mynewt..libs..sensor_coap..json_value__bindgen_ty_1$u20$as$u20$core..default..Default$GT$7default17h89bb081803e0a779E:

00000000 <_ZN101_$LT$mylib..mynewt..libs..sensor_coap..json_value__bindgen_ty_1$u20$as$u20$core..default..Default$GT$7default17h89bb081803e0a779E>:
_ZN101_$LT$mylib..mynewt..libs..sensor_coap..json_value__bindgen_ty_1$u20$as$u20$core..default..Default$GT$7default17h89bb081803e0a779E():
/Users/Luppy/mynewt/stm32bluepill-mynewt-sensor/src/mynewt/libs/sensor_coap.rs:430
    fn default() -> Self {
        unsafe { ::core::mem::zeroed() }
    }
}
impl Default for json_value__bindgen_ty_1 {
    fn default() -> Self {
   0:	2100      	movs	r1, #0
_ZN4core3mem6zeroed17h08cc2ddbe5999a00E():
/rustc/50a0defd5a93523067ef239936cc2e0755220904/src/libcore/mem.rs:447
   2:	e9c0 1100 	strd	r1, r1, [r0]
   6:	e9c0 1102 	strd	r1, r1, [r0, #8]
_ZN101_$LT$mylib..mynewt..libs..sensor_coap..json_value__bindgen_ty_1$u20$as$u20$core..default..Default$GT$7default17h89bb081803e0a779E():
/Users/Luppy/mynewt/stm32bluepill-mynewt-sensor/src/mynewt/libs/sensor_coap.rs:432
        unsafe { ::core::mem::zeroed() }
    }
   a:	4770      	bx	lr

Disassembly of section .text._ZN104_$LT$mylib..mynewt..libs..sensor_network..sensor_network_interface$u20$as$u20$core..default..Default$GT$7default17h84e5157db1edf8f7E:

00000000 <_ZN104_$LT$mylib..mynewt..libs..sensor_network..sensor_network_interface$u20$as$u20$core..default..Default$GT$7default17h84e5157db1edf8f7E>:
_ZN104_$LT$mylib..mynewt..libs..sensor_network..sensor_network_interface$u20$as$u20$core..default..Default$GT$7default17h84e5157db1edf8f7E():
/Users/Luppy/mynewt/stm32bluepill-mynewt-sensor/src/mynewt/libs/sensor_network.rs:40
        ) -> ::cty::c_int,
    >,
    pub transport_registered: u8,
}
impl Default for sensor_network_interface {
    fn default() -> Self {
   0:	2100      	movs	r1, #0
_ZN4core3mem6zeroed17h80e6d6e6ec6e6edaE():
/rustc/50a0defd5a93523067ef239936cc2e0755220904/src/libcore/mem.rs:447
   2:	e9c0 1100 	strd	r1, r1, [r0]
   6:	e9c0 1102 	strd	r1, r1, [r0, #8]
   a:	6101      	str	r1, [r0, #16]
_ZN104_$LT$mylib..mynewt..libs..sensor_network..sensor_network_interface$u20$as$u20$core..default..Default$GT$7default17h84e5157db1edf8f7E():
/Users/Luppy/mynewt/stm32bluepill-mynewt-sensor/src/mynewt/libs/sensor_network.rs:42
        unsafe { ::core::mem::zeroed() }
    }
   c:	4770      	bx	lr

Disassembly of section .text._ZN5mylib6mynewt6result95_$LT$impl$u20$core..convert..From$LT$mylib..mynewt..result..MynewtError$GT$$u20$for$u20$i32$GT$4from17h1c388bf109d56bacE:

00000000 <_ZN5mylib6mynewt6result95_$LT$impl$u20$core..convert..From$LT$mylib..mynewt..result..MynewtError$GT$$u20$for$u20$i32$GT$4from17h1c388bf109d56bacE>:
_ZN5mylib6mynewt6result95_$LT$impl$u20$core..convert..From$LT$mylib..mynewt..result..MynewtError$GT$$u20$for$u20$i32$GT$4from17h1c388bf109d56bacE():
/Users/Luppy/mynewt/stm32bluepill-mynewt-sensor/src/mynewt.rs:57
    /// Cast `MynewtError` to `i32`
    impl From<MynewtError> for i32 {
        /// Cast `MynewtError` to `i32`
        fn from(err: MynewtError) -> Self {
            err as i32
        }
   0:	4770      	bx	lr

Disassembly of section .text._ZN5mylib13listen_sensor16read_temperature17he2b173009b04e774E:

00000000 <_ZN5mylib13listen_sensor16read_temperature17he2b173009b04e774E>:
_ZN5mylib13listen_sensor16read_temperature17he2b173009b04e774E():
/Users/Luppy/mynewt/stm32bluepill-mynewt-sensor/src/listen_sensor.rs:81
///  This listener function is called by Mynewt every 10 seconds (for local sensors) or when sensor data is received
///  (for Remote Sensors).  Mynewt has fetched the raw or computed temperature value, passed through `sensor_data`.
///  If this is a Sensor Node, we send the sensor data to the Collector Node.
///  If this is a Collector Node or Standalone Node, we send the sensor data to the CoAP server.  
///  Return 0 if we have processed the sensor data successfully.
extern fn read_temperature(sensor: sensor_ptr, _arg: sensor_arg, 
   0:	e92d 4ff0 	stmdb	sp!, {r4, r5, r6, r7, r8, r9, sl, fp, lr}
   4:	b095      	sub	sp, #84	; 0x54
   6:	4605      	mov	r5, r0
_ZN5mylib4base13console_print17h86a834b313ce42ceE():
/Users/Luppy/mynewt/stm32bluepill-mynewt-sensor/src/base.rs:18
///  Display message `msg` on the Arm Semihosting console (via OpenOCD).
pub fn console_print(msg: &[u8]) {
    let len = msg.len();
    unsafe {
        //  Call the Semihosting Console API, which is unsafe.
        console_buffer(msg.as_ptr(), len as u32);
   8:	f240 0000 	movw	r0, #0
   c:	f2c0 0000 	movt	r0, #0
  10:	2111      	movs	r1, #17
  12:	4614      	mov	r4, r2
  14:	f7ff fffe 	bl	0 <console_buffer>
/Users/Luppy/mynewt/stm32bluepill-mynewt-sensor/src/base.rs:19
        console_flush();  //  TODO: Remove this.
  18:	f7ff fffe 	bl	0 <console_flush>
_ZN5mylib13listen_sensor16read_temperature17he2b173009b04e774E():
/Users/Luppy/mynewt/stm32bluepill-mynewt-sensor/src/listen_sensor.rs:86
    sensor_data: sensor_data_ptr, sensor_type: sensor_type_t) -> MynewtError {
    console_print(b"read_temperature\n");
    //  Check that the temperature data is valid.
    //  TODO
    if unsafe { is_null_sensor_data(sensor_data) } { return MynewtError::SYS_EINVAL; }  //  Exit if data is missing
  1c:	4620      	mov	r0, r4
  1e:	f7ff fffe 	bl	0 <is_null_sensor_data>
  22:	b120      	cbz	r0, 2e <_ZN5mylib13listen_sensor16read_temperature17he2b173009b04e774E+0x2e>
  24:	f06f 0001 	mvn.w	r0, #1
/Users/Luppy/mynewt/stm32bluepill-mynewt-sensor/src/listen_sensor.rs:117
            return MynewtError::SYS_EOK; 
        }            
    }
    //  Return 0 to Mynewt to indicate no error.  Should not end with a semicolon (;).
    MynewtError::SYS_EOK
}
  28:	b015      	add	sp, #84	; 0x54
  2a:	e8bd 8ff0 	ldmia.w	sp!, {r4, r5, r6, r7, r8, r9, sl, fp, pc}
/Users/Luppy/mynewt/stm32bluepill-mynewt-sensor/src/listen_sensor.rs:87
    assert!(unsafe { !is_null_sensor(sensor) });
  2e:	4628      	mov	r0, r5
  30:	f7ff fffe 	bl	0 <is_null_sensor>
  34:	2800      	cmp	r0, #0
  36:	f040 819f 	bne.w	378 <_ZN5mylib13listen_sensor16read_temperature17he2b173009b04e774E+0x378>
  3a:	e9dd 101e 	ldrd	r1, r0, [sp, #120]	; 0x78
_ZN5mylib13listen_sensor15get_temperature17h09cebd7ff5207704E():
/Users/Luppy/mynewt/stm32bluepill-mynewt-sensor/src/listen_sensor.rs:127
#[allow(unreachable_patterns)]
#[allow(unused_variables)]
fn get_temperature(sensor_data: sensor_data_ptr, sensor_type: sensor_type_t) -> SensorValue {
    let mut return_value = SensorValue::default();
    match sensor_type {                           //  Is this raw or computed temperature?
        SENSOR_TYPE_AMBIENT_TEMPERATURE_RAW => {  //  If this is raw temperature...
  3e:	f081 6180 	eor.w	r1, r1, #67108864	; 0x4000000
  42:	ea41 0700 	orr.w	r7, r1, r0
_ZN5mylib13listen_sensor16read_temperature17he2b173009b04e774E():
/Users/Luppy/mynewt/stm32bluepill-mynewt-sensor/src/listen_sensor.rs:92
    let device = unsafe { sensor_get_device(sensor) };
  46:	4628      	mov	r0, r5
  48:	f7ff fffe 	bl	0 <sensor_get_device>
/Users/Luppy/mynewt/stm32bluepill-mynewt-sensor/src/listen_sensor.rs:93
    let device_name_ptr: *const c_char = unsafe { device_get_name(device) };
  4c:	f7ff fffe 	bl	0 <device_get_name>
/Users/Luppy/mynewt/stm32bluepill-mynewt-sensor/src/listen_sensor.rs:94
    let device_name: &CStr = unsafe { CStr::from_ptr(device_name_ptr) };
  50:	f7ff fffe 	bl	0 <_ZN9cstr_core4CStr8from_ptr17h8dd780023dafede8E>
  54:	4606      	mov	r6, r0
  56:	468a      	mov	sl, r1
  58:	2000      	movs	r0, #0
_ZN5mylib13listen_sensor15get_temperature17h09cebd7ff5207704E():
/Users/Luppy/mynewt/stm32bluepill-mynewt-sensor/src/listen_sensor.rs:127
        SENSOR_TYPE_AMBIENT_TEMPERATURE_RAW => {  //  If this is raw temperature...
  5a:	b9df      	cbnz	r7, 94 <_ZN5mylib13listen_sensor16read_temperature17he2b173009b04e774E+0x94>
  5c:	a90d      	add	r1, sp, #52	; 0x34
/Users/Luppy/mynewt/stm32bluepill-mynewt-sensor/src/listen_sensor.rs:129
            //  Interpret the sensor data as a sensor_temp_raw_data struct that contains raw temp.
            let mut rawtempdata = fill_zero!(sensor_temp_raw_data);
  5e:	f88d 0038 	strb.w	r0, [sp, #56]	; 0x38
  62:	900d      	str	r0, [sp, #52]	; 0x34
/Users/Luppy/mynewt/stm32bluepill-mynewt-sensor/src/listen_sensor.rs:130
            let rc = unsafe { get_temp_raw_data(sensor_data, &mut rawtempdata) };
  64:	4620      	mov	r0, r4
  66:	f7ff fffe 	bl	0 <get_temp_raw_data>
/Users/Luppy/mynewt/stm32bluepill-mynewt-sensor/src/listen_sensor.rs:131
            assert!(rc == 0);
  6a:	2800      	cmp	r0, #0
  6c:	f040 8192 	bne.w	394 <_ZN5mylib13listen_sensor16read_temperature17he2b173009b04e774E+0x394>
/Users/Luppy/mynewt/stm32bluepill-mynewt-sensor/src/listen_sensor.rs:134

            //  Check that the raw temperature data is valid.
            if rawtempdata.strd_temp_raw_is_valid == 0 { return return_value; }  //  Exit if data is not valid
  70:	f89d 0038 	ldrb.w	r0, [sp, #56]	; 0x38
  74:	2800      	cmp	r0, #0
  76:	f000 8186 	beq.w	386 <_ZN5mylib13listen_sensor16read_temperature17he2b173009b04e774E+0x386>
_ZN5mylib4base13console_print17h86a834b313ce42ceE():
/Users/Luppy/mynewt/stm32bluepill-mynewt-sensor/src/base.rs:18
        console_buffer(msg.as_ptr(), len as u32);
  7a:	f240 0000 	movw	r0, #0
  7e:	2119      	movs	r1, #25
  80:	f2c0 0000 	movt	r0, #0
_ZN5mylib13listen_sensor15get_temperature17h09cebd7ff5207704E():
/Users/Luppy/mynewt/stm32bluepill-mynewt-sensor/src/listen_sensor.rs:137

            //  Raw temperature data is valid.  Copy and display it.
            return_value.val = SensorValueType::Uint(rawtempdata.strd_temp_raw);  //  Raw Temperature in integer (0 to 4095)
  84:	f8dd 8034 	ldr.w	r8, [sp, #52]	; 0x34
_ZN5mylib4base13console_print17h86a834b313ce42ceE():
/Users/Luppy/mynewt/stm32bluepill-mynewt-sensor/src/base.rs:18
  88:	f7ff fffe 	bl	0 <console_buffer>
/Users/Luppy/mynewt/stm32bluepill-mynewt-sensor/src/base.rs:19
        console_flush();  //  TODO: Remove this.
  8c:	f7ff fffe 	bl	0 <console_flush>
  90:	2501      	movs	r5, #1
  92:	e011      	b.n	b8 <_ZN5mylib13listen_sensor16read_temperature17he2b173009b04e774E+0xb8>
_ZN5mylib13listen_sensor15get_temperature17h09cebd7ff5207704E():
  94:	a90d      	add	r1, sp, #52	; 0x34
/Users/Luppy/mynewt/stm32bluepill-mynewt-sensor/src/listen_sensor.rs:142
            console_print(b"TMP listener got rawtmp \n");  // return_value->int_val);
        },
        SENSOR_TYPE_AMBIENT_TEMPERATURE => {      //  If this is computed temperature...
            //  Interpret the sensor data as a sensor_temp_data struct that contains computed temp.
            let mut tempdata = fill_zero!(sensor_temp_data);
  96:	f88d 0038 	strb.w	r0, [sp, #56]	; 0x38
  9a:	900d      	str	r0, [sp, #52]	; 0x34
/Users/Luppy/mynewt/stm32bluepill-mynewt-sensor/src/listen_sensor.rs:143
            let rc = unsafe { get_temp_data(sensor_data, &mut tempdata) };
  9c:	4620      	mov	r0, r4
  9e:	f7ff fffe 	bl	0 <get_temp_data>
/Users/Luppy/mynewt/stm32bluepill-mynewt-sensor/src/listen_sensor.rs:144
            assert!(rc == 0);
  a2:	2800      	cmp	r0, #0
  a4:	f040 817d 	bne.w	3a2 <_ZN5mylib13listen_sensor16read_temperature17he2b173009b04e774E+0x3a2>
  a8:	f89d 0038 	ldrb.w	r0, [sp, #56]	; 0x38
/Users/Luppy/mynewt/stm32bluepill-mynewt-sensor/src/listen_sensor.rs:147

            //  Check that the computed temperature data is valid.
            if tempdata.std_temp_is_valid() == 0 { return return_value; }  //  Exit if data is not valid
  ac:	07c0      	lsls	r0, r0, #31
  ae:	f000 816a 	beq.w	386 <_ZN5mylib13listen_sensor16read_temperature17he2b173009b04e774E+0x386>
/Users/Luppy/mynewt/stm32bluepill-mynewt-sensor/src/listen_sensor.rs:150

            //  Computed temperature data is valid.  Copy and display it.
            return_value.val = SensorValueType::Float(tempdata.std_temp);  //  Temperature in floating point.
  b2:	f8dd 8034 	ldr.w	r8, [sp, #52]	; 0x34
  b6:	2502      	movs	r5, #2
_ZN5mylib4base13console_print17h86a834b313ce42ceE():
/Users/Luppy/mynewt/stm32bluepill-mynewt-sensor/src/base.rs:18
        console_buffer(msg.as_ptr(), len as u32);
  b8:	f240 0000 	movw	r0, #0
  bc:	2111      	movs	r1, #17
  be:	f2c0 0000 	movt	r0, #0
  c2:	f7ff fffe 	bl	0 <console_buffer>
/Users/Luppy/mynewt/stm32bluepill-mynewt-sensor/src/base.rs:19
        console_flush();  //  TODO: Remove this.
  c6:	f7ff fffe 	bl	0 <console_flush>
  ca:	2000      	movs	r0, #0
_ZN5mylib9send_coap16send_sensor_data17hf7fec4a83b716792E():
/Users/Luppy/mynewt/stm32bluepill-mynewt-sensor/src/send_coap.rs:307
pub fn send_sensor_data(sensor_val: &SensorValue, sensor_node: &CStr) -> MynewtResult<()>  {  //  Returns an error code upon error.
    console_print(b"send_sensor_data\n");
    //  TODO: Remove val
    let mut val = fill_zero!(sensor_value);
    //  For Sensor Node: Transmit the sensor data to the Collector Node as CBOR.
    if unsafe { sensor_network::should_send_to_collector(&mut val, sensor_node.as_ptr()) } { 
  cc:	4631      	mov	r1, r6
/Users/Luppy/mynewt/stm32bluepill-mynewt-sensor/src/send_coap.rs:305
    let mut val = fill_zero!(sensor_value);
  ce:	e9cd 0006 	strd	r0, r0, [sp, #24]
  d2:	e9cd 0004 	strd	r0, r0, [sp, #16]
  d6:	a804      	add	r0, sp, #16
/Users/Luppy/mynewt/stm32bluepill-mynewt-sensor/src/send_coap.rs:307
    if unsafe { sensor_network::should_send_to_collector(&mut val, sensor_node.as_ptr()) } { 
  d8:	f7ff fffe 	bl	0 <should_send_to_collector>
  dc:	2800      	cmp	r0, #0
  de:	d04c      	beq.n	17a <_ZN5mylib13listen_sensor16read_temperature17he2b173009b04e774E+0x17a>
_ZN5mylib9send_coap29send_sensor_data_to_collector17h7e2f5f6f4413977fE():
/Users/Luppy/mynewt/stm32bluepill-mynewt-sensor/src/send_coap.rs:386
///  to be transmitted.  Return 0 if successful, `SYS_EAGAIN` if network is not ready yet.
///  The CoAP payload needs to be very compact (under 32 bytes) so it will be encoded in CBOR like this:
///  `{ t: 2870 }`
fn send_sensor_data_to_collector(sensor_val: &SensorValue, _node_id: &CStr) -> MynewtResult<()>  {  //  Returns an error code upon error.
    ////  TODO: if let SensorValueType::None = sensor_val.val { assert!(false); }
    if unsafe { !NETWORK_IS_READY } { return Err(MynewtError::SYS_EAGAIN); }  //  If network is not ready, tell caller (Sensor Listener) to try later.
  e0:	f240 0400 	movw	r4, #0
  e4:	f2c0 0400 	movt	r4, #0
  e8:	7820      	ldrb	r0, [r4, #0]
  ea:	2801      	cmp	r0, #1
  ec:	f040 8133 	bne.w	356 <_ZN5mylib13listen_sensor16read_temperature17he2b173009b04e774E+0x356>
/Users/Luppy/mynewt/stm32bluepill-mynewt-sensor/src/send_coap.rs:391

    //  Start composing the CoAP Collector message with the sensor data in the payload.  This will 
    //  block other tasks from composing and posting CoAP messages (through a semaphore).
    //  We only have 1 memory buffer for composing CoAP messages so it needs to be locked.
    let rc = unsafe { sensor_network::init_collector_post() };  assert!(rc);
  f0:	f7ff fffe 	bl	0 <init_collector_post>
  f4:	2800      	cmp	r0, #0
  f6:	f000 81bf 	beq.w	478 <_ZN5mylib13listen_sensor16read_temperature17he2b173009b04e774E+0x478>
/Users/Luppy/mynewt/stm32bluepill-mynewt-sensor/src/send_coap.rs:394

    //  Compose the CoAP Payload in CBOR using the `coap!()` macro.
    let _payload = coap!(@cbor {
  fa:	f240 0000 	movw	r0, #0
  fe:	f240 0100 	movw	r1, #0
 102:	f2c0 0000 	movt	r0, #0
 106:	f2c0 0100 	movt	r1, #0
 10a:	f04f 32ff 	mov.w	r2, #4294967295	; 0xffffffff
 10e:	f7ff fffe 	bl	0 <cbor_encoder_create_map>
 112:	2d01      	cmp	r5, #1
 114:	f040 817f 	bne.w	416 <_ZN5mylib13listen_sensor16read_temperature17he2b173009b04e774E+0x416>
 118:	2074      	movs	r0, #116	; 0x74
 11a:	2201      	movs	r2, #1
_ZN4core10intrinsics19copy_nonoverlapping17hd71b315a656b9b4cE():
/rustc/50a0defd5a93523067ef239936cc2e0755220904/src/libcore/intrinsics.rs:1412
 11c:	f824 0f01 	strh.w	r0, [r4, #1]!
_ZN5mylib9send_coap29send_sensor_data_to_collector17h7e2f5f6f4413977fE():
/Users/Luppy/mynewt/stm32bluepill-mynewt-sensor/src/send_coap.rs:394
 120:	f240 0000 	movw	r0, #0
 124:	f2c0 0000 	movt	r0, #0
 128:	4621      	mov	r1, r4
 12a:	f7ff fffe 	bl	0 <cbor_encode_text_string>
_ZN5mylib6mynewt8encoding12json_context11JsonContext12check_result17hd052d2fa06a87de6E():
/Users/Luppy/mynewt/stm32bluepill-mynewt-sensor/src/mynewt/encoding/json_context.rs:72
        assert_eq!(res, 0);
 12e:	2800      	cmp	r0, #0
 130:	9008      	str	r0, [sp, #32]
 132:	f040 81a8 	bne.w	486 <_ZN5mylib13listen_sensor16read_temperature17he2b173009b04e774E+0x486>
_ZN5mylib9send_coap29send_sensor_data_to_collector17h7e2f5f6f4413977fE():
/Users/Luppy/mynewt/stm32bluepill-mynewt-sensor/src/send_coap.rs:394
 136:	f240 0000 	movw	r0, #0
 13a:	4642      	mov	r2, r8
 13c:	f2c0 0000 	movt	r0, #0
 140:	2300      	movs	r3, #0
 142:	2400      	movs	r4, #0
 144:	f7ff fffe 	bl	0 <cbor_encode_int>
_ZN5mylib6mynewt8encoding12json_context11JsonContext12check_result17hd052d2fa06a87de6E():
/Users/Luppy/mynewt/stm32bluepill-mynewt-sensor/src/mynewt/encoding/json_context.rs:72
 148:	2800      	cmp	r0, #0
 14a:	9008      	str	r0, [sp, #32]
 14c:	f040 81b4 	bne.w	4b8 <_ZN5mylib13listen_sensor16read_temperature17he2b173009b04e774E+0x4b8>
_ZN5mylib9send_coap29send_sensor_data_to_collector17h7e2f5f6f4413977fE():
/Users/Luppy/mynewt/stm32bluepill-mynewt-sensor/src/send_coap.rs:394
 150:	f240 0000 	movw	r0, #0
 154:	f240 0100 	movw	r1, #0
 158:	f2c0 0000 	movt	r0, #0
 15c:	f2c0 0100 	movt	r1, #0
 160:	f7ff fffe 	bl	0 <cbor_encoder_close_container>
/Users/Luppy/mynewt/stm32bluepill-mynewt-sensor/src/send_coap.rs:402
    });

    //  Post the CoAP Collector message to the CoAP Background Task for transmission.  After posting the
    //  message to the background task, we release a semaphore that unblocks other requests
    //  to compose and post CoAP messages.
    let rc = unsafe { sensor_network::do_collector_post() };  assert!(rc);
 164:	f7ff fffe 	bl	0 <do_collector_post>
 168:	2800      	cmp	r0, #0
 16a:	f000 81cb 	beq.w	504 <_ZN5mylib13listen_sensor16read_temperature17he2b173009b04e774E+0x504>
_ZN5mylib4base13console_print17h86a834b313ce42ceE():
/Users/Luppy/mynewt/stm32bluepill-mynewt-sensor/src/base.rs:18
        console_buffer(msg.as_ptr(), len as u32);
 16e:	f240 0000 	movw	r0, #0
 172:	2121      	movs	r1, #33	; 0x21
 174:	f2c0 0000 	movt	r0, #0
 178:	e0e5      	b.n	346 <_ZN5mylib13listen_sensor16read_temperature17he2b173009b04e774E+0x346>
_ZN9cstr_core4CStr8to_bytes17h01698a6d2c5e5247E():
/Users/Luppy/.cargo/registry/src/github.com-1ecc6299db9ec823/cstr_core-0.1.2/src/lib.rs:1033
    /// assert_eq!(c_str.to_bytes(), b"foo");
    /// ```
    #[inline]
    pub fn to_bytes(&self) -> &[u8] {
        let bytes = self.to_bytes_with_nul();
        &bytes[..bytes.len() - 1]
 17a:	f1aa 0001 	sub.w	r0, sl, #1
_ZN99_$LT$core..ops..range..Range$LT$usize$GT$$u20$as$u20$core..slice..SliceIndex$LT$$u5b$T$u5d$$GT$$GT$5index17hd2b7255c9fba6589E():
/rustc/50a0defd5a93523067ef239936cc2e0755220904/src/libcore/slice/mod.rs:2745
 17e:	f1ba 0f00 	cmp.w	sl, #0
 182:	f000 8115 	beq.w	3b0 <_ZN5mylib13listen_sensor16read_temperature17he2b173009b04e774E+0x3b0>
_ZN5mylib9send_coap26send_sensor_data_to_server17h6c31d1914e279457E():
/Users/Luppy/mynewt/stm32bluepill-mynewt-sensor/src/send_coap.rs:335
    assert_ne!(node_id.to_bytes()[0], 0);
 186:	2800      	cmp	r0, #0
 188:	f000 8116 	beq.w	3b8 <_ZN5mylib13listen_sensor16read_temperature17he2b173009b04e774E+0x3b8>
 18c:	7831      	ldrb	r1, [r6, #0]
 18e:	2900      	cmp	r1, #0
 190:	f000 811b 	beq.w	3ca <_ZN5mylib13listen_sensor16read_temperature17he2b173009b04e774E+0x3ca>
/Users/Luppy/mynewt/stm32bluepill-mynewt-sensor/src/send_coap.rs:336
    if unsafe { !NETWORK_IS_READY } { return Err(MynewtError::SYS_EAGAIN); }  //  If network is not ready, tell caller (Sensor Listener) to try later.
 194:	f240 0700 	movw	r7, #0
 198:	f2c0 0700 	movt	r7, #0
 19c:	7839      	ldrb	r1, [r7, #0]
 19e:	2901      	cmp	r1, #1
 1a0:	f040 80d9 	bne.w	356 <_ZN5mylib13listen_sensor16read_temperature17he2b173009b04e774E+0x356>
 1a4:	a901      	add	r1, sp, #4
 1a6:	e881 0121 	stmia.w	r1, {r0, r5, r8}
/Users/Luppy/mynewt/stm32bluepill-mynewt-sensor/src/send_coap.rs:337
    let device_id_ptr = unsafe { sensor_network::get_device_id() };
 1aa:	f7ff fffe 	bl	0 <get_device_id>
/Users/Luppy/mynewt/stm32bluepill-mynewt-sensor/src/send_coap.rs:338
    let device_id: &CStr = unsafe { CStr::from_ptr(device_id_ptr) };
 1ae:	f7ff fffe 	bl	0 <_ZN9cstr_core4CStr8from_ptr17h8dd780023dafede8E>
 1b2:	4683      	mov	fp, r0
/Users/Luppy/mynewt/stm32bluepill-mynewt-sensor/src/send_coap.rs:343
    let rc = unsafe { sensor_network::init_server_post(0 as *const c_char) };  assert!(rc);
 1b4:	2000      	movs	r0, #0
/Users/Luppy/mynewt/stm32bluepill-mynewt-sensor/src/send_coap.rs:338
    let device_id: &CStr = unsafe { CStr::from_ptr(device_id_ptr) };
 1b6:	4688      	mov	r8, r1
 1b8:	2400      	movs	r4, #0
/Users/Luppy/mynewt/stm32bluepill-mynewt-sensor/src/send_coap.rs:343
    let rc = unsafe { sensor_network::init_server_post(0 as *const c_char) };  assert!(rc);
 1ba:	f7ff fffe 	bl	0 <init_server_post>
 1be:	2800      	cmp	r0, #0
 1c0:	f000 81a7 	beq.w	512 <_ZN5mylib13listen_sensor16read_temperature17he2b173009b04e774E+0x512>
/Users/Luppy/mynewt/stm32bluepill-mynewt-sensor/src/send_coap.rs:346
    let _payload = coap!(@json {
 1c4:	f7ff fffe 	bl	0 <json_rep_start_root_object>
 1c8:	f107 0901 	add.w	r9, r7, #1
 1cc:	f240 0100 	movw	r1, #0
 1d0:	f2c0 0100 	movt	r1, #0
 1d4:	4648      	mov	r0, r9
 1d6:	f7ff fffe 	bl	0 <json_helper_set_array>
 1da:	f240 0000 	movw	r0, #0
 1de:	f2c0 0000 	movt	r0, #0
 1e2:	f7ff fffe 	bl	0 <json_helper_object_array_start_item>
_ZN4core10intrinsics19copy_nonoverlapping17hd71b315a656b9b4cE():
/rustc/50a0defd5a93523067ef239936cc2e0755220904/src/libcore/intrinsics.rs:1412
 1e6:	f240 0000 	movw	r0, #0
 1ea:	f107 0521 	add.w	r5, r7, #33	; 0x21
 1ee:	f2c0 0000 	movt	r0, #0
_ZN5mylib6mynewt8encoding12json_context11JsonContext13value_to_cstr17h38930413c7280351E():
/Users/Luppy/mynewt/stm32bluepill-mynewt-sensor/src/mynewt/encoding/json_context.rs:47
        self.value_buffer[s.len()] = 0;
 1f2:	f887 4027 	strb.w	r4, [r7, #39]	; 0x27
_ZN4core10intrinsics19copy_nonoverlapping17hd71b315a656b9b4cE():
/rustc/50a0defd5a93523067ef239936cc2e0755220904/src/libcore/intrinsics.rs:1412
 1f6:	8881      	ldrh	r1, [r0, #4]
_ZN5mylib9send_coap26send_sensor_data_to_server17h6c31d1914e279457E():
/Users/Luppy/mynewt/stm32bluepill-mynewt-sensor/src/send_coap.rs:346
 1f8:	462a      	mov	r2, r5
_ZN4core10intrinsics19copy_nonoverlapping17hd71b315a656b9b4cE():
/rustc/50a0defd5a93523067ef239936cc2e0755220904/src/libcore/intrinsics.rs:1412
 1fa:	f8a7 1025 	strh.w	r1, [r7, #37]	; 0x25
_ZN5mylib9send_coap26send_sensor_data_to_server17h6c31d1914e279457E():
/Users/Luppy/mynewt/stm32bluepill-mynewt-sensor/src/send_coap.rs:346
 1fe:	f240 0100 	movw	r1, #0
_ZN4core10intrinsics19copy_nonoverlapping17hd71b315a656b9b4cE():
/rustc/50a0defd5a93523067ef239936cc2e0755220904/src/libcore/intrinsics.rs:1412
 202:	6800      	ldr	r0, [r0, #0]
_ZN5mylib9send_coap26send_sensor_data_to_server17h6c31d1914e279457E():
/Users/Luppy/mynewt/stm32bluepill-mynewt-sensor/src/send_coap.rs:346
 204:	f2c0 0100 	movt	r1, #0
_ZN4core10intrinsics19copy_nonoverlapping17hd71b315a656b9b4cE():
/rustc/50a0defd5a93523067ef239936cc2e0755220904/src/libcore/intrinsics.rs:1412
 208:	f8c7 0021 	str.w	r0, [r7, #33]	; 0x21
_ZN5mylib9send_coap26send_sensor_data_to_server17h6c31d1914e279457E():
/Users/Luppy/mynewt/stm32bluepill-mynewt-sensor/src/send_coap.rs:346
 20c:	4648      	mov	r0, r9
 20e:	f7ff fffe 	bl	0 <json_helper_set_text_string>
_ZN4core3num23_$LT$impl$u20$usize$GT$15overflowing_sub17h3d9756556b058eb6E():
/rustc/50a0defd5a93523067ef239936cc2e0755220904/src/libcore/num/mod.rs:3377
 212:	f1b8 0f01 	cmp.w	r8, #1
_ZN70_$LT$core..option..Option$LT$T$GT$$u20$as$u20$core..cmp..PartialEq$GT$2eq17h7a81ebdc5e84687cE():
/rustc/50a0defd5a93523067ef239936cc2e0755220904/src/libcore/option.rs:148
 216:	d306      	bcc.n	226 <_ZN5mylib13listen_sensor16read_temperature17he2b173009b04e774E+0x226>
_ZN5mylib6mynewt8encoding12json_context11JsonContext13value_to_cstr17h38930413c7280351E():
 218:	f1a8 0001 	sub.w	r0, r8, #1
_ZN70_$LT$core..option..Option$LT$T$GT$$u20$as$u20$core..cmp..PartialEq$GT$2eq17h7a81ebdc5e84687cE():
/rustc/50a0defd5a93523067ef239936cc2e0755220904/src/libcore/option.rs:148
 21c:	4540      	cmp	r0, r8
 21e:	d202      	bcs.n	226 <_ZN5mylib13listen_sensor16read_temperature17he2b173009b04e774E+0x226>
_ZN5mylib6mynewt8encoding12json_context11JsonContext13value_to_cstr17h38930413c7280351E():
 220:	f81b 0000 	ldrb.w	r0, [fp, r0]
/Users/Luppy/mynewt/stm32bluepill-mynewt-sensor/src/mynewt/encoding/json_context.rs:43
        if s.last() == Some(&0) { return s.as_ptr() as *const c_char; }
 224:	b160      	cbz	r0, 240 <_ZN5mylib13listen_sensor16read_temperature17he2b173009b04e774E+0x240>
/Users/Luppy/mynewt/stm32bluepill-mynewt-sensor/src/mynewt/encoding/json_context.rs:45
        assert!(s.len() < JSON_VALUE_SIZE);  //  Value too long
 226:	f1b8 0f20 	cmp.w	r8, #32
 22a:	f080 811e 	bcs.w	46a <_ZN5mylib13listen_sensor16read_temperature17he2b173009b04e774E+0x46a>
_ZN4core10intrinsics19copy_nonoverlapping17hd71b315a656b9b4cE():
/rustc/50a0defd5a93523067ef239936cc2e0755220904/src/libcore/intrinsics.rs:1412
 22e:	4628      	mov	r0, r5
 230:	4659      	mov	r1, fp
 232:	4642      	mov	r2, r8
 234:	f7ff fffe 	bl	0 <__aeabi_memcpy>
 238:	2000      	movs	r0, #0
_ZN5mylib6mynewt8encoding12json_context11JsonContext13value_to_cstr17h38930413c7280351E():
 23a:	46ab      	mov	fp, r5
/Users/Luppy/mynewt/stm32bluepill-mynewt-sensor/src/mynewt/encoding/json_context.rs:47
        self.value_buffer[s.len()] = 0;
 23c:	f805 0008 	strb.w	r0, [r5, r8]
_ZN5mylib9send_coap26send_sensor_data_to_server17h6c31d1914e279457E():
/Users/Luppy/mynewt/stm32bluepill-mynewt-sensor/src/send_coap.rs:346
 240:	f240 0100 	movw	r1, #0
 244:	4648      	mov	r0, r9
 246:	f2c0 0100 	movt	r1, #0
 24a:	465a      	mov	r2, fp
 24c:	f7ff fffe 	bl	0 <json_helper_set_text_string>
 250:	f240 0400 	movw	r4, #0
 254:	f2c0 0400 	movt	r4, #0
 258:	4620      	mov	r0, r4
 25a:	f7ff fffe 	bl	0 <json_helper_object_array_end_item>
 25e:	4620      	mov	r0, r4
 260:	f7ff fffe 	bl	0 <json_helper_object_array_start_item>
 264:	f646 706e 	movw	r0, #28526	; 0x6f6e
_ZN4core10intrinsics19copy_nonoverlapping17hd71b315a656b9b4cE():
/rustc/50a0defd5a93523067ef239936cc2e0755220904/src/libcore/intrinsics.rs:1412
 268:	463a      	mov	r2, r7
 26a:	f2c6 5064 	movt	r0, #25956	; 0x6564
_ZN5mylib9send_coap26send_sensor_data_to_server17h6c31d1914e279457E():
/Users/Luppy/mynewt/stm32bluepill-mynewt-sensor/src/send_coap.rs:346
 26e:	f240 0100 	movw	r1, #0
_ZN4core10intrinsics19copy_nonoverlapping17hd71b315a656b9b4cE():
/rustc/50a0defd5a93523067ef239936cc2e0755220904/src/libcore/intrinsics.rs:1412
 272:	f842 0f21 	str.w	r0, [r2, #33]!
 276:	2000      	movs	r0, #0
_ZN5mylib9send_coap26send_sensor_data_to_server17h6c31d1914e279457E():
/Users/Luppy/mynewt/stm32bluepill-mynewt-sensor/src/send_coap.rs:346
 278:	f2c0 0100 	movt	r1, #0
_ZN5mylib6mynewt8encoding12json_context11JsonContext13value_to_cstr17h38930413c7280351E():
/Users/Luppy/mynewt/stm32bluepill-mynewt-sensor/src/mynewt/encoding/json_context.rs:47
 27c:	7110      	strb	r0, [r2, #4]
_ZN5mylib9send_coap26send_sensor_data_to_server17h6c31d1914e279457E():
/Users/Luppy/mynewt/stm32bluepill-mynewt-sensor/src/send_coap.rs:346
 27e:	4648      	mov	r0, r9
 280:	f7ff fffe 	bl	0 <json_helper_set_text_string>
 284:	9801      	ldr	r0, [sp, #4]
 286:	5c30      	ldrb	r0, [r6, r0]
_ZN5mylib6mynewt8encoding12json_context11JsonContext13value_to_cstr17h38930413c7280351E():
/Users/Luppy/mynewt/stm32bluepill-mynewt-sensor/src/mynewt/encoding/json_context.rs:43
        if s.last() == Some(&0) { return s.as_ptr() as *const c_char; }
 288:	b160      	cbz	r0, 2a4 <_ZN5mylib13listen_sensor16read_temperature17he2b173009b04e774E+0x2a4>
/Users/Luppy/mynewt/stm32bluepill-mynewt-sensor/src/mynewt/encoding/json_context.rs:45
        assert!(s.len() < JSON_VALUE_SIZE);  //  Value too long
 28a:	f1ba 0f20 	cmp.w	sl, #32
 28e:	f080 80ec 	bcs.w	46a <_ZN5mylib13listen_sensor16read_temperature17he2b173009b04e774E+0x46a>
_ZN4core10intrinsics19copy_nonoverlapping17hd71b315a656b9b4cE():
/rustc/50a0defd5a93523067ef239936cc2e0755220904/src/libcore/intrinsics.rs:1412
 292:	4628      	mov	r0, r5
 294:	4631      	mov	r1, r6
 296:	4652      	mov	r2, sl
 298:	f7ff fffe 	bl	0 <__aeabi_memcpy>
 29c:	2000      	movs	r0, #0
_ZN5mylib6mynewt8encoding12json_context11JsonContext13value_to_cstr17h38930413c7280351E():
 29e:	462e      	mov	r6, r5
/Users/Luppy/mynewt/stm32bluepill-mynewt-sensor/src/mynewt/encoding/json_context.rs:47
        self.value_buffer[s.len()] = 0;
 2a0:	f805 000a 	strb.w	r0, [r5, sl]
_ZN5mylib9send_coap26send_sensor_data_to_server17h6c31d1914e279457E():
/Users/Luppy/mynewt/stm32bluepill-mynewt-sensor/src/send_coap.rs:346
 2a4:	f240 0100 	movw	r1, #0
 2a8:	4648      	mov	r0, r9
 2aa:	f2c0 0100 	movt	r1, #0
 2ae:	4632      	mov	r2, r6
 2b0:	f7ff fffe 	bl	0 <json_helper_set_text_string>
 2b4:	f240 0000 	movw	r0, #0
 2b8:	f2c0 0000 	movt	r0, #0
 2bc:	f7ff fffe 	bl	0 <json_helper_object_array_end_item>
 2c0:	9802      	ldr	r0, [sp, #8]
 2c2:	2801      	cmp	r0, #1
 2c4:	f040 80a7 	bne.w	416 <_ZN5mylib13listen_sensor16read_temperature17he2b173009b04e774E+0x416>
 2c8:	f240 0400 	movw	r4, #0
 2cc:	f2c0 0400 	movt	r4, #0
 2d0:	4620      	mov	r0, r4
 2d2:	f7ff fffe 	bl	0 <json_helper_object_array_start_item>
_ZN4core10intrinsics19copy_nonoverlapping17hd71b315a656b9b4cE():
/rustc/50a0defd5a93523067ef239936cc2e0755220904/src/libcore/intrinsics.rs:1412
 2d6:	f240 0000 	movw	r0, #0
 2da:	2500      	movs	r5, #0
 2dc:	f2c0 0000 	movt	r0, #0
 2e0:	8801      	ldrh	r1, [r0, #0]
 2e2:	f827 1f01 	strh.w	r1, [r7, #1]!
 2e6:	7880      	ldrb	r0, [r0, #2]
 2e8:	70b8      	strb	r0, [r7, #2]
 2ea:	2074      	movs	r0, #116	; 0x74
 2ec:	463a      	mov	r2, r7
_ZN5mylib6mynewt8encoding12json_context11JsonContext11key_to_cstr17h9ac7180d5f364c91E():
/Users/Luppy/mynewt/stm32bluepill-mynewt-sensor/src/mynewt/encoding/json_context.rs:34
        self.key_buffer[s.len()] = 0;
 2ee:	70fd      	strb	r5, [r7, #3]
_ZN4core10intrinsics19copy_nonoverlapping17hd71b315a656b9b4cE():
/rustc/50a0defd5a93523067ef239936cc2e0755220904/src/libcore/intrinsics.rs:1412
 2f0:	f822 0f20 	strh.w	r0, [r2, #32]!
_ZN5mylib9send_coap26send_sensor_data_to_server17h6c31d1914e279457E():
/Users/Luppy/mynewt/stm32bluepill-mynewt-sensor/src/send_coap.rs:346
 2f4:	4638      	mov	r0, r7
 2f6:	4639      	mov	r1, r7
 2f8:	f7ff fffe 	bl	0 <json_helper_set_text_string>
_ZN4core10intrinsics19copy_nonoverlapping17hd71b315a656b9b4cE():
/rustc/50a0defd5a93523067ef239936cc2e0755220904/src/libcore/intrinsics.rs:1412
 2fc:	f240 0000 	movw	r0, #0
_ZN5mylib9send_coap26send_sensor_data_to_server17h6c31d1914e279457E():
/Users/Luppy/mynewt/stm32bluepill-mynewt-sensor/src/send_coap.rs:346
 300:	9a03      	ldr	r2, [sp, #12]
_ZN4core10intrinsics19copy_nonoverlapping17hd71b315a656b9b4cE():
/rustc/50a0defd5a93523067ef239936cc2e0755220904/src/libcore/intrinsics.rs:1412
 302:	f2c0 0000 	movt	r0, #0
_ZN5mylib6mynewt8encoding12json_context11JsonContext11key_to_cstr17h9ac7180d5f364c91E():
/Users/Luppy/mynewt/stm32bluepill-mynewt-sensor/src/mynewt/encoding/json_context.rs:34
 306:	717d      	strb	r5, [r7, #5]
_ZN4core10intrinsics19copy_nonoverlapping17hd71b315a656b9b4cE():
/rustc/50a0defd5a93523067ef239936cc2e0755220904/src/libcore/intrinsics.rs:1412
 308:	7901      	ldrb	r1, [r0, #4]
_ZN5mylib9send_coap26send_sensor_data_to_server17h6c31d1914e279457E():
/Users/Luppy/mynewt/stm32bluepill-mynewt-sensor/src/send_coap.rs:346
 30a:	2300      	movs	r3, #0
_ZN4core10intrinsics19copy_nonoverlapping17hd71b315a656b9b4cE():
/rustc/50a0defd5a93523067ef239936cc2e0755220904/src/libcore/intrinsics.rs:1412
 30c:	6800      	ldr	r0, [r0, #0]
 30e:	7139      	strb	r1, [r7, #4]
_ZN5mylib9send_coap26send_sensor_data_to_server17h6c31d1914e279457E():
/Users/Luppy/mynewt/stm32bluepill-mynewt-sensor/src/send_coap.rs:346
 310:	4639      	mov	r1, r7
_ZN4core10intrinsics19copy_nonoverlapping17hd71b315a656b9b4cE():
/rustc/50a0defd5a93523067ef239936cc2e0755220904/src/libcore/intrinsics.rs:1412
 312:	6038      	str	r0, [r7, #0]
_ZN5mylib9send_coap26send_sensor_data_to_server17h6c31d1914e279457E():
/Users/Luppy/mynewt/stm32bluepill-mynewt-sensor/src/send_coap.rs:346
 314:	4638      	mov	r0, r7
 316:	f7ff fffe 	bl	0 <json_helper_set_int>
 31a:	4620      	mov	r0, r4
 31c:	f7ff fffe 	bl	0 <json_helper_object_array_end_item>
 320:	f240 0100 	movw	r1, #0
 324:	4638      	mov	r0, r7
 326:	f2c0 0100 	movt	r1, #0
 32a:	f7ff fffe 	bl	0 <json_helper_close_array>
 32e:	f7ff fffe 	bl	0 <json_rep_end_root_object>
/Users/Luppy/mynewt/stm32bluepill-mynewt-sensor/src/send_coap.rs:362
    let rc = unsafe { sensor_network::do_server_post() };  assert!(rc);
 332:	f7ff fffe 	bl	0 <do_server_post>
 336:	2800      	cmp	r0, #0
 338:	f000 80f2 	beq.w	520 <_ZN5mylib13listen_sensor16read_temperature17he2b173009b04e774E+0x520>
_ZN5mylib4base13console_print17h86a834b313ce42ceE():
/Users/Luppy/mynewt/stm32bluepill-mynewt-sensor/src/base.rs:18
 33c:	f240 0000 	movw	r0, #0
 340:	214b      	movs	r1, #75	; 0x4b
 342:	f2c0 0000 	movt	r0, #0
_ZN5mylib9send_coap16send_sensor_data17hf7fec4a83b716792E():
 346:	f7ff fffe 	bl	0 <console_buffer>
 34a:	f7ff fffe 	bl	0 <console_flush>
 34e:	2001      	movs	r0, #1
_ZN5mylib13listen_sensor16read_temperature17he2b173009b04e774E():
/Users/Luppy/mynewt/stm32bluepill-mynewt-sensor/src/listen_sensor.rs:109
    if let Err(err) = rc {  //  `if let` will assign `err` to the error code inside `rc`
 350:	3006      	adds	r0, #6
 352:	d10d      	bne.n	370 <_ZN5mylib13listen_sensor16read_temperature17he2b173009b04e774E+0x370>
 354:	e003      	b.n	35e <_ZN5mylib13listen_sensor16read_temperature17he2b173009b04e774E+0x35e>
 356:	f06f 0005 	mvn.w	r0, #5
 35a:	3006      	adds	r0, #6
 35c:	d108      	bne.n	370 <_ZN5mylib13listen_sensor16read_temperature17he2b173009b04e774E+0x370>
_ZN5mylib4base13console_print17h86a834b313ce42ceE():
/Users/Luppy/mynewt/stm32bluepill-mynewt-sensor/src/base.rs:18
 35e:	f240 0000 	movw	r0, #0
 362:	2116      	movs	r1, #22
 364:	f2c0 0000 	movt	r0, #0
 368:	f7ff fffe 	bl	0 <console_buffer>
/Users/Luppy/mynewt/stm32bluepill-mynewt-sensor/src/base.rs:19
        console_flush();  //  TODO: Remove this.
 36c:	f7ff fffe 	bl	0 <console_flush>
_ZN5mylib13listen_sensor16read_temperature17he2b173009b04e774E():
 370:	2000      	movs	r0, #0
/Users/Luppy/mynewt/stm32bluepill-mynewt-sensor/src/listen_sensor.rs:117
}
 372:	b015      	add	sp, #84	; 0x54
 374:	e8bd 8ff0 	ldmia.w	sp!, {r4, r5, r6, r7, r8, r9, sl, fp, pc}
/Users/Luppy/mynewt/stm32bluepill-mynewt-sensor/src/listen_sensor.rs:87
    assert!(unsafe { !is_null_sensor(sensor) });
 378:	f240 0000 	movw	r0, #0
 37c:	f2c0 0000 	movt	r0, #0
 380:	f7ff fffe 	bl	0 <_ZN4core9panicking5panic17h53ca63c6ac6312f8E>
 384:	defe      	udf	#254	; 0xfe
/Users/Luppy/mynewt/stm32bluepill-mynewt-sensor/src/listen_sensor.rs:99
    if let SensorValueType::None = temp_sensor_value.val { assert!(false); }  //  Invalid type
 386:	f240 0000 	movw	r0, #0
 38a:	f2c0 0000 	movt	r0, #0
 38e:	f7ff fffe 	bl	0 <_ZN4core9panicking5panic17h53ca63c6ac6312f8E>
 392:	defe      	udf	#254	; 0xfe
_ZN5mylib13listen_sensor15get_temperature17h09cebd7ff5207704E():
/Users/Luppy/mynewt/stm32bluepill-mynewt-sensor/src/listen_sensor.rs:131
            assert!(rc == 0);
 394:	f240 0000 	movw	r0, #0
 398:	f2c0 0000 	movt	r0, #0
 39c:	f7ff fffe 	bl	0 <_ZN4core9panicking5panic17h53ca63c6ac6312f8E>
 3a0:	defe      	udf	#254	; 0xfe
/Users/Luppy/mynewt/stm32bluepill-mynewt-sensor/src/listen_sensor.rs:144
            assert!(rc == 0);
 3a2:	f240 0000 	movw	r0, #0
 3a6:	f2c0 0000 	movt	r0, #0
 3aa:	f7ff fffe 	bl	0 <_ZN4core9panicking5panic17h53ca63c6ac6312f8E>
 3ae:	defe      	udf	#254	; 0xfe
_ZN99_$LT$core..ops..range..Range$LT$usize$GT$$u20$as$u20$core..slice..SliceIndex$LT$$u5b$T$u5d$$GT$$GT$5index17hd2b7255c9fba6589E():
/rustc/50a0defd5a93523067ef239936cc2e0755220904/src/libcore/slice/mod.rs:2746
 3b0:	2100      	movs	r1, #0
 3b2:	f7ff fffe 	bl	0 <_ZN4core5slice20slice_index_len_fail17hedb5bb240677a6b7E>
 3b6:	defe      	udf	#254	; 0xfe
_ZN5mylib9send_coap26send_sensor_data_to_server17h6c31d1914e279457E():
/Users/Luppy/mynewt/stm32bluepill-mynewt-sensor/src/send_coap.rs:335
    assert_ne!(node_id.to_bytes()[0], 0);
 3b8:	f240 0000 	movw	r0, #0
 3bc:	2100      	movs	r1, #0
 3be:	f2c0 0000 	movt	r0, #0
 3c2:	2200      	movs	r2, #0
 3c4:	f7ff fffe 	bl	0 <_ZN4core9panicking18panic_bounds_check17h946762cd0671aec9E>
 3c8:	defe      	udf	#254	; 0xfe
 3ca:	f240 0000 	movw	r0, #0
 3ce:	a914      	add	r1, sp, #80	; 0x50
 3d0:	f2c0 0000 	movt	r0, #0
 3d4:	9613      	str	r6, [sp, #76]	; 0x4c
 3d6:	900c      	str	r0, [sp, #48]	; 0x30
 3d8:	e9cd 010a 	strd	r0, r1, [sp, #40]	; 0x28
 3dc:	a813      	add	r0, sp, #76	; 0x4c
 3de:	9009      	str	r0, [sp, #36]	; 0x24
 3e0:	f240 0000 	movw	r0, #0
 3e4:	f2c0 0000 	movt	r0, #0
 3e8:	f240 0100 	movw	r1, #0
 3ec:	9014      	str	r0, [sp, #80]	; 0x50
 3ee:	2002      	movs	r0, #2
_ZN4core3fmt9Arguments6new_v117ha99294a9defa432aE():
/rustc/50a0defd5a93523067ef239936cc2e0755220904/src/libcore/fmt/mod.rs:316
 3f0:	9012      	str	r0, [sp, #72]	; 0x48
 3f2:	a809      	add	r0, sp, #36	; 0x24
 3f4:	9011      	str	r0, [sp, #68]	; 0x44
 3f6:	2000      	movs	r0, #0
 3f8:	e9cd 000f 	strd	r0, r0, [sp, #60]	; 0x3c
 3fc:	2003      	movs	r0, #3
 3fe:	900e      	str	r0, [sp, #56]	; 0x38
 400:	f240 0000 	movw	r0, #0
 404:	f2c0 0000 	movt	r0, #0
_ZN5mylib9send_coap26send_sensor_data_to_server17h6c31d1914e279457E():
/Users/Luppy/mynewt/stm32bluepill-mynewt-sensor/src/send_coap.rs:335
 408:	f2c0 0100 	movt	r1, #0
_ZN4core3fmt9Arguments6new_v117ha99294a9defa432aE():
/rustc/50a0defd5a93523067ef239936cc2e0755220904/src/libcore/fmt/mod.rs:316
 40c:	900d      	str	r0, [sp, #52]	; 0x34
 40e:	a80d      	add	r0, sp, #52	; 0x34
_ZN5mylib9send_coap26send_sensor_data_to_server17h6c31d1914e279457E():
/Users/Luppy/mynewt/stm32bluepill-mynewt-sensor/src/send_coap.rs:335
 410:	f7ff fffe 	bl	0 <_ZN4core9panicking9panic_fmt17h6b4d8e87b0965449E>
 414:	defe      	udf	#254	; 0xfe
_ZN5mylib9send_coap16send_sensor_data17hf7fec4a83b716792E():
 416:	2001      	movs	r0, #1
 418:	a914      	add	r1, sp, #80	; 0x50
 41a:	f88d 0020 	strb.w	r0, [sp, #32]
 41e:	a808      	add	r0, sp, #32
 420:	9013      	str	r0, [sp, #76]	; 0x4c
 422:	f240 0000 	movw	r0, #0
 426:	f2c0 0000 	movt	r0, #0
 42a:	900c      	str	r0, [sp, #48]	; 0x30
 42c:	910b      	str	r1, [sp, #44]	; 0x2c
 42e:	f240 0100 	movw	r1, #0
 432:	900a      	str	r0, [sp, #40]	; 0x28
 434:	a813      	add	r0, sp, #76	; 0x4c
 436:	9009      	str	r0, [sp, #36]	; 0x24
 438:	f240 0000 	movw	r0, #0
 43c:	f2c0 0000 	movt	r0, #0
 440:	f2c0 0100 	movt	r1, #0
 444:	9014      	str	r0, [sp, #80]	; 0x50
 446:	2002      	movs	r0, #2
 448:	9012      	str	r0, [sp, #72]	; 0x48
 44a:	a809      	add	r0, sp, #36	; 0x24
 44c:	9011      	str	r0, [sp, #68]	; 0x44
 44e:	2000      	movs	r0, #0
 450:	9010      	str	r0, [sp, #64]	; 0x40
 452:	900f      	str	r0, [sp, #60]	; 0x3c
 454:	2003      	movs	r0, #3
 456:	900e      	str	r0, [sp, #56]	; 0x38
 458:	f240 0000 	movw	r0, #0
 45c:	f2c0 0000 	movt	r0, #0
 460:	900d      	str	r0, [sp, #52]	; 0x34
 462:	a80d      	add	r0, sp, #52	; 0x34
 464:	f7ff fffe 	bl	0 <_ZN4core9panicking9panic_fmt17h6b4d8e87b0965449E>
 468:	defe      	udf	#254	; 0xfe
_ZN5mylib9send_coap26send_sensor_data_to_server17h6c31d1914e279457E():
 46a:	f240 0000 	movw	r0, #0
 46e:	f2c0 0000 	movt	r0, #0
 472:	f7ff fffe 	bl	0 <_ZN4core9panicking5panic17h53ca63c6ac6312f8E>
 476:	defe      	udf	#254	; 0xfe
_ZN5mylib9send_coap29send_sensor_data_to_collector17h7e2f5f6f4413977fE():
/Users/Luppy/mynewt/stm32bluepill-mynewt-sensor/src/send_coap.rs:391
    let rc = unsafe { sensor_network::init_collector_post() };  assert!(rc);
 478:	f240 0000 	movw	r0, #0
 47c:	f2c0 0000 	movt	r0, #0
 480:	f7ff fffe 	bl	0 <_ZN4core9panicking5panic17h53ca63c6ac6312f8E>
 484:	defe      	udf	#254	; 0xfe
 486:	a808      	add	r0, sp, #32
_ZN5mylib6mynewt8encoding12json_context11JsonContext12check_result17hd052d2fa06a87de6E():
/Users/Luppy/mynewt/stm32bluepill-mynewt-sensor/src/mynewt/encoding/json_context.rs:72
        assert_eq!(res, 0);
 488:	9013      	str	r0, [sp, #76]	; 0x4c
 48a:	f240 0000 	movw	r0, #0
 48e:	a914      	add	r1, sp, #80	; 0x50
 490:	f2c0 0000 	movt	r0, #0
 494:	900c      	str	r0, [sp, #48]	; 0x30
 496:	e9cd 010a 	strd	r0, r1, [sp, #40]	; 0x28
 49a:	a813      	add	r0, sp, #76	; 0x4c
 49c:	9009      	str	r0, [sp, #36]	; 0x24
 49e:	f240 0000 	movw	r0, #0
 4a2:	f2c0 0000 	movt	r0, #0
 4a6:	9014      	str	r0, [sp, #80]	; 0x50
 4a8:	2002      	movs	r0, #2
_ZN4core3fmt9Arguments6new_v117ha99294a9defa432aE():
/rustc/50a0defd5a93523067ef239936cc2e0755220904/src/libcore/fmt/mod.rs:316
 4aa:	9012      	str	r0, [sp, #72]	; 0x48
 4ac:	a809      	add	r0, sp, #36	; 0x24
 4ae:	9011      	str	r0, [sp, #68]	; 0x44
 4b0:	2000      	movs	r0, #0
 4b2:	e9cd 000f 	strd	r0, r0, [sp, #60]	; 0x3c
 4b6:	e016      	b.n	4e6 <_ZN5mylib13listen_sensor16read_temperature17he2b173009b04e774E+0x4e6>
_ZN5mylib9send_coap29send_sensor_data_to_collector17h7e2f5f6f4413977fE():
 4b8:	a808      	add	r0, sp, #32
_ZN5mylib6mynewt8encoding12json_context11JsonContext12check_result17hd052d2fa06a87de6E():
/Users/Luppy/mynewt/stm32bluepill-mynewt-sensor/src/mynewt/encoding/json_context.rs:72
 4ba:	9013      	str	r0, [sp, #76]	; 0x4c
 4bc:	f240 0000 	movw	r0, #0
 4c0:	a914      	add	r1, sp, #80	; 0x50
 4c2:	f2c0 0000 	movt	r0, #0
 4c6:	900c      	str	r0, [sp, #48]	; 0x30
 4c8:	e9cd 010a 	strd	r0, r1, [sp, #40]	; 0x28
 4cc:	a813      	add	r0, sp, #76	; 0x4c
 4ce:	9009      	str	r0, [sp, #36]	; 0x24
 4d0:	f240 0000 	movw	r0, #0
 4d4:	f2c0 0000 	movt	r0, #0
 4d8:	9014      	str	r0, [sp, #80]	; 0x50
 4da:	2002      	movs	r0, #2
_ZN4core3fmt9Arguments6new_v117ha99294a9defa432aE():
/rustc/50a0defd5a93523067ef239936cc2e0755220904/src/libcore/fmt/mod.rs:316
 4dc:	9012      	str	r0, [sp, #72]	; 0x48
 4de:	a809      	add	r0, sp, #36	; 0x24
 4e0:	9011      	str	r0, [sp, #68]	; 0x44
 4e2:	e9cd 440f 	strd	r4, r4, [sp, #60]	; 0x3c
_ZN5mylib9send_coap29send_sensor_data_to_collector17h7e2f5f6f4413977fE():
 4e6:	2003      	movs	r0, #3
 4e8:	f240 0100 	movw	r1, #0
 4ec:	900e      	str	r0, [sp, #56]	; 0x38
 4ee:	f240 0000 	movw	r0, #0
 4f2:	f2c0 0000 	movt	r0, #0
 4f6:	f2c0 0100 	movt	r1, #0
 4fa:	900d      	str	r0, [sp, #52]	; 0x34
 4fc:	a80d      	add	r0, sp, #52	; 0x34
 4fe:	f7ff fffe 	bl	0 <_ZN4core9panicking9panic_fmt17h6b4d8e87b0965449E>
 502:	defe      	udf	#254	; 0xfe
/Users/Luppy/mynewt/stm32bluepill-mynewt-sensor/src/send_coap.rs:402
    let rc = unsafe { sensor_network::do_collector_post() };  assert!(rc);
 504:	f240 0000 	movw	r0, #0
 508:	f2c0 0000 	movt	r0, #0
 50c:	f7ff fffe 	bl	0 <_ZN4core9panicking5panic17h53ca63c6ac6312f8E>
 510:	defe      	udf	#254	; 0xfe
_ZN5mylib9send_coap26send_sensor_data_to_server17h6c31d1914e279457E():
/Users/Luppy/mynewt/stm32bluepill-mynewt-sensor/src/send_coap.rs:343
    let rc = unsafe { sensor_network::init_server_post(0 as *const c_char) };  assert!(rc);
 512:	f240 0000 	movw	r0, #0
 516:	f2c0 0000 	movt	r0, #0
 51a:	f7ff fffe 	bl	0 <_ZN4core9panicking5panic17h53ca63c6ac6312f8E>
 51e:	defe      	udf	#254	; 0xfe
/Users/Luppy/mynewt/stm32bluepill-mynewt-sensor/src/send_coap.rs:362
    let rc = unsafe { sensor_network::do_server_post() };  assert!(rc);
 520:	f240 0000 	movw	r0, #0
 524:	f2c0 0000 	movt	r0, #0
 528:	f7ff fffe 	bl	0 <_ZN4core9panicking5panic17h53ca63c6ac6312f8E>
 52c:	defe      	udf	#254	; 0xfe

Disassembly of section .text._ZN5mylib9send_coap17network_task_func17h80783602aca0275eE:

00000000 <_ZN5mylib9send_coap17network_task_func17h80783602aca0275eE>:
_ZN5mylib9send_coap17network_task_func17h80783602aca0275eE():
/Users/Luppy/mynewt/stm32bluepill-mynewt-sensor/src/send_coap.rs:262
extern "C" fn network_task_func(_arg: *mut ::cty::c_void) {
   0:	b08e      	sub	sp, #56	; 0x38
_ZN5mylib4base13console_print17h86a834b313ce42ceE():
/Users/Luppy/mynewt/stm32bluepill-mynewt-sensor/src/base.rs:18
        console_buffer(msg.as_ptr(), len as u32);
   2:	f240 0000 	movw	r0, #0
   6:	210a      	movs	r1, #10
   8:	f2c0 0000 	movt	r0, #0
   c:	f7ff fffe 	bl	0 <console_buffer>
/Users/Luppy/mynewt/stm32bluepill-mynewt-sensor/src/base.rs:19
        console_flush();  //  TODO: Remove this.
  10:	f7ff fffe 	bl	0 <console_flush>
_ZN5mylib9send_coap17network_task_func17h80783602aca0275eE():
/Users/Luppy/mynewt/stm32bluepill-mynewt-sensor/src/send_coap.rs:263
    console_print(b"NET start\n");  assert!(unsafe { !NETWORK_IS_READY });
  14:	f240 0400 	movw	r4, #0
  18:	f2c0 0400 	movt	r4, #0
  1c:	7820      	ldrb	r0, [r4, #0]
  1e:	2801      	cmp	r0, #1
  20:	d026      	beq.n	70 <_ZN5mylib9send_coap17network_task_func17h80783602aca0275eE+0x70>
/Users/Luppy/mynewt/stm32bluepill-mynewt-sensor/src/send_coap.rs:268
        sensor_network::is_standalone_node() || 
  22:	f7ff fffe 	bl	0 <is_standalone_node>
  26:	b910      	cbnz	r0, 8 <is_collector_node+0x8>
/Users/Luppy/mynewt/stm32bluepill-mynewt-sensor/src/send_coap.rs:269
        sensor_network::is_collector_node() 
  28:	f7ff fffe 	bl	0 <is_collector_node>
/Users/Luppy/mynewt/stm32bluepill-mynewt-sensor/src/send_coap.rs:267
    if unsafe { 
  2c:	b120      	cbz	r0, c <register_server_transport+0xc>
/Users/Luppy/mynewt/stm32bluepill-mynewt-sensor/src/send_coap.rs:271
        let rc = unsafe { sensor_network::register_server_transport() };  assert_eq!(rc, 0);
  2e:	f7ff fffe 	bl	0 <register_server_transport>
  32:	2800      	cmp	r0, #0
  34:	9001      	str	r0, [sp, #4]
  36:	d122      	bne.n	7e <_ZN5mylib9send_coap17network_task_func17h80783602aca0275eE+0x7e>
/Users/Luppy/mynewt/stm32bluepill-mynewt-sensor/src/send_coap.rs:276
        sensor_network::is_collector_node() || 
  38:	f7ff fffe 	bl	0 <is_collector_node>
  3c:	b910      	cbnz	r0, 8 <is_sensor_node+0x8>
/Users/Luppy/mynewt/stm32bluepill-mynewt-sensor/src/send_coap.rs:277
        sensor_network::is_sensor_node() 
  3e:	f7ff fffe 	bl	0 <is_sensor_node>
/Users/Luppy/mynewt/stm32bluepill-mynewt-sensor/src/send_coap.rs:275
    if unsafe { 
  42:	b120      	cbz	r0, c <register_collector_transport+0xc>
/Users/Luppy/mynewt/stm32bluepill-mynewt-sensor/src/send_coap.rs:279
        let rc = unsafe { sensor_network::register_collector_transport() };  assert_eq!(rc, 0);
  44:	f7ff fffe 	bl	0 <register_collector_transport>
  48:	2800      	cmp	r0, #0
  4a:	9001      	str	r0, [sp, #4]
  4c:	d13e      	bne.n	cc <_ZN5mylib9send_coap17network_task_func17h80783602aca0275eE+0xcc>
  4e:	2001      	movs	r0, #1
/Users/Luppy/mynewt/stm32bluepill-mynewt-sensor/src/send_coap.rs:284
    unsafe { NETWORK_IS_READY = true; }  //  Indicate that network is ready.
  50:	7020      	strb	r0, [r4, #0]
  52:	f240 0400 	movw	r4, #0
  56:	f2c0 0400 	movt	r4, #0
_ZN5mylib4base13console_print17h86a834b313ce42ceE():
/Users/Luppy/mynewt/stm32bluepill-mynewt-sensor/src/base.rs:18
        console_buffer(msg.as_ptr(), len as u32);
  5a:	4620      	mov	r0, r4
  5c:	2111      	movs	r1, #17
  5e:	f7ff fffe 	bl	0 <console_buffer>
/Users/Luppy/mynewt/stm32bluepill-mynewt-sensor/src/base.rs:19
        console_flush();  //  TODO: Remove this.
  62:	f7ff fffe 	bl	0 <console_flush>
_ZN5mylib9send_coap17network_task_func17h80783602aca0275eE():
/Users/Luppy/mynewt/stm32bluepill-mynewt-sensor/src/send_coap.rs:288
        unsafe { os::os_time_delay(10 * os::OS_TICKS_PER_SEC); }                   //  Wait 10 seconds before repeating.
  66:	f242 7010 	movw	r0, #10000	; 0x2710
  6a:	f7ff fffe 	bl	0 <os_time_delay>
/Users/Luppy/mynewt/stm32bluepill-mynewt-sensor/src/send_coap.rs:286
    loop {  //  Loop forever...        
  6e:	e7f4      	b.n	ffffffec <.Lanon.b8b19a1dfda4939b48ac32d4017c0cc3.59+0xffffffe4>
/Users/Luppy/mynewt/stm32bluepill-mynewt-sensor/src/send_coap.rs:263
    console_print(b"NET start\n");  assert!(unsafe { !NETWORK_IS_READY });
  70:	f240 0000 	movw	r0, #0
  74:	f2c0 0000 	movt	r0, #0
  78:	f7ff fffe 	bl	0 <_ZN4core9panicking5panic17h53ca63c6ac6312f8E>
  7c:	defe      	udf	#254	; 0xfe
  7e:	a801      	add	r0, sp, #4
/Users/Luppy/mynewt/stm32bluepill-mynewt-sensor/src/send_coap.rs:271
        let rc = unsafe { sensor_network::register_server_transport() };  assert_eq!(rc, 0);
  80:	900c      	str	r0, [sp, #48]	; 0x30
  82:	f240 0000 	movw	r0, #0
  86:	a90d      	add	r1, sp, #52	; 0x34
  88:	f2c0 0000 	movt	r0, #0
  8c:	900b      	str	r0, [sp, #44]	; 0x2c
  8e:	e9cd 0109 	strd	r0, r1, [sp, #36]	; 0x24
  92:	a80c      	add	r0, sp, #48	; 0x30
  94:	9008      	str	r0, [sp, #32]
  96:	f240 0000 	movw	r0, #0
  9a:	f2c0 0000 	movt	r0, #0
  9e:	f240 0100 	movw	r1, #0
  a2:	900d      	str	r0, [sp, #52]	; 0x34
  a4:	2002      	movs	r0, #2
_ZN4core3fmt9Arguments6new_v117ha99294a9defa432aE():
/rustc/50a0defd5a93523067ef239936cc2e0755220904/src/libcore/fmt/mod.rs:316
  a6:	9007      	str	r0, [sp, #28]
  a8:	a808      	add	r0, sp, #32
  aa:	9006      	str	r0, [sp, #24]
  ac:	2000      	movs	r0, #0
  ae:	e9cd 0004 	strd	r0, r0, [sp, #16]
  b2:	2003      	movs	r0, #3
  b4:	9003      	str	r0, [sp, #12]
  b6:	f240 0000 	movw	r0, #0
  ba:	f2c0 0000 	movt	r0, #0
_ZN5mylib9send_coap17network_task_func17h80783602aca0275eE():
/Users/Luppy/mynewt/stm32bluepill-mynewt-sensor/src/send_coap.rs:271
  be:	f2c0 0100 	movt	r1, #0
_ZN4core3fmt9Arguments6new_v117ha99294a9defa432aE():
/rustc/50a0defd5a93523067ef239936cc2e0755220904/src/libcore/fmt/mod.rs:316
  c2:	9002      	str	r0, [sp, #8]
  c4:	a802      	add	r0, sp, #8
_ZN5mylib9send_coap17network_task_func17h80783602aca0275eE():
/Users/Luppy/mynewt/stm32bluepill-mynewt-sensor/src/send_coap.rs:271
  c6:	f7ff fffe 	bl	0 <_ZN4core9panicking9panic_fmt17h6b4d8e87b0965449E>
  ca:	defe      	udf	#254	; 0xfe
  cc:	a801      	add	r0, sp, #4
/Users/Luppy/mynewt/stm32bluepill-mynewt-sensor/src/send_coap.rs:279
        let rc = unsafe { sensor_network::register_collector_transport() };  assert_eq!(rc, 0);
  ce:	900c      	str	r0, [sp, #48]	; 0x30
  d0:	f240 0000 	movw	r0, #0
  d4:	a90d      	add	r1, sp, #52	; 0x34
  d6:	f2c0 0000 	movt	r0, #0
  da:	900b      	str	r0, [sp, #44]	; 0x2c
  dc:	e9cd 0109 	strd	r0, r1, [sp, #36]	; 0x24
  e0:	a80c      	add	r0, sp, #48	; 0x30
  e2:	9008      	str	r0, [sp, #32]
  e4:	f240 0000 	movw	r0, #0
  e8:	f2c0 0000 	movt	r0, #0
  ec:	f240 0100 	movw	r1, #0
  f0:	900d      	str	r0, [sp, #52]	; 0x34
  f2:	2002      	movs	r0, #2
_ZN4core3fmt9Arguments6new_v117ha99294a9defa432aE():
/rustc/50a0defd5a93523067ef239936cc2e0755220904/src/libcore/fmt/mod.rs:316
  f4:	9007      	str	r0, [sp, #28]
  f6:	a808      	add	r0, sp, #32
  f8:	9006      	str	r0, [sp, #24]
  fa:	2000      	movs	r0, #0
  fc:	e9cd 0004 	strd	r0, r0, [sp, #16]
 100:	2003      	movs	r0, #3
 102:	9003      	str	r0, [sp, #12]
 104:	f240 0000 	movw	r0, #0
 108:	f2c0 0000 	movt	r0, #0
_ZN5mylib9send_coap17network_task_func17h80783602aca0275eE():
/Users/Luppy/mynewt/stm32bluepill-mynewt-sensor/src/send_coap.rs:279
 10c:	f2c0 0100 	movt	r1, #0
_ZN4core3fmt9Arguments6new_v117ha99294a9defa432aE():
/rustc/50a0defd5a93523067ef239936cc2e0755220904/src/libcore/fmt/mod.rs:316
 110:	9002      	str	r0, [sp, #8]
 112:	a802      	add	r0, sp, #8
_ZN5mylib9send_coap17network_task_func17h80783602aca0275eE():
/Users/Luppy/mynewt/stm32bluepill-mynewt-sensor/src/send_coap.rs:279
 114:	f7ff fffe 	bl	0 <_ZN4core9panicking9panic_fmt17h6b4d8e87b0965449E>
 118:	defe      	udf	#254	; 0xfe

Disassembly of section .text.main:

00000000 <main>:
main():
/Users/Luppy/mynewt/stm32bluepill-mynewt-sensor/src/lib.rs:34
use mynewt::kernel::os;         //  Import Mynewt OS API
use crate::base::*;             //  Import `base.rs` for common declarations

///  main() will be called at Mynewt startup. It replaces the C version of the main() function.
#[no_mangle]                     //  Don't mangle the name "main"
extern "C" fn main() -> ! {  //  Declare extern "C" because it will be called by Mynewt
   0:	b092      	sub	sp, #72	; 0x48
/Users/Luppy/mynewt/stm32bluepill-mynewt-sensor/src/lib.rs:36
    //  Init Mynewt system.
    unsafe { base::rust_sysinit()  };
   2:	f7ff fffe 	bl	0 <rust_sysinit>
/Users/Luppy/mynewt/stm32bluepill-mynewt-sensor/src/lib.rs:37
    unsafe { console_flush() };
   6:	f7ff fffe 	bl	0 <console_flush>
_ZN5mylib4base13console_print17h86a834b313ce42ceE():
/Users/Luppy/mynewt/stm32bluepill-mynewt-sensor/src/base.rs:18
        console_buffer(msg.as_ptr(), len as u32);
   a:	f240 0000 	movw	r0, #0
   e:	210a      	movs	r1, #10
  10:	f2c0 0000 	movt	r0, #0
  14:	240a      	movs	r4, #10
  16:	f7ff fffe 	bl	0 <console_buffer>
/Users/Luppy/mynewt/stm32bluepill-mynewt-sensor/src/base.rs:19
        console_flush();  //  TODO: Remove this.
  1a:	f7ff fffe 	bl	0 <console_flush>
_ZN5mylib9send_coap18start_network_task17h0698249e570ee6b9E():
/Users/Luppy/mynewt/stm32bluepill-mynewt-sensor/src/send_coap.rs:238
        os::os_task_init(                   //  Create a new task and start it...
  1e:	f240 0100 	movw	r1, #0
  22:	f04f 32ff 	mov.w	r2, #4294967295	; 0xffffffff
  26:	f44f 7080 	mov.w	r0, #256	; 0x100
  2a:	f2c0 0100 	movt	r1, #0
  2e:	e9cd 4200 	strd	r4, r2, [sp]
  32:	f240 0200 	movw	r2, #0
  36:	e9cd 1002 	strd	r1, r0, [sp, #8]
  3a:	f240 0000 	movw	r0, #0
  3e:	f240 0100 	movw	r1, #0
  42:	f2c0 0000 	movt	r0, #0
  46:	f2c0 0100 	movt	r1, #0
  4a:	f2c0 0200 	movt	r2, #0
  4e:	2300      	movs	r3, #0
  50:	2400      	movs	r4, #0
  52:	f7ff fffe 	bl	0 <os_task_init>
/Users/Luppy/mynewt/stm32bluepill-mynewt-sensor/src/send_coap.rs:251
    assert_eq!(rc, 0);  //  Check for error
  56:	2800      	cmp	r0, #0
/Users/Luppy/mynewt/stm32bluepill-mynewt-sensor/src/send_coap.rs:238
        os::os_task_init(                   //  Create a new task and start it...
  58:	9009      	str	r0, [sp, #36]	; 0x24
/Users/Luppy/mynewt/stm32bluepill-mynewt-sensor/src/send_coap.rs:251
    assert_eq!(rc, 0);  //  Check for error
  5a:	d13f      	bne.n	dc <main+0xdc>
_ZN5mylib4base13console_print17h86a834b313ce42ceE():
/Users/Luppy/mynewt/stm32bluepill-mynewt-sensor/src/base.rs:18
        console_buffer(msg.as_ptr(), len as u32);
  5c:	f240 0000 	movw	r0, #0
  60:	210a      	movs	r1, #10
  62:	f2c0 0000 	movt	r0, #0
  66:	f7ff fffe 	bl	0 <console_buffer>
/Users/Luppy/mynewt/stm32bluepill-mynewt-sensor/src/base.rs:19
        console_flush();  //  TODO: Remove this.
  6a:	f7ff fffe 	bl	0 <console_flush>
_ZN5mylib13listen_sensor21start_sensor_listener17h27bd96e29e98a75aE():
/Users/Luppy/mynewt/stm32bluepill-mynewt-sensor/src/listen_sensor.rs:46
    let rc = unsafe { sensor::sensor_set_poll_rate_ms(SENSOR_DEVICE, SENSOR_POLL_TIME) };
  6e:	f240 0000 	movw	r0, #0
  72:	f242 7110 	movw	r1, #10000	; 0x2710
  76:	f2c0 0000 	movt	r0, #0
  7a:	f7ff fffe 	bl	0 <sensor_set_poll_rate_ms>
/Users/Luppy/mynewt/stm32bluepill-mynewt-sensor/src/listen_sensor.rs:47
    assert_eq!(rc, 0);
  7e:	2800      	cmp	r0, #0
/Users/Luppy/mynewt/stm32bluepill-mynewt-sensor/src/listen_sensor.rs:46
    let rc = unsafe { sensor::sensor_set_poll_rate_ms(SENSOR_DEVICE, SENSOR_POLL_TIME) };
  80:	9009      	str	r0, [sp, #36]	; 0x24
/Users/Luppy/mynewt/stm32bluepill-mynewt-sensor/src/listen_sensor.rs:47
    assert_eq!(rc, 0);
  82:	d151      	bne.n	128 <main+0x128>
/Users/Luppy/mynewt/stm32bluepill-mynewt-sensor/src/listen_sensor.rs:50
    let sensor = unsafe { sensor::sensor_mgr_find_next_bydevname(SENSOR_DEVICE, null_sensor()) };
  84:	f7ff fffe 	bl	0 <null_sensor>
  88:	4601      	mov	r1, r0
  8a:	f240 0000 	movw	r0, #0
  8e:	f2c0 0000 	movt	r0, #0
  92:	f7ff fffe 	bl	0 <sensor_mgr_find_next_bydevname>
  96:	4604      	mov	r4, r0
/Users/Luppy/mynewt/stm32bluepill-mynewt-sensor/src/listen_sensor.rs:51
    assert!(unsafe{ !is_null_sensor(sensor) });
  98:	f7ff fffe 	bl	0 <is_null_sensor>
  9c:	2800      	cmp	r0, #0
  9e:	d16a      	bne.n	176 <main+0x176>
_ZN5mylib6mynewt2hw6sensor17register_listener17h88b59641f80aea7dE():
/Users/Luppy/mynewt/stm32bluepill-mynewt-sensor/src/mynewt/hw/sensor.rs:66
    unsafe { assert!(LISTENER_INTERNAL.sl_sensor_type == 0) };  //  Make sure it's not used.
  a0:	f240 0100 	movw	r1, #0
  a4:	f2c0 0100 	movt	r1, #0
  a8:	e9d1 0200 	ldrd	r0, r2, [r1]
  ac:	4310      	orrs	r0, r2
  ae:	d169      	bne.n	184 <main+0x184>
/Users/Luppy/mynewt/stm32bluepill-mynewt-sensor/src/mynewt/hw/sensor.rs:68
    unsafe { LISTENER_INTERNAL = listener };
  b0:	f240 0300 	movw	r3, #0
  b4:	2000      	movs	r0, #0
  b6:	f04f 6280 	mov.w	r2, #67108864	; 0x4000000
  ba:	f04f 0c01 	mov.w	ip, #1
  be:	f2c0 0300 	movt	r3, #0
  c2:	e9c1 2000 	strd	r2, r0, [r1]
  c6:	e9c1 3c02 	strd	r3, ip, [r1, #8]
  ca:	6108      	str	r0, [r1, #16]
/Users/Luppy/mynewt/stm32bluepill-mynewt-sensor/src/mynewt/hw/sensor.rs:70
    unsafe { sensor_register_listener(sensor, &mut LISTENER_INTERNAL) };
  cc:	4620      	mov	r0, r4
  ce:	f7ff fffe 	bl	0 <sensor_register_listener>
main():
/Users/Luppy/mynewt/stm32bluepill-mynewt-sensor/src/lib.rs:55

    //  Main event loop
    loop {                            //  Loop forever...
        unsafe {
            os::os_eventq_run(            //  Process events...
                os::os_eventq_dflt_get()  //  From default event queue.
  d2:	f7ff fffe 	bl	0 <os_eventq_dflt_get>
/Users/Luppy/mynewt/stm32bluepill-mynewt-sensor/src/lib.rs:54
            os::os_eventq_run(            //  Process events...
  d6:	f7ff fffe 	bl	0 <os_eventq_run>
/Users/Luppy/mynewt/stm32bluepill-mynewt-sensor/src/lib.rs:52
    loop {                            //  Loop forever...
  da:	e7fa      	b.n	d2 <main+0xd2>
  dc:	a809      	add	r0, sp, #36	; 0x24
_ZN5mylib9send_coap18start_network_task17h0698249e570ee6b9E():
/Users/Luppy/mynewt/stm32bluepill-mynewt-sensor/src/send_coap.rs:251
  de:	9010      	str	r0, [sp, #64]	; 0x40
  e0:	f240 0000 	movw	r0, #0
  e4:	a911      	add	r1, sp, #68	; 0x44
  e6:	f2c0 0000 	movt	r0, #0
  ea:	9008      	str	r0, [sp, #32]
  ec:	e9cd 0106 	strd	r0, r1, [sp, #24]
  f0:	a810      	add	r0, sp, #64	; 0x40
  f2:	9005      	str	r0, [sp, #20]
  f4:	f240 0000 	movw	r0, #0
  f8:	f2c0 0000 	movt	r0, #0
  fc:	f240 0100 	movw	r1, #0
 100:	9011      	str	r0, [sp, #68]	; 0x44
 102:	2002      	movs	r0, #2
_ZN4core3fmt9Arguments6new_v117ha99294a9defa432aE():
/rustc/50a0defd5a93523067ef239936cc2e0755220904/src/libcore/fmt/mod.rs:316
 104:	900f      	str	r0, [sp, #60]	; 0x3c
 106:	a805      	add	r0, sp, #20
 108:	900e      	str	r0, [sp, #56]	; 0x38
 10a:	2003      	movs	r0, #3
 10c:	e9cd 440c 	strd	r4, r4, [sp, #48]	; 0x30
_ZN5mylib9send_coap18start_network_task17h0698249e570ee6b9E():
/Users/Luppy/mynewt/stm32bluepill-mynewt-sensor/src/send_coap.rs:251
 110:	f2c0 0100 	movt	r1, #0
_ZN4core3fmt9Arguments6new_v117ha99294a9defa432aE():
/rustc/50a0defd5a93523067ef239936cc2e0755220904/src/libcore/fmt/mod.rs:316
 114:	900b      	str	r0, [sp, #44]	; 0x2c
 116:	f240 0000 	movw	r0, #0
 11a:	f2c0 0000 	movt	r0, #0
 11e:	900a      	str	r0, [sp, #40]	; 0x28
 120:	a80a      	add	r0, sp, #40	; 0x28
_ZN5mylib9send_coap18start_network_task17h0698249e570ee6b9E():
/Users/Luppy/mynewt/stm32bluepill-mynewt-sensor/src/send_coap.rs:251
 122:	f7ff fffe 	bl	0 <_ZN4core9panicking9panic_fmt17h6b4d8e87b0965449E>
 126:	defe      	udf	#254	; 0xfe
main():
 128:	a809      	add	r0, sp, #36	; 0x24
_ZN5mylib13listen_sensor21start_sensor_listener17h27bd96e29e98a75aE():
/Users/Luppy/mynewt/stm32bluepill-mynewt-sensor/src/listen_sensor.rs:47
    assert_eq!(rc, 0);
 12a:	9010      	str	r0, [sp, #64]	; 0x40
 12c:	f240 0000 	movw	r0, #0
 130:	a911      	add	r1, sp, #68	; 0x44
 132:	f2c0 0000 	movt	r0, #0
 136:	9008      	str	r0, [sp, #32]
 138:	e9cd 0106 	strd	r0, r1, [sp, #24]
 13c:	a810      	add	r0, sp, #64	; 0x40
 13e:	9005      	str	r0, [sp, #20]
 140:	f240 0000 	movw	r0, #0
 144:	f2c0 0000 	movt	r0, #0
 148:	f240 0100 	movw	r1, #0
 14c:	9011      	str	r0, [sp, #68]	; 0x44
 14e:	2002      	movs	r0, #2
_ZN4core3fmt9Arguments6new_v117ha99294a9defa432aE():
/rustc/50a0defd5a93523067ef239936cc2e0755220904/src/libcore/fmt/mod.rs:316
 150:	900f      	str	r0, [sp, #60]	; 0x3c
 152:	a805      	add	r0, sp, #20
 154:	900e      	str	r0, [sp, #56]	; 0x38
 156:	2000      	movs	r0, #0
 158:	e9cd 000c 	strd	r0, r0, [sp, #48]	; 0x30
 15c:	2003      	movs	r0, #3
 15e:	900b      	str	r0, [sp, #44]	; 0x2c
 160:	f240 0000 	movw	r0, #0
 164:	f2c0 0000 	movt	r0, #0
_ZN5mylib13listen_sensor21start_sensor_listener17h27bd96e29e98a75aE():
/Users/Luppy/mynewt/stm32bluepill-mynewt-sensor/src/listen_sensor.rs:47
 168:	f2c0 0100 	movt	r1, #0
_ZN4core3fmt9Arguments6new_v117ha99294a9defa432aE():
/rustc/50a0defd5a93523067ef239936cc2e0755220904/src/libcore/fmt/mod.rs:316
 16c:	900a      	str	r0, [sp, #40]	; 0x28
 16e:	a80a      	add	r0, sp, #40	; 0x28
_ZN5mylib13listen_sensor21start_sensor_listener17h27bd96e29e98a75aE():
/Users/Luppy/mynewt/stm32bluepill-mynewt-sensor/src/listen_sensor.rs:47
 170:	f7ff fffe 	bl	0 <_ZN4core9panicking9panic_fmt17h6b4d8e87b0965449E>
 174:	defe      	udf	#254	; 0xfe
/Users/Luppy/mynewt/stm32bluepill-mynewt-sensor/src/listen_sensor.rs:51
    assert!(unsafe{ !is_null_sensor(sensor) });
 176:	f240 0000 	movw	r0, #0
 17a:	f2c0 0000 	movt	r0, #0
 17e:	f7ff fffe 	bl	0 <_ZN4core9panicking5panic17h53ca63c6ac6312f8E>
 182:	defe      	udf	#254	; 0xfe
_ZN5mylib6mynewt2hw6sensor17register_listener17h88b59641f80aea7dE():
/Users/Luppy/mynewt/stm32bluepill-mynewt-sensor/src/mynewt/hw/sensor.rs:66
    unsafe { assert!(LISTENER_INTERNAL.sl_sensor_type == 0) };  //  Make sure it's not used.
 184:	f240 0000 	movw	r0, #0
 188:	f2c0 0000 	movt	r0, #0
 18c:	f7ff fffe 	bl	0 <_ZN4core9panicking5panic17h53ca63c6ac6312f8E>
 190:	defe      	udf	#254	; 0xfe

Disassembly of section .text.rust_begin_unwind:

00000000 <rust_begin_unwind>:
rust_begin_unwind():
/Users/Luppy/mynewt/stm32bluepill-mynewt-sensor/src/lib.rs:66

///  This function is called on panic, like an assertion failure. We display the filename and line number and pause in the debugger. From https://os.phil-opp.com/freestanding-rust-binary/
#[panic_handler]
fn panic(info: &PanicInfo) -> ! {
    //  Display the filename and line number to the Semihosting Console.
    if let Some(location) = info.location() {
   0:	f7ff fffe 	bl	0 <_ZN4core5panic9PanicInfo8location17h5226165d8771f8a2E>
   4:	b338      	cbz	r0, 56 <rust_begin_unwind+0x56>
   6:	4604      	mov	r4, r0
/Users/Luppy/mynewt/stm32bluepill-mynewt-sensor/src/lib.rs:67
        let file = location.file();
   8:	f7ff fffe 	bl	0 <_ZN4core5panic8Location4file17h94cc6af18de736c4E>
   c:	4605      	mov	r5, r0
/Users/Luppy/mynewt/stm32bluepill-mynewt-sensor/src/lib.rs:68
        let line = location.line();
   e:	4620      	mov	r0, r4
/Users/Luppy/mynewt/stm32bluepill-mynewt-sensor/src/lib.rs:67
        let file = location.file();
  10:	460e      	mov	r6, r1
/Users/Luppy/mynewt/stm32bluepill-mynewt-sensor/src/lib.rs:68
        let line = location.line();
  12:	f7ff fffe 	bl	0 <_ZN4core5panic8Location4line17h3ffc63f14d0a6636E>
  16:	4604      	mov	r4, r0
_ZN5mylib4base13console_print17h86a834b313ce42ceE():
/Users/Luppy/mynewt/stm32bluepill-mynewt-sensor/src/base.rs:18
        console_buffer(msg.as_ptr(), len as u32);
  18:	f240 0000 	movw	r0, #0
  1c:	f2c0 0000 	movt	r0, #0
  20:	2109      	movs	r1, #9
  22:	f7ff fffe 	bl	0 <console_buffer>
/Users/Luppy/mynewt/stm32bluepill-mynewt-sensor/src/base.rs:19
        console_flush();  //  TODO: Remove this.
  26:	f7ff fffe 	bl	0 <console_flush>
rust_begin_unwind():
/Users/Luppy/mynewt/stm32bluepill-mynewt-sensor/src/lib.rs:70
        console_print(b"panic at ");
        unsafe { console_buffer(file.as_ptr(), file.len() as u32) }
  2a:	4628      	mov	r0, r5
  2c:	4631      	mov	r1, r6
  2e:	f7ff fffe 	bl	0 <console_buffer>
_ZN5mylib4base13console_print17h86a834b313ce42ceE():
/Users/Luppy/mynewt/stm32bluepill-mynewt-sensor/src/base.rs:18
        console_buffer(msg.as_ptr(), len as u32);
  32:	f240 0000 	movw	r0, #0
  36:	2108      	movs	r1, #8
  38:	f2c0 0000 	movt	r0, #0
  3c:	f7ff fffe 	bl	0 <console_buffer>
/Users/Luppy/mynewt/stm32bluepill-mynewt-sensor/src/base.rs:19
        console_flush();  //  TODO: Remove this.
  40:	f7ff fffe 	bl	0 <console_flush>
rust_begin_unwind():
/Users/Luppy/mynewt/stm32bluepill-mynewt-sensor/src/lib.rs:72
        console_print(b" line 0x");
        unsafe { console_printhex(line as u8) }  //  TODO: Print in decimal not hex. Allow more than 255 lines.
  44:	b2e0      	uxtb	r0, r4
  46:	f7ff fffe 	bl	0 <console_printhex>
_ZN5mylib4base13console_print17h86a834b313ce42ceE():
/Users/Luppy/mynewt/stm32bluepill-mynewt-sensor/src/base.rs:18
        console_buffer(msg.as_ptr(), len as u32);
  4a:	f240 0000 	movw	r0, #0
  4e:	2101      	movs	r1, #1
  50:	f2c0 0000 	movt	r0, #0
  54:	e004      	b.n	c <rust_begin_unwind+0xc>
  56:	f240 0000 	movw	r0, #0
  5a:	2112      	movs	r1, #18
  5c:	f2c0 0000 	movt	r0, #0
rust_begin_unwind():
  60:	f7ff fffe 	bl	0 <console_buffer>
  64:	f7ff fffe 	bl	0 <console_flush>
  68:	f7ff fffe 	bl	0 <console_flush>
_ZN8cortex_m3asm4bkpt17h756c5667fd4cf09cE():
/Users/Luppy/.cargo/registry/src/github.com-1ecc6299db9ec823/cortex-m-0.6.0/src/asm.rs:19
        () => unsafe {
            extern "C" {
                fn __bkpt();
            }

            __bkpt();
  6c:	f7ff fffe 	bl	0 <__bkpt>
rust_begin_unwind():
/Users/Luppy/mynewt/stm32bluepill-mynewt-sensor/src/lib.rs:82
        unsafe { console_flush() }
    }
    //  Pause in the debugger.
    bkpt();
    //  Loop forever so that device won't restart.
    loop {}
  70:	e7fe      	b.n	70 <rust_begin_unwind+0x70>

Disassembly of section .text._ZN85_$LT$mylib..mynewt..encoding..json_context..JsonError$u20$as$u20$core..fmt..Debug$GT$3fmt17h791993af2606cd45E:

00000000 <_ZN85_$LT$mylib..mynewt..encoding..json_context..JsonError$u20$as$u20$core..fmt..Debug$GT$3fmt17h791993af2606cd45E>:
_ZN85_$LT$mylib..mynewt..encoding..json_context..JsonError$u20$as$u20$core..fmt..Debug$GT$3fmt17h791993af2606cd45E():
/Users/Luppy/mynewt/stm32bluepill-mynewt-sensor/src/mynewt/encoding/json_context.rs:88
#[derive(Debug, PartialEq)]
   0:	b510      	push	{r4, lr}
   2:	b084      	sub	sp, #16
   4:	7800      	ldrb	r0, [r0, #0]
   6:	ac01      	add	r4, sp, #4
   8:	2801      	cmp	r0, #1
   a:	d106      	bne.n	1a <_ZN85_$LT$mylib..mynewt..encoding..json_context..JsonError$u20$as$u20$core..fmt..Debug$GT$3fmt17h791993af2606cd45E+0x1a>
   c:	f240 0200 	movw	r2, #0
  10:	4620      	mov	r0, r4
  12:	f2c0 0200 	movt	r2, #0
  16:	230e      	movs	r3, #14
  18:	e005      	b.n	26 <_ZN85_$LT$mylib..mynewt..encoding..json_context..JsonError$u20$as$u20$core..fmt..Debug$GT$3fmt17h791993af2606cd45E+0x26>
  1a:	f240 0200 	movw	r2, #0
  1e:	4620      	mov	r0, r4
  20:	f2c0 0200 	movt	r2, #0
  24:	2302      	movs	r3, #2
  26:	f7ff fffe 	bl	0 <_ZN4core3fmt9Formatter11debug_tuple17h793087e8ecab9022E>
  2a:	4620      	mov	r0, r4
  2c:	f7ff fffe 	bl	0 <_ZN4core3fmt8builders10DebugTuple6finish17h24d91625b3672e6dE>
  30:	b004      	add	sp, #16
  32:	bd10      	pop	{r4, pc}

Disassembly of section .text._ZN71_$LT$mylib..mynewt..result..MynewtError$u20$as$u20$core..fmt..Debug$GT$3fmt17h4da449ccb002d0a5E:

00000000 <_ZN71_$LT$mylib..mynewt..result..MynewtError$u20$as$u20$core..fmt..Debug$GT$3fmt17h4da449ccb002d0a5E>:
_ZN71_$LT$mylib..mynewt..result..MynewtError$u20$as$u20$core..fmt..Debug$GT$3fmt17h4da449ccb002d0a5E():
/Users/Luppy/mynewt/stm32bluepill-mynewt-sensor/src/mynewt.rs:30
    #[derive(Debug, PartialEq)]
   0:	b510      	push	{r4, lr}
   2:	b084      	sub	sp, #16
   4:	6802      	ldr	r2, [r0, #0]
   6:	f102 000f 	add.w	r0, r2, #15
   a:	280e      	cmp	r0, #14
   c:	d80f      	bhi.n	2e <_ZN71_$LT$mylib..mynewt..result..MynewtError$u20$as$u20$core..fmt..Debug$GT$3fmt17h4da449ccb002d0a5E+0x2e>
   e:	e8df f000 	tbb	[pc, r0]
  12:	1908      	.short	0x1908
  14:	352f2721 	.word	0x352f2721
  18:	4f49413b 	.word	0x4f49413b
  1c:	69615b55 	.word	0x69615b55
  20:	006f      	.short	0x006f
  22:	f240 0200 	movw	r2, #0
  26:	ac01      	add	r4, sp, #4
  28:	f2c0 0200 	movt	r2, #0
  2c:	e037      	b.n	9e <_ZN71_$LT$mylib..mynewt..result..MynewtError$u20$as$u20$core..fmt..Debug$GT$3fmt17h4da449ccb002d0a5E+0x9e>
  2e:	2001      	movs	r0, #1
  30:	ac01      	add	r4, sp, #4
  32:	f6cf 70ff 	movt	r0, #65535	; 0xffff
  36:	4282      	cmp	r2, r0
  38:	d162      	bne.n	100 <_ZN71_$LT$mylib..mynewt..result..MynewtError$u20$as$u20$core..fmt..Debug$GT$3fmt17h4da449ccb002d0a5E+0x100>
  3a:	f240 0200 	movw	r2, #0
  3e:	f2c0 0200 	movt	r2, #0
  42:	e04c      	b.n	de <_ZN71_$LT$mylib..mynewt..result..MynewtError$u20$as$u20$core..fmt..Debug$GT$3fmt17h4da449ccb002d0a5E+0xde>
  44:	ac01      	add	r4, sp, #4
  46:	f240 0200 	movw	r2, #0
  4a:	f2c0 0200 	movt	r2, #0
  4e:	230d      	movs	r3, #13
  50:	4620      	mov	r0, r4
  52:	e05b      	b.n	10c <_ZN71_$LT$mylib..mynewt..result..MynewtError$u20$as$u20$core..fmt..Debug$GT$3fmt17h4da449ccb002d0a5E+0x10c>
  54:	f240 0200 	movw	r2, #0
  58:	ac01      	add	r4, sp, #4
  5a:	f2c0 0200 	movt	r2, #0
  5e:	e03e      	b.n	de <_ZN71_$LT$mylib..mynewt..result..MynewtError$u20$as$u20$core..fmt..Debug$GT$3fmt17h4da449ccb002d0a5E+0xde>
  60:	ac01      	add	r4, sp, #4
  62:	f240 0200 	movw	r2, #0
  66:	f2c0 0200 	movt	r2, #0
  6a:	230b      	movs	r3, #11
  6c:	4620      	mov	r0, r4
  6e:	e04d      	b.n	10c <_ZN71_$LT$mylib..mynewt..result..MynewtError$u20$as$u20$core..fmt..Debug$GT$3fmt17h4da449ccb002d0a5E+0x10c>
  70:	f240 0200 	movw	r2, #0
  74:	ac01      	add	r4, sp, #4
  76:	f2c0 0200 	movt	r2, #0
  7a:	e030      	b.n	64 <_ZN71_$LT$mylib..mynewt..result..MynewtError$u20$as$u20$core..fmt..Debug$GT$3fmt17h4da449ccb002d0a5E+0x64>
  7c:	f240 0200 	movw	r2, #0
  80:	ac01      	add	r4, sp, #4
  82:	f2c0 0200 	movt	r2, #0
  86:	e038      	b.n	74 <_ZN71_$LT$mylib..mynewt..result..MynewtError$u20$as$u20$core..fmt..Debug$GT$3fmt17h4da449ccb002d0a5E+0x74>
  88:	f240 0200 	movw	r2, #0
  8c:	ac01      	add	r4, sp, #4
  8e:	f2c0 0200 	movt	r2, #0
  92:	e032      	b.n	68 <_ZN71_$LT$mylib..mynewt..result..MynewtError$u20$as$u20$core..fmt..Debug$GT$3fmt17h4da449ccb002d0a5E+0x68>
  94:	f240 0200 	movw	r2, #0
  98:	ac01      	add	r4, sp, #4
  9a:	f2c0 0200 	movt	r2, #0
  9e:	4620      	mov	r0, r4
  a0:	2309      	movs	r3, #9
  a2:	e033      	b.n	10c <_ZN71_$LT$mylib..mynewt..result..MynewtError$u20$as$u20$core..fmt..Debug$GT$3fmt17h4da449ccb002d0a5E+0x10c>
  a4:	f240 0200 	movw	r2, #0
  a8:	ac01      	add	r4, sp, #4
  aa:	f2c0 0200 	movt	r2, #0
  ae:	e024      	b.n	4c <_ZN71_$LT$mylib..mynewt..result..MynewtError$u20$as$u20$core..fmt..Debug$GT$3fmt17h4da449ccb002d0a5E+0x4c>
  b0:	f240 0200 	movw	r2, #0
  b4:	ac01      	add	r4, sp, #4
  b6:	f2c0 0200 	movt	r2, #0
  ba:	e01e      	b.n	40 <_ZN71_$LT$mylib..mynewt..result..MynewtError$u20$as$u20$core..fmt..Debug$GT$3fmt17h4da449ccb002d0a5E+0x40>
  bc:	f240 0200 	movw	r2, #0
  c0:	ac01      	add	r4, sp, #4
  c2:	f2c0 0200 	movt	r2, #0
  c6:	e01f      	b.n	42 <_ZN71_$LT$mylib..mynewt..result..MynewtError$u20$as$u20$core..fmt..Debug$GT$3fmt17h4da449ccb002d0a5E+0x42>
  c8:	f240 0200 	movw	r2, #0
  cc:	ac01      	add	r4, sp, #4
  ce:	f2c0 0200 	movt	r2, #0
  d2:	e012      	b.n	28 <_ZN71_$LT$mylib..mynewt..result..MynewtError$u20$as$u20$core..fmt..Debug$GT$3fmt17h4da449ccb002d0a5E+0x28>
  d4:	f240 0200 	movw	r2, #0
  d8:	ac01      	add	r4, sp, #4
  da:	f2c0 0200 	movt	r2, #0
  de:	4620      	mov	r0, r4
  e0:	230c      	movs	r3, #12
  e2:	e013      	b.n	10c <_ZN71_$LT$mylib..mynewt..result..MynewtError$u20$as$u20$core..fmt..Debug$GT$3fmt17h4da449ccb002d0a5E+0x10c>
  e4:	f240 0200 	movw	r2, #0
  e8:	ac01      	add	r4, sp, #4
  ea:	f2c0 0200 	movt	r2, #0
  ee:	e004      	b.n	c <_ZN71_$LT$mylib..mynewt..result..MynewtError$u20$as$u20$core..fmt..Debug$GT$3fmt17h4da449ccb002d0a5E+0xc>
  f0:	f240 0200 	movw	r2, #0
  f4:	ac01      	add	r4, sp, #4
  f6:	f2c0 0200 	movt	r2, #0
  fa:	4620      	mov	r0, r4
  fc:	230a      	movs	r3, #10
  fe:	e005      	b.n	10c <_ZN71_$LT$mylib..mynewt..result..MynewtError$u20$as$u20$core..fmt..Debug$GT$3fmt17h4da449ccb002d0a5E+0x10c>
 100:	f240 0200 	movw	r2, #0
 104:	f2c0 0200 	movt	r2, #0
 108:	4620      	mov	r0, r4
 10a:	2307      	movs	r3, #7
 10c:	f7ff fffe 	bl	0 <_ZN4core3fmt9Formatter11debug_tuple17h793087e8ecab9022E>
 110:	4620      	mov	r0, r4
 112:	f7ff fffe 	bl	0 <_ZN4core3fmt8builders10DebugTuple6finish17h24d91625b3672e6dE>
 116:	b004      	add	sp, #16
 118:	bd10      	pop	{r4, pc}
arm-none-eabi-objdump: rust.metadata.bin: File format not recognized
arm-none-eabi-objdump: mylib-027f427c946f972f.mylib.6llr0fzg-cgu.0.rcgu.bc.z: File format not recognized
