In archive target/thumbv7m-none-eabi/release/libmylib.rlib:

mylib-a6fbff8072d07943.mylib.afm1kcbr-cgu.0.rcgu.o:     file format elf32-littlearm

SYMBOL TABLE:
00000000 l    df *ABS*	00000000 mylib.afm1kcbr-cgu.0
000042f5 l       .debug_str	00000000 
00004bb1 l       .debug_str	00000000 
00004bb6 l       .debug_str	00000000 
00004bbb l       .debug_str	00000000 
00004bc4 l       .debug_str	00000000 
00004bcf l       .debug_str	00000000 
00004c0d l       .debug_str	00000000 
00004c25 l       .debug_str	00000000 
00004c29 l       .debug_str	00000000 
00004c2d l       .debug_str	00000000 
00004c80 l       .debug_str	00000000 
00004c94 l       .debug_str	00000000 
00004c9e l       .debug_str	00000000 
00004ca7 l       .debug_str	00000000 
00004cae l       .debug_str	00000000 
00004cb8 l       .debug_str	00000000 
00004cbd l       .debug_str	00000000 
00004cc5 l       .debug_str	00000000 
00004cca l       .debug_str	00000000 
00004ccf l       .debug_str	00000000 
00004cd6 l       .debug_str	00000000 
00004ce2 l       .debug_str	00000000 
00004cea l       .debug_str	00000000 
00004cf3 l       .debug_str	00000000 
00004cf8 l       .debug_str	00000000 
00004cfb l       .debug_str	00000000 
00004d04 l       .debug_str	00000000 
00004d0b l       .debug_str	00000000 
00004d0e l       .debug_str	00000000 
00004d14 l       .debug_str	00000000 
00004d1e l       .debug_str	00000000 
00004d26 l       .debug_str	00000000 
00004d2c l       .debug_str	00000000 
00004d37 l       .debug_str	00000000 
00004d40 l       .debug_str	00000000 
00004d63 l       .debug_str	00000000 
00004d82 l       .debug_str	00000000 
00004da9 l       .debug_str	00000000 
00004db3 l       .debug_str	00000000 
00004dc9 l       .debug_str	00000000 
00004e1f l       .debug_str	00000000 
00004e2b l       .debug_str	00000000 
00004e63 l       .debug_str	00000000 
00004e65 l       .debug_str	00000000 
00004e95 l       .debug_str	00000000 
00004e9e l       .debug_str	00000000 
00004ea4 l       .debug_str	00000000 
00004ee8 l       .debug_str	00000000 
00004f03 l       .debug_str	00000000 
00004f0b l       .debug_str	00000000 
00004f10 l       .debug_str	00000000 
00004f1e l       .debug_str	00000000 
00004f28 l       .debug_str	00000000 
00004f36 l       .debug_str	00000000 
00004f4a l       .debug_str	00000000 
00004fcd l       .debug_str	00000000 
00004fd7 l       .debug_str	00000000 
00004fdd l       .debug_str	00000000 
00004fe3 l       .debug_str	00000000 
00004fe7 l       .debug_str	00000000 
00004ff4 l       .debug_str	00000000 
0000507a l       .debug_str	00000000 
00005089 l       .debug_str	00000000 
0000508b l       .debug_str	00000000 
00005100 l       .debug_str	00000000 
0000512b l       .debug_str	00000000 
00005131 l       .debug_str	00000000 
00005189 l       .debug_str	00000000 
00005197 l       .debug_str	00000000 
000051e2 l       .debug_str	00000000 
000051f2 l       .debug_str	00000000 
00005200 l       .debug_str	00000000 
00005204 l       .debug_str	00000000 
00005206 l       .debug_str	00000000 
00005208 l       .debug_str	00000000 
0000524f l       .debug_str	00000000 
0000525b l       .debug_str	00000000 
000052a2 l       .debug_str	00000000 
000052ab l       .debug_str	00000000 
000052b7 l       .debug_str	00000000 
000052c0 l       .debug_str	00000000 
000052c4 l       .debug_str	00000000 
000052ce l       .debug_str	00000000 
00005331 l       .debug_str	00000000 
00005339 l       .debug_str	00000000 
00005354 l       .debug_str	00000000 
0000535a l       .debug_str	00000000 
00005364 l       .debug_str	00000000 
0000536a l       .debug_str	00000000 
00005375 l       .debug_str	00000000 
0000537e l       .debug_str	00000000 
00005388 l       .debug_str	00000000 
000053ba l       .debug_str	00000000 
000053c1 l       .debug_str	00000000 
000053fd l       .debug_str	00000000 
00005410 l       .debug_str	00000000 
00005416 l       .debug_str	00000000 
0000545a l       .debug_str	00000000 
00005470 l       .debug_str	00000000 
00005479 l       .debug_str	00000000 
000054bb l       .debug_str	00000000 
000054cd l       .debug_str	00000000 
000054d6 l       .debug_str	00000000 
000054da l       .debug_str	00000000 
00005504 l       .debug_str	00000000 
00005509 l       .debug_str	00000000 
00005551 l       .debug_str	00000000 
00005559 l       .debug_str	00000000 
000055a1 l       .debug_str	00000000 
000055aa l       .debug_str	00000000 
000055f2 l       .debug_str	00000000 
00005628 l       .debug_str	00000000 
000056a0 l       .debug_str	00000000 
000056a8 l       .debug_str	00000000 
0000571f l       .debug_str	00000000 
000057b4 l       .debug_str	00000000 
0000583b l       .debug_str	00000000 
000058b3 l       .debug_str	00000000 
00005938 l       .debug_str	00000000 
000059af l       .debug_str	00000000 
00005a4e l       .debug_str	00000000 
00005a5c l       .debug_str	00000000 
00005ae8 l       .debug_str	00000000 
00005afe l       .debug_str	00000000 
00005b81 l       .debug_str	00000000 
00005c08 l       .debug_str	00000000 
00005c97 l       .debug_str	00000000 
00005d07 l       .debug_str	00000000 
00005d79 l       .debug_str	00000000 
00005dea l       .debug_str	00000000 
00005e58 l       .debug_str	00000000 
00005ec7 l       .debug_str	00000000 
00005f39 l       .debug_str	00000000 
00005fb0 l       .debug_str	00000000 
0000601f l       .debug_str	00000000 
0000608d l       .debug_str	00000000 
00006114 l       .debug_str	00000000 
00006193 l       .debug_str	00000000 
00006214 l       .debug_str	00000000 
00006298 l       .debug_str	00000000 
0000631f l       .debug_str	00000000 
0000632b l       .debug_str	00000000 
00006337 l       .debug_str	00000000 
0000634c l       .debug_str	00000000 
000063c4 l       .debug_str	00000000 
00006443 l       .debug_str	00000000 
00006489 l       .debug_str	00000000 
0000649f l       .debug_str	00000000 
00006527 l       .debug_str	00000000 
000065b2 l       .debug_str	00000000 
00006644 l       .debug_str	00000000 
00006649 l       .debug_str	00000000 
00006688 l       .debug_str	00000000 
00006699 l       .debug_str	00000000 
000066d4 l       .debug_str	00000000 
000066e6 l       .debug_str	00000000 
000066eb l       .debug_str	00000000 
000066ed l       .debug_str	00000000 
000066ff l       .debug_str	00000000 
00006705 l       .debug_str	00000000 
0000676a l       .debug_str	00000000 
0000679d l       .debug_str	00000000 
000067a2 l       .debug_str	00000000 
000067cf l       .debug_str	00000000 
000067d7 l       .debug_str	00000000 
000067dd l       .debug_str	00000000 
000067e5 l       .debug_str	00000000 
000067ea l       .debug_str	00000000 
000067f7 l       .debug_str	00000000 
00006804 l       .debug_str	00000000 
0000680b l       .debug_str	00000000 
0000681b l       .debug_str	00000000 
0000682d l       .debug_str	00000000 
00006839 l       .debug_str	00000000 
0000683e l       .debug_str	00000000 
00006846 l       .debug_str	00000000 
0000684a l       .debug_str	00000000 
0000684f l       .debug_str	00000000 
00006857 l       .debug_str	00000000 
00006875 l       .debug_str	00000000 
0000687e l       .debug_str	00000000 
00006883 l       .debug_str	00000000 
00006888 l       .debug_str	00000000 
0000688c l       .debug_str	00000000 
00006895 l       .debug_str	00000000 
0000689f l       .debug_str	00000000 
000068b7 l       .debug_str	00000000 
000068ce l       .debug_str	00000000 
00000000 l       .debug_str	00000000 
00000041 l       .debug_str	00000000 
0000004c l       .debug_str	00000000 
0000007c l       .debug_str	00000000 
00000082 l       .debug_str	00000000 
00000089 l       .debug_str	00000000 
00000092 l       .debug_str	00000000 
0000009f l       .debug_str	00000000 
000000ac l       .debug_str	00000000 
000000b7 l       .debug_str	00000000 
000000ba l       .debug_str	00000000 
000000ce l       .debug_str	00000000 
000000db l       .debug_str	00000000 
000000e7 l       .debug_str	00000000 
00000131 l       .debug_str	00000000 
00000134 l       .debug_str	00000000 
0000013b l       .debug_str	00000000 
0000014d l       .debug_str	00000000 
00000156 l       .debug_str	00000000 
00000165 l       .debug_str	00000000 
00000169 l       .debug_str	00000000 
00000171 l       .debug_str	00000000 
00000176 l       .debug_str	00000000 
0000017d l       .debug_str	00000000 
00000181 l       .debug_str	00000000 
00000186 l       .debug_str	00000000 
0000018a l       .debug_str	00000000 
00000190 l       .debug_str	00000000 
00000197 l       .debug_str	00000000 
0000019a l       .debug_str	00000000 
000001a6 l       .debug_str	00000000 
000001ae l       .debug_str	00000000 
000001b2 l       .debug_str	00000000 
000001bd l       .debug_str	00000000 
000001c8 l       .debug_str	00000000 
000001cf l       .debug_str	00000000 
000001e6 l       .debug_str	00000000 
00000247 l       .debug_str	00000000 
00000249 l       .debug_str	00000000 
0000024e l       .debug_str	00000000 
00000252 l       .debug_str	00000000 
000002bb l       .debug_str	00000000 
000002c6 l       .debug_str	00000000 
00000314 l       .debug_str	00000000 
0000036a l       .debug_str	00000000 
00000374 l       .debug_str	00000000 
000003b8 l       .debug_str	00000000 
00000404 l       .debug_str	00000000 
0000040d l       .debug_str	00000000 
0000041d l       .debug_str	00000000 
00000425 l       .debug_str	00000000 
00000481 l       .debug_str	00000000 
000004e5 l       .debug_str	00000000 
000004f1 l       .debug_str	00000000 
000004fa l       .debug_str	00000000 
00000506 l       .debug_str	00000000 
00000512 l       .debug_str	00000000 
0000051b l       .debug_str	00000000 
00000523 l       .debug_str	00000000 
0000052d l       .debug_str	00000000 
00000535 l       .debug_str	00000000 
0000053f l       .debug_str	00000000 
00000554 l       .debug_str	00000000 
0000055b l       .debug_str	00000000 
00000582 l       .debug_str	00000000 
00000589 l       .debug_str	00000000 
00000591 l       .debug_str	00000000 
0000059b l       .debug_str	00000000 
000005a6 l       .debug_str	00000000 
000005af l       .debug_str	00000000 
000005ba l       .debug_str	00000000 
000005c6 l       .debug_str	00000000 
000005ca l       .debug_str	00000000 
000005d3 l       .debug_str	00000000 
000005da l       .debug_str	00000000 
000005e2 l       .debug_str	00000000 
000005ea l       .debug_str	00000000 
000005f4 l       .debug_str	00000000 
000005fa l       .debug_str	00000000 
00000601 l       .debug_str	00000000 
00000608 l       .debug_str	00000000 
00000635 l       .debug_str	00000000 
0000066a l       .debug_str	00000000 
00000670 l       .debug_str	00000000 
00000676 l       .debug_str	00000000 
00000685 l       .debug_str	00000000 
00000695 l       .debug_str	00000000 
000006a5 l       .debug_str	00000000 
000006ad l       .debug_str	00000000 
000006dd l       .debug_str	00000000 
00000742 l       .debug_str	00000000 
000007af l       .debug_str	00000000 
000007b6 l       .debug_str	00000000 
000007be l       .debug_str	00000000 
000007c7 l       .debug_str	00000000 
000007e5 l       .debug_str	00000000 
000007f5 l       .debug_str	00000000 
00000803 l       .debug_str	00000000 
0000080e l       .debug_str	00000000 
0000081b l       .debug_str	00000000 
0000082a l       .debug_str	00000000 
00000840 l       .debug_str	00000000 
0000084a l       .debug_str	00000000 
00000853 l       .debug_str	00000000 
0000085c l       .debug_str	00000000 
00000889 l       .debug_str	00000000 
0000089f l       .debug_str	00000000 
000008aa l       .debug_str	00000000 
000008c0 l       .debug_str	00000000 
000008c8 l       .debug_str	00000000 
000008f0 l       .debug_str	00000000 
00000907 l       .debug_str	00000000 
0000090c l       .debug_str	00000000 
00000914 l       .debug_str	00000000 
0000091d l       .debug_str	00000000 
00000926 l       .debug_str	00000000 
0000092f l       .debug_str	00000000 
00000937 l       .debug_str	00000000 
0000093e l       .debug_str	00000000 
0000094a l       .debug_str	00000000 
00000955 l       .debug_str	00000000 
0000095d l       .debug_str	00000000 
00000965 l       .debug_str	00000000 
00000a6f l       .debug_str	00000000 
00000b81 l       .debug_str	00000000 
00000b8f l       .debug_str	00000000 
00000b9a l       .debug_str	00000000 
00000ba4 l       .debug_str	00000000 
00000baf l       .debug_str	00000000 
00000be4 l       .debug_str	00000000 
00000c6d l       .debug_str	00000000 
00000cfe l       .debug_str	00000000 
00000d0c l       .debug_str	00000000 
00000d72 l       .debug_str	00000000 
00000de0 l       .debug_str	00000000 
00000df6 l       .debug_str	00000000 
00000e06 l       .debug_str	00000000 
00000e15 l       .debug_str	00000000 
00000e19 l       .debug_str	00000000 
00000e20 l       .debug_str	00000000 
00000e26 l       .debug_str	00000000 
00000e2a l       .debug_str	00000000 
00000e30 l       .debug_str	00000000 
00000e36 l       .debug_str	00000000 
00000e42 l       .debug_str	00000000 
00000e4a l       .debug_str	00000000 
00000e50 l       .debug_str	00000000 
00000e58 l       .debug_str	00000000 
00000e5e l       .debug_str	00000000 
00000e81 l       .debug_str	00000000 
00000e91 l       .debug_str	00000000 
00000ecb l       .debug_str	00000000 
00000f12 l       .debug_str	00000000 
00000f61 l       .debug_str	00000000 
00000f65 l       .debug_str	00000000 
00000f6b l       .debug_str	00000000 
00000f71 l       .debug_str	00000000 
00000f77 l       .debug_str	00000000 
00000f89 l       .debug_str	00000000 
00000fc5 l       .debug_str	00000000 
0000100e l       .debug_str	00000000 
0000105f l       .debug_str	00000000 
00001063 l       .debug_str	00000000 
00001069 l       .debug_str	00000000 
0000106f l       .debug_str	00000000 
00001075 l       .debug_str	00000000 
00001087 l       .debug_str	00000000 
000010c3 l       .debug_str	00000000 
0000110c l       .debug_str	00000000 
0000115d l       .debug_str	00000000 
00001161 l       .debug_str	00000000 
00001167 l       .debug_str	00000000 
0000116d l       .debug_str	00000000 
00001173 l       .debug_str	00000000 
00001179 l       .debug_str	00000000 
0000118a l       .debug_str	00000000 
000011c5 l       .debug_str	00000000 
0000120d l       .debug_str	00000000 
0000125d l       .debug_str	00000000 
00001262 l       .debug_str	00000000 
00001267 l       .debug_str	00000000 
0000126b l       .debug_str	00000000 
00001271 l       .debug_str	00000000 
00001277 l       .debug_str	00000000 
0000127d l       .debug_str	00000000 
0000128e l       .debug_str	00000000 
000012c9 l       .debug_str	00000000 
00001311 l       .debug_str	00000000 
00001361 l       .debug_str	00000000 
00001365 l       .debug_str	00000000 
0000136e l       .debug_str	00000000 
0000137f l       .debug_str	00000000 
000013ba l       .debug_str	00000000 
00001402 l       .debug_str	00000000 
00001452 l       .debug_str	00000000 
00001457 l       .debug_str	00000000 
0000145b l       .debug_str	00000000 
00001464 l       .debug_str	00000000 
0000146b l       .debug_str	00000000 
00001473 l       .debug_str	00000000 
00001485 l       .debug_str	00000000 
000014c1 l       .debug_str	00000000 
0000150a l       .debug_str	00000000 
0000155b l       .debug_str	00000000 
0000155f l       .debug_str	00000000 
00001565 l       .debug_str	00000000 
0000156b l       .debug_str	00000000 
00001571 l       .debug_str	00000000 
00001577 l       .debug_str	00000000 
0000157f l       .debug_str	00000000 
0000158d l       .debug_str	00000000 
0000159c l       .debug_str	00000000 
000015ad l       .debug_str	00000000 
000015b8 l       .debug_str	00000000 
000015c3 l       .debug_str	00000000 
000015ce l       .debug_str	00000000 
000015d5 l       .debug_str	00000000 
000015f8 l       .debug_str	00000000 
0000160a l       .debug_str	00000000 
00001646 l       .debug_str	00000000 
0000168f l       .debug_str	00000000 
000016e0 l       .debug_str	00000000 
000016e4 l       .debug_str	00000000 
000016ee l       .debug_str	00000000 
00001700 l       .debug_str	00000000 
0000173c l       .debug_str	00000000 
00001785 l       .debug_str	00000000 
000017d6 l       .debug_str	00000000 
000017db l       .debug_str	00000000 
000017e5 l       .debug_str	00000000 
000017f7 l       .debug_str	00000000 
00001833 l       .debug_str	00000000 
0000187c l       .debug_str	00000000 
000018cd l       .debug_str	00000000 
000018e1 l       .debug_str	00000000 
000018e5 l       .debug_str	00000000 
000018f3 l       .debug_str	00000000 
00001903 l       .debug_str	00000000 
0000190c l       .debug_str	00000000 
00001917 l       .debug_str	00000000 
00001926 l       .debug_str	00000000 
0000193b l       .debug_str	00000000 
00001973 l       .debug_str	00000000 
00001a1e l       .debug_str	00000000 
00001ad1 l       .debug_str	00000000 
00001adc l       .debug_str	00000000 
00001ae5 l       .debug_str	00000000 
00001b06 l       .debug_str	00000000 
00001b19 l       .debug_str	00000000 
00001b56 l       .debug_str	00000000 
00001be7 l       .debug_str	00000000 
00001c80 l       .debug_str	00000000 
00001c9c l       .debug_str	00000000 
00001cef l       .debug_str	00000000 
00001d4a l       .debug_str	00000000 
00001d67 l       .debug_str	00000000 
00001d7b l       .debug_str	00000000 
00001dce l       .debug_str	00000000 
00001e29 l       .debug_str	00000000 
00001e3f l       .debug_str	00000000 
00001e53 l       .debug_str	00000000 
00001ea1 l       .debug_str	00000000 
00001ef7 l       .debug_str	00000000 
00001f00 l       .debug_str	00000000 
00001f0e l       .debug_str	00000000 
00001f46 l       .debug_str	00000000 
00001f4c l       .debug_str	00000000 
00001f54 l       .debug_str	00000000 
00001f5b l       .debug_str	00000000 
00001f63 l       .debug_str	00000000 
00001f6e l       .debug_str	00000000 
00001f76 l       .debug_str	00000000 
00001f85 l       .debug_str	00000000 
00001f89 l       .debug_str	00000000 
00001f94 l       .debug_str	00000000 
00001fa0 l       .debug_str	00000000 
00001fab l       .debug_str	00000000 
00001fbc l       .debug_str	00000000 
00001fc2 l       .debug_str	00000000 
00001fca l       .debug_str	00000000 
00001fd1 l       .debug_str	00000000 
00001fdb l       .debug_str	00000000 
00001fe3 l       .debug_str	00000000 
00001feb l       .debug_str	00000000 
00002014 l       .debug_str	00000000 
0000201f l       .debug_str	00000000 
0000202b l       .debug_str	00000000 
00002033 l       .debug_str	00000000 
0000203c l       .debug_str	00000000 
00002047 l       .debug_str	00000000 
0000204e l       .debug_str	00000000 
00002059 l       .debug_str	00000000 
00002064 l       .debug_str	00000000 
00002074 l       .debug_str	00000000 
0000207e l       .debug_str	00000000 
00002084 l       .debug_str	00000000 
000020ad l       .debug_str	00000000 
000020ec l       .debug_str	00000000 
00002133 l       .debug_str	00000000 
0000213a l       .debug_str	00000000 
00002142 l       .debug_str	00000000 
00002159 l       .debug_str	00000000 
00002162 l       .debug_str	00000000 
00002172 l       .debug_str	00000000 
000021ac l       .debug_str	00000000 
000021c1 l       .debug_str	00000000 
000021ca l       .debug_str	00000000 
0000222e l       .debug_str	00000000 
0000229a l       .debug_str	00000000 
000022a4 l       .debug_str	00000000 
000022b4 l       .debug_str	00000000 
000022c9 l       .debug_str	00000000 
000022d1 l       .debug_str	00000000 
0000233c l       .debug_str	00000000 
000023af l       .debug_str	00000000 
000023b6 l       .debug_str	00000000 
000023be l       .debug_str	00000000 
000023dc l       .debug_str	00000000 
000023ec l       .debug_str	00000000 
00002426 l       .debug_str	00000000 
0000243b l       .debug_str	00000000 
0000244e l       .debug_str	00000000 
00002463 l       .debug_str	00000000 
0000246a l       .debug_str	00000000 
0000247f l       .debug_str	00000000 
000024b0 l       .debug_str	00000000 
00002533 l       .debug_str	00000000 
000025be l       .debug_str	00000000 
000025c5 l       .debug_str	00000000 
000025cd l       .debug_str	00000000 
000025eb l       .debug_str	00000000 
000025fb l       .debug_str	00000000 
0000263d l       .debug_str	00000000 
00002647 l       .debug_str	00000000 
00002654 l       .debug_str	00000000 
0000268a l       .debug_str	00000000 
0000269d l       .debug_str	00000000 
000026d9 l       .debug_str	00000000 
000026ea l       .debug_str	00000000 
000026ef l       .debug_str	00000000 
00002729 l       .debug_str	00000000 
00002730 l       .debug_str	00000000 
00002733 l       .debug_str	00000000 
00002737 l       .debug_str	00000000 
0000273e l       .debug_str	00000000 
00002742 l       .debug_str	00000000 
00002745 l       .debug_str	00000000 
00002748 l       .debug_str	00000000 
0000274d l       .debug_str	00000000 
00002753 l       .debug_str	00000000 
0000275a l       .debug_str	00000000 
00002762 l       .debug_str	00000000 
0000276c l       .debug_str	00000000 
0000276f l       .debug_str	00000000 
0000277e l       .debug_str	00000000 
00002788 l       .debug_str	00000000 
00002790 l       .debug_str	00000000 
0000279b l       .debug_str	00000000 
000027a6 l       .debug_str	00000000 
000027b3 l       .debug_str	00000000 
000027be l       .debug_str	00000000 
000027c6 l       .debug_str	00000000 
000027d1 l       .debug_str	00000000 
000027dc l       .debug_str	00000000 
000027e6 l       .debug_str	00000000 
000027f1 l       .debug_str	00000000 
000027fc l       .debug_str	00000000 
00002809 l       .debug_str	00000000 
00002815 l       .debug_str	00000000 
00002822 l       .debug_str	00000000 
00002830 l       .debug_str	00000000 
0000283a l       .debug_str	00000000 
00002847 l       .debug_str	00000000 
00002853 l       .debug_str	00000000 
00002857 l       .debug_str	00000000 
00002860 l       .debug_str	00000000 
000028bc l       .debug_str	00000000 
000028c1 l       .debug_str	00000000 
000028c5 l       .debug_str	00000000 
000028c7 l       .debug_str	00000000 
000028cd l       .debug_str	00000000 
000028d2 l       .debug_str	00000000 
000028d7 l       .debug_str	00000000 
000028dd l       .debug_str	00000000 
000028e3 l       .debug_str	00000000 
000028f1 l       .debug_str	00000000 
000028fb l       .debug_str	00000000 
000028ff l       .debug_str	00000000 
00002907 l       .debug_str	00000000 
0000290f l       .debug_str	00000000 
00002916 l       .debug_str	00000000 
00002922 l       .debug_str	00000000 
0000292d l       .debug_str	00000000 
00002934 l       .debug_str	00000000 
0000293a l       .debug_str	00000000 
0000293e l       .debug_str	00000000 
00002944 l       .debug_str	00000000 
0000294a l       .debug_str	00000000 
0000294d l       .debug_str	00000000 
0000295c l       .debug_str	00000000 
00002960 l       .debug_str	00000000 
00002969 l       .debug_str	00000000 
00002975 l       .debug_str	00000000 
0000298e l       .debug_str	00000000 
00002993 l       .debug_str	00000000 
000029a4 l       .debug_str	00000000 
000029ae l       .debug_str	00000000 
00002a0c l       .debug_str	00000000 
00002a17 l       .debug_str	00000000 
00002a34 l       .debug_str	00000000 
00002a38 l       .debug_str	00000000 
00002a40 l       .debug_str	00000000 
00002a57 l       .debug_str	00000000 
00002a7b l       .debug_str	00000000 
00002a97 l       .debug_str	00000000 
00002a9c l       .debug_str	00000000 
00002aa5 l       .debug_str	00000000 
00002aac l       .debug_str	00000000 
00002ac5 l       .debug_str	00000000 
00002acf l       .debug_str	00000000 
00002ae9 l       .debug_str	00000000 
00002b46 l       .debug_str	00000000 
00002b4b l       .debug_str	00000000 
00002bbe l       .debug_str	00000000 
00002bf0 l       .debug_str	00000000 
00002c04 l       .debug_str	00000000 
00002c0d l       .debug_str	00000000 
00002c14 l       .debug_str	00000000 
00002c1f l       .debug_str	00000000 
00002c2a l       .debug_str	00000000 
00002c2e l       .debug_str	00000000 
00002c33 l       .debug_str	00000000 
00002c3c l       .debug_str	00000000 
00002c7e l       .debug_str	00000000 
00002cc8 l       .debug_str	00000000 
00002ccf l       .debug_str	00000000 
00002cdd l       .debug_str	00000000 
00002cea l       .debug_str	00000000 
00002d12 l       .debug_str	00000000 
00002d46 l       .debug_str	00000000 
00002d4e l       .debug_str	00000000 
00002d58 l       .debug_str	00000000 
00002d5e l       .debug_str	00000000 
00002d63 l       .debug_str	00000000 
00002d6b l       .debug_str	00000000 
00002d74 l       .debug_str	00000000 
00002d8a l       .debug_str	00000000 
00002da8 l       .debug_str	00000000 
00002db1 l       .debug_str	00000000 
00002dba l       .debug_str	00000000 
00002dd0 l       .debug_str	00000000 
00002dee l       .debug_str	00000000 
00002df3 l       .debug_str	00000000 
00002df7 l       .debug_str	00000000 
00002e00 l       .debug_str	00000000 
00002e16 l       .debug_str	00000000 
00002e34 l       .debug_str	00000000 
00002e3b l       .debug_str	00000000 
00002e50 l       .debug_str	00000000 
00002e6d l       .debug_str	00000000 
00002e75 l       .debug_str	00000000 
00002e7f l       .debug_str	00000000 
00002e96 l       .debug_str	00000000 
00002eb5 l       .debug_str	00000000 
00002ebf l       .debug_str	00000000 
00002ec5 l       .debug_str	00000000 
00002ed2 l       .debug_str	00000000 
00002ed6 l       .debug_str	00000000 
00002ede l       .debug_str	00000000 
00002f33 l       .debug_str	00000000 
00002f90 l       .debug_str	00000000 
00002f98 l       .debug_str	00000000 
00002f9d l       .debug_str	00000000 
00002faa l       .debug_str	00000000 
00002fb0 l       .debug_str	00000000 
00002fb9 l       .debug_str	00000000 
00002fe2 l       .debug_str	00000000 
00003037 l       .debug_str	00000000 
00003094 l       .debug_str	00000000 
0000309d l       .debug_str	00000000 
000030c6 l       .debug_str	00000000 
0000311b l       .debug_str	00000000 
00003178 l       .debug_str	00000000 
00003182 l       .debug_str	00000000 
000031ab l       .debug_str	00000000 
00003200 l       .debug_str	00000000 
0000325d l       .debug_str	00000000 
00003263 l       .debug_str	00000000 
0000328c l       .debug_str	00000000 
000032e1 l       .debug_str	00000000 
0000333e l       .debug_str	00000000 
00003347 l       .debug_str	00000000 
00003370 l       .debug_str	00000000 
000033c5 l       .debug_str	00000000 
00003422 l       .debug_str	00000000 
0000343d l       .debug_str	00000000 
00003443 l       .debug_str	00000000 
0000344c l       .debug_str	00000000 
00003453 l       .debug_str	00000000 
00003460 l       .debug_str	00000000 
00003499 l       .debug_str	00000000 
000034da l       .debug_str	00000000 
000034e1 l       .debug_str	00000000 
000034f4 l       .debug_str	00000000 
0000350f l       .debug_str	00000000 
00003529 l       .debug_str	00000000 
0000352e l       .debug_str	00000000 
0000353f l       .debug_str	00000000 
00003558 l       .debug_str	00000000 
00003569 l       .debug_str	00000000 
00003582 l       .debug_str	00000000 
00003593 l       .debug_str	00000000 
000035ac l       .debug_str	00000000 
000035be l       .debug_str	00000000 
000035d8 l       .debug_str	00000000 
000035e8 l       .debug_str	00000000 
00003600 l       .debug_str	00000000 
00003606 l       .debug_str	00000000 
00003620 l       .debug_str	00000000 
00003624 l       .debug_str	00000000 
00003628 l       .debug_str	00000000 
0000362d l       .debug_str	00000000 
00003639 l       .debug_str	00000000 
0000366b l       .debug_str	00000000 
00003675 l       .debug_str	00000000 
00003681 l       .debug_str	00000000 
000036b3 l       .debug_str	00000000 
000036b8 l       .debug_str	00000000 
000036bf l       .debug_str	00000000 
000036e8 l       .debug_str	00000000 
00003710 l       .debug_str	00000000 
00003760 l       .debug_str	00000000 
00003788 l       .debug_str	00000000 
000037ca l       .debug_str	00000000 
000037f2 l       .debug_str	00000000 
00003826 l       .debug_str	00000000 
0000384e l       .debug_str	00000000 
0000388f l       .debug_str	00000000 
000038b7 l       .debug_str	00000000 
000038ea l       .debug_str	00000000 
00003912 l       .debug_str	00000000 
0000393e l       .debug_str	00000000 
00003943 l       .debug_str	00000000 
00003949 l       .debug_str	00000000 
00003953 l       .debug_str	00000000 
0000395c l       .debug_str	00000000 
00003965 l       .debug_str	00000000 
00003970 l       .debug_str	00000000 
0000397a l       .debug_str	00000000 
000039a8 l       .debug_str	00000000 
000039c0 l       .debug_str	00000000 
000039ca l       .debug_str	00000000 
000039f4 l       .debug_str	00000000 
000039fc l       .debug_str	00000000 
00003a03 l       .debug_str	00000000 
00003a2e l       .debug_str	00000000 
00003a5e l       .debug_str	00000000 
00003a77 l       .debug_str	00000000 
00003a82 l       .debug_str	00000000 
00003aaa l       .debug_str	00000000 
00003ad8 l       .debug_str	00000000 
00003ae2 l       .debug_str	00000000 
00003aea l       .debug_str	00000000 
00003af1 l       .debug_str	00000000 
00003af8 l       .debug_str	00000000 
00003afd l       .debug_str	00000000 
00003b27 l       .debug_str	00000000 
00003b56 l       .debug_str	00000000 
00003b6e l       .debug_str	00000000 
00003b78 l       .debug_str	00000000 
00003ba0 l       .debug_str	00000000 
00003bcd l       .debug_str	00000000 
00003bf5 l       .debug_str	00000000 
00003c1f l       .debug_str	00000000 
00003c27 l       .debug_str	00000000 
00003c30 l       .debug_str	00000000 
00003c3e l       .debug_str	00000000 
00003c45 l       .debug_str	00000000 
00003c4c l       .debug_str	00000000 
00003c5c l       .debug_str	00000000 
00003c65 l       .debug_str	00000000 
00003c73 l       .debug_str	00000000 
00003c81 l       .debug_str	00000000 
00003c8d l       .debug_str	00000000 
00003c99 l       .debug_str	00000000 
00003ca2 l       .debug_str	00000000 
00003cb1 l       .debug_str	00000000 
00003cb9 l       .debug_str	00000000 
00003cd2 l       .debug_str	00000000 
00003ce3 l       .debug_str	00000000 
00003ceb l       .debug_str	00000000 
00003d05 l       .debug_str	00000000 
00003d11 l       .debug_str	00000000 
00003d3d l       .debug_str	00000000 
00003d56 l       .debug_str	00000000 
00003d61 l       .debug_str	00000000 
00003d8c l       .debug_str	00000000 
00003d95 l       .debug_str	00000000 
00003db0 l       .debug_str	00000000 
00003dbd l       .debug_str	00000000 
00003dea l       .debug_str	00000000 
00003df2 l       .debug_str	00000000 
00003e1a l       .debug_str	00000000 
00003e30 l       .debug_str	00000000 
00003e3b l       .debug_str	00000000 
00003e3f l       .debug_str	00000000 
00003e5a l       .debug_str	00000000 
00003e62 l       .debug_str	00000000 
00003e8a l       .debug_str	00000000 
00003eb5 l       .debug_str	00000000 
00003edd l       .debug_str	00000000 
00003f0b l       .debug_str	00000000 
00003f33 l       .debug_str	00000000 
00003f66 l       .debug_str	00000000 
00003f8e l       .debug_str	00000000 
00003fb9 l       .debug_str	00000000 
00003fc2 l       .debug_str	00000000 
00003fd7 l       .debug_str	00000000 
00003fe2 l       .debug_str	00000000 
00003fe9 l       .debug_str	00000000 
00004011 l       .debug_str	00000000 
0000403b l       .debug_str	00000000 
00004063 l       .debug_str	00000000 
0000409e l       .debug_str	00000000 
000040c6 l       .debug_str	00000000 
00004103 l       .debug_str	00000000 
0000412b l       .debug_str	00000000 
0000416b l       .debug_str	00000000 
00004193 l       .debug_str	00000000 
000041c7 l       .debug_str	00000000 
000041d0 l       .debug_str	00000000 
000041e3 l       .debug_str	00000000 
000041ee l       .debug_str	00000000 
000041fe l       .debug_str	00000000 
0000421a l       .debug_str	00000000 
00004228 l       .debug_str	00000000 
00004250 l       .debug_str	00000000 
0000428b l       .debug_str	00000000 
00004290 l       .debug_str	00000000 
0000429c l       .debug_str	00000000 
0000429e l       .debug_str	00000000 
000042a1 l       .debug_str	00000000 
000042b2 l       .debug_str	00000000 
000042cb l       .debug_str	00000000 
000042cf l       .debug_str	00000000 
000042d9 l       .debug_str	00000000 
000042de l       .debug_str	00000000 
000042e5 l       .debug_str	00000000 
000042ed l       .debug_str	00000000 
000042fc l       .debug_str	00000000 
00004303 l       .debug_str	00000000 
0000432a l       .debug_str	00000000 
0000437d l       .debug_str	00000000 
000043d8 l       .debug_str	00000000 
000043f1 l       .debug_str	00000000 
000043fc l       .debug_str	00000000 
0000442b l       .debug_str	00000000 
0000445f l       .debug_str	00000000 
000044b5 l       .debug_str	00000000 
00004513 l       .debug_str	00000000 
0000453b l       .debug_str	00000000 
0000457e l       .debug_str	00000000 
0000458d l       .debug_str	00000000 
00004598 l       .debug_str	00000000 
000045a7 l       .debug_str	00000000 
000045bc l       .debug_str	00000000 
000045d4 l       .debug_str	00000000 
00004627 l       .debug_str	00000000 
00004682 l       .debug_str	00000000 
00004697 l       .debug_str	00000000 
000046b0 l       .debug_str	00000000 
000046d8 l       .debug_str	00000000 
0000471e l       .debug_str	00000000 
00004750 l       .debug_str	00000000 
0000475e l       .debug_str	00000000 
00004762 l       .debug_str	00000000 
00004768 l       .debug_str	00000000 
00004776 l       .debug_str	00000000 
000047b4 l       .debug_str	00000000 
000047c4 l       .debug_str	00000000 
000047c8 l       .debug_str	00000000 
000047cd l       .debug_str	00000000 
000047d1 l       .debug_str	00000000 
000047d6 l       .debug_str	00000000 
000047dc l       .debug_str	00000000 
000047ec l       .debug_str	00000000 
000047f8 l       .debug_str	00000000 
00004804 l       .debug_str	00000000 
00004810 l       .debug_str	00000000 
0000481d l       .debug_str	00000000 
00004829 l       .debug_str	00000000 
00004837 l       .debug_str	00000000 
0000484e l       .debug_str	00000000 
00004863 l       .debug_str	00000000 
00004866 l       .debug_str	00000000 
00004886 l       .debug_str	00000000 
0000488f l       .debug_str	00000000 
000048c9 l       .debug_str	00000000 
000048da l       .debug_str	00000000 
000048dc l       .debug_str	00000000 
0000490b l       .debug_str	00000000 
00004916 l       .debug_str	00000000 
00004930 l       .debug_str	00000000 
0000493c l       .debug_str	00000000 
00004946 l       .debug_str	00000000 
0000494c l       .debug_str	00000000 
00004951 l       .debug_str	00000000 
00004962 l       .debug_str	00000000 
0000496b l       .debug_str	00000000 
00004973 l       .debug_str	00000000 
0000497d l       .debug_str	00000000 
0000498a l       .debug_str	00000000 
000049d1 l       .debug_str	00000000 
000049ef l       .debug_str	00000000 
000049f8 l       .debug_str	00000000 
00004a00 l       .debug_str	00000000 
00004a09 l       .debug_str	00000000 
00004a10 l       .debug_str	00000000 
00004a16 l       .debug_str	00000000 
00004a7f l       .debug_str	00000000 
00004af0 l       .debug_str	00000000 
00004afe l       .debug_str	00000000 
00004b12 l       .debug_str	00000000 
00004b4e l       .debug_str	00000000 
00004b59 l       .debug_str	00000000 
00004b5f l       .debug_str	00000000 
00004b6b l       .debug_str	00000000 
00004b9f l       .debug_str	00000000 
00000000 l     O .bss..L_MergedGlobals	00000041 .L_MergedGlobals
00000000 l     O .rodata..Lanon.905a9119838f662dc61f9a4827ce8632.11	00000018 .Lanon.905a9119838f662dc61f9a4827ce8632.11
00000000 l     O .rodata..Lanon.905a9119838f662dc61f9a4827ce8632.12	0000000a .Lanon.905a9119838f662dc61f9a4827ce8632.12
00000000 l     O .rodata..Lanon.905a9119838f662dc61f9a4827ce8632.13	0000000d .Lanon.905a9119838f662dc61f9a4827ce8632.13
00000000 l     O .rodata.cst4	00000004 .Lanon.905a9119838f662dc61f9a4827ce8632.14
00000000 l     O .rodata..Lanon.905a9119838f662dc61f9a4827ce8632.16	00000010 .Lanon.905a9119838f662dc61f9a4827ce8632.16
00000000 l     O .rodata..Lanon.905a9119838f662dc61f9a4827ce8632.18	00000018 .Lanon.905a9119838f662dc61f9a4827ce8632.18
00000000 l     O .rodata..Lanon.905a9119838f662dc61f9a4827ce8632.19	00000011 .Lanon.905a9119838f662dc61f9a4827ce8632.19
00000000 l     O .rodata..Lanon.905a9119838f662dc61f9a4827ce8632.2	00000001 .Lanon.905a9119838f662dc61f9a4827ce8632.2
00000000 l     O .rodata..Lanon.905a9119838f662dc61f9a4827ce8632.20	00000018 .Lanon.905a9119838f662dc61f9a4827ce8632.20
00000000 l     O .rodata..Lanon.905a9119838f662dc61f9a4827ce8632.22	00000018 .Lanon.905a9119838f662dc61f9a4827ce8632.22
00000000 l     O .rodata..Lanon.905a9119838f662dc61f9a4827ce8632.23	00000016 .Lanon.905a9119838f662dc61f9a4827ce8632.23
00000000 l     O .rodata..Lanon.905a9119838f662dc61f9a4827ce8632.25	00000018 .Lanon.905a9119838f662dc61f9a4827ce8632.25
00000000 l     O .rodata..Lanon.905a9119838f662dc61f9a4827ce8632.26	00000018 .Lanon.905a9119838f662dc61f9a4827ce8632.26
00000000 l     O .rodata..Lanon.905a9119838f662dc61f9a4827ce8632.27	00000019 .Lanon.905a9119838f662dc61f9a4827ce8632.27
00000000 l     O .rodata..Lanon.905a9119838f662dc61f9a4827ce8632.28	0000000a .Lanon.905a9119838f662dc61f9a4827ce8632.28
00000000 l     O .rodata.cst8	00000008 .Lanon.905a9119838f662dc61f9a4827ce8632.29
00000000 l     O .rodata.cst16	00000010 .Lanon.905a9119838f662dc61f9a4827ce8632.30
00000000 l     O .rodata..Lanon.905a9119838f662dc61f9a4827ce8632.31	00000010 .Lanon.905a9119838f662dc61f9a4827ce8632.31
00000000 l     O .rodata..Lanon.905a9119838f662dc61f9a4827ce8632.33	00000018 .Lanon.905a9119838f662dc61f9a4827ce8632.33
00000000 l     O .rodata..Lanon.905a9119838f662dc61f9a4827ce8632.34	00000010 .Lanon.905a9119838f662dc61f9a4827ce8632.34
00000000 l     O .rodata..Lanon.905a9119838f662dc61f9a4827ce8632.35	00000010 .Lanon.905a9119838f662dc61f9a4827ce8632.35
00000000 l     O .rodata..Lanon.905a9119838f662dc61f9a4827ce8632.36	00000011 .Lanon.905a9119838f662dc61f9a4827ce8632.36
00000000 l     O .rodata..Lanon.905a9119838f662dc61f9a4827ce8632.37	00000011 .Lanon.905a9119838f662dc61f9a4827ce8632.37
00000000 l     O .rodata..Lanon.905a9119838f662dc61f9a4827ce8632.38	00000010 .Lanon.905a9119838f662dc61f9a4827ce8632.38
00000000 l     O .rodata..Lanon.905a9119838f662dc61f9a4827ce8632.40	00000018 .Lanon.905a9119838f662dc61f9a4827ce8632.40
00000000 l     O .rodata..Lanon.905a9119838f662dc61f9a4827ce8632.41	00000010 .Lanon.905a9119838f662dc61f9a4827ce8632.41
00000000 l     O .rodata..Lanon.905a9119838f662dc61f9a4827ce8632.43	00000018 .Lanon.905a9119838f662dc61f9a4827ce8632.43
00000000 l     O .rodata..Lanon.905a9119838f662dc61f9a4827ce8632.44	00000007 .Lanon.905a9119838f662dc61f9a4827ce8632.44
00000000 l     O .rodata..Lanon.905a9119838f662dc61f9a4827ce8632.45	0000000d .Lanon.905a9119838f662dc61f9a4827ce8632.45
00000004 l     O .rodata.cst4	00000004 .Lanon.905a9119838f662dc61f9a4827ce8632.46
00000000 l     O .rodata..Lanon.905a9119838f662dc61f9a4827ce8632.47	00000006 .Lanon.905a9119838f662dc61f9a4827ce8632.47
00000000 l     O .rodata..Lanon.905a9119838f662dc61f9a4827ce8632.48	00000006 .Lanon.905a9119838f662dc61f9a4827ce8632.48
00000000 l     O .rodata..Lanon.905a9119838f662dc61f9a4827ce8632.49	00000003 .Lanon.905a9119838f662dc61f9a4827ce8632.49
00000000 l     O .rodata..Lanon.905a9119838f662dc61f9a4827ce8632.5	00000018 .Lanon.905a9119838f662dc61f9a4827ce8632.5
00000000 l     O .rodata..Lanon.905a9119838f662dc61f9a4827ce8632.50	00000005 .Lanon.905a9119838f662dc61f9a4827ce8632.50
00000000 l     O .rodata..Lanon.905a9119838f662dc61f9a4827ce8632.51	00000018 .Lanon.905a9119838f662dc61f9a4827ce8632.51
00000000 l     O .rodata..Lanon.905a9119838f662dc61f9a4827ce8632.52	0000004b .Lanon.905a9119838f662dc61f9a4827ce8632.52
00000000 l     O .rodata..Lanon.905a9119838f662dc61f9a4827ce8632.53	00000018 .Lanon.905a9119838f662dc61f9a4827ce8632.53
00000000 l     O .rodata..Lanon.905a9119838f662dc61f9a4827ce8632.54	00000018 .Lanon.905a9119838f662dc61f9a4827ce8632.54
00000000 l     O .rodata..Lanon.905a9119838f662dc61f9a4827ce8632.55	00000021 .Lanon.905a9119838f662dc61f9a4827ce8632.55
00000000 l     O .rodata..Lanon.905a9119838f662dc61f9a4827ce8632.56	00000012 .Lanon.905a9119838f662dc61f9a4827ce8632.56
00000000 l     O .rodata..Lanon.905a9119838f662dc61f9a4827ce8632.57	00000009 .Lanon.905a9119838f662dc61f9a4827ce8632.57
00000008 l     O .rodata.cst8	00000008 .Lanon.905a9119838f662dc61f9a4827ce8632.58
00000000 l     O .rodata..Lanon.905a9119838f662dc61f9a4827ce8632.59	00000001 .Lanon.905a9119838f662dc61f9a4827ce8632.59
00000000 l     O .rodata..Lanon.905a9119838f662dc61f9a4827ce8632.60	0000000e .Lanon.905a9119838f662dc61f9a4827ce8632.60
00000000 l     O .rodata..Lanon.905a9119838f662dc61f9a4827ce8632.61	00000002 .Lanon.905a9119838f662dc61f9a4827ce8632.61
00000000 l     O .rodata..Lanon.905a9119838f662dc61f9a4827ce8632.62	0000000c .Lanon.905a9119838f662dc61f9a4827ce8632.62
00000000 l     O .rodata..Lanon.905a9119838f662dc61f9a4827ce8632.63	00000009 .Lanon.905a9119838f662dc61f9a4827ce8632.63
00000000 l     O .rodata..Lanon.905a9119838f662dc61f9a4827ce8632.64	0000000d .Lanon.905a9119838f662dc61f9a4827ce8632.64
00000000 l     O .rodata..Lanon.905a9119838f662dc61f9a4827ce8632.65	0000000c .Lanon.905a9119838f662dc61f9a4827ce8632.65
00000000 l     O .rodata..Lanon.905a9119838f662dc61f9a4827ce8632.66	0000000b .Lanon.905a9119838f662dc61f9a4827ce8632.66
00000000 l     O .rodata..Lanon.905a9119838f662dc61f9a4827ce8632.67	0000000c .Lanon.905a9119838f662dc61f9a4827ce8632.67
00000000 l     O .rodata..Lanon.905a9119838f662dc61f9a4827ce8632.68	0000000a .Lanon.905a9119838f662dc61f9a4827ce8632.68
00000000 l     O .rodata..Lanon.905a9119838f662dc61f9a4827ce8632.69	0000000a .Lanon.905a9119838f662dc61f9a4827ce8632.69
00000000 l     O .rodata..Lanon.905a9119838f662dc61f9a4827ce8632.7	00000018 .Lanon.905a9119838f662dc61f9a4827ce8632.7
00000000 l     O .rodata..Lanon.905a9119838f662dc61f9a4827ce8632.70	00000009 .Lanon.905a9119838f662dc61f9a4827ce8632.70
00000000 l     O .rodata..Lanon.905a9119838f662dc61f9a4827ce8632.71	0000000a .Lanon.905a9119838f662dc61f9a4827ce8632.71
00000000 l     O .rodata..Lanon.905a9119838f662dc61f9a4827ce8632.72	0000000a .Lanon.905a9119838f662dc61f9a4827ce8632.72
00000000 l     O .rodata..Lanon.905a9119838f662dc61f9a4827ce8632.73	00000007 .Lanon.905a9119838f662dc61f9a4827ce8632.73
00000000 l     O .rodata..Lanon.905a9119838f662dc61f9a4827ce8632.74	0000000a .Lanon.905a9119838f662dc61f9a4827ce8632.74
00000000 l     O .rodata..Lanon.905a9119838f662dc61f9a4827ce8632.75	0000000c .Lanon.905a9119838f662dc61f9a4827ce8632.75
00000000 l     O .rodata..Lanon.905a9119838f662dc61f9a4827ce8632.76	0000000a .Lanon.905a9119838f662dc61f9a4827ce8632.76
00000000 l     O .rodata..Lanon.905a9119838f662dc61f9a4827ce8632.77	0000000a .Lanon.905a9119838f662dc61f9a4827ce8632.77
00000000 l     O .rodata..Lanon.905a9119838f662dc61f9a4827ce8632.78	00000007 .Lanon.905a9119838f662dc61f9a4827ce8632.78
00000000 l     O .rodata..Lanon.905a9119838f662dc61f9a4827ce8632.8	00000010 .Lanon.905a9119838f662dc61f9a4827ce8632.8
00000000 l     F .text._ZN42_$LT$$RF$T$u20$as$u20$core..fmt..Debug$GT$3fmt17h5705e17bf0e2bf47E	0000003a _ZN42_$LT$$RF$T$u20$as$u20$core..fmt..Debug$GT$3fmt17h5705e17bf0e2bf47E
00000000 l     F .text._ZN42_$LT$$RF$T$u20$as$u20$core..fmt..Debug$GT$3fmt17h76bf2758f0253cecE	0000003a _ZN42_$LT$$RF$T$u20$as$u20$core..fmt..Debug$GT$3fmt17h76bf2758f0253cecE
00000000 l     F .text._ZN42_$LT$$RF$T$u20$as$u20$core..fmt..Debug$GT$3fmt17h775392ac1e6b687dE	00000036 _ZN42_$LT$$RF$T$u20$as$u20$core..fmt..Debug$GT$3fmt17h775392ac1e6b687dE
00000000 l     F .text._ZN5mylib13listen_sensor16read_temperature17h13ad632178bb9e10E	000004ac _ZN5mylib13listen_sensor16read_temperature17h13ad632178bb9e10E
00000000 l     O .data._ZN5mylib6mynewt2hw6sensor17LISTENER_INTERNAL17hc83dd82092b2a966E	00000018 _ZN5mylib6mynewt2hw6sensor17LISTENER_INTERNAL17hc83dd82092b2a966E
00000000 l     F .text._ZN5mylib6mynewt2hw6sensor21null_sensor_data_func17ha880541e9be5e41bE	00000004 _ZN5mylib6mynewt2hw6sensor21null_sensor_data_func17ha880541e9be5e41bE
00000001 l     O .bss..L_MergedGlobals	00000040 _ZN5mylib6mynewt8encoding12json_context12JSON_CONTEXT17h6d03741bd5df8681E
00000000 l     O .bss._ZN5mylib9send_coap12NETWORK_TASK17h0859ce841482f469E	00000050 _ZN5mylib9send_coap12NETWORK_TASK17h0859ce841482f469E
00000000 l     O .bss..L_MergedGlobals	00000001 _ZN5mylib9send_coap16NETWORK_IS_READY17h5ce10212cabfd252E.0.0
00000000 l     F .text._ZN5mylib9send_coap17network_task_func17h7d78f9e97e619160E	0000011a _ZN5mylib9send_coap17network_task_func17h7d78f9e97e619160E
00000000 l     O .bss._ZN5mylib9send_coap18NETWORK_TASK_STACK17h193d3ff43e33cd75E	00000400 _ZN5mylib9send_coap18NETWORK_TASK_STACK17h193d3ff43e33cd75E
00000000 l     O .rodata.str.4	00000010 str.4
00000000 l    d  .text._ZN42_$LT$$RF$T$u20$as$u20$core..fmt..Debug$GT$3fmt17h5705e17bf0e2bf47E	00000000 .text._ZN42_$LT$$RF$T$u20$as$u20$core..fmt..Debug$GT$3fmt17h5705e17bf0e2bf47E
00000000 l    d  .text._ZN42_$LT$$RF$T$u20$as$u20$core..fmt..Debug$GT$3fmt17h76bf2758f0253cecE	00000000 .text._ZN42_$LT$$RF$T$u20$as$u20$core..fmt..Debug$GT$3fmt17h76bf2758f0253cecE
00000000 l    d  .text._ZN42_$LT$$RF$T$u20$as$u20$core..fmt..Debug$GT$3fmt17h775392ac1e6b687dE	00000000 .text._ZN42_$LT$$RF$T$u20$as$u20$core..fmt..Debug$GT$3fmt17h775392ac1e6b687dE
00000000 l    d  .text._ZN86_$LT$mylib..mynewt..encoding..json..json_encoder$u20$as$u20$core..default..Default$GT$7default17h860624d609b17ca1E	00000000 .text._ZN86_$LT$mylib..mynewt..encoding..json..json_encoder$u20$as$u20$core..default..Default$GT$7default17h860624d609b17ca1E
00000000 l    d  .text._ZN85_$LT$mylib..mynewt..encoding..json..json_enum_t$u20$as$u20$core..default..Default$GT$7default17h11f1daf3861c1f16E	00000000 .text._ZN85_$LT$mylib..mynewt..encoding..json..json_enum_t$u20$as$u20$core..default..Default$GT$7default17h11f1daf3861c1f16E
00000000 l    d  .text._ZN114_$LT$mylib..mynewt..encoding..json..json_array_t__bindgen_ty_1__bindgen_ty_1$u20$as$u20$core..default..Default$GT$7default17h82b19c328fece707E	00000000 .text._ZN114_$LT$mylib..mynewt..encoding..json..json_array_t__bindgen_ty_1__bindgen_ty_1$u20$as$u20$core..default..Default$GT$7default17h82b19c328fece707E
00000000 l    d  .text._ZN100_$LT$mylib..mynewt..encoding..json..json_array_t__bindgen_ty_1$u20$as$u20$core..default..Default$GT$7default17ha2bf33bfa13a675bE	00000000 .text._ZN100_$LT$mylib..mynewt..encoding..json..json_array_t__bindgen_ty_1$u20$as$u20$core..default..Default$GT$7default17ha2bf33bfa13a675bE
00000000 l    d  .text._ZN86_$LT$mylib..mynewt..encoding..json..json_array_t$u20$as$u20$core..default..Default$GT$7default17h21ecccd20652b50fE	00000000 .text._ZN86_$LT$mylib..mynewt..encoding..json..json_array_t$u20$as$u20$core..default..Default$GT$7default17h21ecccd20652b50fE
00000000 l    d  .text._ZN99_$LT$mylib..mynewt..encoding..json..json_attr_t__bindgen_ty_1$u20$as$u20$core..default..Default$GT$7default17hceb089f8565d35a4E	00000000 .text._ZN99_$LT$mylib..mynewt..encoding..json..json_attr_t__bindgen_ty_1$u20$as$u20$core..default..Default$GT$7default17hceb089f8565d35a4E
00000000 l    d  .text._ZN85_$LT$mylib..mynewt..encoding..json..json_attr_t$u20$as$u20$core..default..Default$GT$7default17he4d0ab2df173dd16E	00000000 .text._ZN85_$LT$mylib..mynewt..encoding..json..json_attr_t$u20$as$u20$core..default..Default$GT$7default17he4d0ab2df173dd16E
00000000 l    d  .text._ZN117_$LT$mylib..mynewt..encoding..json_context..Step$u20$as$u20$mylib..mynewt..encoding..json_context..FunctionCaller$GT$13call_function17hed4ad968db3b0801E	00000000 .text._ZN117_$LT$mylib..mynewt..encoding..json_context..Step$u20$as$u20$mylib..mynewt..encoding..json_context..FunctionCaller$GT$13call_function17hed4ad968db3b0801E
00000000 l    d  .text._ZN91_$LT$$u5b$u8$u5d$$u20$as$u20$mylib..mynewt..encoding..json_context..ToBytesOptionalNull$GT$21to_bytes_optional_nul17h6b091983309d3269E	00000000 .text._ZN91_$LT$$u5b$u8$u5d$$u20$as$u20$mylib..mynewt..encoding..json_context..ToBytesOptionalNull$GT$21to_bytes_optional_nul17h6b091983309d3269E
00000000 l    d  .text._ZN82_$LT$str$u20$as$u20$mylib..mynewt..encoding..json_context..ToBytesOptionalNull$GT$21to_bytes_optional_nul17hc8b35a0eccd31e17E	00000000 .text._ZN82_$LT$str$u20$as$u20$mylib..mynewt..encoding..json_context..ToBytesOptionalNull$GT$21to_bytes_optional_nul17hc8b35a0eccd31e17E
00000000 l    d  .text._ZN86_$LT$$RF$str$u20$as$u20$mylib..mynewt..encoding..json_context..ToBytesOptionalNull$GT$21to_bytes_optional_nul17h2f36265e10bbdb9aE	00000000 .text._ZN86_$LT$$RF$str$u20$as$u20$mylib..mynewt..encoding..json_context..ToBytesOptionalNull$GT$21to_bytes_optional_nul17h2f36265e10bbdb9aE
00000000 l    d  .text._ZN94_$LT$cstr_core..CStr$u20$as$u20$mylib..mynewt..encoding..json_context..ToBytesOptionalNull$GT$21to_bytes_optional_nul17h6afba8703e19f869E	00000000 .text._ZN94_$LT$cstr_core..CStr$u20$as$u20$mylib..mynewt..encoding..json_context..ToBytesOptionalNull$GT$21to_bytes_optional_nul17h6afba8703e19f869E
00000000 l    d  .text._ZN78_$LT$mylib..mynewt..kernel..os..os_event$u20$as$u20$core..default..Default$GT$7default17hc4d97a92f078a3aeE	00000000 .text._ZN78_$LT$mylib..mynewt..kernel..os..os_event$u20$as$u20$core..default..Default$GT$7default17hc4d97a92f078a3aeE
00000000 l    d  .text._ZN80_$LT$mylib..mynewt..kernel..os..os_callout$u20$as$u20$core..default..Default$GT$7default17h60a0bce68846fe76E	00000000 .text._ZN80_$LT$mylib..mynewt..kernel..os..os_callout$u20$as$u20$core..default..Default$GT$7default17h60a0bce68846fe76E
00000000 l    d  .text._ZN79_$LT$mylib..mynewt..kernel..os..hal_timer$u20$as$u20$core..default..Default$GT$7default17hd84c1712e93c51e1E	00000000 .text._ZN79_$LT$mylib..mynewt..kernel..os..hal_timer$u20$as$u20$core..default..Default$GT$7default17hd84c1712e93c51e1E
00000000 l    d  .text._ZN76_$LT$mylib..mynewt..kernel..os..os_dev$u20$as$u20$core..default..Default$GT$7default17h2f5a4ffce0d3e5bfE	00000000 .text._ZN76_$LT$mylib..mynewt..kernel..os..os_dev$u20$as$u20$core..default..Default$GT$7default17h2f5a4ffce0d3e5bfE
00000000 l    d  .text._ZN77_$LT$mylib..mynewt..kernel..os..os_mbuf$u20$as$u20$core..default..Default$GT$7default17h31a069d7f46f248fE	00000000 .text._ZN77_$LT$mylib..mynewt..kernel..os..os_mbuf$u20$as$u20$core..default..Default$GT$7default17h31a069d7f46f248fE
00000000 l    d  .text._ZN80_$LT$mylib..mynewt..kernel..os..os_mempool$u20$as$u20$core..default..Default$GT$7default17h920df732f8be7eacE	00000000 .text._ZN80_$LT$mylib..mynewt..kernel..os..os_mempool$u20$as$u20$core..default..Default$GT$7default17h920df732f8be7eacE
00000000 l    d  .text._ZN85_$LT$mylib..mynewt..kernel..os..os_sanity_check$u20$as$u20$core..default..Default$GT$7default17h6f823112a3655a4fE	00000000 .text._ZN85_$LT$mylib..mynewt..kernel..os..os_sanity_check$u20$as$u20$core..default..Default$GT$7default17h6f823112a3655a4fE
00000000 l    d  .text._ZN77_$LT$mylib..mynewt..kernel..os..os_task$u20$as$u20$core..default..Default$GT$7default17ha83e110649cdd500E	00000000 .text._ZN77_$LT$mylib..mynewt..kernel..os..os_task$u20$as$u20$core..default..Default$GT$7default17ha83e110649cdd500E
00000000 l    d  .text._ZN76_$LT$mylib..mynewt..kernel..os..os_sem$u20$as$u20$core..default..Default$GT$7default17h892530a03bc28a03E	00000000 .text._ZN76_$LT$mylib..mynewt..kernel..os..os_sem$u20$as$u20$core..default..Default$GT$7default17h892530a03bc28a03E
00000000 l    d  .text._ZN100_$LT$mylib..mynewt..hw..sensor..bindings..os_dev__bindgen_ty_1$u20$as$u20$core..default..Default$GT$7default17h67635421c75fe0b9E	00000000 .text._ZN100_$LT$mylib..mynewt..hw..sensor..bindings..os_dev__bindgen_ty_1$u20$as$u20$core..default..Default$GT$7default17h67635421c75fe0b9E
00000000 l    d  .text._ZN93_$LT$mylib..mynewt..hw..sensor..bindings..sensor_data_t$u20$as$u20$core..default..Default$GT$7default17h20ac0e80e110915cE	00000000 .text._ZN93_$LT$mylib..mynewt..hw..sensor..bindings..sensor_data_t$u20$as$u20$core..default..Default$GT$7default17h20ac0e80e110915cE
00000000 l    d  .text._ZN95_$LT$mylib..mynewt..hw..sensor..bindings..sensor_listener$u20$as$u20$core..default..Default$GT$7default17ha6a4cedbdad511fdE	00000000 .text._ZN95_$LT$mylib..mynewt..hw..sensor..bindings..sensor_listener$u20$as$u20$core..default..Default$GT$7default17ha6a4cedbdad511fdE
00000000 l    d  .text._ZN98_$LT$mylib..mynewt..hw..sensor..bindings..sensor_type_traits$u20$as$u20$core..default..Default$GT$7default17hdf223ad551ffd976E	00000000 .text._ZN98_$LT$mylib..mynewt..hw..sensor..bindings..sensor_type_traits$u20$as$u20$core..default..Default$GT$7default17hdf223ad551ffd976E
00000000 l    d  .text._ZN100_$LT$mylib..mynewt..hw..sensor..bindings..sensor_notify_ev_ctx$u20$as$u20$core..default..Default$GT$7default17hda13196840d4fdf5E	00000000 .text._ZN100_$LT$mylib..mynewt..hw..sensor..bindings..sensor_notify_ev_ctx$u20$as$u20$core..default..Default$GT$7default17hda13196840d4fdf5E
00000000 l    d  .text._ZN86_$LT$mylib..mynewt..hw..sensor..bindings..sensor$u20$as$u20$core..default..Default$GT$7default17hafbbeec8fb7ebf29E	00000000 .text._ZN86_$LT$mylib..mynewt..hw..sensor..bindings..sensor$u20$as$u20$core..default..Default$GT$7default17hafbbeec8fb7ebf29E
00000000 l    d  .text._ZN93_$LT$mylib..mynewt..hw..sensor..bindings.._bindgen_ty_1$u20$as$u20$core..default..Default$GT$7default17h046454e6015ecb12E	00000000 .text._ZN93_$LT$mylib..mynewt..hw..sensor..bindings.._bindgen_ty_1$u20$as$u20$core..default..Default$GT$7default17h046454e6015ecb12E
00000000 l    d  .text._ZN5mylib6mynewt2hw6sensor21null_sensor_data_func17ha880541e9be5e41bE	00000000 .text._ZN5mylib6mynewt2hw6sensor21null_sensor_data_func17ha880541e9be5e41bE
00000000 l    d  .text._ZN101_$LT$mylib..mynewt..libs..sensor_coap..json_value__bindgen_ty_1$u20$as$u20$core..default..Default$GT$7default17hc4292ec42587899fE	00000000 .text._ZN101_$LT$mylib..mynewt..libs..sensor_coap..json_value__bindgen_ty_1$u20$as$u20$core..default..Default$GT$7default17hc4292ec42587899fE
00000000 l    d  .text._ZN104_$LT$mylib..mynewt..libs..sensor_network..sensor_network_interface$u20$as$u20$core..default..Default$GT$7default17hc3f8adb0269c6a33E	00000000 .text._ZN104_$LT$mylib..mynewt..libs..sensor_network..sensor_network_interface$u20$as$u20$core..default..Default$GT$7default17hc3f8adb0269c6a33E
00000000 l    d  .text._ZN5mylib6mynewt6result95_$LT$impl$u20$core..convert..From$LT$mylib..mynewt..result..MynewtError$GT$$u20$for$u20$i32$GT$4from17h0f1fcad621c15d1bE	00000000 .text._ZN5mylib6mynewt6result95_$LT$impl$u20$core..convert..From$LT$mylib..mynewt..result..MynewtError$GT$$u20$for$u20$i32$GT$4from17h0f1fcad621c15d1bE
00000000 l    d  .text._ZN5mylib13listen_sensor16read_temperature17h13ad632178bb9e10E	00000000 .text._ZN5mylib13listen_sensor16read_temperature17h13ad632178bb9e10E
00000000 l    d  .text._ZN5mylib9send_coap17network_task_func17h7d78f9e97e619160E	00000000 .text._ZN5mylib9send_coap17network_task_func17h7d78f9e97e619160E
00000000 l    d  .text.main	00000000 .text.main
00000000 l    d  .text.rust_begin_unwind	00000000 .text.rust_begin_unwind
00000000 l    d  .text._ZN85_$LT$mylib..mynewt..encoding..json_context..JsonError$u20$as$u20$core..fmt..Debug$GT$3fmt17h43c93a3f4e04264eE	00000000 .text._ZN85_$LT$mylib..mynewt..encoding..json_context..JsonError$u20$as$u20$core..fmt..Debug$GT$3fmt17h43c93a3f4e04264eE
00000000 l    d  .text._ZN71_$LT$mylib..mynewt..result..MynewtError$u20$as$u20$core..fmt..Debug$GT$3fmt17h9aedc60e28746d6bE	00000000 .text._ZN71_$LT$mylib..mynewt..result..MynewtError$u20$as$u20$core..fmt..Debug$GT$3fmt17h9aedc60e28746d6bE
00000000 l    d  .rodata..Lanon.905a9119838f662dc61f9a4827ce8632.0	00000000 .rodata..Lanon.905a9119838f662dc61f9a4827ce8632.0
00000000 l    d  .rodata..Lanon.905a9119838f662dc61f9a4827ce8632.1	00000000 .rodata..Lanon.905a9119838f662dc61f9a4827ce8632.1
00000000 l    d  .rodata..Lanon.905a9119838f662dc61f9a4827ce8632.3	00000000 .rodata..Lanon.905a9119838f662dc61f9a4827ce8632.3
00000000 l    d  .rodata..Lanon.905a9119838f662dc61f9a4827ce8632.4	00000000 .rodata..Lanon.905a9119838f662dc61f9a4827ce8632.4
00000000 l    d  .rodata..Lanon.905a9119838f662dc61f9a4827ce8632.6	00000000 .rodata..Lanon.905a9119838f662dc61f9a4827ce8632.6
00000000 l    d  .rodata..Lanon.905a9119838f662dc61f9a4827ce8632.9	00000000 .rodata..Lanon.905a9119838f662dc61f9a4827ce8632.9
00000000 l    d  .rodata..Lanon.905a9119838f662dc61f9a4827ce8632.10	00000000 .rodata..Lanon.905a9119838f662dc61f9a4827ce8632.10
00000000 l    d  .data._ZN5mylib6mynewt2hw6sensor17LISTENER_INTERNAL17hc83dd82092b2a966E	00000000 .data._ZN5mylib6mynewt2hw6sensor17LISTENER_INTERNAL17hc83dd82092b2a966E
00000000 l    d  .rodata..Lanon.905a9119838f662dc61f9a4827ce8632.15	00000000 .rodata..Lanon.905a9119838f662dc61f9a4827ce8632.15
00000000 l    d  .rodata..Lanon.905a9119838f662dc61f9a4827ce8632.17	00000000 .rodata..Lanon.905a9119838f662dc61f9a4827ce8632.17
00000000 l    d  .rodata..Lanon.905a9119838f662dc61f9a4827ce8632.21	00000000 .rodata..Lanon.905a9119838f662dc61f9a4827ce8632.21
00000000 l    d  .rodata..Lanon.905a9119838f662dc61f9a4827ce8632.24	00000000 .rodata..Lanon.905a9119838f662dc61f9a4827ce8632.24
00000000 l    d  .bss._ZN5mylib9send_coap12NETWORK_TASK17h0859ce841482f469E	00000000 .bss._ZN5mylib9send_coap12NETWORK_TASK17h0859ce841482f469E
00000000 l    d  .bss._ZN5mylib9send_coap18NETWORK_TASK_STACK17h193d3ff43e33cd75E	00000000 .bss._ZN5mylib9send_coap18NETWORK_TASK_STACK17h193d3ff43e33cd75E
00000000 l    d  .rodata..Lanon.905a9119838f662dc61f9a4827ce8632.32	00000000 .rodata..Lanon.905a9119838f662dc61f9a4827ce8632.32
00000000 l    d  .rodata.str.4	00000000 .rodata.str.4
00000000 l    d  .rodata..Lanon.905a9119838f662dc61f9a4827ce8632.39	00000000 .rodata..Lanon.905a9119838f662dc61f9a4827ce8632.39
00000000 l    d  .rodata..Lanon.905a9119838f662dc61f9a4827ce8632.42	00000000 .rodata..Lanon.905a9119838f662dc61f9a4827ce8632.42
00000000 l    d  .bss..L_MergedGlobals	00000000 .bss..L_MergedGlobals
00000000 l    d  .debug_loc	00000000 .debug_loc
00000000 l    d  .debug_abbrev	00000000 .debug_abbrev
00000000 l    d  .debug_info	00000000 .debug_info
00000000 l    d  .debug_ranges	00000000 .debug_ranges
00000000 l    d  .debug_frame	00000000 .debug_frame
00000000 l    d  .debug_line	00000000 .debug_line
00000000 g     F .text._ZN100_$LT$mylib..mynewt..encoding..json..json_array_t__bindgen_ty_1$u20$as$u20$core..default..Default$GT$7default17ha2bf33bfa13a675bE	00000010 _ZN100_$LT$mylib..mynewt..encoding..json..json_array_t__bindgen_ty_1$u20$as$u20$core..default..Default$GT$7default17ha2bf33bfa13a675bE
00000000 g     F .text._ZN100_$LT$mylib..mynewt..hw..sensor..bindings..os_dev__bindgen_ty_1$u20$as$u20$core..default..Default$GT$7default17h67635421c75fe0b9E	00000004 _ZN100_$LT$mylib..mynewt..hw..sensor..bindings..os_dev__bindgen_ty_1$u20$as$u20$core..default..Default$GT$7default17h67635421c75fe0b9E
00000000 g     F .text._ZN100_$LT$mylib..mynewt..hw..sensor..bindings..os_dev__bindgen_ty_1$u20$as$u20$core..default..Default$GT$7default17h67635421c75fe0b9E	00000004 _ZN100_$LT$mylib..mynewt..hw..sensor..bindings..sensor__bindgen_ty_1$u20$as$u20$core..default..Default$GT$7default17h30430330c648e18fE
00000000 g     F .text._ZN100_$LT$mylib..mynewt..hw..sensor..bindings..os_dev__bindgen_ty_1$u20$as$u20$core..default..Default$GT$7default17h67635421c75fe0b9E	00000004 _ZN100_$LT$mylib..mynewt..hw..sensor..bindings..sensor__bindgen_ty_2$u20$as$u20$core..default..Default$GT$7default17h0443060ab3209228E
00000000 g     F .text._ZN100_$LT$mylib..mynewt..hw..sensor..bindings..os_dev__bindgen_ty_1$u20$as$u20$core..default..Default$GT$7default17h67635421c75fe0b9E	00000004 _ZN100_$LT$mylib..mynewt..hw..sensor..bindings..sensor__bindgen_ty_3$u20$as$u20$core..default..Default$GT$7default17ha7fd59503c052ac3E
00000000 g     F .text._ZN100_$LT$mylib..mynewt..hw..sensor..bindings..os_dev__bindgen_ty_1$u20$as$u20$core..default..Default$GT$7default17h67635421c75fe0b9E	00000004 _ZN100_$LT$mylib..mynewt..hw..sensor..bindings..sensor__bindgen_ty_4$u20$as$u20$core..default..Default$GT$7default17h457b5eded99a190fE
00000000 g     F .text._ZN100_$LT$mylib..mynewt..hw..sensor..bindings..sensor_notify_ev_ctx$u20$as$u20$core..default..Default$GT$7default17hda13196840d4fdf5E	00000006 _ZN100_$LT$mylib..mynewt..hw..sensor..bindings..sensor_notify_ev_ctx$u20$as$u20$core..default..Default$GT$7default17hda13196840d4fdf5E
00000000 g     F .text._ZN100_$LT$mylib..mynewt..hw..sensor..bindings..os_dev__bindgen_ty_1$u20$as$u20$core..default..Default$GT$7default17h67635421c75fe0b9E	00000004 _ZN101_$LT$mylib..mynewt..hw..sensor..bindings..os_task__bindgen_ty_1$u20$as$u20$core..default..Default$GT$7default17hee4274035a4c4da7E
00000000 g     F .text._ZN100_$LT$mylib..mynewt..hw..sensor..bindings..sensor_notify_ev_ctx$u20$as$u20$core..default..Default$GT$7default17hda13196840d4fdf5E	00000006 _ZN101_$LT$mylib..mynewt..hw..sensor..bindings..os_task__bindgen_ty_2$u20$as$u20$core..default..Default$GT$7default17h9c123dbc3afa161fE
00000000 g     F .text._ZN100_$LT$mylib..mynewt..hw..sensor..bindings..os_dev__bindgen_ty_1$u20$as$u20$core..default..Default$GT$7default17h67635421c75fe0b9E	00000004 _ZN101_$LT$mylib..mynewt..hw..sensor..bindings..os_task__bindgen_ty_3$u20$as$u20$core..default..Default$GT$7default17hfffb5d71238a2376E
00000000 g     F .text._ZN101_$LT$mylib..mynewt..libs..sensor_coap..json_value__bindgen_ty_1$u20$as$u20$core..default..Default$GT$7default17hc4292ec42587899fE	0000000c _ZN101_$LT$mylib..mynewt..libs..sensor_coap..json_value__bindgen_ty_1$u20$as$u20$core..default..Default$GT$7default17hc4292ec42587899fE
00000000 g     F .text._ZN100_$LT$mylib..mynewt..hw..sensor..bindings..os_dev__bindgen_ty_1$u20$as$u20$core..default..Default$GT$7default17h67635421c75fe0b9E	00000004 _ZN101_$LT$mylib..mynewt..libs..sensor_coap..os_mempool__bindgen_ty_1$u20$as$u20$core..default..Default$GT$7default17h7ea1a9bf49fea343E
00000000 g     F .text._ZN100_$LT$mylib..mynewt..hw..sensor..bindings..os_dev__bindgen_ty_1$u20$as$u20$core..default..Default$GT$7default17h67635421c75fe0b9E	00000004 _ZN101_$LT$mylib..mynewt..libs..sensor_coap..os_mempool__bindgen_ty_2$u20$as$u20$core..default..Default$GT$7default17h4148f8856479b70aE
00000000 g     F .text._ZN100_$LT$mylib..mynewt..hw..sensor..bindings..os_dev__bindgen_ty_1$u20$as$u20$core..default..Default$GT$7default17h67635421c75fe0b9E	00000004 _ZN102_$LT$mylib..mynewt..hw..sensor..bindings..os_event__bindgen_ty_1$u20$as$u20$core..default..Default$GT$7default17hfdb31e1ad2483c84E
00000000 g     F .text._ZN100_$LT$mylib..mynewt..hw..sensor..bindings..os_dev__bindgen_ty_1$u20$as$u20$core..default..Default$GT$7default17h67635421c75fe0b9E	00000004 _ZN102_$LT$mylib..mynewt..hw..sensor..bindings..os_mutex__bindgen_ty_1$u20$as$u20$core..default..Default$GT$7default17hc5ca4a99269a3107E
00000000 g     F .text._ZN100_$LT$mylib..mynewt..hw..sensor..bindings..os_dev__bindgen_ty_1$u20$as$u20$core..default..Default$GT$7default17h67635421c75fe0b9E	00000004 _ZN102_$LT$mylib..mynewt..libs..sensor_coap..os_memblock__bindgen_ty_1$u20$as$u20$core..default..Default$GT$7default17h4bd330aa0e29a0a3E
00000000 g     F .text._ZN100_$LT$mylib..mynewt..hw..sensor..bindings..sensor_notify_ev_ctx$u20$as$u20$core..default..Default$GT$7default17hda13196840d4fdf5E	00000006 _ZN103_$LT$mylib..mynewt..hw..sensor..bindings..os_eventq__bindgen_ty_1$u20$as$u20$core..default..Default$GT$7default17haebcf10ebe5009f2E
00000000 g     F .text._ZN100_$LT$mylib..mynewt..hw..sensor..bindings..os_dev__bindgen_ty_1$u20$as$u20$core..default..Default$GT$7default17h67635421c75fe0b9E	00000004 _ZN103_$LT$mylib..mynewt..libs..sensor_coap..os_mbuf_pool__bindgen_ty_1$u20$as$u20$core..default..Default$GT$7default17h26b3933b741c1432E
00000000 g     F .text._ZN100_$LT$mylib..mynewt..hw..sensor..bindings..sensor_notify_ev_ctx$u20$as$u20$core..default..Default$GT$7default17hda13196840d4fdf5E	00000006 _ZN104_$LT$mylib..mynewt..hw..sensor..bindings..os_callout__bindgen_ty_1$u20$as$u20$core..default..Default$GT$7default17h7af416e8d00f63fdE
00000000 g     F .text._ZN100_$LT$mylib..mynewt..hw..sensor..bindings..os_dev__bindgen_ty_1$u20$as$u20$core..default..Default$GT$7default17h67635421c75fe0b9E	00000004 _ZN104_$LT$mylib..mynewt..hw..sensor..bindings..os_mempool__bindgen_ty_1$u20$as$u20$core..default..Default$GT$7default17h9bede0b04aca28ddE
00000000 g     F .text._ZN100_$LT$mylib..mynewt..hw..sensor..bindings..os_dev__bindgen_ty_1$u20$as$u20$core..default..Default$GT$7default17h67635421c75fe0b9E	00000004 _ZN104_$LT$mylib..mynewt..hw..sensor..bindings..os_mempool__bindgen_ty_2$u20$as$u20$core..default..Default$GT$7default17hbb5c9b186f0459adE
00000000 g     F .text._ZN104_$LT$mylib..mynewt..libs..sensor_network..sensor_network_interface$u20$as$u20$core..default..Default$GT$7default17hc3f8adb0269c6a33E	0000000e _ZN104_$LT$mylib..mynewt..libs..sensor_network..sensor_network_interface$u20$as$u20$core..default..Default$GT$7default17hc3f8adb0269c6a33E
00000000 g     F .text._ZN100_$LT$mylib..mynewt..hw..sensor..bindings..os_dev__bindgen_ty_1$u20$as$u20$core..default..Default$GT$7default17h67635421c75fe0b9E	00000004 _ZN105_$LT$mylib..mynewt..hw..sensor..bindings..os_memblock__bindgen_ty_1$u20$as$u20$core..default..Default$GT$7default17hbe05b8063f804cd1E
00000000 g     F .text._ZN100_$LT$mylib..mynewt..hw..sensor..bindings..os_dev__bindgen_ty_1$u20$as$u20$core..default..Default$GT$7default17h67635421c75fe0b9E	00000004 _ZN106_$LT$mylib..mynewt..libs..mynewt_rust..os_sanity_check__bindgen_ty_1$u20$as$u20$core..default..Default$GT$7default17h27890ba9f7241aaeE
00000000 g     F .text._ZN100_$LT$mylib..mynewt..hw..sensor..bindings..os_dev__bindgen_ty_1$u20$as$u20$core..default..Default$GT$7default17h67635421c75fe0b9E	00000004 _ZN106_$LT$mylib..mynewt..libs..mynewt_rust..sensor_listener__bindgen_ty_1$u20$as$u20$core..default..Default$GT$7default17h0f54f0de2acbb938E
00000000 g     F .text._ZN100_$LT$mylib..mynewt..hw..sensor..bindings..os_dev__bindgen_ty_1$u20$as$u20$core..default..Default$GT$7default17h67635421c75fe0b9E	00000004 _ZN106_$LT$mylib..mynewt..libs..mynewt_rust..sensor_notifier__bindgen_ty_1$u20$as$u20$core..default..Default$GT$7default17h835c4a546174e2f1E
00000000 g     F .text._ZN100_$LT$mylib..mynewt..hw..sensor..bindings..os_dev__bindgen_ty_1$u20$as$u20$core..default..Default$GT$7default17h67635421c75fe0b9E	00000004 _ZN107_$LT$mylib..mynewt..hw..sensor..bindings.._bindgen_ty_1__bindgen_ty_1$u20$as$u20$core..default..Default$GT$7default17habf388da3ab9c24bE
00000000 g     F .text._ZN100_$LT$mylib..mynewt..hw..sensor..bindings..os_dev__bindgen_ty_1$u20$as$u20$core..default..Default$GT$7default17h67635421c75fe0b9E	00000004 _ZN107_$LT$mylib..mynewt..kernel..os..os_time_change_listener__bindgen_ty_1$u20$as$u20$core..default..Default$GT$7default17he8696fa910b728dbE
00000000 g     F .text._ZN100_$LT$mylib..mynewt..hw..sensor..bindings..os_dev__bindgen_ty_1$u20$as$u20$core..default..Default$GT$7default17h67635421c75fe0b9E	00000004 _ZN109_$LT$mylib..mynewt..hw..sensor..bindings..os_sanity_check__bindgen_ty_1$u20$as$u20$core..default..Default$GT$7default17h26ade93f49b1b06bE
00000000 g     F .text._ZN100_$LT$mylib..mynewt..hw..sensor..bindings..os_dev__bindgen_ty_1$u20$as$u20$core..default..Default$GT$7default17h67635421c75fe0b9E	00000004 _ZN109_$LT$mylib..mynewt..hw..sensor..bindings..sensor_listener__bindgen_ty_1$u20$as$u20$core..default..Default$GT$7default17h89f51df4c2db172cE
00000000 g     F .text._ZN100_$LT$mylib..mynewt..hw..sensor..bindings..os_dev__bindgen_ty_1$u20$as$u20$core..default..Default$GT$7default17h67635421c75fe0b9E	00000004 _ZN109_$LT$mylib..mynewt..hw..sensor..bindings..sensor_notifier__bindgen_ty_1$u20$as$u20$core..default..Default$GT$7default17hf2fcf08fa72c61a2E
00000000 g     F .text._ZN100_$LT$mylib..mynewt..hw..sensor..bindings..os_dev__bindgen_ty_1$u20$as$u20$core..default..Default$GT$7default17h67635421c75fe0b9E	00000004 _ZN109_$LT$mylib..mynewt..libs..mynewt_rust..sensor_type_traits__bindgen_ty_1$u20$as$u20$core..default..Default$GT$7default17h958a4f49275d2516E
00000000 g     F .text._ZN100_$LT$mylib..mynewt..hw..sensor..bindings..sensor_notify_ev_ctx$u20$as$u20$core..default..Default$GT$7default17hda13196840d4fdf5E	00000006 _ZN112_$LT$mylib..mynewt..encoding..json..json_value__bindgen_ty_1__bindgen_ty_1$u20$as$u20$core..default..Default$GT$7default17h16e540bd91556779E
00000000 g     F .text._ZN100_$LT$mylib..mynewt..hw..sensor..bindings..os_dev__bindgen_ty_1$u20$as$u20$core..default..Default$GT$7default17h67635421c75fe0b9E	00000004 _ZN112_$LT$mylib..mynewt..hw..sensor..bindings..sensor_type_traits__bindgen_ty_1$u20$as$u20$core..default..Default$GT$7default17h553a726543d819e5E
00000000 g     F .text._ZN114_$LT$mylib..mynewt..encoding..json..json_array_t__bindgen_ty_1__bindgen_ty_1$u20$as$u20$core..default..Default$GT$7default17h82b19c328fece707E	0000000a _ZN114_$LT$mylib..mynewt..encoding..json..json_array_t__bindgen_ty_1__bindgen_ty_1$u20$as$u20$core..default..Default$GT$7default17h82b19c328fece707E
00000000 g     F .text._ZN114_$LT$mylib..mynewt..encoding..json..json_array_t__bindgen_ty_1__bindgen_ty_1$u20$as$u20$core..default..Default$GT$7default17h82b19c328fece707E	0000000a _ZN114_$LT$mylib..mynewt..encoding..json..json_array_t__bindgen_ty_1__bindgen_ty_2$u20$as$u20$core..default..Default$GT$7default17h33257470c1546cc5E
00000000 g     F .text._ZN100_$LT$mylib..mynewt..hw..sensor..bindings..os_dev__bindgen_ty_1$u20$as$u20$core..default..Default$GT$7default17h67635421c75fe0b9E	00000004 _ZN114_$LT$mylib..mynewt..encoding..json..json_array_t__bindgen_ty_1__bindgen_ty_3$u20$as$u20$core..default..Default$GT$7default17hb0b5f30663af70edE
00000000 g     F .text._ZN100_$LT$mylib..mynewt..hw..sensor..bindings..os_dev__bindgen_ty_1$u20$as$u20$core..default..Default$GT$7default17h67635421c75fe0b9E	00000004 _ZN114_$LT$mylib..mynewt..encoding..json..json_array_t__bindgen_ty_1__bindgen_ty_4$u20$as$u20$core..default..Default$GT$7default17hc6c3aac2d43d7bcdE
00000000 g     F .text._ZN100_$LT$mylib..mynewt..hw..sensor..bindings..os_dev__bindgen_ty_1$u20$as$u20$core..default..Default$GT$7default17h67635421c75fe0b9E	00000004 _ZN114_$LT$mylib..mynewt..encoding..json..json_array_t__bindgen_ty_1__bindgen_ty_5$u20$as$u20$core..default..Default$GT$7default17h0813f5ae5de59dc2E
00000000 g     F .text._ZN100_$LT$mylib..mynewt..hw..sensor..bindings..os_dev__bindgen_ty_1$u20$as$u20$core..default..Default$GT$7default17h67635421c75fe0b9E	00000004 _ZN114_$LT$mylib..mynewt..encoding..json..json_array_t__bindgen_ty_1__bindgen_ty_6$u20$as$u20$core..default..Default$GT$7default17h0e3b16c2a6148b6aE
00000000 g     F .text._ZN100_$LT$mylib..mynewt..hw..sensor..bindings..sensor_notify_ev_ctx$u20$as$u20$core..default..Default$GT$7default17hda13196840d4fdf5E	00000006 _ZN115_$LT$mylib..mynewt..libs..sensor_coap..json_value__bindgen_ty_1__bindgen_ty_1$u20$as$u20$core..default..Default$GT$7default17h54fee7cf15442d9fE
00000000 g     F .text._ZN117_$LT$mylib..mynewt..encoding..json_context..Step$u20$as$u20$mylib..mynewt..encoding..json_context..FunctionCaller$GT$13call_function17hed4ad968db3b0801E	00000006 _ZN117_$LT$mylib..mynewt..encoding..json_context..Step$u20$as$u20$mylib..mynewt..encoding..json_context..FunctionCaller$GT$13call_function17hed4ad968db3b0801E
00000000         *UND*	00000000 _ZN4core3fmt3num3imp51_$LT$impl$u20$core..fmt..Display$u20$for$u20$u8$GT$3fmt17heb4d046d241d78d0E
00000000         *UND*	00000000 _ZN4core3fmt3num3imp52_$LT$impl$u20$core..fmt..Display$u20$for$u20$i32$GT$3fmt17h33b3bbdbc74b88baE
00000000         *UND*	00000000 _ZN4core3fmt3num52_$LT$impl$u20$core..fmt..LowerHex$u20$for$u20$u8$GT$3fmt17he275dc913fe9b8e5E
00000000         *UND*	00000000 _ZN4core3fmt3num52_$LT$impl$u20$core..fmt..UpperHex$u20$for$u20$u8$GT$3fmt17h1d24bfddebe6efa8E
00000000         *UND*	00000000 _ZN4core3fmt3num53_$LT$impl$u20$core..fmt..LowerHex$u20$for$u20$i32$GT$3fmt17hb2119167a92723afE
00000000         *UND*	00000000 _ZN4core3fmt3num53_$LT$impl$u20$core..fmt..UpperHex$u20$for$u20$i32$GT$3fmt17hc44988ae29d24532E
00000000         *UND*	00000000 _ZN4core3fmt8builders10DebugTuple6finish17h24d91625b3672e6dE
00000000         *UND*	00000000 _ZN4core3fmt9Formatter11debug_tuple17h793087e8ecab9022E
00000000         *UND*	00000000 _ZN4core3fmt9Formatter15debug_lower_hex17h6ead2f28bb05b574E
00000000         *UND*	00000000 _ZN4core3fmt9Formatter15debug_upper_hex17hd6d96e6aa5cb78d8E
00000000         *UND*	00000000 _ZN4core5panic8Location4file17h94cc6af18de736c4E
00000000         *UND*	00000000 _ZN4core5panic8Location4line17h3ffc63f14d0a6636E
00000000         *UND*	00000000 _ZN4core5panic9PanicInfo8location17h5226165d8771f8a2E
00000000         *UND*	00000000 _ZN4core5slice20slice_index_len_fail17hedb5bb240677a6b7E
00000000         *UND*	00000000 _ZN4core9panicking18panic_bounds_check17h946762cd0671aec9E
00000000         *UND*	00000000 _ZN4core9panicking5panic17h53ca63c6ac6312f8E
00000000         *UND*	00000000 _ZN4core9panicking9panic_fmt17h6b4d8e87b0965449E
00000000 g     F .text._ZN5mylib6mynewt6result95_$LT$impl$u20$core..convert..From$LT$mylib..mynewt..result..MynewtError$GT$$u20$for$u20$i32$GT$4from17h0f1fcad621c15d1bE	00000002 _ZN5mylib6mynewt6result95_$LT$impl$u20$core..convert..From$LT$mylib..mynewt..result..MynewtError$GT$$u20$for$u20$i32$GT$4from17h0f1fcad621c15d1bE
00000000 g     F .text._ZN71_$LT$mylib..mynewt..result..MynewtError$u20$as$u20$core..fmt..Debug$GT$3fmt17h9aedc60e28746d6bE	0000011a _ZN71_$LT$mylib..mynewt..result..MynewtError$u20$as$u20$core..fmt..Debug$GT$3fmt17h9aedc60e28746d6bE
00000000 g     F .text._ZN76_$LT$mylib..mynewt..kernel..os..os_dev$u20$as$u20$core..default..Default$GT$7default17h2f5a4ffce0d3e5bfE	0000000a _ZN76_$LT$mylib..mynewt..kernel..os..os_dev$u20$as$u20$core..default..Default$GT$7default17h2f5a4ffce0d3e5bfE
00000000 g     F .text._ZN76_$LT$mylib..mynewt..kernel..os..os_sem$u20$as$u20$core..default..Default$GT$7default17h892530a03bc28a03E	00000008 _ZN76_$LT$mylib..mynewt..kernel..os..os_sem$u20$as$u20$core..default..Default$GT$7default17h892530a03bc28a03E
00000000 g     F .text._ZN77_$LT$mylib..mynewt..kernel..os..os_mbuf$u20$as$u20$core..default..Default$GT$7default17h31a069d7f46f248fE	0000000c _ZN77_$LT$mylib..mynewt..kernel..os..os_mbuf$u20$as$u20$core..default..Default$GT$7default17h31a069d7f46f248fE
00000000 g     F .text._ZN77_$LT$mylib..mynewt..kernel..os..os_task$u20$as$u20$core..default..Default$GT$7default17ha83e110649cdd500E	0000000a _ZN77_$LT$mylib..mynewt..kernel..os..os_task$u20$as$u20$core..default..Default$GT$7default17ha83e110649cdd500E
00000000 g     F .text._ZN78_$LT$mylib..mynewt..kernel..os..os_event$u20$as$u20$core..default..Default$GT$7default17hc4d97a92f078a3aeE	0000000c _ZN78_$LT$mylib..mynewt..kernel..os..os_event$u20$as$u20$core..default..Default$GT$7default17hc4d97a92f078a3aeE
00000000 g     F .text._ZN114_$LT$mylib..mynewt..encoding..json..json_array_t__bindgen_ty_1__bindgen_ty_1$u20$as$u20$core..default..Default$GT$7default17h82b19c328fece707E	0000000a _ZN78_$LT$mylib..mynewt..kernel..os..os_mutex$u20$as$u20$core..default..Default$GT$7default17hb34126ce0b1dd9f7E
00000000 g     F .text._ZN79_$LT$mylib..mynewt..kernel..os..hal_timer$u20$as$u20$core..default..Default$GT$7default17hd84c1712e93c51e1E	00000010 _ZN79_$LT$mylib..mynewt..kernel..os..hal_timer$u20$as$u20$core..default..Default$GT$7default17hd84c1712e93c51e1E
00000000 g     F .text._ZN77_$LT$mylib..mynewt..kernel..os..os_mbuf$u20$as$u20$core..default..Default$GT$7default17h31a069d7f46f248fE	0000000c _ZN79_$LT$mylib..mynewt..kernel..os..os_eventq$u20$as$u20$core..default..Default$GT$7default17h0e3f862108b4e5b1E
00000000 g     F .text._ZN79_$LT$mylib..mynewt..kernel..os..hal_timer$u20$as$u20$core..default..Default$GT$7default17hd84c1712e93c51e1E	00000010 _ZN79_$LT$mylib..mynewt..kernel..os..os_mqueue$u20$as$u20$core..default..Default$GT$7default17h871e0f733473fa2fE
00000000 g     F .text._ZN80_$LT$mylib..mynewt..kernel..os..os_callout$u20$as$u20$core..default..Default$GT$7default17h60a0bce68846fe76E	00000014 _ZN80_$LT$mylib..mynewt..kernel..os..os_callout$u20$as$u20$core..default..Default$GT$7default17h60a0bce68846fe76E
00000000 g     F .text._ZN80_$LT$mylib..mynewt..kernel..os..os_mempool$u20$as$u20$core..default..Default$GT$7default17h920df732f8be7eacE	00000012 _ZN80_$LT$mylib..mynewt..kernel..os..os_mempool$u20$as$u20$core..default..Default$GT$7default17h920df732f8be7eacE
00000000 g     F .text._ZN100_$LT$mylib..mynewt..hw..sensor..bindings..os_dev__bindgen_ty_1$u20$as$u20$core..default..Default$GT$7default17h67635421c75fe0b9E	00000004 _ZN81_$LT$mylib..mynewt..kernel..os..os_memblock$u20$as$u20$core..default..Default$GT$7default17hdaa00404fbb564d8E
00000000 g     F .text._ZN100_$LT$mylib..mynewt..hw..sensor..bindings..os_dev__bindgen_ty_1$u20$as$u20$core..default..Default$GT$7default17h67635421c75fe0b9E	00000004 _ZN81_$LT$mylib..mynewt..kernel..os..os_task_obj$u20$as$u20$core..default..Default$GT$7default17h918cc218099d49d8E
00000000 g     F .text._ZN100_$LT$mylib..mynewt..hw..sensor..bindings..os_dev__bindgen_ty_1$u20$as$u20$core..default..Default$GT$7default17h67635421c75fe0b9E	00000004 _ZN82_$LT$mylib..mynewt..encoding..tinycbor..File$u20$as$u20$core..default..Default$GT$7default17hb178b9820c241df5E
00000000 g     F .text._ZN114_$LT$mylib..mynewt..encoding..json..json_array_t__bindgen_ty_1__bindgen_ty_1$u20$as$u20$core..default..Default$GT$7default17h82b19c328fece707E	0000000a _ZN82_$LT$mylib..mynewt..kernel..os..os_mbuf_pool$u20$as$u20$core..default..Default$GT$7default17hea0044eaed96a476E
00000000 g     F .text._ZN100_$LT$mylib..mynewt..hw..sensor..bindings..sensor_notify_ev_ctx$u20$as$u20$core..default..Default$GT$7default17hda13196840d4fdf5E	00000006 _ZN82_$LT$mylib..mynewt..kernel..os..os_task_list$u20$as$u20$core..default..Default$GT$7default17h60daa05f2aeb32eaE
00000000 g     F .text._ZN82_$LT$str$u20$as$u20$mylib..mynewt..encoding..json_context..ToBytesOptionalNull$GT$21to_bytes_optional_nul17hc8b35a0eccd31e17E	00000002 _ZN82_$LT$str$u20$as$u20$mylib..mynewt..encoding..json_context..ToBytesOptionalNull$GT$21to_bytes_optional_nul17hc8b35a0eccd31e17E
00000000 g     F .text._ZN100_$LT$mylib..mynewt..encoding..json..json_array_t__bindgen_ty_1$u20$as$u20$core..default..Default$GT$7default17ha2bf33bfa13a675bE	00000010 _ZN84_$LT$mylib..mynewt..encoding..json..json_value$u20$as$u20$core..default..Default$GT$7default17h55f4b81571ed7c30E
00000000 g     F .text._ZN76_$LT$mylib..mynewt..kernel..os..os_sem$u20$as$u20$core..default..Default$GT$7default17h892530a03bc28a03E	00000008 _ZN84_$LT$mylib..mynewt..kernel..os..os_mbuf_pkthdr$u20$as$u20$core..default..Default$GT$7default17hd859a87fde27796dE
00000000 g     F .text._ZN76_$LT$mylib..mynewt..kernel..os..os_dev$u20$as$u20$core..default..Default$GT$7default17h2f5a4ffce0d3e5bfE	0000000a _ZN84_$LT$mylib..mynewt..kernel..os..os_mempool_ext$u20$as$u20$core..default..Default$GT$7default17h881f9f5accf29501E
00000000 g     F .text._ZN100_$LT$mylib..mynewt..hw..sensor..bindings..sensor_notify_ev_ctx$u20$as$u20$core..default..Default$GT$7default17hda13196840d4fdf5E	00000006 _ZN84_$LT$mylib..mynewt..kernel..os..os_task_stailq$u20$as$u20$core..default..Default$GT$7default17heacba83bfb4ef38dE
00000000 g     F .text._ZN77_$LT$mylib..mynewt..kernel..os..os_mbuf$u20$as$u20$core..default..Default$GT$7default17h31a069d7f46f248fE	0000000c _ZN84_$LT$mylib..mynewt..libs..sensor_coap..os_mbuf$u20$as$u20$core..default..Default$GT$7default17hf6ecea666dbd3459E
00000000 g     F .text._ZN85_$LT$mylib..mynewt..encoding..json..json_attr_t$u20$as$u20$core..default..Default$GT$7default17he4d0ab2df173dd16E	0000000a _ZN85_$LT$mylib..mynewt..encoding..json..json_attr_t$u20$as$u20$core..default..Default$GT$7default17he4d0ab2df173dd16E
00000000 g     F .text._ZN85_$LT$mylib..mynewt..encoding..json..json_enum_t$u20$as$u20$core..default..Default$GT$7default17h11f1daf3861c1f16E	00000008 _ZN85_$LT$mylib..mynewt..encoding..json..json_enum_t$u20$as$u20$core..default..Default$GT$7default17h11f1daf3861c1f16E
00000000 g     F .text._ZN85_$LT$mylib..mynewt..encoding..json_context..JsonError$u20$as$u20$core..fmt..Debug$GT$3fmt17h43c93a3f4e04264eE	00000034 _ZN85_$LT$mylib..mynewt..encoding..json_context..JsonError$u20$as$u20$core..fmt..Debug$GT$3fmt17h43c93a3f4e04264eE
00000000 g     F .text._ZN100_$LT$mylib..mynewt..hw..sensor..bindings..sensor_notify_ev_ctx$u20$as$u20$core..default..Default$GT$7default17hda13196840d4fdf5E	00000006 _ZN85_$LT$mylib..mynewt..kernel..os..os_callout_list$u20$as$u20$core..default..Default$GT$7default17h82c6f1a2151e41bdE
00000000 g     F .text._ZN85_$LT$mylib..mynewt..kernel..os..os_sanity_check$u20$as$u20$core..default..Default$GT$7default17h6f823112a3655a4fE	0000000e _ZN85_$LT$mylib..mynewt..kernel..os..os_sanity_check$u20$as$u20$core..default..Default$GT$7default17h6f823112a3655a4fE
00000000 g     F .text._ZN5mylib6mynewt6result95_$LT$impl$u20$core..convert..From$LT$mylib..mynewt..result..MynewtError$GT$$u20$for$u20$i32$GT$4from17h0f1fcad621c15d1bE	00000002 _ZN85_$LT$mylib..mynewt..result..MynewtError$u20$as$u20$core..convert..From$LT$i32$GT$$GT$4from17h5b5b487bfd70862dE
00000000 g     F .text._ZN86_$LT$$RF$str$u20$as$u20$mylib..mynewt..encoding..json_context..ToBytesOptionalNull$GT$21to_bytes_optional_nul17h2f36265e10bbdb9aE	00000008 _ZN86_$LT$$RF$str$u20$as$u20$mylib..mynewt..encoding..json_context..ToBytesOptionalNull$GT$21to_bytes_optional_nul17h2f36265e10bbdb9aE
00000000 g     F .text._ZN86_$LT$mylib..mynewt..encoding..json..json_array_t$u20$as$u20$core..default..Default$GT$7default17h21ecccd20652b50fE	0000000a _ZN86_$LT$mylib..mynewt..encoding..json..json_array_t$u20$as$u20$core..default..Default$GT$7default17h21ecccd20652b50fE
00000000 g     F .text._ZN86_$LT$mylib..mynewt..encoding..json..json_encoder$u20$as$u20$core..default..Default$GT$7default17h860624d609b17ca1E	0000000a _ZN86_$LT$mylib..mynewt..encoding..json..json_encoder$u20$as$u20$core..default..Default$GT$7default17h860624d609b17ca1E
00000000 g     F .text._ZN86_$LT$mylib..mynewt..hw..sensor..bindings..sensor$u20$as$u20$core..default..Default$GT$7default17hafbbeec8fb7ebf29E	0000000a _ZN86_$LT$mylib..mynewt..hw..sensor..bindings..sensor$u20$as$u20$core..default..Default$GT$7default17hafbbeec8fb7ebf29E
00000000 g     F .text._ZN77_$LT$mylib..mynewt..kernel..os..os_mbuf$u20$as$u20$core..default..Default$GT$7default17h31a069d7f46f248fE	0000000c _ZN87_$LT$mylib..mynewt..encoding..tinycbor..CborValue$u20$as$u20$core..default..Default$GT$7default17h2cbcf309e179868fE
00000000 g     F .text._ZN80_$LT$mylib..mynewt..kernel..os..os_mempool$u20$as$u20$core..default..Default$GT$7default17h920df732f8be7eacE	00000012 _ZN87_$LT$mylib..mynewt..libs..sensor_coap..os_mempool$u20$as$u20$core..default..Default$GT$7default17h2ad0368ab7c60256E
00000000 g     F .text._ZN114_$LT$mylib..mynewt..encoding..json..json_array_t__bindgen_ty_1__bindgen_ty_1$u20$as$u20$core..default..Default$GT$7default17h82b19c328fece707E	0000000a _ZN88_$LT$mylib..mynewt..encoding..tinycbor..CborParser$u20$as$u20$core..default..Default$GT$7default17h0606f924fec85fecE
00000000 g     F .text._ZN100_$LT$mylib..mynewt..hw..sensor..bindings..sensor_notify_ev_ctx$u20$as$u20$core..default..Default$GT$7default17hda13196840d4fdf5E	00000006 _ZN88_$LT$mylib..mynewt..encoding..tinycbor..cbor_iovec$u20$as$u20$core..default..Default$GT$7default17h59bccf3c9eab71c5E
00000000 g     F .text._ZN100_$LT$mylib..mynewt..hw..sensor..bindings..os_dev__bindgen_ty_1$u20$as$u20$core..default..Default$GT$7default17h67635421c75fe0b9E	00000004 _ZN88_$LT$mylib..mynewt..libs..sensor_coap..os_memblock$u20$as$u20$core..default..Default$GT$7default17h765151a3077f02afE
00000000 g     F .text._ZN77_$LT$mylib..mynewt..kernel..os..os_mbuf$u20$as$u20$core..default..Default$GT$7default17h31a069d7f46f248fE	0000000c _ZN89_$LT$mylib..mynewt..encoding..tinycbor..CborEncoder$u20$as$u20$core..default..Default$GT$7default17hc33baa941ba4a7cfE
00000000 g     F .text._ZN85_$LT$mylib..mynewt..kernel..os..os_sanity_check$u20$as$u20$core..default..Default$GT$7default17h6f823112a3655a4fE	0000000e _ZN89_$LT$mylib..mynewt..kernel..os..os_time_change_info$u20$as$u20$core..default..Default$GT$7default17h109e70ef9ce9a107E
00000000 g     F .text._ZN114_$LT$mylib..mynewt..encoding..json..json_array_t__bindgen_ty_1__bindgen_ty_1$u20$as$u20$core..default..Default$GT$7default17h82b19c328fece707E	0000000a _ZN89_$LT$mylib..mynewt..libs..sensor_coap..os_mbuf_pool$u20$as$u20$core..default..Default$GT$7default17hdcc0f01909edf841E
00000000 g     F .text._ZN77_$LT$mylib..mynewt..kernel..os..os_mbuf$u20$as$u20$core..default..Default$GT$7default17h31a069d7f46f248fE	0000000c _ZN89_$LT$mylib..mynewt..libs..sensor_coap..sensor_value$u20$as$u20$core..default..Default$GT$7default17h7dbd17344cd9ed9eE
00000000 g     F .text._ZN104_$LT$mylib..mynewt..libs..sensor_network..sensor_network_interface$u20$as$u20$core..default..Default$GT$7default17hc3f8adb0269c6a33E	0000000e _ZN90_$LT$mylib..mynewt..hw..sensor..bindings..sensor_itf$u20$as$u20$core..default..Default$GT$7default17h5e425842f97f0907E
00000000 g     F .text._ZN100_$LT$mylib..mynewt..hw..sensor..bindings..os_dev__bindgen_ty_1$u20$as$u20$core..default..Default$GT$7default17h67635421c75fe0b9E	00000004 _ZN90_$LT$mylib..mynewt..kernel..os..os_dev__bindgen_ty_1$u20$as$u20$core..default..Default$GT$7default17h4d01881a1c584d15E
00000000 g     F .text._ZN100_$LT$mylib..mynewt..hw..sensor..bindings..os_dev__bindgen_ty_1$u20$as$u20$core..default..Default$GT$7default17h67635421c75fe0b9E	00000004 _ZN90_$LT$mylib..mynewt..kernel..os..os_sem__bindgen_ty_1$u20$as$u20$core..default..Default$GT$7default17hebee04d33f7f7dcbE
00000000 g     F .text._ZN91_$LT$$u5b$u8$u5d$$u20$as$u20$mylib..mynewt..encoding..json_context..ToBytesOptionalNull$GT$21to_bytes_optional_nul17h6b091983309d3269E	00000002 _ZN91_$LT$$u5b$u8$u5d$$u20$as$u20$mylib..mynewt..encoding..json_context..ToBytesOptionalNull$GT$21to_bytes_optional_nul17h6b091983309d3269E
00000000 g     F .text._ZN100_$LT$mylib..mynewt..hw..sensor..bindings..os_dev__bindgen_ty_1$u20$as$u20$core..default..Default$GT$7default17h67635421c75fe0b9E	00000004 _ZN91_$LT$mylib..mynewt..kernel..os..os_mbuf__bindgen_ty_1$u20$as$u20$core..default..Default$GT$7default17hf1559d9a2e436978E
00000000 g     F .text._ZN100_$LT$mylib..mynewt..hw..sensor..bindings..os_dev__bindgen_ty_1$u20$as$u20$core..default..Default$GT$7default17h67635421c75fe0b9E	00000004 _ZN91_$LT$mylib..mynewt..kernel..os..os_task__bindgen_ty_1$u20$as$u20$core..default..Default$GT$7default17h04caac9f2f63addcE
00000000 g     F .text._ZN100_$LT$mylib..mynewt..hw..sensor..bindings..sensor_notify_ev_ctx$u20$as$u20$core..default..Default$GT$7default17hda13196840d4fdf5E	00000006 _ZN91_$LT$mylib..mynewt..kernel..os..os_task__bindgen_ty_2$u20$as$u20$core..default..Default$GT$7default17h6ab4e1785844a746E
00000000 g     F .text._ZN100_$LT$mylib..mynewt..hw..sensor..bindings..os_dev__bindgen_ty_1$u20$as$u20$core..default..Default$GT$7default17h67635421c75fe0b9E	00000004 _ZN91_$LT$mylib..mynewt..kernel..os..os_task__bindgen_ty_3$u20$as$u20$core..default..Default$GT$7default17hffeeee7ce135981aE
00000000 g     F .text._ZN100_$LT$mylib..mynewt..hw..sensor..bindings..os_dev__bindgen_ty_1$u20$as$u20$core..default..Default$GT$7default17h67635421c75fe0b9E	00000004 _ZN92_$LT$mylib..mynewt..kernel..os..os_event__bindgen_ty_1$u20$as$u20$core..default..Default$GT$7default17h06f601d1e6d25f3fE
00000000 g     F .text._ZN100_$LT$mylib..mynewt..hw..sensor..bindings..os_dev__bindgen_ty_1$u20$as$u20$core..default..Default$GT$7default17h67635421c75fe0b9E	00000004 _ZN92_$LT$mylib..mynewt..kernel..os..os_mutex__bindgen_ty_1$u20$as$u20$core..default..Default$GT$7default17hf620b3882af3c917E
00000000 g     F .text._ZN93_$LT$mylib..mynewt..hw..sensor..bindings.._bindgen_ty_1$u20$as$u20$core..default..Default$GT$7default17h046454e6015ecb12E	0000000a _ZN93_$LT$mylib..mynewt..hw..sensor..bindings.._bindgen_ty_1$u20$as$u20$core..default..Default$GT$7default17h046454e6015ecb12E
00000000 g     F .text._ZN93_$LT$mylib..mynewt..hw..sensor..bindings..sensor_data_t$u20$as$u20$core..default..Default$GT$7default17h20ac0e80e110915cE	00000008 _ZN93_$LT$mylib..mynewt..hw..sensor..bindings..sensor_data_t$u20$as$u20$core..default..Default$GT$7default17h20ac0e80e110915cE
00000000 g     F .text._ZN100_$LT$mylib..mynewt..hw..sensor..bindings..sensor_notify_ev_ctx$u20$as$u20$core..default..Default$GT$7default17hda13196840d4fdf5E	00000006 _ZN93_$LT$mylib..mynewt..kernel..os..hal_timer__bindgen_ty_1$u20$as$u20$core..default..Default$GT$7default17h86881429f7775986E
00000000 g     F .text._ZN100_$LT$mylib..mynewt..hw..sensor..bindings..sensor_notify_ev_ctx$u20$as$u20$core..default..Default$GT$7default17hda13196840d4fdf5E	00000006 _ZN93_$LT$mylib..mynewt..kernel..os..os_eventq__bindgen_ty_1$u20$as$u20$core..default..Default$GT$7default17h616f56d51137bb78E
00000000 g     F .text._ZN100_$LT$mylib..mynewt..hw..sensor..bindings..sensor_notify_ev_ctx$u20$as$u20$core..default..Default$GT$7default17hda13196840d4fdf5E	00000006 _ZN93_$LT$mylib..mynewt..kernel..os..os_mqueue__bindgen_ty_1$u20$as$u20$core..default..Default$GT$7default17h1bd680a8aef1e77dE
00000000 g     F .text._ZN114_$LT$mylib..mynewt..encoding..json..json_array_t__bindgen_ty_1__bindgen_ty_1$u20$as$u20$core..default..Default$GT$7default17h82b19c328fece707E	0000000a _ZN93_$LT$mylib..mynewt..kernel..os..os_time_change_listener$u20$as$u20$core..default..Default$GT$7default17ha82ec7368f767991E
00000000 g     F .text._ZN94_$LT$cstr_core..CStr$u20$as$u20$mylib..mynewt..encoding..json_context..ToBytesOptionalNull$GT$21to_bytes_optional_nul17h6afba8703e19f869E	00000002 _ZN94_$LT$cstr_core..CStr$u20$as$u20$mylib..mynewt..encoding..json_context..ToBytesOptionalNull$GT$21to_bytes_optional_nul17h6afba8703e19f869E
00000000 g     F .text._ZN100_$LT$mylib..mynewt..hw..sensor..bindings..sensor_notify_ev_ctx$u20$as$u20$core..default..Default$GT$7default17hda13196840d4fdf5E	00000006 _ZN94_$LT$mylib..mynewt..kernel..os..os_callout__bindgen_ty_1$u20$as$u20$core..default..Default$GT$7default17hcf4c73afadf89363E
00000000 g     F .text._ZN100_$LT$mylib..mynewt..hw..sensor..bindings..os_dev__bindgen_ty_1$u20$as$u20$core..default..Default$GT$7default17h67635421c75fe0b9E	00000004 _ZN94_$LT$mylib..mynewt..kernel..os..os_mempool__bindgen_ty_1$u20$as$u20$core..default..Default$GT$7default17h757096bc6328973aE
00000000 g     F .text._ZN100_$LT$mylib..mynewt..hw..sensor..bindings..os_dev__bindgen_ty_1$u20$as$u20$core..default..Default$GT$7default17h67635421c75fe0b9E	00000004 _ZN94_$LT$mylib..mynewt..kernel..os..os_mempool__bindgen_ty_2$u20$as$u20$core..default..Default$GT$7default17hea0efc9658a90e7cE
00000000 g     F .text._ZN95_$LT$mylib..mynewt..hw..sensor..bindings..sensor_listener$u20$as$u20$core..default..Default$GT$7default17ha6a4cedbdad511fdE	00000010 _ZN95_$LT$mylib..mynewt..hw..sensor..bindings..sensor_listener$u20$as$u20$core..default..Default$GT$7default17ha6a4cedbdad511fdE
00000000 g     F .text._ZN77_$LT$mylib..mynewt..kernel..os..os_mbuf$u20$as$u20$core..default..Default$GT$7default17h31a069d7f46f248fE	0000000c _ZN95_$LT$mylib..mynewt..hw..sensor..bindings..sensor_notifier$u20$as$u20$core..default..Default$GT$7default17h1796ad37d349b7ceE
00000000 g     F .text._ZN100_$LT$mylib..mynewt..hw..sensor..bindings..sensor_notify_ev_ctx$u20$as$u20$core..default..Default$GT$7default17hda13196840d4fdf5E	00000006 _ZN95_$LT$mylib..mynewt..hw..sensor..bindings..sensor_read_ctx$u20$as$u20$core..default..Default$GT$7default17hf99e66240b938c3aE
00000000 g     F .text._ZN100_$LT$mylib..mynewt..hw..sensor..bindings..os_dev__bindgen_ty_1$u20$as$u20$core..default..Default$GT$7default17h67635421c75fe0b9E	00000004 _ZN95_$LT$mylib..mynewt..kernel..os..os_memblock__bindgen_ty_1$u20$as$u20$core..default..Default$GT$7default17hee80310b47de2958E
00000000 g     F .text._ZN100_$LT$mylib..mynewt..hw..sensor..bindings..os_dev__bindgen_ty_1$u20$as$u20$core..default..Default$GT$7default17h67635421c75fe0b9E	00000004 _ZN95_$LT$mylib..mynewt..kernel..os..os_task_obj__bindgen_ty_1$u20$as$u20$core..default..Default$GT$7default17he447b0992eecc134E
00000000 g     F .text._ZN95_$LT$mylib..mynewt..hw..sensor..bindings..sensor_listener$u20$as$u20$core..default..Default$GT$7default17ha6a4cedbdad511fdE	00000010 _ZN96_$LT$mylib..mynewt..hw..sensor..bindings..sensor_timestamp$u20$as$u20$core..default..Default$GT$7default17hf33261e889755308E
00000000 g     F .text._ZN100_$LT$mylib..mynewt..hw..sensor..bindings..os_dev__bindgen_ty_1$u20$as$u20$core..default..Default$GT$7default17h67635421c75fe0b9E	00000004 _ZN96_$LT$mylib..mynewt..kernel..os..os_mbuf_pool__bindgen_ty_1$u20$as$u20$core..default..Default$GT$7default17hc6183f504a5a56d5E
00000000 g     F .text._ZN100_$LT$mylib..mynewt..hw..sensor..bindings..os_dev__bindgen_ty_1$u20$as$u20$core..default..Default$GT$7default17h67635421c75fe0b9E	00000004 _ZN97_$LT$mylib..mynewt..libs..mynewt_rust..os_dev__bindgen_ty_1$u20$as$u20$core..default..Default$GT$7default17h70f956b3b035d5a5E
00000000 g     F .text._ZN100_$LT$mylib..mynewt..hw..sensor..bindings..os_dev__bindgen_ty_1$u20$as$u20$core..default..Default$GT$7default17h67635421c75fe0b9E	00000004 _ZN97_$LT$mylib..mynewt..libs..mynewt_rust..sensor__bindgen_ty_1$u20$as$u20$core..default..Default$GT$7default17h269bc2ff260e8301E
00000000 g     F .text._ZN100_$LT$mylib..mynewt..hw..sensor..bindings..os_dev__bindgen_ty_1$u20$as$u20$core..default..Default$GT$7default17h67635421c75fe0b9E	00000004 _ZN97_$LT$mylib..mynewt..libs..mynewt_rust..sensor__bindgen_ty_2$u20$as$u20$core..default..Default$GT$7default17hff6f98c49f96fb0bE
00000000 g     F .text._ZN100_$LT$mylib..mynewt..hw..sensor..bindings..os_dev__bindgen_ty_1$u20$as$u20$core..default..Default$GT$7default17h67635421c75fe0b9E	00000004 _ZN97_$LT$mylib..mynewt..libs..mynewt_rust..sensor__bindgen_ty_3$u20$as$u20$core..default..Default$GT$7default17ha67d5ebc9702689bE
00000000 g     F .text._ZN100_$LT$mylib..mynewt..hw..sensor..bindings..os_dev__bindgen_ty_1$u20$as$u20$core..default..Default$GT$7default17h67635421c75fe0b9E	00000004 _ZN97_$LT$mylib..mynewt..libs..mynewt_rust..sensor__bindgen_ty_4$u20$as$u20$core..default..Default$GT$7default17h096243d89cbb357bE
00000000 g     F .text._ZN101_$LT$mylib..mynewt..libs..sensor_coap..json_value__bindgen_ty_1$u20$as$u20$core..default..Default$GT$7default17hc4292ec42587899fE	0000000c _ZN98_$LT$mylib..mynewt..encoding..json..json_value__bindgen_ty_1$u20$as$u20$core..default..Default$GT$7default17hfe30e843053f531aE
00000000 g     F .text._ZN85_$LT$mylib..mynewt..encoding..json..json_enum_t$u20$as$u20$core..default..Default$GT$7default17h11f1daf3861c1f16E	00000008 _ZN98_$LT$mylib..mynewt..hw..sensor..bindings..sensor_read_ev_ctx$u20$as$u20$core..default..Default$GT$7default17h11b48986ef66ccedE
00000000 g     F .text._ZN98_$LT$mylib..mynewt..hw..sensor..bindings..sensor_type_traits$u20$as$u20$core..default..Default$GT$7default17hdf223ad551ffd976E	0000000a _ZN98_$LT$mylib..mynewt..hw..sensor..bindings..sensor_type_traits$u20$as$u20$core..default..Default$GT$7default17hdf223ad551ffd976E
00000000 g     F .text._ZN100_$LT$mylib..mynewt..hw..sensor..bindings..os_dev__bindgen_ty_1$u20$as$u20$core..default..Default$GT$7default17h67635421c75fe0b9E	00000004 _ZN98_$LT$mylib..mynewt..kernel..os..os_mbuf_pkthdr__bindgen_ty_1$u20$as$u20$core..default..Default$GT$7default17h9db2203f3a4b9077E
00000000 g     F .text._ZN100_$LT$mylib..mynewt..hw..sensor..bindings..os_dev__bindgen_ty_1$u20$as$u20$core..default..Default$GT$7default17h67635421c75fe0b9E	00000004 _ZN98_$LT$mylib..mynewt..libs..mynewt_rust..os_task__bindgen_ty_1$u20$as$u20$core..default..Default$GT$7default17h244227eb303d237dE
00000000 g     F .text._ZN100_$LT$mylib..mynewt..hw..sensor..bindings..sensor_notify_ev_ctx$u20$as$u20$core..default..Default$GT$7default17hda13196840d4fdf5E	00000006 _ZN98_$LT$mylib..mynewt..libs..mynewt_rust..os_task__bindgen_ty_2$u20$as$u20$core..default..Default$GT$7default17hbdb46e2345d3ae6fE
00000000 g     F .text._ZN100_$LT$mylib..mynewt..hw..sensor..bindings..os_dev__bindgen_ty_1$u20$as$u20$core..default..Default$GT$7default17h67635421c75fe0b9E	00000004 _ZN98_$LT$mylib..mynewt..libs..mynewt_rust..os_task__bindgen_ty_3$u20$as$u20$core..default..Default$GT$7default17h5dc5af394625fe91E
00000000 g     F .text._ZN100_$LT$mylib..mynewt..hw..sensor..bindings..os_dev__bindgen_ty_1$u20$as$u20$core..default..Default$GT$7default17h67635421c75fe0b9E	00000004 _ZN98_$LT$mylib..mynewt..libs..sensor_coap..os_mbuf__bindgen_ty_1$u20$as$u20$core..default..Default$GT$7default17h2ea40e28862cef86E
00000000 g     F .text._ZN99_$LT$mylib..mynewt..encoding..json..json_attr_t__bindgen_ty_1$u20$as$u20$core..default..Default$GT$7default17hceb089f8565d35a4E	0000000a _ZN99_$LT$mylib..mynewt..encoding..json..json_attr_t__bindgen_ty_1$u20$as$u20$core..default..Default$GT$7default17hceb089f8565d35a4E
00000000 g     F .text._ZN93_$LT$mylib..mynewt..hw..sensor..bindings..sensor_data_t$u20$as$u20$core..default..Default$GT$7default17h20ac0e80e110915cE	00000008 _ZN99_$LT$mylib..mynewt..encoding..json..json_attr_t__bindgen_ty_2$u20$as$u20$core..default..Default$GT$7default17h0fee4bbe370d4166E
00000000 g     F .text._ZN79_$LT$mylib..mynewt..kernel..os..hal_timer$u20$as$u20$core..default..Default$GT$7default17hd84c1712e93c51e1E	00000010 _ZN99_$LT$mylib..mynewt..hw..sensor..bindings..sensor_notify_os_ev$u20$as$u20$core..default..Default$GT$7default17h9c1cdf0f9e30552bE
00000000 g     F .text._ZN100_$LT$mylib..mynewt..hw..sensor..bindings..os_dev__bindgen_ty_1$u20$as$u20$core..default..Default$GT$7default17h67635421c75fe0b9E	00000004 _ZN99_$LT$mylib..mynewt..kernel..os..os_sanity_check__bindgen_ty_1$u20$as$u20$core..default..Default$GT$7default17h9c4de2aecfd9858bE
00000000 g     F .text._ZN100_$LT$mylib..mynewt..hw..sensor..bindings..os_dev__bindgen_ty_1$u20$as$u20$core..default..Default$GT$7default17h67635421c75fe0b9E	00000004 _ZN99_$LT$mylib..mynewt..libs..mynewt_rust..os_event__bindgen_ty_1$u20$as$u20$core..default..Default$GT$7default17ha06fa7a8a9ca0640E
00000000 g     F .text._ZN100_$LT$mylib..mynewt..hw..sensor..bindings..os_dev__bindgen_ty_1$u20$as$u20$core..default..Default$GT$7default17h67635421c75fe0b9E	00000004 _ZN99_$LT$mylib..mynewt..libs..mynewt_rust..os_mutex__bindgen_ty_1$u20$as$u20$core..default..Default$GT$7default17h24f0a2ba8ae9c8cbE
00000000         *UND*	00000000 _ZN9cstr_core4CStr8from_ptr17h8dd780023dafede8E
00000000         *UND*	00000000 __aeabi_memclr4
00000000         *UND*	00000000 __aeabi_memclr8
00000000         *UND*	00000000 __aeabi_memcpy
00000000         *UND*	00000000 __bkpt
00000000         *UND*	00000000 cbor_encode_int
00000000         *UND*	00000000 cbor_encode_text_string
00000000         *UND*	00000000 cbor_encoder_close_container
00000000         *UND*	00000000 cbor_encoder_create_map
00000000         *UND*	00000000 console_buffer
00000000         *UND*	00000000 console_flush
00000000         *UND*	00000000 console_printhex
00000000         *UND*	00000000 device_get_name
00000000         *UND*	00000000 do_collector_post
00000000         *UND*	00000000 do_server_post
00000000         *UND*	00000000 g_encoder
00000000         *UND*	00000000 get_device_id
00000000         *UND*	00000000 get_temp_data
00000000         *UND*	00000000 get_temp_raw_data
00000000         *UND*	00000000 init_collector_post
00000000         *UND*	00000000 init_server_post
00000000         *UND*	00000000 is_collector_node
00000000         *UND*	00000000 is_null_sensor
00000000         *UND*	00000000 is_null_sensor_data
00000000         *UND*	00000000 is_sensor_node
00000000         *UND*	00000000 is_standalone_node
00000000         *UND*	00000000 json_helper_close_array
00000000         *UND*	00000000 json_helper_object_array_end_item
00000000         *UND*	00000000 json_helper_object_array_start_item
00000000         *UND*	00000000 json_helper_set_array
00000000         *UND*	00000000 json_helper_set_int
00000000         *UND*	00000000 json_helper_set_text_string
00000000         *UND*	00000000 json_rep_end_root_object
00000000         *UND*	00000000 json_rep_start_root_object
00000000 g     F .text.main	00000192 main
00000000         *UND*	00000000 null_sensor
00000000         *UND*	00000000 os_eventq_dflt_get
00000000         *UND*	00000000 os_eventq_run
00000000         *UND*	00000000 os_task_init
00000000         *UND*	00000000 os_time_delay
00000000         *UND*	00000000 register_collector_transport
00000000         *UND*	00000000 register_server_transport
00000000         *UND*	00000000 root_map
00000000 g     F .text.rust_begin_unwind	00000072 rust_begin_unwind
00000000         *UND*	00000000 rust_sysinit
00000000         *UND*	00000000 sensor_get_device
00000000         *UND*	00000000 sensor_mgr_find_next_bydevname
00000000         *UND*	00000000 sensor_register_listener
00000000         *UND*	00000000 sensor_set_poll_rate_ms
00000000         *UND*	00000000 should_send_to_collector



Disassembly of section .text._ZN42_$LT$$RF$T$u20$as$u20$core..fmt..Debug$GT$3fmt17h5705e17bf0e2bf47E:

00000000 <_ZN42_$LT$$RF$T$u20$as$u20$core..fmt..Debug$GT$3fmt17h5705e17bf0e2bf47E>:
_ZN42_$LT$$RF$T$u20$as$u20$core..fmt..Debug$GT$3fmt17h5705e17bf0e2bf47E():
/rustc/50a0defd5a93523067ef239936cc2e0755220904/src/libcore/fmt/mod.rs:1914
   0:	b5b0      	push	{r4, r5, r7, lr}
   2:	6805      	ldr	r5, [r0, #0]
_ZN4core3fmt3num49_$LT$impl$u20$core..fmt..Debug$u20$for$u20$u8$GT$3fmt17h271d1c938b44f4eaE():
/rustc/50a0defd5a93523067ef239936cc2e0755220904/src/libcore/fmt/num.rs:147
   4:	4608      	mov	r0, r1
   6:	460c      	mov	r4, r1
   8:	f7ff fffe 	bl	0 <_ZN4core3fmt9Formatter15debug_lower_hex17h6ead2f28bb05b574E>
   c:	b128      	cbz	r0, 1a <_ZN42_$LT$$RF$T$u20$as$u20$core..fmt..Debug$GT$3fmt17h5705e17bf0e2bf47E+0x1a>
/rustc/50a0defd5a93523067ef239936cc2e0755220904/src/libcore/fmt/num.rs:148
   e:	4628      	mov	r0, r5
  10:	4621      	mov	r1, r4
  12:	e8bd 40b0 	ldmia.w	sp!, {r4, r5, r7, lr}
  16:	f7ff bffe 	b.w	0 <_ZN4core3fmt3num52_$LT$impl$u20$core..fmt..LowerHex$u20$for$u20$u8$GT$3fmt17he275dc913fe9b8e5E>
/rustc/50a0defd5a93523067ef239936cc2e0755220904/src/libcore/fmt/num.rs:149
  1a:	4620      	mov	r0, r4
  1c:	f7ff fffe 	bl	0 <_ZN4core3fmt9Formatter15debug_upper_hex17hd6d96e6aa5cb78d8E>
  20:	b128      	cbz	r0, 2e <_ZN42_$LT$$RF$T$u20$as$u20$core..fmt..Debug$GT$3fmt17h5705e17bf0e2bf47E+0x2e>
/rustc/50a0defd5a93523067ef239936cc2e0755220904/src/libcore/fmt/num.rs:150
  22:	4628      	mov	r0, r5
  24:	4621      	mov	r1, r4
  26:	e8bd 40b0 	ldmia.w	sp!, {r4, r5, r7, lr}
  2a:	f7ff bffe 	b.w	0 <_ZN4core3fmt3num52_$LT$impl$u20$core..fmt..UpperHex$u20$for$u20$u8$GT$3fmt17h1d24bfddebe6efa8E>
/rustc/50a0defd5a93523067ef239936cc2e0755220904/src/libcore/fmt/num.rs:152
  2e:	4628      	mov	r0, r5
  30:	4621      	mov	r1, r4
  32:	e8bd 40b0 	ldmia.w	sp!, {r4, r5, r7, lr}
  36:	f7ff bffe 	b.w	0 <_ZN4core3fmt3num3imp51_$LT$impl$u20$core..fmt..Display$u20$for$u20$u8$GT$3fmt17heb4d046d241d78d0E>

Disassembly of section .text._ZN42_$LT$$RF$T$u20$as$u20$core..fmt..Debug$GT$3fmt17h76bf2758f0253cecE:

00000000 <_ZN42_$LT$$RF$T$u20$as$u20$core..fmt..Debug$GT$3fmt17h76bf2758f0253cecE>:
_ZN42_$LT$$RF$T$u20$as$u20$core..fmt..Debug$GT$3fmt17h76bf2758f0253cecE():
/rustc/50a0defd5a93523067ef239936cc2e0755220904/src/libcore/fmt/mod.rs:1914
   0:	b5b0      	push	{r4, r5, r7, lr}
   2:	6805      	ldr	r5, [r0, #0]
_ZN4core3fmt3num50_$LT$impl$u20$core..fmt..Debug$u20$for$u20$i32$GT$3fmt17hc0a5c2426ccebe61E():
/rustc/50a0defd5a93523067ef239936cc2e0755220904/src/libcore/fmt/num.rs:147
   4:	4608      	mov	r0, r1
   6:	460c      	mov	r4, r1
   8:	f7ff fffe 	bl	0 <_ZN4core3fmt9Formatter15debug_lower_hex17h6ead2f28bb05b574E>
   c:	b128      	cbz	r0, 1a <_ZN42_$LT$$RF$T$u20$as$u20$core..fmt..Debug$GT$3fmt17h76bf2758f0253cecE+0x1a>
/rustc/50a0defd5a93523067ef239936cc2e0755220904/src/libcore/fmt/num.rs:148
   e:	4628      	mov	r0, r5
  10:	4621      	mov	r1, r4
  12:	e8bd 40b0 	ldmia.w	sp!, {r4, r5, r7, lr}
  16:	f7ff bffe 	b.w	0 <_ZN4core3fmt3num53_$LT$impl$u20$core..fmt..LowerHex$u20$for$u20$i32$GT$3fmt17hb2119167a92723afE>
/rustc/50a0defd5a93523067ef239936cc2e0755220904/src/libcore/fmt/num.rs:149
  1a:	4620      	mov	r0, r4
  1c:	f7ff fffe 	bl	0 <_ZN4core3fmt9Formatter15debug_upper_hex17hd6d96e6aa5cb78d8E>
  20:	b128      	cbz	r0, 2e <_ZN42_$LT$$RF$T$u20$as$u20$core..fmt..Debug$GT$3fmt17h76bf2758f0253cecE+0x2e>
/rustc/50a0defd5a93523067ef239936cc2e0755220904/src/libcore/fmt/num.rs:150
  22:	4628      	mov	r0, r5
  24:	4621      	mov	r1, r4
  26:	e8bd 40b0 	ldmia.w	sp!, {r4, r5, r7, lr}
  2a:	f7ff bffe 	b.w	0 <_ZN4core3fmt3num53_$LT$impl$u20$core..fmt..UpperHex$u20$for$u20$i32$GT$3fmt17hc44988ae29d24532E>
/rustc/50a0defd5a93523067ef239936cc2e0755220904/src/libcore/fmt/num.rs:152
  2e:	4628      	mov	r0, r5
  30:	4621      	mov	r1, r4
  32:	e8bd 40b0 	ldmia.w	sp!, {r4, r5, r7, lr}
  36:	f7ff bffe 	b.w	0 <_ZN4core3fmt3num3imp52_$LT$impl$u20$core..fmt..Display$u20$for$u20$i32$GT$3fmt17h33b3bbdbc74b88baE>

Disassembly of section .text._ZN42_$LT$$RF$T$u20$as$u20$core..fmt..Debug$GT$3fmt17h775392ac1e6b687dE:

00000000 <_ZN42_$LT$$RF$T$u20$as$u20$core..fmt..Debug$GT$3fmt17h775392ac1e6b687dE>:
_ZN42_$LT$$RF$T$u20$as$u20$core..fmt..Debug$GT$3fmt17h775392ac1e6b687dE():
/rustc/50a0defd5a93523067ef239936cc2e0755220904/src/libcore/fmt/mod.rs:1914
   0:	b510      	push	{r4, lr}
   2:	b084      	sub	sp, #16
   4:	6800      	ldr	r0, [r0, #0]
   6:	ac01      	add	r4, sp, #4
_ZN85_$LT$mylib..mynewt..encoding..json_context..JsonError$u20$as$u20$core..fmt..Debug$GT$3fmt17h43c93a3f4e04264eE():
/Users/Luppy/mynewt/stm32bluepill-mynewt-sensor/src/mynewt/encoding/json_context.rs:125
        ptr as *mut c_void
    }
}

/// Error codes for JSON encoding failure
#[derive(Debug, PartialEq)]
   8:	7800      	ldrb	r0, [r0, #0]
   a:	2801      	cmp	r0, #1
   c:	d106      	bne.n	1c <_ZN42_$LT$$RF$T$u20$as$u20$core..fmt..Debug$GT$3fmt17h775392ac1e6b687dE+0x1c>
   e:	f240 0200 	movw	r2, #0
  12:	4620      	mov	r0, r4
  14:	f2c0 0200 	movt	r2, #0
  18:	230e      	movs	r3, #14
  1a:	e005      	b.n	28 <_ZN42_$LT$$RF$T$u20$as$u20$core..fmt..Debug$GT$3fmt17h775392ac1e6b687dE+0x28>
  1c:	f240 0200 	movw	r2, #0
  20:	4620      	mov	r0, r4
  22:	f2c0 0200 	movt	r2, #0
  26:	2302      	movs	r3, #2
  28:	f7ff fffe 	bl	0 <_ZN4core3fmt9Formatter11debug_tuple17h793087e8ecab9022E>
  2c:	4620      	mov	r0, r4
  2e:	f7ff fffe 	bl	0 <_ZN4core3fmt8builders10DebugTuple6finish17h24d91625b3672e6dE>
_ZN42_$LT$$RF$T$u20$as$u20$core..fmt..Debug$GT$3fmt17h775392ac1e6b687dE():
/rustc/50a0defd5a93523067ef239936cc2e0755220904/src/libcore/fmt/mod.rs:1914
  32:	b004      	add	sp, #16
  34:	bd10      	pop	{r4, pc}

Disassembly of section .text._ZN86_$LT$mylib..mynewt..encoding..json..json_encoder$u20$as$u20$core..default..Default$GT$7default17h860624d609b17ca1E:

00000000 <_ZN86_$LT$mylib..mynewt..encoding..json..json_encoder$u20$as$u20$core..default..Default$GT$7default17h860624d609b17ca1E>:
_ZN86_$LT$mylib..mynewt..encoding..json..json_encoder$u20$as$u20$core..default..Default$GT$7default17h860624d609b17ca1E():
/Users/Luppy/mynewt/stm32bluepill-mynewt-sensor/src/mynewt/encoding/json.rs:212
    pub je_arg: *mut ::cty::c_void,
    pub _bitfield_1: __BindgenBitfieldUnit<[u8; 1usize], u8>,
    pub je_encode_buf: [::cty::c_char; 64usize],
}
impl Default for json_encoder {
    fn default() -> Self {
   0:	b580      	push	{r7, lr}
_ZN4core3mem6zeroed17h0d92009c0652a4d4E():
/rustc/50a0defd5a93523067ef239936cc2e0755220904/src/libcore/mem.rs:447
   2:	214c      	movs	r1, #76	; 0x4c
   4:	f7ff fffe 	bl	0 <__aeabi_memclr4>
_ZN86_$LT$mylib..mynewt..encoding..json..json_encoder$u20$as$u20$core..default..Default$GT$7default17h860624d609b17ca1E():
/Users/Luppy/mynewt/stm32bluepill-mynewt-sensor/src/mynewt/encoding/json.rs:214
        unsafe { ::core::mem::zeroed() }
    }
   8:	bd80      	pop	{r7, pc}

Disassembly of section .text._ZN85_$LT$mylib..mynewt..encoding..json..json_enum_t$u20$as$u20$core..default..Default$GT$7default17h11f1daf3861c1f16E:

00000000 <_ZN85_$LT$mylib..mynewt..encoding..json..json_enum_t$u20$as$u20$core..default..Default$GT$7default17h11f1daf3861c1f16E>:
_ZN85_$LT$mylib..mynewt..encoding..json..json_enum_t$u20$as$u20$core..default..Default$GT$7default17h11f1daf3861c1f16E():
/Users/Luppy/mynewt/stm32bluepill-mynewt-sensor/src/mynewt/encoding/json.rs:296
    pub value: ::cty::c_longlong,
}
impl Default for json_enum_t {
    fn default() -> Self {
        unsafe { ::core::mem::zeroed() }
    }
   0:	2000      	movs	r0, #0
   2:	2100      	movs	r1, #0
   4:	2200      	movs	r2, #0
   6:	4770      	bx	lr

Disassembly of section .text._ZN114_$LT$mylib..mynewt..encoding..json..json_array_t__bindgen_ty_1__bindgen_ty_1$u20$as$u20$core..default..Default$GT$7default17h82b19c328fece707E:

00000000 <_ZN114_$LT$mylib..mynewt..encoding..json..json_array_t__bindgen_ty_1__bindgen_ty_1$u20$as$u20$core..default..Default$GT$7default17h82b19c328fece707E>:
_ZN114_$LT$mylib..mynewt..encoding..json..json_array_t__bindgen_ty_1__bindgen_ty_1$u20$as$u20$core..default..Default$GT$7default17h82b19c328fece707E():
/Users/Luppy/mynewt/stm32bluepill-mynewt-sensor/src/mynewt/encoding/json.rs:322
    pub subtype: *const json_attr_t,
    pub base: *mut ::cty::c_char,
    pub stride: usize,
}
impl Default for json_array_t__bindgen_ty_1__bindgen_ty_1 {
    fn default() -> Self {
   0:	2100      	movs	r1, #0
_ZN4core3mem6zeroed17h7255376318b3f93fE():
/rustc/50a0defd5a93523067ef239936cc2e0755220904/src/libcore/mem.rs:447
   2:	e9c0 1100 	strd	r1, r1, [r0]
   6:	6081      	str	r1, [r0, #8]
_ZN114_$LT$mylib..mynewt..encoding..json..json_array_t__bindgen_ty_1__bindgen_ty_1$u20$as$u20$core..default..Default$GT$7default17h82b19c328fece707E():
/Users/Luppy/mynewt/stm32bluepill-mynewt-sensor/src/mynewt/encoding/json.rs:324
        unsafe { ::core::mem::zeroed() }
    }
   8:	4770      	bx	lr

Disassembly of section .text._ZN100_$LT$mylib..mynewt..encoding..json..json_array_t__bindgen_ty_1$u20$as$u20$core..default..Default$GT$7default17ha2bf33bfa13a675bE:

00000000 <_ZN100_$LT$mylib..mynewt..encoding..json..json_array_t__bindgen_ty_1$u20$as$u20$core..default..Default$GT$7default17ha2bf33bfa13a675bE>:
_ZN100_$LT$mylib..mynewt..encoding..json..json_array_t__bindgen_ty_1$u20$as$u20$core..default..Default$GT$7default17ha2bf33bfa13a675bE():
/Users/Luppy/mynewt/stm32bluepill-mynewt-sensor/src/mynewt/encoding/json.rs:374
    fn default() -> Self {
        unsafe { ::core::mem::zeroed() }
    }
}
impl Default for json_array_t__bindgen_ty_1 {
    fn default() -> Self {
   0:	2100      	movs	r1, #0
_ZN4core3mem6zeroed17h766f36ebe7e05164E():
/rustc/50a0defd5a93523067ef239936cc2e0755220904/src/libcore/mem.rs:447
   2:	e9c0 1100 	strd	r1, r1, [r0]
   6:	e9c0 1102 	strd	r1, r1, [r0, #8]
   a:	e9c0 1104 	strd	r1, r1, [r0, #16]
_ZN100_$LT$mylib..mynewt..encoding..json..json_array_t__bindgen_ty_1$u20$as$u20$core..default..Default$GT$7default17ha2bf33bfa13a675bE():
/Users/Luppy/mynewt/stm32bluepill-mynewt-sensor/src/mynewt/encoding/json.rs:376
        unsafe { ::core::mem::zeroed() }
    }
   e:	4770      	bx	lr

Disassembly of section .text._ZN86_$LT$mylib..mynewt..encoding..json..json_array_t$u20$as$u20$core..default..Default$GT$7default17h21ecccd20652b50fE:

00000000 <_ZN86_$LT$mylib..mynewt..encoding..json..json_array_t$u20$as$u20$core..default..Default$GT$7default17h21ecccd20652b50fE>:
_ZN86_$LT$mylib..mynewt..encoding..json..json_array_t$u20$as$u20$core..default..Default$GT$7default17h21ecccd20652b50fE():
/Users/Luppy/mynewt/stm32bluepill-mynewt-sensor/src/mynewt/encoding/json.rs:379
}
impl Default for json_array_t {
    fn default() -> Self {
   0:	b580      	push	{r7, lr}
_ZN4core3mem6zeroed17h6fc9367c865678b0E():
/rustc/50a0defd5a93523067ef239936cc2e0755220904/src/libcore/mem.rs:447
   2:	2128      	movs	r1, #40	; 0x28
   4:	f7ff fffe 	bl	0 <__aeabi_memclr8>
_ZN86_$LT$mylib..mynewt..encoding..json..json_array_t$u20$as$u20$core..default..Default$GT$7default17h21ecccd20652b50fE():
/Users/Luppy/mynewt/stm32bluepill-mynewt-sensor/src/mynewt/encoding/json.rs:381
        unsafe { ::core::mem::zeroed() }
    }
   8:	bd80      	pop	{r7, pc}

Disassembly of section .text._ZN99_$LT$mylib..mynewt..encoding..json..json_attr_t__bindgen_ty_1$u20$as$u20$core..default..Default$GT$7default17hceb089f8565d35a4E:

00000000 <_ZN99_$LT$mylib..mynewt..encoding..json..json_attr_t__bindgen_ty_1$u20$as$u20$core..default..Default$GT$7default17hceb089f8565d35a4E>:
_ZN99_$LT$mylib..mynewt..encoding..json..json_attr_t__bindgen_ty_1$u20$as$u20$core..default..Default$GT$7default17hceb089f8565d35a4E():
/Users/Luppy/mynewt/stm32bluepill-mynewt-sensor/src/mynewt/encoding/json.rs:406
    pub array: __BindgenUnionField<json_array_t>,
    pub offset: __BindgenUnionField<usize>,
    pub bindgen_union_field: [u64; 6usize],
}
impl Default for json_attr_t__bindgen_ty_1 {
    fn default() -> Self {
   0:	b580      	push	{r7, lr}
_ZN4core3mem6zeroed17h7a6cb4dc7a5725fcE():
/rustc/50a0defd5a93523067ef239936cc2e0755220904/src/libcore/mem.rs:447
   2:	2130      	movs	r1, #48	; 0x30
   4:	f7ff fffe 	bl	0 <__aeabi_memclr8>
_ZN99_$LT$mylib..mynewt..encoding..json..json_attr_t__bindgen_ty_1$u20$as$u20$core..default..Default$GT$7default17hceb089f8565d35a4E():
/Users/Luppy/mynewt/stm32bluepill-mynewt-sensor/src/mynewt/encoding/json.rs:408
        unsafe { ::core::mem::zeroed() }
    }
   8:	bd80      	pop	{r7, pc}

Disassembly of section .text._ZN85_$LT$mylib..mynewt..encoding..json..json_attr_t$u20$as$u20$core..default..Default$GT$7default17he4d0ab2df173dd16E:

00000000 <_ZN85_$LT$mylib..mynewt..encoding..json..json_attr_t$u20$as$u20$core..default..Default$GT$7default17he4d0ab2df173dd16E>:
_ZN85_$LT$mylib..mynewt..encoding..json..json_attr_t$u20$as$u20$core..default..Default$GT$7default17he4d0ab2df173dd16E():
/Users/Luppy/mynewt/stm32bluepill-mynewt-sensor/src/mynewt/encoding/json.rs:426
    fn default() -> Self {
        unsafe { ::core::mem::zeroed() }
    }
}
impl Default for json_attr_t {
    fn default() -> Self {
   0:	b580      	push	{r7, lr}
_ZN4core3mem6zeroed17he8884464a84c938eE():
/rustc/50a0defd5a93523067ef239936cc2e0755220904/src/libcore/mem.rs:447
   2:	2150      	movs	r1, #80	; 0x50
   4:	f7ff fffe 	bl	0 <__aeabi_memclr8>
_ZN85_$LT$mylib..mynewt..encoding..json..json_attr_t$u20$as$u20$core..default..Default$GT$7default17he4d0ab2df173dd16E():
/Users/Luppy/mynewt/stm32bluepill-mynewt-sensor/src/mynewt/encoding/json.rs:428
        unsafe { ::core::mem::zeroed() }
    }
   8:	bd80      	pop	{r7, pc}

Disassembly of section .text._ZN117_$LT$mylib..mynewt..encoding..json_context..Step$u20$as$u20$mylib..mynewt..encoding..json_context..FunctionCaller$GT$13call_function17hed4ad968db3b0801E:

00000000 <_ZN117_$LT$mylib..mynewt..encoding..json_context..Step$u20$as$u20$mylib..mynewt..encoding..json_context..FunctionCaller$GT$13call_function17hed4ad968db3b0801E>:
_ZN117_$LT$mylib..mynewt..encoding..json_context..Step$u20$as$u20$mylib..mynewt..encoding..json_context..FunctionCaller$GT$13call_function17hed4ad968db3b0801E():
/Users/Luppy/mynewt/stm32bluepill-mynewt-sensor/src/mynewt/encoding/json_context.rs:32
    fn call_function(&self, function: &dyn Fn() -> u32) -> u32 {
   0:	4608      	mov	r0, r1
/Users/Luppy/mynewt/stm32bluepill-mynewt-sensor/src/mynewt/encoding/json_context.rs:33
        function()
   2:	68d1      	ldr	r1, [r2, #12]
   4:	4708      	bx	r1

Disassembly of section .text._ZN91_$LT$$u5b$u8$u5d$$u20$as$u20$mylib..mynewt..encoding..json_context..ToBytesOptionalNull$GT$21to_bytes_optional_nul17h6b091983309d3269E:

00000000 <_ZN91_$LT$$u5b$u8$u5d$$u20$as$u20$mylib..mynewt..encoding..json_context..ToBytesOptionalNull$GT$21to_bytes_optional_nul17h6b091983309d3269E>:
_ZN91_$LT$$u5b$u8$u5d$$u20$as$u20$mylib..mynewt..encoding..json_context..ToBytesOptionalNull$GT$21to_bytes_optional_nul17h6b091983309d3269E():
/Users/Luppy/mynewt/stm32bluepill-mynewt-sensor/src/mynewt/encoding/json_context.rs:144
/// Convert the type to array of bytes that may or may not end with null
impl ToBytesOptionalNull for [u8] {
    /// Convert the type to array of bytes that may or may not end with null
    fn to_bytes_optional_nul(&self) -> &[u8] {
        self
    }
   0:	4770      	bx	lr

Disassembly of section .text._ZN82_$LT$str$u20$as$u20$mylib..mynewt..encoding..json_context..ToBytesOptionalNull$GT$21to_bytes_optional_nul17hc8b35a0eccd31e17E:

00000000 <_ZN82_$LT$str$u20$as$u20$mylib..mynewt..encoding..json_context..ToBytesOptionalNull$GT$21to_bytes_optional_nul17hc8b35a0eccd31e17E>:
_ZN82_$LT$str$u20$as$u20$mylib..mynewt..encoding..json_context..ToBytesOptionalNull$GT$21to_bytes_optional_nul17hc8b35a0eccd31e17E():
/Users/Luppy/mynewt/stm32bluepill-mynewt-sensor/src/mynewt/encoding/json_context.rs:152
/// Convert the type to array of bytes that may or may not end with null
impl ToBytesOptionalNull for str {
    /// Convert the type to array of bytes that may or may not end with null
    fn to_bytes_optional_nul(&self) -> &[u8] {
        self.as_bytes()
    }
   0:	4770      	bx	lr

Disassembly of section .text._ZN86_$LT$$RF$str$u20$as$u20$mylib..mynewt..encoding..json_context..ToBytesOptionalNull$GT$21to_bytes_optional_nul17h2f36265e10bbdb9aE:

00000000 <_ZN86_$LT$$RF$str$u20$as$u20$mylib..mynewt..encoding..json_context..ToBytesOptionalNull$GT$21to_bytes_optional_nul17h2f36265e10bbdb9aE>:
_ZN86_$LT$$RF$str$u20$as$u20$mylib..mynewt..encoding..json_context..ToBytesOptionalNull$GT$21to_bytes_optional_nul17h2f36265e10bbdb9aE():
/Users/Luppy/mynewt/stm32bluepill-mynewt-sensor/src/mynewt/encoding/json_context.rs:159

/// Convert the type to array of bytes that may or may not end with null
impl ToBytesOptionalNull for &str {
    /// Convert the type to array of bytes that may or may not end with null
    fn to_bytes_optional_nul(&self) -> &[u8] {
        self.as_bytes()
   0:	e9d0 2100 	ldrd	r2, r1, [r0]
/Users/Luppy/mynewt/stm32bluepill-mynewt-sensor/src/mynewt/encoding/json_context.rs:160
    }
   4:	4610      	mov	r0, r2
   6:	4770      	bx	lr

Disassembly of section .text._ZN94_$LT$cstr_core..CStr$u20$as$u20$mylib..mynewt..encoding..json_context..ToBytesOptionalNull$GT$21to_bytes_optional_nul17h6afba8703e19f869E:

00000000 <_ZN94_$LT$cstr_core..CStr$u20$as$u20$mylib..mynewt..encoding..json_context..ToBytesOptionalNull$GT$21to_bytes_optional_nul17h6afba8703e19f869E>:
_ZN94_$LT$cstr_core..CStr$u20$as$u20$mylib..mynewt..encoding..json_context..ToBytesOptionalNull$GT$21to_bytes_optional_nul17h6afba8703e19f869E():
/Users/Luppy/mynewt/stm32bluepill-mynewt-sensor/src/mynewt/encoding/json_context.rs:168
/// Convert the type to array of bytes that may or may not end with null. CStr always includes nulls.
impl ToBytesOptionalNull for CStr {
    /// Convert the type to array of bytes that may or may not end with null. CStr always includes nulls.
    fn to_bytes_optional_nul(&self) -> &[u8] {
        self.to_bytes_with_nul()
    }
   0:	4770      	bx	lr

Disassembly of section .text._ZN78_$LT$mylib..mynewt..kernel..os..os_event$u20$as$u20$core..default..Default$GT$7default17hc4d97a92f078a3aeE:

00000000 <_ZN78_$LT$mylib..mynewt..kernel..os..os_event$u20$as$u20$core..default..Default$GT$7default17hc4d97a92f078a3aeE>:
_ZN78_$LT$mylib..mynewt..kernel..os..os_event$u20$as$u20$core..default..Default$GT$7default17hc4d97a92f078a3aeE():
/Users/Luppy/mynewt/stm32bluepill-mynewt-sensor/src/mynewt/kernel/os.rs:409
    fn default() -> Self {
        unsafe { ::core::mem::zeroed() }
    }
}
impl Default for os_event {
    fn default() -> Self {
   0:	2100      	movs	r1, #0
_ZN4core3mem6zeroed17h1901b1f3630bc774E():
/rustc/50a0defd5a93523067ef239936cc2e0755220904/src/libcore/mem.rs:447
   2:	e9c0 1100 	strd	r1, r1, [r0]
   6:	e9c0 1102 	strd	r1, r1, [r0, #8]
_ZN78_$LT$mylib..mynewt..kernel..os..os_event$u20$as$u20$core..default..Default$GT$7default17hc4d97a92f078a3aeE():
/Users/Luppy/mynewt/stm32bluepill-mynewt-sensor/src/mynewt/kernel/os.rs:411
        unsafe { ::core::mem::zeroed() }
    }
   a:	4770      	bx	lr

Disassembly of section .text._ZN80_$LT$mylib..mynewt..kernel..os..os_callout$u20$as$u20$core..default..Default$GT$7default17h60a0bce68846fe76E:

00000000 <_ZN80_$LT$mylib..mynewt..kernel..os..os_callout$u20$as$u20$core..default..Default$GT$7default17h60a0bce68846fe76E>:
_ZN80_$LT$mylib..mynewt..kernel..os..os_callout$u20$as$u20$core..default..Default$GT$7default17h60a0bce68846fe76E():
/Users/Luppy/mynewt/stm32bluepill-mynewt-sensor/src/mynewt/kernel/os.rs:541
    fn default() -> Self {
        unsafe { ::core::mem::zeroed() }
    }
}
impl Default for os_callout {
    fn default() -> Self {
   0:	2100      	movs	r1, #0
_ZN4core3mem6zeroed17h74ce011bb0a8cd52E():
/rustc/50a0defd5a93523067ef239936cc2e0755220904/src/libcore/mem.rs:447
   2:	e9c0 1100 	strd	r1, r1, [r0]
   6:	e9c0 1102 	strd	r1, r1, [r0, #8]
   a:	e9c0 1104 	strd	r1, r1, [r0, #16]
   e:	e9c0 1106 	strd	r1, r1, [r0, #24]
_ZN80_$LT$mylib..mynewt..kernel..os..os_callout$u20$as$u20$core..default..Default$GT$7default17h60a0bce68846fe76E():
/Users/Luppy/mynewt/stm32bluepill-mynewt-sensor/src/mynewt/kernel/os.rs:543
        unsafe { ::core::mem::zeroed() }
    }
  12:	4770      	bx	lr

Disassembly of section .text._ZN79_$LT$mylib..mynewt..kernel..os..hal_timer$u20$as$u20$core..default..Default$GT$7default17hd84c1712e93c51e1E:

00000000 <_ZN79_$LT$mylib..mynewt..kernel..os..hal_timer$u20$as$u20$core..default..Default$GT$7default17hd84c1712e93c51e1E>:
_ZN79_$LT$mylib..mynewt..kernel..os..hal_timer$u20$as$u20$core..default..Default$GT$7default17hd84c1712e93c51e1E():
/Users/Luppy/mynewt/stm32bluepill-mynewt-sensor/src/mynewt/kernel/os.rs:642
    fn default() -> Self {
        unsafe { ::core::mem::zeroed() }
    }
}
impl Default for hal_timer {
    fn default() -> Self {
   0:	2100      	movs	r1, #0
_ZN4core3mem6zeroed17hcbcc40e8c56ada74E():
/rustc/50a0defd5a93523067ef239936cc2e0755220904/src/libcore/mem.rs:447
   2:	e9c0 1100 	strd	r1, r1, [r0]
   6:	e9c0 1102 	strd	r1, r1, [r0, #8]
   a:	e9c0 1104 	strd	r1, r1, [r0, #16]
_ZN79_$LT$mylib..mynewt..kernel..os..hal_timer$u20$as$u20$core..default..Default$GT$7default17hd84c1712e93c51e1E():
/Users/Luppy/mynewt/stm32bluepill-mynewt-sensor/src/mynewt/kernel/os.rs:644
        unsafe { ::core::mem::zeroed() }
    }
   e:	4770      	bx	lr

Disassembly of section .text._ZN76_$LT$mylib..mynewt..kernel..os..os_dev$u20$as$u20$core..default..Default$GT$7default17h2f5a4ffce0d3e5bfE:

00000000 <_ZN76_$LT$mylib..mynewt..kernel..os..os_dev$u20$as$u20$core..default..Default$GT$7default17h2f5a4ffce0d3e5bfE>:
_ZN76_$LT$mylib..mynewt..kernel..os..os_dev$u20$as$u20$core..default..Default$GT$7default17h2f5a4ffce0d3e5bfE():
/Users/Luppy/mynewt/stm32bluepill-mynewt-sensor/src/mynewt/kernel/os.rs:812
    fn default() -> Self {
        unsafe { ::core::mem::zeroed() }
    }
}
impl Default for os_dev {
    fn default() -> Self {
   0:	b580      	push	{r7, lr}
_ZN4core3mem6zeroed17h906d433344777fc2E():
/rustc/50a0defd5a93523067ef239936cc2e0755220904/src/libcore/mem.rs:447
   2:	2124      	movs	r1, #36	; 0x24
   4:	f7ff fffe 	bl	0 <__aeabi_memclr4>
_ZN76_$LT$mylib..mynewt..kernel..os..os_dev$u20$as$u20$core..default..Default$GT$7default17h2f5a4ffce0d3e5bfE():
/Users/Luppy/mynewt/stm32bluepill-mynewt-sensor/src/mynewt/kernel/os.rs:814
        unsafe { ::core::mem::zeroed() }
    }
   8:	bd80      	pop	{r7, pc}

Disassembly of section .text._ZN77_$LT$mylib..mynewt..kernel..os..os_mbuf$u20$as$u20$core..default..Default$GT$7default17h31a069d7f46f248fE:

00000000 <_ZN77_$LT$mylib..mynewt..kernel..os..os_mbuf$u20$as$u20$core..default..Default$GT$7default17h31a069d7f46f248fE>:
_ZN77_$LT$mylib..mynewt..kernel..os..os_mbuf$u20$as$u20$core..default..Default$GT$7default17h31a069d7f46f248fE():
/Users/Luppy/mynewt/stm32bluepill-mynewt-sensor/src/mynewt/kernel/os.rs:1040
    fn default() -> Self {
        unsafe { ::core::mem::zeroed() }
    }
}
impl Default for os_mbuf {
    fn default() -> Self {
   0:	2100      	movs	r1, #0
_ZN4core3mem6zeroed17hf3dcd485e3f72b44E():
/rustc/50a0defd5a93523067ef239936cc2e0755220904/src/libcore/mem.rs:447
   2:	e9c0 1100 	strd	r1, r1, [r0]
   6:	e9c0 1102 	strd	r1, r1, [r0, #8]
_ZN77_$LT$mylib..mynewt..kernel..os..os_mbuf$u20$as$u20$core..default..Default$GT$7default17h31a069d7f46f248fE():
/Users/Luppy/mynewt/stm32bluepill-mynewt-sensor/src/mynewt/kernel/os.rs:1042
        unsafe { ::core::mem::zeroed() }
    }
   a:	4770      	bx	lr

Disassembly of section .text._ZN80_$LT$mylib..mynewt..kernel..os..os_mempool$u20$as$u20$core..default..Default$GT$7default17h920df732f8be7eacE:

00000000 <_ZN80_$LT$mylib..mynewt..kernel..os..os_mempool$u20$as$u20$core..default..Default$GT$7default17h920df732f8be7eacE>:
_ZN80_$LT$mylib..mynewt..kernel..os..os_mempool$u20$as$u20$core..default..Default$GT$7default17h920df732f8be7eacE():
/Users/Luppy/mynewt/stm32bluepill-mynewt-sensor/src/mynewt/kernel/os.rs:1521
    fn default() -> Self {
        unsafe { ::core::mem::zeroed() }
    }
}
impl Default for os_mempool {
    fn default() -> Self {
   0:	2100      	movs	r1, #0
_ZN4core3mem6zeroed17h48dd09e50a021dd1E():
/rustc/50a0defd5a93523067ef239936cc2e0755220904/src/libcore/mem.rs:447
   2:	e9c0 1100 	strd	r1, r1, [r0]
   6:	e9c0 1102 	strd	r1, r1, [r0, #8]
   a:	e9c0 1104 	strd	r1, r1, [r0, #16]
   e:	6181      	str	r1, [r0, #24]
_ZN80_$LT$mylib..mynewt..kernel..os..os_mempool$u20$as$u20$core..default..Default$GT$7default17h920df732f8be7eacE():
/Users/Luppy/mynewt/stm32bluepill-mynewt-sensor/src/mynewt/kernel/os.rs:1523
        unsafe { ::core::mem::zeroed() }
    }
  10:	4770      	bx	lr

Disassembly of section .text._ZN85_$LT$mylib..mynewt..kernel..os..os_sanity_check$u20$as$u20$core..default..Default$GT$7default17h6f823112a3655a4fE:

00000000 <_ZN85_$LT$mylib..mynewt..kernel..os..os_sanity_check$u20$as$u20$core..default..Default$GT$7default17h6f823112a3655a4fE>:
_ZN85_$LT$mylib..mynewt..kernel..os..os_sanity_check$u20$as$u20$core..default..Default$GT$7default17h6f823112a3655a4fE():
/Users/Luppy/mynewt/stm32bluepill-mynewt-sensor/src/mynewt/kernel/os.rs:1780
    fn default() -> Self {
        unsafe { ::core::mem::zeroed() }
    }
}
impl Default for os_sanity_check {
    fn default() -> Self {
   0:	2100      	movs	r1, #0
_ZN4core3mem6zeroed17h62dcbffc32880963E():
/rustc/50a0defd5a93523067ef239936cc2e0755220904/src/libcore/mem.rs:447
   2:	e9c0 1100 	strd	r1, r1, [r0]
   6:	e9c0 1102 	strd	r1, r1, [r0, #8]
   a:	6101      	str	r1, [r0, #16]
_ZN85_$LT$mylib..mynewt..kernel..os..os_sanity_check$u20$as$u20$core..default..Default$GT$7default17h6f823112a3655a4fE():
/Users/Luppy/mynewt/stm32bluepill-mynewt-sensor/src/mynewt/kernel/os.rs:1782
        unsafe { ::core::mem::zeroed() }
    }
   c:	4770      	bx	lr

Disassembly of section .text._ZN77_$LT$mylib..mynewt..kernel..os..os_task$u20$as$u20$core..default..Default$GT$7default17ha83e110649cdd500E:

00000000 <_ZN77_$LT$mylib..mynewt..kernel..os..os_task$u20$as$u20$core..default..Default$GT$7default17ha83e110649cdd500E>:
_ZN77_$LT$mylib..mynewt..kernel..os..os_task$u20$as$u20$core..default..Default$GT$7default17ha83e110649cdd500E():
/Users/Luppy/mynewt/stm32bluepill-mynewt-sensor/src/mynewt/kernel/os.rs:1918
    fn default() -> Self {
        unsafe { ::core::mem::zeroed() }
    }
}
impl Default for os_task {
    fn default() -> Self {
   0:	b580      	push	{r7, lr}
_ZN4core3mem6zeroed17h07e1d9307137b41eE():
/rustc/50a0defd5a93523067ef239936cc2e0755220904/src/libcore/mem.rs:447
   2:	2150      	movs	r1, #80	; 0x50
   4:	f7ff fffe 	bl	0 <__aeabi_memclr4>
_ZN77_$LT$mylib..mynewt..kernel..os..os_task$u20$as$u20$core..default..Default$GT$7default17ha83e110649cdd500E():
/Users/Luppy/mynewt/stm32bluepill-mynewt-sensor/src/mynewt/kernel/os.rs:1920
        unsafe { ::core::mem::zeroed() }
    }
   8:	bd80      	pop	{r7, pc}

Disassembly of section .text._ZN76_$LT$mylib..mynewt..kernel..os..os_sem$u20$as$u20$core..default..Default$GT$7default17h892530a03bc28a03E:

00000000 <_ZN76_$LT$mylib..mynewt..kernel..os..os_sem$u20$as$u20$core..default..Default$GT$7default17h892530a03bc28a03E>:
_ZN76_$LT$mylib..mynewt..kernel..os..os_sem$u20$as$u20$core..default..Default$GT$7default17h892530a03bc28a03E():
/Users/Luppy/mynewt/stm32bluepill-mynewt-sensor/src/mynewt/kernel/os.rs:2131
    fn default() -> Self {
        unsafe { ::core::mem::zeroed() }
    }
}
impl Default for os_sem {
    fn default() -> Self {
   0:	2100      	movs	r1, #0
_ZN4core3mem6zeroed17h98826c5fc95977dcE():
/rustc/50a0defd5a93523067ef239936cc2e0755220904/src/libcore/mem.rs:447
   2:	e9c0 1100 	strd	r1, r1, [r0]
_ZN76_$LT$mylib..mynewt..kernel..os..os_sem$u20$as$u20$core..default..Default$GT$7default17h892530a03bc28a03E():
/Users/Luppy/mynewt/stm32bluepill-mynewt-sensor/src/mynewt/kernel/os.rs:2133
        unsafe { ::core::mem::zeroed() }
    }
   6:	4770      	bx	lr

Disassembly of section .text._ZN100_$LT$mylib..mynewt..hw..sensor..bindings..os_dev__bindgen_ty_1$u20$as$u20$core..default..Default$GT$7default17h67635421c75fe0b9E:

00000000 <_ZN100_$LT$mylib..mynewt..hw..sensor..bindings..os_dev__bindgen_ty_1$u20$as$u20$core..default..Default$GT$7default17h67635421c75fe0b9E>:
_ZN100_$LT$mylib..mynewt..hw..sensor..bindings..os_dev__bindgen_ty_1$u20$as$u20$core..default..Default$GT$7default17h67635421c75fe0b9E():
/Users/Luppy/mynewt/stm32bluepill-mynewt-sensor/src/mynewt/hw/sensor/bindings.rs:207
    pub stqe_next: *mut os_dev,
}
impl Default for os_dev__bindgen_ty_1 {
    fn default() -> Self {
        unsafe { ::core::mem::zeroed() }
    }
   0:	2000      	movs	r0, #0
   2:	4770      	bx	lr

Disassembly of section .text._ZN93_$LT$mylib..mynewt..hw..sensor..bindings..sensor_data_t$u20$as$u20$core..default..Default$GT$7default17h20ac0e80e110915cE:

00000000 <_ZN93_$LT$mylib..mynewt..hw..sensor..bindings..sensor_data_t$u20$as$u20$core..default..Default$GT$7default17h20ac0e80e110915cE>:
_ZN93_$LT$mylib..mynewt..hw..sensor..bindings..sensor_data_t$u20$as$u20$core..default..Default$GT$7default17h20ac0e80e110915cE():
/Users/Luppy/mynewt/stm32bluepill-mynewt-sensor/src/mynewt/hw/sensor/bindings.rs:359
    pub spd: __BindgenUnionField<*mut sensor_press_data>,
    pub srhd: __BindgenUnionField<*mut sensor_humid_data>,
    pub bindgen_union_field: u64,
}
impl Default for sensor_data_t {
    fn default() -> Self {
   0:	2100      	movs	r1, #0
_ZN4core3mem6zeroed17hf5d5f110ebd51cc0E():
/rustc/50a0defd5a93523067ef239936cc2e0755220904/src/libcore/mem.rs:447
   2:	e9c0 1100 	strd	r1, r1, [r0]
_ZN93_$LT$mylib..mynewt..hw..sensor..bindings..sensor_data_t$u20$as$u20$core..default..Default$GT$7default17h20ac0e80e110915cE():
/Users/Luppy/mynewt/stm32bluepill-mynewt-sensor/src/mynewt/hw/sensor/bindings.rs:361
        unsafe { ::core::mem::zeroed() }
    }
   6:	4770      	bx	lr

Disassembly of section .text._ZN95_$LT$mylib..mynewt..hw..sensor..bindings..sensor_listener$u20$as$u20$core..default..Default$GT$7default17ha6a4cedbdad511fdE:

00000000 <_ZN95_$LT$mylib..mynewt..hw..sensor..bindings..sensor_listener$u20$as$u20$core..default..Default$GT$7default17ha6a4cedbdad511fdE>:
_ZN95_$LT$mylib..mynewt..hw..sensor..bindings..sensor_listener$u20$as$u20$core..default..Default$GT$7default17ha6a4cedbdad511fdE():
/Users/Luppy/mynewt/stm32bluepill-mynewt-sensor/src/mynewt/hw/sensor/bindings.rs:443
    fn default() -> Self {
        unsafe { ::core::mem::zeroed() }
    }
}
impl Default for sensor_listener {
    fn default() -> Self {
   0:	2100      	movs	r1, #0
_ZN4core3mem6zeroed17hf582636e8e40261eE():
/rustc/50a0defd5a93523067ef239936cc2e0755220904/src/libcore/mem.rs:447
   2:	e9c0 1100 	strd	r1, r1, [r0]
   6:	e9c0 1102 	strd	r1, r1, [r0, #8]
   a:	e9c0 1104 	strd	r1, r1, [r0, #16]
_ZN95_$LT$mylib..mynewt..hw..sensor..bindings..sensor_listener$u20$as$u20$core..default..Default$GT$7default17ha6a4cedbdad511fdE():
/Users/Luppy/mynewt/stm32bluepill-mynewt-sensor/src/mynewt/hw/sensor/bindings.rs:445
        unsafe { ::core::mem::zeroed() }
    }
   e:	4770      	bx	lr

Disassembly of section .text._ZN98_$LT$mylib..mynewt..hw..sensor..bindings..sensor_type_traits$u20$as$u20$core..default..Default$GT$7default17hdf223ad551ffd976E:

00000000 <_ZN98_$LT$mylib..mynewt..hw..sensor..bindings..sensor_type_traits$u20$as$u20$core..default..Default$GT$7default17hdf223ad551ffd976E>:
_ZN98_$LT$mylib..mynewt..hw..sensor..bindings..sensor_type_traits$u20$as$u20$core..default..Default$GT$7default17hdf223ad551ffd976E():
/Users/Luppy/mynewt/stm32bluepill-mynewt-sensor/src/mynewt/hw/sensor/bindings.rs:503
    fn default() -> Self {
        unsafe { ::core::mem::zeroed() }
    }
}
impl Default for sensor_type_traits {
    fn default() -> Self {
   0:	b580      	push	{r7, lr}
_ZN4core3mem6zeroed17ha65d19f5395e51d6E():
/rustc/50a0defd5a93523067ef239936cc2e0755220904/src/libcore/mem.rs:447
   2:	2130      	movs	r1, #48	; 0x30
   4:	f7ff fffe 	bl	0 <__aeabi_memclr8>
_ZN98_$LT$mylib..mynewt..hw..sensor..bindings..sensor_type_traits$u20$as$u20$core..default..Default$GT$7default17hdf223ad551ffd976E():
/Users/Luppy/mynewt/stm32bluepill-mynewt-sensor/src/mynewt/hw/sensor/bindings.rs:505
        unsafe { ::core::mem::zeroed() }
    }
   8:	bd80      	pop	{r7, pc}

Disassembly of section .text._ZN100_$LT$mylib..mynewt..hw..sensor..bindings..sensor_notify_ev_ctx$u20$as$u20$core..default..Default$GT$7default17hda13196840d4fdf5E:

00000000 <_ZN100_$LT$mylib..mynewt..hw..sensor..bindings..sensor_notify_ev_ctx$u20$as$u20$core..default..Default$GT$7default17hda13196840d4fdf5E>:
_ZN100_$LT$mylib..mynewt..hw..sensor..bindings..sensor_notify_ev_ctx$u20$as$u20$core..default..Default$GT$7default17hda13196840d4fdf5E():
/Users/Luppy/mynewt/stm32bluepill-mynewt-sensor/src/mynewt/hw/sensor/bindings.rs:515
    pub snec_evtype: sensor_event_type_t,
}
impl Default for sensor_notify_ev_ctx {
    fn default() -> Self {
        unsafe { ::core::mem::zeroed() }
    }
   0:	2000      	movs	r0, #0
   2:	2100      	movs	r1, #0
   4:	4770      	bx	lr

Disassembly of section .text._ZN86_$LT$mylib..mynewt..hw..sensor..bindings..sensor$u20$as$u20$core..default..Default$GT$7default17hafbbeec8fb7ebf29E:

00000000 <_ZN86_$LT$mylib..mynewt..hw..sensor..bindings..sensor$u20$as$u20$core..default..Default$GT$7default17hafbbeec8fb7ebf29E>:
_ZN86_$LT$mylib..mynewt..hw..sensor..bindings..sensor$u20$as$u20$core..default..Default$GT$7default17hafbbeec8fb7ebf29E():
/Users/Luppy/mynewt/stm32bluepill-mynewt-sensor/src/mynewt/hw/sensor/bindings.rs:739
    fn default() -> Self {
        unsafe { ::core::mem::zeroed() }
    }
}
impl Default for sensor {
    fn default() -> Self {
   0:	b580      	push	{r7, lr}
_ZN4core3mem6zeroed17hf9d001f64d0bdafaE():
/rustc/50a0defd5a93523067ef239936cc2e0755220904/src/libcore/mem.rs:447
   2:	2188      	movs	r1, #136	; 0x88
   4:	f7ff fffe 	bl	0 <__aeabi_memclr8>
_ZN86_$LT$mylib..mynewt..hw..sensor..bindings..sensor$u20$as$u20$core..default..Default$GT$7default17hafbbeec8fb7ebf29E():
/Users/Luppy/mynewt/stm32bluepill-mynewt-sensor/src/mynewt/hw/sensor/bindings.rs:741
        unsafe { ::core::mem::zeroed() }
    }
   8:	bd80      	pop	{r7, pc}

Disassembly of section .text._ZN93_$LT$mylib..mynewt..hw..sensor..bindings.._bindgen_ty_1$u20$as$u20$core..default..Default$GT$7default17h046454e6015ecb12E:

00000000 <_ZN93_$LT$mylib..mynewt..hw..sensor..bindings.._bindgen_ty_1$u20$as$u20$core..default..Default$GT$7default17h046454e6015ecb12E>:
_ZN93_$LT$mylib..mynewt..hw..sensor..bindings.._bindgen_ty_1$u20$as$u20$core..default..Default$GT$7default17h046454e6015ecb12E():
/Users/Luppy/mynewt/stm32bluepill-mynewt-sensor/src/mynewt/hw/sensor/bindings.rs:1833
    fn default() -> Self {
        unsafe { ::core::mem::zeroed() }
    }
}
impl Default for _bindgen_ty_1 {
    fn default() -> Self {
   0:	b580      	push	{r7, lr}
_ZN4core3mem6zeroed17h789021d43d1a28c4E():
/rustc/50a0defd5a93523067ef239936cc2e0755220904/src/libcore/mem.rs:447
   2:	2134      	movs	r1, #52	; 0x34
   4:	f7ff fffe 	bl	0 <__aeabi_memclr4>
_ZN93_$LT$mylib..mynewt..hw..sensor..bindings.._bindgen_ty_1$u20$as$u20$core..default..Default$GT$7default17h046454e6015ecb12E():
/Users/Luppy/mynewt/stm32bluepill-mynewt-sensor/src/mynewt/hw/sensor/bindings.rs:1835
        unsafe { ::core::mem::zeroed() }
    }
   8:	bd80      	pop	{r7, pc}

Disassembly of section .text._ZN5mylib6mynewt2hw6sensor21null_sensor_data_func17ha880541e9be5e41bE:

00000000 <_ZN5mylib6mynewt2hw6sensor21null_sensor_data_func17ha880541e9be5e41bE>:
_ZN5mylib6mynewt2hw6sensor21null_sensor_data_func17ha880541e9be5e41bE():
/Users/Luppy/mynewt/stm32bluepill-mynewt-sensor/src/mynewt/hw/sensor.rs:88
extern fn null_sensor_data_func(
    _sensor: sensor_ptr, 
    _arg: sensor_arg, 
    _sensor_data: sensor_data_ptr, 
    _sensor_type: sensor_type_t) -> i32
    { 0 }
   0:	2000      	movs	r0, #0
   2:	4770      	bx	lr

Disassembly of section .text._ZN101_$LT$mylib..mynewt..libs..sensor_coap..json_value__bindgen_ty_1$u20$as$u20$core..default..Default$GT$7default17hc4292ec42587899fE:

00000000 <_ZN101_$LT$mylib..mynewt..libs..sensor_coap..json_value__bindgen_ty_1$u20$as$u20$core..default..Default$GT$7default17hc4292ec42587899fE>:
_ZN101_$LT$mylib..mynewt..libs..sensor_coap..json_value__bindgen_ty_1$u20$as$u20$core..default..Default$GT$7default17hc4292ec42587899fE():
/Users/Luppy/mynewt/stm32bluepill-mynewt-sensor/src/mynewt/libs/sensor_coap.rs:430
    fn default() -> Self {
        unsafe { ::core::mem::zeroed() }
    }
}
impl Default for json_value__bindgen_ty_1 {
    fn default() -> Self {
   0:	2100      	movs	r1, #0
_ZN4core3mem6zeroed17he0877f0fa86032a4E():
/rustc/50a0defd5a93523067ef239936cc2e0755220904/src/libcore/mem.rs:447
   2:	e9c0 1100 	strd	r1, r1, [r0]
   6:	e9c0 1102 	strd	r1, r1, [r0, #8]
_ZN101_$LT$mylib..mynewt..libs..sensor_coap..json_value__bindgen_ty_1$u20$as$u20$core..default..Default$GT$7default17hc4292ec42587899fE():
/Users/Luppy/mynewt/stm32bluepill-mynewt-sensor/src/mynewt/libs/sensor_coap.rs:432
        unsafe { ::core::mem::zeroed() }
    }
   a:	4770      	bx	lr

Disassembly of section .text._ZN104_$LT$mylib..mynewt..libs..sensor_network..sensor_network_interface$u20$as$u20$core..default..Default$GT$7default17hc3f8adb0269c6a33E:

00000000 <_ZN104_$LT$mylib..mynewt..libs..sensor_network..sensor_network_interface$u20$as$u20$core..default..Default$GT$7default17hc3f8adb0269c6a33E>:
_ZN104_$LT$mylib..mynewt..libs..sensor_network..sensor_network_interface$u20$as$u20$core..default..Default$GT$7default17hc3f8adb0269c6a33E():
/Users/Luppy/mynewt/stm32bluepill-mynewt-sensor/src/mynewt/libs/sensor_network.rs:40
        ) -> ::cty::c_int,
    >,
    pub transport_registered: u8,
}
impl Default for sensor_network_interface {
    fn default() -> Self {
   0:	2100      	movs	r1, #0
_ZN4core3mem6zeroed17h1da0b7626837af81E():
/rustc/50a0defd5a93523067ef239936cc2e0755220904/src/libcore/mem.rs:447
   2:	e9c0 1100 	strd	r1, r1, [r0]
   6:	e9c0 1102 	strd	r1, r1, [r0, #8]
   a:	6101      	str	r1, [r0, #16]
_ZN104_$LT$mylib..mynewt..libs..sensor_network..sensor_network_interface$u20$as$u20$core..default..Default$GT$7default17hc3f8adb0269c6a33E():
/Users/Luppy/mynewt/stm32bluepill-mynewt-sensor/src/mynewt/libs/sensor_network.rs:42
        unsafe { ::core::mem::zeroed() }
    }
   c:	4770      	bx	lr

Disassembly of section .text._ZN5mylib6mynewt6result95_$LT$impl$u20$core..convert..From$LT$mylib..mynewt..result..MynewtError$GT$$u20$for$u20$i32$GT$4from17h0f1fcad621c15d1bE:

00000000 <_ZN5mylib6mynewt6result95_$LT$impl$u20$core..convert..From$LT$mylib..mynewt..result..MynewtError$GT$$u20$for$u20$i32$GT$4from17h0f1fcad621c15d1bE>:
_ZN5mylib6mynewt6result95_$LT$impl$u20$core..convert..From$LT$mylib..mynewt..result..MynewtError$GT$$u20$for$u20$i32$GT$4from17h0f1fcad621c15d1bE():
/Users/Luppy/mynewt/stm32bluepill-mynewt-sensor/src/mynewt.rs:57
    /// Cast `MynewtError` to `i32`
    impl From<MynewtError> for i32 {
        /// Cast `MynewtError` to `i32`
        fn from(err: MynewtError) -> Self {
            err as i32
        }
   0:	4770      	bx	lr

Disassembly of section .text._ZN5mylib13listen_sensor16read_temperature17h13ad632178bb9e10E:

00000000 <_ZN5mylib13listen_sensor16read_temperature17h13ad632178bb9e10E>:
_ZN5mylib13listen_sensor16read_temperature17h13ad632178bb9e10E():
/Users/Luppy/mynewt/stm32bluepill-mynewt-sensor/src/listen_sensor.rs:81
///  This listener function is called by Mynewt every 10 seconds (for local sensors) or when sensor data is received
///  (for Remote Sensors).  Mynewt has fetched the raw or computed temperature value, passed through `sensor_data`.
///  If this is a Sensor Node, we send the sensor data to the Collector Node.
///  If this is a Collector Node or Standalone Node, we send the sensor data to the CoAP server.  
///  Return 0 if we have processed the sensor data successfully.
extern fn read_temperature(sensor: sensor_ptr, _arg: sensor_arg, 
   0:	e92d 4ff0 	stmdb	sp!, {r4, r5, r6, r7, r8, r9, sl, fp, lr}
   4:	b095      	sub	sp, #84	; 0x54
   6:	4605      	mov	r5, r0
_ZN5mylib4base13console_print17h9f639099b2e23571E():
/Users/Luppy/mynewt/stm32bluepill-mynewt-sensor/src/base.rs:18
///  Display message `msg` on the Arm Semihosting console (via OpenOCD).
pub fn console_print(msg: &[u8]) {
    let len = msg.len();
    unsafe {
        //  Call the Semihosting Console API, which is unsafe.
        console_buffer(msg.as_ptr(), len as u32);
   8:	f240 0000 	movw	r0, #0
   c:	f2c0 0000 	movt	r0, #0
  10:	2111      	movs	r1, #17
  12:	4614      	mov	r4, r2
  14:	f7ff fffe 	bl	0 <console_buffer>
/Users/Luppy/mynewt/stm32bluepill-mynewt-sensor/src/base.rs:19
        console_flush();  //  TODO: Remove this.
  18:	f7ff fffe 	bl	0 <console_flush>
_ZN5mylib13listen_sensor16read_temperature17h13ad632178bb9e10E():
/Users/Luppy/mynewt/stm32bluepill-mynewt-sensor/src/listen_sensor.rs:86
    sensor_data: sensor_data_ptr, sensor_type: sensor_type_t) -> MynewtError {
    console_print(b"read_temperature\n");
    //  Check that the temperature data is valid.
    //  TODO
    if unsafe { is_null_sensor_data(sensor_data) } { return MynewtError::SYS_EINVAL; }  //  Exit if data is missing
  1c:	4620      	mov	r0, r4
  1e:	f7ff fffe 	bl	0 <is_null_sensor_data>
  22:	b120      	cbz	r0, 2e <_ZN5mylib13listen_sensor16read_temperature17h13ad632178bb9e10E+0x2e>
  24:	f06f 0001 	mvn.w	r0, #1
/Users/Luppy/mynewt/stm32bluepill-mynewt-sensor/src/listen_sensor.rs:117
            return MynewtError::SYS_EOK; 
        }            
    }
    //  Return 0 to Mynewt to indicate no error.  Should not end with a semicolon (;).
    MynewtError::SYS_EOK
}
  28:	b015      	add	sp, #84	; 0x54
  2a:	e8bd 8ff0 	ldmia.w	sp!, {r4, r5, r6, r7, r8, r9, sl, fp, pc}
/Users/Luppy/mynewt/stm32bluepill-mynewt-sensor/src/listen_sensor.rs:87
    assert!(unsafe { !is_null_sensor(sensor) });
  2e:	4628      	mov	r0, r5
  30:	f7ff fffe 	bl	0 <is_null_sensor>
  34:	2800      	cmp	r0, #0
  36:	f040 819c 	bne.w	372 <_ZN5mylib13listen_sensor16read_temperature17h13ad632178bb9e10E+0x372>
  3a:	e9dd 101e 	ldrd	r1, r0, [sp, #120]	; 0x78
_ZN5mylib13listen_sensor15get_temperature17hb27ff2b3fa62abbdE():
/Users/Luppy/mynewt/stm32bluepill-mynewt-sensor/src/listen_sensor.rs:127
#[allow(unreachable_patterns)]
#[allow(unused_variables)]
fn get_temperature(sensor_data: sensor_data_ptr, sensor_type: sensor_type_t) -> SensorValue {
    let mut return_value = SensorValue::default();
    match sensor_type {                           //  Is this raw or computed temperature?
        SENSOR_TYPE_AMBIENT_TEMPERATURE_RAW => {  //  If this is raw temperature...
  3e:	f081 6180 	eor.w	r1, r1, #67108864	; 0x4000000
  42:	ea41 0700 	orr.w	r7, r1, r0
_ZN5mylib13listen_sensor16read_temperature17h13ad632178bb9e10E():
/Users/Luppy/mynewt/stm32bluepill-mynewt-sensor/src/listen_sensor.rs:92
    let device = unsafe { sensor_get_device(sensor) };
  46:	4628      	mov	r0, r5
  48:	f7ff fffe 	bl	0 <sensor_get_device>
/Users/Luppy/mynewt/stm32bluepill-mynewt-sensor/src/listen_sensor.rs:93
    let device_name_ptr: *const c_char = unsafe { device_get_name(device) };
  4c:	f7ff fffe 	bl	0 <device_get_name>
/Users/Luppy/mynewt/stm32bluepill-mynewt-sensor/src/listen_sensor.rs:94
    let device_name: &CStr = unsafe { CStr::from_ptr(device_name_ptr) };
  50:	f7ff fffe 	bl	0 <_ZN9cstr_core4CStr8from_ptr17h8dd780023dafede8E>
  54:	4606      	mov	r6, r0
  56:	468a      	mov	sl, r1
  58:	2000      	movs	r0, #0
_ZN5mylib13listen_sensor15get_temperature17hb27ff2b3fa62abbdE():
/Users/Luppy/mynewt/stm32bluepill-mynewt-sensor/src/listen_sensor.rs:127
        SENSOR_TYPE_AMBIENT_TEMPERATURE_RAW => {  //  If this is raw temperature...
  5a:	b9df      	cbnz	r7, 94 <_ZN5mylib13listen_sensor16read_temperature17h13ad632178bb9e10E+0x94>
  5c:	a90d      	add	r1, sp, #52	; 0x34
/Users/Luppy/mynewt/stm32bluepill-mynewt-sensor/src/listen_sensor.rs:129
            //  Interpret the sensor data as a sensor_temp_raw_data struct that contains raw temp.
            let mut rawtempdata = fill_zero!(sensor_temp_raw_data);
  5e:	f88d 0038 	strb.w	r0, [sp, #56]	; 0x38
  62:	900d      	str	r0, [sp, #52]	; 0x34
/Users/Luppy/mynewt/stm32bluepill-mynewt-sensor/src/listen_sensor.rs:130
            let rc = unsafe { get_temp_raw_data(sensor_data, &mut rawtempdata) };
  64:	4620      	mov	r0, r4
  66:	f7ff fffe 	bl	0 <get_temp_raw_data>
/Users/Luppy/mynewt/stm32bluepill-mynewt-sensor/src/listen_sensor.rs:131
            assert!(rc == 0);
  6a:	2800      	cmp	r0, #0
  6c:	f040 818f 	bne.w	38e <_ZN5mylib13listen_sensor16read_temperature17h13ad632178bb9e10E+0x38e>
/Users/Luppy/mynewt/stm32bluepill-mynewt-sensor/src/listen_sensor.rs:134

            //  Check that the raw temperature data is valid.
            if rawtempdata.strd_temp_raw_is_valid == 0 { return return_value; }  //  Exit if data is not valid
  70:	f89d 0038 	ldrb.w	r0, [sp, #56]	; 0x38
  74:	2800      	cmp	r0, #0
  76:	f000 8183 	beq.w	380 <_ZN5mylib13listen_sensor16read_temperature17h13ad632178bb9e10E+0x380>
_ZN5mylib4base13console_print17h9f639099b2e23571E():
/Users/Luppy/mynewt/stm32bluepill-mynewt-sensor/src/base.rs:18
        console_buffer(msg.as_ptr(), len as u32);
  7a:	f240 0000 	movw	r0, #0
  7e:	2119      	movs	r1, #25
  80:	f2c0 0000 	movt	r0, #0
_ZN5mylib13listen_sensor15get_temperature17hb27ff2b3fa62abbdE():
/Users/Luppy/mynewt/stm32bluepill-mynewt-sensor/src/listen_sensor.rs:137

            //  Raw temperature data is valid.  Copy and display it.
            return_value.val = SensorValueType::Uint(rawtempdata.strd_temp_raw);  //  Raw Temperature in integer (0 to 4095)
  84:	f8dd 8034 	ldr.w	r8, [sp, #52]	; 0x34
_ZN5mylib4base13console_print17h9f639099b2e23571E():
/Users/Luppy/mynewt/stm32bluepill-mynewt-sensor/src/base.rs:18
  88:	f7ff fffe 	bl	0 <console_buffer>
/Users/Luppy/mynewt/stm32bluepill-mynewt-sensor/src/base.rs:19
        console_flush();  //  TODO: Remove this.
  8c:	f7ff fffe 	bl	0 <console_flush>
  90:	2501      	movs	r5, #1
  92:	e011      	b.n	b8 <_ZN5mylib13listen_sensor16read_temperature17h13ad632178bb9e10E+0xb8>
_ZN5mylib13listen_sensor15get_temperature17hb27ff2b3fa62abbdE():
  94:	a90d      	add	r1, sp, #52	; 0x34
/Users/Luppy/mynewt/stm32bluepill-mynewt-sensor/src/listen_sensor.rs:142
            console_print(b"TMP listener got rawtmp \n");  // return_value->int_val);
        },
        SENSOR_TYPE_AMBIENT_TEMPERATURE => {      //  If this is computed temperature...
            //  Interpret the sensor data as a sensor_temp_data struct that contains computed temp.
            let mut tempdata = fill_zero!(sensor_temp_data);
  96:	f88d 0038 	strb.w	r0, [sp, #56]	; 0x38
  9a:	900d      	str	r0, [sp, #52]	; 0x34
/Users/Luppy/mynewt/stm32bluepill-mynewt-sensor/src/listen_sensor.rs:143
            let rc = unsafe { get_temp_data(sensor_data, &mut tempdata) };
  9c:	4620      	mov	r0, r4
  9e:	f7ff fffe 	bl	0 <get_temp_data>
/Users/Luppy/mynewt/stm32bluepill-mynewt-sensor/src/listen_sensor.rs:144
            assert!(rc == 0);
  a2:	2800      	cmp	r0, #0
  a4:	f040 817a 	bne.w	39c <_ZN5mylib13listen_sensor16read_temperature17h13ad632178bb9e10E+0x39c>
  a8:	f89d 0038 	ldrb.w	r0, [sp, #56]	; 0x38
/Users/Luppy/mynewt/stm32bluepill-mynewt-sensor/src/listen_sensor.rs:147

            //  Check that the computed temperature data is valid.
            if tempdata.std_temp_is_valid() == 0 { return return_value; }  //  Exit if data is not valid
  ac:	07c0      	lsls	r0, r0, #31
  ae:	f000 8167 	beq.w	380 <_ZN5mylib13listen_sensor16read_temperature17h13ad632178bb9e10E+0x380>
/Users/Luppy/mynewt/stm32bluepill-mynewt-sensor/src/listen_sensor.rs:150

            //  Computed temperature data is valid.  Copy and display it.
            return_value.val = SensorValueType::Float(tempdata.std_temp);  //  Temperature in floating point.
  b2:	f8dd 8034 	ldr.w	r8, [sp, #52]	; 0x34
  b6:	2502      	movs	r5, #2
_ZN5mylib4base13console_print17h9f639099b2e23571E():
/Users/Luppy/mynewt/stm32bluepill-mynewt-sensor/src/base.rs:18
        console_buffer(msg.as_ptr(), len as u32);
  b8:	f240 0000 	movw	r0, #0
  bc:	2111      	movs	r1, #17
  be:	f2c0 0000 	movt	r0, #0
  c2:	f7ff fffe 	bl	0 <console_buffer>
/Users/Luppy/mynewt/stm32bluepill-mynewt-sensor/src/base.rs:19
        console_flush();  //  TODO: Remove this.
  c6:	f7ff fffe 	bl	0 <console_flush>
  ca:	2000      	movs	r0, #0
_ZN5mylib9send_coap16send_sensor_data17he6a388a4514df75aE():
/Users/Luppy/mynewt/stm32bluepill-mynewt-sensor/src/send_coap.rs:124
pub fn send_sensor_data(sensor_val: &SensorValue, sensor_node: &CStr) -> MynewtResult<()>  {  //  Returns an error code upon error.
    console_print(b"send_sensor_data\n");
    //  TODO: Remove val
    let mut val = fill_zero!(sensor_value);
    //  For Sensor Node: Transmit the sensor data to the Collector Node as CBOR.
    if unsafe { sensor_network::should_send_to_collector(&mut val, sensor_node.as_ptr()) } { 
  cc:	4631      	mov	r1, r6
/Users/Luppy/mynewt/stm32bluepill-mynewt-sensor/src/send_coap.rs:122
    let mut val = fill_zero!(sensor_value);
  ce:	e9cd 0006 	strd	r0, r0, [sp, #24]
  d2:	e9cd 0004 	strd	r0, r0, [sp, #16]
  d6:	a804      	add	r0, sp, #16
/Users/Luppy/mynewt/stm32bluepill-mynewt-sensor/src/send_coap.rs:124
    if unsafe { sensor_network::should_send_to_collector(&mut val, sensor_node.as_ptr()) } { 
  d8:	f7ff fffe 	bl	0 <should_send_to_collector>
  dc:	2800      	cmp	r0, #0
  de:	d049      	beq.n	174 <_ZN5mylib13listen_sensor16read_temperature17h13ad632178bb9e10E+0x174>
_ZN5mylib9send_coap29send_sensor_data_to_collector17haca92f7462efc927E():
/Users/Luppy/mynewt/stm32bluepill-mynewt-sensor/src/send_coap.rs:203
///  to be transmitted.  Return 0 if successful, `SYS_EAGAIN` if network is not ready yet.
///  The CoAP payload needs to be very compact (under 32 bytes) so it will be encoded in CBOR like this:
///  `{ t: 2870 }`
fn send_sensor_data_to_collector(sensor_val: &SensorValue, _node_id: &CStr) -> MynewtResult<()>  {  //  Returns an error code upon error.
    ////  TODO: if let SensorValueType::None = sensor_val.val { assert!(false); }
    if unsafe { !NETWORK_IS_READY } { return Err(MynewtError::SYS_EAGAIN); }  //  If network is not ready, tell caller (Sensor Listener) to try later.
  e0:	f240 0400 	movw	r4, #0
  e4:	f2c0 0400 	movt	r4, #0
  e8:	7820      	ldrb	r0, [r4, #0]
  ea:	2801      	cmp	r0, #1
  ec:	f040 8130 	bne.w	350 <_ZN5mylib13listen_sensor16read_temperature17h13ad632178bb9e10E+0x350>
/Users/Luppy/mynewt/stm32bluepill-mynewt-sensor/src/send_coap.rs:208

    //  Start composing the CoAP Collector message with the sensor data in the payload.  This will 
    //  block other tasks from composing and posting CoAP messages (through a semaphore).
    //  We only have 1 memory buffer for composing CoAP messages so it needs to be locked.
    let rc = unsafe { sensor_network::init_collector_post() };  assert!(rc);
  f0:	f7ff fffe 	bl	0 <init_collector_post>
  f4:	2800      	cmp	r0, #0
  f6:	f000 81bd 	beq.w	474 <_ZN5mylib13listen_sensor16read_temperature17h13ad632178bb9e10E+0x474>
/Users/Luppy/mynewt/stm32bluepill-mynewt-sensor/src/send_coap.rs:211

    //  Compose the CoAP Payload in CBOR using the `coap!()` macro.
    let _payload = coap!(@cbor {
  fa:	f240 0000 	movw	r0, #0
  fe:	f240 0100 	movw	r1, #0
 102:	f2c0 0000 	movt	r0, #0
 106:	f2c0 0100 	movt	r1, #0
 10a:	f04f 32ff 	mov.w	r2, #4294967295	; 0xffffffff
 10e:	f7ff fffe 	bl	0 <cbor_encoder_create_map>
 112:	2d01      	cmp	r5, #1
 114:	f040 817c 	bne.w	410 <_ZN5mylib13listen_sensor16read_temperature17h13ad632178bb9e10E+0x410>
 118:	2674      	movs	r6, #116	; 0x74
 11a:	f240 0500 	movw	r5, #0
_ZN4core10intrinsics19copy_nonoverlapping17h89c97ec5f88ddedaE():
/rustc/50a0defd5a93523067ef239936cc2e0755220904/src/libcore/intrinsics.rs:1412
 11e:	f824 6f01 	strh.w	r6, [r4, #1]!
_ZN5mylib9send_coap29send_sensor_data_to_collector17haca92f7462efc927E():
/Users/Luppy/mynewt/stm32bluepill-mynewt-sensor/src/send_coap.rs:211
 122:	f2c0 0500 	movt	r5, #0
 126:	4628      	mov	r0, r5
 128:	2201      	movs	r2, #1
 12a:	4621      	mov	r1, r4
 12c:	f7ff fffe 	bl	0 <cbor_encode_text_string>
 130:	4628      	mov	r0, r5
 132:	4642      	mov	r2, r8
 134:	2300      	movs	r3, #0
 136:	f7ff fffe 	bl	0 <cbor_encode_int>
 13a:	4628      	mov	r0, r5
 13c:	4621      	mov	r1, r4
 13e:	2201      	movs	r2, #1
_ZN4core10intrinsics19copy_nonoverlapping17h89c97ec5f88ddedaE():
/rustc/50a0defd5a93523067ef239936cc2e0755220904/src/libcore/intrinsics.rs:1412
 140:	8026      	strh	r6, [r4, #0]
_ZN5mylib9send_coap29send_sensor_data_to_collector17haca92f7462efc927E():
/Users/Luppy/mynewt/stm32bluepill-mynewt-sensor/src/send_coap.rs:211
 142:	f7ff fffe 	bl	0 <cbor_encode_text_string>
 146:	4628      	mov	r0, r5
 148:	4642      	mov	r2, r8
 14a:	2300      	movs	r3, #0
 14c:	f7ff fffe 	bl	0 <cbor_encode_int>
 150:	f240 0000 	movw	r0, #0
 154:	4629      	mov	r1, r5
 156:	f2c0 0000 	movt	r0, #0
 15a:	f7ff fffe 	bl	0 <cbor_encoder_close_container>
/Users/Luppy/mynewt/stm32bluepill-mynewt-sensor/src/send_coap.rs:219
    });

    //  Post the CoAP Collector message to the CoAP Background Task for transmission.  After posting the
    //  message to the background task, we release a semaphore that unblocks other requests
    //  to compose and post CoAP messages.
    let rc = unsafe { sensor_network::do_collector_post() };  assert!(rc);
 15e:	f7ff fffe 	bl	0 <do_collector_post>
 162:	2800      	cmp	r0, #0
 164:	f000 818d 	beq.w	482 <_ZN5mylib13listen_sensor16read_temperature17h13ad632178bb9e10E+0x482>
_ZN5mylib4base13console_print17h9f639099b2e23571E():
/Users/Luppy/mynewt/stm32bluepill-mynewt-sensor/src/base.rs:18
        console_buffer(msg.as_ptr(), len as u32);
 168:	f240 0000 	movw	r0, #0
 16c:	2121      	movs	r1, #33	; 0x21
 16e:	f2c0 0000 	movt	r0, #0
 172:	e0e5      	b.n	340 <_ZN5mylib13listen_sensor16read_temperature17h13ad632178bb9e10E+0x340>
_ZN9cstr_core4CStr8to_bytes17h01698a6d2c5e5247E():
/Users/Luppy/.cargo/registry/src/github.com-1ecc6299db9ec823/cstr_core-0.1.2/src/lib.rs:1033
    /// assert_eq!(c_str.to_bytes(), b"foo");
    /// ```
    #[inline]
    pub fn to_bytes(&self) -> &[u8] {
        let bytes = self.to_bytes_with_nul();
        &bytes[..bytes.len() - 1]
 174:	f1aa 0001 	sub.w	r0, sl, #1
_ZN99_$LT$core..ops..range..Range$LT$usize$GT$$u20$as$u20$core..slice..SliceIndex$LT$$u5b$T$u5d$$GT$$GT$5index17hfecd28e8f69c8b54E():
/rustc/50a0defd5a93523067ef239936cc2e0755220904/src/libcore/slice/mod.rs:2745
 178:	f1ba 0f00 	cmp.w	sl, #0
 17c:	f000 8115 	beq.w	3aa <_ZN5mylib13listen_sensor16read_temperature17h13ad632178bb9e10E+0x3aa>
_ZN5mylib9send_coap26send_sensor_data_to_server17he38f56a391c40f2aE():
/Users/Luppy/mynewt/stm32bluepill-mynewt-sensor/src/send_coap.rs:152
    assert_ne!(node_id.to_bytes()[0], 0);
 180:	2800      	cmp	r0, #0
 182:	f000 8116 	beq.w	3b2 <_ZN5mylib13listen_sensor16read_temperature17h13ad632178bb9e10E+0x3b2>
 186:	7831      	ldrb	r1, [r6, #0]
 188:	2900      	cmp	r1, #0
 18a:	f000 811b 	beq.w	3c4 <_ZN5mylib13listen_sensor16read_temperature17h13ad632178bb9e10E+0x3c4>
/Users/Luppy/mynewt/stm32bluepill-mynewt-sensor/src/send_coap.rs:153
    if unsafe { !NETWORK_IS_READY } { return Err(MynewtError::SYS_EAGAIN); }  //  If network is not ready, tell caller (Sensor Listener) to try later.
 18e:	f240 0700 	movw	r7, #0
 192:	f2c0 0700 	movt	r7, #0
 196:	7839      	ldrb	r1, [r7, #0]
 198:	2901      	cmp	r1, #1
 19a:	f040 80d9 	bne.w	350 <_ZN5mylib13listen_sensor16read_temperature17h13ad632178bb9e10E+0x350>
 19e:	a901      	add	r1, sp, #4
 1a0:	e881 0121 	stmia.w	r1, {r0, r5, r8}
/Users/Luppy/mynewt/stm32bluepill-mynewt-sensor/src/send_coap.rs:154
    let device_id_ptr = unsafe { sensor_network::get_device_id() };
 1a4:	f7ff fffe 	bl	0 <get_device_id>
/Users/Luppy/mynewt/stm32bluepill-mynewt-sensor/src/send_coap.rs:155
    let device_id: &CStr = unsafe { CStr::from_ptr(device_id_ptr) };
 1a8:	f7ff fffe 	bl	0 <_ZN9cstr_core4CStr8from_ptr17h8dd780023dafede8E>
 1ac:	4683      	mov	fp, r0
/Users/Luppy/mynewt/stm32bluepill-mynewt-sensor/src/send_coap.rs:160
    let rc = unsafe { sensor_network::init_server_post(0 as *const c_char) };  assert!(rc);
 1ae:	2000      	movs	r0, #0
/Users/Luppy/mynewt/stm32bluepill-mynewt-sensor/src/send_coap.rs:155
    let device_id: &CStr = unsafe { CStr::from_ptr(device_id_ptr) };
 1b0:	4688      	mov	r8, r1
 1b2:	2400      	movs	r4, #0
/Users/Luppy/mynewt/stm32bluepill-mynewt-sensor/src/send_coap.rs:160
    let rc = unsafe { sensor_network::init_server_post(0 as *const c_char) };  assert!(rc);
 1b4:	f7ff fffe 	bl	0 <init_server_post>
 1b8:	2800      	cmp	r0, #0
 1ba:	f000 8169 	beq.w	490 <_ZN5mylib13listen_sensor16read_temperature17h13ad632178bb9e10E+0x490>
/Users/Luppy/mynewt/stm32bluepill-mynewt-sensor/src/send_coap.rs:163
    let _payload = coap!(@json {
 1be:	f7ff fffe 	bl	0 <json_rep_start_root_object>
 1c2:	f107 0901 	add.w	r9, r7, #1
 1c6:	f240 0100 	movw	r1, #0
 1ca:	f2c0 0100 	movt	r1, #0
 1ce:	4648      	mov	r0, r9
 1d0:	f7ff fffe 	bl	0 <json_helper_set_array>
 1d4:	f240 0000 	movw	r0, #0
 1d8:	f2c0 0000 	movt	r0, #0
 1dc:	f7ff fffe 	bl	0 <json_helper_object_array_start_item>
_ZN4core10intrinsics19copy_nonoverlapping17h89c97ec5f88ddedaE():
/rustc/50a0defd5a93523067ef239936cc2e0755220904/src/libcore/intrinsics.rs:1412
 1e0:	f240 0000 	movw	r0, #0
 1e4:	f107 0521 	add.w	r5, r7, #33	; 0x21
 1e8:	f2c0 0000 	movt	r0, #0
_ZN5mylib6mynewt8encoding12json_context11JsonContext13value_to_cstr17h95f16abef86ecc11E():
/Users/Luppy/mynewt/stm32bluepill-mynewt-sensor/src/mynewt/encoding/json_context.rs:89
        self.value_buffer[s.len()] = 0;
 1ec:	f887 4027 	strb.w	r4, [r7, #39]	; 0x27
_ZN4core10intrinsics19copy_nonoverlapping17h89c97ec5f88ddedaE():
/rustc/50a0defd5a93523067ef239936cc2e0755220904/src/libcore/intrinsics.rs:1412
 1f0:	8881      	ldrh	r1, [r0, #4]
_ZN5mylib9send_coap26send_sensor_data_to_server17he38f56a391c40f2aE():
/Users/Luppy/mynewt/stm32bluepill-mynewt-sensor/src/send_coap.rs:163
 1f2:	462a      	mov	r2, r5
_ZN4core10intrinsics19copy_nonoverlapping17h89c97ec5f88ddedaE():
/rustc/50a0defd5a93523067ef239936cc2e0755220904/src/libcore/intrinsics.rs:1412
 1f4:	f8a7 1025 	strh.w	r1, [r7, #37]	; 0x25
_ZN5mylib9send_coap26send_sensor_data_to_server17he38f56a391c40f2aE():
/Users/Luppy/mynewt/stm32bluepill-mynewt-sensor/src/send_coap.rs:163
 1f8:	f240 0100 	movw	r1, #0
_ZN4core10intrinsics19copy_nonoverlapping17h89c97ec5f88ddedaE():
/rustc/50a0defd5a93523067ef239936cc2e0755220904/src/libcore/intrinsics.rs:1412
 1fc:	6800      	ldr	r0, [r0, #0]
_ZN5mylib9send_coap26send_sensor_data_to_server17he38f56a391c40f2aE():
/Users/Luppy/mynewt/stm32bluepill-mynewt-sensor/src/send_coap.rs:163
 1fe:	f2c0 0100 	movt	r1, #0
_ZN4core10intrinsics19copy_nonoverlapping17h89c97ec5f88ddedaE():
/rustc/50a0defd5a93523067ef239936cc2e0755220904/src/libcore/intrinsics.rs:1412
 202:	f8c7 0021 	str.w	r0, [r7, #33]	; 0x21
_ZN5mylib9send_coap26send_sensor_data_to_server17he38f56a391c40f2aE():
/Users/Luppy/mynewt/stm32bluepill-mynewt-sensor/src/send_coap.rs:163
 206:	4648      	mov	r0, r9
 208:	f7ff fffe 	bl	0 <json_helper_set_text_string>
_ZN4core3num23_$LT$impl$u20$usize$GT$15overflowing_sub17h3d9756556b058eb6E():
/rustc/50a0defd5a93523067ef239936cc2e0755220904/src/libcore/num/mod.rs:3377
 20c:	f1b8 0f01 	cmp.w	r8, #1
_ZN70_$LT$core..option..Option$LT$T$GT$$u20$as$u20$core..cmp..PartialEq$GT$2eq17h1f775aa97d82141bE():
/rustc/50a0defd5a93523067ef239936cc2e0755220904/src/libcore/option.rs:148
 210:	d306      	bcc.n	220 <_ZN5mylib13listen_sensor16read_temperature17h13ad632178bb9e10E+0x220>
_ZN5mylib6mynewt8encoding12json_context11JsonContext13value_to_cstr17h95f16abef86ecc11E():
 212:	f1a8 0001 	sub.w	r0, r8, #1
_ZN70_$LT$core..option..Option$LT$T$GT$$u20$as$u20$core..cmp..PartialEq$GT$2eq17h1f775aa97d82141bE():
/rustc/50a0defd5a93523067ef239936cc2e0755220904/src/libcore/option.rs:148
 216:	4540      	cmp	r0, r8
 218:	d202      	bcs.n	220 <_ZN5mylib13listen_sensor16read_temperature17h13ad632178bb9e10E+0x220>
_ZN5mylib6mynewt8encoding12json_context11JsonContext13value_to_cstr17h95f16abef86ecc11E():
 21a:	f81b 0000 	ldrb.w	r0, [fp, r0]
/Users/Luppy/mynewt/stm32bluepill-mynewt-sensor/src/mynewt/encoding/json_context.rs:85
        if s.last() == Some(&0) { return s.as_ptr() as *const c_char; }
 21e:	b160      	cbz	r0, 23a <_ZN5mylib13listen_sensor16read_temperature17h13ad632178bb9e10E+0x23a>
/Users/Luppy/mynewt/stm32bluepill-mynewt-sensor/src/mynewt/encoding/json_context.rs:87
        assert!(s.len() < JSON_VALUE_SIZE);  //  Value too long
 220:	f1b8 0f20 	cmp.w	r8, #32
 224:	f080 811f 	bcs.w	466 <_ZN5mylib13listen_sensor16read_temperature17h13ad632178bb9e10E+0x466>
_ZN4core10intrinsics19copy_nonoverlapping17h89c97ec5f88ddedaE():
/rustc/50a0defd5a93523067ef239936cc2e0755220904/src/libcore/intrinsics.rs:1412
 228:	4628      	mov	r0, r5
 22a:	4659      	mov	r1, fp
 22c:	4642      	mov	r2, r8
 22e:	f7ff fffe 	bl	0 <__aeabi_memcpy>
 232:	2000      	movs	r0, #0
_ZN5mylib6mynewt8encoding12json_context11JsonContext13value_to_cstr17h95f16abef86ecc11E():
 234:	46ab      	mov	fp, r5
/Users/Luppy/mynewt/stm32bluepill-mynewt-sensor/src/mynewt/encoding/json_context.rs:89
        self.value_buffer[s.len()] = 0;
 236:	f805 0008 	strb.w	r0, [r5, r8]
_ZN5mylib9send_coap26send_sensor_data_to_server17he38f56a391c40f2aE():
/Users/Luppy/mynewt/stm32bluepill-mynewt-sensor/src/send_coap.rs:163
 23a:	f240 0100 	movw	r1, #0
 23e:	4648      	mov	r0, r9
 240:	f2c0 0100 	movt	r1, #0
 244:	465a      	mov	r2, fp
 246:	f7ff fffe 	bl	0 <json_helper_set_text_string>
 24a:	f240 0400 	movw	r4, #0
 24e:	f2c0 0400 	movt	r4, #0
 252:	4620      	mov	r0, r4
 254:	f7ff fffe 	bl	0 <json_helper_object_array_end_item>
 258:	4620      	mov	r0, r4
 25a:	f7ff fffe 	bl	0 <json_helper_object_array_start_item>
 25e:	f646 706e 	movw	r0, #28526	; 0x6f6e
_ZN4core10intrinsics19copy_nonoverlapping17h89c97ec5f88ddedaE():
/rustc/50a0defd5a93523067ef239936cc2e0755220904/src/libcore/intrinsics.rs:1412
 262:	463a      	mov	r2, r7
 264:	f2c6 5064 	movt	r0, #25956	; 0x6564
_ZN5mylib9send_coap26send_sensor_data_to_server17he38f56a391c40f2aE():
/Users/Luppy/mynewt/stm32bluepill-mynewt-sensor/src/send_coap.rs:163
 268:	f240 0100 	movw	r1, #0
_ZN4core10intrinsics19copy_nonoverlapping17h89c97ec5f88ddedaE():
/rustc/50a0defd5a93523067ef239936cc2e0755220904/src/libcore/intrinsics.rs:1412
 26c:	f842 0f21 	str.w	r0, [r2, #33]!
 270:	2000      	movs	r0, #0
_ZN5mylib9send_coap26send_sensor_data_to_server17he38f56a391c40f2aE():
/Users/Luppy/mynewt/stm32bluepill-mynewt-sensor/src/send_coap.rs:163
 272:	f2c0 0100 	movt	r1, #0
_ZN5mylib6mynewt8encoding12json_context11JsonContext13value_to_cstr17h95f16abef86ecc11E():
/Users/Luppy/mynewt/stm32bluepill-mynewt-sensor/src/mynewt/encoding/json_context.rs:89
 276:	7110      	strb	r0, [r2, #4]
_ZN5mylib9send_coap26send_sensor_data_to_server17he38f56a391c40f2aE():
/Users/Luppy/mynewt/stm32bluepill-mynewt-sensor/src/send_coap.rs:163
 278:	4648      	mov	r0, r9
 27a:	f7ff fffe 	bl	0 <json_helper_set_text_string>
 27e:	9801      	ldr	r0, [sp, #4]
 280:	5c30      	ldrb	r0, [r6, r0]
_ZN5mylib6mynewt8encoding12json_context11JsonContext13value_to_cstr17h95f16abef86ecc11E():
/Users/Luppy/mynewt/stm32bluepill-mynewt-sensor/src/mynewt/encoding/json_context.rs:85
        if s.last() == Some(&0) { return s.as_ptr() as *const c_char; }
 282:	b160      	cbz	r0, 29e <_ZN5mylib13listen_sensor16read_temperature17h13ad632178bb9e10E+0x29e>
/Users/Luppy/mynewt/stm32bluepill-mynewt-sensor/src/mynewt/encoding/json_context.rs:87
        assert!(s.len() < JSON_VALUE_SIZE);  //  Value too long
 284:	f1ba 0f20 	cmp.w	sl, #32
 288:	f080 80ed 	bcs.w	466 <_ZN5mylib13listen_sensor16read_temperature17h13ad632178bb9e10E+0x466>
_ZN4core10intrinsics19copy_nonoverlapping17h89c97ec5f88ddedaE():
/rustc/50a0defd5a93523067ef239936cc2e0755220904/src/libcore/intrinsics.rs:1412
 28c:	4628      	mov	r0, r5
 28e:	4631      	mov	r1, r6
 290:	4652      	mov	r2, sl
 292:	f7ff fffe 	bl	0 <__aeabi_memcpy>
 296:	2000      	movs	r0, #0
_ZN5mylib6mynewt8encoding12json_context11JsonContext13value_to_cstr17h95f16abef86ecc11E():
 298:	462e      	mov	r6, r5
/Users/Luppy/mynewt/stm32bluepill-mynewt-sensor/src/mynewt/encoding/json_context.rs:89
        self.value_buffer[s.len()] = 0;
 29a:	f805 000a 	strb.w	r0, [r5, sl]
_ZN5mylib9send_coap26send_sensor_data_to_server17he38f56a391c40f2aE():
/Users/Luppy/mynewt/stm32bluepill-mynewt-sensor/src/send_coap.rs:163
 29e:	f240 0100 	movw	r1, #0
 2a2:	4648      	mov	r0, r9
 2a4:	f2c0 0100 	movt	r1, #0
 2a8:	4632      	mov	r2, r6
 2aa:	f7ff fffe 	bl	0 <json_helper_set_text_string>
 2ae:	f240 0000 	movw	r0, #0
 2b2:	f2c0 0000 	movt	r0, #0
 2b6:	f7ff fffe 	bl	0 <json_helper_object_array_end_item>
 2ba:	9802      	ldr	r0, [sp, #8]
 2bc:	2801      	cmp	r0, #1
 2be:	f040 80a7 	bne.w	410 <_ZN5mylib13listen_sensor16read_temperature17h13ad632178bb9e10E+0x410>
 2c2:	f240 0400 	movw	r4, #0
 2c6:	f2c0 0400 	movt	r4, #0
 2ca:	4620      	mov	r0, r4
 2cc:	f7ff fffe 	bl	0 <json_helper_object_array_start_item>
_ZN4core10intrinsics19copy_nonoverlapping17h89c97ec5f88ddedaE():
/rustc/50a0defd5a93523067ef239936cc2e0755220904/src/libcore/intrinsics.rs:1412
 2d0:	f240 0000 	movw	r0, #0
 2d4:	2500      	movs	r5, #0
 2d6:	f2c0 0000 	movt	r0, #0
 2da:	8801      	ldrh	r1, [r0, #0]
 2dc:	f827 1f01 	strh.w	r1, [r7, #1]!
 2e0:	7880      	ldrb	r0, [r0, #2]
 2e2:	70b8      	strb	r0, [r7, #2]
 2e4:	2074      	movs	r0, #116	; 0x74
 2e6:	463a      	mov	r2, r7
_ZN5mylib6mynewt8encoding12json_context11JsonContext11key_to_cstr17he6492d06b1b03e3cE():
/Users/Luppy/mynewt/stm32bluepill-mynewt-sensor/src/mynewt/encoding/json_context.rs:76
        self.key_buffer[s.len()] = 0;
 2e8:	70fd      	strb	r5, [r7, #3]
_ZN4core10intrinsics19copy_nonoverlapping17h89c97ec5f88ddedaE():
/rustc/50a0defd5a93523067ef239936cc2e0755220904/src/libcore/intrinsics.rs:1412
 2ea:	f822 0f20 	strh.w	r0, [r2, #32]!
_ZN5mylib9send_coap26send_sensor_data_to_server17he38f56a391c40f2aE():
/Users/Luppy/mynewt/stm32bluepill-mynewt-sensor/src/send_coap.rs:163
 2ee:	4638      	mov	r0, r7
 2f0:	4639      	mov	r1, r7
 2f2:	f7ff fffe 	bl	0 <json_helper_set_text_string>
_ZN4core10intrinsics19copy_nonoverlapping17h89c97ec5f88ddedaE():
/rustc/50a0defd5a93523067ef239936cc2e0755220904/src/libcore/intrinsics.rs:1412
 2f6:	f240 0000 	movw	r0, #0
_ZN5mylib9send_coap26send_sensor_data_to_server17he38f56a391c40f2aE():
/Users/Luppy/mynewt/stm32bluepill-mynewt-sensor/src/send_coap.rs:163
 2fa:	9a03      	ldr	r2, [sp, #12]
_ZN4core10intrinsics19copy_nonoverlapping17h89c97ec5f88ddedaE():
/rustc/50a0defd5a93523067ef239936cc2e0755220904/src/libcore/intrinsics.rs:1412
 2fc:	f2c0 0000 	movt	r0, #0
_ZN5mylib6mynewt8encoding12json_context11JsonContext11key_to_cstr17he6492d06b1b03e3cE():
/Users/Luppy/mynewt/stm32bluepill-mynewt-sensor/src/mynewt/encoding/json_context.rs:76
 300:	717d      	strb	r5, [r7, #5]
_ZN4core10intrinsics19copy_nonoverlapping17h89c97ec5f88ddedaE():
/rustc/50a0defd5a93523067ef239936cc2e0755220904/src/libcore/intrinsics.rs:1412
 302:	7901      	ldrb	r1, [r0, #4]
_ZN5mylib9send_coap26send_sensor_data_to_server17he38f56a391c40f2aE():
/Users/Luppy/mynewt/stm32bluepill-mynewt-sensor/src/send_coap.rs:163
 304:	2300      	movs	r3, #0
_ZN4core10intrinsics19copy_nonoverlapping17h89c97ec5f88ddedaE():
/rustc/50a0defd5a93523067ef239936cc2e0755220904/src/libcore/intrinsics.rs:1412
 306:	6800      	ldr	r0, [r0, #0]
 308:	7139      	strb	r1, [r7, #4]
_ZN5mylib9send_coap26send_sensor_data_to_server17he38f56a391c40f2aE():
/Users/Luppy/mynewt/stm32bluepill-mynewt-sensor/src/send_coap.rs:163
 30a:	4639      	mov	r1, r7
_ZN4core10intrinsics19copy_nonoverlapping17h89c97ec5f88ddedaE():
/rustc/50a0defd5a93523067ef239936cc2e0755220904/src/libcore/intrinsics.rs:1412
 30c:	6038      	str	r0, [r7, #0]
_ZN5mylib9send_coap26send_sensor_data_to_server17he38f56a391c40f2aE():
/Users/Luppy/mynewt/stm32bluepill-mynewt-sensor/src/send_coap.rs:163
 30e:	4638      	mov	r0, r7
 310:	f7ff fffe 	bl	0 <json_helper_set_int>
 314:	4620      	mov	r0, r4
 316:	f7ff fffe 	bl	0 <json_helper_object_array_end_item>
 31a:	f240 0100 	movw	r1, #0
 31e:	4638      	mov	r0, r7
 320:	f2c0 0100 	movt	r1, #0
 324:	f7ff fffe 	bl	0 <json_helper_close_array>
 328:	f7ff fffe 	bl	0 <json_rep_end_root_object>
/Users/Luppy/mynewt/stm32bluepill-mynewt-sensor/src/send_coap.rs:179
    let rc = unsafe { sensor_network::do_server_post() };  assert!(rc);
 32c:	f7ff fffe 	bl	0 <do_server_post>
 330:	2800      	cmp	r0, #0
 332:	f000 80b4 	beq.w	49e <_ZN5mylib13listen_sensor16read_temperature17h13ad632178bb9e10E+0x49e>
_ZN5mylib4base13console_print17h9f639099b2e23571E():
/Users/Luppy/mynewt/stm32bluepill-mynewt-sensor/src/base.rs:18
 336:	f240 0000 	movw	r0, #0
 33a:	214b      	movs	r1, #75	; 0x4b
 33c:	f2c0 0000 	movt	r0, #0
_ZN5mylib9send_coap16send_sensor_data17he6a388a4514df75aE():
 340:	f7ff fffe 	bl	0 <console_buffer>
 344:	f7ff fffe 	bl	0 <console_flush>
 348:	2001      	movs	r0, #1
_ZN5mylib13listen_sensor16read_temperature17h13ad632178bb9e10E():
/Users/Luppy/mynewt/stm32bluepill-mynewt-sensor/src/listen_sensor.rs:109
    if let Err(err) = rc {  //  `if let` will assign `err` to the error code inside `rc`
 34a:	3006      	adds	r0, #6
 34c:	d10d      	bne.n	36a <_ZN5mylib13listen_sensor16read_temperature17h13ad632178bb9e10E+0x36a>
 34e:	e003      	b.n	358 <_ZN5mylib13listen_sensor16read_temperature17h13ad632178bb9e10E+0x358>
 350:	f06f 0005 	mvn.w	r0, #5
 354:	3006      	adds	r0, #6
 356:	d108      	bne.n	36a <_ZN5mylib13listen_sensor16read_temperature17h13ad632178bb9e10E+0x36a>
_ZN5mylib4base13console_print17h9f639099b2e23571E():
/Users/Luppy/mynewt/stm32bluepill-mynewt-sensor/src/base.rs:18
 358:	f240 0000 	movw	r0, #0
 35c:	2116      	movs	r1, #22
 35e:	f2c0 0000 	movt	r0, #0
 362:	f7ff fffe 	bl	0 <console_buffer>
/Users/Luppy/mynewt/stm32bluepill-mynewt-sensor/src/base.rs:19
        console_flush();  //  TODO: Remove this.
 366:	f7ff fffe 	bl	0 <console_flush>
_ZN5mylib13listen_sensor16read_temperature17h13ad632178bb9e10E():
 36a:	2000      	movs	r0, #0
/Users/Luppy/mynewt/stm32bluepill-mynewt-sensor/src/listen_sensor.rs:117
}
 36c:	b015      	add	sp, #84	; 0x54
 36e:	e8bd 8ff0 	ldmia.w	sp!, {r4, r5, r6, r7, r8, r9, sl, fp, pc}
/Users/Luppy/mynewt/stm32bluepill-mynewt-sensor/src/listen_sensor.rs:87
    assert!(unsafe { !is_null_sensor(sensor) });
 372:	f240 0000 	movw	r0, #0
 376:	f2c0 0000 	movt	r0, #0
 37a:	f7ff fffe 	bl	0 <_ZN4core9panicking5panic17h53ca63c6ac6312f8E>
 37e:	defe      	udf	#254	; 0xfe
/Users/Luppy/mynewt/stm32bluepill-mynewt-sensor/src/listen_sensor.rs:99
    if let SensorValueType::None = temp_sensor_value.val { assert!(false); }  //  Invalid type
 380:	f240 0000 	movw	r0, #0
 384:	f2c0 0000 	movt	r0, #0
 388:	f7ff fffe 	bl	0 <_ZN4core9panicking5panic17h53ca63c6ac6312f8E>
 38c:	defe      	udf	#254	; 0xfe
_ZN5mylib13listen_sensor15get_temperature17hb27ff2b3fa62abbdE():
/Users/Luppy/mynewt/stm32bluepill-mynewt-sensor/src/listen_sensor.rs:131
            assert!(rc == 0);
 38e:	f240 0000 	movw	r0, #0
 392:	f2c0 0000 	movt	r0, #0
 396:	f7ff fffe 	bl	0 <_ZN4core9panicking5panic17h53ca63c6ac6312f8E>
 39a:	defe      	udf	#254	; 0xfe
/Users/Luppy/mynewt/stm32bluepill-mynewt-sensor/src/listen_sensor.rs:144
            assert!(rc == 0);
 39c:	f240 0000 	movw	r0, #0
 3a0:	f2c0 0000 	movt	r0, #0
 3a4:	f7ff fffe 	bl	0 <_ZN4core9panicking5panic17h53ca63c6ac6312f8E>
 3a8:	defe      	udf	#254	; 0xfe
_ZN99_$LT$core..ops..range..Range$LT$usize$GT$$u20$as$u20$core..slice..SliceIndex$LT$$u5b$T$u5d$$GT$$GT$5index17hfecd28e8f69c8b54E():
/rustc/50a0defd5a93523067ef239936cc2e0755220904/src/libcore/slice/mod.rs:2746
 3aa:	2100      	movs	r1, #0
 3ac:	f7ff fffe 	bl	0 <_ZN4core5slice20slice_index_len_fail17hedb5bb240677a6b7E>
 3b0:	defe      	udf	#254	; 0xfe
_ZN5mylib9send_coap26send_sensor_data_to_server17he38f56a391c40f2aE():
/Users/Luppy/mynewt/stm32bluepill-mynewt-sensor/src/send_coap.rs:152
    assert_ne!(node_id.to_bytes()[0], 0);
 3b2:	f240 0000 	movw	r0, #0
 3b6:	2100      	movs	r1, #0
 3b8:	f2c0 0000 	movt	r0, #0
 3bc:	2200      	movs	r2, #0
 3be:	f7ff fffe 	bl	0 <_ZN4core9panicking18panic_bounds_check17h946762cd0671aec9E>
 3c2:	defe      	udf	#254	; 0xfe
 3c4:	f240 0000 	movw	r0, #0
 3c8:	a914      	add	r1, sp, #80	; 0x50
 3ca:	f2c0 0000 	movt	r0, #0
 3ce:	9613      	str	r6, [sp, #76]	; 0x4c
 3d0:	900b      	str	r0, [sp, #44]	; 0x2c
 3d2:	e9cd 0109 	strd	r0, r1, [sp, #36]	; 0x24
 3d6:	a813      	add	r0, sp, #76	; 0x4c
 3d8:	9008      	str	r0, [sp, #32]
 3da:	f240 0000 	movw	r0, #0
 3de:	f2c0 0000 	movt	r0, #0
 3e2:	f240 0100 	movw	r1, #0
 3e6:	9014      	str	r0, [sp, #80]	; 0x50
 3e8:	2002      	movs	r0, #2
_ZN4core3fmt9Arguments6new_v117ha99294a9defa432aE():
/rustc/50a0defd5a93523067ef239936cc2e0755220904/src/libcore/fmt/mod.rs:316
 3ea:	9012      	str	r0, [sp, #72]	; 0x48
 3ec:	a808      	add	r0, sp, #32
 3ee:	9011      	str	r0, [sp, #68]	; 0x44
 3f0:	2000      	movs	r0, #0
 3f2:	e9cd 000f 	strd	r0, r0, [sp, #60]	; 0x3c
 3f6:	2003      	movs	r0, #3
 3f8:	900e      	str	r0, [sp, #56]	; 0x38
 3fa:	f240 0000 	movw	r0, #0
 3fe:	f2c0 0000 	movt	r0, #0
_ZN5mylib9send_coap26send_sensor_data_to_server17he38f56a391c40f2aE():
/Users/Luppy/mynewt/stm32bluepill-mynewt-sensor/src/send_coap.rs:152
 402:	f2c0 0100 	movt	r1, #0
_ZN4core3fmt9Arguments6new_v117ha99294a9defa432aE():
/rustc/50a0defd5a93523067ef239936cc2e0755220904/src/libcore/fmt/mod.rs:316
 406:	900d      	str	r0, [sp, #52]	; 0x34
 408:	a80d      	add	r0, sp, #52	; 0x34
_ZN5mylib9send_coap26send_sensor_data_to_server17he38f56a391c40f2aE():
/Users/Luppy/mynewt/stm32bluepill-mynewt-sensor/src/send_coap.rs:152
 40a:	f7ff fffe 	bl	0 <_ZN4core9panicking9panic_fmt17h6b4d8e87b0965449E>
 40e:	defe      	udf	#254	; 0xfe
_ZN5mylib9send_coap16send_sensor_data17he6a388a4514df75aE():
 410:	2001      	movs	r0, #1
 412:	a914      	add	r1, sp, #80	; 0x50
 414:	f88d 0033 	strb.w	r0, [sp, #51]	; 0x33
 418:	f10d 0033 	add.w	r0, sp, #51	; 0x33
 41c:	9013      	str	r0, [sp, #76]	; 0x4c
 41e:	f240 0000 	movw	r0, #0
 422:	f2c0 0000 	movt	r0, #0
 426:	900b      	str	r0, [sp, #44]	; 0x2c
 428:	910a      	str	r1, [sp, #40]	; 0x28
 42a:	f240 0100 	movw	r1, #0
 42e:	9009      	str	r0, [sp, #36]	; 0x24
 430:	a813      	add	r0, sp, #76	; 0x4c
 432:	9008      	str	r0, [sp, #32]
 434:	f240 0000 	movw	r0, #0
 438:	f2c0 0000 	movt	r0, #0
 43c:	f2c0 0100 	movt	r1, #0
 440:	9014      	str	r0, [sp, #80]	; 0x50
 442:	2002      	movs	r0, #2
 444:	9012      	str	r0, [sp, #72]	; 0x48
 446:	a808      	add	r0, sp, #32
 448:	9011      	str	r0, [sp, #68]	; 0x44
 44a:	2000      	movs	r0, #0
 44c:	9010      	str	r0, [sp, #64]	; 0x40
 44e:	900f      	str	r0, [sp, #60]	; 0x3c
 450:	2003      	movs	r0, #3
 452:	900e      	str	r0, [sp, #56]	; 0x38
 454:	f240 0000 	movw	r0, #0
 458:	f2c0 0000 	movt	r0, #0
 45c:	900d      	str	r0, [sp, #52]	; 0x34
 45e:	a80d      	add	r0, sp, #52	; 0x34
 460:	f7ff fffe 	bl	0 <_ZN4core9panicking9panic_fmt17h6b4d8e87b0965449E>
 464:	defe      	udf	#254	; 0xfe
_ZN5mylib9send_coap26send_sensor_data_to_server17he38f56a391c40f2aE():
 466:	f240 0000 	movw	r0, #0
 46a:	f2c0 0000 	movt	r0, #0
 46e:	f7ff fffe 	bl	0 <_ZN4core9panicking5panic17h53ca63c6ac6312f8E>
 472:	defe      	udf	#254	; 0xfe
_ZN5mylib9send_coap29send_sensor_data_to_collector17haca92f7462efc927E():
/Users/Luppy/mynewt/stm32bluepill-mynewt-sensor/src/send_coap.rs:208
    let rc = unsafe { sensor_network::init_collector_post() };  assert!(rc);
 474:	f240 0000 	movw	r0, #0
 478:	f2c0 0000 	movt	r0, #0
 47c:	f7ff fffe 	bl	0 <_ZN4core9panicking5panic17h53ca63c6ac6312f8E>
 480:	defe      	udf	#254	; 0xfe
/Users/Luppy/mynewt/stm32bluepill-mynewt-sensor/src/send_coap.rs:219
    let rc = unsafe { sensor_network::do_collector_post() };  assert!(rc);
 482:	f240 0000 	movw	r0, #0
 486:	f2c0 0000 	movt	r0, #0
 48a:	f7ff fffe 	bl	0 <_ZN4core9panicking5panic17h53ca63c6ac6312f8E>
 48e:	defe      	udf	#254	; 0xfe
_ZN5mylib9send_coap26send_sensor_data_to_server17he38f56a391c40f2aE():
/Users/Luppy/mynewt/stm32bluepill-mynewt-sensor/src/send_coap.rs:160
    let rc = unsafe { sensor_network::init_server_post(0 as *const c_char) };  assert!(rc);
 490:	f240 0000 	movw	r0, #0
 494:	f2c0 0000 	movt	r0, #0
 498:	f7ff fffe 	bl	0 <_ZN4core9panicking5panic17h53ca63c6ac6312f8E>
 49c:	defe      	udf	#254	; 0xfe
/Users/Luppy/mynewt/stm32bluepill-mynewt-sensor/src/send_coap.rs:179
    let rc = unsafe { sensor_network::do_server_post() };  assert!(rc);
 49e:	f240 0000 	movw	r0, #0
 4a2:	f2c0 0000 	movt	r0, #0
 4a6:	f7ff fffe 	bl	0 <_ZN4core9panicking5panic17h53ca63c6ac6312f8E>
 4aa:	defe      	udf	#254	; 0xfe

Disassembly of section .text._ZN5mylib9send_coap17network_task_func17h7d78f9e97e619160E:

00000000 <_ZN5mylib9send_coap17network_task_func17h7d78f9e97e619160E>:
_ZN5mylib9send_coap17network_task_func17h7d78f9e97e619160E():
/Users/Luppy/mynewt/stm32bluepill-mynewt-sensor/src/send_coap.rs:79
extern "C" fn network_task_func(_arg: *mut ::cty::c_void) {
   0:	b08e      	sub	sp, #56	; 0x38
_ZN5mylib4base13console_print17h9f639099b2e23571E():
/Users/Luppy/mynewt/stm32bluepill-mynewt-sensor/src/base.rs:18
        console_buffer(msg.as_ptr(), len as u32);
   2:	f240 0000 	movw	r0, #0
   6:	210a      	movs	r1, #10
   8:	f2c0 0000 	movt	r0, #0
   c:	f7ff fffe 	bl	0 <console_buffer>
/Users/Luppy/mynewt/stm32bluepill-mynewt-sensor/src/base.rs:19
        console_flush();  //  TODO: Remove this.
  10:	f7ff fffe 	bl	0 <console_flush>
_ZN5mylib9send_coap17network_task_func17h7d78f9e97e619160E():
/Users/Luppy/mynewt/stm32bluepill-mynewt-sensor/src/send_coap.rs:80
    console_print(b"NET start\n");  assert!(unsafe { !NETWORK_IS_READY });
  14:	f240 0400 	movw	r4, #0
  18:	f2c0 0400 	movt	r4, #0
  1c:	7820      	ldrb	r0, [r4, #0]
  1e:	2801      	cmp	r0, #1
  20:	d026      	beq.n	70 <_ZN5mylib9send_coap17network_task_func17h7d78f9e97e619160E+0x70>
/Users/Luppy/mynewt/stm32bluepill-mynewt-sensor/src/send_coap.rs:85
        sensor_network::is_standalone_node() || 
  22:	f7ff fffe 	bl	0 <is_standalone_node>
  26:	b910      	cbnz	r0, 8 <is_collector_node+0x8>
/Users/Luppy/mynewt/stm32bluepill-mynewt-sensor/src/send_coap.rs:86
        sensor_network::is_collector_node() 
  28:	f7ff fffe 	bl	0 <is_collector_node>
/Users/Luppy/mynewt/stm32bluepill-mynewt-sensor/src/send_coap.rs:84
    if unsafe { 
  2c:	b120      	cbz	r0, c <register_server_transport+0xc>
/Users/Luppy/mynewt/stm32bluepill-mynewt-sensor/src/send_coap.rs:88
        let rc = unsafe { sensor_network::register_server_transport() };  assert_eq!(rc, 0);
  2e:	f7ff fffe 	bl	0 <register_server_transport>
  32:	2800      	cmp	r0, #0
  34:	9001      	str	r0, [sp, #4]
  36:	d122      	bne.n	7e <_ZN5mylib9send_coap17network_task_func17h7d78f9e97e619160E+0x7e>
/Users/Luppy/mynewt/stm32bluepill-mynewt-sensor/src/send_coap.rs:93
        sensor_network::is_collector_node() || 
  38:	f7ff fffe 	bl	0 <is_collector_node>
  3c:	b910      	cbnz	r0, 8 <is_sensor_node+0x8>
/Users/Luppy/mynewt/stm32bluepill-mynewt-sensor/src/send_coap.rs:94
        sensor_network::is_sensor_node() 
  3e:	f7ff fffe 	bl	0 <is_sensor_node>
/Users/Luppy/mynewt/stm32bluepill-mynewt-sensor/src/send_coap.rs:92
    if unsafe { 
  42:	b120      	cbz	r0, c <register_collector_transport+0xc>
/Users/Luppy/mynewt/stm32bluepill-mynewt-sensor/src/send_coap.rs:96
        let rc = unsafe { sensor_network::register_collector_transport() };  assert_eq!(rc, 0);
  44:	f7ff fffe 	bl	0 <register_collector_transport>
  48:	2800      	cmp	r0, #0
  4a:	9001      	str	r0, [sp, #4]
  4c:	d13e      	bne.n	cc <_ZN5mylib9send_coap17network_task_func17h7d78f9e97e619160E+0xcc>
  4e:	2001      	movs	r0, #1
/Users/Luppy/mynewt/stm32bluepill-mynewt-sensor/src/send_coap.rs:101
    unsafe { NETWORK_IS_READY = true; }  //  Indicate that network is ready.
  50:	7020      	strb	r0, [r4, #0]
  52:	f240 0400 	movw	r4, #0
  56:	f2c0 0400 	movt	r4, #0
_ZN5mylib4base13console_print17h9f639099b2e23571E():
/Users/Luppy/mynewt/stm32bluepill-mynewt-sensor/src/base.rs:18
        console_buffer(msg.as_ptr(), len as u32);
  5a:	4620      	mov	r0, r4
  5c:	2111      	movs	r1, #17
  5e:	f7ff fffe 	bl	0 <console_buffer>
/Users/Luppy/mynewt/stm32bluepill-mynewt-sensor/src/base.rs:19
        console_flush();  //  TODO: Remove this.
  62:	f7ff fffe 	bl	0 <console_flush>
_ZN5mylib9send_coap17network_task_func17h7d78f9e97e619160E():
/Users/Luppy/mynewt/stm32bluepill-mynewt-sensor/src/send_coap.rs:105
        unsafe { os::os_time_delay(10 * os::OS_TICKS_PER_SEC); }                   //  Wait 10 seconds before repeating.
  66:	f242 7010 	movw	r0, #10000	; 0x2710
  6a:	f7ff fffe 	bl	0 <os_time_delay>
/Users/Luppy/mynewt/stm32bluepill-mynewt-sensor/src/send_coap.rs:103
    loop {  //  Loop forever...        
  6e:	e7f4      	b.n	ffffffec <.Lanon.905a9119838f662dc61f9a4827ce8632.58+0xffffffe4>
/Users/Luppy/mynewt/stm32bluepill-mynewt-sensor/src/send_coap.rs:80
    console_print(b"NET start\n");  assert!(unsafe { !NETWORK_IS_READY });
  70:	f240 0000 	movw	r0, #0
  74:	f2c0 0000 	movt	r0, #0
  78:	f7ff fffe 	bl	0 <_ZN4core9panicking5panic17h53ca63c6ac6312f8E>
  7c:	defe      	udf	#254	; 0xfe
  7e:	a801      	add	r0, sp, #4
/Users/Luppy/mynewt/stm32bluepill-mynewt-sensor/src/send_coap.rs:88
        let rc = unsafe { sensor_network::register_server_transport() };  assert_eq!(rc, 0);
  80:	900c      	str	r0, [sp, #48]	; 0x30
  82:	f240 0000 	movw	r0, #0
  86:	a90d      	add	r1, sp, #52	; 0x34
  88:	f2c0 0000 	movt	r0, #0
  8c:	900b      	str	r0, [sp, #44]	; 0x2c
  8e:	e9cd 0109 	strd	r0, r1, [sp, #36]	; 0x24
  92:	a80c      	add	r0, sp, #48	; 0x30
  94:	9008      	str	r0, [sp, #32]
  96:	f240 0000 	movw	r0, #0
  9a:	f2c0 0000 	movt	r0, #0
  9e:	f240 0100 	movw	r1, #0
  a2:	900d      	str	r0, [sp, #52]	; 0x34
  a4:	2002      	movs	r0, #2
_ZN4core3fmt9Arguments6new_v117ha99294a9defa432aE():
/rustc/50a0defd5a93523067ef239936cc2e0755220904/src/libcore/fmt/mod.rs:316
  a6:	9007      	str	r0, [sp, #28]
  a8:	a808      	add	r0, sp, #32
  aa:	9006      	str	r0, [sp, #24]
  ac:	2000      	movs	r0, #0
  ae:	e9cd 0004 	strd	r0, r0, [sp, #16]
  b2:	2003      	movs	r0, #3
  b4:	9003      	str	r0, [sp, #12]
  b6:	f240 0000 	movw	r0, #0
  ba:	f2c0 0000 	movt	r0, #0
_ZN5mylib9send_coap17network_task_func17h7d78f9e97e619160E():
/Users/Luppy/mynewt/stm32bluepill-mynewt-sensor/src/send_coap.rs:88
  be:	f2c0 0100 	movt	r1, #0
_ZN4core3fmt9Arguments6new_v117ha99294a9defa432aE():
/rustc/50a0defd5a93523067ef239936cc2e0755220904/src/libcore/fmt/mod.rs:316
  c2:	9002      	str	r0, [sp, #8]
  c4:	a802      	add	r0, sp, #8
_ZN5mylib9send_coap17network_task_func17h7d78f9e97e619160E():
/Users/Luppy/mynewt/stm32bluepill-mynewt-sensor/src/send_coap.rs:88
  c6:	f7ff fffe 	bl	0 <_ZN4core9panicking9panic_fmt17h6b4d8e87b0965449E>
  ca:	defe      	udf	#254	; 0xfe
  cc:	a801      	add	r0, sp, #4
/Users/Luppy/mynewt/stm32bluepill-mynewt-sensor/src/send_coap.rs:96
        let rc = unsafe { sensor_network::register_collector_transport() };  assert_eq!(rc, 0);
  ce:	900c      	str	r0, [sp, #48]	; 0x30
  d0:	f240 0000 	movw	r0, #0
  d4:	a90d      	add	r1, sp, #52	; 0x34
  d6:	f2c0 0000 	movt	r0, #0
  da:	900b      	str	r0, [sp, #44]	; 0x2c
  dc:	e9cd 0109 	strd	r0, r1, [sp, #36]	; 0x24
  e0:	a80c      	add	r0, sp, #48	; 0x30
  e2:	9008      	str	r0, [sp, #32]
  e4:	f240 0000 	movw	r0, #0
  e8:	f2c0 0000 	movt	r0, #0
  ec:	f240 0100 	movw	r1, #0
  f0:	900d      	str	r0, [sp, #52]	; 0x34
  f2:	2002      	movs	r0, #2
_ZN4core3fmt9Arguments6new_v117ha99294a9defa432aE():
/rustc/50a0defd5a93523067ef239936cc2e0755220904/src/libcore/fmt/mod.rs:316
  f4:	9007      	str	r0, [sp, #28]
  f6:	a808      	add	r0, sp, #32
  f8:	9006      	str	r0, [sp, #24]
  fa:	2000      	movs	r0, #0
  fc:	e9cd 0004 	strd	r0, r0, [sp, #16]
 100:	2003      	movs	r0, #3
 102:	9003      	str	r0, [sp, #12]
 104:	f240 0000 	movw	r0, #0
 108:	f2c0 0000 	movt	r0, #0
_ZN5mylib9send_coap17network_task_func17h7d78f9e97e619160E():
/Users/Luppy/mynewt/stm32bluepill-mynewt-sensor/src/send_coap.rs:96
 10c:	f2c0 0100 	movt	r1, #0
_ZN4core3fmt9Arguments6new_v117ha99294a9defa432aE():
/rustc/50a0defd5a93523067ef239936cc2e0755220904/src/libcore/fmt/mod.rs:316
 110:	9002      	str	r0, [sp, #8]
 112:	a802      	add	r0, sp, #8
_ZN5mylib9send_coap17network_task_func17h7d78f9e97e619160E():
/Users/Luppy/mynewt/stm32bluepill-mynewt-sensor/src/send_coap.rs:96
 114:	f7ff fffe 	bl	0 <_ZN4core9panicking9panic_fmt17h6b4d8e87b0965449E>
 118:	defe      	udf	#254	; 0xfe

Disassembly of section .text.main:

00000000 <main>:
main():
/Users/Luppy/mynewt/stm32bluepill-mynewt-sensor/src/lib.rs:31
use mynewt::kernel::os;         //  Import Mynewt OS API
use crate::base::*;             //  Import `base.rs` for common declarations

///  main() will be called at Mynewt startup. It replaces the C version of the main() function.
#[no_mangle]                     //  Don't mangle the name "main"
extern "C" fn main() -> ! {  //  Declare extern "C" because it will be called by Mynewt
   0:	b092      	sub	sp, #72	; 0x48
/Users/Luppy/mynewt/stm32bluepill-mynewt-sensor/src/lib.rs:33
    //  Init Mynewt system.
    unsafe { base::rust_sysinit()  };
   2:	f7ff fffe 	bl	0 <rust_sysinit>
/Users/Luppy/mynewt/stm32bluepill-mynewt-sensor/src/lib.rs:34
    unsafe { console_flush() };
   6:	f7ff fffe 	bl	0 <console_flush>
_ZN5mylib4base13console_print17h9f639099b2e23571E():
/Users/Luppy/mynewt/stm32bluepill-mynewt-sensor/src/base.rs:18
        console_buffer(msg.as_ptr(), len as u32);
   a:	f240 0000 	movw	r0, #0
   e:	210a      	movs	r1, #10
  10:	f2c0 0000 	movt	r0, #0
  14:	240a      	movs	r4, #10
  16:	f7ff fffe 	bl	0 <console_buffer>
/Users/Luppy/mynewt/stm32bluepill-mynewt-sensor/src/base.rs:19
        console_flush();  //  TODO: Remove this.
  1a:	f7ff fffe 	bl	0 <console_flush>
_ZN5mylib9send_coap18start_network_task17h09d053fd335383b8E():
/Users/Luppy/mynewt/stm32bluepill-mynewt-sensor/src/send_coap.rs:59
    let rc = unsafe { os::os_task_init( //  Create a new task and start it...
  1e:	f240 0100 	movw	r1, #0
  22:	f04f 32ff 	mov.w	r2, #4294967295	; 0xffffffff
  26:	f44f 7080 	mov.w	r0, #256	; 0x100
  2a:	f2c0 0100 	movt	r1, #0
  2e:	e9cd 4200 	strd	r4, r2, [sp]
  32:	f240 0200 	movw	r2, #0
  36:	e9cd 1002 	strd	r1, r0, [sp, #8]
  3a:	f240 0000 	movw	r0, #0
  3e:	f240 0100 	movw	r1, #0
  42:	f2c0 0000 	movt	r0, #0
  46:	f2c0 0100 	movt	r1, #0
  4a:	f2c0 0200 	movt	r2, #0
  4e:	2300      	movs	r3, #0
  50:	2400      	movs	r4, #0
  52:	f7ff fffe 	bl	0 <os_task_init>
/Users/Luppy/mynewt/stm32bluepill-mynewt-sensor/src/send_coap.rs:68
    assert_eq!(rc, 0);
  56:	2800      	cmp	r0, #0
/Users/Luppy/mynewt/stm32bluepill-mynewt-sensor/src/send_coap.rs:59
    let rc = unsafe { os::os_task_init( //  Create a new task and start it...
  58:	9009      	str	r0, [sp, #36]	; 0x24
/Users/Luppy/mynewt/stm32bluepill-mynewt-sensor/src/send_coap.rs:68
    assert_eq!(rc, 0);
  5a:	d13f      	bne.n	dc <main+0xdc>
_ZN5mylib4base13console_print17h9f639099b2e23571E():
/Users/Luppy/mynewt/stm32bluepill-mynewt-sensor/src/base.rs:18
        console_buffer(msg.as_ptr(), len as u32);
  5c:	f240 0000 	movw	r0, #0
  60:	210a      	movs	r1, #10
  62:	f2c0 0000 	movt	r0, #0
  66:	f7ff fffe 	bl	0 <console_buffer>
/Users/Luppy/mynewt/stm32bluepill-mynewt-sensor/src/base.rs:19
        console_flush();  //  TODO: Remove this.
  6a:	f7ff fffe 	bl	0 <console_flush>
_ZN5mylib13listen_sensor21start_sensor_listener17h7ea7ee241381583dE():
/Users/Luppy/mynewt/stm32bluepill-mynewt-sensor/src/listen_sensor.rs:46
    let rc = unsafe { sensor::sensor_set_poll_rate_ms(SENSOR_DEVICE, SENSOR_POLL_TIME) };
  6e:	f240 0000 	movw	r0, #0
  72:	f242 7110 	movw	r1, #10000	; 0x2710
  76:	f2c0 0000 	movt	r0, #0
  7a:	f7ff fffe 	bl	0 <sensor_set_poll_rate_ms>
/Users/Luppy/mynewt/stm32bluepill-mynewt-sensor/src/listen_sensor.rs:47
    assert_eq!(rc, 0);
  7e:	2800      	cmp	r0, #0
/Users/Luppy/mynewt/stm32bluepill-mynewt-sensor/src/listen_sensor.rs:46
    let rc = unsafe { sensor::sensor_set_poll_rate_ms(SENSOR_DEVICE, SENSOR_POLL_TIME) };
  80:	9009      	str	r0, [sp, #36]	; 0x24
/Users/Luppy/mynewt/stm32bluepill-mynewt-sensor/src/listen_sensor.rs:47
    assert_eq!(rc, 0);
  82:	d151      	bne.n	128 <main+0x128>
/Users/Luppy/mynewt/stm32bluepill-mynewt-sensor/src/listen_sensor.rs:50
    let sensor = unsafe { sensor::sensor_mgr_find_next_bydevname(SENSOR_DEVICE, null_sensor()) };
  84:	f7ff fffe 	bl	0 <null_sensor>
  88:	4601      	mov	r1, r0
  8a:	f240 0000 	movw	r0, #0
  8e:	f2c0 0000 	movt	r0, #0
  92:	f7ff fffe 	bl	0 <sensor_mgr_find_next_bydevname>
  96:	4604      	mov	r4, r0
/Users/Luppy/mynewt/stm32bluepill-mynewt-sensor/src/listen_sensor.rs:51
    assert!(unsafe{ !is_null_sensor(sensor) });
  98:	f7ff fffe 	bl	0 <is_null_sensor>
  9c:	2800      	cmp	r0, #0
  9e:	d16a      	bne.n	176 <main+0x176>
_ZN5mylib6mynewt2hw6sensor17register_listener17h58dd28bb63c11fd1E():
/Users/Luppy/mynewt/stm32bluepill-mynewt-sensor/src/mynewt/hw/sensor.rs:66
    unsafe { assert!(LISTENER_INTERNAL.sl_sensor_type == 0) };  //  Make sure it's not used.
  a0:	f240 0100 	movw	r1, #0
  a4:	f2c0 0100 	movt	r1, #0
  a8:	e9d1 0200 	ldrd	r0, r2, [r1]
  ac:	4310      	orrs	r0, r2
  ae:	d169      	bne.n	184 <main+0x184>
/Users/Luppy/mynewt/stm32bluepill-mynewt-sensor/src/mynewt/hw/sensor.rs:68
    unsafe { LISTENER_INTERNAL = listener };
  b0:	f240 0300 	movw	r3, #0
  b4:	2000      	movs	r0, #0
  b6:	f04f 6280 	mov.w	r2, #67108864	; 0x4000000
  ba:	f04f 0c01 	mov.w	ip, #1
  be:	f2c0 0300 	movt	r3, #0
  c2:	e9c1 2000 	strd	r2, r0, [r1]
  c6:	e9c1 3c02 	strd	r3, ip, [r1, #8]
  ca:	6108      	str	r0, [r1, #16]
/Users/Luppy/mynewt/stm32bluepill-mynewt-sensor/src/mynewt/hw/sensor.rs:70
    unsafe { sensor_register_listener(sensor, &mut LISTENER_INTERNAL) };
  cc:	4620      	mov	r0, r4
  ce:	f7ff fffe 	bl	0 <sensor_register_listener>
main():
/Users/Luppy/mynewt/stm32bluepill-mynewt-sensor/src/lib.rs:52

    //  Main event loop
    loop {                            //  Loop forever...
        unsafe {
            os::os_eventq_run(            //  Process events...
                os::os_eventq_dflt_get()  //  From default event queue.
  d2:	f7ff fffe 	bl	0 <os_eventq_dflt_get>
/Users/Luppy/mynewt/stm32bluepill-mynewt-sensor/src/lib.rs:51
            os::os_eventq_run(            //  Process events...
  d6:	f7ff fffe 	bl	0 <os_eventq_run>
/Users/Luppy/mynewt/stm32bluepill-mynewt-sensor/src/lib.rs:49
    loop {                            //  Loop forever...
  da:	e7fa      	b.n	d2 <main+0xd2>
  dc:	a809      	add	r0, sp, #36	; 0x24
_ZN5mylib9send_coap18start_network_task17h09d053fd335383b8E():
/Users/Luppy/mynewt/stm32bluepill-mynewt-sensor/src/send_coap.rs:68
  de:	9010      	str	r0, [sp, #64]	; 0x40
  e0:	f240 0000 	movw	r0, #0
  e4:	a911      	add	r1, sp, #68	; 0x44
  e6:	f2c0 0000 	movt	r0, #0
  ea:	9008      	str	r0, [sp, #32]
  ec:	e9cd 0106 	strd	r0, r1, [sp, #24]
  f0:	a810      	add	r0, sp, #64	; 0x40
  f2:	9005      	str	r0, [sp, #20]
  f4:	f240 0000 	movw	r0, #0
  f8:	f2c0 0000 	movt	r0, #0
  fc:	f240 0100 	movw	r1, #0
 100:	9011      	str	r0, [sp, #68]	; 0x44
 102:	2002      	movs	r0, #2
_ZN4core3fmt9Arguments6new_v117ha99294a9defa432aE():
/rustc/50a0defd5a93523067ef239936cc2e0755220904/src/libcore/fmt/mod.rs:316
 104:	900f      	str	r0, [sp, #60]	; 0x3c
 106:	a805      	add	r0, sp, #20
 108:	900e      	str	r0, [sp, #56]	; 0x38
 10a:	2003      	movs	r0, #3
 10c:	e9cd 440c 	strd	r4, r4, [sp, #48]	; 0x30
_ZN5mylib9send_coap18start_network_task17h09d053fd335383b8E():
/Users/Luppy/mynewt/stm32bluepill-mynewt-sensor/src/send_coap.rs:68
 110:	f2c0 0100 	movt	r1, #0
_ZN4core3fmt9Arguments6new_v117ha99294a9defa432aE():
/rustc/50a0defd5a93523067ef239936cc2e0755220904/src/libcore/fmt/mod.rs:316
 114:	900b      	str	r0, [sp, #44]	; 0x2c
 116:	f240 0000 	movw	r0, #0
 11a:	f2c0 0000 	movt	r0, #0
 11e:	900a      	str	r0, [sp, #40]	; 0x28
 120:	a80a      	add	r0, sp, #40	; 0x28
_ZN5mylib9send_coap18start_network_task17h09d053fd335383b8E():
/Users/Luppy/mynewt/stm32bluepill-mynewt-sensor/src/send_coap.rs:68
 122:	f7ff fffe 	bl	0 <_ZN4core9panicking9panic_fmt17h6b4d8e87b0965449E>
 126:	defe      	udf	#254	; 0xfe
main():
 128:	a809      	add	r0, sp, #36	; 0x24
_ZN5mylib13listen_sensor21start_sensor_listener17h7ea7ee241381583dE():
/Users/Luppy/mynewt/stm32bluepill-mynewt-sensor/src/listen_sensor.rs:47
    assert_eq!(rc, 0);
 12a:	9010      	str	r0, [sp, #64]	; 0x40
 12c:	f240 0000 	movw	r0, #0
 130:	a911      	add	r1, sp, #68	; 0x44
 132:	f2c0 0000 	movt	r0, #0
 136:	9008      	str	r0, [sp, #32]
 138:	e9cd 0106 	strd	r0, r1, [sp, #24]
 13c:	a810      	add	r0, sp, #64	; 0x40
 13e:	9005      	str	r0, [sp, #20]
 140:	f240 0000 	movw	r0, #0
 144:	f2c0 0000 	movt	r0, #0
 148:	f240 0100 	movw	r1, #0
 14c:	9011      	str	r0, [sp, #68]	; 0x44
 14e:	2002      	movs	r0, #2
_ZN4core3fmt9Arguments6new_v117ha99294a9defa432aE():
/rustc/50a0defd5a93523067ef239936cc2e0755220904/src/libcore/fmt/mod.rs:316
 150:	900f      	str	r0, [sp, #60]	; 0x3c
 152:	a805      	add	r0, sp, #20
 154:	900e      	str	r0, [sp, #56]	; 0x38
 156:	2000      	movs	r0, #0
 158:	e9cd 000c 	strd	r0, r0, [sp, #48]	; 0x30
 15c:	2003      	movs	r0, #3
 15e:	900b      	str	r0, [sp, #44]	; 0x2c
 160:	f240 0000 	movw	r0, #0
 164:	f2c0 0000 	movt	r0, #0
_ZN5mylib13listen_sensor21start_sensor_listener17h7ea7ee241381583dE():
/Users/Luppy/mynewt/stm32bluepill-mynewt-sensor/src/listen_sensor.rs:47
 168:	f2c0 0100 	movt	r1, #0
_ZN4core3fmt9Arguments6new_v117ha99294a9defa432aE():
/rustc/50a0defd5a93523067ef239936cc2e0755220904/src/libcore/fmt/mod.rs:316
 16c:	900a      	str	r0, [sp, #40]	; 0x28
 16e:	a80a      	add	r0, sp, #40	; 0x28
_ZN5mylib13listen_sensor21start_sensor_listener17h7ea7ee241381583dE():
/Users/Luppy/mynewt/stm32bluepill-mynewt-sensor/src/listen_sensor.rs:47
 170:	f7ff fffe 	bl	0 <_ZN4core9panicking9panic_fmt17h6b4d8e87b0965449E>
 174:	defe      	udf	#254	; 0xfe
/Users/Luppy/mynewt/stm32bluepill-mynewt-sensor/src/listen_sensor.rs:51
    assert!(unsafe{ !is_null_sensor(sensor) });
 176:	f240 0000 	movw	r0, #0
 17a:	f2c0 0000 	movt	r0, #0
 17e:	f7ff fffe 	bl	0 <_ZN4core9panicking5panic17h53ca63c6ac6312f8E>
 182:	defe      	udf	#254	; 0xfe
_ZN5mylib6mynewt2hw6sensor17register_listener17h58dd28bb63c11fd1E():
/Users/Luppy/mynewt/stm32bluepill-mynewt-sensor/src/mynewt/hw/sensor.rs:66
    unsafe { assert!(LISTENER_INTERNAL.sl_sensor_type == 0) };  //  Make sure it's not used.
 184:	f240 0000 	movw	r0, #0
 188:	f2c0 0000 	movt	r0, #0
 18c:	f7ff fffe 	bl	0 <_ZN4core9panicking5panic17h53ca63c6ac6312f8E>
 190:	defe      	udf	#254	; 0xfe

Disassembly of section .text.rust_begin_unwind:

00000000 <rust_begin_unwind>:
rust_begin_unwind():
/Users/Luppy/mynewt/stm32bluepill-mynewt-sensor/src/lib.rs:63

///  This function is called on panic, like an assertion failure. We display the filename and line number and pause in the debugger. From https://os.phil-opp.com/freestanding-rust-binary/
#[panic_handler]
fn panic(info: &PanicInfo) -> ! {
    //  Display the filename and line number to the Semihosting Console.
    if let Some(location) = info.location() {
   0:	f7ff fffe 	bl	0 <_ZN4core5panic9PanicInfo8location17h5226165d8771f8a2E>
   4:	b338      	cbz	r0, 56 <rust_begin_unwind+0x56>
   6:	4604      	mov	r4, r0
/Users/Luppy/mynewt/stm32bluepill-mynewt-sensor/src/lib.rs:64
        let file = location.file();
   8:	f7ff fffe 	bl	0 <_ZN4core5panic8Location4file17h94cc6af18de736c4E>
   c:	4605      	mov	r5, r0
/Users/Luppy/mynewt/stm32bluepill-mynewt-sensor/src/lib.rs:65
        let line = location.line();
   e:	4620      	mov	r0, r4
/Users/Luppy/mynewt/stm32bluepill-mynewt-sensor/src/lib.rs:64
        let file = location.file();
  10:	460e      	mov	r6, r1
/Users/Luppy/mynewt/stm32bluepill-mynewt-sensor/src/lib.rs:65
        let line = location.line();
  12:	f7ff fffe 	bl	0 <_ZN4core5panic8Location4line17h3ffc63f14d0a6636E>
  16:	4604      	mov	r4, r0
_ZN5mylib4base13console_print17h9f639099b2e23571E():
/Users/Luppy/mynewt/stm32bluepill-mynewt-sensor/src/base.rs:18
        console_buffer(msg.as_ptr(), len as u32);
  18:	f240 0000 	movw	r0, #0
  1c:	f2c0 0000 	movt	r0, #0
  20:	2109      	movs	r1, #9
  22:	f7ff fffe 	bl	0 <console_buffer>
/Users/Luppy/mynewt/stm32bluepill-mynewt-sensor/src/base.rs:19
        console_flush();  //  TODO: Remove this.
  26:	f7ff fffe 	bl	0 <console_flush>
rust_begin_unwind():
/Users/Luppy/mynewt/stm32bluepill-mynewt-sensor/src/lib.rs:67
        console_print(b"panic at ");
        unsafe { console_buffer(file.as_ptr(), file.len() as u32) }
  2a:	4628      	mov	r0, r5
  2c:	4631      	mov	r1, r6
  2e:	f7ff fffe 	bl	0 <console_buffer>
_ZN5mylib4base13console_print17h9f639099b2e23571E():
/Users/Luppy/mynewt/stm32bluepill-mynewt-sensor/src/base.rs:18
        console_buffer(msg.as_ptr(), len as u32);
  32:	f240 0000 	movw	r0, #0
  36:	2108      	movs	r1, #8
  38:	f2c0 0000 	movt	r0, #0
  3c:	f7ff fffe 	bl	0 <console_buffer>
/Users/Luppy/mynewt/stm32bluepill-mynewt-sensor/src/base.rs:19
        console_flush();  //  TODO: Remove this.
  40:	f7ff fffe 	bl	0 <console_flush>
rust_begin_unwind():
/Users/Luppy/mynewt/stm32bluepill-mynewt-sensor/src/lib.rs:69
        console_print(b" line 0x");
        unsafe { console_printhex(line as u8) }  //  TODO: Print in decimal not hex. Allow more than 255 lines.
  44:	b2e0      	uxtb	r0, r4
  46:	f7ff fffe 	bl	0 <console_printhex>
_ZN5mylib4base13console_print17h9f639099b2e23571E():
/Users/Luppy/mynewt/stm32bluepill-mynewt-sensor/src/base.rs:18
        console_buffer(msg.as_ptr(), len as u32);
  4a:	f240 0000 	movw	r0, #0
  4e:	2101      	movs	r1, #1
  50:	f2c0 0000 	movt	r0, #0
  54:	e004      	b.n	c <rust_begin_unwind+0xc>
  56:	f240 0000 	movw	r0, #0
  5a:	2112      	movs	r1, #18
  5c:	f2c0 0000 	movt	r0, #0
rust_begin_unwind():
  60:	f7ff fffe 	bl	0 <console_buffer>
  64:	f7ff fffe 	bl	0 <console_flush>
  68:	f7ff fffe 	bl	0 <console_flush>
_ZN8cortex_m3asm4bkpt17h756c5667fd4cf09cE():
/Users/Luppy/.cargo/registry/src/github.com-1ecc6299db9ec823/cortex-m-0.6.0/src/asm.rs:19
        () => unsafe {
            extern "C" {
                fn __bkpt();
            }

            __bkpt();
  6c:	f7ff fffe 	bl	0 <__bkpt>
rust_begin_unwind():
/Users/Luppy/mynewt/stm32bluepill-mynewt-sensor/src/lib.rs:79
        unsafe { console_flush() }
    }
    //  Pause in the debugger.
    bkpt();
    //  Loop forever so that device won't restart.
    loop {}
  70:	e7fe      	b.n	70 <rust_begin_unwind+0x70>

Disassembly of section .text._ZN85_$LT$mylib..mynewt..encoding..json_context..JsonError$u20$as$u20$core..fmt..Debug$GT$3fmt17h43c93a3f4e04264eE:

00000000 <_ZN85_$LT$mylib..mynewt..encoding..json_context..JsonError$u20$as$u20$core..fmt..Debug$GT$3fmt17h43c93a3f4e04264eE>:
_ZN85_$LT$mylib..mynewt..encoding..json_context..JsonError$u20$as$u20$core..fmt..Debug$GT$3fmt17h43c93a3f4e04264eE():
/Users/Luppy/mynewt/stm32bluepill-mynewt-sensor/src/mynewt/encoding/json_context.rs:125
#[derive(Debug, PartialEq)]
   0:	b510      	push	{r4, lr}
   2:	b084      	sub	sp, #16
   4:	7800      	ldrb	r0, [r0, #0]
   6:	ac01      	add	r4, sp, #4
   8:	2801      	cmp	r0, #1
   a:	d106      	bne.n	1a <_ZN85_$LT$mylib..mynewt..encoding..json_context..JsonError$u20$as$u20$core..fmt..Debug$GT$3fmt17h43c93a3f4e04264eE+0x1a>
   c:	f240 0200 	movw	r2, #0
  10:	4620      	mov	r0, r4
  12:	f2c0 0200 	movt	r2, #0
  16:	230e      	movs	r3, #14
  18:	e005      	b.n	26 <_ZN85_$LT$mylib..mynewt..encoding..json_context..JsonError$u20$as$u20$core..fmt..Debug$GT$3fmt17h43c93a3f4e04264eE+0x26>
  1a:	f240 0200 	movw	r2, #0
  1e:	4620      	mov	r0, r4
  20:	f2c0 0200 	movt	r2, #0
  24:	2302      	movs	r3, #2
  26:	f7ff fffe 	bl	0 <_ZN4core3fmt9Formatter11debug_tuple17h793087e8ecab9022E>
  2a:	4620      	mov	r0, r4
  2c:	f7ff fffe 	bl	0 <_ZN4core3fmt8builders10DebugTuple6finish17h24d91625b3672e6dE>
  30:	b004      	add	sp, #16
  32:	bd10      	pop	{r4, pc}

Disassembly of section .text._ZN71_$LT$mylib..mynewt..result..MynewtError$u20$as$u20$core..fmt..Debug$GT$3fmt17h9aedc60e28746d6bE:

00000000 <_ZN71_$LT$mylib..mynewt..result..MynewtError$u20$as$u20$core..fmt..Debug$GT$3fmt17h9aedc60e28746d6bE>:
_ZN71_$LT$mylib..mynewt..result..MynewtError$u20$as$u20$core..fmt..Debug$GT$3fmt17h9aedc60e28746d6bE():
/Users/Luppy/mynewt/stm32bluepill-mynewt-sensor/src/mynewt.rs:30
    #[derive(Debug, PartialEq)]
   0:	b510      	push	{r4, lr}
   2:	b084      	sub	sp, #16
   4:	6802      	ldr	r2, [r0, #0]
   6:	f102 000f 	add.w	r0, r2, #15
   a:	280e      	cmp	r0, #14
   c:	d80f      	bhi.n	2e <_ZN71_$LT$mylib..mynewt..result..MynewtError$u20$as$u20$core..fmt..Debug$GT$3fmt17h9aedc60e28746d6bE+0x2e>
   e:	e8df f000 	tbb	[pc, r0]
  12:	1908      	.short	0x1908
  14:	352f2721 	.word	0x352f2721
  18:	4f49413b 	.word	0x4f49413b
  1c:	69615b55 	.word	0x69615b55
  20:	006f      	.short	0x006f
  22:	f240 0200 	movw	r2, #0
  26:	ac01      	add	r4, sp, #4
  28:	f2c0 0200 	movt	r2, #0
  2c:	e037      	b.n	9e <_ZN71_$LT$mylib..mynewt..result..MynewtError$u20$as$u20$core..fmt..Debug$GT$3fmt17h9aedc60e28746d6bE+0x9e>
  2e:	2001      	movs	r0, #1
  30:	ac01      	add	r4, sp, #4
  32:	f6cf 70ff 	movt	r0, #65535	; 0xffff
  36:	4282      	cmp	r2, r0
  38:	d162      	bne.n	100 <_ZN71_$LT$mylib..mynewt..result..MynewtError$u20$as$u20$core..fmt..Debug$GT$3fmt17h9aedc60e28746d6bE+0x100>
  3a:	f240 0200 	movw	r2, #0
  3e:	f2c0 0200 	movt	r2, #0
  42:	e04c      	b.n	de <_ZN71_$LT$mylib..mynewt..result..MynewtError$u20$as$u20$core..fmt..Debug$GT$3fmt17h9aedc60e28746d6bE+0xde>
  44:	ac01      	add	r4, sp, #4
  46:	f240 0200 	movw	r2, #0
  4a:	f2c0 0200 	movt	r2, #0
  4e:	230d      	movs	r3, #13
  50:	4620      	mov	r0, r4
  52:	e05b      	b.n	10c <_ZN71_$LT$mylib..mynewt..result..MynewtError$u20$as$u20$core..fmt..Debug$GT$3fmt17h9aedc60e28746d6bE+0x10c>
  54:	f240 0200 	movw	r2, #0
  58:	ac01      	add	r4, sp, #4
  5a:	f2c0 0200 	movt	r2, #0
  5e:	e03e      	b.n	de <_ZN71_$LT$mylib..mynewt..result..MynewtError$u20$as$u20$core..fmt..Debug$GT$3fmt17h9aedc60e28746d6bE+0xde>
  60:	ac01      	add	r4, sp, #4
  62:	f240 0200 	movw	r2, #0
  66:	f2c0 0200 	movt	r2, #0
  6a:	230b      	movs	r3, #11
  6c:	4620      	mov	r0, r4
  6e:	e04d      	b.n	10c <_ZN71_$LT$mylib..mynewt..result..MynewtError$u20$as$u20$core..fmt..Debug$GT$3fmt17h9aedc60e28746d6bE+0x10c>
  70:	f240 0200 	movw	r2, #0
  74:	ac01      	add	r4, sp, #4
  76:	f2c0 0200 	movt	r2, #0
  7a:	e030      	b.n	64 <_ZN71_$LT$mylib..mynewt..result..MynewtError$u20$as$u20$core..fmt..Debug$GT$3fmt17h9aedc60e28746d6bE+0x64>
  7c:	f240 0200 	movw	r2, #0
  80:	ac01      	add	r4, sp, #4
  82:	f2c0 0200 	movt	r2, #0
  86:	e038      	b.n	74 <_ZN71_$LT$mylib..mynewt..result..MynewtError$u20$as$u20$core..fmt..Debug$GT$3fmt17h9aedc60e28746d6bE+0x74>
  88:	f240 0200 	movw	r2, #0
  8c:	ac01      	add	r4, sp, #4
  8e:	f2c0 0200 	movt	r2, #0
  92:	e032      	b.n	68 <_ZN71_$LT$mylib..mynewt..result..MynewtError$u20$as$u20$core..fmt..Debug$GT$3fmt17h9aedc60e28746d6bE+0x68>
  94:	f240 0200 	movw	r2, #0
  98:	ac01      	add	r4, sp, #4
  9a:	f2c0 0200 	movt	r2, #0
  9e:	4620      	mov	r0, r4
  a0:	2309      	movs	r3, #9
  a2:	e033      	b.n	10c <_ZN71_$LT$mylib..mynewt..result..MynewtError$u20$as$u20$core..fmt..Debug$GT$3fmt17h9aedc60e28746d6bE+0x10c>
  a4:	f240 0200 	movw	r2, #0
  a8:	ac01      	add	r4, sp, #4
  aa:	f2c0 0200 	movt	r2, #0
  ae:	e024      	b.n	4c <_ZN71_$LT$mylib..mynewt..result..MynewtError$u20$as$u20$core..fmt..Debug$GT$3fmt17h9aedc60e28746d6bE+0x4c>
  b0:	f240 0200 	movw	r2, #0
  b4:	ac01      	add	r4, sp, #4
  b6:	f2c0 0200 	movt	r2, #0
  ba:	e01e      	b.n	40 <_ZN71_$LT$mylib..mynewt..result..MynewtError$u20$as$u20$core..fmt..Debug$GT$3fmt17h9aedc60e28746d6bE+0x40>
  bc:	f240 0200 	movw	r2, #0
  c0:	ac01      	add	r4, sp, #4
  c2:	f2c0 0200 	movt	r2, #0
  c6:	e01f      	b.n	42 <_ZN71_$LT$mylib..mynewt..result..MynewtError$u20$as$u20$core..fmt..Debug$GT$3fmt17h9aedc60e28746d6bE+0x42>
  c8:	f240 0200 	movw	r2, #0
  cc:	ac01      	add	r4, sp, #4
  ce:	f2c0 0200 	movt	r2, #0
  d2:	e012      	b.n	28 <_ZN71_$LT$mylib..mynewt..result..MynewtError$u20$as$u20$core..fmt..Debug$GT$3fmt17h9aedc60e28746d6bE+0x28>
  d4:	f240 0200 	movw	r2, #0
  d8:	ac01      	add	r4, sp, #4
  da:	f2c0 0200 	movt	r2, #0
  de:	4620      	mov	r0, r4
  e0:	230c      	movs	r3, #12
  e2:	e013      	b.n	10c <_ZN71_$LT$mylib..mynewt..result..MynewtError$u20$as$u20$core..fmt..Debug$GT$3fmt17h9aedc60e28746d6bE+0x10c>
  e4:	f240 0200 	movw	r2, #0
  e8:	ac01      	add	r4, sp, #4
  ea:	f2c0 0200 	movt	r2, #0
  ee:	e004      	b.n	c <_ZN71_$LT$mylib..mynewt..result..MynewtError$u20$as$u20$core..fmt..Debug$GT$3fmt17h9aedc60e28746d6bE+0xc>
  f0:	f240 0200 	movw	r2, #0
  f4:	ac01      	add	r4, sp, #4
  f6:	f2c0 0200 	movt	r2, #0
  fa:	4620      	mov	r0, r4
  fc:	230a      	movs	r3, #10
  fe:	e005      	b.n	10c <_ZN71_$LT$mylib..mynewt..result..MynewtError$u20$as$u20$core..fmt..Debug$GT$3fmt17h9aedc60e28746d6bE+0x10c>
 100:	f240 0200 	movw	r2, #0
 104:	f2c0 0200 	movt	r2, #0
 108:	4620      	mov	r0, r4
 10a:	2307      	movs	r3, #7
 10c:	f7ff fffe 	bl	0 <_ZN4core3fmt9Formatter11debug_tuple17h793087e8ecab9022E>
 110:	4620      	mov	r0, r4
 112:	f7ff fffe 	bl	0 <_ZN4core3fmt8builders10DebugTuple6finish17h24d91625b3672e6dE>
 116:	b004      	add	sp, #16
 118:	bd10      	pop	{r4, pc}
arm-none-eabi-objdump: rust.metadata.bin: File format not recognized
arm-none-eabi-objdump: mylib-a6fbff8072d07943.mylib.afm1kcbr-cgu.0.rcgu.bc.z: File format not recognized
