In archive target/thumbv7m-none-eabi/release/libmylib.rlib:

mylib-9b5f404664613177.mylib.9ieylas6-cgu.0.rcgu.o:     file format elf32-littlearm

SYMBOL TABLE:
00000000 l    df *ABS*	00000000 mylib.9ieylas6-cgu.0
00000000 l       .debug_str	00000000 
00000041 l       .debug_str	00000000 
0000004c l       .debug_str	00000000 
0000006f l       .debug_str	00000000 
00000075 l       .debug_str	00000000 
0000007c l       .debug_str	00000000 
00000085 l       .debug_str	00000000 
00000092 l       .debug_str	00000000 
0000009f l       .debug_str	00000000 
000000aa l       .debug_str	00000000 
000000ad l       .debug_str	00000000 
000000c1 l       .debug_str	00000000 
000000ce l       .debug_str	00000000 
000000da l       .debug_str	00000000 
00000124 l       .debug_str	00000000 
00000127 l       .debug_str	00000000 
0000012e l       .debug_str	00000000 
00000140 l       .debug_str	00000000 
00000149 l       .debug_str	00000000 
00000158 l       .debug_str	00000000 
0000015c l       .debug_str	00000000 
00000164 l       .debug_str	00000000 
00000169 l       .debug_str	00000000 
00000170 l       .debug_str	00000000 
00000174 l       .debug_str	00000000 
00000179 l       .debug_str	00000000 
0000017d l       .debug_str	00000000 
00000183 l       .debug_str	00000000 
0000018a l       .debug_str	00000000 
0000018d l       .debug_str	00000000 
00000199 l       .debug_str	00000000 
000001a1 l       .debug_str	00000000 
000001a5 l       .debug_str	00000000 
000001b0 l       .debug_str	00000000 
000001bb l       .debug_str	00000000 
000001c2 l       .debug_str	00000000 
000001d9 l       .debug_str	00000000 
0000023a l       .debug_str	00000000 
0000023c l       .debug_str	00000000 
00000241 l       .debug_str	00000000 
00000245 l       .debug_str	00000000 
000002ae l       .debug_str	00000000 
000002b9 l       .debug_str	00000000 
00000307 l       .debug_str	00000000 
0000035d l       .debug_str	00000000 
00000367 l       .debug_str	00000000 
000003ab l       .debug_str	00000000 
000003f7 l       .debug_str	00000000 
00000400 l       .debug_str	00000000 
00000410 l       .debug_str	00000000 
00000418 l       .debug_str	00000000 
00000474 l       .debug_str	00000000 
000004d8 l       .debug_str	00000000 
000004e4 l       .debug_str	00000000 
000004ed l       .debug_str	00000000 
000004f9 l       .debug_str	00000000 
00000505 l       .debug_str	00000000 
0000050e l       .debug_str	00000000 
00000516 l       .debug_str	00000000 
00000520 l       .debug_str	00000000 
00000528 l       .debug_str	00000000 
00000532 l       .debug_str	00000000 
00000547 l       .debug_str	00000000 
0000054e l       .debug_str	00000000 
00000575 l       .debug_str	00000000 
0000057c l       .debug_str	00000000 
00000584 l       .debug_str	00000000 
0000058e l       .debug_str	00000000 
00000599 l       .debug_str	00000000 
000005a2 l       .debug_str	00000000 
000005ad l       .debug_str	00000000 
000005b9 l       .debug_str	00000000 
000005bd l       .debug_str	00000000 
000005c6 l       .debug_str	00000000 
000005cd l       .debug_str	00000000 
000005d5 l       .debug_str	00000000 
000005dd l       .debug_str	00000000 
000005e7 l       .debug_str	00000000 
000005ed l       .debug_str	00000000 
000005f4 l       .debug_str	00000000 
000005fb l       .debug_str	00000000 
00000628 l       .debug_str	00000000 
0000065d l       .debug_str	00000000 
00000663 l       .debug_str	00000000 
00000669 l       .debug_str	00000000 
00000678 l       .debug_str	00000000 
00000688 l       .debug_str	00000000 
00000698 l       .debug_str	00000000 
000006a0 l       .debug_str	00000000 
000006d0 l       .debug_str	00000000 
00000735 l       .debug_str	00000000 
000007a2 l       .debug_str	00000000 
000007a9 l       .debug_str	00000000 
000007b1 l       .debug_str	00000000 
000007ba l       .debug_str	00000000 
000007d8 l       .debug_str	00000000 
000007e8 l       .debug_str	00000000 
000007f6 l       .debug_str	00000000 
00000801 l       .debug_str	00000000 
0000080e l       .debug_str	00000000 
0000081d l       .debug_str	00000000 
00000833 l       .debug_str	00000000 
0000083d l       .debug_str	00000000 
00000846 l       .debug_str	00000000 
0000084f l       .debug_str	00000000 
0000087c l       .debug_str	00000000 
00000892 l       .debug_str	00000000 
0000089d l       .debug_str	00000000 
000008b3 l       .debug_str	00000000 
000008bb l       .debug_str	00000000 
000008e3 l       .debug_str	00000000 
000008fa l       .debug_str	00000000 
000008ff l       .debug_str	00000000 
00000907 l       .debug_str	00000000 
00000910 l       .debug_str	00000000 
00000919 l       .debug_str	00000000 
00000922 l       .debug_str	00000000 
0000092a l       .debug_str	00000000 
00000931 l       .debug_str	00000000 
0000093d l       .debug_str	00000000 
00000948 l       .debug_str	00000000 
00000950 l       .debug_str	00000000 
00000958 l       .debug_str	00000000 
00000a62 l       .debug_str	00000000 
00000b74 l       .debug_str	00000000 
00000b82 l       .debug_str	00000000 
00000b8d l       .debug_str	00000000 
00000b97 l       .debug_str	00000000 
00000ba2 l       .debug_str	00000000 
00000bd7 l       .debug_str	00000000 
00000c60 l       .debug_str	00000000 
00000cf1 l       .debug_str	00000000 
00000cff l       .debug_str	00000000 
00000d65 l       .debug_str	00000000 
00000dd3 l       .debug_str	00000000 
00000de9 l       .debug_str	00000000 
00000df9 l       .debug_str	00000000 
00000e08 l       .debug_str	00000000 
00000e0c l       .debug_str	00000000 
00000e13 l       .debug_str	00000000 
00000e19 l       .debug_str	00000000 
00000e1d l       .debug_str	00000000 
00000e23 l       .debug_str	00000000 
00000e29 l       .debug_str	00000000 
00000e35 l       .debug_str	00000000 
00000e3d l       .debug_str	00000000 
00000e43 l       .debug_str	00000000 
00000e4b l       .debug_str	00000000 
00000e51 l       .debug_str	00000000 
00000e74 l       .debug_str	00000000 
00000e84 l       .debug_str	00000000 
00000ebe l       .debug_str	00000000 
00000f05 l       .debug_str	00000000 
00000f54 l       .debug_str	00000000 
00000f58 l       .debug_str	00000000 
00000f5e l       .debug_str	00000000 
00000f64 l       .debug_str	00000000 
00000f6a l       .debug_str	00000000 
00000f7c l       .debug_str	00000000 
00000fb8 l       .debug_str	00000000 
00001001 l       .debug_str	00000000 
00001052 l       .debug_str	00000000 
00001056 l       .debug_str	00000000 
0000105c l       .debug_str	00000000 
00001062 l       .debug_str	00000000 
00001068 l       .debug_str	00000000 
0000107a l       .debug_str	00000000 
000010b6 l       .debug_str	00000000 
000010ff l       .debug_str	00000000 
00001150 l       .debug_str	00000000 
00001154 l       .debug_str	00000000 
0000115a l       .debug_str	00000000 
00001160 l       .debug_str	00000000 
00001166 l       .debug_str	00000000 
0000116c l       .debug_str	00000000 
0000117d l       .debug_str	00000000 
000011b8 l       .debug_str	00000000 
00001200 l       .debug_str	00000000 
00001250 l       .debug_str	00000000 
00001255 l       .debug_str	00000000 
0000125a l       .debug_str	00000000 
0000125e l       .debug_str	00000000 
00001264 l       .debug_str	00000000 
0000126a l       .debug_str	00000000 
00001270 l       .debug_str	00000000 
00001281 l       .debug_str	00000000 
000012bc l       .debug_str	00000000 
00001304 l       .debug_str	00000000 
00001354 l       .debug_str	00000000 
00001358 l       .debug_str	00000000 
00001361 l       .debug_str	00000000 
00001372 l       .debug_str	00000000 
000013ad l       .debug_str	00000000 
000013f5 l       .debug_str	00000000 
00001445 l       .debug_str	00000000 
0000144a l       .debug_str	00000000 
0000144e l       .debug_str	00000000 
00001457 l       .debug_str	00000000 
0000145e l       .debug_str	00000000 
00001466 l       .debug_str	00000000 
00001478 l       .debug_str	00000000 
000014b4 l       .debug_str	00000000 
000014fd l       .debug_str	00000000 
0000154e l       .debug_str	00000000 
00001552 l       .debug_str	00000000 
00001558 l       .debug_str	00000000 
0000155e l       .debug_str	00000000 
00001564 l       .debug_str	00000000 
0000156a l       .debug_str	00000000 
00001572 l       .debug_str	00000000 
00001580 l       .debug_str	00000000 
0000158f l       .debug_str	00000000 
000015a0 l       .debug_str	00000000 
000015ab l       .debug_str	00000000 
000015b6 l       .debug_str	00000000 
000015c1 l       .debug_str	00000000 
000015c8 l       .debug_str	00000000 
000015eb l       .debug_str	00000000 
000015fd l       .debug_str	00000000 
00001639 l       .debug_str	00000000 
00001682 l       .debug_str	00000000 
000016d3 l       .debug_str	00000000 
000016d7 l       .debug_str	00000000 
000016e1 l       .debug_str	00000000 
000016f3 l       .debug_str	00000000 
0000172f l       .debug_str	00000000 
00001778 l       .debug_str	00000000 
000017c9 l       .debug_str	00000000 
000017ce l       .debug_str	00000000 
000017d8 l       .debug_str	00000000 
000017ea l       .debug_str	00000000 
00001826 l       .debug_str	00000000 
0000186f l       .debug_str	00000000 
000018c0 l       .debug_str	00000000 
000018d4 l       .debug_str	00000000 
000018d8 l       .debug_str	00000000 
000018e6 l       .debug_str	00000000 
000018f6 l       .debug_str	00000000 
000018ff l       .debug_str	00000000 
0000190a l       .debug_str	00000000 
00001919 l       .debug_str	00000000 
0000192e l       .debug_str	00000000 
00001966 l       .debug_str	00000000 
00001a11 l       .debug_str	00000000 
00001ac4 l       .debug_str	00000000 
00001acf l       .debug_str	00000000 
00001ad8 l       .debug_str	00000000 
00001af9 l       .debug_str	00000000 
00001b0c l       .debug_str	00000000 
00001b49 l       .debug_str	00000000 
00001bda l       .debug_str	00000000 
00001c73 l       .debug_str	00000000 
00001c8f l       .debug_str	00000000 
00001ce2 l       .debug_str	00000000 
00001d3d l       .debug_str	00000000 
00001d5a l       .debug_str	00000000 
00001d6e l       .debug_str	00000000 
00001dc1 l       .debug_str	00000000 
00001e1c l       .debug_str	00000000 
00001e32 l       .debug_str	00000000 
00001e46 l       .debug_str	00000000 
00001e94 l       .debug_str	00000000 
00001eea l       .debug_str	00000000 
00001ef3 l       .debug_str	00000000 
00001f01 l       .debug_str	00000000 
00001f39 l       .debug_str	00000000 
00001f3f l       .debug_str	00000000 
00001f47 l       .debug_str	00000000 
00001f4e l       .debug_str	00000000 
00001f56 l       .debug_str	00000000 
00001f61 l       .debug_str	00000000 
00001f69 l       .debug_str	00000000 
00001f78 l       .debug_str	00000000 
00001f7c l       .debug_str	00000000 
00001f87 l       .debug_str	00000000 
00001f93 l       .debug_str	00000000 
00001f9e l       .debug_str	00000000 
00001faf l       .debug_str	00000000 
00001fb5 l       .debug_str	00000000 
00001fbd l       .debug_str	00000000 
00001fc4 l       .debug_str	00000000 
00001fce l       .debug_str	00000000 
00001fd6 l       .debug_str	00000000 
00001fde l       .debug_str	00000000 
00002007 l       .debug_str	00000000 
00002012 l       .debug_str	00000000 
0000201e l       .debug_str	00000000 
00002026 l       .debug_str	00000000 
0000202f l       .debug_str	00000000 
0000203a l       .debug_str	00000000 
00002041 l       .debug_str	00000000 
0000204c l       .debug_str	00000000 
00002057 l       .debug_str	00000000 
00002067 l       .debug_str	00000000 
00002071 l       .debug_str	00000000 
00002077 l       .debug_str	00000000 
000020a0 l       .debug_str	00000000 
000020df l       .debug_str	00000000 
00002126 l       .debug_str	00000000 
0000212d l       .debug_str	00000000 
00002135 l       .debug_str	00000000 
0000214c l       .debug_str	00000000 
00002155 l       .debug_str	00000000 
00002165 l       .debug_str	00000000 
0000219f l       .debug_str	00000000 
000021b4 l       .debug_str	00000000 
000021bd l       .debug_str	00000000 
00002221 l       .debug_str	00000000 
0000228d l       .debug_str	00000000 
00002297 l       .debug_str	00000000 
000022a7 l       .debug_str	00000000 
000022bc l       .debug_str	00000000 
000022c4 l       .debug_str	00000000 
0000232f l       .debug_str	00000000 
000023a2 l       .debug_str	00000000 
000023a9 l       .debug_str	00000000 
000023b1 l       .debug_str	00000000 
000023cf l       .debug_str	00000000 
000023df l       .debug_str	00000000 
00002419 l       .debug_str	00000000 
0000242e l       .debug_str	00000000 
00002441 l       .debug_str	00000000 
00002456 l       .debug_str	00000000 
0000245d l       .debug_str	00000000 
00002472 l       .debug_str	00000000 
000024a3 l       .debug_str	00000000 
00002526 l       .debug_str	00000000 
000025b1 l       .debug_str	00000000 
000025b8 l       .debug_str	00000000 
000025c0 l       .debug_str	00000000 
000025de l       .debug_str	00000000 
000025ee l       .debug_str	00000000 
00002630 l       .debug_str	00000000 
0000263a l       .debug_str	00000000 
00002647 l       .debug_str	00000000 
0000267d l       .debug_str	00000000 
00002690 l       .debug_str	00000000 
000026cc l       .debug_str	00000000 
000026dd l       .debug_str	00000000 
000026e2 l       .debug_str	00000000 
0000271c l       .debug_str	00000000 
00002723 l       .debug_str	00000000 
00002726 l       .debug_str	00000000 
0000272a l       .debug_str	00000000 
00002731 l       .debug_str	00000000 
00002735 l       .debug_str	00000000 
00002738 l       .debug_str	00000000 
0000273b l       .debug_str	00000000 
00002740 l       .debug_str	00000000 
00002746 l       .debug_str	00000000 
0000274d l       .debug_str	00000000 
00002755 l       .debug_str	00000000 
0000275f l       .debug_str	00000000 
00002762 l       .debug_str	00000000 
00002771 l       .debug_str	00000000 
0000277b l       .debug_str	00000000 
00002783 l       .debug_str	00000000 
0000278e l       .debug_str	00000000 
00002799 l       .debug_str	00000000 
000027a6 l       .debug_str	00000000 
000027b1 l       .debug_str	00000000 
000027b9 l       .debug_str	00000000 
000027c4 l       .debug_str	00000000 
000027cf l       .debug_str	00000000 
000027d9 l       .debug_str	00000000 
000027e4 l       .debug_str	00000000 
000027ef l       .debug_str	00000000 
000027fc l       .debug_str	00000000 
00002808 l       .debug_str	00000000 
00002815 l       .debug_str	00000000 
00002823 l       .debug_str	00000000 
0000282d l       .debug_str	00000000 
0000283a l       .debug_str	00000000 
00002846 l       .debug_str	00000000 
0000284a l       .debug_str	00000000 
00002853 l       .debug_str	00000000 
000028b0 l       .debug_str	00000000 
000028b5 l       .debug_str	00000000 
000028ba l       .debug_str	00000000 
000028bc l       .debug_str	00000000 
000028c2 l       .debug_str	00000000 
000028c7 l       .debug_str	00000000 
000028cc l       .debug_str	00000000 
000028d2 l       .debug_str	00000000 
000028d8 l       .debug_str	00000000 
000028e6 l       .debug_str	00000000 
000028f0 l       .debug_str	00000000 
000028f4 l       .debug_str	00000000 
000028fc l       .debug_str	00000000 
00002904 l       .debug_str	00000000 
0000290b l       .debug_str	00000000 
00002917 l       .debug_str	00000000 
00002922 l       .debug_str	00000000 
00002929 l       .debug_str	00000000 
0000292f l       .debug_str	00000000 
00002933 l       .debug_str	00000000 
00002939 l       .debug_str	00000000 
0000293f l       .debug_str	00000000 
00002942 l       .debug_str	00000000 
00002951 l       .debug_str	00000000 
00002955 l       .debug_str	00000000 
0000295e l       .debug_str	00000000 
0000296a l       .debug_str	00000000 
00002983 l       .debug_str	00000000 
00002988 l       .debug_str	00000000 
00002999 l       .debug_str	00000000 
000029a3 l       .debug_str	00000000 
00002a01 l       .debug_str	00000000 
00002a0c l       .debug_str	00000000 
00002a29 l       .debug_str	00000000 
00002a2d l       .debug_str	00000000 
00002a35 l       .debug_str	00000000 
00002a4c l       .debug_str	00000000 
00002a70 l       .debug_str	00000000 
00002a8c l       .debug_str	00000000 
00002a91 l       .debug_str	00000000 
00002a9a l       .debug_str	00000000 
00002aa1 l       .debug_str	00000000 
00002aba l       .debug_str	00000000 
00002ac4 l       .debug_str	00000000 
00002ade l       .debug_str	00000000 
00002b51 l       .debug_str	00000000 
00002b83 l       .debug_str	00000000 
00002b97 l       .debug_str	00000000 
00002ba0 l       .debug_str	00000000 
00002ba7 l       .debug_str	00000000 
00002bb2 l       .debug_str	00000000 
00002bbd l       .debug_str	00000000 
00002c19 l       .debug_str	00000000 
00002c1d l       .debug_str	00000000 
00002c21 l       .debug_str	00000000 
00002c26 l       .debug_str	00000000 
00002c2f l       .debug_str	00000000 
00002c71 l       .debug_str	00000000 
00002cbb l       .debug_str	00000000 
00002cc2 l       .debug_str	00000000 
00002cd0 l       .debug_str	00000000 
00002cdd l       .debug_str	00000000 
00002d05 l       .debug_str	00000000 
00002d39 l       .debug_str	00000000 
00002d41 l       .debug_str	00000000 
00002d4b l       .debug_str	00000000 
00002d51 l       .debug_str	00000000 
00002d56 l       .debug_str	00000000 
00002d5e l       .debug_str	00000000 
00002d67 l       .debug_str	00000000 
00002d7d l       .debug_str	00000000 
00002d9b l       .debug_str	00000000 
00002da4 l       .debug_str	00000000 
00002dad l       .debug_str	00000000 
00002dc3 l       .debug_str	00000000 
00002de1 l       .debug_str	00000000 
00002de6 l       .debug_str	00000000 
00002dea l       .debug_str	00000000 
00002df3 l       .debug_str	00000000 
00002e09 l       .debug_str	00000000 
00002e27 l       .debug_str	00000000 
00002e2e l       .debug_str	00000000 
00002e43 l       .debug_str	00000000 
00002e60 l       .debug_str	00000000 
00002e68 l       .debug_str	00000000 
00002e72 l       .debug_str	00000000 
00002e89 l       .debug_str	00000000 
00002ea8 l       .debug_str	00000000 
00002eb2 l       .debug_str	00000000 
00002eb8 l       .debug_str	00000000 
00002ec5 l       .debug_str	00000000 
00002ec9 l       .debug_str	00000000 
00002ed1 l       .debug_str	00000000 
00002f26 l       .debug_str	00000000 
00002f83 l       .debug_str	00000000 
00002f8b l       .debug_str	00000000 
00002f90 l       .debug_str	00000000 
00002f9d l       .debug_str	00000000 
00002fa3 l       .debug_str	00000000 
00002fac l       .debug_str	00000000 
00002fd5 l       .debug_str	00000000 
0000302a l       .debug_str	00000000 
00003087 l       .debug_str	00000000 
00003090 l       .debug_str	00000000 
000030b9 l       .debug_str	00000000 
0000310e l       .debug_str	00000000 
0000316b l       .debug_str	00000000 
00003175 l       .debug_str	00000000 
0000319e l       .debug_str	00000000 
000031f3 l       .debug_str	00000000 
00003250 l       .debug_str	00000000 
00003256 l       .debug_str	00000000 
0000327f l       .debug_str	00000000 
000032d4 l       .debug_str	00000000 
00003331 l       .debug_str	00000000 
0000333a l       .debug_str	00000000 
00003363 l       .debug_str	00000000 
000033b8 l       .debug_str	00000000 
00003415 l       .debug_str	00000000 
00003430 l       .debug_str	00000000 
00003436 l       .debug_str	00000000 
0000343f l       .debug_str	00000000 
00003446 l       .debug_str	00000000 
00003453 l       .debug_str	00000000 
0000348c l       .debug_str	00000000 
000034cd l       .debug_str	00000000 
000034d4 l       .debug_str	00000000 
000034e7 l       .debug_str	00000000 
00003502 l       .debug_str	00000000 
0000351c l       .debug_str	00000000 
00003521 l       .debug_str	00000000 
00003532 l       .debug_str	00000000 
0000354b l       .debug_str	00000000 
0000355c l       .debug_str	00000000 
00003575 l       .debug_str	00000000 
00003586 l       .debug_str	00000000 
0000359f l       .debug_str	00000000 
000035b1 l       .debug_str	00000000 
000035cb l       .debug_str	00000000 
000035db l       .debug_str	00000000 
000035f3 l       .debug_str	00000000 
000035f9 l       .debug_str	00000000 
00003613 l       .debug_str	00000000 
00003617 l       .debug_str	00000000 
0000361b l       .debug_str	00000000 
00003620 l       .debug_str	00000000 
0000362c l       .debug_str	00000000 
0000365e l       .debug_str	00000000 
00003668 l       .debug_str	00000000 
00003674 l       .debug_str	00000000 
000036a6 l       .debug_str	00000000 
000036ab l       .debug_str	00000000 
000036b2 l       .debug_str	00000000 
000036db l       .debug_str	00000000 
00003703 l       .debug_str	00000000 
00003753 l       .debug_str	00000000 
0000377b l       .debug_str	00000000 
000037bd l       .debug_str	00000000 
000037e5 l       .debug_str	00000000 
00003819 l       .debug_str	00000000 
00003841 l       .debug_str	00000000 
00003882 l       .debug_str	00000000 
000038aa l       .debug_str	00000000 
000038dd l       .debug_str	00000000 
00003905 l       .debug_str	00000000 
00003931 l       .debug_str	00000000 
00003936 l       .debug_str	00000000 
0000393c l       .debug_str	00000000 
00003946 l       .debug_str	00000000 
0000394f l       .debug_str	00000000 
00003958 l       .debug_str	00000000 
00003963 l       .debug_str	00000000 
0000396d l       .debug_str	00000000 
0000399b l       .debug_str	00000000 
000039b3 l       .debug_str	00000000 
000039bd l       .debug_str	00000000 
000039e7 l       .debug_str	00000000 
000039ef l       .debug_str	00000000 
000039f6 l       .debug_str	00000000 
00003a21 l       .debug_str	00000000 
00003a51 l       .debug_str	00000000 
00003a6a l       .debug_str	00000000 
00003a75 l       .debug_str	00000000 
00003a9d l       .debug_str	00000000 
00003acb l       .debug_str	00000000 
00003ad5 l       .debug_str	00000000 
00003add l       .debug_str	00000000 
00003ae4 l       .debug_str	00000000 
00003aeb l       .debug_str	00000000 
00003af0 l       .debug_str	00000000 
00003b1a l       .debug_str	00000000 
00003b49 l       .debug_str	00000000 
00003b61 l       .debug_str	00000000 
00003b6b l       .debug_str	00000000 
00003b93 l       .debug_str	00000000 
00003bc0 l       .debug_str	00000000 
00003be8 l       .debug_str	00000000 
00003c12 l       .debug_str	00000000 
00003c1a l       .debug_str	00000000 
00003c23 l       .debug_str	00000000 
00003c31 l       .debug_str	00000000 
00003c38 l       .debug_str	00000000 
00003c3f l       .debug_str	00000000 
00003c4f l       .debug_str	00000000 
00003c58 l       .debug_str	00000000 
00003c66 l       .debug_str	00000000 
00003c74 l       .debug_str	00000000 
00003c80 l       .debug_str	00000000 
00003c8c l       .debug_str	00000000 
00003c95 l       .debug_str	00000000 
00003ca4 l       .debug_str	00000000 
00003cac l       .debug_str	00000000 
00003cc5 l       .debug_str	00000000 
00003cd6 l       .debug_str	00000000 
00003cde l       .debug_str	00000000 
00003cf8 l       .debug_str	00000000 
00003d04 l       .debug_str	00000000 
00003d30 l       .debug_str	00000000 
00003d49 l       .debug_str	00000000 
00003d54 l       .debug_str	00000000 
00003d7f l       .debug_str	00000000 
00003d88 l       .debug_str	00000000 
00003da3 l       .debug_str	00000000 
00003db0 l       .debug_str	00000000 
00003ddd l       .debug_str	00000000 
00003de5 l       .debug_str	00000000 
00003e0d l       .debug_str	00000000 
00003e23 l       .debug_str	00000000 
00003e2e l       .debug_str	00000000 
00003e32 l       .debug_str	00000000 
00003e4d l       .debug_str	00000000 
00003e55 l       .debug_str	00000000 
00003e7d l       .debug_str	00000000 
00003ea8 l       .debug_str	00000000 
00003ed0 l       .debug_str	00000000 
00003efe l       .debug_str	00000000 
00003f26 l       .debug_str	00000000 
00003f59 l       .debug_str	00000000 
00003f81 l       .debug_str	00000000 
00003fac l       .debug_str	00000000 
00003fb5 l       .debug_str	00000000 
00003fca l       .debug_str	00000000 
00003fd5 l       .debug_str	00000000 
00003fdc l       .debug_str	00000000 
00004004 l       .debug_str	00000000 
0000402e l       .debug_str	00000000 
00004056 l       .debug_str	00000000 
00004091 l       .debug_str	00000000 
000040b9 l       .debug_str	00000000 
000040f6 l       .debug_str	00000000 
0000411e l       .debug_str	00000000 
0000415e l       .debug_str	00000000 
00004186 l       .debug_str	00000000 
000041ba l       .debug_str	00000000 
000041c3 l       .debug_str	00000000 
000041d6 l       .debug_str	00000000 
000041e1 l       .debug_str	00000000 
000041f1 l       .debug_str	00000000 
0000420d l       .debug_str	00000000 
0000421b l       .debug_str	00000000 
00004243 l       .debug_str	00000000 
0000427e l       .debug_str	00000000 
00004283 l       .debug_str	00000000 
0000428f l       .debug_str	00000000 
00004291 l       .debug_str	00000000 
00004294 l       .debug_str	00000000 
000042a5 l       .debug_str	00000000 
000042be l       .debug_str	00000000 
000042c2 l       .debug_str	00000000 
000042cc l       .debug_str	00000000 
000042d1 l       .debug_str	00000000 
000042d8 l       .debug_str	00000000 
000042e0 l       .debug_str	00000000 
000042e8 l       .debug_str	00000000 
000042ef l       .debug_str	00000000 
000042f6 l       .debug_str	00000000 
0000431d l       .debug_str	00000000 
00004370 l       .debug_str	00000000 
000043cb l       .debug_str	00000000 
000043e4 l       .debug_str	00000000 
000043ef l       .debug_str	00000000 
0000441e l       .debug_str	00000000 
00004452 l       .debug_str	00000000 
000044a8 l       .debug_str	00000000 
00004506 l       .debug_str	00000000 
0000452e l       .debug_str	00000000 
00004571 l       .debug_str	00000000 
00004580 l       .debug_str	00000000 
0000458b l       .debug_str	00000000 
0000459a l       .debug_str	00000000 
000045af l       .debug_str	00000000 
000045c7 l       .debug_str	00000000 
0000461a l       .debug_str	00000000 
00004675 l       .debug_str	00000000 
0000468a l       .debug_str	00000000 
000046a3 l       .debug_str	00000000 
000046cb l       .debug_str	00000000 
00004711 l       .debug_str	00000000 
00004743 l       .debug_str	00000000 
00004751 l       .debug_str	00000000 
00004755 l       .debug_str	00000000 
0000475b l       .debug_str	00000000 
00004769 l       .debug_str	00000000 
000047a7 l       .debug_str	00000000 
000047b7 l       .debug_str	00000000 
000047bb l       .debug_str	00000000 
000047c0 l       .debug_str	00000000 
000047c4 l       .debug_str	00000000 
000047c9 l       .debug_str	00000000 
000047cf l       .debug_str	00000000 
000047df l       .debug_str	00000000 
000047eb l       .debug_str	00000000 
000047f7 l       .debug_str	00000000 
00004803 l       .debug_str	00000000 
00004810 l       .debug_str	00000000 
0000481c l       .debug_str	00000000 
0000482a l       .debug_str	00000000 
00004841 l       .debug_str	00000000 
00004856 l       .debug_str	00000000 
00004859 l       .debug_str	00000000 
00004879 l       .debug_str	00000000 
00004882 l       .debug_str	00000000 
000048bc l       .debug_str	00000000 
000048cd l       .debug_str	00000000 
000048cf l       .debug_str	00000000 
000048fe l       .debug_str	00000000 
00004909 l       .debug_str	00000000 
00004923 l       .debug_str	00000000 
0000492f l       .debug_str	00000000 
00004939 l       .debug_str	00000000 
0000493f l       .debug_str	00000000 
00004944 l       .debug_str	00000000 
00004955 l       .debug_str	00000000 
0000495e l       .debug_str	00000000 
00004966 l       .debug_str	00000000 
00004970 l       .debug_str	00000000 
0000497d l       .debug_str	00000000 
000049c4 l       .debug_str	00000000 
000049e2 l       .debug_str	00000000 
000049eb l       .debug_str	00000000 
000049f3 l       .debug_str	00000000 
000049fc l       .debug_str	00000000 
00004a03 l       .debug_str	00000000 
00004a09 l       .debug_str	00000000 
00004a72 l       .debug_str	00000000 
00004ae3 l       .debug_str	00000000 
00004af1 l       .debug_str	00000000 
00004b05 l       .debug_str	00000000 
00004b41 l       .debug_str	00000000 
00004b4c l       .debug_str	00000000 
00004b52 l       .debug_str	00000000 
00004b5e l       .debug_str	00000000 
00004b92 l       .debug_str	00000000 
00004ba4 l       .debug_str	00000000 
00004ba8 l       .debug_str	00000000 
00004bac l       .debug_str	00000000 
00004bb5 l       .debug_str	00000000 
00004bc0 l       .debug_str	00000000 
00004bfe l       .debug_str	00000000 
00004c16 l       .debug_str	00000000 
00004c1a l       .debug_str	00000000 
00004c1e l       .debug_str	00000000 
00004c71 l       .debug_str	00000000 
00004c85 l       .debug_str	00000000 
00004c8f l       .debug_str	00000000 
00004c98 l       .debug_str	00000000 
00004c9f l       .debug_str	00000000 
00004ca9 l       .debug_str	00000000 
00004cae l       .debug_str	00000000 
00004cb6 l       .debug_str	00000000 
00004cbb l       .debug_str	00000000 
00004cc0 l       .debug_str	00000000 
00004cc7 l       .debug_str	00000000 
00004cd3 l       .debug_str	00000000 
00004cdb l       .debug_str	00000000 
00004ce4 l       .debug_str	00000000 
00004ce9 l       .debug_str	00000000 
00004cec l       .debug_str	00000000 
00004cf5 l       .debug_str	00000000 
00004cfc l       .debug_str	00000000 
00004cff l       .debug_str	00000000 
00004d05 l       .debug_str	00000000 
00004d0f l       .debug_str	00000000 
00004d17 l       .debug_str	00000000 
00004d1d l       .debug_str	00000000 
00004d28 l       .debug_str	00000000 
00004d31 l       .debug_str	00000000 
00004d54 l       .debug_str	00000000 
00004d73 l       .debug_str	00000000 
00004d9a l       .debug_str	00000000 
00004da4 l       .debug_str	00000000 
00004dba l       .debug_str	00000000 
00004e10 l       .debug_str	00000000 
00004e1c l       .debug_str	00000000 
00004e54 l       .debug_str	00000000 
00004e56 l       .debug_str	00000000 
00004e86 l       .debug_str	00000000 
00004e8f l       .debug_str	00000000 
00004e95 l       .debug_str	00000000 
00004ed9 l       .debug_str	00000000 
00004ef4 l       .debug_str	00000000 
00004efc l       .debug_str	00000000 
00004f01 l       .debug_str	00000000 
00004f0f l       .debug_str	00000000 
00004f19 l       .debug_str	00000000 
00004f27 l       .debug_str	00000000 
00004f3b l       .debug_str	00000000 
00004fbe l       .debug_str	00000000 
00004fc8 l       .debug_str	00000000 
00004fce l       .debug_str	00000000 
00004fd4 l       .debug_str	00000000 
00004fd8 l       .debug_str	00000000 
00004fe5 l       .debug_str	00000000 
0000506b l       .debug_str	00000000 
0000507a l       .debug_str	00000000 
0000507c l       .debug_str	00000000 
000050f1 l       .debug_str	00000000 
0000511c l       .debug_str	00000000 
00005122 l       .debug_str	00000000 
0000517a l       .debug_str	00000000 
00005188 l       .debug_str	00000000 
000051d3 l       .debug_str	00000000 
000051e3 l       .debug_str	00000000 
000051f1 l       .debug_str	00000000 
000051f5 l       .debug_str	00000000 
000051f7 l       .debug_str	00000000 
000051f9 l       .debug_str	00000000 
00005240 l       .debug_str	00000000 
0000524c l       .debug_str	00000000 
00005293 l       .debug_str	00000000 
0000529c l       .debug_str	00000000 
000052a8 l       .debug_str	00000000 
000052b1 l       .debug_str	00000000 
000052b5 l       .debug_str	00000000 
000052bf l       .debug_str	00000000 
00005322 l       .debug_str	00000000 
0000532a l       .debug_str	00000000 
00005345 l       .debug_str	00000000 
0000534b l       .debug_str	00000000 
00005355 l       .debug_str	00000000 
0000535b l       .debug_str	00000000 
00005366 l       .debug_str	00000000 
0000536f l       .debug_str	00000000 
00005379 l       .debug_str	00000000 
000053ab l       .debug_str	00000000 
000053b2 l       .debug_str	00000000 
000053ee l       .debug_str	00000000 
00005401 l       .debug_str	00000000 
00005407 l       .debug_str	00000000 
0000544b l       .debug_str	00000000 
00005461 l       .debug_str	00000000 
0000546a l       .debug_str	00000000 
000054ac l       .debug_str	00000000 
000054be l       .debug_str	00000000 
000054c7 l       .debug_str	00000000 
000054cb l       .debug_str	00000000 
000054f5 l       .debug_str	00000000 
000054fa l       .debug_str	00000000 
00005542 l       .debug_str	00000000 
0000554b l       .debug_str	00000000 
00005593 l       .debug_str	00000000 
000055c9 l       .debug_str	00000000 
00005611 l       .debug_str	00000000 
00005619 l       .debug_str	00000000 
00005691 l       .debug_str	00000000 
00005699 l       .debug_str	00000000 
00005710 l       .debug_str	00000000 
000057a5 l       .debug_str	00000000 
0000582c l       .debug_str	00000000 
000058a4 l       .debug_str	00000000 
00005929 l       .debug_str	00000000 
000059a0 l       .debug_str	00000000 
00005a3f l       .debug_str	00000000 
00005a4d l       .debug_str	00000000 
00005ad9 l       .debug_str	00000000 
00005aef l       .debug_str	00000000 
00005b72 l       .debug_str	00000000 
00005bf9 l       .debug_str	00000000 
00005c88 l       .debug_str	00000000 
00005cf8 l       .debug_str	00000000 
00005d6a l       .debug_str	00000000 
00005ddb l       .debug_str	00000000 
00005e49 l       .debug_str	00000000 
00005eb8 l       .debug_str	00000000 
00005f2a l       .debug_str	00000000 
00005fa1 l       .debug_str	00000000 
00006010 l       .debug_str	00000000 
0000607e l       .debug_str	00000000 
00006105 l       .debug_str	00000000 
00006184 l       .debug_str	00000000 
00006205 l       .debug_str	00000000 
00006289 l       .debug_str	00000000 
00006310 l       .debug_str	00000000 
0000631c l       .debug_str	00000000 
00006328 l       .debug_str	00000000 
0000633d l       .debug_str	00000000 
000063b5 l       .debug_str	00000000 
00006434 l       .debug_str	00000000 
0000647a l       .debug_str	00000000 
00006490 l       .debug_str	00000000 
00006518 l       .debug_str	00000000 
000065a3 l       .debug_str	00000000 
00006635 l       .debug_str	00000000 
0000663a l       .debug_str	00000000 
00006679 l       .debug_str	00000000 
0000668a l       .debug_str	00000000 
000066c5 l       .debug_str	00000000 
000066d7 l       .debug_str	00000000 
000066dc l       .debug_str	00000000 
000066de l       .debug_str	00000000 
000066f0 l       .debug_str	00000000 
000066f6 l       .debug_str	00000000 
0000675b l       .debug_str	00000000 
0000678e l       .debug_str	00000000 
00006793 l       .debug_str	00000000 
000067c0 l       .debug_str	00000000 
000067c8 l       .debug_str	00000000 
000067ce l       .debug_str	00000000 
000067d6 l       .debug_str	00000000 
000067db l       .debug_str	00000000 
000067e8 l       .debug_str	00000000 
000067f5 l       .debug_str	00000000 
000067fc l       .debug_str	00000000 
0000680c l       .debug_str	00000000 
0000681e l       .debug_str	00000000 
0000682a l       .debug_str	00000000 
0000682f l       .debug_str	00000000 
00006837 l       .debug_str	00000000 
0000683b l       .debug_str	00000000 
00006840 l       .debug_str	00000000 
00006848 l       .debug_str	00000000 
00006866 l       .debug_str	00000000 
0000686f l       .debug_str	00000000 
00006874 l       .debug_str	00000000 
00006879 l       .debug_str	00000000 
0000687d l       .debug_str	00000000 
00006886 l       .debug_str	00000000 
00006890 l       .debug_str	00000000 
000068a8 l       .debug_str	00000000 
000068bf l       .debug_str	00000000 
00000000 l     O .bss..L_MergedGlobals	00000041 .L_MergedGlobals
00000000 l     O .rodata..Lanon.3a2334938771bfe7ed96405975cadcd6.11	00000018 .Lanon.3a2334938771bfe7ed96405975cadcd6.11
00000000 l     O .rodata..Lanon.3a2334938771bfe7ed96405975cadcd6.12	0000000a .Lanon.3a2334938771bfe7ed96405975cadcd6.12
00000000 l     O .rodata..Lanon.3a2334938771bfe7ed96405975cadcd6.13	0000000d .Lanon.3a2334938771bfe7ed96405975cadcd6.13
00000000 l     O .rodata.cst4	00000004 .Lanon.3a2334938771bfe7ed96405975cadcd6.14
00000000 l     O .rodata..Lanon.3a2334938771bfe7ed96405975cadcd6.16	00000010 .Lanon.3a2334938771bfe7ed96405975cadcd6.16
00000000 l     O .rodata..Lanon.3a2334938771bfe7ed96405975cadcd6.18	00000018 .Lanon.3a2334938771bfe7ed96405975cadcd6.18
00000000 l     O .rodata..Lanon.3a2334938771bfe7ed96405975cadcd6.19	00000011 .Lanon.3a2334938771bfe7ed96405975cadcd6.19
00000000 l     O .rodata..Lanon.3a2334938771bfe7ed96405975cadcd6.2	00000001 .Lanon.3a2334938771bfe7ed96405975cadcd6.2
00000000 l     O .rodata..Lanon.3a2334938771bfe7ed96405975cadcd6.20	00000018 .Lanon.3a2334938771bfe7ed96405975cadcd6.20
00000000 l     O .rodata..Lanon.3a2334938771bfe7ed96405975cadcd6.22	00000018 .Lanon.3a2334938771bfe7ed96405975cadcd6.22
00000000 l     O .rodata..Lanon.3a2334938771bfe7ed96405975cadcd6.23	00000016 .Lanon.3a2334938771bfe7ed96405975cadcd6.23
00000000 l     O .rodata..Lanon.3a2334938771bfe7ed96405975cadcd6.25	00000018 .Lanon.3a2334938771bfe7ed96405975cadcd6.25
00000000 l     O .rodata..Lanon.3a2334938771bfe7ed96405975cadcd6.26	00000018 .Lanon.3a2334938771bfe7ed96405975cadcd6.26
00000000 l     O .rodata..Lanon.3a2334938771bfe7ed96405975cadcd6.27	00000019 .Lanon.3a2334938771bfe7ed96405975cadcd6.27
00000000 l     O .rodata..Lanon.3a2334938771bfe7ed96405975cadcd6.28	0000000a .Lanon.3a2334938771bfe7ed96405975cadcd6.28
00000000 l     O .rodata.cst8	00000008 .Lanon.3a2334938771bfe7ed96405975cadcd6.29
00000000 l     O .rodata.cst16	00000010 .Lanon.3a2334938771bfe7ed96405975cadcd6.30
00000000 l     O .rodata..Lanon.3a2334938771bfe7ed96405975cadcd6.31	00000010 .Lanon.3a2334938771bfe7ed96405975cadcd6.31
00000000 l     O .rodata..Lanon.3a2334938771bfe7ed96405975cadcd6.33	00000018 .Lanon.3a2334938771bfe7ed96405975cadcd6.33
00000000 l     O .rodata..Lanon.3a2334938771bfe7ed96405975cadcd6.34	00000010 .Lanon.3a2334938771bfe7ed96405975cadcd6.34
00000000 l     O .rodata..Lanon.3a2334938771bfe7ed96405975cadcd6.35	00000010 .Lanon.3a2334938771bfe7ed96405975cadcd6.35
00000000 l     O .rodata..Lanon.3a2334938771bfe7ed96405975cadcd6.36	00000011 .Lanon.3a2334938771bfe7ed96405975cadcd6.36
00000000 l     O .rodata..Lanon.3a2334938771bfe7ed96405975cadcd6.37	00000011 .Lanon.3a2334938771bfe7ed96405975cadcd6.37
00000000 l     O .rodata..Lanon.3a2334938771bfe7ed96405975cadcd6.38	00000010 .Lanon.3a2334938771bfe7ed96405975cadcd6.38
00000000 l     O .rodata..Lanon.3a2334938771bfe7ed96405975cadcd6.40	00000018 .Lanon.3a2334938771bfe7ed96405975cadcd6.40
00000000 l     O .rodata..Lanon.3a2334938771bfe7ed96405975cadcd6.41	00000010 .Lanon.3a2334938771bfe7ed96405975cadcd6.41
00000000 l     O .rodata..Lanon.3a2334938771bfe7ed96405975cadcd6.43	00000018 .Lanon.3a2334938771bfe7ed96405975cadcd6.43
00000000 l     O .rodata..Lanon.3a2334938771bfe7ed96405975cadcd6.44	00000007 .Lanon.3a2334938771bfe7ed96405975cadcd6.44
00000000 l     O .rodata..Lanon.3a2334938771bfe7ed96405975cadcd6.45	0000000d .Lanon.3a2334938771bfe7ed96405975cadcd6.45
00000004 l     O .rodata.cst4	00000004 .Lanon.3a2334938771bfe7ed96405975cadcd6.46
00000000 l     O .rodata..Lanon.3a2334938771bfe7ed96405975cadcd6.47	00000006 .Lanon.3a2334938771bfe7ed96405975cadcd6.47
00000000 l     O .rodata..Lanon.3a2334938771bfe7ed96405975cadcd6.48	00000006 .Lanon.3a2334938771bfe7ed96405975cadcd6.48
00000000 l     O .rodata..Lanon.3a2334938771bfe7ed96405975cadcd6.49	00000003 .Lanon.3a2334938771bfe7ed96405975cadcd6.49
00000000 l     O .rodata..Lanon.3a2334938771bfe7ed96405975cadcd6.5	00000018 .Lanon.3a2334938771bfe7ed96405975cadcd6.5
00000000 l     O .rodata..Lanon.3a2334938771bfe7ed96405975cadcd6.50	00000005 .Lanon.3a2334938771bfe7ed96405975cadcd6.50
00000000 l     O .rodata..Lanon.3a2334938771bfe7ed96405975cadcd6.51	00000018 .Lanon.3a2334938771bfe7ed96405975cadcd6.51
00000000 l     O .rodata..Lanon.3a2334938771bfe7ed96405975cadcd6.52	0000004b .Lanon.3a2334938771bfe7ed96405975cadcd6.52
00000000 l     O .rodata..Lanon.3a2334938771bfe7ed96405975cadcd6.53	00000018 .Lanon.3a2334938771bfe7ed96405975cadcd6.53
00000000 l     O .rodata..Lanon.3a2334938771bfe7ed96405975cadcd6.54	00000018 .Lanon.3a2334938771bfe7ed96405975cadcd6.54
00000000 l     O .rodata..Lanon.3a2334938771bfe7ed96405975cadcd6.55	00000021 .Lanon.3a2334938771bfe7ed96405975cadcd6.55
00000000 l     O .rodata..Lanon.3a2334938771bfe7ed96405975cadcd6.56	00000012 .Lanon.3a2334938771bfe7ed96405975cadcd6.56
00000000 l     O .rodata..Lanon.3a2334938771bfe7ed96405975cadcd6.57	00000009 .Lanon.3a2334938771bfe7ed96405975cadcd6.57
00000008 l     O .rodata.cst8	00000008 .Lanon.3a2334938771bfe7ed96405975cadcd6.58
00000000 l     O .rodata..Lanon.3a2334938771bfe7ed96405975cadcd6.59	00000001 .Lanon.3a2334938771bfe7ed96405975cadcd6.59
00000000 l     O .rodata..Lanon.3a2334938771bfe7ed96405975cadcd6.60	0000000e .Lanon.3a2334938771bfe7ed96405975cadcd6.60
00000000 l     O .rodata..Lanon.3a2334938771bfe7ed96405975cadcd6.61	00000002 .Lanon.3a2334938771bfe7ed96405975cadcd6.61
00000000 l     O .rodata..Lanon.3a2334938771bfe7ed96405975cadcd6.62	0000000c .Lanon.3a2334938771bfe7ed96405975cadcd6.62
00000000 l     O .rodata..Lanon.3a2334938771bfe7ed96405975cadcd6.63	00000009 .Lanon.3a2334938771bfe7ed96405975cadcd6.63
00000000 l     O .rodata..Lanon.3a2334938771bfe7ed96405975cadcd6.64	0000000d .Lanon.3a2334938771bfe7ed96405975cadcd6.64
00000000 l     O .rodata..Lanon.3a2334938771bfe7ed96405975cadcd6.65	0000000c .Lanon.3a2334938771bfe7ed96405975cadcd6.65
00000000 l     O .rodata..Lanon.3a2334938771bfe7ed96405975cadcd6.66	0000000b .Lanon.3a2334938771bfe7ed96405975cadcd6.66
00000000 l     O .rodata..Lanon.3a2334938771bfe7ed96405975cadcd6.67	0000000c .Lanon.3a2334938771bfe7ed96405975cadcd6.67
00000000 l     O .rodata..Lanon.3a2334938771bfe7ed96405975cadcd6.68	0000000a .Lanon.3a2334938771bfe7ed96405975cadcd6.68
00000000 l     O .rodata..Lanon.3a2334938771bfe7ed96405975cadcd6.69	0000000a .Lanon.3a2334938771bfe7ed96405975cadcd6.69
00000000 l     O .rodata..Lanon.3a2334938771bfe7ed96405975cadcd6.7	00000018 .Lanon.3a2334938771bfe7ed96405975cadcd6.7
00000000 l     O .rodata..Lanon.3a2334938771bfe7ed96405975cadcd6.70	00000009 .Lanon.3a2334938771bfe7ed96405975cadcd6.70
00000000 l     O .rodata..Lanon.3a2334938771bfe7ed96405975cadcd6.71	0000000a .Lanon.3a2334938771bfe7ed96405975cadcd6.71
00000000 l     O .rodata..Lanon.3a2334938771bfe7ed96405975cadcd6.72	0000000a .Lanon.3a2334938771bfe7ed96405975cadcd6.72
00000000 l     O .rodata..Lanon.3a2334938771bfe7ed96405975cadcd6.73	00000007 .Lanon.3a2334938771bfe7ed96405975cadcd6.73
00000000 l     O .rodata..Lanon.3a2334938771bfe7ed96405975cadcd6.74	0000000a .Lanon.3a2334938771bfe7ed96405975cadcd6.74
00000000 l     O .rodata..Lanon.3a2334938771bfe7ed96405975cadcd6.75	0000000c .Lanon.3a2334938771bfe7ed96405975cadcd6.75
00000000 l     O .rodata..Lanon.3a2334938771bfe7ed96405975cadcd6.76	0000000a .Lanon.3a2334938771bfe7ed96405975cadcd6.76
00000000 l     O .rodata..Lanon.3a2334938771bfe7ed96405975cadcd6.77	0000000a .Lanon.3a2334938771bfe7ed96405975cadcd6.77
00000000 l     O .rodata..Lanon.3a2334938771bfe7ed96405975cadcd6.78	00000007 .Lanon.3a2334938771bfe7ed96405975cadcd6.78
00000000 l     O .rodata..Lanon.3a2334938771bfe7ed96405975cadcd6.8	00000010 .Lanon.3a2334938771bfe7ed96405975cadcd6.8
00000000 l     F .text._ZN42_$LT$$RF$T$u20$as$u20$core..fmt..Debug$GT$3fmt17h13ac8c522a55adacE	0000003a _ZN42_$LT$$RF$T$u20$as$u20$core..fmt..Debug$GT$3fmt17h13ac8c522a55adacE
00000000 l     F .text._ZN42_$LT$$RF$T$u20$as$u20$core..fmt..Debug$GT$3fmt17hc97525fcad219201E	00000036 _ZN42_$LT$$RF$T$u20$as$u20$core..fmt..Debug$GT$3fmt17hc97525fcad219201E
00000000 l     F .text._ZN42_$LT$$RF$T$u20$as$u20$core..fmt..Debug$GT$3fmt17hef1b000013b2e9f1E	0000003a _ZN42_$LT$$RF$T$u20$as$u20$core..fmt..Debug$GT$3fmt17hef1b000013b2e9f1E
00000000 l     F .text._ZN5mylib13listen_sensor16read_temperature17h283273ee5533fd04E	000004ac _ZN5mylib13listen_sensor16read_temperature17h283273ee5533fd04E
00000000 l     O .data._ZN5mylib6mynewt2hw6sensor17LISTENER_INTERNAL17h6f9ae9cad3c79823E	00000018 _ZN5mylib6mynewt2hw6sensor17LISTENER_INTERNAL17h6f9ae9cad3c79823E
00000000 l     F .text._ZN5mylib6mynewt2hw6sensor21null_sensor_data_func17he576af080a279986E	00000004 _ZN5mylib6mynewt2hw6sensor21null_sensor_data_func17he576af080a279986E
00000001 l     O .bss..L_MergedGlobals	00000040 _ZN5mylib6mynewt8encoding12json_context12JSON_CONTEXT17h28316dc621b63fb5E
00000000 l     O .bss._ZN5mylib9send_coap12NETWORK_TASK17hfe4c85d5a08ad1acE	00000050 _ZN5mylib9send_coap12NETWORK_TASK17hfe4c85d5a08ad1acE
00000000 l     O .bss..L_MergedGlobals	00000001 _ZN5mylib9send_coap16NETWORK_IS_READY17h8eedfcb9fe69a092E.0.0
00000000 l     F .text._ZN5mylib9send_coap17network_task_func17hd9a1eeab35a857d1E	0000011a _ZN5mylib9send_coap17network_task_func17hd9a1eeab35a857d1E
00000000 l     O .bss._ZN5mylib9send_coap18NETWORK_TASK_STACK17h8b663783da39d672E	00000400 _ZN5mylib9send_coap18NETWORK_TASK_STACK17h8b663783da39d672E
00000000 l     O .rodata.str.4	00000010 str.4
00000000 l    d  .text._ZN42_$LT$$RF$T$u20$as$u20$core..fmt..Debug$GT$3fmt17h13ac8c522a55adacE	00000000 .text._ZN42_$LT$$RF$T$u20$as$u20$core..fmt..Debug$GT$3fmt17h13ac8c522a55adacE
00000000 l    d  .text._ZN42_$LT$$RF$T$u20$as$u20$core..fmt..Debug$GT$3fmt17hc97525fcad219201E	00000000 .text._ZN42_$LT$$RF$T$u20$as$u20$core..fmt..Debug$GT$3fmt17hc97525fcad219201E
00000000 l    d  .text._ZN42_$LT$$RF$T$u20$as$u20$core..fmt..Debug$GT$3fmt17hef1b000013b2e9f1E	00000000 .text._ZN42_$LT$$RF$T$u20$as$u20$core..fmt..Debug$GT$3fmt17hef1b000013b2e9f1E
00000000 l    d  .text._ZN86_$LT$mylib..mynewt..encoding..json..json_encoder$u20$as$u20$core..default..Default$GT$7default17h3a86dbb2a8a8164dE	00000000 .text._ZN86_$LT$mylib..mynewt..encoding..json..json_encoder$u20$as$u20$core..default..Default$GT$7default17h3a86dbb2a8a8164dE
00000000 l    d  .text._ZN85_$LT$mylib..mynewt..encoding..json..json_enum_t$u20$as$u20$core..default..Default$GT$7default17hbada56f05cb58551E	00000000 .text._ZN85_$LT$mylib..mynewt..encoding..json..json_enum_t$u20$as$u20$core..default..Default$GT$7default17hbada56f05cb58551E
00000000 l    d  .text._ZN114_$LT$mylib..mynewt..encoding..json..json_array_t__bindgen_ty_1__bindgen_ty_1$u20$as$u20$core..default..Default$GT$7default17he12df112c375aa63E	00000000 .text._ZN114_$LT$mylib..mynewt..encoding..json..json_array_t__bindgen_ty_1__bindgen_ty_1$u20$as$u20$core..default..Default$GT$7default17he12df112c375aa63E
00000000 l    d  .text._ZN100_$LT$mylib..mynewt..encoding..json..json_array_t__bindgen_ty_1$u20$as$u20$core..default..Default$GT$7default17h667ef8f6053cc85dE	00000000 .text._ZN100_$LT$mylib..mynewt..encoding..json..json_array_t__bindgen_ty_1$u20$as$u20$core..default..Default$GT$7default17h667ef8f6053cc85dE
00000000 l    d  .text._ZN86_$LT$mylib..mynewt..encoding..json..json_array_t$u20$as$u20$core..default..Default$GT$7default17h9ed2b02adbdc200eE	00000000 .text._ZN86_$LT$mylib..mynewt..encoding..json..json_array_t$u20$as$u20$core..default..Default$GT$7default17h9ed2b02adbdc200eE
00000000 l    d  .text._ZN99_$LT$mylib..mynewt..encoding..json..json_attr_t__bindgen_ty_1$u20$as$u20$core..default..Default$GT$7default17hf95111df9d32b5bcE	00000000 .text._ZN99_$LT$mylib..mynewt..encoding..json..json_attr_t__bindgen_ty_1$u20$as$u20$core..default..Default$GT$7default17hf95111df9d32b5bcE
00000000 l    d  .text._ZN85_$LT$mylib..mynewt..encoding..json..json_attr_t$u20$as$u20$core..default..Default$GT$7default17hf2866f3a6beda229E	00000000 .text._ZN85_$LT$mylib..mynewt..encoding..json..json_attr_t$u20$as$u20$core..default..Default$GT$7default17hf2866f3a6beda229E
00000000 l    d  .text._ZN117_$LT$mylib..mynewt..encoding..json_context..Step$u20$as$u20$mylib..mynewt..encoding..json_context..FunctionCaller$GT$13call_function17h2f37b49e8f74ef48E	00000000 .text._ZN117_$LT$mylib..mynewt..encoding..json_context..Step$u20$as$u20$mylib..mynewt..encoding..json_context..FunctionCaller$GT$13call_function17h2f37b49e8f74ef48E
00000000 l    d  .text._ZN91_$LT$$u5b$u8$u5d$$u20$as$u20$mylib..mynewt..encoding..json_context..ToBytesOptionalNull$GT$21to_bytes_optional_nul17h8aa12d01c594c4b0E	00000000 .text._ZN91_$LT$$u5b$u8$u5d$$u20$as$u20$mylib..mynewt..encoding..json_context..ToBytesOptionalNull$GT$21to_bytes_optional_nul17h8aa12d01c594c4b0E
00000000 l    d  .text._ZN82_$LT$str$u20$as$u20$mylib..mynewt..encoding..json_context..ToBytesOptionalNull$GT$21to_bytes_optional_nul17h2575a3ff5798ecc7E	00000000 .text._ZN82_$LT$str$u20$as$u20$mylib..mynewt..encoding..json_context..ToBytesOptionalNull$GT$21to_bytes_optional_nul17h2575a3ff5798ecc7E
00000000 l    d  .text._ZN86_$LT$$RF$str$u20$as$u20$mylib..mynewt..encoding..json_context..ToBytesOptionalNull$GT$21to_bytes_optional_nul17h555b65dd0ee1af69E	00000000 .text._ZN86_$LT$$RF$str$u20$as$u20$mylib..mynewt..encoding..json_context..ToBytesOptionalNull$GT$21to_bytes_optional_nul17h555b65dd0ee1af69E
00000000 l    d  .text._ZN94_$LT$cstr_core..CStr$u20$as$u20$mylib..mynewt..encoding..json_context..ToBytesOptionalNull$GT$21to_bytes_optional_nul17h187330bc6e4e670cE	00000000 .text._ZN94_$LT$cstr_core..CStr$u20$as$u20$mylib..mynewt..encoding..json_context..ToBytesOptionalNull$GT$21to_bytes_optional_nul17h187330bc6e4e670cE
00000000 l    d  .text._ZN78_$LT$mylib..mynewt..kernel..os..os_event$u20$as$u20$core..default..Default$GT$7default17ha9c2a22a0aef1179E	00000000 .text._ZN78_$LT$mylib..mynewt..kernel..os..os_event$u20$as$u20$core..default..Default$GT$7default17ha9c2a22a0aef1179E
00000000 l    d  .text._ZN80_$LT$mylib..mynewt..kernel..os..os_callout$u20$as$u20$core..default..Default$GT$7default17h35fb82015c01a0aaE	00000000 .text._ZN80_$LT$mylib..mynewt..kernel..os..os_callout$u20$as$u20$core..default..Default$GT$7default17h35fb82015c01a0aaE
00000000 l    d  .text._ZN79_$LT$mylib..mynewt..kernel..os..hal_timer$u20$as$u20$core..default..Default$GT$7default17h662e239b89e341a8E	00000000 .text._ZN79_$LT$mylib..mynewt..kernel..os..hal_timer$u20$as$u20$core..default..Default$GT$7default17h662e239b89e341a8E
00000000 l    d  .text._ZN76_$LT$mylib..mynewt..kernel..os..os_dev$u20$as$u20$core..default..Default$GT$7default17h6796a90f25049da8E	00000000 .text._ZN76_$LT$mylib..mynewt..kernel..os..os_dev$u20$as$u20$core..default..Default$GT$7default17h6796a90f25049da8E
00000000 l    d  .text._ZN77_$LT$mylib..mynewt..kernel..os..os_mbuf$u20$as$u20$core..default..Default$GT$7default17h148a6d1254104847E	00000000 .text._ZN77_$LT$mylib..mynewt..kernel..os..os_mbuf$u20$as$u20$core..default..Default$GT$7default17h148a6d1254104847E
00000000 l    d  .text._ZN80_$LT$mylib..mynewt..kernel..os..os_mempool$u20$as$u20$core..default..Default$GT$7default17ha84ccbb9e7b22964E	00000000 .text._ZN80_$LT$mylib..mynewt..kernel..os..os_mempool$u20$as$u20$core..default..Default$GT$7default17ha84ccbb9e7b22964E
00000000 l    d  .text._ZN85_$LT$mylib..mynewt..kernel..os..os_sanity_check$u20$as$u20$core..default..Default$GT$7default17hd1233b47a9d8cbcbE	00000000 .text._ZN85_$LT$mylib..mynewt..kernel..os..os_sanity_check$u20$as$u20$core..default..Default$GT$7default17hd1233b47a9d8cbcbE
00000000 l    d  .text._ZN77_$LT$mylib..mynewt..kernel..os..os_task$u20$as$u20$core..default..Default$GT$7default17hbcc6978df783f1d8E	00000000 .text._ZN77_$LT$mylib..mynewt..kernel..os..os_task$u20$as$u20$core..default..Default$GT$7default17hbcc6978df783f1d8E
00000000 l    d  .text._ZN76_$LT$mylib..mynewt..kernel..os..os_sem$u20$as$u20$core..default..Default$GT$7default17h5c8e87c2628b6e14E	00000000 .text._ZN76_$LT$mylib..mynewt..kernel..os..os_sem$u20$as$u20$core..default..Default$GT$7default17h5c8e87c2628b6e14E
00000000 l    d  .text._ZN100_$LT$mylib..mynewt..hw..sensor..bindings..os_dev__bindgen_ty_1$u20$as$u20$core..default..Default$GT$7default17h330f6cf2332e2d1aE	00000000 .text._ZN100_$LT$mylib..mynewt..hw..sensor..bindings..os_dev__bindgen_ty_1$u20$as$u20$core..default..Default$GT$7default17h330f6cf2332e2d1aE
00000000 l    d  .text._ZN93_$LT$mylib..mynewt..hw..sensor..bindings..sensor_data_t$u20$as$u20$core..default..Default$GT$7default17hb4bfaef90e32f038E	00000000 .text._ZN93_$LT$mylib..mynewt..hw..sensor..bindings..sensor_data_t$u20$as$u20$core..default..Default$GT$7default17hb4bfaef90e32f038E
00000000 l    d  .text._ZN95_$LT$mylib..mynewt..hw..sensor..bindings..sensor_listener$u20$as$u20$core..default..Default$GT$7default17h1dd4f66caf63ca67E	00000000 .text._ZN95_$LT$mylib..mynewt..hw..sensor..bindings..sensor_listener$u20$as$u20$core..default..Default$GT$7default17h1dd4f66caf63ca67E
00000000 l    d  .text._ZN98_$LT$mylib..mynewt..hw..sensor..bindings..sensor_type_traits$u20$as$u20$core..default..Default$GT$7default17h604a349a45bc2964E	00000000 .text._ZN98_$LT$mylib..mynewt..hw..sensor..bindings..sensor_type_traits$u20$as$u20$core..default..Default$GT$7default17h604a349a45bc2964E
00000000 l    d  .text._ZN100_$LT$mylib..mynewt..hw..sensor..bindings..sensor_notify_ev_ctx$u20$as$u20$core..default..Default$GT$7default17ha4b50f23ab08f5e7E	00000000 .text._ZN100_$LT$mylib..mynewt..hw..sensor..bindings..sensor_notify_ev_ctx$u20$as$u20$core..default..Default$GT$7default17ha4b50f23ab08f5e7E
00000000 l    d  .text._ZN86_$LT$mylib..mynewt..hw..sensor..bindings..sensor$u20$as$u20$core..default..Default$GT$7default17h3972b4100904ce9dE	00000000 .text._ZN86_$LT$mylib..mynewt..hw..sensor..bindings..sensor$u20$as$u20$core..default..Default$GT$7default17h3972b4100904ce9dE
00000000 l    d  .text._ZN93_$LT$mylib..mynewt..hw..sensor..bindings.._bindgen_ty_1$u20$as$u20$core..default..Default$GT$7default17hfe61a3a2e7f05b3cE	00000000 .text._ZN93_$LT$mylib..mynewt..hw..sensor..bindings.._bindgen_ty_1$u20$as$u20$core..default..Default$GT$7default17hfe61a3a2e7f05b3cE
00000000 l    d  .text._ZN5mylib6mynewt2hw6sensor21null_sensor_data_func17he576af080a279986E	00000000 .text._ZN5mylib6mynewt2hw6sensor21null_sensor_data_func17he576af080a279986E
00000000 l    d  .text._ZN101_$LT$mylib..mynewt..libs..sensor_coap..json_value__bindgen_ty_1$u20$as$u20$core..default..Default$GT$7default17h7186c454935d415bE	00000000 .text._ZN101_$LT$mylib..mynewt..libs..sensor_coap..json_value__bindgen_ty_1$u20$as$u20$core..default..Default$GT$7default17h7186c454935d415bE
00000000 l    d  .text._ZN104_$LT$mylib..mynewt..libs..sensor_network..sensor_network_interface$u20$as$u20$core..default..Default$GT$7default17h35426a326eb363b6E	00000000 .text._ZN104_$LT$mylib..mynewt..libs..sensor_network..sensor_network_interface$u20$as$u20$core..default..Default$GT$7default17h35426a326eb363b6E
00000000 l    d  .text._ZN5mylib6mynewt6result95_$LT$impl$u20$core..convert..From$LT$mylib..mynewt..result..MynewtError$GT$$u20$for$u20$i32$GT$4from17he768babb092a5c90E	00000000 .text._ZN5mylib6mynewt6result95_$LT$impl$u20$core..convert..From$LT$mylib..mynewt..result..MynewtError$GT$$u20$for$u20$i32$GT$4from17he768babb092a5c90E
00000000 l    d  .text._ZN5mylib13listen_sensor16read_temperature17h283273ee5533fd04E	00000000 .text._ZN5mylib13listen_sensor16read_temperature17h283273ee5533fd04E
00000000 l    d  .text._ZN5mylib9send_coap17network_task_func17hd9a1eeab35a857d1E	00000000 .text._ZN5mylib9send_coap17network_task_func17hd9a1eeab35a857d1E
00000000 l    d  .text.main	00000000 .text.main
00000000 l    d  .text.rust_begin_unwind	00000000 .text.rust_begin_unwind
00000000 l    d  .text._ZN85_$LT$mylib..mynewt..encoding..json_context..JsonError$u20$as$u20$core..fmt..Debug$GT$3fmt17h8b843b1d8f03fb80E	00000000 .text._ZN85_$LT$mylib..mynewt..encoding..json_context..JsonError$u20$as$u20$core..fmt..Debug$GT$3fmt17h8b843b1d8f03fb80E
00000000 l    d  .text._ZN71_$LT$mylib..mynewt..result..MynewtError$u20$as$u20$core..fmt..Debug$GT$3fmt17he637fff21126bd1cE	00000000 .text._ZN71_$LT$mylib..mynewt..result..MynewtError$u20$as$u20$core..fmt..Debug$GT$3fmt17he637fff21126bd1cE
00000000 l    d  .rodata..Lanon.3a2334938771bfe7ed96405975cadcd6.0	00000000 .rodata..Lanon.3a2334938771bfe7ed96405975cadcd6.0
00000000 l    d  .rodata..Lanon.3a2334938771bfe7ed96405975cadcd6.1	00000000 .rodata..Lanon.3a2334938771bfe7ed96405975cadcd6.1
00000000 l    d  .rodata..Lanon.3a2334938771bfe7ed96405975cadcd6.3	00000000 .rodata..Lanon.3a2334938771bfe7ed96405975cadcd6.3
00000000 l    d  .rodata..Lanon.3a2334938771bfe7ed96405975cadcd6.4	00000000 .rodata..Lanon.3a2334938771bfe7ed96405975cadcd6.4
00000000 l    d  .rodata..Lanon.3a2334938771bfe7ed96405975cadcd6.6	00000000 .rodata..Lanon.3a2334938771bfe7ed96405975cadcd6.6
00000000 l    d  .rodata..Lanon.3a2334938771bfe7ed96405975cadcd6.9	00000000 .rodata..Lanon.3a2334938771bfe7ed96405975cadcd6.9
00000000 l    d  .rodata..Lanon.3a2334938771bfe7ed96405975cadcd6.10	00000000 .rodata..Lanon.3a2334938771bfe7ed96405975cadcd6.10
00000000 l    d  .data._ZN5mylib6mynewt2hw6sensor17LISTENER_INTERNAL17h6f9ae9cad3c79823E	00000000 .data._ZN5mylib6mynewt2hw6sensor17LISTENER_INTERNAL17h6f9ae9cad3c79823E
00000000 l    d  .rodata..Lanon.3a2334938771bfe7ed96405975cadcd6.15	00000000 .rodata..Lanon.3a2334938771bfe7ed96405975cadcd6.15
00000000 l    d  .rodata..Lanon.3a2334938771bfe7ed96405975cadcd6.17	00000000 .rodata..Lanon.3a2334938771bfe7ed96405975cadcd6.17
00000000 l    d  .rodata..Lanon.3a2334938771bfe7ed96405975cadcd6.21	00000000 .rodata..Lanon.3a2334938771bfe7ed96405975cadcd6.21
00000000 l    d  .rodata..Lanon.3a2334938771bfe7ed96405975cadcd6.24	00000000 .rodata..Lanon.3a2334938771bfe7ed96405975cadcd6.24
00000000 l    d  .bss._ZN5mylib9send_coap12NETWORK_TASK17hfe4c85d5a08ad1acE	00000000 .bss._ZN5mylib9send_coap12NETWORK_TASK17hfe4c85d5a08ad1acE
00000000 l    d  .bss._ZN5mylib9send_coap18NETWORK_TASK_STACK17h8b663783da39d672E	00000000 .bss._ZN5mylib9send_coap18NETWORK_TASK_STACK17h8b663783da39d672E
00000000 l    d  .rodata..Lanon.3a2334938771bfe7ed96405975cadcd6.32	00000000 .rodata..Lanon.3a2334938771bfe7ed96405975cadcd6.32
00000000 l    d  .rodata.str.4	00000000 .rodata.str.4
00000000 l    d  .rodata..Lanon.3a2334938771bfe7ed96405975cadcd6.39	00000000 .rodata..Lanon.3a2334938771bfe7ed96405975cadcd6.39
00000000 l    d  .rodata..Lanon.3a2334938771bfe7ed96405975cadcd6.42	00000000 .rodata..Lanon.3a2334938771bfe7ed96405975cadcd6.42
00000000 l    d  .bss..L_MergedGlobals	00000000 .bss..L_MergedGlobals
00000000 l    d  .debug_loc	00000000 .debug_loc
00000000 l    d  .debug_abbrev	00000000 .debug_abbrev
00000000 l    d  .debug_info	00000000 .debug_info
00000000 l    d  .debug_ranges	00000000 .debug_ranges
00000000 l    d  .debug_frame	00000000 .debug_frame
00000000 l    d  .debug_line	00000000 .debug_line
00000000 g     F .text._ZN100_$LT$mylib..mynewt..encoding..json..json_array_t__bindgen_ty_1$u20$as$u20$core..default..Default$GT$7default17h667ef8f6053cc85dE	00000010 _ZN100_$LT$mylib..mynewt..encoding..json..json_array_t__bindgen_ty_1$u20$as$u20$core..default..Default$GT$7default17h667ef8f6053cc85dE
00000000 g     F .text._ZN100_$LT$mylib..mynewt..hw..sensor..bindings..os_dev__bindgen_ty_1$u20$as$u20$core..default..Default$GT$7default17h330f6cf2332e2d1aE	00000004 _ZN100_$LT$mylib..mynewt..hw..sensor..bindings..os_dev__bindgen_ty_1$u20$as$u20$core..default..Default$GT$7default17h330f6cf2332e2d1aE
00000000 g     F .text._ZN100_$LT$mylib..mynewt..hw..sensor..bindings..os_dev__bindgen_ty_1$u20$as$u20$core..default..Default$GT$7default17h330f6cf2332e2d1aE	00000004 _ZN100_$LT$mylib..mynewt..hw..sensor..bindings..sensor__bindgen_ty_1$u20$as$u20$core..default..Default$GT$7default17h2aaf975749bb6b1cE
00000000 g     F .text._ZN100_$LT$mylib..mynewt..hw..sensor..bindings..os_dev__bindgen_ty_1$u20$as$u20$core..default..Default$GT$7default17h330f6cf2332e2d1aE	00000004 _ZN100_$LT$mylib..mynewt..hw..sensor..bindings..sensor__bindgen_ty_2$u20$as$u20$core..default..Default$GT$7default17hc8dd8eb7cdbfe98cE
00000000 g     F .text._ZN100_$LT$mylib..mynewt..hw..sensor..bindings..os_dev__bindgen_ty_1$u20$as$u20$core..default..Default$GT$7default17h330f6cf2332e2d1aE	00000004 _ZN100_$LT$mylib..mynewt..hw..sensor..bindings..sensor__bindgen_ty_3$u20$as$u20$core..default..Default$GT$7default17h309f01b3610ccf17E
00000000 g     F .text._ZN100_$LT$mylib..mynewt..hw..sensor..bindings..os_dev__bindgen_ty_1$u20$as$u20$core..default..Default$GT$7default17h330f6cf2332e2d1aE	00000004 _ZN100_$LT$mylib..mynewt..hw..sensor..bindings..sensor__bindgen_ty_4$u20$as$u20$core..default..Default$GT$7default17hcc1172401ad6a71eE
00000000 g     F .text._ZN100_$LT$mylib..mynewt..hw..sensor..bindings..sensor_notify_ev_ctx$u20$as$u20$core..default..Default$GT$7default17ha4b50f23ab08f5e7E	00000006 _ZN100_$LT$mylib..mynewt..hw..sensor..bindings..sensor_notify_ev_ctx$u20$as$u20$core..default..Default$GT$7default17ha4b50f23ab08f5e7E
00000000 g     F .text._ZN100_$LT$mylib..mynewt..hw..sensor..bindings..os_dev__bindgen_ty_1$u20$as$u20$core..default..Default$GT$7default17h330f6cf2332e2d1aE	00000004 _ZN101_$LT$mylib..mynewt..hw..sensor..bindings..os_task__bindgen_ty_1$u20$as$u20$core..default..Default$GT$7default17h7fd217d74324c71eE
00000000 g     F .text._ZN100_$LT$mylib..mynewt..hw..sensor..bindings..sensor_notify_ev_ctx$u20$as$u20$core..default..Default$GT$7default17ha4b50f23ab08f5e7E	00000006 _ZN101_$LT$mylib..mynewt..hw..sensor..bindings..os_task__bindgen_ty_2$u20$as$u20$core..default..Default$GT$7default17haf7ba7d2a200f199E
00000000 g     F .text._ZN100_$LT$mylib..mynewt..hw..sensor..bindings..os_dev__bindgen_ty_1$u20$as$u20$core..default..Default$GT$7default17h330f6cf2332e2d1aE	00000004 _ZN101_$LT$mylib..mynewt..hw..sensor..bindings..os_task__bindgen_ty_3$u20$as$u20$core..default..Default$GT$7default17h6d9a4af3b8df63d2E
00000000 g     F .text._ZN101_$LT$mylib..mynewt..libs..sensor_coap..json_value__bindgen_ty_1$u20$as$u20$core..default..Default$GT$7default17h7186c454935d415bE	0000000c _ZN101_$LT$mylib..mynewt..libs..sensor_coap..json_value__bindgen_ty_1$u20$as$u20$core..default..Default$GT$7default17h7186c454935d415bE
00000000 g     F .text._ZN100_$LT$mylib..mynewt..hw..sensor..bindings..os_dev__bindgen_ty_1$u20$as$u20$core..default..Default$GT$7default17h330f6cf2332e2d1aE	00000004 _ZN101_$LT$mylib..mynewt..libs..sensor_coap..os_mempool__bindgen_ty_1$u20$as$u20$core..default..Default$GT$7default17he276f62175cd5300E
00000000 g     F .text._ZN100_$LT$mylib..mynewt..hw..sensor..bindings..os_dev__bindgen_ty_1$u20$as$u20$core..default..Default$GT$7default17h330f6cf2332e2d1aE	00000004 _ZN101_$LT$mylib..mynewt..libs..sensor_coap..os_mempool__bindgen_ty_2$u20$as$u20$core..default..Default$GT$7default17h1f234c804e40a8f1E
00000000 g     F .text._ZN100_$LT$mylib..mynewt..hw..sensor..bindings..os_dev__bindgen_ty_1$u20$as$u20$core..default..Default$GT$7default17h330f6cf2332e2d1aE	00000004 _ZN102_$LT$mylib..mynewt..hw..sensor..bindings..os_event__bindgen_ty_1$u20$as$u20$core..default..Default$GT$7default17h4ea54df93f92a8bcE
00000000 g     F .text._ZN100_$LT$mylib..mynewt..hw..sensor..bindings..os_dev__bindgen_ty_1$u20$as$u20$core..default..Default$GT$7default17h330f6cf2332e2d1aE	00000004 _ZN102_$LT$mylib..mynewt..hw..sensor..bindings..os_mutex__bindgen_ty_1$u20$as$u20$core..default..Default$GT$7default17h36afc34b5137132aE
00000000 g     F .text._ZN100_$LT$mylib..mynewt..hw..sensor..bindings..os_dev__bindgen_ty_1$u20$as$u20$core..default..Default$GT$7default17h330f6cf2332e2d1aE	00000004 _ZN102_$LT$mylib..mynewt..libs..sensor_coap..os_memblock__bindgen_ty_1$u20$as$u20$core..default..Default$GT$7default17hf1df87288a25ef5dE
00000000 g     F .text._ZN100_$LT$mylib..mynewt..hw..sensor..bindings..sensor_notify_ev_ctx$u20$as$u20$core..default..Default$GT$7default17ha4b50f23ab08f5e7E	00000006 _ZN103_$LT$mylib..mynewt..hw..sensor..bindings..os_eventq__bindgen_ty_1$u20$as$u20$core..default..Default$GT$7default17hb44f7a2daa7ca2aaE
00000000 g     F .text._ZN100_$LT$mylib..mynewt..hw..sensor..bindings..os_dev__bindgen_ty_1$u20$as$u20$core..default..Default$GT$7default17h330f6cf2332e2d1aE	00000004 _ZN103_$LT$mylib..mynewt..libs..sensor_coap..os_mbuf_pool__bindgen_ty_1$u20$as$u20$core..default..Default$GT$7default17h37ac2b0e576fa38dE
00000000 g     F .text._ZN100_$LT$mylib..mynewt..hw..sensor..bindings..sensor_notify_ev_ctx$u20$as$u20$core..default..Default$GT$7default17ha4b50f23ab08f5e7E	00000006 _ZN104_$LT$mylib..mynewt..hw..sensor..bindings..os_callout__bindgen_ty_1$u20$as$u20$core..default..Default$GT$7default17h697cbb2d3a6c6d61E
00000000 g     F .text._ZN100_$LT$mylib..mynewt..hw..sensor..bindings..os_dev__bindgen_ty_1$u20$as$u20$core..default..Default$GT$7default17h330f6cf2332e2d1aE	00000004 _ZN104_$LT$mylib..mynewt..hw..sensor..bindings..os_mempool__bindgen_ty_1$u20$as$u20$core..default..Default$GT$7default17h3fdcadc250213be1E
00000000 g     F .text._ZN100_$LT$mylib..mynewt..hw..sensor..bindings..os_dev__bindgen_ty_1$u20$as$u20$core..default..Default$GT$7default17h330f6cf2332e2d1aE	00000004 _ZN104_$LT$mylib..mynewt..hw..sensor..bindings..os_mempool__bindgen_ty_2$u20$as$u20$core..default..Default$GT$7default17h9eb6d80763c22928E
00000000 g     F .text._ZN104_$LT$mylib..mynewt..libs..sensor_network..sensor_network_interface$u20$as$u20$core..default..Default$GT$7default17h35426a326eb363b6E	0000000e _ZN104_$LT$mylib..mynewt..libs..sensor_network..sensor_network_interface$u20$as$u20$core..default..Default$GT$7default17h35426a326eb363b6E
00000000 g     F .text._ZN100_$LT$mylib..mynewt..hw..sensor..bindings..os_dev__bindgen_ty_1$u20$as$u20$core..default..Default$GT$7default17h330f6cf2332e2d1aE	00000004 _ZN105_$LT$mylib..mynewt..hw..sensor..bindings..os_memblock__bindgen_ty_1$u20$as$u20$core..default..Default$GT$7default17h6438b59c17272d3eE
00000000 g     F .text._ZN100_$LT$mylib..mynewt..hw..sensor..bindings..os_dev__bindgen_ty_1$u20$as$u20$core..default..Default$GT$7default17h330f6cf2332e2d1aE	00000004 _ZN106_$LT$mylib..mynewt..libs..mynewt_rust..os_sanity_check__bindgen_ty_1$u20$as$u20$core..default..Default$GT$7default17hd5f7ca9ad434557bE
00000000 g     F .text._ZN100_$LT$mylib..mynewt..hw..sensor..bindings..os_dev__bindgen_ty_1$u20$as$u20$core..default..Default$GT$7default17h330f6cf2332e2d1aE	00000004 _ZN106_$LT$mylib..mynewt..libs..mynewt_rust..sensor_listener__bindgen_ty_1$u20$as$u20$core..default..Default$GT$7default17hd5977ba5b30fb899E
00000000 g     F .text._ZN100_$LT$mylib..mynewt..hw..sensor..bindings..os_dev__bindgen_ty_1$u20$as$u20$core..default..Default$GT$7default17h330f6cf2332e2d1aE	00000004 _ZN106_$LT$mylib..mynewt..libs..mynewt_rust..sensor_notifier__bindgen_ty_1$u20$as$u20$core..default..Default$GT$7default17hade3ec4b47e8a902E
00000000 g     F .text._ZN100_$LT$mylib..mynewt..hw..sensor..bindings..os_dev__bindgen_ty_1$u20$as$u20$core..default..Default$GT$7default17h330f6cf2332e2d1aE	00000004 _ZN107_$LT$mylib..mynewt..hw..sensor..bindings.._bindgen_ty_1__bindgen_ty_1$u20$as$u20$core..default..Default$GT$7default17h843d7969e879e569E
00000000 g     F .text._ZN100_$LT$mylib..mynewt..hw..sensor..bindings..os_dev__bindgen_ty_1$u20$as$u20$core..default..Default$GT$7default17h330f6cf2332e2d1aE	00000004 _ZN107_$LT$mylib..mynewt..kernel..os..os_time_change_listener__bindgen_ty_1$u20$as$u20$core..default..Default$GT$7default17he24935c7ac6204cdE
00000000 g     F .text._ZN100_$LT$mylib..mynewt..hw..sensor..bindings..os_dev__bindgen_ty_1$u20$as$u20$core..default..Default$GT$7default17h330f6cf2332e2d1aE	00000004 _ZN109_$LT$mylib..mynewt..hw..sensor..bindings..os_sanity_check__bindgen_ty_1$u20$as$u20$core..default..Default$GT$7default17h0feaa15ed59bdca0E
00000000 g     F .text._ZN100_$LT$mylib..mynewt..hw..sensor..bindings..os_dev__bindgen_ty_1$u20$as$u20$core..default..Default$GT$7default17h330f6cf2332e2d1aE	00000004 _ZN109_$LT$mylib..mynewt..hw..sensor..bindings..sensor_listener__bindgen_ty_1$u20$as$u20$core..default..Default$GT$7default17h8ff115dd6a1fc458E
00000000 g     F .text._ZN100_$LT$mylib..mynewt..hw..sensor..bindings..os_dev__bindgen_ty_1$u20$as$u20$core..default..Default$GT$7default17h330f6cf2332e2d1aE	00000004 _ZN109_$LT$mylib..mynewt..hw..sensor..bindings..sensor_notifier__bindgen_ty_1$u20$as$u20$core..default..Default$GT$7default17h637ccd41ee238bb5E
00000000 g     F .text._ZN100_$LT$mylib..mynewt..hw..sensor..bindings..os_dev__bindgen_ty_1$u20$as$u20$core..default..Default$GT$7default17h330f6cf2332e2d1aE	00000004 _ZN109_$LT$mylib..mynewt..libs..mynewt_rust..sensor_type_traits__bindgen_ty_1$u20$as$u20$core..default..Default$GT$7default17h3219e485f2732957E
00000000 g     F .text._ZN100_$LT$mylib..mynewt..hw..sensor..bindings..sensor_notify_ev_ctx$u20$as$u20$core..default..Default$GT$7default17ha4b50f23ab08f5e7E	00000006 _ZN112_$LT$mylib..mynewt..encoding..json..json_value__bindgen_ty_1__bindgen_ty_1$u20$as$u20$core..default..Default$GT$7default17hf3a6f726d3914f17E
00000000 g     F .text._ZN100_$LT$mylib..mynewt..hw..sensor..bindings..os_dev__bindgen_ty_1$u20$as$u20$core..default..Default$GT$7default17h330f6cf2332e2d1aE	00000004 _ZN112_$LT$mylib..mynewt..hw..sensor..bindings..sensor_type_traits__bindgen_ty_1$u20$as$u20$core..default..Default$GT$7default17hf7b7aaa7d82fe4e0E
00000000 g     F .text._ZN114_$LT$mylib..mynewt..encoding..json..json_array_t__bindgen_ty_1__bindgen_ty_1$u20$as$u20$core..default..Default$GT$7default17he12df112c375aa63E	0000000a _ZN114_$LT$mylib..mynewt..encoding..json..json_array_t__bindgen_ty_1__bindgen_ty_1$u20$as$u20$core..default..Default$GT$7default17he12df112c375aa63E
00000000 g     F .text._ZN114_$LT$mylib..mynewt..encoding..json..json_array_t__bindgen_ty_1__bindgen_ty_1$u20$as$u20$core..default..Default$GT$7default17he12df112c375aa63E	0000000a _ZN114_$LT$mylib..mynewt..encoding..json..json_array_t__bindgen_ty_1__bindgen_ty_2$u20$as$u20$core..default..Default$GT$7default17h60e4be6e84f5f5e0E
00000000 g     F .text._ZN100_$LT$mylib..mynewt..hw..sensor..bindings..os_dev__bindgen_ty_1$u20$as$u20$core..default..Default$GT$7default17h330f6cf2332e2d1aE	00000004 _ZN114_$LT$mylib..mynewt..encoding..json..json_array_t__bindgen_ty_1__bindgen_ty_3$u20$as$u20$core..default..Default$GT$7default17h4464eba725c38e01E
00000000 g     F .text._ZN100_$LT$mylib..mynewt..hw..sensor..bindings..os_dev__bindgen_ty_1$u20$as$u20$core..default..Default$GT$7default17h330f6cf2332e2d1aE	00000004 _ZN114_$LT$mylib..mynewt..encoding..json..json_array_t__bindgen_ty_1__bindgen_ty_4$u20$as$u20$core..default..Default$GT$7default17ha73cde4bf76a0e98E
00000000 g     F .text._ZN100_$LT$mylib..mynewt..hw..sensor..bindings..os_dev__bindgen_ty_1$u20$as$u20$core..default..Default$GT$7default17h330f6cf2332e2d1aE	00000004 _ZN114_$LT$mylib..mynewt..encoding..json..json_array_t__bindgen_ty_1__bindgen_ty_5$u20$as$u20$core..default..Default$GT$7default17h8ac35a0553f64693E
00000000 g     F .text._ZN100_$LT$mylib..mynewt..hw..sensor..bindings..os_dev__bindgen_ty_1$u20$as$u20$core..default..Default$GT$7default17h330f6cf2332e2d1aE	00000004 _ZN114_$LT$mylib..mynewt..encoding..json..json_array_t__bindgen_ty_1__bindgen_ty_6$u20$as$u20$core..default..Default$GT$7default17h0ff45419416194b5E
00000000 g     F .text._ZN100_$LT$mylib..mynewt..hw..sensor..bindings..sensor_notify_ev_ctx$u20$as$u20$core..default..Default$GT$7default17ha4b50f23ab08f5e7E	00000006 _ZN115_$LT$mylib..mynewt..libs..sensor_coap..json_value__bindgen_ty_1__bindgen_ty_1$u20$as$u20$core..default..Default$GT$7default17h6f9864e8b278f2d7E
00000000 g     F .text._ZN117_$LT$mylib..mynewt..encoding..json_context..Step$u20$as$u20$mylib..mynewt..encoding..json_context..FunctionCaller$GT$13call_function17h2f37b49e8f74ef48E	00000006 _ZN117_$LT$mylib..mynewt..encoding..json_context..Step$u20$as$u20$mylib..mynewt..encoding..json_context..FunctionCaller$GT$13call_function17h2f37b49e8f74ef48E
00000000         *UND*	00000000 _ZN4core3fmt3num3imp51_$LT$impl$u20$core..fmt..Display$u20$for$u20$u8$GT$3fmt17heb4d046d241d78d0E
00000000         *UND*	00000000 _ZN4core3fmt3num3imp52_$LT$impl$u20$core..fmt..Display$u20$for$u20$i32$GT$3fmt17h33b3bbdbc74b88baE
00000000         *UND*	00000000 _ZN4core3fmt3num52_$LT$impl$u20$core..fmt..LowerHex$u20$for$u20$u8$GT$3fmt17he275dc913fe9b8e5E
00000000         *UND*	00000000 _ZN4core3fmt3num52_$LT$impl$u20$core..fmt..UpperHex$u20$for$u20$u8$GT$3fmt17h1d24bfddebe6efa8E
00000000         *UND*	00000000 _ZN4core3fmt3num53_$LT$impl$u20$core..fmt..LowerHex$u20$for$u20$i32$GT$3fmt17hb2119167a92723afE
00000000         *UND*	00000000 _ZN4core3fmt3num53_$LT$impl$u20$core..fmt..UpperHex$u20$for$u20$i32$GT$3fmt17hc44988ae29d24532E
00000000         *UND*	00000000 _ZN4core3fmt8builders10DebugTuple6finish17h24d91625b3672e6dE
00000000         *UND*	00000000 _ZN4core3fmt9Formatter11debug_tuple17h793087e8ecab9022E
00000000         *UND*	00000000 _ZN4core3fmt9Formatter15debug_lower_hex17h6ead2f28bb05b574E
00000000         *UND*	00000000 _ZN4core3fmt9Formatter15debug_upper_hex17hd6d96e6aa5cb78d8E
00000000         *UND*	00000000 _ZN4core5panic8Location4file17h94cc6af18de736c4E
00000000         *UND*	00000000 _ZN4core5panic8Location4line17h3ffc63f14d0a6636E
00000000         *UND*	00000000 _ZN4core5panic9PanicInfo8location17h5226165d8771f8a2E
00000000         *UND*	00000000 _ZN4core5slice20slice_index_len_fail17hedb5bb240677a6b7E
00000000         *UND*	00000000 _ZN4core9panicking18panic_bounds_check17h946762cd0671aec9E
00000000         *UND*	00000000 _ZN4core9panicking5panic17h53ca63c6ac6312f8E
00000000         *UND*	00000000 _ZN4core9panicking9panic_fmt17h6b4d8e87b0965449E
00000000 g     F .text._ZN5mylib6mynewt6result95_$LT$impl$u20$core..convert..From$LT$mylib..mynewt..result..MynewtError$GT$$u20$for$u20$i32$GT$4from17he768babb092a5c90E	00000002 _ZN5mylib6mynewt6result95_$LT$impl$u20$core..convert..From$LT$mylib..mynewt..result..MynewtError$GT$$u20$for$u20$i32$GT$4from17he768babb092a5c90E
00000000 g     F .text._ZN71_$LT$mylib..mynewt..result..MynewtError$u20$as$u20$core..fmt..Debug$GT$3fmt17he637fff21126bd1cE	0000011a _ZN71_$LT$mylib..mynewt..result..MynewtError$u20$as$u20$core..fmt..Debug$GT$3fmt17he637fff21126bd1cE
00000000 g     F .text._ZN76_$LT$mylib..mynewt..kernel..os..os_dev$u20$as$u20$core..default..Default$GT$7default17h6796a90f25049da8E	0000000a _ZN76_$LT$mylib..mynewt..kernel..os..os_dev$u20$as$u20$core..default..Default$GT$7default17h6796a90f25049da8E
00000000 g     F .text._ZN76_$LT$mylib..mynewt..kernel..os..os_sem$u20$as$u20$core..default..Default$GT$7default17h5c8e87c2628b6e14E	00000008 _ZN76_$LT$mylib..mynewt..kernel..os..os_sem$u20$as$u20$core..default..Default$GT$7default17h5c8e87c2628b6e14E
00000000 g     F .text._ZN77_$LT$mylib..mynewt..kernel..os..os_mbuf$u20$as$u20$core..default..Default$GT$7default17h148a6d1254104847E	0000000c _ZN77_$LT$mylib..mynewt..kernel..os..os_mbuf$u20$as$u20$core..default..Default$GT$7default17h148a6d1254104847E
00000000 g     F .text._ZN77_$LT$mylib..mynewt..kernel..os..os_task$u20$as$u20$core..default..Default$GT$7default17hbcc6978df783f1d8E	0000000a _ZN77_$LT$mylib..mynewt..kernel..os..os_task$u20$as$u20$core..default..Default$GT$7default17hbcc6978df783f1d8E
00000000 g     F .text._ZN78_$LT$mylib..mynewt..kernel..os..os_event$u20$as$u20$core..default..Default$GT$7default17ha9c2a22a0aef1179E	0000000c _ZN78_$LT$mylib..mynewt..kernel..os..os_event$u20$as$u20$core..default..Default$GT$7default17ha9c2a22a0aef1179E
00000000 g     F .text._ZN114_$LT$mylib..mynewt..encoding..json..json_array_t__bindgen_ty_1__bindgen_ty_1$u20$as$u20$core..default..Default$GT$7default17he12df112c375aa63E	0000000a _ZN78_$LT$mylib..mynewt..kernel..os..os_mutex$u20$as$u20$core..default..Default$GT$7default17he9bfb3f094d874e2E
00000000 g     F .text._ZN79_$LT$mylib..mynewt..kernel..os..hal_timer$u20$as$u20$core..default..Default$GT$7default17h662e239b89e341a8E	00000010 _ZN79_$LT$mylib..mynewt..kernel..os..hal_timer$u20$as$u20$core..default..Default$GT$7default17h662e239b89e341a8E
00000000 g     F .text._ZN77_$LT$mylib..mynewt..kernel..os..os_mbuf$u20$as$u20$core..default..Default$GT$7default17h148a6d1254104847E	0000000c _ZN79_$LT$mylib..mynewt..kernel..os..os_eventq$u20$as$u20$core..default..Default$GT$7default17hf81f4c4eed0fea01E
00000000 g     F .text._ZN79_$LT$mylib..mynewt..kernel..os..hal_timer$u20$as$u20$core..default..Default$GT$7default17h662e239b89e341a8E	00000010 _ZN79_$LT$mylib..mynewt..kernel..os..os_mqueue$u20$as$u20$core..default..Default$GT$7default17he1eabfd3c9c5059aE
00000000 g     F .text._ZN80_$LT$mylib..mynewt..kernel..os..os_callout$u20$as$u20$core..default..Default$GT$7default17h35fb82015c01a0aaE	00000014 _ZN80_$LT$mylib..mynewt..kernel..os..os_callout$u20$as$u20$core..default..Default$GT$7default17h35fb82015c01a0aaE
00000000 g     F .text._ZN80_$LT$mylib..mynewt..kernel..os..os_mempool$u20$as$u20$core..default..Default$GT$7default17ha84ccbb9e7b22964E	00000012 _ZN80_$LT$mylib..mynewt..kernel..os..os_mempool$u20$as$u20$core..default..Default$GT$7default17ha84ccbb9e7b22964E
00000000 g     F .text._ZN100_$LT$mylib..mynewt..hw..sensor..bindings..os_dev__bindgen_ty_1$u20$as$u20$core..default..Default$GT$7default17h330f6cf2332e2d1aE	00000004 _ZN81_$LT$mylib..mynewt..kernel..os..os_memblock$u20$as$u20$core..default..Default$GT$7default17hb70e2a35404ff3f5E
00000000 g     F .text._ZN100_$LT$mylib..mynewt..hw..sensor..bindings..os_dev__bindgen_ty_1$u20$as$u20$core..default..Default$GT$7default17h330f6cf2332e2d1aE	00000004 _ZN81_$LT$mylib..mynewt..kernel..os..os_task_obj$u20$as$u20$core..default..Default$GT$7default17hd267e38b78964cd7E
00000000 g     F .text._ZN100_$LT$mylib..mynewt..hw..sensor..bindings..os_dev__bindgen_ty_1$u20$as$u20$core..default..Default$GT$7default17h330f6cf2332e2d1aE	00000004 _ZN82_$LT$mylib..mynewt..encoding..tinycbor..File$u20$as$u20$core..default..Default$GT$7default17h16d8f5c8d73d8ce8E
00000000 g     F .text._ZN114_$LT$mylib..mynewt..encoding..json..json_array_t__bindgen_ty_1__bindgen_ty_1$u20$as$u20$core..default..Default$GT$7default17he12df112c375aa63E	0000000a _ZN82_$LT$mylib..mynewt..kernel..os..os_mbuf_pool$u20$as$u20$core..default..Default$GT$7default17hfc631c771b8ad3d8E
00000000 g     F .text._ZN100_$LT$mylib..mynewt..hw..sensor..bindings..sensor_notify_ev_ctx$u20$as$u20$core..default..Default$GT$7default17ha4b50f23ab08f5e7E	00000006 _ZN82_$LT$mylib..mynewt..kernel..os..os_task_list$u20$as$u20$core..default..Default$GT$7default17h6ad5d1325c893b21E
00000000 g     F .text._ZN82_$LT$str$u20$as$u20$mylib..mynewt..encoding..json_context..ToBytesOptionalNull$GT$21to_bytes_optional_nul17h2575a3ff5798ecc7E	00000002 _ZN82_$LT$str$u20$as$u20$mylib..mynewt..encoding..json_context..ToBytesOptionalNull$GT$21to_bytes_optional_nul17h2575a3ff5798ecc7E
00000000 g     F .text._ZN100_$LT$mylib..mynewt..encoding..json..json_array_t__bindgen_ty_1$u20$as$u20$core..default..Default$GT$7default17h667ef8f6053cc85dE	00000010 _ZN84_$LT$mylib..mynewt..encoding..json..json_value$u20$as$u20$core..default..Default$GT$7default17ha918853d3f93dfabE
00000000 g     F .text._ZN76_$LT$mylib..mynewt..kernel..os..os_sem$u20$as$u20$core..default..Default$GT$7default17h5c8e87c2628b6e14E	00000008 _ZN84_$LT$mylib..mynewt..kernel..os..os_mbuf_pkthdr$u20$as$u20$core..default..Default$GT$7default17h14615e02ac7e02e2E
00000000 g     F .text._ZN76_$LT$mylib..mynewt..kernel..os..os_dev$u20$as$u20$core..default..Default$GT$7default17h6796a90f25049da8E	0000000a _ZN84_$LT$mylib..mynewt..kernel..os..os_mempool_ext$u20$as$u20$core..default..Default$GT$7default17hbb33359422b0355dE
00000000 g     F .text._ZN100_$LT$mylib..mynewt..hw..sensor..bindings..sensor_notify_ev_ctx$u20$as$u20$core..default..Default$GT$7default17ha4b50f23ab08f5e7E	00000006 _ZN84_$LT$mylib..mynewt..kernel..os..os_task_stailq$u20$as$u20$core..default..Default$GT$7default17hd395c6bb0accfa03E
00000000 g     F .text._ZN77_$LT$mylib..mynewt..kernel..os..os_mbuf$u20$as$u20$core..default..Default$GT$7default17h148a6d1254104847E	0000000c _ZN84_$LT$mylib..mynewt..libs..sensor_coap..os_mbuf$u20$as$u20$core..default..Default$GT$7default17h920a76fadc95fe44E
00000000 g     F .text._ZN85_$LT$mylib..mynewt..encoding..json..json_attr_t$u20$as$u20$core..default..Default$GT$7default17hf2866f3a6beda229E	0000000a _ZN85_$LT$mylib..mynewt..encoding..json..json_attr_t$u20$as$u20$core..default..Default$GT$7default17hf2866f3a6beda229E
00000000 g     F .text._ZN85_$LT$mylib..mynewt..encoding..json..json_enum_t$u20$as$u20$core..default..Default$GT$7default17hbada56f05cb58551E	00000008 _ZN85_$LT$mylib..mynewt..encoding..json..json_enum_t$u20$as$u20$core..default..Default$GT$7default17hbada56f05cb58551E
00000000 g     F .text._ZN85_$LT$mylib..mynewt..encoding..json_context..JsonError$u20$as$u20$core..fmt..Debug$GT$3fmt17h8b843b1d8f03fb80E	00000034 _ZN85_$LT$mylib..mynewt..encoding..json_context..JsonError$u20$as$u20$core..fmt..Debug$GT$3fmt17h8b843b1d8f03fb80E
00000000 g     F .text._ZN100_$LT$mylib..mynewt..hw..sensor..bindings..sensor_notify_ev_ctx$u20$as$u20$core..default..Default$GT$7default17ha4b50f23ab08f5e7E	00000006 _ZN85_$LT$mylib..mynewt..kernel..os..os_callout_list$u20$as$u20$core..default..Default$GT$7default17hacb08dfb9d315f7dE
00000000 g     F .text._ZN85_$LT$mylib..mynewt..kernel..os..os_sanity_check$u20$as$u20$core..default..Default$GT$7default17hd1233b47a9d8cbcbE	0000000e _ZN85_$LT$mylib..mynewt..kernel..os..os_sanity_check$u20$as$u20$core..default..Default$GT$7default17hd1233b47a9d8cbcbE
00000000 g     F .text._ZN5mylib6mynewt6result95_$LT$impl$u20$core..convert..From$LT$mylib..mynewt..result..MynewtError$GT$$u20$for$u20$i32$GT$4from17he768babb092a5c90E	00000002 _ZN85_$LT$mylib..mynewt..result..MynewtError$u20$as$u20$core..convert..From$LT$i32$GT$$GT$4from17hf5bfcb9663d3a482E
00000000 g     F .text._ZN86_$LT$$RF$str$u20$as$u20$mylib..mynewt..encoding..json_context..ToBytesOptionalNull$GT$21to_bytes_optional_nul17h555b65dd0ee1af69E	00000008 _ZN86_$LT$$RF$str$u20$as$u20$mylib..mynewt..encoding..json_context..ToBytesOptionalNull$GT$21to_bytes_optional_nul17h555b65dd0ee1af69E
00000000 g     F .text._ZN86_$LT$mylib..mynewt..encoding..json..json_array_t$u20$as$u20$core..default..Default$GT$7default17h9ed2b02adbdc200eE	0000000a _ZN86_$LT$mylib..mynewt..encoding..json..json_array_t$u20$as$u20$core..default..Default$GT$7default17h9ed2b02adbdc200eE
00000000 g     F .text._ZN86_$LT$mylib..mynewt..encoding..json..json_encoder$u20$as$u20$core..default..Default$GT$7default17h3a86dbb2a8a8164dE	0000000a _ZN86_$LT$mylib..mynewt..encoding..json..json_encoder$u20$as$u20$core..default..Default$GT$7default17h3a86dbb2a8a8164dE
00000000 g     F .text._ZN86_$LT$mylib..mynewt..hw..sensor..bindings..sensor$u20$as$u20$core..default..Default$GT$7default17h3972b4100904ce9dE	0000000a _ZN86_$LT$mylib..mynewt..hw..sensor..bindings..sensor$u20$as$u20$core..default..Default$GT$7default17h3972b4100904ce9dE
00000000 g     F .text._ZN77_$LT$mylib..mynewt..kernel..os..os_mbuf$u20$as$u20$core..default..Default$GT$7default17h148a6d1254104847E	0000000c _ZN87_$LT$mylib..mynewt..encoding..tinycbor..CborValue$u20$as$u20$core..default..Default$GT$7default17h1de8a44b98a2196dE
00000000 g     F .text._ZN80_$LT$mylib..mynewt..kernel..os..os_mempool$u20$as$u20$core..default..Default$GT$7default17ha84ccbb9e7b22964E	00000012 _ZN87_$LT$mylib..mynewt..libs..sensor_coap..os_mempool$u20$as$u20$core..default..Default$GT$7default17h4ddbf27b97b6cad4E
00000000 g     F .text._ZN114_$LT$mylib..mynewt..encoding..json..json_array_t__bindgen_ty_1__bindgen_ty_1$u20$as$u20$core..default..Default$GT$7default17he12df112c375aa63E	0000000a _ZN88_$LT$mylib..mynewt..encoding..tinycbor..CborParser$u20$as$u20$core..default..Default$GT$7default17h0a3e703f11c9ffa7E
00000000 g     F .text._ZN100_$LT$mylib..mynewt..hw..sensor..bindings..sensor_notify_ev_ctx$u20$as$u20$core..default..Default$GT$7default17ha4b50f23ab08f5e7E	00000006 _ZN88_$LT$mylib..mynewt..encoding..tinycbor..cbor_iovec$u20$as$u20$core..default..Default$GT$7default17h9ab3be1ec0c1a307E
00000000 g     F .text._ZN100_$LT$mylib..mynewt..hw..sensor..bindings..os_dev__bindgen_ty_1$u20$as$u20$core..default..Default$GT$7default17h330f6cf2332e2d1aE	00000004 _ZN88_$LT$mylib..mynewt..libs..sensor_coap..os_memblock$u20$as$u20$core..default..Default$GT$7default17h2d7672e8f0281133E
00000000 g     F .text._ZN77_$LT$mylib..mynewt..kernel..os..os_mbuf$u20$as$u20$core..default..Default$GT$7default17h148a6d1254104847E	0000000c _ZN89_$LT$mylib..mynewt..encoding..tinycbor..CborEncoder$u20$as$u20$core..default..Default$GT$7default17h3730d6a3b7b87eb0E
00000000 g     F .text._ZN85_$LT$mylib..mynewt..kernel..os..os_sanity_check$u20$as$u20$core..default..Default$GT$7default17hd1233b47a9d8cbcbE	0000000e _ZN89_$LT$mylib..mynewt..kernel..os..os_time_change_info$u20$as$u20$core..default..Default$GT$7default17h8cb3ceeea00d7257E
00000000 g     F .text._ZN114_$LT$mylib..mynewt..encoding..json..json_array_t__bindgen_ty_1__bindgen_ty_1$u20$as$u20$core..default..Default$GT$7default17he12df112c375aa63E	0000000a _ZN89_$LT$mylib..mynewt..libs..sensor_coap..os_mbuf_pool$u20$as$u20$core..default..Default$GT$7default17h04df727234d68cd1E
00000000 g     F .text._ZN77_$LT$mylib..mynewt..kernel..os..os_mbuf$u20$as$u20$core..default..Default$GT$7default17h148a6d1254104847E	0000000c _ZN89_$LT$mylib..mynewt..libs..sensor_coap..sensor_value$u20$as$u20$core..default..Default$GT$7default17h1f6a572a97868ffbE
00000000 g     F .text._ZN104_$LT$mylib..mynewt..libs..sensor_network..sensor_network_interface$u20$as$u20$core..default..Default$GT$7default17h35426a326eb363b6E	0000000e _ZN90_$LT$mylib..mynewt..hw..sensor..bindings..sensor_itf$u20$as$u20$core..default..Default$GT$7default17h1891655938f1272dE
00000000 g     F .text._ZN100_$LT$mylib..mynewt..hw..sensor..bindings..os_dev__bindgen_ty_1$u20$as$u20$core..default..Default$GT$7default17h330f6cf2332e2d1aE	00000004 _ZN90_$LT$mylib..mynewt..kernel..os..os_dev__bindgen_ty_1$u20$as$u20$core..default..Default$GT$7default17h429eb1b811f46821E
00000000 g     F .text._ZN100_$LT$mylib..mynewt..hw..sensor..bindings..os_dev__bindgen_ty_1$u20$as$u20$core..default..Default$GT$7default17h330f6cf2332e2d1aE	00000004 _ZN90_$LT$mylib..mynewt..kernel..os..os_sem__bindgen_ty_1$u20$as$u20$core..default..Default$GT$7default17ha8b09db2daae9898E
00000000 g     F .text._ZN91_$LT$$u5b$u8$u5d$$u20$as$u20$mylib..mynewt..encoding..json_context..ToBytesOptionalNull$GT$21to_bytes_optional_nul17h8aa12d01c594c4b0E	00000002 _ZN91_$LT$$u5b$u8$u5d$$u20$as$u20$mylib..mynewt..encoding..json_context..ToBytesOptionalNull$GT$21to_bytes_optional_nul17h8aa12d01c594c4b0E
00000000 g     F .text._ZN100_$LT$mylib..mynewt..hw..sensor..bindings..os_dev__bindgen_ty_1$u20$as$u20$core..default..Default$GT$7default17h330f6cf2332e2d1aE	00000004 _ZN91_$LT$mylib..mynewt..kernel..os..os_mbuf__bindgen_ty_1$u20$as$u20$core..default..Default$GT$7default17hb357509788236681E
00000000 g     F .text._ZN100_$LT$mylib..mynewt..hw..sensor..bindings..os_dev__bindgen_ty_1$u20$as$u20$core..default..Default$GT$7default17h330f6cf2332e2d1aE	00000004 _ZN91_$LT$mylib..mynewt..kernel..os..os_task__bindgen_ty_1$u20$as$u20$core..default..Default$GT$7default17h118441e24fe64a9eE
00000000 g     F .text._ZN100_$LT$mylib..mynewt..hw..sensor..bindings..sensor_notify_ev_ctx$u20$as$u20$core..default..Default$GT$7default17ha4b50f23ab08f5e7E	00000006 _ZN91_$LT$mylib..mynewt..kernel..os..os_task__bindgen_ty_2$u20$as$u20$core..default..Default$GT$7default17haefc6aae40627d37E
00000000 g     F .text._ZN100_$LT$mylib..mynewt..hw..sensor..bindings..os_dev__bindgen_ty_1$u20$as$u20$core..default..Default$GT$7default17h330f6cf2332e2d1aE	00000004 _ZN91_$LT$mylib..mynewt..kernel..os..os_task__bindgen_ty_3$u20$as$u20$core..default..Default$GT$7default17hf2f940fdf2e440ebE
00000000 g     F .text._ZN100_$LT$mylib..mynewt..hw..sensor..bindings..os_dev__bindgen_ty_1$u20$as$u20$core..default..Default$GT$7default17h330f6cf2332e2d1aE	00000004 _ZN92_$LT$mylib..mynewt..kernel..os..os_event__bindgen_ty_1$u20$as$u20$core..default..Default$GT$7default17hd029ecee171aa65aE
00000000 g     F .text._ZN100_$LT$mylib..mynewt..hw..sensor..bindings..os_dev__bindgen_ty_1$u20$as$u20$core..default..Default$GT$7default17h330f6cf2332e2d1aE	00000004 _ZN92_$LT$mylib..mynewt..kernel..os..os_mutex__bindgen_ty_1$u20$as$u20$core..default..Default$GT$7default17h27d68578cc3c9303E
00000000 g     F .text._ZN93_$LT$mylib..mynewt..hw..sensor..bindings.._bindgen_ty_1$u20$as$u20$core..default..Default$GT$7default17hfe61a3a2e7f05b3cE	0000000a _ZN93_$LT$mylib..mynewt..hw..sensor..bindings.._bindgen_ty_1$u20$as$u20$core..default..Default$GT$7default17hfe61a3a2e7f05b3cE
00000000 g     F .text._ZN93_$LT$mylib..mynewt..hw..sensor..bindings..sensor_data_t$u20$as$u20$core..default..Default$GT$7default17hb4bfaef90e32f038E	00000008 _ZN93_$LT$mylib..mynewt..hw..sensor..bindings..sensor_data_t$u20$as$u20$core..default..Default$GT$7default17hb4bfaef90e32f038E
00000000 g     F .text._ZN100_$LT$mylib..mynewt..hw..sensor..bindings..sensor_notify_ev_ctx$u20$as$u20$core..default..Default$GT$7default17ha4b50f23ab08f5e7E	00000006 _ZN93_$LT$mylib..mynewt..kernel..os..hal_timer__bindgen_ty_1$u20$as$u20$core..default..Default$GT$7default17hf2a3da75438eb086E
00000000 g     F .text._ZN100_$LT$mylib..mynewt..hw..sensor..bindings..sensor_notify_ev_ctx$u20$as$u20$core..default..Default$GT$7default17ha4b50f23ab08f5e7E	00000006 _ZN93_$LT$mylib..mynewt..kernel..os..os_eventq__bindgen_ty_1$u20$as$u20$core..default..Default$GT$7default17h99c4e5d1fae27bd7E
00000000 g     F .text._ZN100_$LT$mylib..mynewt..hw..sensor..bindings..sensor_notify_ev_ctx$u20$as$u20$core..default..Default$GT$7default17ha4b50f23ab08f5e7E	00000006 _ZN93_$LT$mylib..mynewt..kernel..os..os_mqueue__bindgen_ty_1$u20$as$u20$core..default..Default$GT$7default17hc2410fc13011d655E
00000000 g     F .text._ZN114_$LT$mylib..mynewt..encoding..json..json_array_t__bindgen_ty_1__bindgen_ty_1$u20$as$u20$core..default..Default$GT$7default17he12df112c375aa63E	0000000a _ZN93_$LT$mylib..mynewt..kernel..os..os_time_change_listener$u20$as$u20$core..default..Default$GT$7default17h4c1956f8845f6eeeE
00000000 g     F .text._ZN94_$LT$cstr_core..CStr$u20$as$u20$mylib..mynewt..encoding..json_context..ToBytesOptionalNull$GT$21to_bytes_optional_nul17h187330bc6e4e670cE	00000002 _ZN94_$LT$cstr_core..CStr$u20$as$u20$mylib..mynewt..encoding..json_context..ToBytesOptionalNull$GT$21to_bytes_optional_nul17h187330bc6e4e670cE
00000000 g     F .text._ZN100_$LT$mylib..mynewt..hw..sensor..bindings..sensor_notify_ev_ctx$u20$as$u20$core..default..Default$GT$7default17ha4b50f23ab08f5e7E	00000006 _ZN94_$LT$mylib..mynewt..kernel..os..os_callout__bindgen_ty_1$u20$as$u20$core..default..Default$GT$7default17h3197e8ecd45933d4E
00000000 g     F .text._ZN100_$LT$mylib..mynewt..hw..sensor..bindings..os_dev__bindgen_ty_1$u20$as$u20$core..default..Default$GT$7default17h330f6cf2332e2d1aE	00000004 _ZN94_$LT$mylib..mynewt..kernel..os..os_mempool__bindgen_ty_1$u20$as$u20$core..default..Default$GT$7default17h30d40da8a7ebee30E
00000000 g     F .text._ZN100_$LT$mylib..mynewt..hw..sensor..bindings..os_dev__bindgen_ty_1$u20$as$u20$core..default..Default$GT$7default17h330f6cf2332e2d1aE	00000004 _ZN94_$LT$mylib..mynewt..kernel..os..os_mempool__bindgen_ty_2$u20$as$u20$core..default..Default$GT$7default17h8f0e04c0414de32dE
00000000 g     F .text._ZN95_$LT$mylib..mynewt..hw..sensor..bindings..sensor_listener$u20$as$u20$core..default..Default$GT$7default17h1dd4f66caf63ca67E	00000010 _ZN95_$LT$mylib..mynewt..hw..sensor..bindings..sensor_listener$u20$as$u20$core..default..Default$GT$7default17h1dd4f66caf63ca67E
00000000 g     F .text._ZN77_$LT$mylib..mynewt..kernel..os..os_mbuf$u20$as$u20$core..default..Default$GT$7default17h148a6d1254104847E	0000000c _ZN95_$LT$mylib..mynewt..hw..sensor..bindings..sensor_notifier$u20$as$u20$core..default..Default$GT$7default17h5316c0c3bcdcca59E
00000000 g     F .text._ZN100_$LT$mylib..mynewt..hw..sensor..bindings..sensor_notify_ev_ctx$u20$as$u20$core..default..Default$GT$7default17ha4b50f23ab08f5e7E	00000006 _ZN95_$LT$mylib..mynewt..hw..sensor..bindings..sensor_read_ctx$u20$as$u20$core..default..Default$GT$7default17h33401c6a27569b04E
00000000 g     F .text._ZN100_$LT$mylib..mynewt..hw..sensor..bindings..os_dev__bindgen_ty_1$u20$as$u20$core..default..Default$GT$7default17h330f6cf2332e2d1aE	00000004 _ZN95_$LT$mylib..mynewt..kernel..os..os_memblock__bindgen_ty_1$u20$as$u20$core..default..Default$GT$7default17hf0f04af4e71230cbE
00000000 g     F .text._ZN100_$LT$mylib..mynewt..hw..sensor..bindings..os_dev__bindgen_ty_1$u20$as$u20$core..default..Default$GT$7default17h330f6cf2332e2d1aE	00000004 _ZN95_$LT$mylib..mynewt..kernel..os..os_task_obj__bindgen_ty_1$u20$as$u20$core..default..Default$GT$7default17h27bc7fbe06e15e40E
00000000 g     F .text._ZN95_$LT$mylib..mynewt..hw..sensor..bindings..sensor_listener$u20$as$u20$core..default..Default$GT$7default17h1dd4f66caf63ca67E	00000010 _ZN96_$LT$mylib..mynewt..hw..sensor..bindings..sensor_timestamp$u20$as$u20$core..default..Default$GT$7default17h6c09419f817bfc18E
00000000 g     F .text._ZN100_$LT$mylib..mynewt..hw..sensor..bindings..os_dev__bindgen_ty_1$u20$as$u20$core..default..Default$GT$7default17h330f6cf2332e2d1aE	00000004 _ZN96_$LT$mylib..mynewt..kernel..os..os_mbuf_pool__bindgen_ty_1$u20$as$u20$core..default..Default$GT$7default17h562e492392a30d0aE
00000000 g     F .text._ZN100_$LT$mylib..mynewt..hw..sensor..bindings..os_dev__bindgen_ty_1$u20$as$u20$core..default..Default$GT$7default17h330f6cf2332e2d1aE	00000004 _ZN97_$LT$mylib..mynewt..libs..mynewt_rust..os_dev__bindgen_ty_1$u20$as$u20$core..default..Default$GT$7default17hdb498e4f06b338a2E
00000000 g     F .text._ZN100_$LT$mylib..mynewt..hw..sensor..bindings..os_dev__bindgen_ty_1$u20$as$u20$core..default..Default$GT$7default17h330f6cf2332e2d1aE	00000004 _ZN97_$LT$mylib..mynewt..libs..mynewt_rust..sensor__bindgen_ty_1$u20$as$u20$core..default..Default$GT$7default17hb36d57d384a9e5bdE
00000000 g     F .text._ZN100_$LT$mylib..mynewt..hw..sensor..bindings..os_dev__bindgen_ty_1$u20$as$u20$core..default..Default$GT$7default17h330f6cf2332e2d1aE	00000004 _ZN97_$LT$mylib..mynewt..libs..mynewt_rust..sensor__bindgen_ty_2$u20$as$u20$core..default..Default$GT$7default17hb7c0e73ce4cce040E
00000000 g     F .text._ZN100_$LT$mylib..mynewt..hw..sensor..bindings..os_dev__bindgen_ty_1$u20$as$u20$core..default..Default$GT$7default17h330f6cf2332e2d1aE	00000004 _ZN97_$LT$mylib..mynewt..libs..mynewt_rust..sensor__bindgen_ty_3$u20$as$u20$core..default..Default$GT$7default17h34ee4452fed8a02dE
00000000 g     F .text._ZN100_$LT$mylib..mynewt..hw..sensor..bindings..os_dev__bindgen_ty_1$u20$as$u20$core..default..Default$GT$7default17h330f6cf2332e2d1aE	00000004 _ZN97_$LT$mylib..mynewt..libs..mynewt_rust..sensor__bindgen_ty_4$u20$as$u20$core..default..Default$GT$7default17h503060d86208d3f4E
00000000 g     F .text._ZN101_$LT$mylib..mynewt..libs..sensor_coap..json_value__bindgen_ty_1$u20$as$u20$core..default..Default$GT$7default17h7186c454935d415bE	0000000c _ZN98_$LT$mylib..mynewt..encoding..json..json_value__bindgen_ty_1$u20$as$u20$core..default..Default$GT$7default17hb4d0a1ab475c3667E
00000000 g     F .text._ZN85_$LT$mylib..mynewt..encoding..json..json_enum_t$u20$as$u20$core..default..Default$GT$7default17hbada56f05cb58551E	00000008 _ZN98_$LT$mylib..mynewt..hw..sensor..bindings..sensor_read_ev_ctx$u20$as$u20$core..default..Default$GT$7default17h584b56ab500a71f7E
00000000 g     F .text._ZN98_$LT$mylib..mynewt..hw..sensor..bindings..sensor_type_traits$u20$as$u20$core..default..Default$GT$7default17h604a349a45bc2964E	0000000a _ZN98_$LT$mylib..mynewt..hw..sensor..bindings..sensor_type_traits$u20$as$u20$core..default..Default$GT$7default17h604a349a45bc2964E
00000000 g     F .text._ZN100_$LT$mylib..mynewt..hw..sensor..bindings..os_dev__bindgen_ty_1$u20$as$u20$core..default..Default$GT$7default17h330f6cf2332e2d1aE	00000004 _ZN98_$LT$mylib..mynewt..kernel..os..os_mbuf_pkthdr__bindgen_ty_1$u20$as$u20$core..default..Default$GT$7default17haa3ffeaf3c07db34E
00000000 g     F .text._ZN100_$LT$mylib..mynewt..hw..sensor..bindings..os_dev__bindgen_ty_1$u20$as$u20$core..default..Default$GT$7default17h330f6cf2332e2d1aE	00000004 _ZN98_$LT$mylib..mynewt..libs..mynewt_rust..os_task__bindgen_ty_1$u20$as$u20$core..default..Default$GT$7default17h71178c47107c685bE
00000000 g     F .text._ZN100_$LT$mylib..mynewt..hw..sensor..bindings..sensor_notify_ev_ctx$u20$as$u20$core..default..Default$GT$7default17ha4b50f23ab08f5e7E	00000006 _ZN98_$LT$mylib..mynewt..libs..mynewt_rust..os_task__bindgen_ty_2$u20$as$u20$core..default..Default$GT$7default17h2bf9b06fce62f76dE
00000000 g     F .text._ZN100_$LT$mylib..mynewt..hw..sensor..bindings..os_dev__bindgen_ty_1$u20$as$u20$core..default..Default$GT$7default17h330f6cf2332e2d1aE	00000004 _ZN98_$LT$mylib..mynewt..libs..mynewt_rust..os_task__bindgen_ty_3$u20$as$u20$core..default..Default$GT$7default17ha9927272e3838b42E
00000000 g     F .text._ZN100_$LT$mylib..mynewt..hw..sensor..bindings..os_dev__bindgen_ty_1$u20$as$u20$core..default..Default$GT$7default17h330f6cf2332e2d1aE	00000004 _ZN98_$LT$mylib..mynewt..libs..sensor_coap..os_mbuf__bindgen_ty_1$u20$as$u20$core..default..Default$GT$7default17h8f8ce82b661a48d2E
00000000 g     F .text._ZN99_$LT$mylib..mynewt..encoding..json..json_attr_t__bindgen_ty_1$u20$as$u20$core..default..Default$GT$7default17hf95111df9d32b5bcE	0000000a _ZN99_$LT$mylib..mynewt..encoding..json..json_attr_t__bindgen_ty_1$u20$as$u20$core..default..Default$GT$7default17hf95111df9d32b5bcE
00000000 g     F .text._ZN93_$LT$mylib..mynewt..hw..sensor..bindings..sensor_data_t$u20$as$u20$core..default..Default$GT$7default17hb4bfaef90e32f038E	00000008 _ZN99_$LT$mylib..mynewt..encoding..json..json_attr_t__bindgen_ty_2$u20$as$u20$core..default..Default$GT$7default17h08bfa0c7f79dd386E
00000000 g     F .text._ZN79_$LT$mylib..mynewt..kernel..os..hal_timer$u20$as$u20$core..default..Default$GT$7default17h662e239b89e341a8E	00000010 _ZN99_$LT$mylib..mynewt..hw..sensor..bindings..sensor_notify_os_ev$u20$as$u20$core..default..Default$GT$7default17h3a71d73701d9a135E
00000000 g     F .text._ZN100_$LT$mylib..mynewt..hw..sensor..bindings..os_dev__bindgen_ty_1$u20$as$u20$core..default..Default$GT$7default17h330f6cf2332e2d1aE	00000004 _ZN99_$LT$mylib..mynewt..kernel..os..os_sanity_check__bindgen_ty_1$u20$as$u20$core..default..Default$GT$7default17h0f02a5038f430112E
00000000 g     F .text._ZN100_$LT$mylib..mynewt..hw..sensor..bindings..os_dev__bindgen_ty_1$u20$as$u20$core..default..Default$GT$7default17h330f6cf2332e2d1aE	00000004 _ZN99_$LT$mylib..mynewt..libs..mynewt_rust..os_event__bindgen_ty_1$u20$as$u20$core..default..Default$GT$7default17hc0fb160539bdbe90E
00000000 g     F .text._ZN100_$LT$mylib..mynewt..hw..sensor..bindings..os_dev__bindgen_ty_1$u20$as$u20$core..default..Default$GT$7default17h330f6cf2332e2d1aE	00000004 _ZN99_$LT$mylib..mynewt..libs..mynewt_rust..os_mutex__bindgen_ty_1$u20$as$u20$core..default..Default$GT$7default17hce8b6a454723912bE
00000000         *UND*	00000000 _ZN9cstr_core4CStr8from_ptr17h02056df58ddde440E
00000000         *UND*	00000000 __aeabi_memclr4
00000000         *UND*	00000000 __aeabi_memclr8
00000000         *UND*	00000000 __aeabi_memcpy
00000000         *UND*	00000000 __bkpt
00000000         *UND*	00000000 cbor_encode_int
00000000         *UND*	00000000 cbor_encode_text_string
00000000         *UND*	00000000 cbor_encoder_close_container
00000000         *UND*	00000000 cbor_encoder_create_map
00000000         *UND*	00000000 console_buffer
00000000         *UND*	00000000 console_flush
00000000         *UND*	00000000 console_printhex
00000000         *UND*	00000000 device_get_name
00000000         *UND*	00000000 do_collector_post
00000000         *UND*	00000000 do_server_post
00000000         *UND*	00000000 g_encoder
00000000         *UND*	00000000 get_device_id
00000000         *UND*	00000000 get_temp_data
00000000         *UND*	00000000 get_temp_raw_data
00000000         *UND*	00000000 init_collector_post
00000000         *UND*	00000000 init_server_post
00000000         *UND*	00000000 is_collector_node
00000000         *UND*	00000000 is_null_sensor
00000000         *UND*	00000000 is_null_sensor_data
00000000         *UND*	00000000 is_sensor_node
00000000         *UND*	00000000 is_standalone_node
00000000         *UND*	00000000 json_helper_close_array
00000000         *UND*	00000000 json_helper_object_array_end_item
00000000         *UND*	00000000 json_helper_object_array_start_item
00000000         *UND*	00000000 json_helper_set_array
00000000         *UND*	00000000 json_helper_set_int
00000000         *UND*	00000000 json_helper_set_text_string
00000000         *UND*	00000000 json_rep_end_root_object
00000000         *UND*	00000000 json_rep_start_root_object
00000000 g     F .text.main	00000192 main
00000000         *UND*	00000000 null_sensor
00000000         *UND*	00000000 os_eventq_dflt_get
00000000         *UND*	00000000 os_eventq_run
00000000         *UND*	00000000 os_task_init
00000000         *UND*	00000000 os_time_delay
00000000         *UND*	00000000 register_collector_transport
00000000         *UND*	00000000 register_server_transport
00000000         *UND*	00000000 root_map
00000000 g     F .text.rust_begin_unwind	00000072 rust_begin_unwind
00000000         *UND*	00000000 rust_sysinit
00000000         *UND*	00000000 sensor_get_device
00000000         *UND*	00000000 sensor_mgr_find_next_bydevname
00000000         *UND*	00000000 sensor_register_listener
00000000         *UND*	00000000 sensor_set_poll_rate_ms
00000000         *UND*	00000000 should_send_to_collector



Disassembly of section .text._ZN42_$LT$$RF$T$u20$as$u20$core..fmt..Debug$GT$3fmt17h13ac8c522a55adacE:

00000000 <_ZN42_$LT$$RF$T$u20$as$u20$core..fmt..Debug$GT$3fmt17h13ac8c522a55adacE>:
_ZN42_$LT$$RF$T$u20$as$u20$core..fmt..Debug$GT$3fmt17h13ac8c522a55adacE():
/rustc/50a0defd5a93523067ef239936cc2e0755220904/src/libcore/fmt/mod.rs:1914
   0:	b5b0      	push	{r4, r5, r7, lr}
   2:	6805      	ldr	r5, [r0, #0]
_ZN4core3fmt3num50_$LT$impl$u20$core..fmt..Debug$u20$for$u20$i32$GT$3fmt17hc0a5c2426ccebe61E():
/rustc/50a0defd5a93523067ef239936cc2e0755220904/src/libcore/fmt/num.rs:147
   4:	4608      	mov	r0, r1
   6:	460c      	mov	r4, r1
   8:	f7ff fffe 	bl	0 <_ZN4core3fmt9Formatter15debug_lower_hex17h6ead2f28bb05b574E>
   c:	b128      	cbz	r0, 1a <_ZN42_$LT$$RF$T$u20$as$u20$core..fmt..Debug$GT$3fmt17h13ac8c522a55adacE+0x1a>
/rustc/50a0defd5a93523067ef239936cc2e0755220904/src/libcore/fmt/num.rs:148
   e:	4628      	mov	r0, r5
  10:	4621      	mov	r1, r4
  12:	e8bd 40b0 	ldmia.w	sp!, {r4, r5, r7, lr}
  16:	f7ff bffe 	b.w	0 <_ZN4core3fmt3num53_$LT$impl$u20$core..fmt..LowerHex$u20$for$u20$i32$GT$3fmt17hb2119167a92723afE>
/rustc/50a0defd5a93523067ef239936cc2e0755220904/src/libcore/fmt/num.rs:149
  1a:	4620      	mov	r0, r4
  1c:	f7ff fffe 	bl	0 <_ZN4core3fmt9Formatter15debug_upper_hex17hd6d96e6aa5cb78d8E>
  20:	b128      	cbz	r0, 2e <_ZN42_$LT$$RF$T$u20$as$u20$core..fmt..Debug$GT$3fmt17h13ac8c522a55adacE+0x2e>
/rustc/50a0defd5a93523067ef239936cc2e0755220904/src/libcore/fmt/num.rs:150
  22:	4628      	mov	r0, r5
  24:	4621      	mov	r1, r4
  26:	e8bd 40b0 	ldmia.w	sp!, {r4, r5, r7, lr}
  2a:	f7ff bffe 	b.w	0 <_ZN4core3fmt3num53_$LT$impl$u20$core..fmt..UpperHex$u20$for$u20$i32$GT$3fmt17hc44988ae29d24532E>
/rustc/50a0defd5a93523067ef239936cc2e0755220904/src/libcore/fmt/num.rs:152
  2e:	4628      	mov	r0, r5
  30:	4621      	mov	r1, r4
  32:	e8bd 40b0 	ldmia.w	sp!, {r4, r5, r7, lr}
  36:	f7ff bffe 	b.w	0 <_ZN4core3fmt3num3imp52_$LT$impl$u20$core..fmt..Display$u20$for$u20$i32$GT$3fmt17h33b3bbdbc74b88baE>

Disassembly of section .text._ZN42_$LT$$RF$T$u20$as$u20$core..fmt..Debug$GT$3fmt17hc97525fcad219201E:

00000000 <_ZN42_$LT$$RF$T$u20$as$u20$core..fmt..Debug$GT$3fmt17hc97525fcad219201E>:
_ZN42_$LT$$RF$T$u20$as$u20$core..fmt..Debug$GT$3fmt17hc97525fcad219201E():
/rustc/50a0defd5a93523067ef239936cc2e0755220904/src/libcore/fmt/mod.rs:1914
   0:	b510      	push	{r4, lr}
   2:	b084      	sub	sp, #16
   4:	6800      	ldr	r0, [r0, #0]
   6:	ac01      	add	r4, sp, #4
_ZN85_$LT$mylib..mynewt..encoding..json_context..JsonError$u20$as$u20$core..fmt..Debug$GT$3fmt17h8b843b1d8f03fb80E():
/mnt/c/stm32bluepill-mynewt-sensor/src/mynewt/encoding/json_context.rs:125
        ptr as *mut c_void
    }
}

/// Error codes for JSON encoding failure
#[derive(Debug, PartialEq)]
   8:	7800      	ldrb	r0, [r0, #0]
   a:	2801      	cmp	r0, #1
   c:	d106      	bne.n	1c <_ZN42_$LT$$RF$T$u20$as$u20$core..fmt..Debug$GT$3fmt17hc97525fcad219201E+0x1c>
   e:	f240 0200 	movw	r2, #0
  12:	4620      	mov	r0, r4
  14:	f2c0 0200 	movt	r2, #0
  18:	230e      	movs	r3, #14
  1a:	e005      	b.n	28 <_ZN42_$LT$$RF$T$u20$as$u20$core..fmt..Debug$GT$3fmt17hc97525fcad219201E+0x28>
  1c:	f240 0200 	movw	r2, #0
  20:	4620      	mov	r0, r4
  22:	f2c0 0200 	movt	r2, #0
  26:	2302      	movs	r3, #2
  28:	f7ff fffe 	bl	0 <_ZN4core3fmt9Formatter11debug_tuple17h793087e8ecab9022E>
  2c:	4620      	mov	r0, r4
  2e:	f7ff fffe 	bl	0 <_ZN4core3fmt8builders10DebugTuple6finish17h24d91625b3672e6dE>
_ZN42_$LT$$RF$T$u20$as$u20$core..fmt..Debug$GT$3fmt17hc97525fcad219201E():
/rustc/50a0defd5a93523067ef239936cc2e0755220904/src/libcore/fmt/mod.rs:1914
  32:	b004      	add	sp, #16
  34:	bd10      	pop	{r4, pc}

Disassembly of section .text._ZN42_$LT$$RF$T$u20$as$u20$core..fmt..Debug$GT$3fmt17hef1b000013b2e9f1E:

00000000 <_ZN42_$LT$$RF$T$u20$as$u20$core..fmt..Debug$GT$3fmt17hef1b000013b2e9f1E>:
_ZN42_$LT$$RF$T$u20$as$u20$core..fmt..Debug$GT$3fmt17hef1b000013b2e9f1E():
/rustc/50a0defd5a93523067ef239936cc2e0755220904/src/libcore/fmt/mod.rs:1914
   0:	b5b0      	push	{r4, r5, r7, lr}
   2:	6805      	ldr	r5, [r0, #0]
_ZN4core3fmt3num49_$LT$impl$u20$core..fmt..Debug$u20$for$u20$u8$GT$3fmt17h271d1c938b44f4eaE():
/rustc/50a0defd5a93523067ef239936cc2e0755220904/src/libcore/fmt/num.rs:147
   4:	4608      	mov	r0, r1
   6:	460c      	mov	r4, r1
   8:	f7ff fffe 	bl	0 <_ZN4core3fmt9Formatter15debug_lower_hex17h6ead2f28bb05b574E>
   c:	b128      	cbz	r0, 1a <_ZN42_$LT$$RF$T$u20$as$u20$core..fmt..Debug$GT$3fmt17hef1b000013b2e9f1E+0x1a>
/rustc/50a0defd5a93523067ef239936cc2e0755220904/src/libcore/fmt/num.rs:148
   e:	4628      	mov	r0, r5
  10:	4621      	mov	r1, r4
  12:	e8bd 40b0 	ldmia.w	sp!, {r4, r5, r7, lr}
  16:	f7ff bffe 	b.w	0 <_ZN4core3fmt3num52_$LT$impl$u20$core..fmt..LowerHex$u20$for$u20$u8$GT$3fmt17he275dc913fe9b8e5E>
/rustc/50a0defd5a93523067ef239936cc2e0755220904/src/libcore/fmt/num.rs:149
  1a:	4620      	mov	r0, r4
  1c:	f7ff fffe 	bl	0 <_ZN4core3fmt9Formatter15debug_upper_hex17hd6d96e6aa5cb78d8E>
  20:	b128      	cbz	r0, 2e <_ZN42_$LT$$RF$T$u20$as$u20$core..fmt..Debug$GT$3fmt17hef1b000013b2e9f1E+0x2e>
/rustc/50a0defd5a93523067ef239936cc2e0755220904/src/libcore/fmt/num.rs:150
  22:	4628      	mov	r0, r5
  24:	4621      	mov	r1, r4
  26:	e8bd 40b0 	ldmia.w	sp!, {r4, r5, r7, lr}
  2a:	f7ff bffe 	b.w	0 <_ZN4core3fmt3num52_$LT$impl$u20$core..fmt..UpperHex$u20$for$u20$u8$GT$3fmt17h1d24bfddebe6efa8E>
/rustc/50a0defd5a93523067ef239936cc2e0755220904/src/libcore/fmt/num.rs:152
  2e:	4628      	mov	r0, r5
  30:	4621      	mov	r1, r4
  32:	e8bd 40b0 	ldmia.w	sp!, {r4, r5, r7, lr}
  36:	f7ff bffe 	b.w	0 <_ZN4core3fmt3num3imp51_$LT$impl$u20$core..fmt..Display$u20$for$u20$u8$GT$3fmt17heb4d046d241d78d0E>

Disassembly of section .text._ZN86_$LT$mylib..mynewt..encoding..json..json_encoder$u20$as$u20$core..default..Default$GT$7default17h3a86dbb2a8a8164dE:

00000000 <_ZN86_$LT$mylib..mynewt..encoding..json..json_encoder$u20$as$u20$core..default..Default$GT$7default17h3a86dbb2a8a8164dE>:
_ZN86_$LT$mylib..mynewt..encoding..json..json_encoder$u20$as$u20$core..default..Default$GT$7default17h3a86dbb2a8a8164dE():
/mnt/c/stm32bluepill-mynewt-sensor/src/mynewt/encoding/json.rs:212
    pub je_arg: *mut ::cty::c_void,
    pub _bitfield_1: __BindgenBitfieldUnit<[u8; 1usize], u8>,
    pub je_encode_buf: [::cty::c_char; 64usize],
}
impl Default for json_encoder {
    fn default() -> Self {
   0:	b580      	push	{r7, lr}
_ZN4core3mem6zeroed17hdfac71dcca955acbE():
/rustc/50a0defd5a93523067ef239936cc2e0755220904/src/libcore/mem.rs:447
   2:	214c      	movs	r1, #76	; 0x4c
   4:	f7ff fffe 	bl	0 <__aeabi_memclr4>
_ZN86_$LT$mylib..mynewt..encoding..json..json_encoder$u20$as$u20$core..default..Default$GT$7default17h3a86dbb2a8a8164dE():
/mnt/c/stm32bluepill-mynewt-sensor/src/mynewt/encoding/json.rs:214
        unsafe { ::core::mem::zeroed() }
    }
   8:	bd80      	pop	{r7, pc}

Disassembly of section .text._ZN85_$LT$mylib..mynewt..encoding..json..json_enum_t$u20$as$u20$core..default..Default$GT$7default17hbada56f05cb58551E:

00000000 <_ZN85_$LT$mylib..mynewt..encoding..json..json_enum_t$u20$as$u20$core..default..Default$GT$7default17hbada56f05cb58551E>:
_ZN85_$LT$mylib..mynewt..encoding..json..json_enum_t$u20$as$u20$core..default..Default$GT$7default17hbada56f05cb58551E():
/mnt/c/stm32bluepill-mynewt-sensor/src/mynewt/encoding/json.rs:296
    pub value: ::cty::c_longlong,
}
impl Default for json_enum_t {
    fn default() -> Self {
        unsafe { ::core::mem::zeroed() }
    }
   0:	2000      	movs	r0, #0
   2:	2100      	movs	r1, #0
   4:	2200      	movs	r2, #0
   6:	4770      	bx	lr

Disassembly of section .text._ZN114_$LT$mylib..mynewt..encoding..json..json_array_t__bindgen_ty_1__bindgen_ty_1$u20$as$u20$core..default..Default$GT$7default17he12df112c375aa63E:

00000000 <_ZN114_$LT$mylib..mynewt..encoding..json..json_array_t__bindgen_ty_1__bindgen_ty_1$u20$as$u20$core..default..Default$GT$7default17he12df112c375aa63E>:
_ZN114_$LT$mylib..mynewt..encoding..json..json_array_t__bindgen_ty_1__bindgen_ty_1$u20$as$u20$core..default..Default$GT$7default17he12df112c375aa63E():
/mnt/c/stm32bluepill-mynewt-sensor/src/mynewt/encoding/json.rs:322
    pub subtype: *const json_attr_t,
    pub base: *mut ::cty::c_char,
    pub stride: usize,
}
impl Default for json_array_t__bindgen_ty_1__bindgen_ty_1 {
    fn default() -> Self {
   0:	2100      	movs	r1, #0
_ZN4core3mem6zeroed17he79a03dc3ba22654E():
/rustc/50a0defd5a93523067ef239936cc2e0755220904/src/libcore/mem.rs:447
   2:	e9c0 1100 	strd	r1, r1, [r0]
   6:	6081      	str	r1, [r0, #8]
_ZN114_$LT$mylib..mynewt..encoding..json..json_array_t__bindgen_ty_1__bindgen_ty_1$u20$as$u20$core..default..Default$GT$7default17he12df112c375aa63E():
/mnt/c/stm32bluepill-mynewt-sensor/src/mynewt/encoding/json.rs:324
        unsafe { ::core::mem::zeroed() }
    }
   8:	4770      	bx	lr

Disassembly of section .text._ZN100_$LT$mylib..mynewt..encoding..json..json_array_t__bindgen_ty_1$u20$as$u20$core..default..Default$GT$7default17h667ef8f6053cc85dE:

00000000 <_ZN100_$LT$mylib..mynewt..encoding..json..json_array_t__bindgen_ty_1$u20$as$u20$core..default..Default$GT$7default17h667ef8f6053cc85dE>:
_ZN100_$LT$mylib..mynewt..encoding..json..json_array_t__bindgen_ty_1$u20$as$u20$core..default..Default$GT$7default17h667ef8f6053cc85dE():
/mnt/c/stm32bluepill-mynewt-sensor/src/mynewt/encoding/json.rs:374
    fn default() -> Self {
        unsafe { ::core::mem::zeroed() }
    }
}
impl Default for json_array_t__bindgen_ty_1 {
    fn default() -> Self {
   0:	2100      	movs	r1, #0
_ZN4core3mem6zeroed17h9d49fe59e7a448bdE():
/rustc/50a0defd5a93523067ef239936cc2e0755220904/src/libcore/mem.rs:447
   2:	e9c0 1100 	strd	r1, r1, [r0]
   6:	e9c0 1102 	strd	r1, r1, [r0, #8]
   a:	e9c0 1104 	strd	r1, r1, [r0, #16]
_ZN100_$LT$mylib..mynewt..encoding..json..json_array_t__bindgen_ty_1$u20$as$u20$core..default..Default$GT$7default17h667ef8f6053cc85dE():
/mnt/c/stm32bluepill-mynewt-sensor/src/mynewt/encoding/json.rs:376
        unsafe { ::core::mem::zeroed() }
    }
   e:	4770      	bx	lr

Disassembly of section .text._ZN86_$LT$mylib..mynewt..encoding..json..json_array_t$u20$as$u20$core..default..Default$GT$7default17h9ed2b02adbdc200eE:

00000000 <_ZN86_$LT$mylib..mynewt..encoding..json..json_array_t$u20$as$u20$core..default..Default$GT$7default17h9ed2b02adbdc200eE>:
_ZN86_$LT$mylib..mynewt..encoding..json..json_array_t$u20$as$u20$core..default..Default$GT$7default17h9ed2b02adbdc200eE():
/mnt/c/stm32bluepill-mynewt-sensor/src/mynewt/encoding/json.rs:379
}
impl Default for json_array_t {
    fn default() -> Self {
   0:	b580      	push	{r7, lr}
_ZN4core3mem6zeroed17hbedf3580ab81a216E():
/rustc/50a0defd5a93523067ef239936cc2e0755220904/src/libcore/mem.rs:447
   2:	2128      	movs	r1, #40	; 0x28
   4:	f7ff fffe 	bl	0 <__aeabi_memclr8>
_ZN86_$LT$mylib..mynewt..encoding..json..json_array_t$u20$as$u20$core..default..Default$GT$7default17h9ed2b02adbdc200eE():
/mnt/c/stm32bluepill-mynewt-sensor/src/mynewt/encoding/json.rs:381
        unsafe { ::core::mem::zeroed() }
    }
   8:	bd80      	pop	{r7, pc}

Disassembly of section .text._ZN99_$LT$mylib..mynewt..encoding..json..json_attr_t__bindgen_ty_1$u20$as$u20$core..default..Default$GT$7default17hf95111df9d32b5bcE:

00000000 <_ZN99_$LT$mylib..mynewt..encoding..json..json_attr_t__bindgen_ty_1$u20$as$u20$core..default..Default$GT$7default17hf95111df9d32b5bcE>:
_ZN99_$LT$mylib..mynewt..encoding..json..json_attr_t__bindgen_ty_1$u20$as$u20$core..default..Default$GT$7default17hf95111df9d32b5bcE():
/mnt/c/stm32bluepill-mynewt-sensor/src/mynewt/encoding/json.rs:406
    pub array: __BindgenUnionField<json_array_t>,
    pub offset: __BindgenUnionField<usize>,
    pub bindgen_union_field: [u64; 6usize],
}
impl Default for json_attr_t__bindgen_ty_1 {
    fn default() -> Self {
   0:	b580      	push	{r7, lr}
_ZN4core3mem6zeroed17h300ab67281ab2e1fE():
/rustc/50a0defd5a93523067ef239936cc2e0755220904/src/libcore/mem.rs:447
   2:	2130      	movs	r1, #48	; 0x30
   4:	f7ff fffe 	bl	0 <__aeabi_memclr8>
_ZN99_$LT$mylib..mynewt..encoding..json..json_attr_t__bindgen_ty_1$u20$as$u20$core..default..Default$GT$7default17hf95111df9d32b5bcE():
/mnt/c/stm32bluepill-mynewt-sensor/src/mynewt/encoding/json.rs:408
        unsafe { ::core::mem::zeroed() }
    }
   8:	bd80      	pop	{r7, pc}

Disassembly of section .text._ZN85_$LT$mylib..mynewt..encoding..json..json_attr_t$u20$as$u20$core..default..Default$GT$7default17hf2866f3a6beda229E:

00000000 <_ZN85_$LT$mylib..mynewt..encoding..json..json_attr_t$u20$as$u20$core..default..Default$GT$7default17hf2866f3a6beda229E>:
_ZN85_$LT$mylib..mynewt..encoding..json..json_attr_t$u20$as$u20$core..default..Default$GT$7default17hf2866f3a6beda229E():
/mnt/c/stm32bluepill-mynewt-sensor/src/mynewt/encoding/json.rs:426
    fn default() -> Self {
        unsafe { ::core::mem::zeroed() }
    }
}
impl Default for json_attr_t {
    fn default() -> Self {
   0:	b580      	push	{r7, lr}
_ZN4core3mem6zeroed17h042424392d1317a3E():
/rustc/50a0defd5a93523067ef239936cc2e0755220904/src/libcore/mem.rs:447
   2:	2150      	movs	r1, #80	; 0x50
   4:	f7ff fffe 	bl	0 <__aeabi_memclr8>
_ZN85_$LT$mylib..mynewt..encoding..json..json_attr_t$u20$as$u20$core..default..Default$GT$7default17hf2866f3a6beda229E():
/mnt/c/stm32bluepill-mynewt-sensor/src/mynewt/encoding/json.rs:428
        unsafe { ::core::mem::zeroed() }
    }
   8:	bd80      	pop	{r7, pc}

Disassembly of section .text._ZN117_$LT$mylib..mynewt..encoding..json_context..Step$u20$as$u20$mylib..mynewt..encoding..json_context..FunctionCaller$GT$13call_function17h2f37b49e8f74ef48E:

00000000 <_ZN117_$LT$mylib..mynewt..encoding..json_context..Step$u20$as$u20$mylib..mynewt..encoding..json_context..FunctionCaller$GT$13call_function17h2f37b49e8f74ef48E>:
_ZN117_$LT$mylib..mynewt..encoding..json_context..Step$u20$as$u20$mylib..mynewt..encoding..json_context..FunctionCaller$GT$13call_function17h2f37b49e8f74ef48E():
/mnt/c/stm32bluepill-mynewt-sensor/src/mynewt/encoding/json_context.rs:32
    fn call_function(&self, function: &dyn Fn() -> u32) -> u32 {
   0:	4608      	mov	r0, r1
/mnt/c/stm32bluepill-mynewt-sensor/src/mynewt/encoding/json_context.rs:33
        function()
   2:	68d1      	ldr	r1, [r2, #12]
   4:	4708      	bx	r1

Disassembly of section .text._ZN91_$LT$$u5b$u8$u5d$$u20$as$u20$mylib..mynewt..encoding..json_context..ToBytesOptionalNull$GT$21to_bytes_optional_nul17h8aa12d01c594c4b0E:

00000000 <_ZN91_$LT$$u5b$u8$u5d$$u20$as$u20$mylib..mynewt..encoding..json_context..ToBytesOptionalNull$GT$21to_bytes_optional_nul17h8aa12d01c594c4b0E>:
_ZN91_$LT$$u5b$u8$u5d$$u20$as$u20$mylib..mynewt..encoding..json_context..ToBytesOptionalNull$GT$21to_bytes_optional_nul17h8aa12d01c594c4b0E():
/mnt/c/stm32bluepill-mynewt-sensor/src/mynewt/encoding/json_context.rs:144
/// Convert the type to array of bytes that may or may not end with null
impl ToBytesOptionalNull for [u8] {
    /// Convert the type to array of bytes that may or may not end with null
    fn to_bytes_optional_nul(&self) -> &[u8] {
        self
    }
   0:	4770      	bx	lr

Disassembly of section .text._ZN82_$LT$str$u20$as$u20$mylib..mynewt..encoding..json_context..ToBytesOptionalNull$GT$21to_bytes_optional_nul17h2575a3ff5798ecc7E:

00000000 <_ZN82_$LT$str$u20$as$u20$mylib..mynewt..encoding..json_context..ToBytesOptionalNull$GT$21to_bytes_optional_nul17h2575a3ff5798ecc7E>:
_ZN82_$LT$str$u20$as$u20$mylib..mynewt..encoding..json_context..ToBytesOptionalNull$GT$21to_bytes_optional_nul17h2575a3ff5798ecc7E():
/mnt/c/stm32bluepill-mynewt-sensor/src/mynewt/encoding/json_context.rs:152
/// Convert the type to array of bytes that may or may not end with null
impl ToBytesOptionalNull for str {
    /// Convert the type to array of bytes that may or may not end with null
    fn to_bytes_optional_nul(&self) -> &[u8] {
        self.as_bytes()
    }
   0:	4770      	bx	lr

Disassembly of section .text._ZN86_$LT$$RF$str$u20$as$u20$mylib..mynewt..encoding..json_context..ToBytesOptionalNull$GT$21to_bytes_optional_nul17h555b65dd0ee1af69E:

00000000 <_ZN86_$LT$$RF$str$u20$as$u20$mylib..mynewt..encoding..json_context..ToBytesOptionalNull$GT$21to_bytes_optional_nul17h555b65dd0ee1af69E>:
_ZN86_$LT$$RF$str$u20$as$u20$mylib..mynewt..encoding..json_context..ToBytesOptionalNull$GT$21to_bytes_optional_nul17h555b65dd0ee1af69E():
/mnt/c/stm32bluepill-mynewt-sensor/src/mynewt/encoding/json_context.rs:159

/// Convert the type to array of bytes that may or may not end with null
impl ToBytesOptionalNull for &str {
    /// Convert the type to array of bytes that may or may not end with null
    fn to_bytes_optional_nul(&self) -> &[u8] {
        self.as_bytes()
   0:	e9d0 2100 	ldrd	r2, r1, [r0]
/mnt/c/stm32bluepill-mynewt-sensor/src/mynewt/encoding/json_context.rs:160
    }
   4:	4610      	mov	r0, r2
   6:	4770      	bx	lr

Disassembly of section .text._ZN94_$LT$cstr_core..CStr$u20$as$u20$mylib..mynewt..encoding..json_context..ToBytesOptionalNull$GT$21to_bytes_optional_nul17h187330bc6e4e670cE:

00000000 <_ZN94_$LT$cstr_core..CStr$u20$as$u20$mylib..mynewt..encoding..json_context..ToBytesOptionalNull$GT$21to_bytes_optional_nul17h187330bc6e4e670cE>:
_ZN94_$LT$cstr_core..CStr$u20$as$u20$mylib..mynewt..encoding..json_context..ToBytesOptionalNull$GT$21to_bytes_optional_nul17h187330bc6e4e670cE():
/mnt/c/stm32bluepill-mynewt-sensor/src/mynewt/encoding/json_context.rs:168
/// Convert the type to array of bytes that may or may not end with null. CStr always includes nulls.
impl ToBytesOptionalNull for CStr {
    /// Convert the type to array of bytes that may or may not end with null. CStr always includes nulls.
    fn to_bytes_optional_nul(&self) -> &[u8] {
        self.to_bytes_with_nul()
    }
   0:	4770      	bx	lr

Disassembly of section .text._ZN78_$LT$mylib..mynewt..kernel..os..os_event$u20$as$u20$core..default..Default$GT$7default17ha9c2a22a0aef1179E:

00000000 <_ZN78_$LT$mylib..mynewt..kernel..os..os_event$u20$as$u20$core..default..Default$GT$7default17ha9c2a22a0aef1179E>:
_ZN78_$LT$mylib..mynewt..kernel..os..os_event$u20$as$u20$core..default..Default$GT$7default17ha9c2a22a0aef1179E():
/mnt/c/stm32bluepill-mynewt-sensor/src/mynewt/kernel/os.rs:409
    fn default() -> Self {
        unsafe { ::core::mem::zeroed() }
    }
}
impl Default for os_event {
    fn default() -> Self {
   0:	2100      	movs	r1, #0
_ZN4core3mem6zeroed17hde09b20164e48890E():
/rustc/50a0defd5a93523067ef239936cc2e0755220904/src/libcore/mem.rs:447
   2:	e9c0 1100 	strd	r1, r1, [r0]
   6:	e9c0 1102 	strd	r1, r1, [r0, #8]
_ZN78_$LT$mylib..mynewt..kernel..os..os_event$u20$as$u20$core..default..Default$GT$7default17ha9c2a22a0aef1179E():
/mnt/c/stm32bluepill-mynewt-sensor/src/mynewt/kernel/os.rs:411
        unsafe { ::core::mem::zeroed() }
    }
   a:	4770      	bx	lr

Disassembly of section .text._ZN80_$LT$mylib..mynewt..kernel..os..os_callout$u20$as$u20$core..default..Default$GT$7default17h35fb82015c01a0aaE:

00000000 <_ZN80_$LT$mylib..mynewt..kernel..os..os_callout$u20$as$u20$core..default..Default$GT$7default17h35fb82015c01a0aaE>:
_ZN80_$LT$mylib..mynewt..kernel..os..os_callout$u20$as$u20$core..default..Default$GT$7default17h35fb82015c01a0aaE():
/mnt/c/stm32bluepill-mynewt-sensor/src/mynewt/kernel/os.rs:541
    fn default() -> Self {
        unsafe { ::core::mem::zeroed() }
    }
}
impl Default for os_callout {
    fn default() -> Self {
   0:	2100      	movs	r1, #0
_ZN4core3mem6zeroed17h16df9f0bb14871d1E():
/rustc/50a0defd5a93523067ef239936cc2e0755220904/src/libcore/mem.rs:447
   2:	e9c0 1100 	strd	r1, r1, [r0]
   6:	e9c0 1102 	strd	r1, r1, [r0, #8]
   a:	e9c0 1104 	strd	r1, r1, [r0, #16]
   e:	e9c0 1106 	strd	r1, r1, [r0, #24]
_ZN80_$LT$mylib..mynewt..kernel..os..os_callout$u20$as$u20$core..default..Default$GT$7default17h35fb82015c01a0aaE():
/mnt/c/stm32bluepill-mynewt-sensor/src/mynewt/kernel/os.rs:543
        unsafe { ::core::mem::zeroed() }
    }
  12:	4770      	bx	lr

Disassembly of section .text._ZN79_$LT$mylib..mynewt..kernel..os..hal_timer$u20$as$u20$core..default..Default$GT$7default17h662e239b89e341a8E:

00000000 <_ZN79_$LT$mylib..mynewt..kernel..os..hal_timer$u20$as$u20$core..default..Default$GT$7default17h662e239b89e341a8E>:
_ZN79_$LT$mylib..mynewt..kernel..os..hal_timer$u20$as$u20$core..default..Default$GT$7default17h662e239b89e341a8E():
/mnt/c/stm32bluepill-mynewt-sensor/src/mynewt/kernel/os.rs:642
    fn default() -> Self {
        unsafe { ::core::mem::zeroed() }
    }
}
impl Default for hal_timer {
    fn default() -> Self {
   0:	2100      	movs	r1, #0
_ZN4core3mem6zeroed17he045c8c5fc9a74b0E():
/rustc/50a0defd5a93523067ef239936cc2e0755220904/src/libcore/mem.rs:447
   2:	e9c0 1100 	strd	r1, r1, [r0]
   6:	e9c0 1102 	strd	r1, r1, [r0, #8]
   a:	e9c0 1104 	strd	r1, r1, [r0, #16]
_ZN79_$LT$mylib..mynewt..kernel..os..hal_timer$u20$as$u20$core..default..Default$GT$7default17h662e239b89e341a8E():
/mnt/c/stm32bluepill-mynewt-sensor/src/mynewt/kernel/os.rs:644
        unsafe { ::core::mem::zeroed() }
    }
   e:	4770      	bx	lr

Disassembly of section .text._ZN76_$LT$mylib..mynewt..kernel..os..os_dev$u20$as$u20$core..default..Default$GT$7default17h6796a90f25049da8E:

00000000 <_ZN76_$LT$mylib..mynewt..kernel..os..os_dev$u20$as$u20$core..default..Default$GT$7default17h6796a90f25049da8E>:
_ZN76_$LT$mylib..mynewt..kernel..os..os_dev$u20$as$u20$core..default..Default$GT$7default17h6796a90f25049da8E():
/mnt/c/stm32bluepill-mynewt-sensor/src/mynewt/kernel/os.rs:812
    fn default() -> Self {
        unsafe { ::core::mem::zeroed() }
    }
}
impl Default for os_dev {
    fn default() -> Self {
   0:	b580      	push	{r7, lr}
_ZN4core3mem6zeroed17h5ff4b613dca1eedbE():
/rustc/50a0defd5a93523067ef239936cc2e0755220904/src/libcore/mem.rs:447
   2:	2124      	movs	r1, #36	; 0x24
   4:	f7ff fffe 	bl	0 <__aeabi_memclr4>
_ZN76_$LT$mylib..mynewt..kernel..os..os_dev$u20$as$u20$core..default..Default$GT$7default17h6796a90f25049da8E():
/mnt/c/stm32bluepill-mynewt-sensor/src/mynewt/kernel/os.rs:814
        unsafe { ::core::mem::zeroed() }
    }
   8:	bd80      	pop	{r7, pc}

Disassembly of section .text._ZN77_$LT$mylib..mynewt..kernel..os..os_mbuf$u20$as$u20$core..default..Default$GT$7default17h148a6d1254104847E:

00000000 <_ZN77_$LT$mylib..mynewt..kernel..os..os_mbuf$u20$as$u20$core..default..Default$GT$7default17h148a6d1254104847E>:
_ZN77_$LT$mylib..mynewt..kernel..os..os_mbuf$u20$as$u20$core..default..Default$GT$7default17h148a6d1254104847E():
/mnt/c/stm32bluepill-mynewt-sensor/src/mynewt/kernel/os.rs:1040
    fn default() -> Self {
        unsafe { ::core::mem::zeroed() }
    }
}
impl Default for os_mbuf {
    fn default() -> Self {
   0:	2100      	movs	r1, #0
_ZN4core3mem6zeroed17h4e7d3f44c9f5617aE():
/rustc/50a0defd5a93523067ef239936cc2e0755220904/src/libcore/mem.rs:447
   2:	e9c0 1100 	strd	r1, r1, [r0]
   6:	e9c0 1102 	strd	r1, r1, [r0, #8]
_ZN77_$LT$mylib..mynewt..kernel..os..os_mbuf$u20$as$u20$core..default..Default$GT$7default17h148a6d1254104847E():
/mnt/c/stm32bluepill-mynewt-sensor/src/mynewt/kernel/os.rs:1042
        unsafe { ::core::mem::zeroed() }
    }
   a:	4770      	bx	lr

Disassembly of section .text._ZN80_$LT$mylib..mynewt..kernel..os..os_mempool$u20$as$u20$core..default..Default$GT$7default17ha84ccbb9e7b22964E:

00000000 <_ZN80_$LT$mylib..mynewt..kernel..os..os_mempool$u20$as$u20$core..default..Default$GT$7default17ha84ccbb9e7b22964E>:
_ZN80_$LT$mylib..mynewt..kernel..os..os_mempool$u20$as$u20$core..default..Default$GT$7default17ha84ccbb9e7b22964E():
/mnt/c/stm32bluepill-mynewt-sensor/src/mynewt/kernel/os.rs:1521
    fn default() -> Self {
        unsafe { ::core::mem::zeroed() }
    }
}
impl Default for os_mempool {
    fn default() -> Self {
   0:	2100      	movs	r1, #0
_ZN4core3mem6zeroed17h0d783c8dfc17ff07E():
/rustc/50a0defd5a93523067ef239936cc2e0755220904/src/libcore/mem.rs:447
   2:	e9c0 1100 	strd	r1, r1, [r0]
   6:	e9c0 1102 	strd	r1, r1, [r0, #8]
   a:	e9c0 1104 	strd	r1, r1, [r0, #16]
   e:	6181      	str	r1, [r0, #24]
_ZN80_$LT$mylib..mynewt..kernel..os..os_mempool$u20$as$u20$core..default..Default$GT$7default17ha84ccbb9e7b22964E():
/mnt/c/stm32bluepill-mynewt-sensor/src/mynewt/kernel/os.rs:1523
        unsafe { ::core::mem::zeroed() }
    }
  10:	4770      	bx	lr

Disassembly of section .text._ZN85_$LT$mylib..mynewt..kernel..os..os_sanity_check$u20$as$u20$core..default..Default$GT$7default17hd1233b47a9d8cbcbE:

00000000 <_ZN85_$LT$mylib..mynewt..kernel..os..os_sanity_check$u20$as$u20$core..default..Default$GT$7default17hd1233b47a9d8cbcbE>:
_ZN85_$LT$mylib..mynewt..kernel..os..os_sanity_check$u20$as$u20$core..default..Default$GT$7default17hd1233b47a9d8cbcbE():
/mnt/c/stm32bluepill-mynewt-sensor/src/mynewt/kernel/os.rs:1780
    fn default() -> Self {
        unsafe { ::core::mem::zeroed() }
    }
}
impl Default for os_sanity_check {
    fn default() -> Self {
   0:	2100      	movs	r1, #0
_ZN4core3mem6zeroed17h8b40ea82a9904c0dE():
/rustc/50a0defd5a93523067ef239936cc2e0755220904/src/libcore/mem.rs:447
   2:	e9c0 1100 	strd	r1, r1, [r0]
   6:	e9c0 1102 	strd	r1, r1, [r0, #8]
   a:	6101      	str	r1, [r0, #16]
_ZN85_$LT$mylib..mynewt..kernel..os..os_sanity_check$u20$as$u20$core..default..Default$GT$7default17hd1233b47a9d8cbcbE():
/mnt/c/stm32bluepill-mynewt-sensor/src/mynewt/kernel/os.rs:1782
        unsafe { ::core::mem::zeroed() }
    }
   c:	4770      	bx	lr

Disassembly of section .text._ZN77_$LT$mylib..mynewt..kernel..os..os_task$u20$as$u20$core..default..Default$GT$7default17hbcc6978df783f1d8E:

00000000 <_ZN77_$LT$mylib..mynewt..kernel..os..os_task$u20$as$u20$core..default..Default$GT$7default17hbcc6978df783f1d8E>:
_ZN77_$LT$mylib..mynewt..kernel..os..os_task$u20$as$u20$core..default..Default$GT$7default17hbcc6978df783f1d8E():
/mnt/c/stm32bluepill-mynewt-sensor/src/mynewt/kernel/os.rs:1918
    fn default() -> Self {
        unsafe { ::core::mem::zeroed() }
    }
}
impl Default for os_task {
    fn default() -> Self {
   0:	b580      	push	{r7, lr}
_ZN4core3mem6zeroed17h20b61e8abdfcdcd5E():
/rustc/50a0defd5a93523067ef239936cc2e0755220904/src/libcore/mem.rs:447
   2:	2150      	movs	r1, #80	; 0x50
   4:	f7ff fffe 	bl	0 <__aeabi_memclr4>
_ZN77_$LT$mylib..mynewt..kernel..os..os_task$u20$as$u20$core..default..Default$GT$7default17hbcc6978df783f1d8E():
/mnt/c/stm32bluepill-mynewt-sensor/src/mynewt/kernel/os.rs:1920
        unsafe { ::core::mem::zeroed() }
    }
   8:	bd80      	pop	{r7, pc}

Disassembly of section .text._ZN76_$LT$mylib..mynewt..kernel..os..os_sem$u20$as$u20$core..default..Default$GT$7default17h5c8e87c2628b6e14E:

00000000 <_ZN76_$LT$mylib..mynewt..kernel..os..os_sem$u20$as$u20$core..default..Default$GT$7default17h5c8e87c2628b6e14E>:
_ZN76_$LT$mylib..mynewt..kernel..os..os_sem$u20$as$u20$core..default..Default$GT$7default17h5c8e87c2628b6e14E():
/mnt/c/stm32bluepill-mynewt-sensor/src/mynewt/kernel/os.rs:2131
    fn default() -> Self {
        unsafe { ::core::mem::zeroed() }
    }
}
impl Default for os_sem {
    fn default() -> Self {
   0:	2100      	movs	r1, #0
_ZN4core3mem6zeroed17h683df8b7d7843087E():
/rustc/50a0defd5a93523067ef239936cc2e0755220904/src/libcore/mem.rs:447
   2:	e9c0 1100 	strd	r1, r1, [r0]
_ZN76_$LT$mylib..mynewt..kernel..os..os_sem$u20$as$u20$core..default..Default$GT$7default17h5c8e87c2628b6e14E():
/mnt/c/stm32bluepill-mynewt-sensor/src/mynewt/kernel/os.rs:2133
        unsafe { ::core::mem::zeroed() }
    }
   6:	4770      	bx	lr

Disassembly of section .text._ZN100_$LT$mylib..mynewt..hw..sensor..bindings..os_dev__bindgen_ty_1$u20$as$u20$core..default..Default$GT$7default17h330f6cf2332e2d1aE:

00000000 <_ZN100_$LT$mylib..mynewt..hw..sensor..bindings..os_dev__bindgen_ty_1$u20$as$u20$core..default..Default$GT$7default17h330f6cf2332e2d1aE>:
_ZN100_$LT$mylib..mynewt..hw..sensor..bindings..os_dev__bindgen_ty_1$u20$as$u20$core..default..Default$GT$7default17h330f6cf2332e2d1aE():
/mnt/c/stm32bluepill-mynewt-sensor/src/mynewt/hw/sensor/bindings.rs:207
    pub stqe_next: *mut os_dev,
}
impl Default for os_dev__bindgen_ty_1 {
    fn default() -> Self {
        unsafe { ::core::mem::zeroed() }
    }
   0:	2000      	movs	r0, #0
   2:	4770      	bx	lr

Disassembly of section .text._ZN93_$LT$mylib..mynewt..hw..sensor..bindings..sensor_data_t$u20$as$u20$core..default..Default$GT$7default17hb4bfaef90e32f038E:

00000000 <_ZN93_$LT$mylib..mynewt..hw..sensor..bindings..sensor_data_t$u20$as$u20$core..default..Default$GT$7default17hb4bfaef90e32f038E>:
_ZN93_$LT$mylib..mynewt..hw..sensor..bindings..sensor_data_t$u20$as$u20$core..default..Default$GT$7default17hb4bfaef90e32f038E():
/mnt/c/stm32bluepill-mynewt-sensor/src/mynewt/hw/sensor/bindings.rs:359
    pub spd: __BindgenUnionField<*mut sensor_press_data>,
    pub srhd: __BindgenUnionField<*mut sensor_humid_data>,
    pub bindgen_union_field: u64,
}
impl Default for sensor_data_t {
    fn default() -> Self {
   0:	2100      	movs	r1, #0
_ZN4core3mem6zeroed17h2b423228324b0bdaE():
/rustc/50a0defd5a93523067ef239936cc2e0755220904/src/libcore/mem.rs:447
   2:	e9c0 1100 	strd	r1, r1, [r0]
_ZN93_$LT$mylib..mynewt..hw..sensor..bindings..sensor_data_t$u20$as$u20$core..default..Default$GT$7default17hb4bfaef90e32f038E():
/mnt/c/stm32bluepill-mynewt-sensor/src/mynewt/hw/sensor/bindings.rs:361
        unsafe { ::core::mem::zeroed() }
    }
   6:	4770      	bx	lr

Disassembly of section .text._ZN95_$LT$mylib..mynewt..hw..sensor..bindings..sensor_listener$u20$as$u20$core..default..Default$GT$7default17h1dd4f66caf63ca67E:

00000000 <_ZN95_$LT$mylib..mynewt..hw..sensor..bindings..sensor_listener$u20$as$u20$core..default..Default$GT$7default17h1dd4f66caf63ca67E>:
_ZN95_$LT$mylib..mynewt..hw..sensor..bindings..sensor_listener$u20$as$u20$core..default..Default$GT$7default17h1dd4f66caf63ca67E():
/mnt/c/stm32bluepill-mynewt-sensor/src/mynewt/hw/sensor/bindings.rs:443
    fn default() -> Self {
        unsafe { ::core::mem::zeroed() }
    }
}
impl Default for sensor_listener {
    fn default() -> Self {
   0:	2100      	movs	r1, #0
_ZN4core3mem6zeroed17h58d70380eab5e2a6E():
/rustc/50a0defd5a93523067ef239936cc2e0755220904/src/libcore/mem.rs:447
   2:	e9c0 1100 	strd	r1, r1, [r0]
   6:	e9c0 1102 	strd	r1, r1, [r0, #8]
   a:	e9c0 1104 	strd	r1, r1, [r0, #16]
_ZN95_$LT$mylib..mynewt..hw..sensor..bindings..sensor_listener$u20$as$u20$core..default..Default$GT$7default17h1dd4f66caf63ca67E():
/mnt/c/stm32bluepill-mynewt-sensor/src/mynewt/hw/sensor/bindings.rs:445
        unsafe { ::core::mem::zeroed() }
    }
   e:	4770      	bx	lr

Disassembly of section .text._ZN98_$LT$mylib..mynewt..hw..sensor..bindings..sensor_type_traits$u20$as$u20$core..default..Default$GT$7default17h604a349a45bc2964E:

00000000 <_ZN98_$LT$mylib..mynewt..hw..sensor..bindings..sensor_type_traits$u20$as$u20$core..default..Default$GT$7default17h604a349a45bc2964E>:
_ZN98_$LT$mylib..mynewt..hw..sensor..bindings..sensor_type_traits$u20$as$u20$core..default..Default$GT$7default17h604a349a45bc2964E():
/mnt/c/stm32bluepill-mynewt-sensor/src/mynewt/hw/sensor/bindings.rs:503
    fn default() -> Self {
        unsafe { ::core::mem::zeroed() }
    }
}
impl Default for sensor_type_traits {
    fn default() -> Self {
   0:	b580      	push	{r7, lr}
_ZN4core3mem6zeroed17h1d19c7d52964ac37E():
/rustc/50a0defd5a93523067ef239936cc2e0755220904/src/libcore/mem.rs:447
   2:	2130      	movs	r1, #48	; 0x30
   4:	f7ff fffe 	bl	0 <__aeabi_memclr8>
_ZN98_$LT$mylib..mynewt..hw..sensor..bindings..sensor_type_traits$u20$as$u20$core..default..Default$GT$7default17h604a349a45bc2964E():
/mnt/c/stm32bluepill-mynewt-sensor/src/mynewt/hw/sensor/bindings.rs:505
        unsafe { ::core::mem::zeroed() }
    }
   8:	bd80      	pop	{r7, pc}

Disassembly of section .text._ZN100_$LT$mylib..mynewt..hw..sensor..bindings..sensor_notify_ev_ctx$u20$as$u20$core..default..Default$GT$7default17ha4b50f23ab08f5e7E:

00000000 <_ZN100_$LT$mylib..mynewt..hw..sensor..bindings..sensor_notify_ev_ctx$u20$as$u20$core..default..Default$GT$7default17ha4b50f23ab08f5e7E>:
_ZN100_$LT$mylib..mynewt..hw..sensor..bindings..sensor_notify_ev_ctx$u20$as$u20$core..default..Default$GT$7default17ha4b50f23ab08f5e7E():
/mnt/c/stm32bluepill-mynewt-sensor/src/mynewt/hw/sensor/bindings.rs:515
    pub snec_evtype: sensor_event_type_t,
}
impl Default for sensor_notify_ev_ctx {
    fn default() -> Self {
        unsafe { ::core::mem::zeroed() }
    }
   0:	2000      	movs	r0, #0
   2:	2100      	movs	r1, #0
   4:	4770      	bx	lr

Disassembly of section .text._ZN86_$LT$mylib..mynewt..hw..sensor..bindings..sensor$u20$as$u20$core..default..Default$GT$7default17h3972b4100904ce9dE:

00000000 <_ZN86_$LT$mylib..mynewt..hw..sensor..bindings..sensor$u20$as$u20$core..default..Default$GT$7default17h3972b4100904ce9dE>:
_ZN86_$LT$mylib..mynewt..hw..sensor..bindings..sensor$u20$as$u20$core..default..Default$GT$7default17h3972b4100904ce9dE():
/mnt/c/stm32bluepill-mynewt-sensor/src/mynewt/hw/sensor/bindings.rs:739
    fn default() -> Self {
        unsafe { ::core::mem::zeroed() }
    }
}
impl Default for sensor {
    fn default() -> Self {
   0:	b580      	push	{r7, lr}
_ZN4core3mem6zeroed17h081f11805e8da9edE():
/rustc/50a0defd5a93523067ef239936cc2e0755220904/src/libcore/mem.rs:447
   2:	2188      	movs	r1, #136	; 0x88
   4:	f7ff fffe 	bl	0 <__aeabi_memclr8>
_ZN86_$LT$mylib..mynewt..hw..sensor..bindings..sensor$u20$as$u20$core..default..Default$GT$7default17h3972b4100904ce9dE():
/mnt/c/stm32bluepill-mynewt-sensor/src/mynewt/hw/sensor/bindings.rs:741
        unsafe { ::core::mem::zeroed() }
    }
   8:	bd80      	pop	{r7, pc}

Disassembly of section .text._ZN93_$LT$mylib..mynewt..hw..sensor..bindings.._bindgen_ty_1$u20$as$u20$core..default..Default$GT$7default17hfe61a3a2e7f05b3cE:

00000000 <_ZN93_$LT$mylib..mynewt..hw..sensor..bindings.._bindgen_ty_1$u20$as$u20$core..default..Default$GT$7default17hfe61a3a2e7f05b3cE>:
_ZN93_$LT$mylib..mynewt..hw..sensor..bindings.._bindgen_ty_1$u20$as$u20$core..default..Default$GT$7default17hfe61a3a2e7f05b3cE():
/mnt/c/stm32bluepill-mynewt-sensor/src/mynewt/hw/sensor/bindings.rs:1833
    fn default() -> Self {
        unsafe { ::core::mem::zeroed() }
    }
}
impl Default for _bindgen_ty_1 {
    fn default() -> Self {
   0:	b580      	push	{r7, lr}
_ZN4core3mem6zeroed17h31ea305547e32d20E():
/rustc/50a0defd5a93523067ef239936cc2e0755220904/src/libcore/mem.rs:447
   2:	2134      	movs	r1, #52	; 0x34
   4:	f7ff fffe 	bl	0 <__aeabi_memclr4>
_ZN93_$LT$mylib..mynewt..hw..sensor..bindings.._bindgen_ty_1$u20$as$u20$core..default..Default$GT$7default17hfe61a3a2e7f05b3cE():
/mnt/c/stm32bluepill-mynewt-sensor/src/mynewt/hw/sensor/bindings.rs:1835
        unsafe { ::core::mem::zeroed() }
    }
   8:	bd80      	pop	{r7, pc}

Disassembly of section .text._ZN5mylib6mynewt2hw6sensor21null_sensor_data_func17he576af080a279986E:

00000000 <_ZN5mylib6mynewt2hw6sensor21null_sensor_data_func17he576af080a279986E>:
_ZN5mylib6mynewt2hw6sensor21null_sensor_data_func17he576af080a279986E():
/mnt/c/stm32bluepill-mynewt-sensor/src/mynewt/hw/sensor.rs:88
extern fn null_sensor_data_func(
    _sensor: sensor_ptr, 
    _arg: sensor_arg, 
    _sensor_data: sensor_data_ptr, 
    _sensor_type: sensor_type_t) -> i32
    { 0 }
   0:	2000      	movs	r0, #0
   2:	4770      	bx	lr

Disassembly of section .text._ZN101_$LT$mylib..mynewt..libs..sensor_coap..json_value__bindgen_ty_1$u20$as$u20$core..default..Default$GT$7default17h7186c454935d415bE:

00000000 <_ZN101_$LT$mylib..mynewt..libs..sensor_coap..json_value__bindgen_ty_1$u20$as$u20$core..default..Default$GT$7default17h7186c454935d415bE>:
_ZN101_$LT$mylib..mynewt..libs..sensor_coap..json_value__bindgen_ty_1$u20$as$u20$core..default..Default$GT$7default17h7186c454935d415bE():
/mnt/c/stm32bluepill-mynewt-sensor/src/mynewt/libs/sensor_coap.rs:430
    fn default() -> Self {
        unsafe { ::core::mem::zeroed() }
    }
}
impl Default for json_value__bindgen_ty_1 {
    fn default() -> Self {
   0:	2100      	movs	r1, #0
_ZN4core3mem6zeroed17h0baece6fa5847311E():
/rustc/50a0defd5a93523067ef239936cc2e0755220904/src/libcore/mem.rs:447
   2:	e9c0 1100 	strd	r1, r1, [r0]
   6:	e9c0 1102 	strd	r1, r1, [r0, #8]
_ZN101_$LT$mylib..mynewt..libs..sensor_coap..json_value__bindgen_ty_1$u20$as$u20$core..default..Default$GT$7default17h7186c454935d415bE():
/mnt/c/stm32bluepill-mynewt-sensor/src/mynewt/libs/sensor_coap.rs:432
        unsafe { ::core::mem::zeroed() }
    }
   a:	4770      	bx	lr

Disassembly of section .text._ZN104_$LT$mylib..mynewt..libs..sensor_network..sensor_network_interface$u20$as$u20$core..default..Default$GT$7default17h35426a326eb363b6E:

00000000 <_ZN104_$LT$mylib..mynewt..libs..sensor_network..sensor_network_interface$u20$as$u20$core..default..Default$GT$7default17h35426a326eb363b6E>:
_ZN104_$LT$mylib..mynewt..libs..sensor_network..sensor_network_interface$u20$as$u20$core..default..Default$GT$7default17h35426a326eb363b6E():
/mnt/c/stm32bluepill-mynewt-sensor/src/mynewt/libs/sensor_network.rs:40
        ) -> ::cty::c_int,
    >,
    pub transport_registered: u8,
}
impl Default for sensor_network_interface {
    fn default() -> Self {
   0:	2100      	movs	r1, #0
_ZN4core3mem6zeroed17h7dc4380bca9ca9cdE():
/rustc/50a0defd5a93523067ef239936cc2e0755220904/src/libcore/mem.rs:447
   2:	e9c0 1100 	strd	r1, r1, [r0]
   6:	e9c0 1102 	strd	r1, r1, [r0, #8]
   a:	6101      	str	r1, [r0, #16]
_ZN104_$LT$mylib..mynewt..libs..sensor_network..sensor_network_interface$u20$as$u20$core..default..Default$GT$7default17h35426a326eb363b6E():
/mnt/c/stm32bluepill-mynewt-sensor/src/mynewt/libs/sensor_network.rs:42
        unsafe { ::core::mem::zeroed() }
    }
   c:	4770      	bx	lr

Disassembly of section .text._ZN5mylib6mynewt6result95_$LT$impl$u20$core..convert..From$LT$mylib..mynewt..result..MynewtError$GT$$u20$for$u20$i32$GT$4from17he768babb092a5c90E:

00000000 <_ZN5mylib6mynewt6result95_$LT$impl$u20$core..convert..From$LT$mylib..mynewt..result..MynewtError$GT$$u20$for$u20$i32$GT$4from17he768babb092a5c90E>:
_ZN5mylib6mynewt6result95_$LT$impl$u20$core..convert..From$LT$mylib..mynewt..result..MynewtError$GT$$u20$for$u20$i32$GT$4from17he768babb092a5c90E():
/mnt/c/stm32bluepill-mynewt-sensor/src/mynewt.rs:57
    /// Cast `MynewtError` to `i32`
    impl From<MynewtError> for i32 {
        /// Cast `MynewtError` to `i32`
        fn from(err: MynewtError) -> Self {
            err as i32
        }
   0:	4770      	bx	lr

Disassembly of section .text._ZN5mylib13listen_sensor16read_temperature17h283273ee5533fd04E:

00000000 <_ZN5mylib13listen_sensor16read_temperature17h283273ee5533fd04E>:
_ZN5mylib13listen_sensor16read_temperature17h283273ee5533fd04E():
/mnt/c/stm32bluepill-mynewt-sensor/src/listen_sensor.rs:80
///  This listener function is called by Mynewt every 10 seconds (for local sensors) or when sensor data is received
///  (for Remote Sensors).  Mynewt has fetched the raw or computed temperature value, passed through `sensor_data`.
///  If this is a Sensor Node, we send the sensor data to the Collector Node.
///  If this is a Collector Node or Standalone Node, we send the sensor data to the CoAP server.  
///  Return 0 if we have processed the sensor data successfully.
extern fn read_temperature(sensor: sensor_ptr, _arg: sensor_arg, 
   0:	e92d 4ff0 	stmdb	sp!, {r4, r5, r6, r7, r8, r9, sl, fp, lr}
   4:	b095      	sub	sp, #84	; 0x54
   6:	4605      	mov	r5, r0
_ZN5mylib4base13console_print17h53afd0cf661b2c25E():
/mnt/c/stm32bluepill-mynewt-sensor/src/base.rs:18
///  Display message `msg` on the Arm Semihosting console (via OpenOCD).
pub fn console_print(msg: &[u8]) {
    let len = msg.len();
    unsafe {
        //  Call the Semihosting Console API, which is unsafe.
        console_buffer(msg.as_ptr(), len as u32);
   8:	f240 0000 	movw	r0, #0
   c:	f2c0 0000 	movt	r0, #0
  10:	2111      	movs	r1, #17
  12:	4614      	mov	r4, r2
  14:	f7ff fffe 	bl	0 <console_buffer>
/mnt/c/stm32bluepill-mynewt-sensor/src/base.rs:19
        console_flush();  //  TODO: Remove this.
  18:	f7ff fffe 	bl	0 <console_flush>
_ZN5mylib13listen_sensor16read_temperature17h283273ee5533fd04E():
/mnt/c/stm32bluepill-mynewt-sensor/src/listen_sensor.rs:85
    sensor_data: sensor_data_ptr, sensor_type: sensor_type_t) -> MynewtError {
    console_print(b"read_temperature\n");
    //  Check that the temperature data is valid.
    //  TODO
    if unsafe { is_null_sensor_data(sensor_data) } { return MynewtError::SYS_EINVAL; }  //  Exit if data is missing
  1c:	4620      	mov	r0, r4
  1e:	f7ff fffe 	bl	0 <is_null_sensor_data>
  22:	b120      	cbz	r0, 2e <_ZN5mylib13listen_sensor16read_temperature17h283273ee5533fd04E+0x2e>
  24:	f06f 0001 	mvn.w	r0, #1
/mnt/c/stm32bluepill-mynewt-sensor/src/listen_sensor.rs:116
            return MynewtError::SYS_EOK; 
        }            
    }
    //  Return 0 to Mynewt to indicate no error.  Should not end with a semicolon (;).
    MynewtError::SYS_EOK
}
  28:	b015      	add	sp, #84	; 0x54
  2a:	e8bd 8ff0 	ldmia.w	sp!, {r4, r5, r6, r7, r8, r9, sl, fp, pc}
/mnt/c/stm32bluepill-mynewt-sensor/src/listen_sensor.rs:86
    assert!(unsafe { !is_null_sensor(sensor) });
  2e:	4628      	mov	r0, r5
  30:	f7ff fffe 	bl	0 <is_null_sensor>
  34:	2800      	cmp	r0, #0
  36:	f040 819c 	bne.w	372 <_ZN5mylib13listen_sensor16read_temperature17h283273ee5533fd04E+0x372>
  3a:	e9dd 101e 	ldrd	r1, r0, [sp, #120]	; 0x78
_ZN5mylib13listen_sensor15get_temperature17had1038eb151d12bfE():
/mnt/c/stm32bluepill-mynewt-sensor/src/listen_sensor.rs:126
#[allow(unreachable_patterns)]
#[allow(unused_variables)]
fn get_temperature(sensor_data: sensor_data_ptr, sensor_type: sensor_type_t) -> SensorValue {
    let mut return_value = SensorValue::default();
    match sensor_type {                           //  Is this raw or computed temperature?
        SENSOR_TYPE_AMBIENT_TEMPERATURE_RAW => {  //  If this is raw temperature...
  3e:	f081 6180 	eor.w	r1, r1, #67108864	; 0x4000000
  42:	ea41 0700 	orr.w	r7, r1, r0
_ZN5mylib13listen_sensor16read_temperature17h283273ee5533fd04E():
/mnt/c/stm32bluepill-mynewt-sensor/src/listen_sensor.rs:91
    let device = unsafe { sensor_get_device(sensor) };
  46:	4628      	mov	r0, r5
  48:	f7ff fffe 	bl	0 <sensor_get_device>
/mnt/c/stm32bluepill-mynewt-sensor/src/listen_sensor.rs:92
    let device_name_ptr: *const c_char = unsafe { device_get_name(device) };
  4c:	f7ff fffe 	bl	0 <device_get_name>
/mnt/c/stm32bluepill-mynewt-sensor/src/listen_sensor.rs:93
    let device_name: &CStr = unsafe { CStr::from_ptr(device_name_ptr) };
  50:	f7ff fffe 	bl	0 <_ZN9cstr_core4CStr8from_ptr17h02056df58ddde440E>
  54:	4606      	mov	r6, r0
  56:	468a      	mov	sl, r1
  58:	2000      	movs	r0, #0
_ZN5mylib13listen_sensor15get_temperature17had1038eb151d12bfE():
/mnt/c/stm32bluepill-mynewt-sensor/src/listen_sensor.rs:126
        SENSOR_TYPE_AMBIENT_TEMPERATURE_RAW => {  //  If this is raw temperature...
  5a:	b9df      	cbnz	r7, 94 <_ZN5mylib13listen_sensor16read_temperature17h283273ee5533fd04E+0x94>
  5c:	a90d      	add	r1, sp, #52	; 0x34
/mnt/c/stm32bluepill-mynewt-sensor/src/listen_sensor.rs:128
            //  Interpret the sensor data as a sensor_temp_raw_data struct that contains raw temp.
            let mut rawtempdata = fill_zero!(sensor_temp_raw_data);
  5e:	f88d 0038 	strb.w	r0, [sp, #56]	; 0x38
  62:	900d      	str	r0, [sp, #52]	; 0x34
/mnt/c/stm32bluepill-mynewt-sensor/src/listen_sensor.rs:129
            let rc = unsafe { get_temp_raw_data(sensor_data, &mut rawtempdata) };
  64:	4620      	mov	r0, r4
  66:	f7ff fffe 	bl	0 <get_temp_raw_data>
/mnt/c/stm32bluepill-mynewt-sensor/src/listen_sensor.rs:130
            assert!(rc == 0);
  6a:	2800      	cmp	r0, #0
  6c:	f040 818f 	bne.w	38e <_ZN5mylib13listen_sensor16read_temperature17h283273ee5533fd04E+0x38e>
/mnt/c/stm32bluepill-mynewt-sensor/src/listen_sensor.rs:133

            //  Check that the raw temperature data is valid.
            if rawtempdata.strd_temp_raw_is_valid == 0 { return return_value; }  //  Exit if data is not valid
  70:	f89d 0038 	ldrb.w	r0, [sp, #56]	; 0x38
  74:	2800      	cmp	r0, #0
  76:	f000 8183 	beq.w	380 <_ZN5mylib13listen_sensor16read_temperature17h283273ee5533fd04E+0x380>
_ZN5mylib4base13console_print17h53afd0cf661b2c25E():
/mnt/c/stm32bluepill-mynewt-sensor/src/base.rs:18
        console_buffer(msg.as_ptr(), len as u32);
  7a:	f240 0000 	movw	r0, #0
  7e:	2119      	movs	r1, #25
  80:	f2c0 0000 	movt	r0, #0
_ZN5mylib13listen_sensor15get_temperature17had1038eb151d12bfE():
/mnt/c/stm32bluepill-mynewt-sensor/src/listen_sensor.rs:136

            //  Raw temperature data is valid.  Copy and display it.
            return_value.val = SensorValueType::Uint(rawtempdata.strd_temp_raw);  //  Raw Temperature in integer (0 to 4095)
  84:	f8dd 8034 	ldr.w	r8, [sp, #52]	; 0x34
_ZN5mylib4base13console_print17h53afd0cf661b2c25E():
/mnt/c/stm32bluepill-mynewt-sensor/src/base.rs:18
  88:	f7ff fffe 	bl	0 <console_buffer>
/mnt/c/stm32bluepill-mynewt-sensor/src/base.rs:19
        console_flush();  //  TODO: Remove this.
  8c:	f7ff fffe 	bl	0 <console_flush>
  90:	2501      	movs	r5, #1
  92:	e011      	b.n	b8 <_ZN5mylib13listen_sensor16read_temperature17h283273ee5533fd04E+0xb8>
_ZN5mylib13listen_sensor15get_temperature17had1038eb151d12bfE():
  94:	a90d      	add	r1, sp, #52	; 0x34
/mnt/c/stm32bluepill-mynewt-sensor/src/listen_sensor.rs:141
            console_print(b"TMP listener got rawtmp \n");  // return_value->int_val);
        },
        SENSOR_TYPE_AMBIENT_TEMPERATURE => {      //  If this is computed temperature...
            //  Interpret the sensor data as a sensor_temp_data struct that contains computed temp.
            let mut tempdata = fill_zero!(sensor_temp_data);
  96:	f88d 0038 	strb.w	r0, [sp, #56]	; 0x38
  9a:	900d      	str	r0, [sp, #52]	; 0x34
/mnt/c/stm32bluepill-mynewt-sensor/src/listen_sensor.rs:142
            let rc = unsafe { get_temp_data(sensor_data, &mut tempdata) };
  9c:	4620      	mov	r0, r4
  9e:	f7ff fffe 	bl	0 <get_temp_data>
/mnt/c/stm32bluepill-mynewt-sensor/src/listen_sensor.rs:143
            assert!(rc == 0);
  a2:	2800      	cmp	r0, #0
  a4:	f040 817a 	bne.w	39c <_ZN5mylib13listen_sensor16read_temperature17h283273ee5533fd04E+0x39c>
  a8:	f89d 0038 	ldrb.w	r0, [sp, #56]	; 0x38
/mnt/c/stm32bluepill-mynewt-sensor/src/listen_sensor.rs:146

            //  Check that the computed temperature data is valid.
            if tempdata.std_temp_is_valid() == 0 { return return_value; }  //  Exit if data is not valid
  ac:	07c0      	lsls	r0, r0, #31
  ae:	f000 8167 	beq.w	380 <_ZN5mylib13listen_sensor16read_temperature17h283273ee5533fd04E+0x380>
/mnt/c/stm32bluepill-mynewt-sensor/src/listen_sensor.rs:149

            //  Computed temperature data is valid.  Copy and display it.
            return_value.val = SensorValueType::Float(tempdata.std_temp);  //  Temperature in floating point.
  b2:	f8dd 8034 	ldr.w	r8, [sp, #52]	; 0x34
  b6:	2502      	movs	r5, #2
_ZN5mylib4base13console_print17h53afd0cf661b2c25E():
/mnt/c/stm32bluepill-mynewt-sensor/src/base.rs:18
        console_buffer(msg.as_ptr(), len as u32);
  b8:	f240 0000 	movw	r0, #0
  bc:	2111      	movs	r1, #17
  be:	f2c0 0000 	movt	r0, #0
  c2:	f7ff fffe 	bl	0 <console_buffer>
/mnt/c/stm32bluepill-mynewt-sensor/src/base.rs:19
        console_flush();  //  TODO: Remove this.
  c6:	f7ff fffe 	bl	0 <console_flush>
  ca:	2000      	movs	r0, #0
_ZN5mylib9send_coap16send_sensor_data17hb3f5ad7bc3c59aa4E():
/mnt/c/stm32bluepill-mynewt-sensor/src/send_coap.rs:123
pub fn send_sensor_data(sensor_val: &SensorValue, sensor_node: &CStr) -> MynewtResult<()>  {  //  Returns an error code upon error.
    console_print(b"send_sensor_data\n");
    //  TODO: Remove val
    let mut val = fill_zero!(sensor_value);
    //  For Sensor Node: Transmit the sensor data to the Collector Node as CBOR.
    if unsafe { sensor_network::should_send_to_collector(&mut val, sensor_node.as_ptr()) } { 
  cc:	4631      	mov	r1, r6
/mnt/c/stm32bluepill-mynewt-sensor/src/send_coap.rs:121
    let mut val = fill_zero!(sensor_value);
  ce:	e9cd 0006 	strd	r0, r0, [sp, #24]
  d2:	e9cd 0004 	strd	r0, r0, [sp, #16]
  d6:	a804      	add	r0, sp, #16
/mnt/c/stm32bluepill-mynewt-sensor/src/send_coap.rs:123
    if unsafe { sensor_network::should_send_to_collector(&mut val, sensor_node.as_ptr()) } { 
  d8:	f7ff fffe 	bl	0 <should_send_to_collector>
  dc:	2800      	cmp	r0, #0
  de:	d049      	beq.n	174 <_ZN5mylib13listen_sensor16read_temperature17h283273ee5533fd04E+0x174>
_ZN5mylib9send_coap29send_sensor_data_to_collector17hee27b36eedd1b0b3E():
/mnt/c/stm32bluepill-mynewt-sensor/src/send_coap.rs:202
///  to be transmitted.  Return 0 if successful, `SYS_EAGAIN` if network is not ready yet.
///  The CoAP payload needs to be very compact (under 32 bytes) so it will be encoded in CBOR like this:
///  `{ t: 2870 }`
fn send_sensor_data_to_collector(sensor_val: &SensorValue, _node_id: &CStr) -> MynewtResult<()>  {  //  Returns an error code upon error.
    ////  TODO: if let SensorValueType::None = sensor_val.val { assert!(false); }
    if unsafe { !NETWORK_IS_READY } { return Err(MynewtError::SYS_EAGAIN); }  //  If network is not ready, tell caller (Sensor Listener) to try later.
  e0:	f240 0400 	movw	r4, #0
  e4:	f2c0 0400 	movt	r4, #0
  e8:	7820      	ldrb	r0, [r4, #0]
  ea:	2801      	cmp	r0, #1
  ec:	f040 8130 	bne.w	350 <_ZN5mylib13listen_sensor16read_temperature17h283273ee5533fd04E+0x350>
/mnt/c/stm32bluepill-mynewt-sensor/src/send_coap.rs:207

    //  Start composing the CoAP Collector message with the sensor data in the payload.  This will 
    //  block other tasks from composing and posting CoAP messages (through a semaphore).
    //  We only have 1 memory buffer for composing CoAP messages so it needs to be locked.
    let rc = unsafe { sensor_network::init_collector_post() };  assert!(rc);
  f0:	f7ff fffe 	bl	0 <init_collector_post>
  f4:	2800      	cmp	r0, #0
  f6:	f000 81bd 	beq.w	474 <_ZN5mylib13listen_sensor16read_temperature17h283273ee5533fd04E+0x474>
/mnt/c/stm32bluepill-mynewt-sensor/src/send_coap.rs:210

    //  Compose the CoAP Payload in CBOR using the `coap!()` macro.
    let _payload = coap!(@cbor {
  fa:	f240 0000 	movw	r0, #0
  fe:	f240 0100 	movw	r1, #0
 102:	f2c0 0000 	movt	r0, #0
 106:	f2c0 0100 	movt	r1, #0
 10a:	f04f 32ff 	mov.w	r2, #4294967295	; 0xffffffff
 10e:	f7ff fffe 	bl	0 <cbor_encoder_create_map>
 112:	2d01      	cmp	r5, #1
 114:	f040 817c 	bne.w	410 <_ZN5mylib13listen_sensor16read_temperature17h283273ee5533fd04E+0x410>
 118:	2674      	movs	r6, #116	; 0x74
 11a:	f240 0500 	movw	r5, #0
_ZN4core10intrinsics19copy_nonoverlapping17habb675805835fc95E():
/rustc/50a0defd5a93523067ef239936cc2e0755220904/src/libcore/intrinsics.rs:1412
 11e:	f824 6f01 	strh.w	r6, [r4, #1]!
_ZN5mylib9send_coap29send_sensor_data_to_collector17hee27b36eedd1b0b3E():
/mnt/c/stm32bluepill-mynewt-sensor/src/send_coap.rs:210
 122:	f2c0 0500 	movt	r5, #0
 126:	4628      	mov	r0, r5
 128:	2201      	movs	r2, #1
 12a:	4621      	mov	r1, r4
 12c:	f7ff fffe 	bl	0 <cbor_encode_text_string>
 130:	4628      	mov	r0, r5
 132:	4642      	mov	r2, r8
 134:	2300      	movs	r3, #0
 136:	f7ff fffe 	bl	0 <cbor_encode_int>
 13a:	4628      	mov	r0, r5
 13c:	4621      	mov	r1, r4
 13e:	2201      	movs	r2, #1
_ZN4core10intrinsics19copy_nonoverlapping17habb675805835fc95E():
/rustc/50a0defd5a93523067ef239936cc2e0755220904/src/libcore/intrinsics.rs:1412
 140:	8026      	strh	r6, [r4, #0]
_ZN5mylib9send_coap29send_sensor_data_to_collector17hee27b36eedd1b0b3E():
/mnt/c/stm32bluepill-mynewt-sensor/src/send_coap.rs:210
 142:	f7ff fffe 	bl	0 <cbor_encode_text_string>
 146:	4628      	mov	r0, r5
 148:	4642      	mov	r2, r8
 14a:	2300      	movs	r3, #0
 14c:	f7ff fffe 	bl	0 <cbor_encode_int>
 150:	f240 0000 	movw	r0, #0
 154:	4629      	mov	r1, r5
 156:	f2c0 0000 	movt	r0, #0
 15a:	f7ff fffe 	bl	0 <cbor_encoder_close_container>
/mnt/c/stm32bluepill-mynewt-sensor/src/send_coap.rs:218
    });

    //  Post the CoAP Collector message to the CoAP Background Task for transmission.  After posting the
    //  message to the background task, we release a semaphore that unblocks other requests
    //  to compose and post CoAP messages.
    let rc = unsafe { sensor_network::do_collector_post() };  assert!(rc);
 15e:	f7ff fffe 	bl	0 <do_collector_post>
 162:	2800      	cmp	r0, #0
 164:	f000 818d 	beq.w	482 <_ZN5mylib13listen_sensor16read_temperature17h283273ee5533fd04E+0x482>
_ZN5mylib4base13console_print17h53afd0cf661b2c25E():
/mnt/c/stm32bluepill-mynewt-sensor/src/base.rs:18
        console_buffer(msg.as_ptr(), len as u32);
 168:	f240 0000 	movw	r0, #0
 16c:	2121      	movs	r1, #33	; 0x21
 16e:	f2c0 0000 	movt	r0, #0
 172:	e0e5      	b.n	340 <_ZN5mylib13listen_sensor16read_temperature17h283273ee5533fd04E+0x340>
_ZN9cstr_core4CStr8to_bytes17h62ad98c7b7c63aecE():
/home/user/.cargo/registry/src/github.com-1ecc6299db9ec823/cstr_core-0.1.2/src/lib.rs:1033
    /// assert_eq!(c_str.to_bytes(), b"foo");
    /// ```
    #[inline]
    pub fn to_bytes(&self) -> &[u8] {
        let bytes = self.to_bytes_with_nul();
        &bytes[..bytes.len() - 1]
 174:	f1aa 0001 	sub.w	r0, sl, #1
_ZN99_$LT$core..ops..range..Range$LT$usize$GT$$u20$as$u20$core..slice..SliceIndex$LT$$u5b$T$u5d$$GT$$GT$5index17h0359d5933038e6d6E():
/rustc/50a0defd5a93523067ef239936cc2e0755220904/src/libcore/slice/mod.rs:2745
 178:	f1ba 0f00 	cmp.w	sl, #0
 17c:	f000 8115 	beq.w	3aa <_ZN5mylib13listen_sensor16read_temperature17h283273ee5533fd04E+0x3aa>
_ZN5mylib9send_coap26send_sensor_data_to_server17h9e7f4cfab2b86312E():
/mnt/c/stm32bluepill-mynewt-sensor/src/send_coap.rs:151
    assert_ne!(node_id.to_bytes()[0], 0);
 180:	2800      	cmp	r0, #0
 182:	f000 8116 	beq.w	3b2 <_ZN5mylib13listen_sensor16read_temperature17h283273ee5533fd04E+0x3b2>
 186:	7831      	ldrb	r1, [r6, #0]
 188:	2900      	cmp	r1, #0
 18a:	f000 811b 	beq.w	3c4 <_ZN5mylib13listen_sensor16read_temperature17h283273ee5533fd04E+0x3c4>
/mnt/c/stm32bluepill-mynewt-sensor/src/send_coap.rs:152
    if unsafe { !NETWORK_IS_READY } { return Err(MynewtError::SYS_EAGAIN); }  //  If network is not ready, tell caller (Sensor Listener) to try later.
 18e:	f240 0700 	movw	r7, #0
 192:	f2c0 0700 	movt	r7, #0
 196:	7839      	ldrb	r1, [r7, #0]
 198:	2901      	cmp	r1, #1
 19a:	f040 80d9 	bne.w	350 <_ZN5mylib13listen_sensor16read_temperature17h283273ee5533fd04E+0x350>
 19e:	a901      	add	r1, sp, #4
 1a0:	e881 0121 	stmia.w	r1, {r0, r5, r8}
/mnt/c/stm32bluepill-mynewt-sensor/src/send_coap.rs:153
    let device_id_ptr = unsafe { sensor_network::get_device_id() };
 1a4:	f7ff fffe 	bl	0 <get_device_id>
/mnt/c/stm32bluepill-mynewt-sensor/src/send_coap.rs:154
    let device_id: &CStr = unsafe { CStr::from_ptr(device_id_ptr) };
 1a8:	f7ff fffe 	bl	0 <_ZN9cstr_core4CStr8from_ptr17h02056df58ddde440E>
 1ac:	4683      	mov	fp, r0
/mnt/c/stm32bluepill-mynewt-sensor/src/send_coap.rs:159
    let rc = unsafe { sensor_network::init_server_post(0 as *const c_char) };  assert!(rc);
 1ae:	2000      	movs	r0, #0
/mnt/c/stm32bluepill-mynewt-sensor/src/send_coap.rs:154
    let device_id: &CStr = unsafe { CStr::from_ptr(device_id_ptr) };
 1b0:	4688      	mov	r8, r1
 1b2:	2400      	movs	r4, #0
/mnt/c/stm32bluepill-mynewt-sensor/src/send_coap.rs:159
    let rc = unsafe { sensor_network::init_server_post(0 as *const c_char) };  assert!(rc);
 1b4:	f7ff fffe 	bl	0 <init_server_post>
 1b8:	2800      	cmp	r0, #0
 1ba:	f000 8169 	beq.w	490 <_ZN5mylib13listen_sensor16read_temperature17h283273ee5533fd04E+0x490>
/mnt/c/stm32bluepill-mynewt-sensor/src/send_coap.rs:162
    let _payload = coap!(@json {
 1be:	f7ff fffe 	bl	0 <json_rep_start_root_object>
 1c2:	f107 0901 	add.w	r9, r7, #1
 1c6:	f240 0100 	movw	r1, #0
 1ca:	f2c0 0100 	movt	r1, #0
 1ce:	4648      	mov	r0, r9
 1d0:	f7ff fffe 	bl	0 <json_helper_set_array>
 1d4:	f240 0000 	movw	r0, #0
 1d8:	f2c0 0000 	movt	r0, #0
 1dc:	f7ff fffe 	bl	0 <json_helper_object_array_start_item>
_ZN4core10intrinsics19copy_nonoverlapping17habb675805835fc95E():
/rustc/50a0defd5a93523067ef239936cc2e0755220904/src/libcore/intrinsics.rs:1412
 1e0:	f240 0000 	movw	r0, #0
 1e4:	f107 0521 	add.w	r5, r7, #33	; 0x21
 1e8:	f2c0 0000 	movt	r0, #0
_ZN5mylib6mynewt8encoding12json_context11JsonContext13value_to_cstr17hb31c3a1727397b28E():
/mnt/c/stm32bluepill-mynewt-sensor/src/mynewt/encoding/json_context.rs:89
        self.value_buffer[s.len()] = 0;
 1ec:	f887 4027 	strb.w	r4, [r7, #39]	; 0x27
_ZN4core10intrinsics19copy_nonoverlapping17habb675805835fc95E():
/rustc/50a0defd5a93523067ef239936cc2e0755220904/src/libcore/intrinsics.rs:1412
 1f0:	8881      	ldrh	r1, [r0, #4]
_ZN5mylib9send_coap26send_sensor_data_to_server17h9e7f4cfab2b86312E():
/mnt/c/stm32bluepill-mynewt-sensor/src/send_coap.rs:162
 1f2:	462a      	mov	r2, r5
_ZN4core10intrinsics19copy_nonoverlapping17habb675805835fc95E():
/rustc/50a0defd5a93523067ef239936cc2e0755220904/src/libcore/intrinsics.rs:1412
 1f4:	f8a7 1025 	strh.w	r1, [r7, #37]	; 0x25
_ZN5mylib9send_coap26send_sensor_data_to_server17h9e7f4cfab2b86312E():
/mnt/c/stm32bluepill-mynewt-sensor/src/send_coap.rs:162
 1f8:	f240 0100 	movw	r1, #0
_ZN4core10intrinsics19copy_nonoverlapping17habb675805835fc95E():
/rustc/50a0defd5a93523067ef239936cc2e0755220904/src/libcore/intrinsics.rs:1412
 1fc:	6800      	ldr	r0, [r0, #0]
_ZN5mylib9send_coap26send_sensor_data_to_server17h9e7f4cfab2b86312E():
/mnt/c/stm32bluepill-mynewt-sensor/src/send_coap.rs:162
 1fe:	f2c0 0100 	movt	r1, #0
_ZN4core10intrinsics19copy_nonoverlapping17habb675805835fc95E():
/rustc/50a0defd5a93523067ef239936cc2e0755220904/src/libcore/intrinsics.rs:1412
 202:	f8c7 0021 	str.w	r0, [r7, #33]	; 0x21
_ZN5mylib9send_coap26send_sensor_data_to_server17h9e7f4cfab2b86312E():
/mnt/c/stm32bluepill-mynewt-sensor/src/send_coap.rs:162
 206:	4648      	mov	r0, r9
 208:	f7ff fffe 	bl	0 <json_helper_set_text_string>
_ZN4core3num23_$LT$impl$u20$usize$GT$15overflowing_sub17h3d9756556b058eb6E():
/rustc/50a0defd5a93523067ef239936cc2e0755220904/src/libcore/num/mod.rs:3377
 20c:	f1b8 0f01 	cmp.w	r8, #1
_ZN70_$LT$core..option..Option$LT$T$GT$$u20$as$u20$core..cmp..PartialEq$GT$2eq17h2a753faa3cdcbd81E():
/rustc/50a0defd5a93523067ef239936cc2e0755220904/src/libcore/option.rs:148
 210:	d306      	bcc.n	220 <_ZN5mylib13listen_sensor16read_temperature17h283273ee5533fd04E+0x220>
_ZN5mylib6mynewt8encoding12json_context11JsonContext13value_to_cstr17hb31c3a1727397b28E():
 212:	f1a8 0001 	sub.w	r0, r8, #1
_ZN70_$LT$core..option..Option$LT$T$GT$$u20$as$u20$core..cmp..PartialEq$GT$2eq17h2a753faa3cdcbd81E():
/rustc/50a0defd5a93523067ef239936cc2e0755220904/src/libcore/option.rs:148
 216:	4540      	cmp	r0, r8
 218:	d202      	bcs.n	220 <_ZN5mylib13listen_sensor16read_temperature17h283273ee5533fd04E+0x220>
_ZN5mylib6mynewt8encoding12json_context11JsonContext13value_to_cstr17hb31c3a1727397b28E():
 21a:	f81b 0000 	ldrb.w	r0, [fp, r0]
/mnt/c/stm32bluepill-mynewt-sensor/src/mynewt/encoding/json_context.rs:85
        if s.last() == Some(&0) { return s.as_ptr(); }
 21e:	b160      	cbz	r0, 23a <_ZN5mylib13listen_sensor16read_temperature17h283273ee5533fd04E+0x23a>
/mnt/c/stm32bluepill-mynewt-sensor/src/mynewt/encoding/json_context.rs:87
        assert!(s.len() < JSON_VALUE_SIZE);  //  Value too long
 220:	f1b8 0f20 	cmp.w	r8, #32
 224:	f080 811f 	bcs.w	466 <_ZN5mylib13listen_sensor16read_temperature17h283273ee5533fd04E+0x466>
_ZN4core10intrinsics19copy_nonoverlapping17habb675805835fc95E():
/rustc/50a0defd5a93523067ef239936cc2e0755220904/src/libcore/intrinsics.rs:1412
 228:	4628      	mov	r0, r5
 22a:	4659      	mov	r1, fp
 22c:	4642      	mov	r2, r8
 22e:	f7ff fffe 	bl	0 <__aeabi_memcpy>
 232:	2000      	movs	r0, #0
_ZN5mylib6mynewt8encoding12json_context11JsonContext13value_to_cstr17hb31c3a1727397b28E():
 234:	46ab      	mov	fp, r5
/mnt/c/stm32bluepill-mynewt-sensor/src/mynewt/encoding/json_context.rs:89
        self.value_buffer[s.len()] = 0;
 236:	f805 0008 	strb.w	r0, [r5, r8]
_ZN5mylib9send_coap26send_sensor_data_to_server17h9e7f4cfab2b86312E():
/mnt/c/stm32bluepill-mynewt-sensor/src/send_coap.rs:162
 23a:	f240 0100 	movw	r1, #0
 23e:	4648      	mov	r0, r9
 240:	f2c0 0100 	movt	r1, #0
 244:	465a      	mov	r2, fp
 246:	f7ff fffe 	bl	0 <json_helper_set_text_string>
 24a:	f240 0400 	movw	r4, #0
 24e:	f2c0 0400 	movt	r4, #0
 252:	4620      	mov	r0, r4
 254:	f7ff fffe 	bl	0 <json_helper_object_array_end_item>
 258:	4620      	mov	r0, r4
 25a:	f7ff fffe 	bl	0 <json_helper_object_array_start_item>
 25e:	f646 706e 	movw	r0, #28526	; 0x6f6e
_ZN4core10intrinsics19copy_nonoverlapping17habb675805835fc95E():
/rustc/50a0defd5a93523067ef239936cc2e0755220904/src/libcore/intrinsics.rs:1412
 262:	463a      	mov	r2, r7
 264:	f2c6 5064 	movt	r0, #25956	; 0x6564
_ZN5mylib9send_coap26send_sensor_data_to_server17h9e7f4cfab2b86312E():
/mnt/c/stm32bluepill-mynewt-sensor/src/send_coap.rs:162
 268:	f240 0100 	movw	r1, #0
_ZN4core10intrinsics19copy_nonoverlapping17habb675805835fc95E():
/rustc/50a0defd5a93523067ef239936cc2e0755220904/src/libcore/intrinsics.rs:1412
 26c:	f842 0f21 	str.w	r0, [r2, #33]!
 270:	2000      	movs	r0, #0
_ZN5mylib9send_coap26send_sensor_data_to_server17h9e7f4cfab2b86312E():
/mnt/c/stm32bluepill-mynewt-sensor/src/send_coap.rs:162
 272:	f2c0 0100 	movt	r1, #0
_ZN5mylib6mynewt8encoding12json_context11JsonContext13value_to_cstr17hb31c3a1727397b28E():
/mnt/c/stm32bluepill-mynewt-sensor/src/mynewt/encoding/json_context.rs:89
 276:	7110      	strb	r0, [r2, #4]
_ZN5mylib9send_coap26send_sensor_data_to_server17h9e7f4cfab2b86312E():
/mnt/c/stm32bluepill-mynewt-sensor/src/send_coap.rs:162
 278:	4648      	mov	r0, r9
 27a:	f7ff fffe 	bl	0 <json_helper_set_text_string>
 27e:	9801      	ldr	r0, [sp, #4]
 280:	5c30      	ldrb	r0, [r6, r0]
_ZN5mylib6mynewt8encoding12json_context11JsonContext13value_to_cstr17hb31c3a1727397b28E():
/mnt/c/stm32bluepill-mynewt-sensor/src/mynewt/encoding/json_context.rs:85
        if s.last() == Some(&0) { return s.as_ptr(); }
 282:	b160      	cbz	r0, 29e <_ZN5mylib13listen_sensor16read_temperature17h283273ee5533fd04E+0x29e>
/mnt/c/stm32bluepill-mynewt-sensor/src/mynewt/encoding/json_context.rs:87
        assert!(s.len() < JSON_VALUE_SIZE);  //  Value too long
 284:	f1ba 0f20 	cmp.w	sl, #32
 288:	f080 80ed 	bcs.w	466 <_ZN5mylib13listen_sensor16read_temperature17h283273ee5533fd04E+0x466>
_ZN4core10intrinsics19copy_nonoverlapping17habb675805835fc95E():
/rustc/50a0defd5a93523067ef239936cc2e0755220904/src/libcore/intrinsics.rs:1412
 28c:	4628      	mov	r0, r5
 28e:	4631      	mov	r1, r6
 290:	4652      	mov	r2, sl
 292:	f7ff fffe 	bl	0 <__aeabi_memcpy>
 296:	2000      	movs	r0, #0
_ZN5mylib6mynewt8encoding12json_context11JsonContext13value_to_cstr17hb31c3a1727397b28E():
 298:	462e      	mov	r6, r5
/mnt/c/stm32bluepill-mynewt-sensor/src/mynewt/encoding/json_context.rs:89
        self.value_buffer[s.len()] = 0;
 29a:	f805 000a 	strb.w	r0, [r5, sl]
_ZN5mylib9send_coap26send_sensor_data_to_server17h9e7f4cfab2b86312E():
/mnt/c/stm32bluepill-mynewt-sensor/src/send_coap.rs:162
 29e:	f240 0100 	movw	r1, #0
 2a2:	4648      	mov	r0, r9
 2a4:	f2c0 0100 	movt	r1, #0
 2a8:	4632      	mov	r2, r6
 2aa:	f7ff fffe 	bl	0 <json_helper_set_text_string>
 2ae:	f240 0000 	movw	r0, #0
 2b2:	f2c0 0000 	movt	r0, #0
 2b6:	f7ff fffe 	bl	0 <json_helper_object_array_end_item>
 2ba:	9802      	ldr	r0, [sp, #8]
 2bc:	2801      	cmp	r0, #1
 2be:	f040 80a7 	bne.w	410 <_ZN5mylib13listen_sensor16read_temperature17h283273ee5533fd04E+0x410>
 2c2:	f240 0400 	movw	r4, #0
 2c6:	f2c0 0400 	movt	r4, #0
 2ca:	4620      	mov	r0, r4
 2cc:	f7ff fffe 	bl	0 <json_helper_object_array_start_item>
_ZN4core10intrinsics19copy_nonoverlapping17habb675805835fc95E():
/rustc/50a0defd5a93523067ef239936cc2e0755220904/src/libcore/intrinsics.rs:1412
 2d0:	f240 0000 	movw	r0, #0
 2d4:	2500      	movs	r5, #0
 2d6:	f2c0 0000 	movt	r0, #0
 2da:	8801      	ldrh	r1, [r0, #0]
 2dc:	f827 1f01 	strh.w	r1, [r7, #1]!
 2e0:	7880      	ldrb	r0, [r0, #2]
 2e2:	70b8      	strb	r0, [r7, #2]
 2e4:	2074      	movs	r0, #116	; 0x74
 2e6:	463a      	mov	r2, r7
_ZN5mylib6mynewt8encoding12json_context11JsonContext11key_to_cstr17h3b9c57d3b6d8e32eE():
/mnt/c/stm32bluepill-mynewt-sensor/src/mynewt/encoding/json_context.rs:76
        self.key_buffer[s.len()] = 0;
 2e8:	70fd      	strb	r5, [r7, #3]
_ZN4core10intrinsics19copy_nonoverlapping17habb675805835fc95E():
/rustc/50a0defd5a93523067ef239936cc2e0755220904/src/libcore/intrinsics.rs:1412
 2ea:	f822 0f20 	strh.w	r0, [r2, #32]!
_ZN5mylib9send_coap26send_sensor_data_to_server17h9e7f4cfab2b86312E():
/mnt/c/stm32bluepill-mynewt-sensor/src/send_coap.rs:162
 2ee:	4638      	mov	r0, r7
 2f0:	4639      	mov	r1, r7
 2f2:	f7ff fffe 	bl	0 <json_helper_set_text_string>
_ZN4core10intrinsics19copy_nonoverlapping17habb675805835fc95E():
/rustc/50a0defd5a93523067ef239936cc2e0755220904/src/libcore/intrinsics.rs:1412
 2f6:	f240 0000 	movw	r0, #0
_ZN5mylib9send_coap26send_sensor_data_to_server17h9e7f4cfab2b86312E():
/mnt/c/stm32bluepill-mynewt-sensor/src/send_coap.rs:162
 2fa:	9a03      	ldr	r2, [sp, #12]
_ZN4core10intrinsics19copy_nonoverlapping17habb675805835fc95E():
/rustc/50a0defd5a93523067ef239936cc2e0755220904/src/libcore/intrinsics.rs:1412
 2fc:	f2c0 0000 	movt	r0, #0
_ZN5mylib6mynewt8encoding12json_context11JsonContext11key_to_cstr17h3b9c57d3b6d8e32eE():
/mnt/c/stm32bluepill-mynewt-sensor/src/mynewt/encoding/json_context.rs:76
 300:	717d      	strb	r5, [r7, #5]
_ZN4core10intrinsics19copy_nonoverlapping17habb675805835fc95E():
/rustc/50a0defd5a93523067ef239936cc2e0755220904/src/libcore/intrinsics.rs:1412
 302:	7901      	ldrb	r1, [r0, #4]
_ZN5mylib9send_coap26send_sensor_data_to_server17h9e7f4cfab2b86312E():
/mnt/c/stm32bluepill-mynewt-sensor/src/send_coap.rs:162
 304:	2300      	movs	r3, #0
_ZN4core10intrinsics19copy_nonoverlapping17habb675805835fc95E():
/rustc/50a0defd5a93523067ef239936cc2e0755220904/src/libcore/intrinsics.rs:1412
 306:	6800      	ldr	r0, [r0, #0]
 308:	7139      	strb	r1, [r7, #4]
_ZN5mylib9send_coap26send_sensor_data_to_server17h9e7f4cfab2b86312E():
/mnt/c/stm32bluepill-mynewt-sensor/src/send_coap.rs:162
 30a:	4639      	mov	r1, r7
_ZN4core10intrinsics19copy_nonoverlapping17habb675805835fc95E():
/rustc/50a0defd5a93523067ef239936cc2e0755220904/src/libcore/intrinsics.rs:1412
 30c:	6038      	str	r0, [r7, #0]
_ZN5mylib9send_coap26send_sensor_data_to_server17h9e7f4cfab2b86312E():
/mnt/c/stm32bluepill-mynewt-sensor/src/send_coap.rs:162
 30e:	4638      	mov	r0, r7
 310:	f7ff fffe 	bl	0 <json_helper_set_int>
 314:	4620      	mov	r0, r4
 316:	f7ff fffe 	bl	0 <json_helper_object_array_end_item>
 31a:	f240 0100 	movw	r1, #0
 31e:	4638      	mov	r0, r7
 320:	f2c0 0100 	movt	r1, #0
 324:	f7ff fffe 	bl	0 <json_helper_close_array>
 328:	f7ff fffe 	bl	0 <json_rep_end_root_object>
/mnt/c/stm32bluepill-mynewt-sensor/src/send_coap.rs:178
    let rc = unsafe { sensor_network::do_server_post() };  assert!(rc);
 32c:	f7ff fffe 	bl	0 <do_server_post>
 330:	2800      	cmp	r0, #0
 332:	f000 80b4 	beq.w	49e <_ZN5mylib13listen_sensor16read_temperature17h283273ee5533fd04E+0x49e>
_ZN5mylib4base13console_print17h53afd0cf661b2c25E():
/mnt/c/stm32bluepill-mynewt-sensor/src/base.rs:18
 336:	f240 0000 	movw	r0, #0
 33a:	214b      	movs	r1, #75	; 0x4b
 33c:	f2c0 0000 	movt	r0, #0
_ZN5mylib9send_coap16send_sensor_data17hb3f5ad7bc3c59aa4E():
 340:	f7ff fffe 	bl	0 <console_buffer>
 344:	f7ff fffe 	bl	0 <console_flush>
 348:	2001      	movs	r0, #1
_ZN5mylib13listen_sensor16read_temperature17h283273ee5533fd04E():
/mnt/c/stm32bluepill-mynewt-sensor/src/listen_sensor.rs:108
    if let Err(err) = rc {  //  `if let` will assign `err` to the error code inside `rc`
 34a:	3006      	adds	r0, #6
 34c:	d10d      	bne.n	36a <_ZN5mylib13listen_sensor16read_temperature17h283273ee5533fd04E+0x36a>
 34e:	e003      	b.n	358 <_ZN5mylib13listen_sensor16read_temperature17h283273ee5533fd04E+0x358>
 350:	f06f 0005 	mvn.w	r0, #5
 354:	3006      	adds	r0, #6
 356:	d108      	bne.n	36a <_ZN5mylib13listen_sensor16read_temperature17h283273ee5533fd04E+0x36a>
_ZN5mylib4base13console_print17h53afd0cf661b2c25E():
/mnt/c/stm32bluepill-mynewt-sensor/src/base.rs:18
 358:	f240 0000 	movw	r0, #0
 35c:	2116      	movs	r1, #22
 35e:	f2c0 0000 	movt	r0, #0
 362:	f7ff fffe 	bl	0 <console_buffer>
/mnt/c/stm32bluepill-mynewt-sensor/src/base.rs:19
        console_flush();  //  TODO: Remove this.
 366:	f7ff fffe 	bl	0 <console_flush>
_ZN5mylib13listen_sensor16read_temperature17h283273ee5533fd04E():
 36a:	2000      	movs	r0, #0
/mnt/c/stm32bluepill-mynewt-sensor/src/listen_sensor.rs:116
}
 36c:	b015      	add	sp, #84	; 0x54
 36e:	e8bd 8ff0 	ldmia.w	sp!, {r4, r5, r6, r7, r8, r9, sl, fp, pc}
/mnt/c/stm32bluepill-mynewt-sensor/src/listen_sensor.rs:86
    assert!(unsafe { !is_null_sensor(sensor) });
 372:	f240 0000 	movw	r0, #0
 376:	f2c0 0000 	movt	r0, #0
 37a:	f7ff fffe 	bl	0 <_ZN4core9panicking5panic17h53ca63c6ac6312f8E>
 37e:	defe      	udf	#254	; 0xfe
/mnt/c/stm32bluepill-mynewt-sensor/src/listen_sensor.rs:98
    if let SensorValueType::None = temp_sensor_value.val { assert!(false); }  //  Invalid type
 380:	f240 0000 	movw	r0, #0
 384:	f2c0 0000 	movt	r0, #0
 388:	f7ff fffe 	bl	0 <_ZN4core9panicking5panic17h53ca63c6ac6312f8E>
 38c:	defe      	udf	#254	; 0xfe
_ZN5mylib13listen_sensor15get_temperature17had1038eb151d12bfE():
/mnt/c/stm32bluepill-mynewt-sensor/src/listen_sensor.rs:130
            assert!(rc == 0);
 38e:	f240 0000 	movw	r0, #0
 392:	f2c0 0000 	movt	r0, #0
 396:	f7ff fffe 	bl	0 <_ZN4core9panicking5panic17h53ca63c6ac6312f8E>
 39a:	defe      	udf	#254	; 0xfe
/mnt/c/stm32bluepill-mynewt-sensor/src/listen_sensor.rs:143
            assert!(rc == 0);
 39c:	f240 0000 	movw	r0, #0
 3a0:	f2c0 0000 	movt	r0, #0
 3a4:	f7ff fffe 	bl	0 <_ZN4core9panicking5panic17h53ca63c6ac6312f8E>
 3a8:	defe      	udf	#254	; 0xfe
_ZN99_$LT$core..ops..range..Range$LT$usize$GT$$u20$as$u20$core..slice..SliceIndex$LT$$u5b$T$u5d$$GT$$GT$5index17h0359d5933038e6d6E():
/rustc/50a0defd5a93523067ef239936cc2e0755220904/src/libcore/slice/mod.rs:2746
 3aa:	2100      	movs	r1, #0
 3ac:	f7ff fffe 	bl	0 <_ZN4core5slice20slice_index_len_fail17hedb5bb240677a6b7E>
 3b0:	defe      	udf	#254	; 0xfe
_ZN5mylib9send_coap26send_sensor_data_to_server17h9e7f4cfab2b86312E():
/mnt/c/stm32bluepill-mynewt-sensor/src/send_coap.rs:151
    assert_ne!(node_id.to_bytes()[0], 0);
 3b2:	f240 0000 	movw	r0, #0
 3b6:	2100      	movs	r1, #0
 3b8:	f2c0 0000 	movt	r0, #0
 3bc:	2200      	movs	r2, #0
 3be:	f7ff fffe 	bl	0 <_ZN4core9panicking18panic_bounds_check17h946762cd0671aec9E>
 3c2:	defe      	udf	#254	; 0xfe
 3c4:	f240 0000 	movw	r0, #0
 3c8:	a914      	add	r1, sp, #80	; 0x50
 3ca:	f2c0 0000 	movt	r0, #0
 3ce:	9613      	str	r6, [sp, #76]	; 0x4c
 3d0:	900b      	str	r0, [sp, #44]	; 0x2c
 3d2:	e9cd 0109 	strd	r0, r1, [sp, #36]	; 0x24
 3d6:	a813      	add	r0, sp, #76	; 0x4c
 3d8:	9008      	str	r0, [sp, #32]
 3da:	f240 0000 	movw	r0, #0
 3de:	f2c0 0000 	movt	r0, #0
 3e2:	f240 0100 	movw	r1, #0
 3e6:	9014      	str	r0, [sp, #80]	; 0x50
 3e8:	2002      	movs	r0, #2
_ZN4core3fmt9Arguments6new_v117ha99294a9defa432aE():
/rustc/50a0defd5a93523067ef239936cc2e0755220904/src/libcore/fmt/mod.rs:316
 3ea:	9012      	str	r0, [sp, #72]	; 0x48
 3ec:	a808      	add	r0, sp, #32
 3ee:	9011      	str	r0, [sp, #68]	; 0x44
 3f0:	2000      	movs	r0, #0
 3f2:	e9cd 000f 	strd	r0, r0, [sp, #60]	; 0x3c
 3f6:	2003      	movs	r0, #3
 3f8:	900e      	str	r0, [sp, #56]	; 0x38
 3fa:	f240 0000 	movw	r0, #0
 3fe:	f2c0 0000 	movt	r0, #0
_ZN5mylib9send_coap26send_sensor_data_to_server17h9e7f4cfab2b86312E():
/mnt/c/stm32bluepill-mynewt-sensor/src/send_coap.rs:151
 402:	f2c0 0100 	movt	r1, #0
_ZN4core3fmt9Arguments6new_v117ha99294a9defa432aE():
/rustc/50a0defd5a93523067ef239936cc2e0755220904/src/libcore/fmt/mod.rs:316
 406:	900d      	str	r0, [sp, #52]	; 0x34
 408:	a80d      	add	r0, sp, #52	; 0x34
_ZN5mylib9send_coap26send_sensor_data_to_server17h9e7f4cfab2b86312E():
/mnt/c/stm32bluepill-mynewt-sensor/src/send_coap.rs:151
 40a:	f7ff fffe 	bl	0 <_ZN4core9panicking9panic_fmt17h6b4d8e87b0965449E>
 40e:	defe      	udf	#254	; 0xfe
_ZN5mylib9send_coap16send_sensor_data17hb3f5ad7bc3c59aa4E():
 410:	2001      	movs	r0, #1
 412:	a914      	add	r1, sp, #80	; 0x50
 414:	f88d 0033 	strb.w	r0, [sp, #51]	; 0x33
 418:	f10d 0033 	add.w	r0, sp, #51	; 0x33
 41c:	9013      	str	r0, [sp, #76]	; 0x4c
 41e:	f240 0000 	movw	r0, #0
 422:	f2c0 0000 	movt	r0, #0
 426:	900b      	str	r0, [sp, #44]	; 0x2c
 428:	910a      	str	r1, [sp, #40]	; 0x28
 42a:	f240 0100 	movw	r1, #0
 42e:	9009      	str	r0, [sp, #36]	; 0x24
 430:	a813      	add	r0, sp, #76	; 0x4c
 432:	9008      	str	r0, [sp, #32]
 434:	f240 0000 	movw	r0, #0
 438:	f2c0 0000 	movt	r0, #0
 43c:	f2c0 0100 	movt	r1, #0
 440:	9014      	str	r0, [sp, #80]	; 0x50
 442:	2002      	movs	r0, #2
 444:	9012      	str	r0, [sp, #72]	; 0x48
 446:	a808      	add	r0, sp, #32
 448:	9011      	str	r0, [sp, #68]	; 0x44
 44a:	2000      	movs	r0, #0
 44c:	9010      	str	r0, [sp, #64]	; 0x40
 44e:	900f      	str	r0, [sp, #60]	; 0x3c
 450:	2003      	movs	r0, #3
 452:	900e      	str	r0, [sp, #56]	; 0x38
 454:	f240 0000 	movw	r0, #0
 458:	f2c0 0000 	movt	r0, #0
 45c:	900d      	str	r0, [sp, #52]	; 0x34
 45e:	a80d      	add	r0, sp, #52	; 0x34
 460:	f7ff fffe 	bl	0 <_ZN4core9panicking9panic_fmt17h6b4d8e87b0965449E>
 464:	defe      	udf	#254	; 0xfe
_ZN5mylib9send_coap26send_sensor_data_to_server17h9e7f4cfab2b86312E():
 466:	f240 0000 	movw	r0, #0
 46a:	f2c0 0000 	movt	r0, #0
 46e:	f7ff fffe 	bl	0 <_ZN4core9panicking5panic17h53ca63c6ac6312f8E>
 472:	defe      	udf	#254	; 0xfe
_ZN5mylib9send_coap29send_sensor_data_to_collector17hee27b36eedd1b0b3E():
/mnt/c/stm32bluepill-mynewt-sensor/src/send_coap.rs:207
    let rc = unsafe { sensor_network::init_collector_post() };  assert!(rc);
 474:	f240 0000 	movw	r0, #0
 478:	f2c0 0000 	movt	r0, #0
 47c:	f7ff fffe 	bl	0 <_ZN4core9panicking5panic17h53ca63c6ac6312f8E>
 480:	defe      	udf	#254	; 0xfe
/mnt/c/stm32bluepill-mynewt-sensor/src/send_coap.rs:218
    let rc = unsafe { sensor_network::do_collector_post() };  assert!(rc);
 482:	f240 0000 	movw	r0, #0
 486:	f2c0 0000 	movt	r0, #0
 48a:	f7ff fffe 	bl	0 <_ZN4core9panicking5panic17h53ca63c6ac6312f8E>
 48e:	defe      	udf	#254	; 0xfe
_ZN5mylib9send_coap26send_sensor_data_to_server17h9e7f4cfab2b86312E():
/mnt/c/stm32bluepill-mynewt-sensor/src/send_coap.rs:159
    let rc = unsafe { sensor_network::init_server_post(0 as *const c_char) };  assert!(rc);
 490:	f240 0000 	movw	r0, #0
 494:	f2c0 0000 	movt	r0, #0
 498:	f7ff fffe 	bl	0 <_ZN4core9panicking5panic17h53ca63c6ac6312f8E>
 49c:	defe      	udf	#254	; 0xfe
/mnt/c/stm32bluepill-mynewt-sensor/src/send_coap.rs:178
    let rc = unsafe { sensor_network::do_server_post() };  assert!(rc);
 49e:	f240 0000 	movw	r0, #0
 4a2:	f2c0 0000 	movt	r0, #0
 4a6:	f7ff fffe 	bl	0 <_ZN4core9panicking5panic17h53ca63c6ac6312f8E>
 4aa:	defe      	udf	#254	; 0xfe

Disassembly of section .text._ZN5mylib9send_coap17network_task_func17hd9a1eeab35a857d1E:

00000000 <_ZN5mylib9send_coap17network_task_func17hd9a1eeab35a857d1E>:
_ZN5mylib9send_coap17network_task_func17hd9a1eeab35a857d1E():
/mnt/c/stm32bluepill-mynewt-sensor/src/send_coap.rs:78
extern "C" fn network_task_func(_arg: *mut ::cty::c_void) {
   0:	b08e      	sub	sp, #56	; 0x38
_ZN5mylib4base13console_print17h53afd0cf661b2c25E():
/mnt/c/stm32bluepill-mynewt-sensor/src/base.rs:18
        console_buffer(msg.as_ptr(), len as u32);
   2:	f240 0000 	movw	r0, #0
   6:	210a      	movs	r1, #10
   8:	f2c0 0000 	movt	r0, #0
   c:	f7ff fffe 	bl	0 <console_buffer>
/mnt/c/stm32bluepill-mynewt-sensor/src/base.rs:19
        console_flush();  //  TODO: Remove this.
  10:	f7ff fffe 	bl	0 <console_flush>
_ZN5mylib9send_coap17network_task_func17hd9a1eeab35a857d1E():
/mnt/c/stm32bluepill-mynewt-sensor/src/send_coap.rs:79
    console_print(b"NET start\n");  assert!(unsafe { !NETWORK_IS_READY });
  14:	f240 0400 	movw	r4, #0
  18:	f2c0 0400 	movt	r4, #0
  1c:	7820      	ldrb	r0, [r4, #0]
  1e:	2801      	cmp	r0, #1
  20:	d026      	beq.n	70 <_ZN5mylib9send_coap17network_task_func17hd9a1eeab35a857d1E+0x70>
/mnt/c/stm32bluepill-mynewt-sensor/src/send_coap.rs:84
        sensor_network::is_standalone_node() || 
  22:	f7ff fffe 	bl	0 <is_standalone_node>
  26:	b910      	cbnz	r0, 8 <is_collector_node+0x8>
/mnt/c/stm32bluepill-mynewt-sensor/src/send_coap.rs:85
        sensor_network::is_collector_node() 
  28:	f7ff fffe 	bl	0 <is_collector_node>
/mnt/c/stm32bluepill-mynewt-sensor/src/send_coap.rs:83
    if unsafe { 
  2c:	b120      	cbz	r0, c <register_server_transport+0xc>
/mnt/c/stm32bluepill-mynewt-sensor/src/send_coap.rs:87
        let rc = unsafe { sensor_network::register_server_transport() };  assert_eq!(rc, 0);
  2e:	f7ff fffe 	bl	0 <register_server_transport>
  32:	2800      	cmp	r0, #0
  34:	9001      	str	r0, [sp, #4]
  36:	d122      	bne.n	7e <_ZN5mylib9send_coap17network_task_func17hd9a1eeab35a857d1E+0x7e>
/mnt/c/stm32bluepill-mynewt-sensor/src/send_coap.rs:92
        sensor_network::is_collector_node() || 
  38:	f7ff fffe 	bl	0 <is_collector_node>
  3c:	b910      	cbnz	r0, 8 <is_sensor_node+0x8>
/mnt/c/stm32bluepill-mynewt-sensor/src/send_coap.rs:93
        sensor_network::is_sensor_node() 
  3e:	f7ff fffe 	bl	0 <is_sensor_node>
/mnt/c/stm32bluepill-mynewt-sensor/src/send_coap.rs:91
    if unsafe { 
  42:	b120      	cbz	r0, c <register_collector_transport+0xc>
/mnt/c/stm32bluepill-mynewt-sensor/src/send_coap.rs:95
        let rc = unsafe { sensor_network::register_collector_transport() };  assert_eq!(rc, 0);
  44:	f7ff fffe 	bl	0 <register_collector_transport>
  48:	2800      	cmp	r0, #0
  4a:	9001      	str	r0, [sp, #4]
  4c:	d13e      	bne.n	cc <_ZN5mylib9send_coap17network_task_func17hd9a1eeab35a857d1E+0xcc>
  4e:	2001      	movs	r0, #1
/mnt/c/stm32bluepill-mynewt-sensor/src/send_coap.rs:100
    unsafe { NETWORK_IS_READY = true; }  //  Indicate that network is ready.
  50:	7020      	strb	r0, [r4, #0]
  52:	f240 0400 	movw	r4, #0
  56:	f2c0 0400 	movt	r4, #0
_ZN5mylib4base13console_print17h53afd0cf661b2c25E():
/mnt/c/stm32bluepill-mynewt-sensor/src/base.rs:18
        console_buffer(msg.as_ptr(), len as u32);
  5a:	4620      	mov	r0, r4
  5c:	2111      	movs	r1, #17
  5e:	f7ff fffe 	bl	0 <console_buffer>
/mnt/c/stm32bluepill-mynewt-sensor/src/base.rs:19
        console_flush();  //  TODO: Remove this.
  62:	f7ff fffe 	bl	0 <console_flush>
_ZN5mylib9send_coap17network_task_func17hd9a1eeab35a857d1E():
/mnt/c/stm32bluepill-mynewt-sensor/src/send_coap.rs:104
        unsafe { os::os_time_delay(10 * os::OS_TICKS_PER_SEC); }                   //  Wait 10 seconds before repeating.
  66:	f242 7010 	movw	r0, #10000	; 0x2710
  6a:	f7ff fffe 	bl	0 <os_time_delay>
/mnt/c/stm32bluepill-mynewt-sensor/src/send_coap.rs:102
    loop {  //  Loop forever...        
  6e:	e7f4      	b.n	ffffffec <.Lanon.3a2334938771bfe7ed96405975cadcd6.58+0xffffffe4>
/mnt/c/stm32bluepill-mynewt-sensor/src/send_coap.rs:79
    console_print(b"NET start\n");  assert!(unsafe { !NETWORK_IS_READY });
  70:	f240 0000 	movw	r0, #0
  74:	f2c0 0000 	movt	r0, #0
  78:	f7ff fffe 	bl	0 <_ZN4core9panicking5panic17h53ca63c6ac6312f8E>
  7c:	defe      	udf	#254	; 0xfe
  7e:	a801      	add	r0, sp, #4
/mnt/c/stm32bluepill-mynewt-sensor/src/send_coap.rs:87
        let rc = unsafe { sensor_network::register_server_transport() };  assert_eq!(rc, 0);
  80:	900c      	str	r0, [sp, #48]	; 0x30
  82:	f240 0000 	movw	r0, #0
  86:	a90d      	add	r1, sp, #52	; 0x34
  88:	f2c0 0000 	movt	r0, #0
  8c:	900b      	str	r0, [sp, #44]	; 0x2c
  8e:	e9cd 0109 	strd	r0, r1, [sp, #36]	; 0x24
  92:	a80c      	add	r0, sp, #48	; 0x30
  94:	9008      	str	r0, [sp, #32]
  96:	f240 0000 	movw	r0, #0
  9a:	f2c0 0000 	movt	r0, #0
  9e:	f240 0100 	movw	r1, #0
  a2:	900d      	str	r0, [sp, #52]	; 0x34
  a4:	2002      	movs	r0, #2
_ZN4core3fmt9Arguments6new_v117ha99294a9defa432aE():
/rustc/50a0defd5a93523067ef239936cc2e0755220904/src/libcore/fmt/mod.rs:316
  a6:	9007      	str	r0, [sp, #28]
  a8:	a808      	add	r0, sp, #32
  aa:	9006      	str	r0, [sp, #24]
  ac:	2000      	movs	r0, #0
  ae:	e9cd 0004 	strd	r0, r0, [sp, #16]
  b2:	2003      	movs	r0, #3
  b4:	9003      	str	r0, [sp, #12]
  b6:	f240 0000 	movw	r0, #0
  ba:	f2c0 0000 	movt	r0, #0
_ZN5mylib9send_coap17network_task_func17hd9a1eeab35a857d1E():
/mnt/c/stm32bluepill-mynewt-sensor/src/send_coap.rs:87
  be:	f2c0 0100 	movt	r1, #0
_ZN4core3fmt9Arguments6new_v117ha99294a9defa432aE():
/rustc/50a0defd5a93523067ef239936cc2e0755220904/src/libcore/fmt/mod.rs:316
  c2:	9002      	str	r0, [sp, #8]
  c4:	a802      	add	r0, sp, #8
_ZN5mylib9send_coap17network_task_func17hd9a1eeab35a857d1E():
/mnt/c/stm32bluepill-mynewt-sensor/src/send_coap.rs:87
  c6:	f7ff fffe 	bl	0 <_ZN4core9panicking9panic_fmt17h6b4d8e87b0965449E>
  ca:	defe      	udf	#254	; 0xfe
  cc:	a801      	add	r0, sp, #4
/mnt/c/stm32bluepill-mynewt-sensor/src/send_coap.rs:95
        let rc = unsafe { sensor_network::register_collector_transport() };  assert_eq!(rc, 0);
  ce:	900c      	str	r0, [sp, #48]	; 0x30
  d0:	f240 0000 	movw	r0, #0
  d4:	a90d      	add	r1, sp, #52	; 0x34
  d6:	f2c0 0000 	movt	r0, #0
  da:	900b      	str	r0, [sp, #44]	; 0x2c
  dc:	e9cd 0109 	strd	r0, r1, [sp, #36]	; 0x24
  e0:	a80c      	add	r0, sp, #48	; 0x30
  e2:	9008      	str	r0, [sp, #32]
  e4:	f240 0000 	movw	r0, #0
  e8:	f2c0 0000 	movt	r0, #0
  ec:	f240 0100 	movw	r1, #0
  f0:	900d      	str	r0, [sp, #52]	; 0x34
  f2:	2002      	movs	r0, #2
_ZN4core3fmt9Arguments6new_v117ha99294a9defa432aE():
/rustc/50a0defd5a93523067ef239936cc2e0755220904/src/libcore/fmt/mod.rs:316
  f4:	9007      	str	r0, [sp, #28]
  f6:	a808      	add	r0, sp, #32
  f8:	9006      	str	r0, [sp, #24]
  fa:	2000      	movs	r0, #0
  fc:	e9cd 0004 	strd	r0, r0, [sp, #16]
 100:	2003      	movs	r0, #3
 102:	9003      	str	r0, [sp, #12]
 104:	f240 0000 	movw	r0, #0
 108:	f2c0 0000 	movt	r0, #0
_ZN5mylib9send_coap17network_task_func17hd9a1eeab35a857d1E():
/mnt/c/stm32bluepill-mynewt-sensor/src/send_coap.rs:95
 10c:	f2c0 0100 	movt	r1, #0
_ZN4core3fmt9Arguments6new_v117ha99294a9defa432aE():
/rustc/50a0defd5a93523067ef239936cc2e0755220904/src/libcore/fmt/mod.rs:316
 110:	9002      	str	r0, [sp, #8]
 112:	a802      	add	r0, sp, #8
_ZN5mylib9send_coap17network_task_func17hd9a1eeab35a857d1E():
/mnt/c/stm32bluepill-mynewt-sensor/src/send_coap.rs:95
 114:	f7ff fffe 	bl	0 <_ZN4core9panicking9panic_fmt17h6b4d8e87b0965449E>
 118:	defe      	udf	#254	; 0xfe

Disassembly of section .text.main:

00000000 <main>:
main():
/mnt/c/stm32bluepill-mynewt-sensor/src/lib.rs:31
use mynewt::kernel::os;         //  Import Mynewt OS API
use crate::base::*;             //  Import `base.rs` for common declarations

///  main() will be called at Mynewt startup. It replaces the C version of the main() function.
#[no_mangle]                     //  Don't mangle the name "main"
pub extern "C" fn main() -> ! {  //  Declare extern "C" because it will be called by Mynewt
   0:	b092      	sub	sp, #72	; 0x48
/mnt/c/stm32bluepill-mynewt-sensor/src/lib.rs:33
    //  Init Mynewt system.
    unsafe { base::rust_sysinit()  };
   2:	f7ff fffe 	bl	0 <rust_sysinit>
/mnt/c/stm32bluepill-mynewt-sensor/src/lib.rs:34
    unsafe { console_flush() };
   6:	f7ff fffe 	bl	0 <console_flush>
_ZN5mylib4base13console_print17h53afd0cf661b2c25E():
/mnt/c/stm32bluepill-mynewt-sensor/src/base.rs:18
        console_buffer(msg.as_ptr(), len as u32);
   a:	f240 0000 	movw	r0, #0
   e:	210a      	movs	r1, #10
  10:	f2c0 0000 	movt	r0, #0
  14:	240a      	movs	r4, #10
  16:	f7ff fffe 	bl	0 <console_buffer>
/mnt/c/stm32bluepill-mynewt-sensor/src/base.rs:19
        console_flush();  //  TODO: Remove this.
  1a:	f7ff fffe 	bl	0 <console_flush>
_ZN5mylib9send_coap18start_network_task17h74bff87eeb41fc59E():
/mnt/c/stm32bluepill-mynewt-sensor/src/send_coap.rs:58
    let rc = unsafe { os::os_task_init( //  Create a new task and start it...
  1e:	f240 0100 	movw	r1, #0
  22:	f04f 32ff 	mov.w	r2, #4294967295	; 0xffffffff
  26:	f44f 7080 	mov.w	r0, #256	; 0x100
  2a:	f2c0 0100 	movt	r1, #0
  2e:	e9cd 4200 	strd	r4, r2, [sp]
  32:	f240 0200 	movw	r2, #0
  36:	e9cd 1002 	strd	r1, r0, [sp, #8]
  3a:	f240 0000 	movw	r0, #0
  3e:	f240 0100 	movw	r1, #0
  42:	f2c0 0000 	movt	r0, #0
  46:	f2c0 0100 	movt	r1, #0
  4a:	f2c0 0200 	movt	r2, #0
  4e:	2300      	movs	r3, #0
  50:	2400      	movs	r4, #0
  52:	f7ff fffe 	bl	0 <os_task_init>
/mnt/c/stm32bluepill-mynewt-sensor/src/send_coap.rs:67
    assert_eq!(rc, 0);
  56:	2800      	cmp	r0, #0
/mnt/c/stm32bluepill-mynewt-sensor/src/send_coap.rs:58
    let rc = unsafe { os::os_task_init( //  Create a new task and start it...
  58:	9009      	str	r0, [sp, #36]	; 0x24
/mnt/c/stm32bluepill-mynewt-sensor/src/send_coap.rs:67
    assert_eq!(rc, 0);
  5a:	d13f      	bne.n	dc <main+0xdc>
_ZN5mylib4base13console_print17h53afd0cf661b2c25E():
/mnt/c/stm32bluepill-mynewt-sensor/src/base.rs:18
        console_buffer(msg.as_ptr(), len as u32);
  5c:	f240 0000 	movw	r0, #0
  60:	210a      	movs	r1, #10
  62:	f2c0 0000 	movt	r0, #0
  66:	f7ff fffe 	bl	0 <console_buffer>
/mnt/c/stm32bluepill-mynewt-sensor/src/base.rs:19
        console_flush();  //  TODO: Remove this.
  6a:	f7ff fffe 	bl	0 <console_flush>
_ZN5mylib13listen_sensor21start_sensor_listener17h1d9f0c2ac57087e6E():
/mnt/c/stm32bluepill-mynewt-sensor/src/listen_sensor.rs:45
    let rc = unsafe { sensor::sensor_set_poll_rate_ms(SENSOR_DEVICE, SENSOR_POLL_TIME) };
  6e:	f240 0000 	movw	r0, #0
  72:	f242 7110 	movw	r1, #10000	; 0x2710
  76:	f2c0 0000 	movt	r0, #0
  7a:	f7ff fffe 	bl	0 <sensor_set_poll_rate_ms>
/mnt/c/stm32bluepill-mynewt-sensor/src/listen_sensor.rs:46
    assert_eq!(rc, 0);
  7e:	2800      	cmp	r0, #0
/mnt/c/stm32bluepill-mynewt-sensor/src/listen_sensor.rs:45
    let rc = unsafe { sensor::sensor_set_poll_rate_ms(SENSOR_DEVICE, SENSOR_POLL_TIME) };
  80:	9009      	str	r0, [sp, #36]	; 0x24
/mnt/c/stm32bluepill-mynewt-sensor/src/listen_sensor.rs:46
    assert_eq!(rc, 0);
  82:	d151      	bne.n	128 <main+0x128>
/mnt/c/stm32bluepill-mynewt-sensor/src/listen_sensor.rs:49
    let sensor = unsafe { sensor::sensor_mgr_find_next_bydevname(SENSOR_DEVICE, null_sensor()) };
  84:	f7ff fffe 	bl	0 <null_sensor>
  88:	4601      	mov	r1, r0
  8a:	f240 0000 	movw	r0, #0
  8e:	f2c0 0000 	movt	r0, #0
  92:	f7ff fffe 	bl	0 <sensor_mgr_find_next_bydevname>
  96:	4604      	mov	r4, r0
/mnt/c/stm32bluepill-mynewt-sensor/src/listen_sensor.rs:50
    assert!(unsafe{ !is_null_sensor(sensor) });
  98:	f7ff fffe 	bl	0 <is_null_sensor>
  9c:	2800      	cmp	r0, #0
  9e:	d16a      	bne.n	176 <main+0x176>
_ZN5mylib6mynewt2hw6sensor17register_listener17h1dbbbe32ef06507aE():
/mnt/c/stm32bluepill-mynewt-sensor/src/mynewt/hw/sensor.rs:66
    unsafe { assert!(LISTENER_INTERNAL.sl_sensor_type == 0) };  //  Make sure it's not used.
  a0:	f240 0100 	movw	r1, #0
  a4:	f2c0 0100 	movt	r1, #0
  a8:	e9d1 0200 	ldrd	r0, r2, [r1]
  ac:	4310      	orrs	r0, r2
  ae:	d169      	bne.n	184 <main+0x184>
/mnt/c/stm32bluepill-mynewt-sensor/src/mynewt/hw/sensor.rs:68
    unsafe { LISTENER_INTERNAL = listener };
  b0:	f240 0300 	movw	r3, #0
  b4:	2000      	movs	r0, #0
  b6:	f04f 6280 	mov.w	r2, #67108864	; 0x4000000
  ba:	f04f 0c01 	mov.w	ip, #1
  be:	f2c0 0300 	movt	r3, #0
  c2:	e9c1 2000 	strd	r2, r0, [r1]
  c6:	e9c1 3c02 	strd	r3, ip, [r1, #8]
  ca:	6108      	str	r0, [r1, #16]
/mnt/c/stm32bluepill-mynewt-sensor/src/mynewt/hw/sensor.rs:70
    unsafe { sensor_register_listener(sensor, &mut LISTENER_INTERNAL) };
  cc:	4620      	mov	r0, r4
  ce:	f7ff fffe 	bl	0 <sensor_register_listener>
main():
/mnt/c/stm32bluepill-mynewt-sensor/src/lib.rs:52

    //  Main event loop
    loop {                            //  Loop forever...
        unsafe {
            os::os_eventq_run(            //  Process events...
                os::os_eventq_dflt_get()  //  From default event queue.
  d2:	f7ff fffe 	bl	0 <os_eventq_dflt_get>
/mnt/c/stm32bluepill-mynewt-sensor/src/lib.rs:51
            os::os_eventq_run(            //  Process events...
  d6:	f7ff fffe 	bl	0 <os_eventq_run>
/mnt/c/stm32bluepill-mynewt-sensor/src/lib.rs:49
    loop {                            //  Loop forever...
  da:	e7fa      	b.n	d2 <main+0xd2>
  dc:	a809      	add	r0, sp, #36	; 0x24
_ZN5mylib9send_coap18start_network_task17h74bff87eeb41fc59E():
/mnt/c/stm32bluepill-mynewt-sensor/src/send_coap.rs:67
  de:	9010      	str	r0, [sp, #64]	; 0x40
  e0:	f240 0000 	movw	r0, #0
  e4:	a911      	add	r1, sp, #68	; 0x44
  e6:	f2c0 0000 	movt	r0, #0
  ea:	9008      	str	r0, [sp, #32]
  ec:	e9cd 0106 	strd	r0, r1, [sp, #24]
  f0:	a810      	add	r0, sp, #64	; 0x40
  f2:	9005      	str	r0, [sp, #20]
  f4:	f240 0000 	movw	r0, #0
  f8:	f2c0 0000 	movt	r0, #0
  fc:	f240 0100 	movw	r1, #0
 100:	9011      	str	r0, [sp, #68]	; 0x44
 102:	2002      	movs	r0, #2
_ZN4core3fmt9Arguments6new_v117ha99294a9defa432aE():
/rustc/50a0defd5a93523067ef239936cc2e0755220904/src/libcore/fmt/mod.rs:316
 104:	900f      	str	r0, [sp, #60]	; 0x3c
 106:	a805      	add	r0, sp, #20
 108:	900e      	str	r0, [sp, #56]	; 0x38
 10a:	2003      	movs	r0, #3
 10c:	e9cd 440c 	strd	r4, r4, [sp, #48]	; 0x30
_ZN5mylib9send_coap18start_network_task17h74bff87eeb41fc59E():
/mnt/c/stm32bluepill-mynewt-sensor/src/send_coap.rs:67
 110:	f2c0 0100 	movt	r1, #0
_ZN4core3fmt9Arguments6new_v117ha99294a9defa432aE():
/rustc/50a0defd5a93523067ef239936cc2e0755220904/src/libcore/fmt/mod.rs:316
 114:	900b      	str	r0, [sp, #44]	; 0x2c
 116:	f240 0000 	movw	r0, #0
 11a:	f2c0 0000 	movt	r0, #0
 11e:	900a      	str	r0, [sp, #40]	; 0x28
 120:	a80a      	add	r0, sp, #40	; 0x28
_ZN5mylib9send_coap18start_network_task17h74bff87eeb41fc59E():
/mnt/c/stm32bluepill-mynewt-sensor/src/send_coap.rs:67
 122:	f7ff fffe 	bl	0 <_ZN4core9panicking9panic_fmt17h6b4d8e87b0965449E>
 126:	defe      	udf	#254	; 0xfe
main():
 128:	a809      	add	r0, sp, #36	; 0x24
_ZN5mylib13listen_sensor21start_sensor_listener17h1d9f0c2ac57087e6E():
/mnt/c/stm32bluepill-mynewt-sensor/src/listen_sensor.rs:46
    assert_eq!(rc, 0);
 12a:	9010      	str	r0, [sp, #64]	; 0x40
 12c:	f240 0000 	movw	r0, #0
 130:	a911      	add	r1, sp, #68	; 0x44
 132:	f2c0 0000 	movt	r0, #0
 136:	9008      	str	r0, [sp, #32]
 138:	e9cd 0106 	strd	r0, r1, [sp, #24]
 13c:	a810      	add	r0, sp, #64	; 0x40
 13e:	9005      	str	r0, [sp, #20]
 140:	f240 0000 	movw	r0, #0
 144:	f2c0 0000 	movt	r0, #0
 148:	f240 0100 	movw	r1, #0
 14c:	9011      	str	r0, [sp, #68]	; 0x44
 14e:	2002      	movs	r0, #2
_ZN4core3fmt9Arguments6new_v117ha99294a9defa432aE():
/rustc/50a0defd5a93523067ef239936cc2e0755220904/src/libcore/fmt/mod.rs:316
 150:	900f      	str	r0, [sp, #60]	; 0x3c
 152:	a805      	add	r0, sp, #20
 154:	900e      	str	r0, [sp, #56]	; 0x38
 156:	2000      	movs	r0, #0
 158:	e9cd 000c 	strd	r0, r0, [sp, #48]	; 0x30
 15c:	2003      	movs	r0, #3
 15e:	900b      	str	r0, [sp, #44]	; 0x2c
 160:	f240 0000 	movw	r0, #0
 164:	f2c0 0000 	movt	r0, #0
_ZN5mylib13listen_sensor21start_sensor_listener17h1d9f0c2ac57087e6E():
/mnt/c/stm32bluepill-mynewt-sensor/src/listen_sensor.rs:46
 168:	f2c0 0100 	movt	r1, #0
_ZN4core3fmt9Arguments6new_v117ha99294a9defa432aE():
/rustc/50a0defd5a93523067ef239936cc2e0755220904/src/libcore/fmt/mod.rs:316
 16c:	900a      	str	r0, [sp, #40]	; 0x28
 16e:	a80a      	add	r0, sp, #40	; 0x28
_ZN5mylib13listen_sensor21start_sensor_listener17h1d9f0c2ac57087e6E():
/mnt/c/stm32bluepill-mynewt-sensor/src/listen_sensor.rs:46
 170:	f7ff fffe 	bl	0 <_ZN4core9panicking9panic_fmt17h6b4d8e87b0965449E>
 174:	defe      	udf	#254	; 0xfe
/mnt/c/stm32bluepill-mynewt-sensor/src/listen_sensor.rs:50
    assert!(unsafe{ !is_null_sensor(sensor) });
 176:	f240 0000 	movw	r0, #0
 17a:	f2c0 0000 	movt	r0, #0
 17e:	f7ff fffe 	bl	0 <_ZN4core9panicking5panic17h53ca63c6ac6312f8E>
 182:	defe      	udf	#254	; 0xfe
_ZN5mylib6mynewt2hw6sensor17register_listener17h1dbbbe32ef06507aE():
/mnt/c/stm32bluepill-mynewt-sensor/src/mynewt/hw/sensor.rs:66
    unsafe { assert!(LISTENER_INTERNAL.sl_sensor_type == 0) };  //  Make sure it's not used.
 184:	f240 0000 	movw	r0, #0
 188:	f2c0 0000 	movt	r0, #0
 18c:	f7ff fffe 	bl	0 <_ZN4core9panicking5panic17h53ca63c6ac6312f8E>
 190:	defe      	udf	#254	; 0xfe

Disassembly of section .text.rust_begin_unwind:

00000000 <rust_begin_unwind>:
rust_begin_unwind():
/mnt/c/stm32bluepill-mynewt-sensor/src/lib.rs:63

///  This function is called on panic, like an assertion failure. We display the filename and line number and pause in the debugger. From https://os.phil-opp.com/freestanding-rust-binary/
#[panic_handler]
fn panic(info: &PanicInfo) -> ! {
    //  Display the filename and line number to the Semihosting Console.
    if let Some(location) = info.location() {
   0:	f7ff fffe 	bl	0 <_ZN4core5panic9PanicInfo8location17h5226165d8771f8a2E>
   4:	b338      	cbz	r0, 56 <rust_begin_unwind+0x56>
   6:	4604      	mov	r4, r0
/mnt/c/stm32bluepill-mynewt-sensor/src/lib.rs:64
        let file = location.file();
   8:	f7ff fffe 	bl	0 <_ZN4core5panic8Location4file17h94cc6af18de736c4E>
   c:	4605      	mov	r5, r0
/mnt/c/stm32bluepill-mynewt-sensor/src/lib.rs:65
        let line = location.line();
   e:	4620      	mov	r0, r4
/mnt/c/stm32bluepill-mynewt-sensor/src/lib.rs:64
        let file = location.file();
  10:	460e      	mov	r6, r1
/mnt/c/stm32bluepill-mynewt-sensor/src/lib.rs:65
        let line = location.line();
  12:	f7ff fffe 	bl	0 <_ZN4core5panic8Location4line17h3ffc63f14d0a6636E>
  16:	4604      	mov	r4, r0
_ZN5mylib4base13console_print17h53afd0cf661b2c25E():
/mnt/c/stm32bluepill-mynewt-sensor/src/base.rs:18
        console_buffer(msg.as_ptr(), len as u32);
  18:	f240 0000 	movw	r0, #0
  1c:	f2c0 0000 	movt	r0, #0
  20:	2109      	movs	r1, #9
  22:	f7ff fffe 	bl	0 <console_buffer>
/mnt/c/stm32bluepill-mynewt-sensor/src/base.rs:19
        console_flush();  //  TODO: Remove this.
  26:	f7ff fffe 	bl	0 <console_flush>
rust_begin_unwind():
/mnt/c/stm32bluepill-mynewt-sensor/src/lib.rs:67
        console_print(b"panic at ");
        unsafe { console_buffer(file.as_ptr(), file.len() as u32) }
  2a:	4628      	mov	r0, r5
  2c:	4631      	mov	r1, r6
  2e:	f7ff fffe 	bl	0 <console_buffer>
_ZN5mylib4base13console_print17h53afd0cf661b2c25E():
/mnt/c/stm32bluepill-mynewt-sensor/src/base.rs:18
        console_buffer(msg.as_ptr(), len as u32);
  32:	f240 0000 	movw	r0, #0
  36:	2108      	movs	r1, #8
  38:	f2c0 0000 	movt	r0, #0
  3c:	f7ff fffe 	bl	0 <console_buffer>
/mnt/c/stm32bluepill-mynewt-sensor/src/base.rs:19
        console_flush();  //  TODO: Remove this.
  40:	f7ff fffe 	bl	0 <console_flush>
rust_begin_unwind():
/mnt/c/stm32bluepill-mynewt-sensor/src/lib.rs:69
        console_print(b" line 0x");
        unsafe { console_printhex(line as u8) }  //  TODO: Print in decimal not hex. Allow more than 255 lines.
  44:	b2e0      	uxtb	r0, r4
  46:	f7ff fffe 	bl	0 <console_printhex>
_ZN5mylib4base13console_print17h53afd0cf661b2c25E():
/mnt/c/stm32bluepill-mynewt-sensor/src/base.rs:18
        console_buffer(msg.as_ptr(), len as u32);
  4a:	f240 0000 	movw	r0, #0
  4e:	2101      	movs	r1, #1
  50:	f2c0 0000 	movt	r0, #0
  54:	e004      	b.n	c <rust_begin_unwind+0xc>
  56:	f240 0000 	movw	r0, #0
  5a:	2112      	movs	r1, #18
  5c:	f2c0 0000 	movt	r0, #0
rust_begin_unwind():
  60:	f7ff fffe 	bl	0 <console_buffer>
  64:	f7ff fffe 	bl	0 <console_flush>
  68:	f7ff fffe 	bl	0 <console_flush>
_ZN8cortex_m3asm4bkpt17hc1862ddcb43450fcE():
/home/user/.cargo/registry/src/github.com-1ecc6299db9ec823/cortex-m-0.6.0/src/asm.rs:19
        () => unsafe {
            extern "C" {
                fn __bkpt();
            }

            __bkpt();
  6c:	f7ff fffe 	bl	0 <__bkpt>
rust_begin_unwind():
/mnt/c/stm32bluepill-mynewt-sensor/src/lib.rs:79
        unsafe { console_flush() }
    }
    //  Pause in the debugger.
    bkpt();
    //  Loop forever so that device won't restart.
    loop {}
  70:	e7fe      	b.n	70 <rust_begin_unwind+0x70>

Disassembly of section .text._ZN85_$LT$mylib..mynewt..encoding..json_context..JsonError$u20$as$u20$core..fmt..Debug$GT$3fmt17h8b843b1d8f03fb80E:

00000000 <_ZN85_$LT$mylib..mynewt..encoding..json_context..JsonError$u20$as$u20$core..fmt..Debug$GT$3fmt17h8b843b1d8f03fb80E>:
_ZN85_$LT$mylib..mynewt..encoding..json_context..JsonError$u20$as$u20$core..fmt..Debug$GT$3fmt17h8b843b1d8f03fb80E():
/mnt/c/stm32bluepill-mynewt-sensor/src/mynewt/encoding/json_context.rs:125
#[derive(Debug, PartialEq)]
   0:	b510      	push	{r4, lr}
   2:	b084      	sub	sp, #16
   4:	7800      	ldrb	r0, [r0, #0]
   6:	ac01      	add	r4, sp, #4
   8:	2801      	cmp	r0, #1
   a:	d106      	bne.n	1a <_ZN85_$LT$mylib..mynewt..encoding..json_context..JsonError$u20$as$u20$core..fmt..Debug$GT$3fmt17h8b843b1d8f03fb80E+0x1a>
   c:	f240 0200 	movw	r2, #0
  10:	4620      	mov	r0, r4
  12:	f2c0 0200 	movt	r2, #0
  16:	230e      	movs	r3, #14
  18:	e005      	b.n	26 <_ZN85_$LT$mylib..mynewt..encoding..json_context..JsonError$u20$as$u20$core..fmt..Debug$GT$3fmt17h8b843b1d8f03fb80E+0x26>
  1a:	f240 0200 	movw	r2, #0
  1e:	4620      	mov	r0, r4
  20:	f2c0 0200 	movt	r2, #0
  24:	2302      	movs	r3, #2
  26:	f7ff fffe 	bl	0 <_ZN4core3fmt9Formatter11debug_tuple17h793087e8ecab9022E>
  2a:	4620      	mov	r0, r4
  2c:	f7ff fffe 	bl	0 <_ZN4core3fmt8builders10DebugTuple6finish17h24d91625b3672e6dE>
  30:	b004      	add	sp, #16
  32:	bd10      	pop	{r4, pc}

Disassembly of section .text._ZN71_$LT$mylib..mynewt..result..MynewtError$u20$as$u20$core..fmt..Debug$GT$3fmt17he637fff21126bd1cE:

00000000 <_ZN71_$LT$mylib..mynewt..result..MynewtError$u20$as$u20$core..fmt..Debug$GT$3fmt17he637fff21126bd1cE>:
_ZN71_$LT$mylib..mynewt..result..MynewtError$u20$as$u20$core..fmt..Debug$GT$3fmt17he637fff21126bd1cE():
/mnt/c/stm32bluepill-mynewt-sensor/src/mynewt.rs:30
    #[derive(Debug, PartialEq)]
   0:	b510      	push	{r4, lr}
   2:	b084      	sub	sp, #16
   4:	6802      	ldr	r2, [r0, #0]
   6:	f102 000f 	add.w	r0, r2, #15
   a:	280e      	cmp	r0, #14
   c:	d80f      	bhi.n	2e <_ZN71_$LT$mylib..mynewt..result..MynewtError$u20$as$u20$core..fmt..Debug$GT$3fmt17he637fff21126bd1cE+0x2e>
   e:	e8df f000 	tbb	[pc, r0]
  12:	1908      	.short	0x1908
  14:	352f2721 	.word	0x352f2721
  18:	4f49413b 	.word	0x4f49413b
  1c:	69615b55 	.word	0x69615b55
  20:	006f      	.short	0x006f
  22:	f240 0200 	movw	r2, #0
  26:	ac01      	add	r4, sp, #4
  28:	f2c0 0200 	movt	r2, #0
  2c:	e037      	b.n	9e <_ZN71_$LT$mylib..mynewt..result..MynewtError$u20$as$u20$core..fmt..Debug$GT$3fmt17he637fff21126bd1cE+0x9e>
  2e:	2001      	movs	r0, #1
  30:	ac01      	add	r4, sp, #4
  32:	f6cf 70ff 	movt	r0, #65535	; 0xffff
  36:	4282      	cmp	r2, r0
  38:	d162      	bne.n	100 <_ZN71_$LT$mylib..mynewt..result..MynewtError$u20$as$u20$core..fmt..Debug$GT$3fmt17he637fff21126bd1cE+0x100>
  3a:	f240 0200 	movw	r2, #0
  3e:	f2c0 0200 	movt	r2, #0
  42:	e04c      	b.n	de <_ZN71_$LT$mylib..mynewt..result..MynewtError$u20$as$u20$core..fmt..Debug$GT$3fmt17he637fff21126bd1cE+0xde>
  44:	ac01      	add	r4, sp, #4
  46:	f240 0200 	movw	r2, #0
  4a:	f2c0 0200 	movt	r2, #0
  4e:	230d      	movs	r3, #13
  50:	4620      	mov	r0, r4
  52:	e05b      	b.n	10c <_ZN71_$LT$mylib..mynewt..result..MynewtError$u20$as$u20$core..fmt..Debug$GT$3fmt17he637fff21126bd1cE+0x10c>
  54:	f240 0200 	movw	r2, #0
  58:	ac01      	add	r4, sp, #4
  5a:	f2c0 0200 	movt	r2, #0
  5e:	e03e      	b.n	de <_ZN71_$LT$mylib..mynewt..result..MynewtError$u20$as$u20$core..fmt..Debug$GT$3fmt17he637fff21126bd1cE+0xde>
  60:	ac01      	add	r4, sp, #4
  62:	f240 0200 	movw	r2, #0
  66:	f2c0 0200 	movt	r2, #0
  6a:	230b      	movs	r3, #11
  6c:	4620      	mov	r0, r4
  6e:	e04d      	b.n	10c <_ZN71_$LT$mylib..mynewt..result..MynewtError$u20$as$u20$core..fmt..Debug$GT$3fmt17he637fff21126bd1cE+0x10c>
  70:	f240 0200 	movw	r2, #0
  74:	ac01      	add	r4, sp, #4
  76:	f2c0 0200 	movt	r2, #0
  7a:	e030      	b.n	64 <_ZN71_$LT$mylib..mynewt..result..MynewtError$u20$as$u20$core..fmt..Debug$GT$3fmt17he637fff21126bd1cE+0x64>
  7c:	f240 0200 	movw	r2, #0
  80:	ac01      	add	r4, sp, #4
  82:	f2c0 0200 	movt	r2, #0
  86:	e038      	b.n	74 <_ZN71_$LT$mylib..mynewt..result..MynewtError$u20$as$u20$core..fmt..Debug$GT$3fmt17he637fff21126bd1cE+0x74>
  88:	f240 0200 	movw	r2, #0
  8c:	ac01      	add	r4, sp, #4
  8e:	f2c0 0200 	movt	r2, #0
  92:	e032      	b.n	68 <_ZN71_$LT$mylib..mynewt..result..MynewtError$u20$as$u20$core..fmt..Debug$GT$3fmt17he637fff21126bd1cE+0x68>
  94:	f240 0200 	movw	r2, #0
  98:	ac01      	add	r4, sp, #4
  9a:	f2c0 0200 	movt	r2, #0
  9e:	4620      	mov	r0, r4
  a0:	2309      	movs	r3, #9
  a2:	e033      	b.n	10c <_ZN71_$LT$mylib..mynewt..result..MynewtError$u20$as$u20$core..fmt..Debug$GT$3fmt17he637fff21126bd1cE+0x10c>
  a4:	f240 0200 	movw	r2, #0
  a8:	ac01      	add	r4, sp, #4
  aa:	f2c0 0200 	movt	r2, #0
  ae:	e024      	b.n	4c <_ZN71_$LT$mylib..mynewt..result..MynewtError$u20$as$u20$core..fmt..Debug$GT$3fmt17he637fff21126bd1cE+0x4c>
  b0:	f240 0200 	movw	r2, #0
  b4:	ac01      	add	r4, sp, #4
  b6:	f2c0 0200 	movt	r2, #0
  ba:	e01e      	b.n	40 <_ZN71_$LT$mylib..mynewt..result..MynewtError$u20$as$u20$core..fmt..Debug$GT$3fmt17he637fff21126bd1cE+0x40>
  bc:	f240 0200 	movw	r2, #0
  c0:	ac01      	add	r4, sp, #4
  c2:	f2c0 0200 	movt	r2, #0
  c6:	e01f      	b.n	42 <_ZN71_$LT$mylib..mynewt..result..MynewtError$u20$as$u20$core..fmt..Debug$GT$3fmt17he637fff21126bd1cE+0x42>
  c8:	f240 0200 	movw	r2, #0
  cc:	ac01      	add	r4, sp, #4
  ce:	f2c0 0200 	movt	r2, #0
  d2:	e012      	b.n	28 <_ZN71_$LT$mylib..mynewt..result..MynewtError$u20$as$u20$core..fmt..Debug$GT$3fmt17he637fff21126bd1cE+0x28>
  d4:	f240 0200 	movw	r2, #0
  d8:	ac01      	add	r4, sp, #4
  da:	f2c0 0200 	movt	r2, #0
  de:	4620      	mov	r0, r4
  e0:	230c      	movs	r3, #12
  e2:	e013      	b.n	10c <_ZN71_$LT$mylib..mynewt..result..MynewtError$u20$as$u20$core..fmt..Debug$GT$3fmt17he637fff21126bd1cE+0x10c>
  e4:	f240 0200 	movw	r2, #0
  e8:	ac01      	add	r4, sp, #4
  ea:	f2c0 0200 	movt	r2, #0
  ee:	e004      	b.n	c <_ZN71_$LT$mylib..mynewt..result..MynewtError$u20$as$u20$core..fmt..Debug$GT$3fmt17he637fff21126bd1cE+0xc>
  f0:	f240 0200 	movw	r2, #0
  f4:	ac01      	add	r4, sp, #4
  f6:	f2c0 0200 	movt	r2, #0
  fa:	4620      	mov	r0, r4
  fc:	230a      	movs	r3, #10
  fe:	e005      	b.n	10c <_ZN71_$LT$mylib..mynewt..result..MynewtError$u20$as$u20$core..fmt..Debug$GT$3fmt17he637fff21126bd1cE+0x10c>
 100:	f240 0200 	movw	r2, #0
 104:	f2c0 0200 	movt	r2, #0
 108:	4620      	mov	r0, r4
 10a:	2307      	movs	r3, #7
 10c:	f7ff fffe 	bl	0 <_ZN4core3fmt9Formatter11debug_tuple17h793087e8ecab9022E>
 110:	4620      	mov	r0, r4
 112:	f7ff fffe 	bl	0 <_ZN4core3fmt8builders10DebugTuple6finish17h24d91625b3672e6dE>
 116:	b004      	add	sp, #16
 118:	bd10      	pop	{r4, pc}
arm-none-eabi-objdump: rust.metadata.bin: file format not recognized
arm-none-eabi-objdump: mylib-9b5f404664613177.mylib.9ieylas6-cgu.0.rcgu.bc.z: file format not recognized
