In archive target/thumbv7m-none-eabi/debug/libmylib.rlib:

mylib-ac95891f38e7979c.1b7do7e5i4j0exrn.rcgu.o:     file format elf32-littlearm

SYMBOL TABLE:
00000000 l    df *ABS*	00000000 1b7do7e5i4j0exrn
00000000 l       .debug_str	00000000 
00000041 l       .debug_str	00000000 
0000004c l       .debug_str	00000000 
0000006f l       .debug_str	00000000 
00000075 l       .debug_str	00000000 
0000007f l       .debug_str	00000000 
000000ca l       .debug_str	00000000 
000000ec l       .debug_str	00000000 
0000012b l       .debug_str	00000000 
00000141 l       .debug_str	00000000 
00000180 l       .debug_str	00000000 
00000196 l       .debug_str	00000000 
000001d2 l       .debug_str	00000000 
000001e5 l       .debug_str	00000000 
000001ea l       .debug_str	00000000 
000001f1 l       .debug_str	00000000 
000001f5 l       .debug_str	00000000 
000001f8 l       .debug_str	00000000 
000001fc l       .debug_str	00000000 
000001ff l       .debug_str	00000000 
00000201 l       .debug_str	00000000 
00000205 l       .debug_str	00000000 
00000207 l       .debug_str	00000000 
0000020b l       .debug_str	00000000 
0000021b l       .debug_str	00000000 
00000255 l       .debug_str	00000000 
00000266 l       .debug_str	00000000 
00000277 l       .debug_str	00000000 
0000027c l       .debug_str	00000000 
00000280 l       .debug_str	00000000 
00000289 l       .debug_str	00000000 
0000028c l       .debug_str	00000000 
00000296 l       .debug_str	00000000 
0000029d l       .debug_str	00000000 
000002a3 l       .debug_str	00000000 
000002a8 l       .debug_str	00000000 
000002ac l       .debug_str	00000000 
000002b1 l       .debug_str	00000000 
000002b7 l       .debug_str	00000000 
000002bb l       .debug_str	00000000 
000002cb l       .debug_str	00000000 
000002da l       .debug_str	00000000 
000002e4 l       .debug_str	00000000 
000002f8 l       .debug_str	00000000 
00000302 l       .debug_str	00000000 
0000030a l       .debug_str	00000000 
00000314 l       .debug_str	00000000 
00000319 l       .debug_str	00000000 
0000031e l       .debug_str	00000000 
00000327 l       .debug_str	00000000 
0000032f l       .debug_str	00000000 
00000333 l       .debug_str	00000000 
0000033d l       .debug_str	00000000 
00000349 l       .debug_str	00000000 
00000369 l       .debug_str	00000000 
00000376 l       .debug_str	00000000 
00000380 l       .debug_str	00000000 
00000386 l       .debug_str	00000000 
0000038b l       .debug_str	00000000 
00000000 l     O .rodata..Lanon.40a6c3f14d1932fb6cfe4a5ce7ea5fa5.1	00000001 .Lanon.40a6c3f14d1932fb6cfe4a5ce7ea5fa5.1
00000000 l     O .rodata.cst32	00000020 .Lanon.40a6c3f14d1932fb6cfe4a5ce7ea5fa5.2
00000000 l     O .rodata..Lanon.40a6c3f14d1932fb6cfe4a5ce7ea5fa5.22	00000013 .Lanon.40a6c3f14d1932fb6cfe4a5ce7ea5fa5.22
00000000 l     O .rodata..Lanon.40a6c3f14d1932fb6cfe4a5ce7ea5fa5.23	00000011 .Lanon.40a6c3f14d1932fb6cfe4a5ce7ea5fa5.23
00000000 l     O .rodata..Lanon.40a6c3f14d1932fb6cfe4a5ce7ea5fa5.3	0000000a .Lanon.40a6c3f14d1932fb6cfe4a5ce7ea5fa5.3
00000000 l     O .rodata.cst4	00000004 .Lanon.40a6c3f14d1932fb6cfe4a5ce7ea5fa5.5
00000000 l     F .text._ZN5mylib9send_coap21send_sensor_data_cbor17h796e1937f5c418bbE	000000b4 _ZN5mylib9send_coap21send_sensor_data_cbor17h796e1937f5c418bbE
00000000 l     F .text._ZN5mylib9send_coap21send_sensor_data_json17h9be62217ceb86417E	0000003a _ZN5mylib9send_coap21send_sensor_data_json17h9be62217ceb86417E
00000000 l     F .text._ZN5mylib9send_coap33send_sensor_data_without_encoding17h46ebccc593c4b2c2E	0000003a _ZN5mylib9send_coap33send_sensor_data_without_encoding17h46ebccc593c4b2c2E
00000000 l    d  .text._ZN5mylib9send_coap33send_sensor_data_without_encoding17h46ebccc593c4b2c2E	00000000 .text._ZN5mylib9send_coap33send_sensor_data_without_encoding17h46ebccc593c4b2c2E
00000000 l    d  .text._ZN5mylib9send_coap21send_sensor_data_json17h9be62217ceb86417E	00000000 .text._ZN5mylib9send_coap21send_sensor_data_json17h9be62217ceb86417E
00000000 l    d  .text._ZN5mylib9send_coap21send_sensor_data_cbor17h796e1937f5c418bbE	00000000 .text._ZN5mylib9send_coap21send_sensor_data_cbor17h796e1937f5c418bbE
00000000 l    d  .text._ZN5mylib9send_coap18start_network_task17hca6051abf27965cbE	00000000 .text._ZN5mylib9send_coap18start_network_task17hca6051abf27965cbE
00000000 l    d  .text._ZN5mylib9send_coap16send_sensor_data17h3747d7a54823f9e4E	00000000 .text._ZN5mylib9send_coap16send_sensor_data17h3747d7a54823f9e4E
00000000 l    d  .debug_abbrev	00000000 .debug_abbrev
00000000 l    d  .debug_info	00000000 .debug_info
00000000 l    d  .debug_ranges	00000000 .debug_ranges
00000000 l    d  .debug_frame	00000000 .debug_frame
00000000 l    d  .debug_line	00000000 .debug_line
00000000         *UND*	00000000 .hidden _ZN4core3str21_$LT$impl$u20$str$GT$3len17ha2e0db4a9f502071E
00000000         *UND*	00000000 .hidden _ZN4core3str21_$LT$impl$u20$str$GT$6as_ptr17hca80eebebc99ccd9E
00000000         *UND*	00000000 .hidden _ZN5mylib4base13console_print17h47a7ec4e529b3d82E
00000000 g     F .text._ZN5mylib9send_coap16send_sensor_data17h3747d7a54823f9e4E	00000030 .hidden _ZN5mylib9send_coap16send_sensor_data17h3747d7a54823f9e4E
00000000 g     F .text._ZN5mylib9send_coap18start_network_task17hca6051abf27965cbE	00000032 .hidden _ZN5mylib9send_coap18start_network_task17hca6051abf27965cbE
00000000         *UND*	00000000 cbor_encode_int
00000000         *UND*	00000000 cbor_encode_text_string
00000000         *UND*	00000000 cbor_encoder_close_container
00000000         *UND*	00000000 cbor_encoder_create_map
00000000         *UND*	00000000 g_encoder
00000000         *UND*	00000000 root_map



Disassembly of section .text._ZN5mylib9send_coap33send_sensor_data_without_encoding17h46ebccc593c4b2c2E:

00000000 <_ZN5mylib9send_coap33send_sensor_data_without_encoding17h46ebccc593c4b2c2E>:
_ZN5mylib9send_coap33send_sensor_data_without_encoding17h46ebccc593c4b2c2E():
/mnt/c/stm32bluepill-mynewt-sensor/src/send_coap.rs:6
use cstr_core::CStr;     //  Import string utilities from cstr_core library: https://crates.io/crates/cstr_core
use crate::base::*;      //  Import base.rs for common declarations
use crate::tinycbor::*;  //  Import tinycbor.rs for TinyCBOR C API
//  use crate::sensor::*;    //  Import sensor.rs for sensor declarations

fn send_sensor_data_without_encoding() {
   0:	b088      	sub	sp, #32
   2:	f640 3036 	movw	r0, #2870	; 0xb36
/mnt/c/stm32bluepill-mynewt-sensor/src/send_coap.rs:14
  trace_macros!(false);  //  Stop tracing macros

  //  Sensor `t` has int value 2870.
  let int_sensor_value = SensorValueNew {
    key: "t",
    val: SensorValueType::Uint(2870)
   6:	9005      	str	r0, [sp, #20]
   8:	2000      	movs	r0, #0
   a:	9004      	str	r0, [sp, #16]
/mnt/c/stm32bluepill-mynewt-sensor/src/send_coap.rs:12
  let int_sensor_value = SensorValueNew {
   c:	f240 0000 	movw	r0, #0
  10:	f2c0 0000 	movt	r0, #0
  14:	9000      	str	r0, [sp, #0]
  16:	2001      	movs	r0, #1
  18:	9001      	str	r0, [sp, #4]
  1a:	9804      	ldr	r0, [sp, #16]
  1c:	9905      	ldr	r1, [sp, #20]
  1e:	9103      	str	r1, [sp, #12]
  20:	9002      	str	r0, [sp, #8]
/mnt/c/stm32bluepill-mynewt-sensor/src/send_coap.rs:16
  };
  let device_id = b"0102030405060708090a0b0c0d0e0f10";
  22:	f240 0000 	movw	r0, #0
  26:	f2c0 0000 	movt	r0, #0
  2a:	9006      	str	r0, [sp, #24]
/mnt/c/stm32bluepill-mynewt-sensor/src/send_coap.rs:17
  let node_id =   b"b3b4b5b6f1";
  2c:	f240 0000 	movw	r0, #0
  30:	f2c0 0000 	movt	r0, #0
  34:	9007      	str	r0, [sp, #28]
/mnt/c/stm32bluepill-mynewt-sensor/src/send_coap.rs:29
    "node":   node_id,
    int_sensor_value,  //  Send `{t: 2870}`
  });
  trace_macros!(false);  //  Stop tracing macros
  */
}
  36:	b008      	add	sp, #32
  38:	4770      	bx	lr

Disassembly of section .text._ZN5mylib9send_coap21send_sensor_data_json17h9be62217ceb86417E:

00000000 <_ZN5mylib9send_coap21send_sensor_data_json17h9be62217ceb86417E>:
_ZN5mylib9send_coap21send_sensor_data_json17h9be62217ceb86417E():
/mnt/c/stm32bluepill-mynewt-sensor/src/send_coap.rs:42
// !  instead of computed temperature (floating-point) to make the encoding simpler and faster.
// !
// !  Note that we are using a patched version of apps/my_sensor_app/src/vsscanf.c that
// !  fixes ESP8266 response parsing bugs.  The patched file must be present in that location.
// !  This is the Rust version of `https://github.com/lupyuen/stm32bluepill-mynewt-sensor/blob/rust/apps/my_sensor_app/OLDsrc/send_coap.c`
fn send_sensor_data_json() {
   0:	b088      	sub	sp, #32
/mnt/c/stm32bluepill-mynewt-sensor/src/send_coap.rs:43
  let device_id = b"0102030405060708090a0b0c0d0e0f10";
   2:	f240 0000 	movw	r0, #0
   6:	f2c0 0000 	movt	r0, #0
   a:	9000      	str	r0, [sp, #0]
/mnt/c/stm32bluepill-mynewt-sensor/src/send_coap.rs:44
  let node_id  =  b"b3b4b5b6f1";
   c:	f240 0000 	movw	r0, #0
  10:	f2c0 0000 	movt	r0, #0
  14:	9001      	str	r0, [sp, #4]
  16:	f640 3036 	movw	r0, #2870	; 0xb36
/mnt/c/stm32bluepill-mynewt-sensor/src/send_coap.rs:49

  //  Sensor `t` has int value 2870.
  let int_sensor_value = SensorValueNew {
    key: "t",
    val: SensorValueType::Uint(2870)
  1a:	9007      	str	r0, [sp, #28]
  1c:	2000      	movs	r0, #0
  1e:	9006      	str	r0, [sp, #24]
/mnt/c/stm32bluepill-mynewt-sensor/src/send_coap.rs:47
  let int_sensor_value = SensorValueNew {
  20:	f240 0000 	movw	r0, #0
  24:	f2c0 0000 	movt	r0, #0
  28:	9002      	str	r0, [sp, #8]
  2a:	2001      	movs	r0, #1
  2c:	9003      	str	r0, [sp, #12]
  2e:	9806      	ldr	r0, [sp, #24]
  30:	9907      	ldr	r1, [sp, #28]
  32:	9105      	str	r1, [sp, #20]
  34:	9004      	str	r0, [sp, #16]
/mnt/c/stm32bluepill-mynewt-sensor/src/send_coap.rs:61
    //  "node":   node_id,
    int_sensor_value,  //  Send `{t: 2870}`
  });
  trace_macros!(false);
  */
}
  36:	b008      	add	sp, #32
  38:	4770      	bx	lr

Disassembly of section .text._ZN5mylib9send_coap21send_sensor_data_cbor17h796e1937f5c418bbE:

00000000 <_ZN5mylib9send_coap21send_sensor_data_cbor17h796e1937f5c418bbE>:
_ZN5mylib9send_coap21send_sensor_data_cbor17h796e1937f5c418bbE():
/mnt/c/stm32bluepill-mynewt-sensor/src/send_coap.rs:63

fn send_sensor_data_cbor() {
   0:	b580      	push	{r7, lr}
   2:	b090      	sub	sp, #64	; 0x40
   4:	f640 3036 	movw	r0, #2870	; 0xb36
/mnt/c/stm32bluepill-mynewt-sensor/src/send_coap.rs:67
  //  Sensor `t` has int value 2870.
  let int_sensor_value = SensorValueNew {
    key: "t",
    val: SensorValueType::Uint(2870)
   8:	900b      	str	r0, [sp, #44]	; 0x2c
   a:	2000      	movs	r0, #0
   c:	900a      	str	r0, [sp, #40]	; 0x28
/mnt/c/stm32bluepill-mynewt-sensor/src/send_coap.rs:65
  let int_sensor_value = SensorValueNew {
   e:	f240 0000 	movw	r0, #0
  12:	f2c0 0000 	movt	r0, #0
  16:	9006      	str	r0, [sp, #24]
  18:	2001      	movs	r0, #1
  1a:	9007      	str	r0, [sp, #28]
  1c:	980a      	ldr	r0, [sp, #40]	; 0x28
  1e:	990b      	ldr	r1, [sp, #44]	; 0x2c
  20:	9109      	str	r1, [sp, #36]	; 0x24
  22:	9008      	str	r0, [sp, #32]
/mnt/c/stm32bluepill-mynewt-sensor/src/send_coap.rs:80
  cbor_encode_int(&mut root_map, 1234);
  */

  //  Compose the CoAP Payload in CBOR using the `coap` macro.
  trace_macros!(true);
  let payload = coap!(@cbor {
  24:	f240 0000 	movw	r0, #0
  28:	f2c0 0000 	movt	r0, #0
  2c:	900e      	str	r0, [sp, #56]	; 0x38
  2e:	2004      	movs	r0, #4
  30:	900f      	str	r0, [sp, #60]	; 0x3c
  32:	f240 0000 	movw	r0, #0
  36:	f2c0 0000 	movt	r0, #0
  3a:	f240 0100 	movw	r1, #0
  3e:	f2c0 0100 	movt	r1, #0
  42:	f04f 32ff 	mov.w	r2, #4294967295	; 0xffffffff
  46:	f7ff fffe 	bl	0 <cbor_encoder_create_map>
  4a:	9005      	str	r0, [sp, #20]
  4c:	e7ff      	b.n	4e <_ZN5mylib9send_coap21send_sensor_data_cbor17h796e1937f5c418bbE+0x4e>
  4e:	9806      	ldr	r0, [sp, #24]
  50:	9907      	ldr	r1, [sp, #28]
  52:	f7ff fffe 	bl	0 <_ZN4core3str21_$LT$impl$u20$str$GT$6as_ptr17hca80eebebc99ccd9E>
  56:	9004      	str	r0, [sp, #16]
  58:	e7ff      	b.n	5a <_ZN5mylib9send_coap21send_sensor_data_cbor17h796e1937f5c418bbE+0x5a>
  5a:	9806      	ldr	r0, [sp, #24]
  5c:	9907      	ldr	r1, [sp, #28]
  5e:	f7ff fffe 	bl	0 <_ZN4core3str21_$LT$impl$u20$str$GT$3len17ha2e0db4a9f502071E>
  62:	9003      	str	r0, [sp, #12]
  64:	e7ff      	b.n	66 <_ZN5mylib9send_coap21send_sensor_data_cbor17h796e1937f5c418bbE+0x66>
  66:	f240 0000 	movw	r0, #0
  6a:	f2c0 0000 	movt	r0, #0
  6e:	9904      	ldr	r1, [sp, #16]
  70:	9a03      	ldr	r2, [sp, #12]
  72:	f7ff fffe 	bl	0 <cbor_encode_text_string>
  76:	9002      	str	r0, [sp, #8]
  78:	e7ff      	b.n	7a <_ZN5mylib9send_coap21send_sensor_data_cbor17h796e1937f5c418bbE+0x7a>
  7a:	f240 0000 	movw	r0, #0
  7e:	f2c0 0000 	movt	r0, #0
  82:	f240 42d2 	movw	r2, #1234	; 0x4d2
  86:	2300      	movs	r3, #0
  88:	f7ff fffe 	bl	0 <cbor_encode_int>
  8c:	9001      	str	r0, [sp, #4]
  8e:	e7ff      	b.n	90 <_ZN5mylib9send_coap21send_sensor_data_cbor17h796e1937f5c418bbE+0x90>
  90:	f240 0000 	movw	r0, #0
  94:	f2c0 0000 	movt	r0, #0
  98:	f240 0100 	movw	r1, #0
  9c:	f2c0 0100 	movt	r1, #0
  a0:	f7ff fffe 	bl	0 <cbor_encoder_close_container>
  a4:	9000      	str	r0, [sp, #0]
  a6:	e7ff      	b.n	a8 <_ZN5mylib9send_coap21send_sensor_data_cbor17h796e1937f5c418bbE+0xa8>
  a8:	980e      	ldr	r0, [sp, #56]	; 0x38
  aa:	990f      	ldr	r1, [sp, #60]	; 0x3c
  ac:	900c      	str	r0, [sp, #48]	; 0x30
  ae:	910d      	str	r1, [sp, #52]	; 0x34
/mnt/c/stm32bluepill-mynewt-sensor/src/send_coap.rs:84
    int_sensor_value,    //  Send `{t: 2870}`
  });
  trace_macros!(false);
}
  b0:	b010      	add	sp, #64	; 0x40
  b2:	bd80      	pop	{r7, pc}

Disassembly of section .text._ZN5mylib9send_coap18start_network_task17hca6051abf27965cbE:

00000000 <_ZN5mylib9send_coap18start_network_task17hca6051abf27965cbE>:
_ZN5mylib9send_coap18start_network_task17hca6051abf27965cbE():
/mnt/c/stm32bluepill-mynewt-sensor/src/send_coap.rs:168

///  TODO: Start the Network Task in the background.  The Network Task prepares the network drivers
///  (ESP8266 and nRF24L01) for transmitting sensor data messages.  
///  Connecting the ESP8266 to the WiFi access point may be slow so we do this in the background.
///  Also perform WiFi Geolocation if it is enabled.  Return 0 if successful.
pub fn start_network_task() -> Result<(), i32>  {  //  Returns an error code upon error.
   0:	b580      	push	{r7, lr}
   2:	b084      	sub	sp, #16
/mnt/c/stm32bluepill-mynewt-sensor/src/send_coap.rs:170
//  pub fn start_network_task() -> i32  {
  console_print(b"start_network_task\n");
   4:	f240 0000 	movw	r0, #0
   8:	f2c0 0000 	movt	r0, #0
   c:	2113      	movs	r1, #19
   e:	f7ff fffe 	bl	0 <_ZN5mylib4base13console_print17h47a7ec4e529b3d82E>
  12:	e7ff      	b.n	2 <_ZN5mylib9send_coap18start_network_task17hca6051abf27965cbE+0x2>
/mnt/c/stm32bluepill-mynewt-sensor/src/send_coap.rs:171
  send_sensor_data_without_encoding();
  14:	f7ff fffe 	bl	0 <_ZN5mylib9send_coap18start_network_task17hca6051abf27965cbE>
  18:	e7ff      	b.n	2 <_ZN5mylib9send_coap18start_network_task17hca6051abf27965cbE+0x2>
/mnt/c/stm32bluepill-mynewt-sensor/src/send_coap.rs:172
  send_sensor_data_json();
  1a:	f7ff fffe 	bl	0 <_ZN5mylib9send_coap18start_network_task17hca6051abf27965cbE>
  1e:	e7ff      	b.n	2 <_ZN5mylib9send_coap18start_network_task17hca6051abf27965cbE+0x2>
/mnt/c/stm32bluepill-mynewt-sensor/src/send_coap.rs:173
  send_sensor_data_cbor();
  20:	f7ff fffe 	bl	0 <_ZN5mylib9send_coap18start_network_task17hca6051abf27965cbE>
  24:	e7ff      	b.n	26 <_ZN5mylib9send_coap18start_network_task17hca6051abf27965cbE+0x26>
  26:	2000      	movs	r0, #0
/mnt/c/stm32bluepill-mynewt-sensor/src/send_coap.rs:174
  Ok(())
  28:	9001      	str	r0, [sp, #4]
/mnt/c/stm32bluepill-mynewt-sensor/src/send_coap.rs:176
  //  0
}
  2a:	9801      	ldr	r0, [sp, #4]
  2c:	9902      	ldr	r1, [sp, #8]
  2e:	b004      	add	sp, #16
  30:	bd80      	pop	{r7, pc}

Disassembly of section .text._ZN5mylib9send_coap16send_sensor_data17h3747d7a54823f9e4E:

00000000 <_ZN5mylib9send_coap16send_sensor_data17h3747d7a54823f9e4E>:
_ZN5mylib9send_coap16send_sensor_data17h3747d7a54823f9e4E():
/mnt/c/stm32bluepill-mynewt-sensor/src/send_coap.rs:187
///  For Collector Node: sensor_node is the Sensor Node Address of the Sensor Node that transmitted
///  the sensor data (like `b3b4b5b6f1`)
///  The message will be enqueued for transmission by the CoAP / OIC Background Task 
///  so this function will return without waiting for the message to be transmitted.  
///  Return 0 if successful, SYS_EAGAIN if network is not ready yet.
pub fn send_sensor_data(_val: *const SensorValue, _sensor_node: &'static CStr) -> i32 {
   0:	b580      	push	{r7, lr}
   2:	b086      	sub	sp, #24
   4:	4613      	mov	r3, r2
   6:	468c      	mov	ip, r1
   8:	4686      	mov	lr, r0
   a:	9003      	str	r0, [sp, #12]
   c:	9104      	str	r1, [sp, #16]
   e:	9205      	str	r2, [sp, #20]
/mnt/c/stm32bluepill-mynewt-sensor/src/send_coap.rs:188
  console_print(b"send_sensor_data\n");
  10:	f240 0000 	movw	r0, #0
  14:	f2c0 0000 	movt	r0, #0
  18:	2111      	movs	r1, #17
  1a:	9302      	str	r3, [sp, #8]
  1c:	f8cd c004 	str.w	ip, [sp, #4]
  20:	f8cd e000 	str.w	lr, [sp]
  24:	f7ff fffe 	bl	0 <_ZN5mylib4base13console_print17h47a7ec4e529b3d82E>
  28:	e7ff      	b.n	2a <_ZN5mylib9send_coap16send_sensor_data17h3747d7a54823f9e4E+0x2a>
  2a:	2000      	movs	r0, #0
/mnt/c/stm32bluepill-mynewt-sensor/src/send_coap.rs:220

*/

  ;
  0
}
  2c:	b006      	add	sp, #24
  2e:	bd80      	pop	{r7, pc}

mylib-ac95891f38e7979c.1p0bleeal0c8ffkh.rcgu.o:     file format elf32-littlearm

SYMBOL TABLE:
00000000 l    df *ABS*	00000000 1p0bleeal0c8ffkh
00000000 l       .debug_str	00000000 
00000041 l       .debug_str	00000000 
0000004c l       .debug_str	00000000 
0000006f l       .debug_str	00000000 
00000074 l       .debug_str	00000000 
00000078 l       .debug_str	00000000 
0000007b l       .debug_str	00000000 
0000007e l       .debug_str	00000000 
00000081 l       .debug_str	00000000 
00000086 l       .debug_str	00000000 
0000008c l       .debug_str	00000000 
00000093 l       .debug_str	00000000 
0000009b l       .debug_str	00000000 
000000a5 l       .debug_str	00000000 
000000ac l       .debug_str	00000000 
000000af l       .debug_str	00000000 
000000b3 l       .debug_str	00000000 
000000ba l       .debug_str	00000000 
000000c1 l       .debug_str	00000000 
000000ca l       .debug_str	00000000 
000000d4 l       .debug_str	00000000 
000000db l       .debug_str	00000000 
000000e1 l       .debug_str	00000000 
000000e6 l       .debug_str	00000000 
000000f2 l       .debug_str	00000000 
000000fa l       .debug_str	00000000 
00000101 l       .debug_str	00000000 
00000105 l       .debug_str	00000000 
0000010a l       .debug_str	00000000 
00000113 l       .debug_str	00000000 
00000118 l       .debug_str	00000000 
0000011b l       .debug_str	00000000 
0000011f l       .debug_str	00000000 
00000128 l       .debug_str	00000000 
0000012f l       .debug_str	00000000 
00000134 l       .debug_str	00000000 
00000139 l       .debug_str	00000000 
0000013f l       .debug_str	00000000 
00000145 l       .debug_str	00000000 
0000014f l       .debug_str	00000000 
00000152 l       .debug_str	00000000 
00000158 l       .debug_str	00000000 
00000162 l       .debug_str	00000000 
0000016a l       .debug_str	00000000 
00000170 l       .debug_str	00000000 
00000176 l       .debug_str	00000000 
00000181 l       .debug_str	00000000 
0000018a l       .debug_str	00000000 
000001ad l       .debug_str	00000000 
000001cc l       .debug_str	00000000 
000001ce l       .debug_str	00000000 
000001d3 l       .debug_str	00000000 
000001fa l       .debug_str	00000000 
000001ff l       .debug_str	00000000 
00000205 l       .debug_str	00000000 
0000020b l       .debug_str	00000000 
0000020e l       .debug_str	00000000 
0000021d l       .debug_str	00000000 
00000224 l       .debug_str	00000000 
00000228 l       .debug_str	00000000 
00000231 l       .debug_str	00000000 
00000239 l       .debug_str	00000000 
00000241 l       .debug_str	00000000 
00000248 l       .debug_str	00000000 
0000025c l       .debug_str	00000000 
00000268 l       .debug_str	00000000 
00000274 l       .debug_str	00000000 
0000028d l       .debug_str	00000000 
00000292 l       .debug_str	00000000 
000002a3 l       .debug_str	00000000 
000002ad l       .debug_str	00000000 
000002bb l       .debug_str	00000000 
000002bf l       .debug_str	00000000 
000002ca l       .debug_str	00000000 
000002d1 l       .debug_str	00000000 
000002d7 l       .debug_str	00000000 
000002db l       .debug_str	00000000 
000002df l       .debug_str	00000000 
000002e7 l       .debug_str	00000000 
000002fe l       .debug_str	00000000 
00000322 l       .debug_str	00000000 
0000033e l       .debug_str	00000000 
00000348 l       .debug_str	00000000 
00000362 l       .debug_str	00000000 
000003c0 l       .debug_str	00000000 
000003cb l       .debug_str	00000000 
000003e8 l       .debug_str	00000000 
00000401 l       .debug_str	00000000 
0000040b l       .debug_str	00000000 
0000043d l       .debug_str	00000000 
00000000 l    d  .text._ZN4core3fmt9Arguments6new_v117h0330c13173882f69E	00000000 .text._ZN4core3fmt9Arguments6new_v117h0330c13173882f69E
00000000 l    d  .debug_abbrev	00000000 .debug_abbrev
00000000 l    d  .debug_info	00000000 .debug_info
00000000 l    d  .debug_frame	00000000 .debug_frame
00000000 l    d  .debug_line	00000000 .debug_line
00000000 g     F .text._ZN4core3fmt9Arguments6new_v117h0330c13173882f69E	0000004c .hidden _ZN4core3fmt9Arguments6new_v117h0330c13173882f69E



Disassembly of section .text._ZN4core3fmt9Arguments6new_v117h0330c13173882f69E:

00000000 <_ZN4core3fmt9Arguments6new_v117h0330c13173882f69E>:
_ZN4core3fmt9Arguments6new_v117h0330c13173882f69E():
/rustc/50a0defd5a93523067ef239936cc2e0755220904/src/libcore/fmt/mod.rs:314
   0:	b570      	push	{r4, r5, r6, lr}
   2:	b08a      	sub	sp, #40	; 0x28
   4:	f8dd c038 	ldr.w	ip, [sp, #56]	; 0x38
   8:	469e      	mov	lr, r3
   a:	4614      	mov	r4, r2
   c:	460d      	mov	r5, r1
   e:	4606      	mov	r6, r0
  10:	9104      	str	r1, [sp, #16]
  12:	9205      	str	r2, [sp, #20]
  14:	9306      	str	r3, [sp, #24]
  16:	f8cd c01c 	str.w	ip, [sp, #28]
/rustc/50a0defd5a93523067ef239936cc2e0755220904/src/libcore/fmt/mod.rs:317
  1a:	9904      	ldr	r1, [sp, #16]
  1c:	9a05      	ldr	r2, [sp, #20]
  1e:	2300      	movs	r3, #0
/rustc/50a0defd5a93523067ef239936cc2e0755220904/src/libcore/fmt/mod.rs:318
  20:	9309      	str	r3, [sp, #36]	; 0x24
  22:	9308      	str	r3, [sp, #32]
  24:	9308      	str	r3, [sp, #32]
/rustc/50a0defd5a93523067ef239936cc2e0755220904/src/libcore/fmt/mod.rs:319
  26:	9b06      	ldr	r3, [sp, #24]
  28:	f8dd c01c 	ldr.w	ip, [sp, #28]
/rustc/50a0defd5a93523067ef239936cc2e0755220904/src/libcore/fmt/mod.rs:316
  2c:	6001      	str	r1, [r0, #0]
  2e:	6042      	str	r2, [r0, #4]
  30:	9908      	ldr	r1, [sp, #32]
  32:	9a09      	ldr	r2, [sp, #36]	; 0x24
  34:	6081      	str	r1, [r0, #8]
  36:	60c2      	str	r2, [r0, #12]
  38:	6103      	str	r3, [r0, #16]
  3a:	f8c0 c014 	str.w	ip, [r0, #20]
/rustc/50a0defd5a93523067ef239936cc2e0755220904/src/libcore/fmt/mod.rs:321
  3e:	f8cd e00c 	str.w	lr, [sp, #12]
  42:	9402      	str	r4, [sp, #8]
  44:	9501      	str	r5, [sp, #4]
  46:	9600      	str	r6, [sp, #0]
  48:	b00a      	add	sp, #40	; 0x28
  4a:	bd70      	pop	{r4, r5, r6, pc}

mylib-ac95891f38e7979c.1r58q2o71511853b.rcgu.o:     file format elf32-littlearm

SYMBOL TABLE:
00000000 l    df *ABS*	00000000 1r58q2o71511853b
00000000 l       .debug_str	00000000 
00000041 l       .debug_str	00000000 
0000004c l       .debug_str	00000000 
0000006f l       .debug_str	00000000 
00000075 l       .debug_str	00000000 
0000007c l       .debug_str	00000000 
0000008e l       .debug_str	00000000 
0000009d l       .debug_str	00000000 
000000a1 l       .debug_str	00000000 
000000a9 l       .debug_str	00000000 
000000ad l       .debug_str	00000000 
000000b1 l       .debug_str	00000000 
000000bb l       .debug_str	00000000 
000000c5 l       .debug_str	00000000 
000000cb l       .debug_str	00000000 
000000e7 l       .debug_str	00000000 
00000140 l       .debug_str	00000000 
00000147 l       .debug_str	00000000 
0000014f l       .debug_str	00000000 
0000015e l       .debug_str	00000000 
00000196 l       .debug_str	00000000 
000001ce l       .debug_str	00000000 
000001e0 l       .debug_str	00000000 
0000021c l       .debug_str	00000000 
00000232 l       .debug_str	00000000 
0000023b l       .debug_str	00000000 
00000243 l       .debug_str	00000000 
00000248 l       .debug_str	00000000 
00000255 l       .debug_str	00000000 
00000000 l     O .rodata..Lanon.544111cdb1325800d89e791f810558e0.2	00000018 .Lanon.544111cdb1325800d89e791f810558e0.2
00000000 l     O .data._ZN5mylib6sensor17LISTENER_INTERNAL17hd450d9d557dd742bE	00000018 _ZN5mylib6sensor17LISTENER_INTERNAL17hd450d9d557dd742bE
00000000 l     F .text._ZN5mylib6sensor21null_sensor_data_func17h37bae91f918c1fbaE	0000002a _ZN5mylib6sensor21null_sensor_data_func17h37bae91f918c1fbaE
00000000 l    d  .text._ZN5mylib6sensor17register_listener17h3dfd25ec2d95f800E	00000000 .text._ZN5mylib6sensor17register_listener17h3dfd25ec2d95f800E
00000000 l    d  .text._ZN5mylib6sensor21null_sensor_data_func17h37bae91f918c1fbaE	00000000 .text._ZN5mylib6sensor21null_sensor_data_func17h37bae91f918c1fbaE
00000000 l    d  .rodata..Lanon.544111cdb1325800d89e791f810558e0.0	00000000 .rodata..Lanon.544111cdb1325800d89e791f810558e0.0
00000000 l    d  .rodata..Lanon.544111cdb1325800d89e791f810558e0.1	00000000 .rodata..Lanon.544111cdb1325800d89e791f810558e0.1
00000000 l    d  .data._ZN5mylib6sensor17LISTENER_INTERNAL17hd450d9d557dd742bE	00000000 .data._ZN5mylib6sensor17LISTENER_INTERNAL17hd450d9d557dd742bE
00000000 l    d  .debug_loc	00000000 .debug_loc
00000000 l    d  .debug_abbrev	00000000 .debug_abbrev
00000000 l    d  .debug_info	00000000 .debug_info
00000000 l    d  .debug_ranges	00000000 .debug_ranges
00000000 l    d  .debug_frame	00000000 .debug_frame
00000000 l    d  .debug_line	00000000 .debug_line
00000000         *UND*	00000000 _ZN4core9panicking5panic17h53ca63c6ac6312f8E
00000000 g     F .text._ZN5mylib6sensor17register_listener17h3dfd25ec2d95f800E	0000005e .hidden _ZN5mylib6sensor17register_listener17h3dfd25ec2d95f800E
00000000         *UND*	00000000 sensor_register_listener



Disassembly of section .text._ZN5mylib6sensor17register_listener17h3dfd25ec2d95f800E:

00000000 <_ZN5mylib6sensor17register_listener17h3dfd25ec2d95f800E>:
_ZN5mylib6sensor17register_listener17h3dfd25ec2d95f800E():
/mnt/c/stm32bluepill-mynewt-sensor/src/sensor.rs:14
///  for the sensor listener structure.
///
///  `sensor`: The sensor to register a listener on.
///  `listener`: The listener to register onto the sensor.
///  Return 0 on success, non-zero error code on failure.
pub fn register_listener(sensor: SensorPtr, listener: SensorListener) -> i32 {    
   0:	b570      	push	{r4, r5, r6, lr}
   2:	b08a      	sub	sp, #40	; 0x28
   4:	4602      	mov	r2, r0
   6:	9003      	str	r0, [sp, #12]
/mnt/c/stm32bluepill-mynewt-sensor/src/sensor.rs:15
    unsafe { assert!(LISTENER_INTERNAL.sl_sensor_type == 0) };  //  Make sure it's not used.
   8:	f240 0000 	movw	r0, #0
   c:	f2c0 0000 	movt	r0, #0
  10:	6803      	ldr	r3, [r0, #0]
  12:	6840      	ldr	r0, [r0, #4]
  14:	4318      	orrs	r0, r3
  16:	2800      	cmp	r0, #0
  18:	9102      	str	r1, [sp, #8]
  1a:	9201      	str	r2, [sp, #4]
  1c:	d007      	beq.n	2e <_ZN5mylib6sensor17register_listener17h3dfd25ec2d95f800E+0x2e>
  1e:	e7ff      	b.n	20 <_ZN5mylib6sensor17register_listener17h3dfd25ec2d95f800E+0x20>
  20:	f240 0000 	movw	r0, #0
  24:	f2c0 0000 	movt	r0, #0
  28:	f7ff fffe 	bl	0 <_ZN4core9panicking5panic17h53ca63c6ac6312f8E>
  2c:	defe      	udf	#254	; 0xfe
  2e:	a804      	add	r0, sp, #16
/mnt/c/stm32bluepill-mynewt-sensor/src/sensor.rs:17
    //  Copy the caller's listener to the internal listener.
    unsafe { LISTENER_INTERNAL = listener };
  30:	9902      	ldr	r1, [sp, #8]
  32:	4602      	mov	r2, r0
  34:	e891 5078 	ldmia.w	r1, {r3, r4, r5, r6, ip, lr}
  38:	e882 5078 	stmia.w	r2, {r3, r4, r5, r6, ip, lr}
  3c:	f240 0100 	movw	r1, #0
  40:	f2c0 0100 	movt	r1, #0
  44:	460a      	mov	r2, r1
  46:	e890 5078 	ldmia.w	r0, {r3, r4, r5, r6, ip, lr}
  4a:	e882 5078 	stmia.w	r2, {r3, r4, r5, r6, ip, lr}
/mnt/c/stm32bluepill-mynewt-sensor/src/sensor.rs:19
    //  Pass the internal listener to the unsafe Mynewt API.
    unsafe { sensor_register_listener(sensor, &mut LISTENER_INTERNAL) }
  4e:	9803      	ldr	r0, [sp, #12]
  50:	f7ff fffe 	bl	0 <sensor_register_listener>
  54:	9000      	str	r0, [sp, #0]
  56:	e7ff      	b.n	58 <_ZN5mylib6sensor17register_listener17h3dfd25ec2d95f800E+0x58>
/mnt/c/stm32bluepill-mynewt-sensor/src/sensor.rs:20
}
  58:	9800      	ldr	r0, [sp, #0]
  5a:	b00a      	add	sp, #40	; 0x28
  5c:	bd70      	pop	{r4, r5, r6, pc}

Disassembly of section .text._ZN5mylib6sensor21null_sensor_data_func17h37bae91f918c1fbaE:

00000000 <_ZN5mylib6sensor21null_sensor_data_func17h37bae91f918c1fbaE>:
_ZN5mylib6sensor21null_sensor_data_func17h37bae91f918c1fbaE():
/mnt/c/stm32bluepill-mynewt-sensor/src/sensor.rs:33
    sl_arg        : 0,
    sl_next       : 0,
};

///  Define a dummy sensor data function in case there is none.
extern fn null_sensor_data_func(_sensor: SensorPtr, _arg: SensorArg, _sensor_data: SensorDataPtr, _sensor_type: SensorType) -> i32 { 0 }
   0:	b5b0      	push	{r4, r5, r7, lr}
   2:	b088      	sub	sp, #32
   4:	9b0d      	ldr	r3, [sp, #52]	; 0x34
   6:	f8dd c030 	ldr.w	ip, [sp, #48]	; 0x30
   a:	4696      	mov	lr, r2
   c:	460c      	mov	r4, r1
   e:	4605      	mov	r5, r0
  10:	9003      	str	r0, [sp, #12]
  12:	9104      	str	r1, [sp, #16]
  14:	9205      	str	r2, [sp, #20]
  16:	9307      	str	r3, [sp, #28]
  18:	f8cd c018 	str.w	ip, [sp, #24]
  1c:	2000      	movs	r0, #0
  1e:	f8cd e008 	str.w	lr, [sp, #8]
  22:	9401      	str	r4, [sp, #4]
  24:	9500      	str	r5, [sp, #0]
  26:	b008      	add	sp, #32
  28:	bdb0      	pop	{r4, r5, r7, pc}

mylib-ac95891f38e7979c.1sy4lk16z0utqsak.rcgu.o:     file format elf32-littlearm

SYMBOL TABLE:
00000000 l    df *ABS*	00000000 1sy4lk16z0utqsak
00000000 l       .debug_str	00000000 
00000041 l       .debug_str	00000000 
0000004c l       .debug_str	00000000 
0000006f l       .debug_str	00000000 
00000074 l       .debug_str	00000000 
00000078 l       .debug_str	00000000 
0000007b l       .debug_str	00000000 
0000007e l       .debug_str	00000000 
00000081 l       .debug_str	00000000 
00000086 l       .debug_str	00000000 
0000008c l       .debug_str	00000000 
00000093 l       .debug_str	00000000 
0000009b l       .debug_str	00000000 
000000a5 l       .debug_str	00000000 
000000ac l       .debug_str	00000000 
000000af l       .debug_str	00000000 
000000b3 l       .debug_str	00000000 
000000ba l       .debug_str	00000000 
000000c0 l       .debug_str	00000000 
000000c9 l       .debug_str	00000000 
000000cd l       .debug_str	00000000 
000000f7 l       .debug_str	00000000 
000000fc l       .debug_str	00000000 
00000101 l       .debug_str	00000000 
00000103 l       .debug_str	00000000 
00000115 l       .debug_str	00000000 
0000011b l       .debug_str	00000000 
0000011e l       .debug_str	00000000 
00000122 l       .debug_str	00000000 
00000126 l       .debug_str	00000000 
00000129 l       .debug_str	00000000 
0000012b l       .debug_str	00000000 
0000012f l       .debug_str	00000000 
00000131 l       .debug_str	00000000 
00000141 l       .debug_str	00000000 
00000146 l       .debug_str	00000000 
0000014e l       .debug_str	00000000 
00000152 l       .debug_str	00000000 
0000015a l       .debug_str	00000000 
00000162 l       .debug_str	00000000 
00000169 l       .debug_str	00000000 
0000016f l       .debug_str	00000000 
00000183 l       .debug_str	00000000 
0000018f l       .debug_str	00000000 
00000194 l       .debug_str	00000000 
0000019c l       .debug_str	00000000 
000001a3 l       .debug_str	00000000 
000001a8 l       .debug_str	00000000 
000001af l       .debug_str	00000000 
000001b8 l       .debug_str	00000000 
000001c2 l       .debug_str	00000000 
000001c9 l       .debug_str	00000000 
000001ce l       .debug_str	00000000 
000001da l       .debug_str	00000000 
000001e2 l       .debug_str	00000000 
000001eb l       .debug_str	00000000 
000001f0 l       .debug_str	00000000 
000001f3 l       .debug_str	00000000 
000001fc l       .debug_str	00000000 
00000203 l       .debug_str	00000000 
00000208 l       .debug_str	00000000 
0000020d l       .debug_str	00000000 
00000213 l       .debug_str	00000000 
00000219 l       .debug_str	00000000 
00000223 l       .debug_str	00000000 
00000226 l       .debug_str	00000000 
0000022c l       .debug_str	00000000 
00000236 l       .debug_str	00000000 
0000023e l       .debug_str	00000000 
00000244 l       .debug_str	00000000 
0000024a l       .debug_str	00000000 
00000255 l       .debug_str	00000000 
0000025e l       .debug_str	00000000 
00000281 l       .debug_str	00000000 
000002a0 l       .debug_str	00000000 
000002a5 l       .debug_str	00000000 
000002cc l       .debug_str	00000000 
000002d1 l       .debug_str	00000000 
000002d7 l       .debug_str	00000000 
000002dd l       .debug_str	00000000 
000002ec l       .debug_str	00000000 
000002f3 l       .debug_str	00000000 
000002f7 l       .debug_str	00000000 
00000300 l       .debug_str	00000000 
0000030c l       .debug_str	00000000 
00000325 l       .debug_str	00000000 
0000032a l       .debug_str	00000000 
0000033b l       .debug_str	00000000 
00000345 l       .debug_str	00000000 
00000353 l       .debug_str	00000000 
00000357 l       .debug_str	00000000 
00000362 l       .debug_str	00000000 
00000369 l       .debug_str	00000000 
0000036f l       .debug_str	00000000 
00000373 l       .debug_str	00000000 
00000377 l       .debug_str	00000000 
0000037f l       .debug_str	00000000 
00000396 l       .debug_str	00000000 
000003ba l       .debug_str	00000000 
000003d6 l       .debug_str	00000000 
000003e0 l       .debug_str	00000000 
000003fa l       .debug_str	00000000 
00000458 l       .debug_str	00000000 
00000463 l       .debug_str	00000000 
00000480 l       .debug_str	00000000 
00000499 l       .debug_str	00000000 
000004a3 l       .debug_str	00000000 
000004b9 l       .debug_str	00000000 
000004d7 l       .debug_str	00000000 
000004e0 l       .debug_str	00000000 
000004e5 l       .debug_str	00000000 
000004ea l       .debug_str	00000000 
000004ee l       .debug_str	00000000 
000004f7 l       .debug_str	00000000 
00000501 l       .debug_str	00000000 
00000519 l       .debug_str	00000000 
00000000 l     O .rodata..Lanon.3ed011473997af99b525cde47c9eaaac.0	00000000 .Lanon.3ed011473997af99b525cde47c9eaaac.0
00000000 l     O .rodata..Lanon.3ed011473997af99b525cde47c9eaaac.3	00000018 .Lanon.3ed011473997af99b525cde47c9eaaac.3
00000000 l     O .rodata..Lanon.3ed011473997af99b525cde47c9eaaac.4	00000012 .Lanon.3ed011473997af99b525cde47c9eaaac.4
00000000 l     O .rodata..Lanon.3ed011473997af99b525cde47c9eaaac.5	00000009 .Lanon.3ed011473997af99b525cde47c9eaaac.5
00000000 l     O .rodata.cst8	00000008 .Lanon.3ed011473997af99b525cde47c9eaaac.6
00000000 l     O .rodata..Lanon.3ed011473997af99b525cde47c9eaaac.7	00000001 .Lanon.3ed011473997af99b525cde47c9eaaac.7
00000000 l    d  .text.main	00000000 .text.main
00000000 l    d  .text.rust_begin_unwind	00000000 .text.rust_begin_unwind
00000000 l    d  .rodata..Lanon.3ed011473997af99b525cde47c9eaaac.1	00000000 .rodata..Lanon.3ed011473997af99b525cde47c9eaaac.1
00000000 l    d  .rodata..Lanon.3ed011473997af99b525cde47c9eaaac.2	00000000 .rodata..Lanon.3ed011473997af99b525cde47c9eaaac.2
00000000 l    d  .debug_abbrev	00000000 .debug_abbrev
00000000 l    d  .debug_info	00000000 .debug_info
00000000 l    d  .debug_ranges	00000000 .debug_ranges
00000000 l    d  .debug_frame	00000000 .debug_frame
00000000 l    d  .debug_line	00000000 .debug_line
00000000         *UND*	00000000 .hidden _ZN4core3str21_$LT$impl$u20$str$GT$3len17ha2e0db4a9f502071E
00000000         *UND*	00000000 .hidden _ZN4core3str21_$LT$impl$u20$str$GT$6as_ptr17hca80eebebc99ccd9E
00000000         *UND*	00000000 _ZN4core5panic8Location4file17h94cc6af18de736c4E
00000000         *UND*	00000000 _ZN4core5panic8Location4line17h3ffc63f14d0a6636E
00000000         *UND*	00000000 _ZN4core5panic9PanicInfo8location17h5226165d8771f8a2E
00000000         *UND*	00000000 _ZN4core6result19Result$LT$T$C$E$GT$6expect17hf656a3fd5c2cb345E
00000000         *UND*	00000000 _ZN4core9panicking5panic17h53ca63c6ac6312f8E
00000000         *UND*	00000000 .hidden _ZN5mylib13listen_sensor21start_sensor_listener17h20948f110386186dE
00000000         *UND*	00000000 .hidden _ZN5mylib4base13console_print17h47a7ec4e529b3d82E
00000000         *UND*	00000000 .hidden _ZN5mylib9send_coap18start_network_task17hca6051abf27965cbE
00000000         *UND*	00000000 __bkpt
00000000         *UND*	00000000 console_buffer
00000000         *UND*	00000000 console_flush
00000000         *UND*	00000000 console_printhex
00000000 g     F .text.main	0000005e main
00000000         *UND*	00000000 os_eventq_dflt_get
00000000         *UND*	00000000 os_eventq_run
00000000 g     F .text.rust_begin_unwind	000000b6 rust_begin_unwind
00000000         *UND*	00000000 rust_sysinit



Disassembly of section .text.main:

00000000 <main>:
main():
/mnt/c/stm32bluepill-mynewt-sensor/src/lib.rs:27
use crate::listen_sensor::*;    //  Import listen_sensor.rs for polling the temperature sensor
use crate::send_coap::*;        //  Import send_coap.rs for sending sensor data

///  main() will be called at Mynewt startup. It replaces the C version of the main() function.
#[no_mangle]                     //  Don't mangle the name "main"
pub extern "C" fn main() -> ! {  //  Declare extern "C" because it will be called by Mynewt
   0:	b084      	sub	sp, #16
/mnt/c/stm32bluepill-mynewt-sensor/src/lib.rs:29
    //  Init Mynewt system.
    unsafe { rust_sysinit()  };
   2:	f7ff fffe 	bl	0 <rust_sysinit>
   6:	e7ff      	b.n	2 <console_flush+0x2>
/mnt/c/stm32bluepill-mynewt-sensor/src/lib.rs:30
    unsafe { console_flush() };
   8:	f7ff fffe 	bl	0 <console_flush>
   c:	e7ff      	b.n	2 <_ZN5mylib9send_coap18start_network_task17hca6051abf27965cbE+0x2>
/mnt/c/stm32bluepill-mynewt-sensor/src/lib.rs:35

    //  Start the Network Task in the background.  The Network Task prepares the ESP8266 or nRF24L01 transceiver for
    //  sending CoAP messages.  We connect the ESP8266 to the WiFi access point and register
    //  the ESP8266/nRF24L01 driver as the network transport for CoAP.  Also perform WiFi Geolocation if it is enabled.
    let rc = start_network_task();  
   e:	f7ff fffe 	bl	0 <_ZN5mylib9send_coap18start_network_task17hca6051abf27965cbE>
  12:	9102      	str	r1, [sp, #8]
  14:	9001      	str	r0, [sp, #4]
  16:	e7ff      	b.n	18 <main+0x18>
/mnt/c/stm32bluepill-mynewt-sensor/src/lib.rs:36
    rc.expect("");
  18:	9801      	ldr	r0, [sp, #4]
  1a:	9902      	ldr	r1, [sp, #8]
  1c:	f240 0200 	movw	r2, #0
  20:	f2c0 0200 	movt	r2, #0
  24:	2300      	movs	r3, #0
  26:	f7ff fffe 	bl	0 <_ZN4core6result19Result$LT$T$C$E$GT$6expect17hf656a3fd5c2cb345E>
  2a:	e7ff      	b.n	2 <_ZN5mylib13listen_sensor21start_sensor_listener17h20948f110386186dE+0x2>
/mnt/c/stm32bluepill-mynewt-sensor/src/lib.rs:42
    //  assert!(rc == 0);

    //  Starting polling the temperature sensor every 10 seconds in the background.  
    //  After polling the sensor, call the listener function to send the sensor data to the CoAP server or Collector Node.
    //  If this is the Collector Node, we shall wait for sensor data from the Sensor Nodes and transmit to the CoAP server.
    let rc = start_sensor_listener();  assert!(rc == 0);
  2c:	f7ff fffe 	bl	0 <_ZN5mylib13listen_sensor21start_sensor_listener17h20948f110386186dE>
  30:	9003      	str	r0, [sp, #12]
  32:	e7ff      	b.n	34 <main+0x34>
  34:	9803      	ldr	r0, [sp, #12]
  36:	2800      	cmp	r0, #0
  38:	d007      	beq.n	4a <main+0x4a>
  3a:	e7ff      	b.n	3c <main+0x3c>
  3c:	f240 0000 	movw	r0, #0
  40:	f2c0 0000 	movt	r0, #0
  44:	f7ff fffe 	bl	0 <_ZN4core9panicking5panic17h53ca63c6ac6312f8E>
  48:	defe      	udf	#254	; 0xfe
/mnt/c/stm32bluepill-mynewt-sensor/src/lib.rs:54
        }
    }; */
    // ::core::panicking::panic(expr_file_line_col: &(&'static str, &'static str, u32, u32))

    //  Main event loop
    loop {                            //  Loop forever...
  4a:	e7ff      	b.n	4c <main+0x4c>
/mnt/c/stm32bluepill-mynewt-sensor/src/lib.rs:57
        unsafe {
            os_eventq_run(            //  Process events...
                os_eventq_dflt_get()  //  From default event queue.
  4c:	f7ff fffe 	bl	0 <os_eventq_dflt_get>
  50:	9000      	str	r0, [sp, #0]
  52:	e7ff      	b.n	54 <main+0x54>
/mnt/c/stm32bluepill-mynewt-sensor/src/lib.rs:56
            os_eventq_run(            //  Process events...
  54:	9800      	ldr	r0, [sp, #0]
  56:	f7ff fffe 	bl	0 <os_eventq_run>
  5a:	e7ff      	b.n	5c <main+0x5c>
/mnt/c/stm32bluepill-mynewt-sensor/src/lib.rs:54
    loop {                            //  Loop forever...
  5c:	e7f6      	b.n	4c <main+0x4c>

Disassembly of section .text.rust_begin_unwind:

00000000 <rust_begin_unwind>:
rust_begin_unwind():
/mnt/c/stm32bluepill-mynewt-sensor/src/lib.rs:66
    //  Never comes here.
}

///  This function is called on panic, like an assertion failure. We display the filename and line number and pause in the debugger. From https://os.phil-opp.com/freestanding-rust-binary/
#[panic_handler]
fn panic(info: &PanicInfo) -> ! {
   0:	b08a      	sub	sp, #40	; 0x28
   2:	4601      	mov	r1, r0
   4:	9003      	str	r0, [sp, #12]
/mnt/c/stm32bluepill-mynewt-sensor/src/lib.rs:68
    //  Display the filename and line number to the Semihosting Console.
    if let Some(location) = info.location() {
   6:	9803      	ldr	r0, [sp, #12]
   8:	9102      	str	r1, [sp, #8]
   a:	f7ff fffe 	bl	0 <_ZN4core5panic9PanicInfo8location17h5226165d8771f8a2E>
   e:	9005      	str	r0, [sp, #20]
  10:	e7ff      	b.n	12 <rust_begin_unwind+0x12>
  12:	9805      	ldr	r0, [sp, #20]
  14:	2800      	cmp	r0, #0
  16:	d03f      	beq.n	98 <rust_begin_unwind+0x98>
  18:	e7ff      	b.n	1a <rust_begin_unwind+0x1a>
  1a:	9805      	ldr	r0, [sp, #20]
  1c:	9006      	str	r0, [sp, #24]
/mnt/c/stm32bluepill-mynewt-sensor/src/lib.rs:69
        let file = location.file();
  1e:	9806      	ldr	r0, [sp, #24]
  20:	f7ff fffe 	bl	0 <_ZN4core5panic8Location4file17h94cc6af18de736c4E>
  24:	9108      	str	r1, [sp, #32]
  26:	9007      	str	r0, [sp, #28]
  28:	e7ff      	b.n	2a <rust_begin_unwind+0x2a>
/mnt/c/stm32bluepill-mynewt-sensor/src/lib.rs:70
        let line = location.line();
  2a:	9806      	ldr	r0, [sp, #24]
  2c:	f7ff fffe 	bl	0 <_ZN4core5panic8Location4line17h3ffc63f14d0a6636E>
  30:	9009      	str	r0, [sp, #36]	; 0x24
  32:	e7ff      	b.n	34 <rust_begin_unwind+0x34>
/mnt/c/stm32bluepill-mynewt-sensor/src/lib.rs:71
        console_print(b"panic at ");
  34:	f240 0000 	movw	r0, #0
  38:	f2c0 0000 	movt	r0, #0
  3c:	2109      	movs	r1, #9
  3e:	f7ff fffe 	bl	0 <_ZN5mylib4base13console_print17h47a7ec4e529b3d82E>
  42:	e7ff      	b.n	44 <rust_begin_unwind+0x44>
/mnt/c/stm32bluepill-mynewt-sensor/src/lib.rs:72
        unsafe { console_buffer(file.as_ptr(), file.len() as u32) }
  44:	9807      	ldr	r0, [sp, #28]
  46:	9908      	ldr	r1, [sp, #32]
  48:	f7ff fffe 	bl	0 <_ZN4core3str21_$LT$impl$u20$str$GT$6as_ptr17hca80eebebc99ccd9E>
  4c:	9001      	str	r0, [sp, #4]
  4e:	e7ff      	b.n	50 <rust_begin_unwind+0x50>
  50:	9807      	ldr	r0, [sp, #28]
  52:	9908      	ldr	r1, [sp, #32]
  54:	f7ff fffe 	bl	0 <_ZN4core3str21_$LT$impl$u20$str$GT$3len17ha2e0db4a9f502071E>
  58:	9000      	str	r0, [sp, #0]
  5a:	e7ff      	b.n	5c <rust_begin_unwind+0x5c>
  5c:	9801      	ldr	r0, [sp, #4]
  5e:	9900      	ldr	r1, [sp, #0]
  60:	f7ff fffe 	bl	0 <console_buffer>
  64:	e7ff      	b.n	2 <rust_begin_unwind+0x2>
/mnt/c/stm32bluepill-mynewt-sensor/src/lib.rs:73
        console_print(b" line 0x");
  66:	f240 0000 	movw	r0, #0
  6a:	f2c0 0000 	movt	r0, #0
  6e:	2108      	movs	r1, #8
  70:	f7ff fffe 	bl	0 <_ZN5mylib4base13console_print17h47a7ec4e529b3d82E>
  74:	e7ff      	b.n	76 <rust_begin_unwind+0x76>
/mnt/c/stm32bluepill-mynewt-sensor/src/lib.rs:74
        unsafe { console_printhex(line as u8) }  //  TODO: Print in decimal not hex. Allow more than 255 lines.
  76:	f89d 0024 	ldrb.w	r0, [sp, #36]	; 0x24
  7a:	f7ff fffe 	bl	0 <console_printhex>
  7e:	e7ff      	b.n	2 <rust_begin_unwind+0x2>
/mnt/c/stm32bluepill-mynewt-sensor/src/lib.rs:75
        console_print(b"\n");
  80:	f240 0000 	movw	r0, #0
  84:	f2c0 0000 	movt	r0, #0
  88:	2101      	movs	r1, #1
  8a:	f7ff fffe 	bl	0 <_ZN5mylib4base13console_print17h47a7ec4e529b3d82E>
  8e:	e7ff      	b.n	2 <console_flush+0x2>
/mnt/c/stm32bluepill-mynewt-sensor/src/lib.rs:76
        unsafe { console_flush() }
  90:	f7ff fffe 	bl	0 <console_flush>
  94:	e7ff      	b.n	96 <rust_begin_unwind+0x96>
/mnt/c/stm32bluepill-mynewt-sensor/src/lib.rs:68
    if let Some(location) = info.location() {
  96:	e00a      	b.n	ae <rust_begin_unwind+0xae>
/mnt/c/stm32bluepill-mynewt-sensor/src/lib.rs:78
    } else {
        console_print(b"panic unknown loc\n");
  98:	f240 0000 	movw	r0, #0
  9c:	f2c0 0000 	movt	r0, #0
  a0:	2112      	movs	r1, #18
  a2:	f7ff fffe 	bl	0 <_ZN5mylib4base13console_print17h47a7ec4e529b3d82E>
  a6:	e7ff      	b.n	2 <console_flush+0x2>
/mnt/c/stm32bluepill-mynewt-sensor/src/lib.rs:79
        unsafe { console_flush() }
  a8:	f7ff fffe 	bl	0 <console_flush>
  ac:	e7ff      	b.n	2 <__bkpt+0x2>
_ZN8cortex_m3asm4bkpt17ha12387e1b6ef82e6E():
/home/user/.cargo/registry/src/github.com-1ecc6299db9ec823/cortex-m-0.6.0/src/asm.rs:19
        () => unsafe {
            extern "C" {
                fn __bkpt();
            }

            __bkpt();
  ae:	f7ff fffe 	bl	0 <__bkpt>
rust_begin_unwind():
/mnt/c/stm32bluepill-mynewt-sensor/src/lib.rs:82
    }
    //  Pause in the debugger.
    bkpt();
  b2:	e7ff      	b.n	b4 <rust_begin_unwind+0xb4>
/mnt/c/stm32bluepill-mynewt-sensor/src/lib.rs:84
    //  Loop forever so that device won't restart.
    loop {}
  b4:	e7fe      	b.n	b4 <rust_begin_unwind+0xb4>

mylib-ac95891f38e7979c.29x7oqvwgrpr4c8r.rcgu.o:     file format elf32-littlearm

SYMBOL TABLE:
00000000 l    df *ABS*	00000000 29x7oqvwgrpr4c8r
00000000 l       .debug_str	00000000 
00000041 l       .debug_str	00000000 
0000004c l       .debug_str	00000000 
0000006f l       .debug_str	00000000 
00000075 l       .debug_str	00000000 
0000007c l       .debug_str	00000000 
00000080 l       .debug_str	00000000 
0000008a l       .debug_str	00000000 
00000094 l       .debug_str	00000000 
0000009a l       .debug_str	00000000 
000000a8 l       .debug_str	00000000 
000000ec l       .debug_str	00000000 
00000102 l       .debug_str	00000000 
00000106 l       .debug_str	00000000 
00000145 l       .debug_str	00000000 
00000156 l       .debug_str	00000000 
00000194 l       .debug_str	00000000 
000001a4 l       .debug_str	00000000 
000001a9 l       .debug_str	00000000 
000001ad l       .debug_str	00000000 
000001b0 l       .debug_str	00000000 
000001ba l       .debug_str	00000000 
000001c3 l       .debug_str	00000000 
000001cb l       .debug_str	00000000 
000001cf l       .debug_str	00000000 
000001d9 l       .debug_str	00000000 
000001dd l       .debug_str	00000000 
000001e9 l       .debug_str	00000000 
000001ec l       .debug_str	00000000 
00000208 l       .debug_str	00000000 
00000211 l       .debug_str	00000000 
00000220 l       .debug_str	00000000 
00000224 l       .debug_str	00000000 
0000022c l       .debug_str	00000000 
00000285 l       .debug_str	00000000 
0000028c l       .debug_str	00000000 
00000294 l       .debug_str	00000000 
000002a3 l       .debug_str	00000000 
000002a8 l       .debug_str	00000000 
000002b4 l       .debug_str	00000000 
000002c0 l       .debug_str	00000000 
000002c7 l       .debug_str	00000000 
000002cd l       .debug_str	00000000 
000002d9 l       .debug_str	00000000 
000002e3 l       .debug_str	00000000 
000002e9 l       .debug_str	00000000 
000002fd l       .debug_str	00000000 
00000302 l       .debug_str	00000000 
00000313 l       .debug_str	00000000 
00000325 l       .debug_str	00000000 
00000332 l       .debug_str	00000000 
0000033e l       .debug_str	00000000 
0000034c l       .debug_str	00000000 
00000363 l       .debug_str	00000000 
00000375 l       .debug_str	00000000 
00000395 l       .debug_str	00000000 
0000039e l       .debug_str	00000000 
000003a7 l       .debug_str	00000000 
000003b9 l       .debug_str	00000000 
00000000 l     O .rodata..Lanon.32e44b06c4d24b342963a6a6b9d75415.0	0000000a .Lanon.32e44b06c4d24b342963a6a6b9d75415.0
00000000 l     O .rodata..Lanon.32e44b06c4d24b342963a6a6b9d75415.1	0000000d .Lanon.32e44b06c4d24b342963a6a6b9d75415.1
00000000 l     O .rodata..Lanon.32e44b06c4d24b342963a6a6b9d75415.10	00000018 .Lanon.32e44b06c4d24b342963a6a6b9d75415.10
00000000 l     O .rodata..Lanon.32e44b06c4d24b342963a6a6b9d75415.12	00000018 .Lanon.32e44b06c4d24b342963a6a6b9d75415.12
00000000 l     O .rodata..Lanon.32e44b06c4d24b342963a6a6b9d75415.13	00000016 .Lanon.32e44b06c4d24b342963a6a6b9d75415.13
00000000 l     O .rodata..Lanon.32e44b06c4d24b342963a6a6b9d75415.14	00000018 .Lanon.32e44b06c4d24b342963a6a6b9d75415.14
00000000 l     O .rodata..Lanon.32e44b06c4d24b342963a6a6b9d75415.15	00000001 .Lanon.32e44b06c4d24b342963a6a6b9d75415.15
00000000 l     O .rodata..Lanon.32e44b06c4d24b342963a6a6b9d75415.16	00000018 .Lanon.32e44b06c4d24b342963a6a6b9d75415.16
00000000 l     O .rodata..Lanon.32e44b06c4d24b342963a6a6b9d75415.17	00000018 .Lanon.32e44b06c4d24b342963a6a6b9d75415.17
00000000 l     O .rodata..Lanon.32e44b06c4d24b342963a6a6b9d75415.18	00000019 .Lanon.32e44b06c4d24b342963a6a6b9d75415.18
00000000 l     O .rodata..Lanon.32e44b06c4d24b342963a6a6b9d75415.19	00000002 .Lanon.32e44b06c4d24b342963a6a6b9d75415.19
00000000 l     O .rodata..Lanon.32e44b06c4d24b342963a6a6b9d75415.4	00000018 .Lanon.32e44b06c4d24b342963a6a6b9d75415.4
00000000 l     O .rodata..Lanon.32e44b06c4d24b342963a6a6b9d75415.6	00000018 .Lanon.32e44b06c4d24b342963a6a6b9d75415.6
00000000 l     O .rodata..Lanon.32e44b06c4d24b342963a6a6b9d75415.7	00000018 .Lanon.32e44b06c4d24b342963a6a6b9d75415.7
00000000 l     O .rodata..Lanon.32e44b06c4d24b342963a6a6b9d75415.8	00000011 .Lanon.32e44b06c4d24b342963a6a6b9d75415.8
00000000 l     F .text._ZN5mylib13listen_sensor15get_temperature17h7483b06df62b9f7eE	0000014c _ZN5mylib13listen_sensor15get_temperature17h7483b06df62b9f7eE
00000000 l     F .text._ZN5mylib13listen_sensor16read_temperature17he67c795f5d8b5e70E	00000120 _ZN5mylib13listen_sensor16read_temperature17he67c795f5d8b5e70E
00000000 l    d  .text._ZN5mylib13listen_sensor21start_sensor_listener17h20948f110386186dE	00000000 .text._ZN5mylib13listen_sensor21start_sensor_listener17h20948f110386186dE
00000000 l    d  .text._ZN5mylib13listen_sensor16read_temperature17he67c795f5d8b5e70E	00000000 .text._ZN5mylib13listen_sensor16read_temperature17he67c795f5d8b5e70E
00000000 l    d  .text._ZN5mylib13listen_sensor15get_temperature17h7483b06df62b9f7eE	00000000 .text._ZN5mylib13listen_sensor15get_temperature17h7483b06df62b9f7eE
00000000 l    d  .rodata..Lanon.32e44b06c4d24b342963a6a6b9d75415.2	00000000 .rodata..Lanon.32e44b06c4d24b342963a6a6b9d75415.2
00000000 l    d  .rodata..Lanon.32e44b06c4d24b342963a6a6b9d75415.3	00000000 .rodata..Lanon.32e44b06c4d24b342963a6a6b9d75415.3
00000000 l    d  .rodata..Lanon.32e44b06c4d24b342963a6a6b9d75415.5	00000000 .rodata..Lanon.32e44b06c4d24b342963a6a6b9d75415.5
00000000 l    d  .rodata..Lanon.32e44b06c4d24b342963a6a6b9d75415.9	00000000 .rodata..Lanon.32e44b06c4d24b342963a6a6b9d75415.9
00000000 l    d  .rodata..Lanon.32e44b06c4d24b342963a6a6b9d75415.11	00000000 .rodata..Lanon.32e44b06c4d24b342963a6a6b9d75415.11
00000000 l    d  .debug_abbrev	00000000 .debug_abbrev
00000000 l    d  .debug_info	00000000 .debug_info
00000000 l    d  .debug_ranges	00000000 .debug_ranges
00000000 l    d  .debug_frame	00000000 .debug_frame
00000000 l    d  .debug_line	00000000 .debug_line
00000000         *UND*	00000000 _ZN4core5slice29_$LT$impl$u20$$u5b$T$u5d$$GT$6as_ptr17h6e6820e87d479c61E
00000000         *UND*	00000000 _ZN4core9panicking5panic17h53ca63c6ac6312f8E
00000000 g     F .text._ZN5mylib13listen_sensor21start_sensor_listener17h20948f110386186dE	000000ca .hidden _ZN5mylib13listen_sensor21start_sensor_listener17h20948f110386186dE
00000000         *UND*	00000000 .hidden _ZN5mylib4base13console_print17h47a7ec4e529b3d82E
00000000         *UND*	00000000 .hidden _ZN5mylib6sensor17register_listener17h3dfd25ec2d95f800E
00000000         *UND*	00000000 .hidden _ZN5mylib9send_coap16send_sensor_data17h3747d7a54823f9e4E
00000000         *UND*	00000000 _ZN9cstr_core4CStr8from_ptr17hf882b52c821e39a0E
00000000         *UND*	00000000 device_get_name
00000000         *UND*	00000000 get_temp_data
00000000         *UND*	00000000 get_temp_raw_data
00000000         *UND*	00000000 is_null_sensor
00000000         *UND*	00000000 is_null_sensor_data
00000000         *UND*	00000000 null_sensor
00000000         *UND*	00000000 sensor_get_device
00000000         *UND*	00000000 sensor_mgr_find_next_bydevname
00000000         *UND*	00000000 sensor_set_poll_rate_ms



Disassembly of section .text._ZN5mylib13listen_sensor21start_sensor_listener17h20948f110386186dE:

00000000 <_ZN5mylib13listen_sensor21start_sensor_listener17h20948f110386186dE>:
_ZN5mylib13listen_sensor21start_sensor_listener17h20948f110386186dE():
/mnt/c/stm32bluepill-mynewt-sensor/src/listen_sensor.rs:30
///  Listener Function to send the sensor data to the Collector Node (if this is a Sensor Node)
///  or CoAP Server (is this is a Standalone Node).
///  For Collector Node: Start the Listeners for Remote Sensor 
///  Otherwise this is a Standalone Node with ESP8266, or a Sensor Node with nRF24L01.
///  Return 0 if successful.
pub fn start_sensor_listener() -> i32 {
   0:	b5f0      	push	{r4, r5, r6, r7, lr}
   2:	b093      	sub	sp, #76	; 0x4c
/mnt/c/stm32bluepill-mynewt-sensor/src/listen_sensor.rs:31
    console_print(b"TMP poll \n");  //  SENSOR_DEVICE "\n";
   4:	f240 0000 	movw	r0, #0
   8:	f2c0 0000 	movt	r0, #0
   c:	210a      	movs	r1, #10
   e:	f7ff fffe 	bl	0 <_ZN5mylib4base13console_print17h47a7ec4e529b3d82E>
  12:	e7ff      	b.n	2 <_ZN5mylib13listen_sensor21start_sensor_listener17h20948f110386186dE+0x2>
/mnt/c/stm32bluepill-mynewt-sensor/src/listen_sensor.rs:34

    //  Set the sensor polling time to 10 seconds.  SENSOR_DEVICE is either "bme280_0" or "temp_stm32_0"
    let rc = unsafe { sensor_set_poll_rate_ms(SENSOR_DEVICE, SENSOR_POLL_TIME) };
  14:	f240 0000 	movw	r0, #0
  18:	f2c0 0000 	movt	r0, #0
  1c:	f242 7110 	movw	r1, #10000	; 0x2710
  20:	f7ff fffe 	bl	0 <sensor_set_poll_rate_ms>
  24:	9002      	str	r0, [sp, #8]
  26:	e7ff      	b.n	28 <_ZN5mylib13listen_sensor21start_sensor_listener17h20948f110386186dE+0x28>
/mnt/c/stm32bluepill-mynewt-sensor/src/listen_sensor.rs:35
    assert!(rc == 0);
  28:	9802      	ldr	r0, [sp, #8]
  2a:	2800      	cmp	r0, #0
  2c:	d007      	beq.n	3e <_ZN5mylib13listen_sensor21start_sensor_listener17h20948f110386186dE+0x3e>
  2e:	e7ff      	b.n	30 <_ZN5mylib13listen_sensor21start_sensor_listener17h20948f110386186dE+0x30>
  30:	f240 0000 	movw	r0, #0
  34:	f2c0 0000 	movt	r0, #0
  38:	f7ff fffe 	bl	0 <_ZN4core9panicking5panic17h53ca63c6ac6312f8E>
  3c:	defe      	udf	#254	; 0xfe
/mnt/c/stm32bluepill-mynewt-sensor/src/listen_sensor.rs:38

    //  Fetch the sensor by name, without locking the driver for exclusive access.
    let listen_sensor = unsafe { sensor_mgr_find_next_bydevname(SENSOR_DEVICE, null_sensor()) };
  3e:	f7ff fffe 	bl	0 <null_sensor>
  42:	9001      	str	r0, [sp, #4]
  44:	e7ff      	b.n	46 <_ZN5mylib13listen_sensor21start_sensor_listener17h20948f110386186dE+0x46>
  46:	f240 0000 	movw	r0, #0
  4a:	f2c0 0000 	movt	r0, #0
  4e:	9901      	ldr	r1, [sp, #4]
  50:	f7ff fffe 	bl	0 <sensor_mgr_find_next_bydevname>
  54:	9003      	str	r0, [sp, #12]
  56:	e7ff      	b.n	58 <_ZN5mylib13listen_sensor21start_sensor_listener17h20948f110386186dE+0x58>
/mnt/c/stm32bluepill-mynewt-sensor/src/listen_sensor.rs:39
    assert!(!unsafe{ is_null_sensor(listen_sensor) });
  58:	9803      	ldr	r0, [sp, #12]
  5a:	f7ff fffe 	bl	0 <is_null_sensor>
  5e:	9000      	str	r0, [sp, #0]
  60:	e7ff      	b.n	62 <_ZN5mylib13listen_sensor21start_sensor_listener17h20948f110386186dE+0x62>
  62:	9800      	ldr	r0, [sp, #0]
  64:	07c1      	lsls	r1, r0, #31
  66:	2900      	cmp	r1, #0
  68:	d007      	beq.n	7a <_ZN5mylib13listen_sensor21start_sensor_listener17h20948f110386186dE+0x7a>
  6a:	e7ff      	b.n	6c <_ZN5mylib13listen_sensor21start_sensor_listener17h20948f110386186dE+0x6c>
  6c:	f240 0000 	movw	r0, #0
  70:	f2c0 0000 	movt	r0, #0
  74:	f7ff fffe 	bl	0 <_ZN4core9panicking5panic17h53ca63c6ac6312f8E>
  78:	defe      	udf	#254	; 0xfe
  7a:	2000      	movs	r0, #0
/mnt/c/stm32bluepill-mynewt-sensor/src/listen_sensor.rs:42

    //  Define the listener function to be called after polling the temperature sensor.
    let listener = SensorListener {
  7c:	9005      	str	r0, [sp, #20]
  7e:	f04f 6180 	mov.w	r1, #67108864	; 0x4000000
  82:	9104      	str	r1, [sp, #16]
  84:	f240 0100 	movw	r1, #0
  88:	f2c0 0100 	movt	r1, #0
  8c:	9106      	str	r1, [sp, #24]
  8e:	2101      	movs	r1, #1
  90:	9107      	str	r1, [sp, #28]
  92:	9008      	str	r0, [sp, #32]
/mnt/c/stm32bluepill-mynewt-sensor/src/listen_sensor.rs:50
        sl_arg        : LISTENER_CB,           //  Indicate to the listener function that this is a listener callback
        sl_next       : 0,                     //  Must be 0
    };

    //  Register the Listener Function to be called every 10 seconds, with the polled sensor data.
    let rc = register_listener(listen_sensor, listener);
  94:	9803      	ldr	r0, [sp, #12]
  96:	a904      	add	r1, sp, #16
  98:	aa0c      	add	r2, sp, #48	; 0x30
  9a:	4613      	mov	r3, r2
  9c:	e891 50f0 	ldmia.w	r1, {r4, r5, r6, r7, ip, lr}
  a0:	e883 50f0 	stmia.w	r3, {r4, r5, r6, r7, ip, lr}
  a4:	4611      	mov	r1, r2
  a6:	f7ff fffe 	bl	0 <_ZN5mylib6sensor17register_listener17h3dfd25ec2d95f800E>
  aa:	900b      	str	r0, [sp, #44]	; 0x2c
  ac:	e7ff      	b.n	ae <_ZN5mylib13listen_sensor21start_sensor_listener17h20948f110386186dE+0xae>
/mnt/c/stm32bluepill-mynewt-sensor/src/listen_sensor.rs:51
    assert!(rc == 0);
  ae:	980b      	ldr	r0, [sp, #44]	; 0x2c
  b0:	2800      	cmp	r0, #0
  b2:	d007      	beq.n	c4 <_ZN5mylib13listen_sensor21start_sensor_listener17h20948f110386186dE+0xc4>
  b4:	e7ff      	b.n	b6 <_ZN5mylib13listen_sensor21start_sensor_listener17h20948f110386186dE+0xb6>
  b6:	f240 0000 	movw	r0, #0
  ba:	f2c0 0000 	movt	r0, #0
  be:	f7ff fffe 	bl	0 <_ZN4core9panicking5panic17h53ca63c6ac6312f8E>
  c2:	defe      	udf	#254	; 0xfe
  c4:	2000      	movs	r0, #0
/mnt/c/stm32bluepill-mynewt-sensor/src/listen_sensor.rs:55

    //  Return 0 to indicate success.  This line should not end with a semicolon (;).
    0
}
  c6:	b013      	add	sp, #76	; 0x4c
  c8:	bdf0      	pop	{r4, r5, r6, r7, pc}

Disassembly of section .text._ZN5mylib13listen_sensor16read_temperature17he67c795f5d8b5e70E:

00000000 <_ZN5mylib13listen_sensor16read_temperature17he67c795f5d8b5e70E>:
_ZN5mylib13listen_sensor16read_temperature17he67c795f5d8b5e70E():
/mnt/c/stm32bluepill-mynewt-sensor/src/listen_sensor.rs:70
///  This listener function is called by Mynewt every 10 seconds (for local sensors) or when sensor data is received
///  (for Remote Sensors).  Mynewt has fetched the raw or computed temperature value, passed through `sensor_data`.
///  If this is a Sensor Node, we send the sensor data to the Collector Node.
///  If this is a Collector Node or Standalone Node, we send the sensor data to the CoAP server.  
///  Return 0 if we have processed the sensor data successfully.
extern fn read_temperature(sensor: SensorPtr, _arg: SensorArg, sensor_data: SensorDataPtr, sensor_type: SensorType) -> i32 {
   0:	b5b0      	push	{r4, r5, r7, lr}
   2:	b096      	sub	sp, #88	; 0x58
   4:	9b1b      	ldr	r3, [sp, #108]	; 0x6c
   6:	f8dd c068 	ldr.w	ip, [sp, #104]	; 0x68
   a:	4696      	mov	lr, r2
   c:	460c      	mov	r4, r1
   e:	4605      	mov	r5, r0
  10:	9007      	str	r0, [sp, #28]
  12:	9108      	str	r1, [sp, #32]
  14:	9209      	str	r2, [sp, #36]	; 0x24
  16:	930b      	str	r3, [sp, #44]	; 0x2c
  18:	f8cd c028 	str.w	ip, [sp, #40]	; 0x28
/mnt/c/stm32bluepill-mynewt-sensor/src/listen_sensor.rs:72
    unsafe {
        console_print(b"read_temperature\n");
  1c:	f240 0000 	movw	r0, #0
  20:	f2c0 0000 	movt	r0, #0
  24:	2111      	movs	r1, #17
  26:	f8cd e018 	str.w	lr, [sp, #24]
  2a:	9405      	str	r4, [sp, #20]
  2c:	9504      	str	r5, [sp, #16]
  2e:	f7ff fffe 	bl	0 <_ZN5mylib4base13console_print17h47a7ec4e529b3d82E>
  32:	e7ff      	b.n	34 <_ZN5mylib13listen_sensor16read_temperature17he67c795f5d8b5e70E+0x34>
/mnt/c/stm32bluepill-mynewt-sensor/src/listen_sensor.rs:75
        //  Check that the temperature data is valid.
        //  TODO
        if is_null_sensor_data(sensor_data) { return SYS_EINVAL; }  //  Exit if data is missing
  34:	9809      	ldr	r0, [sp, #36]	; 0x24
  36:	f7ff fffe 	bl	0 <is_null_sensor_data>
  3a:	9003      	str	r0, [sp, #12]
  3c:	e7ff      	b.n	3e <_ZN5mylib13listen_sensor16read_temperature17he67c795f5d8b5e70E+0x3e>
  3e:	9803      	ldr	r0, [sp, #12]
  40:	07c1      	lsls	r1, r0, #31
  42:	2900      	cmp	r1, #0
  44:	d007      	beq.n	56 <_ZN5mylib13listen_sensor16read_temperature17he67c795f5d8b5e70E+0x56>
  46:	e7ff      	b.n	48 <_ZN5mylib13listen_sensor16read_temperature17he67c795f5d8b5e70E+0x48>
  48:	f06f 0001 	mvn.w	r0, #1
  4c:	900c      	str	r0, [sp, #48]	; 0x30
  4e:	e7ff      	b.n	50 <_ZN5mylib13listen_sensor16read_temperature17he67c795f5d8b5e70E+0x50>
/mnt/c/stm32bluepill-mynewt-sensor/src/listen_sensor.rs:107
        }
        assert!(rc == 0);
        //#endif  //  MYNEWT_VAL(SENSOR_COAP)
    }
    0
}
  50:	980c      	ldr	r0, [sp, #48]	; 0x30
  52:	b016      	add	sp, #88	; 0x58
  54:	bdb0      	pop	{r4, r5, r7, pc}
/mnt/c/stm32bluepill-mynewt-sensor/src/listen_sensor.rs:76
        assert!(!is_null_sensor(sensor));
  56:	9807      	ldr	r0, [sp, #28]
  58:	f7ff fffe 	bl	0 <is_null_sensor>
  5c:	9002      	str	r0, [sp, #8]
  5e:	e7ff      	b.n	60 <_ZN5mylib13listen_sensor16read_temperature17he67c795f5d8b5e70E+0x60>
  60:	9802      	ldr	r0, [sp, #8]
  62:	07c1      	lsls	r1, r0, #31
  64:	2900      	cmp	r1, #0
  66:	d007      	beq.n	78 <_ZN5mylib13listen_sensor16read_temperature17he67c795f5d8b5e70E+0x78>
  68:	e7ff      	b.n	6a <_ZN5mylib13listen_sensor16read_temperature17he67c795f5d8b5e70E+0x6a>
  6a:	f240 0000 	movw	r0, #0
  6e:	f2c0 0000 	movt	r0, #0
  72:	f7ff fffe 	bl	0 <_ZN4core9panicking5panic17h53ca63c6ac6312f8E>
  76:	defe      	udf	#254	; 0xfe
/mnt/c/stm32bluepill-mynewt-sensor/src/listen_sensor.rs:80
        let device = sensor_get_device(sensor);
  78:	9807      	ldr	r0, [sp, #28]
  7a:	f7ff fffe 	bl	0 <sensor_get_device>
  7e:	900d      	str	r0, [sp, #52]	; 0x34
  80:	e7ff      	b.n	82 <_ZN5mylib13listen_sensor16read_temperature17he67c795f5d8b5e70E+0x82>
/mnt/c/stm32bluepill-mynewt-sensor/src/listen_sensor.rs:81
        let c_buf: *const c_char = device_get_name(device);
  82:	980d      	ldr	r0, [sp, #52]	; 0x34
  84:	f7ff fffe 	bl	0 <device_get_name>
  88:	900e      	str	r0, [sp, #56]	; 0x38
  8a:	e7ff      	b.n	8c <_ZN5mylib13listen_sensor16read_temperature17he67c795f5d8b5e70E+0x8c>
/mnt/c/stm32bluepill-mynewt-sensor/src/listen_sensor.rs:82
        let device_name: &CStr = CStr::from_ptr(c_buf);
  8c:	980e      	ldr	r0, [sp, #56]	; 0x38
  8e:	f7ff fffe 	bl	0 <_ZN9cstr_core4CStr8from_ptr17hf882b52c821e39a0E>
  92:	9001      	str	r0, [sp, #4]
  94:	9100      	str	r1, [sp, #0]
  96:	e7ff      	b.n	98 <_ZN5mylib13listen_sensor16read_temperature17he67c795f5d8b5e70E+0x98>
  98:	9801      	ldr	r0, [sp, #4]
  9a:	900f      	str	r0, [sp, #60]	; 0x3c
  9c:	9900      	ldr	r1, [sp, #0]
  9e:	9110      	str	r1, [sp, #64]	; 0x40
/mnt/c/stm32bluepill-mynewt-sensor/src/listen_sensor.rs:86
        let temp_sensor_value = get_temperature(sensor_data, sensor_type);
  a0:	9909      	ldr	r1, [sp, #36]	; 0x24
  a2:	9a0a      	ldr	r2, [sp, #40]	; 0x28
  a4:	9b0b      	ldr	r3, [sp, #44]	; 0x2c
  a6:	a811      	add	r0, sp, #68	; 0x44
  a8:	f7ff fffe 	bl	0 <_ZN5mylib13listen_sensor16read_temperature17he67c795f5d8b5e70E>
  ac:	e7ff      	b.n	ae <_ZN5mylib13listen_sensor16read_temperature17he67c795f5d8b5e70E+0xae>
/mnt/c/stm32bluepill-mynewt-sensor/src/listen_sensor.rs:87
        assert!(temp_sensor_value.val_type != 0);
  ae:	9812      	ldr	r0, [sp, #72]	; 0x48
  b0:	2800      	cmp	r0, #0
  b2:	d107      	bne.n	c4 <_ZN5mylib13listen_sensor16read_temperature17he67c795f5d8b5e70E+0xc4>
  b4:	e7ff      	b.n	b6 <_ZN5mylib13listen_sensor16read_temperature17he67c795f5d8b5e70E+0xb6>
  b6:	f240 0000 	movw	r0, #0
  ba:	f2c0 0000 	movt	r0, #0
  be:	f7ff fffe 	bl	0 <_ZN4core9panicking5panic17h53ca63c6ac6312f8E>
  c2:	defe      	udf	#254	; 0xfe
/mnt/c/stm32bluepill-mynewt-sensor/src/listen_sensor.rs:88
        if temp_sensor_value.val_type == 0 { return -1; }  //  Invalid type.
  c4:	9812      	ldr	r0, [sp, #72]	; 0x48
  c6:	2800      	cmp	r0, #0
  c8:	d105      	bne.n	d6 <_ZN5mylib13listen_sensor16read_temperature17he67c795f5d8b5e70E+0xd6>
  ca:	e7ff      	b.n	cc <_ZN5mylib13listen_sensor16read_temperature17he67c795f5d8b5e70E+0xcc>
  cc:	f04f 30ff 	mov.w	r0, #4294967295	; 0xffffffff
  d0:	900c      	str	r0, [sp, #48]	; 0x30
  d2:	e7ff      	b.n	d4 <_ZN5mylib13listen_sensor16read_temperature17he67c795f5d8b5e70E+0xd4>
  d4:	e7bc      	b.n	50 <_ZN5mylib13listen_sensor16read_temperature17he67c795f5d8b5e70E+0x50>
/mnt/c/stm32bluepill-mynewt-sensor/src/listen_sensor.rs:95
        let rc = send_sensor_data(&temp_sensor_value, device_name);
  d6:	990f      	ldr	r1, [sp, #60]	; 0x3c
  d8:	9a10      	ldr	r2, [sp, #64]	; 0x40
  da:	a811      	add	r0, sp, #68	; 0x44
  dc:	f7ff fffe 	bl	0 <_ZN5mylib9send_coap16send_sensor_data17h3747d7a54823f9e4E>
  e0:	9015      	str	r0, [sp, #84]	; 0x54
  e2:	e7ff      	b.n	e4 <_ZN5mylib13listen_sensor16read_temperature17he67c795f5d8b5e70E+0xe4>
/mnt/c/stm32bluepill-mynewt-sensor/src/listen_sensor.rs:99
        if rc == SYS_EAGAIN {
  e4:	9815      	ldr	r0, [sp, #84]	; 0x54
  e6:	3006      	adds	r0, #6
  e8:	2800      	cmp	r0, #0
  ea:	d10b      	bne.n	104 <_ZN5mylib13listen_sensor16read_temperature17he67c795f5d8b5e70E+0x104>
  ec:	e7ff      	b.n	ee <_ZN5mylib13listen_sensor16read_temperature17he67c795f5d8b5e70E+0xee>
/mnt/c/stm32bluepill-mynewt-sensor/src/listen_sensor.rs:100
            console_print(b"TMP network not ready\n");
  ee:	f240 0000 	movw	r0, #0
  f2:	f2c0 0000 	movt	r0, #0
  f6:	2116      	movs	r1, #22
  f8:	f7ff fffe 	bl	0 <_ZN5mylib4base13console_print17h47a7ec4e529b3d82E>
  fc:	e7ff      	b.n	fe <_ZN5mylib13listen_sensor16read_temperature17he67c795f5d8b5e70E+0xfe>
  fe:	2000      	movs	r0, #0
/mnt/c/stm32bluepill-mynewt-sensor/src/listen_sensor.rs:101
            return 0; 
 100:	900c      	str	r0, [sp, #48]	; 0x30
 102:	e7e7      	b.n	d4 <_ZN5mylib13listen_sensor16read_temperature17he67c795f5d8b5e70E+0xd4>
/mnt/c/stm32bluepill-mynewt-sensor/src/listen_sensor.rs:103
        assert!(rc == 0);
 104:	9815      	ldr	r0, [sp, #84]	; 0x54
 106:	2800      	cmp	r0, #0
 108:	d007      	beq.n	11a <_ZN5mylib13listen_sensor16read_temperature17he67c795f5d8b5e70E+0x11a>
 10a:	e7ff      	b.n	10c <_ZN5mylib13listen_sensor16read_temperature17he67c795f5d8b5e70E+0x10c>
 10c:	f240 0000 	movw	r0, #0
 110:	f2c0 0000 	movt	r0, #0
 114:	f7ff fffe 	bl	0 <_ZN4core9panicking5panic17h53ca63c6ac6312f8E>
 118:	defe      	udf	#254	; 0xfe
 11a:	2000      	movs	r0, #0
/mnt/c/stm32bluepill-mynewt-sensor/src/listen_sensor.rs:106
    0
 11c:	900c      	str	r0, [sp, #48]	; 0x30
/mnt/c/stm32bluepill-mynewt-sensor/src/listen_sensor.rs:107
}
 11e:	e797      	b.n	50 <_ZN5mylib13listen_sensor16read_temperature17he67c795f5d8b5e70E+0x50>

Disassembly of section .text._ZN5mylib13listen_sensor15get_temperature17h7483b06df62b9f7eE:

00000000 <_ZN5mylib13listen_sensor15get_temperature17h7483b06df62b9f7eE>:
_ZN5mylib13listen_sensor15get_temperature17h7483b06df62b9f7eE():
/mnt/c/stm32bluepill-mynewt-sensor/src/listen_sensor.rs:112

///  Get the temperature value, raw or computed.  `sensor_data` contains the raw or computed temperature. 
///  `sensor_type` indicates whether `sensor_data` contains raw or computed temperature.  We return 
///  the raw or computed temperature, as well as the key and value type.
fn get_temperature(sensor_data: *const CVoid, sensor_type: SensorType) -> SensorValue {
   0:	b510      	push	{r4, lr}
   2:	b096      	sub	sp, #88	; 0x58
   4:	469c      	mov	ip, r3
   6:	4696      	mov	lr, r2
   8:	460c      	mov	r4, r1
   a:	9105      	str	r1, [sp, #20]
   c:	9307      	str	r3, [sp, #28]
   e:	9206      	str	r2, [sp, #24]
/mnt/c/stm32bluepill-mynewt-sensor/src/listen_sensor.rs:114
    let mut return_value = SensorValue {
        key: b"\0".as_ptr(),
  10:	f240 0100 	movw	r1, #0
  14:	f2c0 0100 	movt	r1, #0
  18:	2201      	movs	r2, #1
  1a:	9004      	str	r0, [sp, #16]
  1c:	4608      	mov	r0, r1
  1e:	4611      	mov	r1, r2
  20:	f8cd c00c 	str.w	ip, [sp, #12]
  24:	f8cd e008 	str.w	lr, [sp, #8]
  28:	9401      	str	r4, [sp, #4]
  2a:	f7ff fffe 	bl	0 <_ZN4core5slice29_$LT$impl$u20$$u5b$T$u5d$$GT$6as_ptr17h6e6820e87d479c61E>
  2e:	9000      	str	r0, [sp, #0]
  30:	e7ff      	b.n	32 <_ZN5mylib13listen_sensor15get_temperature17h7483b06df62b9f7eE+0x32>
/mnt/c/stm32bluepill-mynewt-sensor/src/listen_sensor.rs:113
    let mut return_value = SensorValue {
  32:	9800      	ldr	r0, [sp, #0]
  34:	9009      	str	r0, [sp, #36]	; 0x24
  36:	2100      	movs	r1, #0
  38:	910a      	str	r1, [sp, #40]	; 0x28
  3a:	f8ad 102c 	strh.w	r1, [sp, #44]	; 0x2c
  3e:	910c      	str	r1, [sp, #48]	; 0x30
/mnt/c/stm32bluepill-mynewt-sensor/src/listen_sensor.rs:122
        float_val: 0.0,
    };
    unsafe {
        //assert!(sensor_data);
        match sensor_type {                                //  Is this raw or computed temperature?
            SENSOR_TYPE_AMBIENT_TEMPERATURE_RAW => {  //  If this is raw temperature...
  40:	9906      	ldr	r1, [sp, #24]
  42:	9a07      	ldr	r2, [sp, #28]
  44:	f081 6180 	eor.w	r1, r1, #67108864	; 0x4000000
  48:	4311      	orrs	r1, r2
  4a:	2900      	cmp	r1, #0
  4c:	d138      	bne.n	c0 <_ZN5mylib13listen_sensor15get_temperature17h7483b06df62b9f7eE+0xc0>
  4e:	e7ff      	b.n	50 <_ZN5mylib13listen_sensor15get_temperature17h7483b06df62b9f7eE+0x50>
  50:	2000      	movs	r0, #0
/mnt/c/stm32bluepill-mynewt-sensor/src/listen_sensor.rs:124
                //  Interpret the sensor data as a sensor_temp_raw_data struct that contains raw temp.
                let mut rawtempdata = SensorTempRawData {
  52:	900d      	str	r0, [sp, #52]	; 0x34
  54:	f88d 0038 	strb.w	r0, [sp, #56]	; 0x38
/mnt/c/stm32bluepill-mynewt-sensor/src/listen_sensor.rs:128
                    strd_temp_raw: 0,
                    strd_temp_raw_is_valid: 0,
                };
                let rc = get_temp_raw_data(sensor_data, &mut rawtempdata);
  58:	9805      	ldr	r0, [sp, #20]
  5a:	a90d      	add	r1, sp, #52	; 0x34
  5c:	f7ff fffe 	bl	0 <get_temp_raw_data>
  60:	900f      	str	r0, [sp, #60]	; 0x3c
  62:	e7ff      	b.n	64 <_ZN5mylib13listen_sensor15get_temperature17h7483b06df62b9f7eE+0x64>
/mnt/c/stm32bluepill-mynewt-sensor/src/listen_sensor.rs:129
                assert!(rc == 0);
  64:	980f      	ldr	r0, [sp, #60]	; 0x3c
  66:	2800      	cmp	r0, #0
  68:	d007      	beq.n	7a <_ZN5mylib13listen_sensor15get_temperature17h7483b06df62b9f7eE+0x7a>
  6a:	e7ff      	b.n	6c <_ZN5mylib13listen_sensor15get_temperature17h7483b06df62b9f7eE+0x6c>
  6c:	f240 0000 	movw	r0, #0
  70:	f2c0 0000 	movt	r0, #0
  74:	f7ff fffe 	bl	0 <_ZN4core9panicking5panic17h53ca63c6ac6312f8E>
  78:	defe      	udf	#254	; 0xfe
/mnt/c/stm32bluepill-mynewt-sensor/src/listen_sensor.rs:132

                //  Check that the raw temperature data is valid.
                if rawtempdata.strd_temp_raw_is_valid == 0 { return return_value; }  //  Exit if data is not valid
  7a:	f89d 0038 	ldrb.w	r0, [sp, #56]	; 0x38
  7e:	2800      	cmp	r0, #0
  80:	d112      	bne.n	a8 <_ZN5mylib13listen_sensor15get_temperature17h7483b06df62b9f7eE+0xa8>
  82:	e7ff      	b.n	84 <_ZN5mylib13listen_sensor15get_temperature17h7483b06df62b9f7eE+0x84>
  84:	9809      	ldr	r0, [sp, #36]	; 0x24
  86:	990a      	ldr	r1, [sp, #40]	; 0x28
  88:	9a0b      	ldr	r2, [sp, #44]	; 0x2c
  8a:	9b0c      	ldr	r3, [sp, #48]	; 0x30
  8c:	f8dd c010 	ldr.w	ip, [sp, #16]
  90:	f8cc 300c 	str.w	r3, [ip, #12]
  94:	f8cc 2008 	str.w	r2, [ip, #8]
  98:	f8cc 1004 	str.w	r1, [ip, #4]
  9c:	f8cc 0000 	str.w	r0, [ip]
  a0:	e001      	b.n	a6 <_ZN5mylib13listen_sensor15get_temperature17h7483b06df62b9f7eE+0xa6>
/mnt/c/stm32bluepill-mynewt-sensor/src/listen_sensor.rs:168
        //  Return the key and value type for raw or computed temperature, as defined in temp_stm32.h.
        return_value.key = TEMP_SENSOR_KEY;
        return_value.val_type = TEMP_SENSOR_VALUE_TYPE;
    };
    return_value
}
  a2:	b016      	add	sp, #88	; 0x58
  a4:	bd10      	pop	{r4, pc}
/mnt/c/stm32bluepill-mynewt-sensor/src/listen_sensor.rs:132
                if rawtempdata.strd_temp_raw_is_valid == 0 { return return_value; }  //  Exit if data is not valid
  a6:	e7fc      	b.n	a2 <_ZN5mylib13listen_sensor15get_temperature17h7483b06df62b9f7eE+0xa2>
/mnt/c/stm32bluepill-mynewt-sensor/src/listen_sensor.rs:135
                return_value.int_val = rawtempdata.strd_temp_raw as u16;  //  Raw Temperature in integer (0 to 4095)
  a8:	980d      	ldr	r0, [sp, #52]	; 0x34
  aa:	f8ad 002c 	strh.w	r0, [sp, #44]	; 0x2c
/mnt/c/stm32bluepill-mynewt-sensor/src/listen_sensor.rs:136
                console_print(b"TMP listener got rawtmp \n");  // return_value->int_val);
  ae:	f240 0000 	movw	r0, #0
  b2:	f2c0 0000 	movt	r0, #0
  b6:	2119      	movs	r1, #25
  b8:	f7ff fffe 	bl	0 <_ZN5mylib4base13console_print17h47a7ec4e529b3d82E>
  bc:	e7ff      	b.n	be <_ZN5mylib13listen_sensor15get_temperature17h7483b06df62b9f7eE+0xbe>
/mnt/c/stm32bluepill-mynewt-sensor/src/listen_sensor.rs:121
        match sensor_type {                                //  Is this raw or computed temperature?
  be:	e02f      	b.n	120 <_ZN5mylib13listen_sensor15get_temperature17h7483b06df62b9f7eE+0x120>
/mnt/c/stm32bluepill-mynewt-sensor/src/listen_sensor.rs:138
            SENSOR_TYPE_AMBIENT_TEMPERATURE => {      //  If this is computed temperature...
  c0:	9806      	ldr	r0, [sp, #24]
  c2:	9907      	ldr	r1, [sp, #28]
  c4:	9111      	str	r1, [sp, #68]	; 0x44
  c6:	9010      	str	r0, [sp, #64]	; 0x40
  c8:	2000      	movs	r0, #0
/mnt/c/stm32bluepill-mynewt-sensor/src/listen_sensor.rs:140
                let mut tempdata = SensorTempData {
  ca:	9013      	str	r0, [sp, #76]	; 0x4c
  cc:	f88d 0050 	strb.w	r0, [sp, #80]	; 0x50
/mnt/c/stm32bluepill-mynewt-sensor/src/listen_sensor.rs:144
                let rc = get_temp_data(sensor_data, &mut tempdata);
  d0:	9805      	ldr	r0, [sp, #20]
  d2:	a913      	add	r1, sp, #76	; 0x4c
  d4:	f7ff fffe 	bl	0 <get_temp_data>
  d8:	9015      	str	r0, [sp, #84]	; 0x54
  da:	e7ff      	b.n	dc <_ZN5mylib13listen_sensor15get_temperature17h7483b06df62b9f7eE+0xdc>
/mnt/c/stm32bluepill-mynewt-sensor/src/listen_sensor.rs:145
                assert!(rc == 0);
  dc:	9815      	ldr	r0, [sp, #84]	; 0x54
  de:	2800      	cmp	r0, #0
  e0:	d007      	beq.n	f2 <_ZN5mylib13listen_sensor15get_temperature17h7483b06df62b9f7eE+0xf2>
  e2:	e7ff      	b.n	e4 <_ZN5mylib13listen_sensor15get_temperature17h7483b06df62b9f7eE+0xe4>
  e4:	f240 0000 	movw	r0, #0
  e8:	f2c0 0000 	movt	r0, #0
  ec:	f7ff fffe 	bl	0 <_ZN4core9panicking5panic17h53ca63c6ac6312f8E>
  f0:	defe      	udf	#254	; 0xfe
/mnt/c/stm32bluepill-mynewt-sensor/src/listen_sensor.rs:148
                if tempdata.std_temp_is_valid == 0 { return return_value; }  //  Exit if data is not valid
  f2:	f89d 0050 	ldrb.w	r0, [sp, #80]	; 0x50
  f6:	2800      	cmp	r0, #0
  f8:	d10f      	bne.n	11a <_ZN5mylib13listen_sensor15get_temperature17h7483b06df62b9f7eE+0x11a>
  fa:	e7ff      	b.n	fc <_ZN5mylib13listen_sensor15get_temperature17h7483b06df62b9f7eE+0xfc>
  fc:	9809      	ldr	r0, [sp, #36]	; 0x24
  fe:	990a      	ldr	r1, [sp, #40]	; 0x28
 100:	9a0b      	ldr	r2, [sp, #44]	; 0x2c
 102:	9b0c      	ldr	r3, [sp, #48]	; 0x30
 104:	f8dd c010 	ldr.w	ip, [sp, #16]
 108:	f8cc 300c 	str.w	r3, [ip, #12]
 10c:	f8cc 2008 	str.w	r2, [ip, #8]
 110:	f8cc 1004 	str.w	r1, [ip, #4]
 114:	f8cc 0000 	str.w	r0, [ip]
 118:	e7c5      	b.n	a6 <_ZN5mylib13listen_sensor15get_temperature17h7483b06df62b9f7eE+0xa6>
/mnt/c/stm32bluepill-mynewt-sensor/src/listen_sensor.rs:151
                return_value.float_val = tempdata.std_temp;  //  Temperature in floating point.
 11a:	9813      	ldr	r0, [sp, #76]	; 0x4c
 11c:	900c      	str	r0, [sp, #48]	; 0x30
/mnt/c/stm32bluepill-mynewt-sensor/src/listen_sensor.rs:121
        match sensor_type {                                //  Is this raw or computed temperature?
 11e:	e7ff      	b.n	120 <_ZN5mylib13listen_sensor15get_temperature17h7483b06df62b9f7eE+0x120>
/mnt/c/stm32bluepill-mynewt-sensor/src/listen_sensor.rs:164
        return_value.key = TEMP_SENSOR_KEY;
 120:	f240 0000 	movw	r0, #0
 124:	f2c0 0000 	movt	r0, #0
 128:	9009      	str	r0, [sp, #36]	; 0x24
 12a:	2001      	movs	r0, #1
/mnt/c/stm32bluepill-mynewt-sensor/src/listen_sensor.rs:165
        return_value.val_type = TEMP_SENSOR_VALUE_TYPE;
 12c:	900a      	str	r0, [sp, #40]	; 0x28
/mnt/c/stm32bluepill-mynewt-sensor/src/listen_sensor.rs:167
    return_value
 12e:	9809      	ldr	r0, [sp, #36]	; 0x24
 130:	990a      	ldr	r1, [sp, #40]	; 0x28
 132:	9a0b      	ldr	r2, [sp, #44]	; 0x2c
 134:	9b0c      	ldr	r3, [sp, #48]	; 0x30
 136:	f8dd c010 	ldr.w	ip, [sp, #16]
 13a:	f8cc 300c 	str.w	r3, [ip, #12]
 13e:	f8cc 2008 	str.w	r2, [ip, #8]
 142:	f8cc 1004 	str.w	r1, [ip, #4]
 146:	f8cc 0000 	str.w	r0, [ip]
/mnt/c/stm32bluepill-mynewt-sensor/src/listen_sensor.rs:168
}
 14a:	e7aa      	b.n	a2 <_ZN5mylib13listen_sensor15get_temperature17h7483b06df62b9f7eE+0xa2>

mylib-ac95891f38e7979c.2k4h3n1psy8odh4v.rcgu.o:     file format elf32-littlearm

SYMBOL TABLE:
00000000 l    df *ABS*	00000000 2k4h3n1psy8odh4v
00000000 l       .debug_str	00000000 
00000041 l       .debug_str	00000000 
0000004c l       .debug_str	00000000 
0000006f l       .debug_str	00000000 
00000076 l       .debug_str	00000000 
0000007a l       .debug_str	00000000 
00000080 l       .debug_str	00000000 
00000089 l       .debug_str	00000000 
0000008e l       .debug_str	00000000 
00000093 l       .debug_str	00000000 
0000009a l       .debug_str	00000000 
0000009e l       .debug_str	00000000 
000000a3 l       .debug_str	00000000 
000000a6 l       .debug_str	00000000 
000000aa l       .debug_str	00000000 
000000f5 l       .debug_str	00000000 
000000f7 l       .debug_str	00000000 
000000fc l       .debug_str	00000000 
00000100 l       .debug_str	00000000 
00000153 l       .debug_str	00000000 
00000159 l       .debug_str	00000000 
0000015d l       .debug_str	00000000 
000001a9 l       .debug_str	00000000 
000001fd l       .debug_str	00000000 
00000203 l       .debug_str	00000000 
0000024f l       .debug_str	00000000 
000002a3 l       .debug_str	00000000 
000002a9 l       .debug_str	00000000 
000002fd l       .debug_str	00000000 
00000301 l       .debug_str	00000000 
00000307 l       .debug_str	00000000 
0000030f l       .debug_str	00000000 
0000036d l       .debug_str	00000000 
000003d3 l       .debug_str	00000000 
000003d7 l       .debug_str	00000000 
000003e4 l       .debug_str	00000000 
000003f8 l       .debug_str	00000000 
00000422 l       .debug_str	00000000 
0000046e l       .debug_str	00000000 
000004bb l       .debug_str	00000000 
00000507 l       .debug_str	00000000 
00000554 l       .debug_str	00000000 
00000558 l       .debug_str	00000000 
0000055e l       .debug_str	00000000 
000005b2 l       .debug_str	00000000 
000005b7 l       .debug_str	00000000 
00000601 l       .debug_str	00000000 
00000653 l       .debug_str	00000000 
00000660 l       .debug_str	00000000 
00000685 l       .debug_str	00000000 
0000068a l       .debug_str	00000000 
000006a5 l       .debug_str	00000000 
000006af l       .debug_str	00000000 
000006fb l       .debug_str	00000000 
00000748 l       .debug_str	00000000 
000007a7 l       .debug_str	00000000 
000007b5 l       .debug_str	00000000 
000007c9 l       .debug_str	00000000 
000007f3 l       .debug_str	00000000 
0000084a l       .debug_str	00000000 
000008a2 l       .debug_str	00000000 
000008ed l       .debug_str	00000000 
0000093a l       .debug_str	00000000 
00000999 l       .debug_str	00000000 
000009a0 l       .debug_str	00000000 
000009a3 l       .debug_str	00000000 
000009a7 l       .debug_str	00000000 
000009ae l       .debug_str	00000000 
000009b2 l       .debug_str	00000000 
000009b5 l       .debug_str	00000000 
000009b8 l       .debug_str	00000000 
000009bd l       .debug_str	00000000 
000009c3 l       .debug_str	00000000 
000009ca l       .debug_str	00000000 
000009d2 l       .debug_str	00000000 
000009dc l       .debug_str	00000000 
000009e5 l       .debug_str	00000000 
00000a2d l       .debug_str	00000000 
00000a9f l       .debug_str	00000000 
00000ae7 l       .debug_str	00000000 
00000b4e l       .debug_str	00000000 
00000b96 l       .debug_str	00000000 
00000bfd l       .debug_str	00000000 
00000c45 l       .debug_str	00000000 
00000cac l       .debug_str	00000000 
00000cf4 l       .debug_str	00000000 
00000d6d l       .debug_str	00000000 
00000db5 l       .debug_str	00000000 
00000e1a l       .debug_str	00000000 
00000e62 l       .debug_str	00000000 
00000ec8 l       .debug_str	00000000 
00000f10 l       .debug_str	00000000 
00000f77 l       .debug_str	00000000 
00000fd7 l       .debug_str	00000000 
00001028 l       .debug_str	00000000 
00001088 l       .debug_str	00000000 
000010d8 l       .debug_str	00000000 
00001138 l       .debug_str	00000000 
00001189 l       .debug_str	00000000 
000011e9 l       .debug_str	00000000 
0000123a l       .debug_str	00000000 
0000129a l       .debug_str	00000000 
000012f6 l       .debug_str	00000000 
00001356 l       .debug_str	00000000 
000013a5 l       .debug_str	00000000 
00001405 l       .debug_str	00000000 
00001456 l       .debug_str	00000000 
000014b6 l       .debug_str	00000000 
00001519 l       .debug_str	00000000 
0000151e l       .debug_str	00000000 
0000158c l       .debug_str	00000000 
000015fb l       .debug_str	00000000 
000015fd l       .debug_str	00000000 
00001603 l       .debug_str	00000000 
00001608 l       .debug_str	00000000 
0000160d l       .debug_str	00000000 
00001613 l       .debug_str	00000000 
00001619 l       .debug_str	00000000 
00001627 l       .debug_str	00000000 
00001631 l       .debug_str	00000000 
00001635 l       .debug_str	00000000 
0000163d l       .debug_str	00000000 
00001651 l       .debug_str	00000000 
0000165d l       .debug_str	00000000 
00001668 l       .debug_str	00000000 
0000166f l       .debug_str	00000000 
00001675 l       .debug_str	00000000 
00001679 l       .debug_str	00000000 
0000167f l       .debug_str	00000000 
00001685 l       .debug_str	00000000 
00001688 l       .debug_str	00000000 
00001697 l       .debug_str	00000000 
0000169e l       .debug_str	00000000 
000016a2 l       .debug_str	00000000 
000016ab l       .debug_str	00000000 
000016b7 l       .debug_str	00000000 
000016d0 l       .debug_str	00000000 
000016d5 l       .debug_str	00000000 
000016e6 l       .debug_str	00000000 
000016f0 l       .debug_str	00000000 
0000174e l       .debug_str	00000000 
00001759 l       .debug_str	00000000 
00001776 l       .debug_str	00000000 
0000177a l       .debug_str	00000000 
00001782 l       .debug_str	00000000 
00001799 l       .debug_str	00000000 
000017bd l       .debug_str	00000000 
000017d9 l       .debug_str	00000000 
000017de l       .debug_str	00000000 
000017e7 l       .debug_str	00000000 
000017ee l       .debug_str	00000000 
00001807 l       .debug_str	00000000 
00001811 l       .debug_str	00000000 
0000182b l       .debug_str	00000000 
0000188e l       .debug_str	00000000 
000018f2 l       .debug_str	00000000 
00001955 l       .debug_str	00000000 
000019b9 l       .debug_str	00000000 
00001a1c l       .debug_str	00000000 
00001a80 l       .debug_str	00000000 
00001af5 l       .debug_str	00000000 
00001b6b l       .debug_str	00000000 
00001bcc l       .debug_str	00000000 
00001c2e l       .debug_str	00000000 
00001c90 l       .debug_str	00000000 
00001cf3 l       .debug_str	00000000 
00001d56 l       .debug_str	00000000 
00001dba l       .debug_str	00000000 
00001dce l       .debug_str	00000000 
00001dd7 l       .debug_str	00000000 
00001dde l       .debug_str	00000000 
00001de9 l       .debug_str	00000000 
00001dee l       .debug_str	00000000 
00001df9 l       .debug_str	00000000 
00000000 l     O .rodata.cst4	00000004 .Lanon.d5f0973dc3544b9522e720f5ea22e3bf.0
00000000 l     O .rodata..Lanon.d5f0973dc3544b9522e720f5ea22e3bf.1	00000010 .Lanon.d5f0973dc3544b9522e720f5ea22e3bf.1
00000004 l     O .rodata.cst4	00000004 .Lanon.d5f0973dc3544b9522e720f5ea22e3bf.2
00000000 l     O .rodata..Lanon.d5f0973dc3544b9522e720f5ea22e3bf.3	00000010 .Lanon.d5f0973dc3544b9522e720f5ea22e3bf.3
00000000 l     O .rodata..Lanon.d5f0973dc3544b9522e720f5ea22e3bf.4	00000010 .Lanon.d5f0973dc3544b9522e720f5ea22e3bf.4
00000000 l     O .rodata..Lanon.d5f0973dc3544b9522e720f5ea22e3bf.5	00000010 .Lanon.d5f0973dc3544b9522e720f5ea22e3bf.5
00000000 l     O .rodata..Lanon.d5f0973dc3544b9522e720f5ea22e3bf.6	00000010 .Lanon.d5f0973dc3544b9522e720f5ea22e3bf.6
00000000 l     O .rodata..Lanon.d5f0973dc3544b9522e720f5ea22e3bf.7	00000010 .Lanon.d5f0973dc3544b9522e720f5ea22e3bf.7
00000000 l     O .rodata..Lanon.d5f0973dc3544b9522e720f5ea22e3bf.8	00000010 .Lanon.d5f0973dc3544b9522e720f5ea22e3bf.8
00000000 l     O .rodata..Lanon.d5f0973dc3544b9522e720f5ea22e3bf.9	00000010 .Lanon.d5f0973dc3544b9522e720f5ea22e3bf.9
00000000 l    d  .text._ZN42_$LT$$RF$T$u20$as$u20$core..fmt..Debug$GT$3fmt17h0c21683c9d2bfeceE	00000000 .text._ZN42_$LT$$RF$T$u20$as$u20$core..fmt..Debug$GT$3fmt17h0c21683c9d2bfeceE
00000000 l    d  .text._ZN42_$LT$$RF$T$u20$as$u20$core..fmt..Debug$GT$3fmt17h25a26d7d48aac3b9E	00000000 .text._ZN42_$LT$$RF$T$u20$as$u20$core..fmt..Debug$GT$3fmt17h25a26d7d48aac3b9E
00000000 l    d  .text._ZN42_$LT$$RF$T$u20$as$u20$core..fmt..Debug$GT$3fmt17h5fd6263074f64a99E	00000000 .text._ZN42_$LT$$RF$T$u20$as$u20$core..fmt..Debug$GT$3fmt17h5fd6263074f64a99E
00000000 l    d  .text._ZN42_$LT$$RF$T$u20$as$u20$core..fmt..Debug$GT$3fmt17had08eee5cd3e65a1E	00000000 .text._ZN42_$LT$$RF$T$u20$as$u20$core..fmt..Debug$GT$3fmt17had08eee5cd3e65a1E
00000000 l    d  .text._ZN42_$LT$$RF$T$u20$as$u20$core..fmt..Debug$GT$3fmt17hb64caf74c2703e58E	00000000 .text._ZN42_$LT$$RF$T$u20$as$u20$core..fmt..Debug$GT$3fmt17hb64caf74c2703e58E
00000000 l    d  .text._ZN42_$LT$$RF$T$u20$as$u20$core..fmt..Debug$GT$3fmt17hbefdaa3577e13c01E	00000000 .text._ZN42_$LT$$RF$T$u20$as$u20$core..fmt..Debug$GT$3fmt17hbefdaa3577e13c01E
00000000 l    d  .text._ZN42_$LT$$RF$T$u20$as$u20$core..fmt..Debug$GT$3fmt17hdf94cee545ddf2f8E	00000000 .text._ZN42_$LT$$RF$T$u20$as$u20$core..fmt..Debug$GT$3fmt17hdf94cee545ddf2f8E
00000000 l    d  .text._ZN42_$LT$$RF$T$u20$as$u20$core..fmt..Debug$GT$3fmt17hf576125482bddf7eE	00000000 .text._ZN42_$LT$$RF$T$u20$as$u20$core..fmt..Debug$GT$3fmt17hf576125482bddf7eE
00000000 l    d  .text._ZN66_$LT$core..option..Option$LT$T$GT$$u20$as$u20$core..fmt..Debug$GT$3fmt17h33876849b2a9c095E	00000000 .text._ZN66_$LT$core..option..Option$LT$T$GT$$u20$as$u20$core..fmt..Debug$GT$3fmt17h33876849b2a9c095E
00000000 l    d  .text._ZN66_$LT$core..option..Option$LT$T$GT$$u20$as$u20$core..fmt..Debug$GT$3fmt17h344b262ceadfbf97E	00000000 .text._ZN66_$LT$core..option..Option$LT$T$GT$$u20$as$u20$core..fmt..Debug$GT$3fmt17h344b262ceadfbf97E
00000000 l    d  .text._ZN66_$LT$core..option..Option$LT$T$GT$$u20$as$u20$core..fmt..Debug$GT$3fmt17h3aa0490133e062a2E	00000000 .text._ZN66_$LT$core..option..Option$LT$T$GT$$u20$as$u20$core..fmt..Debug$GT$3fmt17h3aa0490133e062a2E
00000000 l    d  .text._ZN66_$LT$core..option..Option$LT$T$GT$$u20$as$u20$core..fmt..Debug$GT$3fmt17hae112d23d1e993a3E	00000000 .text._ZN66_$LT$core..option..Option$LT$T$GT$$u20$as$u20$core..fmt..Debug$GT$3fmt17hae112d23d1e993a3E
00000000 l    d  .text._ZN66_$LT$core..option..Option$LT$T$GT$$u20$as$u20$core..fmt..Debug$GT$3fmt17hbf1bc92c5a3543daE	00000000 .text._ZN66_$LT$core..option..Option$LT$T$GT$$u20$as$u20$core..fmt..Debug$GT$3fmt17hbf1bc92c5a3543daE
00000000 l    d  .text._ZN66_$LT$core..option..Option$LT$T$GT$$u20$as$u20$core..fmt..Debug$GT$3fmt17hc554afe952d95bc1E	00000000 .text._ZN66_$LT$core..option..Option$LT$T$GT$$u20$as$u20$core..fmt..Debug$GT$3fmt17hc554afe952d95bc1E
00000000 l    d  .text._ZN66_$LT$core..option..Option$LT$T$GT$$u20$as$u20$core..fmt..Debug$GT$3fmt17hd060c1b27ab92beaE	00000000 .text._ZN66_$LT$core..option..Option$LT$T$GT$$u20$as$u20$core..fmt..Debug$GT$3fmt17hd060c1b27ab92beaE
00000000 l    d  .text._ZN66_$LT$core..option..Option$LT$T$GT$$u20$as$u20$core..fmt..Debug$GT$3fmt17hda8ccfcdd65f224eE	00000000 .text._ZN66_$LT$core..option..Option$LT$T$GT$$u20$as$u20$core..fmt..Debug$GT$3fmt17hda8ccfcdd65f224eE
00000000 l    d  .rodata..Lanon.d5f0973dc3544b9522e720f5ea22e3bf.1	00000000 .rodata..Lanon.d5f0973dc3544b9522e720f5ea22e3bf.1
00000000 l    d  .rodata..Lanon.d5f0973dc3544b9522e720f5ea22e3bf.3	00000000 .rodata..Lanon.d5f0973dc3544b9522e720f5ea22e3bf.3
00000000 l    d  .rodata..Lanon.d5f0973dc3544b9522e720f5ea22e3bf.4	00000000 .rodata..Lanon.d5f0973dc3544b9522e720f5ea22e3bf.4
00000000 l    d  .rodata..Lanon.d5f0973dc3544b9522e720f5ea22e3bf.5	00000000 .rodata..Lanon.d5f0973dc3544b9522e720f5ea22e3bf.5
00000000 l    d  .rodata..Lanon.d5f0973dc3544b9522e720f5ea22e3bf.6	00000000 .rodata..Lanon.d5f0973dc3544b9522e720f5ea22e3bf.6
00000000 l    d  .rodata..Lanon.d5f0973dc3544b9522e720f5ea22e3bf.7	00000000 .rodata..Lanon.d5f0973dc3544b9522e720f5ea22e3bf.7
00000000 l    d  .rodata..Lanon.d5f0973dc3544b9522e720f5ea22e3bf.8	00000000 .rodata..Lanon.d5f0973dc3544b9522e720f5ea22e3bf.8
00000000 l    d  .rodata..Lanon.d5f0973dc3544b9522e720f5ea22e3bf.9	00000000 .rodata..Lanon.d5f0973dc3544b9522e720f5ea22e3bf.9
00000000 l    d  .debug_abbrev	00000000 .debug_abbrev
00000000 l    d  .debug_info	00000000 .debug_info
00000000 l    d  .debug_ranges	00000000 .debug_ranges
00000000 l    d  .debug_frame	00000000 .debug_frame
00000000 l    d  .debug_line	00000000 .debug_line
00000000 g     F .text._ZN42_$LT$$RF$T$u20$as$u20$core..fmt..Debug$GT$3fmt17h0c21683c9d2bfeceE	00000028 _ZN42_$LT$$RF$T$u20$as$u20$core..fmt..Debug$GT$3fmt17h0c21683c9d2bfeceE
00000000 g     F .text._ZN42_$LT$$RF$T$u20$as$u20$core..fmt..Debug$GT$3fmt17h25a26d7d48aac3b9E	00000028 _ZN42_$LT$$RF$T$u20$as$u20$core..fmt..Debug$GT$3fmt17h25a26d7d48aac3b9E
00000000         *UND*	00000000 _ZN42_$LT$$RF$T$u20$as$u20$core..fmt..Debug$GT$3fmt17h3b22989b59c13fbaE
00000000 g     F .text._ZN42_$LT$$RF$T$u20$as$u20$core..fmt..Debug$GT$3fmt17h5fd6263074f64a99E	00000028 _ZN42_$LT$$RF$T$u20$as$u20$core..fmt..Debug$GT$3fmt17h5fd6263074f64a99E
00000000         *UND*	00000000 _ZN42_$LT$$RF$T$u20$as$u20$core..fmt..Debug$GT$3fmt17h671ab38b07ec6365E
00000000 g     F .text._ZN42_$LT$$RF$T$u20$as$u20$core..fmt..Debug$GT$3fmt17had08eee5cd3e65a1E	00000028 _ZN42_$LT$$RF$T$u20$as$u20$core..fmt..Debug$GT$3fmt17had08eee5cd3e65a1E
00000000         *UND*	00000000 _ZN42_$LT$$RF$T$u20$as$u20$core..fmt..Debug$GT$3fmt17hb1b3a675057661aaE
00000000 g     F .text._ZN42_$LT$$RF$T$u20$as$u20$core..fmt..Debug$GT$3fmt17hb64caf74c2703e58E	00000028 _ZN42_$LT$$RF$T$u20$as$u20$core..fmt..Debug$GT$3fmt17hb64caf74c2703e58E
00000000 g     F .text._ZN42_$LT$$RF$T$u20$as$u20$core..fmt..Debug$GT$3fmt17hbefdaa3577e13c01E	00000028 _ZN42_$LT$$RF$T$u20$as$u20$core..fmt..Debug$GT$3fmt17hbefdaa3577e13c01E
00000000         *UND*	00000000 _ZN42_$LT$$RF$T$u20$as$u20$core..fmt..Debug$GT$3fmt17hc304e62f7d6e24f0E
00000000         *UND*	00000000 _ZN42_$LT$$RF$T$u20$as$u20$core..fmt..Debug$GT$3fmt17hc6de9a1edbf0526cE
00000000         *UND*	00000000 _ZN42_$LT$$RF$T$u20$as$u20$core..fmt..Debug$GT$3fmt17hd087cf1e09c84ec6E
00000000         *UND*	00000000 _ZN42_$LT$$RF$T$u20$as$u20$core..fmt..Debug$GT$3fmt17hd842842b034329e8E
00000000 g     F .text._ZN42_$LT$$RF$T$u20$as$u20$core..fmt..Debug$GT$3fmt17hdf94cee545ddf2f8E	00000028 _ZN42_$LT$$RF$T$u20$as$u20$core..fmt..Debug$GT$3fmt17hdf94cee545ddf2f8E
00000000         *UND*	00000000 _ZN42_$LT$$RF$T$u20$as$u20$core..fmt..Debug$GT$3fmt17he9da4ceea7923adcE
00000000 g     F .text._ZN42_$LT$$RF$T$u20$as$u20$core..fmt..Debug$GT$3fmt17hf576125482bddf7eE	00000028 _ZN42_$LT$$RF$T$u20$as$u20$core..fmt..Debug$GT$3fmt17hf576125482bddf7eE
00000000         *UND*	00000000 _ZN4core3fmt8builders10DebugTuple5field17h7da5ac79cde13c49E
00000000         *UND*	00000000 _ZN4core3fmt8builders10DebugTuple6finish17h24d91625b3672e6dE
00000000         *UND*	00000000 _ZN4core3fmt9Formatter11debug_tuple17h793087e8ecab9022E
00000000         *UND*	00000000 _ZN4core3ptr18real_drop_in_place17h0da6d1fd9ba9e3d1E
00000000         *UND*	00000000 _ZN4core3ptr18real_drop_in_place17h2d2de804dbfef4e8E
00000000         *UND*	00000000 _ZN4core3ptr18real_drop_in_place17h31071160d664b448E
00000000         *UND*	00000000 _ZN4core3ptr18real_drop_in_place17h3918ec468d425837E
00000000         *UND*	00000000 _ZN4core3ptr18real_drop_in_place17h50b771f68ca5bbf7E
00000000         *UND*	00000000 _ZN4core3ptr18real_drop_in_place17h8433721386110a46E
00000000         *UND*	00000000 _ZN4core3ptr18real_drop_in_place17hd9bb586f93ae8e74E
00000000         *UND*	00000000 _ZN4core3ptr18real_drop_in_place17hf87957598e288e9bE
00000000 g     F .text._ZN66_$LT$core..option..Option$LT$T$GT$$u20$as$u20$core..fmt..Debug$GT$3fmt17h33876849b2a9c095E	0000009a _ZN66_$LT$core..option..Option$LT$T$GT$$u20$as$u20$core..fmt..Debug$GT$3fmt17h33876849b2a9c095E
00000000 g     F .text._ZN66_$LT$core..option..Option$LT$T$GT$$u20$as$u20$core..fmt..Debug$GT$3fmt17h344b262ceadfbf97E	0000009a _ZN66_$LT$core..option..Option$LT$T$GT$$u20$as$u20$core..fmt..Debug$GT$3fmt17h344b262ceadfbf97E
00000000 g     F .text._ZN66_$LT$core..option..Option$LT$T$GT$$u20$as$u20$core..fmt..Debug$GT$3fmt17h3aa0490133e062a2E	0000009a _ZN66_$LT$core..option..Option$LT$T$GT$$u20$as$u20$core..fmt..Debug$GT$3fmt17h3aa0490133e062a2E
00000000 g     F .text._ZN66_$LT$core..option..Option$LT$T$GT$$u20$as$u20$core..fmt..Debug$GT$3fmt17hae112d23d1e993a3E	0000009a _ZN66_$LT$core..option..Option$LT$T$GT$$u20$as$u20$core..fmt..Debug$GT$3fmt17hae112d23d1e993a3E
00000000 g     F .text._ZN66_$LT$core..option..Option$LT$T$GT$$u20$as$u20$core..fmt..Debug$GT$3fmt17hbf1bc92c5a3543daE	0000009a _ZN66_$LT$core..option..Option$LT$T$GT$$u20$as$u20$core..fmt..Debug$GT$3fmt17hbf1bc92c5a3543daE
00000000 g     F .text._ZN66_$LT$core..option..Option$LT$T$GT$$u20$as$u20$core..fmt..Debug$GT$3fmt17hc554afe952d95bc1E	0000009a _ZN66_$LT$core..option..Option$LT$T$GT$$u20$as$u20$core..fmt..Debug$GT$3fmt17hc554afe952d95bc1E
00000000 g     F .text._ZN66_$LT$core..option..Option$LT$T$GT$$u20$as$u20$core..fmt..Debug$GT$3fmt17hd060c1b27ab92beaE	0000009a _ZN66_$LT$core..option..Option$LT$T$GT$$u20$as$u20$core..fmt..Debug$GT$3fmt17hd060c1b27ab92beaE
00000000 g     F .text._ZN66_$LT$core..option..Option$LT$T$GT$$u20$as$u20$core..fmt..Debug$GT$3fmt17hda8ccfcdd65f224eE	0000009a _ZN66_$LT$core..option..Option$LT$T$GT$$u20$as$u20$core..fmt..Debug$GT$3fmt17hda8ccfcdd65f224eE



Disassembly of section .text._ZN42_$LT$$RF$T$u20$as$u20$core..fmt..Debug$GT$3fmt17h0c21683c9d2bfeceE:

00000000 <_ZN42_$LT$$RF$T$u20$as$u20$core..fmt..Debug$GT$3fmt17h0c21683c9d2bfeceE>:
_ZN42_$LT$$RF$T$u20$as$u20$core..fmt..Debug$GT$3fmt17h0c21683c9d2bfeceE():
/rustc/50a0defd5a93523067ef239936cc2e0755220904/src/libcore/fmt/mod.rs:1914
   0:	b580      	push	{r7, lr}
   2:	b086      	sub	sp, #24
   4:	460a      	mov	r2, r1
   6:	4603      	mov	r3, r0
   8:	9004      	str	r0, [sp, #16]
   a:	9105      	str	r1, [sp, #20]
   c:	9804      	ldr	r0, [sp, #16]
   e:	6800      	ldr	r0, [r0, #0]
  10:	9905      	ldr	r1, [sp, #20]
  12:	9203      	str	r2, [sp, #12]
  14:	9302      	str	r3, [sp, #8]
  16:	f7ff fffe 	bl	0 <_ZN42_$LT$$RF$T$u20$as$u20$core..fmt..Debug$GT$3fmt17h0c21683c9d2bfeceE>
  1a:	9001      	str	r0, [sp, #4]
  1c:	e7ff      	b.n	1e <_ZN42_$LT$$RF$T$u20$as$u20$core..fmt..Debug$GT$3fmt17h0c21683c9d2bfeceE+0x1e>
  1e:	9801      	ldr	r0, [sp, #4]
  20:	f000 0001 	and.w	r0, r0, #1
  24:	b006      	add	sp, #24
  26:	bd80      	pop	{r7, pc}

Disassembly of section .text._ZN42_$LT$$RF$T$u20$as$u20$core..fmt..Debug$GT$3fmt17h25a26d7d48aac3b9E:

00000000 <_ZN42_$LT$$RF$T$u20$as$u20$core..fmt..Debug$GT$3fmt17h25a26d7d48aac3b9E>:
_ZN42_$LT$$RF$T$u20$as$u20$core..fmt..Debug$GT$3fmt17h25a26d7d48aac3b9E():
/rustc/50a0defd5a93523067ef239936cc2e0755220904/src/libcore/fmt/mod.rs:1914
   0:	b580      	push	{r7, lr}
   2:	b086      	sub	sp, #24
   4:	460a      	mov	r2, r1
   6:	4603      	mov	r3, r0
   8:	9004      	str	r0, [sp, #16]
   a:	9105      	str	r1, [sp, #20]
   c:	9804      	ldr	r0, [sp, #16]
   e:	6800      	ldr	r0, [r0, #0]
  10:	9905      	ldr	r1, [sp, #20]
  12:	9203      	str	r2, [sp, #12]
  14:	9302      	str	r3, [sp, #8]
  16:	f7ff fffe 	bl	0 <_ZN42_$LT$$RF$T$u20$as$u20$core..fmt..Debug$GT$3fmt17h25a26d7d48aac3b9E>
  1a:	9001      	str	r0, [sp, #4]
  1c:	e7ff      	b.n	1e <_ZN42_$LT$$RF$T$u20$as$u20$core..fmt..Debug$GT$3fmt17h25a26d7d48aac3b9E+0x1e>
  1e:	9801      	ldr	r0, [sp, #4]
  20:	f000 0001 	and.w	r0, r0, #1
  24:	b006      	add	sp, #24
  26:	bd80      	pop	{r7, pc}

Disassembly of section .text._ZN42_$LT$$RF$T$u20$as$u20$core..fmt..Debug$GT$3fmt17h5fd6263074f64a99E:

00000000 <_ZN42_$LT$$RF$T$u20$as$u20$core..fmt..Debug$GT$3fmt17h5fd6263074f64a99E>:
_ZN42_$LT$$RF$T$u20$as$u20$core..fmt..Debug$GT$3fmt17h5fd6263074f64a99E():
/rustc/50a0defd5a93523067ef239936cc2e0755220904/src/libcore/fmt/mod.rs:1914
   0:	b580      	push	{r7, lr}
   2:	b086      	sub	sp, #24
   4:	460a      	mov	r2, r1
   6:	4603      	mov	r3, r0
   8:	9004      	str	r0, [sp, #16]
   a:	9105      	str	r1, [sp, #20]
   c:	9804      	ldr	r0, [sp, #16]
   e:	6800      	ldr	r0, [r0, #0]
  10:	9905      	ldr	r1, [sp, #20]
  12:	9203      	str	r2, [sp, #12]
  14:	9302      	str	r3, [sp, #8]
  16:	f7ff fffe 	bl	0 <_ZN42_$LT$$RF$T$u20$as$u20$core..fmt..Debug$GT$3fmt17h5fd6263074f64a99E>
  1a:	9001      	str	r0, [sp, #4]
  1c:	e7ff      	b.n	1e <_ZN42_$LT$$RF$T$u20$as$u20$core..fmt..Debug$GT$3fmt17h5fd6263074f64a99E+0x1e>
  1e:	9801      	ldr	r0, [sp, #4]
  20:	f000 0001 	and.w	r0, r0, #1
  24:	b006      	add	sp, #24
  26:	bd80      	pop	{r7, pc}

Disassembly of section .text._ZN42_$LT$$RF$T$u20$as$u20$core..fmt..Debug$GT$3fmt17had08eee5cd3e65a1E:

00000000 <_ZN42_$LT$$RF$T$u20$as$u20$core..fmt..Debug$GT$3fmt17had08eee5cd3e65a1E>:
_ZN42_$LT$$RF$T$u20$as$u20$core..fmt..Debug$GT$3fmt17had08eee5cd3e65a1E():
/rustc/50a0defd5a93523067ef239936cc2e0755220904/src/libcore/fmt/mod.rs:1914
   0:	b580      	push	{r7, lr}
   2:	b086      	sub	sp, #24
   4:	460a      	mov	r2, r1
   6:	4603      	mov	r3, r0
   8:	9004      	str	r0, [sp, #16]
   a:	9105      	str	r1, [sp, #20]
   c:	9804      	ldr	r0, [sp, #16]
   e:	6800      	ldr	r0, [r0, #0]
  10:	9905      	ldr	r1, [sp, #20]
  12:	9203      	str	r2, [sp, #12]
  14:	9302      	str	r3, [sp, #8]
  16:	f7ff fffe 	bl	0 <_ZN42_$LT$$RF$T$u20$as$u20$core..fmt..Debug$GT$3fmt17had08eee5cd3e65a1E>
  1a:	9001      	str	r0, [sp, #4]
  1c:	e7ff      	b.n	1e <_ZN42_$LT$$RF$T$u20$as$u20$core..fmt..Debug$GT$3fmt17had08eee5cd3e65a1E+0x1e>
  1e:	9801      	ldr	r0, [sp, #4]
  20:	f000 0001 	and.w	r0, r0, #1
  24:	b006      	add	sp, #24
  26:	bd80      	pop	{r7, pc}

Disassembly of section .text._ZN42_$LT$$RF$T$u20$as$u20$core..fmt..Debug$GT$3fmt17hb64caf74c2703e58E:

00000000 <_ZN42_$LT$$RF$T$u20$as$u20$core..fmt..Debug$GT$3fmt17hb64caf74c2703e58E>:
_ZN42_$LT$$RF$T$u20$as$u20$core..fmt..Debug$GT$3fmt17hb64caf74c2703e58E():
/rustc/50a0defd5a93523067ef239936cc2e0755220904/src/libcore/fmt/mod.rs:1914
   0:	b580      	push	{r7, lr}
   2:	b086      	sub	sp, #24
   4:	460a      	mov	r2, r1
   6:	4603      	mov	r3, r0
   8:	9004      	str	r0, [sp, #16]
   a:	9105      	str	r1, [sp, #20]
   c:	9804      	ldr	r0, [sp, #16]
   e:	6800      	ldr	r0, [r0, #0]
  10:	9905      	ldr	r1, [sp, #20]
  12:	9203      	str	r2, [sp, #12]
  14:	9302      	str	r3, [sp, #8]
  16:	f7ff fffe 	bl	0 <_ZN42_$LT$$RF$T$u20$as$u20$core..fmt..Debug$GT$3fmt17hb64caf74c2703e58E>
  1a:	9001      	str	r0, [sp, #4]
  1c:	e7ff      	b.n	1e <_ZN42_$LT$$RF$T$u20$as$u20$core..fmt..Debug$GT$3fmt17hb64caf74c2703e58E+0x1e>
  1e:	9801      	ldr	r0, [sp, #4]
  20:	f000 0001 	and.w	r0, r0, #1
  24:	b006      	add	sp, #24
  26:	bd80      	pop	{r7, pc}

Disassembly of section .text._ZN42_$LT$$RF$T$u20$as$u20$core..fmt..Debug$GT$3fmt17hbefdaa3577e13c01E:

00000000 <_ZN42_$LT$$RF$T$u20$as$u20$core..fmt..Debug$GT$3fmt17hbefdaa3577e13c01E>:
_ZN42_$LT$$RF$T$u20$as$u20$core..fmt..Debug$GT$3fmt17hbefdaa3577e13c01E():
/rustc/50a0defd5a93523067ef239936cc2e0755220904/src/libcore/fmt/mod.rs:1914
   0:	b580      	push	{r7, lr}
   2:	b086      	sub	sp, #24
   4:	460a      	mov	r2, r1
   6:	4603      	mov	r3, r0
   8:	9004      	str	r0, [sp, #16]
   a:	9105      	str	r1, [sp, #20]
   c:	9804      	ldr	r0, [sp, #16]
   e:	6800      	ldr	r0, [r0, #0]
  10:	9905      	ldr	r1, [sp, #20]
  12:	9203      	str	r2, [sp, #12]
  14:	9302      	str	r3, [sp, #8]
  16:	f7ff fffe 	bl	0 <_ZN42_$LT$$RF$T$u20$as$u20$core..fmt..Debug$GT$3fmt17hbefdaa3577e13c01E>
  1a:	9001      	str	r0, [sp, #4]
  1c:	e7ff      	b.n	1e <_ZN42_$LT$$RF$T$u20$as$u20$core..fmt..Debug$GT$3fmt17hbefdaa3577e13c01E+0x1e>
  1e:	9801      	ldr	r0, [sp, #4]
  20:	f000 0001 	and.w	r0, r0, #1
  24:	b006      	add	sp, #24
  26:	bd80      	pop	{r7, pc}

Disassembly of section .text._ZN42_$LT$$RF$T$u20$as$u20$core..fmt..Debug$GT$3fmt17hdf94cee545ddf2f8E:

00000000 <_ZN42_$LT$$RF$T$u20$as$u20$core..fmt..Debug$GT$3fmt17hdf94cee545ddf2f8E>:
_ZN42_$LT$$RF$T$u20$as$u20$core..fmt..Debug$GT$3fmt17hdf94cee545ddf2f8E():
/rustc/50a0defd5a93523067ef239936cc2e0755220904/src/libcore/fmt/mod.rs:1914
   0:	b580      	push	{r7, lr}
   2:	b086      	sub	sp, #24
   4:	460a      	mov	r2, r1
   6:	4603      	mov	r3, r0
   8:	9004      	str	r0, [sp, #16]
   a:	9105      	str	r1, [sp, #20]
   c:	9804      	ldr	r0, [sp, #16]
   e:	6800      	ldr	r0, [r0, #0]
  10:	9905      	ldr	r1, [sp, #20]
  12:	9203      	str	r2, [sp, #12]
  14:	9302      	str	r3, [sp, #8]
  16:	f7ff fffe 	bl	0 <_ZN42_$LT$$RF$T$u20$as$u20$core..fmt..Debug$GT$3fmt17hdf94cee545ddf2f8E>
  1a:	9001      	str	r0, [sp, #4]
  1c:	e7ff      	b.n	1e <_ZN42_$LT$$RF$T$u20$as$u20$core..fmt..Debug$GT$3fmt17hdf94cee545ddf2f8E+0x1e>
  1e:	9801      	ldr	r0, [sp, #4]
  20:	f000 0001 	and.w	r0, r0, #1
  24:	b006      	add	sp, #24
  26:	bd80      	pop	{r7, pc}

Disassembly of section .text._ZN42_$LT$$RF$T$u20$as$u20$core..fmt..Debug$GT$3fmt17hf576125482bddf7eE:

00000000 <_ZN42_$LT$$RF$T$u20$as$u20$core..fmt..Debug$GT$3fmt17hf576125482bddf7eE>:
_ZN42_$LT$$RF$T$u20$as$u20$core..fmt..Debug$GT$3fmt17hf576125482bddf7eE():
/rustc/50a0defd5a93523067ef239936cc2e0755220904/src/libcore/fmt/mod.rs:1914
   0:	b580      	push	{r7, lr}
   2:	b086      	sub	sp, #24
   4:	460a      	mov	r2, r1
   6:	4603      	mov	r3, r0
   8:	9004      	str	r0, [sp, #16]
   a:	9105      	str	r1, [sp, #20]
   c:	9804      	ldr	r0, [sp, #16]
   e:	6800      	ldr	r0, [r0, #0]
  10:	9905      	ldr	r1, [sp, #20]
  12:	9203      	str	r2, [sp, #12]
  14:	9302      	str	r3, [sp, #8]
  16:	f7ff fffe 	bl	0 <_ZN42_$LT$$RF$T$u20$as$u20$core..fmt..Debug$GT$3fmt17hf576125482bddf7eE>
  1a:	9001      	str	r0, [sp, #4]
  1c:	e7ff      	b.n	1e <_ZN42_$LT$$RF$T$u20$as$u20$core..fmt..Debug$GT$3fmt17hf576125482bddf7eE+0x1e>
  1e:	9801      	ldr	r0, [sp, #4]
  20:	f000 0001 	and.w	r0, r0, #1
  24:	b006      	add	sp, #24
  26:	bd80      	pop	{r7, pc}

Disassembly of section .text._ZN66_$LT$core..option..Option$LT$T$GT$$u20$as$u20$core..fmt..Debug$GT$3fmt17h33876849b2a9c095E:

00000000 <_ZN66_$LT$core..option..Option$LT$T$GT$$u20$as$u20$core..fmt..Debug$GT$3fmt17h33876849b2a9c095E>:
_ZN66_$LT$core..option..Option$LT$T$GT$$u20$as$u20$core..fmt..Debug$GT$3fmt17h33876849b2a9c095E():
/rustc/50a0defd5a93523067ef239936cc2e0755220904/src/libcore/option.rs:148
   0:	b580      	push	{r7, lr}
   2:	b090      	sub	sp, #64	; 0x40
   4:	460a      	mov	r2, r1
   6:	4603      	mov	r3, r0
   8:	9004      	str	r0, [sp, #16]
   a:	9105      	str	r1, [sp, #20]
   c:	9804      	ldr	r0, [sp, #16]
   e:	9007      	str	r0, [sp, #28]
  10:	9807      	ldr	r0, [sp, #28]
  12:	6800      	ldr	r0, [r0, #0]
  14:	2800      	cmp	r0, #0
  16:	4601      	mov	r1, r0
  18:	bf18      	it	ne
  1a:	2101      	movne	r1, #1
  1c:	2800      	cmp	r0, #0
  1e:	9203      	str	r2, [sp, #12]
  20:	9302      	str	r3, [sp, #8]
  22:	9101      	str	r1, [sp, #4]
  24:	d005      	beq.n	32 <_ZN66_$LT$core..option..Option$LT$T$GT$$u20$as$u20$core..fmt..Debug$GT$3fmt17h33876849b2a9c095E+0x32>
  26:	e7ff      	b.n	28 <_ZN66_$LT$core..option..Option$LT$T$GT$$u20$as$u20$core..fmt..Debug$GT$3fmt17h33876849b2a9c095E+0x28>
  28:	9801      	ldr	r0, [sp, #4]
  2a:	2801      	cmp	r0, #1
  2c:	d012      	beq.n	54 <_ZN66_$LT$core..option..Option$LT$T$GT$$u20$as$u20$core..fmt..Debug$GT$3fmt17h33876849b2a9c095E+0x54>
  2e:	e7ff      	b.n	30 <_ZN66_$LT$core..option..Option$LT$T$GT$$u20$as$u20$core..fmt..Debug$GT$3fmt17h33876849b2a9c095E+0x30>
  30:	defe      	udf	#254	; 0xfe
  32:	9905      	ldr	r1, [sp, #20]
  34:	f240 0200 	movw	r2, #0
  38:	f2c0 0200 	movt	r2, #0
  3c:	a808      	add	r0, sp, #32
  3e:	2304      	movs	r3, #4
  40:	f7ff fffe 	bl	0 <_ZN4core3fmt9Formatter11debug_tuple17h793087e8ecab9022E>
  44:	e7ff      	b.n	46 <_ZN66_$LT$core..option..Option$LT$T$GT$$u20$as$u20$core..fmt..Debug$GT$3fmt17h33876849b2a9c095E+0x46>
  46:	a808      	add	r0, sp, #32
  48:	f7ff fffe 	bl	0 <_ZN4core3fmt8builders10DebugTuple6finish17h24d91625b3672e6dE>
  4c:	f88d 001b 	strb.w	r0, [sp, #27]
  50:	e7ff      	b.n	52 <_ZN66_$LT$core..option..Option$LT$T$GT$$u20$as$u20$core..fmt..Debug$GT$3fmt17h33876849b2a9c095E+0x52>
  52:	e01e      	b.n	92 <_ZN66_$LT$core..option..Option$LT$T$GT$$u20$as$u20$core..fmt..Debug$GT$3fmt17h33876849b2a9c095E+0x92>
/rustc/50a0defd5a93523067ef239936cc2e0755220904/src/libcore/option.rs:156
  54:	9807      	ldr	r0, [sp, #28]
  56:	900b      	str	r0, [sp, #44]	; 0x2c
/rustc/50a0defd5a93523067ef239936cc2e0755220904/src/libcore/option.rs:148
  58:	9905      	ldr	r1, [sp, #20]
  5a:	f240 0200 	movw	r2, #0
  5e:	f2c0 0200 	movt	r2, #0
  62:	a80c      	add	r0, sp, #48	; 0x30
  64:	2304      	movs	r3, #4
  66:	f7ff fffe 	bl	0 <_ZN4core3fmt9Formatter11debug_tuple17h793087e8ecab9022E>
  6a:	e7ff      	b.n	6c <_ZN66_$LT$core..option..Option$LT$T$GT$$u20$as$u20$core..fmt..Debug$GT$3fmt17h33876849b2a9c095E+0x6c>
/rustc/50a0defd5a93523067ef239936cc2e0755220904/src/libcore/option.rs:156
  6c:	980b      	ldr	r0, [sp, #44]	; 0x2c
  6e:	900f      	str	r0, [sp, #60]	; 0x3c
/rustc/50a0defd5a93523067ef239936cc2e0755220904/src/libcore/option.rs:148
  70:	f240 0200 	movw	r2, #0
  74:	f2c0 0200 	movt	r2, #0
  78:	a80c      	add	r0, sp, #48	; 0x30
  7a:	a90f      	add	r1, sp, #60	; 0x3c
  7c:	f7ff fffe 	bl	0 <_ZN4core3fmt8builders10DebugTuple5field17h7da5ac79cde13c49E>
  80:	9000      	str	r0, [sp, #0]
  82:	e7ff      	b.n	84 <_ZN66_$LT$core..option..Option$LT$T$GT$$u20$as$u20$core..fmt..Debug$GT$3fmt17h33876849b2a9c095E+0x84>
  84:	a80c      	add	r0, sp, #48	; 0x30
  86:	f7ff fffe 	bl	0 <_ZN4core3fmt8builders10DebugTuple6finish17h24d91625b3672e6dE>
  8a:	f88d 001b 	strb.w	r0, [sp, #27]
  8e:	e7ff      	b.n	90 <_ZN66_$LT$core..option..Option$LT$T$GT$$u20$as$u20$core..fmt..Debug$GT$3fmt17h33876849b2a9c095E+0x90>
  90:	e7ff      	b.n	92 <_ZN66_$LT$core..option..Option$LT$T$GT$$u20$as$u20$core..fmt..Debug$GT$3fmt17h33876849b2a9c095E+0x92>
  92:	f89d 001b 	ldrb.w	r0, [sp, #27]
  96:	b010      	add	sp, #64	; 0x40
  98:	bd80      	pop	{r7, pc}

Disassembly of section .text._ZN66_$LT$core..option..Option$LT$T$GT$$u20$as$u20$core..fmt..Debug$GT$3fmt17h344b262ceadfbf97E:

00000000 <_ZN66_$LT$core..option..Option$LT$T$GT$$u20$as$u20$core..fmt..Debug$GT$3fmt17h344b262ceadfbf97E>:
_ZN66_$LT$core..option..Option$LT$T$GT$$u20$as$u20$core..fmt..Debug$GT$3fmt17h344b262ceadfbf97E():
/rustc/50a0defd5a93523067ef239936cc2e0755220904/src/libcore/option.rs:148
   0:	b580      	push	{r7, lr}
   2:	b090      	sub	sp, #64	; 0x40
   4:	460a      	mov	r2, r1
   6:	4603      	mov	r3, r0
   8:	9004      	str	r0, [sp, #16]
   a:	9105      	str	r1, [sp, #20]
   c:	9804      	ldr	r0, [sp, #16]
   e:	9007      	str	r0, [sp, #28]
  10:	9807      	ldr	r0, [sp, #28]
  12:	6800      	ldr	r0, [r0, #0]
  14:	2800      	cmp	r0, #0
  16:	4601      	mov	r1, r0
  18:	bf18      	it	ne
  1a:	2101      	movne	r1, #1
  1c:	2800      	cmp	r0, #0
  1e:	9203      	str	r2, [sp, #12]
  20:	9302      	str	r3, [sp, #8]
  22:	9101      	str	r1, [sp, #4]
  24:	d005      	beq.n	32 <_ZN66_$LT$core..option..Option$LT$T$GT$$u20$as$u20$core..fmt..Debug$GT$3fmt17h344b262ceadfbf97E+0x32>
  26:	e7ff      	b.n	28 <_ZN66_$LT$core..option..Option$LT$T$GT$$u20$as$u20$core..fmt..Debug$GT$3fmt17h344b262ceadfbf97E+0x28>
  28:	9801      	ldr	r0, [sp, #4]
  2a:	2801      	cmp	r0, #1
  2c:	d012      	beq.n	54 <_ZN66_$LT$core..option..Option$LT$T$GT$$u20$as$u20$core..fmt..Debug$GT$3fmt17h344b262ceadfbf97E+0x54>
  2e:	e7ff      	b.n	30 <_ZN66_$LT$core..option..Option$LT$T$GT$$u20$as$u20$core..fmt..Debug$GT$3fmt17h344b262ceadfbf97E+0x30>
  30:	defe      	udf	#254	; 0xfe
  32:	9905      	ldr	r1, [sp, #20]
  34:	f240 0200 	movw	r2, #0
  38:	f2c0 0200 	movt	r2, #0
  3c:	a808      	add	r0, sp, #32
  3e:	2304      	movs	r3, #4
  40:	f7ff fffe 	bl	0 <_ZN4core3fmt9Formatter11debug_tuple17h793087e8ecab9022E>
  44:	e7ff      	b.n	46 <_ZN66_$LT$core..option..Option$LT$T$GT$$u20$as$u20$core..fmt..Debug$GT$3fmt17h344b262ceadfbf97E+0x46>
  46:	a808      	add	r0, sp, #32
  48:	f7ff fffe 	bl	0 <_ZN4core3fmt8builders10DebugTuple6finish17h24d91625b3672e6dE>
  4c:	f88d 001b 	strb.w	r0, [sp, #27]
  50:	e7ff      	b.n	52 <_ZN66_$LT$core..option..Option$LT$T$GT$$u20$as$u20$core..fmt..Debug$GT$3fmt17h344b262ceadfbf97E+0x52>
  52:	e01e      	b.n	92 <_ZN66_$LT$core..option..Option$LT$T$GT$$u20$as$u20$core..fmt..Debug$GT$3fmt17h344b262ceadfbf97E+0x92>
/rustc/50a0defd5a93523067ef239936cc2e0755220904/src/libcore/option.rs:156
  54:	9807      	ldr	r0, [sp, #28]
  56:	900b      	str	r0, [sp, #44]	; 0x2c
/rustc/50a0defd5a93523067ef239936cc2e0755220904/src/libcore/option.rs:148
  58:	9905      	ldr	r1, [sp, #20]
  5a:	f240 0200 	movw	r2, #0
  5e:	f2c0 0200 	movt	r2, #0
  62:	a80c      	add	r0, sp, #48	; 0x30
  64:	2304      	movs	r3, #4
  66:	f7ff fffe 	bl	0 <_ZN4core3fmt9Formatter11debug_tuple17h793087e8ecab9022E>
  6a:	e7ff      	b.n	6c <_ZN66_$LT$core..option..Option$LT$T$GT$$u20$as$u20$core..fmt..Debug$GT$3fmt17h344b262ceadfbf97E+0x6c>
/rustc/50a0defd5a93523067ef239936cc2e0755220904/src/libcore/option.rs:156
  6c:	980b      	ldr	r0, [sp, #44]	; 0x2c
  6e:	900f      	str	r0, [sp, #60]	; 0x3c
/rustc/50a0defd5a93523067ef239936cc2e0755220904/src/libcore/option.rs:148
  70:	f240 0200 	movw	r2, #0
  74:	f2c0 0200 	movt	r2, #0
  78:	a80c      	add	r0, sp, #48	; 0x30
  7a:	a90f      	add	r1, sp, #60	; 0x3c
  7c:	f7ff fffe 	bl	0 <_ZN4core3fmt8builders10DebugTuple5field17h7da5ac79cde13c49E>
  80:	9000      	str	r0, [sp, #0]
  82:	e7ff      	b.n	84 <_ZN66_$LT$core..option..Option$LT$T$GT$$u20$as$u20$core..fmt..Debug$GT$3fmt17h344b262ceadfbf97E+0x84>
  84:	a80c      	add	r0, sp, #48	; 0x30
  86:	f7ff fffe 	bl	0 <_ZN4core3fmt8builders10DebugTuple6finish17h24d91625b3672e6dE>
  8a:	f88d 001b 	strb.w	r0, [sp, #27]
  8e:	e7ff      	b.n	90 <_ZN66_$LT$core..option..Option$LT$T$GT$$u20$as$u20$core..fmt..Debug$GT$3fmt17h344b262ceadfbf97E+0x90>
  90:	e7ff      	b.n	92 <_ZN66_$LT$core..option..Option$LT$T$GT$$u20$as$u20$core..fmt..Debug$GT$3fmt17h344b262ceadfbf97E+0x92>
  92:	f89d 001b 	ldrb.w	r0, [sp, #27]
  96:	b010      	add	sp, #64	; 0x40
  98:	bd80      	pop	{r7, pc}

Disassembly of section .text._ZN66_$LT$core..option..Option$LT$T$GT$$u20$as$u20$core..fmt..Debug$GT$3fmt17h3aa0490133e062a2E:

00000000 <_ZN66_$LT$core..option..Option$LT$T$GT$$u20$as$u20$core..fmt..Debug$GT$3fmt17h3aa0490133e062a2E>:
_ZN66_$LT$core..option..Option$LT$T$GT$$u20$as$u20$core..fmt..Debug$GT$3fmt17h3aa0490133e062a2E():
/rustc/50a0defd5a93523067ef239936cc2e0755220904/src/libcore/option.rs:148
   0:	b580      	push	{r7, lr}
   2:	b090      	sub	sp, #64	; 0x40
   4:	460a      	mov	r2, r1
   6:	4603      	mov	r3, r0
   8:	9004      	str	r0, [sp, #16]
   a:	9105      	str	r1, [sp, #20]
   c:	9804      	ldr	r0, [sp, #16]
   e:	9007      	str	r0, [sp, #28]
  10:	9807      	ldr	r0, [sp, #28]
  12:	6800      	ldr	r0, [r0, #0]
  14:	2800      	cmp	r0, #0
  16:	4601      	mov	r1, r0
  18:	bf18      	it	ne
  1a:	2101      	movne	r1, #1
  1c:	2800      	cmp	r0, #0
  1e:	9203      	str	r2, [sp, #12]
  20:	9302      	str	r3, [sp, #8]
  22:	9101      	str	r1, [sp, #4]
  24:	d005      	beq.n	32 <_ZN66_$LT$core..option..Option$LT$T$GT$$u20$as$u20$core..fmt..Debug$GT$3fmt17h3aa0490133e062a2E+0x32>
  26:	e7ff      	b.n	28 <_ZN66_$LT$core..option..Option$LT$T$GT$$u20$as$u20$core..fmt..Debug$GT$3fmt17h3aa0490133e062a2E+0x28>
  28:	9801      	ldr	r0, [sp, #4]
  2a:	2801      	cmp	r0, #1
  2c:	d012      	beq.n	54 <_ZN66_$LT$core..option..Option$LT$T$GT$$u20$as$u20$core..fmt..Debug$GT$3fmt17h3aa0490133e062a2E+0x54>
  2e:	e7ff      	b.n	30 <_ZN66_$LT$core..option..Option$LT$T$GT$$u20$as$u20$core..fmt..Debug$GT$3fmt17h3aa0490133e062a2E+0x30>
  30:	defe      	udf	#254	; 0xfe
  32:	9905      	ldr	r1, [sp, #20]
  34:	f240 0200 	movw	r2, #0
  38:	f2c0 0200 	movt	r2, #0
  3c:	a808      	add	r0, sp, #32
  3e:	2304      	movs	r3, #4
  40:	f7ff fffe 	bl	0 <_ZN4core3fmt9Formatter11debug_tuple17h793087e8ecab9022E>
  44:	e7ff      	b.n	46 <_ZN66_$LT$core..option..Option$LT$T$GT$$u20$as$u20$core..fmt..Debug$GT$3fmt17h3aa0490133e062a2E+0x46>
  46:	a808      	add	r0, sp, #32
  48:	f7ff fffe 	bl	0 <_ZN4core3fmt8builders10DebugTuple6finish17h24d91625b3672e6dE>
  4c:	f88d 001b 	strb.w	r0, [sp, #27]
  50:	e7ff      	b.n	52 <_ZN66_$LT$core..option..Option$LT$T$GT$$u20$as$u20$core..fmt..Debug$GT$3fmt17h3aa0490133e062a2E+0x52>
  52:	e01e      	b.n	92 <_ZN66_$LT$core..option..Option$LT$T$GT$$u20$as$u20$core..fmt..Debug$GT$3fmt17h3aa0490133e062a2E+0x92>
/rustc/50a0defd5a93523067ef239936cc2e0755220904/src/libcore/option.rs:156
  54:	9807      	ldr	r0, [sp, #28]
  56:	900b      	str	r0, [sp, #44]	; 0x2c
/rustc/50a0defd5a93523067ef239936cc2e0755220904/src/libcore/option.rs:148
  58:	9905      	ldr	r1, [sp, #20]
  5a:	f240 0200 	movw	r2, #0
  5e:	f2c0 0200 	movt	r2, #0
  62:	a80c      	add	r0, sp, #48	; 0x30
  64:	2304      	movs	r3, #4
  66:	f7ff fffe 	bl	0 <_ZN4core3fmt9Formatter11debug_tuple17h793087e8ecab9022E>
  6a:	e7ff      	b.n	6c <_ZN66_$LT$core..option..Option$LT$T$GT$$u20$as$u20$core..fmt..Debug$GT$3fmt17h3aa0490133e062a2E+0x6c>
/rustc/50a0defd5a93523067ef239936cc2e0755220904/src/libcore/option.rs:156
  6c:	980b      	ldr	r0, [sp, #44]	; 0x2c
  6e:	900f      	str	r0, [sp, #60]	; 0x3c
/rustc/50a0defd5a93523067ef239936cc2e0755220904/src/libcore/option.rs:148
  70:	f240 0200 	movw	r2, #0
  74:	f2c0 0200 	movt	r2, #0
  78:	a80c      	add	r0, sp, #48	; 0x30
  7a:	a90f      	add	r1, sp, #60	; 0x3c
  7c:	f7ff fffe 	bl	0 <_ZN4core3fmt8builders10DebugTuple5field17h7da5ac79cde13c49E>
  80:	9000      	str	r0, [sp, #0]
  82:	e7ff      	b.n	84 <_ZN66_$LT$core..option..Option$LT$T$GT$$u20$as$u20$core..fmt..Debug$GT$3fmt17h3aa0490133e062a2E+0x84>
  84:	a80c      	add	r0, sp, #48	; 0x30
  86:	f7ff fffe 	bl	0 <_ZN4core3fmt8builders10DebugTuple6finish17h24d91625b3672e6dE>
  8a:	f88d 001b 	strb.w	r0, [sp, #27]
  8e:	e7ff      	b.n	90 <_ZN66_$LT$core..option..Option$LT$T$GT$$u20$as$u20$core..fmt..Debug$GT$3fmt17h3aa0490133e062a2E+0x90>
  90:	e7ff      	b.n	92 <_ZN66_$LT$core..option..Option$LT$T$GT$$u20$as$u20$core..fmt..Debug$GT$3fmt17h3aa0490133e062a2E+0x92>
  92:	f89d 001b 	ldrb.w	r0, [sp, #27]
  96:	b010      	add	sp, #64	; 0x40
  98:	bd80      	pop	{r7, pc}

Disassembly of section .text._ZN66_$LT$core..option..Option$LT$T$GT$$u20$as$u20$core..fmt..Debug$GT$3fmt17hae112d23d1e993a3E:

00000000 <_ZN66_$LT$core..option..Option$LT$T$GT$$u20$as$u20$core..fmt..Debug$GT$3fmt17hae112d23d1e993a3E>:
_ZN66_$LT$core..option..Option$LT$T$GT$$u20$as$u20$core..fmt..Debug$GT$3fmt17hae112d23d1e993a3E():
/rustc/50a0defd5a93523067ef239936cc2e0755220904/src/libcore/option.rs:148
   0:	b580      	push	{r7, lr}
   2:	b090      	sub	sp, #64	; 0x40
   4:	460a      	mov	r2, r1
   6:	4603      	mov	r3, r0
   8:	9004      	str	r0, [sp, #16]
   a:	9105      	str	r1, [sp, #20]
   c:	9804      	ldr	r0, [sp, #16]
   e:	9007      	str	r0, [sp, #28]
  10:	9807      	ldr	r0, [sp, #28]
  12:	6800      	ldr	r0, [r0, #0]
  14:	2800      	cmp	r0, #0
  16:	4601      	mov	r1, r0
  18:	bf18      	it	ne
  1a:	2101      	movne	r1, #1
  1c:	2800      	cmp	r0, #0
  1e:	9203      	str	r2, [sp, #12]
  20:	9302      	str	r3, [sp, #8]
  22:	9101      	str	r1, [sp, #4]
  24:	d005      	beq.n	32 <_ZN66_$LT$core..option..Option$LT$T$GT$$u20$as$u20$core..fmt..Debug$GT$3fmt17hae112d23d1e993a3E+0x32>
  26:	e7ff      	b.n	28 <_ZN66_$LT$core..option..Option$LT$T$GT$$u20$as$u20$core..fmt..Debug$GT$3fmt17hae112d23d1e993a3E+0x28>
  28:	9801      	ldr	r0, [sp, #4]
  2a:	2801      	cmp	r0, #1
  2c:	d012      	beq.n	54 <_ZN66_$LT$core..option..Option$LT$T$GT$$u20$as$u20$core..fmt..Debug$GT$3fmt17hae112d23d1e993a3E+0x54>
  2e:	e7ff      	b.n	30 <_ZN66_$LT$core..option..Option$LT$T$GT$$u20$as$u20$core..fmt..Debug$GT$3fmt17hae112d23d1e993a3E+0x30>
  30:	defe      	udf	#254	; 0xfe
  32:	9905      	ldr	r1, [sp, #20]
  34:	f240 0200 	movw	r2, #0
  38:	f2c0 0200 	movt	r2, #0
  3c:	a808      	add	r0, sp, #32
  3e:	2304      	movs	r3, #4
  40:	f7ff fffe 	bl	0 <_ZN4core3fmt9Formatter11debug_tuple17h793087e8ecab9022E>
  44:	e7ff      	b.n	46 <_ZN66_$LT$core..option..Option$LT$T$GT$$u20$as$u20$core..fmt..Debug$GT$3fmt17hae112d23d1e993a3E+0x46>
  46:	a808      	add	r0, sp, #32
  48:	f7ff fffe 	bl	0 <_ZN4core3fmt8builders10DebugTuple6finish17h24d91625b3672e6dE>
  4c:	f88d 001b 	strb.w	r0, [sp, #27]
  50:	e7ff      	b.n	52 <_ZN66_$LT$core..option..Option$LT$T$GT$$u20$as$u20$core..fmt..Debug$GT$3fmt17hae112d23d1e993a3E+0x52>
  52:	e01e      	b.n	92 <_ZN66_$LT$core..option..Option$LT$T$GT$$u20$as$u20$core..fmt..Debug$GT$3fmt17hae112d23d1e993a3E+0x92>
/rustc/50a0defd5a93523067ef239936cc2e0755220904/src/libcore/option.rs:156
  54:	9807      	ldr	r0, [sp, #28]
  56:	900b      	str	r0, [sp, #44]	; 0x2c
/rustc/50a0defd5a93523067ef239936cc2e0755220904/src/libcore/option.rs:148
  58:	9905      	ldr	r1, [sp, #20]
  5a:	f240 0200 	movw	r2, #0
  5e:	f2c0 0200 	movt	r2, #0
  62:	a80c      	add	r0, sp, #48	; 0x30
  64:	2304      	movs	r3, #4
  66:	f7ff fffe 	bl	0 <_ZN4core3fmt9Formatter11debug_tuple17h793087e8ecab9022E>
  6a:	e7ff      	b.n	6c <_ZN66_$LT$core..option..Option$LT$T$GT$$u20$as$u20$core..fmt..Debug$GT$3fmt17hae112d23d1e993a3E+0x6c>
/rustc/50a0defd5a93523067ef239936cc2e0755220904/src/libcore/option.rs:156
  6c:	980b      	ldr	r0, [sp, #44]	; 0x2c
  6e:	900f      	str	r0, [sp, #60]	; 0x3c
/rustc/50a0defd5a93523067ef239936cc2e0755220904/src/libcore/option.rs:148
  70:	f240 0200 	movw	r2, #0
  74:	f2c0 0200 	movt	r2, #0
  78:	a80c      	add	r0, sp, #48	; 0x30
  7a:	a90f      	add	r1, sp, #60	; 0x3c
  7c:	f7ff fffe 	bl	0 <_ZN4core3fmt8builders10DebugTuple5field17h7da5ac79cde13c49E>
  80:	9000      	str	r0, [sp, #0]
  82:	e7ff      	b.n	84 <_ZN66_$LT$core..option..Option$LT$T$GT$$u20$as$u20$core..fmt..Debug$GT$3fmt17hae112d23d1e993a3E+0x84>
  84:	a80c      	add	r0, sp, #48	; 0x30
  86:	f7ff fffe 	bl	0 <_ZN4core3fmt8builders10DebugTuple6finish17h24d91625b3672e6dE>
  8a:	f88d 001b 	strb.w	r0, [sp, #27]
  8e:	e7ff      	b.n	90 <_ZN66_$LT$core..option..Option$LT$T$GT$$u20$as$u20$core..fmt..Debug$GT$3fmt17hae112d23d1e993a3E+0x90>
  90:	e7ff      	b.n	92 <_ZN66_$LT$core..option..Option$LT$T$GT$$u20$as$u20$core..fmt..Debug$GT$3fmt17hae112d23d1e993a3E+0x92>
  92:	f89d 001b 	ldrb.w	r0, [sp, #27]
  96:	b010      	add	sp, #64	; 0x40
  98:	bd80      	pop	{r7, pc}

Disassembly of section .text._ZN66_$LT$core..option..Option$LT$T$GT$$u20$as$u20$core..fmt..Debug$GT$3fmt17hbf1bc92c5a3543daE:

00000000 <_ZN66_$LT$core..option..Option$LT$T$GT$$u20$as$u20$core..fmt..Debug$GT$3fmt17hbf1bc92c5a3543daE>:
_ZN66_$LT$core..option..Option$LT$T$GT$$u20$as$u20$core..fmt..Debug$GT$3fmt17hbf1bc92c5a3543daE():
/rustc/50a0defd5a93523067ef239936cc2e0755220904/src/libcore/option.rs:148
   0:	b580      	push	{r7, lr}
   2:	b090      	sub	sp, #64	; 0x40
   4:	460a      	mov	r2, r1
   6:	4603      	mov	r3, r0
   8:	9004      	str	r0, [sp, #16]
   a:	9105      	str	r1, [sp, #20]
   c:	9804      	ldr	r0, [sp, #16]
   e:	9007      	str	r0, [sp, #28]
  10:	9807      	ldr	r0, [sp, #28]
  12:	6800      	ldr	r0, [r0, #0]
  14:	2800      	cmp	r0, #0
  16:	4601      	mov	r1, r0
  18:	bf18      	it	ne
  1a:	2101      	movne	r1, #1
  1c:	2800      	cmp	r0, #0
  1e:	9203      	str	r2, [sp, #12]
  20:	9302      	str	r3, [sp, #8]
  22:	9101      	str	r1, [sp, #4]
  24:	d005      	beq.n	32 <_ZN66_$LT$core..option..Option$LT$T$GT$$u20$as$u20$core..fmt..Debug$GT$3fmt17hbf1bc92c5a3543daE+0x32>
  26:	e7ff      	b.n	28 <_ZN66_$LT$core..option..Option$LT$T$GT$$u20$as$u20$core..fmt..Debug$GT$3fmt17hbf1bc92c5a3543daE+0x28>
  28:	9801      	ldr	r0, [sp, #4]
  2a:	2801      	cmp	r0, #1
  2c:	d012      	beq.n	54 <_ZN66_$LT$core..option..Option$LT$T$GT$$u20$as$u20$core..fmt..Debug$GT$3fmt17hbf1bc92c5a3543daE+0x54>
  2e:	e7ff      	b.n	30 <_ZN66_$LT$core..option..Option$LT$T$GT$$u20$as$u20$core..fmt..Debug$GT$3fmt17hbf1bc92c5a3543daE+0x30>
  30:	defe      	udf	#254	; 0xfe
  32:	9905      	ldr	r1, [sp, #20]
  34:	f240 0200 	movw	r2, #0
  38:	f2c0 0200 	movt	r2, #0
  3c:	a808      	add	r0, sp, #32
  3e:	2304      	movs	r3, #4
  40:	f7ff fffe 	bl	0 <_ZN4core3fmt9Formatter11debug_tuple17h793087e8ecab9022E>
  44:	e7ff      	b.n	46 <_ZN66_$LT$core..option..Option$LT$T$GT$$u20$as$u20$core..fmt..Debug$GT$3fmt17hbf1bc92c5a3543daE+0x46>
  46:	a808      	add	r0, sp, #32
  48:	f7ff fffe 	bl	0 <_ZN4core3fmt8builders10DebugTuple6finish17h24d91625b3672e6dE>
  4c:	f88d 001b 	strb.w	r0, [sp, #27]
  50:	e7ff      	b.n	52 <_ZN66_$LT$core..option..Option$LT$T$GT$$u20$as$u20$core..fmt..Debug$GT$3fmt17hbf1bc92c5a3543daE+0x52>
  52:	e01e      	b.n	92 <_ZN66_$LT$core..option..Option$LT$T$GT$$u20$as$u20$core..fmt..Debug$GT$3fmt17hbf1bc92c5a3543daE+0x92>
/rustc/50a0defd5a93523067ef239936cc2e0755220904/src/libcore/option.rs:156
  54:	9807      	ldr	r0, [sp, #28]
  56:	900b      	str	r0, [sp, #44]	; 0x2c
/rustc/50a0defd5a93523067ef239936cc2e0755220904/src/libcore/option.rs:148
  58:	9905      	ldr	r1, [sp, #20]
  5a:	f240 0200 	movw	r2, #0
  5e:	f2c0 0200 	movt	r2, #0
  62:	a80c      	add	r0, sp, #48	; 0x30
  64:	2304      	movs	r3, #4
  66:	f7ff fffe 	bl	0 <_ZN4core3fmt9Formatter11debug_tuple17h793087e8ecab9022E>
  6a:	e7ff      	b.n	6c <_ZN66_$LT$core..option..Option$LT$T$GT$$u20$as$u20$core..fmt..Debug$GT$3fmt17hbf1bc92c5a3543daE+0x6c>
/rustc/50a0defd5a93523067ef239936cc2e0755220904/src/libcore/option.rs:156
  6c:	980b      	ldr	r0, [sp, #44]	; 0x2c
  6e:	900f      	str	r0, [sp, #60]	; 0x3c
/rustc/50a0defd5a93523067ef239936cc2e0755220904/src/libcore/option.rs:148
  70:	f240 0200 	movw	r2, #0
  74:	f2c0 0200 	movt	r2, #0
  78:	a80c      	add	r0, sp, #48	; 0x30
  7a:	a90f      	add	r1, sp, #60	; 0x3c
  7c:	f7ff fffe 	bl	0 <_ZN4core3fmt8builders10DebugTuple5field17h7da5ac79cde13c49E>
  80:	9000      	str	r0, [sp, #0]
  82:	e7ff      	b.n	84 <_ZN66_$LT$core..option..Option$LT$T$GT$$u20$as$u20$core..fmt..Debug$GT$3fmt17hbf1bc92c5a3543daE+0x84>
  84:	a80c      	add	r0, sp, #48	; 0x30
  86:	f7ff fffe 	bl	0 <_ZN4core3fmt8builders10DebugTuple6finish17h24d91625b3672e6dE>
  8a:	f88d 001b 	strb.w	r0, [sp, #27]
  8e:	e7ff      	b.n	90 <_ZN66_$LT$core..option..Option$LT$T$GT$$u20$as$u20$core..fmt..Debug$GT$3fmt17hbf1bc92c5a3543daE+0x90>
  90:	e7ff      	b.n	92 <_ZN66_$LT$core..option..Option$LT$T$GT$$u20$as$u20$core..fmt..Debug$GT$3fmt17hbf1bc92c5a3543daE+0x92>
  92:	f89d 001b 	ldrb.w	r0, [sp, #27]
  96:	b010      	add	sp, #64	; 0x40
  98:	bd80      	pop	{r7, pc}

Disassembly of section .text._ZN66_$LT$core..option..Option$LT$T$GT$$u20$as$u20$core..fmt..Debug$GT$3fmt17hc554afe952d95bc1E:

00000000 <_ZN66_$LT$core..option..Option$LT$T$GT$$u20$as$u20$core..fmt..Debug$GT$3fmt17hc554afe952d95bc1E>:
_ZN66_$LT$core..option..Option$LT$T$GT$$u20$as$u20$core..fmt..Debug$GT$3fmt17hc554afe952d95bc1E():
/rustc/50a0defd5a93523067ef239936cc2e0755220904/src/libcore/option.rs:148
   0:	b580      	push	{r7, lr}
   2:	b090      	sub	sp, #64	; 0x40
   4:	460a      	mov	r2, r1
   6:	4603      	mov	r3, r0
   8:	9004      	str	r0, [sp, #16]
   a:	9105      	str	r1, [sp, #20]
   c:	9804      	ldr	r0, [sp, #16]
   e:	9007      	str	r0, [sp, #28]
  10:	9807      	ldr	r0, [sp, #28]
  12:	6800      	ldr	r0, [r0, #0]
  14:	2800      	cmp	r0, #0
  16:	4601      	mov	r1, r0
  18:	bf18      	it	ne
  1a:	2101      	movne	r1, #1
  1c:	2800      	cmp	r0, #0
  1e:	9203      	str	r2, [sp, #12]
  20:	9302      	str	r3, [sp, #8]
  22:	9101      	str	r1, [sp, #4]
  24:	d005      	beq.n	32 <_ZN66_$LT$core..option..Option$LT$T$GT$$u20$as$u20$core..fmt..Debug$GT$3fmt17hc554afe952d95bc1E+0x32>
  26:	e7ff      	b.n	28 <_ZN66_$LT$core..option..Option$LT$T$GT$$u20$as$u20$core..fmt..Debug$GT$3fmt17hc554afe952d95bc1E+0x28>
  28:	9801      	ldr	r0, [sp, #4]
  2a:	2801      	cmp	r0, #1
  2c:	d012      	beq.n	54 <_ZN66_$LT$core..option..Option$LT$T$GT$$u20$as$u20$core..fmt..Debug$GT$3fmt17hc554afe952d95bc1E+0x54>
  2e:	e7ff      	b.n	30 <_ZN66_$LT$core..option..Option$LT$T$GT$$u20$as$u20$core..fmt..Debug$GT$3fmt17hc554afe952d95bc1E+0x30>
  30:	defe      	udf	#254	; 0xfe
  32:	9905      	ldr	r1, [sp, #20]
  34:	f240 0200 	movw	r2, #0
  38:	f2c0 0200 	movt	r2, #0
  3c:	a808      	add	r0, sp, #32
  3e:	2304      	movs	r3, #4
  40:	f7ff fffe 	bl	0 <_ZN4core3fmt9Formatter11debug_tuple17h793087e8ecab9022E>
  44:	e7ff      	b.n	46 <_ZN66_$LT$core..option..Option$LT$T$GT$$u20$as$u20$core..fmt..Debug$GT$3fmt17hc554afe952d95bc1E+0x46>
  46:	a808      	add	r0, sp, #32
  48:	f7ff fffe 	bl	0 <_ZN4core3fmt8builders10DebugTuple6finish17h24d91625b3672e6dE>
  4c:	f88d 001b 	strb.w	r0, [sp, #27]
  50:	e7ff      	b.n	52 <_ZN66_$LT$core..option..Option$LT$T$GT$$u20$as$u20$core..fmt..Debug$GT$3fmt17hc554afe952d95bc1E+0x52>
  52:	e01e      	b.n	92 <_ZN66_$LT$core..option..Option$LT$T$GT$$u20$as$u20$core..fmt..Debug$GT$3fmt17hc554afe952d95bc1E+0x92>
/rustc/50a0defd5a93523067ef239936cc2e0755220904/src/libcore/option.rs:156
  54:	9807      	ldr	r0, [sp, #28]
  56:	900b      	str	r0, [sp, #44]	; 0x2c
/rustc/50a0defd5a93523067ef239936cc2e0755220904/src/libcore/option.rs:148
  58:	9905      	ldr	r1, [sp, #20]
  5a:	f240 0200 	movw	r2, #0
  5e:	f2c0 0200 	movt	r2, #0
  62:	a80c      	add	r0, sp, #48	; 0x30
  64:	2304      	movs	r3, #4
  66:	f7ff fffe 	bl	0 <_ZN4core3fmt9Formatter11debug_tuple17h793087e8ecab9022E>
  6a:	e7ff      	b.n	6c <_ZN66_$LT$core..option..Option$LT$T$GT$$u20$as$u20$core..fmt..Debug$GT$3fmt17hc554afe952d95bc1E+0x6c>
/rustc/50a0defd5a93523067ef239936cc2e0755220904/src/libcore/option.rs:156
  6c:	980b      	ldr	r0, [sp, #44]	; 0x2c
  6e:	900f      	str	r0, [sp, #60]	; 0x3c
/rustc/50a0defd5a93523067ef239936cc2e0755220904/src/libcore/option.rs:148
  70:	f240 0200 	movw	r2, #0
  74:	f2c0 0200 	movt	r2, #0
  78:	a80c      	add	r0, sp, #48	; 0x30
  7a:	a90f      	add	r1, sp, #60	; 0x3c
  7c:	f7ff fffe 	bl	0 <_ZN4core3fmt8builders10DebugTuple5field17h7da5ac79cde13c49E>
  80:	9000      	str	r0, [sp, #0]
  82:	e7ff      	b.n	84 <_ZN66_$LT$core..option..Option$LT$T$GT$$u20$as$u20$core..fmt..Debug$GT$3fmt17hc554afe952d95bc1E+0x84>
  84:	a80c      	add	r0, sp, #48	; 0x30
  86:	f7ff fffe 	bl	0 <_ZN4core3fmt8builders10DebugTuple6finish17h24d91625b3672e6dE>
  8a:	f88d 001b 	strb.w	r0, [sp, #27]
  8e:	e7ff      	b.n	90 <_ZN66_$LT$core..option..Option$LT$T$GT$$u20$as$u20$core..fmt..Debug$GT$3fmt17hc554afe952d95bc1E+0x90>
  90:	e7ff      	b.n	92 <_ZN66_$LT$core..option..Option$LT$T$GT$$u20$as$u20$core..fmt..Debug$GT$3fmt17hc554afe952d95bc1E+0x92>
  92:	f89d 001b 	ldrb.w	r0, [sp, #27]
  96:	b010      	add	sp, #64	; 0x40
  98:	bd80      	pop	{r7, pc}

Disassembly of section .text._ZN66_$LT$core..option..Option$LT$T$GT$$u20$as$u20$core..fmt..Debug$GT$3fmt17hd060c1b27ab92beaE:

00000000 <_ZN66_$LT$core..option..Option$LT$T$GT$$u20$as$u20$core..fmt..Debug$GT$3fmt17hd060c1b27ab92beaE>:
_ZN66_$LT$core..option..Option$LT$T$GT$$u20$as$u20$core..fmt..Debug$GT$3fmt17hd060c1b27ab92beaE():
/rustc/50a0defd5a93523067ef239936cc2e0755220904/src/libcore/option.rs:148
   0:	b580      	push	{r7, lr}
   2:	b090      	sub	sp, #64	; 0x40
   4:	460a      	mov	r2, r1
   6:	4603      	mov	r3, r0
   8:	9004      	str	r0, [sp, #16]
   a:	9105      	str	r1, [sp, #20]
   c:	9804      	ldr	r0, [sp, #16]
   e:	9007      	str	r0, [sp, #28]
  10:	9807      	ldr	r0, [sp, #28]
  12:	6800      	ldr	r0, [r0, #0]
  14:	2800      	cmp	r0, #0
  16:	4601      	mov	r1, r0
  18:	bf18      	it	ne
  1a:	2101      	movne	r1, #1
  1c:	2800      	cmp	r0, #0
  1e:	9203      	str	r2, [sp, #12]
  20:	9302      	str	r3, [sp, #8]
  22:	9101      	str	r1, [sp, #4]
  24:	d005      	beq.n	32 <_ZN66_$LT$core..option..Option$LT$T$GT$$u20$as$u20$core..fmt..Debug$GT$3fmt17hd060c1b27ab92beaE+0x32>
  26:	e7ff      	b.n	28 <_ZN66_$LT$core..option..Option$LT$T$GT$$u20$as$u20$core..fmt..Debug$GT$3fmt17hd060c1b27ab92beaE+0x28>
  28:	9801      	ldr	r0, [sp, #4]
  2a:	2801      	cmp	r0, #1
  2c:	d012      	beq.n	54 <_ZN66_$LT$core..option..Option$LT$T$GT$$u20$as$u20$core..fmt..Debug$GT$3fmt17hd060c1b27ab92beaE+0x54>
  2e:	e7ff      	b.n	30 <_ZN66_$LT$core..option..Option$LT$T$GT$$u20$as$u20$core..fmt..Debug$GT$3fmt17hd060c1b27ab92beaE+0x30>
  30:	defe      	udf	#254	; 0xfe
  32:	9905      	ldr	r1, [sp, #20]
  34:	f240 0200 	movw	r2, #0
  38:	f2c0 0200 	movt	r2, #0
  3c:	a808      	add	r0, sp, #32
  3e:	2304      	movs	r3, #4
  40:	f7ff fffe 	bl	0 <_ZN4core3fmt9Formatter11debug_tuple17h793087e8ecab9022E>
  44:	e7ff      	b.n	46 <_ZN66_$LT$core..option..Option$LT$T$GT$$u20$as$u20$core..fmt..Debug$GT$3fmt17hd060c1b27ab92beaE+0x46>
  46:	a808      	add	r0, sp, #32
  48:	f7ff fffe 	bl	0 <_ZN4core3fmt8builders10DebugTuple6finish17h24d91625b3672e6dE>
  4c:	f88d 001b 	strb.w	r0, [sp, #27]
  50:	e7ff      	b.n	52 <_ZN66_$LT$core..option..Option$LT$T$GT$$u20$as$u20$core..fmt..Debug$GT$3fmt17hd060c1b27ab92beaE+0x52>
  52:	e01e      	b.n	92 <_ZN66_$LT$core..option..Option$LT$T$GT$$u20$as$u20$core..fmt..Debug$GT$3fmt17hd060c1b27ab92beaE+0x92>
/rustc/50a0defd5a93523067ef239936cc2e0755220904/src/libcore/option.rs:156
  54:	9807      	ldr	r0, [sp, #28]
  56:	900b      	str	r0, [sp, #44]	; 0x2c
/rustc/50a0defd5a93523067ef239936cc2e0755220904/src/libcore/option.rs:148
  58:	9905      	ldr	r1, [sp, #20]
  5a:	f240 0200 	movw	r2, #0
  5e:	f2c0 0200 	movt	r2, #0
  62:	a80c      	add	r0, sp, #48	; 0x30
  64:	2304      	movs	r3, #4
  66:	f7ff fffe 	bl	0 <_ZN4core3fmt9Formatter11debug_tuple17h793087e8ecab9022E>
  6a:	e7ff      	b.n	6c <_ZN66_$LT$core..option..Option$LT$T$GT$$u20$as$u20$core..fmt..Debug$GT$3fmt17hd060c1b27ab92beaE+0x6c>
/rustc/50a0defd5a93523067ef239936cc2e0755220904/src/libcore/option.rs:156
  6c:	980b      	ldr	r0, [sp, #44]	; 0x2c
  6e:	900f      	str	r0, [sp, #60]	; 0x3c
/rustc/50a0defd5a93523067ef239936cc2e0755220904/src/libcore/option.rs:148
  70:	f240 0200 	movw	r2, #0
  74:	f2c0 0200 	movt	r2, #0
  78:	a80c      	add	r0, sp, #48	; 0x30
  7a:	a90f      	add	r1, sp, #60	; 0x3c
  7c:	f7ff fffe 	bl	0 <_ZN4core3fmt8builders10DebugTuple5field17h7da5ac79cde13c49E>
  80:	9000      	str	r0, [sp, #0]
  82:	e7ff      	b.n	84 <_ZN66_$LT$core..option..Option$LT$T$GT$$u20$as$u20$core..fmt..Debug$GT$3fmt17hd060c1b27ab92beaE+0x84>
  84:	a80c      	add	r0, sp, #48	; 0x30
  86:	f7ff fffe 	bl	0 <_ZN4core3fmt8builders10DebugTuple6finish17h24d91625b3672e6dE>
  8a:	f88d 001b 	strb.w	r0, [sp, #27]
  8e:	e7ff      	b.n	90 <_ZN66_$LT$core..option..Option$LT$T$GT$$u20$as$u20$core..fmt..Debug$GT$3fmt17hd060c1b27ab92beaE+0x90>
  90:	e7ff      	b.n	92 <_ZN66_$LT$core..option..Option$LT$T$GT$$u20$as$u20$core..fmt..Debug$GT$3fmt17hd060c1b27ab92beaE+0x92>
  92:	f89d 001b 	ldrb.w	r0, [sp, #27]
  96:	b010      	add	sp, #64	; 0x40
  98:	bd80      	pop	{r7, pc}

Disassembly of section .text._ZN66_$LT$core..option..Option$LT$T$GT$$u20$as$u20$core..fmt..Debug$GT$3fmt17hda8ccfcdd65f224eE:

00000000 <_ZN66_$LT$core..option..Option$LT$T$GT$$u20$as$u20$core..fmt..Debug$GT$3fmt17hda8ccfcdd65f224eE>:
_ZN66_$LT$core..option..Option$LT$T$GT$$u20$as$u20$core..fmt..Debug$GT$3fmt17hda8ccfcdd65f224eE():
/rustc/50a0defd5a93523067ef239936cc2e0755220904/src/libcore/option.rs:148
   0:	b580      	push	{r7, lr}
   2:	b090      	sub	sp, #64	; 0x40
   4:	460a      	mov	r2, r1
   6:	4603      	mov	r3, r0
   8:	9004      	str	r0, [sp, #16]
   a:	9105      	str	r1, [sp, #20]
   c:	9804      	ldr	r0, [sp, #16]
   e:	9007      	str	r0, [sp, #28]
  10:	9807      	ldr	r0, [sp, #28]
  12:	6800      	ldr	r0, [r0, #0]
  14:	2800      	cmp	r0, #0
  16:	4601      	mov	r1, r0
  18:	bf18      	it	ne
  1a:	2101      	movne	r1, #1
  1c:	2800      	cmp	r0, #0
  1e:	9203      	str	r2, [sp, #12]
  20:	9302      	str	r3, [sp, #8]
  22:	9101      	str	r1, [sp, #4]
  24:	d005      	beq.n	32 <_ZN66_$LT$core..option..Option$LT$T$GT$$u20$as$u20$core..fmt..Debug$GT$3fmt17hda8ccfcdd65f224eE+0x32>
  26:	e7ff      	b.n	28 <_ZN66_$LT$core..option..Option$LT$T$GT$$u20$as$u20$core..fmt..Debug$GT$3fmt17hda8ccfcdd65f224eE+0x28>
  28:	9801      	ldr	r0, [sp, #4]
  2a:	2801      	cmp	r0, #1
  2c:	d012      	beq.n	54 <_ZN66_$LT$core..option..Option$LT$T$GT$$u20$as$u20$core..fmt..Debug$GT$3fmt17hda8ccfcdd65f224eE+0x54>
  2e:	e7ff      	b.n	30 <_ZN66_$LT$core..option..Option$LT$T$GT$$u20$as$u20$core..fmt..Debug$GT$3fmt17hda8ccfcdd65f224eE+0x30>
  30:	defe      	udf	#254	; 0xfe
  32:	9905      	ldr	r1, [sp, #20]
  34:	f240 0200 	movw	r2, #0
  38:	f2c0 0200 	movt	r2, #0
  3c:	a808      	add	r0, sp, #32
  3e:	2304      	movs	r3, #4
  40:	f7ff fffe 	bl	0 <_ZN4core3fmt9Formatter11debug_tuple17h793087e8ecab9022E>
  44:	e7ff      	b.n	46 <_ZN66_$LT$core..option..Option$LT$T$GT$$u20$as$u20$core..fmt..Debug$GT$3fmt17hda8ccfcdd65f224eE+0x46>
  46:	a808      	add	r0, sp, #32
  48:	f7ff fffe 	bl	0 <_ZN4core3fmt8builders10DebugTuple6finish17h24d91625b3672e6dE>
  4c:	f88d 001b 	strb.w	r0, [sp, #27]
  50:	e7ff      	b.n	52 <_ZN66_$LT$core..option..Option$LT$T$GT$$u20$as$u20$core..fmt..Debug$GT$3fmt17hda8ccfcdd65f224eE+0x52>
  52:	e01e      	b.n	92 <_ZN66_$LT$core..option..Option$LT$T$GT$$u20$as$u20$core..fmt..Debug$GT$3fmt17hda8ccfcdd65f224eE+0x92>
/rustc/50a0defd5a93523067ef239936cc2e0755220904/src/libcore/option.rs:156
  54:	9807      	ldr	r0, [sp, #28]
  56:	900b      	str	r0, [sp, #44]	; 0x2c
/rustc/50a0defd5a93523067ef239936cc2e0755220904/src/libcore/option.rs:148
  58:	9905      	ldr	r1, [sp, #20]
  5a:	f240 0200 	movw	r2, #0
  5e:	f2c0 0200 	movt	r2, #0
  62:	a80c      	add	r0, sp, #48	; 0x30
  64:	2304      	movs	r3, #4
  66:	f7ff fffe 	bl	0 <_ZN4core3fmt9Formatter11debug_tuple17h793087e8ecab9022E>
  6a:	e7ff      	b.n	6c <_ZN66_$LT$core..option..Option$LT$T$GT$$u20$as$u20$core..fmt..Debug$GT$3fmt17hda8ccfcdd65f224eE+0x6c>
/rustc/50a0defd5a93523067ef239936cc2e0755220904/src/libcore/option.rs:156
  6c:	980b      	ldr	r0, [sp, #44]	; 0x2c
  6e:	900f      	str	r0, [sp, #60]	; 0x3c
/rustc/50a0defd5a93523067ef239936cc2e0755220904/src/libcore/option.rs:148
  70:	f240 0200 	movw	r2, #0
  74:	f2c0 0200 	movt	r2, #0
  78:	a80c      	add	r0, sp, #48	; 0x30
  7a:	a90f      	add	r1, sp, #60	; 0x3c
  7c:	f7ff fffe 	bl	0 <_ZN4core3fmt8builders10DebugTuple5field17h7da5ac79cde13c49E>
  80:	9000      	str	r0, [sp, #0]
  82:	e7ff      	b.n	84 <_ZN66_$LT$core..option..Option$LT$T$GT$$u20$as$u20$core..fmt..Debug$GT$3fmt17hda8ccfcdd65f224eE+0x84>
  84:	a80c      	add	r0, sp, #48	; 0x30
  86:	f7ff fffe 	bl	0 <_ZN4core3fmt8builders10DebugTuple6finish17h24d91625b3672e6dE>
  8a:	f88d 001b 	strb.w	r0, [sp, #27]
  8e:	e7ff      	b.n	90 <_ZN66_$LT$core..option..Option$LT$T$GT$$u20$as$u20$core..fmt..Debug$GT$3fmt17hda8ccfcdd65f224eE+0x90>
  90:	e7ff      	b.n	92 <_ZN66_$LT$core..option..Option$LT$T$GT$$u20$as$u20$core..fmt..Debug$GT$3fmt17hda8ccfcdd65f224eE+0x92>
  92:	f89d 001b 	ldrb.w	r0, [sp, #27]
  96:	b010      	add	sp, #64	; 0x40
  98:	bd80      	pop	{r7, pc}

mylib-ac95891f38e7979c.39numqykf0lihsq7.rcgu.o:     file format elf32-littlearm

SYMBOL TABLE:
00000000 l    df *ABS*	00000000 39numqykf0lihsq7
00000000 l       .debug_str	00000000 
00000041 l       .debug_str	00000000 
0000004c l       .debug_str	00000000 
0000006f l       .debug_str	00000000 
00000074 l       .debug_str	00000000 
00000078 l       .debug_str	00000000 
0000007b l       .debug_str	00000000 
00000086 l       .debug_str	00000000 
00000091 l       .debug_str	00000000 
00000098 l       .debug_str	00000000 
0000009c l       .debug_str	00000000 
000000a0 l       .debug_str	00000000 
000000a5 l       .debug_str	00000000 
000000a7 l       .debug_str	00000000 
000000dc l       .debug_str	00000000 
000000f5 l       .debug_str	00000000 
000000fb l       .debug_str	00000000 
00000101 l       .debug_str	00000000 
0000010a l       .debug_str	00000000 
0000010f l       .debug_str	00000000 
00000116 l       .debug_str	00000000 
0000011a l       .debug_str	00000000 
0000011f l       .debug_str	00000000 
00000123 l       .debug_str	00000000 
0000016e l       .debug_str	00000000 
00000173 l       .debug_str	00000000 
00000177 l       .debug_str	00000000 
000001ca l       .debug_str	00000000 
000001d0 l       .debug_str	00000000 
0000021c l       .debug_str	00000000 
00000270 l       .debug_str	00000000 
00000276 l       .debug_str	00000000 
000002c2 l       .debug_str	00000000 
00000316 l       .debug_str	00000000 
0000031c l       .debug_str	00000000 
00000320 l       .debug_str	00000000 
0000036c l       .debug_str	00000000 
000003c0 l       .debug_str	00000000 
000003c4 l       .debug_str	00000000 
000003d1 l       .debug_str	00000000 
00000437 l       .debug_str	00000000 
0000043b l       .debug_str	00000000 
00000448 l       .debug_str	00000000 
0000045c l       .debug_str	00000000 
00000486 l       .debug_str	00000000 
0000048e l       .debug_str	00000000 
000004ec l       .debug_str	00000000 
0000054b l       .debug_str	00000000 
00000580 l       .debug_str	00000000 
000005f3 l       .debug_str	00000000 
0000060a l       .debug_str	00000000 
00000622 l       .debug_str	00000000 
00000657 l       .debug_str	00000000 
00000683 l       .debug_str	00000000 
000006d0 l       .debug_str	00000000 
00000705 l       .debug_str	00000000 
00000766 l       .debug_str	00000000 
0000076a l       .debug_str	00000000 
00000770 l       .debug_str	00000000 
000007c4 l       .debug_str	00000000 
000007c9 l       .debug_str	00000000 
00000813 l       .debug_str	00000000 
00000865 l       .debug_str	00000000 
00000872 l       .debug_str	00000000 
00000897 l       .debug_str	00000000 
0000089c l       .debug_str	00000000 
000008b7 l       .debug_str	00000000 
000008c1 l       .debug_str	00000000 
0000090d l       .debug_str	00000000 
0000095a l       .debug_str	00000000 
0000098f l       .debug_str	00000000 
000009f0 l       .debug_str	00000000 
00000a4f l       .debug_str	00000000 
00000a5d l       .debug_str	00000000 
00000a71 l       .debug_str	00000000 
00000a9b l       .debug_str	00000000 
00000af2 l       .debug_str	00000000 
00000b4a l       .debug_str	00000000 
00000b7f l       .debug_str	00000000 
00000beb l       .debug_str	00000000 
00000c4e l       .debug_str	00000000 
00000c83 l       .debug_str	00000000 
00000cfa l       .debug_str	00000000 
00000d01 l       .debug_str	00000000 
00000d36 l       .debug_str	00000000 
00000d51 l       .debug_str	00000000 
00000db4 l       .debug_str	00000000 
00000de9 l       .debug_str	00000000 
00000e60 l       .debug_str	00000000 
00000e8b l       .debug_str	00000000 
00000ec0 l       .debug_str	00000000 
00000eff l       .debug_str	00000000 
00000f4c l       .debug_str	00000000 
00000f81 l       .debug_str	00000000 
00000fe2 l       .debug_str	00000000 
00001050 l       .debug_str	00000000 
00001085 l       .debug_str	00000000 
00001107 l       .debug_str	00000000 
00001168 l       .debug_str	00000000 
0000119d l       .debug_str	00000000 
00001212 l       .debug_str	00000000 
00001217 l       .debug_str	00000000 
0000124c l       .debug_str	00000000 
00001265 l       .debug_str	00000000 
000012b1 l       .debug_str	00000000 
000012e6 l       .debug_str	00000000 
00001346 l       .debug_str	00000000 
00001371 l       .debug_str	00000000 
000013a6 l       .debug_str	00000000 
000013e5 l       .debug_str	00000000 
000013ea l       .debug_str	00000000 
0000141f l       .debug_str	00000000 
00001438 l       .debug_str	00000000 
0000149b l       .debug_str	00000000 
000014d0 l       .debug_str	00000000 
00001547 l       .debug_str	00000000 
000015bc l       .debug_str	00000000 
000015f1 l       .debug_str	00000000 
0000167a l       .debug_str	00000000 
0000167c l       .debug_str	00000000 
00001680 l       .debug_str	00000000 
00001686 l       .debug_str	00000000 
00001691 l       .debug_str	00000000 
000016b4 l       .debug_str	00000000 
000016d8 l       .debug_str	00000000 
0000170d l       .debug_str	00000000 
00001745 l       .debug_str	00000000 
00001749 l       .debug_str	00000000 
0000177e l       .debug_str	00000000 
00001796 l       .debug_str	00000000 
000017e1 l       .debug_str	00000000 
00001816 l       .debug_str	00000000 
00001875 l       .debug_str	00000000 
000018d8 l       .debug_str	00000000 
0000190d l       .debug_str	00000000 
00001984 l       .debug_str	00000000 
000019d1 l       .debug_str	00000000 
00001a06 l       .debug_str	00000000 
00001a67 l       .debug_str	00000000 
00001a8d l       .debug_str	00000000 
00001ac2 l       .debug_str	00000000 
00001afc l       .debug_str	00000000 
00001b5e l       .debug_str	00000000 
00001b93 l       .debug_str	00000000 
00001c09 l       .debug_str	00000000 
00001c13 l       .debug_str	00000000 
00001c77 l       .debug_str	00000000 
00001c94 l       .debug_str	00000000 
00001ce6 l       .debug_str	00000000 
00001d38 l       .debug_str	00000000 
00001d95 l       .debug_str	00000000 
00001dfd l       .debug_str	00000000 
00001e09 l       .debug_str	00000000 
00001e71 l       .debug_str	00000000 
00001ea1 l       .debug_str	00000000 
00001ef3 l       .debug_str	00000000 
00001f66 l       .debug_str	00000000 
00001fcc l       .debug_str	00000000 
00001fd6 l       .debug_str	00000000 
00002027 l       .debug_str	00000000 
00002057 l       .debug_str	00000000 
00002061 l       .debug_str	00000000 
000020c9 l       .debug_str	00000000 
00002143 l       .debug_str	00000000 
0000216c l       .debug_str	00000000 
00002175 l       .debug_str	00000000 
000021c5 l       .debug_str	00000000 
0000222d l       .debug_str	00000000 
0000227f l       .debug_str	00000000 
000022aa l       .debug_str	00000000 
00000000 l    d  .text._ZN4core3ptr18real_drop_in_place17h0285661cd8494b3dE	00000000 .text._ZN4core3ptr18real_drop_in_place17h0285661cd8494b3dE
00000000 l    d  .text._ZN4core3ptr18real_drop_in_place17h0da6d1fd9ba9e3d1E	00000000 .text._ZN4core3ptr18real_drop_in_place17h0da6d1fd9ba9e3d1E
00000000 l    d  .text._ZN4core3ptr18real_drop_in_place17h1adc7f7cf1df91faE	00000000 .text._ZN4core3ptr18real_drop_in_place17h1adc7f7cf1df91faE
00000000 l    d  .text._ZN4core3ptr18real_drop_in_place17h2d2de804dbfef4e8E	00000000 .text._ZN4core3ptr18real_drop_in_place17h2d2de804dbfef4e8E
00000000 l    d  .text._ZN4core3ptr18real_drop_in_place17h31071160d664b448E	00000000 .text._ZN4core3ptr18real_drop_in_place17h31071160d664b448E
00000000 l    d  .text._ZN4core3ptr18real_drop_in_place17h3918ec468d425837E	00000000 .text._ZN4core3ptr18real_drop_in_place17h3918ec468d425837E
00000000 l    d  .text._ZN4core3ptr18real_drop_in_place17h3b010a68f03e03cdE	00000000 .text._ZN4core3ptr18real_drop_in_place17h3b010a68f03e03cdE
00000000 l    d  .text._ZN4core3ptr18real_drop_in_place17h42fdf29cfa820390E	00000000 .text._ZN4core3ptr18real_drop_in_place17h42fdf29cfa820390E
00000000 l    d  .text._ZN4core3ptr18real_drop_in_place17h46ca4abbb733be64E	00000000 .text._ZN4core3ptr18real_drop_in_place17h46ca4abbb733be64E
00000000 l    d  .text._ZN4core3ptr18real_drop_in_place17h4bd640a3fdd6fcf1E	00000000 .text._ZN4core3ptr18real_drop_in_place17h4bd640a3fdd6fcf1E
00000000 l    d  .text._ZN4core3ptr18real_drop_in_place17h50b771f68ca5bbf7E	00000000 .text._ZN4core3ptr18real_drop_in_place17h50b771f68ca5bbf7E
00000000 l    d  .text._ZN4core3ptr18real_drop_in_place17h5c15b3724bec36b8E	00000000 .text._ZN4core3ptr18real_drop_in_place17h5c15b3724bec36b8E
00000000 l    d  .text._ZN4core3ptr18real_drop_in_place17h61db2cd4896a85e8E	00000000 .text._ZN4core3ptr18real_drop_in_place17h61db2cd4896a85e8E
00000000 l    d  .text._ZN4core3ptr18real_drop_in_place17h71a61f5e0b16a079E	00000000 .text._ZN4core3ptr18real_drop_in_place17h71a61f5e0b16a079E
00000000 l    d  .text._ZN4core3ptr18real_drop_in_place17h8433721386110a46E	00000000 .text._ZN4core3ptr18real_drop_in_place17h8433721386110a46E
00000000 l    d  .text._ZN4core3ptr18real_drop_in_place17h8ddb29269eb05c35E	00000000 .text._ZN4core3ptr18real_drop_in_place17h8ddb29269eb05c35E
00000000 l    d  .text._ZN4core3ptr18real_drop_in_place17hc070d4c0ef8e4115E	00000000 .text._ZN4core3ptr18real_drop_in_place17hc070d4c0ef8e4115E
00000000 l    d  .text._ZN4core3ptr18real_drop_in_place17hc123564ae3ed8ebbE	00000000 .text._ZN4core3ptr18real_drop_in_place17hc123564ae3ed8ebbE
00000000 l    d  .text._ZN4core3ptr18real_drop_in_place17hc1acff2a2e48bd0eE	00000000 .text._ZN4core3ptr18real_drop_in_place17hc1acff2a2e48bd0eE
00000000 l    d  .text._ZN4core3ptr18real_drop_in_place17hc5bc1010c39885c2E	00000000 .text._ZN4core3ptr18real_drop_in_place17hc5bc1010c39885c2E
00000000 l    d  .text._ZN4core3ptr18real_drop_in_place17hd87e1c6e9d133217E	00000000 .text._ZN4core3ptr18real_drop_in_place17hd87e1c6e9d133217E
00000000 l    d  .text._ZN4core3ptr18real_drop_in_place17hd9bb586f93ae8e74E	00000000 .text._ZN4core3ptr18real_drop_in_place17hd9bb586f93ae8e74E
00000000 l    d  .text._ZN4core3ptr18real_drop_in_place17hecfa67c2b9b43a2dE	00000000 .text._ZN4core3ptr18real_drop_in_place17hecfa67c2b9b43a2dE
00000000 l    d  .text._ZN4core3ptr18real_drop_in_place17hf87957598e288e9bE	00000000 .text._ZN4core3ptr18real_drop_in_place17hf87957598e288e9bE
00000000 l    d  .text._ZN4core3ptr18real_drop_in_place17hf97dacca302dcbe8E	00000000 .text._ZN4core3ptr18real_drop_in_place17hf97dacca302dcbe8E
00000000 l    d  .text._ZN4core3ptr18real_drop_in_place17hfa44ccca2c7602daE	00000000 .text._ZN4core3ptr18real_drop_in_place17hfa44ccca2c7602daE
00000000 l    d  .debug_abbrev	00000000 .debug_abbrev
00000000 l    d  .debug_info	00000000 .debug_info
00000000 l    d  .debug_ranges	00000000 .debug_ranges
00000000 l    d  .debug_frame	00000000 .debug_frame
00000000 l    d  .debug_line	00000000 .debug_line
00000000 g     F .text._ZN4core3ptr18real_drop_in_place17h0285661cd8494b3dE	0000000c .hidden _ZN4core3ptr18real_drop_in_place17h0285661cd8494b3dE
00000000 g     F .text._ZN4core3ptr18real_drop_in_place17h0da6d1fd9ba9e3d1E	0000000c .hidden _ZN4core3ptr18real_drop_in_place17h0da6d1fd9ba9e3d1E
00000000 g     F .text._ZN4core3ptr18real_drop_in_place17h1adc7f7cf1df91faE	0000000c .hidden _ZN4core3ptr18real_drop_in_place17h1adc7f7cf1df91faE
00000000 g     F .text._ZN4core3ptr18real_drop_in_place17h2d2de804dbfef4e8E	0000000c .hidden _ZN4core3ptr18real_drop_in_place17h2d2de804dbfef4e8E
00000000 g     F .text._ZN4core3ptr18real_drop_in_place17h31071160d664b448E	0000000c .hidden _ZN4core3ptr18real_drop_in_place17h31071160d664b448E
00000000 g     F .text._ZN4core3ptr18real_drop_in_place17h3918ec468d425837E	0000000c .hidden _ZN4core3ptr18real_drop_in_place17h3918ec468d425837E
00000000 g     F .text._ZN4core3ptr18real_drop_in_place17h3b010a68f03e03cdE	0000000c .hidden _ZN4core3ptr18real_drop_in_place17h3b010a68f03e03cdE
00000000 g     F .text._ZN4core3ptr18real_drop_in_place17h42fdf29cfa820390E	0000000c .hidden _ZN4core3ptr18real_drop_in_place17h42fdf29cfa820390E
00000000 g     F .text._ZN4core3ptr18real_drop_in_place17h46ca4abbb733be64E	0000000c .hidden _ZN4core3ptr18real_drop_in_place17h46ca4abbb733be64E
00000000 g     F .text._ZN4core3ptr18real_drop_in_place17h4bd640a3fdd6fcf1E	0000000c .hidden _ZN4core3ptr18real_drop_in_place17h4bd640a3fdd6fcf1E
00000000 g     F .text._ZN4core3ptr18real_drop_in_place17h50b771f68ca5bbf7E	0000000c .hidden _ZN4core3ptr18real_drop_in_place17h50b771f68ca5bbf7E
00000000 g     F .text._ZN4core3ptr18real_drop_in_place17h5c15b3724bec36b8E	0000000c .hidden _ZN4core3ptr18real_drop_in_place17h5c15b3724bec36b8E
00000000 g     F .text._ZN4core3ptr18real_drop_in_place17h61db2cd4896a85e8E	0000000c .hidden _ZN4core3ptr18real_drop_in_place17h61db2cd4896a85e8E
00000000 g     F .text._ZN4core3ptr18real_drop_in_place17h71a61f5e0b16a079E	0000000c .hidden _ZN4core3ptr18real_drop_in_place17h71a61f5e0b16a079E
00000000 g     F .text._ZN4core3ptr18real_drop_in_place17h8433721386110a46E	0000000c .hidden _ZN4core3ptr18real_drop_in_place17h8433721386110a46E
00000000 g     F .text._ZN4core3ptr18real_drop_in_place17h8ddb29269eb05c35E	0000000c .hidden _ZN4core3ptr18real_drop_in_place17h8ddb29269eb05c35E
00000000 g     F .text._ZN4core3ptr18real_drop_in_place17hc070d4c0ef8e4115E	0000000c .hidden _ZN4core3ptr18real_drop_in_place17hc070d4c0ef8e4115E
00000000 g     F .text._ZN4core3ptr18real_drop_in_place17hc123564ae3ed8ebbE	0000000c .hidden _ZN4core3ptr18real_drop_in_place17hc123564ae3ed8ebbE
00000000 g     F .text._ZN4core3ptr18real_drop_in_place17hc1acff2a2e48bd0eE	0000000c .hidden _ZN4core3ptr18real_drop_in_place17hc1acff2a2e48bd0eE
00000000 g     F .text._ZN4core3ptr18real_drop_in_place17hc5bc1010c39885c2E	0000000c .hidden _ZN4core3ptr18real_drop_in_place17hc5bc1010c39885c2E
00000000 g     F .text._ZN4core3ptr18real_drop_in_place17hd87e1c6e9d133217E	0000000c .hidden _ZN4core3ptr18real_drop_in_place17hd87e1c6e9d133217E
00000000 g     F .text._ZN4core3ptr18real_drop_in_place17hd9bb586f93ae8e74E	0000000c .hidden _ZN4core3ptr18real_drop_in_place17hd9bb586f93ae8e74E
00000000 g     F .text._ZN4core3ptr18real_drop_in_place17hecfa67c2b9b43a2dE	0000000c .hidden _ZN4core3ptr18real_drop_in_place17hecfa67c2b9b43a2dE
00000000 g     F .text._ZN4core3ptr18real_drop_in_place17hf87957598e288e9bE	0000000c .hidden _ZN4core3ptr18real_drop_in_place17hf87957598e288e9bE
00000000 g     F .text._ZN4core3ptr18real_drop_in_place17hf97dacca302dcbe8E	0000000c .hidden _ZN4core3ptr18real_drop_in_place17hf97dacca302dcbe8E
00000000 g     F .text._ZN4core3ptr18real_drop_in_place17hfa44ccca2c7602daE	0000000c .hidden _ZN4core3ptr18real_drop_in_place17hfa44ccca2c7602daE



Disassembly of section .text._ZN4core3ptr18real_drop_in_place17h0285661cd8494b3dE:

00000000 <_ZN4core3ptr18real_drop_in_place17h0285661cd8494b3dE>:
_ZN4core3ptr18real_drop_in_place17h0285661cd8494b3dE():
/rustc/50a0defd5a93523067ef239936cc2e0755220904/src/libcore/ptr.rs:195
   0:	b082      	sub	sp, #8
   2:	4601      	mov	r1, r0
   4:	9001      	str	r0, [sp, #4]
   6:	9100      	str	r1, [sp, #0]
   8:	b002      	add	sp, #8
   a:	4770      	bx	lr

Disassembly of section .text._ZN4core3ptr18real_drop_in_place17h0da6d1fd9ba9e3d1E:

00000000 <_ZN4core3ptr18real_drop_in_place17h0da6d1fd9ba9e3d1E>:
_ZN4core3ptr18real_drop_in_place17h0da6d1fd9ba9e3d1E():
/rustc/50a0defd5a93523067ef239936cc2e0755220904/src/libcore/ptr.rs:195
   0:	b082      	sub	sp, #8
   2:	4601      	mov	r1, r0
   4:	9001      	str	r0, [sp, #4]
   6:	9100      	str	r1, [sp, #0]
   8:	b002      	add	sp, #8
   a:	4770      	bx	lr

Disassembly of section .text._ZN4core3ptr18real_drop_in_place17h1adc7f7cf1df91faE:

00000000 <_ZN4core3ptr18real_drop_in_place17h1adc7f7cf1df91faE>:
_ZN4core3ptr18real_drop_in_place17h1adc7f7cf1df91faE():
/rustc/50a0defd5a93523067ef239936cc2e0755220904/src/libcore/ptr.rs:195
   0:	b082      	sub	sp, #8
   2:	4601      	mov	r1, r0
   4:	9001      	str	r0, [sp, #4]
   6:	9100      	str	r1, [sp, #0]
   8:	b002      	add	sp, #8
   a:	4770      	bx	lr

Disassembly of section .text._ZN4core3ptr18real_drop_in_place17h2d2de804dbfef4e8E:

00000000 <_ZN4core3ptr18real_drop_in_place17h2d2de804dbfef4e8E>:
_ZN4core3ptr18real_drop_in_place17h2d2de804dbfef4e8E():
/rustc/50a0defd5a93523067ef239936cc2e0755220904/src/libcore/ptr.rs:195
   0:	b082      	sub	sp, #8
   2:	4601      	mov	r1, r0
   4:	9001      	str	r0, [sp, #4]
   6:	9100      	str	r1, [sp, #0]
   8:	b002      	add	sp, #8
   a:	4770      	bx	lr

Disassembly of section .text._ZN4core3ptr18real_drop_in_place17h31071160d664b448E:

00000000 <_ZN4core3ptr18real_drop_in_place17h31071160d664b448E>:
_ZN4core3ptr18real_drop_in_place17h31071160d664b448E():
/rustc/50a0defd5a93523067ef239936cc2e0755220904/src/libcore/ptr.rs:195
   0:	b082      	sub	sp, #8
   2:	4601      	mov	r1, r0
   4:	9001      	str	r0, [sp, #4]
   6:	9100      	str	r1, [sp, #0]
   8:	b002      	add	sp, #8
   a:	4770      	bx	lr

Disassembly of section .text._ZN4core3ptr18real_drop_in_place17h3918ec468d425837E:

00000000 <_ZN4core3ptr18real_drop_in_place17h3918ec468d425837E>:
_ZN4core3ptr18real_drop_in_place17h3918ec468d425837E():
/rustc/50a0defd5a93523067ef239936cc2e0755220904/src/libcore/ptr.rs:195
   0:	b082      	sub	sp, #8
   2:	4601      	mov	r1, r0
   4:	9001      	str	r0, [sp, #4]
   6:	9100      	str	r1, [sp, #0]
   8:	b002      	add	sp, #8
   a:	4770      	bx	lr

Disassembly of section .text._ZN4core3ptr18real_drop_in_place17h3b010a68f03e03cdE:

00000000 <_ZN4core3ptr18real_drop_in_place17h3b010a68f03e03cdE>:
_ZN4core3ptr18real_drop_in_place17h3b010a68f03e03cdE():
/rustc/50a0defd5a93523067ef239936cc2e0755220904/src/libcore/ptr.rs:195
   0:	b082      	sub	sp, #8
   2:	4601      	mov	r1, r0
   4:	9001      	str	r0, [sp, #4]
   6:	9100      	str	r1, [sp, #0]
   8:	b002      	add	sp, #8
   a:	4770      	bx	lr

Disassembly of section .text._ZN4core3ptr18real_drop_in_place17h42fdf29cfa820390E:

00000000 <_ZN4core3ptr18real_drop_in_place17h42fdf29cfa820390E>:
_ZN4core3ptr18real_drop_in_place17h42fdf29cfa820390E():
/rustc/50a0defd5a93523067ef239936cc2e0755220904/src/libcore/ptr.rs:195
   0:	b082      	sub	sp, #8
   2:	4601      	mov	r1, r0
   4:	9001      	str	r0, [sp, #4]
   6:	9100      	str	r1, [sp, #0]
   8:	b002      	add	sp, #8
   a:	4770      	bx	lr

Disassembly of section .text._ZN4core3ptr18real_drop_in_place17h46ca4abbb733be64E:

00000000 <_ZN4core3ptr18real_drop_in_place17h46ca4abbb733be64E>:
_ZN4core3ptr18real_drop_in_place17h46ca4abbb733be64E():
/rustc/50a0defd5a93523067ef239936cc2e0755220904/src/libcore/ptr.rs:195
   0:	b082      	sub	sp, #8
   2:	4601      	mov	r1, r0
   4:	9001      	str	r0, [sp, #4]
   6:	9100      	str	r1, [sp, #0]
   8:	b002      	add	sp, #8
   a:	4770      	bx	lr

Disassembly of section .text._ZN4core3ptr18real_drop_in_place17h4bd640a3fdd6fcf1E:

00000000 <_ZN4core3ptr18real_drop_in_place17h4bd640a3fdd6fcf1E>:
_ZN4core3ptr18real_drop_in_place17h4bd640a3fdd6fcf1E():
/rustc/50a0defd5a93523067ef239936cc2e0755220904/src/libcore/ptr.rs:195
   0:	b082      	sub	sp, #8
   2:	4601      	mov	r1, r0
   4:	9001      	str	r0, [sp, #4]
   6:	9100      	str	r1, [sp, #0]
   8:	b002      	add	sp, #8
   a:	4770      	bx	lr

Disassembly of section .text._ZN4core3ptr18real_drop_in_place17h50b771f68ca5bbf7E:

00000000 <_ZN4core3ptr18real_drop_in_place17h50b771f68ca5bbf7E>:
_ZN4core3ptr18real_drop_in_place17h50b771f68ca5bbf7E():
/rustc/50a0defd5a93523067ef239936cc2e0755220904/src/libcore/ptr.rs:195
   0:	b082      	sub	sp, #8
   2:	4601      	mov	r1, r0
   4:	9001      	str	r0, [sp, #4]
   6:	9100      	str	r1, [sp, #0]
   8:	b002      	add	sp, #8
   a:	4770      	bx	lr

Disassembly of section .text._ZN4core3ptr18real_drop_in_place17h5c15b3724bec36b8E:

00000000 <_ZN4core3ptr18real_drop_in_place17h5c15b3724bec36b8E>:
_ZN4core3ptr18real_drop_in_place17h5c15b3724bec36b8E():
/rustc/50a0defd5a93523067ef239936cc2e0755220904/src/libcore/ptr.rs:195
   0:	b082      	sub	sp, #8
   2:	4601      	mov	r1, r0
   4:	9001      	str	r0, [sp, #4]
   6:	9100      	str	r1, [sp, #0]
   8:	b002      	add	sp, #8
   a:	4770      	bx	lr

Disassembly of section .text._ZN4core3ptr18real_drop_in_place17h61db2cd4896a85e8E:

00000000 <_ZN4core3ptr18real_drop_in_place17h61db2cd4896a85e8E>:
_ZN4core3ptr18real_drop_in_place17h61db2cd4896a85e8E():
/rustc/50a0defd5a93523067ef239936cc2e0755220904/src/libcore/ptr.rs:195
   0:	b082      	sub	sp, #8
   2:	4601      	mov	r1, r0
   4:	9001      	str	r0, [sp, #4]
   6:	9100      	str	r1, [sp, #0]
   8:	b002      	add	sp, #8
   a:	4770      	bx	lr

Disassembly of section .text._ZN4core3ptr18real_drop_in_place17h71a61f5e0b16a079E:

00000000 <_ZN4core3ptr18real_drop_in_place17h71a61f5e0b16a079E>:
_ZN4core3ptr18real_drop_in_place17h71a61f5e0b16a079E():
/rustc/50a0defd5a93523067ef239936cc2e0755220904/src/libcore/ptr.rs:195
   0:	b082      	sub	sp, #8
   2:	4601      	mov	r1, r0
   4:	9001      	str	r0, [sp, #4]
   6:	9100      	str	r1, [sp, #0]
   8:	b002      	add	sp, #8
   a:	4770      	bx	lr

Disassembly of section .text._ZN4core3ptr18real_drop_in_place17h8433721386110a46E:

00000000 <_ZN4core3ptr18real_drop_in_place17h8433721386110a46E>:
_ZN4core3ptr18real_drop_in_place17h8433721386110a46E():
/rustc/50a0defd5a93523067ef239936cc2e0755220904/src/libcore/ptr.rs:195
   0:	b082      	sub	sp, #8
   2:	4601      	mov	r1, r0
   4:	9001      	str	r0, [sp, #4]
   6:	9100      	str	r1, [sp, #0]
   8:	b002      	add	sp, #8
   a:	4770      	bx	lr

Disassembly of section .text._ZN4core3ptr18real_drop_in_place17h8ddb29269eb05c35E:

00000000 <_ZN4core3ptr18real_drop_in_place17h8ddb29269eb05c35E>:
_ZN4core3ptr18real_drop_in_place17h8ddb29269eb05c35E():
/rustc/50a0defd5a93523067ef239936cc2e0755220904/src/libcore/ptr.rs:195
   0:	b082      	sub	sp, #8
   2:	4601      	mov	r1, r0
   4:	9001      	str	r0, [sp, #4]
   6:	9100      	str	r1, [sp, #0]
   8:	b002      	add	sp, #8
   a:	4770      	bx	lr

Disassembly of section .text._ZN4core3ptr18real_drop_in_place17hc070d4c0ef8e4115E:

00000000 <_ZN4core3ptr18real_drop_in_place17hc070d4c0ef8e4115E>:
_ZN4core3ptr18real_drop_in_place17hc070d4c0ef8e4115E():
/rustc/50a0defd5a93523067ef239936cc2e0755220904/src/libcore/ptr.rs:195
   0:	b082      	sub	sp, #8
   2:	4601      	mov	r1, r0
   4:	9001      	str	r0, [sp, #4]
   6:	9100      	str	r1, [sp, #0]
   8:	b002      	add	sp, #8
   a:	4770      	bx	lr

Disassembly of section .text._ZN4core3ptr18real_drop_in_place17hc123564ae3ed8ebbE:

00000000 <_ZN4core3ptr18real_drop_in_place17hc123564ae3ed8ebbE>:
_ZN4core3ptr18real_drop_in_place17hc123564ae3ed8ebbE():
/rustc/50a0defd5a93523067ef239936cc2e0755220904/src/libcore/ptr.rs:195
   0:	b082      	sub	sp, #8
   2:	4601      	mov	r1, r0
   4:	9001      	str	r0, [sp, #4]
   6:	9100      	str	r1, [sp, #0]
   8:	b002      	add	sp, #8
   a:	4770      	bx	lr

Disassembly of section .text._ZN4core3ptr18real_drop_in_place17hc1acff2a2e48bd0eE:

00000000 <_ZN4core3ptr18real_drop_in_place17hc1acff2a2e48bd0eE>:
_ZN4core3ptr18real_drop_in_place17hc1acff2a2e48bd0eE():
/rustc/50a0defd5a93523067ef239936cc2e0755220904/src/libcore/ptr.rs:195
   0:	b082      	sub	sp, #8
   2:	4601      	mov	r1, r0
   4:	9001      	str	r0, [sp, #4]
   6:	9100      	str	r1, [sp, #0]
   8:	b002      	add	sp, #8
   a:	4770      	bx	lr

Disassembly of section .text._ZN4core3ptr18real_drop_in_place17hc5bc1010c39885c2E:

00000000 <_ZN4core3ptr18real_drop_in_place17hc5bc1010c39885c2E>:
_ZN4core3ptr18real_drop_in_place17hc5bc1010c39885c2E():
/rustc/50a0defd5a93523067ef239936cc2e0755220904/src/libcore/ptr.rs:195
   0:	b082      	sub	sp, #8
   2:	4601      	mov	r1, r0
   4:	9001      	str	r0, [sp, #4]
   6:	9100      	str	r1, [sp, #0]
   8:	b002      	add	sp, #8
   a:	4770      	bx	lr

Disassembly of section .text._ZN4core3ptr18real_drop_in_place17hd87e1c6e9d133217E:

00000000 <_ZN4core3ptr18real_drop_in_place17hd87e1c6e9d133217E>:
_ZN4core3ptr18real_drop_in_place17hd87e1c6e9d133217E():
/rustc/50a0defd5a93523067ef239936cc2e0755220904/src/libcore/ptr.rs:195
   0:	b082      	sub	sp, #8
   2:	4601      	mov	r1, r0
   4:	9001      	str	r0, [sp, #4]
   6:	9100      	str	r1, [sp, #0]
   8:	b002      	add	sp, #8
   a:	4770      	bx	lr

Disassembly of section .text._ZN4core3ptr18real_drop_in_place17hd9bb586f93ae8e74E:

00000000 <_ZN4core3ptr18real_drop_in_place17hd9bb586f93ae8e74E>:
_ZN4core3ptr18real_drop_in_place17hd9bb586f93ae8e74E():
/rustc/50a0defd5a93523067ef239936cc2e0755220904/src/libcore/ptr.rs:195
   0:	b082      	sub	sp, #8
   2:	4601      	mov	r1, r0
   4:	9001      	str	r0, [sp, #4]
   6:	9100      	str	r1, [sp, #0]
   8:	b002      	add	sp, #8
   a:	4770      	bx	lr

Disassembly of section .text._ZN4core3ptr18real_drop_in_place17hecfa67c2b9b43a2dE:

00000000 <_ZN4core3ptr18real_drop_in_place17hecfa67c2b9b43a2dE>:
_ZN4core3ptr18real_drop_in_place17hecfa67c2b9b43a2dE():
/rustc/50a0defd5a93523067ef239936cc2e0755220904/src/libcore/ptr.rs:195
   0:	b082      	sub	sp, #8
   2:	4601      	mov	r1, r0
   4:	9001      	str	r0, [sp, #4]
   6:	9100      	str	r1, [sp, #0]
   8:	b002      	add	sp, #8
   a:	4770      	bx	lr

Disassembly of section .text._ZN4core3ptr18real_drop_in_place17hf87957598e288e9bE:

00000000 <_ZN4core3ptr18real_drop_in_place17hf87957598e288e9bE>:
_ZN4core3ptr18real_drop_in_place17hf87957598e288e9bE():
/rustc/50a0defd5a93523067ef239936cc2e0755220904/src/libcore/ptr.rs:195
   0:	b082      	sub	sp, #8
   2:	4601      	mov	r1, r0
   4:	9001      	str	r0, [sp, #4]
   6:	9100      	str	r1, [sp, #0]
   8:	b002      	add	sp, #8
   a:	4770      	bx	lr

Disassembly of section .text._ZN4core3ptr18real_drop_in_place17hf97dacca302dcbe8E:

00000000 <_ZN4core3ptr18real_drop_in_place17hf97dacca302dcbe8E>:
_ZN4core3ptr18real_drop_in_place17hf97dacca302dcbe8E():
/rustc/50a0defd5a93523067ef239936cc2e0755220904/src/libcore/ptr.rs:195
   0:	b082      	sub	sp, #8
   2:	4601      	mov	r1, r0
   4:	9001      	str	r0, [sp, #4]
   6:	9100      	str	r1, [sp, #0]
   8:	b002      	add	sp, #8
   a:	4770      	bx	lr

Disassembly of section .text._ZN4core3ptr18real_drop_in_place17hfa44ccca2c7602daE:

00000000 <_ZN4core3ptr18real_drop_in_place17hfa44ccca2c7602daE>:
_ZN4core3ptr18real_drop_in_place17hfa44ccca2c7602daE():
/rustc/50a0defd5a93523067ef239936cc2e0755220904/src/libcore/ptr.rs:195
   0:	b082      	sub	sp, #8
   2:	4601      	mov	r1, r0
   4:	9001      	str	r0, [sp, #4]
   6:	9100      	str	r1, [sp, #0]
   8:	b002      	add	sp, #8
   a:	4770      	bx	lr

mylib-ac95891f38e7979c.3bbvzv7pip6h5983.rcgu.o:     file format elf32-littlearm

SYMBOL TABLE:
00000000 l    df *ABS*	00000000 3bbvzv7pip6h5983
00000000 l       .debug_str	00000000 
00000041 l       .debug_str	00000000 
0000004c l       .debug_str	00000000 
0000006f l       .debug_str	00000000 
00000074 l       .debug_str	00000000 
0000007b l       .debug_str	00000000 
0000007e l       .debug_str	00000000 
00000081 l       .debug_str	00000000 
00000085 l       .debug_str	00000000 
0000008c l       .debug_str	00000000 
00000090 l       .debug_str	00000000 
00000093 l       .debug_str	00000000 
00000096 l       .debug_str	00000000 
0000009b l       .debug_str	00000000 
000000a1 l       .debug_str	00000000 
000000a8 l       .debug_str	00000000 
000000b0 l       .debug_str	00000000 
000000ba l       .debug_str	00000000 
000000be l       .debug_str	00000000 
000000c7 l       .debug_str	00000000 
000000cb l       .debug_str	00000000 
000000cf l       .debug_str	00000000 
000000d5 l       .debug_str	00000000 
000000de l       .debug_str	00000000 
000000e3 l       .debug_str	00000000 
000000ea l       .debug_str	00000000 
000000ee l       .debug_str	00000000 
000000f3 l       .debug_str	00000000 
000000f7 l       .debug_str	00000000 
00000142 l       .debug_str	00000000 
00000144 l       .debug_str	00000000 
00000149 l       .debug_str	00000000 
0000014d l       .debug_str	00000000 
000001a0 l       .debug_str	00000000 
000001a6 l       .debug_str	00000000 
000001aa l       .debug_str	00000000 
000001f6 l       .debug_str	00000000 
0000024a l       .debug_str	00000000 
00000250 l       .debug_str	00000000 
0000029c l       .debug_str	00000000 
000002f0 l       .debug_str	00000000 
000002f6 l       .debug_str	00000000 
00000303 l       .debug_str	00000000 
00000357 l       .debug_str	00000000 
0000035b l       .debug_str	00000000 
00000361 l       .debug_str	00000000 
00000369 l       .debug_str	00000000 
000003c7 l       .debug_str	00000000 
0000042d l       .debug_str	00000000 
00000431 l       .debug_str	00000000 
0000043e l       .debug_str	00000000 
00000452 l       .debug_str	00000000 
0000047c l       .debug_str	00000000 
0000047e l       .debug_str	00000000 
00000480 l       .debug_str	00000000 
00000523 l       .debug_str	00000000 
0000055a l       .debug_str	00000000 
000005fd l       .debug_str	00000000 
00000633 l       .debug_str	00000000 
000006d6 l       .debug_str	00000000 
0000070d l       .debug_str	00000000 
000007b0 l       .debug_str	00000000 
000007e7 l       .debug_str	00000000 
000007eb l       .debug_str	00000000 
000007f1 l       .debug_str	00000000 
000007fb l       .debug_str	00000000 
00000847 l       .debug_str	00000000 
0000089b l       .debug_str	00000000 
000008a0 l       .debug_str	00000000 
000008f2 l       .debug_str	00000000 
000008ff l       .debug_str	00000000 
00000924 l       .debug_str	00000000 
00000929 l       .debug_str	00000000 
00000944 l       .debug_str	00000000 
00000946 l       .debug_str	00000000 
000009f2 l       .debug_str	00000000 
00000a26 l       .debug_str	00000000 
00000ad2 l       .debug_str	00000000 
00000b08 l       .debug_str	00000000 
00000b67 l       .debug_str	00000000 
00000b75 l       .debug_str	00000000 
00000b89 l       .debug_str	00000000 
00000bb3 l       .debug_str	00000000 
00000c5f l       .debug_str	00000000 
00000ca0 l       .debug_str	00000000 
00000ca2 l       .debug_str	00000000 
00000d57 l       .debug_str	00000000 
00000d9e l       .debug_str	00000000 
00000da3 l       .debug_str	00000000 
00000def l       .debug_str	00000000 
00000e3c l       .debug_str	00000000 
00000e3e l       .debug_str	00000000 
00000e44 l       .debug_str	00000000 
00000e49 l       .debug_str	00000000 
00000e4e l       .debug_str	00000000 
00000e54 l       .debug_str	00000000 
00000e5a l       .debug_str	00000000 
00000e68 l       .debug_str	00000000 
00000e72 l       .debug_str	00000000 
00000e76 l       .debug_str	00000000 
00000e7e l       .debug_str	00000000 
00000e85 l       .debug_str	00000000 
00000e99 l       .debug_str	00000000 
00000ea5 l       .debug_str	00000000 
00000eb0 l       .debug_str	00000000 
00000eb7 l       .debug_str	00000000 
00000ebd l       .debug_str	00000000 
00000ec3 l       .debug_str	00000000 
00000ec9 l       .debug_str	00000000 
00000ecc l       .debug_str	00000000 
00000edb l       .debug_str	00000000 
00000ee2 l       .debug_str	00000000 
00000ee6 l       .debug_str	00000000 
00000eef l       .debug_str	00000000 
00000efb l       .debug_str	00000000 
00000f14 l       .debug_str	00000000 
00000f19 l       .debug_str	00000000 
00000f2a l       .debug_str	00000000 
00000f34 l       .debug_str	00000000 
00000f92 l       .debug_str	00000000 
00000f9d l       .debug_str	00000000 
00000fba l       .debug_str	00000000 
00000fbe l       .debug_str	00000000 
00000fc6 l       .debug_str	00000000 
00000fdd l       .debug_str	00000000 
00001001 l       .debug_str	00000000 
0000101d l       .debug_str	00000000 
00001022 l       .debug_str	00000000 
0000102b l       .debug_str	00000000 
00001032 l       .debug_str	00000000 
0000104b l       .debug_str	00000000 
00001055 l       .debug_str	00000000 
0000106f l       .debug_str	00000000 
000010bb l       .debug_str	00000000 
00001108 l       .debug_str	00000000 
00001155 l       .debug_str	00000000 
0000119f l       .debug_str	00000000 
000011ea l       .debug_str	00000000 
00001237 l       .debug_str	00000000 
0000128e l       .debug_str	00000000 
000012e6 l       .debug_str	00000000 
00000000 l    d  .text._ZN4core3ptr123_$LT$impl$u20$core..fmt..Debug$u20$for$u20$unsafe$u20$extern$u20$$u22$C$u22$$u20$fn$LP$A$C$$u20$B$RP$$u20$.$GT$$u20$Ret$GT$3fmt17h178155da6feae1c2E	00000000 .text._ZN4core3ptr123_$LT$impl$u20$core..fmt..Debug$u20$for$u20$unsafe$u20$extern$u20$$u22$C$u22$$u20$fn$LP$A$C$$u20$B$RP$$u20$.$GT$$u20$Ret$GT$3fmt17h178155da6feae1c2E
00000000 l    d  .text._ZN4core3ptr123_$LT$impl$u20$core..fmt..Debug$u20$for$u20$unsafe$u20$extern$u20$$u22$C$u22$$u20$fn$LP$A$C$$u20$B$RP$$u20$.$GT$$u20$Ret$GT$3fmt17h56de6a03705e611bE	00000000 .text._ZN4core3ptr123_$LT$impl$u20$core..fmt..Debug$u20$for$u20$unsafe$u20$extern$u20$$u22$C$u22$$u20$fn$LP$A$C$$u20$B$RP$$u20$.$GT$$u20$Ret$GT$3fmt17h56de6a03705e611bE
00000000 l    d  .text._ZN4core3ptr123_$LT$impl$u20$core..fmt..Debug$u20$for$u20$unsafe$u20$extern$u20$$u22$C$u22$$u20$fn$LP$A$C$$u20$B$RP$$u20$.$GT$$u20$Ret$GT$3fmt17hb379141910f1648bE	00000000 .text._ZN4core3ptr123_$LT$impl$u20$core..fmt..Debug$u20$for$u20$unsafe$u20$extern$u20$$u22$C$u22$$u20$fn$LP$A$C$$u20$B$RP$$u20$.$GT$$u20$Ret$GT$3fmt17hb379141910f1648bE
00000000 l    d  .text._ZN4core3ptr123_$LT$impl$u20$core..fmt..Debug$u20$for$u20$unsafe$u20$extern$u20$$u22$C$u22$$u20$fn$LP$A$C$$u20$B$RP$$u20$.$GT$$u20$Ret$GT$3fmt17hdfbd2c91d2484a13E	00000000 .text._ZN4core3ptr123_$LT$impl$u20$core..fmt..Debug$u20$for$u20$unsafe$u20$extern$u20$$u22$C$u22$$u20$fn$LP$A$C$$u20$B$RP$$u20$.$GT$$u20$Ret$GT$3fmt17hdfbd2c91d2484a13E
00000000 l    d  .text._ZN4core3ptr132_$LT$impl$u20$core..fmt..Debug$u20$for$u20$unsafe$u20$extern$u20$$u22$C$u22$$u20$fn$LP$A$C$$u20$B$C$$u20$C$RP$$u20$.$GT$$u20$Ret$GT$3fmt17h85ffdd6b6d76f88cE	00000000 .text._ZN4core3ptr132_$LT$impl$u20$core..fmt..Debug$u20$for$u20$unsafe$u20$extern$u20$$u22$C$u22$$u20$fn$LP$A$C$$u20$B$C$$u20$C$RP$$u20$.$GT$$u20$Ret$GT$3fmt17h85ffdd6b6d76f88cE
00000000 l    d  .text._ZN4core3ptr132_$LT$impl$u20$core..fmt..Debug$u20$for$u20$unsafe$u20$extern$u20$$u22$C$u22$$u20$fn$LP$A$C$$u20$B$C$$u20$C$RP$$u20$.$GT$$u20$Ret$GT$3fmt17hb1a21e3cb766ebfbE	00000000 .text._ZN4core3ptr132_$LT$impl$u20$core..fmt..Debug$u20$for$u20$unsafe$u20$extern$u20$$u22$C$u22$$u20$fn$LP$A$C$$u20$B$C$$u20$C$RP$$u20$.$GT$$u20$Ret$GT$3fmt17hb1a21e3cb766ebfbE
00000000 l    d  .text._ZN4core3ptr132_$LT$impl$u20$core..fmt..Debug$u20$for$u20$unsafe$u20$extern$u20$$u22$C$u22$$u20$fn$LP$A$C$$u20$B$C$$u20$C$RP$$u20$.$GT$$u20$Ret$GT$3fmt17hbc1c20b4cae7961eE	00000000 .text._ZN4core3ptr132_$LT$impl$u20$core..fmt..Debug$u20$for$u20$unsafe$u20$extern$u20$$u22$C$u22$$u20$fn$LP$A$C$$u20$B$C$$u20$C$RP$$u20$.$GT$$u20$Ret$GT$3fmt17hbc1c20b4cae7961eE
00000000 l    d  .text._ZN4core3ptr141_$LT$impl$u20$core..fmt..Debug$u20$for$u20$unsafe$u20$extern$u20$$u22$C$u22$$u20$fn$LP$A$C$$u20$B$C$$u20$C$C$$u20$D$RP$$u20$.$GT$$u20$Ret$GT$3fmt17h20bf7416cf5ef03cE	00000000 .text._ZN4core3ptr141_$LT$impl$u20$core..fmt..Debug$u20$for$u20$unsafe$u20$extern$u20$$u22$C$u22$$u20$fn$LP$A$C$$u20$B$C$$u20$C$C$$u20$D$RP$$u20$.$GT$$u20$Ret$GT$3fmt17h20bf7416cf5ef03cE
00000000 l    d  .debug_abbrev	00000000 .debug_abbrev
00000000 l    d  .debug_info	00000000 .debug_info
00000000 l    d  .debug_ranges	00000000 .debug_ranges
00000000 l    d  .debug_frame	00000000 .debug_frame
00000000 l    d  .debug_line	00000000 .debug_line
00000000 g     F .text._ZN4core3ptr123_$LT$impl$u20$core..fmt..Debug$u20$for$u20$unsafe$u20$extern$u20$$u22$C$u22$$u20$fn$LP$A$C$$u20$B$RP$$u20$.$GT$$u20$Ret$GT$3fmt17h178155da6feae1c2E	0000002c _ZN4core3ptr123_$LT$impl$u20$core..fmt..Debug$u20$for$u20$unsafe$u20$extern$u20$$u22$C$u22$$u20$fn$LP$A$C$$u20$B$RP$$u20$.$GT$$u20$Ret$GT$3fmt17h178155da6feae1c2E
00000000 g     F .text._ZN4core3ptr123_$LT$impl$u20$core..fmt..Debug$u20$for$u20$unsafe$u20$extern$u20$$u22$C$u22$$u20$fn$LP$A$C$$u20$B$RP$$u20$.$GT$$u20$Ret$GT$3fmt17h56de6a03705e611bE	0000002c _ZN4core3ptr123_$LT$impl$u20$core..fmt..Debug$u20$for$u20$unsafe$u20$extern$u20$$u22$C$u22$$u20$fn$LP$A$C$$u20$B$RP$$u20$.$GT$$u20$Ret$GT$3fmt17h56de6a03705e611bE
00000000 g     F .text._ZN4core3ptr123_$LT$impl$u20$core..fmt..Debug$u20$for$u20$unsafe$u20$extern$u20$$u22$C$u22$$u20$fn$LP$A$C$$u20$B$RP$$u20$.$GT$$u20$Ret$GT$3fmt17hb379141910f1648bE	0000002c _ZN4core3ptr123_$LT$impl$u20$core..fmt..Debug$u20$for$u20$unsafe$u20$extern$u20$$u22$C$u22$$u20$fn$LP$A$C$$u20$B$RP$$u20$.$GT$$u20$Ret$GT$3fmt17hb379141910f1648bE
00000000 g     F .text._ZN4core3ptr123_$LT$impl$u20$core..fmt..Debug$u20$for$u20$unsafe$u20$extern$u20$$u22$C$u22$$u20$fn$LP$A$C$$u20$B$RP$$u20$.$GT$$u20$Ret$GT$3fmt17hdfbd2c91d2484a13E	0000002c _ZN4core3ptr123_$LT$impl$u20$core..fmt..Debug$u20$for$u20$unsafe$u20$extern$u20$$u22$C$u22$$u20$fn$LP$A$C$$u20$B$RP$$u20$.$GT$$u20$Ret$GT$3fmt17hdfbd2c91d2484a13E
00000000 g     F .text._ZN4core3ptr132_$LT$impl$u20$core..fmt..Debug$u20$for$u20$unsafe$u20$extern$u20$$u22$C$u22$$u20$fn$LP$A$C$$u20$B$C$$u20$C$RP$$u20$.$GT$$u20$Ret$GT$3fmt17h85ffdd6b6d76f88cE	0000002c _ZN4core3ptr132_$LT$impl$u20$core..fmt..Debug$u20$for$u20$unsafe$u20$extern$u20$$u22$C$u22$$u20$fn$LP$A$C$$u20$B$C$$u20$C$RP$$u20$.$GT$$u20$Ret$GT$3fmt17h85ffdd6b6d76f88cE
00000000 g     F .text._ZN4core3ptr132_$LT$impl$u20$core..fmt..Debug$u20$for$u20$unsafe$u20$extern$u20$$u22$C$u22$$u20$fn$LP$A$C$$u20$B$C$$u20$C$RP$$u20$.$GT$$u20$Ret$GT$3fmt17hb1a21e3cb766ebfbE	0000002c _ZN4core3ptr132_$LT$impl$u20$core..fmt..Debug$u20$for$u20$unsafe$u20$extern$u20$$u22$C$u22$$u20$fn$LP$A$C$$u20$B$C$$u20$C$RP$$u20$.$GT$$u20$Ret$GT$3fmt17hb1a21e3cb766ebfbE
00000000 g     F .text._ZN4core3ptr132_$LT$impl$u20$core..fmt..Debug$u20$for$u20$unsafe$u20$extern$u20$$u22$C$u22$$u20$fn$LP$A$C$$u20$B$C$$u20$C$RP$$u20$.$GT$$u20$Ret$GT$3fmt17hbc1c20b4cae7961eE	0000002c _ZN4core3ptr132_$LT$impl$u20$core..fmt..Debug$u20$for$u20$unsafe$u20$extern$u20$$u22$C$u22$$u20$fn$LP$A$C$$u20$B$C$$u20$C$RP$$u20$.$GT$$u20$Ret$GT$3fmt17hbc1c20b4cae7961eE
00000000 g     F .text._ZN4core3ptr141_$LT$impl$u20$core..fmt..Debug$u20$for$u20$unsafe$u20$extern$u20$$u22$C$u22$$u20$fn$LP$A$C$$u20$B$C$$u20$C$C$$u20$D$RP$$u20$.$GT$$u20$Ret$GT$3fmt17h20bf7416cf5ef03cE	0000002c _ZN4core3ptr141_$LT$impl$u20$core..fmt..Debug$u20$for$u20$unsafe$u20$extern$u20$$u22$C$u22$$u20$fn$LP$A$C$$u20$B$C$$u20$C$C$$u20$D$RP$$u20$.$GT$$u20$Ret$GT$3fmt17h20bf7416cf5ef03cE
00000000         *UND*	00000000 _ZN54_$LT$$BP$const$u20$T$u20$as$u20$core..fmt..Pointer$GT$3fmt17he4f54e4c19abbcc9E



Disassembly of section .text._ZN4core3ptr123_$LT$impl$u20$core..fmt..Debug$u20$for$u20$unsafe$u20$extern$u20$$u22$C$u22$$u20$fn$LP$A$C$$u20$B$RP$$u20$.$GT$$u20$Ret$GT$3fmt17h178155da6feae1c2E:

00000000 <_ZN4core3ptr123_$LT$impl$u20$core..fmt..Debug$u20$for$u20$unsafe$u20$extern$u20$$u22$C$u22$$u20$fn$LP$A$C$$u20$B$RP$$u20$.$GT$$u20$Ret$GT$3fmt17h178155da6feae1c2E>:
_ZN4core3ptr123_$LT$impl$u20$core..fmt..Debug$u20$for$u20$unsafe$u20$extern$u20$$u22$C$u22$$u20$fn$LP$A$C$$u20$B$RP$$u20$.$GT$$u20$Ret$GT$3fmt17h178155da6feae1c2E():
/rustc/50a0defd5a93523067ef239936cc2e0755220904/src/libcore/ptr.rs:2638
   0:	b580      	push	{r7, lr}
   2:	b086      	sub	sp, #24
   4:	460a      	mov	r2, r1
   6:	4603      	mov	r3, r0
   8:	9003      	str	r0, [sp, #12]
   a:	9104      	str	r1, [sp, #16]
/rustc/50a0defd5a93523067ef239936cc2e0755220904/src/libcore/ptr.rs:2639
   c:	9803      	ldr	r0, [sp, #12]
   e:	6800      	ldr	r0, [r0, #0]
  10:	9005      	str	r0, [sp, #20]
  12:	9904      	ldr	r1, [sp, #16]
  14:	a805      	add	r0, sp, #20
  16:	9202      	str	r2, [sp, #8]
  18:	9301      	str	r3, [sp, #4]
  1a:	f7ff fffe 	bl	0 <_ZN54_$LT$$BP$const$u20$T$u20$as$u20$core..fmt..Pointer$GT$3fmt17he4f54e4c19abbcc9E>
  1e:	9000      	str	r0, [sp, #0]
  20:	e7ff      	b.n	22 <_ZN4core3ptr123_$LT$impl$u20$core..fmt..Debug$u20$for$u20$unsafe$u20$extern$u20$$u22$C$u22$$u20$fn$LP$A$C$$u20$B$RP$$u20$.$GT$$u20$Ret$GT$3fmt17h178155da6feae1c2E+0x22>
/rustc/50a0defd5a93523067ef239936cc2e0755220904/src/libcore/ptr.rs:2640
  22:	9800      	ldr	r0, [sp, #0]
  24:	f000 0001 	and.w	r0, r0, #1
  28:	b006      	add	sp, #24
  2a:	bd80      	pop	{r7, pc}

Disassembly of section .text._ZN4core3ptr123_$LT$impl$u20$core..fmt..Debug$u20$for$u20$unsafe$u20$extern$u20$$u22$C$u22$$u20$fn$LP$A$C$$u20$B$RP$$u20$.$GT$$u20$Ret$GT$3fmt17h56de6a03705e611bE:

00000000 <_ZN4core3ptr123_$LT$impl$u20$core..fmt..Debug$u20$for$u20$unsafe$u20$extern$u20$$u22$C$u22$$u20$fn$LP$A$C$$u20$B$RP$$u20$.$GT$$u20$Ret$GT$3fmt17h56de6a03705e611bE>:
_ZN4core3ptr123_$LT$impl$u20$core..fmt..Debug$u20$for$u20$unsafe$u20$extern$u20$$u22$C$u22$$u20$fn$LP$A$C$$u20$B$RP$$u20$.$GT$$u20$Ret$GT$3fmt17h56de6a03705e611bE():
/rustc/50a0defd5a93523067ef239936cc2e0755220904/src/libcore/ptr.rs:2638
   0:	b580      	push	{r7, lr}
   2:	b086      	sub	sp, #24
   4:	460a      	mov	r2, r1
   6:	4603      	mov	r3, r0
   8:	9003      	str	r0, [sp, #12]
   a:	9104      	str	r1, [sp, #16]
/rustc/50a0defd5a93523067ef239936cc2e0755220904/src/libcore/ptr.rs:2639
   c:	9803      	ldr	r0, [sp, #12]
   e:	6800      	ldr	r0, [r0, #0]
  10:	9005      	str	r0, [sp, #20]
  12:	9904      	ldr	r1, [sp, #16]
  14:	a805      	add	r0, sp, #20
  16:	9202      	str	r2, [sp, #8]
  18:	9301      	str	r3, [sp, #4]
  1a:	f7ff fffe 	bl	0 <_ZN54_$LT$$BP$const$u20$T$u20$as$u20$core..fmt..Pointer$GT$3fmt17he4f54e4c19abbcc9E>
  1e:	9000      	str	r0, [sp, #0]
  20:	e7ff      	b.n	22 <_ZN4core3ptr123_$LT$impl$u20$core..fmt..Debug$u20$for$u20$unsafe$u20$extern$u20$$u22$C$u22$$u20$fn$LP$A$C$$u20$B$RP$$u20$.$GT$$u20$Ret$GT$3fmt17h56de6a03705e611bE+0x22>
/rustc/50a0defd5a93523067ef239936cc2e0755220904/src/libcore/ptr.rs:2640
  22:	9800      	ldr	r0, [sp, #0]
  24:	f000 0001 	and.w	r0, r0, #1
  28:	b006      	add	sp, #24
  2a:	bd80      	pop	{r7, pc}

Disassembly of section .text._ZN4core3ptr123_$LT$impl$u20$core..fmt..Debug$u20$for$u20$unsafe$u20$extern$u20$$u22$C$u22$$u20$fn$LP$A$C$$u20$B$RP$$u20$.$GT$$u20$Ret$GT$3fmt17hb379141910f1648bE:

00000000 <_ZN4core3ptr123_$LT$impl$u20$core..fmt..Debug$u20$for$u20$unsafe$u20$extern$u20$$u22$C$u22$$u20$fn$LP$A$C$$u20$B$RP$$u20$.$GT$$u20$Ret$GT$3fmt17hb379141910f1648bE>:
_ZN4core3ptr123_$LT$impl$u20$core..fmt..Debug$u20$for$u20$unsafe$u20$extern$u20$$u22$C$u22$$u20$fn$LP$A$C$$u20$B$RP$$u20$.$GT$$u20$Ret$GT$3fmt17hb379141910f1648bE():
/rustc/50a0defd5a93523067ef239936cc2e0755220904/src/libcore/ptr.rs:2638
   0:	b580      	push	{r7, lr}
   2:	b086      	sub	sp, #24
   4:	460a      	mov	r2, r1
   6:	4603      	mov	r3, r0
   8:	9003      	str	r0, [sp, #12]
   a:	9104      	str	r1, [sp, #16]
/rustc/50a0defd5a93523067ef239936cc2e0755220904/src/libcore/ptr.rs:2639
   c:	9803      	ldr	r0, [sp, #12]
   e:	6800      	ldr	r0, [r0, #0]
  10:	9005      	str	r0, [sp, #20]
  12:	9904      	ldr	r1, [sp, #16]
  14:	a805      	add	r0, sp, #20
  16:	9202      	str	r2, [sp, #8]
  18:	9301      	str	r3, [sp, #4]
  1a:	f7ff fffe 	bl	0 <_ZN54_$LT$$BP$const$u20$T$u20$as$u20$core..fmt..Pointer$GT$3fmt17he4f54e4c19abbcc9E>
  1e:	9000      	str	r0, [sp, #0]
  20:	e7ff      	b.n	22 <_ZN4core3ptr123_$LT$impl$u20$core..fmt..Debug$u20$for$u20$unsafe$u20$extern$u20$$u22$C$u22$$u20$fn$LP$A$C$$u20$B$RP$$u20$.$GT$$u20$Ret$GT$3fmt17hb379141910f1648bE+0x22>
/rustc/50a0defd5a93523067ef239936cc2e0755220904/src/libcore/ptr.rs:2640
  22:	9800      	ldr	r0, [sp, #0]
  24:	f000 0001 	and.w	r0, r0, #1
  28:	b006      	add	sp, #24
  2a:	bd80      	pop	{r7, pc}

Disassembly of section .text._ZN4core3ptr123_$LT$impl$u20$core..fmt..Debug$u20$for$u20$unsafe$u20$extern$u20$$u22$C$u22$$u20$fn$LP$A$C$$u20$B$RP$$u20$.$GT$$u20$Ret$GT$3fmt17hdfbd2c91d2484a13E:

00000000 <_ZN4core3ptr123_$LT$impl$u20$core..fmt..Debug$u20$for$u20$unsafe$u20$extern$u20$$u22$C$u22$$u20$fn$LP$A$C$$u20$B$RP$$u20$.$GT$$u20$Ret$GT$3fmt17hdfbd2c91d2484a13E>:
_ZN4core3ptr123_$LT$impl$u20$core..fmt..Debug$u20$for$u20$unsafe$u20$extern$u20$$u22$C$u22$$u20$fn$LP$A$C$$u20$B$RP$$u20$.$GT$$u20$Ret$GT$3fmt17hdfbd2c91d2484a13E():
/rustc/50a0defd5a93523067ef239936cc2e0755220904/src/libcore/ptr.rs:2638
   0:	b580      	push	{r7, lr}
   2:	b086      	sub	sp, #24
   4:	460a      	mov	r2, r1
   6:	4603      	mov	r3, r0
   8:	9003      	str	r0, [sp, #12]
   a:	9104      	str	r1, [sp, #16]
/rustc/50a0defd5a93523067ef239936cc2e0755220904/src/libcore/ptr.rs:2639
   c:	9803      	ldr	r0, [sp, #12]
   e:	6800      	ldr	r0, [r0, #0]
  10:	9005      	str	r0, [sp, #20]
  12:	9904      	ldr	r1, [sp, #16]
  14:	a805      	add	r0, sp, #20
  16:	9202      	str	r2, [sp, #8]
  18:	9301      	str	r3, [sp, #4]
  1a:	f7ff fffe 	bl	0 <_ZN54_$LT$$BP$const$u20$T$u20$as$u20$core..fmt..Pointer$GT$3fmt17he4f54e4c19abbcc9E>
  1e:	9000      	str	r0, [sp, #0]
  20:	e7ff      	b.n	22 <_ZN4core3ptr123_$LT$impl$u20$core..fmt..Debug$u20$for$u20$unsafe$u20$extern$u20$$u22$C$u22$$u20$fn$LP$A$C$$u20$B$RP$$u20$.$GT$$u20$Ret$GT$3fmt17hdfbd2c91d2484a13E+0x22>
/rustc/50a0defd5a93523067ef239936cc2e0755220904/src/libcore/ptr.rs:2640
  22:	9800      	ldr	r0, [sp, #0]
  24:	f000 0001 	and.w	r0, r0, #1
  28:	b006      	add	sp, #24
  2a:	bd80      	pop	{r7, pc}

Disassembly of section .text._ZN4core3ptr132_$LT$impl$u20$core..fmt..Debug$u20$for$u20$unsafe$u20$extern$u20$$u22$C$u22$$u20$fn$LP$A$C$$u20$B$C$$u20$C$RP$$u20$.$GT$$u20$Ret$GT$3fmt17h85ffdd6b6d76f88cE:

00000000 <_ZN4core3ptr132_$LT$impl$u20$core..fmt..Debug$u20$for$u20$unsafe$u20$extern$u20$$u22$C$u22$$u20$fn$LP$A$C$$u20$B$C$$u20$C$RP$$u20$.$GT$$u20$Ret$GT$3fmt17h85ffdd6b6d76f88cE>:
_ZN4core3ptr132_$LT$impl$u20$core..fmt..Debug$u20$for$u20$unsafe$u20$extern$u20$$u22$C$u22$$u20$fn$LP$A$C$$u20$B$C$$u20$C$RP$$u20$.$GT$$u20$Ret$GT$3fmt17h85ffdd6b6d76f88cE():
/rustc/50a0defd5a93523067ef239936cc2e0755220904/src/libcore/ptr.rs:2638
   0:	b580      	push	{r7, lr}
   2:	b086      	sub	sp, #24
   4:	460a      	mov	r2, r1
   6:	4603      	mov	r3, r0
   8:	9003      	str	r0, [sp, #12]
   a:	9104      	str	r1, [sp, #16]
/rustc/50a0defd5a93523067ef239936cc2e0755220904/src/libcore/ptr.rs:2639
   c:	9803      	ldr	r0, [sp, #12]
   e:	6800      	ldr	r0, [r0, #0]
  10:	9005      	str	r0, [sp, #20]
  12:	9904      	ldr	r1, [sp, #16]
  14:	a805      	add	r0, sp, #20
  16:	9202      	str	r2, [sp, #8]
  18:	9301      	str	r3, [sp, #4]
  1a:	f7ff fffe 	bl	0 <_ZN54_$LT$$BP$const$u20$T$u20$as$u20$core..fmt..Pointer$GT$3fmt17he4f54e4c19abbcc9E>
  1e:	9000      	str	r0, [sp, #0]
  20:	e7ff      	b.n	22 <_ZN4core3ptr132_$LT$impl$u20$core..fmt..Debug$u20$for$u20$unsafe$u20$extern$u20$$u22$C$u22$$u20$fn$LP$A$C$$u20$B$C$$u20$C$RP$$u20$.$GT$$u20$Ret$GT$3fmt17h85ffdd6b6d76f88cE+0x22>
/rustc/50a0defd5a93523067ef239936cc2e0755220904/src/libcore/ptr.rs:2640
  22:	9800      	ldr	r0, [sp, #0]
  24:	f000 0001 	and.w	r0, r0, #1
  28:	b006      	add	sp, #24
  2a:	bd80      	pop	{r7, pc}

Disassembly of section .text._ZN4core3ptr132_$LT$impl$u20$core..fmt..Debug$u20$for$u20$unsafe$u20$extern$u20$$u22$C$u22$$u20$fn$LP$A$C$$u20$B$C$$u20$C$RP$$u20$.$GT$$u20$Ret$GT$3fmt17hb1a21e3cb766ebfbE:

00000000 <_ZN4core3ptr132_$LT$impl$u20$core..fmt..Debug$u20$for$u20$unsafe$u20$extern$u20$$u22$C$u22$$u20$fn$LP$A$C$$u20$B$C$$u20$C$RP$$u20$.$GT$$u20$Ret$GT$3fmt17hb1a21e3cb766ebfbE>:
_ZN4core3ptr132_$LT$impl$u20$core..fmt..Debug$u20$for$u20$unsafe$u20$extern$u20$$u22$C$u22$$u20$fn$LP$A$C$$u20$B$C$$u20$C$RP$$u20$.$GT$$u20$Ret$GT$3fmt17hb1a21e3cb766ebfbE():
/rustc/50a0defd5a93523067ef239936cc2e0755220904/src/libcore/ptr.rs:2638
   0:	b580      	push	{r7, lr}
   2:	b086      	sub	sp, #24
   4:	460a      	mov	r2, r1
   6:	4603      	mov	r3, r0
   8:	9003      	str	r0, [sp, #12]
   a:	9104      	str	r1, [sp, #16]
/rustc/50a0defd5a93523067ef239936cc2e0755220904/src/libcore/ptr.rs:2639
   c:	9803      	ldr	r0, [sp, #12]
   e:	6800      	ldr	r0, [r0, #0]
  10:	9005      	str	r0, [sp, #20]
  12:	9904      	ldr	r1, [sp, #16]
  14:	a805      	add	r0, sp, #20
  16:	9202      	str	r2, [sp, #8]
  18:	9301      	str	r3, [sp, #4]
  1a:	f7ff fffe 	bl	0 <_ZN54_$LT$$BP$const$u20$T$u20$as$u20$core..fmt..Pointer$GT$3fmt17he4f54e4c19abbcc9E>
  1e:	9000      	str	r0, [sp, #0]
  20:	e7ff      	b.n	22 <_ZN4core3ptr132_$LT$impl$u20$core..fmt..Debug$u20$for$u20$unsafe$u20$extern$u20$$u22$C$u22$$u20$fn$LP$A$C$$u20$B$C$$u20$C$RP$$u20$.$GT$$u20$Ret$GT$3fmt17hb1a21e3cb766ebfbE+0x22>
/rustc/50a0defd5a93523067ef239936cc2e0755220904/src/libcore/ptr.rs:2640
  22:	9800      	ldr	r0, [sp, #0]
  24:	f000 0001 	and.w	r0, r0, #1
  28:	b006      	add	sp, #24
  2a:	bd80      	pop	{r7, pc}

Disassembly of section .text._ZN4core3ptr132_$LT$impl$u20$core..fmt..Debug$u20$for$u20$unsafe$u20$extern$u20$$u22$C$u22$$u20$fn$LP$A$C$$u20$B$C$$u20$C$RP$$u20$.$GT$$u20$Ret$GT$3fmt17hbc1c20b4cae7961eE:

00000000 <_ZN4core3ptr132_$LT$impl$u20$core..fmt..Debug$u20$for$u20$unsafe$u20$extern$u20$$u22$C$u22$$u20$fn$LP$A$C$$u20$B$C$$u20$C$RP$$u20$.$GT$$u20$Ret$GT$3fmt17hbc1c20b4cae7961eE>:
_ZN4core3ptr132_$LT$impl$u20$core..fmt..Debug$u20$for$u20$unsafe$u20$extern$u20$$u22$C$u22$$u20$fn$LP$A$C$$u20$B$C$$u20$C$RP$$u20$.$GT$$u20$Ret$GT$3fmt17hbc1c20b4cae7961eE():
/rustc/50a0defd5a93523067ef239936cc2e0755220904/src/libcore/ptr.rs:2638
   0:	b580      	push	{r7, lr}
   2:	b086      	sub	sp, #24
   4:	460a      	mov	r2, r1
   6:	4603      	mov	r3, r0
   8:	9003      	str	r0, [sp, #12]
   a:	9104      	str	r1, [sp, #16]
/rustc/50a0defd5a93523067ef239936cc2e0755220904/src/libcore/ptr.rs:2639
   c:	9803      	ldr	r0, [sp, #12]
   e:	6800      	ldr	r0, [r0, #0]
  10:	9005      	str	r0, [sp, #20]
  12:	9904      	ldr	r1, [sp, #16]
  14:	a805      	add	r0, sp, #20
  16:	9202      	str	r2, [sp, #8]
  18:	9301      	str	r3, [sp, #4]
  1a:	f7ff fffe 	bl	0 <_ZN54_$LT$$BP$const$u20$T$u20$as$u20$core..fmt..Pointer$GT$3fmt17he4f54e4c19abbcc9E>
  1e:	9000      	str	r0, [sp, #0]
  20:	e7ff      	b.n	22 <_ZN4core3ptr132_$LT$impl$u20$core..fmt..Debug$u20$for$u20$unsafe$u20$extern$u20$$u22$C$u22$$u20$fn$LP$A$C$$u20$B$C$$u20$C$RP$$u20$.$GT$$u20$Ret$GT$3fmt17hbc1c20b4cae7961eE+0x22>
/rustc/50a0defd5a93523067ef239936cc2e0755220904/src/libcore/ptr.rs:2640
  22:	9800      	ldr	r0, [sp, #0]
  24:	f000 0001 	and.w	r0, r0, #1
  28:	b006      	add	sp, #24
  2a:	bd80      	pop	{r7, pc}

Disassembly of section .text._ZN4core3ptr141_$LT$impl$u20$core..fmt..Debug$u20$for$u20$unsafe$u20$extern$u20$$u22$C$u22$$u20$fn$LP$A$C$$u20$B$C$$u20$C$C$$u20$D$RP$$u20$.$GT$$u20$Ret$GT$3fmt17h20bf7416cf5ef03cE:

00000000 <_ZN4core3ptr141_$LT$impl$u20$core..fmt..Debug$u20$for$u20$unsafe$u20$extern$u20$$u22$C$u22$$u20$fn$LP$A$C$$u20$B$C$$u20$C$C$$u20$D$RP$$u20$.$GT$$u20$Ret$GT$3fmt17h20bf7416cf5ef03cE>:
_ZN4core3ptr141_$LT$impl$u20$core..fmt..Debug$u20$for$u20$unsafe$u20$extern$u20$$u22$C$u22$$u20$fn$LP$A$C$$u20$B$C$$u20$C$C$$u20$D$RP$$u20$.$GT$$u20$Ret$GT$3fmt17h20bf7416cf5ef03cE():
/rustc/50a0defd5a93523067ef239936cc2e0755220904/src/libcore/ptr.rs:2638
   0:	b580      	push	{r7, lr}
   2:	b086      	sub	sp, #24
   4:	460a      	mov	r2, r1
   6:	4603      	mov	r3, r0
   8:	9003      	str	r0, [sp, #12]
   a:	9104      	str	r1, [sp, #16]
/rustc/50a0defd5a93523067ef239936cc2e0755220904/src/libcore/ptr.rs:2639
   c:	9803      	ldr	r0, [sp, #12]
   e:	6800      	ldr	r0, [r0, #0]
  10:	9005      	str	r0, [sp, #20]
  12:	9904      	ldr	r1, [sp, #16]
  14:	a805      	add	r0, sp, #20
  16:	9202      	str	r2, [sp, #8]
  18:	9301      	str	r3, [sp, #4]
  1a:	f7ff fffe 	bl	0 <_ZN54_$LT$$BP$const$u20$T$u20$as$u20$core..fmt..Pointer$GT$3fmt17he4f54e4c19abbcc9E>
  1e:	9000      	str	r0, [sp, #0]
  20:	e7ff      	b.n	22 <_ZN4core3ptr141_$LT$impl$u20$core..fmt..Debug$u20$for$u20$unsafe$u20$extern$u20$$u22$C$u22$$u20$fn$LP$A$C$$u20$B$C$$u20$C$C$$u20$D$RP$$u20$.$GT$$u20$Ret$GT$3fmt17h20bf7416cf5ef03cE+0x22>
/rustc/50a0defd5a93523067ef239936cc2e0755220904/src/libcore/ptr.rs:2640
  22:	9800      	ldr	r0, [sp, #0]
  24:	f000 0001 	and.w	r0, r0, #1
  28:	b006      	add	sp, #24
  2a:	bd80      	pop	{r7, pc}

mylib-ac95891f38e7979c.3e590j6e1x762ubq.rcgu.o:     file format elf32-littlearm

SYMBOL TABLE:
00000000 l    df *ABS*	00000000 3e590j6e1x762ubq
00000000 l       .debug_str	00000000 
00000041 l       .debug_str	00000000 
0000004c l       .debug_str	00000000 
0000006f l       .debug_str	00000000 
00000074 l       .debug_str	00000000 
0000007b l       .debug_str	00000000 
0000007e l       .debug_str	00000000 
00000081 l       .debug_str	00000000 
00000085 l       .debug_str	00000000 
0000008c l       .debug_str	00000000 
00000090 l       .debug_str	00000000 
00000093 l       .debug_str	00000000 
00000096 l       .debug_str	00000000 
0000009b l       .debug_str	00000000 
000000a1 l       .debug_str	00000000 
000000a8 l       .debug_str	00000000 
000000b0 l       .debug_str	00000000 
000000ba l       .debug_str	00000000 
000000c3 l       .debug_str	00000000 
000000c9 l       .debug_str	00000000 
000000d2 l       .debug_str	00000000 
000000d4 l       .debug_str	00000000 
000000d9 l       .debug_str	00000000 
000000e0 l       .debug_str	00000000 
000000e4 l       .debug_str	00000000 
000000e9 l       .debug_str	00000000 
000000ed l       .debug_str	00000000 
00000138 l       .debug_str	00000000 
0000013a l       .debug_str	00000000 
0000013f l       .debug_str	00000000 
00000143 l       .debug_str	00000000 
00000196 l       .debug_str	00000000 
0000019c l       .debug_str	00000000 
000001a0 l       .debug_str	00000000 
000001ec l       .debug_str	00000000 
00000240 l       .debug_str	00000000 
00000246 l       .debug_str	00000000 
00000292 l       .debug_str	00000000 
000002e6 l       .debug_str	00000000 
000002ec l       .debug_str	00000000 
000002f0 l       .debug_str	00000000 
0000033c l       .debug_str	00000000 
00000390 l       .debug_str	00000000 
00000394 l       .debug_str	00000000 
0000039a l       .debug_str	00000000 
000003a2 l       .debug_str	00000000 
00000400 l       .debug_str	00000000 
00000466 l       .debug_str	00000000 
0000046a l       .debug_str	00000000 
00000477 l       .debug_str	00000000 
0000048b l       .debug_str	00000000 
000004b5 l       .debug_str	00000000 
000004b9 l       .debug_str	00000000 
000004bf l       .debug_str	00000000 
000004ca l       .debug_str	00000000 
000004ed l       .debug_str	00000000 
00000535 l       .debug_str	00000000 
0000055d l       .debug_str	00000000 
00000563 l       .debug_str	00000000 
00000567 l       .debug_str	00000000 
0000056c l       .debug_str	00000000 
00000587 l       .debug_str	00000000 
00000591 l       .debug_str	00000000 
000005dd l       .debug_str	00000000 
00000631 l       .debug_str	00000000 
00000636 l       .debug_str	00000000 
00000680 l       .debug_str	00000000 
000006d2 l       .debug_str	00000000 
000006df l       .debug_str	00000000 
00000704 l       .debug_str	00000000 
0000074c l       .debug_str	00000000 
00000776 l       .debug_str	00000000 
000007be l       .debug_str	00000000 
000007ed l       .debug_str	00000000 
00000844 l       .debug_str	00000000 
000008a3 l       .debug_str	00000000 
000008b1 l       .debug_str	00000000 
000008c5 l       .debug_str	00000000 
000008ef l       .debug_str	00000000 
00000937 l       .debug_str	00000000 
00000966 l       .debug_str	00000000 
000009b6 l       .debug_str	00000000 
000009e0 l       .debug_str	00000000 
00000a30 l       .debug_str	00000000 
00000a5a l       .debug_str	00000000 
00000aac l       .debug_str	00000000 
00000acf l       .debug_str	00000000 
00000b21 l       .debug_str	00000000 
00000b42 l       .debug_str	00000000 
00000b94 l       .debug_str	00000000 
00000be6 l       .debug_str	00000000 
00000c3a l       .debug_str	00000000 
00000c8e l       .debug_str	00000000 
00000ce2 l       .debug_str	00000000 
00000d36 l       .debug_str	00000000 
00000d3b l       .debug_str	00000000 
00000d5f l       .debug_str	00000000 
00000d84 l       .debug_str	00000000 
00000d86 l       .debug_str	00000000 
00000d8b l       .debug_str	00000000 
00000d90 l       .debug_str	00000000 
00000d96 l       .debug_str	00000000 
00000d9c l       .debug_str	00000000 
00000daa l       .debug_str	00000000 
00000db4 l       .debug_str	00000000 
00000db8 l       .debug_str	00000000 
00000dc0 l       .debug_str	00000000 
00000dc7 l       .debug_str	00000000 
00000ddb l       .debug_str	00000000 
00000de7 l       .debug_str	00000000 
00000df2 l       .debug_str	00000000 
00000df9 l       .debug_str	00000000 
00000dff l       .debug_str	00000000 
00000e03 l       .debug_str	00000000 
00000e09 l       .debug_str	00000000 
00000e0f l       .debug_str	00000000 
00000e12 l       .debug_str	00000000 
00000e21 l       .debug_str	00000000 
00000e28 l       .debug_str	00000000 
00000e2c l       .debug_str	00000000 
00000e35 l       .debug_str	00000000 
00000e41 l       .debug_str	00000000 
00000e5a l       .debug_str	00000000 
00000e5f l       .debug_str	00000000 
00000e70 l       .debug_str	00000000 
00000e7a l       .debug_str	00000000 
00000ed8 l       .debug_str	00000000 
00000ee3 l       .debug_str	00000000 
00000f00 l       .debug_str	00000000 
00000f08 l       .debug_str	00000000 
00000f1f l       .debug_str	00000000 
00000f43 l       .debug_str	00000000 
00000f5f l       .debug_str	00000000 
00000f64 l       .debug_str	00000000 
00000f6d l       .debug_str	00000000 
00000f74 l       .debug_str	00000000 
00000f8d l       .debug_str	00000000 
00000f97 l       .debug_str	00000000 
00000fb1 l       .debug_str	00000000 
00000fd7 l       .debug_str	00000000 
00000ffe l       .debug_str	00000000 
00001029 l       .debug_str	00000000 
00001055 l       .debug_str	00000000 
00001080 l       .debug_str	00000000 
000010ac l       .debug_str	00000000 
000010b6 l       .debug_str	00000000 
000010c0 l       .debug_str	00000000 
000010c4 l       .debug_str	00000000 
000010f0 l       .debug_str	00000000 
0000111d l       .debug_str	00000000 
00001149 l       .debug_str	00000000 
00000000 l    d  .text._ZN42_$LT$$RF$T$u20$as$u20$core..fmt..Debug$GT$3fmt17h0d69a509753a09feE	00000000 .text._ZN42_$LT$$RF$T$u20$as$u20$core..fmt..Debug$GT$3fmt17h0d69a509753a09feE
00000000 l    d  .text._ZN42_$LT$$RF$T$u20$as$u20$core..fmt..Debug$GT$3fmt17hbbefcd5b92fb4f18E	00000000 .text._ZN42_$LT$$RF$T$u20$as$u20$core..fmt..Debug$GT$3fmt17hbbefcd5b92fb4f18E
00000000 l    d  .text._ZN42_$LT$$RF$T$u20$as$u20$core..fmt..Debug$GT$3fmt17hbe7cc89162865c70E	00000000 .text._ZN42_$LT$$RF$T$u20$as$u20$core..fmt..Debug$GT$3fmt17hbe7cc89162865c70E
00000000 l    d  .text._ZN42_$LT$$RF$T$u20$as$u20$core..fmt..Debug$GT$3fmt17hc404d29df2076a85E	00000000 .text._ZN42_$LT$$RF$T$u20$as$u20$core..fmt..Debug$GT$3fmt17hc404d29df2076a85E
00000000 l    d  .text._ZN50_$LT$$BP$mut$u20$T$u20$as$u20$core..fmt..Debug$GT$3fmt17h6ac839303585b883E	00000000 .text._ZN50_$LT$$BP$mut$u20$T$u20$as$u20$core..fmt..Debug$GT$3fmt17h6ac839303585b883E
00000000 l    d  .text._ZN50_$LT$$BP$mut$u20$T$u20$as$u20$core..fmt..Debug$GT$3fmt17h7c69da1dcebfa251E	00000000 .text._ZN50_$LT$$BP$mut$u20$T$u20$as$u20$core..fmt..Debug$GT$3fmt17h7c69da1dcebfa251E
00000000 l    d  .text._ZN52_$LT$$BP$const$u20$T$u20$as$u20$core..fmt..Debug$GT$3fmt17h069c852bd41c7dc4E	00000000 .text._ZN52_$LT$$BP$const$u20$T$u20$as$u20$core..fmt..Debug$GT$3fmt17h069c852bd41c7dc4E
00000000 l    d  .text._ZN52_$LT$$BP$const$u20$T$u20$as$u20$core..fmt..Debug$GT$3fmt17h2c13ab3a4e75ce2dE	00000000 .text._ZN52_$LT$$BP$const$u20$T$u20$as$u20$core..fmt..Debug$GT$3fmt17h2c13ab3a4e75ce2dE
00000000 l    d  .text._ZN52_$LT$$BP$mut$u20$T$u20$as$u20$core..fmt..Pointer$GT$3fmt17h360b2a3e6bafac00E	00000000 .text._ZN52_$LT$$BP$mut$u20$T$u20$as$u20$core..fmt..Pointer$GT$3fmt17h360b2a3e6bafac00E
00000000 l    d  .text._ZN52_$LT$$BP$mut$u20$T$u20$as$u20$core..fmt..Pointer$GT$3fmt17h87b35d2167bd7c52E	00000000 .text._ZN52_$LT$$BP$mut$u20$T$u20$as$u20$core..fmt..Pointer$GT$3fmt17h87b35d2167bd7c52E
00000000 l    d  .text._ZN54_$LT$$BP$const$u20$T$u20$as$u20$core..fmt..Pointer$GT$3fmt17h11de9785acca1612E	00000000 .text._ZN54_$LT$$BP$const$u20$T$u20$as$u20$core..fmt..Pointer$GT$3fmt17h11de9785acca1612E
00000000 l    d  .text._ZN54_$LT$$BP$const$u20$T$u20$as$u20$core..fmt..Pointer$GT$3fmt17h50b8cf54a955e4b3E	00000000 .text._ZN54_$LT$$BP$const$u20$T$u20$as$u20$core..fmt..Pointer$GT$3fmt17h50b8cf54a955e4b3E
00000000 l    d  .text._ZN54_$LT$$BP$const$u20$T$u20$as$u20$core..fmt..Pointer$GT$3fmt17h78070dbfe0992255E	00000000 .text._ZN54_$LT$$BP$const$u20$T$u20$as$u20$core..fmt..Pointer$GT$3fmt17h78070dbfe0992255E
00000000 l    d  .text._ZN54_$LT$$BP$const$u20$T$u20$as$u20$core..fmt..Pointer$GT$3fmt17h865ff0eb2457ecd3E	00000000 .text._ZN54_$LT$$BP$const$u20$T$u20$as$u20$core..fmt..Pointer$GT$3fmt17h865ff0eb2457ecd3E
00000000 l    d  .debug_abbrev	00000000 .debug_abbrev
00000000 l    d  .debug_info	00000000 .debug_info
00000000 l    d  .debug_ranges	00000000 .debug_ranges
00000000 l    d  .debug_frame	00000000 .debug_frame
00000000 l    d  .debug_line	00000000 .debug_line
00000000 g     F .text._ZN42_$LT$$RF$T$u20$as$u20$core..fmt..Debug$GT$3fmt17h0d69a509753a09feE	00000028 _ZN42_$LT$$RF$T$u20$as$u20$core..fmt..Debug$GT$3fmt17h0d69a509753a09feE
00000000 g     F .text._ZN42_$LT$$RF$T$u20$as$u20$core..fmt..Debug$GT$3fmt17hbbefcd5b92fb4f18E	00000028 _ZN42_$LT$$RF$T$u20$as$u20$core..fmt..Debug$GT$3fmt17hbbefcd5b92fb4f18E
00000000 g     F .text._ZN42_$LT$$RF$T$u20$as$u20$core..fmt..Debug$GT$3fmt17hbe7cc89162865c70E	00000028 _ZN42_$LT$$RF$T$u20$as$u20$core..fmt..Debug$GT$3fmt17hbe7cc89162865c70E
00000000 g     F .text._ZN42_$LT$$RF$T$u20$as$u20$core..fmt..Debug$GT$3fmt17hc404d29df2076a85E	00000028 _ZN42_$LT$$RF$T$u20$as$u20$core..fmt..Debug$GT$3fmt17hc404d29df2076a85E
00000000         *UND*	00000000 _ZN4core3fmt3num55_$LT$impl$u20$core..fmt..LowerHex$u20$for$u20$usize$GT$3fmt17h562f60f4fbcc2e1dE
00000000         *UND*	00000000 _ZN4core3fmt9Formatter9alternate17hd09f58cee14df2eeE
00000000         *UND*	00000000 _ZN4core3mem7size_of17h033cda7c0b223844E
00000000 g     F .text._ZN50_$LT$$BP$mut$u20$T$u20$as$u20$core..fmt..Debug$GT$3fmt17h6ac839303585b883E	00000026 _ZN50_$LT$$BP$mut$u20$T$u20$as$u20$core..fmt..Debug$GT$3fmt17h6ac839303585b883E
00000000 g     F .text._ZN50_$LT$$BP$mut$u20$T$u20$as$u20$core..fmt..Debug$GT$3fmt17h7c69da1dcebfa251E	00000026 _ZN50_$LT$$BP$mut$u20$T$u20$as$u20$core..fmt..Debug$GT$3fmt17h7c69da1dcebfa251E
00000000 g     F .text._ZN52_$LT$$BP$const$u20$T$u20$as$u20$core..fmt..Debug$GT$3fmt17h069c852bd41c7dc4E	00000026 _ZN52_$LT$$BP$const$u20$T$u20$as$u20$core..fmt..Debug$GT$3fmt17h069c852bd41c7dc4E
00000000 g     F .text._ZN52_$LT$$BP$const$u20$T$u20$as$u20$core..fmt..Debug$GT$3fmt17h2c13ab3a4e75ce2dE	00000026 _ZN52_$LT$$BP$const$u20$T$u20$as$u20$core..fmt..Debug$GT$3fmt17h2c13ab3a4e75ce2dE
00000000 g     F .text._ZN52_$LT$$BP$mut$u20$T$u20$as$u20$core..fmt..Pointer$GT$3fmt17h360b2a3e6bafac00E	0000002c _ZN52_$LT$$BP$mut$u20$T$u20$as$u20$core..fmt..Pointer$GT$3fmt17h360b2a3e6bafac00E
00000000 g     F .text._ZN52_$LT$$BP$mut$u20$T$u20$as$u20$core..fmt..Pointer$GT$3fmt17h87b35d2167bd7c52E	0000002c _ZN52_$LT$$BP$mut$u20$T$u20$as$u20$core..fmt..Pointer$GT$3fmt17h87b35d2167bd7c52E
00000000 g     F .text._ZN54_$LT$$BP$const$u20$T$u20$as$u20$core..fmt..Pointer$GT$3fmt17h11de9785acca1612E	000000a2 _ZN54_$LT$$BP$const$u20$T$u20$as$u20$core..fmt..Pointer$GT$3fmt17h11de9785acca1612E
00000000 g     F .text._ZN54_$LT$$BP$const$u20$T$u20$as$u20$core..fmt..Pointer$GT$3fmt17h50b8cf54a955e4b3E	000000a2 _ZN54_$LT$$BP$const$u20$T$u20$as$u20$core..fmt..Pointer$GT$3fmt17h50b8cf54a955e4b3E
00000000 g     F .text._ZN54_$LT$$BP$const$u20$T$u20$as$u20$core..fmt..Pointer$GT$3fmt17h78070dbfe0992255E	000000a2 _ZN54_$LT$$BP$const$u20$T$u20$as$u20$core..fmt..Pointer$GT$3fmt17h78070dbfe0992255E
00000000 g     F .text._ZN54_$LT$$BP$const$u20$T$u20$as$u20$core..fmt..Pointer$GT$3fmt17h865ff0eb2457ecd3E	000000a2 _ZN54_$LT$$BP$const$u20$T$u20$as$u20$core..fmt..Pointer$GT$3fmt17h865ff0eb2457ecd3E



Disassembly of section .text._ZN42_$LT$$RF$T$u20$as$u20$core..fmt..Debug$GT$3fmt17h0d69a509753a09feE:

00000000 <_ZN42_$LT$$RF$T$u20$as$u20$core..fmt..Debug$GT$3fmt17h0d69a509753a09feE>:
_ZN42_$LT$$RF$T$u20$as$u20$core..fmt..Debug$GT$3fmt17h0d69a509753a09feE():
/rustc/50a0defd5a93523067ef239936cc2e0755220904/src/libcore/fmt/mod.rs:1914
   0:	b580      	push	{r7, lr}
   2:	b086      	sub	sp, #24
   4:	460a      	mov	r2, r1
   6:	4603      	mov	r3, r0
   8:	9004      	str	r0, [sp, #16]
   a:	9105      	str	r1, [sp, #20]
   c:	9804      	ldr	r0, [sp, #16]
   e:	6800      	ldr	r0, [r0, #0]
  10:	9905      	ldr	r1, [sp, #20]
  12:	9203      	str	r2, [sp, #12]
  14:	9302      	str	r3, [sp, #8]
  16:	f7ff fffe 	bl	0 <_ZN42_$LT$$RF$T$u20$as$u20$core..fmt..Debug$GT$3fmt17h0d69a509753a09feE>
  1a:	9001      	str	r0, [sp, #4]
  1c:	e7ff      	b.n	1e <_ZN42_$LT$$RF$T$u20$as$u20$core..fmt..Debug$GT$3fmt17h0d69a509753a09feE+0x1e>
  1e:	9801      	ldr	r0, [sp, #4]
  20:	f000 0001 	and.w	r0, r0, #1
  24:	b006      	add	sp, #24
  26:	bd80      	pop	{r7, pc}

Disassembly of section .text._ZN42_$LT$$RF$T$u20$as$u20$core..fmt..Debug$GT$3fmt17hbbefcd5b92fb4f18E:

00000000 <_ZN42_$LT$$RF$T$u20$as$u20$core..fmt..Debug$GT$3fmt17hbbefcd5b92fb4f18E>:
_ZN42_$LT$$RF$T$u20$as$u20$core..fmt..Debug$GT$3fmt17hbbefcd5b92fb4f18E():
/rustc/50a0defd5a93523067ef239936cc2e0755220904/src/libcore/fmt/mod.rs:1914
   0:	b580      	push	{r7, lr}
   2:	b086      	sub	sp, #24
   4:	460a      	mov	r2, r1
   6:	4603      	mov	r3, r0
   8:	9004      	str	r0, [sp, #16]
   a:	9105      	str	r1, [sp, #20]
   c:	9804      	ldr	r0, [sp, #16]
   e:	6800      	ldr	r0, [r0, #0]
  10:	9905      	ldr	r1, [sp, #20]
  12:	9203      	str	r2, [sp, #12]
  14:	9302      	str	r3, [sp, #8]
  16:	f7ff fffe 	bl	0 <_ZN42_$LT$$RF$T$u20$as$u20$core..fmt..Debug$GT$3fmt17hbbefcd5b92fb4f18E>
  1a:	9001      	str	r0, [sp, #4]
  1c:	e7ff      	b.n	1e <_ZN42_$LT$$RF$T$u20$as$u20$core..fmt..Debug$GT$3fmt17hbbefcd5b92fb4f18E+0x1e>
  1e:	9801      	ldr	r0, [sp, #4]
  20:	f000 0001 	and.w	r0, r0, #1
  24:	b006      	add	sp, #24
  26:	bd80      	pop	{r7, pc}

Disassembly of section .text._ZN42_$LT$$RF$T$u20$as$u20$core..fmt..Debug$GT$3fmt17hbe7cc89162865c70E:

00000000 <_ZN42_$LT$$RF$T$u20$as$u20$core..fmt..Debug$GT$3fmt17hbe7cc89162865c70E>:
_ZN42_$LT$$RF$T$u20$as$u20$core..fmt..Debug$GT$3fmt17hbe7cc89162865c70E():
/rustc/50a0defd5a93523067ef239936cc2e0755220904/src/libcore/fmt/mod.rs:1914
   0:	b580      	push	{r7, lr}
   2:	b086      	sub	sp, #24
   4:	460a      	mov	r2, r1
   6:	4603      	mov	r3, r0
   8:	9004      	str	r0, [sp, #16]
   a:	9105      	str	r1, [sp, #20]
   c:	9804      	ldr	r0, [sp, #16]
   e:	6800      	ldr	r0, [r0, #0]
  10:	9905      	ldr	r1, [sp, #20]
  12:	9203      	str	r2, [sp, #12]
  14:	9302      	str	r3, [sp, #8]
  16:	f7ff fffe 	bl	0 <_ZN42_$LT$$RF$T$u20$as$u20$core..fmt..Debug$GT$3fmt17hbe7cc89162865c70E>
  1a:	9001      	str	r0, [sp, #4]
  1c:	e7ff      	b.n	1e <_ZN42_$LT$$RF$T$u20$as$u20$core..fmt..Debug$GT$3fmt17hbe7cc89162865c70E+0x1e>
  1e:	9801      	ldr	r0, [sp, #4]
  20:	f000 0001 	and.w	r0, r0, #1
  24:	b006      	add	sp, #24
  26:	bd80      	pop	{r7, pc}

Disassembly of section .text._ZN42_$LT$$RF$T$u20$as$u20$core..fmt..Debug$GT$3fmt17hc404d29df2076a85E:

00000000 <_ZN42_$LT$$RF$T$u20$as$u20$core..fmt..Debug$GT$3fmt17hc404d29df2076a85E>:
_ZN42_$LT$$RF$T$u20$as$u20$core..fmt..Debug$GT$3fmt17hc404d29df2076a85E():
/rustc/50a0defd5a93523067ef239936cc2e0755220904/src/libcore/fmt/mod.rs:1914
   0:	b580      	push	{r7, lr}
   2:	b086      	sub	sp, #24
   4:	460a      	mov	r2, r1
   6:	4603      	mov	r3, r0
   8:	9004      	str	r0, [sp, #16]
   a:	9105      	str	r1, [sp, #20]
   c:	9804      	ldr	r0, [sp, #16]
   e:	6800      	ldr	r0, [r0, #0]
  10:	9905      	ldr	r1, [sp, #20]
  12:	9203      	str	r2, [sp, #12]
  14:	9302      	str	r3, [sp, #8]
  16:	f7ff fffe 	bl	0 <_ZN42_$LT$$RF$T$u20$as$u20$core..fmt..Debug$GT$3fmt17hc404d29df2076a85E>
  1a:	9001      	str	r0, [sp, #4]
  1c:	e7ff      	b.n	1e <_ZN42_$LT$$RF$T$u20$as$u20$core..fmt..Debug$GT$3fmt17hc404d29df2076a85E+0x1e>
  1e:	9801      	ldr	r0, [sp, #4]
  20:	f000 0001 	and.w	r0, r0, #1
  24:	b006      	add	sp, #24
  26:	bd80      	pop	{r7, pc}

Disassembly of section .text._ZN50_$LT$$BP$mut$u20$T$u20$as$u20$core..fmt..Debug$GT$3fmt17h6ac839303585b883E:

00000000 <_ZN50_$LT$$BP$mut$u20$T$u20$as$u20$core..fmt..Debug$GT$3fmt17h6ac839303585b883E>:
_ZN50_$LT$$BP$mut$u20$T$u20$as$u20$core..fmt..Debug$GT$3fmt17h6ac839303585b883E():
/rustc/50a0defd5a93523067ef239936cc2e0755220904/src/libcore/fmt/mod.rs:2062
   0:	b580      	push	{r7, lr}
   2:	b086      	sub	sp, #24
   4:	460a      	mov	r2, r1
   6:	4603      	mov	r3, r0
   8:	9004      	str	r0, [sp, #16]
   a:	9105      	str	r1, [sp, #20]
   c:	9804      	ldr	r0, [sp, #16]
   e:	9905      	ldr	r1, [sp, #20]
  10:	9203      	str	r2, [sp, #12]
  12:	9302      	str	r3, [sp, #8]
  14:	f7ff fffe 	bl	0 <_ZN50_$LT$$BP$mut$u20$T$u20$as$u20$core..fmt..Debug$GT$3fmt17h6ac839303585b883E>
  18:	9001      	str	r0, [sp, #4]
  1a:	e7ff      	b.n	1c <_ZN50_$LT$$BP$mut$u20$T$u20$as$u20$core..fmt..Debug$GT$3fmt17h6ac839303585b883E+0x1c>
  1c:	9801      	ldr	r0, [sp, #4]
  1e:	f000 0001 	and.w	r0, r0, #1
  22:	b006      	add	sp, #24
  24:	bd80      	pop	{r7, pc}

Disassembly of section .text._ZN50_$LT$$BP$mut$u20$T$u20$as$u20$core..fmt..Debug$GT$3fmt17h7c69da1dcebfa251E:

00000000 <_ZN50_$LT$$BP$mut$u20$T$u20$as$u20$core..fmt..Debug$GT$3fmt17h7c69da1dcebfa251E>:
_ZN50_$LT$$BP$mut$u20$T$u20$as$u20$core..fmt..Debug$GT$3fmt17h7c69da1dcebfa251E():
/rustc/50a0defd5a93523067ef239936cc2e0755220904/src/libcore/fmt/mod.rs:2062
   0:	b580      	push	{r7, lr}
   2:	b086      	sub	sp, #24
   4:	460a      	mov	r2, r1
   6:	4603      	mov	r3, r0
   8:	9004      	str	r0, [sp, #16]
   a:	9105      	str	r1, [sp, #20]
   c:	9804      	ldr	r0, [sp, #16]
   e:	9905      	ldr	r1, [sp, #20]
  10:	9203      	str	r2, [sp, #12]
  12:	9302      	str	r3, [sp, #8]
  14:	f7ff fffe 	bl	0 <_ZN50_$LT$$BP$mut$u20$T$u20$as$u20$core..fmt..Debug$GT$3fmt17h7c69da1dcebfa251E>
  18:	9001      	str	r0, [sp, #4]
  1a:	e7ff      	b.n	1c <_ZN50_$LT$$BP$mut$u20$T$u20$as$u20$core..fmt..Debug$GT$3fmt17h7c69da1dcebfa251E+0x1c>
  1c:	9801      	ldr	r0, [sp, #4]
  1e:	f000 0001 	and.w	r0, r0, #1
  22:	b006      	add	sp, #24
  24:	bd80      	pop	{r7, pc}

Disassembly of section .text._ZN52_$LT$$BP$const$u20$T$u20$as$u20$core..fmt..Debug$GT$3fmt17h069c852bd41c7dc4E:

00000000 <_ZN52_$LT$$BP$const$u20$T$u20$as$u20$core..fmt..Debug$GT$3fmt17h069c852bd41c7dc4E>:
_ZN52_$LT$$BP$const$u20$T$u20$as$u20$core..fmt..Debug$GT$3fmt17h069c852bd41c7dc4E():
/rustc/50a0defd5a93523067ef239936cc2e0755220904/src/libcore/fmt/mod.rs:2058
   0:	b580      	push	{r7, lr}
   2:	b086      	sub	sp, #24
   4:	460a      	mov	r2, r1
   6:	4603      	mov	r3, r0
   8:	9004      	str	r0, [sp, #16]
   a:	9105      	str	r1, [sp, #20]
   c:	9804      	ldr	r0, [sp, #16]
   e:	9905      	ldr	r1, [sp, #20]
  10:	9203      	str	r2, [sp, #12]
  12:	9302      	str	r3, [sp, #8]
  14:	f7ff fffe 	bl	0 <_ZN52_$LT$$BP$const$u20$T$u20$as$u20$core..fmt..Debug$GT$3fmt17h069c852bd41c7dc4E>
  18:	9001      	str	r0, [sp, #4]
  1a:	e7ff      	b.n	1c <_ZN52_$LT$$BP$const$u20$T$u20$as$u20$core..fmt..Debug$GT$3fmt17h069c852bd41c7dc4E+0x1c>
  1c:	9801      	ldr	r0, [sp, #4]
  1e:	f000 0001 	and.w	r0, r0, #1
  22:	b006      	add	sp, #24
  24:	bd80      	pop	{r7, pc}

Disassembly of section .text._ZN52_$LT$$BP$const$u20$T$u20$as$u20$core..fmt..Debug$GT$3fmt17h2c13ab3a4e75ce2dE:

00000000 <_ZN52_$LT$$BP$const$u20$T$u20$as$u20$core..fmt..Debug$GT$3fmt17h2c13ab3a4e75ce2dE>:
_ZN52_$LT$$BP$const$u20$T$u20$as$u20$core..fmt..Debug$GT$3fmt17h2c13ab3a4e75ce2dE():
/rustc/50a0defd5a93523067ef239936cc2e0755220904/src/libcore/fmt/mod.rs:2058
   0:	b580      	push	{r7, lr}
   2:	b086      	sub	sp, #24
   4:	460a      	mov	r2, r1
   6:	4603      	mov	r3, r0
   8:	9004      	str	r0, [sp, #16]
   a:	9105      	str	r1, [sp, #20]
   c:	9804      	ldr	r0, [sp, #16]
   e:	9905      	ldr	r1, [sp, #20]
  10:	9203      	str	r2, [sp, #12]
  12:	9302      	str	r3, [sp, #8]
  14:	f7ff fffe 	bl	0 <_ZN52_$LT$$BP$const$u20$T$u20$as$u20$core..fmt..Debug$GT$3fmt17h2c13ab3a4e75ce2dE>
  18:	9001      	str	r0, [sp, #4]
  1a:	e7ff      	b.n	1c <_ZN52_$LT$$BP$const$u20$T$u20$as$u20$core..fmt..Debug$GT$3fmt17h2c13ab3a4e75ce2dE+0x1c>
  1c:	9801      	ldr	r0, [sp, #4]
  1e:	f000 0001 	and.w	r0, r0, #1
  22:	b006      	add	sp, #24
  24:	bd80      	pop	{r7, pc}

Disassembly of section .text._ZN52_$LT$$BP$mut$u20$T$u20$as$u20$core..fmt..Pointer$GT$3fmt17h360b2a3e6bafac00E:

00000000 <_ZN52_$LT$$BP$mut$u20$T$u20$as$u20$core..fmt..Pointer$GT$3fmt17h360b2a3e6bafac00E>:
_ZN52_$LT$$BP$mut$u20$T$u20$as$u20$core..fmt..Pointer$GT$3fmt17h360b2a3e6bafac00E():
/rustc/50a0defd5a93523067ef239936cc2e0755220904/src/libcore/fmt/mod.rs:2035
   0:	b580      	push	{r7, lr}
   2:	b086      	sub	sp, #24
   4:	460a      	mov	r2, r1
   6:	4603      	mov	r3, r0
   8:	9003      	str	r0, [sp, #12]
   a:	9104      	str	r1, [sp, #16]
/rustc/50a0defd5a93523067ef239936cc2e0755220904/src/libcore/fmt/mod.rs:2036
   c:	9803      	ldr	r0, [sp, #12]
   e:	6800      	ldr	r0, [r0, #0]
  10:	9005      	str	r0, [sp, #20]
  12:	9904      	ldr	r1, [sp, #16]
  14:	a805      	add	r0, sp, #20
  16:	9202      	str	r2, [sp, #8]
  18:	9301      	str	r3, [sp, #4]
  1a:	f7ff fffe 	bl	0 <_ZN52_$LT$$BP$mut$u20$T$u20$as$u20$core..fmt..Pointer$GT$3fmt17h360b2a3e6bafac00E>
  1e:	9000      	str	r0, [sp, #0]
  20:	e7ff      	b.n	22 <_ZN52_$LT$$BP$mut$u20$T$u20$as$u20$core..fmt..Pointer$GT$3fmt17h360b2a3e6bafac00E+0x22>
/rustc/50a0defd5a93523067ef239936cc2e0755220904/src/libcore/fmt/mod.rs:2037
  22:	9800      	ldr	r0, [sp, #0]
  24:	f000 0001 	and.w	r0, r0, #1
  28:	b006      	add	sp, #24
  2a:	bd80      	pop	{r7, pc}

Disassembly of section .text._ZN52_$LT$$BP$mut$u20$T$u20$as$u20$core..fmt..Pointer$GT$3fmt17h87b35d2167bd7c52E:

00000000 <_ZN52_$LT$$BP$mut$u20$T$u20$as$u20$core..fmt..Pointer$GT$3fmt17h87b35d2167bd7c52E>:
_ZN52_$LT$$BP$mut$u20$T$u20$as$u20$core..fmt..Pointer$GT$3fmt17h87b35d2167bd7c52E():
/rustc/50a0defd5a93523067ef239936cc2e0755220904/src/libcore/fmt/mod.rs:2035
   0:	b580      	push	{r7, lr}
   2:	b086      	sub	sp, #24
   4:	460a      	mov	r2, r1
   6:	4603      	mov	r3, r0
   8:	9003      	str	r0, [sp, #12]
   a:	9104      	str	r1, [sp, #16]
/rustc/50a0defd5a93523067ef239936cc2e0755220904/src/libcore/fmt/mod.rs:2036
   c:	9803      	ldr	r0, [sp, #12]
   e:	6800      	ldr	r0, [r0, #0]
  10:	9005      	str	r0, [sp, #20]
  12:	9904      	ldr	r1, [sp, #16]
  14:	a805      	add	r0, sp, #20
  16:	9202      	str	r2, [sp, #8]
  18:	9301      	str	r3, [sp, #4]
  1a:	f7ff fffe 	bl	0 <_ZN52_$LT$$BP$mut$u20$T$u20$as$u20$core..fmt..Pointer$GT$3fmt17h87b35d2167bd7c52E>
  1e:	9000      	str	r0, [sp, #0]
  20:	e7ff      	b.n	22 <_ZN52_$LT$$BP$mut$u20$T$u20$as$u20$core..fmt..Pointer$GT$3fmt17h87b35d2167bd7c52E+0x22>
/rustc/50a0defd5a93523067ef239936cc2e0755220904/src/libcore/fmt/mod.rs:2037
  22:	9800      	ldr	r0, [sp, #0]
  24:	f000 0001 	and.w	r0, r0, #1
  28:	b006      	add	sp, #24
  2a:	bd80      	pop	{r7, pc}

Disassembly of section .text._ZN54_$LT$$BP$const$u20$T$u20$as$u20$core..fmt..Pointer$GT$3fmt17h11de9785acca1612E:

00000000 <_ZN54_$LT$$BP$const$u20$T$u20$as$u20$core..fmt..Pointer$GT$3fmt17h11de9785acca1612E>:
_ZN54_$LT$$BP$const$u20$T$u20$as$u20$core..fmt..Pointer$GT$3fmt17h11de9785acca1612E():
/rustc/50a0defd5a93523067ef239936cc2e0755220904/src/libcore/fmt/mod.rs:2007
   0:	b580      	push	{r7, lr}
   2:	b08c      	sub	sp, #48	; 0x30
   4:	460a      	mov	r2, r1
   6:	4603      	mov	r3, r0
   8:	9005      	str	r0, [sp, #20]
   a:	9106      	str	r1, [sp, #24]
/rustc/50a0defd5a93523067ef239936cc2e0755220904/src/libcore/fmt/mod.rs:2008
   c:	9806      	ldr	r0, [sp, #24]
   e:	6881      	ldr	r1, [r0, #8]
  10:	68c0      	ldr	r0, [r0, #12]
  12:	9107      	str	r1, [sp, #28]
  14:	9008      	str	r0, [sp, #32]
/rustc/50a0defd5a93523067ef239936cc2e0755220904/src/libcore/fmt/mod.rs:2009
  16:	9806      	ldr	r0, [sp, #24]
  18:	6800      	ldr	r0, [r0, #0]
  1a:	9009      	str	r0, [sp, #36]	; 0x24
/rustc/50a0defd5a93523067ef239936cc2e0755220904/src/libcore/fmt/mod.rs:2015
  1c:	9806      	ldr	r0, [sp, #24]
  1e:	9204      	str	r2, [sp, #16]
  20:	9303      	str	r3, [sp, #12]
  22:	f7ff fffe 	bl	0 <_ZN4core3fmt9Formatter9alternate17hd09f58cee14df2eeE>
  26:	9002      	str	r0, [sp, #8]
  28:	e7ff      	b.n	2a <_ZN54_$LT$$BP$const$u20$T$u20$as$u20$core..fmt..Pointer$GT$3fmt17h11de9785acca1612E+0x2a>
  2a:	9802      	ldr	r0, [sp, #8]
  2c:	07c1      	lsls	r1, r0, #31
  2e:	2900      	cmp	r1, #0
  30:	d01c      	beq.n	6c <_ZN54_$LT$$BP$const$u20$T$u20$as$u20$core..fmt..Pointer$GT$3fmt17h11de9785acca1612E+0x6c>
  32:	e7ff      	b.n	34 <_ZN54_$LT$$BP$const$u20$T$u20$as$u20$core..fmt..Pointer$GT$3fmt17h11de9785acca1612E+0x34>
/rustc/50a0defd5a93523067ef239936cc2e0755220904/src/libcore/fmt/mod.rs:2016
  34:	9806      	ldr	r0, [sp, #24]
  36:	6801      	ldr	r1, [r0, #0]
  38:	f041 0108 	orr.w	r1, r1, #8
  3c:	6001      	str	r1, [r0, #0]
/rustc/50a0defd5a93523067ef239936cc2e0755220904/src/libcore/fmt/mod.rs:2018
  3e:	9806      	ldr	r0, [sp, #24]
  40:	6880      	ldr	r0, [r0, #8]
  42:	2800      	cmp	r0, #0
  44:	d112      	bne.n	6c <_ZN54_$LT$$BP$const$u20$T$u20$as$u20$core..fmt..Pointer$GT$3fmt17h11de9785acca1612E+0x6c>
  46:	e7ff      	b.n	48 <_ZN54_$LT$$BP$const$u20$T$u20$as$u20$core..fmt..Pointer$GT$3fmt17h11de9785acca1612E+0x48>
/rustc/50a0defd5a93523067ef239936cc2e0755220904/src/libcore/fmt/mod.rs:2019
  48:	f7ff fffe 	bl	0 <_ZN4core3mem7size_of17h033cda7c0b223844E>
  4c:	9001      	str	r0, [sp, #4]
  4e:	e7ff      	b.n	50 <_ZN54_$LT$$BP$const$u20$T$u20$as$u20$core..fmt..Pointer$GT$3fmt17h11de9785acca1612E+0x50>
  50:	9801      	ldr	r0, [sp, #4]
  52:	00c1      	lsls	r1, r0, #3
  54:	9100      	str	r1, [sp, #0]
  56:	e7ff      	b.n	58 <_ZN54_$LT$$BP$const$u20$T$u20$as$u20$core..fmt..Pointer$GT$3fmt17h11de9785acca1612E+0x58>
  58:	2002      	movs	r0, #2
  5a:	9900      	ldr	r1, [sp, #0]
  5c:	eb00 0091 	add.w	r0, r0, r1, lsr #2
  60:	9a06      	ldr	r2, [sp, #24]
  62:	60d0      	str	r0, [r2, #12]
  64:	9806      	ldr	r0, [sp, #24]
  66:	2201      	movs	r2, #1
  68:	6082      	str	r2, [r0, #8]
/rustc/50a0defd5a93523067ef239936cc2e0755220904/src/libcore/fmt/mod.rs:2018
  6a:	e7ff      	b.n	6c <_ZN54_$LT$$BP$const$u20$T$u20$as$u20$core..fmt..Pointer$GT$3fmt17h11de9785acca1612E+0x6c>
/rustc/50a0defd5a93523067ef239936cc2e0755220904/src/libcore/fmt/mod.rs:2022
  6c:	9806      	ldr	r0, [sp, #24]
  6e:	6801      	ldr	r1, [r0, #0]
  70:	f041 0104 	orr.w	r1, r1, #4
  74:	6001      	str	r1, [r0, #0]
/rustc/50a0defd5a93523067ef239936cc2e0755220904/src/libcore/fmt/mod.rs:2024
  76:	9805      	ldr	r0, [sp, #20]
  78:	6800      	ldr	r0, [r0, #0]
  7a:	900b      	str	r0, [sp, #44]	; 0x2c
  7c:	9906      	ldr	r1, [sp, #24]
  7e:	a80b      	add	r0, sp, #44	; 0x2c
  80:	f7ff fffe 	bl	0 <_ZN4core3fmt3num55_$LT$impl$u20$core..fmt..LowerHex$u20$for$u20$usize$GT$3fmt17h562f60f4fbcc2e1dE>
  84:	f88d 002b 	strb.w	r0, [sp, #43]	; 0x2b
  88:	e7ff      	b.n	8a <_ZN54_$LT$$BP$const$u20$T$u20$as$u20$core..fmt..Pointer$GT$3fmt17h11de9785acca1612E+0x8a>
/rustc/50a0defd5a93523067ef239936cc2e0755220904/src/libcore/fmt/mod.rs:2026
  8a:	9807      	ldr	r0, [sp, #28]
  8c:	9908      	ldr	r1, [sp, #32]
  8e:	9a06      	ldr	r2, [sp, #24]
  90:	6090      	str	r0, [r2, #8]
  92:	60d1      	str	r1, [r2, #12]
/rustc/50a0defd5a93523067ef239936cc2e0755220904/src/libcore/fmt/mod.rs:2027
  94:	9809      	ldr	r0, [sp, #36]	; 0x24
  96:	9906      	ldr	r1, [sp, #24]
  98:	6008      	str	r0, [r1, #0]
/rustc/50a0defd5a93523067ef239936cc2e0755220904/src/libcore/fmt/mod.rs:2029
  9a:	f89d 002b 	ldrb.w	r0, [sp, #43]	; 0x2b
/rustc/50a0defd5a93523067ef239936cc2e0755220904/src/libcore/fmt/mod.rs:2030
  9e:	b00c      	add	sp, #48	; 0x30
  a0:	bd80      	pop	{r7, pc}

Disassembly of section .text._ZN54_$LT$$BP$const$u20$T$u20$as$u20$core..fmt..Pointer$GT$3fmt17h50b8cf54a955e4b3E:

00000000 <_ZN54_$LT$$BP$const$u20$T$u20$as$u20$core..fmt..Pointer$GT$3fmt17h50b8cf54a955e4b3E>:
_ZN54_$LT$$BP$const$u20$T$u20$as$u20$core..fmt..Pointer$GT$3fmt17h50b8cf54a955e4b3E():
/rustc/50a0defd5a93523067ef239936cc2e0755220904/src/libcore/fmt/mod.rs:2007
   0:	b580      	push	{r7, lr}
   2:	b08c      	sub	sp, #48	; 0x30
   4:	460a      	mov	r2, r1
   6:	4603      	mov	r3, r0
   8:	9005      	str	r0, [sp, #20]
   a:	9106      	str	r1, [sp, #24]
/rustc/50a0defd5a93523067ef239936cc2e0755220904/src/libcore/fmt/mod.rs:2008
   c:	9806      	ldr	r0, [sp, #24]
   e:	6881      	ldr	r1, [r0, #8]
  10:	68c0      	ldr	r0, [r0, #12]
  12:	9107      	str	r1, [sp, #28]
  14:	9008      	str	r0, [sp, #32]
/rustc/50a0defd5a93523067ef239936cc2e0755220904/src/libcore/fmt/mod.rs:2009
  16:	9806      	ldr	r0, [sp, #24]
  18:	6800      	ldr	r0, [r0, #0]
  1a:	9009      	str	r0, [sp, #36]	; 0x24
/rustc/50a0defd5a93523067ef239936cc2e0755220904/src/libcore/fmt/mod.rs:2015
  1c:	9806      	ldr	r0, [sp, #24]
  1e:	9204      	str	r2, [sp, #16]
  20:	9303      	str	r3, [sp, #12]
  22:	f7ff fffe 	bl	0 <_ZN4core3fmt9Formatter9alternate17hd09f58cee14df2eeE>
  26:	9002      	str	r0, [sp, #8]
  28:	e7ff      	b.n	2a <_ZN54_$LT$$BP$const$u20$T$u20$as$u20$core..fmt..Pointer$GT$3fmt17h50b8cf54a955e4b3E+0x2a>
  2a:	9802      	ldr	r0, [sp, #8]
  2c:	07c1      	lsls	r1, r0, #31
  2e:	2900      	cmp	r1, #0
  30:	d01c      	beq.n	6c <_ZN54_$LT$$BP$const$u20$T$u20$as$u20$core..fmt..Pointer$GT$3fmt17h50b8cf54a955e4b3E+0x6c>
  32:	e7ff      	b.n	34 <_ZN54_$LT$$BP$const$u20$T$u20$as$u20$core..fmt..Pointer$GT$3fmt17h50b8cf54a955e4b3E+0x34>
/rustc/50a0defd5a93523067ef239936cc2e0755220904/src/libcore/fmt/mod.rs:2016
  34:	9806      	ldr	r0, [sp, #24]
  36:	6801      	ldr	r1, [r0, #0]
  38:	f041 0108 	orr.w	r1, r1, #8
  3c:	6001      	str	r1, [r0, #0]
/rustc/50a0defd5a93523067ef239936cc2e0755220904/src/libcore/fmt/mod.rs:2018
  3e:	9806      	ldr	r0, [sp, #24]
  40:	6880      	ldr	r0, [r0, #8]
  42:	2800      	cmp	r0, #0
  44:	d112      	bne.n	6c <_ZN54_$LT$$BP$const$u20$T$u20$as$u20$core..fmt..Pointer$GT$3fmt17h50b8cf54a955e4b3E+0x6c>
  46:	e7ff      	b.n	48 <_ZN54_$LT$$BP$const$u20$T$u20$as$u20$core..fmt..Pointer$GT$3fmt17h50b8cf54a955e4b3E+0x48>
/rustc/50a0defd5a93523067ef239936cc2e0755220904/src/libcore/fmt/mod.rs:2019
  48:	f7ff fffe 	bl	0 <_ZN4core3mem7size_of17h033cda7c0b223844E>
  4c:	9001      	str	r0, [sp, #4]
  4e:	e7ff      	b.n	50 <_ZN54_$LT$$BP$const$u20$T$u20$as$u20$core..fmt..Pointer$GT$3fmt17h50b8cf54a955e4b3E+0x50>
  50:	9801      	ldr	r0, [sp, #4]
  52:	00c1      	lsls	r1, r0, #3
  54:	9100      	str	r1, [sp, #0]
  56:	e7ff      	b.n	58 <_ZN54_$LT$$BP$const$u20$T$u20$as$u20$core..fmt..Pointer$GT$3fmt17h50b8cf54a955e4b3E+0x58>
  58:	2002      	movs	r0, #2
  5a:	9900      	ldr	r1, [sp, #0]
  5c:	eb00 0091 	add.w	r0, r0, r1, lsr #2
  60:	9a06      	ldr	r2, [sp, #24]
  62:	60d0      	str	r0, [r2, #12]
  64:	9806      	ldr	r0, [sp, #24]
  66:	2201      	movs	r2, #1
  68:	6082      	str	r2, [r0, #8]
/rustc/50a0defd5a93523067ef239936cc2e0755220904/src/libcore/fmt/mod.rs:2018
  6a:	e7ff      	b.n	6c <_ZN54_$LT$$BP$const$u20$T$u20$as$u20$core..fmt..Pointer$GT$3fmt17h50b8cf54a955e4b3E+0x6c>
/rustc/50a0defd5a93523067ef239936cc2e0755220904/src/libcore/fmt/mod.rs:2022
  6c:	9806      	ldr	r0, [sp, #24]
  6e:	6801      	ldr	r1, [r0, #0]
  70:	f041 0104 	orr.w	r1, r1, #4
  74:	6001      	str	r1, [r0, #0]
/rustc/50a0defd5a93523067ef239936cc2e0755220904/src/libcore/fmt/mod.rs:2024
  76:	9805      	ldr	r0, [sp, #20]
  78:	6800      	ldr	r0, [r0, #0]
  7a:	900b      	str	r0, [sp, #44]	; 0x2c
  7c:	9906      	ldr	r1, [sp, #24]
  7e:	a80b      	add	r0, sp, #44	; 0x2c
  80:	f7ff fffe 	bl	0 <_ZN4core3fmt3num55_$LT$impl$u20$core..fmt..LowerHex$u20$for$u20$usize$GT$3fmt17h562f60f4fbcc2e1dE>
  84:	f88d 002b 	strb.w	r0, [sp, #43]	; 0x2b
  88:	e7ff      	b.n	8a <_ZN54_$LT$$BP$const$u20$T$u20$as$u20$core..fmt..Pointer$GT$3fmt17h50b8cf54a955e4b3E+0x8a>
/rustc/50a0defd5a93523067ef239936cc2e0755220904/src/libcore/fmt/mod.rs:2026
  8a:	9807      	ldr	r0, [sp, #28]
  8c:	9908      	ldr	r1, [sp, #32]
  8e:	9a06      	ldr	r2, [sp, #24]
  90:	6090      	str	r0, [r2, #8]
  92:	60d1      	str	r1, [r2, #12]
/rustc/50a0defd5a93523067ef239936cc2e0755220904/src/libcore/fmt/mod.rs:2027
  94:	9809      	ldr	r0, [sp, #36]	; 0x24
  96:	9906      	ldr	r1, [sp, #24]
  98:	6008      	str	r0, [r1, #0]
/rustc/50a0defd5a93523067ef239936cc2e0755220904/src/libcore/fmt/mod.rs:2029
  9a:	f89d 002b 	ldrb.w	r0, [sp, #43]	; 0x2b
/rustc/50a0defd5a93523067ef239936cc2e0755220904/src/libcore/fmt/mod.rs:2030
  9e:	b00c      	add	sp, #48	; 0x30
  a0:	bd80      	pop	{r7, pc}

Disassembly of section .text._ZN54_$LT$$BP$const$u20$T$u20$as$u20$core..fmt..Pointer$GT$3fmt17h78070dbfe0992255E:

00000000 <_ZN54_$LT$$BP$const$u20$T$u20$as$u20$core..fmt..Pointer$GT$3fmt17h78070dbfe0992255E>:
_ZN54_$LT$$BP$const$u20$T$u20$as$u20$core..fmt..Pointer$GT$3fmt17h78070dbfe0992255E():
/rustc/50a0defd5a93523067ef239936cc2e0755220904/src/libcore/fmt/mod.rs:2007
   0:	b580      	push	{r7, lr}
   2:	b08c      	sub	sp, #48	; 0x30
   4:	460a      	mov	r2, r1
   6:	4603      	mov	r3, r0
   8:	9005      	str	r0, [sp, #20]
   a:	9106      	str	r1, [sp, #24]
/rustc/50a0defd5a93523067ef239936cc2e0755220904/src/libcore/fmt/mod.rs:2008
   c:	9806      	ldr	r0, [sp, #24]
   e:	6881      	ldr	r1, [r0, #8]
  10:	68c0      	ldr	r0, [r0, #12]
  12:	9107      	str	r1, [sp, #28]
  14:	9008      	str	r0, [sp, #32]
/rustc/50a0defd5a93523067ef239936cc2e0755220904/src/libcore/fmt/mod.rs:2009
  16:	9806      	ldr	r0, [sp, #24]
  18:	6800      	ldr	r0, [r0, #0]
  1a:	9009      	str	r0, [sp, #36]	; 0x24
/rustc/50a0defd5a93523067ef239936cc2e0755220904/src/libcore/fmt/mod.rs:2015
  1c:	9806      	ldr	r0, [sp, #24]
  1e:	9204      	str	r2, [sp, #16]
  20:	9303      	str	r3, [sp, #12]
  22:	f7ff fffe 	bl	0 <_ZN4core3fmt9Formatter9alternate17hd09f58cee14df2eeE>
  26:	9002      	str	r0, [sp, #8]
  28:	e7ff      	b.n	2a <_ZN54_$LT$$BP$const$u20$T$u20$as$u20$core..fmt..Pointer$GT$3fmt17h78070dbfe0992255E+0x2a>
  2a:	9802      	ldr	r0, [sp, #8]
  2c:	07c1      	lsls	r1, r0, #31
  2e:	2900      	cmp	r1, #0
  30:	d01c      	beq.n	6c <_ZN54_$LT$$BP$const$u20$T$u20$as$u20$core..fmt..Pointer$GT$3fmt17h78070dbfe0992255E+0x6c>
  32:	e7ff      	b.n	34 <_ZN54_$LT$$BP$const$u20$T$u20$as$u20$core..fmt..Pointer$GT$3fmt17h78070dbfe0992255E+0x34>
/rustc/50a0defd5a93523067ef239936cc2e0755220904/src/libcore/fmt/mod.rs:2016
  34:	9806      	ldr	r0, [sp, #24]
  36:	6801      	ldr	r1, [r0, #0]
  38:	f041 0108 	orr.w	r1, r1, #8
  3c:	6001      	str	r1, [r0, #0]
/rustc/50a0defd5a93523067ef239936cc2e0755220904/src/libcore/fmt/mod.rs:2018
  3e:	9806      	ldr	r0, [sp, #24]
  40:	6880      	ldr	r0, [r0, #8]
  42:	2800      	cmp	r0, #0
  44:	d112      	bne.n	6c <_ZN54_$LT$$BP$const$u20$T$u20$as$u20$core..fmt..Pointer$GT$3fmt17h78070dbfe0992255E+0x6c>
  46:	e7ff      	b.n	48 <_ZN54_$LT$$BP$const$u20$T$u20$as$u20$core..fmt..Pointer$GT$3fmt17h78070dbfe0992255E+0x48>
/rustc/50a0defd5a93523067ef239936cc2e0755220904/src/libcore/fmt/mod.rs:2019
  48:	f7ff fffe 	bl	0 <_ZN4core3mem7size_of17h033cda7c0b223844E>
  4c:	9001      	str	r0, [sp, #4]
  4e:	e7ff      	b.n	50 <_ZN54_$LT$$BP$const$u20$T$u20$as$u20$core..fmt..Pointer$GT$3fmt17h78070dbfe0992255E+0x50>
  50:	9801      	ldr	r0, [sp, #4]
  52:	00c1      	lsls	r1, r0, #3
  54:	9100      	str	r1, [sp, #0]
  56:	e7ff      	b.n	58 <_ZN54_$LT$$BP$const$u20$T$u20$as$u20$core..fmt..Pointer$GT$3fmt17h78070dbfe0992255E+0x58>
  58:	2002      	movs	r0, #2
  5a:	9900      	ldr	r1, [sp, #0]
  5c:	eb00 0091 	add.w	r0, r0, r1, lsr #2
  60:	9a06      	ldr	r2, [sp, #24]
  62:	60d0      	str	r0, [r2, #12]
  64:	9806      	ldr	r0, [sp, #24]
  66:	2201      	movs	r2, #1
  68:	6082      	str	r2, [r0, #8]
/rustc/50a0defd5a93523067ef239936cc2e0755220904/src/libcore/fmt/mod.rs:2018
  6a:	e7ff      	b.n	6c <_ZN54_$LT$$BP$const$u20$T$u20$as$u20$core..fmt..Pointer$GT$3fmt17h78070dbfe0992255E+0x6c>
/rustc/50a0defd5a93523067ef239936cc2e0755220904/src/libcore/fmt/mod.rs:2022
  6c:	9806      	ldr	r0, [sp, #24]
  6e:	6801      	ldr	r1, [r0, #0]
  70:	f041 0104 	orr.w	r1, r1, #4
  74:	6001      	str	r1, [r0, #0]
/rustc/50a0defd5a93523067ef239936cc2e0755220904/src/libcore/fmt/mod.rs:2024
  76:	9805      	ldr	r0, [sp, #20]
  78:	6800      	ldr	r0, [r0, #0]
  7a:	900b      	str	r0, [sp, #44]	; 0x2c
  7c:	9906      	ldr	r1, [sp, #24]
  7e:	a80b      	add	r0, sp, #44	; 0x2c
  80:	f7ff fffe 	bl	0 <_ZN4core3fmt3num55_$LT$impl$u20$core..fmt..LowerHex$u20$for$u20$usize$GT$3fmt17h562f60f4fbcc2e1dE>
  84:	f88d 002b 	strb.w	r0, [sp, #43]	; 0x2b
  88:	e7ff      	b.n	8a <_ZN54_$LT$$BP$const$u20$T$u20$as$u20$core..fmt..Pointer$GT$3fmt17h78070dbfe0992255E+0x8a>
/rustc/50a0defd5a93523067ef239936cc2e0755220904/src/libcore/fmt/mod.rs:2026
  8a:	9807      	ldr	r0, [sp, #28]
  8c:	9908      	ldr	r1, [sp, #32]
  8e:	9a06      	ldr	r2, [sp, #24]
  90:	6090      	str	r0, [r2, #8]
  92:	60d1      	str	r1, [r2, #12]
/rustc/50a0defd5a93523067ef239936cc2e0755220904/src/libcore/fmt/mod.rs:2027
  94:	9809      	ldr	r0, [sp, #36]	; 0x24
  96:	9906      	ldr	r1, [sp, #24]
  98:	6008      	str	r0, [r1, #0]
/rustc/50a0defd5a93523067ef239936cc2e0755220904/src/libcore/fmt/mod.rs:2029
  9a:	f89d 002b 	ldrb.w	r0, [sp, #43]	; 0x2b
/rustc/50a0defd5a93523067ef239936cc2e0755220904/src/libcore/fmt/mod.rs:2030
  9e:	b00c      	add	sp, #48	; 0x30
  a0:	bd80      	pop	{r7, pc}

Disassembly of section .text._ZN54_$LT$$BP$const$u20$T$u20$as$u20$core..fmt..Pointer$GT$3fmt17h865ff0eb2457ecd3E:

00000000 <_ZN54_$LT$$BP$const$u20$T$u20$as$u20$core..fmt..Pointer$GT$3fmt17h865ff0eb2457ecd3E>:
_ZN54_$LT$$BP$const$u20$T$u20$as$u20$core..fmt..Pointer$GT$3fmt17h865ff0eb2457ecd3E():
/rustc/50a0defd5a93523067ef239936cc2e0755220904/src/libcore/fmt/mod.rs:2007
   0:	b580      	push	{r7, lr}
   2:	b08c      	sub	sp, #48	; 0x30
   4:	460a      	mov	r2, r1
   6:	4603      	mov	r3, r0
   8:	9005      	str	r0, [sp, #20]
   a:	9106      	str	r1, [sp, #24]
/rustc/50a0defd5a93523067ef239936cc2e0755220904/src/libcore/fmt/mod.rs:2008
   c:	9806      	ldr	r0, [sp, #24]
   e:	6881      	ldr	r1, [r0, #8]
  10:	68c0      	ldr	r0, [r0, #12]
  12:	9107      	str	r1, [sp, #28]
  14:	9008      	str	r0, [sp, #32]
/rustc/50a0defd5a93523067ef239936cc2e0755220904/src/libcore/fmt/mod.rs:2009
  16:	9806      	ldr	r0, [sp, #24]
  18:	6800      	ldr	r0, [r0, #0]
  1a:	9009      	str	r0, [sp, #36]	; 0x24
/rustc/50a0defd5a93523067ef239936cc2e0755220904/src/libcore/fmt/mod.rs:2015
  1c:	9806      	ldr	r0, [sp, #24]
  1e:	9204      	str	r2, [sp, #16]
  20:	9303      	str	r3, [sp, #12]
  22:	f7ff fffe 	bl	0 <_ZN4core3fmt9Formatter9alternate17hd09f58cee14df2eeE>
  26:	9002      	str	r0, [sp, #8]
  28:	e7ff      	b.n	2a <_ZN54_$LT$$BP$const$u20$T$u20$as$u20$core..fmt..Pointer$GT$3fmt17h865ff0eb2457ecd3E+0x2a>
  2a:	9802      	ldr	r0, [sp, #8]
  2c:	07c1      	lsls	r1, r0, #31
  2e:	2900      	cmp	r1, #0
  30:	d01c      	beq.n	6c <_ZN54_$LT$$BP$const$u20$T$u20$as$u20$core..fmt..Pointer$GT$3fmt17h865ff0eb2457ecd3E+0x6c>
  32:	e7ff      	b.n	34 <_ZN54_$LT$$BP$const$u20$T$u20$as$u20$core..fmt..Pointer$GT$3fmt17h865ff0eb2457ecd3E+0x34>
/rustc/50a0defd5a93523067ef239936cc2e0755220904/src/libcore/fmt/mod.rs:2016
  34:	9806      	ldr	r0, [sp, #24]
  36:	6801      	ldr	r1, [r0, #0]
  38:	f041 0108 	orr.w	r1, r1, #8
  3c:	6001      	str	r1, [r0, #0]
/rustc/50a0defd5a93523067ef239936cc2e0755220904/src/libcore/fmt/mod.rs:2018
  3e:	9806      	ldr	r0, [sp, #24]
  40:	6880      	ldr	r0, [r0, #8]
  42:	2800      	cmp	r0, #0
  44:	d112      	bne.n	6c <_ZN54_$LT$$BP$const$u20$T$u20$as$u20$core..fmt..Pointer$GT$3fmt17h865ff0eb2457ecd3E+0x6c>
  46:	e7ff      	b.n	48 <_ZN54_$LT$$BP$const$u20$T$u20$as$u20$core..fmt..Pointer$GT$3fmt17h865ff0eb2457ecd3E+0x48>
/rustc/50a0defd5a93523067ef239936cc2e0755220904/src/libcore/fmt/mod.rs:2019
  48:	f7ff fffe 	bl	0 <_ZN4core3mem7size_of17h033cda7c0b223844E>
  4c:	9001      	str	r0, [sp, #4]
  4e:	e7ff      	b.n	50 <_ZN54_$LT$$BP$const$u20$T$u20$as$u20$core..fmt..Pointer$GT$3fmt17h865ff0eb2457ecd3E+0x50>
  50:	9801      	ldr	r0, [sp, #4]
  52:	00c1      	lsls	r1, r0, #3
  54:	9100      	str	r1, [sp, #0]
  56:	e7ff      	b.n	58 <_ZN54_$LT$$BP$const$u20$T$u20$as$u20$core..fmt..Pointer$GT$3fmt17h865ff0eb2457ecd3E+0x58>
  58:	2002      	movs	r0, #2
  5a:	9900      	ldr	r1, [sp, #0]
  5c:	eb00 0091 	add.w	r0, r0, r1, lsr #2
  60:	9a06      	ldr	r2, [sp, #24]
  62:	60d0      	str	r0, [r2, #12]
  64:	9806      	ldr	r0, [sp, #24]
  66:	2201      	movs	r2, #1
  68:	6082      	str	r2, [r0, #8]
/rustc/50a0defd5a93523067ef239936cc2e0755220904/src/libcore/fmt/mod.rs:2018
  6a:	e7ff      	b.n	6c <_ZN54_$LT$$BP$const$u20$T$u20$as$u20$core..fmt..Pointer$GT$3fmt17h865ff0eb2457ecd3E+0x6c>
/rustc/50a0defd5a93523067ef239936cc2e0755220904/src/libcore/fmt/mod.rs:2022
  6c:	9806      	ldr	r0, [sp, #24]
  6e:	6801      	ldr	r1, [r0, #0]
  70:	f041 0104 	orr.w	r1, r1, #4
  74:	6001      	str	r1, [r0, #0]
/rustc/50a0defd5a93523067ef239936cc2e0755220904/src/libcore/fmt/mod.rs:2024
  76:	9805      	ldr	r0, [sp, #20]
  78:	6800      	ldr	r0, [r0, #0]
  7a:	900b      	str	r0, [sp, #44]	; 0x2c
  7c:	9906      	ldr	r1, [sp, #24]
  7e:	a80b      	add	r0, sp, #44	; 0x2c
  80:	f7ff fffe 	bl	0 <_ZN4core3fmt3num55_$LT$impl$u20$core..fmt..LowerHex$u20$for$u20$usize$GT$3fmt17h562f60f4fbcc2e1dE>
  84:	f88d 002b 	strb.w	r0, [sp, #43]	; 0x2b
  88:	e7ff      	b.n	8a <_ZN54_$LT$$BP$const$u20$T$u20$as$u20$core..fmt..Pointer$GT$3fmt17h865ff0eb2457ecd3E+0x8a>
/rustc/50a0defd5a93523067ef239936cc2e0755220904/src/libcore/fmt/mod.rs:2026
  8a:	9807      	ldr	r0, [sp, #28]
  8c:	9908      	ldr	r1, [sp, #32]
  8e:	9a06      	ldr	r2, [sp, #24]
  90:	6090      	str	r0, [r2, #8]
  92:	60d1      	str	r1, [r2, #12]
/rustc/50a0defd5a93523067ef239936cc2e0755220904/src/libcore/fmt/mod.rs:2027
  94:	9809      	ldr	r0, [sp, #36]	; 0x24
  96:	9906      	ldr	r1, [sp, #24]
  98:	6008      	str	r0, [r1, #0]
/rustc/50a0defd5a93523067ef239936cc2e0755220904/src/libcore/fmt/mod.rs:2029
  9a:	f89d 002b 	ldrb.w	r0, [sp, #43]	; 0x2b
/rustc/50a0defd5a93523067ef239936cc2e0755220904/src/libcore/fmt/mod.rs:2030
  9e:	b00c      	add	sp, #48	; 0x30
  a0:	bd80      	pop	{r7, pc}

mylib-ac95891f38e7979c.4497fvddxy6cb2a7.rcgu.o:     file format elf32-littlearm

SYMBOL TABLE:
00000000 l    df *ABS*	00000000 4497fvddxy6cb2a7
00000000 l       .debug_str	00000000 
00000041 l       .debug_str	00000000 
0000004c l       .debug_str	00000000 
0000006f l       .debug_str	00000000 
00000074 l       .debug_str	00000000 
00000078 l       .debug_str	00000000 
00000081 l       .debug_str	00000000 
000000c2 l       .debug_str	00000000 
000000cb l       .debug_str	00000000 
000000d4 l       .debug_str	00000000 
000000d7 l       .debug_str	00000000 
000000e1 l       .debug_str	00000000 
000000e8 l       .debug_str	00000000 
000000ee l       .debug_str	00000000 
000000f4 l       .debug_str	00000000 
000000f9 l       .debug_str	00000000 
000000fe l       .debug_str	00000000 
0000013a l       .debug_str	00000000 
0000013e l       .debug_str	00000000 
0000017d l       .debug_str	00000000 
00000000 l    d  .text._ZN4core3str21_$LT$impl$u20$str$GT$3len17ha2e0db4a9f502071E	00000000 .text._ZN4core3str21_$LT$impl$u20$str$GT$3len17ha2e0db4a9f502071E
00000000 l    d  .text._ZN4core3str21_$LT$impl$u20$str$GT$6as_ptr17hca80eebebc99ccd9E	00000000 .text._ZN4core3str21_$LT$impl$u20$str$GT$6as_ptr17hca80eebebc99ccd9E
00000000 l    d  .debug_abbrev	00000000 .debug_abbrev
00000000 l    d  .debug_info	00000000 .debug_info
00000000 l    d  .debug_ranges	00000000 .debug_ranges
00000000 l    d  .debug_frame	00000000 .debug_frame
00000000 l    d  .debug_line	00000000 .debug_line
00000000 g     F .text._ZN4core3str21_$LT$impl$u20$str$GT$3len17ha2e0db4a9f502071E	0000003c .hidden _ZN4core3str21_$LT$impl$u20$str$GT$3len17ha2e0db4a9f502071E
00000000 g     F .text._ZN4core3str21_$LT$impl$u20$str$GT$6as_ptr17hca80eebebc99ccd9E	00000014 .hidden _ZN4core3str21_$LT$impl$u20$str$GT$6as_ptr17hca80eebebc99ccd9E
00000000         *UND*	00000000 _ZN4core5slice29_$LT$impl$u20$$u5b$T$u5d$$GT$3len17h8c76a39fea4234d0E



Disassembly of section .text._ZN4core3str21_$LT$impl$u20$str$GT$3len17ha2e0db4a9f502071E:

00000000 <_ZN4core3str21_$LT$impl$u20$str$GT$3len17ha2e0db4a9f502071E>:
_ZN4core3str21_$LT$impl$u20$str$GT$3len17ha2e0db4a9f502071E():
/rustc/50a0defd5a93523067ef239936cc2e0755220904/src/libcore/str/mod.rs:2070
   0:	b580      	push	{r7, lr}
   2:	b08c      	sub	sp, #48	; 0x30
   4:	460a      	mov	r2, r1
   6:	4603      	mov	r3, r0
   8:	9006      	str	r0, [sp, #24]
   a:	9107      	str	r1, [sp, #28]
/rustc/50a0defd5a93523067ef239936cc2e0755220904/src/libcore/str/mod.rs:2071
   c:	9806      	ldr	r0, [sp, #24]
   e:	9907      	ldr	r1, [sp, #28]
  10:	9008      	str	r0, [sp, #32]
  12:	9109      	str	r1, [sp, #36]	; 0x24
_ZN4core3str21_$LT$impl$u20$str$GT$8as_bytes17hbca31947ef6ad219E():
/rustc/50a0defd5a93523067ef239936cc2e0755220904/src/libcore/str/mod.rs:2153
  14:	9808      	ldr	r0, [sp, #32]
  16:	9909      	ldr	r1, [sp, #36]	; 0x24
  18:	900a      	str	r0, [sp, #40]	; 0x28
  1a:	910b      	str	r1, [sp, #44]	; 0x2c
  1c:	980a      	ldr	r0, [sp, #40]	; 0x28
  1e:	990b      	ldr	r1, [sp, #44]	; 0x2c
_ZN4core3str21_$LT$impl$u20$str$GT$3len17ha2e0db4a9f502071E():
/rustc/50a0defd5a93523067ef239936cc2e0755220904/src/libcore/str/mod.rs:2071
  20:	9205      	str	r2, [sp, #20]
  22:	9304      	str	r3, [sp, #16]
  24:	9003      	str	r0, [sp, #12]
  26:	9102      	str	r1, [sp, #8]
  28:	e7ff      	b.n	2a <_ZN4core3str21_$LT$impl$u20$str$GT$3len17ha2e0db4a9f502071E+0x2a>
  2a:	9803      	ldr	r0, [sp, #12]
  2c:	9902      	ldr	r1, [sp, #8]
  2e:	f7ff fffe 	bl	0 <_ZN4core5slice29_$LT$impl$u20$$u5b$T$u5d$$GT$3len17h8c76a39fea4234d0E>
  32:	9001      	str	r0, [sp, #4]
  34:	e7ff      	b.n	36 <_ZN4core3str21_$LT$impl$u20$str$GT$3len17ha2e0db4a9f502071E+0x36>
/rustc/50a0defd5a93523067ef239936cc2e0755220904/src/libcore/str/mod.rs:2072
  36:	9801      	ldr	r0, [sp, #4]
  38:	b00c      	add	sp, #48	; 0x30
  3a:	bd80      	pop	{r7, pc}

Disassembly of section .text._ZN4core3str21_$LT$impl$u20$str$GT$6as_ptr17hca80eebebc99ccd9E:

00000000 <_ZN4core3str21_$LT$impl$u20$str$GT$6as_ptr17hca80eebebc99ccd9E>:
_ZN4core3str21_$LT$impl$u20$str$GT$6as_ptr17hca80eebebc99ccd9E():
/rustc/50a0defd5a93523067ef239936cc2e0755220904/src/libcore/str/mod.rs:2217
   0:	b084      	sub	sp, #16
   2:	460a      	mov	r2, r1
   4:	4603      	mov	r3, r0
   6:	9002      	str	r0, [sp, #8]
   8:	9103      	str	r1, [sp, #12]
/rustc/50a0defd5a93523067ef239936cc2e0755220904/src/libcore/str/mod.rs:2218
   a:	9802      	ldr	r0, [sp, #8]
/rustc/50a0defd5a93523067ef239936cc2e0755220904/src/libcore/str/mod.rs:2219
   c:	9201      	str	r2, [sp, #4]
   e:	9300      	str	r3, [sp, #0]
  10:	b004      	add	sp, #16
  12:	4770      	bx	lr

mylib-ac95891f38e7979c.4fs43327d33gbryi.rcgu.o:     file format elf32-littlearm

SYMBOL TABLE:
00000000 l    df *ABS*	00000000 4fs43327d33gbryi
00000000 l       .debug_str	00000000 
00000041 l       .debug_str	00000000 
0000004c l       .debug_str	00000000 
0000006f l       .debug_str	00000000 
00000074 l       .debug_str	00000000 
0000007b l       .debug_str	00000000 
0000007e l       .debug_str	00000000 
00000081 l       .debug_str	00000000 
00000085 l       .debug_str	00000000 
0000008c l       .debug_str	00000000 
00000090 l       .debug_str	00000000 
00000093 l       .debug_str	00000000 
00000096 l       .debug_str	00000000 
0000009b l       .debug_str	00000000 
000000a1 l       .debug_str	00000000 
000000a8 l       .debug_str	00000000 
000000b0 l       .debug_str	00000000 
000000ba l       .debug_str	00000000 
000000be l       .debug_str	00000000 
000000c7 l       .debug_str	00000000 
00000124 l       .debug_str	00000000 
00000181 l       .debug_str	00000000 
00000186 l       .debug_str	00000000 
0000018a l       .debug_str	00000000 
0000018f l       .debug_str	00000000 
00000191 l       .debug_str	00000000 
00000197 l       .debug_str	00000000 
0000019b l       .debug_str	00000000 
000001a0 l       .debug_str	00000000 
000001a5 l       .debug_str	00000000 
000001ab l       .debug_str	00000000 
000001b1 l       .debug_str	00000000 
000001b8 l       .debug_str	00000000 
000001bd l       .debug_str	00000000 
000001c3 l       .debug_str	00000000 
000001c5 l       .debug_str	00000000 
000001ca l       .debug_str	00000000 
000001ce l       .debug_str	00000000 
000001dc l       .debug_str	00000000 
000001e6 l       .debug_str	00000000 
000001ea l       .debug_str	00000000 
000001f2 l       .debug_str	00000000 
000001fa l       .debug_str	00000000 
00000201 l       .debug_str	00000000 
00000215 l       .debug_str	00000000 
00000221 l       .debug_str	00000000 
0000022c l       .debug_str	00000000 
00000233 l       .debug_str	00000000 
00000239 l       .debug_str	00000000 
0000023d l       .debug_str	00000000 
00000243 l       .debug_str	00000000 
00000249 l       .debug_str	00000000 
0000024c l       .debug_str	00000000 
0000025b l       .debug_str	00000000 
00000262 l       .debug_str	00000000 
00000266 l       .debug_str	00000000 
0000026f l       .debug_str	00000000 
0000027b l       .debug_str	00000000 
00000294 l       .debug_str	00000000 
00000299 l       .debug_str	00000000 
000002aa l       .debug_str	00000000 
000002b4 l       .debug_str	00000000 
00000312 l       .debug_str	00000000 
0000031d l       .debug_str	00000000 
0000033a l       .debug_str	00000000 
0000033e l       .debug_str	00000000 
00000346 l       .debug_str	00000000 
0000035d l       .debug_str	00000000 
00000381 l       .debug_str	00000000 
0000039d l       .debug_str	00000000 
000003a2 l       .debug_str	00000000 
000003ab l       .debug_str	00000000 
000003b2 l       .debug_str	00000000 
000003cb l       .debug_str	00000000 
000003d5 l       .debug_str	00000000 
000003ef l       .debug_str	00000000 
000003f3 l       .debug_str	00000000 
00000000 l    d  .text._ZN4core3fmt3num50_$LT$impl$u20$core..fmt..Debug$u20$for$u20$i32$GT$3fmt17hbbb46498fb3ead3eE	00000000 .text._ZN4core3fmt3num50_$LT$impl$u20$core..fmt..Debug$u20$for$u20$i32$GT$3fmt17hbbb46498fb3ead3eE
00000000 l    d  .text._ZN4core3fmt3num50_$LT$impl$u20$core..fmt..Debug$u20$for$u20$u16$GT$3fmt17h85fea0f7ac7209d6E	00000000 .text._ZN4core3fmt3num50_$LT$impl$u20$core..fmt..Debug$u20$for$u20$u16$GT$3fmt17h85fea0f7ac7209d6E
00000000 l    d  .debug_abbrev	00000000 .debug_abbrev
00000000 l    d  .debug_info	00000000 .debug_info
00000000 l    d  .debug_ranges	00000000 .debug_ranges
00000000 l    d  .debug_frame	00000000 .debug_frame
00000000 l    d  .debug_line	00000000 .debug_line
00000000         *UND*	00000000 _ZN4core3fmt3num3imp52_$LT$impl$u20$core..fmt..Display$u20$for$u20$i32$GT$3fmt17h33b3bbdbc74b88baE
00000000         *UND*	00000000 _ZN4core3fmt3num3imp52_$LT$impl$u20$core..fmt..Display$u20$for$u20$u16$GT$3fmt17hc4c95b945dca8c87E
00000000 g     F .text._ZN4core3fmt3num50_$LT$impl$u20$core..fmt..Debug$u20$for$u20$i32$GT$3fmt17hbbb46498fb3ead3eE	00000072 .hidden _ZN4core3fmt3num50_$LT$impl$u20$core..fmt..Debug$u20$for$u20$i32$GT$3fmt17hbbb46498fb3ead3eE
00000000 g     F .text._ZN4core3fmt3num50_$LT$impl$u20$core..fmt..Debug$u20$for$u20$u16$GT$3fmt17h85fea0f7ac7209d6E	00000072 .hidden _ZN4core3fmt3num50_$LT$impl$u20$core..fmt..Debug$u20$for$u20$u16$GT$3fmt17h85fea0f7ac7209d6E
00000000         *UND*	00000000 _ZN4core3fmt3num53_$LT$impl$u20$core..fmt..LowerHex$u20$for$u20$i32$GT$3fmt17hb2119167a92723afE
00000000         *UND*	00000000 _ZN4core3fmt3num53_$LT$impl$u20$core..fmt..LowerHex$u20$for$u20$u16$GT$3fmt17h64ef524a23a0177cE
00000000         *UND*	00000000 _ZN4core3fmt3num53_$LT$impl$u20$core..fmt..UpperHex$u20$for$u20$i32$GT$3fmt17hc44988ae29d24532E
00000000         *UND*	00000000 _ZN4core3fmt3num53_$LT$impl$u20$core..fmt..UpperHex$u20$for$u20$u16$GT$3fmt17h0cc208c1b57a04edE
00000000         *UND*	00000000 _ZN4core3fmt9Formatter15debug_lower_hex17h6ead2f28bb05b574E
00000000         *UND*	00000000 _ZN4core3fmt9Formatter15debug_upper_hex17hd6d96e6aa5cb78d8E



Disassembly of section .text._ZN4core3fmt3num50_$LT$impl$u20$core..fmt..Debug$u20$for$u20$i32$GT$3fmt17hbbb46498fb3ead3eE:

00000000 <_ZN4core3fmt3num50_$LT$impl$u20$core..fmt..Debug$u20$for$u20$i32$GT$3fmt17hbbb46498fb3ead3eE>:
_ZN4core3fmt3num50_$LT$impl$u20$core..fmt..Debug$u20$for$u20$i32$GT$3fmt17hbbb46498fb3ead3eE():
/rustc/50a0defd5a93523067ef239936cc2e0755220904/src/libcore/fmt/num.rs:146
   0:	b580      	push	{r7, lr}
   2:	b088      	sub	sp, #32
   4:	460a      	mov	r2, r1
   6:	4603      	mov	r3, r0
   8:	9005      	str	r0, [sp, #20]
   a:	9106      	str	r1, [sp, #24]
/rustc/50a0defd5a93523067ef239936cc2e0755220904/src/libcore/fmt/num.rs:147
   c:	9806      	ldr	r0, [sp, #24]
   e:	9204      	str	r2, [sp, #16]
  10:	9303      	str	r3, [sp, #12]
  12:	f7ff fffe 	bl	0 <_ZN4core3fmt9Formatter15debug_lower_hex17h6ead2f28bb05b574E>
  16:	9002      	str	r0, [sp, #8]
  18:	e7ff      	b.n	1a <_ZN4core3fmt3num50_$LT$impl$u20$core..fmt..Debug$u20$for$u20$i32$GT$3fmt17hbbb46498fb3ead3eE+0x1a>
  1a:	9802      	ldr	r0, [sp, #8]
  1c:	07c1      	lsls	r1, r0, #31
  1e:	2900      	cmp	r1, #0
  20:	d008      	beq.n	34 <_ZN4core3fmt3num50_$LT$impl$u20$core..fmt..Debug$u20$for$u20$i32$GT$3fmt17hbbb46498fb3ead3eE+0x34>
  22:	e7ff      	b.n	24 <_ZN4core3fmt3num50_$LT$impl$u20$core..fmt..Debug$u20$for$u20$i32$GT$3fmt17hbbb46498fb3ead3eE+0x24>
/rustc/50a0defd5a93523067ef239936cc2e0755220904/src/libcore/fmt/num.rs:148
  24:	9805      	ldr	r0, [sp, #20]
  26:	9906      	ldr	r1, [sp, #24]
  28:	f7ff fffe 	bl	0 <_ZN4core3fmt3num53_$LT$impl$u20$core..fmt..LowerHex$u20$for$u20$i32$GT$3fmt17hb2119167a92723afE>
  2c:	f88d 001f 	strb.w	r0, [sp, #31]
  30:	e7ff      	b.n	32 <_ZN4core3fmt3num50_$LT$impl$u20$core..fmt..Debug$u20$for$u20$i32$GT$3fmt17hbbb46498fb3ead3eE+0x32>
/rustc/50a0defd5a93523067ef239936cc2e0755220904/src/libcore/fmt/num.rs:147
  32:	e01a      	b.n	6a <_ZN4core3fmt3num50_$LT$impl$u20$core..fmt..Debug$u20$for$u20$i32$GT$3fmt17hbbb46498fb3ead3eE+0x6a>
/rustc/50a0defd5a93523067ef239936cc2e0755220904/src/libcore/fmt/num.rs:149
  34:	9806      	ldr	r0, [sp, #24]
  36:	f7ff fffe 	bl	0 <_ZN4core3fmt9Formatter15debug_upper_hex17hd6d96e6aa5cb78d8E>
  3a:	9001      	str	r0, [sp, #4]
  3c:	e7ff      	b.n	3e <_ZN4core3fmt3num50_$LT$impl$u20$core..fmt..Debug$u20$for$u20$i32$GT$3fmt17hbbb46498fb3ead3eE+0x3e>
  3e:	9801      	ldr	r0, [sp, #4]
  40:	07c1      	lsls	r1, r0, #31
  42:	2900      	cmp	r1, #0
  44:	d008      	beq.n	58 <_ZN4core3fmt3num50_$LT$impl$u20$core..fmt..Debug$u20$for$u20$i32$GT$3fmt17hbbb46498fb3ead3eE+0x58>
  46:	e7ff      	b.n	48 <_ZN4core3fmt3num50_$LT$impl$u20$core..fmt..Debug$u20$for$u20$i32$GT$3fmt17hbbb46498fb3ead3eE+0x48>
/rustc/50a0defd5a93523067ef239936cc2e0755220904/src/libcore/fmt/num.rs:150
  48:	9805      	ldr	r0, [sp, #20]
  4a:	9906      	ldr	r1, [sp, #24]
  4c:	f7ff fffe 	bl	0 <_ZN4core3fmt3num53_$LT$impl$u20$core..fmt..UpperHex$u20$for$u20$i32$GT$3fmt17hc44988ae29d24532E>
  50:	f88d 001f 	strb.w	r0, [sp, #31]
  54:	e7ff      	b.n	56 <_ZN4core3fmt3num50_$LT$impl$u20$core..fmt..Debug$u20$for$u20$i32$GT$3fmt17hbbb46498fb3ead3eE+0x56>
/rustc/50a0defd5a93523067ef239936cc2e0755220904/src/libcore/fmt/num.rs:149
  56:	e007      	b.n	68 <_ZN4core3fmt3num50_$LT$impl$u20$core..fmt..Debug$u20$for$u20$i32$GT$3fmt17hbbb46498fb3ead3eE+0x68>
/rustc/50a0defd5a93523067ef239936cc2e0755220904/src/libcore/fmt/num.rs:152
  58:	9805      	ldr	r0, [sp, #20]
  5a:	9906      	ldr	r1, [sp, #24]
  5c:	f7ff fffe 	bl	0 <_ZN4core3fmt3num3imp52_$LT$impl$u20$core..fmt..Display$u20$for$u20$i32$GT$3fmt17h33b3bbdbc74b88baE>
  60:	f88d 001f 	strb.w	r0, [sp, #31]
  64:	e7ff      	b.n	66 <_ZN4core3fmt3num50_$LT$impl$u20$core..fmt..Debug$u20$for$u20$i32$GT$3fmt17hbbb46498fb3ead3eE+0x66>
/rustc/50a0defd5a93523067ef239936cc2e0755220904/src/libcore/fmt/num.rs:149
  66:	e7ff      	b.n	68 <_ZN4core3fmt3num50_$LT$impl$u20$core..fmt..Debug$u20$for$u20$i32$GT$3fmt17hbbb46498fb3ead3eE+0x68>
/rustc/50a0defd5a93523067ef239936cc2e0755220904/src/libcore/fmt/num.rs:147
  68:	e7ff      	b.n	6a <_ZN4core3fmt3num50_$LT$impl$u20$core..fmt..Debug$u20$for$u20$i32$GT$3fmt17hbbb46498fb3ead3eE+0x6a>
/rustc/50a0defd5a93523067ef239936cc2e0755220904/src/libcore/fmt/num.rs:154
  6a:	f89d 001f 	ldrb.w	r0, [sp, #31]
  6e:	b008      	add	sp, #32
  70:	bd80      	pop	{r7, pc}

Disassembly of section .text._ZN4core3fmt3num50_$LT$impl$u20$core..fmt..Debug$u20$for$u20$u16$GT$3fmt17h85fea0f7ac7209d6E:

00000000 <_ZN4core3fmt3num50_$LT$impl$u20$core..fmt..Debug$u20$for$u20$u16$GT$3fmt17h85fea0f7ac7209d6E>:
_ZN4core3fmt3num50_$LT$impl$u20$core..fmt..Debug$u20$for$u20$u16$GT$3fmt17h85fea0f7ac7209d6E():
/rustc/50a0defd5a93523067ef239936cc2e0755220904/src/libcore/fmt/num.rs:146
   0:	b580      	push	{r7, lr}
   2:	b088      	sub	sp, #32
   4:	460a      	mov	r2, r1
   6:	4603      	mov	r3, r0
   8:	9005      	str	r0, [sp, #20]
   a:	9106      	str	r1, [sp, #24]
/rustc/50a0defd5a93523067ef239936cc2e0755220904/src/libcore/fmt/num.rs:147
   c:	9806      	ldr	r0, [sp, #24]
   e:	9204      	str	r2, [sp, #16]
  10:	9303      	str	r3, [sp, #12]
  12:	f7ff fffe 	bl	0 <_ZN4core3fmt9Formatter15debug_lower_hex17h6ead2f28bb05b574E>
  16:	9002      	str	r0, [sp, #8]
  18:	e7ff      	b.n	1a <_ZN4core3fmt3num50_$LT$impl$u20$core..fmt..Debug$u20$for$u20$u16$GT$3fmt17h85fea0f7ac7209d6E+0x1a>
  1a:	9802      	ldr	r0, [sp, #8]
  1c:	07c1      	lsls	r1, r0, #31
  1e:	2900      	cmp	r1, #0
  20:	d008      	beq.n	34 <_ZN4core3fmt3num50_$LT$impl$u20$core..fmt..Debug$u20$for$u20$u16$GT$3fmt17h85fea0f7ac7209d6E+0x34>
  22:	e7ff      	b.n	24 <_ZN4core3fmt3num50_$LT$impl$u20$core..fmt..Debug$u20$for$u20$u16$GT$3fmt17h85fea0f7ac7209d6E+0x24>
/rustc/50a0defd5a93523067ef239936cc2e0755220904/src/libcore/fmt/num.rs:148
  24:	9805      	ldr	r0, [sp, #20]
  26:	9906      	ldr	r1, [sp, #24]
  28:	f7ff fffe 	bl	0 <_ZN4core3fmt3num53_$LT$impl$u20$core..fmt..LowerHex$u20$for$u20$u16$GT$3fmt17h64ef524a23a0177cE>
  2c:	f88d 001f 	strb.w	r0, [sp, #31]
  30:	e7ff      	b.n	32 <_ZN4core3fmt3num50_$LT$impl$u20$core..fmt..Debug$u20$for$u20$u16$GT$3fmt17h85fea0f7ac7209d6E+0x32>
/rustc/50a0defd5a93523067ef239936cc2e0755220904/src/libcore/fmt/num.rs:147
  32:	e01a      	b.n	6a <_ZN4core3fmt3num50_$LT$impl$u20$core..fmt..Debug$u20$for$u20$u16$GT$3fmt17h85fea0f7ac7209d6E+0x6a>
/rustc/50a0defd5a93523067ef239936cc2e0755220904/src/libcore/fmt/num.rs:149
  34:	9806      	ldr	r0, [sp, #24]
  36:	f7ff fffe 	bl	0 <_ZN4core3fmt9Formatter15debug_upper_hex17hd6d96e6aa5cb78d8E>
  3a:	9001      	str	r0, [sp, #4]
  3c:	e7ff      	b.n	3e <_ZN4core3fmt3num50_$LT$impl$u20$core..fmt..Debug$u20$for$u20$u16$GT$3fmt17h85fea0f7ac7209d6E+0x3e>
  3e:	9801      	ldr	r0, [sp, #4]
  40:	07c1      	lsls	r1, r0, #31
  42:	2900      	cmp	r1, #0
  44:	d008      	beq.n	58 <_ZN4core3fmt3num50_$LT$impl$u20$core..fmt..Debug$u20$for$u20$u16$GT$3fmt17h85fea0f7ac7209d6E+0x58>
  46:	e7ff      	b.n	48 <_ZN4core3fmt3num50_$LT$impl$u20$core..fmt..Debug$u20$for$u20$u16$GT$3fmt17h85fea0f7ac7209d6E+0x48>
/rustc/50a0defd5a93523067ef239936cc2e0755220904/src/libcore/fmt/num.rs:150
  48:	9805      	ldr	r0, [sp, #20]
  4a:	9906      	ldr	r1, [sp, #24]
  4c:	f7ff fffe 	bl	0 <_ZN4core3fmt3num53_$LT$impl$u20$core..fmt..UpperHex$u20$for$u20$u16$GT$3fmt17h0cc208c1b57a04edE>
  50:	f88d 001f 	strb.w	r0, [sp, #31]
  54:	e7ff      	b.n	56 <_ZN4core3fmt3num50_$LT$impl$u20$core..fmt..Debug$u20$for$u20$u16$GT$3fmt17h85fea0f7ac7209d6E+0x56>
/rustc/50a0defd5a93523067ef239936cc2e0755220904/src/libcore/fmt/num.rs:149
  56:	e007      	b.n	68 <_ZN4core3fmt3num50_$LT$impl$u20$core..fmt..Debug$u20$for$u20$u16$GT$3fmt17h85fea0f7ac7209d6E+0x68>
/rustc/50a0defd5a93523067ef239936cc2e0755220904/src/libcore/fmt/num.rs:152
  58:	9805      	ldr	r0, [sp, #20]
  5a:	9906      	ldr	r1, [sp, #24]
  5c:	f7ff fffe 	bl	0 <_ZN4core3fmt3num3imp52_$LT$impl$u20$core..fmt..Display$u20$for$u20$u16$GT$3fmt17hc4c95b945dca8c87E>
  60:	f88d 001f 	strb.w	r0, [sp, #31]
  64:	e7ff      	b.n	66 <_ZN4core3fmt3num50_$LT$impl$u20$core..fmt..Debug$u20$for$u20$u16$GT$3fmt17h85fea0f7ac7209d6E+0x66>
/rustc/50a0defd5a93523067ef239936cc2e0755220904/src/libcore/fmt/num.rs:149
  66:	e7ff      	b.n	68 <_ZN4core3fmt3num50_$LT$impl$u20$core..fmt..Debug$u20$for$u20$u16$GT$3fmt17h85fea0f7ac7209d6E+0x68>
/rustc/50a0defd5a93523067ef239936cc2e0755220904/src/libcore/fmt/num.rs:147
  68:	e7ff      	b.n	6a <_ZN4core3fmt3num50_$LT$impl$u20$core..fmt..Debug$u20$for$u20$u16$GT$3fmt17h85fea0f7ac7209d6E+0x6a>
/rustc/50a0defd5a93523067ef239936cc2e0755220904/src/libcore/fmt/num.rs:154
  6a:	f89d 001f 	ldrb.w	r0, [sp, #31]
  6e:	b008      	add	sp, #32
  70:	bd80      	pop	{r7, pc}

mylib-ac95891f38e7979c.4gfa6aki8v0cc60q.rcgu.o:     file format elf32-littlearm

SYMBOL TABLE:
00000000 l    df *ABS*	00000000 4gfa6aki8v0cc60q
00000000 l       .debug_str	00000000 
00000041 l       .debug_str	00000000 
0000004c l       .debug_str	00000000 
0000006f l       .debug_str	00000000 
00000075 l       .debug_str	00000000 
0000007a l       .debug_str	00000000 
000000ac l       .debug_str	00000000 
000000ba l       .debug_str	00000000 
000000be l       .debug_str	00000000 
000000c7 l       .debug_str	00000000 
000000ca l       .debug_str	00000000 
000000d4 l       .debug_str	00000000 
000000db l       .debug_str	00000000 
000000e1 l       .debug_str	00000000 
000000e7 l       .debug_str	00000000 
00000000 l    d  .text._ZN5mylib4base13console_print17h47a7ec4e529b3d82E	00000000 .text._ZN5mylib4base13console_print17h47a7ec4e529b3d82E
00000000 l    d  .debug_abbrev	00000000 .debug_abbrev
00000000 l    d  .debug_info	00000000 .debug_info
00000000 l    d  .debug_frame	00000000 .debug_frame
00000000 l    d  .debug_line	00000000 .debug_line
00000000         *UND*	00000000 _ZN4core5slice29_$LT$impl$u20$$u5b$T$u5d$$GT$3len17h8c76a39fea4234d0E
00000000         *UND*	00000000 _ZN4core5slice29_$LT$impl$u20$$u5b$T$u5d$$GT$6as_ptr17h6e6820e87d479c61E
00000000 g     F .text._ZN5mylib4base13console_print17h47a7ec4e529b3d82E	0000003c .hidden _ZN5mylib4base13console_print17h47a7ec4e529b3d82E
00000000         *UND*	00000000 console_buffer
00000000         *UND*	00000000 console_flush



Disassembly of section .text._ZN5mylib4base13console_print17h47a7ec4e529b3d82E:

00000000 <_ZN5mylib4base13console_print17h47a7ec4e529b3d82E>:
_ZN5mylib4base13console_print17h47a7ec4e529b3d82E():
/mnt/c/stm32bluepill-mynewt-sensor/src/base.rs:7

use cty::*;            //  Import string utilities from cty library: https://crates.io/crates/cty
use crate::sensor::*;  //  Import sensor.rs for Mynewt Sensor API

///  Display message `msg` on the Arm Semihosting console (via OpenOCD).
pub fn console_print(msg: &[u8]) {
   0:	b580      	push	{r7, lr}
   2:	b086      	sub	sp, #24
   4:	460a      	mov	r2, r1
   6:	4603      	mov	r3, r0
   8:	9003      	str	r0, [sp, #12]
   a:	9104      	str	r1, [sp, #16]
/mnt/c/stm32bluepill-mynewt-sensor/src/base.rs:8
    let len = msg.len();
   c:	9803      	ldr	r0, [sp, #12]
   e:	9904      	ldr	r1, [sp, #16]
  10:	9202      	str	r2, [sp, #8]
  12:	9301      	str	r3, [sp, #4]
  14:	f7ff fffe 	bl	0 <_ZN4core5slice29_$LT$impl$u20$$u5b$T$u5d$$GT$3len17h8c76a39fea4234d0E>
  18:	9005      	str	r0, [sp, #20]
  1a:	e7ff      	b.n	1c <_ZN5mylib4base13console_print17h47a7ec4e529b3d82E+0x1c>
/mnt/c/stm32bluepill-mynewt-sensor/src/base.rs:11
    unsafe {
        //  Call the Semihosting Console API, which is unsafe.
        console_buffer(msg.as_ptr(), len as u32);
  1c:	9803      	ldr	r0, [sp, #12]
  1e:	9904      	ldr	r1, [sp, #16]
  20:	f7ff fffe 	bl	0 <_ZN4core5slice29_$LT$impl$u20$$u5b$T$u5d$$GT$6as_ptr17h6e6820e87d479c61E>
  24:	9000      	str	r0, [sp, #0]
  26:	e7ff      	b.n	28 <_ZN5mylib4base13console_print17h47a7ec4e529b3d82E+0x28>
  28:	9905      	ldr	r1, [sp, #20]
  2a:	9800      	ldr	r0, [sp, #0]
  2c:	f7ff fffe 	bl	0 <console_buffer>
  30:	e7ff      	b.n	2 <console_flush+0x2>
/mnt/c/stm32bluepill-mynewt-sensor/src/base.rs:12
        console_flush();  //  TODO: Remove this.
  32:	f7ff fffe 	bl	0 <console_flush>
  36:	e7ff      	b.n	38 <_ZN5mylib4base13console_print17h47a7ec4e529b3d82E+0x38>
/mnt/c/stm32bluepill-mynewt-sensor/src/base.rs:14
    }
}
  38:	b006      	add	sp, #24
  3a:	bd80      	pop	{r7, pc}

mylib-ac95891f38e7979c.541s4ibcgernpkgl.rcgu.o:     file format elf32-littlearm

SYMBOL TABLE:
00000000 l    df *ABS*	00000000 541s4ibcgernpkgl
00000000 l       .debug_str	00000000 
00000041 l       .debug_str	00000000 
0000004c l       .debug_str	00000000 
0000006f l       .debug_str	00000000 
00000074 l       .debug_str	00000000 
0000007b l       .debug_str	00000000 
0000007f l       .debug_str	00000000 
00000082 l       .debug_str	00000000 
00000086 l       .debug_str	00000000 
00000089 l       .debug_str	00000000 
0000008b l       .debug_str	00000000 
0000008f l       .debug_str	00000000 
00000091 l       .debug_str	00000000 
00000095 l       .debug_str	00000000 
000000a5 l       .debug_str	00000000 
000000d8 l       .debug_str	00000000 
000000eb l       .debug_str	00000000 
000000ed l       .debug_str	00000000 
0000012d l       .debug_str	00000000 
0000013c l       .debug_str	00000000 
00000140 l       .debug_str	00000000 
00000149 l       .debug_str	00000000 
0000014c l       .debug_str	00000000 
00000156 l       .debug_str	00000000 
0000015d l       .debug_str	00000000 
00000163 l       .debug_str	00000000 
00000168 l       .debug_str	00000000 
0000016e l       .debug_str	00000000 
00000173 l       .debug_str	00000000 
00000179 l       .debug_str	00000000 
0000017e l       .debug_str	00000000 
00000183 l       .debug_str	00000000 
00000188 l       .debug_str	00000000 
0000018a l       .debug_str	00000000 
00000000 l     O .rodata..Lanon.f53c71e115d2729da6dd16a088e85c6e.2	00000010 .Lanon.f53c71e115d2729da6dd16a088e85c6e.2
00000000 l     O .rodata..Lanon.f53c71e115d2729da6dd16a088e85c6e.4	00000010 .Lanon.f53c71e115d2729da6dd16a088e85c6e.4
00000000 l    d  .text._ZN4core6result13unwrap_failed17h07a2116b0728a952E	00000000 .text._ZN4core6result13unwrap_failed17h07a2116b0728a952E
00000000 l    d  .text._ZN4core6result19Result$LT$T$C$E$GT$6expect17hf656a3fd5c2cb345E	00000000 .text._ZN4core6result19Result$LT$T$C$E$GT$6expect17hf656a3fd5c2cb345E
00000000 l    d  .rodata..Lanon.f53c71e115d2729da6dd16a088e85c6e.0	00000000 .rodata..Lanon.f53c71e115d2729da6dd16a088e85c6e.0
00000000 l    d  .rodata..Lanon.f53c71e115d2729da6dd16a088e85c6e.1	00000000 .rodata..Lanon.f53c71e115d2729da6dd16a088e85c6e.1
00000000 l    d  .rodata..Lanon.f53c71e115d2729da6dd16a088e85c6e.3	00000000 .rodata..Lanon.f53c71e115d2729da6dd16a088e85c6e.3
00000000 l    d  .debug_abbrev	00000000 .debug_abbrev
00000000 l    d  .debug_info	00000000 .debug_info
00000000 l    d  .debug_ranges	00000000 .debug_ranges
00000000 l    d  .debug_frame	00000000 .debug_frame
00000000 l    d  .debug_line	00000000 .debug_line
00000000         *UND*	00000000 _ZN44_$LT$$RF$T$u20$as$u20$core..fmt..Display$GT$3fmt17h3783dcd2d2b56f30E
00000000         *UND*	00000000 _ZN4core3fmt10ArgumentV13new17h05d4954a4919dcdbE
00000000         *UND*	00000000 _ZN4core3fmt10ArgumentV13new17h47ed94b94e242b01E
00000000         *UND*	00000000 .hidden _ZN4core3fmt3num50_$LT$impl$u20$core..fmt..Debug$u20$for$u20$i32$GT$3fmt17hbbb46498fb3ead3eE
00000000         *UND*	00000000 .hidden _ZN4core3fmt9Arguments6new_v117h0330c13173882f69E
00000000 g     F .text._ZN4core6result13unwrap_failed17h07a2116b0728a952E	0000008e _ZN4core6result13unwrap_failed17h07a2116b0728a952E
00000000 g     F .text._ZN4core6result19Result$LT$T$C$E$GT$6expect17hf656a3fd5c2cb345E	00000052 _ZN4core6result19Result$LT$T$C$E$GT$6expect17hf656a3fd5c2cb345E
00000000         *UND*	00000000 _ZN4core9panicking9panic_fmt17h6b4d8e87b0965449E



Disassembly of section .text._ZN4core6result13unwrap_failed17h07a2116b0728a952E:

00000000 <_ZN4core6result13unwrap_failed17h07a2116b0728a952E>:
_ZN4core6result13unwrap_failed17h07a2116b0728a952E():
/rustc/50a0defd5a93523067ef239936cc2e0755220904/src/libcore/result.rs:998
   0:	b09a      	sub	sp, #104	; 0x68
   2:	4613      	mov	r3, r2
   4:	468c      	mov	ip, r1
   6:	4686      	mov	lr, r0
   8:	9009      	str	r0, [sp, #36]	; 0x24
   a:	910a      	str	r1, [sp, #40]	; 0x28
   c:	920b      	str	r2, [sp, #44]	; 0x2c
   e:	a809      	add	r0, sp, #36	; 0x24
/rustc/50a0defd5a93523067ef239936cc2e0755220904/src/libcore/result.rs:999
  10:	9016      	str	r0, [sp, #88]	; 0x58
  12:	a80b      	add	r0, sp, #44	; 0x2c
  14:	9017      	str	r0, [sp, #92]	; 0x5c
/mnt/c/stm32bluepill-mynewt-sensor/src/lib.rs:1
//!  Sensor app that reads sensor data from a temperature sensor and sends the sensor data to a CoAP server or Collector Node.
  16:	9816      	ldr	r0, [sp, #88]	; 0x58
  18:	9018      	str	r0, [sp, #96]	; 0x60
  1a:	9817      	ldr	r0, [sp, #92]	; 0x5c
  1c:	9019      	str	r0, [sp, #100]	; 0x64
/rustc/50a0defd5a93523067ef239936cc2e0755220904/src/libcore/result.rs:999
  1e:	9818      	ldr	r0, [sp, #96]	; 0x60
/rustc/50a0defd5a93523067ef239936cc2e0755220904/src/libcore/macros.rs:18
  20:	f240 0100 	movw	r1, #0
  24:	f2c0 0100 	movt	r1, #0
  28:	9308      	str	r3, [sp, #32]
  2a:	f8cd c01c 	str.w	ip, [sp, #28]
  2e:	f8cd e018 	str.w	lr, [sp, #24]
  32:	f7ff fffe 	bl	0 <_ZN4core3fmt10ArgumentV13new17h05d4954a4919dcdbE>
  36:	9005      	str	r0, [sp, #20]
  38:	9104      	str	r1, [sp, #16]
  3a:	e7ff      	b.n	3c <_ZN4core6result13unwrap_failed17h07a2116b0728a952E+0x3c>
/rustc/50a0defd5a93523067ef239936cc2e0755220904/src/libcore/result.rs:999
  3c:	9819      	ldr	r0, [sp, #100]	; 0x64
/rustc/50a0defd5a93523067ef239936cc2e0755220904/src/libcore/macros.rs:18
  3e:	f240 0100 	movw	r1, #0
  42:	f2c0 0100 	movt	r1, #0
  46:	f7ff fffe 	bl	0 <_ZN4core3fmt10ArgumentV13new17h47ed94b94e242b01E>
  4a:	9003      	str	r0, [sp, #12]
  4c:	9102      	str	r1, [sp, #8]
  4e:	e7ff      	b.n	50 <_ZN4core6result13unwrap_failed17h07a2116b0728a952E+0x50>
/rustc/50a0defd5a93523067ef239936cc2e0755220904/src/libcore/result.rs:999
  50:	9805      	ldr	r0, [sp, #20]
  52:	9012      	str	r0, [sp, #72]	; 0x48
  54:	9904      	ldr	r1, [sp, #16]
  56:	9113      	str	r1, [sp, #76]	; 0x4c
  58:	9a03      	ldr	r2, [sp, #12]
  5a:	9214      	str	r2, [sp, #80]	; 0x50
  5c:	9b02      	ldr	r3, [sp, #8]
  5e:	9315      	str	r3, [sp, #84]	; 0x54
/rustc/50a0defd5a93523067ef239936cc2e0755220904/src/libcore/macros.rs:18
  60:	46ec      	mov	ip, sp
  62:	f04f 0e02 	mov.w	lr, #2
  66:	f8cc e000 	str.w	lr, [ip]
  6a:	f240 0100 	movw	r1, #0
  6e:	f2c0 0100 	movt	r1, #0
  72:	a80c      	add	r0, sp, #48	; 0x30
  74:	ab12      	add	r3, sp, #72	; 0x48
  76:	4672      	mov	r2, lr
  78:	f7ff fffe 	bl	0 <_ZN4core3fmt9Arguments6new_v117h0330c13173882f69E>
  7c:	e7ff      	b.n	2 <_ZN4core6result13unwrap_failed17h07a2116b0728a952E+0x2>
  7e:	f240 0100 	movw	r1, #0
  82:	f2c0 0100 	movt	r1, #0
  86:	a80c      	add	r0, sp, #48	; 0x30
  88:	f7ff fffe 	bl	0 <_ZN4core9panicking9panic_fmt17h6b4d8e87b0965449E>
  8c:	defe      	udf	#254	; 0xfe

Disassembly of section .text._ZN4core6result19Result$LT$T$C$E$GT$6expect17hf656a3fd5c2cb345E:

00000000 <_ZN4core6result19Result$LT$T$C$E$GT$6expect17hf656a3fd5c2cb345E>:
_ZN4core6result19Result$LT$T$C$E$GT$6expect17hf656a3fd5c2cb345E():
/rustc/50a0defd5a93523067ef239936cc2e0755220904/src/libcore/result.rs:824
   0:	b5b0      	push	{r4, r5, r7, lr}
   2:	b08c      	sub	sp, #48	; 0x30
   4:	469c      	mov	ip, r3
   6:	4696      	mov	lr, r2
   8:	460c      	mov	r4, r1
   a:	4605      	mov	r5, r0
   c:	9006      	str	r0, [sp, #24]
   e:	9107      	str	r1, [sp, #28]
  10:	9208      	str	r2, [sp, #32]
  12:	9309      	str	r3, [sp, #36]	; 0x24
/rustc/50a0defd5a93523067ef239936cc2e0755220904/src/libcore/result.rs:826
  14:	9806      	ldr	r0, [sp, #24]
  16:	2800      	cmp	r0, #0
  18:	f8cd c014 	str.w	ip, [sp, #20]
  1c:	f8cd e010 	str.w	lr, [sp, #16]
  20:	9403      	str	r4, [sp, #12]
  22:	9502      	str	r5, [sp, #8]
  24:	9001      	str	r0, [sp, #4]
  26:	d005      	beq.n	34 <_ZN4core6result19Result$LT$T$C$E$GT$6expect17hf656a3fd5c2cb345E+0x34>
  28:	e7ff      	b.n	2a <_ZN4core6result19Result$LT$T$C$E$GT$6expect17hf656a3fd5c2cb345E+0x2a>
  2a:	9801      	ldr	r0, [sp, #4]
  2c:	2801      	cmp	r0, #1
  2e:	d005      	beq.n	3c <_ZN4core6result19Result$LT$T$C$E$GT$6expect17hf656a3fd5c2cb345E+0x3c>
  30:	e7ff      	b.n	32 <_ZN4core6result19Result$LT$T$C$E$GT$6expect17hf656a3fd5c2cb345E+0x32>
/rustc/50a0defd5a93523067ef239936cc2e0755220904/src/libcore/result.rs:829
  32:	defe      	udf	#254	; 0xfe
  34:	9806      	ldr	r0, [sp, #24]
  36:	2800      	cmp	r0, #0
  38:	d008      	beq.n	4c <_ZN4core6result19Result$LT$T$C$E$GT$6expect17hf656a3fd5c2cb345E+0x4c>
  3a:	e009      	b.n	50 <_ZN4core6result19Result$LT$T$C$E$GT$6expect17hf656a3fd5c2cb345E+0x50>
/rustc/50a0defd5a93523067ef239936cc2e0755220904/src/libcore/result.rs:827
  3c:	9807      	ldr	r0, [sp, #28]
  3e:	900b      	str	r0, [sp, #44]	; 0x2c
  40:	9808      	ldr	r0, [sp, #32]
  42:	9909      	ldr	r1, [sp, #36]	; 0x24
  44:	9a0b      	ldr	r2, [sp, #44]	; 0x2c
  46:	f7ff fffe 	bl	0 <_ZN4core6result19Result$LT$T$C$E$GT$6expect17hf656a3fd5c2cb345E>
  4a:	defe      	udf	#254	; 0xfe
/rustc/50a0defd5a93523067ef239936cc2e0755220904/src/libcore/result.rs:829
  4c:	b00c      	add	sp, #48	; 0x30
  4e:	bdb0      	pop	{r4, r5, r7, pc}
  50:	e7fc      	b.n	4c <_ZN4core6result19Result$LT$T$C$E$GT$6expect17hf656a3fd5c2cb345E+0x4c>

mylib-ac95891f38e7979c.gcju3pv69tspa4b.rcgu.o:     file format elf32-littlearm

SYMBOL TABLE:
00000000 l    df *ABS*	00000000 gcju3pv69tspa4b
00000000 l       .debug_str	00000000 
00000041 l       .debug_str	00000000 
0000004c l       .debug_str	00000000 
0000006f l       .debug_str	00000000 
00000076 l       .debug_str	00000000 
0000007b l       .debug_str	00000000 
00000082 l       .debug_str	00000000 
00000086 l       .debug_str	00000000 
0000008b l       .debug_str	00000000 
00000091 l       .debug_str	00000000 
00000097 l       .debug_str	00000000 
000000a0 l       .debug_str	00000000 
000000a4 l       .debug_str	00000000 
000000aa l       .debug_str	00000000 
000000af l       .debug_str	00000000 
000000b2 l       .debug_str	00000000 
000000ba l       .debug_str	00000000 
00000104 l       .debug_str	00000000 
00000106 l       .debug_str	00000000 
0000010b l       .debug_str	00000000 
0000010f l       .debug_str	00000000 
00000161 l       .debug_str	00000000 
0000016e l       .debug_str	00000000 
00000193 l       .debug_str	00000000 
00000198 l       .debug_str	00000000 
000001b3 l       .debug_str	00000000 
000001bd l       .debug_str	00000000 
00000209 l       .debug_str	00000000 
0000025d l       .debug_str	00000000 
000002c0 l       .debug_str	00000000 
00000321 l       .debug_str	00000000 
00000347 l       .debug_str	00000000 
0000034b l       .debug_str	00000000 
00000359 l       .debug_str	00000000 
0000036d l       .debug_str	00000000 
00000397 l       .debug_str	00000000 
000003ee l       .debug_str	00000000 
0000044d l       .debug_str	00000000 
000004bb l       .debug_str	00000000 
000004c0 l       .debug_str	00000000 
000004c4 l       .debug_str	00000000 
000004cf l       .debug_str	00000000 
000004da l       .debug_str	00000000 
000004e1 l       .debug_str	00000000 
000004f8 l       .debug_str	00000000 
00000510 l       .debug_str	00000000 
00000517 l       .debug_str	00000000 
00000542 l       .debug_str	00000000 
00000547 l       .debug_str	00000000 
0000054d l       .debug_str	00000000 
00000551 l       .debug_str	00000000 
0000059d l       .debug_str	00000000 
000005f1 l       .debug_str	00000000 
000005f7 l       .debug_str	00000000 
00000643 l       .debug_str	00000000 
00000697 l       .debug_str	00000000 
0000069d l       .debug_str	00000000 
000006a1 l       .debug_str	00000000 
000006ed l       .debug_str	00000000 
00000741 l       .debug_str	00000000 
00000745 l       .debug_str	00000000 
000007a3 l       .debug_str	00000000 
00000809 l       .debug_str	00000000 
0000080d l       .debug_str	00000000 
0000081a l       .debug_str	00000000 
0000082e l       .debug_str	00000000 
00000858 l       .debug_str	00000000 
000008a3 l       .debug_str	00000000 
000008f6 l       .debug_str	00000000 
00000958 l       .debug_str	00000000 
000009bb l       .debug_str	00000000 
00000a1e l       .debug_str	00000000 
00000a81 l       .debug_str	00000000 
00000af6 l       .debug_str	00000000 
00000b21 l       .debug_str	00000000 
00000b23 l       .debug_str	00000000 
00000b27 l       .debug_str	00000000 
00000b2d l       .debug_str	00000000 
00000b38 l       .debug_str	00000000 
00000b5b l       .debug_str	00000000 
00000b7f l       .debug_str	00000000 
00000b84 l       .debug_str	00000000 
00000b89 l       .debug_str	00000000 
00000b8d l       .debug_str	00000000 
00000b94 l       .debug_str	00000000 
00000b97 l       .debug_str	00000000 
00000b9b l       .debug_str	00000000 
00000ba2 l       .debug_str	00000000 
00000ba6 l       .debug_str	00000000 
00000ba9 l       .debug_str	00000000 
00000bac l       .debug_str	00000000 
00000bb1 l       .debug_str	00000000 
00000bb7 l       .debug_str	00000000 
00000bbe l       .debug_str	00000000 
00000bc6 l       .debug_str	00000000 
00000bd0 l       .debug_str	00000000 
00000bd9 l       .debug_str	00000000 
00000c39 l       .debug_str	00000000 
00000c91 l       .debug_str	00000000 
00000cf8 l       .debug_str	00000000 
00000d56 l       .debug_str	00000000 
00000db5 l       .debug_str	00000000 
00000e1c l       .debug_str	00000000 
00000e7a l       .debug_str	00000000 
00000ed7 l       .debug_str	00000000 
00000edc l       .debug_str	00000000 
00000efb l       .debug_str	00000000 
00000efd l       .debug_str	00000000 
00000f02 l       .debug_str	00000000 
00000f07 l       .debug_str	00000000 
00000f0d l       .debug_str	00000000 
00000f13 l       .debug_str	00000000 
00000f21 l       .debug_str	00000000 
00000f2b l       .debug_str	00000000 
00000f2f l       .debug_str	00000000 
00000f37 l       .debug_str	00000000 
00000f4b l       .debug_str	00000000 
00000f57 l       .debug_str	00000000 
00000f62 l       .debug_str	00000000 
00000f69 l       .debug_str	00000000 
00000f6f l       .debug_str	00000000 
00000f73 l       .debug_str	00000000 
00000f79 l       .debug_str	00000000 
00000f7f l       .debug_str	00000000 
00000f82 l       .debug_str	00000000 
00000f91 l       .debug_str	00000000 
00000f98 l       .debug_str	00000000 
00000f9c l       .debug_str	00000000 
00000fa5 l       .debug_str	00000000 
00000fb1 l       .debug_str	00000000 
00000fca l       .debug_str	00000000 
00000fcf l       .debug_str	00000000 
00000fe0 l       .debug_str	00000000 
00000fea l       .debug_str	00000000 
00001048 l       .debug_str	00000000 
00001053 l       .debug_str	00000000 
00001070 l       .debug_str	00000000 
00001078 l       .debug_str	00000000 
0000108f l       .debug_str	00000000 
000010b3 l       .debug_str	00000000 
000010cf l       .debug_str	00000000 
000010d4 l       .debug_str	00000000 
000010dd l       .debug_str	00000000 
000010e4 l       .debug_str	00000000 
000010fd l       .debug_str	00000000 
00001107 l       .debug_str	00000000 
00001121 l       .debug_str	00000000 
0000112c l       .debug_str	00000000 
00001137 l       .debug_str	00000000 
0000114b l       .debug_str	00000000 
00001154 l       .debug_str	00000000 
0000115f l       .debug_str	00000000 
00001164 l       .debug_str	00000000 
00001170 l       .debug_str	00000000 
00001187 l       .debug_str	00000000 
000011ad l       .debug_str	00000000 
000011b6 l       .debug_str	00000000 
000011be l       .debug_str	00000000 
000011c9 l       .debug_str	00000000 
000011e6 l       .debug_str	00000000 
000011ed l       .debug_str	00000000 
000011f8 l       .debug_str	00000000 
000011fe l       .debug_str	00000000 
0000120a l       .debug_str	00000000 
00001228 l       .debug_str	00000000 
00001233 l       .debug_str	00000000 
0000123e l       .debug_str	00000000 
00001264 l       .debug_str	00000000 
0000126f l       .debug_str	00000000 
0000127a l       .debug_str	00000000 
00001285 l       .debug_str	00000000 
000012a2 l       .debug_str	00000000 
000012a9 l       .debug_str	00000000 
000012b0 l       .debug_str	00000000 
000012ba l       .debug_str	00000000 
000012c0 l       .debug_str	00000000 
000012c6 l       .debug_str	00000000 
000012d0 l       .debug_str	00000000 
00000000 l     O .rodata..Lanon.a694c1e5c2418bb52117590b71727e20.0	0000000c .Lanon.a694c1e5c2418bb52117590b71727e20.0
00000000 l     O .rodata..Lanon.a694c1e5c2418bb52117590b71727e20.1	00000005 .Lanon.a694c1e5c2418bb52117590b71727e20.1
00000000 l     O .rodata..Lanon.a694c1e5c2418bb52117590b71727e20.10	0000000d .Lanon.a694c1e5c2418bb52117590b71727e20.10
00000000 l     O .rodata..Lanon.a694c1e5c2418bb52117590b71727e20.11	00000010 .Lanon.a694c1e5c2418bb52117590b71727e20.11
00000000 l     O .rodata..Lanon.a694c1e5c2418bb52117590b71727e20.12	0000000a .Lanon.a694c1e5c2418bb52117590b71727e20.12
00000000 l     O .rodata.cst8	00000008 .Lanon.a694c1e5c2418bb52117590b71727e20.13
00000000 l     O .rodata..Lanon.a694c1e5c2418bb52117590b71727e20.14	00000010 .Lanon.a694c1e5c2418bb52117590b71727e20.14
00000000 l     O .rodata..Lanon.a694c1e5c2418bb52117590b71727e20.15	00000007 .Lanon.a694c1e5c2418bb52117590b71727e20.15
00000000 l     O .rodata..Lanon.a694c1e5c2418bb52117590b71727e20.16	00000010 .Lanon.a694c1e5c2418bb52117590b71727e20.16
00000000 l     O .rodata..Lanon.a694c1e5c2418bb52117590b71727e20.17	0000000b .Lanon.a694c1e5c2418bb52117590b71727e20.17
00000000 l     O .rodata..Lanon.a694c1e5c2418bb52117590b71727e20.18	00000006 .Lanon.a694c1e5c2418bb52117590b71727e20.18
00000000 l     O .rodata..Lanon.a694c1e5c2418bb52117590b71727e20.19	00000010 .Lanon.a694c1e5c2418bb52117590b71727e20.19
00000000 l     O .rodata..Lanon.a694c1e5c2418bb52117590b71727e20.2	00000010 .Lanon.a694c1e5c2418bb52117590b71727e20.2
00000000 l     O .rodata..Lanon.a694c1e5c2418bb52117590b71727e20.20	0000000a .Lanon.a694c1e5c2418bb52117590b71727e20.20
00000000 l     O .rodata..Lanon.a694c1e5c2418bb52117590b71727e20.21	00000005 .Lanon.a694c1e5c2418bb52117590b71727e20.21
00000000 l     O .rodata..Lanon.a694c1e5c2418bb52117590b71727e20.22	00000005 .Lanon.a694c1e5c2418bb52117590b71727e20.22
00000000 l     O .rodata..Lanon.a694c1e5c2418bb52117590b71727e20.23	00000013 .Lanon.a694c1e5c2418bb52117590b71727e20.23
00000008 l     O .rodata.cst4	00000004 .Lanon.a694c1e5c2418bb52117590b71727e20.24
00000000 l     O .rodata..Lanon.a694c1e5c2418bb52117590b71727e20.25	00000010 .Lanon.a694c1e5c2418bb52117590b71727e20.25
00000000 l     O .rodata..Lanon.a694c1e5c2418bb52117590b71727e20.26	00000005 .Lanon.a694c1e5c2418bb52117590b71727e20.26
00000000 l     O .rodata..Lanon.a694c1e5c2418bb52117590b71727e20.27	00000010 .Lanon.a694c1e5c2418bb52117590b71727e20.27
00000000 l     O .rodata..Lanon.a694c1e5c2418bb52117590b71727e20.28	00000005 .Lanon.a694c1e5c2418bb52117590b71727e20.28
00000000 l     O .rodata..Lanon.a694c1e5c2418bb52117590b71727e20.29	00000010 .Lanon.a694c1e5c2418bb52117590b71727e20.29
00000000 l     O .rodata.cst4	00000004 .Lanon.a694c1e5c2418bb52117590b71727e20.3
00000000 l     O .rodata..Lanon.a694c1e5c2418bb52117590b71727e20.30	00000005 .Lanon.a694c1e5c2418bb52117590b71727e20.30
00000000 l     O .rodata..Lanon.a694c1e5c2418bb52117590b71727e20.31	00000010 .Lanon.a694c1e5c2418bb52117590b71727e20.31
00000000 l     O .rodata..Lanon.a694c1e5c2418bb52117590b71727e20.32	00000003 .Lanon.a694c1e5c2418bb52117590b71727e20.32
00000000 l     O .rodata..Lanon.a694c1e5c2418bb52117590b71727e20.33	00000010 .Lanon.a694c1e5c2418bb52117590b71727e20.33
00000000 l     O .rodata..Lanon.a694c1e5c2418bb52117590b71727e20.34	00000003 .Lanon.a694c1e5c2418bb52117590b71727e20.34
00000000 l     O .rodata..Lanon.a694c1e5c2418bb52117590b71727e20.35	0000000c .Lanon.a694c1e5c2418bb52117590b71727e20.35
00000000 l     O .rodata..Lanon.a694c1e5c2418bb52117590b71727e20.36	0000000a .Lanon.a694c1e5c2418bb52117590b71727e20.36
00000000 l     O .rodata..Lanon.a694c1e5c2418bb52117590b71727e20.37	00000001 .Lanon.a694c1e5c2418bb52117590b71727e20.37
00000000 l     O .rodata..Lanon.a694c1e5c2418bb52117590b71727e20.38	00000010 .Lanon.a694c1e5c2418bb52117590b71727e20.38
00000000 l     O .rodata..Lanon.a694c1e5c2418bb52117590b71727e20.39	00000003 .Lanon.a694c1e5c2418bb52117590b71727e20.39
00000000 l     O .rodata..Lanon.a694c1e5c2418bb52117590b71727e20.4	00000010 .Lanon.a694c1e5c2418bb52117590b71727e20.4
00000000 l     O .rodata..Lanon.a694c1e5c2418bb52117590b71727e20.40	00000009 .Lanon.a694c1e5c2418bb52117590b71727e20.40
00000000 l     O .rodata..Lanon.a694c1e5c2418bb52117590b71727e20.41	00000006 .Lanon.a694c1e5c2418bb52117590b71727e20.41
00000000 l     O .rodata..Lanon.a694c1e5c2418bb52117590b71727e20.42	00000010 .Lanon.a694c1e5c2418bb52117590b71727e20.42
00000000 l     O .rodata..Lanon.a694c1e5c2418bb52117590b71727e20.43	00000006 .Lanon.a694c1e5c2418bb52117590b71727e20.43
00000000 l     O .rodata..Lanon.a694c1e5c2418bb52117590b71727e20.44	00000009 .Lanon.a694c1e5c2418bb52117590b71727e20.44
00000000 l     O .rodata..Lanon.a694c1e5c2418bb52117590b71727e20.45	00000010 .Lanon.a694c1e5c2418bb52117590b71727e20.45
00000000 l     O .rodata..Lanon.a694c1e5c2418bb52117590b71727e20.46	00000005 .Lanon.a694c1e5c2418bb52117590b71727e20.46
00000000 l     O .rodata..Lanon.a694c1e5c2418bb52117590b71727e20.47	00000010 .Lanon.a694c1e5c2418bb52117590b71727e20.47
00000000 l     O .rodata..Lanon.a694c1e5c2418bb52117590b71727e20.48	00000005 .Lanon.a694c1e5c2418bb52117590b71727e20.48
00000000 l     O .rodata..Lanon.a694c1e5c2418bb52117590b71727e20.49	00000010 .Lanon.a694c1e5c2418bb52117590b71727e20.49
00000004 l     O .rodata.cst4	00000004 .Lanon.a694c1e5c2418bb52117590b71727e20.5
00000000 l     O .rodata..Lanon.a694c1e5c2418bb52117590b71727e20.6	00000003 .Lanon.a694c1e5c2418bb52117590b71727e20.6
00000000 l     O .rodata..Lanon.a694c1e5c2418bb52117590b71727e20.7	00000010 .Lanon.a694c1e5c2418bb52117590b71727e20.7
00000000 l     O .rodata..Lanon.a694c1e5c2418bb52117590b71727e20.8	00000013 .Lanon.a694c1e5c2418bb52117590b71727e20.8
00000000 l     O .rodata..Lanon.a694c1e5c2418bb52117590b71727e20.9	00000010 .Lanon.a694c1e5c2418bb52117590b71727e20.9
00000000 l    d  .text._ZN66_$LT$mylib..tinycbor..File_methods$u20$as$u20$core..fmt..Debug$GT$3fmt17h844c3d71d6c74a1fE	00000000 .text._ZN66_$LT$mylib..tinycbor..File_methods$u20$as$u20$core..fmt..Debug$GT$3fmt17h844c3d71d6c74a1fE
00000000 l    d  .text._ZN58_$LT$mylib..tinycbor..File$u20$as$u20$core..fmt..Debug$GT$3fmt17h1cbebfe927020b7cE	00000000 .text._ZN58_$LT$mylib..tinycbor..File$u20$as$u20$core..fmt..Debug$GT$3fmt17h1cbebfe927020b7cE
00000000 l    d  .text._ZN73_$LT$mylib..tinycbor..cbor_encoder_writer$u20$as$u20$core..fmt..Debug$GT$3fmt17h557f39fe1371daecE	00000000 .text._ZN73_$LT$mylib..tinycbor..cbor_encoder_writer$u20$as$u20$core..fmt..Debug$GT$3fmt17h557f39fe1371daecE
00000000 l    d  .text._ZN64_$LT$mylib..tinycbor..cbor_iovec$u20$as$u20$core..fmt..Debug$GT$3fmt17h61599b3d6e089277E	00000000 .text._ZN64_$LT$mylib..tinycbor..cbor_iovec$u20$as$u20$core..fmt..Debug$GT$3fmt17h61599b3d6e089277E
00000000 l    d  .text._ZN65_$LT$mylib..tinycbor..CborEncoder$u20$as$u20$core..fmt..Debug$GT$3fmt17h52bf0bb1c234ff47E	00000000 .text._ZN65_$LT$mylib..tinycbor..CborEncoder$u20$as$u20$core..fmt..Debug$GT$3fmt17h52bf0bb1c234ff47E
00000000 l    d  .text._ZN73_$LT$mylib..tinycbor..cbor_decoder_reader$u20$as$u20$core..fmt..Debug$GT$3fmt17hd7a8cf6c110693f1E	00000000 .text._ZN73_$LT$mylib..tinycbor..cbor_decoder_reader$u20$as$u20$core..fmt..Debug$GT$3fmt17hd7a8cf6c110693f1E
00000000 l    d  .text._ZN64_$LT$mylib..tinycbor..CborParser$u20$as$u20$core..fmt..Debug$GT$3fmt17hece4bef81a844276E	00000000 .text._ZN64_$LT$mylib..tinycbor..CborParser$u20$as$u20$core..fmt..Debug$GT$3fmt17hece4bef81a844276E
00000000 l    d  .text._ZN63_$LT$mylib..tinycbor..CborValue$u20$as$u20$core..fmt..Debug$GT$3fmt17h0ec67933be14bb89E	00000000 .text._ZN63_$LT$mylib..tinycbor..CborValue$u20$as$u20$core..fmt..Debug$GT$3fmt17h0ec67933be14bb89E
00000000 l    d  .rodata..Lanon.a694c1e5c2418bb52117590b71727e20.2	00000000 .rodata..Lanon.a694c1e5c2418bb52117590b71727e20.2
00000000 l    d  .rodata..Lanon.a694c1e5c2418bb52117590b71727e20.4	00000000 .rodata..Lanon.a694c1e5c2418bb52117590b71727e20.4
00000000 l    d  .rodata..Lanon.a694c1e5c2418bb52117590b71727e20.7	00000000 .rodata..Lanon.a694c1e5c2418bb52117590b71727e20.7
00000000 l    d  .rodata..Lanon.a694c1e5c2418bb52117590b71727e20.9	00000000 .rodata..Lanon.a694c1e5c2418bb52117590b71727e20.9
00000000 l    d  .rodata..Lanon.a694c1e5c2418bb52117590b71727e20.11	00000000 .rodata..Lanon.a694c1e5c2418bb52117590b71727e20.11
00000000 l    d  .rodata..Lanon.a694c1e5c2418bb52117590b71727e20.14	00000000 .rodata..Lanon.a694c1e5c2418bb52117590b71727e20.14
00000000 l    d  .rodata..Lanon.a694c1e5c2418bb52117590b71727e20.16	00000000 .rodata..Lanon.a694c1e5c2418bb52117590b71727e20.16
00000000 l    d  .rodata..Lanon.a694c1e5c2418bb52117590b71727e20.19	00000000 .rodata..Lanon.a694c1e5c2418bb52117590b71727e20.19
00000000 l    d  .rodata..Lanon.a694c1e5c2418bb52117590b71727e20.25	00000000 .rodata..Lanon.a694c1e5c2418bb52117590b71727e20.25
00000000 l    d  .rodata..Lanon.a694c1e5c2418bb52117590b71727e20.27	00000000 .rodata..Lanon.a694c1e5c2418bb52117590b71727e20.27
00000000 l    d  .rodata..Lanon.a694c1e5c2418bb52117590b71727e20.29	00000000 .rodata..Lanon.a694c1e5c2418bb52117590b71727e20.29
00000000 l    d  .rodata..Lanon.a694c1e5c2418bb52117590b71727e20.31	00000000 .rodata..Lanon.a694c1e5c2418bb52117590b71727e20.31
00000000 l    d  .rodata..Lanon.a694c1e5c2418bb52117590b71727e20.33	00000000 .rodata..Lanon.a694c1e5c2418bb52117590b71727e20.33
00000000 l    d  .rodata..Lanon.a694c1e5c2418bb52117590b71727e20.38	00000000 .rodata..Lanon.a694c1e5c2418bb52117590b71727e20.38
00000000 l    d  .rodata..Lanon.a694c1e5c2418bb52117590b71727e20.42	00000000 .rodata..Lanon.a694c1e5c2418bb52117590b71727e20.42
00000000 l    d  .rodata..Lanon.a694c1e5c2418bb52117590b71727e20.45	00000000 .rodata..Lanon.a694c1e5c2418bb52117590b71727e20.45
00000000 l    d  .rodata..Lanon.a694c1e5c2418bb52117590b71727e20.47	00000000 .rodata..Lanon.a694c1e5c2418bb52117590b71727e20.47
00000000 l    d  .rodata..Lanon.a694c1e5c2418bb52117590b71727e20.49	00000000 .rodata..Lanon.a694c1e5c2418bb52117590b71727e20.49
00000000 l    d  .debug_abbrev	00000000 .debug_abbrev
00000000 l    d  .debug_info	00000000 .debug_info
00000000 l    d  .debug_ranges	00000000 .debug_ranges
00000000 l    d  .debug_frame	00000000 .debug_frame
00000000 l    d  .debug_line	00000000 .debug_line
00000000         *UND*	00000000 _ZN42_$LT$$RF$T$u20$as$u20$core..fmt..Debug$GT$3fmt17h0aaf8bc5a80c634eE
00000000         *UND*	00000000 _ZN42_$LT$$RF$T$u20$as$u20$core..fmt..Debug$GT$3fmt17h0c004dc6f6942d42E
00000000         *UND*	00000000 _ZN42_$LT$$RF$T$u20$as$u20$core..fmt..Debug$GT$3fmt17h0c21683c9d2bfeceE
00000000         *UND*	00000000 _ZN42_$LT$$RF$T$u20$as$u20$core..fmt..Debug$GT$3fmt17h0d69a509753a09feE
00000000         *UND*	00000000 _ZN42_$LT$$RF$T$u20$as$u20$core..fmt..Debug$GT$3fmt17h1c0d5056315a9ef1E
00000000         *UND*	00000000 _ZN42_$LT$$RF$T$u20$as$u20$core..fmt..Debug$GT$3fmt17h25a26d7d48aac3b9E
00000000         *UND*	00000000 _ZN42_$LT$$RF$T$u20$as$u20$core..fmt..Debug$GT$3fmt17h5fd6263074f64a99E
00000000         *UND*	00000000 _ZN42_$LT$$RF$T$u20$as$u20$core..fmt..Debug$GT$3fmt17h65d69163f64827d9E
00000000         *UND*	00000000 _ZN42_$LT$$RF$T$u20$as$u20$core..fmt..Debug$GT$3fmt17h6b54cd33c0767134E
00000000         *UND*	00000000 _ZN42_$LT$$RF$T$u20$as$u20$core..fmt..Debug$GT$3fmt17had08eee5cd3e65a1E
00000000         *UND*	00000000 _ZN42_$LT$$RF$T$u20$as$u20$core..fmt..Debug$GT$3fmt17hb35d5ed52829ed06E
00000000         *UND*	00000000 _ZN42_$LT$$RF$T$u20$as$u20$core..fmt..Debug$GT$3fmt17hb64caf74c2703e58E
00000000         *UND*	00000000 _ZN42_$LT$$RF$T$u20$as$u20$core..fmt..Debug$GT$3fmt17hbbefcd5b92fb4f18E
00000000         *UND*	00000000 _ZN42_$LT$$RF$T$u20$as$u20$core..fmt..Debug$GT$3fmt17hbe7cc89162865c70E
00000000         *UND*	00000000 _ZN42_$LT$$RF$T$u20$as$u20$core..fmt..Debug$GT$3fmt17hbefdaa3577e13c01E
00000000         *UND*	00000000 _ZN42_$LT$$RF$T$u20$as$u20$core..fmt..Debug$GT$3fmt17hc404d29df2076a85E
00000000         *UND*	00000000 _ZN42_$LT$$RF$T$u20$as$u20$core..fmt..Debug$GT$3fmt17hdf94cee545ddf2f8E
00000000         *UND*	00000000 _ZN42_$LT$$RF$T$u20$as$u20$core..fmt..Debug$GT$3fmt17hf576125482bddf7eE
00000000         *UND*	00000000 _ZN4core3fmt8builders11DebugStruct5field17h80023aaf54882542E
00000000         *UND*	00000000 _ZN4core3fmt8builders11DebugStruct6finish17h9090cd1e84004b71E
00000000         *UND*	00000000 _ZN4core3fmt9Formatter12debug_struct17h0a14031b095ee1baE
00000000         *UND*	00000000 _ZN4core3ptr18real_drop_in_place17h0285661cd8494b3dE
00000000         *UND*	00000000 _ZN4core3ptr18real_drop_in_place17h1adc7f7cf1df91faE
00000000         *UND*	00000000 _ZN4core3ptr18real_drop_in_place17h3b010a68f03e03cdE
00000000         *UND*	00000000 _ZN4core3ptr18real_drop_in_place17h42fdf29cfa820390E
00000000         *UND*	00000000 _ZN4core3ptr18real_drop_in_place17h46ca4abbb733be64E
00000000         *UND*	00000000 _ZN4core3ptr18real_drop_in_place17h4bd640a3fdd6fcf1E
00000000         *UND*	00000000 _ZN4core3ptr18real_drop_in_place17h5c15b3724bec36b8E
00000000         *UND*	00000000 _ZN4core3ptr18real_drop_in_place17h61db2cd4896a85e8E
00000000         *UND*	00000000 _ZN4core3ptr18real_drop_in_place17h71a61f5e0b16a079E
00000000         *UND*	00000000 _ZN4core3ptr18real_drop_in_place17h8ddb29269eb05c35E
00000000         *UND*	00000000 _ZN4core3ptr18real_drop_in_place17hc070d4c0ef8e4115E
00000000         *UND*	00000000 _ZN4core3ptr18real_drop_in_place17hc123564ae3ed8ebbE
00000000         *UND*	00000000 _ZN4core3ptr18real_drop_in_place17hc1acff2a2e48bd0eE
00000000         *UND*	00000000 _ZN4core3ptr18real_drop_in_place17hc5bc1010c39885c2E
00000000         *UND*	00000000 _ZN4core3ptr18real_drop_in_place17hd87e1c6e9d133217E
00000000         *UND*	00000000 _ZN4core3ptr18real_drop_in_place17hecfa67c2b9b43a2dE
00000000         *UND*	00000000 _ZN4core3ptr18real_drop_in_place17hf97dacca302dcbe8E
00000000         *UND*	00000000 _ZN4core3ptr18real_drop_in_place17hfa44ccca2c7602daE
00000000 g     F .text._ZN58_$LT$mylib..tinycbor..File$u20$as$u20$core..fmt..Debug$GT$3fmt17h1cbebfe927020b7cE	00000072 _ZN58_$LT$mylib..tinycbor..File$u20$as$u20$core..fmt..Debug$GT$3fmt17h1cbebfe927020b7cE
00000000 g     F .text._ZN63_$LT$mylib..tinycbor..CborValue$u20$as$u20$core..fmt..Debug$GT$3fmt17h0ec67933be14bb89E	0000014e _ZN63_$LT$mylib..tinycbor..CborValue$u20$as$u20$core..fmt..Debug$GT$3fmt17h0ec67933be14bb89E
00000000 g     F .text._ZN64_$LT$mylib..tinycbor..CborParser$u20$as$u20$core..fmt..Debug$GT$3fmt17hece4bef81a844276E	000000ca _ZN64_$LT$mylib..tinycbor..CborParser$u20$as$u20$core..fmt..Debug$GT$3fmt17hece4bef81a844276E
00000000 g     F .text._ZN64_$LT$mylib..tinycbor..cbor_iovec$u20$as$u20$core..fmt..Debug$GT$3fmt17h61599b3d6e089277E	0000009e _ZN64_$LT$mylib..tinycbor..cbor_iovec$u20$as$u20$core..fmt..Debug$GT$3fmt17h61599b3d6e089277E
00000000 g     F .text._ZN65_$LT$mylib..tinycbor..CborEncoder$u20$as$u20$core..fmt..Debug$GT$3fmt17h52bf0bb1c234ff47E	000000f6 _ZN65_$LT$mylib..tinycbor..CborEncoder$u20$as$u20$core..fmt..Debug$GT$3fmt17h52bf0bb1c234ff47E
00000000 g     F .text._ZN66_$LT$mylib..tinycbor..File_methods$u20$as$u20$core..fmt..Debug$GT$3fmt17h844c3d71d6c74a1fE	0000009e _ZN66_$LT$mylib..tinycbor..File_methods$u20$as$u20$core..fmt..Debug$GT$3fmt17h844c3d71d6c74a1fE
00000000 g     F .text._ZN73_$LT$mylib..tinycbor..cbor_decoder_reader$u20$as$u20$core..fmt..Debug$GT$3fmt17hd7a8cf6c110693f1E	0000017a _ZN73_$LT$mylib..tinycbor..cbor_decoder_reader$u20$as$u20$core..fmt..Debug$GT$3fmt17hd7a8cf6c110693f1E
00000000 g     F .text._ZN73_$LT$mylib..tinycbor..cbor_encoder_writer$u20$as$u20$core..fmt..Debug$GT$3fmt17h557f39fe1371daecE	0000009e _ZN73_$LT$mylib..tinycbor..cbor_encoder_writer$u20$as$u20$core..fmt..Debug$GT$3fmt17h557f39fe1371daecE



Disassembly of section .text._ZN66_$LT$mylib..tinycbor..File_methods$u20$as$u20$core..fmt..Debug$GT$3fmt17h844c3d71d6c74a1fE:

00000000 <_ZN66_$LT$mylib..tinycbor..File_methods$u20$as$u20$core..fmt..Debug$GT$3fmt17h844c3d71d6c74a1fE>:
_ZN66_$LT$mylib..tinycbor..File_methods$u20$as$u20$core..fmt..Debug$GT$3fmt17h844c3d71d6c74a1fE():
/mnt/c/stm32bluepill-mynewt-sensor/src/tinycbor.rs:11
pub type __int64_t = ::cty::c_longlong;
pub type __uint64_t = ::cty::c_ulonglong;
pub type __uintptr_t = ::cty::c_uint;
pub type FILE = File;
#[repr(C)]
#[derive(Debug, Copy, Clone)]
   0:	b580      	push	{r7, lr}
   2:	b090      	sub	sp, #64	; 0x40
   4:	460a      	mov	r2, r1
   6:	4603      	mov	r3, r0
   8:	9008      	str	r0, [sp, #32]
   a:	9109      	str	r1, [sp, #36]	; 0x24
/mnt/c/stm32bluepill-mynewt-sensor/src/tinycbor.rs:13
pub struct File_methods {
    pub write: ::core::option::Option<
   c:	9808      	ldr	r0, [sp, #32]
   e:	900a      	str	r0, [sp, #40]	; 0x28
/mnt/c/stm32bluepill-mynewt-sensor/src/tinycbor.rs:16
        unsafe extern "C" fn(instance: *mut FILE, bp: *const ::cty::c_char, n: usize) -> usize,
    >,
    pub read: ::core::option::Option<
  10:	9808      	ldr	r0, [sp, #32]
  12:	3004      	adds	r0, #4
  14:	900b      	str	r0, [sp, #44]	; 0x2c
/mnt/c/stm32bluepill-mynewt-sensor/src/tinycbor.rs:11
#[derive(Debug, Copy, Clone)]
  16:	9909      	ldr	r1, [sp, #36]	; 0x24
  18:	f240 0000 	movw	r0, #0
  1c:	f2c0 0000 	movt	r0, #0
  20:	f10d 0c30 	add.w	ip, sp, #48	; 0x30
  24:	f04f 0e0c 	mov.w	lr, #12
  28:	9007      	str	r0, [sp, #28]
  2a:	4660      	mov	r0, ip
  2c:	f8dd c01c 	ldr.w	ip, [sp, #28]
  30:	9206      	str	r2, [sp, #24]
  32:	4662      	mov	r2, ip
  34:	9305      	str	r3, [sp, #20]
  36:	4673      	mov	r3, lr
  38:	f7ff fffe 	bl	0 <_ZN4core3fmt9Formatter12debug_struct17h0a14031b095ee1baE>
  3c:	e7ff      	b.n	3e <_ZN66_$LT$mylib..tinycbor..File_methods$u20$as$u20$core..fmt..Debug$GT$3fmt17h844c3d71d6c74a1fE+0x3e>
/mnt/c/stm32bluepill-mynewt-sensor/src/tinycbor.rs:13
    pub write: ::core::option::Option<
  3e:	980a      	ldr	r0, [sp, #40]	; 0x28
  40:	900e      	str	r0, [sp, #56]	; 0x38
/mnt/c/stm32bluepill-mynewt-sensor/src/tinycbor.rs:11
#[derive(Debug, Copy, Clone)]
  42:	f240 0000 	movw	r0, #0
  46:	f2c0 0000 	movt	r0, #0
  4a:	4669      	mov	r1, sp
  4c:	6008      	str	r0, [r1, #0]
  4e:	f240 0100 	movw	r1, #0
  52:	f2c0 0100 	movt	r1, #0
  56:	a80c      	add	r0, sp, #48	; 0x30
  58:	2205      	movs	r2, #5
  5a:	ab0e      	add	r3, sp, #56	; 0x38
  5c:	f7ff fffe 	bl	0 <_ZN4core3fmt8builders11DebugStruct5field17h80023aaf54882542E>
  60:	9004      	str	r0, [sp, #16]
  62:	e7ff      	b.n	64 <_ZN66_$LT$mylib..tinycbor..File_methods$u20$as$u20$core..fmt..Debug$GT$3fmt17h844c3d71d6c74a1fE+0x64>
/mnt/c/stm32bluepill-mynewt-sensor/src/tinycbor.rs:16
    pub read: ::core::option::Option<
  64:	980b      	ldr	r0, [sp, #44]	; 0x2c
  66:	900f      	str	r0, [sp, #60]	; 0x3c
/mnt/c/stm32bluepill-mynewt-sensor/src/tinycbor.rs:11
#[derive(Debug, Copy, Clone)]
  68:	f240 0000 	movw	r0, #0
  6c:	f2c0 0000 	movt	r0, #0
  70:	4669      	mov	r1, sp
  72:	6008      	str	r0, [r1, #0]
  74:	f240 0100 	movw	r1, #0
  78:	f2c0 0100 	movt	r1, #0
  7c:	a80c      	add	r0, sp, #48	; 0x30
  7e:	2204      	movs	r2, #4
  80:	ab0f      	add	r3, sp, #60	; 0x3c
  82:	f7ff fffe 	bl	0 <_ZN4core3fmt8builders11DebugStruct5field17h80023aaf54882542E>
  86:	9003      	str	r0, [sp, #12]
  88:	e7ff      	b.n	8a <_ZN66_$LT$mylib..tinycbor..File_methods$u20$as$u20$core..fmt..Debug$GT$3fmt17h844c3d71d6c74a1fE+0x8a>
  8a:	a80c      	add	r0, sp, #48	; 0x30
  8c:	f7ff fffe 	bl	0 <_ZN4core3fmt8builders11DebugStruct6finish17h9090cd1e84004b71E>
  90:	9002      	str	r0, [sp, #8]
  92:	e7ff      	b.n	94 <_ZN66_$LT$mylib..tinycbor..File_methods$u20$as$u20$core..fmt..Debug$GT$3fmt17h844c3d71d6c74a1fE+0x94>
  94:	9802      	ldr	r0, [sp, #8]
  96:	f000 0001 	and.w	r0, r0, #1
  9a:	b010      	add	sp, #64	; 0x40
  9c:	bd80      	pop	{r7, pc}

Disassembly of section .text._ZN58_$LT$mylib..tinycbor..File$u20$as$u20$core..fmt..Debug$GT$3fmt17h1cbebfe927020b7cE:

00000000 <_ZN58_$LT$mylib..tinycbor..File$u20$as$u20$core..fmt..Debug$GT$3fmt17h1cbebfe927020b7cE>:
_ZN58_$LT$mylib..tinycbor..File$u20$as$u20$core..fmt..Debug$GT$3fmt17h1cbebfe927020b7cE():
/mnt/c/stm32bluepill-mynewt-sensor/src/tinycbor.rs:54
            stringify!(read)
        )
    );
}
#[repr(C)]
#[derive(Debug, Copy, Clone)]
   0:	b580      	push	{r7, lr}
   2:	b08c      	sub	sp, #48	; 0x30
   4:	460a      	mov	r2, r1
   6:	4603      	mov	r3, r0
   8:	9006      	str	r0, [sp, #24]
   a:	9107      	str	r1, [sp, #28]
/mnt/c/stm32bluepill-mynewt-sensor/src/tinycbor.rs:56
pub struct File {
    pub vmt: *const File_methods,
   c:	9806      	ldr	r0, [sp, #24]
   e:	9008      	str	r0, [sp, #32]
/mnt/c/stm32bluepill-mynewt-sensor/src/tinycbor.rs:54
#[derive(Debug, Copy, Clone)]
  10:	9907      	ldr	r1, [sp, #28]
  12:	f240 0000 	movw	r0, #0
  16:	f2c0 0000 	movt	r0, #0
  1a:	f10d 0c24 	add.w	ip, sp, #36	; 0x24
  1e:	f04f 0e04 	mov.w	lr, #4
  22:	9005      	str	r0, [sp, #20]
  24:	4660      	mov	r0, ip
  26:	f8dd c014 	ldr.w	ip, [sp, #20]
  2a:	9204      	str	r2, [sp, #16]
  2c:	4662      	mov	r2, ip
  2e:	9303      	str	r3, [sp, #12]
  30:	4673      	mov	r3, lr
  32:	f7ff fffe 	bl	0 <_ZN4core3fmt9Formatter12debug_struct17h0a14031b095ee1baE>
  36:	e7ff      	b.n	38 <_ZN58_$LT$mylib..tinycbor..File$u20$as$u20$core..fmt..Debug$GT$3fmt17h1cbebfe927020b7cE+0x38>
/mnt/c/stm32bluepill-mynewt-sensor/src/tinycbor.rs:56
    pub vmt: *const File_methods,
  38:	9808      	ldr	r0, [sp, #32]
  3a:	900b      	str	r0, [sp, #44]	; 0x2c
/mnt/c/stm32bluepill-mynewt-sensor/src/tinycbor.rs:54
#[derive(Debug, Copy, Clone)]
  3c:	f240 0000 	movw	r0, #0
  40:	f2c0 0000 	movt	r0, #0
  44:	4669      	mov	r1, sp
  46:	6008      	str	r0, [r1, #0]
  48:	f240 0100 	movw	r1, #0
  4c:	f2c0 0100 	movt	r1, #0
  50:	a809      	add	r0, sp, #36	; 0x24
  52:	2203      	movs	r2, #3
  54:	ab0b      	add	r3, sp, #44	; 0x2c
  56:	f7ff fffe 	bl	0 <_ZN4core3fmt8builders11DebugStruct5field17h80023aaf54882542E>
  5a:	9002      	str	r0, [sp, #8]
  5c:	e7ff      	b.n	5e <_ZN58_$LT$mylib..tinycbor..File$u20$as$u20$core..fmt..Debug$GT$3fmt17h1cbebfe927020b7cE+0x5e>
  5e:	a809      	add	r0, sp, #36	; 0x24
  60:	f7ff fffe 	bl	0 <_ZN4core3fmt8builders11DebugStruct6finish17h9090cd1e84004b71E>
  64:	9001      	str	r0, [sp, #4]
  66:	e7ff      	b.n	68 <_ZN58_$LT$mylib..tinycbor..File$u20$as$u20$core..fmt..Debug$GT$3fmt17h1cbebfe927020b7cE+0x68>
  68:	9801      	ldr	r0, [sp, #4]
  6a:	f000 0001 	and.w	r0, r0, #1
  6e:	b00c      	add	sp, #48	; 0x30
  70:	bd80      	pop	{r7, pc}

Disassembly of section .text._ZN73_$LT$mylib..tinycbor..cbor_encoder_writer$u20$as$u20$core..fmt..Debug$GT$3fmt17h557f39fe1371daecE:

00000000 <_ZN73_$LT$mylib..tinycbor..cbor_encoder_writer$u20$as$u20$core..fmt..Debug$GT$3fmt17h557f39fe1371daecE>:
_ZN73_$LT$mylib..tinycbor..cbor_encoder_writer$u20$as$u20$core..fmt..Debug$GT$3fmt17h557f39fe1371daecE():
/mnt/c/stm32bluepill-mynewt-sensor/src/tinycbor.rs:147
        data: *const ::cty::c_char,
        len: ::cty::c_int,
    ) -> ::cty::c_int,
>;
#[repr(C)]
#[derive(Debug, Copy, Clone)]
   0:	b580      	push	{r7, lr}
   2:	b090      	sub	sp, #64	; 0x40
   4:	460a      	mov	r2, r1
   6:	4603      	mov	r3, r0
   8:	9008      	str	r0, [sp, #32]
   a:	9109      	str	r1, [sp, #36]	; 0x24
/mnt/c/stm32bluepill-mynewt-sensor/src/tinycbor.rs:149
pub struct cbor_encoder_writer {
    pub write: cbor_encoder_write,
   c:	9808      	ldr	r0, [sp, #32]
   e:	900a      	str	r0, [sp, #40]	; 0x28
/mnt/c/stm32bluepill-mynewt-sensor/src/tinycbor.rs:150
    pub bytes_written: ::cty::c_int,
  10:	9808      	ldr	r0, [sp, #32]
  12:	3004      	adds	r0, #4
  14:	900b      	str	r0, [sp, #44]	; 0x2c
/mnt/c/stm32bluepill-mynewt-sensor/src/tinycbor.rs:147
#[derive(Debug, Copy, Clone)]
  16:	9909      	ldr	r1, [sp, #36]	; 0x24
  18:	f240 0000 	movw	r0, #0
  1c:	f2c0 0000 	movt	r0, #0
  20:	f10d 0c30 	add.w	ip, sp, #48	; 0x30
  24:	f04f 0e13 	mov.w	lr, #19
  28:	9007      	str	r0, [sp, #28]
  2a:	4660      	mov	r0, ip
  2c:	f8dd c01c 	ldr.w	ip, [sp, #28]
  30:	9206      	str	r2, [sp, #24]
  32:	4662      	mov	r2, ip
  34:	9305      	str	r3, [sp, #20]
  36:	4673      	mov	r3, lr
  38:	f7ff fffe 	bl	0 <_ZN4core3fmt9Formatter12debug_struct17h0a14031b095ee1baE>
  3c:	e7ff      	b.n	3e <_ZN73_$LT$mylib..tinycbor..cbor_encoder_writer$u20$as$u20$core..fmt..Debug$GT$3fmt17h557f39fe1371daecE+0x3e>
/mnt/c/stm32bluepill-mynewt-sensor/src/tinycbor.rs:149
    pub write: cbor_encoder_write,
  3e:	980a      	ldr	r0, [sp, #40]	; 0x28
  40:	900e      	str	r0, [sp, #56]	; 0x38
/mnt/c/stm32bluepill-mynewt-sensor/src/tinycbor.rs:147
#[derive(Debug, Copy, Clone)]
  42:	f240 0000 	movw	r0, #0
  46:	f2c0 0000 	movt	r0, #0
  4a:	4669      	mov	r1, sp
  4c:	6008      	str	r0, [r1, #0]
  4e:	f240 0100 	movw	r1, #0
  52:	f2c0 0100 	movt	r1, #0
  56:	a80c      	add	r0, sp, #48	; 0x30
  58:	2205      	movs	r2, #5
  5a:	ab0e      	add	r3, sp, #56	; 0x38
  5c:	f7ff fffe 	bl	0 <_ZN4core3fmt8builders11DebugStruct5field17h80023aaf54882542E>
  60:	9004      	str	r0, [sp, #16]
  62:	e7ff      	b.n	64 <_ZN73_$LT$mylib..tinycbor..cbor_encoder_writer$u20$as$u20$core..fmt..Debug$GT$3fmt17h557f39fe1371daecE+0x64>
/mnt/c/stm32bluepill-mynewt-sensor/src/tinycbor.rs:150
    pub bytes_written: ::cty::c_int,
  64:	980b      	ldr	r0, [sp, #44]	; 0x2c
  66:	900f      	str	r0, [sp, #60]	; 0x3c
/mnt/c/stm32bluepill-mynewt-sensor/src/tinycbor.rs:147
#[derive(Debug, Copy, Clone)]
  68:	f240 0000 	movw	r0, #0
  6c:	f2c0 0000 	movt	r0, #0
  70:	4669      	mov	r1, sp
  72:	6008      	str	r0, [r1, #0]
  74:	f240 0100 	movw	r1, #0
  78:	f2c0 0100 	movt	r1, #0
  7c:	a80c      	add	r0, sp, #48	; 0x30
  7e:	220d      	movs	r2, #13
  80:	ab0f      	add	r3, sp, #60	; 0x3c
  82:	f7ff fffe 	bl	0 <_ZN4core3fmt8builders11DebugStruct5field17h80023aaf54882542E>
  86:	9003      	str	r0, [sp, #12]
  88:	e7ff      	b.n	8a <_ZN73_$LT$mylib..tinycbor..cbor_encoder_writer$u20$as$u20$core..fmt..Debug$GT$3fmt17h557f39fe1371daecE+0x8a>
  8a:	a80c      	add	r0, sp, #48	; 0x30
  8c:	f7ff fffe 	bl	0 <_ZN4core3fmt8builders11DebugStruct6finish17h9090cd1e84004b71E>
  90:	9002      	str	r0, [sp, #8]
  92:	e7ff      	b.n	94 <_ZN73_$LT$mylib..tinycbor..cbor_encoder_writer$u20$as$u20$core..fmt..Debug$GT$3fmt17h557f39fe1371daecE+0x94>
  94:	9802      	ldr	r0, [sp, #8]
  96:	f000 0001 	and.w	r0, r0, #1
  9a:	b010      	add	sp, #64	; 0x40
  9c:	bd80      	pop	{r7, pc}

Disassembly of section .text._ZN64_$LT$mylib..tinycbor..cbor_iovec$u20$as$u20$core..fmt..Debug$GT$3fmt17h61599b3d6e089277E:

00000000 <_ZN64_$LT$mylib..tinycbor..cbor_iovec$u20$as$u20$core..fmt..Debug$GT$3fmt17h61599b3d6e089277E>:
_ZN64_$LT$mylib..tinycbor..cbor_iovec$u20$as$u20$core..fmt..Debug$GT$3fmt17h61599b3d6e089277E():
/mnt/c/stm32bluepill-mynewt-sensor/src/tinycbor.rs:188
            stringify!(bytes_written)
        )
    );
}
#[repr(C)]
#[derive(Debug, Copy, Clone)]
   0:	b580      	push	{r7, lr}
   2:	b090      	sub	sp, #64	; 0x40
   4:	460a      	mov	r2, r1
   6:	4603      	mov	r3, r0
   8:	9008      	str	r0, [sp, #32]
   a:	9109      	str	r1, [sp, #36]	; 0x24
/mnt/c/stm32bluepill-mynewt-sensor/src/tinycbor.rs:190
pub struct cbor_iovec {
    pub iov_base: *mut ::cty::c_void,
   c:	9808      	ldr	r0, [sp, #32]
   e:	900a      	str	r0, [sp, #40]	; 0x28
/mnt/c/stm32bluepill-mynewt-sensor/src/tinycbor.rs:191
    pub iov_len: usize,
  10:	9808      	ldr	r0, [sp, #32]
  12:	3004      	adds	r0, #4
  14:	900b      	str	r0, [sp, #44]	; 0x2c
/mnt/c/stm32bluepill-mynewt-sensor/src/tinycbor.rs:188
#[derive(Debug, Copy, Clone)]
  16:	9909      	ldr	r1, [sp, #36]	; 0x24
  18:	f240 0000 	movw	r0, #0
  1c:	f2c0 0000 	movt	r0, #0
  20:	f10d 0c30 	add.w	ip, sp, #48	; 0x30
  24:	f04f 0e0a 	mov.w	lr, #10
  28:	9007      	str	r0, [sp, #28]
  2a:	4660      	mov	r0, ip
  2c:	f8dd c01c 	ldr.w	ip, [sp, #28]
  30:	9206      	str	r2, [sp, #24]
  32:	4662      	mov	r2, ip
  34:	9305      	str	r3, [sp, #20]
  36:	4673      	mov	r3, lr
  38:	f7ff fffe 	bl	0 <_ZN4core3fmt9Formatter12debug_struct17h0a14031b095ee1baE>
  3c:	e7ff      	b.n	3e <_ZN64_$LT$mylib..tinycbor..cbor_iovec$u20$as$u20$core..fmt..Debug$GT$3fmt17h61599b3d6e089277E+0x3e>
/mnt/c/stm32bluepill-mynewt-sensor/src/tinycbor.rs:190
    pub iov_base: *mut ::cty::c_void,
  3e:	980a      	ldr	r0, [sp, #40]	; 0x28
  40:	900e      	str	r0, [sp, #56]	; 0x38
/mnt/c/stm32bluepill-mynewt-sensor/src/tinycbor.rs:188
#[derive(Debug, Copy, Clone)]
  42:	f240 0000 	movw	r0, #0
  46:	f2c0 0000 	movt	r0, #0
  4a:	4669      	mov	r1, sp
  4c:	6008      	str	r0, [r1, #0]
  4e:	f240 0100 	movw	r1, #0
  52:	f2c0 0100 	movt	r1, #0
  56:	a80c      	add	r0, sp, #48	; 0x30
  58:	2208      	movs	r2, #8
  5a:	ab0e      	add	r3, sp, #56	; 0x38
  5c:	f7ff fffe 	bl	0 <_ZN4core3fmt8builders11DebugStruct5field17h80023aaf54882542E>
  60:	9004      	str	r0, [sp, #16]
  62:	e7ff      	b.n	64 <_ZN64_$LT$mylib..tinycbor..cbor_iovec$u20$as$u20$core..fmt..Debug$GT$3fmt17h61599b3d6e089277E+0x64>
/mnt/c/stm32bluepill-mynewt-sensor/src/tinycbor.rs:191
    pub iov_len: usize,
  64:	980b      	ldr	r0, [sp, #44]	; 0x2c
  66:	900f      	str	r0, [sp, #60]	; 0x3c
/mnt/c/stm32bluepill-mynewt-sensor/src/tinycbor.rs:188
#[derive(Debug, Copy, Clone)]
  68:	f240 0000 	movw	r0, #0
  6c:	f2c0 0000 	movt	r0, #0
  70:	4669      	mov	r1, sp
  72:	6008      	str	r0, [r1, #0]
  74:	f240 0100 	movw	r1, #0
  78:	f2c0 0100 	movt	r1, #0
  7c:	a80c      	add	r0, sp, #48	; 0x30
  7e:	2207      	movs	r2, #7
  80:	ab0f      	add	r3, sp, #60	; 0x3c
  82:	f7ff fffe 	bl	0 <_ZN4core3fmt8builders11DebugStruct5field17h80023aaf54882542E>
  86:	9003      	str	r0, [sp, #12]
  88:	e7ff      	b.n	8a <_ZN64_$LT$mylib..tinycbor..cbor_iovec$u20$as$u20$core..fmt..Debug$GT$3fmt17h61599b3d6e089277E+0x8a>
  8a:	a80c      	add	r0, sp, #48	; 0x30
  8c:	f7ff fffe 	bl	0 <_ZN4core3fmt8builders11DebugStruct6finish17h9090cd1e84004b71E>
  90:	9002      	str	r0, [sp, #8]
  92:	e7ff      	b.n	94 <_ZN64_$LT$mylib..tinycbor..cbor_iovec$u20$as$u20$core..fmt..Debug$GT$3fmt17h61599b3d6e089277E+0x94>
  94:	9802      	ldr	r0, [sp, #8]
  96:	f000 0001 	and.w	r0, r0, #1
  9a:	b010      	add	sp, #64	; 0x40
  9c:	bd80      	pop	{r7, pc}

Disassembly of section .text._ZN65_$LT$mylib..tinycbor..CborEncoder$u20$as$u20$core..fmt..Debug$GT$3fmt17h52bf0bb1c234ff47E:

00000000 <_ZN65_$LT$mylib..tinycbor..CborEncoder$u20$as$u20$core..fmt..Debug$GT$3fmt17h52bf0bb1c234ff47E>:
_ZN65_$LT$mylib..tinycbor..CborEncoder$u20$as$u20$core..fmt..Debug$GT$3fmt17h52bf0bb1c234ff47E():
/mnt/c/stm32bluepill-mynewt-sensor/src/tinycbor.rs:227
            stringify!(iov_len)
        )
    );
}
#[repr(C)]
#[derive(Debug, Copy, Clone)]
   0:	b580      	push	{r7, lr}
   2:	b096      	sub	sp, #88	; 0x58
   4:	460a      	mov	r2, r1
   6:	4603      	mov	r3, r0
   8:	900a      	str	r0, [sp, #40]	; 0x28
   a:	910b      	str	r1, [sp, #44]	; 0x2c
/mnt/c/stm32bluepill-mynewt-sensor/src/tinycbor.rs:229
pub struct CborEncoder {
    pub writer: *mut cbor_encoder_writer,
   c:	980a      	ldr	r0, [sp, #40]	; 0x28
   e:	900c      	str	r0, [sp, #48]	; 0x30
/mnt/c/stm32bluepill-mynewt-sensor/src/tinycbor.rs:230
    pub writer_arg: *mut ::cty::c_void,
  10:	980a      	ldr	r0, [sp, #40]	; 0x28
  12:	3004      	adds	r0, #4
  14:	900d      	str	r0, [sp, #52]	; 0x34
/mnt/c/stm32bluepill-mynewt-sensor/src/tinycbor.rs:231
    pub added: usize,
  16:	980a      	ldr	r0, [sp, #40]	; 0x28
  18:	3008      	adds	r0, #8
  1a:	900e      	str	r0, [sp, #56]	; 0x38
/mnt/c/stm32bluepill-mynewt-sensor/src/tinycbor.rs:232
    pub flags: ::cty::c_int,
  1c:	980a      	ldr	r0, [sp, #40]	; 0x28
  1e:	300c      	adds	r0, #12
  20:	900f      	str	r0, [sp, #60]	; 0x3c
/mnt/c/stm32bluepill-mynewt-sensor/src/tinycbor.rs:227
#[derive(Debug, Copy, Clone)]
  22:	990b      	ldr	r1, [sp, #44]	; 0x2c
  24:	f240 0000 	movw	r0, #0
  28:	f2c0 0000 	movt	r0, #0
  2c:	f10d 0c40 	add.w	ip, sp, #64	; 0x40
  30:	f04f 0e0b 	mov.w	lr, #11
  34:	9009      	str	r0, [sp, #36]	; 0x24
  36:	4660      	mov	r0, ip
  38:	f8dd c024 	ldr.w	ip, [sp, #36]	; 0x24
  3c:	9208      	str	r2, [sp, #32]
  3e:	4662      	mov	r2, ip
  40:	9307      	str	r3, [sp, #28]
  42:	4673      	mov	r3, lr
  44:	f7ff fffe 	bl	0 <_ZN4core3fmt9Formatter12debug_struct17h0a14031b095ee1baE>
  48:	e7ff      	b.n	4a <_ZN65_$LT$mylib..tinycbor..CborEncoder$u20$as$u20$core..fmt..Debug$GT$3fmt17h52bf0bb1c234ff47E+0x4a>
/mnt/c/stm32bluepill-mynewt-sensor/src/tinycbor.rs:229
    pub writer: *mut cbor_encoder_writer,
  4a:	980c      	ldr	r0, [sp, #48]	; 0x30
  4c:	9012      	str	r0, [sp, #72]	; 0x48
/mnt/c/stm32bluepill-mynewt-sensor/src/tinycbor.rs:227
#[derive(Debug, Copy, Clone)]
  4e:	f240 0000 	movw	r0, #0
  52:	f2c0 0000 	movt	r0, #0
  56:	4669      	mov	r1, sp
  58:	6008      	str	r0, [r1, #0]
  5a:	f240 0100 	movw	r1, #0
  5e:	f2c0 0100 	movt	r1, #0
  62:	a810      	add	r0, sp, #64	; 0x40
  64:	2206      	movs	r2, #6
  66:	ab12      	add	r3, sp, #72	; 0x48
  68:	f7ff fffe 	bl	0 <_ZN4core3fmt8builders11DebugStruct5field17h80023aaf54882542E>
  6c:	9006      	str	r0, [sp, #24]
  6e:	e7ff      	b.n	70 <_ZN65_$LT$mylib..tinycbor..CborEncoder$u20$as$u20$core..fmt..Debug$GT$3fmt17h52bf0bb1c234ff47E+0x70>
/mnt/c/stm32bluepill-mynewt-sensor/src/tinycbor.rs:230
    pub writer_arg: *mut ::cty::c_void,
  70:	980d      	ldr	r0, [sp, #52]	; 0x34
  72:	9013      	str	r0, [sp, #76]	; 0x4c
/mnt/c/stm32bluepill-mynewt-sensor/src/tinycbor.rs:227
#[derive(Debug, Copy, Clone)]
  74:	f240 0000 	movw	r0, #0
  78:	f2c0 0000 	movt	r0, #0
  7c:	4669      	mov	r1, sp
  7e:	6008      	str	r0, [r1, #0]
  80:	f240 0100 	movw	r1, #0
  84:	f2c0 0100 	movt	r1, #0
  88:	a810      	add	r0, sp, #64	; 0x40
  8a:	220a      	movs	r2, #10
  8c:	ab13      	add	r3, sp, #76	; 0x4c
  8e:	f7ff fffe 	bl	0 <_ZN4core3fmt8builders11DebugStruct5field17h80023aaf54882542E>
  92:	9005      	str	r0, [sp, #20]
  94:	e7ff      	b.n	96 <_ZN65_$LT$mylib..tinycbor..CborEncoder$u20$as$u20$core..fmt..Debug$GT$3fmt17h52bf0bb1c234ff47E+0x96>
/mnt/c/stm32bluepill-mynewt-sensor/src/tinycbor.rs:231
    pub added: usize,
  96:	980e      	ldr	r0, [sp, #56]	; 0x38
  98:	9014      	str	r0, [sp, #80]	; 0x50
/mnt/c/stm32bluepill-mynewt-sensor/src/tinycbor.rs:227
#[derive(Debug, Copy, Clone)]
  9a:	f240 0000 	movw	r0, #0
  9e:	f2c0 0000 	movt	r0, #0
  a2:	4669      	mov	r1, sp
  a4:	6008      	str	r0, [r1, #0]
  a6:	f240 0100 	movw	r1, #0
  aa:	f2c0 0100 	movt	r1, #0
  ae:	a810      	add	r0, sp, #64	; 0x40
  b0:	2205      	movs	r2, #5
  b2:	ab14      	add	r3, sp, #80	; 0x50
  b4:	f7ff fffe 	bl	0 <_ZN4core3fmt8builders11DebugStruct5field17h80023aaf54882542E>
  b8:	9004      	str	r0, [sp, #16]
  ba:	e7ff      	b.n	bc <_ZN65_$LT$mylib..tinycbor..CborEncoder$u20$as$u20$core..fmt..Debug$GT$3fmt17h52bf0bb1c234ff47E+0xbc>
/mnt/c/stm32bluepill-mynewt-sensor/src/tinycbor.rs:232
    pub flags: ::cty::c_int,
  bc:	980f      	ldr	r0, [sp, #60]	; 0x3c
  be:	9015      	str	r0, [sp, #84]	; 0x54
/mnt/c/stm32bluepill-mynewt-sensor/src/tinycbor.rs:227
#[derive(Debug, Copy, Clone)]
  c0:	f240 0000 	movw	r0, #0
  c4:	f2c0 0000 	movt	r0, #0
  c8:	4669      	mov	r1, sp
  ca:	6008      	str	r0, [r1, #0]
  cc:	f240 0100 	movw	r1, #0
  d0:	f2c0 0100 	movt	r1, #0
  d4:	a810      	add	r0, sp, #64	; 0x40
  d6:	2205      	movs	r2, #5
  d8:	ab15      	add	r3, sp, #84	; 0x54
  da:	f7ff fffe 	bl	0 <_ZN4core3fmt8builders11DebugStruct5field17h80023aaf54882542E>
  de:	9003      	str	r0, [sp, #12]
  e0:	e7ff      	b.n	e2 <_ZN65_$LT$mylib..tinycbor..CborEncoder$u20$as$u20$core..fmt..Debug$GT$3fmt17h52bf0bb1c234ff47E+0xe2>
  e2:	a810      	add	r0, sp, #64	; 0x40
  e4:	f7ff fffe 	bl	0 <_ZN4core3fmt8builders11DebugStruct6finish17h9090cd1e84004b71E>
  e8:	9002      	str	r0, [sp, #8]
  ea:	e7ff      	b.n	ec <_ZN65_$LT$mylib..tinycbor..CborEncoder$u20$as$u20$core..fmt..Debug$GT$3fmt17h52bf0bb1c234ff47E+0xec>
  ec:	9802      	ldr	r0, [sp, #8]
  ee:	f000 0001 	and.w	r0, r0, #1
  f2:	b016      	add	sp, #88	; 0x58
  f4:	bd80      	pop	{r7, pc}

Disassembly of section .text._ZN73_$LT$mylib..tinycbor..cbor_decoder_reader$u20$as$u20$core..fmt..Debug$GT$3fmt17hd7a8cf6c110693f1E:

00000000 <_ZN73_$LT$mylib..tinycbor..cbor_decoder_reader$u20$as$u20$core..fmt..Debug$GT$3fmt17hd7a8cf6c110693f1E>:
_ZN73_$LT$mylib..tinycbor..cbor_decoder_reader$u20$as$u20$core..fmt..Debug$GT$3fmt17hd7a8cf6c110693f1E():
/mnt/c/stm32bluepill-mynewt-sensor/src/tinycbor.rs:405
        offset: ::cty::c_int,
        len: usize,
    ) -> usize,
>;
#[repr(C)]
#[derive(Debug, Copy, Clone)]
   0:	b580      	push	{r7, lr}
   2:	b09e      	sub	sp, #120	; 0x78
   4:	460a      	mov	r2, r1
   6:	4603      	mov	r3, r0
   8:	900c      	str	r0, [sp, #48]	; 0x30
   a:	910d      	str	r1, [sp, #52]	; 0x34
/mnt/c/stm32bluepill-mynewt-sensor/src/tinycbor.rs:407
pub struct cbor_decoder_reader {
    pub get8: cbor_reader_get8,
   c:	980c      	ldr	r0, [sp, #48]	; 0x30
   e:	900e      	str	r0, [sp, #56]	; 0x38
/mnt/c/stm32bluepill-mynewt-sensor/src/tinycbor.rs:408
    pub get16: cbor_reader_get16,
  10:	980c      	ldr	r0, [sp, #48]	; 0x30
  12:	3004      	adds	r0, #4
  14:	900f      	str	r0, [sp, #60]	; 0x3c
/mnt/c/stm32bluepill-mynewt-sensor/src/tinycbor.rs:409
    pub get32: cbor_reader_get32,
  16:	980c      	ldr	r0, [sp, #48]	; 0x30
  18:	3008      	adds	r0, #8
  1a:	9010      	str	r0, [sp, #64]	; 0x40
/mnt/c/stm32bluepill-mynewt-sensor/src/tinycbor.rs:410
    pub get64: cbor_reader_get64,
  1c:	980c      	ldr	r0, [sp, #48]	; 0x30
  1e:	300c      	adds	r0, #12
  20:	9011      	str	r0, [sp, #68]	; 0x44
/mnt/c/stm32bluepill-mynewt-sensor/src/tinycbor.rs:411
    pub cmp: cbor_memcmp,
  22:	980c      	ldr	r0, [sp, #48]	; 0x30
  24:	3010      	adds	r0, #16
  26:	9012      	str	r0, [sp, #72]	; 0x48
/mnt/c/stm32bluepill-mynewt-sensor/src/tinycbor.rs:412
    pub cpy: cbor_memcpy,
  28:	980c      	ldr	r0, [sp, #48]	; 0x30
  2a:	3014      	adds	r0, #20
  2c:	9013      	str	r0, [sp, #76]	; 0x4c
/mnt/c/stm32bluepill-mynewt-sensor/src/tinycbor.rs:413
    pub message_size: usize,
  2e:	980c      	ldr	r0, [sp, #48]	; 0x30
  30:	3018      	adds	r0, #24
  32:	9014      	str	r0, [sp, #80]	; 0x50
/mnt/c/stm32bluepill-mynewt-sensor/src/tinycbor.rs:405
#[derive(Debug, Copy, Clone)]
  34:	990d      	ldr	r1, [sp, #52]	; 0x34
  36:	f240 0000 	movw	r0, #0
  3a:	f2c0 0000 	movt	r0, #0
  3e:	f10d 0c54 	add.w	ip, sp, #84	; 0x54
  42:	f04f 0e13 	mov.w	lr, #19
  46:	900b      	str	r0, [sp, #44]	; 0x2c
  48:	4660      	mov	r0, ip
  4a:	f8dd c02c 	ldr.w	ip, [sp, #44]	; 0x2c
  4e:	920a      	str	r2, [sp, #40]	; 0x28
  50:	4662      	mov	r2, ip
  52:	9309      	str	r3, [sp, #36]	; 0x24
  54:	4673      	mov	r3, lr
  56:	f7ff fffe 	bl	0 <_ZN4core3fmt9Formatter12debug_struct17h0a14031b095ee1baE>
  5a:	e7ff      	b.n	5c <_ZN73_$LT$mylib..tinycbor..cbor_decoder_reader$u20$as$u20$core..fmt..Debug$GT$3fmt17hd7a8cf6c110693f1E+0x5c>
/mnt/c/stm32bluepill-mynewt-sensor/src/tinycbor.rs:407
    pub get8: cbor_reader_get8,
  5c:	980e      	ldr	r0, [sp, #56]	; 0x38
  5e:	9017      	str	r0, [sp, #92]	; 0x5c
/mnt/c/stm32bluepill-mynewt-sensor/src/tinycbor.rs:405
#[derive(Debug, Copy, Clone)]
  60:	f240 0000 	movw	r0, #0
  64:	f2c0 0000 	movt	r0, #0
  68:	4669      	mov	r1, sp
  6a:	6008      	str	r0, [r1, #0]
  6c:	f240 0100 	movw	r1, #0
  70:	f2c0 0100 	movt	r1, #0
  74:	a815      	add	r0, sp, #84	; 0x54
  76:	2204      	movs	r2, #4
  78:	ab17      	add	r3, sp, #92	; 0x5c
  7a:	f7ff fffe 	bl	0 <_ZN4core3fmt8builders11DebugStruct5field17h80023aaf54882542E>
  7e:	9008      	str	r0, [sp, #32]
  80:	e7ff      	b.n	82 <_ZN73_$LT$mylib..tinycbor..cbor_decoder_reader$u20$as$u20$core..fmt..Debug$GT$3fmt17hd7a8cf6c110693f1E+0x82>
/mnt/c/stm32bluepill-mynewt-sensor/src/tinycbor.rs:408
    pub get16: cbor_reader_get16,
  82:	980f      	ldr	r0, [sp, #60]	; 0x3c
  84:	9018      	str	r0, [sp, #96]	; 0x60
/mnt/c/stm32bluepill-mynewt-sensor/src/tinycbor.rs:405
#[derive(Debug, Copy, Clone)]
  86:	f240 0000 	movw	r0, #0
  8a:	f2c0 0000 	movt	r0, #0
  8e:	4669      	mov	r1, sp
  90:	6008      	str	r0, [r1, #0]
  92:	f240 0100 	movw	r1, #0
  96:	f2c0 0100 	movt	r1, #0
  9a:	a815      	add	r0, sp, #84	; 0x54
  9c:	2205      	movs	r2, #5
  9e:	ab18      	add	r3, sp, #96	; 0x60
  a0:	f7ff fffe 	bl	0 <_ZN4core3fmt8builders11DebugStruct5field17h80023aaf54882542E>
  a4:	9007      	str	r0, [sp, #28]
  a6:	e7ff      	b.n	a8 <_ZN73_$LT$mylib..tinycbor..cbor_decoder_reader$u20$as$u20$core..fmt..Debug$GT$3fmt17hd7a8cf6c110693f1E+0xa8>
/mnt/c/stm32bluepill-mynewt-sensor/src/tinycbor.rs:409
    pub get32: cbor_reader_get32,
  a8:	9810      	ldr	r0, [sp, #64]	; 0x40
  aa:	9019      	str	r0, [sp, #100]	; 0x64
/mnt/c/stm32bluepill-mynewt-sensor/src/tinycbor.rs:405
#[derive(Debug, Copy, Clone)]
  ac:	f240 0000 	movw	r0, #0
  b0:	f2c0 0000 	movt	r0, #0
  b4:	4669      	mov	r1, sp
  b6:	6008      	str	r0, [r1, #0]
  b8:	f240 0100 	movw	r1, #0
  bc:	f2c0 0100 	movt	r1, #0
  c0:	a815      	add	r0, sp, #84	; 0x54
  c2:	2205      	movs	r2, #5
  c4:	ab19      	add	r3, sp, #100	; 0x64
  c6:	f7ff fffe 	bl	0 <_ZN4core3fmt8builders11DebugStruct5field17h80023aaf54882542E>
  ca:	9006      	str	r0, [sp, #24]
  cc:	e7ff      	b.n	ce <_ZN73_$LT$mylib..tinycbor..cbor_decoder_reader$u20$as$u20$core..fmt..Debug$GT$3fmt17hd7a8cf6c110693f1E+0xce>
/mnt/c/stm32bluepill-mynewt-sensor/src/tinycbor.rs:410
    pub get64: cbor_reader_get64,
  ce:	9811      	ldr	r0, [sp, #68]	; 0x44
  d0:	901a      	str	r0, [sp, #104]	; 0x68
/mnt/c/stm32bluepill-mynewt-sensor/src/tinycbor.rs:405
#[derive(Debug, Copy, Clone)]
  d2:	f240 0000 	movw	r0, #0
  d6:	f2c0 0000 	movt	r0, #0
  da:	4669      	mov	r1, sp
  dc:	6008      	str	r0, [r1, #0]
  de:	f240 0100 	movw	r1, #0
  e2:	f2c0 0100 	movt	r1, #0
  e6:	a815      	add	r0, sp, #84	; 0x54
  e8:	2205      	movs	r2, #5
  ea:	ab1a      	add	r3, sp, #104	; 0x68
  ec:	f7ff fffe 	bl	0 <_ZN4core3fmt8builders11DebugStruct5field17h80023aaf54882542E>
  f0:	9005      	str	r0, [sp, #20]
  f2:	e7ff      	b.n	f4 <_ZN73_$LT$mylib..tinycbor..cbor_decoder_reader$u20$as$u20$core..fmt..Debug$GT$3fmt17hd7a8cf6c110693f1E+0xf4>
/mnt/c/stm32bluepill-mynewt-sensor/src/tinycbor.rs:411
    pub cmp: cbor_memcmp,
  f4:	9812      	ldr	r0, [sp, #72]	; 0x48
  f6:	901b      	str	r0, [sp, #108]	; 0x6c
/mnt/c/stm32bluepill-mynewt-sensor/src/tinycbor.rs:405
#[derive(Debug, Copy, Clone)]
  f8:	f240 0000 	movw	r0, #0
  fc:	f2c0 0000 	movt	r0, #0
 100:	4669      	mov	r1, sp
 102:	6008      	str	r0, [r1, #0]
 104:	f240 0100 	movw	r1, #0
 108:	f2c0 0100 	movt	r1, #0
 10c:	a815      	add	r0, sp, #84	; 0x54
 10e:	2203      	movs	r2, #3
 110:	ab1b      	add	r3, sp, #108	; 0x6c
 112:	f7ff fffe 	bl	0 <_ZN4core3fmt8builders11DebugStruct5field17h80023aaf54882542E>
 116:	9004      	str	r0, [sp, #16]
 118:	e7ff      	b.n	11a <_ZN73_$LT$mylib..tinycbor..cbor_decoder_reader$u20$as$u20$core..fmt..Debug$GT$3fmt17hd7a8cf6c110693f1E+0x11a>
/mnt/c/stm32bluepill-mynewt-sensor/src/tinycbor.rs:412
    pub cpy: cbor_memcpy,
 11a:	9813      	ldr	r0, [sp, #76]	; 0x4c
 11c:	901c      	str	r0, [sp, #112]	; 0x70
/mnt/c/stm32bluepill-mynewt-sensor/src/tinycbor.rs:405
#[derive(Debug, Copy, Clone)]
 11e:	f240 0000 	movw	r0, #0
 122:	f2c0 0000 	movt	r0, #0
 126:	4669      	mov	r1, sp
 128:	6008      	str	r0, [r1, #0]
 12a:	f240 0100 	movw	r1, #0
 12e:	f2c0 0100 	movt	r1, #0
 132:	a815      	add	r0, sp, #84	; 0x54
 134:	2203      	movs	r2, #3
 136:	ab1c      	add	r3, sp, #112	; 0x70
 138:	f7ff fffe 	bl	0 <_ZN4core3fmt8builders11DebugStruct5field17h80023aaf54882542E>
 13c:	9003      	str	r0, [sp, #12]
 13e:	e7ff      	b.n	140 <_ZN73_$LT$mylib..tinycbor..cbor_decoder_reader$u20$as$u20$core..fmt..Debug$GT$3fmt17hd7a8cf6c110693f1E+0x140>
/mnt/c/stm32bluepill-mynewt-sensor/src/tinycbor.rs:413
    pub message_size: usize,
 140:	9814      	ldr	r0, [sp, #80]	; 0x50
 142:	901d      	str	r0, [sp, #116]	; 0x74
/mnt/c/stm32bluepill-mynewt-sensor/src/tinycbor.rs:405
#[derive(Debug, Copy, Clone)]
 144:	f240 0000 	movw	r0, #0
 148:	f2c0 0000 	movt	r0, #0
 14c:	4669      	mov	r1, sp
 14e:	6008      	str	r0, [r1, #0]
 150:	f240 0100 	movw	r1, #0
 154:	f2c0 0100 	movt	r1, #0
 158:	a815      	add	r0, sp, #84	; 0x54
 15a:	220c      	movs	r2, #12
 15c:	ab1d      	add	r3, sp, #116	; 0x74
 15e:	f7ff fffe 	bl	0 <_ZN4core3fmt8builders11DebugStruct5field17h80023aaf54882542E>
 162:	9002      	str	r0, [sp, #8]
 164:	e7ff      	b.n	166 <_ZN73_$LT$mylib..tinycbor..cbor_decoder_reader$u20$as$u20$core..fmt..Debug$GT$3fmt17hd7a8cf6c110693f1E+0x166>
 166:	a815      	add	r0, sp, #84	; 0x54
 168:	f7ff fffe 	bl	0 <_ZN4core3fmt8builders11DebugStruct6finish17h9090cd1e84004b71E>
 16c:	9001      	str	r0, [sp, #4]
 16e:	e7ff      	b.n	170 <_ZN73_$LT$mylib..tinycbor..cbor_decoder_reader$u20$as$u20$core..fmt..Debug$GT$3fmt17hd7a8cf6c110693f1E+0x170>
 170:	9801      	ldr	r0, [sp, #4]
 172:	f000 0001 	and.w	r0, r0, #1
 176:	b01e      	add	sp, #120	; 0x78
 178:	bd80      	pop	{r7, pc}

Disassembly of section .text._ZN64_$LT$mylib..tinycbor..CborParser$u20$as$u20$core..fmt..Debug$GT$3fmt17hece4bef81a844276E:

00000000 <_ZN64_$LT$mylib..tinycbor..CborParser$u20$as$u20$core..fmt..Debug$GT$3fmt17hece4bef81a844276E>:
_ZN64_$LT$mylib..tinycbor..CborParser$u20$as$u20$core..fmt..Debug$GT$3fmt17hece4bef81a844276E():
/mnt/c/stm32bluepill-mynewt-sensor/src/tinycbor.rs:501
            stringify!(message_size)
        )
    );
}
#[repr(C)]
#[derive(Debug, Copy, Clone)]
   0:	b580      	push	{r7, lr}
   2:	b092      	sub	sp, #72	; 0x48
   4:	460a      	mov	r2, r1
   6:	4603      	mov	r3, r0
   8:	9008      	str	r0, [sp, #32]
   a:	9109      	str	r1, [sp, #36]	; 0x24
/mnt/c/stm32bluepill-mynewt-sensor/src/tinycbor.rs:503
pub struct CborParser {
    pub d: *mut cbor_decoder_reader,
   c:	9808      	ldr	r0, [sp, #32]
   e:	900a      	str	r0, [sp, #40]	; 0x28
/mnt/c/stm32bluepill-mynewt-sensor/src/tinycbor.rs:504
    pub end: ::cty::c_int,
  10:	9808      	ldr	r0, [sp, #32]
  12:	3004      	adds	r0, #4
  14:	900b      	str	r0, [sp, #44]	; 0x2c
/mnt/c/stm32bluepill-mynewt-sensor/src/tinycbor.rs:505
    pub flags: ::cty::c_int,
  16:	9808      	ldr	r0, [sp, #32]
  18:	3008      	adds	r0, #8
  1a:	900c      	str	r0, [sp, #48]	; 0x30
/mnt/c/stm32bluepill-mynewt-sensor/src/tinycbor.rs:501
#[derive(Debug, Copy, Clone)]
  1c:	9909      	ldr	r1, [sp, #36]	; 0x24
  1e:	f240 0000 	movw	r0, #0
  22:	f2c0 0000 	movt	r0, #0
  26:	f10d 0c34 	add.w	ip, sp, #52	; 0x34
  2a:	f04f 0e0a 	mov.w	lr, #10
  2e:	9007      	str	r0, [sp, #28]
  30:	4660      	mov	r0, ip
  32:	f8dd c01c 	ldr.w	ip, [sp, #28]
  36:	9206      	str	r2, [sp, #24]
  38:	4662      	mov	r2, ip
  3a:	9305      	str	r3, [sp, #20]
  3c:	4673      	mov	r3, lr
  3e:	f7ff fffe 	bl	0 <_ZN4core3fmt9Formatter12debug_struct17h0a14031b095ee1baE>
  42:	e7ff      	b.n	44 <_ZN64_$LT$mylib..tinycbor..CborParser$u20$as$u20$core..fmt..Debug$GT$3fmt17hece4bef81a844276E+0x44>
/mnt/c/stm32bluepill-mynewt-sensor/src/tinycbor.rs:503
    pub d: *mut cbor_decoder_reader,
  44:	980a      	ldr	r0, [sp, #40]	; 0x28
  46:	900f      	str	r0, [sp, #60]	; 0x3c
/mnt/c/stm32bluepill-mynewt-sensor/src/tinycbor.rs:501
#[derive(Debug, Copy, Clone)]
  48:	f240 0000 	movw	r0, #0
  4c:	f2c0 0000 	movt	r0, #0
  50:	4669      	mov	r1, sp
  52:	6008      	str	r0, [r1, #0]
  54:	f240 0100 	movw	r1, #0
  58:	f2c0 0100 	movt	r1, #0
  5c:	a80d      	add	r0, sp, #52	; 0x34
  5e:	2201      	movs	r2, #1
  60:	ab0f      	add	r3, sp, #60	; 0x3c
  62:	f7ff fffe 	bl	0 <_ZN4core3fmt8builders11DebugStruct5field17h80023aaf54882542E>
  66:	9004      	str	r0, [sp, #16]
  68:	e7ff      	b.n	6a <_ZN64_$LT$mylib..tinycbor..CborParser$u20$as$u20$core..fmt..Debug$GT$3fmt17hece4bef81a844276E+0x6a>
/mnt/c/stm32bluepill-mynewt-sensor/src/tinycbor.rs:504
    pub end: ::cty::c_int,
  6a:	980b      	ldr	r0, [sp, #44]	; 0x2c
  6c:	9010      	str	r0, [sp, #64]	; 0x40
/mnt/c/stm32bluepill-mynewt-sensor/src/tinycbor.rs:501
#[derive(Debug, Copy, Clone)]
  6e:	f240 0000 	movw	r0, #0
  72:	f2c0 0000 	movt	r0, #0
  76:	4669      	mov	r1, sp
  78:	6008      	str	r0, [r1, #0]
  7a:	f240 0100 	movw	r1, #0
  7e:	f2c0 0100 	movt	r1, #0
  82:	a80d      	add	r0, sp, #52	; 0x34
  84:	2203      	movs	r2, #3
  86:	ab10      	add	r3, sp, #64	; 0x40
  88:	f7ff fffe 	bl	0 <_ZN4core3fmt8builders11DebugStruct5field17h80023aaf54882542E>
  8c:	9003      	str	r0, [sp, #12]
  8e:	e7ff      	b.n	90 <_ZN64_$LT$mylib..tinycbor..CborParser$u20$as$u20$core..fmt..Debug$GT$3fmt17hece4bef81a844276E+0x90>
/mnt/c/stm32bluepill-mynewt-sensor/src/tinycbor.rs:505
    pub flags: ::cty::c_int,
  90:	980c      	ldr	r0, [sp, #48]	; 0x30
  92:	9011      	str	r0, [sp, #68]	; 0x44
/mnt/c/stm32bluepill-mynewt-sensor/src/tinycbor.rs:501
#[derive(Debug, Copy, Clone)]
  94:	f240 0000 	movw	r0, #0
  98:	f2c0 0000 	movt	r0, #0
  9c:	4669      	mov	r1, sp
  9e:	6008      	str	r0, [r1, #0]
  a0:	f240 0100 	movw	r1, #0
  a4:	f2c0 0100 	movt	r1, #0
  a8:	a80d      	add	r0, sp, #52	; 0x34
  aa:	2205      	movs	r2, #5
  ac:	ab11      	add	r3, sp, #68	; 0x44
  ae:	f7ff fffe 	bl	0 <_ZN4core3fmt8builders11DebugStruct5field17h80023aaf54882542E>
  b2:	9002      	str	r0, [sp, #8]
  b4:	e7ff      	b.n	b6 <_ZN64_$LT$mylib..tinycbor..CborParser$u20$as$u20$core..fmt..Debug$GT$3fmt17hece4bef81a844276E+0xb6>
  b6:	a80d      	add	r0, sp, #52	; 0x34
  b8:	f7ff fffe 	bl	0 <_ZN4core3fmt8builders11DebugStruct6finish17h9090cd1e84004b71E>
  bc:	9001      	str	r0, [sp, #4]
  be:	e7ff      	b.n	c0 <_ZN64_$LT$mylib..tinycbor..CborParser$u20$as$u20$core..fmt..Debug$GT$3fmt17hece4bef81a844276E+0xc0>
  c0:	9801      	ldr	r0, [sp, #4]
  c2:	f000 0001 	and.w	r0, r0, #1
  c6:	b012      	add	sp, #72	; 0x48
  c8:	bd80      	pop	{r7, pc}

Disassembly of section .text._ZN63_$LT$mylib..tinycbor..CborValue$u20$as$u20$core..fmt..Debug$GT$3fmt17h0ec67933be14bb89E:

00000000 <_ZN63_$LT$mylib..tinycbor..CborValue$u20$as$u20$core..fmt..Debug$GT$3fmt17h0ec67933be14bb89E>:
_ZN63_$LT$mylib..tinycbor..CborValue$u20$as$u20$core..fmt..Debug$GT$3fmt17h0ec67933be14bb89E():
/mnt/c/stm32bluepill-mynewt-sensor/src/tinycbor.rs:551
            stringify!(flags)
        )
    );
}
#[repr(C)]
#[derive(Debug, Copy, Clone)]
   0:	b580      	push	{r7, lr}
   2:	b09c      	sub	sp, #112	; 0x70
   4:	460a      	mov	r2, r1
   6:	4603      	mov	r3, r0
   8:	900c      	str	r0, [sp, #48]	; 0x30
   a:	910d      	str	r1, [sp, #52]	; 0x34
/mnt/c/stm32bluepill-mynewt-sensor/src/tinycbor.rs:553
pub struct CborValue {
    pub parser: *const CborParser,
   c:	980c      	ldr	r0, [sp, #48]	; 0x30
   e:	900e      	str	r0, [sp, #56]	; 0x38
/mnt/c/stm32bluepill-mynewt-sensor/src/tinycbor.rs:554
    pub offset: ::cty::c_int,
  10:	980c      	ldr	r0, [sp, #48]	; 0x30
  12:	3004      	adds	r0, #4
  14:	900f      	str	r0, [sp, #60]	; 0x3c
/mnt/c/stm32bluepill-mynewt-sensor/src/tinycbor.rs:555
    pub remaining: u32,
  16:	980c      	ldr	r0, [sp, #48]	; 0x30
  18:	3008      	adds	r0, #8
  1a:	9010      	str	r0, [sp, #64]	; 0x40
/mnt/c/stm32bluepill-mynewt-sensor/src/tinycbor.rs:556
    pub extra: u16,
  1c:	980c      	ldr	r0, [sp, #48]	; 0x30
  1e:	300c      	adds	r0, #12
  20:	9011      	str	r0, [sp, #68]	; 0x44
/mnt/c/stm32bluepill-mynewt-sensor/src/tinycbor.rs:557
    pub type_: u8,
  22:	980c      	ldr	r0, [sp, #48]	; 0x30
  24:	300e      	adds	r0, #14
  26:	9012      	str	r0, [sp, #72]	; 0x48
/mnt/c/stm32bluepill-mynewt-sensor/src/tinycbor.rs:558
    pub flags: u8,
  28:	980c      	ldr	r0, [sp, #48]	; 0x30
  2a:	300f      	adds	r0, #15
  2c:	9013      	str	r0, [sp, #76]	; 0x4c
/mnt/c/stm32bluepill-mynewt-sensor/src/tinycbor.rs:551
#[derive(Debug, Copy, Clone)]
  2e:	990d      	ldr	r1, [sp, #52]	; 0x34
  30:	f240 0000 	movw	r0, #0
  34:	f2c0 0000 	movt	r0, #0
  38:	f10d 0c50 	add.w	ip, sp, #80	; 0x50
  3c:	f04f 0e09 	mov.w	lr, #9
  40:	900b      	str	r0, [sp, #44]	; 0x2c
  42:	4660      	mov	r0, ip
  44:	f8dd c02c 	ldr.w	ip, [sp, #44]	; 0x2c
  48:	920a      	str	r2, [sp, #40]	; 0x28
  4a:	4662      	mov	r2, ip
  4c:	9309      	str	r3, [sp, #36]	; 0x24
  4e:	4673      	mov	r3, lr
  50:	f7ff fffe 	bl	0 <_ZN4core3fmt9Formatter12debug_struct17h0a14031b095ee1baE>
  54:	e7ff      	b.n	56 <_ZN63_$LT$mylib..tinycbor..CborValue$u20$as$u20$core..fmt..Debug$GT$3fmt17h0ec67933be14bb89E+0x56>
/mnt/c/stm32bluepill-mynewt-sensor/src/tinycbor.rs:553
    pub parser: *const CborParser,
  56:	980e      	ldr	r0, [sp, #56]	; 0x38
  58:	9016      	str	r0, [sp, #88]	; 0x58
/mnt/c/stm32bluepill-mynewt-sensor/src/tinycbor.rs:551
#[derive(Debug, Copy, Clone)]
  5a:	f240 0000 	movw	r0, #0
  5e:	f2c0 0000 	movt	r0, #0
  62:	4669      	mov	r1, sp
  64:	6008      	str	r0, [r1, #0]
  66:	f240 0100 	movw	r1, #0
  6a:	f2c0 0100 	movt	r1, #0
  6e:	a814      	add	r0, sp, #80	; 0x50
  70:	2206      	movs	r2, #6
  72:	ab16      	add	r3, sp, #88	; 0x58
  74:	f7ff fffe 	bl	0 <_ZN4core3fmt8builders11DebugStruct5field17h80023aaf54882542E>
  78:	9008      	str	r0, [sp, #32]
  7a:	e7ff      	b.n	7c <_ZN63_$LT$mylib..tinycbor..CborValue$u20$as$u20$core..fmt..Debug$GT$3fmt17h0ec67933be14bb89E+0x7c>
/mnt/c/stm32bluepill-mynewt-sensor/src/tinycbor.rs:554
    pub offset: ::cty::c_int,
  7c:	980f      	ldr	r0, [sp, #60]	; 0x3c
  7e:	9017      	str	r0, [sp, #92]	; 0x5c
/mnt/c/stm32bluepill-mynewt-sensor/src/tinycbor.rs:551
#[derive(Debug, Copy, Clone)]
  80:	f240 0000 	movw	r0, #0
  84:	f2c0 0000 	movt	r0, #0
  88:	4669      	mov	r1, sp
  8a:	6008      	str	r0, [r1, #0]
  8c:	f240 0100 	movw	r1, #0
  90:	f2c0 0100 	movt	r1, #0
  94:	a814      	add	r0, sp, #80	; 0x50
  96:	2206      	movs	r2, #6
  98:	ab17      	add	r3, sp, #92	; 0x5c
  9a:	f7ff fffe 	bl	0 <_ZN4core3fmt8builders11DebugStruct5field17h80023aaf54882542E>
  9e:	9007      	str	r0, [sp, #28]
  a0:	e7ff      	b.n	a2 <_ZN63_$LT$mylib..tinycbor..CborValue$u20$as$u20$core..fmt..Debug$GT$3fmt17h0ec67933be14bb89E+0xa2>
/mnt/c/stm32bluepill-mynewt-sensor/src/tinycbor.rs:555
    pub remaining: u32,
  a2:	9810      	ldr	r0, [sp, #64]	; 0x40
  a4:	9018      	str	r0, [sp, #96]	; 0x60
/mnt/c/stm32bluepill-mynewt-sensor/src/tinycbor.rs:551
#[derive(Debug, Copy, Clone)]
  a6:	f240 0000 	movw	r0, #0
  aa:	f2c0 0000 	movt	r0, #0
  ae:	4669      	mov	r1, sp
  b0:	6008      	str	r0, [r1, #0]
  b2:	f240 0100 	movw	r1, #0
  b6:	f2c0 0100 	movt	r1, #0
  ba:	a814      	add	r0, sp, #80	; 0x50
  bc:	2209      	movs	r2, #9
  be:	ab18      	add	r3, sp, #96	; 0x60
  c0:	f7ff fffe 	bl	0 <_ZN4core3fmt8builders11DebugStruct5field17h80023aaf54882542E>
  c4:	9006      	str	r0, [sp, #24]
  c6:	e7ff      	b.n	c8 <_ZN63_$LT$mylib..tinycbor..CborValue$u20$as$u20$core..fmt..Debug$GT$3fmt17h0ec67933be14bb89E+0xc8>
/mnt/c/stm32bluepill-mynewt-sensor/src/tinycbor.rs:556
    pub extra: u16,
  c8:	9811      	ldr	r0, [sp, #68]	; 0x44
  ca:	9019      	str	r0, [sp, #100]	; 0x64
/mnt/c/stm32bluepill-mynewt-sensor/src/tinycbor.rs:551
#[derive(Debug, Copy, Clone)]
  cc:	f240 0000 	movw	r0, #0
  d0:	f2c0 0000 	movt	r0, #0
  d4:	4669      	mov	r1, sp
  d6:	6008      	str	r0, [r1, #0]
  d8:	f240 0100 	movw	r1, #0
  dc:	f2c0 0100 	movt	r1, #0
  e0:	a814      	add	r0, sp, #80	; 0x50
  e2:	2205      	movs	r2, #5
  e4:	ab19      	add	r3, sp, #100	; 0x64
  e6:	f7ff fffe 	bl	0 <_ZN4core3fmt8builders11DebugStruct5field17h80023aaf54882542E>
  ea:	9005      	str	r0, [sp, #20]
  ec:	e7ff      	b.n	ee <_ZN63_$LT$mylib..tinycbor..CborValue$u20$as$u20$core..fmt..Debug$GT$3fmt17h0ec67933be14bb89E+0xee>
/mnt/c/stm32bluepill-mynewt-sensor/src/tinycbor.rs:557
    pub type_: u8,
  ee:	9812      	ldr	r0, [sp, #72]	; 0x48
  f0:	901a      	str	r0, [sp, #104]	; 0x68
/mnt/c/stm32bluepill-mynewt-sensor/src/tinycbor.rs:551
#[derive(Debug, Copy, Clone)]
  f2:	f240 0000 	movw	r0, #0
  f6:	f2c0 0000 	movt	r0, #0
  fa:	4669      	mov	r1, sp
  fc:	6008      	str	r0, [r1, #0]
  fe:	f240 0100 	movw	r1, #0
 102:	f2c0 0100 	movt	r1, #0
 106:	a814      	add	r0, sp, #80	; 0x50
 108:	2205      	movs	r2, #5
 10a:	ab1a      	add	r3, sp, #104	; 0x68
 10c:	f7ff fffe 	bl	0 <_ZN4core3fmt8builders11DebugStruct5field17h80023aaf54882542E>
 110:	9004      	str	r0, [sp, #16]
 112:	e7ff      	b.n	114 <_ZN63_$LT$mylib..tinycbor..CborValue$u20$as$u20$core..fmt..Debug$GT$3fmt17h0ec67933be14bb89E+0x114>
/mnt/c/stm32bluepill-mynewt-sensor/src/tinycbor.rs:558
    pub flags: u8,
 114:	9813      	ldr	r0, [sp, #76]	; 0x4c
 116:	901b      	str	r0, [sp, #108]	; 0x6c
/mnt/c/stm32bluepill-mynewt-sensor/src/tinycbor.rs:551
#[derive(Debug, Copy, Clone)]
 118:	f240 0000 	movw	r0, #0
 11c:	f2c0 0000 	movt	r0, #0
 120:	4669      	mov	r1, sp
 122:	6008      	str	r0, [r1, #0]
 124:	f240 0100 	movw	r1, #0
 128:	f2c0 0100 	movt	r1, #0
 12c:	a814      	add	r0, sp, #80	; 0x50
 12e:	2205      	movs	r2, #5
 130:	ab1b      	add	r3, sp, #108	; 0x6c
 132:	f7ff fffe 	bl	0 <_ZN4core3fmt8builders11DebugStruct5field17h80023aaf54882542E>
 136:	9003      	str	r0, [sp, #12]
 138:	e7ff      	b.n	13a <_ZN63_$LT$mylib..tinycbor..CborValue$u20$as$u20$core..fmt..Debug$GT$3fmt17h0ec67933be14bb89E+0x13a>
 13a:	a814      	add	r0, sp, #80	; 0x50
 13c:	f7ff fffe 	bl	0 <_ZN4core3fmt8builders11DebugStruct6finish17h9090cd1e84004b71E>
 140:	9002      	str	r0, [sp, #8]
 142:	e7ff      	b.n	144 <_ZN63_$LT$mylib..tinycbor..CborValue$u20$as$u20$core..fmt..Debug$GT$3fmt17h0ec67933be14bb89E+0x144>
 144:	9802      	ldr	r0, [sp, #8]
 146:	f000 0001 	and.w	r0, r0, #1
 14a:	b01c      	add	sp, #112	; 0x70
 14c:	bd80      	pop	{r7, pc}

mylib-ac95891f38e7979c.gf4ix36rm4u0qfa.rcgu.o:     file format elf32-littlearm

SYMBOL TABLE:
00000000 l    df *ABS*	00000000 gf4ix36rm4u0qfa
00000000 l       .debug_str	00000000 
00000041 l       .debug_str	00000000 
0000004c l       .debug_str	00000000 
0000006f l       .debug_str	00000000 
00000074 l       .debug_str	00000000 
0000007b l       .debug_str	00000000 
0000007e l       .debug_str	00000000 
00000081 l       .debug_str	00000000 
00000085 l       .debug_str	00000000 
0000008c l       .debug_str	00000000 
00000090 l       .debug_str	00000000 
00000093 l       .debug_str	00000000 
00000096 l       .debug_str	00000000 
0000009b l       .debug_str	00000000 
000000a1 l       .debug_str	00000000 
000000a8 l       .debug_str	00000000 
000000b0 l       .debug_str	00000000 
000000ba l       .debug_str	00000000 
000000c3 l       .debug_str	00000000 
000000c9 l       .debug_str	00000000 
000000cf l       .debug_str	00000000 
000000d2 l       .debug_str	00000000 
000000e1 l       .debug_str	00000000 
000000e8 l       .debug_str	00000000 
000000ec l       .debug_str	00000000 
000000f5 l       .debug_str	00000000 
000000fd l       .debug_str	00000000 
00000105 l       .debug_str	00000000 
0000010c l       .debug_str	00000000 
00000112 l       .debug_str	00000000 
00000126 l       .debug_str	00000000 
00000132 l       .debug_str	00000000 
0000013e l       .debug_str	00000000 
00000140 l       .debug_str	00000000 
00000159 l       .debug_str	00000000 
0000015e l       .debug_str	00000000 
0000016f l       .debug_str	00000000 
00000179 l       .debug_str	00000000 
0000017f l       .debug_str	00000000 
00000183 l       .debug_str	00000000 
00000188 l       .debug_str	00000000 
0000018d l       .debug_str	00000000 
00000193 l       .debug_str	00000000 
00000199 l       .debug_str	00000000 
000001a0 l       .debug_str	00000000 
000001a5 l       .debug_str	00000000 
000001aa l       .debug_str	00000000 
000001ae l       .debug_str	00000000 
000001bc l       .debug_str	00000000 
000001c6 l       .debug_str	00000000 
000001ca l       .debug_str	00000000 
000001d5 l       .debug_str	00000000 
000001dc l       .debug_str	00000000 
000001e2 l       .debug_str	00000000 
000001e6 l       .debug_str	00000000 
00000203 l       .debug_str	00000000 
00000207 l       .debug_str	00000000 
0000020f l       .debug_str	00000000 
00000226 l       .debug_str	00000000 
0000024a l       .debug_str	00000000 
00000266 l       .debug_str	00000000 
0000026b l       .debug_str	00000000 
00000274 l       .debug_str	00000000 
0000027b l       .debug_str	00000000 
00000294 l       .debug_str	00000000 
0000029e l       .debug_str	00000000 
000002b8 l       .debug_str	00000000 
00000316 l       .debug_str	00000000 
00000321 l       .debug_str	00000000 
00000325 l       .debug_str	00000000 
0000036d l       .debug_str	00000000 
00000376 l       .debug_str	00000000 
0000037c l       .debug_str	00000000 
00000385 l       .debug_str	00000000 
00000389 l       .debug_str	00000000 
0000038f l       .debug_str	00000000 
0000039c l       .debug_str	00000000 
000003f0 l       .debug_str	00000000 
000003f5 l       .debug_str	00000000 
0000043f l       .debug_str	00000000 
00000491 l       .debug_str	00000000 
0000049e l       .debug_str	00000000 
000004c3 l       .debug_str	00000000 
000004c8 l       .debug_str	00000000 
000004e3 l       .debug_str	00000000 
000004ed l       .debug_str	00000000 
00000539 l       .debug_str	00000000 
00000581 l       .debug_str	00000000 
000005d2 l       .debug_str	00000000 
000005d6 l       .debug_str	00000000 
00000635 l       .debug_str	00000000 
00000643 l       .debug_str	00000000 
00000657 l       .debug_str	00000000 
00000681 l       .debug_str	00000000 
000006d8 l       .debug_str	00000000 
00000720 l       .debug_str	00000000 
0000077c l       .debug_str	00000000 
000007c4 l       .debug_str	00000000 
000007cd l       .debug_str	00000000 
000007d2 l       .debug_str	00000000 
00000825 l       .debug_str	00000000 
0000082b l       .debug_str	00000000 
00000877 l       .debug_str	00000000 
000008cb l       .debug_str	00000000 
000008d1 l       .debug_str	00000000 
0000091d l       .debug_str	00000000 
00000971 l       .debug_str	00000000 
00000977 l       .debug_str	00000000 
0000097b l       .debug_str	00000000 
000009c7 l       .debug_str	00000000 
00000a1b l       .debug_str	00000000 
00000a1f l       .debug_str	00000000 
00000a7d l       .debug_str	00000000 
00000ae3 l       .debug_str	00000000 
00000ae7 l       .debug_str	00000000 
00000af4 l       .debug_str	00000000 
00000b08 l       .debug_str	00000000 
00000b32 l       .debug_str	00000000 
00000b7d l       .debug_str	00000000 
00000bc5 l       .debug_str	00000000 
00000c15 l       .debug_str	00000000 
00000c5d l       .debug_str	00000000 
00000cae l       .debug_str	00000000 
00000cf6 l       .debug_str	00000000 
00000d59 l       .debug_str	00000000 
00000da1 l       .debug_str	00000000 
00000df2 l       .debug_str	00000000 
00000e3a l       .debug_str	00000000 
00000e89 l       .debug_str	00000000 
00000ed1 l       .debug_str	00000000 
00000f22 l       .debug_str	00000000 
00000f25 l       .debug_str	00000000 
00000f6f l       .debug_str	00000000 
00000f78 l       .debug_str	00000000 
00000f7d l       .debug_str	00000000 
00000fae l       .debug_str	00000000 
00000fb8 l       .debug_str	00000000 
00000fe9 l       .debug_str	00000000 
00000ff2 l       .debug_str	00000000 
00001046 l       .debug_str	00000000 
0000104e l       .debug_str	00000000 
00001053 l       .debug_str	00000000 
00001058 l       .debug_str	00000000 
0000105e l       .debug_str	00000000 
00001060 l       .debug_str	00000000 
000010ad l       .debug_str	00000000 
000010fb l       .debug_str	00000000 
00001153 l       .debug_str	00000000 
000011ac l       .debug_str	00000000 
000011b1 l       .debug_str	00000000 
000011b7 l       .debug_str	00000000 
00001203 l       .debug_str	00000000 
00001250 l       .debug_str	00000000 
0000129d l       .debug_str	00000000 
000012eb l       .debug_str	00000000 
0000134a l       .debug_str	00000000 
000013aa l       .debug_str	00000000 
000013f7 l       .debug_str	00000000 
00001445 l       .debug_str	00000000 
00001490 l       .debug_str	00000000 
000014dc l       .debug_str	00000000 
00001529 l       .debug_str	00000000 
00001577 l       .debug_str	00000000 
0000157d l       .debug_str	00000000 
0000157f l       .debug_str	00000000 
000015d2 l       .debug_str	00000000 
00001624 l       .debug_str	00000000 
0000162e l       .debug_str	00000000 
00001639 l       .debug_str	00000000 
00001643 l       .debug_str	00000000 
0000164d l       .debug_str	00000000 
00000000 l    d  .text._ZN42_$LT$$RF$T$u20$as$u20$core..fmt..Debug$GT$3fmt17h0c004dc6f6942d42E	00000000 .text._ZN42_$LT$$RF$T$u20$as$u20$core..fmt..Debug$GT$3fmt17h0c004dc6f6942d42E
00000000 l    d  .text._ZN42_$LT$$RF$T$u20$as$u20$core..fmt..Debug$GT$3fmt17h3b22989b59c13fbaE	00000000 .text._ZN42_$LT$$RF$T$u20$as$u20$core..fmt..Debug$GT$3fmt17h3b22989b59c13fbaE
00000000 l    d  .text._ZN42_$LT$$RF$T$u20$as$u20$core..fmt..Debug$GT$3fmt17h671ab38b07ec6365E	00000000 .text._ZN42_$LT$$RF$T$u20$as$u20$core..fmt..Debug$GT$3fmt17h671ab38b07ec6365E
00000000 l    d  .text._ZN42_$LT$$RF$T$u20$as$u20$core..fmt..Debug$GT$3fmt17h6b54cd33c0767134E	00000000 .text._ZN42_$LT$$RF$T$u20$as$u20$core..fmt..Debug$GT$3fmt17h6b54cd33c0767134E
00000000 l    d  .text._ZN42_$LT$$RF$T$u20$as$u20$core..fmt..Debug$GT$3fmt17hb1b3a675057661aaE	00000000 .text._ZN42_$LT$$RF$T$u20$as$u20$core..fmt..Debug$GT$3fmt17hb1b3a675057661aaE
00000000 l    d  .text._ZN42_$LT$$RF$T$u20$as$u20$core..fmt..Debug$GT$3fmt17hc304e62f7d6e24f0E	00000000 .text._ZN42_$LT$$RF$T$u20$as$u20$core..fmt..Debug$GT$3fmt17hc304e62f7d6e24f0E
00000000 l    d  .text._ZN42_$LT$$RF$T$u20$as$u20$core..fmt..Debug$GT$3fmt17hc6de9a1edbf0526cE	00000000 .text._ZN42_$LT$$RF$T$u20$as$u20$core..fmt..Debug$GT$3fmt17hc6de9a1edbf0526cE
00000000 l    d  .text._ZN42_$LT$$RF$T$u20$as$u20$core..fmt..Debug$GT$3fmt17hd087cf1e09c84ec6E	00000000 .text._ZN42_$LT$$RF$T$u20$as$u20$core..fmt..Debug$GT$3fmt17hd087cf1e09c84ec6E
00000000 l    d  .text._ZN42_$LT$$RF$T$u20$as$u20$core..fmt..Debug$GT$3fmt17hd842842b034329e8E	00000000 .text._ZN42_$LT$$RF$T$u20$as$u20$core..fmt..Debug$GT$3fmt17hd842842b034329e8E
00000000 l    d  .text._ZN42_$LT$$RF$T$u20$as$u20$core..fmt..Debug$GT$3fmt17he9da4ceea7923adcE	00000000 .text._ZN42_$LT$$RF$T$u20$as$u20$core..fmt..Debug$GT$3fmt17he9da4ceea7923adcE
00000000 l    d  .text._ZN44_$LT$$RF$T$u20$as$u20$core..fmt..Display$GT$3fmt17h3783dcd2d2b56f30E	00000000 .text._ZN44_$LT$$RF$T$u20$as$u20$core..fmt..Display$GT$3fmt17h3783dcd2d2b56f30E
00000000 l    d  .text._ZN4core3fmt10ArgumentV13new17h05d4954a4919dcdbE	00000000 .text._ZN4core3fmt10ArgumentV13new17h05d4954a4919dcdbE
00000000 l    d  .text._ZN4core3fmt10ArgumentV13new17h47ed94b94e242b01E	00000000 .text._ZN4core3fmt10ArgumentV13new17h47ed94b94e242b01E
00000000 l    d  .text._ZN54_$LT$$BP$const$u20$T$u20$as$u20$core..fmt..Pointer$GT$3fmt17he4f54e4c19abbcc9E	00000000 .text._ZN54_$LT$$BP$const$u20$T$u20$as$u20$core..fmt..Pointer$GT$3fmt17he4f54e4c19abbcc9E
00000000 l    d  .debug_abbrev	00000000 .debug_abbrev
00000000 l    d  .debug_info	00000000 .debug_info
00000000 l    d  .debug_ranges	00000000 .debug_ranges
00000000 l    d  .debug_frame	00000000 .debug_frame
00000000 l    d  .debug_line	00000000 .debug_line
00000000 g     F .text._ZN42_$LT$$RF$T$u20$as$u20$core..fmt..Debug$GT$3fmt17h0c004dc6f6942d42E	00000028 _ZN42_$LT$$RF$T$u20$as$u20$core..fmt..Debug$GT$3fmt17h0c004dc6f6942d42E
00000000 g     F .text._ZN42_$LT$$RF$T$u20$as$u20$core..fmt..Debug$GT$3fmt17h3b22989b59c13fbaE	00000028 _ZN42_$LT$$RF$T$u20$as$u20$core..fmt..Debug$GT$3fmt17h3b22989b59c13fbaE
00000000 g     F .text._ZN42_$LT$$RF$T$u20$as$u20$core..fmt..Debug$GT$3fmt17h671ab38b07ec6365E	00000028 _ZN42_$LT$$RF$T$u20$as$u20$core..fmt..Debug$GT$3fmt17h671ab38b07ec6365E
00000000 g     F .text._ZN42_$LT$$RF$T$u20$as$u20$core..fmt..Debug$GT$3fmt17h6b54cd33c0767134E	00000028 _ZN42_$LT$$RF$T$u20$as$u20$core..fmt..Debug$GT$3fmt17h6b54cd33c0767134E
00000000 g     F .text._ZN42_$LT$$RF$T$u20$as$u20$core..fmt..Debug$GT$3fmt17hb1b3a675057661aaE	00000028 _ZN42_$LT$$RF$T$u20$as$u20$core..fmt..Debug$GT$3fmt17hb1b3a675057661aaE
00000000 g     F .text._ZN42_$LT$$RF$T$u20$as$u20$core..fmt..Debug$GT$3fmt17hc304e62f7d6e24f0E	00000028 _ZN42_$LT$$RF$T$u20$as$u20$core..fmt..Debug$GT$3fmt17hc304e62f7d6e24f0E
00000000 g     F .text._ZN42_$LT$$RF$T$u20$as$u20$core..fmt..Debug$GT$3fmt17hc6de9a1edbf0526cE	00000028 _ZN42_$LT$$RF$T$u20$as$u20$core..fmt..Debug$GT$3fmt17hc6de9a1edbf0526cE
00000000 g     F .text._ZN42_$LT$$RF$T$u20$as$u20$core..fmt..Debug$GT$3fmt17hd087cf1e09c84ec6E	00000028 _ZN42_$LT$$RF$T$u20$as$u20$core..fmt..Debug$GT$3fmt17hd087cf1e09c84ec6E
00000000 g     F .text._ZN42_$LT$$RF$T$u20$as$u20$core..fmt..Debug$GT$3fmt17hd842842b034329e8E	00000028 _ZN42_$LT$$RF$T$u20$as$u20$core..fmt..Debug$GT$3fmt17hd842842b034329e8E
00000000 g     F .text._ZN42_$LT$$RF$T$u20$as$u20$core..fmt..Debug$GT$3fmt17he9da4ceea7923adcE	00000028 _ZN42_$LT$$RF$T$u20$as$u20$core..fmt..Debug$GT$3fmt17he9da4ceea7923adcE
00000000         *UND*	00000000 _ZN42_$LT$str$u20$as$u20$core..fmt..Display$GT$3fmt17h3a34938e29ce59dcE
00000000 g     F .text._ZN44_$LT$$RF$T$u20$as$u20$core..fmt..Display$GT$3fmt17h3783dcd2d2b56f30E	00000034 _ZN44_$LT$$RF$T$u20$as$u20$core..fmt..Display$GT$3fmt17h3783dcd2d2b56f30E
00000000 g     F .text._ZN4core3fmt10ArgumentV13new17h05d4954a4919dcdbE	00000032 _ZN4core3fmt10ArgumentV13new17h05d4954a4919dcdbE
00000000 g     F .text._ZN4core3fmt10ArgumentV13new17h47ed94b94e242b01E	00000032 _ZN4core3fmt10ArgumentV13new17h47ed94b94e242b01E
00000000         *UND*	00000000 .hidden _ZN4core3fmt3num50_$LT$impl$u20$core..fmt..Debug$u20$for$u20$i32$GT$3fmt17hbbb46498fb3ead3eE
00000000         *UND*	00000000 .hidden _ZN4core3fmt3num50_$LT$impl$u20$core..fmt..Debug$u20$for$u20$u16$GT$3fmt17h85fea0f7ac7209d6E
00000000         *UND*	00000000 _ZN4core3fmt3num55_$LT$impl$u20$core..fmt..LowerHex$u20$for$u20$usize$GT$3fmt17h562f60f4fbcc2e1dE
00000000         *UND*	00000000 _ZN4core3fmt9Formatter9alternate17hd09f58cee14df2eeE
00000000         *UND*	00000000 _ZN4core3mem7size_of17h033cda7c0b223844E
00000000         *UND*	00000000 _ZN4core3ptr123_$LT$impl$u20$core..fmt..Debug$u20$for$u20$unsafe$u20$extern$u20$$u22$C$u22$$u20$fn$LP$A$C$$u20$B$RP$$u20$.$GT$$u20$Ret$GT$3fmt17h178155da6feae1c2E
00000000         *UND*	00000000 _ZN4core3ptr123_$LT$impl$u20$core..fmt..Debug$u20$for$u20$unsafe$u20$extern$u20$$u22$C$u22$$u20$fn$LP$A$C$$u20$B$RP$$u20$.$GT$$u20$Ret$GT$3fmt17h56de6a03705e611bE
00000000         *UND*	00000000 _ZN4core3ptr123_$LT$impl$u20$core..fmt..Debug$u20$for$u20$unsafe$u20$extern$u20$$u22$C$u22$$u20$fn$LP$A$C$$u20$B$RP$$u20$.$GT$$u20$Ret$GT$3fmt17hb379141910f1648bE
00000000         *UND*	00000000 _ZN4core3ptr123_$LT$impl$u20$core..fmt..Debug$u20$for$u20$unsafe$u20$extern$u20$$u22$C$u22$$u20$fn$LP$A$C$$u20$B$RP$$u20$.$GT$$u20$Ret$GT$3fmt17hdfbd2c91d2484a13E
00000000         *UND*	00000000 _ZN4core3ptr132_$LT$impl$u20$core..fmt..Debug$u20$for$u20$unsafe$u20$extern$u20$$u22$C$u22$$u20$fn$LP$A$C$$u20$B$C$$u20$C$RP$$u20$.$GT$$u20$Ret$GT$3fmt17h85ffdd6b6d76f88cE
00000000         *UND*	00000000 _ZN4core3ptr132_$LT$impl$u20$core..fmt..Debug$u20$for$u20$unsafe$u20$extern$u20$$u22$C$u22$$u20$fn$LP$A$C$$u20$B$C$$u20$C$RP$$u20$.$GT$$u20$Ret$GT$3fmt17hb1a21e3cb766ebfbE
00000000         *UND*	00000000 _ZN4core3ptr132_$LT$impl$u20$core..fmt..Debug$u20$for$u20$unsafe$u20$extern$u20$$u22$C$u22$$u20$fn$LP$A$C$$u20$B$C$$u20$C$RP$$u20$.$GT$$u20$Ret$GT$3fmt17hbc1c20b4cae7961eE
00000000         *UND*	00000000 _ZN4core3ptr141_$LT$impl$u20$core..fmt..Debug$u20$for$u20$unsafe$u20$extern$u20$$u22$C$u22$$u20$fn$LP$A$C$$u20$B$C$$u20$C$C$$u20$D$RP$$u20$.$GT$$u20$Ret$GT$3fmt17h20bf7416cf5ef03cE
00000000 g     F .text._ZN54_$LT$$BP$const$u20$T$u20$as$u20$core..fmt..Pointer$GT$3fmt17he4f54e4c19abbcc9E	000000a2 _ZN54_$LT$$BP$const$u20$T$u20$as$u20$core..fmt..Pointer$GT$3fmt17he4f54e4c19abbcc9E



Disassembly of section .text._ZN42_$LT$$RF$T$u20$as$u20$core..fmt..Debug$GT$3fmt17h0c004dc6f6942d42E:

00000000 <_ZN42_$LT$$RF$T$u20$as$u20$core..fmt..Debug$GT$3fmt17h0c004dc6f6942d42E>:
_ZN42_$LT$$RF$T$u20$as$u20$core..fmt..Debug$GT$3fmt17h0c004dc6f6942d42E():
/rustc/50a0defd5a93523067ef239936cc2e0755220904/src/libcore/fmt/mod.rs:1914
   0:	b580      	push	{r7, lr}
   2:	b086      	sub	sp, #24
   4:	460a      	mov	r2, r1
   6:	4603      	mov	r3, r0
   8:	9004      	str	r0, [sp, #16]
   a:	9105      	str	r1, [sp, #20]
   c:	9804      	ldr	r0, [sp, #16]
   e:	6800      	ldr	r0, [r0, #0]
  10:	9905      	ldr	r1, [sp, #20]
  12:	9203      	str	r2, [sp, #12]
  14:	9302      	str	r3, [sp, #8]
  16:	f7ff fffe 	bl	0 <_ZN4core3fmt3num50_$LT$impl$u20$core..fmt..Debug$u20$for$u20$u16$GT$3fmt17h85fea0f7ac7209d6E>
  1a:	9001      	str	r0, [sp, #4]
  1c:	e7ff      	b.n	1e <_ZN42_$LT$$RF$T$u20$as$u20$core..fmt..Debug$GT$3fmt17h0c004dc6f6942d42E+0x1e>
  1e:	9801      	ldr	r0, [sp, #4]
  20:	f000 0001 	and.w	r0, r0, #1
  24:	b006      	add	sp, #24
  26:	bd80      	pop	{r7, pc}

Disassembly of section .text._ZN42_$LT$$RF$T$u20$as$u20$core..fmt..Debug$GT$3fmt17h3b22989b59c13fbaE:

00000000 <_ZN42_$LT$$RF$T$u20$as$u20$core..fmt..Debug$GT$3fmt17h3b22989b59c13fbaE>:
_ZN42_$LT$$RF$T$u20$as$u20$core..fmt..Debug$GT$3fmt17h3b22989b59c13fbaE():
/rustc/50a0defd5a93523067ef239936cc2e0755220904/src/libcore/fmt/mod.rs:1914
   0:	b580      	push	{r7, lr}
   2:	b086      	sub	sp, #24
   4:	460a      	mov	r2, r1
   6:	4603      	mov	r3, r0
   8:	9004      	str	r0, [sp, #16]
   a:	9105      	str	r1, [sp, #20]
   c:	9804      	ldr	r0, [sp, #16]
   e:	6800      	ldr	r0, [r0, #0]
  10:	9905      	ldr	r1, [sp, #20]
  12:	9203      	str	r2, [sp, #12]
  14:	9302      	str	r3, [sp, #8]
  16:	f7ff fffe 	bl	0 <_ZN4core3ptr132_$LT$impl$u20$core..fmt..Debug$u20$for$u20$unsafe$u20$extern$u20$$u22$C$u22$$u20$fn$LP$A$C$$u20$B$C$$u20$C$RP$$u20$.$GT$$u20$Ret$GT$3fmt17hb1a21e3cb766ebfbE>
  1a:	9001      	str	r0, [sp, #4]
  1c:	e7ff      	b.n	1e <_ZN42_$LT$$RF$T$u20$as$u20$core..fmt..Debug$GT$3fmt17h3b22989b59c13fbaE+0x1e>
  1e:	9801      	ldr	r0, [sp, #4]
  20:	f000 0001 	and.w	r0, r0, #1
  24:	b006      	add	sp, #24
  26:	bd80      	pop	{r7, pc}

Disassembly of section .text._ZN42_$LT$$RF$T$u20$as$u20$core..fmt..Debug$GT$3fmt17h671ab38b07ec6365E:

00000000 <_ZN42_$LT$$RF$T$u20$as$u20$core..fmt..Debug$GT$3fmt17h671ab38b07ec6365E>:
_ZN42_$LT$$RF$T$u20$as$u20$core..fmt..Debug$GT$3fmt17h671ab38b07ec6365E():
/rustc/50a0defd5a93523067ef239936cc2e0755220904/src/libcore/fmt/mod.rs:1914
   0:	b580      	push	{r7, lr}
   2:	b086      	sub	sp, #24
   4:	460a      	mov	r2, r1
   6:	4603      	mov	r3, r0
   8:	9004      	str	r0, [sp, #16]
   a:	9105      	str	r1, [sp, #20]
   c:	9804      	ldr	r0, [sp, #16]
   e:	6800      	ldr	r0, [r0, #0]
  10:	9905      	ldr	r1, [sp, #20]
  12:	9203      	str	r2, [sp, #12]
  14:	9302      	str	r3, [sp, #8]
  16:	f7ff fffe 	bl	0 <_ZN4core3ptr132_$LT$impl$u20$core..fmt..Debug$u20$for$u20$unsafe$u20$extern$u20$$u22$C$u22$$u20$fn$LP$A$C$$u20$B$C$$u20$C$RP$$u20$.$GT$$u20$Ret$GT$3fmt17hbc1c20b4cae7961eE>
  1a:	9001      	str	r0, [sp, #4]
  1c:	e7ff      	b.n	1e <_ZN42_$LT$$RF$T$u20$as$u20$core..fmt..Debug$GT$3fmt17h671ab38b07ec6365E+0x1e>
  1e:	9801      	ldr	r0, [sp, #4]
  20:	f000 0001 	and.w	r0, r0, #1
  24:	b006      	add	sp, #24
  26:	bd80      	pop	{r7, pc}

Disassembly of section .text._ZN42_$LT$$RF$T$u20$as$u20$core..fmt..Debug$GT$3fmt17h6b54cd33c0767134E:

00000000 <_ZN42_$LT$$RF$T$u20$as$u20$core..fmt..Debug$GT$3fmt17h6b54cd33c0767134E>:
_ZN42_$LT$$RF$T$u20$as$u20$core..fmt..Debug$GT$3fmt17h6b54cd33c0767134E():
/rustc/50a0defd5a93523067ef239936cc2e0755220904/src/libcore/fmt/mod.rs:1914
   0:	b580      	push	{r7, lr}
   2:	b086      	sub	sp, #24
   4:	460a      	mov	r2, r1
   6:	4603      	mov	r3, r0
   8:	9004      	str	r0, [sp, #16]
   a:	9105      	str	r1, [sp, #20]
   c:	9804      	ldr	r0, [sp, #16]
   e:	6800      	ldr	r0, [r0, #0]
  10:	9905      	ldr	r1, [sp, #20]
  12:	9203      	str	r2, [sp, #12]
  14:	9302      	str	r3, [sp, #8]
  16:	f7ff fffe 	bl	0 <_ZN4core3fmt3num50_$LT$impl$u20$core..fmt..Debug$u20$for$u20$i32$GT$3fmt17hbbb46498fb3ead3eE>
  1a:	9001      	str	r0, [sp, #4]
  1c:	e7ff      	b.n	1e <_ZN42_$LT$$RF$T$u20$as$u20$core..fmt..Debug$GT$3fmt17h6b54cd33c0767134E+0x1e>
  1e:	9801      	ldr	r0, [sp, #4]
  20:	f000 0001 	and.w	r0, r0, #1
  24:	b006      	add	sp, #24
  26:	bd80      	pop	{r7, pc}

Disassembly of section .text._ZN42_$LT$$RF$T$u20$as$u20$core..fmt..Debug$GT$3fmt17hb1b3a675057661aaE:

00000000 <_ZN42_$LT$$RF$T$u20$as$u20$core..fmt..Debug$GT$3fmt17hb1b3a675057661aaE>:
_ZN42_$LT$$RF$T$u20$as$u20$core..fmt..Debug$GT$3fmt17hb1b3a675057661aaE():
/rustc/50a0defd5a93523067ef239936cc2e0755220904/src/libcore/fmt/mod.rs:1914
   0:	b580      	push	{r7, lr}
   2:	b086      	sub	sp, #24
   4:	460a      	mov	r2, r1
   6:	4603      	mov	r3, r0
   8:	9004      	str	r0, [sp, #16]
   a:	9105      	str	r1, [sp, #20]
   c:	9804      	ldr	r0, [sp, #16]
   e:	6800      	ldr	r0, [r0, #0]
  10:	9905      	ldr	r1, [sp, #20]
  12:	9203      	str	r2, [sp, #12]
  14:	9302      	str	r3, [sp, #8]
  16:	f7ff fffe 	bl	0 <_ZN4core3ptr123_$LT$impl$u20$core..fmt..Debug$u20$for$u20$unsafe$u20$extern$u20$$u22$C$u22$$u20$fn$LP$A$C$$u20$B$RP$$u20$.$GT$$u20$Ret$GT$3fmt17h56de6a03705e611bE>
  1a:	9001      	str	r0, [sp, #4]
  1c:	e7ff      	b.n	1e <_ZN42_$LT$$RF$T$u20$as$u20$core..fmt..Debug$GT$3fmt17hb1b3a675057661aaE+0x1e>
  1e:	9801      	ldr	r0, [sp, #4]
  20:	f000 0001 	and.w	r0, r0, #1
  24:	b006      	add	sp, #24
  26:	bd80      	pop	{r7, pc}

Disassembly of section .text._ZN42_$LT$$RF$T$u20$as$u20$core..fmt..Debug$GT$3fmt17hc304e62f7d6e24f0E:

00000000 <_ZN42_$LT$$RF$T$u20$as$u20$core..fmt..Debug$GT$3fmt17hc304e62f7d6e24f0E>:
_ZN42_$LT$$RF$T$u20$as$u20$core..fmt..Debug$GT$3fmt17hc304e62f7d6e24f0E():
/rustc/50a0defd5a93523067ef239936cc2e0755220904/src/libcore/fmt/mod.rs:1914
   0:	b580      	push	{r7, lr}
   2:	b086      	sub	sp, #24
   4:	460a      	mov	r2, r1
   6:	4603      	mov	r3, r0
   8:	9004      	str	r0, [sp, #16]
   a:	9105      	str	r1, [sp, #20]
   c:	9804      	ldr	r0, [sp, #16]
   e:	6800      	ldr	r0, [r0, #0]
  10:	9905      	ldr	r1, [sp, #20]
  12:	9203      	str	r2, [sp, #12]
  14:	9302      	str	r3, [sp, #8]
  16:	f7ff fffe 	bl	0 <_ZN4core3ptr123_$LT$impl$u20$core..fmt..Debug$u20$for$u20$unsafe$u20$extern$u20$$u22$C$u22$$u20$fn$LP$A$C$$u20$B$RP$$u20$.$GT$$u20$Ret$GT$3fmt17hb379141910f1648bE>
  1a:	9001      	str	r0, [sp, #4]
  1c:	e7ff      	b.n	1e <_ZN42_$LT$$RF$T$u20$as$u20$core..fmt..Debug$GT$3fmt17hc304e62f7d6e24f0E+0x1e>
  1e:	9801      	ldr	r0, [sp, #4]
  20:	f000 0001 	and.w	r0, r0, #1
  24:	b006      	add	sp, #24
  26:	bd80      	pop	{r7, pc}

Disassembly of section .text._ZN42_$LT$$RF$T$u20$as$u20$core..fmt..Debug$GT$3fmt17hc6de9a1edbf0526cE:

00000000 <_ZN42_$LT$$RF$T$u20$as$u20$core..fmt..Debug$GT$3fmt17hc6de9a1edbf0526cE>:
_ZN42_$LT$$RF$T$u20$as$u20$core..fmt..Debug$GT$3fmt17hc6de9a1edbf0526cE():
/rustc/50a0defd5a93523067ef239936cc2e0755220904/src/libcore/fmt/mod.rs:1914
   0:	b580      	push	{r7, lr}
   2:	b086      	sub	sp, #24
   4:	460a      	mov	r2, r1
   6:	4603      	mov	r3, r0
   8:	9004      	str	r0, [sp, #16]
   a:	9105      	str	r1, [sp, #20]
   c:	9804      	ldr	r0, [sp, #16]
   e:	6800      	ldr	r0, [r0, #0]
  10:	9905      	ldr	r1, [sp, #20]
  12:	9203      	str	r2, [sp, #12]
  14:	9302      	str	r3, [sp, #8]
  16:	f7ff fffe 	bl	0 <_ZN4core3ptr141_$LT$impl$u20$core..fmt..Debug$u20$for$u20$unsafe$u20$extern$u20$$u22$C$u22$$u20$fn$LP$A$C$$u20$B$C$$u20$C$C$$u20$D$RP$$u20$.$GT$$u20$Ret$GT$3fmt17h20bf7416cf5ef03cE>
  1a:	9001      	str	r0, [sp, #4]
  1c:	e7ff      	b.n	1e <_ZN42_$LT$$RF$T$u20$as$u20$core..fmt..Debug$GT$3fmt17hc6de9a1edbf0526cE+0x1e>
  1e:	9801      	ldr	r0, [sp, #4]
  20:	f000 0001 	and.w	r0, r0, #1
  24:	b006      	add	sp, #24
  26:	bd80      	pop	{r7, pc}

Disassembly of section .text._ZN42_$LT$$RF$T$u20$as$u20$core..fmt..Debug$GT$3fmt17hd087cf1e09c84ec6E:

00000000 <_ZN42_$LT$$RF$T$u20$as$u20$core..fmt..Debug$GT$3fmt17hd087cf1e09c84ec6E>:
_ZN42_$LT$$RF$T$u20$as$u20$core..fmt..Debug$GT$3fmt17hd087cf1e09c84ec6E():
/rustc/50a0defd5a93523067ef239936cc2e0755220904/src/libcore/fmt/mod.rs:1914
   0:	b580      	push	{r7, lr}
   2:	b086      	sub	sp, #24
   4:	460a      	mov	r2, r1
   6:	4603      	mov	r3, r0
   8:	9004      	str	r0, [sp, #16]
   a:	9105      	str	r1, [sp, #20]
   c:	9804      	ldr	r0, [sp, #16]
   e:	6800      	ldr	r0, [r0, #0]
  10:	9905      	ldr	r1, [sp, #20]
  12:	9203      	str	r2, [sp, #12]
  14:	9302      	str	r3, [sp, #8]
  16:	f7ff fffe 	bl	0 <_ZN4core3ptr123_$LT$impl$u20$core..fmt..Debug$u20$for$u20$unsafe$u20$extern$u20$$u22$C$u22$$u20$fn$LP$A$C$$u20$B$RP$$u20$.$GT$$u20$Ret$GT$3fmt17hdfbd2c91d2484a13E>
  1a:	9001      	str	r0, [sp, #4]
  1c:	e7ff      	b.n	1e <_ZN42_$LT$$RF$T$u20$as$u20$core..fmt..Debug$GT$3fmt17hd087cf1e09c84ec6E+0x1e>
  1e:	9801      	ldr	r0, [sp, #4]
  20:	f000 0001 	and.w	r0, r0, #1
  24:	b006      	add	sp, #24
  26:	bd80      	pop	{r7, pc}

Disassembly of section .text._ZN42_$LT$$RF$T$u20$as$u20$core..fmt..Debug$GT$3fmt17hd842842b034329e8E:

00000000 <_ZN42_$LT$$RF$T$u20$as$u20$core..fmt..Debug$GT$3fmt17hd842842b034329e8E>:
_ZN42_$LT$$RF$T$u20$as$u20$core..fmt..Debug$GT$3fmt17hd842842b034329e8E():
/rustc/50a0defd5a93523067ef239936cc2e0755220904/src/libcore/fmt/mod.rs:1914
   0:	b580      	push	{r7, lr}
   2:	b086      	sub	sp, #24
   4:	460a      	mov	r2, r1
   6:	4603      	mov	r3, r0
   8:	9004      	str	r0, [sp, #16]
   a:	9105      	str	r1, [sp, #20]
   c:	9804      	ldr	r0, [sp, #16]
   e:	6800      	ldr	r0, [r0, #0]
  10:	9905      	ldr	r1, [sp, #20]
  12:	9203      	str	r2, [sp, #12]
  14:	9302      	str	r3, [sp, #8]
  16:	f7ff fffe 	bl	0 <_ZN4core3ptr132_$LT$impl$u20$core..fmt..Debug$u20$for$u20$unsafe$u20$extern$u20$$u22$C$u22$$u20$fn$LP$A$C$$u20$B$C$$u20$C$RP$$u20$.$GT$$u20$Ret$GT$3fmt17h85ffdd6b6d76f88cE>
  1a:	9001      	str	r0, [sp, #4]
  1c:	e7ff      	b.n	1e <_ZN42_$LT$$RF$T$u20$as$u20$core..fmt..Debug$GT$3fmt17hd842842b034329e8E+0x1e>
  1e:	9801      	ldr	r0, [sp, #4]
  20:	f000 0001 	and.w	r0, r0, #1
  24:	b006      	add	sp, #24
  26:	bd80      	pop	{r7, pc}

Disassembly of section .text._ZN42_$LT$$RF$T$u20$as$u20$core..fmt..Debug$GT$3fmt17he9da4ceea7923adcE:

00000000 <_ZN42_$LT$$RF$T$u20$as$u20$core..fmt..Debug$GT$3fmt17he9da4ceea7923adcE>:
_ZN42_$LT$$RF$T$u20$as$u20$core..fmt..Debug$GT$3fmt17he9da4ceea7923adcE():
/rustc/50a0defd5a93523067ef239936cc2e0755220904/src/libcore/fmt/mod.rs:1914
   0:	b580      	push	{r7, lr}
   2:	b086      	sub	sp, #24
   4:	460a      	mov	r2, r1
   6:	4603      	mov	r3, r0
   8:	9004      	str	r0, [sp, #16]
   a:	9105      	str	r1, [sp, #20]
   c:	9804      	ldr	r0, [sp, #16]
   e:	6800      	ldr	r0, [r0, #0]
  10:	9905      	ldr	r1, [sp, #20]
  12:	9203      	str	r2, [sp, #12]
  14:	9302      	str	r3, [sp, #8]
  16:	f7ff fffe 	bl	0 <_ZN4core3ptr123_$LT$impl$u20$core..fmt..Debug$u20$for$u20$unsafe$u20$extern$u20$$u22$C$u22$$u20$fn$LP$A$C$$u20$B$RP$$u20$.$GT$$u20$Ret$GT$3fmt17h178155da6feae1c2E>
  1a:	9001      	str	r0, [sp, #4]
  1c:	e7ff      	b.n	1e <_ZN42_$LT$$RF$T$u20$as$u20$core..fmt..Debug$GT$3fmt17he9da4ceea7923adcE+0x1e>
  1e:	9801      	ldr	r0, [sp, #4]
  20:	f000 0001 	and.w	r0, r0, #1
  24:	b006      	add	sp, #24
  26:	bd80      	pop	{r7, pc}

Disassembly of section .text._ZN44_$LT$$RF$T$u20$as$u20$core..fmt..Display$GT$3fmt17h3783dcd2d2b56f30E:

00000000 <_ZN44_$LT$$RF$T$u20$as$u20$core..fmt..Display$GT$3fmt17h3783dcd2d2b56f30E>:
_ZN44_$LT$$RF$T$u20$as$u20$core..fmt..Display$GT$3fmt17h3783dcd2d2b56f30E():
/rustc/50a0defd5a93523067ef239936cc2e0755220904/src/libcore/fmt/mod.rs:1914
   0:	b580      	push	{r7, lr}
   2:	b086      	sub	sp, #24
   4:	460a      	mov	r2, r1
   6:	4603      	mov	r3, r0
   8:	9004      	str	r0, [sp, #16]
   a:	9105      	str	r1, [sp, #20]
   c:	9804      	ldr	r0, [sp, #16]
   e:	6801      	ldr	r1, [r0, #0]
  10:	6840      	ldr	r0, [r0, #4]
  12:	f8dd c014 	ldr.w	ip, [sp, #20]
  16:	9003      	str	r0, [sp, #12]
  18:	4608      	mov	r0, r1
  1a:	9903      	ldr	r1, [sp, #12]
  1c:	9202      	str	r2, [sp, #8]
  1e:	4662      	mov	r2, ip
  20:	9301      	str	r3, [sp, #4]
  22:	f7ff fffe 	bl	0 <_ZN42_$LT$str$u20$as$u20$core..fmt..Display$GT$3fmt17h3a34938e29ce59dcE>
  26:	9000      	str	r0, [sp, #0]
  28:	e7ff      	b.n	2a <_ZN44_$LT$$RF$T$u20$as$u20$core..fmt..Display$GT$3fmt17h3783dcd2d2b56f30E+0x2a>
  2a:	9800      	ldr	r0, [sp, #0]
  2c:	f000 0001 	and.w	r0, r0, #1
  30:	b006      	add	sp, #24
  32:	bd80      	pop	{r7, pc}

Disassembly of section .text._ZN4core3fmt10ArgumentV13new17h05d4954a4919dcdbE:

00000000 <_ZN4core3fmt10ArgumentV13new17h05d4954a4919dcdbE>:
_ZN4core3fmt10ArgumentV13new17h05d4954a4919dcdbE():
/rustc/50a0defd5a93523067ef239936cc2e0755220904/src/libcore/fmt/mod.rs:278
   0:	b08a      	sub	sp, #40	; 0x28
   2:	460a      	mov	r2, r1
   4:	4603      	mov	r3, r0
   6:	9004      	str	r0, [sp, #16]
   8:	9105      	str	r1, [sp, #20]
/rustc/50a0defd5a93523067ef239936cc2e0755220904/src/libcore/fmt/mod.rs:282
   a:	9805      	ldr	r0, [sp, #20]
   c:	9008      	str	r0, [sp, #32]
   e:	9808      	ldr	r0, [sp, #32]
  10:	9203      	str	r2, [sp, #12]
  12:	9302      	str	r3, [sp, #8]
  14:	9001      	str	r0, [sp, #4]
  16:	e7ff      	b.n	18 <_ZN4core3fmt10ArgumentV13new17h05d4954a4919dcdbE+0x18>
/rustc/50a0defd5a93523067ef239936cc2e0755220904/src/libcore/fmt/mod.rs:283
  18:	9804      	ldr	r0, [sp, #16]
  1a:	9009      	str	r0, [sp, #36]	; 0x24
  1c:	9809      	ldr	r0, [sp, #36]	; 0x24
  1e:	9000      	str	r0, [sp, #0]
  20:	e7ff      	b.n	22 <_ZN4core3fmt10ArgumentV13new17h05d4954a4919dcdbE+0x22>
/rustc/50a0defd5a93523067ef239936cc2e0755220904/src/libcore/fmt/mod.rs:281
  22:	9800      	ldr	r0, [sp, #0]
  24:	9006      	str	r0, [sp, #24]
  26:	9901      	ldr	r1, [sp, #4]
  28:	9107      	str	r1, [sp, #28]
/rustc/50a0defd5a93523067ef239936cc2e0755220904/src/libcore/fmt/mod.rs:286
  2a:	9806      	ldr	r0, [sp, #24]
  2c:	9907      	ldr	r1, [sp, #28]
  2e:	b00a      	add	sp, #40	; 0x28
  30:	4770      	bx	lr

Disassembly of section .text._ZN4core3fmt10ArgumentV13new17h47ed94b94e242b01E:

00000000 <_ZN4core3fmt10ArgumentV13new17h47ed94b94e242b01E>:
_ZN4core3fmt10ArgumentV13new17h47ed94b94e242b01E():
/rustc/50a0defd5a93523067ef239936cc2e0755220904/src/libcore/fmt/mod.rs:278
   0:	b08a      	sub	sp, #40	; 0x28
   2:	460a      	mov	r2, r1
   4:	4603      	mov	r3, r0
   6:	9004      	str	r0, [sp, #16]
   8:	9105      	str	r1, [sp, #20]
/rustc/50a0defd5a93523067ef239936cc2e0755220904/src/libcore/fmt/mod.rs:282
   a:	9805      	ldr	r0, [sp, #20]
   c:	9008      	str	r0, [sp, #32]
   e:	9808      	ldr	r0, [sp, #32]
  10:	9203      	str	r2, [sp, #12]
  12:	9302      	str	r3, [sp, #8]
  14:	9001      	str	r0, [sp, #4]
  16:	e7ff      	b.n	18 <_ZN4core3fmt10ArgumentV13new17h47ed94b94e242b01E+0x18>
/rustc/50a0defd5a93523067ef239936cc2e0755220904/src/libcore/fmt/mod.rs:283
  18:	9804      	ldr	r0, [sp, #16]
  1a:	9009      	str	r0, [sp, #36]	; 0x24
  1c:	9809      	ldr	r0, [sp, #36]	; 0x24
  1e:	9000      	str	r0, [sp, #0]
  20:	e7ff      	b.n	22 <_ZN4core3fmt10ArgumentV13new17h47ed94b94e242b01E+0x22>
/rustc/50a0defd5a93523067ef239936cc2e0755220904/src/libcore/fmt/mod.rs:281
  22:	9800      	ldr	r0, [sp, #0]
  24:	9006      	str	r0, [sp, #24]
  26:	9901      	ldr	r1, [sp, #4]
  28:	9107      	str	r1, [sp, #28]
/rustc/50a0defd5a93523067ef239936cc2e0755220904/src/libcore/fmt/mod.rs:286
  2a:	9806      	ldr	r0, [sp, #24]
  2c:	9907      	ldr	r1, [sp, #28]
  2e:	b00a      	add	sp, #40	; 0x28
  30:	4770      	bx	lr

Disassembly of section .text._ZN54_$LT$$BP$const$u20$T$u20$as$u20$core..fmt..Pointer$GT$3fmt17he4f54e4c19abbcc9E:

00000000 <_ZN54_$LT$$BP$const$u20$T$u20$as$u20$core..fmt..Pointer$GT$3fmt17he4f54e4c19abbcc9E>:
_ZN54_$LT$$BP$const$u20$T$u20$as$u20$core..fmt..Pointer$GT$3fmt17he4f54e4c19abbcc9E():
/rustc/50a0defd5a93523067ef239936cc2e0755220904/src/libcore/fmt/mod.rs:2007
   0:	b580      	push	{r7, lr}
   2:	b08c      	sub	sp, #48	; 0x30
   4:	460a      	mov	r2, r1
   6:	4603      	mov	r3, r0
   8:	9005      	str	r0, [sp, #20]
   a:	9106      	str	r1, [sp, #24]
/rustc/50a0defd5a93523067ef239936cc2e0755220904/src/libcore/fmt/mod.rs:2008
   c:	9806      	ldr	r0, [sp, #24]
   e:	6881      	ldr	r1, [r0, #8]
  10:	68c0      	ldr	r0, [r0, #12]
  12:	9107      	str	r1, [sp, #28]
  14:	9008      	str	r0, [sp, #32]
/rustc/50a0defd5a93523067ef239936cc2e0755220904/src/libcore/fmt/mod.rs:2009
  16:	9806      	ldr	r0, [sp, #24]
  18:	6800      	ldr	r0, [r0, #0]
  1a:	9009      	str	r0, [sp, #36]	; 0x24
/rustc/50a0defd5a93523067ef239936cc2e0755220904/src/libcore/fmt/mod.rs:2015
  1c:	9806      	ldr	r0, [sp, #24]
  1e:	9204      	str	r2, [sp, #16]
  20:	9303      	str	r3, [sp, #12]
  22:	f7ff fffe 	bl	0 <_ZN4core3fmt9Formatter9alternate17hd09f58cee14df2eeE>
  26:	9002      	str	r0, [sp, #8]
  28:	e7ff      	b.n	2a <_ZN54_$LT$$BP$const$u20$T$u20$as$u20$core..fmt..Pointer$GT$3fmt17he4f54e4c19abbcc9E+0x2a>
  2a:	9802      	ldr	r0, [sp, #8]
  2c:	07c1      	lsls	r1, r0, #31
  2e:	2900      	cmp	r1, #0
  30:	d01c      	beq.n	6c <_ZN54_$LT$$BP$const$u20$T$u20$as$u20$core..fmt..Pointer$GT$3fmt17he4f54e4c19abbcc9E+0x6c>
  32:	e7ff      	b.n	34 <_ZN54_$LT$$BP$const$u20$T$u20$as$u20$core..fmt..Pointer$GT$3fmt17he4f54e4c19abbcc9E+0x34>
/rustc/50a0defd5a93523067ef239936cc2e0755220904/src/libcore/fmt/mod.rs:2016
  34:	9806      	ldr	r0, [sp, #24]
  36:	6801      	ldr	r1, [r0, #0]
  38:	f041 0108 	orr.w	r1, r1, #8
  3c:	6001      	str	r1, [r0, #0]
/rustc/50a0defd5a93523067ef239936cc2e0755220904/src/libcore/fmt/mod.rs:2018
  3e:	9806      	ldr	r0, [sp, #24]
  40:	6880      	ldr	r0, [r0, #8]
  42:	2800      	cmp	r0, #0
  44:	d112      	bne.n	6c <_ZN54_$LT$$BP$const$u20$T$u20$as$u20$core..fmt..Pointer$GT$3fmt17he4f54e4c19abbcc9E+0x6c>
  46:	e7ff      	b.n	48 <_ZN54_$LT$$BP$const$u20$T$u20$as$u20$core..fmt..Pointer$GT$3fmt17he4f54e4c19abbcc9E+0x48>
/rustc/50a0defd5a93523067ef239936cc2e0755220904/src/libcore/fmt/mod.rs:2019
  48:	f7ff fffe 	bl	0 <_ZN4core3mem7size_of17h033cda7c0b223844E>
  4c:	9001      	str	r0, [sp, #4]
  4e:	e7ff      	b.n	50 <_ZN54_$LT$$BP$const$u20$T$u20$as$u20$core..fmt..Pointer$GT$3fmt17he4f54e4c19abbcc9E+0x50>
  50:	9801      	ldr	r0, [sp, #4]
  52:	00c1      	lsls	r1, r0, #3
  54:	9100      	str	r1, [sp, #0]
  56:	e7ff      	b.n	58 <_ZN54_$LT$$BP$const$u20$T$u20$as$u20$core..fmt..Pointer$GT$3fmt17he4f54e4c19abbcc9E+0x58>
  58:	2002      	movs	r0, #2
  5a:	9900      	ldr	r1, [sp, #0]
  5c:	eb00 0091 	add.w	r0, r0, r1, lsr #2
  60:	9a06      	ldr	r2, [sp, #24]
  62:	60d0      	str	r0, [r2, #12]
  64:	9806      	ldr	r0, [sp, #24]
  66:	2201      	movs	r2, #1
  68:	6082      	str	r2, [r0, #8]
/rustc/50a0defd5a93523067ef239936cc2e0755220904/src/libcore/fmt/mod.rs:2018
  6a:	e7ff      	b.n	6c <_ZN54_$LT$$BP$const$u20$T$u20$as$u20$core..fmt..Pointer$GT$3fmt17he4f54e4c19abbcc9E+0x6c>
/rustc/50a0defd5a93523067ef239936cc2e0755220904/src/libcore/fmt/mod.rs:2022
  6c:	9806      	ldr	r0, [sp, #24]
  6e:	6801      	ldr	r1, [r0, #0]
  70:	f041 0104 	orr.w	r1, r1, #4
  74:	6001      	str	r1, [r0, #0]
/rustc/50a0defd5a93523067ef239936cc2e0755220904/src/libcore/fmt/mod.rs:2024
  76:	9805      	ldr	r0, [sp, #20]
  78:	6800      	ldr	r0, [r0, #0]
  7a:	900b      	str	r0, [sp, #44]	; 0x2c
  7c:	9906      	ldr	r1, [sp, #24]
  7e:	a80b      	add	r0, sp, #44	; 0x2c
  80:	f7ff fffe 	bl	0 <_ZN4core3fmt3num55_$LT$impl$u20$core..fmt..LowerHex$u20$for$u20$usize$GT$3fmt17h562f60f4fbcc2e1dE>
  84:	f88d 002b 	strb.w	r0, [sp, #43]	; 0x2b
  88:	e7ff      	b.n	8a <_ZN54_$LT$$BP$const$u20$T$u20$as$u20$core..fmt..Pointer$GT$3fmt17he4f54e4c19abbcc9E+0x8a>
/rustc/50a0defd5a93523067ef239936cc2e0755220904/src/libcore/fmt/mod.rs:2026
  8a:	9807      	ldr	r0, [sp, #28]
  8c:	9908      	ldr	r1, [sp, #32]
  8e:	9a06      	ldr	r2, [sp, #24]
  90:	6090      	str	r0, [r2, #8]
  92:	60d1      	str	r1, [r2, #12]
/rustc/50a0defd5a93523067ef239936cc2e0755220904/src/libcore/fmt/mod.rs:2027
  94:	9809      	ldr	r0, [sp, #36]	; 0x24
  96:	9906      	ldr	r1, [sp, #24]
  98:	6008      	str	r0, [r1, #0]
/rustc/50a0defd5a93523067ef239936cc2e0755220904/src/libcore/fmt/mod.rs:2029
  9a:	f89d 002b 	ldrb.w	r0, [sp, #43]	; 0x2b
/rustc/50a0defd5a93523067ef239936cc2e0755220904/src/libcore/fmt/mod.rs:2030
  9e:	b00c      	add	sp, #48	; 0x30
  a0:	bd80      	pop	{r7, pc}

mylib-ac95891f38e7979c.qtt5z7aexjho3ih.rcgu.o:     file format elf32-littlearm

SYMBOL TABLE:
00000000 l    df *ABS*	00000000 qtt5z7aexjho3ih
00000000 l       .debug_str	00000000 
00000041 l       .debug_str	00000000 
0000004c l       .debug_str	00000000 
0000006f l       .debug_str	00000000 
00000074 l       .debug_str	00000000 
0000007b l       .debug_str	00000000 
0000007e l       .debug_str	00000000 
00000081 l       .debug_str	00000000 
00000085 l       .debug_str	00000000 
0000008c l       .debug_str	00000000 
00000090 l       .debug_str	00000000 
0000009b l       .debug_str	00000000 
000000a6 l       .debug_str	00000000 
000000ad l       .debug_str	00000000 
000000b1 l       .debug_str	00000000 
000000b4 l       .debug_str	00000000 
000000b7 l       .debug_str	00000000 
000000bc l       .debug_str	00000000 
000000c2 l       .debug_str	00000000 
000000c9 l       .debug_str	00000000 
000000d1 l       .debug_str	00000000 
000000db l       .debug_str	00000000 
000000e4 l       .debug_str	00000000 
000000fb l       .debug_str	00000000 
000000fd l       .debug_str	00000000 
00000145 l       .debug_str	00000000 
00000161 l       .debug_str	00000000 
000001b1 l       .debug_str	00000000 
000001c8 l       .debug_str	00000000 
0000021a l       .debug_str	00000000 
0000026e l       .debug_str	00000000 
00000273 l       .debug_str	00000000 
0000028b l       .debug_str	00000000 
000002a4 l       .debug_str	00000000 
000002a6 l       .debug_str	00000000 
000002ac l       .debug_str	00000000 
000002b0 l       .debug_str	00000000 
000002b5 l       .debug_str	00000000 
000002ba l       .debug_str	00000000 
000002c0 l       .debug_str	00000000 
000002c6 l       .debug_str	00000000 
000002cd l       .debug_str	00000000 
000002d2 l       .debug_str	00000000 
000002d8 l       .debug_str	00000000 
000002dd l       .debug_str	00000000 
000002e1 l       .debug_str	00000000 
000002ef l       .debug_str	00000000 
000002f9 l       .debug_str	00000000 
000002fd l       .debug_str	00000000 
00000305 l       .debug_str	00000000 
0000030d l       .debug_str	00000000 
00000314 l       .debug_str	00000000 
00000328 l       .debug_str	00000000 
00000334 l       .debug_str	00000000 
0000033f l       .debug_str	00000000 
00000346 l       .debug_str	00000000 
0000034c l       .debug_str	00000000 
00000350 l       .debug_str	00000000 
00000356 l       .debug_str	00000000 
0000035c l       .debug_str	00000000 
0000035f l       .debug_str	00000000 
0000036e l       .debug_str	00000000 
00000375 l       .debug_str	00000000 
00000379 l       .debug_str	00000000 
00000382 l       .debug_str	00000000 
0000038e l       .debug_str	00000000 
000003a7 l       .debug_str	00000000 
000003ac l       .debug_str	00000000 
000003bd l       .debug_str	00000000 
000003c7 l       .debug_str	00000000 
00000425 l       .debug_str	00000000 
00000430 l       .debug_str	00000000 
0000044d l       .debug_str	00000000 
00000451 l       .debug_str	00000000 
00000459 l       .debug_str	00000000 
00000470 l       .debug_str	00000000 
00000494 l       .debug_str	00000000 
000004b0 l       .debug_str	00000000 
000004b5 l       .debug_str	00000000 
000004be l       .debug_str	00000000 
000004c5 l       .debug_str	00000000 
000004de l       .debug_str	00000000 
000004e8 l       .debug_str	00000000 
00000502 l       .debug_str	00000000 
0000051b l       .debug_str	00000000 
00000535 l       .debug_str	00000000 
0000053f l       .debug_str	00000000 
00000549 l       .debug_str	00000000 
00000000 l    d  .text._ZN42_$LT$$RF$T$u20$as$u20$core..fmt..Debug$GT$3fmt17h1c0d5056315a9ef1E	00000000 .text._ZN42_$LT$$RF$T$u20$as$u20$core..fmt..Debug$GT$3fmt17h1c0d5056315a9ef1E
00000000 l    d  .text._ZN50_$LT$$BP$mut$u20$T$u20$as$u20$core..fmt..Debug$GT$3fmt17he6fad86a2695427eE	00000000 .text._ZN50_$LT$$BP$mut$u20$T$u20$as$u20$core..fmt..Debug$GT$3fmt17he6fad86a2695427eE
00000000 l    d  .text._ZN52_$LT$$BP$mut$u20$T$u20$as$u20$core..fmt..Pointer$GT$3fmt17hb121d45b1b1c1ac1E	00000000 .text._ZN52_$LT$$BP$mut$u20$T$u20$as$u20$core..fmt..Pointer$GT$3fmt17hb121d45b1b1c1ac1E
00000000 l    d  .text._ZN54_$LT$$BP$const$u20$T$u20$as$u20$core..fmt..Pointer$GT$3fmt17h2a0c6005f019d940E	00000000 .text._ZN54_$LT$$BP$const$u20$T$u20$as$u20$core..fmt..Pointer$GT$3fmt17h2a0c6005f019d940E
00000000 l    d  .debug_abbrev	00000000 .debug_abbrev
00000000 l    d  .debug_info	00000000 .debug_info
00000000 l    d  .debug_ranges	00000000 .debug_ranges
00000000 l    d  .debug_frame	00000000 .debug_frame
00000000 l    d  .debug_line	00000000 .debug_line
00000000 g     F .text._ZN42_$LT$$RF$T$u20$as$u20$core..fmt..Debug$GT$3fmt17h1c0d5056315a9ef1E	00000028 _ZN42_$LT$$RF$T$u20$as$u20$core..fmt..Debug$GT$3fmt17h1c0d5056315a9ef1E
00000000         *UND*	00000000 _ZN4core3fmt3num55_$LT$impl$u20$core..fmt..LowerHex$u20$for$u20$usize$GT$3fmt17h562f60f4fbcc2e1dE
00000000         *UND*	00000000 _ZN4core3fmt9Formatter9alternate17hd09f58cee14df2eeE
00000000         *UND*	00000000 _ZN4core3mem7size_of17h033cda7c0b223844E
00000000 g     F .text._ZN50_$LT$$BP$mut$u20$T$u20$as$u20$core..fmt..Debug$GT$3fmt17he6fad86a2695427eE	00000026 _ZN50_$LT$$BP$mut$u20$T$u20$as$u20$core..fmt..Debug$GT$3fmt17he6fad86a2695427eE
00000000 g     F .text._ZN52_$LT$$BP$mut$u20$T$u20$as$u20$core..fmt..Pointer$GT$3fmt17hb121d45b1b1c1ac1E	0000002c _ZN52_$LT$$BP$mut$u20$T$u20$as$u20$core..fmt..Pointer$GT$3fmt17hb121d45b1b1c1ac1E
00000000 g     F .text._ZN54_$LT$$BP$const$u20$T$u20$as$u20$core..fmt..Pointer$GT$3fmt17h2a0c6005f019d940E	000000a2 _ZN54_$LT$$BP$const$u20$T$u20$as$u20$core..fmt..Pointer$GT$3fmt17h2a0c6005f019d940E



Disassembly of section .text._ZN42_$LT$$RF$T$u20$as$u20$core..fmt..Debug$GT$3fmt17h1c0d5056315a9ef1E:

00000000 <_ZN42_$LT$$RF$T$u20$as$u20$core..fmt..Debug$GT$3fmt17h1c0d5056315a9ef1E>:
_ZN42_$LT$$RF$T$u20$as$u20$core..fmt..Debug$GT$3fmt17h1c0d5056315a9ef1E():
/rustc/50a0defd5a93523067ef239936cc2e0755220904/src/libcore/fmt/mod.rs:1914
   0:	b580      	push	{r7, lr}
   2:	b086      	sub	sp, #24
   4:	460a      	mov	r2, r1
   6:	4603      	mov	r3, r0
   8:	9004      	str	r0, [sp, #16]
   a:	9105      	str	r1, [sp, #20]
   c:	9804      	ldr	r0, [sp, #16]
   e:	6800      	ldr	r0, [r0, #0]
  10:	9905      	ldr	r1, [sp, #20]
  12:	9203      	str	r2, [sp, #12]
  14:	9302      	str	r3, [sp, #8]
  16:	f7ff fffe 	bl	0 <_ZN42_$LT$$RF$T$u20$as$u20$core..fmt..Debug$GT$3fmt17h1c0d5056315a9ef1E>
  1a:	9001      	str	r0, [sp, #4]
  1c:	e7ff      	b.n	1e <_ZN42_$LT$$RF$T$u20$as$u20$core..fmt..Debug$GT$3fmt17h1c0d5056315a9ef1E+0x1e>
  1e:	9801      	ldr	r0, [sp, #4]
  20:	f000 0001 	and.w	r0, r0, #1
  24:	b006      	add	sp, #24
  26:	bd80      	pop	{r7, pc}

Disassembly of section .text._ZN50_$LT$$BP$mut$u20$T$u20$as$u20$core..fmt..Debug$GT$3fmt17he6fad86a2695427eE:

00000000 <_ZN50_$LT$$BP$mut$u20$T$u20$as$u20$core..fmt..Debug$GT$3fmt17he6fad86a2695427eE>:
_ZN50_$LT$$BP$mut$u20$T$u20$as$u20$core..fmt..Debug$GT$3fmt17he6fad86a2695427eE():
/rustc/50a0defd5a93523067ef239936cc2e0755220904/src/libcore/fmt/mod.rs:2062
   0:	b580      	push	{r7, lr}
   2:	b086      	sub	sp, #24
   4:	460a      	mov	r2, r1
   6:	4603      	mov	r3, r0
   8:	9004      	str	r0, [sp, #16]
   a:	9105      	str	r1, [sp, #20]
   c:	9804      	ldr	r0, [sp, #16]
   e:	9905      	ldr	r1, [sp, #20]
  10:	9203      	str	r2, [sp, #12]
  12:	9302      	str	r3, [sp, #8]
  14:	f7ff fffe 	bl	0 <_ZN50_$LT$$BP$mut$u20$T$u20$as$u20$core..fmt..Debug$GT$3fmt17he6fad86a2695427eE>
  18:	9001      	str	r0, [sp, #4]
  1a:	e7ff      	b.n	1c <_ZN50_$LT$$BP$mut$u20$T$u20$as$u20$core..fmt..Debug$GT$3fmt17he6fad86a2695427eE+0x1c>
  1c:	9801      	ldr	r0, [sp, #4]
  1e:	f000 0001 	and.w	r0, r0, #1
  22:	b006      	add	sp, #24
  24:	bd80      	pop	{r7, pc}

Disassembly of section .text._ZN52_$LT$$BP$mut$u20$T$u20$as$u20$core..fmt..Pointer$GT$3fmt17hb121d45b1b1c1ac1E:

00000000 <_ZN52_$LT$$BP$mut$u20$T$u20$as$u20$core..fmt..Pointer$GT$3fmt17hb121d45b1b1c1ac1E>:
_ZN52_$LT$$BP$mut$u20$T$u20$as$u20$core..fmt..Pointer$GT$3fmt17hb121d45b1b1c1ac1E():
/rustc/50a0defd5a93523067ef239936cc2e0755220904/src/libcore/fmt/mod.rs:2035
   0:	b580      	push	{r7, lr}
   2:	b086      	sub	sp, #24
   4:	460a      	mov	r2, r1
   6:	4603      	mov	r3, r0
   8:	9003      	str	r0, [sp, #12]
   a:	9104      	str	r1, [sp, #16]
/rustc/50a0defd5a93523067ef239936cc2e0755220904/src/libcore/fmt/mod.rs:2036
   c:	9803      	ldr	r0, [sp, #12]
   e:	6800      	ldr	r0, [r0, #0]
  10:	9005      	str	r0, [sp, #20]
  12:	9904      	ldr	r1, [sp, #16]
  14:	a805      	add	r0, sp, #20
  16:	9202      	str	r2, [sp, #8]
  18:	9301      	str	r3, [sp, #4]
  1a:	f7ff fffe 	bl	0 <_ZN52_$LT$$BP$mut$u20$T$u20$as$u20$core..fmt..Pointer$GT$3fmt17hb121d45b1b1c1ac1E>
  1e:	9000      	str	r0, [sp, #0]
  20:	e7ff      	b.n	22 <_ZN52_$LT$$BP$mut$u20$T$u20$as$u20$core..fmt..Pointer$GT$3fmt17hb121d45b1b1c1ac1E+0x22>
/rustc/50a0defd5a93523067ef239936cc2e0755220904/src/libcore/fmt/mod.rs:2037
  22:	9800      	ldr	r0, [sp, #0]
  24:	f000 0001 	and.w	r0, r0, #1
  28:	b006      	add	sp, #24
  2a:	bd80      	pop	{r7, pc}

Disassembly of section .text._ZN54_$LT$$BP$const$u20$T$u20$as$u20$core..fmt..Pointer$GT$3fmt17h2a0c6005f019d940E:

00000000 <_ZN54_$LT$$BP$const$u20$T$u20$as$u20$core..fmt..Pointer$GT$3fmt17h2a0c6005f019d940E>:
_ZN54_$LT$$BP$const$u20$T$u20$as$u20$core..fmt..Pointer$GT$3fmt17h2a0c6005f019d940E():
/rustc/50a0defd5a93523067ef239936cc2e0755220904/src/libcore/fmt/mod.rs:2007
   0:	b580      	push	{r7, lr}
   2:	b08c      	sub	sp, #48	; 0x30
   4:	460a      	mov	r2, r1
   6:	4603      	mov	r3, r0
   8:	9005      	str	r0, [sp, #20]
   a:	9106      	str	r1, [sp, #24]
/rustc/50a0defd5a93523067ef239936cc2e0755220904/src/libcore/fmt/mod.rs:2008
   c:	9806      	ldr	r0, [sp, #24]
   e:	6881      	ldr	r1, [r0, #8]
  10:	68c0      	ldr	r0, [r0, #12]
  12:	9107      	str	r1, [sp, #28]
  14:	9008      	str	r0, [sp, #32]
/rustc/50a0defd5a93523067ef239936cc2e0755220904/src/libcore/fmt/mod.rs:2009
  16:	9806      	ldr	r0, [sp, #24]
  18:	6800      	ldr	r0, [r0, #0]
  1a:	9009      	str	r0, [sp, #36]	; 0x24
/rustc/50a0defd5a93523067ef239936cc2e0755220904/src/libcore/fmt/mod.rs:2015
  1c:	9806      	ldr	r0, [sp, #24]
  1e:	9204      	str	r2, [sp, #16]
  20:	9303      	str	r3, [sp, #12]
  22:	f7ff fffe 	bl	0 <_ZN4core3fmt9Formatter9alternate17hd09f58cee14df2eeE>
  26:	9002      	str	r0, [sp, #8]
  28:	e7ff      	b.n	2a <_ZN54_$LT$$BP$const$u20$T$u20$as$u20$core..fmt..Pointer$GT$3fmt17h2a0c6005f019d940E+0x2a>
  2a:	9802      	ldr	r0, [sp, #8]
  2c:	07c1      	lsls	r1, r0, #31
  2e:	2900      	cmp	r1, #0
  30:	d01c      	beq.n	6c <_ZN54_$LT$$BP$const$u20$T$u20$as$u20$core..fmt..Pointer$GT$3fmt17h2a0c6005f019d940E+0x6c>
  32:	e7ff      	b.n	34 <_ZN54_$LT$$BP$const$u20$T$u20$as$u20$core..fmt..Pointer$GT$3fmt17h2a0c6005f019d940E+0x34>
/rustc/50a0defd5a93523067ef239936cc2e0755220904/src/libcore/fmt/mod.rs:2016
  34:	9806      	ldr	r0, [sp, #24]
  36:	6801      	ldr	r1, [r0, #0]
  38:	f041 0108 	orr.w	r1, r1, #8
  3c:	6001      	str	r1, [r0, #0]
/rustc/50a0defd5a93523067ef239936cc2e0755220904/src/libcore/fmt/mod.rs:2018
  3e:	9806      	ldr	r0, [sp, #24]
  40:	6880      	ldr	r0, [r0, #8]
  42:	2800      	cmp	r0, #0
  44:	d112      	bne.n	6c <_ZN54_$LT$$BP$const$u20$T$u20$as$u20$core..fmt..Pointer$GT$3fmt17h2a0c6005f019d940E+0x6c>
  46:	e7ff      	b.n	48 <_ZN54_$LT$$BP$const$u20$T$u20$as$u20$core..fmt..Pointer$GT$3fmt17h2a0c6005f019d940E+0x48>
/rustc/50a0defd5a93523067ef239936cc2e0755220904/src/libcore/fmt/mod.rs:2019
  48:	f7ff fffe 	bl	0 <_ZN4core3mem7size_of17h033cda7c0b223844E>
  4c:	9001      	str	r0, [sp, #4]
  4e:	e7ff      	b.n	50 <_ZN54_$LT$$BP$const$u20$T$u20$as$u20$core..fmt..Pointer$GT$3fmt17h2a0c6005f019d940E+0x50>
  50:	9801      	ldr	r0, [sp, #4]
  52:	00c1      	lsls	r1, r0, #3
  54:	9100      	str	r1, [sp, #0]
  56:	e7ff      	b.n	58 <_ZN54_$LT$$BP$const$u20$T$u20$as$u20$core..fmt..Pointer$GT$3fmt17h2a0c6005f019d940E+0x58>
  58:	2002      	movs	r0, #2
  5a:	9900      	ldr	r1, [sp, #0]
  5c:	eb00 0091 	add.w	r0, r0, r1, lsr #2
  60:	9a06      	ldr	r2, [sp, #24]
  62:	60d0      	str	r0, [r2, #12]
  64:	9806      	ldr	r0, [sp, #24]
  66:	2201      	movs	r2, #1
  68:	6082      	str	r2, [r0, #8]
/rustc/50a0defd5a93523067ef239936cc2e0755220904/src/libcore/fmt/mod.rs:2018
  6a:	e7ff      	b.n	6c <_ZN54_$LT$$BP$const$u20$T$u20$as$u20$core..fmt..Pointer$GT$3fmt17h2a0c6005f019d940E+0x6c>
/rustc/50a0defd5a93523067ef239936cc2e0755220904/src/libcore/fmt/mod.rs:2022
  6c:	9806      	ldr	r0, [sp, #24]
  6e:	6801      	ldr	r1, [r0, #0]
  70:	f041 0104 	orr.w	r1, r1, #4
  74:	6001      	str	r1, [r0, #0]
/rustc/50a0defd5a93523067ef239936cc2e0755220904/src/libcore/fmt/mod.rs:2024
  76:	9805      	ldr	r0, [sp, #20]
  78:	6800      	ldr	r0, [r0, #0]
  7a:	900b      	str	r0, [sp, #44]	; 0x2c
  7c:	9906      	ldr	r1, [sp, #24]
  7e:	a80b      	add	r0, sp, #44	; 0x2c
  80:	f7ff fffe 	bl	0 <_ZN4core3fmt3num55_$LT$impl$u20$core..fmt..LowerHex$u20$for$u20$usize$GT$3fmt17h562f60f4fbcc2e1dE>
  84:	f88d 002b 	strb.w	r0, [sp, #43]	; 0x2b
  88:	e7ff      	b.n	8a <_ZN54_$LT$$BP$const$u20$T$u20$as$u20$core..fmt..Pointer$GT$3fmt17h2a0c6005f019d940E+0x8a>
/rustc/50a0defd5a93523067ef239936cc2e0755220904/src/libcore/fmt/mod.rs:2026
  8a:	9807      	ldr	r0, [sp, #28]
  8c:	9908      	ldr	r1, [sp, #32]
  8e:	9a06      	ldr	r2, [sp, #24]
  90:	6090      	str	r0, [r2, #8]
  92:	60d1      	str	r1, [r2, #12]
/rustc/50a0defd5a93523067ef239936cc2e0755220904/src/libcore/fmt/mod.rs:2027
  94:	9809      	ldr	r0, [sp, #36]	; 0x24
  96:	9906      	ldr	r1, [sp, #24]
  98:	6008      	str	r0, [r1, #0]
/rustc/50a0defd5a93523067ef239936cc2e0755220904/src/libcore/fmt/mod.rs:2029
  9a:	f89d 002b 	ldrb.w	r0, [sp, #43]	; 0x2b
/rustc/50a0defd5a93523067ef239936cc2e0755220904/src/libcore/fmt/mod.rs:2030
  9e:	b00c      	add	sp, #48	; 0x30
  a0:	bd80      	pop	{r7, pc}
arm-none-eabi-objdump: rust.metadata.bin: file format not recognized
arm-none-eabi-objdump: mylib-ac95891f38e7979c.1b7do7e5i4j0exrn.rcgu.bc.z: file format not recognized
arm-none-eabi-objdump: mylib-ac95891f38e7979c.1p0bleeal0c8ffkh.rcgu.bc.z: file format not recognized
arm-none-eabi-objdump: mylib-ac95891f38e7979c.1r58q2o71511853b.rcgu.bc.z: file format not recognized
arm-none-eabi-objdump: mylib-ac95891f38e7979c.1sy4lk16z0utqsak.rcgu.bc.z: file format not recognized
arm-none-eabi-objdump: mylib-ac95891f38e7979c.29x7oqvwgrpr4c8r.rcgu.bc.z: file format not recognized
arm-none-eabi-objdump: mylib-ac95891f38e7979c.2k4h3n1psy8odh4v.rcgu.bc.z: file format not recognized
arm-none-eabi-objdump: mylib-ac95891f38e7979c.39numqykf0lihsq7.rcgu.bc.z: file format not recognized
arm-none-eabi-objdump: mylib-ac95891f38e7979c.3bbvzv7pip6h5983.rcgu.bc.z: file format not recognized
arm-none-eabi-objdump: mylib-ac95891f38e7979c.3e590j6e1x762ubq.rcgu.bc.z: file format not recognized
arm-none-eabi-objdump: mylib-ac95891f38e7979c.4497fvddxy6cb2a7.rcgu.bc.z: file format not recognized
arm-none-eabi-objdump: mylib-ac95891f38e7979c.4fs43327d33gbryi.rcgu.bc.z: file format not recognized
arm-none-eabi-objdump: mylib-ac95891f38e7979c.4gfa6aki8v0cc60q.rcgu.bc.z: file format not recognized
arm-none-eabi-objdump: mylib-ac95891f38e7979c.541s4ibcgernpkgl.rcgu.bc.z: file format not recognized
arm-none-eabi-objdump: mylib-ac95891f38e7979c.gcju3pv69tspa4b.rcgu.bc.z: file format not recognized
arm-none-eabi-objdump: mylib-ac95891f38e7979c.gf4ix36rm4u0qfa.rcgu.bc.z: file format not recognized
arm-none-eabi-objdump: mylib-ac95891f38e7979c.qtt5z7aexjho3ih.rcgu.bc.z: file format not recognized
