In archive target/thumbv7m-none-eabi/release/libmylib.rlib:

mylib-0948c04052cf796a.mylib.6fgjgbzt-cgu.0.rcgu.o:     file format elf32-littlearm

SYMBOL TABLE:
00000000 l    df *ABS*	00000000 mylib.6fgjgbzt-cgu.0
0000424c l       .debug_str	00000000 
00004cef l       .debug_str	00000000 
00004cfb l       .debug_str	00000000 
00004d07 l       .debug_str	00000000 
00004d14 l       .debug_str	00000000 
00004d20 l       .debug_str	00000000 
00004d2e l       .debug_str	00000000 
00004d45 l       .debug_str	00000000 
00004d5a l       .debug_str	00000000 
00004d5d l       .debug_str	00000000 
00004d7d l       .debug_str	00000000 
00004d86 l       .debug_str	00000000 
00004dc0 l       .debug_str	00000000 
00004dd1 l       .debug_str	00000000 
00004dd3 l       .debug_str	00000000 
00004e02 l       .debug_str	00000000 
00004e0d l       .debug_str	00000000 
00004e27 l       .debug_str	00000000 
00004e33 l       .debug_str	00000000 
00004e3d l       .debug_str	00000000 
00004e43 l       .debug_str	00000000 
00004e48 l       .debug_str	00000000 
00004e59 l       .debug_str	00000000 
00004e62 l       .debug_str	00000000 
00004e6a l       .debug_str	00000000 
00004e74 l       .debug_str	00000000 
00004e81 l       .debug_str	00000000 
00004ec8 l       .debug_str	00000000 
00004ee6 l       .debug_str	00000000 
00004eef l       .debug_str	00000000 
00004f1f l       .debug_str	00000000 
00004f28 l       .debug_str	00000000 
00004f2e l       .debug_str	00000000 
00004f72 l       .debug_str	00000000 
00004f8d l       .debug_str	00000000 
00004f95 l       .debug_str	00000000 
00004f9e l       .debug_str	00000000 
00004fa8 l       .debug_str	00000000 
00004fad l       .debug_str	00000000 
00004fb2 l       .debug_str	00000000 
00004fb7 l       .debug_str	00000000 
00004fc5 l       .debug_str	00000000 
00004fcf l       .debug_str	00000000 
00005052 l       .debug_str	00000000 
0000505c l       .debug_str	00000000 
00005062 l       .debug_str	00000000 
00005068 l       .debug_str	00000000 
0000506c l       .debug_str	00000000 
00005079 l       .debug_str	00000000 
000050ff l       .debug_str	00000000 
0000510e l       .debug_str	00000000 
00005110 l       .debug_str	00000000 
00005185 l       .debug_str	00000000 
000051b0 l       .debug_str	00000000 
000051b6 l       .debug_str	00000000 
000051bd l       .debug_str	00000000 
000051c9 l       .debug_str	00000000 
000051d1 l       .debug_str	00000000 
000051da l       .debug_str	00000000 
000051df l       .debug_str	00000000 
000051e2 l       .debug_str	00000000 
000051eb l       .debug_str	00000000 
000051f2 l       .debug_str	00000000 
000051f5 l       .debug_str	00000000 
000051fb l       .debug_str	00000000 
00005205 l       .debug_str	00000000 
0000520d l       .debug_str	00000000 
00005213 l       .debug_str	00000000 
0000521e l       .debug_str	00000000 
00005227 l       .debug_str	00000000 
0000524a l       .debug_str	00000000 
00005269 l       .debug_str	00000000 
00005290 l       .debug_str	00000000 
0000529a l       .debug_str	00000000 
000052cc l       .debug_str	00000000 
000052d3 l       .debug_str	00000000 
0000530f l       .debug_str	00000000 
00005322 l       .debug_str	00000000 
00005328 l       .debug_str	00000000 
0000536c l       .debug_str	00000000 
00005382 l       .debug_str	00000000 
0000538b l       .debug_str	00000000 
0000538f l       .debug_str	00000000 
000053d1 l       .debug_str	00000000 
000053e3 l       .debug_str	00000000 
000053ec l       .debug_str	00000000 
000053f0 l       .debug_str	00000000 
0000541a l       .debug_str	00000000 
0000541f l       .debug_str	00000000 
00005467 l       .debug_str	00000000 
00005470 l       .debug_str	00000000 
000054b8 l       .debug_str	00000000 
000054c0 l       .debug_str	00000000 
00005538 l       .debug_str	00000000 
00005540 l       .debug_str	00000000 
000055b7 l       .debug_str	00000000 
0000564c l       .debug_str	00000000 
000056d3 l       .debug_str	00000000 
0000574b l       .debug_str	00000000 
000057d0 l       .debug_str	00000000 
00005847 l       .debug_str	00000000 
000058b7 l       .debug_str	00000000 
00005929 l       .debug_str	00000000 
0000599a l       .debug_str	00000000 
00005a08 l       .debug_str	00000000 
00005a77 l       .debug_str	00000000 
00005ae9 l       .debug_str	00000000 
00005b60 l       .debug_str	00000000 
00005bcf l       .debug_str	00000000 
00005c3d l       .debug_str	00000000 
00005cc4 l       .debug_str	00000000 
00005d43 l       .debug_str	00000000 
00005dc4 l       .debug_str	00000000 
00005e48 l       .debug_str	00000000 
00005ecf l       .debug_str	00000000 
00005edb l       .debug_str	00000000 
00005ee7 l       .debug_str	00000000 
00005efc l       .debug_str	00000000 
00005f74 l       .debug_str	00000000 
00005ff3 l       .debug_str	00000000 
00006039 l       .debug_str	00000000 
0000604f l       .debug_str	00000000 
000060d7 l       .debug_str	00000000 
00006162 l       .debug_str	00000000 
000061f4 l       .debug_str	00000000 
000061f9 l       .debug_str	00000000 
00006238 l       .debug_str	00000000 
00006249 l       .debug_str	00000000 
00006284 l       .debug_str	00000000 
00006296 l       .debug_str	00000000 
0000629b l       .debug_str	00000000 
0000629d l       .debug_str	00000000 
000062af l       .debug_str	00000000 
000062b5 l       .debug_str	00000000 
0000631a l       .debug_str	00000000 
00006322 l       .debug_str	00000000 
00006327 l       .debug_str	00000000 
00006334 l       .debug_str	00000000 
00006341 l       .debug_str	00000000 
00006348 l       .debug_str	00000000 
00006358 l       .debug_str	00000000 
0000636a l       .debug_str	00000000 
00006376 l       .debug_str	00000000 
0000637b l       .debug_str	00000000 
00006383 l       .debug_str	00000000 
00006387 l       .debug_str	00000000 
0000638c l       .debug_str	00000000 
00006394 l       .debug_str	00000000 
000063aa l       .debug_str	00000000 
000063c8 l       .debug_str	00000000 
000063d1 l       .debug_str	00000000 
000063d6 l       .debug_str	00000000 
000063db l       .debug_str	00000000 
000063df l       .debug_str	00000000 
000063e8 l       .debug_str	00000000 
000063f2 l       .debug_str	00000000 
0000640a l       .debug_str	00000000 
00006421 l       .debug_str	00000000 
00000000 l       .debug_str	00000000 
00000041 l       .debug_str	00000000 
0000004c l       .debug_str	00000000 
0000007c l       .debug_str	00000000 
00000082 l       .debug_str	00000000 
00000089 l       .debug_str	00000000 
0000008c l       .debug_str	00000000 
00000093 l       .debug_str	00000000 
000000a5 l       .debug_str	00000000 
000000ae l       .debug_str	00000000 
000000bd l       .debug_str	00000000 
000000c1 l       .debug_str	00000000 
000000c9 l       .debug_str	00000000 
000000ce l       .debug_str	00000000 
000000d5 l       .debug_str	00000000 
000000d9 l       .debug_str	00000000 
000000de l       .debug_str	00000000 
000000e2 l       .debug_str	00000000 
000000e8 l       .debug_str	00000000 
000000f4 l       .debug_str	00000000 
000000fc l       .debug_str	00000000 
00000100 l       .debug_str	00000000 
00000103 l       .debug_str	00000000 
0000010e l       .debug_str	00000000 
00000119 l       .debug_str	00000000 
00000120 l       .debug_str	00000000 
00000137 l       .debug_str	00000000 
000001a2 l       .debug_str	00000000 
000001a4 l       .debug_str	00000000 
000001a9 l       .debug_str	00000000 
000001ad l       .debug_str	00000000 
00000220 l       .debug_str	00000000 
0000022b l       .debug_str	00000000 
00000283 l       .debug_str	00000000 
000002e3 l       .debug_str	00000000 
000002ed l       .debug_str	00000000 
0000033b l       .debug_str	00000000 
00000391 l       .debug_str	00000000 
0000039a l       .debug_str	00000000 
000003aa l       .debug_str	00000000 
000003b2 l       .debug_str	00000000 
00000418 l       .debug_str	00000000 
00000486 l       .debug_str	00000000 
00000492 l       .debug_str	00000000 
0000049b l       .debug_str	00000000 
000004a7 l       .debug_str	00000000 
000004b3 l       .debug_str	00000000 
000004bc l       .debug_str	00000000 
000004c4 l       .debug_str	00000000 
000004ce l       .debug_str	00000000 
000004d6 l       .debug_str	00000000 
000004e0 l       .debug_str	00000000 
000004f5 l       .debug_str	00000000 
000004fc l       .debug_str	00000000 
0000052d l       .debug_str	00000000 
00000534 l       .debug_str	00000000 
0000053c l       .debug_str	00000000 
00000546 l       .debug_str	00000000 
00000551 l       .debug_str	00000000 
0000055a l       .debug_str	00000000 
00000565 l       .debug_str	00000000 
00000571 l       .debug_str	00000000 
00000575 l       .debug_str	00000000 
0000057e l       .debug_str	00000000 
00000585 l       .debug_str	00000000 
0000058d l       .debug_str	00000000 
00000595 l       .debug_str	00000000 
0000059f l       .debug_str	00000000 
000005a5 l       .debug_str	00000000 
000005ac l       .debug_str	00000000 
000005b3 l       .debug_str	00000000 
000005e0 l       .debug_str	00000000 
00000615 l       .debug_str	00000000 
0000061b l       .debug_str	00000000 
00000621 l       .debug_str	00000000 
00000630 l       .debug_str	00000000 
00000640 l       .debug_str	00000000 
00000650 l       .debug_str	00000000 
00000658 l       .debug_str	00000000 
00000692 l       .debug_str	00000000 
00000701 l       .debug_str	00000000 
00000778 l       .debug_str	00000000 
0000077f l       .debug_str	00000000 
00000787 l       .debug_str	00000000 
00000790 l       .debug_str	00000000 
000007ae l       .debug_str	00000000 
000007be l       .debug_str	00000000 
000007cc l       .debug_str	00000000 
000007d7 l       .debug_str	00000000 
000007e4 l       .debug_str	00000000 
000007f3 l       .debug_str	00000000 
00000809 l       .debug_str	00000000 
00000813 l       .debug_str	00000000 
0000081c l       .debug_str	00000000 
00000825 l       .debug_str	00000000 
0000085c l       .debug_str	00000000 
00000872 l       .debug_str	00000000 
0000087d l       .debug_str	00000000 
00000893 l       .debug_str	00000000 
0000089b l       .debug_str	00000000 
000008cd l       .debug_str	00000000 
000008e4 l       .debug_str	00000000 
000008e9 l       .debug_str	00000000 
000008f1 l       .debug_str	00000000 
000008fa l       .debug_str	00000000 
00000903 l       .debug_str	00000000 
0000090c l       .debug_str	00000000 
00000914 l       .debug_str	00000000 
0000091b l       .debug_str	00000000 
00000927 l       .debug_str	00000000 
00000932 l       .debug_str	00000000 
0000093a l       .debug_str	00000000 
00000942 l       .debug_str	00000000 
00000a4c l       .debug_str	00000000 
00000b5e l       .debug_str	00000000 
00000b6c l       .debug_str	00000000 
00000b77 l       .debug_str	00000000 
00000b81 l       .debug_str	00000000 
00000b95 l       .debug_str	00000000 
00000ba0 l       .debug_str	00000000 
00000bd5 l       .debug_str	00000000 
00000c5e l       .debug_str	00000000 
00000cef l       .debug_str	00000000 
00000cfd l       .debug_str	00000000 
00000d63 l       .debug_str	00000000 
00000dd1 l       .debug_str	00000000 
00000de7 l       .debug_str	00000000 
00000df7 l       .debug_str	00000000 
00000e06 l       .debug_str	00000000 
00000e0a l       .debug_str	00000000 
00000e11 l       .debug_str	00000000 
00000e17 l       .debug_str	00000000 
00000e1b l       .debug_str	00000000 
00000e21 l       .debug_str	00000000 
00000e27 l       .debug_str	00000000 
00000e33 l       .debug_str	00000000 
00000e3b l       .debug_str	00000000 
00000e41 l       .debug_str	00000000 
00000e49 l       .debug_str	00000000 
00000e4f l       .debug_str	00000000 
00000e72 l       .debug_str	00000000 
00000e82 l       .debug_str	00000000 
00000ebc l       .debug_str	00000000 
00000f03 l       .debug_str	00000000 
00000f52 l       .debug_str	00000000 
00000f56 l       .debug_str	00000000 
00000f5c l       .debug_str	00000000 
00000f62 l       .debug_str	00000000 
00000f68 l       .debug_str	00000000 
00000f7a l       .debug_str	00000000 
00000fb6 l       .debug_str	00000000 
00000fff l       .debug_str	00000000 
00001050 l       .debug_str	00000000 
00001054 l       .debug_str	00000000 
0000105a l       .debug_str	00000000 
00001060 l       .debug_str	00000000 
00001066 l       .debug_str	00000000 
00001078 l       .debug_str	00000000 
000010b4 l       .debug_str	00000000 
000010fd l       .debug_str	00000000 
0000114e l       .debug_str	00000000 
00001152 l       .debug_str	00000000 
00001158 l       .debug_str	00000000 
0000115e l       .debug_str	00000000 
00001164 l       .debug_str	00000000 
0000116a l       .debug_str	00000000 
0000117b l       .debug_str	00000000 
000011b6 l       .debug_str	00000000 
000011fe l       .debug_str	00000000 
0000124e l       .debug_str	00000000 
00001253 l       .debug_str	00000000 
00001258 l       .debug_str	00000000 
0000125c l       .debug_str	00000000 
00001262 l       .debug_str	00000000 
00001268 l       .debug_str	00000000 
0000126e l       .debug_str	00000000 
0000127f l       .debug_str	00000000 
000012ba l       .debug_str	00000000 
00001302 l       .debug_str	00000000 
00001352 l       .debug_str	00000000 
00001356 l       .debug_str	00000000 
0000135f l       .debug_str	00000000 
00001370 l       .debug_str	00000000 
000013ab l       .debug_str	00000000 
000013f3 l       .debug_str	00000000 
00001443 l       .debug_str	00000000 
00001448 l       .debug_str	00000000 
0000144c l       .debug_str	00000000 
00001455 l       .debug_str	00000000 
0000145c l       .debug_str	00000000 
00001464 l       .debug_str	00000000 
00001476 l       .debug_str	00000000 
000014b2 l       .debug_str	00000000 
000014fb l       .debug_str	00000000 
0000154c l       .debug_str	00000000 
00001550 l       .debug_str	00000000 
00001556 l       .debug_str	00000000 
0000155c l       .debug_str	00000000 
00001562 l       .debug_str	00000000 
00001568 l       .debug_str	00000000 
00001570 l       .debug_str	00000000 
0000157e l       .debug_str	00000000 
0000158d l       .debug_str	00000000 
0000159e l       .debug_str	00000000 
000015a9 l       .debug_str	00000000 
000015b4 l       .debug_str	00000000 
000015bf l       .debug_str	00000000 
000015c6 l       .debug_str	00000000 
000015e9 l       .debug_str	00000000 
000015fb l       .debug_str	00000000 
00001637 l       .debug_str	00000000 
00001680 l       .debug_str	00000000 
000016d1 l       .debug_str	00000000 
000016d5 l       .debug_str	00000000 
000016df l       .debug_str	00000000 
000016f1 l       .debug_str	00000000 
0000172d l       .debug_str	00000000 
00001776 l       .debug_str	00000000 
000017c7 l       .debug_str	00000000 
000017cc l       .debug_str	00000000 
000017d6 l       .debug_str	00000000 
000017e8 l       .debug_str	00000000 
00001824 l       .debug_str	00000000 
0000186d l       .debug_str	00000000 
000018be l       .debug_str	00000000 
000018d2 l       .debug_str	00000000 
000018d6 l       .debug_str	00000000 
000018e4 l       .debug_str	00000000 
000018f4 l       .debug_str	00000000 
000018fd l       .debug_str	00000000 
00001908 l       .debug_str	00000000 
00001917 l       .debug_str	00000000 
0000192c l       .debug_str	00000000 
00001964 l       .debug_str	00000000 
00001a0f l       .debug_str	00000000 
00001ac2 l       .debug_str	00000000 
00001acd l       .debug_str	00000000 
00001ad6 l       .debug_str	00000000 
00001af7 l       .debug_str	00000000 
00001b0a l       .debug_str	00000000 
00001b47 l       .debug_str	00000000 
00001bd8 l       .debug_str	00000000 
00001c71 l       .debug_str	00000000 
00001c8d l       .debug_str	00000000 
00001ce0 l       .debug_str	00000000 
00001d3b l       .debug_str	00000000 
00001d58 l       .debug_str	00000000 
00001d6c l       .debug_str	00000000 
00001dbf l       .debug_str	00000000 
00001e1a l       .debug_str	00000000 
00001e30 l       .debug_str	00000000 
00001e44 l       .debug_str	00000000 
00001e92 l       .debug_str	00000000 
00001ee8 l       .debug_str	00000000 
00001ef1 l       .debug_str	00000000 
00001eff l       .debug_str	00000000 
00001f37 l       .debug_str	00000000 
00001f3d l       .debug_str	00000000 
00001f45 l       .debug_str	00000000 
00001f4c l       .debug_str	00000000 
00001f54 l       .debug_str	00000000 
00001f5f l       .debug_str	00000000 
00001f67 l       .debug_str	00000000 
00001f76 l       .debug_str	00000000 
00001f7a l       .debug_str	00000000 
00001f85 l       .debug_str	00000000 
00001f91 l       .debug_str	00000000 
00001f9c l       .debug_str	00000000 
00001fad l       .debug_str	00000000 
00001fb3 l       .debug_str	00000000 
00001fbb l       .debug_str	00000000 
00001fc2 l       .debug_str	00000000 
00001fcc l       .debug_str	00000000 
00001fd4 l       .debug_str	00000000 
00001fdc l       .debug_str	00000000 
0000200f l       .debug_str	00000000 
0000201a l       .debug_str	00000000 
00002026 l       .debug_str	00000000 
0000202e l       .debug_str	00000000 
00002037 l       .debug_str	00000000 
00002042 l       .debug_str	00000000 
00002049 l       .debug_str	00000000 
00002054 l       .debug_str	00000000 
0000205f l       .debug_str	00000000 
0000206f l       .debug_str	00000000 
00002079 l       .debug_str	00000000 
0000207f l       .debug_str	00000000 
000020b2 l       .debug_str	00000000 
000020fb l       .debug_str	00000000 
0000214c l       .debug_str	00000000 
00002153 l       .debug_str	00000000 
0000215b l       .debug_str	00000000 
00002172 l       .debug_str	00000000 
0000217b l       .debug_str	00000000 
0000218b l       .debug_str	00000000 
000021c5 l       .debug_str	00000000 
000021da l       .debug_str	00000000 
000021e3 l       .debug_str	00000000 
00002247 l       .debug_str	00000000 
000022b3 l       .debug_str	00000000 
000022bd l       .debug_str	00000000 
000022cd l       .debug_str	00000000 
000022e2 l       .debug_str	00000000 
000022ea l       .debug_str	00000000 
00002355 l       .debug_str	00000000 
000023c8 l       .debug_str	00000000 
000023cf l       .debug_str	00000000 
000023d7 l       .debug_str	00000000 
000023f5 l       .debug_str	00000000 
00002405 l       .debug_str	00000000 
0000243f l       .debug_str	00000000 
00002454 l       .debug_str	00000000 
00002467 l       .debug_str	00000000 
0000247c l       .debug_str	00000000 
00002483 l       .debug_str	00000000 
00002498 l       .debug_str	00000000 
000024c9 l       .debug_str	00000000 
0000254c l       .debug_str	00000000 
000025d7 l       .debug_str	00000000 
000025de l       .debug_str	00000000 
000025e6 l       .debug_str	00000000 
00002604 l       .debug_str	00000000 
00002614 l       .debug_str	00000000 
00002656 l       .debug_str	00000000 
00002660 l       .debug_str	00000000 
0000266d l       .debug_str	00000000 
00002674 l       .debug_str	00000000 
00002677 l       .debug_str	00000000 
000026a7 l       .debug_str	00000000 
0000270c l       .debug_str	00000000 
00002779 l       .debug_str	00000000 
000027a1 l       .debug_str	00000000 
000027ce l       .debug_str	00000000 
00002804 l       .debug_str	00000000 
00002817 l       .debug_str	00000000 
00002853 l       .debug_str	00000000 
00002864 l       .debug_str	00000000 
00002869 l       .debug_str	00000000 
000028a3 l       .debug_str	00000000 
000028aa l       .debug_str	00000000 
000028ad l       .debug_str	00000000 
000028b1 l       .debug_str	00000000 
000028b8 l       .debug_str	00000000 
000028bc l       .debug_str	00000000 
000028bf l       .debug_str	00000000 
000028c2 l       .debug_str	00000000 
000028c7 l       .debug_str	00000000 
000028cd l       .debug_str	00000000 
000028d4 l       .debug_str	00000000 
000028dc l       .debug_str	00000000 
000028e6 l       .debug_str	00000000 
000028ee l       .debug_str	00000000 
000028f9 l       .debug_str	00000000 
00002904 l       .debug_str	00000000 
00002911 l       .debug_str	00000000 
0000291c l       .debug_str	00000000 
00002924 l       .debug_str	00000000 
0000292f l       .debug_str	00000000 
0000293a l       .debug_str	00000000 
00002944 l       .debug_str	00000000 
0000294f l       .debug_str	00000000 
0000295a l       .debug_str	00000000 
00002967 l       .debug_str	00000000 
00002973 l       .debug_str	00000000 
00002980 l       .debug_str	00000000 
0000298e l       .debug_str	00000000 
00002998 l       .debug_str	00000000 
000029a5 l       .debug_str	00000000 
000029b1 l       .debug_str	00000000 
000029b5 l       .debug_str	00000000 
000029be l       .debug_str	00000000 
00002a1b l       .debug_str	00000000 
00002a20 l       .debug_str	00000000 
00002a25 l       .debug_str	00000000 
00002a27 l       .debug_str	00000000 
00002a2d l       .debug_str	00000000 
00002a32 l       .debug_str	00000000 
00002a37 l       .debug_str	00000000 
00002a3d l       .debug_str	00000000 
00002a43 l       .debug_str	00000000 
00002a51 l       .debug_str	00000000 
00002a5b l       .debug_str	00000000 
00002a5f l       .debug_str	00000000 
00002a67 l       .debug_str	00000000 
00002a6f l       .debug_str	00000000 
00002a76 l       .debug_str	00000000 
00002a82 l       .debug_str	00000000 
00002a8d l       .debug_str	00000000 
00002a94 l       .debug_str	00000000 
00002a9a l       .debug_str	00000000 
00002a9e l       .debug_str	00000000 
00002aa4 l       .debug_str	00000000 
00002aaa l       .debug_str	00000000 
00002aad l       .debug_str	00000000 
00002abc l       .debug_str	00000000 
00002ac0 l       .debug_str	00000000 
00002ac9 l       .debug_str	00000000 
00002ad5 l       .debug_str	00000000 
00002aee l       .debug_str	00000000 
00002af3 l       .debug_str	00000000 
00002b04 l       .debug_str	00000000 
00002b0e l       .debug_str	00000000 
00002b6c l       .debug_str	00000000 
00002b77 l       .debug_str	00000000 
00002b94 l       .debug_str	00000000 
00002b98 l       .debug_str	00000000 
00002ba0 l       .debug_str	00000000 
00002bb7 l       .debug_str	00000000 
00002bdb l       .debug_str	00000000 
00002bf7 l       .debug_str	00000000 
00002bfc l       .debug_str	00000000 
00002c05 l       .debug_str	00000000 
00002c0c l       .debug_str	00000000 
00002c25 l       .debug_str	00000000 
00002c2f l       .debug_str	00000000 
00002c49 l       .debug_str	00000000 
00002ca5 l       .debug_str	00000000 
00002ca9 l       .debug_str	00000000 
00002cad l       .debug_str	00000000 
00002cb6 l       .debug_str	00000000 
00002cbb l       .debug_str	00000000 
00002cc4 l       .debug_str	00000000 
00002d06 l       .debug_str	00000000 
00002d50 l       .debug_str	00000000 
00002d57 l       .debug_str	00000000 
00002d65 l       .debug_str	00000000 
00002d72 l       .debug_str	00000000 
00002d9a l       .debug_str	00000000 
00002dce l       .debug_str	00000000 
00002dd6 l       .debug_str	00000000 
00002de0 l       .debug_str	00000000 
00002de6 l       .debug_str	00000000 
00002deb l       .debug_str	00000000 
00002df3 l       .debug_str	00000000 
00002dfc l       .debug_str	00000000 
00002e12 l       .debug_str	00000000 
00002e30 l       .debug_str	00000000 
00002e39 l       .debug_str	00000000 
00002e42 l       .debug_str	00000000 
00002e58 l       .debug_str	00000000 
00002e76 l       .debug_str	00000000 
00002e7b l       .debug_str	00000000 
00002e7f l       .debug_str	00000000 
00002e88 l       .debug_str	00000000 
00002e9e l       .debug_str	00000000 
00002ebc l       .debug_str	00000000 
00002ec3 l       .debug_str	00000000 
00002ed8 l       .debug_str	00000000 
00002ef5 l       .debug_str	00000000 
00002efd l       .debug_str	00000000 
00002f07 l       .debug_str	00000000 
00002f1e l       .debug_str	00000000 
00002f3d l       .debug_str	00000000 
00002f47 l       .debug_str	00000000 
00002f4d l       .debug_str	00000000 
00002f5a l       .debug_str	00000000 
00002f5e l       .debug_str	00000000 
00002f66 l       .debug_str	00000000 
00002fbb l       .debug_str	00000000 
00003018 l       .debug_str	00000000 
00003020 l       .debug_str	00000000 
00003025 l       .debug_str	00000000 
00003032 l       .debug_str	00000000 
00003038 l       .debug_str	00000000 
00003041 l       .debug_str	00000000 
0000306a l       .debug_str	00000000 
000030bf l       .debug_str	00000000 
0000311c l       .debug_str	00000000 
00003125 l       .debug_str	00000000 
0000314e l       .debug_str	00000000 
000031a3 l       .debug_str	00000000 
00003200 l       .debug_str	00000000 
0000320a l       .debug_str	00000000 
00003233 l       .debug_str	00000000 
00003288 l       .debug_str	00000000 
000032e5 l       .debug_str	00000000 
000032eb l       .debug_str	00000000 
00003314 l       .debug_str	00000000 
00003369 l       .debug_str	00000000 
000033c6 l       .debug_str	00000000 
000033cf l       .debug_str	00000000 
000033f8 l       .debug_str	00000000 
0000344d l       .debug_str	00000000 
000034aa l       .debug_str	00000000 
000034c5 l       .debug_str	00000000 
000034cb l       .debug_str	00000000 
000034d4 l       .debug_str	00000000 
000034db l       .debug_str	00000000 
000034e8 l       .debug_str	00000000 
00003521 l       .debug_str	00000000 
00003562 l       .debug_str	00000000 
00003569 l       .debug_str	00000000 
0000357c l       .debug_str	00000000 
00003597 l       .debug_str	00000000 
000035b1 l       .debug_str	00000000 
000035b6 l       .debug_str	00000000 
000035c7 l       .debug_str	00000000 
000035e0 l       .debug_str	00000000 
000035f1 l       .debug_str	00000000 
0000360a l       .debug_str	00000000 
0000361b l       .debug_str	00000000 
00003634 l       .debug_str	00000000 
00003646 l       .debug_str	00000000 
00003660 l       .debug_str	00000000 
00003670 l       .debug_str	00000000 
00003688 l       .debug_str	00000000 
0000368e l       .debug_str	00000000 
000036a8 l       .debug_str	00000000 
000036ac l       .debug_str	00000000 
000036b0 l       .debug_str	00000000 
000036b5 l       .debug_str	00000000 
000036c1 l       .debug_str	00000000 
000036f3 l       .debug_str	00000000 
000036fd l       .debug_str	00000000 
00003709 l       .debug_str	00000000 
0000373b l       .debug_str	00000000 
00003740 l       .debug_str	00000000 
00003747 l       .debug_str	00000000 
00003770 l       .debug_str	00000000 
00003798 l       .debug_str	00000000 
000037e8 l       .debug_str	00000000 
00003810 l       .debug_str	00000000 
00003852 l       .debug_str	00000000 
0000387a l       .debug_str	00000000 
000038ae l       .debug_str	00000000 
000038d6 l       .debug_str	00000000 
00003917 l       .debug_str	00000000 
0000393f l       .debug_str	00000000 
00003972 l       .debug_str	00000000 
0000399b l       .debug_str	00000000 
000039da l       .debug_str	00000000 
00003a21 l       .debug_str	00000000 
00003a49 l       .debug_str	00000000 
00003a75 l       .debug_str	00000000 
00003a7a l       .debug_str	00000000 
00003a80 l       .debug_str	00000000 
00003a8a l       .debug_str	00000000 
00003a93 l       .debug_str	00000000 
00003a9c l       .debug_str	00000000 
00003aa7 l       .debug_str	00000000 
00003ab1 l       .debug_str	00000000 
00003adf l       .debug_str	00000000 
00003af7 l       .debug_str	00000000 
00003b01 l       .debug_str	00000000 
00003b2b l       .debug_str	00000000 
00003b33 l       .debug_str	00000000 
00003b3a l       .debug_str	00000000 
00003b65 l       .debug_str	00000000 
00003b95 l       .debug_str	00000000 
00003bae l       .debug_str	00000000 
00003bb9 l       .debug_str	00000000 
00003be1 l       .debug_str	00000000 
00003c0f l       .debug_str	00000000 
00003c19 l       .debug_str	00000000 
00003c21 l       .debug_str	00000000 
00003c28 l       .debug_str	00000000 
00003c2f l       .debug_str	00000000 
00003c34 l       .debug_str	00000000 
00003c5e l       .debug_str	00000000 
00003c8d l       .debug_str	00000000 
00003ca5 l       .debug_str	00000000 
00003caf l       .debug_str	00000000 
00003cd7 l       .debug_str	00000000 
00003d04 l       .debug_str	00000000 
00003d2b l       .debug_str	00000000 
00003d8c l       .debug_str	00000000 
00003df5 l       .debug_str	00000000 
00003e43 l       .debug_str	00000000 
00003e99 l       .debug_str	00000000 
00003edd l       .debug_str	00000000 
00003f29 l       .debug_str	00000000 
00003f85 l       .debug_str	00000000 
00003fe9 l       .debug_str	00000000 
00004011 l       .debug_str	00000000 
0000403b l       .debug_str	00000000 
00004043 l       .debug_str	00000000 
0000404c l       .debug_str	00000000 
0000405a l       .debug_str	00000000 
00004061 l       .debug_str	00000000 
00004068 l       .debug_str	00000000 
00004078 l       .debug_str	00000000 
00004081 l       .debug_str	00000000 
0000408f l       .debug_str	00000000 
0000409d l       .debug_str	00000000 
000040a9 l       .debug_str	00000000 
000040b5 l       .debug_str	00000000 
000040be l       .debug_str	00000000 
000040cd l       .debug_str	00000000 
000040d5 l       .debug_str	00000000 
000040ee l       .debug_str	00000000 
000040ff l       .debug_str	00000000 
00004107 l       .debug_str	00000000 
00004121 l       .debug_str	00000000 
0000412d l       .debug_str	00000000 
00004159 l       .debug_str	00000000 
00004172 l       .debug_str	00000000 
0000417d l       .debug_str	00000000 
000041a8 l       .debug_str	00000000 
000041b1 l       .debug_str	00000000 
000041cc l       .debug_str	00000000 
000041d9 l       .debug_str	00000000 
00004206 l       .debug_str	00000000 
0000420e l       .debug_str	00000000 
00004236 l       .debug_str	00000000 
00004257 l       .debug_str	00000000 
0000425b l       .debug_str	00000000 
00004276 l       .debug_str	00000000 
0000427e l       .debug_str	00000000 
000042a6 l       .debug_str	00000000 
000042d1 l       .debug_str	00000000 
000042f9 l       .debug_str	00000000 
00004327 l       .debug_str	00000000 
0000434f l       .debug_str	00000000 
00004382 l       .debug_str	00000000 
000043aa l       .debug_str	00000000 
000043d5 l       .debug_str	00000000 
000043de l       .debug_str	00000000 
000043f3 l       .debug_str	00000000 
000043fe l       .debug_str	00000000 
00004405 l       .debug_str	00000000 
0000442d l       .debug_str	00000000 
00004457 l       .debug_str	00000000 
0000447f l       .debug_str	00000000 
000044ba l       .debug_str	00000000 
000044e2 l       .debug_str	00000000 
0000451f l       .debug_str	00000000 
00004547 l       .debug_str	00000000 
00004587 l       .debug_str	00000000 
000045af l       .debug_str	00000000 
000045e3 l       .debug_str	00000000 
000045ec l       .debug_str	00000000 
000045ff l       .debug_str	00000000 
00004637 l       .debug_str	00000000 
0000466b l       .debug_str	00000000 
000046a0 l       .debug_str	00000000 
000046da l       .debug_str	00000000 
000046e5 l       .debug_str	00000000 
000046f5 l       .debug_str	00000000 
00004711 l       .debug_str	00000000 
0000471f l       .debug_str	00000000 
00004747 l       .debug_str	00000000 
00004782 l       .debug_str	00000000 
00004787 l       .debug_str	00000000 
00004793 l       .debug_str	00000000 
00004795 l       .debug_str	00000000 
00004798 l       .debug_str	00000000 
000047a9 l       .debug_str	00000000 
000047c2 l       .debug_str	00000000 
000047c6 l       .debug_str	00000000 
000047d0 l       .debug_str	00000000 
000047d5 l       .debug_str	00000000 
000047dc l       .debug_str	00000000 
000047e4 l       .debug_str	00000000 
000047ec l       .debug_str	00000000 
000047f3 l       .debug_str	00000000 
000047fa l       .debug_str	00000000 
00004821 l       .debug_str	00000000 
00004874 l       .debug_str	00000000 
000048cf l       .debug_str	00000000 
000048e8 l       .debug_str	00000000 
000048f3 l       .debug_str	00000000 
00004922 l       .debug_str	00000000 
00004956 l       .debug_str	00000000 
000049ac l       .debug_str	00000000 
00004a0a l       .debug_str	00000000 
00004a32 l       .debug_str	00000000 
00004a75 l       .debug_str	00000000 
00004a84 l       .debug_str	00000000 
00004a8f l       .debug_str	00000000 
00004a9e l       .debug_str	00000000 
00004ab3 l       .debug_str	00000000 
00004acb l       .debug_str	00000000 
00004b1e l       .debug_str	00000000 
00004b79 l       .debug_str	00000000 
00004b8e l       .debug_str	00000000 
00004ba7 l       .debug_str	00000000 
00004bcf l       .debug_str	00000000 
00004c15 l       .debug_str	00000000 
00004c47 l       .debug_str	00000000 
00004c55 l       .debug_str	00000000 
00004c59 l       .debug_str	00000000 
00004c5f l       .debug_str	00000000 
00004c6d l       .debug_str	00000000 
00004cab l       .debug_str	00000000 
00004cbb l       .debug_str	00000000 
00004cbf l       .debug_str	00000000 
00004cc4 l       .debug_str	00000000 
00004cc8 l       .debug_str	00000000 
00004ccd l       .debug_str	00000000 
00004cd3 l       .debug_str	00000000 
00004ce3 l       .debug_str	00000000 
00000000 l     O .rodata..Lanon.66efcc49d0fee5a2b1dd6aff61b9601a.11	00000010 .Lanon.66efcc49d0fee5a2b1dd6aff61b9601a.11
00000000 l     O .rodata..Lanon.66efcc49d0fee5a2b1dd6aff61b9601a.13	00000018 .Lanon.66efcc49d0fee5a2b1dd6aff61b9601a.13
00000000 l     O .rodata..Lanon.66efcc49d0fee5a2b1dd6aff61b9601a.14	00000011 .Lanon.66efcc49d0fee5a2b1dd6aff61b9601a.14
00000000 l     O .rodata..Lanon.66efcc49d0fee5a2b1dd6aff61b9601a.15	00000018 .Lanon.66efcc49d0fee5a2b1dd6aff61b9601a.15
00000000 l     O .rodata..Lanon.66efcc49d0fee5a2b1dd6aff61b9601a.17	00000018 .Lanon.66efcc49d0fee5a2b1dd6aff61b9601a.17
00000000 l     O .rodata..Lanon.66efcc49d0fee5a2b1dd6aff61b9601a.18	00000016 .Lanon.66efcc49d0fee5a2b1dd6aff61b9601a.18
00000000 l     O .rodata..Lanon.66efcc49d0fee5a2b1dd6aff61b9601a.2	00000018 .Lanon.66efcc49d0fee5a2b1dd6aff61b9601a.2
00000000 l     O .rodata..Lanon.66efcc49d0fee5a2b1dd6aff61b9601a.20	00000018 .Lanon.66efcc49d0fee5a2b1dd6aff61b9601a.20
00000000 l     O .rodata..Lanon.66efcc49d0fee5a2b1dd6aff61b9601a.21	00000018 .Lanon.66efcc49d0fee5a2b1dd6aff61b9601a.21
00000000 l     O .rodata..Lanon.66efcc49d0fee5a2b1dd6aff61b9601a.22	00000019 .Lanon.66efcc49d0fee5a2b1dd6aff61b9601a.22
00000000 l     O .rodata..Lanon.66efcc49d0fee5a2b1dd6aff61b9601a.23	0000000a .Lanon.66efcc49d0fee5a2b1dd6aff61b9601a.23
00000000 l     O .rodata.cst8	00000008 .Lanon.66efcc49d0fee5a2b1dd6aff61b9601a.24
00000000 l     O .rodata.cst16	00000010 .Lanon.66efcc49d0fee5a2b1dd6aff61b9601a.25
00000000 l     O .rodata..Lanon.66efcc49d0fee5a2b1dd6aff61b9601a.26	00000010 .Lanon.66efcc49d0fee5a2b1dd6aff61b9601a.26
00000000 l     O .rodata..Lanon.66efcc49d0fee5a2b1dd6aff61b9601a.28	00000018 .Lanon.66efcc49d0fee5a2b1dd6aff61b9601a.28
00000000 l     O .rodata..Lanon.66efcc49d0fee5a2b1dd6aff61b9601a.29	00000010 .Lanon.66efcc49d0fee5a2b1dd6aff61b9601a.29
00000000 l     O .rodata..Lanon.66efcc49d0fee5a2b1dd6aff61b9601a.3	0000000a .Lanon.66efcc49d0fee5a2b1dd6aff61b9601a.3
00000000 l     O .rodata..Lanon.66efcc49d0fee5a2b1dd6aff61b9601a.30	00000010 .Lanon.66efcc49d0fee5a2b1dd6aff61b9601a.30
00000000 l     O .rodata..Lanon.66efcc49d0fee5a2b1dd6aff61b9601a.31	00000011 .Lanon.66efcc49d0fee5a2b1dd6aff61b9601a.31
00000000 l     O .rodata..Lanon.66efcc49d0fee5a2b1dd6aff61b9601a.32	00000011 .Lanon.66efcc49d0fee5a2b1dd6aff61b9601a.32
00000000 l     O .rodata..Lanon.66efcc49d0fee5a2b1dd6aff61b9601a.33	00000010 .Lanon.66efcc49d0fee5a2b1dd6aff61b9601a.33
00000000 l     O .rodata..Lanon.66efcc49d0fee5a2b1dd6aff61b9601a.34	00000001 .Lanon.66efcc49d0fee5a2b1dd6aff61b9601a.34
00000000 l     O .rodata..Lanon.66efcc49d0fee5a2b1dd6aff61b9601a.36	00000018 .Lanon.66efcc49d0fee5a2b1dd6aff61b9601a.36
00000000 l     O .rodata..Lanon.66efcc49d0fee5a2b1dd6aff61b9601a.37	00000010 .Lanon.66efcc49d0fee5a2b1dd6aff61b9601a.37
00000000 l     O .rodata..Lanon.66efcc49d0fee5a2b1dd6aff61b9601a.39	00000018 .Lanon.66efcc49d0fee5a2b1dd6aff61b9601a.39
00000000 l     O .rodata..Lanon.66efcc49d0fee5a2b1dd6aff61b9601a.4	0000000d .Lanon.66efcc49d0fee5a2b1dd6aff61b9601a.4
00000000 l     O .rodata..Lanon.66efcc49d0fee5a2b1dd6aff61b9601a.40	00000018 .Lanon.66efcc49d0fee5a2b1dd6aff61b9601a.40
00000000 l     O .rodata..Lanon.66efcc49d0fee5a2b1dd6aff61b9601a.41	0000004b .Lanon.66efcc49d0fee5a2b1dd6aff61b9601a.41
00000000 l     O .rodata..Lanon.66efcc49d0fee5a2b1dd6aff61b9601a.42	00000018 .Lanon.66efcc49d0fee5a2b1dd6aff61b9601a.42
00000000 l     O .rodata..Lanon.66efcc49d0fee5a2b1dd6aff61b9601a.43	00000018 .Lanon.66efcc49d0fee5a2b1dd6aff61b9601a.43
00000000 l     O .rodata..Lanon.66efcc49d0fee5a2b1dd6aff61b9601a.44	00000021 .Lanon.66efcc49d0fee5a2b1dd6aff61b9601a.44
00000000 l     O .rodata..Lanon.66efcc49d0fee5a2b1dd6aff61b9601a.45	00000012 .Lanon.66efcc49d0fee5a2b1dd6aff61b9601a.45
00000000 l     O .rodata..Lanon.66efcc49d0fee5a2b1dd6aff61b9601a.46	00000009 .Lanon.66efcc49d0fee5a2b1dd6aff61b9601a.46
00000008 l     O .rodata.cst8	00000008 .Lanon.66efcc49d0fee5a2b1dd6aff61b9601a.47
00000000 l     O .rodata..Lanon.66efcc49d0fee5a2b1dd6aff61b9601a.48	00000001 .Lanon.66efcc49d0fee5a2b1dd6aff61b9601a.48
00000000 l     O .rodata..Lanon.66efcc49d0fee5a2b1dd6aff61b9601a.49	0000000c .Lanon.66efcc49d0fee5a2b1dd6aff61b9601a.49
00000000 l     O .rodata.cst4	00000004 .Lanon.66efcc49d0fee5a2b1dd6aff61b9601a.5
00000000 l     O .rodata..Lanon.66efcc49d0fee5a2b1dd6aff61b9601a.50	00000009 .Lanon.66efcc49d0fee5a2b1dd6aff61b9601a.50
00000000 l     O .rodata..Lanon.66efcc49d0fee5a2b1dd6aff61b9601a.51	0000000d .Lanon.66efcc49d0fee5a2b1dd6aff61b9601a.51
00000000 l     O .rodata..Lanon.66efcc49d0fee5a2b1dd6aff61b9601a.52	0000000c .Lanon.66efcc49d0fee5a2b1dd6aff61b9601a.52
00000000 l     O .rodata..Lanon.66efcc49d0fee5a2b1dd6aff61b9601a.53	0000000b .Lanon.66efcc49d0fee5a2b1dd6aff61b9601a.53
00000000 l     O .rodata..Lanon.66efcc49d0fee5a2b1dd6aff61b9601a.54	0000000c .Lanon.66efcc49d0fee5a2b1dd6aff61b9601a.54
00000000 l     O .rodata..Lanon.66efcc49d0fee5a2b1dd6aff61b9601a.55	0000000a .Lanon.66efcc49d0fee5a2b1dd6aff61b9601a.55
00000000 l     O .rodata..Lanon.66efcc49d0fee5a2b1dd6aff61b9601a.56	0000000a .Lanon.66efcc49d0fee5a2b1dd6aff61b9601a.56
00000000 l     O .rodata..Lanon.66efcc49d0fee5a2b1dd6aff61b9601a.57	00000009 .Lanon.66efcc49d0fee5a2b1dd6aff61b9601a.57
00000000 l     O .rodata..Lanon.66efcc49d0fee5a2b1dd6aff61b9601a.58	0000000a .Lanon.66efcc49d0fee5a2b1dd6aff61b9601a.58
00000000 l     O .rodata..Lanon.66efcc49d0fee5a2b1dd6aff61b9601a.59	0000000a .Lanon.66efcc49d0fee5a2b1dd6aff61b9601a.59
00000000 l     O .rodata..Lanon.66efcc49d0fee5a2b1dd6aff61b9601a.60	00000007 .Lanon.66efcc49d0fee5a2b1dd6aff61b9601a.60
00000000 l     O .rodata..Lanon.66efcc49d0fee5a2b1dd6aff61b9601a.61	0000000a .Lanon.66efcc49d0fee5a2b1dd6aff61b9601a.61
00000000 l     O .rodata..Lanon.66efcc49d0fee5a2b1dd6aff61b9601a.62	0000000c .Lanon.66efcc49d0fee5a2b1dd6aff61b9601a.62
00000000 l     O .rodata..Lanon.66efcc49d0fee5a2b1dd6aff61b9601a.63	0000000a .Lanon.66efcc49d0fee5a2b1dd6aff61b9601a.63
00000000 l     O .rodata..Lanon.66efcc49d0fee5a2b1dd6aff61b9601a.64	0000000a .Lanon.66efcc49d0fee5a2b1dd6aff61b9601a.64
00000000 l     O .rodata..Lanon.66efcc49d0fee5a2b1dd6aff61b9601a.65	00000007 .Lanon.66efcc49d0fee5a2b1dd6aff61b9601a.65
00000000 l     O .rodata..Lanon.66efcc49d0fee5a2b1dd6aff61b9601a.9	00000018 .Lanon.66efcc49d0fee5a2b1dd6aff61b9601a.9
00000000 l     F .text._ZN42_$LT$$RF$T$u20$as$u20$core..fmt..Debug$GT$3fmt17h3cd16d96a1ab09b9E	0000003a <&T as core::fmt::Debug>::fmt
00000000 l     F .text._ZN42_$LT$$RF$T$u20$as$u20$core..fmt..Debug$GT$3fmt17hc9a0951cf9a1a237E	0000003a <&T as core::fmt::Debug>::fmt
00000000 l     F .text._ZN5mylib13listen_sensor16read_temperature17hf92a13341077b6f1E	00000242 mylib::listen_sensor::read_temperature
00000000 l     O .data._ZN5mylib6mynewt2hw6sensor17LISTENER_INTERNAL17h6989d730901761b2E	00000018 mylib::mynewt::hw::sensor::LISTENER_INTERNAL
00000000 l     F .text._ZN5mylib6mynewt2hw6sensor21null_sensor_data_func17hcc148dc38d5a5bd5E	00000004 mylib::mynewt::hw::sensor::null_sensor_data_func
00000000 l     O .bss._ZN5mylib9send_coap12NETWORK_TASK17hdeec958d38dcbb3aE	00000050 mylib::send_coap::NETWORK_TASK
00000000 l     O .bss._ZN5mylib9send_coap16NETWORK_IS_READY17h9c862a27d6aefdb0E.0.0	00000001 _ZN5mylib9send_coap16NETWORK_IS_READY17h9c862a27d6aefdb0E.0.0
00000000 l     F .text._ZN5mylib9send_coap17network_task_func17h4cb9c6d5020b51c1E	0000011a mylib::send_coap::network_task_func
00000000 l     O .bss._ZN5mylib9send_coap18NETWORK_TASK_STACK17hfae71d0c8a5b92e9E	00000400 mylib::send_coap::NETWORK_TASK_STACK
00000000 l     O .rodata.str.3	00000010 str.3
00000000 l    d  .text._ZN42_$LT$$RF$T$u20$as$u20$core..fmt..Debug$GT$3fmt17h3cd16d96a1ab09b9E	00000000 .text._ZN42_$LT$$RF$T$u20$as$u20$core..fmt..Debug$GT$3fmt17h3cd16d96a1ab09b9E
00000000 l    d  .text._ZN42_$LT$$RF$T$u20$as$u20$core..fmt..Debug$GT$3fmt17hc9a0951cf9a1a237E	00000000 .text._ZN42_$LT$$RF$T$u20$as$u20$core..fmt..Debug$GT$3fmt17hc9a0951cf9a1a237E
00000000 l    d  .text._ZN86_$LT$mylib..mynewt..encoding..json..json_encoder$u20$as$u20$core..default..Default$GT$7default17h428e5bd092199eb3E	00000000 .text._ZN86_$LT$mylib..mynewt..encoding..json..json_encoder$u20$as$u20$core..default..Default$GT$7default17h428e5bd092199eb3E
00000000 l    d  .text._ZN85_$LT$mylib..mynewt..encoding..json..json_enum_t$u20$as$u20$core..default..Default$GT$7default17h2cb196103b18055bE	00000000 .text._ZN85_$LT$mylib..mynewt..encoding..json..json_enum_t$u20$as$u20$core..default..Default$GT$7default17h2cb196103b18055bE
00000000 l    d  .text._ZN114_$LT$mylib..mynewt..encoding..json..json_array_t__bindgen_ty_1__bindgen_ty_1$u20$as$u20$core..default..Default$GT$7default17h6c1e211a7a9517e5E	00000000 .text._ZN114_$LT$mylib..mynewt..encoding..json..json_array_t__bindgen_ty_1__bindgen_ty_1$u20$as$u20$core..default..Default$GT$7default17h6c1e211a7a9517e5E
00000000 l    d  .text._ZN100_$LT$mylib..mynewt..encoding..json..json_array_t__bindgen_ty_1$u20$as$u20$core..default..Default$GT$7default17h00d13d95441a2cf0E	00000000 .text._ZN100_$LT$mylib..mynewt..encoding..json..json_array_t__bindgen_ty_1$u20$as$u20$core..default..Default$GT$7default17h00d13d95441a2cf0E
00000000 l    d  .text._ZN86_$LT$mylib..mynewt..encoding..json..json_array_t$u20$as$u20$core..default..Default$GT$7default17h2b223ed3a28d1a29E	00000000 .text._ZN86_$LT$mylib..mynewt..encoding..json..json_array_t$u20$as$u20$core..default..Default$GT$7default17h2b223ed3a28d1a29E
00000000 l    d  .text._ZN99_$LT$mylib..mynewt..encoding..json..json_attr_t__bindgen_ty_1$u20$as$u20$core..default..Default$GT$7default17h6e95b1a78d90e8d4E	00000000 .text._ZN99_$LT$mylib..mynewt..encoding..json..json_attr_t__bindgen_ty_1$u20$as$u20$core..default..Default$GT$7default17h6e95b1a78d90e8d4E
00000000 l    d  .text._ZN85_$LT$mylib..mynewt..encoding..json..json_attr_t$u20$as$u20$core..default..Default$GT$7default17h61f66cf2439f5a6bE	00000000 .text._ZN85_$LT$mylib..mynewt..encoding..json..json_attr_t$u20$as$u20$core..default..Default$GT$7default17h61f66cf2439f5a6bE
00000000 l    d  .text._ZN78_$LT$mylib..mynewt..kernel..os..os_event$u20$as$u20$core..default..Default$GT$7default17hab59bb343539a5e1E	00000000 .text._ZN78_$LT$mylib..mynewt..kernel..os..os_event$u20$as$u20$core..default..Default$GT$7default17hab59bb343539a5e1E
00000000 l    d  .text._ZN80_$LT$mylib..mynewt..kernel..os..os_callout$u20$as$u20$core..default..Default$GT$7default17hd86f28aa73fc4410E	00000000 .text._ZN80_$LT$mylib..mynewt..kernel..os..os_callout$u20$as$u20$core..default..Default$GT$7default17hd86f28aa73fc4410E
00000000 l    d  .text._ZN79_$LT$mylib..mynewt..kernel..os..hal_timer$u20$as$u20$core..default..Default$GT$7default17h66f1d9d24d6a4172E	00000000 .text._ZN79_$LT$mylib..mynewt..kernel..os..hal_timer$u20$as$u20$core..default..Default$GT$7default17h66f1d9d24d6a4172E
00000000 l    d  .text._ZN76_$LT$mylib..mynewt..kernel..os..os_dev$u20$as$u20$core..default..Default$GT$7default17h863cfd38cc9eb74cE	00000000 .text._ZN76_$LT$mylib..mynewt..kernel..os..os_dev$u20$as$u20$core..default..Default$GT$7default17h863cfd38cc9eb74cE
00000000 l    d  .text._ZN77_$LT$mylib..mynewt..kernel..os..os_mbuf$u20$as$u20$core..default..Default$GT$7default17h0eda3dafded4885eE	00000000 .text._ZN77_$LT$mylib..mynewt..kernel..os..os_mbuf$u20$as$u20$core..default..Default$GT$7default17h0eda3dafded4885eE
00000000 l    d  .text._ZN80_$LT$mylib..mynewt..kernel..os..os_mempool$u20$as$u20$core..default..Default$GT$7default17hc3e02f8bcbd2991fE	00000000 .text._ZN80_$LT$mylib..mynewt..kernel..os..os_mempool$u20$as$u20$core..default..Default$GT$7default17hc3e02f8bcbd2991fE
00000000 l    d  .text._ZN85_$LT$mylib..mynewt..kernel..os..os_sanity_check$u20$as$u20$core..default..Default$GT$7default17hfb2785c50f40475bE	00000000 .text._ZN85_$LT$mylib..mynewt..kernel..os..os_sanity_check$u20$as$u20$core..default..Default$GT$7default17hfb2785c50f40475bE
00000000 l    d  .text._ZN77_$LT$mylib..mynewt..kernel..os..os_task$u20$as$u20$core..default..Default$GT$7default17h7114b528e67cd33cE	00000000 .text._ZN77_$LT$mylib..mynewt..kernel..os..os_task$u20$as$u20$core..default..Default$GT$7default17h7114b528e67cd33cE
00000000 l    d  .text._ZN76_$LT$mylib..mynewt..kernel..os..os_sem$u20$as$u20$core..default..Default$GT$7default17h31986badcc858de0E	00000000 .text._ZN76_$LT$mylib..mynewt..kernel..os..os_sem$u20$as$u20$core..default..Default$GT$7default17h31986badcc858de0E
00000000 l    d  .text._ZN100_$LT$mylib..mynewt..hw..sensor..bindings..os_dev__bindgen_ty_1$u20$as$u20$core..default..Default$GT$7default17h68f9d7fbd31500ddE	00000000 .text._ZN100_$LT$mylib..mynewt..hw..sensor..bindings..os_dev__bindgen_ty_1$u20$as$u20$core..default..Default$GT$7default17h68f9d7fbd31500ddE
00000000 l    d  .text._ZN93_$LT$mylib..mynewt..hw..sensor..bindings..sensor_data_t$u20$as$u20$core..default..Default$GT$7default17hcd434db2840dcf57E	00000000 .text._ZN93_$LT$mylib..mynewt..hw..sensor..bindings..sensor_data_t$u20$as$u20$core..default..Default$GT$7default17hcd434db2840dcf57E
00000000 l    d  .text._ZN95_$LT$mylib..mynewt..hw..sensor..bindings..sensor_listener$u20$as$u20$core..default..Default$GT$7default17h28c68ce312d57044E	00000000 .text._ZN95_$LT$mylib..mynewt..hw..sensor..bindings..sensor_listener$u20$as$u20$core..default..Default$GT$7default17h28c68ce312d57044E
00000000 l    d  .text._ZN98_$LT$mylib..mynewt..hw..sensor..bindings..sensor_type_traits$u20$as$u20$core..default..Default$GT$7default17h8285780e3fefaa9fE	00000000 .text._ZN98_$LT$mylib..mynewt..hw..sensor..bindings..sensor_type_traits$u20$as$u20$core..default..Default$GT$7default17h8285780e3fefaa9fE
00000000 l    d  .text._ZN100_$LT$mylib..mynewt..hw..sensor..bindings..sensor_notify_ev_ctx$u20$as$u20$core..default..Default$GT$7default17hdfc850ac9db4ce63E	00000000 .text._ZN100_$LT$mylib..mynewt..hw..sensor..bindings..sensor_notify_ev_ctx$u20$as$u20$core..default..Default$GT$7default17hdfc850ac9db4ce63E
00000000 l    d  .text._ZN86_$LT$mylib..mynewt..hw..sensor..bindings..sensor$u20$as$u20$core..default..Default$GT$7default17he27dbf96e8284e8aE	00000000 .text._ZN86_$LT$mylib..mynewt..hw..sensor..bindings..sensor$u20$as$u20$core..default..Default$GT$7default17he27dbf96e8284e8aE
00000000 l    d  .text._ZN93_$LT$mylib..mynewt..hw..sensor..bindings.._bindgen_ty_1$u20$as$u20$core..default..Default$GT$7default17ha139728a011f70d5E	00000000 .text._ZN93_$LT$mylib..mynewt..hw..sensor..bindings.._bindgen_ty_1$u20$as$u20$core..default..Default$GT$7default17ha139728a011f70d5E
00000000 l    d  .text._ZN5mylib6mynewt2hw6sensor21null_sensor_data_func17hcc148dc38d5a5bd5E	00000000 .text._ZN5mylib6mynewt2hw6sensor21null_sensor_data_func17hcc148dc38d5a5bd5E
00000000 l    d  .text._ZN101_$LT$mylib..mynewt..libs..sensor_coap..json_value__bindgen_ty_1$u20$as$u20$core..default..Default$GT$7default17ha8fd7ae5d6a4e0dbE	00000000 .text._ZN101_$LT$mylib..mynewt..libs..sensor_coap..json_value__bindgen_ty_1$u20$as$u20$core..default..Default$GT$7default17ha8fd7ae5d6a4e0dbE
00000000 l    d  .text._ZN104_$LT$mylib..mynewt..libs..sensor_network..sensor_network_interface$u20$as$u20$core..default..Default$GT$7default17h77e5687ff3f0405dE	00000000 .text._ZN104_$LT$mylib..mynewt..libs..sensor_network..sensor_network_interface$u20$as$u20$core..default..Default$GT$7default17h77e5687ff3f0405dE
00000000 l    d  .text._ZN5mylib6mynewt6result95_$LT$impl$u20$core..convert..From$LT$mylib..mynewt..result..MynewtError$GT$$u20$for$u20$i32$GT$4from17h0e39a7350d35c582E	00000000 .text._ZN5mylib6mynewt6result95_$LT$impl$u20$core..convert..From$LT$mylib..mynewt..result..MynewtError$GT$$u20$for$u20$i32$GT$4from17h0e39a7350d35c582E
00000000 l    d  .text._ZN5mylib13listen_sensor16read_temperature17hf92a13341077b6f1E	00000000 .text._ZN5mylib13listen_sensor16read_temperature17hf92a13341077b6f1E
00000000 l    d  .text._ZN5mylib9send_coap17network_task_func17h4cb9c6d5020b51c1E	00000000 .text._ZN5mylib9send_coap17network_task_func17h4cb9c6d5020b51c1E
00000000 l    d  .text.main	00000000 .text.main
00000000 l    d  .text.rust_begin_unwind	00000000 .text.rust_begin_unwind
00000000 l    d  .text._ZN71_$LT$mylib..mynewt..result..MynewtError$u20$as$u20$core..fmt..Debug$GT$3fmt17h7a245a7741a3c626E	00000000 .text._ZN71_$LT$mylib..mynewt..result..MynewtError$u20$as$u20$core..fmt..Debug$GT$3fmt17h7a245a7741a3c626E
00000000 l    d  .rodata..Lanon.66efcc49d0fee5a2b1dd6aff61b9601a.0	00000000 .rodata..Lanon.66efcc49d0fee5a2b1dd6aff61b9601a.0
00000000 l    d  .rodata..Lanon.66efcc49d0fee5a2b1dd6aff61b9601a.1	00000000 .rodata..Lanon.66efcc49d0fee5a2b1dd6aff61b9601a.1
00000000 l    d  .data._ZN5mylib6mynewt2hw6sensor17LISTENER_INTERNAL17h6989d730901761b2E	00000000 .data._ZN5mylib6mynewt2hw6sensor17LISTENER_INTERNAL17h6989d730901761b2E
00000000 l    d  .rodata..Lanon.66efcc49d0fee5a2b1dd6aff61b9601a.6	00000000 .rodata..Lanon.66efcc49d0fee5a2b1dd6aff61b9601a.6
00000000 l    d  .rodata..Lanon.66efcc49d0fee5a2b1dd6aff61b9601a.7	00000000 .rodata..Lanon.66efcc49d0fee5a2b1dd6aff61b9601a.7
00000000 l    d  .rodata..Lanon.66efcc49d0fee5a2b1dd6aff61b9601a.8	00000000 .rodata..Lanon.66efcc49d0fee5a2b1dd6aff61b9601a.8
00000000 l    d  .rodata..Lanon.66efcc49d0fee5a2b1dd6aff61b9601a.10	00000000 .rodata..Lanon.66efcc49d0fee5a2b1dd6aff61b9601a.10
00000000 l    d  .rodata..Lanon.66efcc49d0fee5a2b1dd6aff61b9601a.12	00000000 .rodata..Lanon.66efcc49d0fee5a2b1dd6aff61b9601a.12
00000000 l    d  .rodata..Lanon.66efcc49d0fee5a2b1dd6aff61b9601a.16	00000000 .rodata..Lanon.66efcc49d0fee5a2b1dd6aff61b9601a.16
00000000 l    d  .rodata..Lanon.66efcc49d0fee5a2b1dd6aff61b9601a.19	00000000 .rodata..Lanon.66efcc49d0fee5a2b1dd6aff61b9601a.19
00000000 l    d  .bss._ZN5mylib9send_coap12NETWORK_TASK17hdeec958d38dcbb3aE	00000000 .bss._ZN5mylib9send_coap12NETWORK_TASK17hdeec958d38dcbb3aE
00000000 l    d  .bss._ZN5mylib9send_coap18NETWORK_TASK_STACK17hfae71d0c8a5b92e9E	00000000 .bss._ZN5mylib9send_coap18NETWORK_TASK_STACK17hfae71d0c8a5b92e9E
00000000 l    d  .rodata..Lanon.66efcc49d0fee5a2b1dd6aff61b9601a.27	00000000 .rodata..Lanon.66efcc49d0fee5a2b1dd6aff61b9601a.27
00000000 l    d  .rodata.str.3	00000000 .rodata.str.3
00000000 l    d  .rodata..Lanon.66efcc49d0fee5a2b1dd6aff61b9601a.35	00000000 .rodata..Lanon.66efcc49d0fee5a2b1dd6aff61b9601a.35
00000000 l    d  .rodata..Lanon.66efcc49d0fee5a2b1dd6aff61b9601a.38	00000000 .rodata..Lanon.66efcc49d0fee5a2b1dd6aff61b9601a.38
00000000 l    d  .bss._ZN5mylib9send_coap16NETWORK_IS_READY17h9c862a27d6aefdb0E.0.0	00000000 .bss._ZN5mylib9send_coap16NETWORK_IS_READY17h9c862a27d6aefdb0E.0.0
00000000 l    d  .debug_loc	00000000 .debug_loc
00000000 l    d  .debug_abbrev	00000000 .debug_abbrev
00000000 l    d  .debug_info	00000000 .debug_info
00000000 l    d  .debug_ranges	00000000 .debug_ranges
00000000 l    d  .debug_frame	00000000 .debug_frame
00000000 l    d  .debug_line	00000000 .debug_line
00000000 g     F .text._ZN100_$LT$mylib..mynewt..encoding..json..json_array_t__bindgen_ty_1$u20$as$u20$core..default..Default$GT$7default17h00d13d95441a2cf0E	00000010 <mylib::mynewt::encoding::json::json_array_t__bindgen_ty_1 as core::default::Default>::default
00000000 g     F .text._ZN100_$LT$mylib..mynewt..hw..sensor..bindings..os_dev__bindgen_ty_1$u20$as$u20$core..default..Default$GT$7default17h68f9d7fbd31500ddE	00000004 <mylib::mynewt::hw::sensor::bindings::os_dev__bindgen_ty_1 as core::default::Default>::default
00000000 g     F .text._ZN100_$LT$mylib..mynewt..hw..sensor..bindings..os_dev__bindgen_ty_1$u20$as$u20$core..default..Default$GT$7default17h68f9d7fbd31500ddE	00000004 <mylib::mynewt::hw::sensor::bindings::sensor__bindgen_ty_1 as core::default::Default>::default
00000000 g     F .text._ZN100_$LT$mylib..mynewt..hw..sensor..bindings..os_dev__bindgen_ty_1$u20$as$u20$core..default..Default$GT$7default17h68f9d7fbd31500ddE	00000004 <mylib::mynewt::hw::sensor::bindings::sensor__bindgen_ty_2 as core::default::Default>::default
00000000 g     F .text._ZN100_$LT$mylib..mynewt..hw..sensor..bindings..os_dev__bindgen_ty_1$u20$as$u20$core..default..Default$GT$7default17h68f9d7fbd31500ddE	00000004 <mylib::mynewt::hw::sensor::bindings::sensor__bindgen_ty_3 as core::default::Default>::default
00000000 g     F .text._ZN100_$LT$mylib..mynewt..hw..sensor..bindings..os_dev__bindgen_ty_1$u20$as$u20$core..default..Default$GT$7default17h68f9d7fbd31500ddE	00000004 <mylib::mynewt::hw::sensor::bindings::sensor__bindgen_ty_4 as core::default::Default>::default
00000000 g     F .text._ZN100_$LT$mylib..mynewt..hw..sensor..bindings..sensor_notify_ev_ctx$u20$as$u20$core..default..Default$GT$7default17hdfc850ac9db4ce63E	00000006 <mylib::mynewt::hw::sensor::bindings::sensor_notify_ev_ctx as core::default::Default>::default
00000000 g     F .text._ZN100_$LT$mylib..mynewt..hw..sensor..bindings..os_dev__bindgen_ty_1$u20$as$u20$core..default..Default$GT$7default17h68f9d7fbd31500ddE	00000004 <mylib::mynewt::hw::sensor::bindings::os_task__bindgen_ty_1 as core::default::Default>::default
00000000 g     F .text._ZN100_$LT$mylib..mynewt..hw..sensor..bindings..sensor_notify_ev_ctx$u20$as$u20$core..default..Default$GT$7default17hdfc850ac9db4ce63E	00000006 <mylib::mynewt::hw::sensor::bindings::os_task__bindgen_ty_2 as core::default::Default>::default
00000000 g     F .text._ZN100_$LT$mylib..mynewt..hw..sensor..bindings..os_dev__bindgen_ty_1$u20$as$u20$core..default..Default$GT$7default17h68f9d7fbd31500ddE	00000004 <mylib::mynewt::hw::sensor::bindings::os_task__bindgen_ty_3 as core::default::Default>::default
00000000 g     F .text._ZN101_$LT$mylib..mynewt..libs..sensor_coap..json_value__bindgen_ty_1$u20$as$u20$core..default..Default$GT$7default17ha8fd7ae5d6a4e0dbE	0000000c <mylib::mynewt::libs::sensor_coap::json_value__bindgen_ty_1 as core::default::Default>::default
00000000 g     F .text._ZN100_$LT$mylib..mynewt..hw..sensor..bindings..os_dev__bindgen_ty_1$u20$as$u20$core..default..Default$GT$7default17h68f9d7fbd31500ddE	00000004 <mylib::mynewt::libs::sensor_coap::os_mempool__bindgen_ty_1 as core::default::Default>::default
00000000 g     F .text._ZN100_$LT$mylib..mynewt..hw..sensor..bindings..os_dev__bindgen_ty_1$u20$as$u20$core..default..Default$GT$7default17h68f9d7fbd31500ddE	00000004 <mylib::mynewt::libs::sensor_coap::os_mempool__bindgen_ty_2 as core::default::Default>::default
00000000 g     F .text._ZN100_$LT$mylib..mynewt..hw..sensor..bindings..os_dev__bindgen_ty_1$u20$as$u20$core..default..Default$GT$7default17h68f9d7fbd31500ddE	00000004 <mylib::mynewt::hw::sensor::bindings::os_event__bindgen_ty_1 as core::default::Default>::default
00000000 g     F .text._ZN100_$LT$mylib..mynewt..hw..sensor..bindings..os_dev__bindgen_ty_1$u20$as$u20$core..default..Default$GT$7default17h68f9d7fbd31500ddE	00000004 <mylib::mynewt::hw::sensor::bindings::os_mutex__bindgen_ty_1 as core::default::Default>::default
00000000 g     F .text._ZN100_$LT$mylib..mynewt..hw..sensor..bindings..os_dev__bindgen_ty_1$u20$as$u20$core..default..Default$GT$7default17h68f9d7fbd31500ddE	00000004 <mylib::mynewt::libs::sensor_coap::os_memblock__bindgen_ty_1 as core::default::Default>::default
00000000 g     F .text._ZN100_$LT$mylib..mynewt..hw..sensor..bindings..sensor_notify_ev_ctx$u20$as$u20$core..default..Default$GT$7default17hdfc850ac9db4ce63E	00000006 <mylib::mynewt::hw::sensor::bindings::os_eventq__bindgen_ty_1 as core::default::Default>::default
00000000 g     F .text._ZN100_$LT$mylib..mynewt..hw..sensor..bindings..os_dev__bindgen_ty_1$u20$as$u20$core..default..Default$GT$7default17h68f9d7fbd31500ddE	00000004 <mylib::mynewt::libs::sensor_coap::os_mbuf_pool__bindgen_ty_1 as core::default::Default>::default
00000000 g     F .text._ZN100_$LT$mylib..mynewt..hw..sensor..bindings..sensor_notify_ev_ctx$u20$as$u20$core..default..Default$GT$7default17hdfc850ac9db4ce63E	00000006 <mylib::mynewt::hw::sensor::bindings::os_callout__bindgen_ty_1 as core::default::Default>::default
00000000 g     F .text._ZN100_$LT$mylib..mynewt..hw..sensor..bindings..os_dev__bindgen_ty_1$u20$as$u20$core..default..Default$GT$7default17h68f9d7fbd31500ddE	00000004 <mylib::mynewt::hw::sensor::bindings::os_mempool__bindgen_ty_1 as core::default::Default>::default
00000000 g     F .text._ZN100_$LT$mylib..mynewt..hw..sensor..bindings..os_dev__bindgen_ty_1$u20$as$u20$core..default..Default$GT$7default17h68f9d7fbd31500ddE	00000004 <mylib::mynewt::hw::sensor::bindings::os_mempool__bindgen_ty_2 as core::default::Default>::default
00000000 g     F .text._ZN104_$LT$mylib..mynewt..libs..sensor_network..sensor_network_interface$u20$as$u20$core..default..Default$GT$7default17h77e5687ff3f0405dE	0000000e <mylib::mynewt::libs::sensor_network::sensor_network_interface as core::default::Default>::default
00000000 g     F .text._ZN100_$LT$mylib..mynewt..hw..sensor..bindings..os_dev__bindgen_ty_1$u20$as$u20$core..default..Default$GT$7default17h68f9d7fbd31500ddE	00000004 <mylib::mynewt::hw::sensor::bindings::os_memblock__bindgen_ty_1 as core::default::Default>::default
00000000 g     F .text._ZN100_$LT$mylib..mynewt..hw..sensor..bindings..os_dev__bindgen_ty_1$u20$as$u20$core..default..Default$GT$7default17h68f9d7fbd31500ddE	00000004 <mylib::mynewt::hw::sensor::bindings::_bindgen_ty_1__bindgen_ty_1 as core::default::Default>::default
00000000 g     F .text._ZN100_$LT$mylib..mynewt..hw..sensor..bindings..os_dev__bindgen_ty_1$u20$as$u20$core..default..Default$GT$7default17h68f9d7fbd31500ddE	00000004 <mylib::mynewt::kernel::os::os_time_change_listener__bindgen_ty_1 as core::default::Default>::default
00000000 g     F .text._ZN100_$LT$mylib..mynewt..hw..sensor..bindings..os_dev__bindgen_ty_1$u20$as$u20$core..default..Default$GT$7default17h68f9d7fbd31500ddE	00000004 <mylib::mynewt::hw::sensor::bindings::os_sanity_check__bindgen_ty_1 as core::default::Default>::default
00000000 g     F .text._ZN100_$LT$mylib..mynewt..hw..sensor..bindings..os_dev__bindgen_ty_1$u20$as$u20$core..default..Default$GT$7default17h68f9d7fbd31500ddE	00000004 <mylib::mynewt::hw::sensor::bindings::sensor_listener__bindgen_ty_1 as core::default::Default>::default
00000000 g     F .text._ZN100_$LT$mylib..mynewt..hw..sensor..bindings..os_dev__bindgen_ty_1$u20$as$u20$core..default..Default$GT$7default17h68f9d7fbd31500ddE	00000004 <mylib::mynewt::hw::sensor::bindings::sensor_notifier__bindgen_ty_1 as core::default::Default>::default
00000000 g     F .text._ZN100_$LT$mylib..mynewt..hw..sensor..bindings..sensor_notify_ev_ctx$u20$as$u20$core..default..Default$GT$7default17hdfc850ac9db4ce63E	00000006 <mylib::mynewt::encoding::json::json_value__bindgen_ty_1__bindgen_ty_1 as core::default::Default>::default
00000000 g     F .text._ZN100_$LT$mylib..mynewt..hw..sensor..bindings..os_dev__bindgen_ty_1$u20$as$u20$core..default..Default$GT$7default17h68f9d7fbd31500ddE	00000004 <mylib::mynewt::hw::sensor::bindings::sensor_type_traits__bindgen_ty_1 as core::default::Default>::default
00000000 g     F .text._ZN114_$LT$mylib..mynewt..encoding..json..json_array_t__bindgen_ty_1__bindgen_ty_1$u20$as$u20$core..default..Default$GT$7default17h6c1e211a7a9517e5E	0000000a <mylib::mynewt::encoding::json::json_array_t__bindgen_ty_1__bindgen_ty_1 as core::default::Default>::default
00000000 g     F .text._ZN114_$LT$mylib..mynewt..encoding..json..json_array_t__bindgen_ty_1__bindgen_ty_1$u20$as$u20$core..default..Default$GT$7default17h6c1e211a7a9517e5E	0000000a <mylib::mynewt::encoding::json::json_array_t__bindgen_ty_1__bindgen_ty_2 as core::default::Default>::default
00000000 g     F .text._ZN100_$LT$mylib..mynewt..hw..sensor..bindings..os_dev__bindgen_ty_1$u20$as$u20$core..default..Default$GT$7default17h68f9d7fbd31500ddE	00000004 <mylib::mynewt::encoding::json::json_array_t__bindgen_ty_1__bindgen_ty_3 as core::default::Default>::default
00000000 g     F .text._ZN100_$LT$mylib..mynewt..hw..sensor..bindings..os_dev__bindgen_ty_1$u20$as$u20$core..default..Default$GT$7default17h68f9d7fbd31500ddE	00000004 <mylib::mynewt::encoding::json::json_array_t__bindgen_ty_1__bindgen_ty_4 as core::default::Default>::default
00000000 g     F .text._ZN100_$LT$mylib..mynewt..hw..sensor..bindings..os_dev__bindgen_ty_1$u20$as$u20$core..default..Default$GT$7default17h68f9d7fbd31500ddE	00000004 <mylib::mynewt::encoding::json::json_array_t__bindgen_ty_1__bindgen_ty_5 as core::default::Default>::default
00000000 g     F .text._ZN100_$LT$mylib..mynewt..hw..sensor..bindings..os_dev__bindgen_ty_1$u20$as$u20$core..default..Default$GT$7default17h68f9d7fbd31500ddE	00000004 <mylib::mynewt::encoding::json::json_array_t__bindgen_ty_1__bindgen_ty_6 as core::default::Default>::default
00000000 g     F .text._ZN100_$LT$mylib..mynewt..hw..sensor..bindings..sensor_notify_ev_ctx$u20$as$u20$core..default..Default$GT$7default17hdfc850ac9db4ce63E	00000006 <mylib::mynewt::libs::sensor_coap::json_value__bindgen_ty_1__bindgen_ty_1 as core::default::Default>::default
00000000         *UND*	00000000 core::fmt::num::imp::<impl core::fmt::Display for u8>::fmt
00000000         *UND*	00000000 core::fmt::num::imp::<impl core::fmt::Display for i32>::fmt
00000000         *UND*	00000000 core::fmt::num::<impl core::fmt::LowerHex for u8>::fmt
00000000         *UND*	00000000 core::fmt::num::<impl core::fmt::UpperHex for u8>::fmt
00000000         *UND*	00000000 core::fmt::num::<impl core::fmt::LowerHex for i32>::fmt
00000000         *UND*	00000000 core::fmt::num::<impl core::fmt::UpperHex for i32>::fmt
00000000         *UND*	00000000 core::fmt::builders::DebugTuple::finish
00000000         *UND*	00000000 core::fmt::Formatter::debug_tuple
00000000         *UND*	00000000 core::fmt::Formatter::debug_lower_hex
00000000         *UND*	00000000 core::fmt::Formatter::debug_upper_hex
00000000         *UND*	00000000 core::panic::Location::file
00000000         *UND*	00000000 core::panic::Location::line
00000000         *UND*	00000000 core::panic::PanicInfo::location
00000000         *UND*	00000000 core::slice::slice_index_len_fail
00000000         *UND*	00000000 core::panicking::panic_bounds_check
00000000         *UND*	00000000 core::panicking::panic
00000000         *UND*	00000000 core::panicking::panic_fmt
00000000 g     F .text._ZN5mylib6mynewt6result95_$LT$impl$u20$core..convert..From$LT$mylib..mynewt..result..MynewtError$GT$$u20$for$u20$i32$GT$4from17h0e39a7350d35c582E	00000002 mylib::mynewt::result::<impl core::convert::From<mylib::mynewt::result::MynewtError> for i32>::from
00000000 g     F .text._ZN71_$LT$mylib..mynewt..result..MynewtError$u20$as$u20$core..fmt..Debug$GT$3fmt17h7a245a7741a3c626E	0000011a <mylib::mynewt::result::MynewtError as core::fmt::Debug>::fmt
00000000 g     F .text._ZN76_$LT$mylib..mynewt..kernel..os..os_dev$u20$as$u20$core..default..Default$GT$7default17h863cfd38cc9eb74cE	0000000a <mylib::mynewt::kernel::os::os_dev as core::default::Default>::default
00000000 g     F .text._ZN76_$LT$mylib..mynewt..kernel..os..os_sem$u20$as$u20$core..default..Default$GT$7default17h31986badcc858de0E	00000008 <mylib::mynewt::kernel::os::os_sem as core::default::Default>::default
00000000 g     F .text._ZN77_$LT$mylib..mynewt..kernel..os..os_mbuf$u20$as$u20$core..default..Default$GT$7default17h0eda3dafded4885eE	0000000c <mylib::mynewt::kernel::os::os_mbuf as core::default::Default>::default
00000000 g     F .text._ZN77_$LT$mylib..mynewt..kernel..os..os_task$u20$as$u20$core..default..Default$GT$7default17h7114b528e67cd33cE	0000000a <mylib::mynewt::kernel::os::os_task as core::default::Default>::default
00000000 g     F .text._ZN78_$LT$mylib..mynewt..kernel..os..os_event$u20$as$u20$core..default..Default$GT$7default17hab59bb343539a5e1E	0000000c <mylib::mynewt::kernel::os::os_event as core::default::Default>::default
00000000 g     F .text._ZN114_$LT$mylib..mynewt..encoding..json..json_array_t__bindgen_ty_1__bindgen_ty_1$u20$as$u20$core..default..Default$GT$7default17h6c1e211a7a9517e5E	0000000a <mylib::mynewt::kernel::os::os_mutex as core::default::Default>::default
00000000 g     F .text._ZN79_$LT$mylib..mynewt..kernel..os..hal_timer$u20$as$u20$core..default..Default$GT$7default17h66f1d9d24d6a4172E	00000010 <mylib::mynewt::kernel::os::hal_timer as core::default::Default>::default
00000000 g     F .text._ZN77_$LT$mylib..mynewt..kernel..os..os_mbuf$u20$as$u20$core..default..Default$GT$7default17h0eda3dafded4885eE	0000000c <mylib::mynewt::kernel::os::os_eventq as core::default::Default>::default
00000000 g     F .text._ZN79_$LT$mylib..mynewt..kernel..os..hal_timer$u20$as$u20$core..default..Default$GT$7default17h66f1d9d24d6a4172E	00000010 <mylib::mynewt::kernel::os::os_mqueue as core::default::Default>::default
00000000 g     F .text._ZN80_$LT$mylib..mynewt..kernel..os..os_callout$u20$as$u20$core..default..Default$GT$7default17hd86f28aa73fc4410E	00000014 <mylib::mynewt::kernel::os::os_callout as core::default::Default>::default
00000000 g     F .text._ZN80_$LT$mylib..mynewt..kernel..os..os_mempool$u20$as$u20$core..default..Default$GT$7default17hc3e02f8bcbd2991fE	00000012 <mylib::mynewt::kernel::os::os_mempool as core::default::Default>::default
00000000 g     F .text._ZN100_$LT$mylib..mynewt..hw..sensor..bindings..os_dev__bindgen_ty_1$u20$as$u20$core..default..Default$GT$7default17h68f9d7fbd31500ddE	00000004 <mylib::mynewt::kernel::os::os_memblock as core::default::Default>::default
00000000 g     F .text._ZN100_$LT$mylib..mynewt..hw..sensor..bindings..os_dev__bindgen_ty_1$u20$as$u20$core..default..Default$GT$7default17h68f9d7fbd31500ddE	00000004 <mylib::mynewt::kernel::os::os_task_obj as core::default::Default>::default
00000000 g     F .text._ZN100_$LT$mylib..mynewt..hw..sensor..bindings..os_dev__bindgen_ty_1$u20$as$u20$core..default..Default$GT$7default17h68f9d7fbd31500ddE	00000004 <mylib::mynewt::encoding::tinycbor::File as core::default::Default>::default
00000000 g     F .text._ZN114_$LT$mylib..mynewt..encoding..json..json_array_t__bindgen_ty_1__bindgen_ty_1$u20$as$u20$core..default..Default$GT$7default17h6c1e211a7a9517e5E	0000000a <mylib::mynewt::kernel::os::os_mbuf_pool as core::default::Default>::default
00000000 g     F .text._ZN100_$LT$mylib..mynewt..hw..sensor..bindings..sensor_notify_ev_ctx$u20$as$u20$core..default..Default$GT$7default17hdfc850ac9db4ce63E	00000006 <mylib::mynewt::kernel::os::os_task_list as core::default::Default>::default
00000000 g     F .text._ZN100_$LT$mylib..mynewt..encoding..json..json_array_t__bindgen_ty_1$u20$as$u20$core..default..Default$GT$7default17h00d13d95441a2cf0E	00000010 <mylib::mynewt::encoding::json::json_value as core::default::Default>::default
00000000 g     F .text._ZN76_$LT$mylib..mynewt..kernel..os..os_sem$u20$as$u20$core..default..Default$GT$7default17h31986badcc858de0E	00000008 <mylib::mynewt::kernel::os::os_mbuf_pkthdr as core::default::Default>::default
00000000 g     F .text._ZN76_$LT$mylib..mynewt..kernel..os..os_dev$u20$as$u20$core..default..Default$GT$7default17h863cfd38cc9eb74cE	0000000a <mylib::mynewt::kernel::os::os_mempool_ext as core::default::Default>::default
00000000 g     F .text._ZN100_$LT$mylib..mynewt..hw..sensor..bindings..sensor_notify_ev_ctx$u20$as$u20$core..default..Default$GT$7default17hdfc850ac9db4ce63E	00000006 <mylib::mynewt::kernel::os::os_task_stailq as core::default::Default>::default
00000000 g     F .text._ZN77_$LT$mylib..mynewt..kernel..os..os_mbuf$u20$as$u20$core..default..Default$GT$7default17h0eda3dafded4885eE	0000000c <mylib::mynewt::libs::sensor_coap::os_mbuf as core::default::Default>::default
00000000 g     F .text._ZN85_$LT$mylib..mynewt..encoding..json..json_attr_t$u20$as$u20$core..default..Default$GT$7default17h61f66cf2439f5a6bE	0000000a <mylib::mynewt::encoding::json::json_attr_t as core::default::Default>::default
00000000 g     F .text._ZN85_$LT$mylib..mynewt..encoding..json..json_enum_t$u20$as$u20$core..default..Default$GT$7default17h2cb196103b18055bE	00000008 <mylib::mynewt::encoding::json::json_enum_t as core::default::Default>::default
00000000 g     F .text._ZN100_$LT$mylib..mynewt..hw..sensor..bindings..sensor_notify_ev_ctx$u20$as$u20$core..default..Default$GT$7default17hdfc850ac9db4ce63E	00000006 <mylib::mynewt::kernel::os::os_callout_list as core::default::Default>::default
00000000 g     F .text._ZN85_$LT$mylib..mynewt..kernel..os..os_sanity_check$u20$as$u20$core..default..Default$GT$7default17hfb2785c50f40475bE	0000000e <mylib::mynewt::kernel::os::os_sanity_check as core::default::Default>::default
00000000 g     F .text._ZN5mylib6mynewt6result95_$LT$impl$u20$core..convert..From$LT$mylib..mynewt..result..MynewtError$GT$$u20$for$u20$i32$GT$4from17h0e39a7350d35c582E	00000002 <mylib::mynewt::result::MynewtError as core::convert::From<i32>>::from
00000000 g     F .text._ZN86_$LT$mylib..mynewt..encoding..json..json_array_t$u20$as$u20$core..default..Default$GT$7default17h2b223ed3a28d1a29E	0000000a <mylib::mynewt::encoding::json::json_array_t as core::default::Default>::default
00000000 g     F .text._ZN86_$LT$mylib..mynewt..encoding..json..json_encoder$u20$as$u20$core..default..Default$GT$7default17h428e5bd092199eb3E	0000000a <mylib::mynewt::encoding::json::json_encoder as core::default::Default>::default
00000000 g     F .text._ZN76_$LT$mylib..mynewt..kernel..os..os_dev$u20$as$u20$core..default..Default$GT$7default17h863cfd38cc9eb74cE	0000000a <mylib::mynewt::hw::sensor::bindings::os_dev as core::default::Default>::default
00000000 g     F .text._ZN86_$LT$mylib..mynewt..hw..sensor..bindings..sensor$u20$as$u20$core..default..Default$GT$7default17he27dbf96e8284e8aE	0000000a <mylib::mynewt::hw::sensor::bindings::sensor as core::default::Default>::default
00000000 g     F .text._ZN77_$LT$mylib..mynewt..kernel..os..os_mbuf$u20$as$u20$core..default..Default$GT$7default17h0eda3dafded4885eE	0000000c <mylib::mynewt::encoding::tinycbor::CborValue as core::default::Default>::default
00000000 g     F .text._ZN77_$LT$mylib..mynewt..kernel..os..os_task$u20$as$u20$core..default..Default$GT$7default17h7114b528e67cd33cE	0000000a <mylib::mynewt::hw::sensor::bindings::os_task as core::default::Default>::default
00000000 g     F .text._ZN80_$LT$mylib..mynewt..kernel..os..os_mempool$u20$as$u20$core..default..Default$GT$7default17hc3e02f8bcbd2991fE	00000012 <mylib::mynewt::libs::sensor_coap::os_mempool as core::default::Default>::default
00000000 g     F .text._ZN114_$LT$mylib..mynewt..encoding..json..json_array_t__bindgen_ty_1__bindgen_ty_1$u20$as$u20$core..default..Default$GT$7default17h6c1e211a7a9517e5E	0000000a <mylib::mynewt::encoding::tinycbor::CborParser as core::default::Default>::default
00000000 g     F .text._ZN100_$LT$mylib..mynewt..hw..sensor..bindings..sensor_notify_ev_ctx$u20$as$u20$core..default..Default$GT$7default17hdfc850ac9db4ce63E	00000006 <mylib::mynewt::encoding::tinycbor::cbor_iovec as core::default::Default>::default
00000000 g     F .text._ZN78_$LT$mylib..mynewt..kernel..os..os_event$u20$as$u20$core..default..Default$GT$7default17hab59bb343539a5e1E	0000000c <mylib::mynewt::hw::sensor::bindings::os_event as core::default::Default>::default
00000000 g     F .text._ZN114_$LT$mylib..mynewt..encoding..json..json_array_t__bindgen_ty_1__bindgen_ty_1$u20$as$u20$core..default..Default$GT$7default17h6c1e211a7a9517e5E	0000000a <mylib::mynewt::hw::sensor::bindings::os_mutex as core::default::Default>::default
00000000 g     F .text._ZN100_$LT$mylib..mynewt..hw..sensor..bindings..os_dev__bindgen_ty_1$u20$as$u20$core..default..Default$GT$7default17h68f9d7fbd31500ddE	00000004 <mylib::mynewt::libs::sensor_coap::os_memblock as core::default::Default>::default
00000000 g     F .text._ZN77_$LT$mylib..mynewt..kernel..os..os_mbuf$u20$as$u20$core..default..Default$GT$7default17h0eda3dafded4885eE	0000000c <mylib::mynewt::encoding::tinycbor::CborEncoder as core::default::Default>::default
00000000 g     F .text._ZN77_$LT$mylib..mynewt..kernel..os..os_mbuf$u20$as$u20$core..default..Default$GT$7default17h0eda3dafded4885eE	0000000c <mylib::mynewt::hw::sensor::bindings::os_eventq as core::default::Default>::default
00000000 g     F .text._ZN85_$LT$mylib..mynewt..kernel..os..os_sanity_check$u20$as$u20$core..default..Default$GT$7default17hfb2785c50f40475bE	0000000e <mylib::mynewt::kernel::os::os_time_change_info as core::default::Default>::default
00000000 g     F .text._ZN114_$LT$mylib..mynewt..encoding..json..json_array_t__bindgen_ty_1__bindgen_ty_1$u20$as$u20$core..default..Default$GT$7default17h6c1e211a7a9517e5E	0000000a <mylib::mynewt::libs::sensor_coap::os_mbuf_pool as core::default::Default>::default
00000000 g     F .text._ZN77_$LT$mylib..mynewt..kernel..os..os_mbuf$u20$as$u20$core..default..Default$GT$7default17h0eda3dafded4885eE	0000000c <mylib::mynewt::libs::sensor_coap::sensor_value as core::default::Default>::default
00000000 g     F .text._ZN80_$LT$mylib..mynewt..kernel..os..os_callout$u20$as$u20$core..default..Default$GT$7default17hd86f28aa73fc4410E	00000014 <mylib::mynewt::hw::sensor::bindings::os_callout as core::default::Default>::default
00000000 g     F .text._ZN80_$LT$mylib..mynewt..kernel..os..os_mempool$u20$as$u20$core..default..Default$GT$7default17hc3e02f8bcbd2991fE	00000012 <mylib::mynewt::hw::sensor::bindings::os_mempool as core::default::Default>::default
00000000 g     F .text._ZN104_$LT$mylib..mynewt..libs..sensor_network..sensor_network_interface$u20$as$u20$core..default..Default$GT$7default17h77e5687ff3f0405dE	0000000e <mylib::mynewt::hw::sensor::bindings::sensor_itf as core::default::Default>::default
00000000 g     F .text._ZN100_$LT$mylib..mynewt..hw..sensor..bindings..os_dev__bindgen_ty_1$u20$as$u20$core..default..Default$GT$7default17h68f9d7fbd31500ddE	00000004 <mylib::mynewt::kernel::os::os_dev__bindgen_ty_1 as core::default::Default>::default
00000000 g     F .text._ZN100_$LT$mylib..mynewt..hw..sensor..bindings..os_dev__bindgen_ty_1$u20$as$u20$core..default..Default$GT$7default17h68f9d7fbd31500ddE	00000004 <mylib::mynewt::kernel::os::os_sem__bindgen_ty_1 as core::default::Default>::default
00000000 g     F .text._ZN100_$LT$mylib..mynewt..hw..sensor..bindings..os_dev__bindgen_ty_1$u20$as$u20$core..default..Default$GT$7default17h68f9d7fbd31500ddE	00000004 <mylib::mynewt::hw::sensor::bindings::os_memblock as core::default::Default>::default
00000000 g     F .text._ZN100_$LT$mylib..mynewt..hw..sensor..bindings..os_dev__bindgen_ty_1$u20$as$u20$core..default..Default$GT$7default17h68f9d7fbd31500ddE	00000004 <mylib::mynewt::kernel::os::os_mbuf__bindgen_ty_1 as core::default::Default>::default
00000000 g     F .text._ZN100_$LT$mylib..mynewt..hw..sensor..bindings..os_dev__bindgen_ty_1$u20$as$u20$core..default..Default$GT$7default17h68f9d7fbd31500ddE	00000004 <mylib::mynewt::kernel::os::os_task__bindgen_ty_1 as core::default::Default>::default
00000000 g     F .text._ZN100_$LT$mylib..mynewt..hw..sensor..bindings..sensor_notify_ev_ctx$u20$as$u20$core..default..Default$GT$7default17hdfc850ac9db4ce63E	00000006 <mylib::mynewt::kernel::os::os_task__bindgen_ty_2 as core::default::Default>::default
00000000 g     F .text._ZN100_$LT$mylib..mynewt..hw..sensor..bindings..os_dev__bindgen_ty_1$u20$as$u20$core..default..Default$GT$7default17h68f9d7fbd31500ddE	00000004 <mylib::mynewt::kernel::os::os_task__bindgen_ty_3 as core::default::Default>::default
00000000 g     F .text._ZN100_$LT$mylib..mynewt..hw..sensor..bindings..os_dev__bindgen_ty_1$u20$as$u20$core..default..Default$GT$7default17h68f9d7fbd31500ddE	00000004 <mylib::mynewt::kernel::os::os_event__bindgen_ty_1 as core::default::Default>::default
00000000 g     F .text._ZN100_$LT$mylib..mynewt..hw..sensor..bindings..os_dev__bindgen_ty_1$u20$as$u20$core..default..Default$GT$7default17h68f9d7fbd31500ddE	00000004 <mylib::mynewt::kernel::os::os_mutex__bindgen_ty_1 as core::default::Default>::default
00000000 g     F .text._ZN93_$LT$mylib..mynewt..hw..sensor..bindings.._bindgen_ty_1$u20$as$u20$core..default..Default$GT$7default17ha139728a011f70d5E	0000000a <mylib::mynewt::hw::sensor::bindings::_bindgen_ty_1 as core::default::Default>::default
00000000 g     F .text._ZN93_$LT$mylib..mynewt..hw..sensor..bindings..sensor_data_t$u20$as$u20$core..default..Default$GT$7default17hcd434db2840dcf57E	00000008 <mylib::mynewt::hw::sensor::bindings::sensor_data_t as core::default::Default>::default
00000000 g     F .text._ZN100_$LT$mylib..mynewt..hw..sensor..bindings..sensor_notify_ev_ctx$u20$as$u20$core..default..Default$GT$7default17hdfc850ac9db4ce63E	00000006 <mylib::mynewt::kernel::os::hal_timer__bindgen_ty_1 as core::default::Default>::default
00000000 g     F .text._ZN100_$LT$mylib..mynewt..hw..sensor..bindings..sensor_notify_ev_ctx$u20$as$u20$core..default..Default$GT$7default17hdfc850ac9db4ce63E	00000006 <mylib::mynewt::kernel::os::os_eventq__bindgen_ty_1 as core::default::Default>::default
00000000 g     F .text._ZN100_$LT$mylib..mynewt..hw..sensor..bindings..sensor_notify_ev_ctx$u20$as$u20$core..default..Default$GT$7default17hdfc850ac9db4ce63E	00000006 <mylib::mynewt::kernel::os::os_mqueue__bindgen_ty_1 as core::default::Default>::default
00000000 g     F .text._ZN114_$LT$mylib..mynewt..encoding..json..json_array_t__bindgen_ty_1__bindgen_ty_1$u20$as$u20$core..default..Default$GT$7default17h6c1e211a7a9517e5E	0000000a <mylib::mynewt::kernel::os::os_time_change_listener as core::default::Default>::default
00000000 g     F .text._ZN100_$LT$mylib..mynewt..hw..sensor..bindings..sensor_notify_ev_ctx$u20$as$u20$core..default..Default$GT$7default17hdfc850ac9db4ce63E	00000006 <mylib::mynewt::kernel::os::os_callout__bindgen_ty_1 as core::default::Default>::default
00000000 g     F .text._ZN100_$LT$mylib..mynewt..hw..sensor..bindings..os_dev__bindgen_ty_1$u20$as$u20$core..default..Default$GT$7default17h68f9d7fbd31500ddE	00000004 <mylib::mynewt::kernel::os::os_mempool__bindgen_ty_1 as core::default::Default>::default
00000000 g     F .text._ZN100_$LT$mylib..mynewt..hw..sensor..bindings..os_dev__bindgen_ty_1$u20$as$u20$core..default..Default$GT$7default17h68f9d7fbd31500ddE	00000004 <mylib::mynewt::kernel::os::os_mempool__bindgen_ty_2 as core::default::Default>::default
00000000 g     F .text._ZN85_$LT$mylib..mynewt..kernel..os..os_sanity_check$u20$as$u20$core..default..Default$GT$7default17hfb2785c50f40475bE	0000000e <mylib::mynewt::hw::sensor::bindings::os_sanity_check as core::default::Default>::default
00000000 g     F .text._ZN95_$LT$mylib..mynewt..hw..sensor..bindings..sensor_listener$u20$as$u20$core..default..Default$GT$7default17h28c68ce312d57044E	00000010 <mylib::mynewt::hw::sensor::bindings::sensor_listener as core::default::Default>::default
00000000 g     F .text._ZN77_$LT$mylib..mynewt..kernel..os..os_mbuf$u20$as$u20$core..default..Default$GT$7default17h0eda3dafded4885eE	0000000c <mylib::mynewt::hw::sensor::bindings::sensor_notifier as core::default::Default>::default
00000000 g     F .text._ZN100_$LT$mylib..mynewt..hw..sensor..bindings..sensor_notify_ev_ctx$u20$as$u20$core..default..Default$GT$7default17hdfc850ac9db4ce63E	00000006 <mylib::mynewt::hw::sensor::bindings::sensor_read_ctx as core::default::Default>::default
00000000 g     F .text._ZN100_$LT$mylib..mynewt..hw..sensor..bindings..os_dev__bindgen_ty_1$u20$as$u20$core..default..Default$GT$7default17h68f9d7fbd31500ddE	00000004 <mylib::mynewt::kernel::os::os_memblock__bindgen_ty_1 as core::default::Default>::default
00000000 g     F .text._ZN100_$LT$mylib..mynewt..hw..sensor..bindings..os_dev__bindgen_ty_1$u20$as$u20$core..default..Default$GT$7default17h68f9d7fbd31500ddE	00000004 <mylib::mynewt::kernel::os::os_task_obj__bindgen_ty_1 as core::default::Default>::default
00000000 g     F .text._ZN100_$LT$mylib..mynewt..hw..sensor..bindings..os_dev__bindgen_ty_1$u20$as$u20$core..default..Default$GT$7default17h68f9d7fbd31500ddE	00000004 <mylib::mynewt::kernel::os::os_mbuf_pool__bindgen_ty_1 as core::default::Default>::default
00000000 g     F .text._ZN101_$LT$mylib..mynewt..libs..sensor_coap..json_value__bindgen_ty_1$u20$as$u20$core..default..Default$GT$7default17ha8fd7ae5d6a4e0dbE	0000000c <mylib::mynewt::encoding::json::json_value__bindgen_ty_1 as core::default::Default>::default
00000000 g     F .text._ZN85_$LT$mylib..mynewt..encoding..json..json_enum_t$u20$as$u20$core..default..Default$GT$7default17h2cb196103b18055bE	00000008 <mylib::mynewt::hw::sensor::bindings::sensor_read_ev_ctx as core::default::Default>::default
00000000 g     F .text._ZN98_$LT$mylib..mynewt..hw..sensor..bindings..sensor_type_traits$u20$as$u20$core..default..Default$GT$7default17h8285780e3fefaa9fE	0000000a <mylib::mynewt::hw::sensor::bindings::sensor_type_traits as core::default::Default>::default
00000000 g     F .text._ZN100_$LT$mylib..mynewt..hw..sensor..bindings..os_dev__bindgen_ty_1$u20$as$u20$core..default..Default$GT$7default17h68f9d7fbd31500ddE	00000004 <mylib::mynewt::kernel::os::os_mbuf_pkthdr__bindgen_ty_1 as core::default::Default>::default
00000000 g     F .text._ZN100_$LT$mylib..mynewt..hw..sensor..bindings..os_dev__bindgen_ty_1$u20$as$u20$core..default..Default$GT$7default17h68f9d7fbd31500ddE	00000004 <mylib::mynewt::libs::sensor_coap::os_mbuf__bindgen_ty_1 as core::default::Default>::default
00000000 g     F .text._ZN99_$LT$mylib..mynewt..encoding..json..json_attr_t__bindgen_ty_1$u20$as$u20$core..default..Default$GT$7default17h6e95b1a78d90e8d4E	0000000a <mylib::mynewt::encoding::json::json_attr_t__bindgen_ty_1 as core::default::Default>::default
00000000 g     F .text._ZN93_$LT$mylib..mynewt..hw..sensor..bindings..sensor_data_t$u20$as$u20$core..default..Default$GT$7default17hcd434db2840dcf57E	00000008 <mylib::mynewt::encoding::json::json_attr_t__bindgen_ty_2 as core::default::Default>::default
00000000 g     F .text._ZN79_$LT$mylib..mynewt..kernel..os..hal_timer$u20$as$u20$core..default..Default$GT$7default17h66f1d9d24d6a4172E	00000010 <mylib::mynewt::hw::sensor::bindings::sensor_notify_os_ev as core::default::Default>::default
00000000 g     F .text._ZN100_$LT$mylib..mynewt..hw..sensor..bindings..os_dev__bindgen_ty_1$u20$as$u20$core..default..Default$GT$7default17h68f9d7fbd31500ddE	00000004 <mylib::mynewt::kernel::os::os_sanity_check__bindgen_ty_1 as core::default::Default>::default
00000000         *UND*	00000000 cstr_core::CStr::from_ptr
00000000         *UND*	00000000 __aeabi_memclr4
00000000         *UND*	00000000 __aeabi_memclr8
00000000         *UND*	00000000 __bkpt
00000000         *UND*	00000000 console_buffer
00000000         *UND*	00000000 console_flush
00000000         *UND*	00000000 console_printhex
00000000         *UND*	00000000 device_get_name
00000000         *UND*	00000000 do_collector_post
00000000         *UND*	00000000 do_server_post
00000000         *UND*	00000000 get_device_id
00000000         *UND*	00000000 get_temp_data
00000000         *UND*	00000000 get_temp_raw_data
00000000         *UND*	00000000 init_collector_post
00000000         *UND*	00000000 init_server_post
00000000         *UND*	00000000 is_collector_node
00000000         *UND*	00000000 is_null_sensor
00000000         *UND*	00000000 is_null_sensor_data
00000000         *UND*	00000000 is_sensor_node
00000000         *UND*	00000000 is_standalone_node
00000000 g     F .text.main	00000192 main
00000000         *UND*	00000000 null_sensor
00000000         *UND*	00000000 os_eventq_dflt_get
00000000         *UND*	00000000 os_eventq_run
00000000         *UND*	00000000 os_task_init
00000000         *UND*	00000000 os_time_delay
00000000         *UND*	00000000 register_collector_transport
00000000         *UND*	00000000 register_server_transport
00000000 g     F .text.rust_begin_unwind	00000072 rust_begin_unwind
00000000         *UND*	00000000 rust_sysinit
00000000         *UND*	00000000 sensor_get_device
00000000         *UND*	00000000 sensor_mgr_find_next_bydevname
00000000         *UND*	00000000 sensor_register_listener
00000000         *UND*	00000000 sensor_set_poll_rate_ms
00000000         *UND*	00000000 should_send_to_collector



Disassembly of section .text._ZN42_$LT$$RF$T$u20$as$u20$core..fmt..Debug$GT$3fmt17h3cd16d96a1ab09b9E:

00000000 <<&T as core::fmt::Debug>::fmt>:
_ZN42_$LT$$RF$T$u20$as$u20$core..fmt..Debug$GT$3fmt17h3cd16d96a1ab09b9E():
/rustc/50a0defd5a93523067ef239936cc2e0755220904/src/libcore/fmt/mod.rs:1914
   0:	b5b0      	push	{r4, r5, r7, lr}
   2:	6805      	ldr	r5, [r0, #0]
_ZN4core3fmt3num50_$LT$impl$u20$core..fmt..Debug$u20$for$u20$i32$GT$3fmt17hc0a5c2426ccebe61E():
/rustc/50a0defd5a93523067ef239936cc2e0755220904/src/libcore/fmt/num.rs:147
   4:	4608      	mov	r0, r1
   6:	460c      	mov	r4, r1
   8:	f7ff fffe 	bl	0 <core::fmt::Formatter::debug_lower_hex>
   c:	b128      	cbz	r0, 1a <<&T as core::fmt::Debug>::fmt+0x1a>
/rustc/50a0defd5a93523067ef239936cc2e0755220904/src/libcore/fmt/num.rs:148
   e:	4628      	mov	r0, r5
  10:	4621      	mov	r1, r4
  12:	e8bd 40b0 	ldmia.w	sp!, {r4, r5, r7, lr}
  16:	f7ff bffe 	b.w	0 <core::fmt::num::<impl core::fmt::LowerHex for i32>::fmt>
/rustc/50a0defd5a93523067ef239936cc2e0755220904/src/libcore/fmt/num.rs:149
  1a:	4620      	mov	r0, r4
  1c:	f7ff fffe 	bl	0 <core::fmt::Formatter::debug_upper_hex>
  20:	b128      	cbz	r0, 2e <<&T as core::fmt::Debug>::fmt+0x2e>
/rustc/50a0defd5a93523067ef239936cc2e0755220904/src/libcore/fmt/num.rs:150
  22:	4628      	mov	r0, r5
  24:	4621      	mov	r1, r4
  26:	e8bd 40b0 	ldmia.w	sp!, {r4, r5, r7, lr}
  2a:	f7ff bffe 	b.w	0 <core::fmt::num::<impl core::fmt::UpperHex for i32>::fmt>
/rustc/50a0defd5a93523067ef239936cc2e0755220904/src/libcore/fmt/num.rs:152
  2e:	4628      	mov	r0, r5
  30:	4621      	mov	r1, r4
  32:	e8bd 40b0 	ldmia.w	sp!, {r4, r5, r7, lr}
  36:	f7ff bffe 	b.w	0 <core::fmt::num::imp::<impl core::fmt::Display for i32>::fmt>

Disassembly of section .text._ZN42_$LT$$RF$T$u20$as$u20$core..fmt..Debug$GT$3fmt17hc9a0951cf9a1a237E:

00000000 <<&T as core::fmt::Debug>::fmt>:
_ZN42_$LT$$RF$T$u20$as$u20$core..fmt..Debug$GT$3fmt17hc9a0951cf9a1a237E():
/rustc/50a0defd5a93523067ef239936cc2e0755220904/src/libcore/fmt/mod.rs:1914
   0:	b5b0      	push	{r4, r5, r7, lr}
   2:	6805      	ldr	r5, [r0, #0]
_ZN4core3fmt3num49_$LT$impl$u20$core..fmt..Debug$u20$for$u20$u8$GT$3fmt17h271d1c938b44f4eaE():
/rustc/50a0defd5a93523067ef239936cc2e0755220904/src/libcore/fmt/num.rs:147
   4:	4608      	mov	r0, r1
   6:	460c      	mov	r4, r1
   8:	f7ff fffe 	bl	0 <core::fmt::Formatter::debug_lower_hex>
   c:	b128      	cbz	r0, 1a <<&T as core::fmt::Debug>::fmt+0x1a>
/rustc/50a0defd5a93523067ef239936cc2e0755220904/src/libcore/fmt/num.rs:148
   e:	4628      	mov	r0, r5
  10:	4621      	mov	r1, r4
  12:	e8bd 40b0 	ldmia.w	sp!, {r4, r5, r7, lr}
  16:	f7ff bffe 	b.w	0 <core::fmt::num::<impl core::fmt::LowerHex for u8>::fmt>
/rustc/50a0defd5a93523067ef239936cc2e0755220904/src/libcore/fmt/num.rs:149
  1a:	4620      	mov	r0, r4
  1c:	f7ff fffe 	bl	0 <core::fmt::Formatter::debug_upper_hex>
  20:	b128      	cbz	r0, 2e <<&T as core::fmt::Debug>::fmt+0x2e>
/rustc/50a0defd5a93523067ef239936cc2e0755220904/src/libcore/fmt/num.rs:150
  22:	4628      	mov	r0, r5
  24:	4621      	mov	r1, r4
  26:	e8bd 40b0 	ldmia.w	sp!, {r4, r5, r7, lr}
  2a:	f7ff bffe 	b.w	0 <core::fmt::num::<impl core::fmt::UpperHex for u8>::fmt>
/rustc/50a0defd5a93523067ef239936cc2e0755220904/src/libcore/fmt/num.rs:152
  2e:	4628      	mov	r0, r5
  30:	4621      	mov	r1, r4
  32:	e8bd 40b0 	ldmia.w	sp!, {r4, r5, r7, lr}
  36:	f7ff bffe 	b.w	0 <core::fmt::num::imp::<impl core::fmt::Display for u8>::fmt>

Disassembly of section .text._ZN86_$LT$mylib..mynewt..encoding..json..json_encoder$u20$as$u20$core..default..Default$GT$7default17h428e5bd092199eb3E:

00000000 <<mylib::mynewt::encoding::json::json_encoder as core::default::Default>::default>:
_ZN86_$LT$mylib..mynewt..encoding..json..json_encoder$u20$as$u20$core..default..Default$GT$7default17h428e5bd092199eb3E():
/Users/Luppy/mynewt/stm32bluepill-mynewt-sensor/src/mynewt/encoding/json.rs:212
    pub je_arg: *mut ::cty::c_void,
    pub _bitfield_1: __BindgenBitfieldUnit<[u8; 1usize], u8>,
    pub je_encode_buf: [::cty::c_char; 64usize],
}
impl Default for json_encoder {
    fn default() -> Self {
   0:	b580      	push	{r7, lr}
_ZN4core3mem6zeroed17h38b28aae04273c3aE():
/rustc/50a0defd5a93523067ef239936cc2e0755220904/src/libcore/mem.rs:447
   2:	214c      	movs	r1, #76	; 0x4c
   4:	f7ff fffe 	bl	0 <__aeabi_memclr4>
_ZN86_$LT$mylib..mynewt..encoding..json..json_encoder$u20$as$u20$core..default..Default$GT$7default17h428e5bd092199eb3E():
/Users/Luppy/mynewt/stm32bluepill-mynewt-sensor/src/mynewt/encoding/json.rs:214
        unsafe { ::core::mem::zeroed() }
    }
   8:	bd80      	pop	{r7, pc}

Disassembly of section .text._ZN85_$LT$mylib..mynewt..encoding..json..json_enum_t$u20$as$u20$core..default..Default$GT$7default17h2cb196103b18055bE:

00000000 <<mylib::mynewt::encoding::json::json_enum_t as core::default::Default>::default>:
_ZN85_$LT$mylib..mynewt..encoding..json..json_enum_t$u20$as$u20$core..default..Default$GT$7default17h2cb196103b18055bE():
/Users/Luppy/mynewt/stm32bluepill-mynewt-sensor/src/mynewt/encoding/json.rs:296
    pub value: ::cty::c_longlong,
}
impl Default for json_enum_t {
    fn default() -> Self {
        unsafe { ::core::mem::zeroed() }
    }
   0:	2000      	movs	r0, #0
   2:	2100      	movs	r1, #0
   4:	2200      	movs	r2, #0
   6:	4770      	bx	lr

Disassembly of section .text._ZN114_$LT$mylib..mynewt..encoding..json..json_array_t__bindgen_ty_1__bindgen_ty_1$u20$as$u20$core..default..Default$GT$7default17h6c1e211a7a9517e5E:

00000000 <<mylib::mynewt::encoding::json::json_array_t__bindgen_ty_1__bindgen_ty_1 as core::default::Default>::default>:
_ZN114_$LT$mylib..mynewt..encoding..json..json_array_t__bindgen_ty_1__bindgen_ty_1$u20$as$u20$core..default..Default$GT$7default17h6c1e211a7a9517e5E():
/Users/Luppy/mynewt/stm32bluepill-mynewt-sensor/src/mynewt/encoding/json.rs:322
    pub subtype: *const json_attr_t,
    pub base: *mut ::cty::c_char,
    pub stride: usize,
}
impl Default for json_array_t__bindgen_ty_1__bindgen_ty_1 {
    fn default() -> Self {
   0:	2100      	movs	r1, #0
_ZN4core3mem6zeroed17h688abf7d36b28c81E():
/rustc/50a0defd5a93523067ef239936cc2e0755220904/src/libcore/mem.rs:447
   2:	e9c0 1100 	strd	r1, r1, [r0]
   6:	6081      	str	r1, [r0, #8]
_ZN114_$LT$mylib..mynewt..encoding..json..json_array_t__bindgen_ty_1__bindgen_ty_1$u20$as$u20$core..default..Default$GT$7default17h6c1e211a7a9517e5E():
/Users/Luppy/mynewt/stm32bluepill-mynewt-sensor/src/mynewt/encoding/json.rs:324
        unsafe { ::core::mem::zeroed() }
    }
   8:	4770      	bx	lr

Disassembly of section .text._ZN100_$LT$mylib..mynewt..encoding..json..json_array_t__bindgen_ty_1$u20$as$u20$core..default..Default$GT$7default17h00d13d95441a2cf0E:

00000000 <<mylib::mynewt::encoding::json::json_array_t__bindgen_ty_1 as core::default::Default>::default>:
_ZN100_$LT$mylib..mynewt..encoding..json..json_array_t__bindgen_ty_1$u20$as$u20$core..default..Default$GT$7default17h00d13d95441a2cf0E():
/Users/Luppy/mynewt/stm32bluepill-mynewt-sensor/src/mynewt/encoding/json.rs:374
    fn default() -> Self {
        unsafe { ::core::mem::zeroed() }
    }
}
impl Default for json_array_t__bindgen_ty_1 {
    fn default() -> Self {
   0:	2100      	movs	r1, #0
_ZN4core3mem6zeroed17h9c7e7ab70507091bE():
/rustc/50a0defd5a93523067ef239936cc2e0755220904/src/libcore/mem.rs:447
   2:	e9c0 1100 	strd	r1, r1, [r0]
   6:	e9c0 1102 	strd	r1, r1, [r0, #8]
   a:	e9c0 1104 	strd	r1, r1, [r0, #16]
_ZN100_$LT$mylib..mynewt..encoding..json..json_array_t__bindgen_ty_1$u20$as$u20$core..default..Default$GT$7default17h00d13d95441a2cf0E():
/Users/Luppy/mynewt/stm32bluepill-mynewt-sensor/src/mynewt/encoding/json.rs:376
        unsafe { ::core::mem::zeroed() }
    }
   e:	4770      	bx	lr

Disassembly of section .text._ZN86_$LT$mylib..mynewt..encoding..json..json_array_t$u20$as$u20$core..default..Default$GT$7default17h2b223ed3a28d1a29E:

00000000 <<mylib::mynewt::encoding::json::json_array_t as core::default::Default>::default>:
_ZN86_$LT$mylib..mynewt..encoding..json..json_array_t$u20$as$u20$core..default..Default$GT$7default17h2b223ed3a28d1a29E():
/Users/Luppy/mynewt/stm32bluepill-mynewt-sensor/src/mynewt/encoding/json.rs:379
}
impl Default for json_array_t {
    fn default() -> Self {
   0:	b580      	push	{r7, lr}
_ZN4core3mem6zeroed17h86cf2c6b34c546eeE():
/rustc/50a0defd5a93523067ef239936cc2e0755220904/src/libcore/mem.rs:447
   2:	2128      	movs	r1, #40	; 0x28
   4:	f7ff fffe 	bl	0 <__aeabi_memclr8>
_ZN86_$LT$mylib..mynewt..encoding..json..json_array_t$u20$as$u20$core..default..Default$GT$7default17h2b223ed3a28d1a29E():
/Users/Luppy/mynewt/stm32bluepill-mynewt-sensor/src/mynewt/encoding/json.rs:381
        unsafe { ::core::mem::zeroed() }
    }
   8:	bd80      	pop	{r7, pc}

Disassembly of section .text._ZN99_$LT$mylib..mynewt..encoding..json..json_attr_t__bindgen_ty_1$u20$as$u20$core..default..Default$GT$7default17h6e95b1a78d90e8d4E:

00000000 <<mylib::mynewt::encoding::json::json_attr_t__bindgen_ty_1 as core::default::Default>::default>:
_ZN99_$LT$mylib..mynewt..encoding..json..json_attr_t__bindgen_ty_1$u20$as$u20$core..default..Default$GT$7default17h6e95b1a78d90e8d4E():
/Users/Luppy/mynewt/stm32bluepill-mynewt-sensor/src/mynewt/encoding/json.rs:406
    pub array: __BindgenUnionField<json_array_t>,
    pub offset: __BindgenUnionField<usize>,
    pub bindgen_union_field: [u64; 6usize],
}
impl Default for json_attr_t__bindgen_ty_1 {
    fn default() -> Self {
   0:	b580      	push	{r7, lr}
_ZN4core3mem6zeroed17h3d1fe898fb2f7b6bE():
/rustc/50a0defd5a93523067ef239936cc2e0755220904/src/libcore/mem.rs:447
   2:	2130      	movs	r1, #48	; 0x30
   4:	f7ff fffe 	bl	0 <__aeabi_memclr8>
_ZN99_$LT$mylib..mynewt..encoding..json..json_attr_t__bindgen_ty_1$u20$as$u20$core..default..Default$GT$7default17h6e95b1a78d90e8d4E():
/Users/Luppy/mynewt/stm32bluepill-mynewt-sensor/src/mynewt/encoding/json.rs:408
        unsafe { ::core::mem::zeroed() }
    }
   8:	bd80      	pop	{r7, pc}

Disassembly of section .text._ZN85_$LT$mylib..mynewt..encoding..json..json_attr_t$u20$as$u20$core..default..Default$GT$7default17h61f66cf2439f5a6bE:

00000000 <<mylib::mynewt::encoding::json::json_attr_t as core::default::Default>::default>:
_ZN85_$LT$mylib..mynewt..encoding..json..json_attr_t$u20$as$u20$core..default..Default$GT$7default17h61f66cf2439f5a6bE():
/Users/Luppy/mynewt/stm32bluepill-mynewt-sensor/src/mynewt/encoding/json.rs:426
    fn default() -> Self {
        unsafe { ::core::mem::zeroed() }
    }
}
impl Default for json_attr_t {
    fn default() -> Self {
   0:	b580      	push	{r7, lr}
_ZN4core3mem6zeroed17h8f31b3f553e5c0eeE():
/rustc/50a0defd5a93523067ef239936cc2e0755220904/src/libcore/mem.rs:447
   2:	2150      	movs	r1, #80	; 0x50
   4:	f7ff fffe 	bl	0 <__aeabi_memclr8>
_ZN85_$LT$mylib..mynewt..encoding..json..json_attr_t$u20$as$u20$core..default..Default$GT$7default17h61f66cf2439f5a6bE():
/Users/Luppy/mynewt/stm32bluepill-mynewt-sensor/src/mynewt/encoding/json.rs:428
        unsafe { ::core::mem::zeroed() }
    }
   8:	bd80      	pop	{r7, pc}

Disassembly of section .text._ZN78_$LT$mylib..mynewt..kernel..os..os_event$u20$as$u20$core..default..Default$GT$7default17hab59bb343539a5e1E:

00000000 <<mylib::mynewt::kernel::os::os_event as core::default::Default>::default>:
_ZN78_$LT$mylib..mynewt..kernel..os..os_event$u20$as$u20$core..default..Default$GT$7default17hab59bb343539a5e1E():
/Users/Luppy/mynewt/stm32bluepill-mynewt-sensor/src/mynewt/kernel/os.rs:409
    fn default() -> Self {
        unsafe { ::core::mem::zeroed() }
    }
}
impl Default for os_event {
    fn default() -> Self {
   0:	2100      	movs	r1, #0
_ZN4core3mem6zeroed17h8a1b5f6d663b43d1E():
/rustc/50a0defd5a93523067ef239936cc2e0755220904/src/libcore/mem.rs:447
   2:	e9c0 1100 	strd	r1, r1, [r0]
   6:	e9c0 1102 	strd	r1, r1, [r0, #8]
_ZN78_$LT$mylib..mynewt..kernel..os..os_event$u20$as$u20$core..default..Default$GT$7default17hab59bb343539a5e1E():
/Users/Luppy/mynewt/stm32bluepill-mynewt-sensor/src/mynewt/kernel/os.rs:411
        unsafe { ::core::mem::zeroed() }
    }
   a:	4770      	bx	lr

Disassembly of section .text._ZN80_$LT$mylib..mynewt..kernel..os..os_callout$u20$as$u20$core..default..Default$GT$7default17hd86f28aa73fc4410E:

00000000 <<mylib::mynewt::kernel::os::os_callout as core::default::Default>::default>:
_ZN80_$LT$mylib..mynewt..kernel..os..os_callout$u20$as$u20$core..default..Default$GT$7default17hd86f28aa73fc4410E():
/Users/Luppy/mynewt/stm32bluepill-mynewt-sensor/src/mynewt/kernel/os.rs:541
    fn default() -> Self {
        unsafe { ::core::mem::zeroed() }
    }
}
impl Default for os_callout {
    fn default() -> Self {
   0:	2100      	movs	r1, #0
_ZN4core3mem6zeroed17h662eda85742f783eE():
/rustc/50a0defd5a93523067ef239936cc2e0755220904/src/libcore/mem.rs:447
   2:	e9c0 1100 	strd	r1, r1, [r0]
   6:	e9c0 1102 	strd	r1, r1, [r0, #8]
   a:	e9c0 1104 	strd	r1, r1, [r0, #16]
   e:	e9c0 1106 	strd	r1, r1, [r0, #24]
_ZN80_$LT$mylib..mynewt..kernel..os..os_callout$u20$as$u20$core..default..Default$GT$7default17hd86f28aa73fc4410E():
/Users/Luppy/mynewt/stm32bluepill-mynewt-sensor/src/mynewt/kernel/os.rs:543
        unsafe { ::core::mem::zeroed() }
    }
  12:	4770      	bx	lr

Disassembly of section .text._ZN79_$LT$mylib..mynewt..kernel..os..hal_timer$u20$as$u20$core..default..Default$GT$7default17h66f1d9d24d6a4172E:

00000000 <<mylib::mynewt::kernel::os::hal_timer as core::default::Default>::default>:
_ZN79_$LT$mylib..mynewt..kernel..os..hal_timer$u20$as$u20$core..default..Default$GT$7default17h66f1d9d24d6a4172E():
/Users/Luppy/mynewt/stm32bluepill-mynewt-sensor/src/mynewt/kernel/os.rs:642
    fn default() -> Self {
        unsafe { ::core::mem::zeroed() }
    }
}
impl Default for hal_timer {
    fn default() -> Self {
   0:	2100      	movs	r1, #0
_ZN4core3mem6zeroed17hf1296791b83e5e95E():
/rustc/50a0defd5a93523067ef239936cc2e0755220904/src/libcore/mem.rs:447
   2:	e9c0 1100 	strd	r1, r1, [r0]
   6:	e9c0 1102 	strd	r1, r1, [r0, #8]
   a:	e9c0 1104 	strd	r1, r1, [r0, #16]
_ZN79_$LT$mylib..mynewt..kernel..os..hal_timer$u20$as$u20$core..default..Default$GT$7default17h66f1d9d24d6a4172E():
/Users/Luppy/mynewt/stm32bluepill-mynewt-sensor/src/mynewt/kernel/os.rs:644
        unsafe { ::core::mem::zeroed() }
    }
   e:	4770      	bx	lr

Disassembly of section .text._ZN76_$LT$mylib..mynewt..kernel..os..os_dev$u20$as$u20$core..default..Default$GT$7default17h863cfd38cc9eb74cE:

00000000 <<mylib::mynewt::kernel::os::os_dev as core::default::Default>::default>:
_ZN76_$LT$mylib..mynewt..kernel..os..os_dev$u20$as$u20$core..default..Default$GT$7default17h863cfd38cc9eb74cE():
/Users/Luppy/mynewt/stm32bluepill-mynewt-sensor/src/mynewt/kernel/os.rs:812
    fn default() -> Self {
        unsafe { ::core::mem::zeroed() }
    }
}
impl Default for os_dev {
    fn default() -> Self {
   0:	b580      	push	{r7, lr}
_ZN4core3mem6zeroed17h3d1092b7c4e50856E():
/rustc/50a0defd5a93523067ef239936cc2e0755220904/src/libcore/mem.rs:447
   2:	2124      	movs	r1, #36	; 0x24
   4:	f7ff fffe 	bl	0 <__aeabi_memclr4>
_ZN76_$LT$mylib..mynewt..kernel..os..os_dev$u20$as$u20$core..default..Default$GT$7default17h863cfd38cc9eb74cE():
/Users/Luppy/mynewt/stm32bluepill-mynewt-sensor/src/mynewt/kernel/os.rs:814
        unsafe { ::core::mem::zeroed() }
    }
   8:	bd80      	pop	{r7, pc}

Disassembly of section .text._ZN77_$LT$mylib..mynewt..kernel..os..os_mbuf$u20$as$u20$core..default..Default$GT$7default17h0eda3dafded4885eE:

00000000 <<mylib::mynewt::kernel::os::os_mbuf as core::default::Default>::default>:
_ZN77_$LT$mylib..mynewt..kernel..os..os_mbuf$u20$as$u20$core..default..Default$GT$7default17h0eda3dafded4885eE():
/Users/Luppy/mynewt/stm32bluepill-mynewt-sensor/src/mynewt/kernel/os.rs:1040
    fn default() -> Self {
        unsafe { ::core::mem::zeroed() }
    }
}
impl Default for os_mbuf {
    fn default() -> Self {
   0:	2100      	movs	r1, #0
_ZN4core3mem6zeroed17h5d948544371481daE():
/rustc/50a0defd5a93523067ef239936cc2e0755220904/src/libcore/mem.rs:447
   2:	e9c0 1100 	strd	r1, r1, [r0]
   6:	e9c0 1102 	strd	r1, r1, [r0, #8]
_ZN77_$LT$mylib..mynewt..kernel..os..os_mbuf$u20$as$u20$core..default..Default$GT$7default17h0eda3dafded4885eE():
/Users/Luppy/mynewt/stm32bluepill-mynewt-sensor/src/mynewt/kernel/os.rs:1042
        unsafe { ::core::mem::zeroed() }
    }
   a:	4770      	bx	lr

Disassembly of section .text._ZN80_$LT$mylib..mynewt..kernel..os..os_mempool$u20$as$u20$core..default..Default$GT$7default17hc3e02f8bcbd2991fE:

00000000 <<mylib::mynewt::kernel::os::os_mempool as core::default::Default>::default>:
_ZN80_$LT$mylib..mynewt..kernel..os..os_mempool$u20$as$u20$core..default..Default$GT$7default17hc3e02f8bcbd2991fE():
/Users/Luppy/mynewt/stm32bluepill-mynewt-sensor/src/mynewt/kernel/os.rs:1521
    fn default() -> Self {
        unsafe { ::core::mem::zeroed() }
    }
}
impl Default for os_mempool {
    fn default() -> Self {
   0:	2100      	movs	r1, #0
_ZN4core3mem6zeroed17hc6feaa6771576b76E():
/rustc/50a0defd5a93523067ef239936cc2e0755220904/src/libcore/mem.rs:447
   2:	e9c0 1100 	strd	r1, r1, [r0]
   6:	e9c0 1102 	strd	r1, r1, [r0, #8]
   a:	e9c0 1104 	strd	r1, r1, [r0, #16]
   e:	6181      	str	r1, [r0, #24]
_ZN80_$LT$mylib..mynewt..kernel..os..os_mempool$u20$as$u20$core..default..Default$GT$7default17hc3e02f8bcbd2991fE():
/Users/Luppy/mynewt/stm32bluepill-mynewt-sensor/src/mynewt/kernel/os.rs:1523
        unsafe { ::core::mem::zeroed() }
    }
  10:	4770      	bx	lr

Disassembly of section .text._ZN85_$LT$mylib..mynewt..kernel..os..os_sanity_check$u20$as$u20$core..default..Default$GT$7default17hfb2785c50f40475bE:

00000000 <<mylib::mynewt::kernel::os::os_sanity_check as core::default::Default>::default>:
_ZN85_$LT$mylib..mynewt..kernel..os..os_sanity_check$u20$as$u20$core..default..Default$GT$7default17hfb2785c50f40475bE():
/Users/Luppy/mynewt/stm32bluepill-mynewt-sensor/src/mynewt/kernel/os.rs:1780
    fn default() -> Self {
        unsafe { ::core::mem::zeroed() }
    }
}
impl Default for os_sanity_check {
    fn default() -> Self {
   0:	2100      	movs	r1, #0
_ZN4core3mem6zeroed17h1d892672a70bf0d4E():
/rustc/50a0defd5a93523067ef239936cc2e0755220904/src/libcore/mem.rs:447
   2:	e9c0 1100 	strd	r1, r1, [r0]
   6:	e9c0 1102 	strd	r1, r1, [r0, #8]
   a:	6101      	str	r1, [r0, #16]
_ZN85_$LT$mylib..mynewt..kernel..os..os_sanity_check$u20$as$u20$core..default..Default$GT$7default17hfb2785c50f40475bE():
/Users/Luppy/mynewt/stm32bluepill-mynewt-sensor/src/mynewt/kernel/os.rs:1782
        unsafe { ::core::mem::zeroed() }
    }
   c:	4770      	bx	lr

Disassembly of section .text._ZN77_$LT$mylib..mynewt..kernel..os..os_task$u20$as$u20$core..default..Default$GT$7default17h7114b528e67cd33cE:

00000000 <<mylib::mynewt::kernel::os::os_task as core::default::Default>::default>:
_ZN77_$LT$mylib..mynewt..kernel..os..os_task$u20$as$u20$core..default..Default$GT$7default17h7114b528e67cd33cE():
/Users/Luppy/mynewt/stm32bluepill-mynewt-sensor/src/mynewt/kernel/os.rs:1918
    fn default() -> Self {
        unsafe { ::core::mem::zeroed() }
    }
}
impl Default for os_task {
    fn default() -> Self {
   0:	b580      	push	{r7, lr}
_ZN4core3mem6zeroed17hf796823259eac768E():
/rustc/50a0defd5a93523067ef239936cc2e0755220904/src/libcore/mem.rs:447
   2:	2150      	movs	r1, #80	; 0x50
   4:	f7ff fffe 	bl	0 <__aeabi_memclr4>
_ZN77_$LT$mylib..mynewt..kernel..os..os_task$u20$as$u20$core..default..Default$GT$7default17h7114b528e67cd33cE():
/Users/Luppy/mynewt/stm32bluepill-mynewt-sensor/src/mynewt/kernel/os.rs:1920
        unsafe { ::core::mem::zeroed() }
    }
   8:	bd80      	pop	{r7, pc}

Disassembly of section .text._ZN76_$LT$mylib..mynewt..kernel..os..os_sem$u20$as$u20$core..default..Default$GT$7default17h31986badcc858de0E:

00000000 <<mylib::mynewt::kernel::os::os_sem as core::default::Default>::default>:
_ZN76_$LT$mylib..mynewt..kernel..os..os_sem$u20$as$u20$core..default..Default$GT$7default17h31986badcc858de0E():
/Users/Luppy/mynewt/stm32bluepill-mynewt-sensor/src/mynewt/kernel/os.rs:2131
    fn default() -> Self {
        unsafe { ::core::mem::zeroed() }
    }
}
impl Default for os_sem {
    fn default() -> Self {
   0:	2100      	movs	r1, #0
_ZN4core3mem6zeroed17h2c5e74161e923825E():
/rustc/50a0defd5a93523067ef239936cc2e0755220904/src/libcore/mem.rs:447
   2:	e9c0 1100 	strd	r1, r1, [r0]
_ZN76_$LT$mylib..mynewt..kernel..os..os_sem$u20$as$u20$core..default..Default$GT$7default17h31986badcc858de0E():
/Users/Luppy/mynewt/stm32bluepill-mynewt-sensor/src/mynewt/kernel/os.rs:2133
        unsafe { ::core::mem::zeroed() }
    }
   6:	4770      	bx	lr

Disassembly of section .text._ZN100_$LT$mylib..mynewt..hw..sensor..bindings..os_dev__bindgen_ty_1$u20$as$u20$core..default..Default$GT$7default17h68f9d7fbd31500ddE:

00000000 <<mylib::mynewt::hw::sensor::bindings::os_dev__bindgen_ty_1 as core::default::Default>::default>:
_ZN100_$LT$mylib..mynewt..hw..sensor..bindings..os_dev__bindgen_ty_1$u20$as$u20$core..default..Default$GT$7default17h68f9d7fbd31500ddE():
/Users/Luppy/mynewt/stm32bluepill-mynewt-sensor/src/mynewt/hw/sensor/bindings.rs:311
    pub stqe_next: *mut os_dev,
}
impl Default for os_dev__bindgen_ty_1 {
    fn default() -> Self {
        unsafe { ::core::mem::zeroed() }
    }
   0:	2000      	movs	r0, #0
   2:	4770      	bx	lr

Disassembly of section .text._ZN93_$LT$mylib..mynewt..hw..sensor..bindings..sensor_data_t$u20$as$u20$core..default..Default$GT$7default17hcd434db2840dcf57E:

00000000 <<mylib::mynewt::hw::sensor::bindings::sensor_data_t as core::default::Default>::default>:
_ZN93_$LT$mylib..mynewt..hw..sensor..bindings..sensor_data_t$u20$as$u20$core..default..Default$GT$7default17hcd434db2840dcf57E():
/Users/Luppy/mynewt/stm32bluepill-mynewt-sensor/src/mynewt/hw/sensor/bindings.rs:584
    pub spd: __BindgenUnionField<*mut sensor_press_data>,
    pub srhd: __BindgenUnionField<*mut sensor_humid_data>,
    pub bindgen_union_field: u64,
}
impl Default for sensor_data_t {
    fn default() -> Self {
   0:	2100      	movs	r1, #0
_ZN4core3mem6zeroed17habe8c48790be82b3E():
/rustc/50a0defd5a93523067ef239936cc2e0755220904/src/libcore/mem.rs:447
   2:	e9c0 1100 	strd	r1, r1, [r0]
_ZN93_$LT$mylib..mynewt..hw..sensor..bindings..sensor_data_t$u20$as$u20$core..default..Default$GT$7default17hcd434db2840dcf57E():
/Users/Luppy/mynewt/stm32bluepill-mynewt-sensor/src/mynewt/hw/sensor/bindings.rs:586
        unsafe { ::core::mem::zeroed() }
    }
   6:	4770      	bx	lr

Disassembly of section .text._ZN95_$LT$mylib..mynewt..hw..sensor..bindings..sensor_listener$u20$as$u20$core..default..Default$GT$7default17h28c68ce312d57044E:

00000000 <<mylib::mynewt::hw::sensor::bindings::sensor_listener as core::default::Default>::default>:
_ZN95_$LT$mylib..mynewt..hw..sensor..bindings..sensor_listener$u20$as$u20$core..default..Default$GT$7default17h28c68ce312d57044E():
/Users/Luppy/mynewt/stm32bluepill-mynewt-sensor/src/mynewt/hw/sensor/bindings.rs:668
    fn default() -> Self {
        unsafe { ::core::mem::zeroed() }
    }
}
impl Default for sensor_listener {
    fn default() -> Self {
   0:	2100      	movs	r1, #0
_ZN4core3mem6zeroed17hd29a706fa50a2e5cE():
/rustc/50a0defd5a93523067ef239936cc2e0755220904/src/libcore/mem.rs:447
   2:	e9c0 1100 	strd	r1, r1, [r0]
   6:	e9c0 1102 	strd	r1, r1, [r0, #8]
   a:	e9c0 1104 	strd	r1, r1, [r0, #16]
_ZN95_$LT$mylib..mynewt..hw..sensor..bindings..sensor_listener$u20$as$u20$core..default..Default$GT$7default17h28c68ce312d57044E():
/Users/Luppy/mynewt/stm32bluepill-mynewt-sensor/src/mynewt/hw/sensor/bindings.rs:670
        unsafe { ::core::mem::zeroed() }
    }
   e:	4770      	bx	lr

Disassembly of section .text._ZN98_$LT$mylib..mynewt..hw..sensor..bindings..sensor_type_traits$u20$as$u20$core..default..Default$GT$7default17h8285780e3fefaa9fE:

00000000 <<mylib::mynewt::hw::sensor::bindings::sensor_type_traits as core::default::Default>::default>:
_ZN98_$LT$mylib..mynewt..hw..sensor..bindings..sensor_type_traits$u20$as$u20$core..default..Default$GT$7default17h8285780e3fefaa9fE():
/Users/Luppy/mynewt/stm32bluepill-mynewt-sensor/src/mynewt/hw/sensor/bindings.rs:728
    fn default() -> Self {
        unsafe { ::core::mem::zeroed() }
    }
}
impl Default for sensor_type_traits {
    fn default() -> Self {
   0:	b580      	push	{r7, lr}
_ZN4core3mem6zeroed17h082ac5a25cd71a41E():
/rustc/50a0defd5a93523067ef239936cc2e0755220904/src/libcore/mem.rs:447
   2:	2130      	movs	r1, #48	; 0x30
   4:	f7ff fffe 	bl	0 <__aeabi_memclr8>
_ZN98_$LT$mylib..mynewt..hw..sensor..bindings..sensor_type_traits$u20$as$u20$core..default..Default$GT$7default17h8285780e3fefaa9fE():
/Users/Luppy/mynewt/stm32bluepill-mynewt-sensor/src/mynewt/hw/sensor/bindings.rs:730
        unsafe { ::core::mem::zeroed() }
    }
   8:	bd80      	pop	{r7, pc}

Disassembly of section .text._ZN100_$LT$mylib..mynewt..hw..sensor..bindings..sensor_notify_ev_ctx$u20$as$u20$core..default..Default$GT$7default17hdfc850ac9db4ce63E:

00000000 <<mylib::mynewt::hw::sensor::bindings::sensor_notify_ev_ctx as core::default::Default>::default>:
_ZN100_$LT$mylib..mynewt..hw..sensor..bindings..sensor_notify_ev_ctx$u20$as$u20$core..default..Default$GT$7default17hdfc850ac9db4ce63E():
/Users/Luppy/mynewt/stm32bluepill-mynewt-sensor/src/mynewt/hw/sensor/bindings.rs:740
    pub snec_evtype: sensor_event_type_t,
}
impl Default for sensor_notify_ev_ctx {
    fn default() -> Self {
        unsafe { ::core::mem::zeroed() }
    }
   0:	2000      	movs	r0, #0
   2:	2100      	movs	r1, #0
   4:	4770      	bx	lr

Disassembly of section .text._ZN86_$LT$mylib..mynewt..hw..sensor..bindings..sensor$u20$as$u20$core..default..Default$GT$7default17he27dbf96e8284e8aE:

00000000 <<mylib::mynewt::hw::sensor::bindings::sensor as core::default::Default>::default>:
_ZN86_$LT$mylib..mynewt..hw..sensor..bindings..sensor$u20$as$u20$core..default..Default$GT$7default17he27dbf96e8284e8aE():
/Users/Luppy/mynewt/stm32bluepill-mynewt-sensor/src/mynewt/hw/sensor/bindings.rs:960
    fn default() -> Self {
        unsafe { ::core::mem::zeroed() }
    }
}
impl Default for sensor {
    fn default() -> Self {
   0:	b580      	push	{r7, lr}
_ZN4core3mem6zeroed17h672412f702dfc900E():
/rustc/50a0defd5a93523067ef239936cc2e0755220904/src/libcore/mem.rs:447
   2:	2188      	movs	r1, #136	; 0x88
   4:	f7ff fffe 	bl	0 <__aeabi_memclr8>
_ZN86_$LT$mylib..mynewt..hw..sensor..bindings..sensor$u20$as$u20$core..default..Default$GT$7default17he27dbf96e8284e8aE():
/Users/Luppy/mynewt/stm32bluepill-mynewt-sensor/src/mynewt/hw/sensor/bindings.rs:962
        unsafe { ::core::mem::zeroed() }
    }
   8:	bd80      	pop	{r7, pc}

Disassembly of section .text._ZN93_$LT$mylib..mynewt..hw..sensor..bindings.._bindgen_ty_1$u20$as$u20$core..default..Default$GT$7default17ha139728a011f70d5E:

00000000 <<mylib::mynewt::hw::sensor::bindings::_bindgen_ty_1 as core::default::Default>::default>:
_ZN93_$LT$mylib..mynewt..hw..sensor..bindings.._bindgen_ty_1$u20$as$u20$core..default..Default$GT$7default17ha139728a011f70d5E():
/Users/Luppy/mynewt/stm32bluepill-mynewt-sensor/src/mynewt/hw/sensor/bindings.rs:2054
    fn default() -> Self {
        unsafe { ::core::mem::zeroed() }
    }
}
impl Default for _bindgen_ty_1 {
    fn default() -> Self {
   0:	b580      	push	{r7, lr}
_ZN4core3mem6zeroed17h30d11cdfa2bd3b44E():
/rustc/50a0defd5a93523067ef239936cc2e0755220904/src/libcore/mem.rs:447
   2:	2134      	movs	r1, #52	; 0x34
   4:	f7ff fffe 	bl	0 <__aeabi_memclr4>
_ZN93_$LT$mylib..mynewt..hw..sensor..bindings.._bindgen_ty_1$u20$as$u20$core..default..Default$GT$7default17ha139728a011f70d5E():
/Users/Luppy/mynewt/stm32bluepill-mynewt-sensor/src/mynewt/hw/sensor/bindings.rs:2056
        unsafe { ::core::mem::zeroed() }
    }
   8:	bd80      	pop	{r7, pc}

Disassembly of section .text._ZN5mylib6mynewt2hw6sensor21null_sensor_data_func17hcc148dc38d5a5bd5E:

00000000 <mylib::mynewt::hw::sensor::null_sensor_data_func>:
_ZN5mylib6mynewt2hw6sensor21null_sensor_data_func17hcc148dc38d5a5bd5E():
/Users/Luppy/mynewt/stm32bluepill-mynewt-sensor/src/mynewt/hw/sensor.rs:88
extern fn null_sensor_data_func(
    _sensor: sensor_ptr, 
    _arg: sensor_arg, 
    _sensor_data: sensor_data_ptr, 
    _sensor_type: sensor_type_t) -> i32
    { 0 }
   0:	2000      	movs	r0, #0
   2:	4770      	bx	lr

Disassembly of section .text._ZN101_$LT$mylib..mynewt..libs..sensor_coap..json_value__bindgen_ty_1$u20$as$u20$core..default..Default$GT$7default17ha8fd7ae5d6a4e0dbE:

00000000 <<mylib::mynewt::libs::sensor_coap::json_value__bindgen_ty_1 as core::default::Default>::default>:
_ZN101_$LT$mylib..mynewt..libs..sensor_coap..json_value__bindgen_ty_1$u20$as$u20$core..default..Default$GT$7default17ha8fd7ae5d6a4e0dbE():
/Users/Luppy/mynewt/stm32bluepill-mynewt-sensor/src/mynewt/libs/sensor_coap.rs:430
    fn default() -> Self {
        unsafe { ::core::mem::zeroed() }
    }
}
impl Default for json_value__bindgen_ty_1 {
    fn default() -> Self {
   0:	2100      	movs	r1, #0
_ZN4core3mem6zeroed17h47e6c774640aa673E():
/rustc/50a0defd5a93523067ef239936cc2e0755220904/src/libcore/mem.rs:447
   2:	e9c0 1100 	strd	r1, r1, [r0]
   6:	e9c0 1102 	strd	r1, r1, [r0, #8]
_ZN101_$LT$mylib..mynewt..libs..sensor_coap..json_value__bindgen_ty_1$u20$as$u20$core..default..Default$GT$7default17ha8fd7ae5d6a4e0dbE():
/Users/Luppy/mynewt/stm32bluepill-mynewt-sensor/src/mynewt/libs/sensor_coap.rs:432
        unsafe { ::core::mem::zeroed() }
    }
   a:	4770      	bx	lr

Disassembly of section .text._ZN104_$LT$mylib..mynewt..libs..sensor_network..sensor_network_interface$u20$as$u20$core..default..Default$GT$7default17h77e5687ff3f0405dE:

00000000 <<mylib::mynewt::libs::sensor_network::sensor_network_interface as core::default::Default>::default>:
_ZN104_$LT$mylib..mynewt..libs..sensor_network..sensor_network_interface$u20$as$u20$core..default..Default$GT$7default17h77e5687ff3f0405dE():
/Users/Luppy/mynewt/stm32bluepill-mynewt-sensor/src/mynewt/libs/sensor_network.rs:40
        ) -> ::cty::c_int,
    >,
    pub transport_registered: u8,
}
impl Default for sensor_network_interface {
    fn default() -> Self {
   0:	2100      	movs	r1, #0
_ZN4core3mem6zeroed17h252be50653503cd4E():
/rustc/50a0defd5a93523067ef239936cc2e0755220904/src/libcore/mem.rs:447
   2:	e9c0 1100 	strd	r1, r1, [r0]
   6:	e9c0 1102 	strd	r1, r1, [r0, #8]
   a:	6101      	str	r1, [r0, #16]
_ZN104_$LT$mylib..mynewt..libs..sensor_network..sensor_network_interface$u20$as$u20$core..default..Default$GT$7default17h77e5687ff3f0405dE():
/Users/Luppy/mynewt/stm32bluepill-mynewt-sensor/src/mynewt/libs/sensor_network.rs:42
        unsafe { ::core::mem::zeroed() }
    }
   c:	4770      	bx	lr

Disassembly of section .text._ZN5mylib6mynewt6result95_$LT$impl$u20$core..convert..From$LT$mylib..mynewt..result..MynewtError$GT$$u20$for$u20$i32$GT$4from17h0e39a7350d35c582E:

00000000 <mylib::mynewt::result::<impl core::convert::From<mylib::mynewt::result::MynewtError> for i32>::from>:
_ZN5mylib6mynewt6result95_$LT$impl$u20$core..convert..From$LT$mylib..mynewt..result..MynewtError$GT$$u20$for$u20$i32$GT$4from17h0e39a7350d35c582E():
/Users/Luppy/mynewt/stm32bluepill-mynewt-sensor/src/mynewt.rs:57
    /// Cast `MynewtError` to `i32`
    impl From<MynewtError> for i32 {
        /// Cast `MynewtError` to `i32`
        fn from(err: MynewtError) -> Self {
            err as i32
        }
   0:	4770      	bx	lr

Disassembly of section .text._ZN5mylib13listen_sensor16read_temperature17hf92a13341077b6f1E:

00000000 <mylib::listen_sensor::read_temperature>:
_ZN5mylib13listen_sensor16read_temperature17hf92a13341077b6f1E():
/Users/Luppy/mynewt/stm32bluepill-mynewt-sensor/src/listen_sensor.rs:80
///  This listener function is called by Mynewt every 10 seconds (for local sensors) or when sensor data is received
///  (for Remote Sensors).  Mynewt has fetched the raw or computed temperature value, passed through `sensor_data`.
///  If this is a Sensor Node, we send the sensor data to the Collector Node.
///  If this is a Collector Node or Standalone Node, we send the sensor data to the CoAP server.  
///  Return 0 if we have processed the sensor data successfully.
extern fn read_temperature(sensor: sensor_ptr, _arg: sensor_arg, 
   0:	b5f0      	push	{r4, r5, r6, r7, lr}
   2:	b091      	sub	sp, #68	; 0x44
   4:	4604      	mov	r4, r0
_ZN5mylib4base13console_print17hee1ead095790f478E():
/Users/Luppy/mynewt/stm32bluepill-mynewt-sensor/src/base.rs:18
///  Display message `msg` on the Arm Semihosting console (via OpenOCD).
pub fn console_print(msg: &[u8]) {
    let len = msg.len();
    unsafe {
        //  Call the Semihosting Console API, which is unsafe.
        console_buffer(msg.as_ptr(), len as u32);
   6:	f240 0000 	movw	r0, #0
   a:	f2c0 0000 	movt	r0, #0
   e:	2111      	movs	r1, #17
  10:	4616      	mov	r6, r2
  12:	f7ff fffe 	bl	0 <console_buffer>
/Users/Luppy/mynewt/stm32bluepill-mynewt-sensor/src/base.rs:19
        console_flush();  //  TODO: Remove this.
  16:	f7ff fffe 	bl	0 <console_flush>
_ZN5mylib13listen_sensor16read_temperature17hf92a13341077b6f1E():
/Users/Luppy/mynewt/stm32bluepill-mynewt-sensor/src/listen_sensor.rs:85
    sensor_data: sensor_data_ptr, sensor_type: sensor_type_t) -> MynewtError {
    console_print(b"read_temperature\n");
    //  Check that the temperature data is valid.
    //  TODO
    if unsafe { is_null_sensor_data(sensor_data) } { return MynewtError::SYS_EINVAL; }  //  Exit if data is missing
  1a:	4630      	mov	r0, r6
  1c:	f7ff fffe 	bl	0 <is_null_sensor_data>
  20:	b118      	cbz	r0, 2a <mylib::listen_sensor::read_temperature+0x2a>
  22:	f06f 0001 	mvn.w	r0, #1
/Users/Luppy/mynewt/stm32bluepill-mynewt-sensor/src/listen_sensor.rs:116
            return MynewtError::SYS_EOK; 
        }            
    }
    //  Return 0 to Mynewt to indicate no error.  Should not end with a semicolon (;).
    MynewtError::SYS_EOK
}
  26:	b011      	add	sp, #68	; 0x44
  28:	bdf0      	pop	{r4, r5, r6, r7, pc}
/Users/Luppy/mynewt/stm32bluepill-mynewt-sensor/src/listen_sensor.rs:86
    assert!(unsafe { !is_null_sensor(sensor) });
  2a:	4620      	mov	r0, r4
  2c:	f7ff fffe 	bl	0 <is_null_sensor>
  30:	2800      	cmp	r0, #0
  32:	f040 809b 	bne.w	16c <mylib::listen_sensor::read_temperature+0x16c>
  36:	e9dd 1016 	ldrd	r1, r0, [sp, #88]	; 0x58
_ZN5mylib13listen_sensor15get_temperature17hdd7e4ace82cfbeeaE():
/Users/Luppy/mynewt/stm32bluepill-mynewt-sensor/src/listen_sensor.rs:126
#[allow(unreachable_patterns)]
#[allow(unused_variables)]
fn get_temperature(sensor_data: sensor_data_ptr, sensor_type: sensor_type_t) -> SensorValue {
    let mut return_value = SensorValue::default();
    match sensor_type {                           //  Is this raw or computed temperature?
        SENSOR_TYPE_AMBIENT_TEMPERATURE_RAW => {  //  If this is raw temperature...
  3a:	f081 6180 	eor.w	r1, r1, #67108864	; 0x4000000
  3e:	ea41 0700 	orr.w	r7, r1, r0
_ZN5mylib13listen_sensor16read_temperature17hf92a13341077b6f1E():
/Users/Luppy/mynewt/stm32bluepill-mynewt-sensor/src/listen_sensor.rs:91
    let device = unsafe { sensor_get_device(sensor) };
  42:	4620      	mov	r0, r4
  44:	f7ff fffe 	bl	0 <sensor_get_device>
/Users/Luppy/mynewt/stm32bluepill-mynewt-sensor/src/listen_sensor.rs:92
    let device_name_ptr: *const c_char = unsafe { device_get_name(device) };
  48:	f7ff fffe 	bl	0 <device_get_name>
/Users/Luppy/mynewt/stm32bluepill-mynewt-sensor/src/listen_sensor.rs:93
    let device_name: &CStr = unsafe { CStr::from_ptr(device_name_ptr) };
  4c:	f7ff fffe 	bl	0 <cstr_core::CStr::from_ptr>
  50:	4604      	mov	r4, r0
  52:	460d      	mov	r5, r1
  54:	2000      	movs	r0, #0
_ZN5mylib13listen_sensor15get_temperature17hdd7e4ace82cfbeeaE():
/Users/Luppy/mynewt/stm32bluepill-mynewt-sensor/src/listen_sensor.rs:126
        SENSOR_TYPE_AMBIENT_TEMPERATURE_RAW => {  //  If this is raw temperature...
  56:	b9c7      	cbnz	r7, 8a <mylib::listen_sensor::read_temperature+0x8a>
  58:	a905      	add	r1, sp, #20
/Users/Luppy/mynewt/stm32bluepill-mynewt-sensor/src/listen_sensor.rs:128
            //  Interpret the sensor data as a sensor_temp_raw_data struct that contains raw temp.
            let mut rawtempdata = fill_zero!(sensor_temp_raw_data);
  5a:	f88d 0018 	strb.w	r0, [sp, #24]
  5e:	9005      	str	r0, [sp, #20]
/Users/Luppy/mynewt/stm32bluepill-mynewt-sensor/src/listen_sensor.rs:129
            let rc = unsafe { get_temp_raw_data(sensor_data, &mut rawtempdata) };
  60:	4630      	mov	r0, r6
  62:	f7ff fffe 	bl	0 <get_temp_raw_data>
/Users/Luppy/mynewt/stm32bluepill-mynewt-sensor/src/listen_sensor.rs:130
            assert!(rc == 0);
  66:	2800      	cmp	r0, #0
  68:	f040 808e 	bne.w	188 <mylib::listen_sensor::read_temperature+0x188>
/Users/Luppy/mynewt/stm32bluepill-mynewt-sensor/src/listen_sensor.rs:133

            //  Check that the raw temperature data is valid.
            if rawtempdata.strd_temp_raw_is_valid == 0 { return return_value; }  //  Exit if data is not valid
  6c:	f89d 0018 	ldrb.w	r0, [sp, #24]
  70:	2800      	cmp	r0, #0
  72:	f000 8082 	beq.w	17a <mylib::listen_sensor::read_temperature+0x17a>
_ZN5mylib4base13console_print17hee1ead095790f478E():
/Users/Luppy/mynewt/stm32bluepill-mynewt-sensor/src/base.rs:18
        console_buffer(msg.as_ptr(), len as u32);
  76:	f240 0000 	movw	r0, #0
  7a:	2119      	movs	r1, #25
  7c:	f2c0 0000 	movt	r0, #0
  80:	f7ff fffe 	bl	0 <console_buffer>
/Users/Luppy/mynewt/stm32bluepill-mynewt-sensor/src/base.rs:19
        console_flush();  //  TODO: Remove this.
  84:	f7ff fffe 	bl	0 <console_flush>
  88:	e00c      	b.n	a4 <mylib::listen_sensor::read_temperature+0xa4>
_ZN5mylib13listen_sensor15get_temperature17hdd7e4ace82cfbeeaE():
  8a:	a905      	add	r1, sp, #20
/Users/Luppy/mynewt/stm32bluepill-mynewt-sensor/src/listen_sensor.rs:141
            return_value.val = SensorValueType::Uint(rawtempdata.strd_temp_raw);  //  Raw Temperature in integer (0 to 4095)
            console_print(b"TMP listener got rawtmp \n");  // return_value->int_val);
        },
        SENSOR_TYPE_AMBIENT_TEMPERATURE => {      //  If this is computed temperature...
            //  Interpret the sensor data as a sensor_temp_data struct that contains computed temp.
            let mut tempdata = fill_zero!(sensor_temp_data);
  8c:	f88d 0018 	strb.w	r0, [sp, #24]
  90:	9005      	str	r0, [sp, #20]
/Users/Luppy/mynewt/stm32bluepill-mynewt-sensor/src/listen_sensor.rs:142
            let rc = unsafe { get_temp_data(sensor_data, &mut tempdata) };
  92:	4630      	mov	r0, r6
  94:	f7ff fffe 	bl	0 <get_temp_data>
/Users/Luppy/mynewt/stm32bluepill-mynewt-sensor/src/listen_sensor.rs:143
            assert!(rc == 0);
  98:	2800      	cmp	r0, #0
  9a:	d17c      	bne.n	196 <mylib::listen_sensor::read_temperature+0x196>
  9c:	f89d 0018 	ldrb.w	r0, [sp, #24]
/Users/Luppy/mynewt/stm32bluepill-mynewt-sensor/src/listen_sensor.rs:146

            //  Check that the computed temperature data is valid.
            if tempdata.std_temp_is_valid() == 0 { return return_value; }  //  Exit if data is not valid
  a0:	07c0      	lsls	r0, r0, #31
  a2:	d06a      	beq.n	17a <mylib::listen_sensor::read_temperature+0x17a>
_ZN5mylib4base13console_print17hee1ead095790f478E():
/Users/Luppy/mynewt/stm32bluepill-mynewt-sensor/src/base.rs:18
        console_buffer(msg.as_ptr(), len as u32);
  a4:	f240 0000 	movw	r0, #0
  a8:	2111      	movs	r1, #17
  aa:	f2c0 0000 	movt	r0, #0
  ae:	f7ff fffe 	bl	0 <console_buffer>
/Users/Luppy/mynewt/stm32bluepill-mynewt-sensor/src/base.rs:19
        console_flush();  //  TODO: Remove this.
  b2:	f7ff fffe 	bl	0 <console_flush>
  b6:	2000      	movs	r0, #0
_ZN5mylib9send_coap16send_sensor_data17hbbfb0a90effc0e1eE():
/Users/Luppy/mynewt/stm32bluepill-mynewt-sensor/src/send_coap.rs:127
pub fn send_sensor_data(sensor_val: &SensorValue, sensor_node: &CStr) -> MynewtResult<()>  {  //  Returns an error code upon error.
    console_print(b"send_sensor_data\n");
    //  TODO: Remove val
    let mut val = fill_zero!(sensor_value);
    //  For Sensor Node: Transmit the sensor data to the Collector Node as CBOR.
    if unsafe { sensor_network::should_send_to_collector(&mut val, sensor_node.as_ptr()) } { 
  b8:	4621      	mov	r1, r4
/Users/Luppy/mynewt/stm32bluepill-mynewt-sensor/src/send_coap.rs:125
    let mut val = fill_zero!(sensor_value);
  ba:	e9cd 0003 	strd	r0, r0, [sp, #12]
  be:	e9cd 0001 	strd	r0, r0, [sp, #4]
  c2:	a801      	add	r0, sp, #4
/Users/Luppy/mynewt/stm32bluepill-mynewt-sensor/src/send_coap.rs:127
    if unsafe { sensor_network::should_send_to_collector(&mut val, sensor_node.as_ptr()) } { 
  c4:	f7ff fffe 	bl	0 <should_send_to_collector>
  c8:	b1b0      	cbz	r0, 30 <mylib::listen_sensor::read_temperature+0x30>
_ZN5mylib9send_coap29send_sensor_data_to_collector17h1bb0ce20c529569eE():
/Users/Luppy/mynewt/stm32bluepill-mynewt-sensor/src/send_coap.rs:267
///  to be transmitted.  Return 0 if successful, `SYS_EAGAIN` if network is not ready yet.
///  The CoAP payload needs to be very compact (under 32 bytes) so it will be encoded in CBOR like this:
///  `{ t: 2870 }`
fn send_sensor_data_to_collector(sensor_val: &SensorValue, _node_id: &CStr) -> MynewtResult<()>  {  //  Returns an error code upon error.
    ////  TODO: if let SensorValueType::None = sensor_val.val { assert!(false); }
    if unsafe { !NETWORK_IS_READY } { return Err(MynewtError::SYS_EAGAIN); }  //  If network is not ready, tell caller (Sensor Listener) to try later.
  ca:	f240 0000 	movw	r0, #0
  ce:	f2c0 0000 	movt	r0, #0
  d2:	7800      	ldrb	r0, [r0, #0]
  d4:	2801      	cmp	r0, #1
  d6:	d139      	bne.n	14c <mylib::listen_sensor::read_temperature+0x14c>
/Users/Luppy/mynewt/stm32bluepill-mynewt-sensor/src/send_coap.rs:272

    //  Start composing the CoAP Collector message with the sensor data in the payload.  This will 
    //  block other tasks from composing and posting CoAP messages (through a semaphore).
    //  We only have 1 memory buffer for composing CoAP messages so it needs to be locked.
    let rc = unsafe { sensor_network::init_collector_post() };  assert!(rc);
  d8:	f7ff fffe 	bl	0 <init_collector_post>
  dc:	2800      	cmp	r0, #0
  de:	f000 8094 	beq.w	20a <mylib::listen_sensor::read_temperature+0x20a>
/Users/Luppy/mynewt/stm32bluepill-mynewt-sensor/src/send_coap.rs:285
    */

    //  Post the CoAP Collector message to the CoAP Background Task for transmission.  After posting the
    //  message to the background task, we release a semaphore that unblocks other requests
    //  to compose and post CoAP messages.
    let rc = unsafe { sensor_network::do_collector_post() };  assert!(rc);
  e2:	f7ff fffe 	bl	0 <do_collector_post>
  e6:	2800      	cmp	r0, #0
  e8:	f000 8096 	beq.w	218 <mylib::listen_sensor::read_temperature+0x218>
_ZN5mylib4base13console_print17hee1ead095790f478E():
/Users/Luppy/mynewt/stm32bluepill-mynewt-sensor/src/base.rs:18
        console_buffer(msg.as_ptr(), len as u32);
  ec:	f240 0000 	movw	r0, #0
  f0:	2121      	movs	r1, #33	; 0x21
  f2:	f2c0 0000 	movt	r0, #0
  f6:	e021      	b.n	13c <mylib::listen_sensor::read_temperature+0x13c>
_ZN9cstr_core4CStr8to_bytes17h01698a6d2c5e5247E():
/Users/Luppy/.cargo/registry/src/github.com-1ecc6299db9ec823/cstr_core-0.1.2/src/lib.rs:1033
    /// assert_eq!(c_str.to_bytes(), b"foo");
    /// ```
    #[inline]
    pub fn to_bytes(&self) -> &[u8] {
        let bytes = self.to_bytes_with_nul();
        &bytes[..bytes.len() - 1]
  f8:	1e68      	subs	r0, r5, #1
_ZN99_$LT$core..ops..range..Range$LT$usize$GT$$u20$as$u20$core..slice..SliceIndex$LT$$u5b$T$u5d$$GT$$GT$5index17h3271bd4ab5986fe2E():
/rustc/50a0defd5a93523067ef239936cc2e0755220904/src/libcore/slice/mod.rs:2745
  fa:	2d00      	cmp	r5, #0
  fc:	d052      	beq.n	1a4 <mylib::listen_sensor::read_temperature+0x1a4>
_ZN5mylib9send_coap26send_sensor_data_to_server17h4c266d999e3bab5dE():
/Users/Luppy/mynewt/stm32bluepill-mynewt-sensor/src/send_coap.rs:155
    assert_ne!(node_id.to_bytes()[0], 0);
  fe:	2800      	cmp	r0, #0
 100:	d054      	beq.n	1ac <mylib::listen_sensor::read_temperature+0x1ac>
 102:	7820      	ldrb	r0, [r4, #0]
 104:	2800      	cmp	r0, #0
 106:	d05a      	beq.n	1be <mylib::listen_sensor::read_temperature+0x1be>
/Users/Luppy/mynewt/stm32bluepill-mynewt-sensor/src/send_coap.rs:156
    if unsafe { !NETWORK_IS_READY } { return Err(MynewtError::SYS_EAGAIN); }  //  If network is not ready, tell caller (Sensor Listener) to try later.
 108:	f240 0000 	movw	r0, #0
 10c:	f2c0 0000 	movt	r0, #0
 110:	7800      	ldrb	r0, [r0, #0]
 112:	2801      	cmp	r0, #1
 114:	d11a      	bne.n	14c <mylib::listen_sensor::read_temperature+0x14c>
/Users/Luppy/mynewt/stm32bluepill-mynewt-sensor/src/send_coap.rs:157
    let device_id_ptr = unsafe { sensor_network::get_device_id() };
 116:	f7ff fffe 	bl	0 <get_device_id>
/Users/Luppy/mynewt/stm32bluepill-mynewt-sensor/src/send_coap.rs:158
    let device_id: &CStr = unsafe { CStr::from_ptr(device_id_ptr) };
 11a:	f7ff fffe 	bl	0 <cstr_core::CStr::from_ptr>
/Users/Luppy/mynewt/stm32bluepill-mynewt-sensor/src/send_coap.rs:163
    let rc = unsafe { sensor_network::init_server_post(0 as *const c_char) };  assert!(rc);
 11e:	2000      	movs	r0, #0
 120:	f7ff fffe 	bl	0 <init_server_post>
 124:	2800      	cmp	r0, #0
 126:	d07e      	beq.n	226 <mylib::listen_sensor::read_temperature+0x226>
/Users/Luppy/mynewt/stm32bluepill-mynewt-sensor/src/send_coap.rs:184
    let rc = unsafe { sensor_network::do_server_post() };  assert!(rc);
 128:	f7ff fffe 	bl	0 <do_server_post>
 12c:	2800      	cmp	r0, #0
 12e:	f000 8081 	beq.w	234 <mylib::listen_sensor::read_temperature+0x234>
_ZN5mylib4base13console_print17hee1ead095790f478E():
/Users/Luppy/mynewt/stm32bluepill-mynewt-sensor/src/base.rs:18
 132:	f240 0000 	movw	r0, #0
 136:	214b      	movs	r1, #75	; 0x4b
 138:	f2c0 0000 	movt	r0, #0
_ZN5mylib9send_coap16send_sensor_data17hbbfb0a90effc0e1eE():
 13c:	f7ff fffe 	bl	0 <console_buffer>
 140:	f7ff fffe 	bl	0 <console_flush>
 144:	2001      	movs	r0, #1
_ZN5mylib13listen_sensor16read_temperature17hf92a13341077b6f1E():
/Users/Luppy/mynewt/stm32bluepill-mynewt-sensor/src/listen_sensor.rs:108
    if let Err(err) = rc {  //  `if let` will assign `err` to the error code inside `rc`
 146:	3006      	adds	r0, #6
 148:	d10d      	bne.n	166 <mylib::listen_sensor::read_temperature+0x166>
 14a:	e003      	b.n	154 <mylib::listen_sensor::read_temperature+0x154>
 14c:	f06f 0005 	mvn.w	r0, #5
 150:	3006      	adds	r0, #6
 152:	d108      	bne.n	166 <mylib::listen_sensor::read_temperature+0x166>
_ZN5mylib4base13console_print17hee1ead095790f478E():
/Users/Luppy/mynewt/stm32bluepill-mynewt-sensor/src/base.rs:18
 154:	f240 0000 	movw	r0, #0
 158:	2116      	movs	r1, #22
 15a:	f2c0 0000 	movt	r0, #0
 15e:	f7ff fffe 	bl	0 <console_buffer>
/Users/Luppy/mynewt/stm32bluepill-mynewt-sensor/src/base.rs:19
        console_flush();  //  TODO: Remove this.
 162:	f7ff fffe 	bl	0 <console_flush>
_ZN5mylib13listen_sensor16read_temperature17hf92a13341077b6f1E():
 166:	2000      	movs	r0, #0
/Users/Luppy/mynewt/stm32bluepill-mynewt-sensor/src/listen_sensor.rs:116
}
 168:	b011      	add	sp, #68	; 0x44
 16a:	bdf0      	pop	{r4, r5, r6, r7, pc}
/Users/Luppy/mynewt/stm32bluepill-mynewt-sensor/src/listen_sensor.rs:86
    assert!(unsafe { !is_null_sensor(sensor) });
 16c:	f240 0000 	movw	r0, #0
 170:	f2c0 0000 	movt	r0, #0
 174:	f7ff fffe 	bl	0 <core::panicking::panic>
 178:	defe      	udf	#254	; 0xfe
/Users/Luppy/mynewt/stm32bluepill-mynewt-sensor/src/listen_sensor.rs:98
    if let SensorValueType::None = temp_sensor_value.val { assert!(false); }  //  Invalid type
 17a:	f240 0000 	movw	r0, #0
 17e:	f2c0 0000 	movt	r0, #0
 182:	f7ff fffe 	bl	0 <core::panicking::panic>
 186:	defe      	udf	#254	; 0xfe
_ZN5mylib13listen_sensor15get_temperature17hdd7e4ace82cfbeeaE():
/Users/Luppy/mynewt/stm32bluepill-mynewt-sensor/src/listen_sensor.rs:130
            assert!(rc == 0);
 188:	f240 0000 	movw	r0, #0
 18c:	f2c0 0000 	movt	r0, #0
 190:	f7ff fffe 	bl	0 <core::panicking::panic>
 194:	defe      	udf	#254	; 0xfe
/Users/Luppy/mynewt/stm32bluepill-mynewt-sensor/src/listen_sensor.rs:143
            assert!(rc == 0);
 196:	f240 0000 	movw	r0, #0
 19a:	f2c0 0000 	movt	r0, #0
 19e:	f7ff fffe 	bl	0 <core::panicking::panic>
 1a2:	defe      	udf	#254	; 0xfe
_ZN99_$LT$core..ops..range..Range$LT$usize$GT$$u20$as$u20$core..slice..SliceIndex$LT$$u5b$T$u5d$$GT$$GT$5index17h3271bd4ab5986fe2E():
/rustc/50a0defd5a93523067ef239936cc2e0755220904/src/libcore/slice/mod.rs:2746
 1a4:	2100      	movs	r1, #0
 1a6:	f7ff fffe 	bl	0 <core::slice::slice_index_len_fail>
 1aa:	defe      	udf	#254	; 0xfe
_ZN5mylib9send_coap26send_sensor_data_to_server17h4c266d999e3bab5dE():
/Users/Luppy/mynewt/stm32bluepill-mynewt-sensor/src/send_coap.rs:155
    assert_ne!(node_id.to_bytes()[0], 0);
 1ac:	f240 0000 	movw	r0, #0
 1b0:	2100      	movs	r1, #0
 1b2:	f2c0 0000 	movt	r0, #0
 1b6:	2200      	movs	r2, #0
 1b8:	f7ff fffe 	bl	0 <core::panicking::panic_bounds_check>
 1bc:	defe      	udf	#254	; 0xfe
 1be:	f240 0000 	movw	r0, #0
 1c2:	a910      	add	r1, sp, #64	; 0x40
 1c4:	f2c0 0000 	movt	r0, #0
 1c8:	940f      	str	r4, [sp, #60]	; 0x3c
 1ca:	900e      	str	r0, [sp, #56]	; 0x38
 1cc:	e9cd 010c 	strd	r0, r1, [sp, #48]	; 0x30
 1d0:	a80f      	add	r0, sp, #60	; 0x3c
 1d2:	900b      	str	r0, [sp, #44]	; 0x2c
 1d4:	f240 0000 	movw	r0, #0
 1d8:	f2c0 0000 	movt	r0, #0
 1dc:	f240 0100 	movw	r1, #0
 1e0:	9010      	str	r0, [sp, #64]	; 0x40
 1e2:	2002      	movs	r0, #2
_ZN4core3fmt9Arguments6new_v117ha99294a9defa432aE():
/rustc/50a0defd5a93523067ef239936cc2e0755220904/src/libcore/fmt/mod.rs:316
 1e4:	900a      	str	r0, [sp, #40]	; 0x28
 1e6:	a80b      	add	r0, sp, #44	; 0x2c
 1e8:	9009      	str	r0, [sp, #36]	; 0x24
 1ea:	2000      	movs	r0, #0
 1ec:	e9cd 0007 	strd	r0, r0, [sp, #28]
 1f0:	2003      	movs	r0, #3
 1f2:	9006      	str	r0, [sp, #24]
 1f4:	f240 0000 	movw	r0, #0
 1f8:	f2c0 0000 	movt	r0, #0
_ZN5mylib9send_coap26send_sensor_data_to_server17h4c266d999e3bab5dE():
/Users/Luppy/mynewt/stm32bluepill-mynewt-sensor/src/send_coap.rs:155
 1fc:	f2c0 0100 	movt	r1, #0
_ZN4core3fmt9Arguments6new_v117ha99294a9defa432aE():
/rustc/50a0defd5a93523067ef239936cc2e0755220904/src/libcore/fmt/mod.rs:316
 200:	9005      	str	r0, [sp, #20]
 202:	a805      	add	r0, sp, #20
_ZN5mylib9send_coap26send_sensor_data_to_server17h4c266d999e3bab5dE():
/Users/Luppy/mynewt/stm32bluepill-mynewt-sensor/src/send_coap.rs:155
 204:	f7ff fffe 	bl	0 <core::panicking::panic_fmt>
 208:	defe      	udf	#254	; 0xfe
_ZN5mylib9send_coap29send_sensor_data_to_collector17h1bb0ce20c529569eE():
/Users/Luppy/mynewt/stm32bluepill-mynewt-sensor/src/send_coap.rs:272
    let rc = unsafe { sensor_network::init_collector_post() };  assert!(rc);
 20a:	f240 0000 	movw	r0, #0
 20e:	f2c0 0000 	movt	r0, #0
 212:	f7ff fffe 	bl	0 <core::panicking::panic>
 216:	defe      	udf	#254	; 0xfe
/Users/Luppy/mynewt/stm32bluepill-mynewt-sensor/src/send_coap.rs:285
    let rc = unsafe { sensor_network::do_collector_post() };  assert!(rc);
 218:	f240 0000 	movw	r0, #0
 21c:	f2c0 0000 	movt	r0, #0
 220:	f7ff fffe 	bl	0 <core::panicking::panic>
 224:	defe      	udf	#254	; 0xfe
_ZN5mylib9send_coap26send_sensor_data_to_server17h4c266d999e3bab5dE():
/Users/Luppy/mynewt/stm32bluepill-mynewt-sensor/src/send_coap.rs:163
    let rc = unsafe { sensor_network::init_server_post(0 as *const c_char) };  assert!(rc);
 226:	f240 0000 	movw	r0, #0
 22a:	f2c0 0000 	movt	r0, #0
 22e:	f7ff fffe 	bl	0 <core::panicking::panic>
 232:	defe      	udf	#254	; 0xfe
/Users/Luppy/mynewt/stm32bluepill-mynewt-sensor/src/send_coap.rs:184
    let rc = unsafe { sensor_network::do_server_post() };  assert!(rc);
 234:	f240 0000 	movw	r0, #0
 238:	f2c0 0000 	movt	r0, #0
 23c:	f7ff fffe 	bl	0 <core::panicking::panic>
 240:	defe      	udf	#254	; 0xfe

Disassembly of section .text._ZN5mylib9send_coap17network_task_func17h4cb9c6d5020b51c1E:

00000000 <mylib::send_coap::network_task_func>:
_ZN5mylib9send_coap17network_task_func17h4cb9c6d5020b51c1E():
/Users/Luppy/mynewt/stm32bluepill-mynewt-sensor/src/send_coap.rs:82
extern "C" fn network_task_func(_arg: *mut ::cty::c_void) {
   0:	b08e      	sub	sp, #56	; 0x38
_ZN5mylib4base13console_print17hee1ead095790f478E():
/Users/Luppy/mynewt/stm32bluepill-mynewt-sensor/src/base.rs:18
        console_buffer(msg.as_ptr(), len as u32);
   2:	f240 0000 	movw	r0, #0
   6:	210a      	movs	r1, #10
   8:	f2c0 0000 	movt	r0, #0
   c:	f7ff fffe 	bl	0 <console_buffer>
/Users/Luppy/mynewt/stm32bluepill-mynewt-sensor/src/base.rs:19
        console_flush();  //  TODO: Remove this.
  10:	f7ff fffe 	bl	0 <console_flush>
_ZN5mylib9send_coap17network_task_func17h4cb9c6d5020b51c1E():
/Users/Luppy/mynewt/stm32bluepill-mynewt-sensor/src/send_coap.rs:83
    console_print(b"NET start\n");  assert!(unsafe { !NETWORK_IS_READY });
  14:	f240 0400 	movw	r4, #0
  18:	f2c0 0400 	movt	r4, #0
  1c:	7820      	ldrb	r0, [r4, #0]
  1e:	2801      	cmp	r0, #1
  20:	d026      	beq.n	70 <mylib::send_coap::network_task_func+0x70>
/Users/Luppy/mynewt/stm32bluepill-mynewt-sensor/src/send_coap.rs:88
        sensor_network::is_standalone_node() || 
  22:	f7ff fffe 	bl	0 <is_standalone_node>
  26:	b910      	cbnz	r0, 8 <is_collector_node+0x8>
/Users/Luppy/mynewt/stm32bluepill-mynewt-sensor/src/send_coap.rs:89
        sensor_network::is_collector_node() 
  28:	f7ff fffe 	bl	0 <is_collector_node>
/Users/Luppy/mynewt/stm32bluepill-mynewt-sensor/src/send_coap.rs:87
    if unsafe { 
  2c:	b120      	cbz	r0, c <register_server_transport+0xc>
/Users/Luppy/mynewt/stm32bluepill-mynewt-sensor/src/send_coap.rs:91
        let rc = unsafe { sensor_network::register_server_transport() };  assert_eq!(rc, 0);
  2e:	f7ff fffe 	bl	0 <register_server_transport>
  32:	2800      	cmp	r0, #0
  34:	9001      	str	r0, [sp, #4]
  36:	d122      	bne.n	7e <mylib::send_coap::network_task_func+0x7e>
/Users/Luppy/mynewt/stm32bluepill-mynewt-sensor/src/send_coap.rs:96
        sensor_network::is_collector_node() || 
  38:	f7ff fffe 	bl	0 <is_collector_node>
  3c:	b910      	cbnz	r0, 8 <is_sensor_node+0x8>
/Users/Luppy/mynewt/stm32bluepill-mynewt-sensor/src/send_coap.rs:97
        sensor_network::is_sensor_node() 
  3e:	f7ff fffe 	bl	0 <is_sensor_node>
/Users/Luppy/mynewt/stm32bluepill-mynewt-sensor/src/send_coap.rs:95
    if unsafe { 
  42:	b120      	cbz	r0, c <register_collector_transport+0xc>
/Users/Luppy/mynewt/stm32bluepill-mynewt-sensor/src/send_coap.rs:99
        let rc = unsafe { sensor_network::register_collector_transport() };  assert_eq!(rc, 0);
  44:	f7ff fffe 	bl	0 <register_collector_transport>
  48:	2800      	cmp	r0, #0
  4a:	9001      	str	r0, [sp, #4]
  4c:	d13e      	bne.n	cc <mylib::send_coap::network_task_func+0xcc>
  4e:	2001      	movs	r0, #1
/Users/Luppy/mynewt/stm32bluepill-mynewt-sensor/src/send_coap.rs:104
    unsafe { NETWORK_IS_READY = true; }  //  Indicate that network is ready.
  50:	7020      	strb	r0, [r4, #0]
  52:	f240 0400 	movw	r4, #0
  56:	f2c0 0400 	movt	r4, #0
_ZN5mylib4base13console_print17hee1ead095790f478E():
/Users/Luppy/mynewt/stm32bluepill-mynewt-sensor/src/base.rs:18
        console_buffer(msg.as_ptr(), len as u32);
  5a:	4620      	mov	r0, r4
  5c:	2111      	movs	r1, #17
  5e:	f7ff fffe 	bl	0 <console_buffer>
/Users/Luppy/mynewt/stm32bluepill-mynewt-sensor/src/base.rs:19
        console_flush();  //  TODO: Remove this.
  62:	f7ff fffe 	bl	0 <console_flush>
_ZN5mylib9send_coap17network_task_func17h4cb9c6d5020b51c1E():
/Users/Luppy/mynewt/stm32bluepill-mynewt-sensor/src/send_coap.rs:108
        unsafe { os::os_time_delay(10 * os::OS_TICKS_PER_SEC); }                   //  Wait 10 seconds before repeating.
  66:	f242 7010 	movw	r0, #10000	; 0x2710
  6a:	f7ff fffe 	bl	0 <os_time_delay>
/Users/Luppy/mynewt/stm32bluepill-mynewt-sensor/src/send_coap.rs:106
    loop {  //  Loop forever...        
  6e:	e7f4      	b.n	ffffffec <.Lanon.66efcc49d0fee5a2b1dd6aff61b9601a.47+0xffffffe4>
/Users/Luppy/mynewt/stm32bluepill-mynewt-sensor/src/send_coap.rs:83
    console_print(b"NET start\n");  assert!(unsafe { !NETWORK_IS_READY });
  70:	f240 0000 	movw	r0, #0
  74:	f2c0 0000 	movt	r0, #0
  78:	f7ff fffe 	bl	0 <core::panicking::panic>
  7c:	defe      	udf	#254	; 0xfe
  7e:	a801      	add	r0, sp, #4
/Users/Luppy/mynewt/stm32bluepill-mynewt-sensor/src/send_coap.rs:91
        let rc = unsafe { sensor_network::register_server_transport() };  assert_eq!(rc, 0);
  80:	900c      	str	r0, [sp, #48]	; 0x30
  82:	f240 0000 	movw	r0, #0
  86:	a90d      	add	r1, sp, #52	; 0x34
  88:	f2c0 0000 	movt	r0, #0
  8c:	900b      	str	r0, [sp, #44]	; 0x2c
  8e:	e9cd 0109 	strd	r0, r1, [sp, #36]	; 0x24
  92:	a80c      	add	r0, sp, #48	; 0x30
  94:	9008      	str	r0, [sp, #32]
  96:	f240 0000 	movw	r0, #0
  9a:	f2c0 0000 	movt	r0, #0
  9e:	f240 0100 	movw	r1, #0
  a2:	900d      	str	r0, [sp, #52]	; 0x34
  a4:	2002      	movs	r0, #2
_ZN4core3fmt9Arguments6new_v117ha99294a9defa432aE():
/rustc/50a0defd5a93523067ef239936cc2e0755220904/src/libcore/fmt/mod.rs:316
  a6:	9007      	str	r0, [sp, #28]
  a8:	a808      	add	r0, sp, #32
  aa:	9006      	str	r0, [sp, #24]
  ac:	2000      	movs	r0, #0
  ae:	e9cd 0004 	strd	r0, r0, [sp, #16]
  b2:	2003      	movs	r0, #3
  b4:	9003      	str	r0, [sp, #12]
  b6:	f240 0000 	movw	r0, #0
  ba:	f2c0 0000 	movt	r0, #0
_ZN5mylib9send_coap17network_task_func17h4cb9c6d5020b51c1E():
/Users/Luppy/mynewt/stm32bluepill-mynewt-sensor/src/send_coap.rs:91
  be:	f2c0 0100 	movt	r1, #0
_ZN4core3fmt9Arguments6new_v117ha99294a9defa432aE():
/rustc/50a0defd5a93523067ef239936cc2e0755220904/src/libcore/fmt/mod.rs:316
  c2:	9002      	str	r0, [sp, #8]
  c4:	a802      	add	r0, sp, #8
_ZN5mylib9send_coap17network_task_func17h4cb9c6d5020b51c1E():
/Users/Luppy/mynewt/stm32bluepill-mynewt-sensor/src/send_coap.rs:91
  c6:	f7ff fffe 	bl	0 <core::panicking::panic_fmt>
  ca:	defe      	udf	#254	; 0xfe
  cc:	a801      	add	r0, sp, #4
/Users/Luppy/mynewt/stm32bluepill-mynewt-sensor/src/send_coap.rs:99
        let rc = unsafe { sensor_network::register_collector_transport() };  assert_eq!(rc, 0);
  ce:	900c      	str	r0, [sp, #48]	; 0x30
  d0:	f240 0000 	movw	r0, #0
  d4:	a90d      	add	r1, sp, #52	; 0x34
  d6:	f2c0 0000 	movt	r0, #0
  da:	900b      	str	r0, [sp, #44]	; 0x2c
  dc:	e9cd 0109 	strd	r0, r1, [sp, #36]	; 0x24
  e0:	a80c      	add	r0, sp, #48	; 0x30
  e2:	9008      	str	r0, [sp, #32]
  e4:	f240 0000 	movw	r0, #0
  e8:	f2c0 0000 	movt	r0, #0
  ec:	f240 0100 	movw	r1, #0
  f0:	900d      	str	r0, [sp, #52]	; 0x34
  f2:	2002      	movs	r0, #2
_ZN4core3fmt9Arguments6new_v117ha99294a9defa432aE():
/rustc/50a0defd5a93523067ef239936cc2e0755220904/src/libcore/fmt/mod.rs:316
  f4:	9007      	str	r0, [sp, #28]
  f6:	a808      	add	r0, sp, #32
  f8:	9006      	str	r0, [sp, #24]
  fa:	2000      	movs	r0, #0
  fc:	e9cd 0004 	strd	r0, r0, [sp, #16]
 100:	2003      	movs	r0, #3
 102:	9003      	str	r0, [sp, #12]
 104:	f240 0000 	movw	r0, #0
 108:	f2c0 0000 	movt	r0, #0
_ZN5mylib9send_coap17network_task_func17h4cb9c6d5020b51c1E():
/Users/Luppy/mynewt/stm32bluepill-mynewt-sensor/src/send_coap.rs:99
 10c:	f2c0 0100 	movt	r1, #0
_ZN4core3fmt9Arguments6new_v117ha99294a9defa432aE():
/rustc/50a0defd5a93523067ef239936cc2e0755220904/src/libcore/fmt/mod.rs:316
 110:	9002      	str	r0, [sp, #8]
 112:	a802      	add	r0, sp, #8
_ZN5mylib9send_coap17network_task_func17h4cb9c6d5020b51c1E():
/Users/Luppy/mynewt/stm32bluepill-mynewt-sensor/src/send_coap.rs:99
 114:	f7ff fffe 	bl	0 <core::panicking::panic_fmt>
 118:	defe      	udf	#254	; 0xfe

Disassembly of section .text.main:

00000000 <main>:
main():
/Users/Luppy/mynewt/stm32bluepill-mynewt-sensor/src/lib.rs:31
use mynewt::kernel::os;         //  Import Mynewt OS API
use crate::base::*;             //  Import `base.rs` for common declarations

///  main() will be called at Mynewt startup. It replaces the C version of the main() function.
#[no_mangle]                     //  Don't mangle the name "main"
pub extern "C" fn main() -> ! {  //  Declare extern "C" because it will be called by Mynewt
   0:	b092      	sub	sp, #72	; 0x48
/Users/Luppy/mynewt/stm32bluepill-mynewt-sensor/src/lib.rs:33
    //  Init Mynewt system.
    unsafe { base::rust_sysinit()  };
   2:	f7ff fffe 	bl	0 <rust_sysinit>
/Users/Luppy/mynewt/stm32bluepill-mynewt-sensor/src/lib.rs:34
    unsafe { console_flush() };
   6:	f7ff fffe 	bl	0 <console_flush>
_ZN5mylib4base13console_print17hee1ead095790f478E():
/Users/Luppy/mynewt/stm32bluepill-mynewt-sensor/src/base.rs:18
        console_buffer(msg.as_ptr(), len as u32);
   a:	f240 0000 	movw	r0, #0
   e:	210a      	movs	r1, #10
  10:	f2c0 0000 	movt	r0, #0
  14:	240a      	movs	r4, #10
  16:	f7ff fffe 	bl	0 <console_buffer>
/Users/Luppy/mynewt/stm32bluepill-mynewt-sensor/src/base.rs:19
        console_flush();  //  TODO: Remove this.
  1a:	f7ff fffe 	bl	0 <console_flush>
_ZN5mylib9send_coap18start_network_task17hb04db9ffb075093eE():
/Users/Luppy/mynewt/stm32bluepill-mynewt-sensor/src/send_coap.rs:62
    let rc = unsafe { os::os_task_init( //  Create a new task and start it...
  1e:	f240 0100 	movw	r1, #0
  22:	f04f 32ff 	mov.w	r2, #4294967295	; 0xffffffff
  26:	f44f 7080 	mov.w	r0, #256	; 0x100
  2a:	f2c0 0100 	movt	r1, #0
  2e:	e9cd 4200 	strd	r4, r2, [sp]
  32:	f240 0200 	movw	r2, #0
  36:	e9cd 1002 	strd	r1, r0, [sp, #8]
  3a:	f240 0000 	movw	r0, #0
  3e:	f240 0100 	movw	r1, #0
  42:	f2c0 0000 	movt	r0, #0
  46:	f2c0 0100 	movt	r1, #0
  4a:	f2c0 0200 	movt	r2, #0
  4e:	2300      	movs	r3, #0
  50:	2400      	movs	r4, #0
  52:	f7ff fffe 	bl	0 <os_task_init>
/Users/Luppy/mynewt/stm32bluepill-mynewt-sensor/src/send_coap.rs:71
    assert_eq!(rc, 0);
  56:	2800      	cmp	r0, #0
/Users/Luppy/mynewt/stm32bluepill-mynewt-sensor/src/send_coap.rs:62
    let rc = unsafe { os::os_task_init( //  Create a new task and start it...
  58:	9009      	str	r0, [sp, #36]	; 0x24
/Users/Luppy/mynewt/stm32bluepill-mynewt-sensor/src/send_coap.rs:71
    assert_eq!(rc, 0);
  5a:	d13f      	bne.n	dc <main+0xdc>
_ZN5mylib4base13console_print17hee1ead095790f478E():
/Users/Luppy/mynewt/stm32bluepill-mynewt-sensor/src/base.rs:18
        console_buffer(msg.as_ptr(), len as u32);
  5c:	f240 0000 	movw	r0, #0
  60:	210a      	movs	r1, #10
  62:	f2c0 0000 	movt	r0, #0
  66:	f7ff fffe 	bl	0 <console_buffer>
/Users/Luppy/mynewt/stm32bluepill-mynewt-sensor/src/base.rs:19
        console_flush();  //  TODO: Remove this.
  6a:	f7ff fffe 	bl	0 <console_flush>
_ZN5mylib13listen_sensor21start_sensor_listener17hf5d5e887e71c49f0E():
/Users/Luppy/mynewt/stm32bluepill-mynewt-sensor/src/listen_sensor.rs:45
    let rc = unsafe { sensor::sensor_set_poll_rate_ms(SENSOR_DEVICE, SENSOR_POLL_TIME) };
  6e:	f240 0000 	movw	r0, #0
  72:	f242 7110 	movw	r1, #10000	; 0x2710
  76:	f2c0 0000 	movt	r0, #0
  7a:	f7ff fffe 	bl	0 <sensor_set_poll_rate_ms>
/Users/Luppy/mynewt/stm32bluepill-mynewt-sensor/src/listen_sensor.rs:46
    assert_eq!(rc, 0);
  7e:	2800      	cmp	r0, #0
/Users/Luppy/mynewt/stm32bluepill-mynewt-sensor/src/listen_sensor.rs:45
    let rc = unsafe { sensor::sensor_set_poll_rate_ms(SENSOR_DEVICE, SENSOR_POLL_TIME) };
  80:	9009      	str	r0, [sp, #36]	; 0x24
/Users/Luppy/mynewt/stm32bluepill-mynewt-sensor/src/listen_sensor.rs:46
    assert_eq!(rc, 0);
  82:	d151      	bne.n	128 <main+0x128>
/Users/Luppy/mynewt/stm32bluepill-mynewt-sensor/src/listen_sensor.rs:49
    let sensor = unsafe { sensor::sensor_mgr_find_next_bydevname(SENSOR_DEVICE, null_sensor()) };
  84:	f7ff fffe 	bl	0 <null_sensor>
  88:	4601      	mov	r1, r0
  8a:	f240 0000 	movw	r0, #0
  8e:	f2c0 0000 	movt	r0, #0
  92:	f7ff fffe 	bl	0 <sensor_mgr_find_next_bydevname>
  96:	4604      	mov	r4, r0
/Users/Luppy/mynewt/stm32bluepill-mynewt-sensor/src/listen_sensor.rs:50
    assert!(unsafe{ !is_null_sensor(sensor) });
  98:	f7ff fffe 	bl	0 <is_null_sensor>
  9c:	2800      	cmp	r0, #0
  9e:	d16a      	bne.n	176 <main+0x176>
_ZN5mylib6mynewt2hw6sensor17register_listener17h35dc70309938eda8E():
/Users/Luppy/mynewt/stm32bluepill-mynewt-sensor/src/mynewt/hw/sensor.rs:66
    unsafe { assert!(LISTENER_INTERNAL.sl_sensor_type == 0) };  //  Make sure it's not used.
  a0:	f240 0100 	movw	r1, #0
  a4:	f2c0 0100 	movt	r1, #0
  a8:	e9d1 0200 	ldrd	r0, r2, [r1]
  ac:	4310      	orrs	r0, r2
  ae:	d169      	bne.n	184 <main+0x184>
/Users/Luppy/mynewt/stm32bluepill-mynewt-sensor/src/mynewt/hw/sensor.rs:68
    unsafe { LISTENER_INTERNAL = listener };
  b0:	f240 0300 	movw	r3, #0
  b4:	2000      	movs	r0, #0
  b6:	f04f 6280 	mov.w	r2, #67108864	; 0x4000000
  ba:	f04f 0c01 	mov.w	ip, #1
  be:	f2c0 0300 	movt	r3, #0
  c2:	e9c1 2000 	strd	r2, r0, [r1]
  c6:	e9c1 3c02 	strd	r3, ip, [r1, #8]
  ca:	6108      	str	r0, [r1, #16]
/Users/Luppy/mynewt/stm32bluepill-mynewt-sensor/src/mynewt/hw/sensor.rs:70
    unsafe { sensor_register_listener(sensor, &mut LISTENER_INTERNAL) };
  cc:	4620      	mov	r0, r4
  ce:	f7ff fffe 	bl	0 <sensor_register_listener>
main():
/Users/Luppy/mynewt/stm32bluepill-mynewt-sensor/src/lib.rs:52

    //  Main event loop
    loop {                            //  Loop forever...
        unsafe {
            os::os_eventq_run(            //  Process events...
                os::os_eventq_dflt_get()  //  From default event queue.
  d2:	f7ff fffe 	bl	0 <os_eventq_dflt_get>
/Users/Luppy/mynewt/stm32bluepill-mynewt-sensor/src/lib.rs:51
            os::os_eventq_run(            //  Process events...
  d6:	f7ff fffe 	bl	0 <os_eventq_run>
/Users/Luppy/mynewt/stm32bluepill-mynewt-sensor/src/lib.rs:49
    loop {                            //  Loop forever...
  da:	e7fa      	b.n	d2 <main+0xd2>
  dc:	a809      	add	r0, sp, #36	; 0x24
_ZN5mylib9send_coap18start_network_task17hb04db9ffb075093eE():
/Users/Luppy/mynewt/stm32bluepill-mynewt-sensor/src/send_coap.rs:71
  de:	9010      	str	r0, [sp, #64]	; 0x40
  e0:	f240 0000 	movw	r0, #0
  e4:	a911      	add	r1, sp, #68	; 0x44
  e6:	f2c0 0000 	movt	r0, #0
  ea:	9008      	str	r0, [sp, #32]
  ec:	e9cd 0106 	strd	r0, r1, [sp, #24]
  f0:	a810      	add	r0, sp, #64	; 0x40
  f2:	9005      	str	r0, [sp, #20]
  f4:	f240 0000 	movw	r0, #0
  f8:	f2c0 0000 	movt	r0, #0
  fc:	f240 0100 	movw	r1, #0
 100:	9011      	str	r0, [sp, #68]	; 0x44
 102:	2002      	movs	r0, #2
_ZN4core3fmt9Arguments6new_v117ha99294a9defa432aE():
/rustc/50a0defd5a93523067ef239936cc2e0755220904/src/libcore/fmt/mod.rs:316
 104:	900f      	str	r0, [sp, #60]	; 0x3c
 106:	a805      	add	r0, sp, #20
 108:	900e      	str	r0, [sp, #56]	; 0x38
 10a:	2003      	movs	r0, #3
 10c:	e9cd 440c 	strd	r4, r4, [sp, #48]	; 0x30
_ZN5mylib9send_coap18start_network_task17hb04db9ffb075093eE():
/Users/Luppy/mynewt/stm32bluepill-mynewt-sensor/src/send_coap.rs:71
 110:	f2c0 0100 	movt	r1, #0
_ZN4core3fmt9Arguments6new_v117ha99294a9defa432aE():
/rustc/50a0defd5a93523067ef239936cc2e0755220904/src/libcore/fmt/mod.rs:316
 114:	900b      	str	r0, [sp, #44]	; 0x2c
 116:	f240 0000 	movw	r0, #0
 11a:	f2c0 0000 	movt	r0, #0
 11e:	900a      	str	r0, [sp, #40]	; 0x28
 120:	a80a      	add	r0, sp, #40	; 0x28
_ZN5mylib9send_coap18start_network_task17hb04db9ffb075093eE():
/Users/Luppy/mynewt/stm32bluepill-mynewt-sensor/src/send_coap.rs:71
 122:	f7ff fffe 	bl	0 <core::panicking::panic_fmt>
 126:	defe      	udf	#254	; 0xfe
main():
 128:	a809      	add	r0, sp, #36	; 0x24
_ZN5mylib13listen_sensor21start_sensor_listener17hf5d5e887e71c49f0E():
/Users/Luppy/mynewt/stm32bluepill-mynewt-sensor/src/listen_sensor.rs:46
    assert_eq!(rc, 0);
 12a:	9010      	str	r0, [sp, #64]	; 0x40
 12c:	f240 0000 	movw	r0, #0
 130:	a911      	add	r1, sp, #68	; 0x44
 132:	f2c0 0000 	movt	r0, #0
 136:	9008      	str	r0, [sp, #32]
 138:	e9cd 0106 	strd	r0, r1, [sp, #24]
 13c:	a810      	add	r0, sp, #64	; 0x40
 13e:	9005      	str	r0, [sp, #20]
 140:	f240 0000 	movw	r0, #0
 144:	f2c0 0000 	movt	r0, #0
 148:	f240 0100 	movw	r1, #0
 14c:	9011      	str	r0, [sp, #68]	; 0x44
 14e:	2002      	movs	r0, #2
_ZN4core3fmt9Arguments6new_v117ha99294a9defa432aE():
/rustc/50a0defd5a93523067ef239936cc2e0755220904/src/libcore/fmt/mod.rs:316
 150:	900f      	str	r0, [sp, #60]	; 0x3c
 152:	a805      	add	r0, sp, #20
 154:	900e      	str	r0, [sp, #56]	; 0x38
 156:	2000      	movs	r0, #0
 158:	e9cd 000c 	strd	r0, r0, [sp, #48]	; 0x30
 15c:	2003      	movs	r0, #3
 15e:	900b      	str	r0, [sp, #44]	; 0x2c
 160:	f240 0000 	movw	r0, #0
 164:	f2c0 0000 	movt	r0, #0
_ZN5mylib13listen_sensor21start_sensor_listener17hf5d5e887e71c49f0E():
/Users/Luppy/mynewt/stm32bluepill-mynewt-sensor/src/listen_sensor.rs:46
 168:	f2c0 0100 	movt	r1, #0
_ZN4core3fmt9Arguments6new_v117ha99294a9defa432aE():
/rustc/50a0defd5a93523067ef239936cc2e0755220904/src/libcore/fmt/mod.rs:316
 16c:	900a      	str	r0, [sp, #40]	; 0x28
 16e:	a80a      	add	r0, sp, #40	; 0x28
_ZN5mylib13listen_sensor21start_sensor_listener17hf5d5e887e71c49f0E():
/Users/Luppy/mynewt/stm32bluepill-mynewt-sensor/src/listen_sensor.rs:46
 170:	f7ff fffe 	bl	0 <core::panicking::panic_fmt>
 174:	defe      	udf	#254	; 0xfe
/Users/Luppy/mynewt/stm32bluepill-mynewt-sensor/src/listen_sensor.rs:50
    assert!(unsafe{ !is_null_sensor(sensor) });
 176:	f240 0000 	movw	r0, #0
 17a:	f2c0 0000 	movt	r0, #0
 17e:	f7ff fffe 	bl	0 <core::panicking::panic>
 182:	defe      	udf	#254	; 0xfe
_ZN5mylib6mynewt2hw6sensor17register_listener17h35dc70309938eda8E():
/Users/Luppy/mynewt/stm32bluepill-mynewt-sensor/src/mynewt/hw/sensor.rs:66
    unsafe { assert!(LISTENER_INTERNAL.sl_sensor_type == 0) };  //  Make sure it's not used.
 184:	f240 0000 	movw	r0, #0
 188:	f2c0 0000 	movt	r0, #0
 18c:	f7ff fffe 	bl	0 <core::panicking::panic>
 190:	defe      	udf	#254	; 0xfe

Disassembly of section .text.rust_begin_unwind:

00000000 <rust_begin_unwind>:
rust_begin_unwind():
/Users/Luppy/mynewt/stm32bluepill-mynewt-sensor/src/lib.rs:63

///  This function is called on panic, like an assertion failure. We display the filename and line number and pause in the debugger. From https://os.phil-opp.com/freestanding-rust-binary/
#[panic_handler]
fn panic(info: &PanicInfo) -> ! {
    //  Display the filename and line number to the Semihosting Console.
    if let Some(location) = info.location() {
   0:	f7ff fffe 	bl	0 <core::panic::PanicInfo::location>
   4:	b338      	cbz	r0, 56 <rust_begin_unwind+0x56>
   6:	4604      	mov	r4, r0
/Users/Luppy/mynewt/stm32bluepill-mynewt-sensor/src/lib.rs:64
        let file = location.file();
   8:	f7ff fffe 	bl	0 <core::panic::Location::file>
   c:	4605      	mov	r5, r0
/Users/Luppy/mynewt/stm32bluepill-mynewt-sensor/src/lib.rs:65
        let line = location.line();
   e:	4620      	mov	r0, r4
/Users/Luppy/mynewt/stm32bluepill-mynewt-sensor/src/lib.rs:64
        let file = location.file();
  10:	460e      	mov	r6, r1
/Users/Luppy/mynewt/stm32bluepill-mynewt-sensor/src/lib.rs:65
        let line = location.line();
  12:	f7ff fffe 	bl	0 <core::panic::Location::line>
  16:	4604      	mov	r4, r0
_ZN5mylib4base13console_print17hee1ead095790f478E():
/Users/Luppy/mynewt/stm32bluepill-mynewt-sensor/src/base.rs:18
        console_buffer(msg.as_ptr(), len as u32);
  18:	f240 0000 	movw	r0, #0
  1c:	f2c0 0000 	movt	r0, #0
  20:	2109      	movs	r1, #9
  22:	f7ff fffe 	bl	0 <console_buffer>
/Users/Luppy/mynewt/stm32bluepill-mynewt-sensor/src/base.rs:19
        console_flush();  //  TODO: Remove this.
  26:	f7ff fffe 	bl	0 <console_flush>
rust_begin_unwind():
/Users/Luppy/mynewt/stm32bluepill-mynewt-sensor/src/lib.rs:67
        console_print(b"panic at ");
        unsafe { console_buffer(file.as_ptr(), file.len() as u32) }
  2a:	4628      	mov	r0, r5
  2c:	4631      	mov	r1, r6
  2e:	f7ff fffe 	bl	0 <console_buffer>
_ZN5mylib4base13console_print17hee1ead095790f478E():
/Users/Luppy/mynewt/stm32bluepill-mynewt-sensor/src/base.rs:18
        console_buffer(msg.as_ptr(), len as u32);
  32:	f240 0000 	movw	r0, #0
  36:	2108      	movs	r1, #8
  38:	f2c0 0000 	movt	r0, #0
  3c:	f7ff fffe 	bl	0 <console_buffer>
/Users/Luppy/mynewt/stm32bluepill-mynewt-sensor/src/base.rs:19
        console_flush();  //  TODO: Remove this.
  40:	f7ff fffe 	bl	0 <console_flush>
rust_begin_unwind():
/Users/Luppy/mynewt/stm32bluepill-mynewt-sensor/src/lib.rs:69
        console_print(b" line 0x");
        unsafe { console_printhex(line as u8) }  //  TODO: Print in decimal not hex. Allow more than 255 lines.
  44:	b2e0      	uxtb	r0, r4
  46:	f7ff fffe 	bl	0 <console_printhex>
_ZN5mylib4base13console_print17hee1ead095790f478E():
/Users/Luppy/mynewt/stm32bluepill-mynewt-sensor/src/base.rs:18
        console_buffer(msg.as_ptr(), len as u32);
  4a:	f240 0000 	movw	r0, #0
  4e:	2101      	movs	r1, #1
  50:	f2c0 0000 	movt	r0, #0
  54:	e004      	b.n	c <rust_begin_unwind+0xc>
  56:	f240 0000 	movw	r0, #0
  5a:	2112      	movs	r1, #18
  5c:	f2c0 0000 	movt	r0, #0
rust_begin_unwind():
  60:	f7ff fffe 	bl	0 <console_buffer>
  64:	f7ff fffe 	bl	0 <console_flush>
  68:	f7ff fffe 	bl	0 <console_flush>
_ZN8cortex_m3asm4bkpt17h756c5667fd4cf09cE():
/Users/Luppy/.cargo/registry/src/github.com-1ecc6299db9ec823/cortex-m-0.6.0/src/asm.rs:19
        () => unsafe {
            extern "C" {
                fn __bkpt();
            }

            __bkpt();
  6c:	f7ff fffe 	bl	0 <__bkpt>
rust_begin_unwind():
/Users/Luppy/mynewt/stm32bluepill-mynewt-sensor/src/lib.rs:79
        unsafe { console_flush() }
    }
    //  Pause in the debugger.
    bkpt();
    //  Loop forever so that device won't restart.
    loop {}
  70:	e7fe      	b.n	70 <rust_begin_unwind+0x70>

Disassembly of section .text._ZN71_$LT$mylib..mynewt..result..MynewtError$u20$as$u20$core..fmt..Debug$GT$3fmt17h7a245a7741a3c626E:

00000000 <<mylib::mynewt::result::MynewtError as core::fmt::Debug>::fmt>:
_ZN71_$LT$mylib..mynewt..result..MynewtError$u20$as$u20$core..fmt..Debug$GT$3fmt17h7a245a7741a3c626E():
/Users/Luppy/mynewt/stm32bluepill-mynewt-sensor/src/mynewt.rs:30
    #[derive(Debug, PartialEq)]
   0:	b510      	push	{r4, lr}
   2:	b084      	sub	sp, #16
   4:	6802      	ldr	r2, [r0, #0]
   6:	f102 000f 	add.w	r0, r2, #15
   a:	280e      	cmp	r0, #14
   c:	d80f      	bhi.n	2e <<mylib::mynewt::result::MynewtError as core::fmt::Debug>::fmt+0x2e>
   e:	e8df f000 	tbb	[pc, r0]
  12:	1908      	.short	0x1908
  14:	352f2721 	.word	0x352f2721
  18:	4f49413b 	.word	0x4f49413b
  1c:	69615b55 	.word	0x69615b55
  20:	006f      	.short	0x006f
  22:	f240 0200 	movw	r2, #0
  26:	ac01      	add	r4, sp, #4
  28:	f2c0 0200 	movt	r2, #0
  2c:	e037      	b.n	9e <<mylib::mynewt::result::MynewtError as core::fmt::Debug>::fmt+0x9e>
  2e:	2001      	movs	r0, #1
  30:	ac01      	add	r4, sp, #4
  32:	f6cf 70ff 	movt	r0, #65535	; 0xffff
  36:	4282      	cmp	r2, r0
  38:	d162      	bne.n	100 <<mylib::mynewt::result::MynewtError as core::fmt::Debug>::fmt+0x100>
  3a:	f240 0200 	movw	r2, #0
  3e:	f2c0 0200 	movt	r2, #0
  42:	e04c      	b.n	de <<mylib::mynewt::result::MynewtError as core::fmt::Debug>::fmt+0xde>
  44:	ac01      	add	r4, sp, #4
  46:	f240 0200 	movw	r2, #0
  4a:	f2c0 0200 	movt	r2, #0
  4e:	230d      	movs	r3, #13
  50:	4620      	mov	r0, r4
  52:	e05b      	b.n	10c <<mylib::mynewt::result::MynewtError as core::fmt::Debug>::fmt+0x10c>
  54:	f240 0200 	movw	r2, #0
  58:	ac01      	add	r4, sp, #4
  5a:	f2c0 0200 	movt	r2, #0
  5e:	e03e      	b.n	de <<mylib::mynewt::result::MynewtError as core::fmt::Debug>::fmt+0xde>
  60:	ac01      	add	r4, sp, #4
  62:	f240 0200 	movw	r2, #0
  66:	f2c0 0200 	movt	r2, #0
  6a:	230b      	movs	r3, #11
  6c:	4620      	mov	r0, r4
  6e:	e04d      	b.n	10c <<mylib::mynewt::result::MynewtError as core::fmt::Debug>::fmt+0x10c>
  70:	f240 0200 	movw	r2, #0
  74:	ac01      	add	r4, sp, #4
  76:	f2c0 0200 	movt	r2, #0
  7a:	e030      	b.n	64 <<mylib::mynewt::result::MynewtError as core::fmt::Debug>::fmt+0x64>
  7c:	f240 0200 	movw	r2, #0
  80:	ac01      	add	r4, sp, #4
  82:	f2c0 0200 	movt	r2, #0
  86:	e038      	b.n	74 <<mylib::mynewt::result::MynewtError as core::fmt::Debug>::fmt+0x74>
  88:	f240 0200 	movw	r2, #0
  8c:	ac01      	add	r4, sp, #4
  8e:	f2c0 0200 	movt	r2, #0
  92:	e032      	b.n	68 <<mylib::mynewt::result::MynewtError as core::fmt::Debug>::fmt+0x68>
  94:	f240 0200 	movw	r2, #0
  98:	ac01      	add	r4, sp, #4
  9a:	f2c0 0200 	movt	r2, #0
  9e:	4620      	mov	r0, r4
  a0:	2309      	movs	r3, #9
  a2:	e033      	b.n	10c <<mylib::mynewt::result::MynewtError as core::fmt::Debug>::fmt+0x10c>
  a4:	f240 0200 	movw	r2, #0
  a8:	ac01      	add	r4, sp, #4
  aa:	f2c0 0200 	movt	r2, #0
  ae:	e024      	b.n	4c <<mylib::mynewt::result::MynewtError as core::fmt::Debug>::fmt+0x4c>
  b0:	f240 0200 	movw	r2, #0
  b4:	ac01      	add	r4, sp, #4
  b6:	f2c0 0200 	movt	r2, #0
  ba:	e01e      	b.n	40 <<mylib::mynewt::result::MynewtError as core::fmt::Debug>::fmt+0x40>
  bc:	f240 0200 	movw	r2, #0
  c0:	ac01      	add	r4, sp, #4
  c2:	f2c0 0200 	movt	r2, #0
  c6:	e01f      	b.n	42 <<mylib::mynewt::result::MynewtError as core::fmt::Debug>::fmt+0x42>
  c8:	f240 0200 	movw	r2, #0
  cc:	ac01      	add	r4, sp, #4
  ce:	f2c0 0200 	movt	r2, #0
  d2:	e012      	b.n	28 <<mylib::mynewt::result::MynewtError as core::fmt::Debug>::fmt+0x28>
  d4:	f240 0200 	movw	r2, #0
  d8:	ac01      	add	r4, sp, #4
  da:	f2c0 0200 	movt	r2, #0
  de:	4620      	mov	r0, r4
  e0:	230c      	movs	r3, #12
  e2:	e013      	b.n	10c <<mylib::mynewt::result::MynewtError as core::fmt::Debug>::fmt+0x10c>
  e4:	f240 0200 	movw	r2, #0
  e8:	ac01      	add	r4, sp, #4
  ea:	f2c0 0200 	movt	r2, #0
  ee:	e004      	b.n	c <<mylib::mynewt::result::MynewtError as core::fmt::Debug>::fmt+0xc>
  f0:	f240 0200 	movw	r2, #0
  f4:	ac01      	add	r4, sp, #4
  f6:	f2c0 0200 	movt	r2, #0
  fa:	4620      	mov	r0, r4
  fc:	230a      	movs	r3, #10
  fe:	e005      	b.n	10c <<mylib::mynewt::result::MynewtError as core::fmt::Debug>::fmt+0x10c>
 100:	f240 0200 	movw	r2, #0
 104:	f2c0 0200 	movt	r2, #0
 108:	4620      	mov	r0, r4
 10a:	2307      	movs	r3, #7
 10c:	f7ff fffe 	bl	0 <core::fmt::Formatter::debug_tuple>
 110:	4620      	mov	r0, r4
 112:	f7ff fffe 	bl	0 <core::fmt::builders::DebugTuple::finish>
 116:	b004      	add	sp, #16
 118:	bd10      	pop	{r4, pc}
arm-none-eabi-objdump: rust.metadata.bin: File format not recognized
arm-none-eabi-objdump: mylib-0948c04052cf796a.mylib.6fgjgbzt-cgu.0.rcgu.bc.z: File format not recognized
