In archive target/thumbv7m-none-eabi/debug/libmylib.rlib:

mylib-ac95891f38e7979c.1b7do7e5i4j0exrn.rcgu.o:     file format elf32-littlearm

SYMBOL TABLE:
00000000 l    df *ABS*	00000000 1b7do7e5i4j0exrn
00000000 l       .debug_str	00000000 
00000041 l       .debug_str	00000000 
0000004c l       .debug_str	00000000 
0000006f l       .debug_str	00000000 
00000075 l       .debug_str	00000000 
0000007f l       .debug_str	00000000 
0000008c l       .debug_str	00000000 
00000093 l       .debug_str	00000000 
00000096 l       .debug_str	00000000 
000000a1 l       .debug_str	00000000 
000000a5 l       .debug_str	00000000 
000000ae l       .debug_str	00000000 
000000b9 l       .debug_str	00000000 
000000c5 l       .debug_str	00000000 
000000c9 l       .debug_str	00000000 
000000d2 l       .debug_str	00000000 
000000d5 l       .debug_str	00000000 
000000dc l       .debug_str	00000000 
000000e4 l       .debug_str	00000000 
000000ec l       .debug_str	00000000 
000000f6 l       .debug_str	00000000 
000000fc l       .debug_str	00000000 
00000103 l       .debug_str	00000000 
0000010d l       .debug_str	00000000 
00000114 l       .debug_str	00000000 
00000119 l       .debug_str	00000000 
00000120 l       .debug_str	00000000 
00000125 l       .debug_str	00000000 
00000129 l       .debug_str	00000000 
00000134 l       .debug_str	00000000 
0000013f l       .debug_str	00000000 
00000146 l       .debug_str	00000000 
0000015d l       .debug_str	00000000 
0000018a l       .debug_str	00000000 
0000018c l       .debug_str	00000000 
00000191 l       .debug_str	00000000 
00000195 l       .debug_str	00000000 
000001ca l       .debug_str	00000000 
000001d0 l       .debug_str	00000000 
000001d6 l       .debug_str	00000000 
000001e5 l       .debug_str	00000000 
000001f5 l       .debug_str	00000000 
00000205 l       .debug_str	00000000 
0000020d l       .debug_str	00000000 
00000211 l       .debug_str	00000000 
00000239 l       .debug_str	00000000 
00000296 l       .debug_str	00000000 
000002fb l       .debug_str	00000000 
00000302 l       .debug_str	00000000 
0000030a l       .debug_str	00000000 
00000313 l       .debug_str	00000000 
00000331 l       .debug_str	00000000 
00000341 l       .debug_str	00000000 
0000034f l       .debug_str	00000000 
0000035a l       .debug_str	00000000 
00000367 l       .debug_str	00000000 
00000376 l       .debug_str	00000000 
00000380 l       .debug_str	00000000 
000003a0 l       .debug_str	00000000 
000003b6 l       .debug_str	00000000 
000003c0 l       .debug_str	00000000 
000003c9 l       .debug_str	00000000 
000003d2 l       .debug_str	00000000 
000003f7 l       .debug_str	00000000 
0000040d l       .debug_str	00000000 
00000418 l       .debug_str	00000000 
0000042e l       .debug_str	00000000 
00000436 l       .debug_str	00000000 
0000046c l       .debug_str	00000000 
0000047f l       .debug_str	00000000 
00000493 l       .debug_str	00000000 
000004cf l       .debug_str	00000000 
000004e0 l       .debug_str	00000000 
000004e5 l       .debug_str	00000000 
0000051f l       .debug_str	00000000 
0000055b l       .debug_str	00000000 
0000056e l       .debug_str	00000000 
00000575 l       .debug_str	00000000 
00000578 l       .debug_str	00000000 
0000057b l       .debug_str	00000000 
0000057d l       .debug_str	00000000 
00000581 l       .debug_str	00000000 
00000591 l       .debug_str	00000000 
000005cc l       .debug_str	00000000 
000005de l       .debug_str	00000000 
00000618 l       .debug_str	00000000 
00000629 l       .debug_str	00000000 
0000066d l       .debug_str	00000000 
00000688 l       .debug_str	00000000 
000006cf l       .debug_str	00000000 
000006ed l       .debug_str	00000000 
000006f0 l       .debug_str	00000000 
000006f9 l       .debug_str	00000000 
000006fe l       .debug_str	00000000 
00000708 l       .debug_str	00000000 
0000070d l       .debug_str	00000000 
00000713 l       .debug_str	00000000 
00000718 l       .debug_str	00000000 
0000071d l       .debug_str	00000000 
00000728 l       .debug_str	00000000 
0000072d l       .debug_str	00000000 
00000731 l       .debug_str	00000000 
0000073a l       .debug_str	00000000 
00000741 l       .debug_str	00000000 
00000747 l       .debug_str	00000000 
0000074c l       .debug_str	00000000 
00000750 l       .debug_str	00000000 
00000755 l       .debug_str	00000000 
0000075b l       .debug_str	00000000 
0000075f l       .debug_str	00000000 
0000076f l       .debug_str	00000000 
0000077b l       .debug_str	00000000 
00000795 l       .debug_str	00000000 
000007a1 l       .debug_str	00000000 
000007ab l       .debug_str	00000000 
000007b1 l       .debug_str	00000000 
000007b6 l       .debug_str	00000000 
000007c7 l       .debug_str	00000000 
000007d6 l       .debug_str	00000000 
000007df l       .debug_str	00000000 
000007e7 l       .debug_str	00000000 
000007f1 l       .debug_str	00000000 
000007fe l       .debug_str	00000000 
00000806 l       .debug_str	00000000 
0000080a l       .debug_str	00000000 
0000080f l       .debug_str	00000000 
00000819 l       .debug_str	00000000 
00000824 l       .debug_str	00000000 
00000830 l       .debug_str	00000000 
00000839 l       .debug_str	00000000 
00000000 l     O .rodata..Lanon.b35cb14c59c8833032407cee1d6d75cf.0	00000013 .Lanon.b35cb14c59c8833032407cee1d6d75cf.0
00000000 l     O .rodata.cst8	00000008 .Lanon.b35cb14c59c8833032407cee1d6d75cf.1
00000000 l     O .rodata..Lanon.b35cb14c59c8833032407cee1d6d75cf.11	00000018 .Lanon.b35cb14c59c8833032407cee1d6d75cf.11
00000000 l     O .rodata..Lanon.b35cb14c59c8833032407cee1d6d75cf.12	00000010 .Lanon.b35cb14c59c8833032407cee1d6d75cf.12
00000000 l     O .rodata..Lanon.b35cb14c59c8833032407cee1d6d75cf.13	00000010 .Lanon.b35cb14c59c8833032407cee1d6d75cf.13
00000000 l     O .rodata..Lanon.b35cb14c59c8833032407cee1d6d75cf.14	00000011 .Lanon.b35cb14c59c8833032407cee1d6d75cf.14
00000000 l     O .rodata..Lanon.b35cb14c59c8833032407cee1d6d75cf.15	00000018 .Lanon.b35cb14c59c8833032407cee1d6d75cf.15
00000000 l     O .rodata..Lanon.b35cb14c59c8833032407cee1d6d75cf.16	00000011 .Lanon.b35cb14c59c8833032407cee1d6d75cf.16
00000000 l     O .rodata..Lanon.b35cb14c59c8833032407cee1d6d75cf.17	00000001 .Lanon.b35cb14c59c8833032407cee1d6d75cf.17
00000000 l     O .rodata..Lanon.b35cb14c59c8833032407cee1d6d75cf.18	00000010 .Lanon.b35cb14c59c8833032407cee1d6d75cf.18
00000000 l     O .rodata.cst4	00000004 .Lanon.b35cb14c59c8833032407cee1d6d75cf.2
00000000 l     O .rodata..Lanon.b35cb14c59c8833032407cee1d6d75cf.20	00000018 .Lanon.b35cb14c59c8833032407cee1d6d75cf.20
00000000 l     O .rodata..Lanon.b35cb14c59c8833032407cee1d6d75cf.21	00000010 .Lanon.b35cb14c59c8833032407cee1d6d75cf.21
00000000 l     O .rodata..Lanon.b35cb14c59c8833032407cee1d6d75cf.22	00000010 .Lanon.b35cb14c59c8833032407cee1d6d75cf.22
00000000 l     O .rodata..Lanon.b35cb14c59c8833032407cee1d6d75cf.24	00000018 .Lanon.b35cb14c59c8833032407cee1d6d75cf.24
00000000 l     O .rodata..Lanon.b35cb14c59c8833032407cee1d6d75cf.25	00000018 .Lanon.b35cb14c59c8833032407cee1d6d75cf.25
00000000 l     O .rodata..Lanon.b35cb14c59c8833032407cee1d6d75cf.26	0000004b .Lanon.b35cb14c59c8833032407cee1d6d75cf.26
00000000 l     O .rodata..Lanon.b35cb14c59c8833032407cee1d6d75cf.27	00000018 .Lanon.b35cb14c59c8833032407cee1d6d75cf.27
00000004 l     O .rodata.cst4	00000004 .Lanon.b35cb14c59c8833032407cee1d6d75cf.29
00000000 l     O .rodata..Lanon.b35cb14c59c8833032407cee1d6d75cf.46	00000018 .Lanon.b35cb14c59c8833032407cee1d6d75cf.46
00000000 l     O .rodata..Lanon.b35cb14c59c8833032407cee1d6d75cf.47	00000021 .Lanon.b35cb14c59c8833032407cee1d6d75cf.47
00000000 l     O .rodata..Lanon.b35cb14c59c8833032407cee1d6d75cf.6	00000018 .Lanon.b35cb14c59c8833032407cee1d6d75cf.6
00000000 l     O .rodata.cst16	00000010 .Lanon.b35cb14c59c8833032407cee1d6d75cf.7
00000000 l     O .rodata..Lanon.b35cb14c59c8833032407cee1d6d75cf.8	00000010 .Lanon.b35cb14c59c8833032407cee1d6d75cf.8
00000000 l     O .rodata..Lanon.b35cb14c59c8833032407cee1d6d75cf.9	0000000a .Lanon.b35cb14c59c8833032407cee1d6d75cf.9
00000000 l     O .bss._ZN5mylib9send_coap12network_task17h0b8e338a12db1cdbE	00000050 _ZN5mylib9send_coap12network_task17h0b8e338a12db1cdbE
00000000 l     O .bss._ZN5mylib9send_coap16NETWORK_IS_READY17hd5f4779bc1ae0f1fE	00000001 _ZN5mylib9send_coap16NETWORK_IS_READY17hd5f4779bc1ae0f1fE
00000000 l     F .text._ZN5mylib9send_coap17network_task_func17h008f672c6f393e1dE	00000250 _ZN5mylib9send_coap17network_task_func17h008f672c6f393e1dE
00000000 l     O .bss._ZN5mylib9send_coap18NETWORK_TASK_STACK17h1ff48088257b8937E	00000400 _ZN5mylib9send_coap18NETWORK_TASK_STACK17h1ff48088257b8937E
00000000 l     F .text._ZN5mylib9send_coap26send_sensor_data_to_server17h0ee163faf4e6461fE	00000210 _ZN5mylib9send_coap26send_sensor_data_to_server17h0ee163faf4e6461fE
00000000 l     F .text._ZN5mylib9send_coap29send_sensor_data_to_collector17h2775c8d6cc261bd7E	00000134 _ZN5mylib9send_coap29send_sensor_data_to_collector17h2775c8d6cc261bd7E
00000000 l     O .rodata.str.0	00000010 str.0
00000000 l     O .rodata.str.1	00000021 str.1
00000000 l    d  .text._ZN5mylib9send_coap18start_network_task17hca6051abf27965cbE	00000000 .text._ZN5mylib9send_coap18start_network_task17hca6051abf27965cbE
00000000 l    d  .text._ZN5mylib9send_coap17network_task_func17h008f672c6f393e1dE	00000000 .text._ZN5mylib9send_coap17network_task_func17h008f672c6f393e1dE
00000000 l    d  .text._ZN5mylib9send_coap16send_sensor_data17h610afad13e46ff09E	00000000 .text._ZN5mylib9send_coap16send_sensor_data17h610afad13e46ff09E
00000000 l    d  .text._ZN5mylib9send_coap26send_sensor_data_to_server17h0ee163faf4e6461fE	00000000 .text._ZN5mylib9send_coap26send_sensor_data_to_server17h0ee163faf4e6461fE
00000000 l    d  .text._ZN5mylib9send_coap29send_sensor_data_to_collector17h2775c8d6cc261bd7E	00000000 .text._ZN5mylib9send_coap29send_sensor_data_to_collector17h2775c8d6cc261bd7E
00000000 l    d  .bss._ZN5mylib9send_coap12network_task17h0b8e338a12db1cdbE	00000000 .bss._ZN5mylib9send_coap12network_task17h0b8e338a12db1cdbE
00000000 l    d  .bss._ZN5mylib9send_coap18NETWORK_TASK_STACK17h1ff48088257b8937E	00000000 .bss._ZN5mylib9send_coap18NETWORK_TASK_STACK17h1ff48088257b8937E
00000000 l    d  .bss._ZN5mylib9send_coap16NETWORK_IS_READY17hd5f4779bc1ae0f1fE	00000000 .bss._ZN5mylib9send_coap16NETWORK_IS_READY17hd5f4779bc1ae0f1fE
00000000 l    d  .rodata..Lanon.b35cb14c59c8833032407cee1d6d75cf.3	00000000 .rodata..Lanon.b35cb14c59c8833032407cee1d6d75cf.3
00000000 l    d  .rodata..Lanon.b35cb14c59c8833032407cee1d6d75cf.4	00000000 .rodata..Lanon.b35cb14c59c8833032407cee1d6d75cf.4
00000000 l    d  .rodata..Lanon.b35cb14c59c8833032407cee1d6d75cf.5	00000000 .rodata..Lanon.b35cb14c59c8833032407cee1d6d75cf.5
00000000 l    d  .rodata..Lanon.b35cb14c59c8833032407cee1d6d75cf.10	00000000 .rodata..Lanon.b35cb14c59c8833032407cee1d6d75cf.10
00000000 l    d  .rodata.str.0	00000000 .rodata.str.0
00000000 l    d  .rodata.str.1	00000000 .rodata.str.1
00000000 l    d  .rodata..Lanon.b35cb14c59c8833032407cee1d6d75cf.19	00000000 .rodata..Lanon.b35cb14c59c8833032407cee1d6d75cf.19
00000000 l    d  .rodata..Lanon.b35cb14c59c8833032407cee1d6d75cf.23	00000000 .rodata..Lanon.b35cb14c59c8833032407cee1d6d75cf.23
00000000 l    d  .debug_abbrev	00000000 .debug_abbrev
00000000 l    d  .debug_info	00000000 .debug_info
00000000 l    d  .debug_ranges	00000000 .debug_ranges
00000000 l    d  .debug_frame	00000000 .debug_frame
00000000 l    d  .debug_line	00000000 .debug_line
00000000         *UND*	00000000 _ZN42_$LT$$RF$T$u20$as$u20$core..fmt..Debug$GT$3fmt17h0aaf8bc5a80c634eE
00000000         *UND*	00000000 _ZN42_$LT$$RF$T$u20$as$u20$core..fmt..Debug$GT$3fmt17h6b54cd33c0767134E
00000000         *UND*	00000000 _ZN42_$LT$$RF$T$u20$as$u20$core..fmt..Debug$GT$3fmt17h6e7c3bfec75bb04cE
00000000         *UND*	00000000 _ZN4core3fmt10ArgumentV13new17h17eece399e82c5f4E
00000000         *UND*	00000000 _ZN4core3fmt10ArgumentV13new17h26e8f734fca6286bE
00000000         *UND*	00000000 _ZN4core3fmt10ArgumentV13new17h99468556cb7f6d86E
00000000         *UND*	00000000 .hidden _ZN4core3fmt9Arguments6new_v117h0330c13173882f69E
00000000         *UND*	00000000 .hidden _ZN4core3str21_$LT$impl$u20$str$GT$3len17ha2e0db4a9f502071E
00000000         *UND*	00000000 .hidden _ZN4core3str21_$LT$impl$u20$str$GT$6as_ptr17hca80eebebc99ccd9E
00000000         *UND*	00000000 _ZN4core5slice29_$LT$impl$u20$$u5b$T$u5d$$GT$6as_ptr17h6e6820e87d479c61E
00000000         *UND*	00000000 _ZN4core5slice29_$LT$impl$u20$$u5b$T$u5d$$GT$6as_ptr17h7ab41fd71c3f64d3E
00000000         *UND*	00000000 _ZN4core9panicking18panic_bounds_check17h946762cd0671aec9E
00000000         *UND*	00000000 _ZN4core9panicking5panic17h53ca63c6ac6312f8E
00000000         *UND*	00000000 _ZN4core9panicking9panic_fmt17h6b4d8e87b0965449E
00000000         *UND*	00000000 .hidden _ZN5mylib4base13console_print17h47a7ec4e529b3d82E
00000000 g     F .text._ZN5mylib9send_coap16send_sensor_data17h610afad13e46ff09E	00000092 .hidden _ZN5mylib9send_coap16send_sensor_data17h610afad13e46ff09E
00000000 g     F .text._ZN5mylib9send_coap18start_network_task17hca6051abf27965cbE	0000011e .hidden _ZN5mylib9send_coap18start_network_task17hca6051abf27965cbE
00000000         *UND*	00000000 .hidden _ZN9cstr_core4CStr6as_ptr17he24d76f5592466e4E
00000000         *UND*	00000000 .hidden _ZN9cstr_core4CStr8to_bytes17h69a4c26bfbbcb548E
00000000         *UND*	00000000 cbor_encode_int
00000000         *UND*	00000000 cbor_encode_text_string
00000000         *UND*	00000000 cbor_encoder_close_container
00000000         *UND*	00000000 cbor_encoder_create_map
00000000         *UND*	00000000 do_collector_post
00000000         *UND*	00000000 do_server_post
00000000         *UND*	00000000 g_encoder
00000000         *UND*	00000000 get_device_id
00000000         *UND*	00000000 init_collector_post
00000000         *UND*	00000000 init_server_post
00000000         *UND*	00000000 is_collector_node
00000000         *UND*	00000000 is_sensor_node
00000000         *UND*	00000000 is_standalone_node
00000000         *UND*	00000000 os_task_init
00000000         *UND*	00000000 os_time_delay
00000000         *UND*	00000000 register_collector_transport
00000000         *UND*	00000000 register_server_transport
00000000         *UND*	00000000 root_map
00000000         *UND*	00000000 should_send_to_collector



Disassembly of section .text._ZN5mylib9send_coap18start_network_task17hca6051abf27965cbE:

00000000 <_ZN5mylib9send_coap18start_network_task17hca6051abf27965cbE>:
_ZN5mylib9send_coap18start_network_task17hca6051abf27965cbE():
/mnt/c/stm32bluepill-mynewt-sensor/src/send_coap.rs:65

///  Start the Network Task in the background.  The Network Task prepares the network drivers
///  (ESP8266 and nRF24L01) for transmitting sensor data messages.  
///  Connecting the ESP8266 to the WiFi access point may be slow so we do this in the background.
///  Also perform WiFi Geolocation if it is enabled.  Return 0 if successful.
pub fn start_network_task() -> Result<(), i32>  {  //  Returns an error code upon error.
   0:	b580      	push	{r7, lr}
   2:	b0a4      	sub	sp, #144	; 0x90
/mnt/c/stm32bluepill-mynewt-sensor/src/send_coap.rs:67
//  pub fn start_network_task() -> i32  {
  console_print(b"start_network_task\n");
   4:	f240 0000 	movw	r0, #0
   8:	f2c0 0000 	movt	r0, #0
   c:	2113      	movs	r1, #19
   e:	f7ff fffe 	bl	0 <_ZN5mylib4base13console_print17h47a7ec4e529b3d82E>
  12:	e7ff      	b.n	2 <_ZN5mylib9send_coap18start_network_task17hca6051abf27965cbE+0x2>
/mnt/c/stm32bluepill-mynewt-sensor/src/send_coap.rs:70
  let rc = unsafe { os_task_init( //  Create a new task and start it...
	&mut network_task,            //  Task object will be saved here.
	b"network\0".as_ptr(),        //  Name of task.
  14:	f240 0000 	movw	r0, #0
  18:	f2c0 0000 	movt	r0, #0
  1c:	2108      	movs	r1, #8
  1e:	f7ff fffe 	bl	0 <_ZN4core5slice29_$LT$impl$u20$$u5b$T$u5d$$GT$6as_ptr17h6e6820e87d479c61E>
  22:	900a      	str	r0, [sp, #40]	; 0x28
  24:	e7ff      	b.n	26 <_ZN5mylib9send_coap18start_network_task17hca6051abf27965cbE+0x26>
/mnt/c/stm32bluepill-mynewt-sensor/src/send_coap.rs:71
	Some(network_task_func),      //  Function to execute when task starts.
  26:	f240 0000 	movw	r0, #0
  2a:	f2c0 0000 	movt	r0, #0
  2e:	900e      	str	r0, [sp, #56]	; 0x38
/mnt/c/stm32bluepill-mynewt-sensor/src/send_coap.rs:75
	0 as *mut ::cty::c_void,      //  Argument to be passed to above function.
	10,  //  Task priority: highest is 0, lowest is 255.  Main task is 127.
	OS_WAIT_FOREVER as u32,       //  Don't do sanity / watchdog checking.
	NETWORK_TASK_STACK.as_ptr() as *mut os_stack_t,  //  Stack space for the task.
  30:	f240 0000 	movw	r0, #0
  34:	f2c0 0000 	movt	r0, #0
  38:	f44f 7180 	mov.w	r1, #256	; 0x100
  3c:	f7ff fffe 	bl	0 <_ZN4core5slice29_$LT$impl$u20$$u5b$T$u5d$$GT$6as_ptr17h7ab41fd71c3f64d3E>
  40:	9009      	str	r0, [sp, #36]	; 0x24
  42:	e7ff      	b.n	44 <_ZN5mylib9send_coap18start_network_task17hca6051abf27965cbE+0x44>
/mnt/c/stm32bluepill-mynewt-sensor/src/send_coap.rs:68
  let rc = unsafe { os_task_init( //  Create a new task and start it...
  44:	9a0e      	ldr	r2, [sp, #56]	; 0x38
  46:	4668      	mov	r0, sp
  48:	f44f 7180 	mov.w	r1, #256	; 0x100
  4c:	60c1      	str	r1, [r0, #12]
  4e:	9909      	ldr	r1, [sp, #36]	; 0x24
  50:	6081      	str	r1, [r0, #8]
  52:	f04f 33ff 	mov.w	r3, #4294967295	; 0xffffffff
  56:	6043      	str	r3, [r0, #4]
  58:	230a      	movs	r3, #10
  5a:	6003      	str	r3, [r0, #0]
  5c:	f240 0000 	movw	r0, #0
  60:	f2c0 0000 	movt	r0, #0
  64:	2300      	movs	r3, #0
  66:	990a      	ldr	r1, [sp, #40]	; 0x28
  68:	f7ff fffe 	bl	0 <os_task_init>
  6c:	900d      	str	r0, [sp, #52]	; 0x34
  6e:	e7ff      	b.n	70 <_ZN5mylib9send_coap18start_network_task17hca6051abf27965cbE+0x70>
  70:	a80d      	add	r0, sp, #52	; 0x34
/mnt/c/stm32bluepill-mynewt-sensor/src/send_coap.rs:77
	NETWORK_TASK_STACK_SIZE as u16) };  //  Size of the stack (in 4-byte units).
  assert_eq!(rc, 0);
  72:	900f      	str	r0, [sp, #60]	; 0x3c
  74:	f240 0000 	movw	r0, #0
  78:	f2c0 0000 	movt	r0, #0
  7c:	9010      	str	r0, [sp, #64]	; 0x40
  7e:	980f      	ldr	r0, [sp, #60]	; 0x3c
  80:	9011      	str	r0, [sp, #68]	; 0x44
  82:	9810      	ldr	r0, [sp, #64]	; 0x40
  84:	9012      	str	r0, [sp, #72]	; 0x48
  86:	9811      	ldr	r0, [sp, #68]	; 0x44
  88:	6800      	ldr	r0, [r0, #0]
  8a:	9912      	ldr	r1, [sp, #72]	; 0x48
  8c:	6809      	ldr	r1, [r1, #0]
  8e:	4288      	cmp	r0, r1
  90:	d016      	beq.n	c0 <_ZN5mylib9send_coap18start_network_task17hca6051abf27965cbE+0xc0>
  92:	e7ff      	b.n	94 <_ZN5mylib9send_coap18start_network_task17hca6051abf27965cbE+0x94>
  94:	9811      	ldr	r0, [sp, #68]	; 0x44
  96:	901f      	str	r0, [sp, #124]	; 0x7c
  98:	9812      	ldr	r0, [sp, #72]	; 0x48
  9a:	9020      	str	r0, [sp, #128]	; 0x80
  9c:	a81f      	add	r0, sp, #124	; 0x7c
  9e:	901d      	str	r0, [sp, #116]	; 0x74
  a0:	a820      	add	r0, sp, #128	; 0x80
  a2:	901e      	str	r0, [sp, #120]	; 0x78
  a4:	981d      	ldr	r0, [sp, #116]	; 0x74
  a6:	9021      	str	r0, [sp, #132]	; 0x84
  a8:	981e      	ldr	r0, [sp, #120]	; 0x78
  aa:	9022      	str	r0, [sp, #136]	; 0x88
  ac:	9821      	ldr	r0, [sp, #132]	; 0x84
  ae:	f240 0100 	movw	r1, #0
  b2:	f2c0 0100 	movt	r1, #0
  b6:	f7ff fffe 	bl	0 <_ZN4core3fmt10ArgumentV13new17h26e8f734fca6286bE>
  ba:	9008      	str	r0, [sp, #32]
  bc:	9107      	str	r1, [sp, #28]
  be:	e005      	b.n	cc <_ZN5mylib9send_coap18start_network_task17hca6051abf27965cbE+0xcc>
  c0:	2000      	movs	r0, #0
/mnt/c/stm32bluepill-mynewt-sensor/src/send_coap.rs:78
  Ok(())
  c2:	900b      	str	r0, [sp, #44]	; 0x2c
/mnt/c/stm32bluepill-mynewt-sensor/src/send_coap.rs:80
  //  0
}
  c4:	980b      	ldr	r0, [sp, #44]	; 0x2c
  c6:	990c      	ldr	r1, [sp, #48]	; 0x30
  c8:	b024      	add	sp, #144	; 0x90
  ca:	bd80      	pop	{r7, pc}
/mnt/c/stm32bluepill-mynewt-sensor/src/send_coap.rs:77
  assert_eq!(rc, 0);
  cc:	9822      	ldr	r0, [sp, #136]	; 0x88
  ce:	f240 0100 	movw	r1, #0
  d2:	f2c0 0100 	movt	r1, #0
  d6:	f7ff fffe 	bl	0 <_ZN4core3fmt10ArgumentV13new17h26e8f734fca6286bE>
  da:	9006      	str	r0, [sp, #24]
  dc:	9105      	str	r1, [sp, #20]
  de:	e7ff      	b.n	e0 <_ZN5mylib9send_coap18start_network_task17hca6051abf27965cbE+0xe0>
  e0:	9808      	ldr	r0, [sp, #32]
  e2:	9019      	str	r0, [sp, #100]	; 0x64
  e4:	9907      	ldr	r1, [sp, #28]
  e6:	911a      	str	r1, [sp, #104]	; 0x68
  e8:	9a06      	ldr	r2, [sp, #24]
  ea:	921b      	str	r2, [sp, #108]	; 0x6c
  ec:	9b05      	ldr	r3, [sp, #20]
  ee:	931c      	str	r3, [sp, #112]	; 0x70
  f0:	46ec      	mov	ip, sp
  f2:	f04f 0e02 	mov.w	lr, #2
  f6:	f8cc e000 	str.w	lr, [ip]
  fa:	f240 0100 	movw	r1, #0
  fe:	f2c0 0100 	movt	r1, #0
 102:	a813      	add	r0, sp, #76	; 0x4c
 104:	2203      	movs	r2, #3
 106:	ab19      	add	r3, sp, #100	; 0x64
 108:	f7ff fffe 	bl	0 <_ZN4core3fmt9Arguments6new_v117h0330c13173882f69E>
 10c:	e7ff      	b.n	2 <_ZN5mylib9send_coap18start_network_task17hca6051abf27965cbE+0x2>
 10e:	f240 0100 	movw	r1, #0
 112:	f2c0 0100 	movt	r1, #0
 116:	a813      	add	r0, sp, #76	; 0x4c
 118:	f7ff fffe 	bl	0 <_ZN4core9panicking9panic_fmt17h6b4d8e87b0965449E>
 11c:	defe      	udf	#254	; 0xfe

Disassembly of section .text._ZN5mylib9send_coap17network_task_func17h008f672c6f393e1dE:

00000000 <_ZN5mylib9send_coap17network_task_func17h008f672c6f393e1dE>:
_ZN5mylib9send_coap17network_task_func17h008f672c6f393e1dE():
/mnt/c/stm32bluepill-mynewt-sensor/src/send_coap.rs:89
///  For Collector Node and Standalone Node: We connect the ESP8266 to the WiFi access point. 
///  Connecting the ESP8266 to the WiFi access point may be slow so we do this in the background.
///  Register the ESP8266 driver as the network transport for CoAP Server.  
///  For Collector Node and Sensor Nodes: We register the nRF24L01 driver as the network transport for 
///  CoAP Collector.
extern "C" fn network_task_func(_arg: *mut ::cty::c_void) {
   0:	b580      	push	{r7, lr}
   2:	b0bc      	sub	sp, #240	; 0xf0
   4:	4601      	mov	r1, r0
   6:	900f      	str	r0, [sp, #60]	; 0x3c
/mnt/c/stm32bluepill-mynewt-sensor/src/send_coap.rs:90
	console_print(b"NET start\n");  assert!(unsafe { !NETWORK_IS_READY });
   8:	f240 0000 	movw	r0, #0
   c:	f2c0 0000 	movt	r0, #0
  10:	220a      	movs	r2, #10
  12:	910e      	str	r1, [sp, #56]	; 0x38
  14:	4611      	mov	r1, r2
  16:	f7ff fffe 	bl	0 <_ZN5mylib4base13console_print17h47a7ec4e529b3d82E>
  1a:	e7ff      	b.n	2 <_ZN5mylib9send_coap17network_task_func17h008f672c6f393e1dE+0x2>
  1c:	f240 0000 	movw	r0, #0
  20:	f2c0 0000 	movt	r0, #0
  24:	7800      	ldrb	r0, [r0, #0]
  26:	07c0      	lsls	r0, r0, #31
  28:	2800      	cmp	r0, #0
  2a:	d007      	beq.n	3c <_ZN5mylib9send_coap17network_task_func17h008f672c6f393e1dE+0x3c>
  2c:	e7ff      	b.n	2e <_ZN5mylib9send_coap17network_task_func17h008f672c6f393e1dE+0x2e>
  2e:	f240 0000 	movw	r0, #0
  32:	f2c0 0000 	movt	r0, #0
  36:	f7ff fffe 	bl	0 <_ZN4core9panicking5panic17h53ca63c6ac6312f8E>
  3a:	defe      	udf	#254	; 0xfe
/mnt/c/stm32bluepill-mynewt-sensor/src/send_coap.rs:94

	//  For Standalone Node and Collector Node: Connect ESP8266 to WiFi Access Point and register the ESP8266 driver as the network transport for CoAP Server.
	//  Connecting the ESP8266 to the WiFi access point may be slow so we do this in the background.
	if unsafe { is_standalone_node() } || unsafe { is_collector_node() } {
  3c:	f7ff fffe 	bl	0 <is_standalone_node>
  40:	900d      	str	r0, [sp, #52]	; 0x34
  42:	e00d      	b.n	60 <_ZN5mylib9send_coap17network_task_func17h008f672c6f393e1dE+0x60>
  44:	2001      	movs	r0, #1
  46:	f88d 0043 	strb.w	r0, [sp, #67]	; 0x43
  4a:	e003      	b.n	a <is_collector_node+0xa>
  4c:	f7ff fffe 	bl	0 <is_collector_node>
  50:	900c      	str	r0, [sp, #48]	; 0x30
  52:	e00a      	b.n	6a <_ZN5mylib9send_coap17network_task_func17h008f672c6f393e1dE+0x6a>
  54:	f89d 0043 	ldrb.w	r0, [sp, #67]	; 0x43
  58:	07c0      	lsls	r0, r0, #31
  5a:	2800      	cmp	r0, #0
  5c:	d10b      	bne.n	76 <_ZN5mylib9send_coap17network_task_func17h008f672c6f393e1dE+0x76>
  5e:	e060      	b.n	122 <_ZN5mylib9send_coap17network_task_func17h008f672c6f393e1dE+0x122>
  60:	980d      	ldr	r0, [sp, #52]	; 0x34
  62:	07c1      	lsls	r1, r0, #31
  64:	2900      	cmp	r1, #0
  66:	d1ed      	bne.n	44 <_ZN5mylib9send_coap17network_task_func17h008f672c6f393e1dE+0x44>
  68:	e7f0      	b.n	4c <_ZN5mylib9send_coap17network_task_func17h008f672c6f393e1dE+0x4c>
  6a:	980c      	ldr	r0, [sp, #48]	; 0x30
  6c:	f000 0101 	and.w	r1, r0, #1
  70:	f88d 1043 	strb.w	r1, [sp, #67]	; 0x43
  74:	e7ee      	b.n	ffffffe0 <register_server_transport+0xffffffe0>
/mnt/c/stm32bluepill-mynewt-sensor/src/send_coap.rs:95
		let rc = unsafe { register_server_transport() };  assert_eq!(rc, 0);
  76:	f7ff fffe 	bl	0 <register_server_transport>
  7a:	9011      	str	r0, [sp, #68]	; 0x44
  7c:	e7ff      	b.n	7e <_ZN5mylib9send_coap17network_task_func17h008f672c6f393e1dE+0x7e>
  7e:	a811      	add	r0, sp, #68	; 0x44
  80:	9012      	str	r0, [sp, #72]	; 0x48
  82:	f240 0000 	movw	r0, #0
  86:	f2c0 0000 	movt	r0, #0
  8a:	9013      	str	r0, [sp, #76]	; 0x4c
  8c:	9812      	ldr	r0, [sp, #72]	; 0x48
  8e:	9014      	str	r0, [sp, #80]	; 0x50
  90:	9813      	ldr	r0, [sp, #76]	; 0x4c
  92:	9015      	str	r0, [sp, #84]	; 0x54
  94:	9814      	ldr	r0, [sp, #80]	; 0x50
  96:	6800      	ldr	r0, [r0, #0]
  98:	9915      	ldr	r1, [sp, #84]	; 0x54
  9a:	6809      	ldr	r1, [r1, #0]
  9c:	4288      	cmp	r0, r1
  9e:	d016      	beq.n	ce <_ZN5mylib9send_coap17network_task_func17h008f672c6f393e1dE+0xce>
  a0:	e7ff      	b.n	a2 <_ZN5mylib9send_coap17network_task_func17h008f672c6f393e1dE+0xa2>
  a2:	9814      	ldr	r0, [sp, #80]	; 0x50
  a4:	9022      	str	r0, [sp, #136]	; 0x88
  a6:	9815      	ldr	r0, [sp, #84]	; 0x54
  a8:	9023      	str	r0, [sp, #140]	; 0x8c
  aa:	a822      	add	r0, sp, #136	; 0x88
  ac:	9020      	str	r0, [sp, #128]	; 0x80
  ae:	a823      	add	r0, sp, #140	; 0x8c
  b0:	9021      	str	r0, [sp, #132]	; 0x84
  b2:	9820      	ldr	r0, [sp, #128]	; 0x80
  b4:	9024      	str	r0, [sp, #144]	; 0x90
  b6:	9821      	ldr	r0, [sp, #132]	; 0x84
  b8:	9025      	str	r0, [sp, #148]	; 0x94
  ba:	9824      	ldr	r0, [sp, #144]	; 0x90
  bc:	f240 0100 	movw	r1, #0
  c0:	f2c0 0100 	movt	r1, #0
  c4:	f7ff fffe 	bl	0 <_ZN4core3fmt10ArgumentV13new17h26e8f734fca6286bE>
  c8:	900b      	str	r0, [sp, #44]	; 0x2c
  ca:	910a      	str	r1, [sp, #40]	; 0x28
  cc:	e000      	b.n	d0 <_ZN5mylib9send_coap17network_task_func17h008f672c6f393e1dE+0xd0>
/mnt/c/stm32bluepill-mynewt-sensor/src/send_coap.rs:94
	if unsafe { is_standalone_node() } || unsafe { is_collector_node() } {
  ce:	e028      	b.n	122 <_ZN5mylib9send_coap17network_task_func17h008f672c6f393e1dE+0x122>
/mnt/c/stm32bluepill-mynewt-sensor/src/send_coap.rs:95
		let rc = unsafe { register_server_transport() };  assert_eq!(rc, 0);
  d0:	9825      	ldr	r0, [sp, #148]	; 0x94
  d2:	f240 0100 	movw	r1, #0
  d6:	f2c0 0100 	movt	r1, #0
  da:	f7ff fffe 	bl	0 <_ZN4core3fmt10ArgumentV13new17h26e8f734fca6286bE>
  de:	9009      	str	r0, [sp, #36]	; 0x24
  e0:	9108      	str	r1, [sp, #32]
  e2:	e7ff      	b.n	e4 <_ZN5mylib9send_coap17network_task_func17h008f672c6f393e1dE+0xe4>
  e4:	980b      	ldr	r0, [sp, #44]	; 0x2c
  e6:	901c      	str	r0, [sp, #112]	; 0x70
  e8:	990a      	ldr	r1, [sp, #40]	; 0x28
  ea:	911d      	str	r1, [sp, #116]	; 0x74
  ec:	9a09      	ldr	r2, [sp, #36]	; 0x24
  ee:	921e      	str	r2, [sp, #120]	; 0x78
  f0:	9b08      	ldr	r3, [sp, #32]
  f2:	931f      	str	r3, [sp, #124]	; 0x7c
  f4:	46ec      	mov	ip, sp
  f6:	f04f 0e02 	mov.w	lr, #2
  fa:	f8cc e000 	str.w	lr, [ip]
  fe:	f240 0100 	movw	r1, #0
 102:	f2c0 0100 	movt	r1, #0
 106:	a816      	add	r0, sp, #88	; 0x58
 108:	2203      	movs	r2, #3
 10a:	ab1c      	add	r3, sp, #112	; 0x70
 10c:	f7ff fffe 	bl	0 <_ZN4core3fmt9Arguments6new_v117h0330c13173882f69E>
 110:	e7ff      	b.n	2 <_ZN5mylib9send_coap17network_task_func17h008f672c6f393e1dE+0x2>
 112:	f240 0100 	movw	r1, #0
 116:	f2c0 0100 	movt	r1, #0
 11a:	a816      	add	r0, sp, #88	; 0x58
 11c:	f7ff fffe 	bl	0 <_ZN4core9panicking9panic_fmt17h6b4d8e87b0965449E>
 120:	defe      	udf	#254	; 0xfe
/mnt/c/stm32bluepill-mynewt-sensor/src/send_coap.rs:99
	}

	//  For Collector Node and Sensor Nodes: Register the nRF24L01 driver as the network transport for CoAP Collector.
	if unsafe { is_collector_node() } || unsafe { is_sensor_node() } {
 122:	f7ff fffe 	bl	0 <is_collector_node>
 126:	9007      	str	r0, [sp, #28]
 128:	e00d      	b.n	146 <_ZN5mylib9send_coap17network_task_func17h008f672c6f393e1dE+0x146>
 12a:	2001      	movs	r0, #1
 12c:	f88d 009b 	strb.w	r0, [sp, #155]	; 0x9b
 130:	e003      	b.n	a <is_sensor_node+0xa>
 132:	f7ff fffe 	bl	0 <is_sensor_node>
 136:	9006      	str	r0, [sp, #24]
 138:	e00a      	b.n	150 <_ZN5mylib9send_coap17network_task_func17h008f672c6f393e1dE+0x150>
 13a:	f89d 009b 	ldrb.w	r0, [sp, #155]	; 0x9b
 13e:	07c0      	lsls	r0, r0, #31
 140:	2800      	cmp	r0, #0
 142:	d10b      	bne.n	15c <_ZN5mylib9send_coap17network_task_func17h008f672c6f393e1dE+0x15c>
 144:	e060      	b.n	208 <_ZN5mylib9send_coap17network_task_func17h008f672c6f393e1dE+0x208>
 146:	9807      	ldr	r0, [sp, #28]
 148:	07c1      	lsls	r1, r0, #31
 14a:	2900      	cmp	r1, #0
 14c:	d1ed      	bne.n	12a <_ZN5mylib9send_coap17network_task_func17h008f672c6f393e1dE+0x12a>
 14e:	e7f0      	b.n	132 <_ZN5mylib9send_coap17network_task_func17h008f672c6f393e1dE+0x132>
 150:	9806      	ldr	r0, [sp, #24]
 152:	f000 0101 	and.w	r1, r0, #1
 156:	f88d 109b 	strb.w	r1, [sp, #155]	; 0x9b
 15a:	e7ee      	b.n	ffffffe0 <register_collector_transport+0xffffffe0>
/mnt/c/stm32bluepill-mynewt-sensor/src/send_coap.rs:100
		let rc = unsafe { register_collector_transport() };  assert_eq!(rc, 0);
 15c:	f7ff fffe 	bl	0 <register_collector_transport>
 160:	9027      	str	r0, [sp, #156]	; 0x9c
 162:	e7ff      	b.n	164 <_ZN5mylib9send_coap17network_task_func17h008f672c6f393e1dE+0x164>
 164:	a827      	add	r0, sp, #156	; 0x9c
 166:	9028      	str	r0, [sp, #160]	; 0xa0
 168:	f240 0000 	movw	r0, #0
 16c:	f2c0 0000 	movt	r0, #0
 170:	9029      	str	r0, [sp, #164]	; 0xa4
 172:	9828      	ldr	r0, [sp, #160]	; 0xa0
 174:	902a      	str	r0, [sp, #168]	; 0xa8
 176:	9829      	ldr	r0, [sp, #164]	; 0xa4
 178:	902b      	str	r0, [sp, #172]	; 0xac
 17a:	982a      	ldr	r0, [sp, #168]	; 0xa8
 17c:	6800      	ldr	r0, [r0, #0]
 17e:	992b      	ldr	r1, [sp, #172]	; 0xac
 180:	6809      	ldr	r1, [r1, #0]
 182:	4288      	cmp	r0, r1
 184:	d016      	beq.n	1b4 <_ZN5mylib9send_coap17network_task_func17h008f672c6f393e1dE+0x1b4>
 186:	e7ff      	b.n	188 <_ZN5mylib9send_coap17network_task_func17h008f672c6f393e1dE+0x188>
 188:	982a      	ldr	r0, [sp, #168]	; 0xa8
 18a:	9038      	str	r0, [sp, #224]	; 0xe0
 18c:	982b      	ldr	r0, [sp, #172]	; 0xac
 18e:	9039      	str	r0, [sp, #228]	; 0xe4
 190:	a838      	add	r0, sp, #224	; 0xe0
 192:	9036      	str	r0, [sp, #216]	; 0xd8
 194:	a839      	add	r0, sp, #228	; 0xe4
 196:	9037      	str	r0, [sp, #220]	; 0xdc
 198:	9836      	ldr	r0, [sp, #216]	; 0xd8
 19a:	903a      	str	r0, [sp, #232]	; 0xe8
 19c:	9837      	ldr	r0, [sp, #220]	; 0xdc
 19e:	903b      	str	r0, [sp, #236]	; 0xec
 1a0:	983a      	ldr	r0, [sp, #232]	; 0xe8
 1a2:	f240 0100 	movw	r1, #0
 1a6:	f2c0 0100 	movt	r1, #0
 1aa:	f7ff fffe 	bl	0 <_ZN4core3fmt10ArgumentV13new17h26e8f734fca6286bE>
 1ae:	9005      	str	r0, [sp, #20]
 1b0:	9104      	str	r1, [sp, #16]
 1b2:	e000      	b.n	1b6 <_ZN5mylib9send_coap17network_task_func17h008f672c6f393e1dE+0x1b6>
/mnt/c/stm32bluepill-mynewt-sensor/src/send_coap.rs:99
	if unsafe { is_collector_node() } || unsafe { is_sensor_node() } {
 1b4:	e028      	b.n	208 <_ZN5mylib9send_coap17network_task_func17h008f672c6f393e1dE+0x208>
/mnt/c/stm32bluepill-mynewt-sensor/src/send_coap.rs:100
		let rc = unsafe { register_collector_transport() };  assert_eq!(rc, 0);
 1b6:	983b      	ldr	r0, [sp, #236]	; 0xec
 1b8:	f240 0100 	movw	r1, #0
 1bc:	f2c0 0100 	movt	r1, #0
 1c0:	f7ff fffe 	bl	0 <_ZN4core3fmt10ArgumentV13new17h26e8f734fca6286bE>
 1c4:	9003      	str	r0, [sp, #12]
 1c6:	9102      	str	r1, [sp, #8]
 1c8:	e7ff      	b.n	1ca <_ZN5mylib9send_coap17network_task_func17h008f672c6f393e1dE+0x1ca>
 1ca:	9805      	ldr	r0, [sp, #20]
 1cc:	9032      	str	r0, [sp, #200]	; 0xc8
 1ce:	9904      	ldr	r1, [sp, #16]
 1d0:	9133      	str	r1, [sp, #204]	; 0xcc
 1d2:	9a03      	ldr	r2, [sp, #12]
 1d4:	9234      	str	r2, [sp, #208]	; 0xd0
 1d6:	9b02      	ldr	r3, [sp, #8]
 1d8:	9335      	str	r3, [sp, #212]	; 0xd4
 1da:	46ec      	mov	ip, sp
 1dc:	f04f 0e02 	mov.w	lr, #2
 1e0:	f8cc e000 	str.w	lr, [ip]
 1e4:	f240 0100 	movw	r1, #0
 1e8:	f2c0 0100 	movt	r1, #0
 1ec:	a82c      	add	r0, sp, #176	; 0xb0
 1ee:	2203      	movs	r2, #3
 1f0:	ab32      	add	r3, sp, #200	; 0xc8
 1f2:	f7ff fffe 	bl	0 <_ZN4core3fmt9Arguments6new_v117h0330c13173882f69E>
 1f6:	e7ff      	b.n	2 <_ZN5mylib9send_coap17network_task_func17h008f672c6f393e1dE+0x2>
 1f8:	f240 0100 	movw	r1, #0
 1fc:	f2c0 0100 	movt	r1, #0
 200:	a82c      	add	r0, sp, #176	; 0xb0
 202:	f7ff fffe 	bl	0 <_ZN4core9panicking9panic_fmt17h6b4d8e87b0965449E>
 206:	defe      	udf	#254	; 0xfe
/mnt/c/stm32bluepill-mynewt-sensor/src/send_coap.rs:105
	}

	//  Network Task has successfully started the ESP8266 or nRF24L01 transceiver. The Sensor Listener will still continue to
	//  run in the background and send sensor data to the server.
	unsafe { NETWORK_IS_READY = true; }  //  Indicate that network is ready.
 208:	f240 0000 	movw	r0, #0
 20c:	f2c0 0000 	movt	r0, #0
 210:	2101      	movs	r1, #1
 212:	7001      	strb	r1, [r0, #0]
/mnt/c/stm32bluepill-mynewt-sensor/src/send_coap.rs:107

	loop {  //  Loop forever...        
 214:	e7ff      	b.n	216 <_ZN5mylib9send_coap17network_task_func17h008f672c6f393e1dE+0x216>
/mnt/c/stm32bluepill-mynewt-sensor/src/send_coap.rs:108
		console_print(b"NET free mbuf %d\n");  //  , os_msys_num_free());  //  Display number of free mbufs, to catch CoAP memory leaks.
 216:	f240 0000 	movw	r0, #0
 21a:	f2c0 0000 	movt	r0, #0
 21e:	2111      	movs	r1, #17
 220:	f7ff fffe 	bl	0 <_ZN5mylib4base13console_print17h47a7ec4e529b3d82E>
 224:	e7ff      	b.n	226 <_ZN5mylib9send_coap17network_task_func17h008f672c6f393e1dE+0x226>
 226:	f44f 707a 	mov.w	r0, #1000	; 0x3e8
 22a:	210a      	movs	r1, #10
/mnt/c/stm32bluepill-mynewt-sensor/src/send_coap.rs:109
		unsafe { os_time_delay(10 * OS_TICKS_PER_SEC); }                   //  Wait 10 seconds before repeating.
 22c:	fba1 0100 	umull	r0, r1, r1, r0
 230:	2900      	cmp	r1, #0
 232:	9001      	str	r0, [sp, #4]
 234:	d105      	bne.n	242 <_ZN5mylib9send_coap17network_task_func17h008f672c6f393e1dE+0x242>
 236:	e7ff      	b.n	238 <_ZN5mylib9send_coap17network_task_func17h008f672c6f393e1dE+0x238>
 238:	9801      	ldr	r0, [sp, #4]
 23a:	f7ff fffe 	bl	0 <os_time_delay>
 23e:	e7ff      	b.n	240 <_ZN5mylib9send_coap17network_task_func17h008f672c6f393e1dE+0x240>
/mnt/c/stm32bluepill-mynewt-sensor/src/send_coap.rs:107
	loop {  //  Loop forever...        
 240:	e7e9      	b.n	216 <_ZN5mylib9send_coap17network_task_func17h008f672c6f393e1dE+0x216>
/mnt/c/stm32bluepill-mynewt-sensor/src/send_coap.rs:109
		unsafe { os_time_delay(10 * OS_TICKS_PER_SEC); }                   //  Wait 10 seconds before repeating.
 242:	f240 0000 	movw	r0, #0
 246:	f2c0 0000 	movt	r0, #0
 24a:	f7ff fffe 	bl	0 <_ZN4core9panicking5panic17h53ca63c6ac6312f8E>
 24e:	defe      	udf	#254	; 0xfe

Disassembly of section .text._ZN5mylib9send_coap16send_sensor_data17h610afad13e46ff09E:

00000000 <_ZN5mylib9send_coap16send_sensor_data17h610afad13e46ff09E>:
_ZN5mylib9send_coap16send_sensor_data17h610afad13e46ff09E():
/mnt/c/stm32bluepill-mynewt-sensor/src/send_coap.rs:123
///  For Collector Node: sensor_node is the Sensor Node Address of the Sensor Node that transmitted
///  the sensor data (like `b3b4b5b6f1`)
///  The message will be enqueued for transmission by the CoAP / OIC Background Task 
///  so this function will return without waiting for the message to be transmitted.  
///  Return 0 if successful, SYS_EAGAIN if network is not ready yet.
pub fn send_sensor_data(sensor_val: &SensorValue, sensor_node: &CStr) -> i32 {
   0:	b580      	push	{r7, lr}
   2:	b08e      	sub	sp, #56	; 0x38
   4:	4613      	mov	r3, r2
   6:	468c      	mov	ip, r1
   8:	4686      	mov	lr, r0
   a:	9006      	str	r0, [sp, #24]
   c:	9107      	str	r1, [sp, #28]
   e:	9208      	str	r2, [sp, #32]
/mnt/c/stm32bluepill-mynewt-sensor/src/send_coap.rs:124
	console_print(b"send_sensor_data\n");
  10:	f240 0000 	movw	r0, #0
  14:	f2c0 0000 	movt	r0, #0
  18:	2111      	movs	r1, #17
  1a:	9305      	str	r3, [sp, #20]
  1c:	f8cd c010 	str.w	ip, [sp, #16]
  20:	f8cd e00c 	str.w	lr, [sp, #12]
  24:	f7ff fffe 	bl	0 <_ZN5mylib4base13console_print17h47a7ec4e529b3d82E>
  28:	e7ff      	b.n	2 <_ZN5mylib9send_coap16send_sensor_data17h610afad13e46ff09E+0x2>
/mnt/c/stm32bluepill-mynewt-sensor/src/send_coap.rs:127
    //  TODO: Remove val
    let mut val = sensor_value{
        key: b"\0".as_ptr(),
  2a:	f240 0000 	movw	r0, #0
  2e:	f2c0 0000 	movt	r0, #0
  32:	2101      	movs	r1, #1
  34:	f7ff fffe 	bl	0 <_ZN4core5slice29_$LT$impl$u20$$u5b$T$u5d$$GT$6as_ptr17h6e6820e87d479c61E>
  38:	9002      	str	r0, [sp, #8]
  3a:	e7ff      	b.n	3c <_ZN5mylib9send_coap16send_sensor_data17h610afad13e46ff09E+0x3c>
/mnt/c/stm32bluepill-mynewt-sensor/src/send_coap.rs:126
    let mut val = sensor_value{
  3c:	9802      	ldr	r0, [sp, #8]
  3e:	900a      	str	r0, [sp, #40]	; 0x28
  40:	2100      	movs	r1, #0
  42:	910b      	str	r1, [sp, #44]	; 0x2c
  44:	f8ad 1030 	strh.w	r1, [sp, #48]	; 0x30
  48:	910d      	str	r1, [sp, #52]	; 0x34
/mnt/c/stm32bluepill-mynewt-sensor/src/send_coap.rs:133
        val_type: 0,
        int_val: 0,
        float_val: 0.0,
    };
	//  For Sensor Node: Transmit the sensor data to the Collector Node as CBOR.
	if unsafe { should_send_to_collector(&mut val, sensor_node.as_ptr()) } { 
  4a:	9807      	ldr	r0, [sp, #28]
  4c:	9908      	ldr	r1, [sp, #32]
  4e:	f7ff fffe 	bl	0 <_ZN9cstr_core4CStr6as_ptr17he24d76f5592466e4E>
  52:	9001      	str	r0, [sp, #4]
  54:	e7ff      	b.n	56 <_ZN5mylib9send_coap16send_sensor_data17h610afad13e46ff09E+0x56>
  56:	a80a      	add	r0, sp, #40	; 0x28
  58:	9901      	ldr	r1, [sp, #4]
  5a:	f7ff fffe 	bl	0 <should_send_to_collector>
  5e:	9000      	str	r0, [sp, #0]
  60:	e7ff      	b.n	62 <_ZN5mylib9send_coap16send_sensor_data17h610afad13e46ff09E+0x62>
  62:	9800      	ldr	r0, [sp, #0]
  64:	07c1      	lsls	r1, r0, #31
  66:	2900      	cmp	r1, #0
  68:	d00b      	beq.n	82 <_ZN5mylib9send_coap16send_sensor_data17h610afad13e46ff09E+0x82>
  6a:	e7ff      	b.n	6c <_ZN5mylib9send_coap16send_sensor_data17h610afad13e46ff09E+0x6c>
/mnt/c/stm32bluepill-mynewt-sensor/src/send_coap.rs:134
		return send_sensor_data_to_collector(sensor_val, sensor_node); 
  6c:	9806      	ldr	r0, [sp, #24]
  6e:	9907      	ldr	r1, [sp, #28]
  70:	9a08      	ldr	r2, [sp, #32]
  72:	f7ff fffe 	bl	0 <_ZN5mylib9send_coap16send_sensor_data17h610afad13e46ff09E>
  76:	9009      	str	r0, [sp, #36]	; 0x24
  78:	e7ff      	b.n	7a <_ZN5mylib9send_coap16send_sensor_data17h610afad13e46ff09E+0x7a>
  7a:	e7ff      	b.n	7c <_ZN5mylib9send_coap16send_sensor_data17h610afad13e46ff09E+0x7c>
/mnt/c/stm32bluepill-mynewt-sensor/src/send_coap.rs:138
	}
	//  For Collector Node and Standalone Node: Transmit the sensor data to the CoAP Server as CoAP JSON.
	send_sensor_data_to_server(sensor_val, sensor_node)
}
  7c:	9809      	ldr	r0, [sp, #36]	; 0x24
  7e:	b00e      	add	sp, #56	; 0x38
  80:	bd80      	pop	{r7, pc}
/mnt/c/stm32bluepill-mynewt-sensor/src/send_coap.rs:137
	send_sensor_data_to_server(sensor_val, sensor_node)
  82:	9806      	ldr	r0, [sp, #24]
  84:	9907      	ldr	r1, [sp, #28]
  86:	9a08      	ldr	r2, [sp, #32]
  88:	f7ff fffe 	bl	0 <_ZN5mylib9send_coap16send_sensor_data17h610afad13e46ff09E>
  8c:	9009      	str	r0, [sp, #36]	; 0x24
  8e:	e7ff      	b.n	90 <_ZN5mylib9send_coap16send_sensor_data17h610afad13e46ff09E+0x90>
/mnt/c/stm32bluepill-mynewt-sensor/src/send_coap.rs:138
}
  90:	e7f4      	b.n	7c <_ZN5mylib9send_coap16send_sensor_data17h610afad13e46ff09E+0x7c>

Disassembly of section .text._ZN5mylib9send_coap26send_sensor_data_to_server17h0ee163faf4e6461fE:

00000000 <_ZN5mylib9send_coap26send_sensor_data_to_server17h0ee163faf4e6461fE>:
_ZN5mylib9send_coap26send_sensor_data_to_server17h0ee163faf4e6461fE():
/mnt/c/stm32bluepill-mynewt-sensor/src/send_coap.rs:158
///    {"key":"device", "value":"0102030405060708090a0b0c0d0e0f10"},
///    {"key":"tmp",    "value":28.7},
///    {"key":"...",    "value":... },
///    ... ]}
///  ```
fn send_sensor_data_to_server(sensor_val: &SensorValue, node_id: &CStr) -> i32 {
   0:	b580      	push	{r7, lr}
   2:	b0bc      	sub	sp, #240	; 0xf0
   4:	4613      	mov	r3, r2
   6:	468c      	mov	ip, r1
   8:	4686      	mov	lr, r0
   a:	900e      	str	r0, [sp, #56]	; 0x38
   c:	910f      	str	r1, [sp, #60]	; 0x3c
   e:	9210      	str	r2, [sp, #64]	; 0x40
/mnt/c/stm32bluepill-mynewt-sensor/src/send_coap.rs:161
	////  TODO: if let SensorValueType::None = sensor_val.val { assert!(false); }
	////  TODO: assert!(node_id.to_str().unwrap().len() > 0);
    assert_ne!(node_id.to_bytes()[0], 0);
  10:	980f      	ldr	r0, [sp, #60]	; 0x3c
  12:	9910      	ldr	r1, [sp, #64]	; 0x40
  14:	930d      	str	r3, [sp, #52]	; 0x34
  16:	f8cd c030 	str.w	ip, [sp, #48]	; 0x30
  1a:	f8cd e02c 	str.w	lr, [sp, #44]	; 0x2c
  1e:	f7ff fffe 	bl	0 <_ZN9cstr_core4CStr8to_bytes17h69a4c26bfbbcb548E>
  22:	900a      	str	r0, [sp, #40]	; 0x28
  24:	9109      	str	r1, [sp, #36]	; 0x24
  26:	e7ff      	b.n	28 <_ZN5mylib9send_coap26send_sensor_data_to_server17h0ee163faf4e6461fE+0x28>
  28:	9809      	ldr	r0, [sp, #36]	; 0x24
  2a:	2800      	cmp	r0, #0
  2c:	f000 80e7 	beq.w	1fe <_ZN5mylib9send_coap26send_sensor_data_to_server17h0ee163faf4e6461fE+0x1fe>
  30:	e7ff      	b.n	32 <_ZN5mylib9send_coap26send_sensor_data_to_server17h0ee163faf4e6461fE+0x32>
  32:	980a      	ldr	r0, [sp, #40]	; 0x28
  34:	9012      	str	r0, [sp, #72]	; 0x48
  36:	f240 0100 	movw	r1, #0
  3a:	f2c0 0100 	movt	r1, #0
  3e:	9113      	str	r1, [sp, #76]	; 0x4c
  40:	9912      	ldr	r1, [sp, #72]	; 0x48
  42:	9114      	str	r1, [sp, #80]	; 0x50
  44:	9913      	ldr	r1, [sp, #76]	; 0x4c
  46:	9115      	str	r1, [sp, #84]	; 0x54
  48:	9914      	ldr	r1, [sp, #80]	; 0x50
  4a:	7809      	ldrb	r1, [r1, #0]
  4c:	9a15      	ldr	r2, [sp, #84]	; 0x54
  4e:	7812      	ldrb	r2, [r2, #0]
  50:	4291      	cmp	r1, r2
  52:	d116      	bne.n	82 <_ZN5mylib9send_coap26send_sensor_data_to_server17h0ee163faf4e6461fE+0x82>
  54:	e7ff      	b.n	56 <_ZN5mylib9send_coap26send_sensor_data_to_server17h0ee163faf4e6461fE+0x56>
  56:	9814      	ldr	r0, [sp, #80]	; 0x50
  58:	9022      	str	r0, [sp, #136]	; 0x88
  5a:	9815      	ldr	r0, [sp, #84]	; 0x54
  5c:	9023      	str	r0, [sp, #140]	; 0x8c
  5e:	a822      	add	r0, sp, #136	; 0x88
  60:	9020      	str	r0, [sp, #128]	; 0x80
  62:	a823      	add	r0, sp, #140	; 0x8c
  64:	9021      	str	r0, [sp, #132]	; 0x84
  66:	9820      	ldr	r0, [sp, #128]	; 0x80
  68:	9024      	str	r0, [sp, #144]	; 0x90
  6a:	9821      	ldr	r0, [sp, #132]	; 0x84
  6c:	9025      	str	r0, [sp, #148]	; 0x94
  6e:	9824      	ldr	r0, [sp, #144]	; 0x90
  70:	f240 0100 	movw	r1, #0
  74:	f2c0 0100 	movt	r1, #0
  78:	f7ff fffe 	bl	0 <_ZN4core3fmt10ArgumentV13new17h17eece399e82c5f4E>
  7c:	9008      	str	r0, [sp, #32]
  7e:	9107      	str	r1, [sp, #28]
  80:	e008      	b.n	94 <_ZN5mylib9send_coap26send_sensor_data_to_server17h0ee163faf4e6461fE+0x94>
/mnt/c/stm32bluepill-mynewt-sensor/src/send_coap.rs:162
	if unsafe { !NETWORK_IS_READY } { return SYS_EAGAIN; }  //  If network is not ready, tell caller (Sensor Listener) to try later.
  82:	f240 0000 	movw	r0, #0
  86:	f2c0 0000 	movt	r0, #0
  8a:	7800      	ldrb	r0, [r0, #0]
  8c:	07c0      	lsls	r0, r0, #31
  8e:	2800      	cmp	r0, #0
  90:	d02d      	beq.n	ee <_ZN5mylib9send_coap26send_sensor_data_to_server17h0ee163faf4e6461fE+0xee>
  92:	e028      	b.n	e6 <_ZN5mylib9send_coap26send_sensor_data_to_server17h0ee163faf4e6461fE+0xe6>
/mnt/c/stm32bluepill-mynewt-sensor/src/send_coap.rs:161
    assert_ne!(node_id.to_bytes()[0], 0);
  94:	9825      	ldr	r0, [sp, #148]	; 0x94
  96:	f240 0100 	movw	r1, #0
  9a:	f2c0 0100 	movt	r1, #0
  9e:	f7ff fffe 	bl	0 <_ZN4core3fmt10ArgumentV13new17h17eece399e82c5f4E>
  a2:	9006      	str	r0, [sp, #24]
  a4:	9105      	str	r1, [sp, #20]
  a6:	e7ff      	b.n	a8 <_ZN5mylib9send_coap26send_sensor_data_to_server17h0ee163faf4e6461fE+0xa8>
  a8:	9808      	ldr	r0, [sp, #32]
  aa:	901c      	str	r0, [sp, #112]	; 0x70
  ac:	9907      	ldr	r1, [sp, #28]
  ae:	911d      	str	r1, [sp, #116]	; 0x74
  b0:	9a06      	ldr	r2, [sp, #24]
  b2:	921e      	str	r2, [sp, #120]	; 0x78
  b4:	9b05      	ldr	r3, [sp, #20]
  b6:	931f      	str	r3, [sp, #124]	; 0x7c
  b8:	46ec      	mov	ip, sp
  ba:	f04f 0e02 	mov.w	lr, #2
  be:	f8cc e000 	str.w	lr, [ip]
  c2:	f240 0100 	movw	r1, #0
  c6:	f2c0 0100 	movt	r1, #0
  ca:	a816      	add	r0, sp, #88	; 0x58
  cc:	2203      	movs	r2, #3
  ce:	ab1c      	add	r3, sp, #112	; 0x70
  d0:	f7ff fffe 	bl	0 <_ZN4core3fmt9Arguments6new_v117h0330c13173882f69E>
  d4:	e7ff      	b.n	2 <_ZN5mylib9send_coap26send_sensor_data_to_server17h0ee163faf4e6461fE+0x2>
  d6:	f240 0100 	movw	r1, #0
  da:	f2c0 0100 	movt	r1, #0
  de:	a816      	add	r0, sp, #88	; 0x58
  e0:	f7ff fffe 	bl	0 <_ZN4core9panicking9panic_fmt17h6b4d8e87b0965449E>
  e4:	defe      	udf	#254	; 0xfe
/mnt/c/stm32bluepill-mynewt-sensor/src/send_coap.rs:163
	let device_id = unsafe { get_device_id() };  assert_ne!(device_id, 0 as *const ::cty::c_char);
  e6:	f7ff fffe 	bl	0 <get_device_id>
  ea:	9026      	str	r0, [sp, #152]	; 0x98
  ec:	e006      	b.n	fc <_ZN5mylib9send_coap26send_sensor_data_to_server17h0ee163faf4e6461fE+0xfc>
  ee:	f06f 0005 	mvn.w	r0, #5
/mnt/c/stm32bluepill-mynewt-sensor/src/send_coap.rs:162
	if unsafe { !NETWORK_IS_READY } { return SYS_EAGAIN; }  //  If network is not ready, tell caller (Sensor Listener) to try later.
  f2:	9011      	str	r0, [sp, #68]	; 0x44
  f4:	e7ff      	b.n	f6 <_ZN5mylib9send_coap26send_sensor_data_to_server17h0ee163faf4e6461fE+0xf6>
/mnt/c/stm32bluepill-mynewt-sensor/src/send_coap.rs:195
    //  console_printf("NET send data: tmp "); console_printfloat(tmp); console_printf("\n");  ////

    //  The CoAP Background Task will call oc_tx_ucast() in the ESP8266 driver to 
    //  transmit the message: libs/esp8266/src/transport.cpp
    0
}
  f6:	9811      	ldr	r0, [sp, #68]	; 0x44
  f8:	b03c      	add	sp, #240	; 0xf0
  fa:	bd80      	pop	{r7, pc}
  fc:	a826      	add	r0, sp, #152	; 0x98
/mnt/c/stm32bluepill-mynewt-sensor/src/send_coap.rs:163
	let device_id = unsafe { get_device_id() };  assert_ne!(device_id, 0 as *const ::cty::c_char);
  fe:	9027      	str	r0, [sp, #156]	; 0x9c
 100:	f240 0000 	movw	r0, #0
 104:	f2c0 0000 	movt	r0, #0
 108:	9028      	str	r0, [sp, #160]	; 0xa0
 10a:	9827      	ldr	r0, [sp, #156]	; 0x9c
 10c:	9029      	str	r0, [sp, #164]	; 0xa4
 10e:	9828      	ldr	r0, [sp, #160]	; 0xa0
 110:	902a      	str	r0, [sp, #168]	; 0xa8
 112:	9829      	ldr	r0, [sp, #164]	; 0xa4
 114:	6800      	ldr	r0, [r0, #0]
 116:	992a      	ldr	r1, [sp, #168]	; 0xa8
 118:	6809      	ldr	r1, [r1, #0]
 11a:	4288      	cmp	r0, r1
 11c:	d116      	bne.n	14c <_ZN5mylib9send_coap26send_sensor_data_to_server17h0ee163faf4e6461fE+0x14c>
 11e:	e7ff      	b.n	120 <_ZN5mylib9send_coap26send_sensor_data_to_server17h0ee163faf4e6461fE+0x120>
 120:	9829      	ldr	r0, [sp, #164]	; 0xa4
 122:	9037      	str	r0, [sp, #220]	; 0xdc
 124:	982a      	ldr	r0, [sp, #168]	; 0xa8
 126:	9038      	str	r0, [sp, #224]	; 0xe0
 128:	a837      	add	r0, sp, #220	; 0xdc
 12a:	9035      	str	r0, [sp, #212]	; 0xd4
 12c:	a838      	add	r0, sp, #224	; 0xe0
 12e:	9036      	str	r0, [sp, #216]	; 0xd8
 130:	9835      	ldr	r0, [sp, #212]	; 0xd4
 132:	9039      	str	r0, [sp, #228]	; 0xe4
 134:	9836      	ldr	r0, [sp, #216]	; 0xd8
 136:	903a      	str	r0, [sp, #232]	; 0xe8
 138:	9839      	ldr	r0, [sp, #228]	; 0xe4
 13a:	f240 0100 	movw	r1, #0
 13e:	f2c0 0100 	movt	r1, #0
 142:	f7ff fffe 	bl	0 <_ZN4core3fmt10ArgumentV13new17h99468556cb7f6d86E>
 146:	9004      	str	r0, [sp, #16]
 148:	9103      	str	r1, [sp, #12]
 14a:	e005      	b.n	158 <_ZN5mylib9send_coap26send_sensor_data_to_server17h0ee163faf4e6461fE+0x158>
 14c:	2000      	movs	r0, #0
/mnt/c/stm32bluepill-mynewt-sensor/src/send_coap.rs:168
	let rc = unsafe { init_server_post(0 as *const ::cty::c_char) };  assert!(rc);
 14e:	f7ff fffe 	bl	0 <init_server_post>
 152:	f88d 00ee 	strb.w	r0, [sp, #238]	; 0xee
 156:	e028      	b.n	1aa <_ZN5mylib9send_coap26send_sensor_data_to_server17h0ee163faf4e6461fE+0x1aa>
/mnt/c/stm32bluepill-mynewt-sensor/src/send_coap.rs:163
	let device_id = unsafe { get_device_id() };  assert_ne!(device_id, 0 as *const ::cty::c_char);
 158:	983a      	ldr	r0, [sp, #232]	; 0xe8
 15a:	f240 0100 	movw	r1, #0
 15e:	f2c0 0100 	movt	r1, #0
 162:	f7ff fffe 	bl	0 <_ZN4core3fmt10ArgumentV13new17h99468556cb7f6d86E>
 166:	9002      	str	r0, [sp, #8]
 168:	9101      	str	r1, [sp, #4]
 16a:	e7ff      	b.n	16c <_ZN5mylib9send_coap26send_sensor_data_to_server17h0ee163faf4e6461fE+0x16c>
 16c:	9804      	ldr	r0, [sp, #16]
 16e:	9031      	str	r0, [sp, #196]	; 0xc4
 170:	9903      	ldr	r1, [sp, #12]
 172:	9132      	str	r1, [sp, #200]	; 0xc8
 174:	9a02      	ldr	r2, [sp, #8]
 176:	9233      	str	r2, [sp, #204]	; 0xcc
 178:	9b01      	ldr	r3, [sp, #4]
 17a:	9334      	str	r3, [sp, #208]	; 0xd0
 17c:	46ec      	mov	ip, sp
 17e:	f04f 0e02 	mov.w	lr, #2
 182:	f8cc e000 	str.w	lr, [ip]
 186:	f240 0100 	movw	r1, #0
 18a:	f2c0 0100 	movt	r1, #0
 18e:	a82b      	add	r0, sp, #172	; 0xac
 190:	2203      	movs	r2, #3
 192:	ab31      	add	r3, sp, #196	; 0xc4
 194:	f7ff fffe 	bl	0 <_ZN4core3fmt9Arguments6new_v117h0330c13173882f69E>
 198:	e7ff      	b.n	2 <_ZN5mylib9send_coap26send_sensor_data_to_server17h0ee163faf4e6461fE+0x2>
 19a:	f240 0100 	movw	r1, #0
 19e:	f2c0 0100 	movt	r1, #0
 1a2:	a82b      	add	r0, sp, #172	; 0xac
 1a4:	f7ff fffe 	bl	0 <_ZN4core9panicking9panic_fmt17h6b4d8e87b0965449E>
 1a8:	defe      	udf	#254	; 0xfe
/mnt/c/stm32bluepill-mynewt-sensor/src/send_coap.rs:168
	let rc = unsafe { init_server_post(0 as *const ::cty::c_char) };  assert!(rc);
 1aa:	f89d 00ee 	ldrb.w	r0, [sp, #238]	; 0xee
 1ae:	07c0      	lsls	r0, r0, #31
 1b0:	2800      	cmp	r0, #0
 1b2:	d107      	bne.n	1c4 <_ZN5mylib9send_coap26send_sensor_data_to_server17h0ee163faf4e6461fE+0x1c4>
 1b4:	e7ff      	b.n	1b6 <_ZN5mylib9send_coap26send_sensor_data_to_server17h0ee163faf4e6461fE+0x1b6>
 1b6:	f240 0000 	movw	r0, #0
 1ba:	f2c0 0000 	movt	r0, #0
 1be:	f7ff fffe 	bl	0 <_ZN4core9panicking5panic17h53ca63c6ac6312f8E>
 1c2:	defe      	udf	#254	; 0xfe
/mnt/c/stm32bluepill-mynewt-sensor/src/send_coap.rs:187
    let rc = unsafe { do_server_post() };  assert!(rc);
 1c4:	f7ff fffe 	bl	0 <do_server_post>
 1c8:	f88d 00ef 	strb.w	r0, [sp, #239]	; 0xef
 1cc:	e7ff      	b.n	1ce <_ZN5mylib9send_coap26send_sensor_data_to_server17h0ee163faf4e6461fE+0x1ce>
 1ce:	f89d 00ef 	ldrb.w	r0, [sp, #239]	; 0xef
 1d2:	07c0      	lsls	r0, r0, #31
 1d4:	2800      	cmp	r0, #0
 1d6:	d107      	bne.n	1e8 <_ZN5mylib9send_coap26send_sensor_data_to_server17h0ee163faf4e6461fE+0x1e8>
 1d8:	e7ff      	b.n	1da <_ZN5mylib9send_coap26send_sensor_data_to_server17h0ee163faf4e6461fE+0x1da>
 1da:	f240 0000 	movw	r0, #0
 1de:	f2c0 0000 	movt	r0, #0
 1e2:	f7ff fffe 	bl	0 <_ZN4core9panicking5panic17h53ca63c6ac6312f8E>
 1e6:	defe      	udf	#254	; 0xfe
/mnt/c/stm32bluepill-mynewt-sensor/src/send_coap.rs:189
    console_print(b"NET view your sensor at \nhttps://blue-pill-geolocate.appspot.com?device=%s\n");  //  , device_id);
 1e8:	f240 0000 	movw	r0, #0
 1ec:	f2c0 0000 	movt	r0, #0
 1f0:	214b      	movs	r1, #75	; 0x4b
 1f2:	f7ff fffe 	bl	0 <_ZN5mylib4base13console_print17h47a7ec4e529b3d82E>
 1f6:	e7ff      	b.n	1f8 <_ZN5mylib9send_coap26send_sensor_data_to_server17h0ee163faf4e6461fE+0x1f8>
 1f8:	2000      	movs	r0, #0
/mnt/c/stm32bluepill-mynewt-sensor/src/send_coap.rs:194
    0
 1fa:	9011      	str	r0, [sp, #68]	; 0x44
/mnt/c/stm32bluepill-mynewt-sensor/src/send_coap.rs:195
}
 1fc:	e77b      	b.n	f6 <_ZN5mylib9send_coap26send_sensor_data_to_server17h0ee163faf4e6461fE+0xf6>
/mnt/c/stm32bluepill-mynewt-sensor/src/send_coap.rs:161
    assert_ne!(node_id.to_bytes()[0], 0);
 1fe:	f240 0000 	movw	r0, #0
 202:	f2c0 0000 	movt	r0, #0
 206:	2100      	movs	r1, #0
 208:	9a09      	ldr	r2, [sp, #36]	; 0x24
 20a:	f7ff fffe 	bl	0 <_ZN4core9panicking18panic_bounds_check17h946762cd0671aec9E>
 20e:	defe      	udf	#254	; 0xfe

Disassembly of section .text._ZN5mylib9send_coap29send_sensor_data_to_collector17h2775c8d6cc261bd7E:

00000000 <_ZN5mylib9send_coap29send_sensor_data_to_collector17h2775c8d6cc261bd7E>:
_ZN5mylib9send_coap29send_sensor_data_to_collector17h2775c8d6cc261bd7E():
/mnt/c/stm32bluepill-mynewt-sensor/src/send_coap.rs:209
///  The message will be enqueued for transmission by the CoAP / OIC 
///  Background Task so this function will return without waiting for the message 
///  to be transmitted.  Return 0 if successful, `SYS_EAGAIN` if network is not ready yet.
///  The CoAP payload needs to be very compact (under 32 bytes) so it will be encoded in CBOR like this:
///  `{ t: 2870 }`
fn send_sensor_data_to_collector(sensor_val: &SensorValue, node_id: &CStr) -> i32 {
   0:	b580      	push	{r7, lr}
   2:	b096      	sub	sp, #88	; 0x58
   4:	4613      	mov	r3, r2
   6:	468c      	mov	ip, r1
   8:	4686      	mov	lr, r0
   a:	900c      	str	r0, [sp, #48]	; 0x30
   c:	910d      	str	r1, [sp, #52]	; 0x34
   e:	920e      	str	r2, [sp, #56]	; 0x38
/mnt/c/stm32bluepill-mynewt-sensor/src/send_coap.rs:211
	////  TODO: if let SensorValueType::None = sensor_val.val { assert!(false); }
    if unsafe { !NETWORK_IS_READY } { return SYS_EAGAIN; }  //  If network is not ready, tell caller (Sensor Listener) to try later.
  10:	f240 0000 	movw	r0, #0
  14:	f2c0 0000 	movt	r0, #0
  18:	7800      	ldrb	r0, [r0, #0]
  1a:	07c0      	lsls	r0, r0, #31
  1c:	2800      	cmp	r0, #0
  1e:	930b      	str	r3, [sp, #44]	; 0x2c
  20:	f8cd c028 	str.w	ip, [sp, #40]	; 0x28
  24:	f8cd e024 	str.w	lr, [sp, #36]	; 0x24
  28:	d107      	bne.n	3a <_ZN5mylib9send_coap29send_sensor_data_to_collector17h2775c8d6cc261bd7E+0x3a>
  2a:	e7ff      	b.n	2c <_ZN5mylib9send_coap29send_sensor_data_to_collector17h2775c8d6cc261bd7E+0x2c>
  2c:	f06f 0005 	mvn.w	r0, #5
  30:	900f      	str	r0, [sp, #60]	; 0x3c
  32:	e7ff      	b.n	34 <_ZN5mylib9send_coap29send_sensor_data_to_collector17h2775c8d6cc261bd7E+0x34>
/mnt/c/stm32bluepill-mynewt-sensor/src/send_coap.rs:234
    console_print(b"NRF send to collector: rawtmp %d\n");  //  , val->int_val);  ////

    //  The CoAP Background Task will call oc_tx_ucast() in the nRF24L01 driver to 
    //  transmit the message: libs/nrf24l01/src/transport.cpp
    0
}
  34:	980f      	ldr	r0, [sp, #60]	; 0x3c
  36:	b016      	add	sp, #88	; 0x58
  38:	bd80      	pop	{r7, pc}
/mnt/c/stm32bluepill-mynewt-sensor/src/send_coap.rs:216
    let rc = unsafe { init_collector_post() };  assert!(rc);
  3a:	f7ff fffe 	bl	0 <init_collector_post>
  3e:	f88d 0043 	strb.w	r0, [sp, #67]	; 0x43
  42:	e7ff      	b.n	44 <_ZN5mylib9send_coap29send_sensor_data_to_collector17h2775c8d6cc261bd7E+0x44>
  44:	f89d 0043 	ldrb.w	r0, [sp, #67]	; 0x43
  48:	07c0      	lsls	r0, r0, #31
  4a:	2800      	cmp	r0, #0
  4c:	d107      	bne.n	5e <_ZN5mylib9send_coap29send_sensor_data_to_collector17h2775c8d6cc261bd7E+0x5e>
  4e:	e7ff      	b.n	50 <_ZN5mylib9send_coap29send_sensor_data_to_collector17h2775c8d6cc261bd7E+0x50>
  50:	f240 0000 	movw	r0, #0
  54:	f2c0 0000 	movt	r0, #0
  58:	f7ff fffe 	bl	0 <_ZN4core9panicking5panic17h53ca63c6ac6312f8E>
  5c:	defe      	udf	#254	; 0xfe
/mnt/c/stm32bluepill-mynewt-sensor/src/send_coap.rs:219
    let _payload = coap!(@cbor {
  5e:	f240 0000 	movw	r0, #0
  62:	f2c0 0000 	movt	r0, #0
  66:	9013      	str	r0, [sp, #76]	; 0x4c
  68:	2004      	movs	r0, #4
  6a:	9014      	str	r0, [sp, #80]	; 0x50
  6c:	f240 0000 	movw	r0, #0
  70:	f2c0 0000 	movt	r0, #0
  74:	f240 0100 	movw	r1, #0
  78:	f2c0 0100 	movt	r1, #0
  7c:	f04f 32ff 	mov.w	r2, #4294967295	; 0xffffffff
  80:	f7ff fffe 	bl	0 <cbor_encoder_create_map>
  84:	9008      	str	r0, [sp, #32]
  86:	e7ff      	b.n	88 <_ZN5mylib9send_coap29send_sensor_data_to_collector17h2775c8d6cc261bd7E+0x88>
  88:	980c      	ldr	r0, [sp, #48]	; 0x30
  8a:	6801      	ldr	r1, [r0, #0]
  8c:	6840      	ldr	r0, [r0, #4]
  8e:	9007      	str	r0, [sp, #28]
  90:	4608      	mov	r0, r1
  92:	9907      	ldr	r1, [sp, #28]
  94:	f7ff fffe 	bl	0 <_ZN4core3str21_$LT$impl$u20$str$GT$6as_ptr17hca80eebebc99ccd9E>
  98:	9006      	str	r0, [sp, #24]
  9a:	e7ff      	b.n	9c <_ZN5mylib9send_coap29send_sensor_data_to_collector17h2775c8d6cc261bd7E+0x9c>
  9c:	980c      	ldr	r0, [sp, #48]	; 0x30
  9e:	6801      	ldr	r1, [r0, #0]
  a0:	6840      	ldr	r0, [r0, #4]
  a2:	9005      	str	r0, [sp, #20]
  a4:	4608      	mov	r0, r1
  a6:	9905      	ldr	r1, [sp, #20]
  a8:	f7ff fffe 	bl	0 <_ZN4core3str21_$LT$impl$u20$str$GT$3len17ha2e0db4a9f502071E>
  ac:	9004      	str	r0, [sp, #16]
  ae:	e7ff      	b.n	b0 <_ZN5mylib9send_coap29send_sensor_data_to_collector17h2775c8d6cc261bd7E+0xb0>
  b0:	f240 0000 	movw	r0, #0
  b4:	f2c0 0000 	movt	r0, #0
  b8:	9906      	ldr	r1, [sp, #24]
  ba:	9a04      	ldr	r2, [sp, #16]
  bc:	f7ff fffe 	bl	0 <cbor_encode_text_string>
  c0:	9003      	str	r0, [sp, #12]
  c2:	e7ff      	b.n	c4 <_ZN5mylib9send_coap29send_sensor_data_to_collector17h2775c8d6cc261bd7E+0xc4>
  c4:	f240 0000 	movw	r0, #0
  c8:	f2c0 0000 	movt	r0, #0
  cc:	f240 42d2 	movw	r2, #1234	; 0x4d2
  d0:	2300      	movs	r3, #0
  d2:	f7ff fffe 	bl	0 <cbor_encode_int>
  d6:	9002      	str	r0, [sp, #8]
  d8:	e7ff      	b.n	da <_ZN5mylib9send_coap29send_sensor_data_to_collector17h2775c8d6cc261bd7E+0xda>
  da:	f240 0000 	movw	r0, #0
  de:	f2c0 0000 	movt	r0, #0
  e2:	f240 0100 	movw	r1, #0
  e6:	f2c0 0100 	movt	r1, #0
  ea:	f7ff fffe 	bl	0 <cbor_encoder_close_container>
  ee:	9001      	str	r0, [sp, #4]
  f0:	e7ff      	b.n	f2 <_ZN5mylib9send_coap29send_sensor_data_to_collector17h2775c8d6cc261bd7E+0xf2>
  f2:	9813      	ldr	r0, [sp, #76]	; 0x4c
  f4:	9914      	ldr	r1, [sp, #80]	; 0x50
  f6:	9011      	str	r0, [sp, #68]	; 0x44
  f8:	9112      	str	r1, [sp, #72]	; 0x48
/mnt/c/stm32bluepill-mynewt-sensor/src/send_coap.rs:227
    let rc = unsafe { do_collector_post() };  assert!(rc);
  fa:	f7ff fffe 	bl	0 <do_collector_post>
  fe:	f88d 0057 	strb.w	r0, [sp, #87]	; 0x57
 102:	e7ff      	b.n	104 <_ZN5mylib9send_coap29send_sensor_data_to_collector17h2775c8d6cc261bd7E+0x104>
 104:	f89d 0057 	ldrb.w	r0, [sp, #87]	; 0x57
 108:	07c0      	lsls	r0, r0, #31
 10a:	2800      	cmp	r0, #0
 10c:	d107      	bne.n	11e <_ZN5mylib9send_coap29send_sensor_data_to_collector17h2775c8d6cc261bd7E+0x11e>
 10e:	e7ff      	b.n	110 <_ZN5mylib9send_coap29send_sensor_data_to_collector17h2775c8d6cc261bd7E+0x110>
 110:	f240 0000 	movw	r0, #0
 114:	f2c0 0000 	movt	r0, #0
 118:	f7ff fffe 	bl	0 <_ZN4core9panicking5panic17h53ca63c6ac6312f8E>
 11c:	defe      	udf	#254	; 0xfe
/mnt/c/stm32bluepill-mynewt-sensor/src/send_coap.rs:229
    console_print(b"NRF send to collector: rawtmp %d\n");  //  , val->int_val);  ////
 11e:	f240 0000 	movw	r0, #0
 122:	f2c0 0000 	movt	r0, #0
 126:	2121      	movs	r1, #33	; 0x21
 128:	f7ff fffe 	bl	0 <_ZN5mylib4base13console_print17h47a7ec4e529b3d82E>
 12c:	e7ff      	b.n	12e <_ZN5mylib9send_coap29send_sensor_data_to_collector17h2775c8d6cc261bd7E+0x12e>
 12e:	2000      	movs	r0, #0
/mnt/c/stm32bluepill-mynewt-sensor/src/send_coap.rs:233
    0
 130:	900f      	str	r0, [sp, #60]	; 0x3c
/mnt/c/stm32bluepill-mynewt-sensor/src/send_coap.rs:234
}
 132:	e77f      	b.n	34 <_ZN5mylib9send_coap29send_sensor_data_to_collector17h2775c8d6cc261bd7E+0x34>

mylib-ac95891f38e7979c.1p0bleeal0c8ffkh.rcgu.o:     file format elf32-littlearm

SYMBOL TABLE:
00000000 l    df *ABS*	00000000 1p0bleeal0c8ffkh
00000000 l       .debug_str	00000000 
00000041 l       .debug_str	00000000 
0000004c l       .debug_str	00000000 
0000006f l       .debug_str	00000000 
00000074 l       .debug_str	00000000 
00000078 l       .debug_str	00000000 
0000007b l       .debug_str	00000000 
0000007e l       .debug_str	00000000 
00000081 l       .debug_str	00000000 
00000086 l       .debug_str	00000000 
0000008c l       .debug_str	00000000 
00000093 l       .debug_str	00000000 
0000009b l       .debug_str	00000000 
000000a5 l       .debug_str	00000000 
000000ac l       .debug_str	00000000 
000000af l       .debug_str	00000000 
000000b3 l       .debug_str	00000000 
000000ba l       .debug_str	00000000 
000000c1 l       .debug_str	00000000 
000000ca l       .debug_str	00000000 
000000d4 l       .debug_str	00000000 
000000db l       .debug_str	00000000 
000000e1 l       .debug_str	00000000 
000000e6 l       .debug_str	00000000 
000000f2 l       .debug_str	00000000 
000000fa l       .debug_str	00000000 
00000101 l       .debug_str	00000000 
00000105 l       .debug_str	00000000 
0000010a l       .debug_str	00000000 
00000113 l       .debug_str	00000000 
00000118 l       .debug_str	00000000 
0000011b l       .debug_str	00000000 
0000011f l       .debug_str	00000000 
00000128 l       .debug_str	00000000 
0000012f l       .debug_str	00000000 
00000134 l       .debug_str	00000000 
00000139 l       .debug_str	00000000 
0000013f l       .debug_str	00000000 
00000145 l       .debug_str	00000000 
0000014f l       .debug_str	00000000 
00000152 l       .debug_str	00000000 
00000158 l       .debug_str	00000000 
00000162 l       .debug_str	00000000 
0000016a l       .debug_str	00000000 
00000170 l       .debug_str	00000000 
00000176 l       .debug_str	00000000 
00000181 l       .debug_str	00000000 
0000018a l       .debug_str	00000000 
000001ad l       .debug_str	00000000 
000001cc l       .debug_str	00000000 
000001ce l       .debug_str	00000000 
000001d3 l       .debug_str	00000000 
000001fa l       .debug_str	00000000 
000001ff l       .debug_str	00000000 
00000205 l       .debug_str	00000000 
0000020b l       .debug_str	00000000 
0000020e l       .debug_str	00000000 
0000021d l       .debug_str	00000000 
00000224 l       .debug_str	00000000 
00000228 l       .debug_str	00000000 
00000231 l       .debug_str	00000000 
00000239 l       .debug_str	00000000 
00000241 l       .debug_str	00000000 
00000248 l       .debug_str	00000000 
0000025c l       .debug_str	00000000 
00000268 l       .debug_str	00000000 
00000274 l       .debug_str	00000000 
0000028d l       .debug_str	00000000 
00000292 l       .debug_str	00000000 
000002a3 l       .debug_str	00000000 
000002ad l       .debug_str	00000000 
000002bb l       .debug_str	00000000 
000002bf l       .debug_str	00000000 
000002ca l       .debug_str	00000000 
000002d1 l       .debug_str	00000000 
000002d7 l       .debug_str	00000000 
000002db l       .debug_str	00000000 
000002df l       .debug_str	00000000 
000002e7 l       .debug_str	00000000 
000002fe l       .debug_str	00000000 
00000322 l       .debug_str	00000000 
0000033e l       .debug_str	00000000 
00000348 l       .debug_str	00000000 
00000362 l       .debug_str	00000000 
000003c0 l       .debug_str	00000000 
000003cb l       .debug_str	00000000 
000003e8 l       .debug_str	00000000 
00000401 l       .debug_str	00000000 
0000040b l       .debug_str	00000000 
0000043d l       .debug_str	00000000 
00000000 l    d  .text._ZN4core3fmt9Arguments6new_v117h0330c13173882f69E	00000000 .text._ZN4core3fmt9Arguments6new_v117h0330c13173882f69E
00000000 l    d  .debug_abbrev	00000000 .debug_abbrev
00000000 l    d  .debug_info	00000000 .debug_info
00000000 l    d  .debug_frame	00000000 .debug_frame
00000000 l    d  .debug_line	00000000 .debug_line
00000000 g     F .text._ZN4core3fmt9Arguments6new_v117h0330c13173882f69E	0000004c .hidden _ZN4core3fmt9Arguments6new_v117h0330c13173882f69E



Disassembly of section .text._ZN4core3fmt9Arguments6new_v117h0330c13173882f69E:

00000000 <_ZN4core3fmt9Arguments6new_v117h0330c13173882f69E>:
_ZN4core3fmt9Arguments6new_v117h0330c13173882f69E():
/rustc/50a0defd5a93523067ef239936cc2e0755220904/src/libcore/fmt/mod.rs:314
   0:	b570      	push	{r4, r5, r6, lr}
   2:	b08a      	sub	sp, #40	; 0x28
   4:	f8dd c038 	ldr.w	ip, [sp, #56]	; 0x38
   8:	469e      	mov	lr, r3
   a:	4614      	mov	r4, r2
   c:	460d      	mov	r5, r1
   e:	4606      	mov	r6, r0
  10:	9104      	str	r1, [sp, #16]
  12:	9205      	str	r2, [sp, #20]
  14:	9306      	str	r3, [sp, #24]
  16:	f8cd c01c 	str.w	ip, [sp, #28]
/rustc/50a0defd5a93523067ef239936cc2e0755220904/src/libcore/fmt/mod.rs:317
  1a:	9904      	ldr	r1, [sp, #16]
  1c:	9a05      	ldr	r2, [sp, #20]
  1e:	2300      	movs	r3, #0
/rustc/50a0defd5a93523067ef239936cc2e0755220904/src/libcore/fmt/mod.rs:318
  20:	9309      	str	r3, [sp, #36]	; 0x24
  22:	9308      	str	r3, [sp, #32]
  24:	9308      	str	r3, [sp, #32]
/rustc/50a0defd5a93523067ef239936cc2e0755220904/src/libcore/fmt/mod.rs:319
  26:	9b06      	ldr	r3, [sp, #24]
  28:	f8dd c01c 	ldr.w	ip, [sp, #28]
/rustc/50a0defd5a93523067ef239936cc2e0755220904/src/libcore/fmt/mod.rs:316
  2c:	6001      	str	r1, [r0, #0]
  2e:	6042      	str	r2, [r0, #4]
  30:	9908      	ldr	r1, [sp, #32]
  32:	9a09      	ldr	r2, [sp, #36]	; 0x24
  34:	6081      	str	r1, [r0, #8]
  36:	60c2      	str	r2, [r0, #12]
  38:	6103      	str	r3, [r0, #16]
  3a:	f8c0 c014 	str.w	ip, [r0, #20]
/rustc/50a0defd5a93523067ef239936cc2e0755220904/src/libcore/fmt/mod.rs:321
  3e:	f8cd e00c 	str.w	lr, [sp, #12]
  42:	9402      	str	r4, [sp, #8]
  44:	9501      	str	r5, [sp, #4]
  46:	9600      	str	r6, [sp, #0]
  48:	b00a      	add	sp, #40	; 0x28
  4a:	bd70      	pop	{r4, r5, r6, pc}

mylib-ac95891f38e7979c.1sy4lk16z0utqsak.rcgu.o:     file format elf32-littlearm

SYMBOL TABLE:
00000000 l    df *ABS*	00000000 1sy4lk16z0utqsak
00000000 l       .debug_str	00000000 
00000041 l       .debug_str	00000000 
0000004c l       .debug_str	00000000 
0000006f l       .debug_str	00000000 
00000074 l       .debug_str	00000000 
00000078 l       .debug_str	00000000 
0000007b l       .debug_str	00000000 
0000007e l       .debug_str	00000000 
00000081 l       .debug_str	00000000 
00000086 l       .debug_str	00000000 
0000008c l       .debug_str	00000000 
00000093 l       .debug_str	00000000 
0000009b l       .debug_str	00000000 
000000a5 l       .debug_str	00000000 
000000ac l       .debug_str	00000000 
000000af l       .debug_str	00000000 
000000b3 l       .debug_str	00000000 
000000ba l       .debug_str	00000000 
000000c0 l       .debug_str	00000000 
000000c9 l       .debug_str	00000000 
000000cd l       .debug_str	00000000 
000000f7 l       .debug_str	00000000 
000000fc l       .debug_str	00000000 
00000101 l       .debug_str	00000000 
00000103 l       .debug_str	00000000 
00000115 l       .debug_str	00000000 
0000011b l       .debug_str	00000000 
0000011e l       .debug_str	00000000 
00000122 l       .debug_str	00000000 
00000126 l       .debug_str	00000000 
00000129 l       .debug_str	00000000 
0000012b l       .debug_str	00000000 
0000012f l       .debug_str	00000000 
00000131 l       .debug_str	00000000 
00000141 l       .debug_str	00000000 
00000146 l       .debug_str	00000000 
0000014e l       .debug_str	00000000 
00000152 l       .debug_str	00000000 
0000015a l       .debug_str	00000000 
00000162 l       .debug_str	00000000 
00000169 l       .debug_str	00000000 
0000016f l       .debug_str	00000000 
00000183 l       .debug_str	00000000 
0000018f l       .debug_str	00000000 
00000194 l       .debug_str	00000000 
0000019c l       .debug_str	00000000 
000001a3 l       .debug_str	00000000 
000001a8 l       .debug_str	00000000 
000001af l       .debug_str	00000000 
000001b8 l       .debug_str	00000000 
000001c2 l       .debug_str	00000000 
000001c9 l       .debug_str	00000000 
000001ce l       .debug_str	00000000 
000001da l       .debug_str	00000000 
000001e2 l       .debug_str	00000000 
000001eb l       .debug_str	00000000 
000001f0 l       .debug_str	00000000 
000001f3 l       .debug_str	00000000 
000001fc l       .debug_str	00000000 
00000203 l       .debug_str	00000000 
00000208 l       .debug_str	00000000 
0000020d l       .debug_str	00000000 
00000213 l       .debug_str	00000000 
00000219 l       .debug_str	00000000 
00000223 l       .debug_str	00000000 
00000226 l       .debug_str	00000000 
0000022c l       .debug_str	00000000 
00000236 l       .debug_str	00000000 
0000023e l       .debug_str	00000000 
00000244 l       .debug_str	00000000 
0000024a l       .debug_str	00000000 
00000255 l       .debug_str	00000000 
0000025e l       .debug_str	00000000 
00000281 l       .debug_str	00000000 
000002a0 l       .debug_str	00000000 
000002a5 l       .debug_str	00000000 
000002cc l       .debug_str	00000000 
000002d1 l       .debug_str	00000000 
000002d7 l       .debug_str	00000000 
000002dd l       .debug_str	00000000 
000002ec l       .debug_str	00000000 
000002f3 l       .debug_str	00000000 
000002f7 l       .debug_str	00000000 
00000300 l       .debug_str	00000000 
0000030c l       .debug_str	00000000 
00000325 l       .debug_str	00000000 
0000032a l       .debug_str	00000000 
0000033b l       .debug_str	00000000 
00000345 l       .debug_str	00000000 
00000353 l       .debug_str	00000000 
00000357 l       .debug_str	00000000 
00000362 l       .debug_str	00000000 
00000369 l       .debug_str	00000000 
0000036f l       .debug_str	00000000 
00000373 l       .debug_str	00000000 
00000377 l       .debug_str	00000000 
0000037f l       .debug_str	00000000 
00000396 l       .debug_str	00000000 
000003ba l       .debug_str	00000000 
000003d6 l       .debug_str	00000000 
000003e0 l       .debug_str	00000000 
000003fa l       .debug_str	00000000 
00000458 l       .debug_str	00000000 
00000463 l       .debug_str	00000000 
00000480 l       .debug_str	00000000 
00000499 l       .debug_str	00000000 
000004a3 l       .debug_str	00000000 
000004b9 l       .debug_str	00000000 
000004d7 l       .debug_str	00000000 
000004e0 l       .debug_str	00000000 
000004e5 l       .debug_str	00000000 
000004ea l       .debug_str	00000000 
000004ee l       .debug_str	00000000 
000004f7 l       .debug_str	00000000 
00000501 l       .debug_str	00000000 
00000519 l       .debug_str	00000000 
00000000 l     O .rodata..Lanon.3ed011473997af99b525cde47c9eaaac.0	00000000 .Lanon.3ed011473997af99b525cde47c9eaaac.0
00000000 l     O .rodata..Lanon.3ed011473997af99b525cde47c9eaaac.3	00000018 .Lanon.3ed011473997af99b525cde47c9eaaac.3
00000000 l     O .rodata..Lanon.3ed011473997af99b525cde47c9eaaac.4	00000012 .Lanon.3ed011473997af99b525cde47c9eaaac.4
00000000 l     O .rodata..Lanon.3ed011473997af99b525cde47c9eaaac.5	00000009 .Lanon.3ed011473997af99b525cde47c9eaaac.5
00000000 l     O .rodata.cst8	00000008 .Lanon.3ed011473997af99b525cde47c9eaaac.6
00000000 l     O .rodata..Lanon.3ed011473997af99b525cde47c9eaaac.7	00000001 .Lanon.3ed011473997af99b525cde47c9eaaac.7
00000000 l    d  .text.main	00000000 .text.main
00000000 l    d  .text.rust_begin_unwind	00000000 .text.rust_begin_unwind
00000000 l    d  .rodata..Lanon.3ed011473997af99b525cde47c9eaaac.1	00000000 .rodata..Lanon.3ed011473997af99b525cde47c9eaaac.1
00000000 l    d  .rodata..Lanon.3ed011473997af99b525cde47c9eaaac.2	00000000 .rodata..Lanon.3ed011473997af99b525cde47c9eaaac.2
00000000 l    d  .debug_abbrev	00000000 .debug_abbrev
00000000 l    d  .debug_info	00000000 .debug_info
00000000 l    d  .debug_ranges	00000000 .debug_ranges
00000000 l    d  .debug_frame	00000000 .debug_frame
00000000 l    d  .debug_line	00000000 .debug_line
00000000         *UND*	00000000 .hidden _ZN4core3str21_$LT$impl$u20$str$GT$3len17ha2e0db4a9f502071E
00000000         *UND*	00000000 .hidden _ZN4core3str21_$LT$impl$u20$str$GT$6as_ptr17hca80eebebc99ccd9E
00000000         *UND*	00000000 _ZN4core5panic8Location4file17h94cc6af18de736c4E
00000000         *UND*	00000000 _ZN4core5panic8Location4line17h3ffc63f14d0a6636E
00000000         *UND*	00000000 _ZN4core5panic9PanicInfo8location17h5226165d8771f8a2E
00000000         *UND*	00000000 _ZN4core6result19Result$LT$T$C$E$GT$6expect17hf656a3fd5c2cb345E
00000000         *UND*	00000000 _ZN4core9panicking5panic17h53ca63c6ac6312f8E
00000000         *UND*	00000000 .hidden _ZN5mylib13listen_sensor21start_sensor_listener17h20948f110386186dE
00000000         *UND*	00000000 .hidden _ZN5mylib4base13console_print17h47a7ec4e529b3d82E
00000000         *UND*	00000000 .hidden _ZN5mylib9send_coap18start_network_task17hca6051abf27965cbE
00000000         *UND*	00000000 __bkpt
00000000         *UND*	00000000 console_buffer
00000000         *UND*	00000000 console_flush
00000000         *UND*	00000000 console_printhex
00000000 g     F .text.main	0000005e main
00000000         *UND*	00000000 os_eventq_dflt_get
00000000         *UND*	00000000 os_eventq_run
00000000 g     F .text.rust_begin_unwind	000000b6 rust_begin_unwind
00000000         *UND*	00000000 rust_sysinit



Disassembly of section .text.main:

00000000 <main>:
main():
/mnt/c/stm32bluepill-mynewt-sensor/src/lib.rs:26
use crate::listen_sensor::*;    //  Import listen_sensor.rs for polling the temperature sensor
use crate::send_coap::*;        //  Import send_coap.rs for sending sensor data

///  main() will be called at Mynewt startup. It replaces the C version of the main() function.
#[no_mangle]                     //  Don't mangle the name "main"
pub extern "C" fn main() -> ! {  //  Declare extern "C" because it will be called by Mynewt
   0:	b084      	sub	sp, #16
/mnt/c/stm32bluepill-mynewt-sensor/src/lib.rs:28
    //  Init Mynewt system.
    unsafe { rust_sysinit()  };
   2:	f7ff fffe 	bl	0 <rust_sysinit>
   6:	e7ff      	b.n	2 <console_flush+0x2>
/mnt/c/stm32bluepill-mynewt-sensor/src/lib.rs:29
    unsafe { console_flush() };
   8:	f7ff fffe 	bl	0 <console_flush>
   c:	e7ff      	b.n	2 <_ZN5mylib9send_coap18start_network_task17hca6051abf27965cbE+0x2>
/mnt/c/stm32bluepill-mynewt-sensor/src/lib.rs:34

    //  Start the Network Task in the background.  The Network Task prepares the ESP8266 or nRF24L01 transceiver for
    //  sending CoAP messages.  We connect the ESP8266 to the WiFi access point and register
    //  the ESP8266/nRF24L01 driver as the network transport for CoAP.  Also perform WiFi Geolocation if it is enabled.
    let rc = start_network_task();  
   e:	f7ff fffe 	bl	0 <_ZN5mylib9send_coap18start_network_task17hca6051abf27965cbE>
  12:	9102      	str	r1, [sp, #8]
  14:	9001      	str	r0, [sp, #4]
  16:	e7ff      	b.n	18 <main+0x18>
/mnt/c/stm32bluepill-mynewt-sensor/src/lib.rs:35
    rc.expect("");  //  TODO: Use ?
  18:	9801      	ldr	r0, [sp, #4]
  1a:	9902      	ldr	r1, [sp, #8]
  1c:	f240 0200 	movw	r2, #0
  20:	f2c0 0200 	movt	r2, #0
  24:	2300      	movs	r3, #0
  26:	f7ff fffe 	bl	0 <_ZN4core6result19Result$LT$T$C$E$GT$6expect17hf656a3fd5c2cb345E>
  2a:	e7ff      	b.n	2 <_ZN5mylib13listen_sensor21start_sensor_listener17h20948f110386186dE+0x2>
/mnt/c/stm32bluepill-mynewt-sensor/src/lib.rs:41
    //  assert!(rc == 0);

    //  Starting polling the temperature sensor every 10 seconds in the background.  
    //  After polling the sensor, call the listener function to send the sensor data to the CoAP server or Collector Node.
    //  If this is the Collector Node, we shall wait for sensor data from the Sensor Nodes and transmit to the CoAP server.
    let rc = start_sensor_listener();  assert!(rc == 0);
  2c:	f7ff fffe 	bl	0 <_ZN5mylib13listen_sensor21start_sensor_listener17h20948f110386186dE>
  30:	9003      	str	r0, [sp, #12]
  32:	e7ff      	b.n	34 <main+0x34>
  34:	9803      	ldr	r0, [sp, #12]
  36:	2800      	cmp	r0, #0
  38:	d007      	beq.n	4a <main+0x4a>
  3a:	e7ff      	b.n	3c <main+0x3c>
  3c:	f240 0000 	movw	r0, #0
  40:	f2c0 0000 	movt	r0, #0
  44:	f7ff fffe 	bl	0 <_ZN4core9panicking5panic17h53ca63c6ac6312f8E>
  48:	defe      	udf	#254	; 0xfe
/mnt/c/stm32bluepill-mynewt-sensor/src/lib.rs:53
        }
    }; */
    // ::core::panicking::panic(expr_file_line_col: &(&'static str, &'static str, u32, u32))

    //  Main event loop
    loop {                            //  Loop forever...
  4a:	e7ff      	b.n	4c <main+0x4c>
/mnt/c/stm32bluepill-mynewt-sensor/src/lib.rs:56
        unsafe {
            os_eventq_run(            //  Process events...
                os_eventq_dflt_get()  //  From default event queue.
  4c:	f7ff fffe 	bl	0 <os_eventq_dflt_get>
  50:	9000      	str	r0, [sp, #0]
  52:	e7ff      	b.n	54 <main+0x54>
/mnt/c/stm32bluepill-mynewt-sensor/src/lib.rs:55
            os_eventq_run(            //  Process events...
  54:	9800      	ldr	r0, [sp, #0]
  56:	f7ff fffe 	bl	0 <os_eventq_run>
  5a:	e7ff      	b.n	5c <main+0x5c>
/mnt/c/stm32bluepill-mynewt-sensor/src/lib.rs:53
    loop {                            //  Loop forever...
  5c:	e7f6      	b.n	4c <main+0x4c>

Disassembly of section .text.rust_begin_unwind:

00000000 <rust_begin_unwind>:
rust_begin_unwind():
/mnt/c/stm32bluepill-mynewt-sensor/src/lib.rs:65
    //  Never comes here.
}

///  This function is called on panic, like an assertion failure. We display the filename and line number and pause in the debugger. From https://os.phil-opp.com/freestanding-rust-binary/
#[panic_handler]
fn panic(info: &PanicInfo) -> ! {
   0:	b08a      	sub	sp, #40	; 0x28
   2:	4601      	mov	r1, r0
   4:	9003      	str	r0, [sp, #12]
/mnt/c/stm32bluepill-mynewt-sensor/src/lib.rs:67
    //  Display the filename and line number to the Semihosting Console.
    if let Some(location) = info.location() {
   6:	9803      	ldr	r0, [sp, #12]
   8:	9102      	str	r1, [sp, #8]
   a:	f7ff fffe 	bl	0 <_ZN4core5panic9PanicInfo8location17h5226165d8771f8a2E>
   e:	9005      	str	r0, [sp, #20]
  10:	e7ff      	b.n	12 <rust_begin_unwind+0x12>
  12:	9805      	ldr	r0, [sp, #20]
  14:	2800      	cmp	r0, #0
  16:	d03f      	beq.n	98 <rust_begin_unwind+0x98>
  18:	e7ff      	b.n	1a <rust_begin_unwind+0x1a>
  1a:	9805      	ldr	r0, [sp, #20]
  1c:	9006      	str	r0, [sp, #24]
/mnt/c/stm32bluepill-mynewt-sensor/src/lib.rs:68
        let file = location.file();
  1e:	9806      	ldr	r0, [sp, #24]
  20:	f7ff fffe 	bl	0 <_ZN4core5panic8Location4file17h94cc6af18de736c4E>
  24:	9108      	str	r1, [sp, #32]
  26:	9007      	str	r0, [sp, #28]
  28:	e7ff      	b.n	2a <rust_begin_unwind+0x2a>
/mnt/c/stm32bluepill-mynewt-sensor/src/lib.rs:69
        let line = location.line();
  2a:	9806      	ldr	r0, [sp, #24]
  2c:	f7ff fffe 	bl	0 <_ZN4core5panic8Location4line17h3ffc63f14d0a6636E>
  30:	9009      	str	r0, [sp, #36]	; 0x24
  32:	e7ff      	b.n	34 <rust_begin_unwind+0x34>
/mnt/c/stm32bluepill-mynewt-sensor/src/lib.rs:70
        console_print(b"panic at ");
  34:	f240 0000 	movw	r0, #0
  38:	f2c0 0000 	movt	r0, #0
  3c:	2109      	movs	r1, #9
  3e:	f7ff fffe 	bl	0 <_ZN5mylib4base13console_print17h47a7ec4e529b3d82E>
  42:	e7ff      	b.n	44 <rust_begin_unwind+0x44>
/mnt/c/stm32bluepill-mynewt-sensor/src/lib.rs:71
        unsafe { console_buffer(file.as_ptr(), file.len() as u32) }
  44:	9807      	ldr	r0, [sp, #28]
  46:	9908      	ldr	r1, [sp, #32]
  48:	f7ff fffe 	bl	0 <_ZN4core3str21_$LT$impl$u20$str$GT$6as_ptr17hca80eebebc99ccd9E>
  4c:	9001      	str	r0, [sp, #4]
  4e:	e7ff      	b.n	50 <rust_begin_unwind+0x50>
  50:	9807      	ldr	r0, [sp, #28]
  52:	9908      	ldr	r1, [sp, #32]
  54:	f7ff fffe 	bl	0 <_ZN4core3str21_$LT$impl$u20$str$GT$3len17ha2e0db4a9f502071E>
  58:	9000      	str	r0, [sp, #0]
  5a:	e7ff      	b.n	5c <rust_begin_unwind+0x5c>
  5c:	9801      	ldr	r0, [sp, #4]
  5e:	9900      	ldr	r1, [sp, #0]
  60:	f7ff fffe 	bl	0 <console_buffer>
  64:	e7ff      	b.n	2 <rust_begin_unwind+0x2>
/mnt/c/stm32bluepill-mynewt-sensor/src/lib.rs:72
        console_print(b" line 0x");
  66:	f240 0000 	movw	r0, #0
  6a:	f2c0 0000 	movt	r0, #0
  6e:	2108      	movs	r1, #8
  70:	f7ff fffe 	bl	0 <_ZN5mylib4base13console_print17h47a7ec4e529b3d82E>
  74:	e7ff      	b.n	76 <rust_begin_unwind+0x76>
/mnt/c/stm32bluepill-mynewt-sensor/src/lib.rs:73
        unsafe { console_printhex(line as u8) }  //  TODO: Print in decimal not hex. Allow more than 255 lines.
  76:	f89d 0024 	ldrb.w	r0, [sp, #36]	; 0x24
  7a:	f7ff fffe 	bl	0 <console_printhex>
  7e:	e7ff      	b.n	2 <rust_begin_unwind+0x2>
/mnt/c/stm32bluepill-mynewt-sensor/src/lib.rs:74
        console_print(b"\n");
  80:	f240 0000 	movw	r0, #0
  84:	f2c0 0000 	movt	r0, #0
  88:	2101      	movs	r1, #1
  8a:	f7ff fffe 	bl	0 <_ZN5mylib4base13console_print17h47a7ec4e529b3d82E>
  8e:	e7ff      	b.n	2 <console_flush+0x2>
/mnt/c/stm32bluepill-mynewt-sensor/src/lib.rs:75
        unsafe { console_flush() }
  90:	f7ff fffe 	bl	0 <console_flush>
  94:	e7ff      	b.n	96 <rust_begin_unwind+0x96>
/mnt/c/stm32bluepill-mynewt-sensor/src/lib.rs:67
    if let Some(location) = info.location() {
  96:	e00a      	b.n	ae <rust_begin_unwind+0xae>
/mnt/c/stm32bluepill-mynewt-sensor/src/lib.rs:77
    } else {
        console_print(b"panic unknown loc\n");
  98:	f240 0000 	movw	r0, #0
  9c:	f2c0 0000 	movt	r0, #0
  a0:	2112      	movs	r1, #18
  a2:	f7ff fffe 	bl	0 <_ZN5mylib4base13console_print17h47a7ec4e529b3d82E>
  a6:	e7ff      	b.n	2 <console_flush+0x2>
/mnt/c/stm32bluepill-mynewt-sensor/src/lib.rs:78
        unsafe { console_flush() }
  a8:	f7ff fffe 	bl	0 <console_flush>
  ac:	e7ff      	b.n	2 <__bkpt+0x2>
_ZN8cortex_m3asm4bkpt17ha12387e1b6ef82e6E():
/home/user/.cargo/registry/src/github.com-1ecc6299db9ec823/cortex-m-0.6.0/src/asm.rs:19
        () => unsafe {
            extern "C" {
                fn __bkpt();
            }

            __bkpt();
  ae:	f7ff fffe 	bl	0 <__bkpt>
rust_begin_unwind():
/mnt/c/stm32bluepill-mynewt-sensor/src/lib.rs:81
    }
    //  Pause in the debugger.
    bkpt();
  b2:	e7ff      	b.n	b4 <rust_begin_unwind+0xb4>
/mnt/c/stm32bluepill-mynewt-sensor/src/lib.rs:83
    //  Loop forever so that device won't restart.
    loop {}
  b4:	e7fe      	b.n	b4 <rust_begin_unwind+0xb4>

mylib-ac95891f38e7979c.26updx3t07wdtj2j.rcgu.o:     file format elf32-littlearm

SYMBOL TABLE:
00000000 l    df *ABS*	00000000 26updx3t07wdtj2j
00000000 l       .debug_str	00000000 
00000041 l       .debug_str	00000000 
0000004c l       .debug_str	00000000 
0000006f l       .debug_str	00000000 
00000079 l       .debug_str	00000000 
0000007f l       .debug_str	00000000 
00000082 l       .debug_str	00000000 
00000096 l       .debug_str	00000000 
0000009b l       .debug_str	00000000 
000000d5 l       .debug_str	00000000 
000000e7 l       .debug_str	00000000 
000000f0 l       .debug_str	00000000 
000000fa l       .debug_str	00000000 
00000101 l       .debug_str	00000000 
00000107 l       .debug_str	00000000 
0000010d l       .debug_str	00000000 
0000013b l       .debug_str	00000000 
00000142 l       .debug_str	00000000 
00000172 l       .debug_str	00000000 
0000017b l       .debug_str	00000000 
00000180 l       .debug_str	00000000 
00000191 l       .debug_str	00000000 
00000000 l     O .rodata..Lanon.dc33403061768eb3c9c87766cc08a14e.0	00000018 .Lanon.dc33403061768eb3c9c87766cc08a14e.0
00000000 l     F .text._ZN9cstr_core4CStr17to_bytes_with_nul17hf88d190b0f53f380E	00000016 _ZN9cstr_core4CStr17to_bytes_with_nul17hf88d190b0f53f380E
00000000 l     O .rodata.str.0	00000055 str.0
00000000 l     O .rodata.str.1	00000021 str.1
00000000 l    d  .text._ZN9cstr_core4CStr17to_bytes_with_nul17hf88d190b0f53f380E	00000000 .text._ZN9cstr_core4CStr17to_bytes_with_nul17hf88d190b0f53f380E
00000000 l    d  .text._ZN9cstr_core4CStr6as_ptr17he24d76f5592466e4E	00000000 .text._ZN9cstr_core4CStr6as_ptr17he24d76f5592466e4E
00000000 l    d  .text._ZN9cstr_core4CStr8to_bytes17h69a4c26bfbbcb548E	00000000 .text._ZN9cstr_core4CStr8to_bytes17h69a4c26bfbbcb548E
00000000 l    d  .rodata.str.0	00000000 .rodata.str.0
00000000 l    d  .rodata.str.1	00000000 .rodata.str.1
00000000 l    d  .debug_abbrev	00000000 .debug_abbrev
00000000 l    d  .debug_info	00000000 .debug_info
00000000 l    d  .debug_ranges	00000000 .debug_ranges
00000000 l    d  .debug_frame	00000000 .debug_frame
00000000 l    d  .debug_line	00000000 .debug_line
00000000         *UND*	00000000 _ZN4core5slice29_$LT$impl$u20$$u5b$T$u5d$$GT$3len17h8c76a39fea4234d0E
00000000         *UND*	00000000 _ZN4core5slice29_$LT$impl$u20$$u5b$T$u5d$$GT$6as_ptr17h6e6820e87d479c61E
00000000         *UND*	00000000 _ZN4core5slice74_$LT$impl$u20$core..ops..index..Index$LT$I$GT$$u20$for$u20$$u5b$T$u5d$$GT$5index17h23d2cad5b81b9edeE
00000000         *UND*	00000000 _ZN4core9panicking5panic17h53ca63c6ac6312f8E
00000000 g     F .text._ZN9cstr_core4CStr6as_ptr17he24d76f5592466e4E	00000022 .hidden _ZN9cstr_core4CStr6as_ptr17he24d76f5592466e4E
00000000 g     F .text._ZN9cstr_core4CStr8to_bytes17h69a4c26bfbbcb548E	00000064 .hidden _ZN9cstr_core4CStr8to_bytes17h69a4c26bfbbcb548E



Disassembly of section .text._ZN9cstr_core4CStr17to_bytes_with_nul17hf88d190b0f53f380E:

00000000 <_ZN9cstr_core4CStr17to_bytes_with_nul17hf88d190b0f53f380E>:
_ZN9cstr_core4CStr17to_bytes_with_nul17hf88d190b0f53f380E():
/home/user/.cargo/registry/src/github.com-1ecc6299db9ec823/cstr_core-0.1.2/src/lib.rs:1056
    ///
    /// let c_str = CStr::from_bytes_with_nul(b"foo\0").unwrap();
    /// assert_eq!(c_str.to_bytes_with_nul(), b"foo\0");
    /// ```
    #[inline]
    pub fn to_bytes_with_nul(&self) -> &[u8] {
   0:	b084      	sub	sp, #16
   2:	460a      	mov	r2, r1
   4:	4603      	mov	r3, r0
   6:	9002      	str	r0, [sp, #8]
   8:	9103      	str	r1, [sp, #12]
/home/user/.cargo/registry/src/github.com-1ecc6299db9ec823/cstr_core-0.1.2/src/lib.rs:1057
        unsafe { &*(&self.inner as *const [c_char] as *const [u8]) }
   a:	9802      	ldr	r0, [sp, #8]
   c:	9903      	ldr	r1, [sp, #12]
/home/user/.cargo/registry/src/github.com-1ecc6299db9ec823/cstr_core-0.1.2/src/lib.rs:1058
    }
   e:	9201      	str	r2, [sp, #4]
  10:	9300      	str	r3, [sp, #0]
  12:	b004      	add	sp, #16
  14:	4770      	bx	lr

Disassembly of section .text._ZN9cstr_core4CStr6as_ptr17he24d76f5592466e4E:

00000000 <_ZN9cstr_core4CStr6as_ptr17he24d76f5592466e4E>:
_ZN9cstr_core4CStr6as_ptr17he24d76f5592466e4E():
/home/user/.cargo/registry/src/github.com-1ecc6299db9ec823/cstr_core-0.1.2/src/lib.rs:1005
    pub fn as_ptr(&self) -> *const c_char {
   0:	b580      	push	{r7, lr}
   2:	b086      	sub	sp, #24
   4:	460a      	mov	r2, r1
   6:	4603      	mov	r3, r0
   8:	9004      	str	r0, [sp, #16]
   a:	9105      	str	r1, [sp, #20]
/home/user/.cargo/registry/src/github.com-1ecc6299db9ec823/cstr_core-0.1.2/src/lib.rs:1006
        self.inner.as_ptr()
   c:	9804      	ldr	r0, [sp, #16]
   e:	9905      	ldr	r1, [sp, #20]
  10:	9203      	str	r2, [sp, #12]
  12:	9302      	str	r3, [sp, #8]
  14:	f7ff fffe 	bl	0 <_ZN4core5slice29_$LT$impl$u20$$u5b$T$u5d$$GT$6as_ptr17h6e6820e87d479c61E>
  18:	9001      	str	r0, [sp, #4]
  1a:	e7ff      	b.n	1c <_ZN9cstr_core4CStr6as_ptr17he24d76f5592466e4E+0x1c>
/home/user/.cargo/registry/src/github.com-1ecc6299db9ec823/cstr_core-0.1.2/src/lib.rs:1007
    }
  1c:	9801      	ldr	r0, [sp, #4]
  1e:	b006      	add	sp, #24
  20:	bd80      	pop	{r7, pc}

Disassembly of section .text._ZN9cstr_core4CStr8to_bytes17h69a4c26bfbbcb548E:

00000000 <_ZN9cstr_core4CStr8to_bytes17h69a4c26bfbbcb548E>:
_ZN9cstr_core4CStr8to_bytes17h69a4c26bfbbcb548E():
/home/user/.cargo/registry/src/github.com-1ecc6299db9ec823/cstr_core-0.1.2/src/lib.rs:1031
    pub fn to_bytes(&self) -> &[u8] {
   0:	b580      	push	{r7, lr}
   2:	b08e      	sub	sp, #56	; 0x38
   4:	460a      	mov	r2, r1
   6:	4603      	mov	r3, r0
   8:	9009      	str	r0, [sp, #36]	; 0x24
   a:	910a      	str	r1, [sp, #40]	; 0x28
/home/user/.cargo/registry/src/github.com-1ecc6299db9ec823/cstr_core-0.1.2/src/lib.rs:1032
        let bytes = self.to_bytes_with_nul();
   c:	9809      	ldr	r0, [sp, #36]	; 0x24
   e:	990a      	ldr	r1, [sp, #40]	; 0x28
  10:	9208      	str	r2, [sp, #32]
  12:	9307      	str	r3, [sp, #28]
  14:	f7ff fffe 	bl	0 <_ZN9cstr_core4CStr8to_bytes17h69a4c26bfbbcb548E>
  18:	910c      	str	r1, [sp, #48]	; 0x30
  1a:	900b      	str	r0, [sp, #44]	; 0x2c
  1c:	e7ff      	b.n	1e <_ZN9cstr_core4CStr8to_bytes17h69a4c26bfbbcb548E+0x1e>
/home/user/.cargo/registry/src/github.com-1ecc6299db9ec823/cstr_core-0.1.2/src/lib.rs:1033
        &bytes[..bytes.len() - 1]
  1e:	980b      	ldr	r0, [sp, #44]	; 0x2c
  20:	990c      	ldr	r1, [sp, #48]	; 0x30
  22:	9006      	str	r0, [sp, #24]
  24:	9105      	str	r1, [sp, #20]
  26:	f7ff fffe 	bl	0 <_ZN4core5slice29_$LT$impl$u20$$u5b$T$u5d$$GT$3len17h8c76a39fea4234d0E>
  2a:	9004      	str	r0, [sp, #16]
  2c:	e7ff      	b.n	2e <_ZN9cstr_core4CStr8to_bytes17h69a4c26bfbbcb548E+0x2e>
  2e:	9804      	ldr	r0, [sp, #16]
  30:	1e41      	subs	r1, r0, #1
  32:	2801      	cmp	r0, #1
  34:	9103      	str	r1, [sp, #12]
  36:	d30e      	bcc.n	56 <_ZN9cstr_core4CStr8to_bytes17h69a4c26bfbbcb548E+0x56>
  38:	e7ff      	b.n	3a <_ZN9cstr_core4CStr8to_bytes17h69a4c26bfbbcb548E+0x3a>
  3a:	9803      	ldr	r0, [sp, #12]
  3c:	900d      	str	r0, [sp, #52]	; 0x34
  3e:	9a0d      	ldr	r2, [sp, #52]	; 0x34
  40:	9806      	ldr	r0, [sp, #24]
  42:	9905      	ldr	r1, [sp, #20]
  44:	f7ff fffe 	bl	0 <_ZN4core5slice74_$LT$impl$u20$core..ops..index..Index$LT$I$GT$$u20$for$u20$$u5b$T$u5d$$GT$5index17h23d2cad5b81b9edeE>
  48:	9002      	str	r0, [sp, #8]
  4a:	9101      	str	r1, [sp, #4]
  4c:	e7ff      	b.n	4e <_ZN9cstr_core4CStr8to_bytes17h69a4c26bfbbcb548E+0x4e>
/home/user/.cargo/registry/src/github.com-1ecc6299db9ec823/cstr_core-0.1.2/src/lib.rs:1034
    }
  4e:	9802      	ldr	r0, [sp, #8]
  50:	9901      	ldr	r1, [sp, #4]
  52:	b00e      	add	sp, #56	; 0x38
  54:	bd80      	pop	{r7, pc}
/home/user/.cargo/registry/src/github.com-1ecc6299db9ec823/cstr_core-0.1.2/src/lib.rs:1033
        &bytes[..bytes.len() - 1]
  56:	f240 0000 	movw	r0, #0
  5a:	f2c0 0000 	movt	r0, #0
  5e:	f7ff fffe 	bl	0 <_ZN4core9panicking5panic17h53ca63c6ac6312f8E>
  62:	defe      	udf	#254	; 0xfe

mylib-ac95891f38e7979c.29x7oqvwgrpr4c8r.rcgu.o:     file format elf32-littlearm

SYMBOL TABLE:
00000000 l    df *ABS*	00000000 29x7oqvwgrpr4c8r
00000000 l       .debug_str	00000000 
00000041 l       .debug_str	00000000 
0000004c l       .debug_str	00000000 
0000006f l       .debug_str	00000000 
00000075 l       .debug_str	00000000 
0000007c l       .debug_str	00000000 
00000083 l       .debug_str	00000000 
00000087 l       .debug_str	00000000 
00000091 l       .debug_str	00000000 
0000009b l       .debug_str	00000000 
000000a1 l       .debug_str	00000000 
000000af l       .debug_str	00000000 
000000f3 l       .debug_str	00000000 
00000109 l       .debug_str	00000000 
0000010d l       .debug_str	00000000 
0000014c l       .debug_str	00000000 
0000015d l       .debug_str	00000000 
0000019b l       .debug_str	00000000 
000001ab l       .debug_str	00000000 
000001b0 l       .debug_str	00000000 
000001b4 l       .debug_str	00000000 
000001bd l       .debug_str	00000000 
000001c0 l       .debug_str	00000000 
000001ca l       .debug_str	00000000 
000001d1 l       .debug_str	00000000 
000001d7 l       .debug_str	00000000 
000001dc l       .debug_str	00000000 
000001e0 l       .debug_str	00000000 
000001e5 l       .debug_str	00000000 
000001ea l       .debug_str	00000000 
000001ee l       .debug_str	00000000 
000001f4 l       .debug_str	00000000 
000001f8 l       .debug_str	00000000 
00000208 l       .debug_str	00000000 
00000214 l       .debug_str	00000000 
00000217 l       .debug_str	00000000 
0000023b l       .debug_str	00000000 
00000244 l       .debug_str	00000000 
00000253 l       .debug_str	00000000 
00000257 l       .debug_str	00000000 
0000025f l       .debug_str	00000000 
000002c8 l       .debug_str	00000000 
000002cf l       .debug_str	00000000 
000002d7 l       .debug_str	00000000 
000002e6 l       .debug_str	00000000 
000002eb l       .debug_str	00000000 
000002f7 l       .debug_str	00000000 
00000303 l       .debug_str	00000000 
0000030a l       .debug_str	00000000 
0000031a l       .debug_str	00000000 
00000326 l       .debug_str	00000000 
00000330 l       .debug_str	00000000 
00000336 l       .debug_str	00000000 
0000034a l       .debug_str	00000000 
0000034f l       .debug_str	00000000 
00000360 l       .debug_str	00000000 
00000372 l       .debug_str	00000000 
0000037f l       .debug_str	00000000 
0000038b l       .debug_str	00000000 
00000399 l       .debug_str	00000000 
000003b0 l       .debug_str	00000000 
000003c2 l       .debug_str	00000000 
000003e2 l       .debug_str	00000000 
000003eb l       .debug_str	00000000 
000003f4 l       .debug_str	00000000 
00000406 l       .debug_str	00000000 
00000000 l     O .rodata..Lanon.32e44b06c4d24b342963a6a6b9d75415.0	0000000a .Lanon.32e44b06c4d24b342963a6a6b9d75415.0
00000000 l     O .rodata..Lanon.32e44b06c4d24b342963a6a6b9d75415.1	0000000d .Lanon.32e44b06c4d24b342963a6a6b9d75415.1
00000000 l     O .rodata..Lanon.32e44b06c4d24b342963a6a6b9d75415.10	00000018 .Lanon.32e44b06c4d24b342963a6a6b9d75415.10
00000000 l     O .rodata..Lanon.32e44b06c4d24b342963a6a6b9d75415.11	00000016 .Lanon.32e44b06c4d24b342963a6a6b9d75415.11
00000000 l     O .rodata..Lanon.32e44b06c4d24b342963a6a6b9d75415.12	00000018 .Lanon.32e44b06c4d24b342963a6a6b9d75415.12
00000000 l     O .rodata..Lanon.32e44b06c4d24b342963a6a6b9d75415.13	00000018 .Lanon.32e44b06c4d24b342963a6a6b9d75415.13
00000000 l     O .rodata..Lanon.32e44b06c4d24b342963a6a6b9d75415.14	00000018 .Lanon.32e44b06c4d24b342963a6a6b9d75415.14
00000000 l     O .rodata..Lanon.32e44b06c4d24b342963a6a6b9d75415.15	00000019 .Lanon.32e44b06c4d24b342963a6a6b9d75415.15
00000000 l     O .rodata..Lanon.32e44b06c4d24b342963a6a6b9d75415.16	00000001 .Lanon.32e44b06c4d24b342963a6a6b9d75415.16
00000000 l     O .rodata..Lanon.32e44b06c4d24b342963a6a6b9d75415.4	00000018 .Lanon.32e44b06c4d24b342963a6a6b9d75415.4
00000000 l     O .rodata..Lanon.32e44b06c4d24b342963a6a6b9d75415.6	00000018 .Lanon.32e44b06c4d24b342963a6a6b9d75415.6
00000000 l     O .rodata..Lanon.32e44b06c4d24b342963a6a6b9d75415.7	00000018 .Lanon.32e44b06c4d24b342963a6a6b9d75415.7
00000000 l     O .rodata..Lanon.32e44b06c4d24b342963a6a6b9d75415.8	00000011 .Lanon.32e44b06c4d24b342963a6a6b9d75415.8
00000000 l     F .text._ZN5mylib13listen_sensor15get_temperature17hf02a882c2141679eE	00000138 _ZN5mylib13listen_sensor15get_temperature17hf02a882c2141679eE
00000000 l     F .text._ZN5mylib13listen_sensor16read_temperature17h98575e0f2df03735E	000000f8 _ZN5mylib13listen_sensor16read_temperature17h98575e0f2df03735E
00000000 l    d  .text._ZN5mylib13listen_sensor21start_sensor_listener17h20948f110386186dE	00000000 .text._ZN5mylib13listen_sensor21start_sensor_listener17h20948f110386186dE
00000000 l    d  .text._ZN5mylib13listen_sensor16read_temperature17h98575e0f2df03735E	00000000 .text._ZN5mylib13listen_sensor16read_temperature17h98575e0f2df03735E
00000000 l    d  .text._ZN5mylib13listen_sensor15get_temperature17hf02a882c2141679eE	00000000 .text._ZN5mylib13listen_sensor15get_temperature17hf02a882c2141679eE
00000000 l    d  .rodata..Lanon.32e44b06c4d24b342963a6a6b9d75415.2	00000000 .rodata..Lanon.32e44b06c4d24b342963a6a6b9d75415.2
00000000 l    d  .rodata..Lanon.32e44b06c4d24b342963a6a6b9d75415.3	00000000 .rodata..Lanon.32e44b06c4d24b342963a6a6b9d75415.3
00000000 l    d  .rodata..Lanon.32e44b06c4d24b342963a6a6b9d75415.5	00000000 .rodata..Lanon.32e44b06c4d24b342963a6a6b9d75415.5
00000000 l    d  .rodata..Lanon.32e44b06c4d24b342963a6a6b9d75415.9	00000000 .rodata..Lanon.32e44b06c4d24b342963a6a6b9d75415.9
00000000 l    d  .debug_abbrev	00000000 .debug_abbrev
00000000 l    d  .debug_info	00000000 .debug_info
00000000 l    d  .debug_ranges	00000000 .debug_ranges
00000000 l    d  .debug_frame	00000000 .debug_frame
00000000 l    d  .debug_line	00000000 .debug_line
00000000         *UND*	00000000 _ZN4core9panicking5panic17h53ca63c6ac6312f8E
00000000 g     F .text._ZN5mylib13listen_sensor21start_sensor_listener17h20948f110386186dE	000000ca .hidden _ZN5mylib13listen_sensor21start_sensor_listener17h20948f110386186dE
00000000         *UND*	00000000 .hidden _ZN5mylib4base13console_print17h47a7ec4e529b3d82E
00000000         *UND*	00000000 .hidden _ZN5mylib6mynewt6sensor17register_listener17h36152b4d732de144E
00000000         *UND*	00000000 .hidden _ZN5mylib9send_coap16send_sensor_data17h610afad13e46ff09E
00000000         *UND*	00000000 .hidden _ZN67_$LT$mylib..base..SensorValue$u20$as$u20$core..default..Default$GT$7default17hcb08cd325439514dE
00000000         *UND*	00000000 _ZN9cstr_core4CStr8from_ptr17hf882b52c821e39a0E
00000000         *UND*	00000000 device_get_name
00000000         *UND*	00000000 get_temp_data
00000000         *UND*	00000000 get_temp_raw_data
00000000         *UND*	00000000 is_null_sensor
00000000         *UND*	00000000 is_null_sensor_data
00000000         *UND*	00000000 null_sensor
00000000         *UND*	00000000 sensor_get_device
00000000         *UND*	00000000 sensor_mgr_find_next_bydevname
00000000         *UND*	00000000 sensor_set_poll_rate_ms



Disassembly of section .text._ZN5mylib13listen_sensor21start_sensor_listener17h20948f110386186dE:

00000000 <_ZN5mylib13listen_sensor21start_sensor_listener17h20948f110386186dE>:
_ZN5mylib13listen_sensor21start_sensor_listener17h20948f110386186dE():
/mnt/c/stm32bluepill-mynewt-sensor/src/listen_sensor.rs:30
///  Listener Function to send the sensor data to the Collector Node (if this is a Sensor Node)
///  or CoAP Server (is this is a Standalone Node).
///  For Collector Node: Start the Listeners for Remote Sensor 
///  Otherwise this is a Standalone Node with ESP8266, or a Sensor Node with nRF24L01.
///  Return 0 if successful.
pub fn start_sensor_listener() -> i32 {
   0:	b5f0      	push	{r4, r5, r6, r7, lr}
   2:	b093      	sub	sp, #76	; 0x4c
/mnt/c/stm32bluepill-mynewt-sensor/src/listen_sensor.rs:31
    console_print(b"TMP poll \n");  //  SENSOR_DEVICE "\n";
   4:	f240 0000 	movw	r0, #0
   8:	f2c0 0000 	movt	r0, #0
   c:	210a      	movs	r1, #10
   e:	f7ff fffe 	bl	0 <_ZN5mylib4base13console_print17h47a7ec4e529b3d82E>
  12:	e7ff      	b.n	2 <_ZN5mylib13listen_sensor21start_sensor_listener17h20948f110386186dE+0x2>
/mnt/c/stm32bluepill-mynewt-sensor/src/listen_sensor.rs:34

    //  Set the sensor polling time to 10 seconds.  SENSOR_DEVICE is either "bme280_0" or "temp_stm32_0"
    let rc = unsafe { sensor_set_poll_rate_ms(SENSOR_DEVICE, SENSOR_POLL_TIME) };
  14:	f240 0000 	movw	r0, #0
  18:	f2c0 0000 	movt	r0, #0
  1c:	f242 7110 	movw	r1, #10000	; 0x2710
  20:	f7ff fffe 	bl	0 <sensor_set_poll_rate_ms>
  24:	9002      	str	r0, [sp, #8]
  26:	e7ff      	b.n	28 <_ZN5mylib13listen_sensor21start_sensor_listener17h20948f110386186dE+0x28>
/mnt/c/stm32bluepill-mynewt-sensor/src/listen_sensor.rs:35
    assert!(rc == 0);
  28:	9802      	ldr	r0, [sp, #8]
  2a:	2800      	cmp	r0, #0
  2c:	d007      	beq.n	3e <_ZN5mylib13listen_sensor21start_sensor_listener17h20948f110386186dE+0x3e>
  2e:	e7ff      	b.n	30 <_ZN5mylib13listen_sensor21start_sensor_listener17h20948f110386186dE+0x30>
  30:	f240 0000 	movw	r0, #0
  34:	f2c0 0000 	movt	r0, #0
  38:	f7ff fffe 	bl	0 <_ZN4core9panicking5panic17h53ca63c6ac6312f8E>
  3c:	defe      	udf	#254	; 0xfe
/mnt/c/stm32bluepill-mynewt-sensor/src/listen_sensor.rs:38

    //  Fetch the sensor by name, without locking the driver for exclusive access.
    let listen_sensor = unsafe { sensor_mgr_find_next_bydevname(SENSOR_DEVICE, null_sensor()) };
  3e:	f7ff fffe 	bl	0 <null_sensor>
  42:	9001      	str	r0, [sp, #4]
  44:	e7ff      	b.n	46 <_ZN5mylib13listen_sensor21start_sensor_listener17h20948f110386186dE+0x46>
  46:	f240 0000 	movw	r0, #0
  4a:	f2c0 0000 	movt	r0, #0
  4e:	9901      	ldr	r1, [sp, #4]
  50:	f7ff fffe 	bl	0 <sensor_mgr_find_next_bydevname>
  54:	9003      	str	r0, [sp, #12]
  56:	e7ff      	b.n	58 <_ZN5mylib13listen_sensor21start_sensor_listener17h20948f110386186dE+0x58>
/mnt/c/stm32bluepill-mynewt-sensor/src/listen_sensor.rs:39
    assert!(!unsafe{ is_null_sensor(listen_sensor) });
  58:	9803      	ldr	r0, [sp, #12]
  5a:	f7ff fffe 	bl	0 <is_null_sensor>
  5e:	9000      	str	r0, [sp, #0]
  60:	e7ff      	b.n	62 <_ZN5mylib13listen_sensor21start_sensor_listener17h20948f110386186dE+0x62>
  62:	9800      	ldr	r0, [sp, #0]
  64:	07c1      	lsls	r1, r0, #31
  66:	2900      	cmp	r1, #0
  68:	d007      	beq.n	7a <_ZN5mylib13listen_sensor21start_sensor_listener17h20948f110386186dE+0x7a>
  6a:	e7ff      	b.n	6c <_ZN5mylib13listen_sensor21start_sensor_listener17h20948f110386186dE+0x6c>
  6c:	f240 0000 	movw	r0, #0
  70:	f2c0 0000 	movt	r0, #0
  74:	f7ff fffe 	bl	0 <_ZN4core9panicking5panic17h53ca63c6ac6312f8E>
  78:	defe      	udf	#254	; 0xfe
  7a:	2000      	movs	r0, #0
/mnt/c/stm32bluepill-mynewt-sensor/src/listen_sensor.rs:42

    //  Define the listener function to be called after polling the temperature sensor.
    let listener = SensorListener {
  7c:	9005      	str	r0, [sp, #20]
  7e:	f04f 6180 	mov.w	r1, #67108864	; 0x4000000
  82:	9104      	str	r1, [sp, #16]
  84:	f240 0100 	movw	r1, #0
  88:	f2c0 0100 	movt	r1, #0
  8c:	9106      	str	r1, [sp, #24]
  8e:	2101      	movs	r1, #1
  90:	9107      	str	r1, [sp, #28]
  92:	9008      	str	r0, [sp, #32]
/mnt/c/stm32bluepill-mynewt-sensor/src/listen_sensor.rs:50
        sl_arg        : LISTENER_CB,           //  Indicate to the listener function that this is a listener callback
        sl_next       : 0,                     //  Must be 0
    };

    //  Register the Listener Function to be called every 10 seconds, with the polled sensor data.
    let rc = register_listener(listen_sensor, listener);
  94:	9803      	ldr	r0, [sp, #12]
  96:	a904      	add	r1, sp, #16
  98:	aa0c      	add	r2, sp, #48	; 0x30
  9a:	4613      	mov	r3, r2
  9c:	e891 50f0 	ldmia.w	r1, {r4, r5, r6, r7, ip, lr}
  a0:	e883 50f0 	stmia.w	r3, {r4, r5, r6, r7, ip, lr}
  a4:	4611      	mov	r1, r2
  a6:	f7ff fffe 	bl	0 <_ZN5mylib6mynewt6sensor17register_listener17h36152b4d732de144E>
  aa:	900b      	str	r0, [sp, #44]	; 0x2c
  ac:	e7ff      	b.n	ae <_ZN5mylib13listen_sensor21start_sensor_listener17h20948f110386186dE+0xae>
/mnt/c/stm32bluepill-mynewt-sensor/src/listen_sensor.rs:51
    assert!(rc == 0);
  ae:	980b      	ldr	r0, [sp, #44]	; 0x2c
  b0:	2800      	cmp	r0, #0
  b2:	d007      	beq.n	c4 <_ZN5mylib13listen_sensor21start_sensor_listener17h20948f110386186dE+0xc4>
  b4:	e7ff      	b.n	b6 <_ZN5mylib13listen_sensor21start_sensor_listener17h20948f110386186dE+0xb6>
  b6:	f240 0000 	movw	r0, #0
  ba:	f2c0 0000 	movt	r0, #0
  be:	f7ff fffe 	bl	0 <_ZN4core9panicking5panic17h53ca63c6ac6312f8E>
  c2:	defe      	udf	#254	; 0xfe
  c4:	2000      	movs	r0, #0
/mnt/c/stm32bluepill-mynewt-sensor/src/listen_sensor.rs:55

    //  Return 0 to indicate success.  This line should not end with a semicolon (;).
    0
}
  c6:	b013      	add	sp, #76	; 0x4c
  c8:	bdf0      	pop	{r4, r5, r6, r7, pc}

Disassembly of section .text._ZN5mylib13listen_sensor16read_temperature17h98575e0f2df03735E:

00000000 <_ZN5mylib13listen_sensor16read_temperature17h98575e0f2df03735E>:
_ZN5mylib13listen_sensor16read_temperature17h98575e0f2df03735E():
/mnt/c/stm32bluepill-mynewt-sensor/src/listen_sensor.rs:70
///  This listener function is called by Mynewt every 10 seconds (for local sensors) or when sensor data is received
///  (for Remote Sensors).  Mynewt has fetched the raw or computed temperature value, passed through `sensor_data`.
///  If this is a Sensor Node, we send the sensor data to the Collector Node.
///  If this is a Collector Node or Standalone Node, we send the sensor data to the CoAP server.  
///  Return 0 if we have processed the sensor data successfully.
extern fn read_temperature(sensor: SensorPtr, _arg: SensorArg, sensor_data: SensorDataPtr, sensor_type: SensorType) -> i32 {
   0:	b5b0      	push	{r4, r5, r7, lr}
   2:	b096      	sub	sp, #88	; 0x58
   4:	9b1b      	ldr	r3, [sp, #108]	; 0x6c
   6:	f8dd c068 	ldr.w	ip, [sp, #104]	; 0x68
   a:	4696      	mov	lr, r2
   c:	460c      	mov	r4, r1
   e:	4605      	mov	r5, r0
  10:	9007      	str	r0, [sp, #28]
  12:	9108      	str	r1, [sp, #32]
  14:	9209      	str	r2, [sp, #36]	; 0x24
  16:	930b      	str	r3, [sp, #44]	; 0x2c
  18:	f8cd c028 	str.w	ip, [sp, #40]	; 0x28
/mnt/c/stm32bluepill-mynewt-sensor/src/listen_sensor.rs:72
    unsafe {
        console_print(b"read_temperature\n");
  1c:	f240 0000 	movw	r0, #0
  20:	f2c0 0000 	movt	r0, #0
  24:	2111      	movs	r1, #17
  26:	f8cd e018 	str.w	lr, [sp, #24]
  2a:	9405      	str	r4, [sp, #20]
  2c:	9504      	str	r5, [sp, #16]
  2e:	f7ff fffe 	bl	0 <_ZN5mylib4base13console_print17h47a7ec4e529b3d82E>
  32:	e7ff      	b.n	34 <_ZN5mylib13listen_sensor16read_temperature17h98575e0f2df03735E+0x34>
/mnt/c/stm32bluepill-mynewt-sensor/src/listen_sensor.rs:75
        //  Check that the temperature data is valid.
        //  TODO
        if is_null_sensor_data(sensor_data) { return SYS_EINVAL; }  //  Exit if data is missing
  34:	9809      	ldr	r0, [sp, #36]	; 0x24
  36:	f7ff fffe 	bl	0 <is_null_sensor_data>
  3a:	9003      	str	r0, [sp, #12]
  3c:	e7ff      	b.n	3e <_ZN5mylib13listen_sensor16read_temperature17h98575e0f2df03735E+0x3e>
  3e:	9803      	ldr	r0, [sp, #12]
  40:	07c1      	lsls	r1, r0, #31
  42:	2900      	cmp	r1, #0
  44:	d007      	beq.n	56 <_ZN5mylib13listen_sensor16read_temperature17h98575e0f2df03735E+0x56>
  46:	e7ff      	b.n	48 <_ZN5mylib13listen_sensor16read_temperature17h98575e0f2df03735E+0x48>
  48:	f06f 0001 	mvn.w	r0, #1
  4c:	900c      	str	r0, [sp, #48]	; 0x30
  4e:	e7ff      	b.n	50 <_ZN5mylib13listen_sensor16read_temperature17h98575e0f2df03735E+0x50>
/mnt/c/stm32bluepill-mynewt-sensor/src/listen_sensor.rs:106
        }
        assert!(rc == 0);
        //#endif  //  MYNEWT_VAL(SENSOR_COAP)
    }
    0
}
  50:	980c      	ldr	r0, [sp, #48]	; 0x30
  52:	b016      	add	sp, #88	; 0x58
  54:	bdb0      	pop	{r4, r5, r7, pc}
/mnt/c/stm32bluepill-mynewt-sensor/src/listen_sensor.rs:76
        assert!(!is_null_sensor(sensor));
  56:	9807      	ldr	r0, [sp, #28]
  58:	f7ff fffe 	bl	0 <is_null_sensor>
  5c:	9002      	str	r0, [sp, #8]
  5e:	e7ff      	b.n	60 <_ZN5mylib13listen_sensor16read_temperature17h98575e0f2df03735E+0x60>
  60:	9802      	ldr	r0, [sp, #8]
  62:	07c1      	lsls	r1, r0, #31
  64:	2900      	cmp	r1, #0
  66:	d007      	beq.n	78 <_ZN5mylib13listen_sensor16read_temperature17h98575e0f2df03735E+0x78>
  68:	e7ff      	b.n	6a <_ZN5mylib13listen_sensor16read_temperature17h98575e0f2df03735E+0x6a>
  6a:	f240 0000 	movw	r0, #0
  6e:	f2c0 0000 	movt	r0, #0
  72:	f7ff fffe 	bl	0 <_ZN4core9panicking5panic17h53ca63c6ac6312f8E>
  76:	defe      	udf	#254	; 0xfe
/mnt/c/stm32bluepill-mynewt-sensor/src/listen_sensor.rs:80
        let device = sensor_get_device(sensor);
  78:	9807      	ldr	r0, [sp, #28]
  7a:	f7ff fffe 	bl	0 <sensor_get_device>
  7e:	900d      	str	r0, [sp, #52]	; 0x34
  80:	e7ff      	b.n	82 <_ZN5mylib13listen_sensor16read_temperature17h98575e0f2df03735E+0x82>
/mnt/c/stm32bluepill-mynewt-sensor/src/listen_sensor.rs:81
        let device_name_ptr: *const c_char = device_get_name(device);
  82:	980d      	ldr	r0, [sp, #52]	; 0x34
  84:	f7ff fffe 	bl	0 <device_get_name>
  88:	900e      	str	r0, [sp, #56]	; 0x38
  8a:	e7ff      	b.n	8c <_ZN5mylib13listen_sensor16read_temperature17h98575e0f2df03735E+0x8c>
/mnt/c/stm32bluepill-mynewt-sensor/src/listen_sensor.rs:82
        let device_name: &CStr = CStr::from_ptr(device_name_ptr);
  8c:	980e      	ldr	r0, [sp, #56]	; 0x38
  8e:	f7ff fffe 	bl	0 <_ZN9cstr_core4CStr8from_ptr17hf882b52c821e39a0E>
  92:	9001      	str	r0, [sp, #4]
  94:	9100      	str	r1, [sp, #0]
  96:	e7ff      	b.n	98 <_ZN5mylib13listen_sensor16read_temperature17h98575e0f2df03735E+0x98>
  98:	9801      	ldr	r0, [sp, #4]
  9a:	900f      	str	r0, [sp, #60]	; 0x3c
  9c:	9900      	ldr	r1, [sp, #0]
  9e:	9110      	str	r1, [sp, #64]	; 0x40
/mnt/c/stm32bluepill-mynewt-sensor/src/listen_sensor.rs:86
        let temp_sensor_value = get_temperature(sensor_data, sensor_type);
  a0:	9909      	ldr	r1, [sp, #36]	; 0x24
  a2:	9a0a      	ldr	r2, [sp, #40]	; 0x28
  a4:	9b0b      	ldr	r3, [sp, #44]	; 0x2c
  a6:	a811      	add	r0, sp, #68	; 0x44
  a8:	f7ff fffe 	bl	0 <_ZN5mylib13listen_sensor16read_temperature17h98575e0f2df03735E>
  ac:	e7ff      	b.n	ae <_ZN5mylib13listen_sensor16read_temperature17h98575e0f2df03735E+0xae>
/mnt/c/stm32bluepill-mynewt-sensor/src/listen_sensor.rs:94
        let rc = send_sensor_data(&temp_sensor_value, device_name);
  ae:	990f      	ldr	r1, [sp, #60]	; 0x3c
  b0:	9a10      	ldr	r2, [sp, #64]	; 0x40
  b2:	a811      	add	r0, sp, #68	; 0x44
  b4:	f7ff fffe 	bl	0 <_ZN5mylib9send_coap16send_sensor_data17h610afad13e46ff09E>
  b8:	9015      	str	r0, [sp, #84]	; 0x54
  ba:	e7ff      	b.n	bc <_ZN5mylib13listen_sensor16read_temperature17h98575e0f2df03735E+0xbc>
/mnt/c/stm32bluepill-mynewt-sensor/src/listen_sensor.rs:98
        if rc == SYS_EAGAIN {
  bc:	9815      	ldr	r0, [sp, #84]	; 0x54
  be:	3006      	adds	r0, #6
  c0:	2800      	cmp	r0, #0
  c2:	d10b      	bne.n	dc <_ZN5mylib13listen_sensor16read_temperature17h98575e0f2df03735E+0xdc>
  c4:	e7ff      	b.n	c6 <_ZN5mylib13listen_sensor16read_temperature17h98575e0f2df03735E+0xc6>
/mnt/c/stm32bluepill-mynewt-sensor/src/listen_sensor.rs:99
            console_print(b"TMP network not ready\n");
  c6:	f240 0000 	movw	r0, #0
  ca:	f2c0 0000 	movt	r0, #0
  ce:	2116      	movs	r1, #22
  d0:	f7ff fffe 	bl	0 <_ZN5mylib4base13console_print17h47a7ec4e529b3d82E>
  d4:	e7ff      	b.n	d6 <_ZN5mylib13listen_sensor16read_temperature17h98575e0f2df03735E+0xd6>
  d6:	2000      	movs	r0, #0
/mnt/c/stm32bluepill-mynewt-sensor/src/listen_sensor.rs:100
            return 0; 
  d8:	900c      	str	r0, [sp, #48]	; 0x30
  da:	e7b9      	b.n	50 <_ZN5mylib13listen_sensor16read_temperature17h98575e0f2df03735E+0x50>
/mnt/c/stm32bluepill-mynewt-sensor/src/listen_sensor.rs:102
        assert!(rc == 0);
  dc:	9815      	ldr	r0, [sp, #84]	; 0x54
  de:	2800      	cmp	r0, #0
  e0:	d007      	beq.n	f2 <_ZN5mylib13listen_sensor16read_temperature17h98575e0f2df03735E+0xf2>
  e2:	e7ff      	b.n	e4 <_ZN5mylib13listen_sensor16read_temperature17h98575e0f2df03735E+0xe4>
  e4:	f240 0000 	movw	r0, #0
  e8:	f2c0 0000 	movt	r0, #0
  ec:	f7ff fffe 	bl	0 <_ZN4core9panicking5panic17h53ca63c6ac6312f8E>
  f0:	defe      	udf	#254	; 0xfe
  f2:	2000      	movs	r0, #0
/mnt/c/stm32bluepill-mynewt-sensor/src/listen_sensor.rs:105
    0
  f4:	900c      	str	r0, [sp, #48]	; 0x30
/mnt/c/stm32bluepill-mynewt-sensor/src/listen_sensor.rs:106
}
  f6:	e7ab      	b.n	50 <_ZN5mylib13listen_sensor16read_temperature17h98575e0f2df03735E+0x50>

Disassembly of section .text._ZN5mylib13listen_sensor15get_temperature17hf02a882c2141679eE:

00000000 <_ZN5mylib13listen_sensor15get_temperature17hf02a882c2141679eE>:
_ZN5mylib13listen_sensor15get_temperature17hf02a882c2141679eE():
/mnt/c/stm32bluepill-mynewt-sensor/src/listen_sensor.rs:111

///  Get the temperature value, raw or computed.  `sensor_data` contains the raw or computed temperature. 
///  `sensor_type` indicates whether `sensor_data` contains raw or computed temperature.  We return 
///  the raw or computed temperature, as well as the key and value type.
fn get_temperature(sensor_data: *const CVoid, sensor_type: SensorType) -> SensorValue {
   0:	b510      	push	{r4, lr}
   2:	b096      	sub	sp, #88	; 0x58
   4:	469c      	mov	ip, r3
   6:	4696      	mov	lr, r2
   8:	460c      	mov	r4, r1
   a:	9105      	str	r1, [sp, #20]
   c:	9307      	str	r3, [sp, #28]
   e:	9206      	str	r2, [sp, #24]
  10:	a909      	add	r1, sp, #36	; 0x24
/mnt/c/stm32bluepill-mynewt-sensor/src/listen_sensor.rs:112
    let mut return_value = SensorValue::default();
  12:	9004      	str	r0, [sp, #16]
  14:	4608      	mov	r0, r1
  16:	f8cd c00c 	str.w	ip, [sp, #12]
  1a:	f8cd e008 	str.w	lr, [sp, #8]
  1e:	9401      	str	r4, [sp, #4]
  20:	f7ff fffe 	bl	0 <_ZN67_$LT$mylib..base..SensorValue$u20$as$u20$core..default..Default$GT$7default17hcb08cd325439514dE>
  24:	e7ff      	b.n	26 <_ZN5mylib13listen_sensor15get_temperature17hf02a882c2141679eE+0x26>
/mnt/c/stm32bluepill-mynewt-sensor/src/listen_sensor.rs:114
    match sensor_type {                                //  Is this raw or computed temperature?
        SENSOR_TYPE_AMBIENT_TEMPERATURE_RAW => {  //  If this is raw temperature...
  26:	9806      	ldr	r0, [sp, #24]
  28:	9907      	ldr	r1, [sp, #28]
  2a:	f080 6080 	eor.w	r0, r0, #67108864	; 0x4000000
  2e:	4308      	orrs	r0, r1
  30:	2800      	cmp	r0, #0
  32:	d139      	bne.n	a8 <_ZN5mylib13listen_sensor15get_temperature17hf02a882c2141679eE+0xa8>
  34:	e7ff      	b.n	36 <_ZN5mylib13listen_sensor15get_temperature17hf02a882c2141679eE+0x36>
  36:	2000      	movs	r0, #0
/mnt/c/stm32bluepill-mynewt-sensor/src/listen_sensor.rs:116
            //  Interpret the sensor data as a sensor_temp_raw_data struct that contains raw temp.
            let mut rawtempdata = SensorTempRawData {
  38:	900d      	str	r0, [sp, #52]	; 0x34
  3a:	f88d 0038 	strb.w	r0, [sp, #56]	; 0x38
/mnt/c/stm32bluepill-mynewt-sensor/src/listen_sensor.rs:120
                strd_temp_raw: 0,
                strd_temp_raw_is_valid: 0,
            };
            let rc = unsafe { get_temp_raw_data(sensor_data, &mut rawtempdata) };
  3e:	9805      	ldr	r0, [sp, #20]
  40:	a90d      	add	r1, sp, #52	; 0x34
  42:	f7ff fffe 	bl	0 <get_temp_raw_data>
  46:	900f      	str	r0, [sp, #60]	; 0x3c
  48:	e7ff      	b.n	4a <_ZN5mylib13listen_sensor15get_temperature17hf02a882c2141679eE+0x4a>
/mnt/c/stm32bluepill-mynewt-sensor/src/listen_sensor.rs:121
            assert!(rc == 0);
  4a:	980f      	ldr	r0, [sp, #60]	; 0x3c
  4c:	2800      	cmp	r0, #0
  4e:	d007      	beq.n	60 <_ZN5mylib13listen_sensor15get_temperature17hf02a882c2141679eE+0x60>
  50:	e7ff      	b.n	52 <_ZN5mylib13listen_sensor15get_temperature17hf02a882c2141679eE+0x52>
  52:	f240 0000 	movw	r0, #0
  56:	f2c0 0000 	movt	r0, #0
  5a:	f7ff fffe 	bl	0 <_ZN4core9panicking5panic17h53ca63c6ac6312f8E>
  5e:	defe      	udf	#254	; 0xfe
/mnt/c/stm32bluepill-mynewt-sensor/src/listen_sensor.rs:124

            //  Check that the raw temperature data is valid.
            if rawtempdata.strd_temp_raw_is_valid == 0 { return return_value; }  //  Exit if data is not valid
  60:	f89d 0038 	ldrb.w	r0, [sp, #56]	; 0x38
  64:	2800      	cmp	r0, #0
  66:	d112      	bne.n	8e <_ZN5mylib13listen_sensor15get_temperature17hf02a882c2141679eE+0x8e>
  68:	e7ff      	b.n	6a <_ZN5mylib13listen_sensor15get_temperature17hf02a882c2141679eE+0x6a>
  6a:	9809      	ldr	r0, [sp, #36]	; 0x24
  6c:	990a      	ldr	r1, [sp, #40]	; 0x28
  6e:	9a0b      	ldr	r2, [sp, #44]	; 0x2c
  70:	9b0c      	ldr	r3, [sp, #48]	; 0x30
  72:	f8dd c010 	ldr.w	ip, [sp, #16]
  76:	f8cc 300c 	str.w	r3, [ip, #12]
  7a:	f8cc 2008 	str.w	r2, [ip, #8]
  7e:	f8cc 1004 	str.w	r1, [ip, #4]
  82:	f8cc 0000 	str.w	r0, [ip]
  86:	e001      	b.n	8c <_ZN5mylib13listen_sensor15get_temperature17hf02a882c2141679eE+0x8c>
/mnt/c/stm32bluepill-mynewt-sensor/src/listen_sensor.rs:158
        }
    }
    //  Return the key and value type for raw or computed temperature, as defined in temp_stm32.h.
    return_value.key = TEMP_SENSOR_KEY;
    return_value
}
  88:	b016      	add	sp, #88	; 0x58
  8a:	bd10      	pop	{r4, pc}
/mnt/c/stm32bluepill-mynewt-sensor/src/listen_sensor.rs:124
            if rawtempdata.strd_temp_raw_is_valid == 0 { return return_value; }  //  Exit if data is not valid
  8c:	e7fc      	b.n	88 <_ZN5mylib13listen_sensor15get_temperature17hf02a882c2141679eE+0x88>
/mnt/c/stm32bluepill-mynewt-sensor/src/listen_sensor.rs:127
            return_value.val = SensorValueType::Uint(rawtempdata.strd_temp_raw);  //  Raw Temperature in integer (0 to 4095)
  8e:	980d      	ldr	r0, [sp, #52]	; 0x34
  90:	900c      	str	r0, [sp, #48]	; 0x30
  92:	2001      	movs	r0, #1
  94:	900b      	str	r0, [sp, #44]	; 0x2c
/mnt/c/stm32bluepill-mynewt-sensor/src/listen_sensor.rs:128
            console_print(b"TMP listener got rawtmp \n");  // return_value->int_val);
  96:	f240 0000 	movw	r0, #0
  9a:	f2c0 0000 	movt	r0, #0
  9e:	2119      	movs	r1, #25
  a0:	f7ff fffe 	bl	0 <_ZN5mylib4base13console_print17h47a7ec4e529b3d82E>
  a4:	e7ff      	b.n	a6 <_ZN5mylib13listen_sensor15get_temperature17hf02a882c2141679eE+0xa6>
/mnt/c/stm32bluepill-mynewt-sensor/src/listen_sensor.rs:113
    match sensor_type {                                //  Is this raw or computed temperature?
  a6:	e031      	b.n	10c <_ZN5mylib13listen_sensor15get_temperature17hf02a882c2141679eE+0x10c>
/mnt/c/stm32bluepill-mynewt-sensor/src/listen_sensor.rs:130
        SENSOR_TYPE_AMBIENT_TEMPERATURE => {      //  If this is computed temperature...
  a8:	9806      	ldr	r0, [sp, #24]
  aa:	9907      	ldr	r1, [sp, #28]
  ac:	9111      	str	r1, [sp, #68]	; 0x44
  ae:	9010      	str	r0, [sp, #64]	; 0x40
  b0:	2000      	movs	r0, #0
/mnt/c/stm32bluepill-mynewt-sensor/src/listen_sensor.rs:132
            let mut tempdata = SensorTempData {
  b2:	9013      	str	r0, [sp, #76]	; 0x4c
  b4:	f88d 0050 	strb.w	r0, [sp, #80]	; 0x50
/mnt/c/stm32bluepill-mynewt-sensor/src/listen_sensor.rs:136
            let rc = unsafe { get_temp_data(sensor_data, &mut tempdata) };
  b8:	9805      	ldr	r0, [sp, #20]
  ba:	a913      	add	r1, sp, #76	; 0x4c
  bc:	f7ff fffe 	bl	0 <get_temp_data>
  c0:	9015      	str	r0, [sp, #84]	; 0x54
  c2:	e7ff      	b.n	c4 <_ZN5mylib13listen_sensor15get_temperature17hf02a882c2141679eE+0xc4>
/mnt/c/stm32bluepill-mynewt-sensor/src/listen_sensor.rs:137
            assert!(rc == 0);
  c4:	9815      	ldr	r0, [sp, #84]	; 0x54
  c6:	2800      	cmp	r0, #0
  c8:	d007      	beq.n	da <_ZN5mylib13listen_sensor15get_temperature17hf02a882c2141679eE+0xda>
  ca:	e7ff      	b.n	cc <_ZN5mylib13listen_sensor15get_temperature17hf02a882c2141679eE+0xcc>
  cc:	f240 0000 	movw	r0, #0
  d0:	f2c0 0000 	movt	r0, #0
  d4:	f7ff fffe 	bl	0 <_ZN4core9panicking5panic17h53ca63c6ac6312f8E>
  d8:	defe      	udf	#254	; 0xfe
/mnt/c/stm32bluepill-mynewt-sensor/src/listen_sensor.rs:140
            if tempdata.std_temp_is_valid == 0 { return return_value; }  //  Exit if data is not valid
  da:	f89d 0050 	ldrb.w	r0, [sp, #80]	; 0x50
  de:	2800      	cmp	r0, #0
  e0:	d10f      	bne.n	102 <_ZN5mylib13listen_sensor15get_temperature17hf02a882c2141679eE+0x102>
  e2:	e7ff      	b.n	e4 <_ZN5mylib13listen_sensor15get_temperature17hf02a882c2141679eE+0xe4>
  e4:	9809      	ldr	r0, [sp, #36]	; 0x24
  e6:	990a      	ldr	r1, [sp, #40]	; 0x28
  e8:	9a0b      	ldr	r2, [sp, #44]	; 0x2c
  ea:	9b0c      	ldr	r3, [sp, #48]	; 0x30
  ec:	f8dd c010 	ldr.w	ip, [sp, #16]
  f0:	f8cc 300c 	str.w	r3, [ip, #12]
  f4:	f8cc 2008 	str.w	r2, [ip, #8]
  f8:	f8cc 1004 	str.w	r1, [ip, #4]
  fc:	f8cc 0000 	str.w	r0, [ip]
 100:	e7c4      	b.n	8c <_ZN5mylib13listen_sensor15get_temperature17hf02a882c2141679eE+0x8c>
/mnt/c/stm32bluepill-mynewt-sensor/src/listen_sensor.rs:143
            return_value.val = SensorValueType::Float(tempdata.std_temp);  //  Temperature in floating point.
 102:	9813      	ldr	r0, [sp, #76]	; 0x4c
 104:	900c      	str	r0, [sp, #48]	; 0x30
 106:	2002      	movs	r0, #2
 108:	900b      	str	r0, [sp, #44]	; 0x2c
/mnt/c/stm32bluepill-mynewt-sensor/src/listen_sensor.rs:113
    match sensor_type {                                //  Is this raw or computed temperature?
 10a:	e7ff      	b.n	10c <_ZN5mylib13listen_sensor15get_temperature17hf02a882c2141679eE+0x10c>
/mnt/c/stm32bluepill-mynewt-sensor/src/listen_sensor.rs:156
    return_value.key = TEMP_SENSOR_KEY;
 10c:	f240 0000 	movw	r0, #0
 110:	f2c0 0000 	movt	r0, #0
 114:	9009      	str	r0, [sp, #36]	; 0x24
 116:	2001      	movs	r0, #1
 118:	900a      	str	r0, [sp, #40]	; 0x28
/mnt/c/stm32bluepill-mynewt-sensor/src/listen_sensor.rs:157
    return_value
 11a:	9809      	ldr	r0, [sp, #36]	; 0x24
 11c:	990a      	ldr	r1, [sp, #40]	; 0x28
 11e:	9a0b      	ldr	r2, [sp, #44]	; 0x2c
 120:	9b0c      	ldr	r3, [sp, #48]	; 0x30
 122:	f8dd c010 	ldr.w	ip, [sp, #16]
 126:	f8cc 300c 	str.w	r3, [ip, #12]
 12a:	f8cc 2008 	str.w	r2, [ip, #8]
 12e:	f8cc 1004 	str.w	r1, [ip, #4]
 132:	f8cc 0000 	str.w	r0, [ip]
/mnt/c/stm32bluepill-mynewt-sensor/src/listen_sensor.rs:158
}
 136:	e7a7      	b.n	88 <_ZN5mylib13listen_sensor15get_temperature17hf02a882c2141679eE+0x88>

mylib-ac95891f38e7979c.2k4h3n1psy8odh4v.rcgu.o:     file format elf32-littlearm

SYMBOL TABLE:
00000000 l    df *ABS*	00000000 2k4h3n1psy8odh4v
00000000 l       .debug_str	00000000 
00000041 l       .debug_str	00000000 
0000004c l       .debug_str	00000000 
0000006f l       .debug_str	00000000 
00000076 l       .debug_str	00000000 
0000007c l       .debug_str	00000000 
00000082 l       .debug_str	00000000 
00000089 l       .debug_str	00000000 
00000092 l       .debug_str	00000000 
00000096 l       .debug_str	00000000 
0000009c l       .debug_str	00000000 
000000a1 l       .debug_str	00000000 
000000a8 l       .debug_str	00000000 
000000ac l       .debug_str	00000000 
000000b1 l       .debug_str	00000000 
000000b3 l       .debug_str	00000000 
000000b8 l       .debug_str	00000000 
000000bc l       .debug_str	00000000 
00000118 l       .debug_str	00000000 
0000011d l       .debug_str	00000000 
00000120 l       .debug_str	00000000 
00000128 l       .debug_str	00000000 
0000017a l       .debug_str	00000000 
000001d4 l       .debug_str	00000000 
000001e1 l       .debug_str	00000000 
0000020e l       .debug_str	00000000 
00000213 l       .debug_str	00000000 
00000236 l       .debug_str	00000000 
00000240 l       .debug_str	00000000 
00000294 l       .debug_str	00000000 
000002e9 l       .debug_str	00000000 
000002ee l       .debug_str	00000000 
000002f2 l       .debug_str	00000000 
00000345 l       .debug_str	00000000 
000003a0 l       .debug_str	00000000 
000003a6 l       .debug_str	00000000 
000003aa l       .debug_str	00000000 
000003fe l       .debug_str	00000000 
0000045a l       .debug_str	00000000 
00000460 l       .debug_str	00000000 
000004bc l       .debug_str	00000000 
000004c2 l       .debug_str	00000000 
000004c6 l       .debug_str	00000000 
0000051a l       .debug_str	00000000 
00000576 l       .debug_str	00000000 
0000057a l       .debug_str	00000000 
000005e0 l       .debug_str	00000000 
0000064e l       .debug_str	00000000 
00000652 l       .debug_str	00000000 
0000065f l       .debug_str	00000000 
00000673 l       .debug_str	00000000 
000006a5 l       .debug_str	00000000 
000006f9 l       .debug_str	00000000 
0000074e l       .debug_str	00000000 
000007a3 l       .debug_str	00000000 
000007f6 l       .debug_str	00000000 
0000085d l       .debug_str	00000000 
000008c4 l       .debug_str	00000000 
000008d2 l       .debug_str	00000000 
000008e6 l       .debug_str	00000000 
00000918 l       .debug_str	00000000 
00000977 l       .debug_str	00000000 
000009d7 l       .debug_str	00000000 
00000a2c l       .debug_str	00000000 
00000a80 l       .debug_str	00000000 
00000a87 l       .debug_str	00000000 
00000a8a l       .debug_str	00000000 
00000a8e l       .debug_str	00000000 
00000a95 l       .debug_str	00000000 
00000a99 l       .debug_str	00000000 
00000a9c l       .debug_str	00000000 
00000a9f l       .debug_str	00000000 
00000aa4 l       .debug_str	00000000 
00000aaa l       .debug_str	00000000 
00000ab1 l       .debug_str	00000000 
00000ab9 l       .debug_str	00000000 
00000ac3 l       .debug_str	00000000 
00000acc l       .debug_str	00000000 
00000b14 l       .debug_str	00000000 
00000b81 l       .debug_str	00000000 
00000bc9 l       .debug_str	00000000 
00000c43 l       .debug_str	00000000 
00000c8b l       .debug_str	00000000 
00000cfa l       .debug_str	00000000 
00000d42 l       .debug_str	00000000 
00000dc3 l       .debug_str	00000000 
00000e0b l       .debug_str	00000000 
00000e79 l       .debug_str	00000000 
00000ec1 l       .debug_str	00000000 
00000f30 l       .debug_str	00000000 
00000f78 l       .debug_str	00000000 
00000fe7 l       .debug_str	00000000 
0000102f l       .debug_str	00000000 
0000109e l       .debug_str	00000000 
000010fe l       .debug_str	00000000 
00001157 l       .debug_str	00000000 
000011b7 l       .debug_str	00000000 
00001210 l       .debug_str	00000000 
00001270 l       .debug_str	00000000 
000012c9 l       .debug_str	00000000 
00001329 l       .debug_str	00000000 
00001380 l       .debug_str	00000000 
000013e0 l       .debug_str	00000000 
0000144b l       .debug_str	00000000 
000014ab l       .debug_str	00000000 
0000150f l       .debug_str	00000000 
0000156f l       .debug_str	00000000 
000015c8 l       .debug_str	00000000 
00001628 l       .debug_str	00000000 
00001680 l       .debug_str	00000000 
00001685 l       .debug_str	00000000 
000016ee l       .debug_str	00000000 
00001758 l       .debug_str	00000000 
0000175a l       .debug_str	00000000 
00001760 l       .debug_str	00000000 
00001765 l       .debug_str	00000000 
0000176a l       .debug_str	00000000 
00001770 l       .debug_str	00000000 
00001776 l       .debug_str	00000000 
00001784 l       .debug_str	00000000 
0000178e l       .debug_str	00000000 
00001792 l       .debug_str	00000000 
0000179a l       .debug_str	00000000 
000017ae l       .debug_str	00000000 
000017ba l       .debug_str	00000000 
000017c5 l       .debug_str	00000000 
000017cc l       .debug_str	00000000 
000017d2 l       .debug_str	00000000 
000017d6 l       .debug_str	00000000 
000017dc l       .debug_str	00000000 
000017e2 l       .debug_str	00000000 
000017e5 l       .debug_str	00000000 
000017f4 l       .debug_str	00000000 
000017fb l       .debug_str	00000000 
000017ff l       .debug_str	00000000 
00001808 l       .debug_str	00000000 
00001814 l       .debug_str	00000000 
0000182d l       .debug_str	00000000 
00001832 l       .debug_str	00000000 
00001843 l       .debug_str	00000000 
0000184d l       .debug_str	00000000 
000018ab l       .debug_str	00000000 
000018b6 l       .debug_str	00000000 
000018d3 l       .debug_str	00000000 
000018d7 l       .debug_str	00000000 
000018df l       .debug_str	00000000 
000018f6 l       .debug_str	00000000 
0000191a l       .debug_str	00000000 
00001936 l       .debug_str	00000000 
0000193b l       .debug_str	00000000 
00001944 l       .debug_str	00000000 
0000194b l       .debug_str	00000000 
00001964 l       .debug_str	00000000 
0000196e l       .debug_str	00000000 
00001988 l       .debug_str	00000000 
000019fe l       .debug_str	00000000 
00001a75 l       .debug_str	00000000 
00001ae0 l       .debug_str	00000000 
00001b4c l       .debug_str	00000000 
00001bc9 l       .debug_str	00000000 
00001c47 l       .debug_str	00000000 
00001cb1 l       .debug_str	00000000 
00001d1c l       .debug_str	00000000 
00001d87 l       .debug_str	00000000 
00001df3 l       .debug_str	00000000 
00001e5e l       .debug_str	00000000 
00001eca l       .debug_str	00000000 
00001f35 l       .debug_str	00000000 
00001fa1 l       .debug_str	00000000 
00001fb5 l       .debug_str	00000000 
00001fbe l       .debug_str	00000000 
00001fc5 l       .debug_str	00000000 
00001fd0 l       .debug_str	00000000 
00001fd5 l       .debug_str	00000000 
00001fe0 l       .debug_str	00000000 
00000000 l     O .rodata.cst4	00000004 .Lanon.277551dcde6ce4a6c96f255a341f39c5.0
00000000 l     O .rodata..Lanon.277551dcde6ce4a6c96f255a341f39c5.1	00000010 .Lanon.277551dcde6ce4a6c96f255a341f39c5.1
00000004 l     O .rodata.cst4	00000004 .Lanon.277551dcde6ce4a6c96f255a341f39c5.2
00000000 l     O .rodata..Lanon.277551dcde6ce4a6c96f255a341f39c5.3	00000010 .Lanon.277551dcde6ce4a6c96f255a341f39c5.3
00000000 l     O .rodata..Lanon.277551dcde6ce4a6c96f255a341f39c5.4	00000010 .Lanon.277551dcde6ce4a6c96f255a341f39c5.4
00000000 l     O .rodata..Lanon.277551dcde6ce4a6c96f255a341f39c5.5	00000010 .Lanon.277551dcde6ce4a6c96f255a341f39c5.5
00000000 l     O .rodata..Lanon.277551dcde6ce4a6c96f255a341f39c5.6	00000010 .Lanon.277551dcde6ce4a6c96f255a341f39c5.6
00000000 l     O .rodata..Lanon.277551dcde6ce4a6c96f255a341f39c5.7	00000010 .Lanon.277551dcde6ce4a6c96f255a341f39c5.7
00000000 l     O .rodata..Lanon.277551dcde6ce4a6c96f255a341f39c5.8	00000010 .Lanon.277551dcde6ce4a6c96f255a341f39c5.8
00000000 l     O .rodata..Lanon.277551dcde6ce4a6c96f255a341f39c5.9	00000010 .Lanon.277551dcde6ce4a6c96f255a341f39c5.9
00000000 l    d  .text._ZN42_$LT$$RF$T$u20$as$u20$core..fmt..Debug$GT$3fmt17h0e42809c79540eacE	00000000 .text._ZN42_$LT$$RF$T$u20$as$u20$core..fmt..Debug$GT$3fmt17h0e42809c79540eacE
00000000 l    d  .text._ZN42_$LT$$RF$T$u20$as$u20$core..fmt..Debug$GT$3fmt17h3bc168511c4a04acE	00000000 .text._ZN42_$LT$$RF$T$u20$as$u20$core..fmt..Debug$GT$3fmt17h3bc168511c4a04acE
00000000 l    d  .text._ZN42_$LT$$RF$T$u20$as$u20$core..fmt..Debug$GT$3fmt17h3ee8b5c7bfa08fb6E	00000000 .text._ZN42_$LT$$RF$T$u20$as$u20$core..fmt..Debug$GT$3fmt17h3ee8b5c7bfa08fb6E
00000000 l    d  .text._ZN42_$LT$$RF$T$u20$as$u20$core..fmt..Debug$GT$3fmt17h621e3e6d7052a7dbE	00000000 .text._ZN42_$LT$$RF$T$u20$as$u20$core..fmt..Debug$GT$3fmt17h621e3e6d7052a7dbE
00000000 l    d  .text._ZN42_$LT$$RF$T$u20$as$u20$core..fmt..Debug$GT$3fmt17h7f3efd56ed4e4138E	00000000 .text._ZN42_$LT$$RF$T$u20$as$u20$core..fmt..Debug$GT$3fmt17h7f3efd56ed4e4138E
00000000 l    d  .text._ZN42_$LT$$RF$T$u20$as$u20$core..fmt..Debug$GT$3fmt17hcca20f1604194f1cE	00000000 .text._ZN42_$LT$$RF$T$u20$as$u20$core..fmt..Debug$GT$3fmt17hcca20f1604194f1cE
00000000 l    d  .text._ZN42_$LT$$RF$T$u20$as$u20$core..fmt..Debug$GT$3fmt17hec02e5d7029bcca7E	00000000 .text._ZN42_$LT$$RF$T$u20$as$u20$core..fmt..Debug$GT$3fmt17hec02e5d7029bcca7E
00000000 l    d  .text._ZN42_$LT$$RF$T$u20$as$u20$core..fmt..Debug$GT$3fmt17hf76728bd7bf145f4E	00000000 .text._ZN42_$LT$$RF$T$u20$as$u20$core..fmt..Debug$GT$3fmt17hf76728bd7bf145f4E
00000000 l    d  .text._ZN66_$LT$core..option..Option$LT$T$GT$$u20$as$u20$core..fmt..Debug$GT$3fmt17h04b2c5ce17469a83E	00000000 .text._ZN66_$LT$core..option..Option$LT$T$GT$$u20$as$u20$core..fmt..Debug$GT$3fmt17h04b2c5ce17469a83E
00000000 l    d  .text._ZN66_$LT$core..option..Option$LT$T$GT$$u20$as$u20$core..fmt..Debug$GT$3fmt17h30c413ab1f7c87f9E	00000000 .text._ZN66_$LT$core..option..Option$LT$T$GT$$u20$as$u20$core..fmt..Debug$GT$3fmt17h30c413ab1f7c87f9E
00000000 l    d  .text._ZN66_$LT$core..option..Option$LT$T$GT$$u20$as$u20$core..fmt..Debug$GT$3fmt17h4afe495048b4c3dbE	00000000 .text._ZN66_$LT$core..option..Option$LT$T$GT$$u20$as$u20$core..fmt..Debug$GT$3fmt17h4afe495048b4c3dbE
00000000 l    d  .text._ZN66_$LT$core..option..Option$LT$T$GT$$u20$as$u20$core..fmt..Debug$GT$3fmt17h5f464829a00b6487E	00000000 .text._ZN66_$LT$core..option..Option$LT$T$GT$$u20$as$u20$core..fmt..Debug$GT$3fmt17h5f464829a00b6487E
00000000 l    d  .text._ZN66_$LT$core..option..Option$LT$T$GT$$u20$as$u20$core..fmt..Debug$GT$3fmt17h6d74c34c2e91d74dE	00000000 .text._ZN66_$LT$core..option..Option$LT$T$GT$$u20$as$u20$core..fmt..Debug$GT$3fmt17h6d74c34c2e91d74dE
00000000 l    d  .text._ZN66_$LT$core..option..Option$LT$T$GT$$u20$as$u20$core..fmt..Debug$GT$3fmt17h9c47d0054bbf89c7E	00000000 .text._ZN66_$LT$core..option..Option$LT$T$GT$$u20$as$u20$core..fmt..Debug$GT$3fmt17h9c47d0054bbf89c7E
00000000 l    d  .text._ZN66_$LT$core..option..Option$LT$T$GT$$u20$as$u20$core..fmt..Debug$GT$3fmt17ha074fb9b0c97a216E	00000000 .text._ZN66_$LT$core..option..Option$LT$T$GT$$u20$as$u20$core..fmt..Debug$GT$3fmt17ha074fb9b0c97a216E
00000000 l    d  .text._ZN66_$LT$core..option..Option$LT$T$GT$$u20$as$u20$core..fmt..Debug$GT$3fmt17he23606fdc2867652E	00000000 .text._ZN66_$LT$core..option..Option$LT$T$GT$$u20$as$u20$core..fmt..Debug$GT$3fmt17he23606fdc2867652E
00000000 l    d  .rodata..Lanon.277551dcde6ce4a6c96f255a341f39c5.1	00000000 .rodata..Lanon.277551dcde6ce4a6c96f255a341f39c5.1
00000000 l    d  .rodata..Lanon.277551dcde6ce4a6c96f255a341f39c5.3	00000000 .rodata..Lanon.277551dcde6ce4a6c96f255a341f39c5.3
00000000 l    d  .rodata..Lanon.277551dcde6ce4a6c96f255a341f39c5.4	00000000 .rodata..Lanon.277551dcde6ce4a6c96f255a341f39c5.4
00000000 l    d  .rodata..Lanon.277551dcde6ce4a6c96f255a341f39c5.5	00000000 .rodata..Lanon.277551dcde6ce4a6c96f255a341f39c5.5
00000000 l    d  .rodata..Lanon.277551dcde6ce4a6c96f255a341f39c5.6	00000000 .rodata..Lanon.277551dcde6ce4a6c96f255a341f39c5.6
00000000 l    d  .rodata..Lanon.277551dcde6ce4a6c96f255a341f39c5.7	00000000 .rodata..Lanon.277551dcde6ce4a6c96f255a341f39c5.7
00000000 l    d  .rodata..Lanon.277551dcde6ce4a6c96f255a341f39c5.8	00000000 .rodata..Lanon.277551dcde6ce4a6c96f255a341f39c5.8
00000000 l    d  .rodata..Lanon.277551dcde6ce4a6c96f255a341f39c5.9	00000000 .rodata..Lanon.277551dcde6ce4a6c96f255a341f39c5.9
00000000 l    d  .debug_abbrev	00000000 .debug_abbrev
00000000 l    d  .debug_info	00000000 .debug_info
00000000 l    d  .debug_ranges	00000000 .debug_ranges
00000000 l    d  .debug_frame	00000000 .debug_frame
00000000 l    d  .debug_line	00000000 .debug_line
00000000         *UND*	00000000 _ZN42_$LT$$RF$T$u20$as$u20$core..fmt..Debug$GT$3fmt17h0cdca961d1c557e8E
00000000 g     F .text._ZN42_$LT$$RF$T$u20$as$u20$core..fmt..Debug$GT$3fmt17h0e42809c79540eacE	00000028 _ZN42_$LT$$RF$T$u20$as$u20$core..fmt..Debug$GT$3fmt17h0e42809c79540eacE
00000000         *UND*	00000000 _ZN42_$LT$$RF$T$u20$as$u20$core..fmt..Debug$GT$3fmt17h2ae6f5912530d6ebE
00000000 g     F .text._ZN42_$LT$$RF$T$u20$as$u20$core..fmt..Debug$GT$3fmt17h3bc168511c4a04acE	00000028 _ZN42_$LT$$RF$T$u20$as$u20$core..fmt..Debug$GT$3fmt17h3bc168511c4a04acE
00000000 g     F .text._ZN42_$LT$$RF$T$u20$as$u20$core..fmt..Debug$GT$3fmt17h3ee8b5c7bfa08fb6E	00000028 _ZN42_$LT$$RF$T$u20$as$u20$core..fmt..Debug$GT$3fmt17h3ee8b5c7bfa08fb6E
00000000         *UND*	00000000 _ZN42_$LT$$RF$T$u20$as$u20$core..fmt..Debug$GT$3fmt17h5c003adaa463cb29E
00000000         *UND*	00000000 _ZN42_$LT$$RF$T$u20$as$u20$core..fmt..Debug$GT$3fmt17h5fbde9a5b4654be1E
00000000 g     F .text._ZN42_$LT$$RF$T$u20$as$u20$core..fmt..Debug$GT$3fmt17h621e3e6d7052a7dbE	00000028 _ZN42_$LT$$RF$T$u20$as$u20$core..fmt..Debug$GT$3fmt17h621e3e6d7052a7dbE
00000000         *UND*	00000000 _ZN42_$LT$$RF$T$u20$as$u20$core..fmt..Debug$GT$3fmt17h76ba8836aca212f1E
00000000         *UND*	00000000 _ZN42_$LT$$RF$T$u20$as$u20$core..fmt..Debug$GT$3fmt17h7cc7f97b20a39a7fE
00000000 g     F .text._ZN42_$LT$$RF$T$u20$as$u20$core..fmt..Debug$GT$3fmt17h7f3efd56ed4e4138E	00000028 _ZN42_$LT$$RF$T$u20$as$u20$core..fmt..Debug$GT$3fmt17h7f3efd56ed4e4138E
00000000 g     F .text._ZN42_$LT$$RF$T$u20$as$u20$core..fmt..Debug$GT$3fmt17hcca20f1604194f1cE	00000028 _ZN42_$LT$$RF$T$u20$as$u20$core..fmt..Debug$GT$3fmt17hcca20f1604194f1cE
00000000         *UND*	00000000 _ZN42_$LT$$RF$T$u20$as$u20$core..fmt..Debug$GT$3fmt17hcdb644f2e036f0feE
00000000         *UND*	00000000 _ZN42_$LT$$RF$T$u20$as$u20$core..fmt..Debug$GT$3fmt17hd4db4b6915aedee5E
00000000 g     F .text._ZN42_$LT$$RF$T$u20$as$u20$core..fmt..Debug$GT$3fmt17hec02e5d7029bcca7E	00000028 _ZN42_$LT$$RF$T$u20$as$u20$core..fmt..Debug$GT$3fmt17hec02e5d7029bcca7E
00000000 g     F .text._ZN42_$LT$$RF$T$u20$as$u20$core..fmt..Debug$GT$3fmt17hf76728bd7bf145f4E	00000028 _ZN42_$LT$$RF$T$u20$as$u20$core..fmt..Debug$GT$3fmt17hf76728bd7bf145f4E
00000000         *UND*	00000000 _ZN4core3fmt8builders10DebugTuple5field17h7da5ac79cde13c49E
00000000         *UND*	00000000 _ZN4core3fmt8builders10DebugTuple6finish17h24d91625b3672e6dE
00000000         *UND*	00000000 _ZN4core3fmt9Formatter11debug_tuple17h793087e8ecab9022E
00000000         *UND*	00000000 _ZN4core3ptr18real_drop_in_place17h175fb38fd656f02fE
00000000         *UND*	00000000 _ZN4core3ptr18real_drop_in_place17h17bbbfed65a8fc1bE
00000000         *UND*	00000000 _ZN4core3ptr18real_drop_in_place17h36ed6477c8c6a9e3E
00000000         *UND*	00000000 _ZN4core3ptr18real_drop_in_place17h49d1ba26be8d87bfE
00000000         *UND*	00000000 _ZN4core3ptr18real_drop_in_place17h5a205067a3e014ebE
00000000         *UND*	00000000 _ZN4core3ptr18real_drop_in_place17h763f6247f943a9b0E
00000000         *UND*	00000000 _ZN4core3ptr18real_drop_in_place17hb5870cfa3ea3fad3E
00000000         *UND*	00000000 _ZN4core3ptr18real_drop_in_place17hefbb4eb195fc1257E
00000000 g     F .text._ZN66_$LT$core..option..Option$LT$T$GT$$u20$as$u20$core..fmt..Debug$GT$3fmt17h04b2c5ce17469a83E	0000009a _ZN66_$LT$core..option..Option$LT$T$GT$$u20$as$u20$core..fmt..Debug$GT$3fmt17h04b2c5ce17469a83E
00000000 g     F .text._ZN66_$LT$core..option..Option$LT$T$GT$$u20$as$u20$core..fmt..Debug$GT$3fmt17h30c413ab1f7c87f9E	0000009a _ZN66_$LT$core..option..Option$LT$T$GT$$u20$as$u20$core..fmt..Debug$GT$3fmt17h30c413ab1f7c87f9E
00000000 g     F .text._ZN66_$LT$core..option..Option$LT$T$GT$$u20$as$u20$core..fmt..Debug$GT$3fmt17h4afe495048b4c3dbE	0000009a _ZN66_$LT$core..option..Option$LT$T$GT$$u20$as$u20$core..fmt..Debug$GT$3fmt17h4afe495048b4c3dbE
00000000 g     F .text._ZN66_$LT$core..option..Option$LT$T$GT$$u20$as$u20$core..fmt..Debug$GT$3fmt17h5f464829a00b6487E	0000009a _ZN66_$LT$core..option..Option$LT$T$GT$$u20$as$u20$core..fmt..Debug$GT$3fmt17h5f464829a00b6487E
00000000 g     F .text._ZN66_$LT$core..option..Option$LT$T$GT$$u20$as$u20$core..fmt..Debug$GT$3fmt17h6d74c34c2e91d74dE	0000009a _ZN66_$LT$core..option..Option$LT$T$GT$$u20$as$u20$core..fmt..Debug$GT$3fmt17h6d74c34c2e91d74dE
00000000 g     F .text._ZN66_$LT$core..option..Option$LT$T$GT$$u20$as$u20$core..fmt..Debug$GT$3fmt17h9c47d0054bbf89c7E	0000009a _ZN66_$LT$core..option..Option$LT$T$GT$$u20$as$u20$core..fmt..Debug$GT$3fmt17h9c47d0054bbf89c7E
00000000 g     F .text._ZN66_$LT$core..option..Option$LT$T$GT$$u20$as$u20$core..fmt..Debug$GT$3fmt17ha074fb9b0c97a216E	0000009a _ZN66_$LT$core..option..Option$LT$T$GT$$u20$as$u20$core..fmt..Debug$GT$3fmt17ha074fb9b0c97a216E
00000000 g     F .text._ZN66_$LT$core..option..Option$LT$T$GT$$u20$as$u20$core..fmt..Debug$GT$3fmt17he23606fdc2867652E	0000009a _ZN66_$LT$core..option..Option$LT$T$GT$$u20$as$u20$core..fmt..Debug$GT$3fmt17he23606fdc2867652E



Disassembly of section .text._ZN42_$LT$$RF$T$u20$as$u20$core..fmt..Debug$GT$3fmt17h0e42809c79540eacE:

00000000 <_ZN42_$LT$$RF$T$u20$as$u20$core..fmt..Debug$GT$3fmt17h0e42809c79540eacE>:
_ZN42_$LT$$RF$T$u20$as$u20$core..fmt..Debug$GT$3fmt17h0e42809c79540eacE():
/rustc/50a0defd5a93523067ef239936cc2e0755220904/src/libcore/fmt/mod.rs:1914
   0:	b580      	push	{r7, lr}
   2:	b086      	sub	sp, #24
   4:	460a      	mov	r2, r1
   6:	4603      	mov	r3, r0
   8:	9004      	str	r0, [sp, #16]
   a:	9105      	str	r1, [sp, #20]
   c:	9804      	ldr	r0, [sp, #16]
   e:	6800      	ldr	r0, [r0, #0]
  10:	9905      	ldr	r1, [sp, #20]
  12:	9203      	str	r2, [sp, #12]
  14:	9302      	str	r3, [sp, #8]
  16:	f7ff fffe 	bl	0 <_ZN42_$LT$$RF$T$u20$as$u20$core..fmt..Debug$GT$3fmt17h0e42809c79540eacE>
  1a:	9001      	str	r0, [sp, #4]
  1c:	e7ff      	b.n	1e <_ZN42_$LT$$RF$T$u20$as$u20$core..fmt..Debug$GT$3fmt17h0e42809c79540eacE+0x1e>
  1e:	9801      	ldr	r0, [sp, #4]
  20:	f000 0001 	and.w	r0, r0, #1
  24:	b006      	add	sp, #24
  26:	bd80      	pop	{r7, pc}

Disassembly of section .text._ZN42_$LT$$RF$T$u20$as$u20$core..fmt..Debug$GT$3fmt17h3bc168511c4a04acE:

00000000 <_ZN42_$LT$$RF$T$u20$as$u20$core..fmt..Debug$GT$3fmt17h3bc168511c4a04acE>:
_ZN42_$LT$$RF$T$u20$as$u20$core..fmt..Debug$GT$3fmt17h3bc168511c4a04acE():
/rustc/50a0defd5a93523067ef239936cc2e0755220904/src/libcore/fmt/mod.rs:1914
   0:	b580      	push	{r7, lr}
   2:	b086      	sub	sp, #24
   4:	460a      	mov	r2, r1
   6:	4603      	mov	r3, r0
   8:	9004      	str	r0, [sp, #16]
   a:	9105      	str	r1, [sp, #20]
   c:	9804      	ldr	r0, [sp, #16]
   e:	6800      	ldr	r0, [r0, #0]
  10:	9905      	ldr	r1, [sp, #20]
  12:	9203      	str	r2, [sp, #12]
  14:	9302      	str	r3, [sp, #8]
  16:	f7ff fffe 	bl	0 <_ZN42_$LT$$RF$T$u20$as$u20$core..fmt..Debug$GT$3fmt17h3bc168511c4a04acE>
  1a:	9001      	str	r0, [sp, #4]
  1c:	e7ff      	b.n	1e <_ZN42_$LT$$RF$T$u20$as$u20$core..fmt..Debug$GT$3fmt17h3bc168511c4a04acE+0x1e>
  1e:	9801      	ldr	r0, [sp, #4]
  20:	f000 0001 	and.w	r0, r0, #1
  24:	b006      	add	sp, #24
  26:	bd80      	pop	{r7, pc}

Disassembly of section .text._ZN42_$LT$$RF$T$u20$as$u20$core..fmt..Debug$GT$3fmt17h3ee8b5c7bfa08fb6E:

00000000 <_ZN42_$LT$$RF$T$u20$as$u20$core..fmt..Debug$GT$3fmt17h3ee8b5c7bfa08fb6E>:
_ZN42_$LT$$RF$T$u20$as$u20$core..fmt..Debug$GT$3fmt17h3ee8b5c7bfa08fb6E():
/rustc/50a0defd5a93523067ef239936cc2e0755220904/src/libcore/fmt/mod.rs:1914
   0:	b580      	push	{r7, lr}
   2:	b086      	sub	sp, #24
   4:	460a      	mov	r2, r1
   6:	4603      	mov	r3, r0
   8:	9004      	str	r0, [sp, #16]
   a:	9105      	str	r1, [sp, #20]
   c:	9804      	ldr	r0, [sp, #16]
   e:	6800      	ldr	r0, [r0, #0]
  10:	9905      	ldr	r1, [sp, #20]
  12:	9203      	str	r2, [sp, #12]
  14:	9302      	str	r3, [sp, #8]
  16:	f7ff fffe 	bl	0 <_ZN42_$LT$$RF$T$u20$as$u20$core..fmt..Debug$GT$3fmt17h3ee8b5c7bfa08fb6E>
  1a:	9001      	str	r0, [sp, #4]
  1c:	e7ff      	b.n	1e <_ZN42_$LT$$RF$T$u20$as$u20$core..fmt..Debug$GT$3fmt17h3ee8b5c7bfa08fb6E+0x1e>
  1e:	9801      	ldr	r0, [sp, #4]
  20:	f000 0001 	and.w	r0, r0, #1
  24:	b006      	add	sp, #24
  26:	bd80      	pop	{r7, pc}

Disassembly of section .text._ZN42_$LT$$RF$T$u20$as$u20$core..fmt..Debug$GT$3fmt17h621e3e6d7052a7dbE:

00000000 <_ZN42_$LT$$RF$T$u20$as$u20$core..fmt..Debug$GT$3fmt17h621e3e6d7052a7dbE>:
_ZN42_$LT$$RF$T$u20$as$u20$core..fmt..Debug$GT$3fmt17h621e3e6d7052a7dbE():
/rustc/50a0defd5a93523067ef239936cc2e0755220904/src/libcore/fmt/mod.rs:1914
   0:	b580      	push	{r7, lr}
   2:	b086      	sub	sp, #24
   4:	460a      	mov	r2, r1
   6:	4603      	mov	r3, r0
   8:	9004      	str	r0, [sp, #16]
   a:	9105      	str	r1, [sp, #20]
   c:	9804      	ldr	r0, [sp, #16]
   e:	6800      	ldr	r0, [r0, #0]
  10:	9905      	ldr	r1, [sp, #20]
  12:	9203      	str	r2, [sp, #12]
  14:	9302      	str	r3, [sp, #8]
  16:	f7ff fffe 	bl	0 <_ZN42_$LT$$RF$T$u20$as$u20$core..fmt..Debug$GT$3fmt17h621e3e6d7052a7dbE>
  1a:	9001      	str	r0, [sp, #4]
  1c:	e7ff      	b.n	1e <_ZN42_$LT$$RF$T$u20$as$u20$core..fmt..Debug$GT$3fmt17h621e3e6d7052a7dbE+0x1e>
  1e:	9801      	ldr	r0, [sp, #4]
  20:	f000 0001 	and.w	r0, r0, #1
  24:	b006      	add	sp, #24
  26:	bd80      	pop	{r7, pc}

Disassembly of section .text._ZN42_$LT$$RF$T$u20$as$u20$core..fmt..Debug$GT$3fmt17h7f3efd56ed4e4138E:

00000000 <_ZN42_$LT$$RF$T$u20$as$u20$core..fmt..Debug$GT$3fmt17h7f3efd56ed4e4138E>:
_ZN42_$LT$$RF$T$u20$as$u20$core..fmt..Debug$GT$3fmt17h7f3efd56ed4e4138E():
/rustc/50a0defd5a93523067ef239936cc2e0755220904/src/libcore/fmt/mod.rs:1914
   0:	b580      	push	{r7, lr}
   2:	b086      	sub	sp, #24
   4:	460a      	mov	r2, r1
   6:	4603      	mov	r3, r0
   8:	9004      	str	r0, [sp, #16]
   a:	9105      	str	r1, [sp, #20]
   c:	9804      	ldr	r0, [sp, #16]
   e:	6800      	ldr	r0, [r0, #0]
  10:	9905      	ldr	r1, [sp, #20]
  12:	9203      	str	r2, [sp, #12]
  14:	9302      	str	r3, [sp, #8]
  16:	f7ff fffe 	bl	0 <_ZN42_$LT$$RF$T$u20$as$u20$core..fmt..Debug$GT$3fmt17h7f3efd56ed4e4138E>
  1a:	9001      	str	r0, [sp, #4]
  1c:	e7ff      	b.n	1e <_ZN42_$LT$$RF$T$u20$as$u20$core..fmt..Debug$GT$3fmt17h7f3efd56ed4e4138E+0x1e>
  1e:	9801      	ldr	r0, [sp, #4]
  20:	f000 0001 	and.w	r0, r0, #1
  24:	b006      	add	sp, #24
  26:	bd80      	pop	{r7, pc}

Disassembly of section .text._ZN42_$LT$$RF$T$u20$as$u20$core..fmt..Debug$GT$3fmt17hcca20f1604194f1cE:

00000000 <_ZN42_$LT$$RF$T$u20$as$u20$core..fmt..Debug$GT$3fmt17hcca20f1604194f1cE>:
_ZN42_$LT$$RF$T$u20$as$u20$core..fmt..Debug$GT$3fmt17hcca20f1604194f1cE():
/rustc/50a0defd5a93523067ef239936cc2e0755220904/src/libcore/fmt/mod.rs:1914
   0:	b580      	push	{r7, lr}
   2:	b086      	sub	sp, #24
   4:	460a      	mov	r2, r1
   6:	4603      	mov	r3, r0
   8:	9004      	str	r0, [sp, #16]
   a:	9105      	str	r1, [sp, #20]
   c:	9804      	ldr	r0, [sp, #16]
   e:	6800      	ldr	r0, [r0, #0]
  10:	9905      	ldr	r1, [sp, #20]
  12:	9203      	str	r2, [sp, #12]
  14:	9302      	str	r3, [sp, #8]
  16:	f7ff fffe 	bl	0 <_ZN42_$LT$$RF$T$u20$as$u20$core..fmt..Debug$GT$3fmt17hcca20f1604194f1cE>
  1a:	9001      	str	r0, [sp, #4]
  1c:	e7ff      	b.n	1e <_ZN42_$LT$$RF$T$u20$as$u20$core..fmt..Debug$GT$3fmt17hcca20f1604194f1cE+0x1e>
  1e:	9801      	ldr	r0, [sp, #4]
  20:	f000 0001 	and.w	r0, r0, #1
  24:	b006      	add	sp, #24
  26:	bd80      	pop	{r7, pc}

Disassembly of section .text._ZN42_$LT$$RF$T$u20$as$u20$core..fmt..Debug$GT$3fmt17hec02e5d7029bcca7E:

00000000 <_ZN42_$LT$$RF$T$u20$as$u20$core..fmt..Debug$GT$3fmt17hec02e5d7029bcca7E>:
_ZN42_$LT$$RF$T$u20$as$u20$core..fmt..Debug$GT$3fmt17hec02e5d7029bcca7E():
/rustc/50a0defd5a93523067ef239936cc2e0755220904/src/libcore/fmt/mod.rs:1914
   0:	b580      	push	{r7, lr}
   2:	b086      	sub	sp, #24
   4:	460a      	mov	r2, r1
   6:	4603      	mov	r3, r0
   8:	9004      	str	r0, [sp, #16]
   a:	9105      	str	r1, [sp, #20]
   c:	9804      	ldr	r0, [sp, #16]
   e:	6800      	ldr	r0, [r0, #0]
  10:	9905      	ldr	r1, [sp, #20]
  12:	9203      	str	r2, [sp, #12]
  14:	9302      	str	r3, [sp, #8]
  16:	f7ff fffe 	bl	0 <_ZN42_$LT$$RF$T$u20$as$u20$core..fmt..Debug$GT$3fmt17hec02e5d7029bcca7E>
  1a:	9001      	str	r0, [sp, #4]
  1c:	e7ff      	b.n	1e <_ZN42_$LT$$RF$T$u20$as$u20$core..fmt..Debug$GT$3fmt17hec02e5d7029bcca7E+0x1e>
  1e:	9801      	ldr	r0, [sp, #4]
  20:	f000 0001 	and.w	r0, r0, #1
  24:	b006      	add	sp, #24
  26:	bd80      	pop	{r7, pc}

Disassembly of section .text._ZN42_$LT$$RF$T$u20$as$u20$core..fmt..Debug$GT$3fmt17hf76728bd7bf145f4E:

00000000 <_ZN42_$LT$$RF$T$u20$as$u20$core..fmt..Debug$GT$3fmt17hf76728bd7bf145f4E>:
_ZN42_$LT$$RF$T$u20$as$u20$core..fmt..Debug$GT$3fmt17hf76728bd7bf145f4E():
/rustc/50a0defd5a93523067ef239936cc2e0755220904/src/libcore/fmt/mod.rs:1914
   0:	b580      	push	{r7, lr}
   2:	b086      	sub	sp, #24
   4:	460a      	mov	r2, r1
   6:	4603      	mov	r3, r0
   8:	9004      	str	r0, [sp, #16]
   a:	9105      	str	r1, [sp, #20]
   c:	9804      	ldr	r0, [sp, #16]
   e:	6800      	ldr	r0, [r0, #0]
  10:	9905      	ldr	r1, [sp, #20]
  12:	9203      	str	r2, [sp, #12]
  14:	9302      	str	r3, [sp, #8]
  16:	f7ff fffe 	bl	0 <_ZN42_$LT$$RF$T$u20$as$u20$core..fmt..Debug$GT$3fmt17hf76728bd7bf145f4E>
  1a:	9001      	str	r0, [sp, #4]
  1c:	e7ff      	b.n	1e <_ZN42_$LT$$RF$T$u20$as$u20$core..fmt..Debug$GT$3fmt17hf76728bd7bf145f4E+0x1e>
  1e:	9801      	ldr	r0, [sp, #4]
  20:	f000 0001 	and.w	r0, r0, #1
  24:	b006      	add	sp, #24
  26:	bd80      	pop	{r7, pc}

Disassembly of section .text._ZN66_$LT$core..option..Option$LT$T$GT$$u20$as$u20$core..fmt..Debug$GT$3fmt17h04b2c5ce17469a83E:

00000000 <_ZN66_$LT$core..option..Option$LT$T$GT$$u20$as$u20$core..fmt..Debug$GT$3fmt17h04b2c5ce17469a83E>:
_ZN66_$LT$core..option..Option$LT$T$GT$$u20$as$u20$core..fmt..Debug$GT$3fmt17h04b2c5ce17469a83E():
/rustc/50a0defd5a93523067ef239936cc2e0755220904/src/libcore/option.rs:148
   0:	b580      	push	{r7, lr}
   2:	b090      	sub	sp, #64	; 0x40
   4:	460a      	mov	r2, r1
   6:	4603      	mov	r3, r0
   8:	9004      	str	r0, [sp, #16]
   a:	9105      	str	r1, [sp, #20]
   c:	9804      	ldr	r0, [sp, #16]
   e:	9007      	str	r0, [sp, #28]
  10:	9807      	ldr	r0, [sp, #28]
  12:	6800      	ldr	r0, [r0, #0]
  14:	2800      	cmp	r0, #0
  16:	4601      	mov	r1, r0
  18:	bf18      	it	ne
  1a:	2101      	movne	r1, #1
  1c:	2800      	cmp	r0, #0
  1e:	9203      	str	r2, [sp, #12]
  20:	9302      	str	r3, [sp, #8]
  22:	9101      	str	r1, [sp, #4]
  24:	d005      	beq.n	32 <_ZN66_$LT$core..option..Option$LT$T$GT$$u20$as$u20$core..fmt..Debug$GT$3fmt17h04b2c5ce17469a83E+0x32>
  26:	e7ff      	b.n	28 <_ZN66_$LT$core..option..Option$LT$T$GT$$u20$as$u20$core..fmt..Debug$GT$3fmt17h04b2c5ce17469a83E+0x28>
  28:	9801      	ldr	r0, [sp, #4]
  2a:	2801      	cmp	r0, #1
  2c:	d012      	beq.n	54 <_ZN66_$LT$core..option..Option$LT$T$GT$$u20$as$u20$core..fmt..Debug$GT$3fmt17h04b2c5ce17469a83E+0x54>
  2e:	e7ff      	b.n	30 <_ZN66_$LT$core..option..Option$LT$T$GT$$u20$as$u20$core..fmt..Debug$GT$3fmt17h04b2c5ce17469a83E+0x30>
  30:	defe      	udf	#254	; 0xfe
  32:	9905      	ldr	r1, [sp, #20]
  34:	f240 0200 	movw	r2, #0
  38:	f2c0 0200 	movt	r2, #0
  3c:	a808      	add	r0, sp, #32
  3e:	2304      	movs	r3, #4
  40:	f7ff fffe 	bl	0 <_ZN4core3fmt9Formatter11debug_tuple17h793087e8ecab9022E>
  44:	e7ff      	b.n	46 <_ZN66_$LT$core..option..Option$LT$T$GT$$u20$as$u20$core..fmt..Debug$GT$3fmt17h04b2c5ce17469a83E+0x46>
  46:	a808      	add	r0, sp, #32
  48:	f7ff fffe 	bl	0 <_ZN4core3fmt8builders10DebugTuple6finish17h24d91625b3672e6dE>
  4c:	f88d 001b 	strb.w	r0, [sp, #27]
  50:	e7ff      	b.n	52 <_ZN66_$LT$core..option..Option$LT$T$GT$$u20$as$u20$core..fmt..Debug$GT$3fmt17h04b2c5ce17469a83E+0x52>
  52:	e01e      	b.n	92 <_ZN66_$LT$core..option..Option$LT$T$GT$$u20$as$u20$core..fmt..Debug$GT$3fmt17h04b2c5ce17469a83E+0x92>
/rustc/50a0defd5a93523067ef239936cc2e0755220904/src/libcore/option.rs:156
  54:	9807      	ldr	r0, [sp, #28]
  56:	900b      	str	r0, [sp, #44]	; 0x2c
/rustc/50a0defd5a93523067ef239936cc2e0755220904/src/libcore/option.rs:148
  58:	9905      	ldr	r1, [sp, #20]
  5a:	f240 0200 	movw	r2, #0
  5e:	f2c0 0200 	movt	r2, #0
  62:	a80c      	add	r0, sp, #48	; 0x30
  64:	2304      	movs	r3, #4
  66:	f7ff fffe 	bl	0 <_ZN4core3fmt9Formatter11debug_tuple17h793087e8ecab9022E>
  6a:	e7ff      	b.n	6c <_ZN66_$LT$core..option..Option$LT$T$GT$$u20$as$u20$core..fmt..Debug$GT$3fmt17h04b2c5ce17469a83E+0x6c>
/rustc/50a0defd5a93523067ef239936cc2e0755220904/src/libcore/option.rs:156
  6c:	980b      	ldr	r0, [sp, #44]	; 0x2c
  6e:	900f      	str	r0, [sp, #60]	; 0x3c
/rustc/50a0defd5a93523067ef239936cc2e0755220904/src/libcore/option.rs:148
  70:	f240 0200 	movw	r2, #0
  74:	f2c0 0200 	movt	r2, #0
  78:	a80c      	add	r0, sp, #48	; 0x30
  7a:	a90f      	add	r1, sp, #60	; 0x3c
  7c:	f7ff fffe 	bl	0 <_ZN4core3fmt8builders10DebugTuple5field17h7da5ac79cde13c49E>
  80:	9000      	str	r0, [sp, #0]
  82:	e7ff      	b.n	84 <_ZN66_$LT$core..option..Option$LT$T$GT$$u20$as$u20$core..fmt..Debug$GT$3fmt17h04b2c5ce17469a83E+0x84>
  84:	a80c      	add	r0, sp, #48	; 0x30
  86:	f7ff fffe 	bl	0 <_ZN4core3fmt8builders10DebugTuple6finish17h24d91625b3672e6dE>
  8a:	f88d 001b 	strb.w	r0, [sp, #27]
  8e:	e7ff      	b.n	90 <_ZN66_$LT$core..option..Option$LT$T$GT$$u20$as$u20$core..fmt..Debug$GT$3fmt17h04b2c5ce17469a83E+0x90>
  90:	e7ff      	b.n	92 <_ZN66_$LT$core..option..Option$LT$T$GT$$u20$as$u20$core..fmt..Debug$GT$3fmt17h04b2c5ce17469a83E+0x92>
  92:	f89d 001b 	ldrb.w	r0, [sp, #27]
  96:	b010      	add	sp, #64	; 0x40
  98:	bd80      	pop	{r7, pc}

Disassembly of section .text._ZN66_$LT$core..option..Option$LT$T$GT$$u20$as$u20$core..fmt..Debug$GT$3fmt17h30c413ab1f7c87f9E:

00000000 <_ZN66_$LT$core..option..Option$LT$T$GT$$u20$as$u20$core..fmt..Debug$GT$3fmt17h30c413ab1f7c87f9E>:
_ZN66_$LT$core..option..Option$LT$T$GT$$u20$as$u20$core..fmt..Debug$GT$3fmt17h30c413ab1f7c87f9E():
/rustc/50a0defd5a93523067ef239936cc2e0755220904/src/libcore/option.rs:148
   0:	b580      	push	{r7, lr}
   2:	b090      	sub	sp, #64	; 0x40
   4:	460a      	mov	r2, r1
   6:	4603      	mov	r3, r0
   8:	9004      	str	r0, [sp, #16]
   a:	9105      	str	r1, [sp, #20]
   c:	9804      	ldr	r0, [sp, #16]
   e:	9007      	str	r0, [sp, #28]
  10:	9807      	ldr	r0, [sp, #28]
  12:	6800      	ldr	r0, [r0, #0]
  14:	2800      	cmp	r0, #0
  16:	4601      	mov	r1, r0
  18:	bf18      	it	ne
  1a:	2101      	movne	r1, #1
  1c:	2800      	cmp	r0, #0
  1e:	9203      	str	r2, [sp, #12]
  20:	9302      	str	r3, [sp, #8]
  22:	9101      	str	r1, [sp, #4]
  24:	d005      	beq.n	32 <_ZN66_$LT$core..option..Option$LT$T$GT$$u20$as$u20$core..fmt..Debug$GT$3fmt17h30c413ab1f7c87f9E+0x32>
  26:	e7ff      	b.n	28 <_ZN66_$LT$core..option..Option$LT$T$GT$$u20$as$u20$core..fmt..Debug$GT$3fmt17h30c413ab1f7c87f9E+0x28>
  28:	9801      	ldr	r0, [sp, #4]
  2a:	2801      	cmp	r0, #1
  2c:	d012      	beq.n	54 <_ZN66_$LT$core..option..Option$LT$T$GT$$u20$as$u20$core..fmt..Debug$GT$3fmt17h30c413ab1f7c87f9E+0x54>
  2e:	e7ff      	b.n	30 <_ZN66_$LT$core..option..Option$LT$T$GT$$u20$as$u20$core..fmt..Debug$GT$3fmt17h30c413ab1f7c87f9E+0x30>
  30:	defe      	udf	#254	; 0xfe
  32:	9905      	ldr	r1, [sp, #20]
  34:	f240 0200 	movw	r2, #0
  38:	f2c0 0200 	movt	r2, #0
  3c:	a808      	add	r0, sp, #32
  3e:	2304      	movs	r3, #4
  40:	f7ff fffe 	bl	0 <_ZN4core3fmt9Formatter11debug_tuple17h793087e8ecab9022E>
  44:	e7ff      	b.n	46 <_ZN66_$LT$core..option..Option$LT$T$GT$$u20$as$u20$core..fmt..Debug$GT$3fmt17h30c413ab1f7c87f9E+0x46>
  46:	a808      	add	r0, sp, #32
  48:	f7ff fffe 	bl	0 <_ZN4core3fmt8builders10DebugTuple6finish17h24d91625b3672e6dE>
  4c:	f88d 001b 	strb.w	r0, [sp, #27]
  50:	e7ff      	b.n	52 <_ZN66_$LT$core..option..Option$LT$T$GT$$u20$as$u20$core..fmt..Debug$GT$3fmt17h30c413ab1f7c87f9E+0x52>
  52:	e01e      	b.n	92 <_ZN66_$LT$core..option..Option$LT$T$GT$$u20$as$u20$core..fmt..Debug$GT$3fmt17h30c413ab1f7c87f9E+0x92>
/rustc/50a0defd5a93523067ef239936cc2e0755220904/src/libcore/option.rs:156
  54:	9807      	ldr	r0, [sp, #28]
  56:	900b      	str	r0, [sp, #44]	; 0x2c
/rustc/50a0defd5a93523067ef239936cc2e0755220904/src/libcore/option.rs:148
  58:	9905      	ldr	r1, [sp, #20]
  5a:	f240 0200 	movw	r2, #0
  5e:	f2c0 0200 	movt	r2, #0
  62:	a80c      	add	r0, sp, #48	; 0x30
  64:	2304      	movs	r3, #4
  66:	f7ff fffe 	bl	0 <_ZN4core3fmt9Formatter11debug_tuple17h793087e8ecab9022E>
  6a:	e7ff      	b.n	6c <_ZN66_$LT$core..option..Option$LT$T$GT$$u20$as$u20$core..fmt..Debug$GT$3fmt17h30c413ab1f7c87f9E+0x6c>
/rustc/50a0defd5a93523067ef239936cc2e0755220904/src/libcore/option.rs:156
  6c:	980b      	ldr	r0, [sp, #44]	; 0x2c
  6e:	900f      	str	r0, [sp, #60]	; 0x3c
/rustc/50a0defd5a93523067ef239936cc2e0755220904/src/libcore/option.rs:148
  70:	f240 0200 	movw	r2, #0
  74:	f2c0 0200 	movt	r2, #0
  78:	a80c      	add	r0, sp, #48	; 0x30
  7a:	a90f      	add	r1, sp, #60	; 0x3c
  7c:	f7ff fffe 	bl	0 <_ZN4core3fmt8builders10DebugTuple5field17h7da5ac79cde13c49E>
  80:	9000      	str	r0, [sp, #0]
  82:	e7ff      	b.n	84 <_ZN66_$LT$core..option..Option$LT$T$GT$$u20$as$u20$core..fmt..Debug$GT$3fmt17h30c413ab1f7c87f9E+0x84>
  84:	a80c      	add	r0, sp, #48	; 0x30
  86:	f7ff fffe 	bl	0 <_ZN4core3fmt8builders10DebugTuple6finish17h24d91625b3672e6dE>
  8a:	f88d 001b 	strb.w	r0, [sp, #27]
  8e:	e7ff      	b.n	90 <_ZN66_$LT$core..option..Option$LT$T$GT$$u20$as$u20$core..fmt..Debug$GT$3fmt17h30c413ab1f7c87f9E+0x90>
  90:	e7ff      	b.n	92 <_ZN66_$LT$core..option..Option$LT$T$GT$$u20$as$u20$core..fmt..Debug$GT$3fmt17h30c413ab1f7c87f9E+0x92>
  92:	f89d 001b 	ldrb.w	r0, [sp, #27]
  96:	b010      	add	sp, #64	; 0x40
  98:	bd80      	pop	{r7, pc}

Disassembly of section .text._ZN66_$LT$core..option..Option$LT$T$GT$$u20$as$u20$core..fmt..Debug$GT$3fmt17h4afe495048b4c3dbE:

00000000 <_ZN66_$LT$core..option..Option$LT$T$GT$$u20$as$u20$core..fmt..Debug$GT$3fmt17h4afe495048b4c3dbE>:
_ZN66_$LT$core..option..Option$LT$T$GT$$u20$as$u20$core..fmt..Debug$GT$3fmt17h4afe495048b4c3dbE():
/rustc/50a0defd5a93523067ef239936cc2e0755220904/src/libcore/option.rs:148
   0:	b580      	push	{r7, lr}
   2:	b090      	sub	sp, #64	; 0x40
   4:	460a      	mov	r2, r1
   6:	4603      	mov	r3, r0
   8:	9004      	str	r0, [sp, #16]
   a:	9105      	str	r1, [sp, #20]
   c:	9804      	ldr	r0, [sp, #16]
   e:	9007      	str	r0, [sp, #28]
  10:	9807      	ldr	r0, [sp, #28]
  12:	6800      	ldr	r0, [r0, #0]
  14:	2800      	cmp	r0, #0
  16:	4601      	mov	r1, r0
  18:	bf18      	it	ne
  1a:	2101      	movne	r1, #1
  1c:	2800      	cmp	r0, #0
  1e:	9203      	str	r2, [sp, #12]
  20:	9302      	str	r3, [sp, #8]
  22:	9101      	str	r1, [sp, #4]
  24:	d005      	beq.n	32 <_ZN66_$LT$core..option..Option$LT$T$GT$$u20$as$u20$core..fmt..Debug$GT$3fmt17h4afe495048b4c3dbE+0x32>
  26:	e7ff      	b.n	28 <_ZN66_$LT$core..option..Option$LT$T$GT$$u20$as$u20$core..fmt..Debug$GT$3fmt17h4afe495048b4c3dbE+0x28>
  28:	9801      	ldr	r0, [sp, #4]
  2a:	2801      	cmp	r0, #1
  2c:	d012      	beq.n	54 <_ZN66_$LT$core..option..Option$LT$T$GT$$u20$as$u20$core..fmt..Debug$GT$3fmt17h4afe495048b4c3dbE+0x54>
  2e:	e7ff      	b.n	30 <_ZN66_$LT$core..option..Option$LT$T$GT$$u20$as$u20$core..fmt..Debug$GT$3fmt17h4afe495048b4c3dbE+0x30>
  30:	defe      	udf	#254	; 0xfe
  32:	9905      	ldr	r1, [sp, #20]
  34:	f240 0200 	movw	r2, #0
  38:	f2c0 0200 	movt	r2, #0
  3c:	a808      	add	r0, sp, #32
  3e:	2304      	movs	r3, #4
  40:	f7ff fffe 	bl	0 <_ZN4core3fmt9Formatter11debug_tuple17h793087e8ecab9022E>
  44:	e7ff      	b.n	46 <_ZN66_$LT$core..option..Option$LT$T$GT$$u20$as$u20$core..fmt..Debug$GT$3fmt17h4afe495048b4c3dbE+0x46>
  46:	a808      	add	r0, sp, #32
  48:	f7ff fffe 	bl	0 <_ZN4core3fmt8builders10DebugTuple6finish17h24d91625b3672e6dE>
  4c:	f88d 001b 	strb.w	r0, [sp, #27]
  50:	e7ff      	b.n	52 <_ZN66_$LT$core..option..Option$LT$T$GT$$u20$as$u20$core..fmt..Debug$GT$3fmt17h4afe495048b4c3dbE+0x52>
  52:	e01e      	b.n	92 <_ZN66_$LT$core..option..Option$LT$T$GT$$u20$as$u20$core..fmt..Debug$GT$3fmt17h4afe495048b4c3dbE+0x92>
/rustc/50a0defd5a93523067ef239936cc2e0755220904/src/libcore/option.rs:156
  54:	9807      	ldr	r0, [sp, #28]
  56:	900b      	str	r0, [sp, #44]	; 0x2c
/rustc/50a0defd5a93523067ef239936cc2e0755220904/src/libcore/option.rs:148
  58:	9905      	ldr	r1, [sp, #20]
  5a:	f240 0200 	movw	r2, #0
  5e:	f2c0 0200 	movt	r2, #0
  62:	a80c      	add	r0, sp, #48	; 0x30
  64:	2304      	movs	r3, #4
  66:	f7ff fffe 	bl	0 <_ZN4core3fmt9Formatter11debug_tuple17h793087e8ecab9022E>
  6a:	e7ff      	b.n	6c <_ZN66_$LT$core..option..Option$LT$T$GT$$u20$as$u20$core..fmt..Debug$GT$3fmt17h4afe495048b4c3dbE+0x6c>
/rustc/50a0defd5a93523067ef239936cc2e0755220904/src/libcore/option.rs:156
  6c:	980b      	ldr	r0, [sp, #44]	; 0x2c
  6e:	900f      	str	r0, [sp, #60]	; 0x3c
/rustc/50a0defd5a93523067ef239936cc2e0755220904/src/libcore/option.rs:148
  70:	f240 0200 	movw	r2, #0
  74:	f2c0 0200 	movt	r2, #0
  78:	a80c      	add	r0, sp, #48	; 0x30
  7a:	a90f      	add	r1, sp, #60	; 0x3c
  7c:	f7ff fffe 	bl	0 <_ZN4core3fmt8builders10DebugTuple5field17h7da5ac79cde13c49E>
  80:	9000      	str	r0, [sp, #0]
  82:	e7ff      	b.n	84 <_ZN66_$LT$core..option..Option$LT$T$GT$$u20$as$u20$core..fmt..Debug$GT$3fmt17h4afe495048b4c3dbE+0x84>
  84:	a80c      	add	r0, sp, #48	; 0x30
  86:	f7ff fffe 	bl	0 <_ZN4core3fmt8builders10DebugTuple6finish17h24d91625b3672e6dE>
  8a:	f88d 001b 	strb.w	r0, [sp, #27]
  8e:	e7ff      	b.n	90 <_ZN66_$LT$core..option..Option$LT$T$GT$$u20$as$u20$core..fmt..Debug$GT$3fmt17h4afe495048b4c3dbE+0x90>
  90:	e7ff      	b.n	92 <_ZN66_$LT$core..option..Option$LT$T$GT$$u20$as$u20$core..fmt..Debug$GT$3fmt17h4afe495048b4c3dbE+0x92>
  92:	f89d 001b 	ldrb.w	r0, [sp, #27]
  96:	b010      	add	sp, #64	; 0x40
  98:	bd80      	pop	{r7, pc}

Disassembly of section .text._ZN66_$LT$core..option..Option$LT$T$GT$$u20$as$u20$core..fmt..Debug$GT$3fmt17h5f464829a00b6487E:

00000000 <_ZN66_$LT$core..option..Option$LT$T$GT$$u20$as$u20$core..fmt..Debug$GT$3fmt17h5f464829a00b6487E>:
_ZN66_$LT$core..option..Option$LT$T$GT$$u20$as$u20$core..fmt..Debug$GT$3fmt17h5f464829a00b6487E():
/rustc/50a0defd5a93523067ef239936cc2e0755220904/src/libcore/option.rs:148
   0:	b580      	push	{r7, lr}
   2:	b090      	sub	sp, #64	; 0x40
   4:	460a      	mov	r2, r1
   6:	4603      	mov	r3, r0
   8:	9004      	str	r0, [sp, #16]
   a:	9105      	str	r1, [sp, #20]
   c:	9804      	ldr	r0, [sp, #16]
   e:	9007      	str	r0, [sp, #28]
  10:	9807      	ldr	r0, [sp, #28]
  12:	6800      	ldr	r0, [r0, #0]
  14:	2800      	cmp	r0, #0
  16:	4601      	mov	r1, r0
  18:	bf18      	it	ne
  1a:	2101      	movne	r1, #1
  1c:	2800      	cmp	r0, #0
  1e:	9203      	str	r2, [sp, #12]
  20:	9302      	str	r3, [sp, #8]
  22:	9101      	str	r1, [sp, #4]
  24:	d005      	beq.n	32 <_ZN66_$LT$core..option..Option$LT$T$GT$$u20$as$u20$core..fmt..Debug$GT$3fmt17h5f464829a00b6487E+0x32>
  26:	e7ff      	b.n	28 <_ZN66_$LT$core..option..Option$LT$T$GT$$u20$as$u20$core..fmt..Debug$GT$3fmt17h5f464829a00b6487E+0x28>
  28:	9801      	ldr	r0, [sp, #4]
  2a:	2801      	cmp	r0, #1
  2c:	d012      	beq.n	54 <_ZN66_$LT$core..option..Option$LT$T$GT$$u20$as$u20$core..fmt..Debug$GT$3fmt17h5f464829a00b6487E+0x54>
  2e:	e7ff      	b.n	30 <_ZN66_$LT$core..option..Option$LT$T$GT$$u20$as$u20$core..fmt..Debug$GT$3fmt17h5f464829a00b6487E+0x30>
  30:	defe      	udf	#254	; 0xfe
  32:	9905      	ldr	r1, [sp, #20]
  34:	f240 0200 	movw	r2, #0
  38:	f2c0 0200 	movt	r2, #0
  3c:	a808      	add	r0, sp, #32
  3e:	2304      	movs	r3, #4
  40:	f7ff fffe 	bl	0 <_ZN4core3fmt9Formatter11debug_tuple17h793087e8ecab9022E>
  44:	e7ff      	b.n	46 <_ZN66_$LT$core..option..Option$LT$T$GT$$u20$as$u20$core..fmt..Debug$GT$3fmt17h5f464829a00b6487E+0x46>
  46:	a808      	add	r0, sp, #32
  48:	f7ff fffe 	bl	0 <_ZN4core3fmt8builders10DebugTuple6finish17h24d91625b3672e6dE>
  4c:	f88d 001b 	strb.w	r0, [sp, #27]
  50:	e7ff      	b.n	52 <_ZN66_$LT$core..option..Option$LT$T$GT$$u20$as$u20$core..fmt..Debug$GT$3fmt17h5f464829a00b6487E+0x52>
  52:	e01e      	b.n	92 <_ZN66_$LT$core..option..Option$LT$T$GT$$u20$as$u20$core..fmt..Debug$GT$3fmt17h5f464829a00b6487E+0x92>
/rustc/50a0defd5a93523067ef239936cc2e0755220904/src/libcore/option.rs:156
  54:	9807      	ldr	r0, [sp, #28]
  56:	900b      	str	r0, [sp, #44]	; 0x2c
/rustc/50a0defd5a93523067ef239936cc2e0755220904/src/libcore/option.rs:148
  58:	9905      	ldr	r1, [sp, #20]
  5a:	f240 0200 	movw	r2, #0
  5e:	f2c0 0200 	movt	r2, #0
  62:	a80c      	add	r0, sp, #48	; 0x30
  64:	2304      	movs	r3, #4
  66:	f7ff fffe 	bl	0 <_ZN4core3fmt9Formatter11debug_tuple17h793087e8ecab9022E>
  6a:	e7ff      	b.n	6c <_ZN66_$LT$core..option..Option$LT$T$GT$$u20$as$u20$core..fmt..Debug$GT$3fmt17h5f464829a00b6487E+0x6c>
/rustc/50a0defd5a93523067ef239936cc2e0755220904/src/libcore/option.rs:156
  6c:	980b      	ldr	r0, [sp, #44]	; 0x2c
  6e:	900f      	str	r0, [sp, #60]	; 0x3c
/rustc/50a0defd5a93523067ef239936cc2e0755220904/src/libcore/option.rs:148
  70:	f240 0200 	movw	r2, #0
  74:	f2c0 0200 	movt	r2, #0
  78:	a80c      	add	r0, sp, #48	; 0x30
  7a:	a90f      	add	r1, sp, #60	; 0x3c
  7c:	f7ff fffe 	bl	0 <_ZN4core3fmt8builders10DebugTuple5field17h7da5ac79cde13c49E>
  80:	9000      	str	r0, [sp, #0]
  82:	e7ff      	b.n	84 <_ZN66_$LT$core..option..Option$LT$T$GT$$u20$as$u20$core..fmt..Debug$GT$3fmt17h5f464829a00b6487E+0x84>
  84:	a80c      	add	r0, sp, #48	; 0x30
  86:	f7ff fffe 	bl	0 <_ZN4core3fmt8builders10DebugTuple6finish17h24d91625b3672e6dE>
  8a:	f88d 001b 	strb.w	r0, [sp, #27]
  8e:	e7ff      	b.n	90 <_ZN66_$LT$core..option..Option$LT$T$GT$$u20$as$u20$core..fmt..Debug$GT$3fmt17h5f464829a00b6487E+0x90>
  90:	e7ff      	b.n	92 <_ZN66_$LT$core..option..Option$LT$T$GT$$u20$as$u20$core..fmt..Debug$GT$3fmt17h5f464829a00b6487E+0x92>
  92:	f89d 001b 	ldrb.w	r0, [sp, #27]
  96:	b010      	add	sp, #64	; 0x40
  98:	bd80      	pop	{r7, pc}

Disassembly of section .text._ZN66_$LT$core..option..Option$LT$T$GT$$u20$as$u20$core..fmt..Debug$GT$3fmt17h6d74c34c2e91d74dE:

00000000 <_ZN66_$LT$core..option..Option$LT$T$GT$$u20$as$u20$core..fmt..Debug$GT$3fmt17h6d74c34c2e91d74dE>:
_ZN66_$LT$core..option..Option$LT$T$GT$$u20$as$u20$core..fmt..Debug$GT$3fmt17h6d74c34c2e91d74dE():
/rustc/50a0defd5a93523067ef239936cc2e0755220904/src/libcore/option.rs:148
   0:	b580      	push	{r7, lr}
   2:	b090      	sub	sp, #64	; 0x40
   4:	460a      	mov	r2, r1
   6:	4603      	mov	r3, r0
   8:	9004      	str	r0, [sp, #16]
   a:	9105      	str	r1, [sp, #20]
   c:	9804      	ldr	r0, [sp, #16]
   e:	9007      	str	r0, [sp, #28]
  10:	9807      	ldr	r0, [sp, #28]
  12:	6800      	ldr	r0, [r0, #0]
  14:	2800      	cmp	r0, #0
  16:	4601      	mov	r1, r0
  18:	bf18      	it	ne
  1a:	2101      	movne	r1, #1
  1c:	2800      	cmp	r0, #0
  1e:	9203      	str	r2, [sp, #12]
  20:	9302      	str	r3, [sp, #8]
  22:	9101      	str	r1, [sp, #4]
  24:	d005      	beq.n	32 <_ZN66_$LT$core..option..Option$LT$T$GT$$u20$as$u20$core..fmt..Debug$GT$3fmt17h6d74c34c2e91d74dE+0x32>
  26:	e7ff      	b.n	28 <_ZN66_$LT$core..option..Option$LT$T$GT$$u20$as$u20$core..fmt..Debug$GT$3fmt17h6d74c34c2e91d74dE+0x28>
  28:	9801      	ldr	r0, [sp, #4]
  2a:	2801      	cmp	r0, #1
  2c:	d012      	beq.n	54 <_ZN66_$LT$core..option..Option$LT$T$GT$$u20$as$u20$core..fmt..Debug$GT$3fmt17h6d74c34c2e91d74dE+0x54>
  2e:	e7ff      	b.n	30 <_ZN66_$LT$core..option..Option$LT$T$GT$$u20$as$u20$core..fmt..Debug$GT$3fmt17h6d74c34c2e91d74dE+0x30>
  30:	defe      	udf	#254	; 0xfe
  32:	9905      	ldr	r1, [sp, #20]
  34:	f240 0200 	movw	r2, #0
  38:	f2c0 0200 	movt	r2, #0
  3c:	a808      	add	r0, sp, #32
  3e:	2304      	movs	r3, #4
  40:	f7ff fffe 	bl	0 <_ZN4core3fmt9Formatter11debug_tuple17h793087e8ecab9022E>
  44:	e7ff      	b.n	46 <_ZN66_$LT$core..option..Option$LT$T$GT$$u20$as$u20$core..fmt..Debug$GT$3fmt17h6d74c34c2e91d74dE+0x46>
  46:	a808      	add	r0, sp, #32
  48:	f7ff fffe 	bl	0 <_ZN4core3fmt8builders10DebugTuple6finish17h24d91625b3672e6dE>
  4c:	f88d 001b 	strb.w	r0, [sp, #27]
  50:	e7ff      	b.n	52 <_ZN66_$LT$core..option..Option$LT$T$GT$$u20$as$u20$core..fmt..Debug$GT$3fmt17h6d74c34c2e91d74dE+0x52>
  52:	e01e      	b.n	92 <_ZN66_$LT$core..option..Option$LT$T$GT$$u20$as$u20$core..fmt..Debug$GT$3fmt17h6d74c34c2e91d74dE+0x92>
/rustc/50a0defd5a93523067ef239936cc2e0755220904/src/libcore/option.rs:156
  54:	9807      	ldr	r0, [sp, #28]
  56:	900b      	str	r0, [sp, #44]	; 0x2c
/rustc/50a0defd5a93523067ef239936cc2e0755220904/src/libcore/option.rs:148
  58:	9905      	ldr	r1, [sp, #20]
  5a:	f240 0200 	movw	r2, #0
  5e:	f2c0 0200 	movt	r2, #0
  62:	a80c      	add	r0, sp, #48	; 0x30
  64:	2304      	movs	r3, #4
  66:	f7ff fffe 	bl	0 <_ZN4core3fmt9Formatter11debug_tuple17h793087e8ecab9022E>
  6a:	e7ff      	b.n	6c <_ZN66_$LT$core..option..Option$LT$T$GT$$u20$as$u20$core..fmt..Debug$GT$3fmt17h6d74c34c2e91d74dE+0x6c>
/rustc/50a0defd5a93523067ef239936cc2e0755220904/src/libcore/option.rs:156
  6c:	980b      	ldr	r0, [sp, #44]	; 0x2c
  6e:	900f      	str	r0, [sp, #60]	; 0x3c
/rustc/50a0defd5a93523067ef239936cc2e0755220904/src/libcore/option.rs:148
  70:	f240 0200 	movw	r2, #0
  74:	f2c0 0200 	movt	r2, #0
  78:	a80c      	add	r0, sp, #48	; 0x30
  7a:	a90f      	add	r1, sp, #60	; 0x3c
  7c:	f7ff fffe 	bl	0 <_ZN4core3fmt8builders10DebugTuple5field17h7da5ac79cde13c49E>
  80:	9000      	str	r0, [sp, #0]
  82:	e7ff      	b.n	84 <_ZN66_$LT$core..option..Option$LT$T$GT$$u20$as$u20$core..fmt..Debug$GT$3fmt17h6d74c34c2e91d74dE+0x84>
  84:	a80c      	add	r0, sp, #48	; 0x30
  86:	f7ff fffe 	bl	0 <_ZN4core3fmt8builders10DebugTuple6finish17h24d91625b3672e6dE>
  8a:	f88d 001b 	strb.w	r0, [sp, #27]
  8e:	e7ff      	b.n	90 <_ZN66_$LT$core..option..Option$LT$T$GT$$u20$as$u20$core..fmt..Debug$GT$3fmt17h6d74c34c2e91d74dE+0x90>
  90:	e7ff      	b.n	92 <_ZN66_$LT$core..option..Option$LT$T$GT$$u20$as$u20$core..fmt..Debug$GT$3fmt17h6d74c34c2e91d74dE+0x92>
  92:	f89d 001b 	ldrb.w	r0, [sp, #27]
  96:	b010      	add	sp, #64	; 0x40
  98:	bd80      	pop	{r7, pc}

Disassembly of section .text._ZN66_$LT$core..option..Option$LT$T$GT$$u20$as$u20$core..fmt..Debug$GT$3fmt17h9c47d0054bbf89c7E:

00000000 <_ZN66_$LT$core..option..Option$LT$T$GT$$u20$as$u20$core..fmt..Debug$GT$3fmt17h9c47d0054bbf89c7E>:
_ZN66_$LT$core..option..Option$LT$T$GT$$u20$as$u20$core..fmt..Debug$GT$3fmt17h9c47d0054bbf89c7E():
/rustc/50a0defd5a93523067ef239936cc2e0755220904/src/libcore/option.rs:148
   0:	b580      	push	{r7, lr}
   2:	b090      	sub	sp, #64	; 0x40
   4:	460a      	mov	r2, r1
   6:	4603      	mov	r3, r0
   8:	9004      	str	r0, [sp, #16]
   a:	9105      	str	r1, [sp, #20]
   c:	9804      	ldr	r0, [sp, #16]
   e:	9007      	str	r0, [sp, #28]
  10:	9807      	ldr	r0, [sp, #28]
  12:	6800      	ldr	r0, [r0, #0]
  14:	2800      	cmp	r0, #0
  16:	4601      	mov	r1, r0
  18:	bf18      	it	ne
  1a:	2101      	movne	r1, #1
  1c:	2800      	cmp	r0, #0
  1e:	9203      	str	r2, [sp, #12]
  20:	9302      	str	r3, [sp, #8]
  22:	9101      	str	r1, [sp, #4]
  24:	d005      	beq.n	32 <_ZN66_$LT$core..option..Option$LT$T$GT$$u20$as$u20$core..fmt..Debug$GT$3fmt17h9c47d0054bbf89c7E+0x32>
  26:	e7ff      	b.n	28 <_ZN66_$LT$core..option..Option$LT$T$GT$$u20$as$u20$core..fmt..Debug$GT$3fmt17h9c47d0054bbf89c7E+0x28>
  28:	9801      	ldr	r0, [sp, #4]
  2a:	2801      	cmp	r0, #1
  2c:	d012      	beq.n	54 <_ZN66_$LT$core..option..Option$LT$T$GT$$u20$as$u20$core..fmt..Debug$GT$3fmt17h9c47d0054bbf89c7E+0x54>
  2e:	e7ff      	b.n	30 <_ZN66_$LT$core..option..Option$LT$T$GT$$u20$as$u20$core..fmt..Debug$GT$3fmt17h9c47d0054bbf89c7E+0x30>
  30:	defe      	udf	#254	; 0xfe
  32:	9905      	ldr	r1, [sp, #20]
  34:	f240 0200 	movw	r2, #0
  38:	f2c0 0200 	movt	r2, #0
  3c:	a808      	add	r0, sp, #32
  3e:	2304      	movs	r3, #4
  40:	f7ff fffe 	bl	0 <_ZN4core3fmt9Formatter11debug_tuple17h793087e8ecab9022E>
  44:	e7ff      	b.n	46 <_ZN66_$LT$core..option..Option$LT$T$GT$$u20$as$u20$core..fmt..Debug$GT$3fmt17h9c47d0054bbf89c7E+0x46>
  46:	a808      	add	r0, sp, #32
  48:	f7ff fffe 	bl	0 <_ZN4core3fmt8builders10DebugTuple6finish17h24d91625b3672e6dE>
  4c:	f88d 001b 	strb.w	r0, [sp, #27]
  50:	e7ff      	b.n	52 <_ZN66_$LT$core..option..Option$LT$T$GT$$u20$as$u20$core..fmt..Debug$GT$3fmt17h9c47d0054bbf89c7E+0x52>
  52:	e01e      	b.n	92 <_ZN66_$LT$core..option..Option$LT$T$GT$$u20$as$u20$core..fmt..Debug$GT$3fmt17h9c47d0054bbf89c7E+0x92>
/rustc/50a0defd5a93523067ef239936cc2e0755220904/src/libcore/option.rs:156
  54:	9807      	ldr	r0, [sp, #28]
  56:	900b      	str	r0, [sp, #44]	; 0x2c
/rustc/50a0defd5a93523067ef239936cc2e0755220904/src/libcore/option.rs:148
  58:	9905      	ldr	r1, [sp, #20]
  5a:	f240 0200 	movw	r2, #0
  5e:	f2c0 0200 	movt	r2, #0
  62:	a80c      	add	r0, sp, #48	; 0x30
  64:	2304      	movs	r3, #4
  66:	f7ff fffe 	bl	0 <_ZN4core3fmt9Formatter11debug_tuple17h793087e8ecab9022E>
  6a:	e7ff      	b.n	6c <_ZN66_$LT$core..option..Option$LT$T$GT$$u20$as$u20$core..fmt..Debug$GT$3fmt17h9c47d0054bbf89c7E+0x6c>
/rustc/50a0defd5a93523067ef239936cc2e0755220904/src/libcore/option.rs:156
  6c:	980b      	ldr	r0, [sp, #44]	; 0x2c
  6e:	900f      	str	r0, [sp, #60]	; 0x3c
/rustc/50a0defd5a93523067ef239936cc2e0755220904/src/libcore/option.rs:148
  70:	f240 0200 	movw	r2, #0
  74:	f2c0 0200 	movt	r2, #0
  78:	a80c      	add	r0, sp, #48	; 0x30
  7a:	a90f      	add	r1, sp, #60	; 0x3c
  7c:	f7ff fffe 	bl	0 <_ZN4core3fmt8builders10DebugTuple5field17h7da5ac79cde13c49E>
  80:	9000      	str	r0, [sp, #0]
  82:	e7ff      	b.n	84 <_ZN66_$LT$core..option..Option$LT$T$GT$$u20$as$u20$core..fmt..Debug$GT$3fmt17h9c47d0054bbf89c7E+0x84>
  84:	a80c      	add	r0, sp, #48	; 0x30
  86:	f7ff fffe 	bl	0 <_ZN4core3fmt8builders10DebugTuple6finish17h24d91625b3672e6dE>
  8a:	f88d 001b 	strb.w	r0, [sp, #27]
  8e:	e7ff      	b.n	90 <_ZN66_$LT$core..option..Option$LT$T$GT$$u20$as$u20$core..fmt..Debug$GT$3fmt17h9c47d0054bbf89c7E+0x90>
  90:	e7ff      	b.n	92 <_ZN66_$LT$core..option..Option$LT$T$GT$$u20$as$u20$core..fmt..Debug$GT$3fmt17h9c47d0054bbf89c7E+0x92>
  92:	f89d 001b 	ldrb.w	r0, [sp, #27]
  96:	b010      	add	sp, #64	; 0x40
  98:	bd80      	pop	{r7, pc}

Disassembly of section .text._ZN66_$LT$core..option..Option$LT$T$GT$$u20$as$u20$core..fmt..Debug$GT$3fmt17ha074fb9b0c97a216E:

00000000 <_ZN66_$LT$core..option..Option$LT$T$GT$$u20$as$u20$core..fmt..Debug$GT$3fmt17ha074fb9b0c97a216E>:
_ZN66_$LT$core..option..Option$LT$T$GT$$u20$as$u20$core..fmt..Debug$GT$3fmt17ha074fb9b0c97a216E():
/rustc/50a0defd5a93523067ef239936cc2e0755220904/src/libcore/option.rs:148
   0:	b580      	push	{r7, lr}
   2:	b090      	sub	sp, #64	; 0x40
   4:	460a      	mov	r2, r1
   6:	4603      	mov	r3, r0
   8:	9004      	str	r0, [sp, #16]
   a:	9105      	str	r1, [sp, #20]
   c:	9804      	ldr	r0, [sp, #16]
   e:	9007      	str	r0, [sp, #28]
  10:	9807      	ldr	r0, [sp, #28]
  12:	6800      	ldr	r0, [r0, #0]
  14:	2800      	cmp	r0, #0
  16:	4601      	mov	r1, r0
  18:	bf18      	it	ne
  1a:	2101      	movne	r1, #1
  1c:	2800      	cmp	r0, #0
  1e:	9203      	str	r2, [sp, #12]
  20:	9302      	str	r3, [sp, #8]
  22:	9101      	str	r1, [sp, #4]
  24:	d005      	beq.n	32 <_ZN66_$LT$core..option..Option$LT$T$GT$$u20$as$u20$core..fmt..Debug$GT$3fmt17ha074fb9b0c97a216E+0x32>
  26:	e7ff      	b.n	28 <_ZN66_$LT$core..option..Option$LT$T$GT$$u20$as$u20$core..fmt..Debug$GT$3fmt17ha074fb9b0c97a216E+0x28>
  28:	9801      	ldr	r0, [sp, #4]
  2a:	2801      	cmp	r0, #1
  2c:	d012      	beq.n	54 <_ZN66_$LT$core..option..Option$LT$T$GT$$u20$as$u20$core..fmt..Debug$GT$3fmt17ha074fb9b0c97a216E+0x54>
  2e:	e7ff      	b.n	30 <_ZN66_$LT$core..option..Option$LT$T$GT$$u20$as$u20$core..fmt..Debug$GT$3fmt17ha074fb9b0c97a216E+0x30>
  30:	defe      	udf	#254	; 0xfe
  32:	9905      	ldr	r1, [sp, #20]
  34:	f240 0200 	movw	r2, #0
  38:	f2c0 0200 	movt	r2, #0
  3c:	a808      	add	r0, sp, #32
  3e:	2304      	movs	r3, #4
  40:	f7ff fffe 	bl	0 <_ZN4core3fmt9Formatter11debug_tuple17h793087e8ecab9022E>
  44:	e7ff      	b.n	46 <_ZN66_$LT$core..option..Option$LT$T$GT$$u20$as$u20$core..fmt..Debug$GT$3fmt17ha074fb9b0c97a216E+0x46>
  46:	a808      	add	r0, sp, #32
  48:	f7ff fffe 	bl	0 <_ZN4core3fmt8builders10DebugTuple6finish17h24d91625b3672e6dE>
  4c:	f88d 001b 	strb.w	r0, [sp, #27]
  50:	e7ff      	b.n	52 <_ZN66_$LT$core..option..Option$LT$T$GT$$u20$as$u20$core..fmt..Debug$GT$3fmt17ha074fb9b0c97a216E+0x52>
  52:	e01e      	b.n	92 <_ZN66_$LT$core..option..Option$LT$T$GT$$u20$as$u20$core..fmt..Debug$GT$3fmt17ha074fb9b0c97a216E+0x92>
/rustc/50a0defd5a93523067ef239936cc2e0755220904/src/libcore/option.rs:156
  54:	9807      	ldr	r0, [sp, #28]
  56:	900b      	str	r0, [sp, #44]	; 0x2c
/rustc/50a0defd5a93523067ef239936cc2e0755220904/src/libcore/option.rs:148
  58:	9905      	ldr	r1, [sp, #20]
  5a:	f240 0200 	movw	r2, #0
  5e:	f2c0 0200 	movt	r2, #0
  62:	a80c      	add	r0, sp, #48	; 0x30
  64:	2304      	movs	r3, #4
  66:	f7ff fffe 	bl	0 <_ZN4core3fmt9Formatter11debug_tuple17h793087e8ecab9022E>
  6a:	e7ff      	b.n	6c <_ZN66_$LT$core..option..Option$LT$T$GT$$u20$as$u20$core..fmt..Debug$GT$3fmt17ha074fb9b0c97a216E+0x6c>
/rustc/50a0defd5a93523067ef239936cc2e0755220904/src/libcore/option.rs:156
  6c:	980b      	ldr	r0, [sp, #44]	; 0x2c
  6e:	900f      	str	r0, [sp, #60]	; 0x3c
/rustc/50a0defd5a93523067ef239936cc2e0755220904/src/libcore/option.rs:148
  70:	f240 0200 	movw	r2, #0
  74:	f2c0 0200 	movt	r2, #0
  78:	a80c      	add	r0, sp, #48	; 0x30
  7a:	a90f      	add	r1, sp, #60	; 0x3c
  7c:	f7ff fffe 	bl	0 <_ZN4core3fmt8builders10DebugTuple5field17h7da5ac79cde13c49E>
  80:	9000      	str	r0, [sp, #0]
  82:	e7ff      	b.n	84 <_ZN66_$LT$core..option..Option$LT$T$GT$$u20$as$u20$core..fmt..Debug$GT$3fmt17ha074fb9b0c97a216E+0x84>
  84:	a80c      	add	r0, sp, #48	; 0x30
  86:	f7ff fffe 	bl	0 <_ZN4core3fmt8builders10DebugTuple6finish17h24d91625b3672e6dE>
  8a:	f88d 001b 	strb.w	r0, [sp, #27]
  8e:	e7ff      	b.n	90 <_ZN66_$LT$core..option..Option$LT$T$GT$$u20$as$u20$core..fmt..Debug$GT$3fmt17ha074fb9b0c97a216E+0x90>
  90:	e7ff      	b.n	92 <_ZN66_$LT$core..option..Option$LT$T$GT$$u20$as$u20$core..fmt..Debug$GT$3fmt17ha074fb9b0c97a216E+0x92>
  92:	f89d 001b 	ldrb.w	r0, [sp, #27]
  96:	b010      	add	sp, #64	; 0x40
  98:	bd80      	pop	{r7, pc}

Disassembly of section .text._ZN66_$LT$core..option..Option$LT$T$GT$$u20$as$u20$core..fmt..Debug$GT$3fmt17he23606fdc2867652E:

00000000 <_ZN66_$LT$core..option..Option$LT$T$GT$$u20$as$u20$core..fmt..Debug$GT$3fmt17he23606fdc2867652E>:
_ZN66_$LT$core..option..Option$LT$T$GT$$u20$as$u20$core..fmt..Debug$GT$3fmt17he23606fdc2867652E():
/rustc/50a0defd5a93523067ef239936cc2e0755220904/src/libcore/option.rs:148
   0:	b580      	push	{r7, lr}
   2:	b090      	sub	sp, #64	; 0x40
   4:	460a      	mov	r2, r1
   6:	4603      	mov	r3, r0
   8:	9004      	str	r0, [sp, #16]
   a:	9105      	str	r1, [sp, #20]
   c:	9804      	ldr	r0, [sp, #16]
   e:	9007      	str	r0, [sp, #28]
  10:	9807      	ldr	r0, [sp, #28]
  12:	6800      	ldr	r0, [r0, #0]
  14:	2800      	cmp	r0, #0
  16:	4601      	mov	r1, r0
  18:	bf18      	it	ne
  1a:	2101      	movne	r1, #1
  1c:	2800      	cmp	r0, #0
  1e:	9203      	str	r2, [sp, #12]
  20:	9302      	str	r3, [sp, #8]
  22:	9101      	str	r1, [sp, #4]
  24:	d005      	beq.n	32 <_ZN66_$LT$core..option..Option$LT$T$GT$$u20$as$u20$core..fmt..Debug$GT$3fmt17he23606fdc2867652E+0x32>
  26:	e7ff      	b.n	28 <_ZN66_$LT$core..option..Option$LT$T$GT$$u20$as$u20$core..fmt..Debug$GT$3fmt17he23606fdc2867652E+0x28>
  28:	9801      	ldr	r0, [sp, #4]
  2a:	2801      	cmp	r0, #1
  2c:	d012      	beq.n	54 <_ZN66_$LT$core..option..Option$LT$T$GT$$u20$as$u20$core..fmt..Debug$GT$3fmt17he23606fdc2867652E+0x54>
  2e:	e7ff      	b.n	30 <_ZN66_$LT$core..option..Option$LT$T$GT$$u20$as$u20$core..fmt..Debug$GT$3fmt17he23606fdc2867652E+0x30>
  30:	defe      	udf	#254	; 0xfe
  32:	9905      	ldr	r1, [sp, #20]
  34:	f240 0200 	movw	r2, #0
  38:	f2c0 0200 	movt	r2, #0
  3c:	a808      	add	r0, sp, #32
  3e:	2304      	movs	r3, #4
  40:	f7ff fffe 	bl	0 <_ZN4core3fmt9Formatter11debug_tuple17h793087e8ecab9022E>
  44:	e7ff      	b.n	46 <_ZN66_$LT$core..option..Option$LT$T$GT$$u20$as$u20$core..fmt..Debug$GT$3fmt17he23606fdc2867652E+0x46>
  46:	a808      	add	r0, sp, #32
  48:	f7ff fffe 	bl	0 <_ZN4core3fmt8builders10DebugTuple6finish17h24d91625b3672e6dE>
  4c:	f88d 001b 	strb.w	r0, [sp, #27]
  50:	e7ff      	b.n	52 <_ZN66_$LT$core..option..Option$LT$T$GT$$u20$as$u20$core..fmt..Debug$GT$3fmt17he23606fdc2867652E+0x52>
  52:	e01e      	b.n	92 <_ZN66_$LT$core..option..Option$LT$T$GT$$u20$as$u20$core..fmt..Debug$GT$3fmt17he23606fdc2867652E+0x92>
/rustc/50a0defd5a93523067ef239936cc2e0755220904/src/libcore/option.rs:156
  54:	9807      	ldr	r0, [sp, #28]
  56:	900b      	str	r0, [sp, #44]	; 0x2c
/rustc/50a0defd5a93523067ef239936cc2e0755220904/src/libcore/option.rs:148
  58:	9905      	ldr	r1, [sp, #20]
  5a:	f240 0200 	movw	r2, #0
  5e:	f2c0 0200 	movt	r2, #0
  62:	a80c      	add	r0, sp, #48	; 0x30
  64:	2304      	movs	r3, #4
  66:	f7ff fffe 	bl	0 <_ZN4core3fmt9Formatter11debug_tuple17h793087e8ecab9022E>
  6a:	e7ff      	b.n	6c <_ZN66_$LT$core..option..Option$LT$T$GT$$u20$as$u20$core..fmt..Debug$GT$3fmt17he23606fdc2867652E+0x6c>
/rustc/50a0defd5a93523067ef239936cc2e0755220904/src/libcore/option.rs:156
  6c:	980b      	ldr	r0, [sp, #44]	; 0x2c
  6e:	900f      	str	r0, [sp, #60]	; 0x3c
/rustc/50a0defd5a93523067ef239936cc2e0755220904/src/libcore/option.rs:148
  70:	f240 0200 	movw	r2, #0
  74:	f2c0 0200 	movt	r2, #0
  78:	a80c      	add	r0, sp, #48	; 0x30
  7a:	a90f      	add	r1, sp, #60	; 0x3c
  7c:	f7ff fffe 	bl	0 <_ZN4core3fmt8builders10DebugTuple5field17h7da5ac79cde13c49E>
  80:	9000      	str	r0, [sp, #0]
  82:	e7ff      	b.n	84 <_ZN66_$LT$core..option..Option$LT$T$GT$$u20$as$u20$core..fmt..Debug$GT$3fmt17he23606fdc2867652E+0x84>
  84:	a80c      	add	r0, sp, #48	; 0x30
  86:	f7ff fffe 	bl	0 <_ZN4core3fmt8builders10DebugTuple6finish17h24d91625b3672e6dE>
  8a:	f88d 001b 	strb.w	r0, [sp, #27]
  8e:	e7ff      	b.n	90 <_ZN66_$LT$core..option..Option$LT$T$GT$$u20$as$u20$core..fmt..Debug$GT$3fmt17he23606fdc2867652E+0x90>
  90:	e7ff      	b.n	92 <_ZN66_$LT$core..option..Option$LT$T$GT$$u20$as$u20$core..fmt..Debug$GT$3fmt17he23606fdc2867652E+0x92>
  92:	f89d 001b 	ldrb.w	r0, [sp, #27]
  96:	b010      	add	sp, #64	; 0x40
  98:	bd80      	pop	{r7, pc}

mylib-ac95891f38e7979c.341gx5szusdqfzd3.rcgu.o:     file format elf32-littlearm

SYMBOL TABLE:
00000000 l    df *ABS*	00000000 341gx5szusdqfzd3
00000000 l       .debug_str	00000000 
00000041 l       .debug_str	00000000 
0000004c l       .debug_str	00000000 
0000006f l       .debug_str	00000000 
00000074 l       .debug_str	00000000 
00000078 l       .debug_str	00000000 
0000007b l       .debug_str	00000000 
00000086 l       .debug_str	00000000 
00000091 l       .debug_str	00000000 
00000098 l       .debug_str	00000000 
0000009e l       .debug_str	00000000 
000000a5 l       .debug_str	00000000 
000000b4 l       .debug_str	00000000 
000000bd l       .debug_str	00000000 
00000135 l       .debug_str	00000000 
0000013d l       .debug_str	00000000 
00000141 l       .debug_str	00000000 
0000014b l       .debug_str	00000000 
00000154 l       .debug_str	00000000 
00000158 l       .debug_str	00000000 
00000160 l       .debug_str	00000000 
00000164 l       .debug_str	00000000 
0000016e l       .debug_str	00000000 
00000172 l       .debug_str	00000000 
0000017f l       .debug_str	00000000 
00000203 l       .debug_str	00000000 
0000020e l       .debug_str	00000000 
0000021d l       .debug_str	00000000 
00000232 l       .debug_str	00000000 
0000024a l       .debug_str	00000000 
00000251 l       .debug_str	00000000 
00000255 l       .debug_str	00000000 
0000025a l       .debug_str	00000000 
00000271 l       .debug_str	00000000 
000002c4 l       .debug_str	00000000 
000002c6 l       .debug_str	00000000 
000002cb l       .debug_str	00000000 
000002cf l       .debug_str	00000000 
0000032a l       .debug_str	00000000 
0000033f l       .debug_str	00000000 
00000000 l    d  .text._ZN86_$LT$mylib..mynewt..sensor_network..sensor_value$u20$as$u20$core..default..Default$GT$7default17h7a531967f8238b18E	00000000 .text._ZN86_$LT$mylib..mynewt..sensor_network..sensor_value$u20$as$u20$core..default..Default$GT$7default17h7a531967f8238b18E
00000000 l    d  .text._ZN98_$LT$mylib..mynewt..sensor_network..sensor_network_interface$u20$as$u20$core..default..Default$GT$7default17h344a0078507585fbE	00000000 .text._ZN98_$LT$mylib..mynewt..sensor_network..sensor_network_interface$u20$as$u20$core..default..Default$GT$7default17h344a0078507585fbE
00000000 l    d  .debug_abbrev	00000000 .debug_abbrev
00000000 l    d  .debug_info	00000000 .debug_info
00000000 l    d  .debug_ranges	00000000 .debug_ranges
00000000 l    d  .debug_frame	00000000 .debug_frame
00000000 l    d  .debug_line	00000000 .debug_line
00000000         *UND*	00000000 _ZN4core3mem6zeroed17h374e790a6b292e1cE
00000000         *UND*	00000000 _ZN4core3mem6zeroed17h92e18ce85b06259eE
00000000 g     F .text._ZN86_$LT$mylib..mynewt..sensor_network..sensor_value$u20$as$u20$core..default..Default$GT$7default17h7a531967f8238b18E	00000012 _ZN86_$LT$mylib..mynewt..sensor_network..sensor_value$u20$as$u20$core..default..Default$GT$7default17h7a531967f8238b18E
00000000 g     F .text._ZN98_$LT$mylib..mynewt..sensor_network..sensor_network_interface$u20$as$u20$core..default..Default$GT$7default17h344a0078507585fbE	00000012 _ZN98_$LT$mylib..mynewt..sensor_network..sensor_network_interface$u20$as$u20$core..default..Default$GT$7default17h344a0078507585fbE



Disassembly of section .text._ZN86_$LT$mylib..mynewt..sensor_network..sensor_value$u20$as$u20$core..default..Default$GT$7default17h7a531967f8238b18E:

00000000 <_ZN86_$LT$mylib..mynewt..sensor_network..sensor_value$u20$as$u20$core..default..Default$GT$7default17h7a531967f8238b18E>:
_ZN86_$LT$mylib..mynewt..sensor_network..sensor_value$u20$as$u20$core..default..Default$GT$7default17h7a531967f8238b18E():
/mnt/c/stm32bluepill-mynewt-sensor/src/mynewt/sensor_network.rs:14
    pub val_type: ::cty::c_int,
    pub int_val: u16,
    pub float_val: f32,
}
impl Default for sensor_value {
    fn default() -> Self {
   0:	b580      	push	{r7, lr}
   2:	b082      	sub	sp, #8
   4:	4601      	mov	r1, r0
/mnt/c/stm32bluepill-mynewt-sensor/src/mynewt/sensor_network.rs:15
        unsafe { ::core::mem::zeroed() }
   6:	9101      	str	r1, [sp, #4]
   8:	f7ff fffe 	bl	0 <_ZN4core3mem6zeroed17h92e18ce85b06259eE>
   c:	e7ff      	b.n	e <_ZN86_$LT$mylib..mynewt..sensor_network..sensor_value$u20$as$u20$core..default..Default$GT$7default17h7a531967f8238b18E+0xe>
/mnt/c/stm32bluepill-mynewt-sensor/src/mynewt/sensor_network.rs:16
    }
   e:	b002      	add	sp, #8
  10:	bd80      	pop	{r7, pc}

Disassembly of section .text._ZN98_$LT$mylib..mynewt..sensor_network..sensor_network_interface$u20$as$u20$core..default..Default$GT$7default17h344a0078507585fbE:

00000000 <_ZN98_$LT$mylib..mynewt..sensor_network..sensor_network_interface$u20$as$u20$core..default..Default$GT$7default17h344a0078507585fbE>:
_ZN98_$LT$mylib..mynewt..sensor_network..sensor_network_interface$u20$as$u20$core..default..Default$GT$7default17h344a0078507585fbE():
/mnt/c/stm32bluepill-mynewt-sensor/src/mynewt/sensor_network.rs:49
        ) -> ::cty::c_int,
    >,
    pub transport_registered: u8,
}
impl Default for sensor_network_interface {
    fn default() -> Self {
   0:	b580      	push	{r7, lr}
   2:	b082      	sub	sp, #8
   4:	4601      	mov	r1, r0
/mnt/c/stm32bluepill-mynewt-sensor/src/mynewt/sensor_network.rs:50
        unsafe { ::core::mem::zeroed() }
   6:	9101      	str	r1, [sp, #4]
   8:	f7ff fffe 	bl	0 <_ZN4core3mem6zeroed17h374e790a6b292e1cE>
   c:	e7ff      	b.n	e <_ZN98_$LT$mylib..mynewt..sensor_network..sensor_network_interface$u20$as$u20$core..default..Default$GT$7default17h344a0078507585fbE+0xe>
/mnt/c/stm32bluepill-mynewt-sensor/src/mynewt/sensor_network.rs:51
    }
   e:	b002      	add	sp, #8
  10:	bd80      	pop	{r7, pc}

mylib-ac95891f38e7979c.39numqykf0lihsq7.rcgu.o:     file format elf32-littlearm

SYMBOL TABLE:
00000000 l    df *ABS*	00000000 39numqykf0lihsq7
00000000 l       .debug_str	00000000 
00000041 l       .debug_str	00000000 
0000004c l       .debug_str	00000000 
0000006f l       .debug_str	00000000 
00000074 l       .debug_str	00000000 
00000078 l       .debug_str	00000000 
0000007b l       .debug_str	00000000 
00000086 l       .debug_str	00000000 
00000091 l       .debug_str	00000000 
00000098 l       .debug_str	00000000 
0000009c l       .debug_str	00000000 
000000a0 l       .debug_str	00000000 
000000a5 l       .debug_str	00000000 
000000a7 l       .debug_str	00000000 
000000dc l       .debug_str	00000000 
000000f5 l       .debug_str	00000000 
000000fb l       .debug_str	00000000 
00000102 l       .debug_str	00000000 
0000010b l       .debug_str	00000000 
00000110 l       .debug_str	00000000 
00000117 l       .debug_str	00000000 
0000011b l       .debug_str	00000000 
00000120 l       .debug_str	00000000 
0000012d l       .debug_str	00000000 
00000132 l       .debug_str	00000000 
00000136 l       .debug_str	00000000 
00000191 l       .debug_str	00000000 
00000197 l       .debug_str	00000000 
0000019b l       .debug_str	00000000 
000001ef l       .debug_str	00000000 
0000024b l       .debug_str	00000000 
00000251 l       .debug_str	00000000 
000002a5 l       .debug_str	00000000 
00000301 l       .debug_str	00000000 
00000307 l       .debug_str	00000000 
0000030b l       .debug_str	00000000 
0000035f l       .debug_str	00000000 
000003bb l       .debug_str	00000000 
000003bf l       .debug_str	00000000 
000003c5 l       .debug_str	00000000 
000003cd l       .debug_str	00000000 
00000433 l       .debug_str	00000000 
000004a1 l       .debug_str	00000000 
000004a5 l       .debug_str	00000000 
000004b2 l       .debug_str	00000000 
000004c6 l       .debug_str	00000000 
000004f8 l       .debug_str	00000000 
0000054b l       .debug_str	00000000 
0000059f l       .debug_str	00000000 
000005d4 l       .debug_str	00000000 
0000063c l       .debug_str	00000000 
00000691 l       .debug_str	00000000 
000006c6 l       .debug_str	00000000 
0000072f l       .debug_str	00000000 
00000746 l       .debug_str	00000000 
0000075e l       .debug_str	00000000 
00000793 l       .debug_str	00000000 
000007bf l       .debug_str	00000000 
000007c3 l       .debug_str	00000000 
000007c9 l       .debug_str	00000000 
000007ce l       .debug_str	00000000 
00000820 l       .debug_str	00000000 
0000087a l       .debug_str	00000000 
00000887 l       .debug_str	00000000 
000008b4 l       .debug_str	00000000 
000008b9 l       .debug_str	00000000 
000008dc l       .debug_str	00000000 
000008e6 l       .debug_str	00000000 
0000093a l       .debug_str	00000000 
00000996 l       .debug_str	00000000 
00000a01 l       .debug_str	00000000 
00000a36 l       .debug_str	00000000 
00000ab5 l       .debug_str	00000000 
00000b20 l       .debug_str	00000000 
00000b55 l       .debug_str	00000000 
00000bd4 l       .debug_str	00000000 
00000c33 l       .debug_str	00000000 
00000c9a l       .debug_str	00000000 
00000ca8 l       .debug_str	00000000 
00000cbc l       .debug_str	00000000 
00000cee l       .debug_str	00000000 
00000d21 l       .debug_str	00000000 
00000d56 l       .debug_str	00000000 
00000d9d l       .debug_str	00000000 
00000e04 l       .debug_str	00000000 
00000e39 l       .debug_str	00000000 
00000eb4 l       .debug_str	00000000 
00000ee2 l       .debug_str	00000000 
00000f17 l       .debug_str	00000000 
00000f59 l       .debug_str	00000000 
00000f60 l       .debug_str	00000000 
00000f95 l       .debug_str	00000000 
00000fb0 l       .debug_str	00000000 
00001005 l       .debug_str	00000000 
0000103a l       .debug_str	00000000 
000010a3 l       .debug_str	00000000 
00001103 l       .debug_str	00000000 
00001138 l       .debug_str	00000000 
000011ac l       .debug_str	00000000 
000011b1 l       .debug_str	00000000 
000011e6 l       .debug_str	00000000 
000011ff l       .debug_str	00000000 
00001254 l       .debug_str	00000000 
00001289 l       .debug_str	00000000 
000012f2 l       .debug_str	00000000 
0000135d l       .debug_str	00000000 
00001392 l       .debug_str	00000000 
00001411 l       .debug_str	00000000 
00001413 l       .debug_str	00000000 
00001417 l       .debug_str	00000000 
0000141d l       .debug_str	00000000 
00001428 l       .debug_str	00000000 
00001453 l       .debug_str	00000000 
0000147f l       .debug_str	00000000 
000014b4 l       .debug_str	00000000 
000014f4 l       .debug_str	00000000 
0000155f l       .debug_str	00000000 
00001594 l       .debug_str	00000000 
00001613 l       .debug_str	00000000 
00001668 l       .debug_str	00000000 
0000169d l       .debug_str	00000000 
00001706 l       .debug_str	00000000 
0000170b l       .debug_str	00000000 
00001740 l       .debug_str	00000000 
00001759 l       .debug_str	00000000 
000017d6 l       .debug_str	00000000 
0000180b l       .debug_str	00000000 
0000189c l       .debug_str	00000000 
00001905 l       .debug_str	00000000 
0000193a l       .debug_str	00000000 
000019b7 l       .debug_str	00000000 
000019bb l       .debug_str	00000000 
000019f0 l       .debug_str	00000000 
00001a08 l       .debug_str	00000000 
00001a7e l       .debug_str	00000000 
00001ab3 l       .debug_str	00000000 
00001b3d l       .debug_str	00000000 
00001b90 l       .debug_str	00000000 
00001bc5 l       .debug_str	00000000 
00001c2c l       .debug_str	00000000 
00001c96 l       .debug_str	00000000 
00001ccb l       .debug_str	00000000 
00001d49 l       .debug_str	00000000 
00001d7c l       .debug_str	00000000 
00001db1 l       .debug_str	00000000 
00001df8 l       .debug_str	00000000 
00001e02 l       .debug_str	00000000 
00001e5b l       .debug_str	00000000 
00001eb5 l       .debug_str	00000000 
00001ed2 l       .debug_str	00000000 
00001f42 l       .debug_str	00000000 
00001fb2 l       .debug_str	00000000 
00001fea l       .debug_str	00000000 
00002056 l       .debug_str	00000000 
00002089 l       .debug_str	00000000 
00002095 l       .debug_str	00000000 
000020ef l       .debug_str	00000000 
00002154 l       .debug_str	00000000 
0000215e l       .debug_str	00000000 
000021b8 l       .debug_str	00000000 
00002228 l       .debug_str	00000000 
00002259 l       .debug_str	00000000 
000022c9 l       .debug_str	00000000 
00002323 l       .debug_str	00000000 
0000232d l       .debug_str	00000000 
000023af l       .debug_str	00000000 
0000241d l       .debug_str	00000000 
00002426 l       .debug_str	00000000 
000024a1 l       .debug_str	00000000 
000024f9 l       .debug_str	00000000 
00002568 l       .debug_str	00000000 
00000000 l    d  .text._ZN4core3ptr18real_drop_in_place17h0285661cd8494b3dE	00000000 .text._ZN4core3ptr18real_drop_in_place17h0285661cd8494b3dE
00000000 l    d  .text._ZN4core3ptr18real_drop_in_place17h175fb38fd656f02fE	00000000 .text._ZN4core3ptr18real_drop_in_place17h175fb38fd656f02fE
00000000 l    d  .text._ZN4core3ptr18real_drop_in_place17h17bbbfed65a8fc1bE	00000000 .text._ZN4core3ptr18real_drop_in_place17h17bbbfed65a8fc1bE
00000000 l    d  .text._ZN4core3ptr18real_drop_in_place17h1adc7f7cf1df91faE	00000000 .text._ZN4core3ptr18real_drop_in_place17h1adc7f7cf1df91faE
00000000 l    d  .text._ZN4core3ptr18real_drop_in_place17h2c6f01d67e57004eE	00000000 .text._ZN4core3ptr18real_drop_in_place17h2c6f01d67e57004eE
00000000 l    d  .text._ZN4core3ptr18real_drop_in_place17h309ee9e30f5ac4c6E	00000000 .text._ZN4core3ptr18real_drop_in_place17h309ee9e30f5ac4c6E
00000000 l    d  .text._ZN4core3ptr18real_drop_in_place17h3515672942856e83E	00000000 .text._ZN4core3ptr18real_drop_in_place17h3515672942856e83E
00000000 l    d  .text._ZN4core3ptr18real_drop_in_place17h36ed6477c8c6a9e3E	00000000 .text._ZN4core3ptr18real_drop_in_place17h36ed6477c8c6a9e3E
00000000 l    d  .text._ZN4core3ptr18real_drop_in_place17h3c494ee951fd5fc9E	00000000 .text._ZN4core3ptr18real_drop_in_place17h3c494ee951fd5fc9E
00000000 l    d  .text._ZN4core3ptr18real_drop_in_place17h42fdf29cfa820390E	00000000 .text._ZN4core3ptr18real_drop_in_place17h42fdf29cfa820390E
00000000 l    d  .text._ZN4core3ptr18real_drop_in_place17h49d1ba26be8d87bfE	00000000 .text._ZN4core3ptr18real_drop_in_place17h49d1ba26be8d87bfE
00000000 l    d  .text._ZN4core3ptr18real_drop_in_place17h5a205067a3e014ebE	00000000 .text._ZN4core3ptr18real_drop_in_place17h5a205067a3e014ebE
00000000 l    d  .text._ZN4core3ptr18real_drop_in_place17h71a61f5e0b16a079E	00000000 .text._ZN4core3ptr18real_drop_in_place17h71a61f5e0b16a079E
00000000 l    d  .text._ZN4core3ptr18real_drop_in_place17h763f6247f943a9b0E	00000000 .text._ZN4core3ptr18real_drop_in_place17h763f6247f943a9b0E
00000000 l    d  .text._ZN4core3ptr18real_drop_in_place17h90dd0c71a102d6d1E	00000000 .text._ZN4core3ptr18real_drop_in_place17h90dd0c71a102d6d1E
00000000 l    d  .text._ZN4core3ptr18real_drop_in_place17h9af35fa2439d5ce3E	00000000 .text._ZN4core3ptr18real_drop_in_place17h9af35fa2439d5ce3E
00000000 l    d  .text._ZN4core3ptr18real_drop_in_place17hae3b5b64a6552475E	00000000 .text._ZN4core3ptr18real_drop_in_place17hae3b5b64a6552475E
00000000 l    d  .text._ZN4core3ptr18real_drop_in_place17hb5870cfa3ea3fad3E	00000000 .text._ZN4core3ptr18real_drop_in_place17hb5870cfa3ea3fad3E
00000000 l    d  .text._ZN4core3ptr18real_drop_in_place17hc070d4c0ef8e4115E	00000000 .text._ZN4core3ptr18real_drop_in_place17hc070d4c0ef8e4115E
00000000 l    d  .text._ZN4core3ptr18real_drop_in_place17hc0b2e8a3c853570dE	00000000 .text._ZN4core3ptr18real_drop_in_place17hc0b2e8a3c853570dE
00000000 l    d  .text._ZN4core3ptr18real_drop_in_place17hd416f9f658d259f7E	00000000 .text._ZN4core3ptr18real_drop_in_place17hd416f9f658d259f7E
00000000 l    d  .text._ZN4core3ptr18real_drop_in_place17hd87e1c6e9d133217E	00000000 .text._ZN4core3ptr18real_drop_in_place17hd87e1c6e9d133217E
00000000 l    d  .text._ZN4core3ptr18real_drop_in_place17he7a7ad1b0b27acd3E	00000000 .text._ZN4core3ptr18real_drop_in_place17he7a7ad1b0b27acd3E
00000000 l    d  .text._ZN4core3ptr18real_drop_in_place17hefbb4eb195fc1257E	00000000 .text._ZN4core3ptr18real_drop_in_place17hefbb4eb195fc1257E
00000000 l    d  .text._ZN4core3ptr18real_drop_in_place17hf034633d7358c3dcE	00000000 .text._ZN4core3ptr18real_drop_in_place17hf034633d7358c3dcE
00000000 l    d  .text._ZN4core3ptr18real_drop_in_place17hf4847ab145721afeE	00000000 .text._ZN4core3ptr18real_drop_in_place17hf4847ab145721afeE
00000000 l    d  .debug_abbrev	00000000 .debug_abbrev
00000000 l    d  .debug_info	00000000 .debug_info
00000000 l    d  .debug_ranges	00000000 .debug_ranges
00000000 l    d  .debug_frame	00000000 .debug_frame
00000000 l    d  .debug_line	00000000 .debug_line
00000000 g     F .text._ZN4core3ptr18real_drop_in_place17h0285661cd8494b3dE	0000000c .hidden _ZN4core3ptr18real_drop_in_place17h0285661cd8494b3dE
00000000 g     F .text._ZN4core3ptr18real_drop_in_place17h175fb38fd656f02fE	0000000c .hidden _ZN4core3ptr18real_drop_in_place17h175fb38fd656f02fE
00000000 g     F .text._ZN4core3ptr18real_drop_in_place17h17bbbfed65a8fc1bE	0000000c .hidden _ZN4core3ptr18real_drop_in_place17h17bbbfed65a8fc1bE
00000000 g     F .text._ZN4core3ptr18real_drop_in_place17h1adc7f7cf1df91faE	0000000c .hidden _ZN4core3ptr18real_drop_in_place17h1adc7f7cf1df91faE
00000000 g     F .text._ZN4core3ptr18real_drop_in_place17h2c6f01d67e57004eE	0000000c .hidden _ZN4core3ptr18real_drop_in_place17h2c6f01d67e57004eE
00000000 g     F .text._ZN4core3ptr18real_drop_in_place17h309ee9e30f5ac4c6E	0000000c .hidden _ZN4core3ptr18real_drop_in_place17h309ee9e30f5ac4c6E
00000000 g     F .text._ZN4core3ptr18real_drop_in_place17h3515672942856e83E	0000000c .hidden _ZN4core3ptr18real_drop_in_place17h3515672942856e83E
00000000 g     F .text._ZN4core3ptr18real_drop_in_place17h36ed6477c8c6a9e3E	0000000c .hidden _ZN4core3ptr18real_drop_in_place17h36ed6477c8c6a9e3E
00000000 g     F .text._ZN4core3ptr18real_drop_in_place17h3c494ee951fd5fc9E	0000000c .hidden _ZN4core3ptr18real_drop_in_place17h3c494ee951fd5fc9E
00000000 g     F .text._ZN4core3ptr18real_drop_in_place17h42fdf29cfa820390E	0000000c .hidden _ZN4core3ptr18real_drop_in_place17h42fdf29cfa820390E
00000000 g     F .text._ZN4core3ptr18real_drop_in_place17h49d1ba26be8d87bfE	0000000c .hidden _ZN4core3ptr18real_drop_in_place17h49d1ba26be8d87bfE
00000000 g     F .text._ZN4core3ptr18real_drop_in_place17h5a205067a3e014ebE	0000000c .hidden _ZN4core3ptr18real_drop_in_place17h5a205067a3e014ebE
00000000 g     F .text._ZN4core3ptr18real_drop_in_place17h71a61f5e0b16a079E	0000000c .hidden _ZN4core3ptr18real_drop_in_place17h71a61f5e0b16a079E
00000000 g     F .text._ZN4core3ptr18real_drop_in_place17h763f6247f943a9b0E	0000000c .hidden _ZN4core3ptr18real_drop_in_place17h763f6247f943a9b0E
00000000 g     F .text._ZN4core3ptr18real_drop_in_place17h90dd0c71a102d6d1E	0000000c .hidden _ZN4core3ptr18real_drop_in_place17h90dd0c71a102d6d1E
00000000 g     F .text._ZN4core3ptr18real_drop_in_place17h9af35fa2439d5ce3E	0000000c .hidden _ZN4core3ptr18real_drop_in_place17h9af35fa2439d5ce3E
00000000 g     F .text._ZN4core3ptr18real_drop_in_place17hae3b5b64a6552475E	0000000c .hidden _ZN4core3ptr18real_drop_in_place17hae3b5b64a6552475E
00000000 g     F .text._ZN4core3ptr18real_drop_in_place17hb5870cfa3ea3fad3E	0000000c .hidden _ZN4core3ptr18real_drop_in_place17hb5870cfa3ea3fad3E
00000000 g     F .text._ZN4core3ptr18real_drop_in_place17hc070d4c0ef8e4115E	0000000c .hidden _ZN4core3ptr18real_drop_in_place17hc070d4c0ef8e4115E
00000000 g     F .text._ZN4core3ptr18real_drop_in_place17hc0b2e8a3c853570dE	0000000c .hidden _ZN4core3ptr18real_drop_in_place17hc0b2e8a3c853570dE
00000000 g     F .text._ZN4core3ptr18real_drop_in_place17hd416f9f658d259f7E	0000000c .hidden _ZN4core3ptr18real_drop_in_place17hd416f9f658d259f7E
00000000 g     F .text._ZN4core3ptr18real_drop_in_place17hd87e1c6e9d133217E	0000000c .hidden _ZN4core3ptr18real_drop_in_place17hd87e1c6e9d133217E
00000000 g     F .text._ZN4core3ptr18real_drop_in_place17he7a7ad1b0b27acd3E	0000000c .hidden _ZN4core3ptr18real_drop_in_place17he7a7ad1b0b27acd3E
00000000 g     F .text._ZN4core3ptr18real_drop_in_place17hefbb4eb195fc1257E	0000000c .hidden _ZN4core3ptr18real_drop_in_place17hefbb4eb195fc1257E
00000000 g     F .text._ZN4core3ptr18real_drop_in_place17hf034633d7358c3dcE	0000000c .hidden _ZN4core3ptr18real_drop_in_place17hf034633d7358c3dcE
00000000 g     F .text._ZN4core3ptr18real_drop_in_place17hf4847ab145721afeE	0000000c .hidden _ZN4core3ptr18real_drop_in_place17hf4847ab145721afeE



Disassembly of section .text._ZN4core3ptr18real_drop_in_place17h0285661cd8494b3dE:

00000000 <_ZN4core3ptr18real_drop_in_place17h0285661cd8494b3dE>:
_ZN4core3ptr18real_drop_in_place17h0285661cd8494b3dE():
/rustc/50a0defd5a93523067ef239936cc2e0755220904/src/libcore/ptr.rs:195
   0:	b082      	sub	sp, #8
   2:	4601      	mov	r1, r0
   4:	9001      	str	r0, [sp, #4]
   6:	9100      	str	r1, [sp, #0]
   8:	b002      	add	sp, #8
   a:	4770      	bx	lr

Disassembly of section .text._ZN4core3ptr18real_drop_in_place17h175fb38fd656f02fE:

00000000 <_ZN4core3ptr18real_drop_in_place17h175fb38fd656f02fE>:
_ZN4core3ptr18real_drop_in_place17h175fb38fd656f02fE():
/rustc/50a0defd5a93523067ef239936cc2e0755220904/src/libcore/ptr.rs:195
   0:	b082      	sub	sp, #8
   2:	4601      	mov	r1, r0
   4:	9001      	str	r0, [sp, #4]
   6:	9100      	str	r1, [sp, #0]
   8:	b002      	add	sp, #8
   a:	4770      	bx	lr

Disassembly of section .text._ZN4core3ptr18real_drop_in_place17h17bbbfed65a8fc1bE:

00000000 <_ZN4core3ptr18real_drop_in_place17h17bbbfed65a8fc1bE>:
_ZN4core3ptr18real_drop_in_place17h17bbbfed65a8fc1bE():
/rustc/50a0defd5a93523067ef239936cc2e0755220904/src/libcore/ptr.rs:195
   0:	b082      	sub	sp, #8
   2:	4601      	mov	r1, r0
   4:	9001      	str	r0, [sp, #4]
   6:	9100      	str	r1, [sp, #0]
   8:	b002      	add	sp, #8
   a:	4770      	bx	lr

Disassembly of section .text._ZN4core3ptr18real_drop_in_place17h1adc7f7cf1df91faE:

00000000 <_ZN4core3ptr18real_drop_in_place17h1adc7f7cf1df91faE>:
_ZN4core3ptr18real_drop_in_place17h1adc7f7cf1df91faE():
/rustc/50a0defd5a93523067ef239936cc2e0755220904/src/libcore/ptr.rs:195
   0:	b082      	sub	sp, #8
   2:	4601      	mov	r1, r0
   4:	9001      	str	r0, [sp, #4]
   6:	9100      	str	r1, [sp, #0]
   8:	b002      	add	sp, #8
   a:	4770      	bx	lr

Disassembly of section .text._ZN4core3ptr18real_drop_in_place17h2c6f01d67e57004eE:

00000000 <_ZN4core3ptr18real_drop_in_place17h2c6f01d67e57004eE>:
_ZN4core3ptr18real_drop_in_place17h2c6f01d67e57004eE():
/rustc/50a0defd5a93523067ef239936cc2e0755220904/src/libcore/ptr.rs:195
   0:	b082      	sub	sp, #8
   2:	4601      	mov	r1, r0
   4:	9001      	str	r0, [sp, #4]
   6:	9100      	str	r1, [sp, #0]
   8:	b002      	add	sp, #8
   a:	4770      	bx	lr

Disassembly of section .text._ZN4core3ptr18real_drop_in_place17h309ee9e30f5ac4c6E:

00000000 <_ZN4core3ptr18real_drop_in_place17h309ee9e30f5ac4c6E>:
_ZN4core3ptr18real_drop_in_place17h309ee9e30f5ac4c6E():
/rustc/50a0defd5a93523067ef239936cc2e0755220904/src/libcore/ptr.rs:195
   0:	b082      	sub	sp, #8
   2:	4601      	mov	r1, r0
   4:	9001      	str	r0, [sp, #4]
   6:	9100      	str	r1, [sp, #0]
   8:	b002      	add	sp, #8
   a:	4770      	bx	lr

Disassembly of section .text._ZN4core3ptr18real_drop_in_place17h3515672942856e83E:

00000000 <_ZN4core3ptr18real_drop_in_place17h3515672942856e83E>:
_ZN4core3ptr18real_drop_in_place17h3515672942856e83E():
/rustc/50a0defd5a93523067ef239936cc2e0755220904/src/libcore/ptr.rs:195
   0:	b082      	sub	sp, #8
   2:	4601      	mov	r1, r0
   4:	9001      	str	r0, [sp, #4]
   6:	9100      	str	r1, [sp, #0]
   8:	b002      	add	sp, #8
   a:	4770      	bx	lr

Disassembly of section .text._ZN4core3ptr18real_drop_in_place17h36ed6477c8c6a9e3E:

00000000 <_ZN4core3ptr18real_drop_in_place17h36ed6477c8c6a9e3E>:
_ZN4core3ptr18real_drop_in_place17h36ed6477c8c6a9e3E():
/rustc/50a0defd5a93523067ef239936cc2e0755220904/src/libcore/ptr.rs:195
   0:	b082      	sub	sp, #8
   2:	4601      	mov	r1, r0
   4:	9001      	str	r0, [sp, #4]
   6:	9100      	str	r1, [sp, #0]
   8:	b002      	add	sp, #8
   a:	4770      	bx	lr

Disassembly of section .text._ZN4core3ptr18real_drop_in_place17h3c494ee951fd5fc9E:

00000000 <_ZN4core3ptr18real_drop_in_place17h3c494ee951fd5fc9E>:
_ZN4core3ptr18real_drop_in_place17h3c494ee951fd5fc9E():
/rustc/50a0defd5a93523067ef239936cc2e0755220904/src/libcore/ptr.rs:195
   0:	b082      	sub	sp, #8
   2:	4601      	mov	r1, r0
   4:	9001      	str	r0, [sp, #4]
   6:	9100      	str	r1, [sp, #0]
   8:	b002      	add	sp, #8
   a:	4770      	bx	lr

Disassembly of section .text._ZN4core3ptr18real_drop_in_place17h42fdf29cfa820390E:

00000000 <_ZN4core3ptr18real_drop_in_place17h42fdf29cfa820390E>:
_ZN4core3ptr18real_drop_in_place17h42fdf29cfa820390E():
/rustc/50a0defd5a93523067ef239936cc2e0755220904/src/libcore/ptr.rs:195
   0:	b082      	sub	sp, #8
   2:	4601      	mov	r1, r0
   4:	9001      	str	r0, [sp, #4]
   6:	9100      	str	r1, [sp, #0]
   8:	b002      	add	sp, #8
   a:	4770      	bx	lr

Disassembly of section .text._ZN4core3ptr18real_drop_in_place17h49d1ba26be8d87bfE:

00000000 <_ZN4core3ptr18real_drop_in_place17h49d1ba26be8d87bfE>:
_ZN4core3ptr18real_drop_in_place17h49d1ba26be8d87bfE():
/rustc/50a0defd5a93523067ef239936cc2e0755220904/src/libcore/ptr.rs:195
   0:	b082      	sub	sp, #8
   2:	4601      	mov	r1, r0
   4:	9001      	str	r0, [sp, #4]
   6:	9100      	str	r1, [sp, #0]
   8:	b002      	add	sp, #8
   a:	4770      	bx	lr

Disassembly of section .text._ZN4core3ptr18real_drop_in_place17h5a205067a3e014ebE:

00000000 <_ZN4core3ptr18real_drop_in_place17h5a205067a3e014ebE>:
_ZN4core3ptr18real_drop_in_place17h5a205067a3e014ebE():
/rustc/50a0defd5a93523067ef239936cc2e0755220904/src/libcore/ptr.rs:195
   0:	b082      	sub	sp, #8
   2:	4601      	mov	r1, r0
   4:	9001      	str	r0, [sp, #4]
   6:	9100      	str	r1, [sp, #0]
   8:	b002      	add	sp, #8
   a:	4770      	bx	lr

Disassembly of section .text._ZN4core3ptr18real_drop_in_place17h71a61f5e0b16a079E:

00000000 <_ZN4core3ptr18real_drop_in_place17h71a61f5e0b16a079E>:
_ZN4core3ptr18real_drop_in_place17h71a61f5e0b16a079E():
/rustc/50a0defd5a93523067ef239936cc2e0755220904/src/libcore/ptr.rs:195
   0:	b082      	sub	sp, #8
   2:	4601      	mov	r1, r0
   4:	9001      	str	r0, [sp, #4]
   6:	9100      	str	r1, [sp, #0]
   8:	b002      	add	sp, #8
   a:	4770      	bx	lr

Disassembly of section .text._ZN4core3ptr18real_drop_in_place17h763f6247f943a9b0E:

00000000 <_ZN4core3ptr18real_drop_in_place17h763f6247f943a9b0E>:
_ZN4core3ptr18real_drop_in_place17h763f6247f943a9b0E():
/rustc/50a0defd5a93523067ef239936cc2e0755220904/src/libcore/ptr.rs:195
   0:	b082      	sub	sp, #8
   2:	4601      	mov	r1, r0
   4:	9001      	str	r0, [sp, #4]
   6:	9100      	str	r1, [sp, #0]
   8:	b002      	add	sp, #8
   a:	4770      	bx	lr

Disassembly of section .text._ZN4core3ptr18real_drop_in_place17h90dd0c71a102d6d1E:

00000000 <_ZN4core3ptr18real_drop_in_place17h90dd0c71a102d6d1E>:
_ZN4core3ptr18real_drop_in_place17h90dd0c71a102d6d1E():
/rustc/50a0defd5a93523067ef239936cc2e0755220904/src/libcore/ptr.rs:195
   0:	b082      	sub	sp, #8
   2:	4601      	mov	r1, r0
   4:	9001      	str	r0, [sp, #4]
   6:	9100      	str	r1, [sp, #0]
   8:	b002      	add	sp, #8
   a:	4770      	bx	lr

Disassembly of section .text._ZN4core3ptr18real_drop_in_place17h9af35fa2439d5ce3E:

00000000 <_ZN4core3ptr18real_drop_in_place17h9af35fa2439d5ce3E>:
_ZN4core3ptr18real_drop_in_place17h9af35fa2439d5ce3E():
/rustc/50a0defd5a93523067ef239936cc2e0755220904/src/libcore/ptr.rs:195
   0:	b082      	sub	sp, #8
   2:	4601      	mov	r1, r0
   4:	9001      	str	r0, [sp, #4]
   6:	9100      	str	r1, [sp, #0]
   8:	b002      	add	sp, #8
   a:	4770      	bx	lr

Disassembly of section .text._ZN4core3ptr18real_drop_in_place17hae3b5b64a6552475E:

00000000 <_ZN4core3ptr18real_drop_in_place17hae3b5b64a6552475E>:
_ZN4core3ptr18real_drop_in_place17hae3b5b64a6552475E():
/rustc/50a0defd5a93523067ef239936cc2e0755220904/src/libcore/ptr.rs:195
   0:	b082      	sub	sp, #8
   2:	4601      	mov	r1, r0
   4:	9001      	str	r0, [sp, #4]
   6:	9100      	str	r1, [sp, #0]
   8:	b002      	add	sp, #8
   a:	4770      	bx	lr

Disassembly of section .text._ZN4core3ptr18real_drop_in_place17hb5870cfa3ea3fad3E:

00000000 <_ZN4core3ptr18real_drop_in_place17hb5870cfa3ea3fad3E>:
_ZN4core3ptr18real_drop_in_place17hb5870cfa3ea3fad3E():
/rustc/50a0defd5a93523067ef239936cc2e0755220904/src/libcore/ptr.rs:195
   0:	b082      	sub	sp, #8
   2:	4601      	mov	r1, r0
   4:	9001      	str	r0, [sp, #4]
   6:	9100      	str	r1, [sp, #0]
   8:	b002      	add	sp, #8
   a:	4770      	bx	lr

Disassembly of section .text._ZN4core3ptr18real_drop_in_place17hc070d4c0ef8e4115E:

00000000 <_ZN4core3ptr18real_drop_in_place17hc070d4c0ef8e4115E>:
_ZN4core3ptr18real_drop_in_place17hc070d4c0ef8e4115E():
/rustc/50a0defd5a93523067ef239936cc2e0755220904/src/libcore/ptr.rs:195
   0:	b082      	sub	sp, #8
   2:	4601      	mov	r1, r0
   4:	9001      	str	r0, [sp, #4]
   6:	9100      	str	r1, [sp, #0]
   8:	b002      	add	sp, #8
   a:	4770      	bx	lr

Disassembly of section .text._ZN4core3ptr18real_drop_in_place17hc0b2e8a3c853570dE:

00000000 <_ZN4core3ptr18real_drop_in_place17hc0b2e8a3c853570dE>:
_ZN4core3ptr18real_drop_in_place17hc0b2e8a3c853570dE():
/rustc/50a0defd5a93523067ef239936cc2e0755220904/src/libcore/ptr.rs:195
   0:	b082      	sub	sp, #8
   2:	4601      	mov	r1, r0
   4:	9001      	str	r0, [sp, #4]
   6:	9100      	str	r1, [sp, #0]
   8:	b002      	add	sp, #8
   a:	4770      	bx	lr

Disassembly of section .text._ZN4core3ptr18real_drop_in_place17hd416f9f658d259f7E:

00000000 <_ZN4core3ptr18real_drop_in_place17hd416f9f658d259f7E>:
_ZN4core3ptr18real_drop_in_place17hd416f9f658d259f7E():
/rustc/50a0defd5a93523067ef239936cc2e0755220904/src/libcore/ptr.rs:195
   0:	b082      	sub	sp, #8
   2:	4601      	mov	r1, r0
   4:	9001      	str	r0, [sp, #4]
   6:	9100      	str	r1, [sp, #0]
   8:	b002      	add	sp, #8
   a:	4770      	bx	lr

Disassembly of section .text._ZN4core3ptr18real_drop_in_place17hd87e1c6e9d133217E:

00000000 <_ZN4core3ptr18real_drop_in_place17hd87e1c6e9d133217E>:
_ZN4core3ptr18real_drop_in_place17hd87e1c6e9d133217E():
/rustc/50a0defd5a93523067ef239936cc2e0755220904/src/libcore/ptr.rs:195
   0:	b082      	sub	sp, #8
   2:	4601      	mov	r1, r0
   4:	9001      	str	r0, [sp, #4]
   6:	9100      	str	r1, [sp, #0]
   8:	b002      	add	sp, #8
   a:	4770      	bx	lr

Disassembly of section .text._ZN4core3ptr18real_drop_in_place17he7a7ad1b0b27acd3E:

00000000 <_ZN4core3ptr18real_drop_in_place17he7a7ad1b0b27acd3E>:
_ZN4core3ptr18real_drop_in_place17he7a7ad1b0b27acd3E():
/rustc/50a0defd5a93523067ef239936cc2e0755220904/src/libcore/ptr.rs:195
   0:	b082      	sub	sp, #8
   2:	4601      	mov	r1, r0
   4:	9001      	str	r0, [sp, #4]
   6:	9100      	str	r1, [sp, #0]
   8:	b002      	add	sp, #8
   a:	4770      	bx	lr

Disassembly of section .text._ZN4core3ptr18real_drop_in_place17hefbb4eb195fc1257E:

00000000 <_ZN4core3ptr18real_drop_in_place17hefbb4eb195fc1257E>:
_ZN4core3ptr18real_drop_in_place17hefbb4eb195fc1257E():
/rustc/50a0defd5a93523067ef239936cc2e0755220904/src/libcore/ptr.rs:195
   0:	b082      	sub	sp, #8
   2:	4601      	mov	r1, r0
   4:	9001      	str	r0, [sp, #4]
   6:	9100      	str	r1, [sp, #0]
   8:	b002      	add	sp, #8
   a:	4770      	bx	lr

Disassembly of section .text._ZN4core3ptr18real_drop_in_place17hf034633d7358c3dcE:

00000000 <_ZN4core3ptr18real_drop_in_place17hf034633d7358c3dcE>:
_ZN4core3ptr18real_drop_in_place17hf034633d7358c3dcE():
/rustc/50a0defd5a93523067ef239936cc2e0755220904/src/libcore/ptr.rs:195
   0:	b082      	sub	sp, #8
   2:	4601      	mov	r1, r0
   4:	9001      	str	r0, [sp, #4]
   6:	9100      	str	r1, [sp, #0]
   8:	b002      	add	sp, #8
   a:	4770      	bx	lr

Disassembly of section .text._ZN4core3ptr18real_drop_in_place17hf4847ab145721afeE:

00000000 <_ZN4core3ptr18real_drop_in_place17hf4847ab145721afeE>:
_ZN4core3ptr18real_drop_in_place17hf4847ab145721afeE():
/rustc/50a0defd5a93523067ef239936cc2e0755220904/src/libcore/ptr.rs:195
   0:	b082      	sub	sp, #8
   2:	4601      	mov	r1, r0
   4:	9001      	str	r0, [sp, #4]
   6:	9100      	str	r1, [sp, #0]
   8:	b002      	add	sp, #8
   a:	4770      	bx	lr

mylib-ac95891f38e7979c.3bbvzv7pip6h5983.rcgu.o:     file format elf32-littlearm

SYMBOL TABLE:
00000000 l    df *ABS*	00000000 3bbvzv7pip6h5983
00000000 l       .debug_str	00000000 
00000041 l       .debug_str	00000000 
0000004c l       .debug_str	00000000 
0000006f l       .debug_str	00000000 
00000074 l       .debug_str	00000000 
0000007b l       .debug_str	00000000 
0000007e l       .debug_str	00000000 
00000081 l       .debug_str	00000000 
00000085 l       .debug_str	00000000 
0000008c l       .debug_str	00000000 
00000090 l       .debug_str	00000000 
00000093 l       .debug_str	00000000 
00000096 l       .debug_str	00000000 
0000009b l       .debug_str	00000000 
000000a1 l       .debug_str	00000000 
000000a8 l       .debug_str	00000000 
000000b0 l       .debug_str	00000000 
000000ba l       .debug_str	00000000 
000000be l       .debug_str	00000000 
000000c7 l       .debug_str	00000000 
000000cb l       .debug_str	00000000 
000000cf l       .debug_str	00000000 
000000d5 l       .debug_str	00000000 
000000dc l       .debug_str	00000000 
000000e5 l       .debug_str	00000000 
000000ea l       .debug_str	00000000 
000000f1 l       .debug_str	00000000 
000000f5 l       .debug_str	00000000 
000000fa l       .debug_str	00000000 
000000fe l       .debug_str	00000000 
00000151 l       .debug_str	00000000 
00000153 l       .debug_str	00000000 
00000158 l       .debug_str	00000000 
0000015c l       .debug_str	00000000 
000001b7 l       .debug_str	00000000 
000001bd l       .debug_str	00000000 
000001c1 l       .debug_str	00000000 
00000215 l       .debug_str	00000000 
00000271 l       .debug_str	00000000 
00000277 l       .debug_str	00000000 
000002cb l       .debug_str	00000000 
00000327 l       .debug_str	00000000 
0000032d l       .debug_str	00000000 
0000033a l       .debug_str	00000000 
00000396 l       .debug_str	00000000 
0000039a l       .debug_str	00000000 
000003a0 l       .debug_str	00000000 
000003a8 l       .debug_str	00000000 
0000040e l       .debug_str	00000000 
0000047c l       .debug_str	00000000 
00000480 l       .debug_str	00000000 
0000048d l       .debug_str	00000000 
000004a1 l       .debug_str	00000000 
000004d3 l       .debug_str	00000000 
000004d5 l       .debug_str	00000000 
000004d7 l       .debug_str	00000000 
0000057a l       .debug_str	00000000 
000005b9 l       .debug_str	00000000 
0000065c l       .debug_str	00000000 
0000069a l       .debug_str	00000000 
0000073d l       .debug_str	00000000 
0000077c l       .debug_str	00000000 
0000081f l       .debug_str	00000000 
0000085e l       .debug_str	00000000 
00000862 l       .debug_str	00000000 
00000868 l       .debug_str	00000000 
00000872 l       .debug_str	00000000 
000008c6 l       .debug_str	00000000 
00000922 l       .debug_str	00000000 
00000927 l       .debug_str	00000000 
00000981 l       .debug_str	00000000 
0000098e l       .debug_str	00000000 
000009bb l       .debug_str	00000000 
000009c0 l       .debug_str	00000000 
000009e3 l       .debug_str	00000000 
000009e5 l       .debug_str	00000000 
00000a91 l       .debug_str	00000000 
00000acd l       .debug_str	00000000 
00000b34 l       .debug_str	00000000 
00000b42 l       .debug_str	00000000 
00000b56 l       .debug_str	00000000 
00000b88 l       .debug_str	00000000 
00000c34 l       .debug_str	00000000 
00000c7d l       .debug_str	00000000 
00000d29 l       .debug_str	00000000 
00000d67 l       .debug_str	00000000 
00000d69 l       .debug_str	00000000 
00000e1e l       .debug_str	00000000 
00000e6d l       .debug_str	00000000 
00000e72 l       .debug_str	00000000 
00000ec6 l       .debug_str	00000000 
00000f1b l       .debug_str	00000000 
00000f1d l       .debug_str	00000000 
00000f23 l       .debug_str	00000000 
00000f28 l       .debug_str	00000000 
00000f2d l       .debug_str	00000000 
00000f33 l       .debug_str	00000000 
00000f39 l       .debug_str	00000000 
00000f47 l       .debug_str	00000000 
00000f51 l       .debug_str	00000000 
00000f55 l       .debug_str	00000000 
00000f5d l       .debug_str	00000000 
00000f64 l       .debug_str	00000000 
00000f78 l       .debug_str	00000000 
00000f84 l       .debug_str	00000000 
00000f8f l       .debug_str	00000000 
00000f96 l       .debug_str	00000000 
00000f9c l       .debug_str	00000000 
00000fa2 l       .debug_str	00000000 
00000fa8 l       .debug_str	00000000 
00000fab l       .debug_str	00000000 
00000fba l       .debug_str	00000000 
00000fc1 l       .debug_str	00000000 
00000fc5 l       .debug_str	00000000 
00000fce l       .debug_str	00000000 
00000fda l       .debug_str	00000000 
00000ff3 l       .debug_str	00000000 
00000ff8 l       .debug_str	00000000 
00001009 l       .debug_str	00000000 
00001013 l       .debug_str	00000000 
00001071 l       .debug_str	00000000 
0000107c l       .debug_str	00000000 
00001099 l       .debug_str	00000000 
0000109d l       .debug_str	00000000 
000010a5 l       .debug_str	00000000 
000010bc l       .debug_str	00000000 
000010e0 l       .debug_str	00000000 
000010fc l       .debug_str	00000000 
00001101 l       .debug_str	00000000 
0000110a l       .debug_str	00000000 
00001111 l       .debug_str	00000000 
0000112a l       .debug_str	00000000 
00001134 l       .debug_str	00000000 
0000114e l       .debug_str	00000000 
000011a2 l       .debug_str	00000000 
000011f7 l       .debug_str	00000000 
0000124c l       .debug_str	00000000 
0000129e l       .debug_str	00000000 
000012f1 l       .debug_str	00000000 
00001350 l       .debug_str	00000000 
000013b0 l       .debug_str	00000000 
00001405 l       .debug_str	00000000 
00000000 l    d  .text._ZN4core3ptr123_$LT$impl$u20$core..fmt..Debug$u20$for$u20$unsafe$u20$extern$u20$$u22$C$u22$$u20$fn$LP$A$C$$u20$B$RP$$u20$.$GT$$u20$Ret$GT$3fmt17h3fb1f20cb1dcac52E	00000000 .text._ZN4core3ptr123_$LT$impl$u20$core..fmt..Debug$u20$for$u20$unsafe$u20$extern$u20$$u22$C$u22$$u20$fn$LP$A$C$$u20$B$RP$$u20$.$GT$$u20$Ret$GT$3fmt17h3fb1f20cb1dcac52E
00000000 l    d  .text._ZN4core3ptr123_$LT$impl$u20$core..fmt..Debug$u20$for$u20$unsafe$u20$extern$u20$$u22$C$u22$$u20$fn$LP$A$C$$u20$B$RP$$u20$.$GT$$u20$Ret$GT$3fmt17h4edbc5696d0c317fE	00000000 .text._ZN4core3ptr123_$LT$impl$u20$core..fmt..Debug$u20$for$u20$unsafe$u20$extern$u20$$u22$C$u22$$u20$fn$LP$A$C$$u20$B$RP$$u20$.$GT$$u20$Ret$GT$3fmt17h4edbc5696d0c317fE
00000000 l    d  .text._ZN4core3ptr123_$LT$impl$u20$core..fmt..Debug$u20$for$u20$unsafe$u20$extern$u20$$u22$C$u22$$u20$fn$LP$A$C$$u20$B$RP$$u20$.$GT$$u20$Ret$GT$3fmt17h53893f4e0b3086caE	00000000 .text._ZN4core3ptr123_$LT$impl$u20$core..fmt..Debug$u20$for$u20$unsafe$u20$extern$u20$$u22$C$u22$$u20$fn$LP$A$C$$u20$B$RP$$u20$.$GT$$u20$Ret$GT$3fmt17h53893f4e0b3086caE
00000000 l    d  .text._ZN4core3ptr123_$LT$impl$u20$core..fmt..Debug$u20$for$u20$unsafe$u20$extern$u20$$u22$C$u22$$u20$fn$LP$A$C$$u20$B$RP$$u20$.$GT$$u20$Ret$GT$3fmt17hc81a0f1b3a058ef8E	00000000 .text._ZN4core3ptr123_$LT$impl$u20$core..fmt..Debug$u20$for$u20$unsafe$u20$extern$u20$$u22$C$u22$$u20$fn$LP$A$C$$u20$B$RP$$u20$.$GT$$u20$Ret$GT$3fmt17hc81a0f1b3a058ef8E
00000000 l    d  .text._ZN4core3ptr132_$LT$impl$u20$core..fmt..Debug$u20$for$u20$unsafe$u20$extern$u20$$u22$C$u22$$u20$fn$LP$A$C$$u20$B$C$$u20$C$RP$$u20$.$GT$$u20$Ret$GT$3fmt17ha083e96f88eede30E	00000000 .text._ZN4core3ptr132_$LT$impl$u20$core..fmt..Debug$u20$for$u20$unsafe$u20$extern$u20$$u22$C$u22$$u20$fn$LP$A$C$$u20$B$C$$u20$C$RP$$u20$.$GT$$u20$Ret$GT$3fmt17ha083e96f88eede30E
00000000 l    d  .text._ZN4core3ptr132_$LT$impl$u20$core..fmt..Debug$u20$for$u20$unsafe$u20$extern$u20$$u22$C$u22$$u20$fn$LP$A$C$$u20$B$C$$u20$C$RP$$u20$.$GT$$u20$Ret$GT$3fmt17hbf397bd6bbf1ae14E	00000000 .text._ZN4core3ptr132_$LT$impl$u20$core..fmt..Debug$u20$for$u20$unsafe$u20$extern$u20$$u22$C$u22$$u20$fn$LP$A$C$$u20$B$C$$u20$C$RP$$u20$.$GT$$u20$Ret$GT$3fmt17hbf397bd6bbf1ae14E
00000000 l    d  .text._ZN4core3ptr132_$LT$impl$u20$core..fmt..Debug$u20$for$u20$unsafe$u20$extern$u20$$u22$C$u22$$u20$fn$LP$A$C$$u20$B$C$$u20$C$RP$$u20$.$GT$$u20$Ret$GT$3fmt17hfe0812769f629b28E	00000000 .text._ZN4core3ptr132_$LT$impl$u20$core..fmt..Debug$u20$for$u20$unsafe$u20$extern$u20$$u22$C$u22$$u20$fn$LP$A$C$$u20$B$C$$u20$C$RP$$u20$.$GT$$u20$Ret$GT$3fmt17hfe0812769f629b28E
00000000 l    d  .text._ZN4core3ptr141_$LT$impl$u20$core..fmt..Debug$u20$for$u20$unsafe$u20$extern$u20$$u22$C$u22$$u20$fn$LP$A$C$$u20$B$C$$u20$C$C$$u20$D$RP$$u20$.$GT$$u20$Ret$GT$3fmt17h638559f450adb14aE	00000000 .text._ZN4core3ptr141_$LT$impl$u20$core..fmt..Debug$u20$for$u20$unsafe$u20$extern$u20$$u22$C$u22$$u20$fn$LP$A$C$$u20$B$C$$u20$C$C$$u20$D$RP$$u20$.$GT$$u20$Ret$GT$3fmt17h638559f450adb14aE
00000000 l    d  .debug_abbrev	00000000 .debug_abbrev
00000000 l    d  .debug_info	00000000 .debug_info
00000000 l    d  .debug_ranges	00000000 .debug_ranges
00000000 l    d  .debug_frame	00000000 .debug_frame
00000000 l    d  .debug_line	00000000 .debug_line
00000000 g     F .text._ZN4core3ptr123_$LT$impl$u20$core..fmt..Debug$u20$for$u20$unsafe$u20$extern$u20$$u22$C$u22$$u20$fn$LP$A$C$$u20$B$RP$$u20$.$GT$$u20$Ret$GT$3fmt17h3fb1f20cb1dcac52E	0000002c _ZN4core3ptr123_$LT$impl$u20$core..fmt..Debug$u20$for$u20$unsafe$u20$extern$u20$$u22$C$u22$$u20$fn$LP$A$C$$u20$B$RP$$u20$.$GT$$u20$Ret$GT$3fmt17h3fb1f20cb1dcac52E
00000000 g     F .text._ZN4core3ptr123_$LT$impl$u20$core..fmt..Debug$u20$for$u20$unsafe$u20$extern$u20$$u22$C$u22$$u20$fn$LP$A$C$$u20$B$RP$$u20$.$GT$$u20$Ret$GT$3fmt17h4edbc5696d0c317fE	0000002c _ZN4core3ptr123_$LT$impl$u20$core..fmt..Debug$u20$for$u20$unsafe$u20$extern$u20$$u22$C$u22$$u20$fn$LP$A$C$$u20$B$RP$$u20$.$GT$$u20$Ret$GT$3fmt17h4edbc5696d0c317fE
00000000 g     F .text._ZN4core3ptr123_$LT$impl$u20$core..fmt..Debug$u20$for$u20$unsafe$u20$extern$u20$$u22$C$u22$$u20$fn$LP$A$C$$u20$B$RP$$u20$.$GT$$u20$Ret$GT$3fmt17h53893f4e0b3086caE	0000002c _ZN4core3ptr123_$LT$impl$u20$core..fmt..Debug$u20$for$u20$unsafe$u20$extern$u20$$u22$C$u22$$u20$fn$LP$A$C$$u20$B$RP$$u20$.$GT$$u20$Ret$GT$3fmt17h53893f4e0b3086caE
00000000 g     F .text._ZN4core3ptr123_$LT$impl$u20$core..fmt..Debug$u20$for$u20$unsafe$u20$extern$u20$$u22$C$u22$$u20$fn$LP$A$C$$u20$B$RP$$u20$.$GT$$u20$Ret$GT$3fmt17hc81a0f1b3a058ef8E	0000002c _ZN4core3ptr123_$LT$impl$u20$core..fmt..Debug$u20$for$u20$unsafe$u20$extern$u20$$u22$C$u22$$u20$fn$LP$A$C$$u20$B$RP$$u20$.$GT$$u20$Ret$GT$3fmt17hc81a0f1b3a058ef8E
00000000 g     F .text._ZN4core3ptr132_$LT$impl$u20$core..fmt..Debug$u20$for$u20$unsafe$u20$extern$u20$$u22$C$u22$$u20$fn$LP$A$C$$u20$B$C$$u20$C$RP$$u20$.$GT$$u20$Ret$GT$3fmt17ha083e96f88eede30E	0000002c _ZN4core3ptr132_$LT$impl$u20$core..fmt..Debug$u20$for$u20$unsafe$u20$extern$u20$$u22$C$u22$$u20$fn$LP$A$C$$u20$B$C$$u20$C$RP$$u20$.$GT$$u20$Ret$GT$3fmt17ha083e96f88eede30E
00000000 g     F .text._ZN4core3ptr132_$LT$impl$u20$core..fmt..Debug$u20$for$u20$unsafe$u20$extern$u20$$u22$C$u22$$u20$fn$LP$A$C$$u20$B$C$$u20$C$RP$$u20$.$GT$$u20$Ret$GT$3fmt17hbf397bd6bbf1ae14E	0000002c _ZN4core3ptr132_$LT$impl$u20$core..fmt..Debug$u20$for$u20$unsafe$u20$extern$u20$$u22$C$u22$$u20$fn$LP$A$C$$u20$B$C$$u20$C$RP$$u20$.$GT$$u20$Ret$GT$3fmt17hbf397bd6bbf1ae14E
00000000 g     F .text._ZN4core3ptr132_$LT$impl$u20$core..fmt..Debug$u20$for$u20$unsafe$u20$extern$u20$$u22$C$u22$$u20$fn$LP$A$C$$u20$B$C$$u20$C$RP$$u20$.$GT$$u20$Ret$GT$3fmt17hfe0812769f629b28E	0000002c _ZN4core3ptr132_$LT$impl$u20$core..fmt..Debug$u20$for$u20$unsafe$u20$extern$u20$$u22$C$u22$$u20$fn$LP$A$C$$u20$B$C$$u20$C$RP$$u20$.$GT$$u20$Ret$GT$3fmt17hfe0812769f629b28E
00000000 g     F .text._ZN4core3ptr141_$LT$impl$u20$core..fmt..Debug$u20$for$u20$unsafe$u20$extern$u20$$u22$C$u22$$u20$fn$LP$A$C$$u20$B$C$$u20$C$C$$u20$D$RP$$u20$.$GT$$u20$Ret$GT$3fmt17h638559f450adb14aE	0000002c _ZN4core3ptr141_$LT$impl$u20$core..fmt..Debug$u20$for$u20$unsafe$u20$extern$u20$$u22$C$u22$$u20$fn$LP$A$C$$u20$B$C$$u20$C$C$$u20$D$RP$$u20$.$GT$$u20$Ret$GT$3fmt17h638559f450adb14aE
00000000         *UND*	00000000 _ZN54_$LT$$BP$const$u20$T$u20$as$u20$core..fmt..Pointer$GT$3fmt17he4f54e4c19abbcc9E



Disassembly of section .text._ZN4core3ptr123_$LT$impl$u20$core..fmt..Debug$u20$for$u20$unsafe$u20$extern$u20$$u22$C$u22$$u20$fn$LP$A$C$$u20$B$RP$$u20$.$GT$$u20$Ret$GT$3fmt17h3fb1f20cb1dcac52E:

00000000 <_ZN4core3ptr123_$LT$impl$u20$core..fmt..Debug$u20$for$u20$unsafe$u20$extern$u20$$u22$C$u22$$u20$fn$LP$A$C$$u20$B$RP$$u20$.$GT$$u20$Ret$GT$3fmt17h3fb1f20cb1dcac52E>:
_ZN4core3ptr123_$LT$impl$u20$core..fmt..Debug$u20$for$u20$unsafe$u20$extern$u20$$u22$C$u22$$u20$fn$LP$A$C$$u20$B$RP$$u20$.$GT$$u20$Ret$GT$3fmt17h3fb1f20cb1dcac52E():
/rustc/50a0defd5a93523067ef239936cc2e0755220904/src/libcore/ptr.rs:2638
   0:	b580      	push	{r7, lr}
   2:	b086      	sub	sp, #24
   4:	460a      	mov	r2, r1
   6:	4603      	mov	r3, r0
   8:	9003      	str	r0, [sp, #12]
   a:	9104      	str	r1, [sp, #16]
/rustc/50a0defd5a93523067ef239936cc2e0755220904/src/libcore/ptr.rs:2639
   c:	9803      	ldr	r0, [sp, #12]
   e:	6800      	ldr	r0, [r0, #0]
  10:	9005      	str	r0, [sp, #20]
  12:	9904      	ldr	r1, [sp, #16]
  14:	a805      	add	r0, sp, #20
  16:	9202      	str	r2, [sp, #8]
  18:	9301      	str	r3, [sp, #4]
  1a:	f7ff fffe 	bl	0 <_ZN54_$LT$$BP$const$u20$T$u20$as$u20$core..fmt..Pointer$GT$3fmt17he4f54e4c19abbcc9E>
  1e:	9000      	str	r0, [sp, #0]
  20:	e7ff      	b.n	22 <_ZN4core3ptr123_$LT$impl$u20$core..fmt..Debug$u20$for$u20$unsafe$u20$extern$u20$$u22$C$u22$$u20$fn$LP$A$C$$u20$B$RP$$u20$.$GT$$u20$Ret$GT$3fmt17h3fb1f20cb1dcac52E+0x22>
/rustc/50a0defd5a93523067ef239936cc2e0755220904/src/libcore/ptr.rs:2640
  22:	9800      	ldr	r0, [sp, #0]
  24:	f000 0001 	and.w	r0, r0, #1
  28:	b006      	add	sp, #24
  2a:	bd80      	pop	{r7, pc}

Disassembly of section .text._ZN4core3ptr123_$LT$impl$u20$core..fmt..Debug$u20$for$u20$unsafe$u20$extern$u20$$u22$C$u22$$u20$fn$LP$A$C$$u20$B$RP$$u20$.$GT$$u20$Ret$GT$3fmt17h4edbc5696d0c317fE:

00000000 <_ZN4core3ptr123_$LT$impl$u20$core..fmt..Debug$u20$for$u20$unsafe$u20$extern$u20$$u22$C$u22$$u20$fn$LP$A$C$$u20$B$RP$$u20$.$GT$$u20$Ret$GT$3fmt17h4edbc5696d0c317fE>:
_ZN4core3ptr123_$LT$impl$u20$core..fmt..Debug$u20$for$u20$unsafe$u20$extern$u20$$u22$C$u22$$u20$fn$LP$A$C$$u20$B$RP$$u20$.$GT$$u20$Ret$GT$3fmt17h4edbc5696d0c317fE():
/rustc/50a0defd5a93523067ef239936cc2e0755220904/src/libcore/ptr.rs:2638
   0:	b580      	push	{r7, lr}
   2:	b086      	sub	sp, #24
   4:	460a      	mov	r2, r1
   6:	4603      	mov	r3, r0
   8:	9003      	str	r0, [sp, #12]
   a:	9104      	str	r1, [sp, #16]
/rustc/50a0defd5a93523067ef239936cc2e0755220904/src/libcore/ptr.rs:2639
   c:	9803      	ldr	r0, [sp, #12]
   e:	6800      	ldr	r0, [r0, #0]
  10:	9005      	str	r0, [sp, #20]
  12:	9904      	ldr	r1, [sp, #16]
  14:	a805      	add	r0, sp, #20
  16:	9202      	str	r2, [sp, #8]
  18:	9301      	str	r3, [sp, #4]
  1a:	f7ff fffe 	bl	0 <_ZN54_$LT$$BP$const$u20$T$u20$as$u20$core..fmt..Pointer$GT$3fmt17he4f54e4c19abbcc9E>
  1e:	9000      	str	r0, [sp, #0]
  20:	e7ff      	b.n	22 <_ZN4core3ptr123_$LT$impl$u20$core..fmt..Debug$u20$for$u20$unsafe$u20$extern$u20$$u22$C$u22$$u20$fn$LP$A$C$$u20$B$RP$$u20$.$GT$$u20$Ret$GT$3fmt17h4edbc5696d0c317fE+0x22>
/rustc/50a0defd5a93523067ef239936cc2e0755220904/src/libcore/ptr.rs:2640
  22:	9800      	ldr	r0, [sp, #0]
  24:	f000 0001 	and.w	r0, r0, #1
  28:	b006      	add	sp, #24
  2a:	bd80      	pop	{r7, pc}

Disassembly of section .text._ZN4core3ptr123_$LT$impl$u20$core..fmt..Debug$u20$for$u20$unsafe$u20$extern$u20$$u22$C$u22$$u20$fn$LP$A$C$$u20$B$RP$$u20$.$GT$$u20$Ret$GT$3fmt17h53893f4e0b3086caE:

00000000 <_ZN4core3ptr123_$LT$impl$u20$core..fmt..Debug$u20$for$u20$unsafe$u20$extern$u20$$u22$C$u22$$u20$fn$LP$A$C$$u20$B$RP$$u20$.$GT$$u20$Ret$GT$3fmt17h53893f4e0b3086caE>:
_ZN4core3ptr123_$LT$impl$u20$core..fmt..Debug$u20$for$u20$unsafe$u20$extern$u20$$u22$C$u22$$u20$fn$LP$A$C$$u20$B$RP$$u20$.$GT$$u20$Ret$GT$3fmt17h53893f4e0b3086caE():
/rustc/50a0defd5a93523067ef239936cc2e0755220904/src/libcore/ptr.rs:2638
   0:	b580      	push	{r7, lr}
   2:	b086      	sub	sp, #24
   4:	460a      	mov	r2, r1
   6:	4603      	mov	r3, r0
   8:	9003      	str	r0, [sp, #12]
   a:	9104      	str	r1, [sp, #16]
/rustc/50a0defd5a93523067ef239936cc2e0755220904/src/libcore/ptr.rs:2639
   c:	9803      	ldr	r0, [sp, #12]
   e:	6800      	ldr	r0, [r0, #0]
  10:	9005      	str	r0, [sp, #20]
  12:	9904      	ldr	r1, [sp, #16]
  14:	a805      	add	r0, sp, #20
  16:	9202      	str	r2, [sp, #8]
  18:	9301      	str	r3, [sp, #4]
  1a:	f7ff fffe 	bl	0 <_ZN54_$LT$$BP$const$u20$T$u20$as$u20$core..fmt..Pointer$GT$3fmt17he4f54e4c19abbcc9E>
  1e:	9000      	str	r0, [sp, #0]
  20:	e7ff      	b.n	22 <_ZN4core3ptr123_$LT$impl$u20$core..fmt..Debug$u20$for$u20$unsafe$u20$extern$u20$$u22$C$u22$$u20$fn$LP$A$C$$u20$B$RP$$u20$.$GT$$u20$Ret$GT$3fmt17h53893f4e0b3086caE+0x22>
/rustc/50a0defd5a93523067ef239936cc2e0755220904/src/libcore/ptr.rs:2640
  22:	9800      	ldr	r0, [sp, #0]
  24:	f000 0001 	and.w	r0, r0, #1
  28:	b006      	add	sp, #24
  2a:	bd80      	pop	{r7, pc}

Disassembly of section .text._ZN4core3ptr123_$LT$impl$u20$core..fmt..Debug$u20$for$u20$unsafe$u20$extern$u20$$u22$C$u22$$u20$fn$LP$A$C$$u20$B$RP$$u20$.$GT$$u20$Ret$GT$3fmt17hc81a0f1b3a058ef8E:

00000000 <_ZN4core3ptr123_$LT$impl$u20$core..fmt..Debug$u20$for$u20$unsafe$u20$extern$u20$$u22$C$u22$$u20$fn$LP$A$C$$u20$B$RP$$u20$.$GT$$u20$Ret$GT$3fmt17hc81a0f1b3a058ef8E>:
_ZN4core3ptr123_$LT$impl$u20$core..fmt..Debug$u20$for$u20$unsafe$u20$extern$u20$$u22$C$u22$$u20$fn$LP$A$C$$u20$B$RP$$u20$.$GT$$u20$Ret$GT$3fmt17hc81a0f1b3a058ef8E():
/rustc/50a0defd5a93523067ef239936cc2e0755220904/src/libcore/ptr.rs:2638
   0:	b580      	push	{r7, lr}
   2:	b086      	sub	sp, #24
   4:	460a      	mov	r2, r1
   6:	4603      	mov	r3, r0
   8:	9003      	str	r0, [sp, #12]
   a:	9104      	str	r1, [sp, #16]
/rustc/50a0defd5a93523067ef239936cc2e0755220904/src/libcore/ptr.rs:2639
   c:	9803      	ldr	r0, [sp, #12]
   e:	6800      	ldr	r0, [r0, #0]
  10:	9005      	str	r0, [sp, #20]
  12:	9904      	ldr	r1, [sp, #16]
  14:	a805      	add	r0, sp, #20
  16:	9202      	str	r2, [sp, #8]
  18:	9301      	str	r3, [sp, #4]
  1a:	f7ff fffe 	bl	0 <_ZN54_$LT$$BP$const$u20$T$u20$as$u20$core..fmt..Pointer$GT$3fmt17he4f54e4c19abbcc9E>
  1e:	9000      	str	r0, [sp, #0]
  20:	e7ff      	b.n	22 <_ZN4core3ptr123_$LT$impl$u20$core..fmt..Debug$u20$for$u20$unsafe$u20$extern$u20$$u22$C$u22$$u20$fn$LP$A$C$$u20$B$RP$$u20$.$GT$$u20$Ret$GT$3fmt17hc81a0f1b3a058ef8E+0x22>
/rustc/50a0defd5a93523067ef239936cc2e0755220904/src/libcore/ptr.rs:2640
  22:	9800      	ldr	r0, [sp, #0]
  24:	f000 0001 	and.w	r0, r0, #1
  28:	b006      	add	sp, #24
  2a:	bd80      	pop	{r7, pc}

Disassembly of section .text._ZN4core3ptr132_$LT$impl$u20$core..fmt..Debug$u20$for$u20$unsafe$u20$extern$u20$$u22$C$u22$$u20$fn$LP$A$C$$u20$B$C$$u20$C$RP$$u20$.$GT$$u20$Ret$GT$3fmt17ha083e96f88eede30E:

00000000 <_ZN4core3ptr132_$LT$impl$u20$core..fmt..Debug$u20$for$u20$unsafe$u20$extern$u20$$u22$C$u22$$u20$fn$LP$A$C$$u20$B$C$$u20$C$RP$$u20$.$GT$$u20$Ret$GT$3fmt17ha083e96f88eede30E>:
_ZN4core3ptr132_$LT$impl$u20$core..fmt..Debug$u20$for$u20$unsafe$u20$extern$u20$$u22$C$u22$$u20$fn$LP$A$C$$u20$B$C$$u20$C$RP$$u20$.$GT$$u20$Ret$GT$3fmt17ha083e96f88eede30E():
/rustc/50a0defd5a93523067ef239936cc2e0755220904/src/libcore/ptr.rs:2638
   0:	b580      	push	{r7, lr}
   2:	b086      	sub	sp, #24
   4:	460a      	mov	r2, r1
   6:	4603      	mov	r3, r0
   8:	9003      	str	r0, [sp, #12]
   a:	9104      	str	r1, [sp, #16]
/rustc/50a0defd5a93523067ef239936cc2e0755220904/src/libcore/ptr.rs:2639
   c:	9803      	ldr	r0, [sp, #12]
   e:	6800      	ldr	r0, [r0, #0]
  10:	9005      	str	r0, [sp, #20]
  12:	9904      	ldr	r1, [sp, #16]
  14:	a805      	add	r0, sp, #20
  16:	9202      	str	r2, [sp, #8]
  18:	9301      	str	r3, [sp, #4]
  1a:	f7ff fffe 	bl	0 <_ZN54_$LT$$BP$const$u20$T$u20$as$u20$core..fmt..Pointer$GT$3fmt17he4f54e4c19abbcc9E>
  1e:	9000      	str	r0, [sp, #0]
  20:	e7ff      	b.n	22 <_ZN4core3ptr132_$LT$impl$u20$core..fmt..Debug$u20$for$u20$unsafe$u20$extern$u20$$u22$C$u22$$u20$fn$LP$A$C$$u20$B$C$$u20$C$RP$$u20$.$GT$$u20$Ret$GT$3fmt17ha083e96f88eede30E+0x22>
/rustc/50a0defd5a93523067ef239936cc2e0755220904/src/libcore/ptr.rs:2640
  22:	9800      	ldr	r0, [sp, #0]
  24:	f000 0001 	and.w	r0, r0, #1
  28:	b006      	add	sp, #24
  2a:	bd80      	pop	{r7, pc}

Disassembly of section .text._ZN4core3ptr132_$LT$impl$u20$core..fmt..Debug$u20$for$u20$unsafe$u20$extern$u20$$u22$C$u22$$u20$fn$LP$A$C$$u20$B$C$$u20$C$RP$$u20$.$GT$$u20$Ret$GT$3fmt17hbf397bd6bbf1ae14E:

00000000 <_ZN4core3ptr132_$LT$impl$u20$core..fmt..Debug$u20$for$u20$unsafe$u20$extern$u20$$u22$C$u22$$u20$fn$LP$A$C$$u20$B$C$$u20$C$RP$$u20$.$GT$$u20$Ret$GT$3fmt17hbf397bd6bbf1ae14E>:
_ZN4core3ptr132_$LT$impl$u20$core..fmt..Debug$u20$for$u20$unsafe$u20$extern$u20$$u22$C$u22$$u20$fn$LP$A$C$$u20$B$C$$u20$C$RP$$u20$.$GT$$u20$Ret$GT$3fmt17hbf397bd6bbf1ae14E():
/rustc/50a0defd5a93523067ef239936cc2e0755220904/src/libcore/ptr.rs:2638
   0:	b580      	push	{r7, lr}
   2:	b086      	sub	sp, #24
   4:	460a      	mov	r2, r1
   6:	4603      	mov	r3, r0
   8:	9003      	str	r0, [sp, #12]
   a:	9104      	str	r1, [sp, #16]
/rustc/50a0defd5a93523067ef239936cc2e0755220904/src/libcore/ptr.rs:2639
   c:	9803      	ldr	r0, [sp, #12]
   e:	6800      	ldr	r0, [r0, #0]
  10:	9005      	str	r0, [sp, #20]
  12:	9904      	ldr	r1, [sp, #16]
  14:	a805      	add	r0, sp, #20
  16:	9202      	str	r2, [sp, #8]
  18:	9301      	str	r3, [sp, #4]
  1a:	f7ff fffe 	bl	0 <_ZN54_$LT$$BP$const$u20$T$u20$as$u20$core..fmt..Pointer$GT$3fmt17he4f54e4c19abbcc9E>
  1e:	9000      	str	r0, [sp, #0]
  20:	e7ff      	b.n	22 <_ZN4core3ptr132_$LT$impl$u20$core..fmt..Debug$u20$for$u20$unsafe$u20$extern$u20$$u22$C$u22$$u20$fn$LP$A$C$$u20$B$C$$u20$C$RP$$u20$.$GT$$u20$Ret$GT$3fmt17hbf397bd6bbf1ae14E+0x22>
/rustc/50a0defd5a93523067ef239936cc2e0755220904/src/libcore/ptr.rs:2640
  22:	9800      	ldr	r0, [sp, #0]
  24:	f000 0001 	and.w	r0, r0, #1
  28:	b006      	add	sp, #24
  2a:	bd80      	pop	{r7, pc}

Disassembly of section .text._ZN4core3ptr132_$LT$impl$u20$core..fmt..Debug$u20$for$u20$unsafe$u20$extern$u20$$u22$C$u22$$u20$fn$LP$A$C$$u20$B$C$$u20$C$RP$$u20$.$GT$$u20$Ret$GT$3fmt17hfe0812769f629b28E:

00000000 <_ZN4core3ptr132_$LT$impl$u20$core..fmt..Debug$u20$for$u20$unsafe$u20$extern$u20$$u22$C$u22$$u20$fn$LP$A$C$$u20$B$C$$u20$C$RP$$u20$.$GT$$u20$Ret$GT$3fmt17hfe0812769f629b28E>:
_ZN4core3ptr132_$LT$impl$u20$core..fmt..Debug$u20$for$u20$unsafe$u20$extern$u20$$u22$C$u22$$u20$fn$LP$A$C$$u20$B$C$$u20$C$RP$$u20$.$GT$$u20$Ret$GT$3fmt17hfe0812769f629b28E():
/rustc/50a0defd5a93523067ef239936cc2e0755220904/src/libcore/ptr.rs:2638
   0:	b580      	push	{r7, lr}
   2:	b086      	sub	sp, #24
   4:	460a      	mov	r2, r1
   6:	4603      	mov	r3, r0
   8:	9003      	str	r0, [sp, #12]
   a:	9104      	str	r1, [sp, #16]
/rustc/50a0defd5a93523067ef239936cc2e0755220904/src/libcore/ptr.rs:2639
   c:	9803      	ldr	r0, [sp, #12]
   e:	6800      	ldr	r0, [r0, #0]
  10:	9005      	str	r0, [sp, #20]
  12:	9904      	ldr	r1, [sp, #16]
  14:	a805      	add	r0, sp, #20
  16:	9202      	str	r2, [sp, #8]
  18:	9301      	str	r3, [sp, #4]
  1a:	f7ff fffe 	bl	0 <_ZN54_$LT$$BP$const$u20$T$u20$as$u20$core..fmt..Pointer$GT$3fmt17he4f54e4c19abbcc9E>
  1e:	9000      	str	r0, [sp, #0]
  20:	e7ff      	b.n	22 <_ZN4core3ptr132_$LT$impl$u20$core..fmt..Debug$u20$for$u20$unsafe$u20$extern$u20$$u22$C$u22$$u20$fn$LP$A$C$$u20$B$C$$u20$C$RP$$u20$.$GT$$u20$Ret$GT$3fmt17hfe0812769f629b28E+0x22>
/rustc/50a0defd5a93523067ef239936cc2e0755220904/src/libcore/ptr.rs:2640
  22:	9800      	ldr	r0, [sp, #0]
  24:	f000 0001 	and.w	r0, r0, #1
  28:	b006      	add	sp, #24
  2a:	bd80      	pop	{r7, pc}

Disassembly of section .text._ZN4core3ptr141_$LT$impl$u20$core..fmt..Debug$u20$for$u20$unsafe$u20$extern$u20$$u22$C$u22$$u20$fn$LP$A$C$$u20$B$C$$u20$C$C$$u20$D$RP$$u20$.$GT$$u20$Ret$GT$3fmt17h638559f450adb14aE:

00000000 <_ZN4core3ptr141_$LT$impl$u20$core..fmt..Debug$u20$for$u20$unsafe$u20$extern$u20$$u22$C$u22$$u20$fn$LP$A$C$$u20$B$C$$u20$C$C$$u20$D$RP$$u20$.$GT$$u20$Ret$GT$3fmt17h638559f450adb14aE>:
_ZN4core3ptr141_$LT$impl$u20$core..fmt..Debug$u20$for$u20$unsafe$u20$extern$u20$$u22$C$u22$$u20$fn$LP$A$C$$u20$B$C$$u20$C$C$$u20$D$RP$$u20$.$GT$$u20$Ret$GT$3fmt17h638559f450adb14aE():
/rustc/50a0defd5a93523067ef239936cc2e0755220904/src/libcore/ptr.rs:2638
   0:	b580      	push	{r7, lr}
   2:	b086      	sub	sp, #24
   4:	460a      	mov	r2, r1
   6:	4603      	mov	r3, r0
   8:	9003      	str	r0, [sp, #12]
   a:	9104      	str	r1, [sp, #16]
/rustc/50a0defd5a93523067ef239936cc2e0755220904/src/libcore/ptr.rs:2639
   c:	9803      	ldr	r0, [sp, #12]
   e:	6800      	ldr	r0, [r0, #0]
  10:	9005      	str	r0, [sp, #20]
  12:	9904      	ldr	r1, [sp, #16]
  14:	a805      	add	r0, sp, #20
  16:	9202      	str	r2, [sp, #8]
  18:	9301      	str	r3, [sp, #4]
  1a:	f7ff fffe 	bl	0 <_ZN54_$LT$$BP$const$u20$T$u20$as$u20$core..fmt..Pointer$GT$3fmt17he4f54e4c19abbcc9E>
  1e:	9000      	str	r0, [sp, #0]
  20:	e7ff      	b.n	22 <_ZN4core3ptr141_$LT$impl$u20$core..fmt..Debug$u20$for$u20$unsafe$u20$extern$u20$$u22$C$u22$$u20$fn$LP$A$C$$u20$B$C$$u20$C$C$$u20$D$RP$$u20$.$GT$$u20$Ret$GT$3fmt17h638559f450adb14aE+0x22>
/rustc/50a0defd5a93523067ef239936cc2e0755220904/src/libcore/ptr.rs:2640
  22:	9800      	ldr	r0, [sp, #0]
  24:	f000 0001 	and.w	r0, r0, #1
  28:	b006      	add	sp, #24
  2a:	bd80      	pop	{r7, pc}

mylib-ac95891f38e7979c.3rzqljy00d1p0zrg.rcgu.o:     file format elf32-littlearm

SYMBOL TABLE:
00000000 l    df *ABS*	00000000 3rzqljy00d1p0zrg
00000000 l       .debug_str	00000000 
00000041 l       .debug_str	00000000 
0000004c l       .debug_str	00000000 
0000006f l       .debug_str	00000000 
00000074 l       .debug_str	00000000 
0000007b l       .debug_str	00000000 
0000007e l       .debug_str	00000000 
00000081 l       .debug_str	00000000 
00000085 l       .debug_str	00000000 
0000008c l       .debug_str	00000000 
00000090 l       .debug_str	00000000 
00000093 l       .debug_str	00000000 
00000096 l       .debug_str	00000000 
0000009b l       .debug_str	00000000 
000000a1 l       .debug_str	00000000 
000000a8 l       .debug_str	00000000 
000000b0 l       .debug_str	00000000 
000000ba l       .debug_str	00000000 
000000c3 l       .debug_str	00000000 
000000c9 l       .debug_str	00000000 
000000d0 l       .debug_str	00000000 
000000d9 l       .debug_str	00000000 
000000de l       .debug_str	00000000 
000000e5 l       .debug_str	00000000 
000000e9 l       .debug_str	00000000 
000000ee l       .debug_str	00000000 
000000f2 l       .debug_str	00000000 
00000145 l       .debug_str	00000000 
00000147 l       .debug_str	00000000 
0000014c l       .debug_str	00000000 
00000150 l       .debug_str	00000000 
000001ab l       .debug_str	00000000 
000001b1 l       .debug_str	00000000 
000001b5 l       .debug_str	00000000 
00000209 l       .debug_str	00000000 
00000265 l       .debug_str	00000000 
0000026b l       .debug_str	00000000 
000002bf l       .debug_str	00000000 
0000031b l       .debug_str	00000000 
00000321 l       .debug_str	00000000 
00000325 l       .debug_str	00000000 
00000379 l       .debug_str	00000000 
000003d5 l       .debug_str	00000000 
000003d9 l       .debug_str	00000000 
000003df l       .debug_str	00000000 
000003e7 l       .debug_str	00000000 
0000044d l       .debug_str	00000000 
000004bb l       .debug_str	00000000 
000004bf l       .debug_str	00000000 
000004cc l       .debug_str	00000000 
000004e0 l       .debug_str	00000000 
00000512 l       .debug_str	00000000 
0000055a l       .debug_str	00000000 
00000591 l       .debug_str	00000000 
00000597 l       .debug_str	00000000 
0000059b l       .debug_str	00000000 
000005a0 l       .debug_str	00000000 
000005c3 l       .debug_str	00000000 
000005cd l       .debug_str	00000000 
00000621 l       .debug_str	00000000 
0000067d l       .debug_str	00000000 
00000682 l       .debug_str	00000000 
000006d4 l       .debug_str	00000000 
0000072e l       .debug_str	00000000 
0000073b l       .debug_str	00000000 
00000768 l       .debug_str	00000000 
000007b0 l       .debug_str	00000000 
000007e2 l       .debug_str	00000000 
00000841 l       .debug_str	00000000 
000008a8 l       .debug_str	00000000 
000008b6 l       .debug_str	00000000 
000008ca l       .debug_str	00000000 
000008fc l       .debug_str	00000000 
00000944 l       .debug_str	00000000 
0000097b l       .debug_str	00000000 
0000097d l       .debug_str	00000000 
00000981 l       .debug_str	00000000 
00000987 l       .debug_str	00000000 
00000992 l       .debug_str	00000000 
000009bd l       .debug_str	00000000 
00000a05 l       .debug_str	00000000 
00000a35 l       .debug_str	00000000 
00000a85 l       .debug_str	00000000 
00000ab7 l       .debug_str	00000000 
00000b07 l       .debug_str	00000000 
00000b39 l       .debug_str	00000000 
00000b8b l       .debug_str	00000000 
00000bb6 l       .debug_str	00000000 
00000c08 l       .debug_str	00000000 
00000c31 l       .debug_str	00000000 
00000c83 l       .debug_str	00000000 
00000cd5 l       .debug_str	00000000 
00000d29 l       .debug_str	00000000 
00000d7d l       .debug_str	00000000 
00000dd1 l       .debug_str	00000000 
00000e25 l       .debug_str	00000000 
00000e2a l       .debug_str	00000000 
00000e5d l       .debug_str	00000000 
00000e91 l       .debug_str	00000000 
00000e93 l       .debug_str	00000000 
00000e98 l       .debug_str	00000000 
00000e9d l       .debug_str	00000000 
00000ea3 l       .debug_str	00000000 
00000ea9 l       .debug_str	00000000 
00000eb7 l       .debug_str	00000000 
00000ec1 l       .debug_str	00000000 
00000ec5 l       .debug_str	00000000 
00000ecd l       .debug_str	00000000 
00000ed4 l       .debug_str	00000000 
00000ee8 l       .debug_str	00000000 
00000ef4 l       .debug_str	00000000 
00000eff l       .debug_str	00000000 
00000f06 l       .debug_str	00000000 
00000f0c l       .debug_str	00000000 
00000f10 l       .debug_str	00000000 
00000f16 l       .debug_str	00000000 
00000f1c l       .debug_str	00000000 
00000f1f l       .debug_str	00000000 
00000f2e l       .debug_str	00000000 
00000f35 l       .debug_str	00000000 
00000f39 l       .debug_str	00000000 
00000f42 l       .debug_str	00000000 
00000f4e l       .debug_str	00000000 
00000f67 l       .debug_str	00000000 
00000f6c l       .debug_str	00000000 
00000f7d l       .debug_str	00000000 
00000f87 l       .debug_str	00000000 
00000fe5 l       .debug_str	00000000 
00000ff0 l       .debug_str	00000000 
0000100d l       .debug_str	00000000 
00001015 l       .debug_str	00000000 
0000102c l       .debug_str	00000000 
00001050 l       .debug_str	00000000 
0000106c l       .debug_str	00000000 
00001071 l       .debug_str	00000000 
0000107a l       .debug_str	00000000 
00001081 l       .debug_str	00000000 
0000109a l       .debug_str	00000000 
000010a4 l       .debug_str	00000000 
000010be l       .debug_str	00000000 
000010ec l       .debug_str	00000000 
0000111b l       .debug_str	00000000 
0000114e l       .debug_str	00000000 
00001182 l       .debug_str	00000000 
000011ae l       .debug_str	00000000 
000011db l       .debug_str	00000000 
0000120f l       .debug_str	00000000 
00001244 l       .debug_str	00000000 
0000124e l       .debug_str	00000000 
00001258 l       .debug_str	00000000 
0000125c l       .debug_str	00000000 
00001290 l       .debug_str	00000000 
00000000 l    d  .text._ZN42_$LT$$RF$T$u20$as$u20$core..fmt..Debug$GT$3fmt17h6cb858c1b33e980aE	00000000 .text._ZN42_$LT$$RF$T$u20$as$u20$core..fmt..Debug$GT$3fmt17h6cb858c1b33e980aE
00000000 l    d  .text._ZN42_$LT$$RF$T$u20$as$u20$core..fmt..Debug$GT$3fmt17h840f656d40ad194eE	00000000 .text._ZN42_$LT$$RF$T$u20$as$u20$core..fmt..Debug$GT$3fmt17h840f656d40ad194eE
00000000 l    d  .text._ZN42_$LT$$RF$T$u20$as$u20$core..fmt..Debug$GT$3fmt17ha62b54af37adecf0E	00000000 .text._ZN42_$LT$$RF$T$u20$as$u20$core..fmt..Debug$GT$3fmt17ha62b54af37adecf0E
00000000 l    d  .text._ZN42_$LT$$RF$T$u20$as$u20$core..fmt..Debug$GT$3fmt17hf37e8052479de84cE	00000000 .text._ZN42_$LT$$RF$T$u20$as$u20$core..fmt..Debug$GT$3fmt17hf37e8052479de84cE
00000000 l    d  .text._ZN50_$LT$$BP$mut$u20$T$u20$as$u20$core..fmt..Debug$GT$3fmt17h2eed44fb05b85061E	00000000 .text._ZN50_$LT$$BP$mut$u20$T$u20$as$u20$core..fmt..Debug$GT$3fmt17h2eed44fb05b85061E
00000000 l    d  .text._ZN50_$LT$$BP$mut$u20$T$u20$as$u20$core..fmt..Debug$GT$3fmt17h78e8e914ac815482E	00000000 .text._ZN50_$LT$$BP$mut$u20$T$u20$as$u20$core..fmt..Debug$GT$3fmt17h78e8e914ac815482E
00000000 l    d  .text._ZN52_$LT$$BP$const$u20$T$u20$as$u20$core..fmt..Debug$GT$3fmt17h74205a9a831ae0aaE	00000000 .text._ZN52_$LT$$BP$const$u20$T$u20$as$u20$core..fmt..Debug$GT$3fmt17h74205a9a831ae0aaE
00000000 l    d  .text._ZN52_$LT$$BP$const$u20$T$u20$as$u20$core..fmt..Debug$GT$3fmt17hd9a2fbb77067ecdcE	00000000 .text._ZN52_$LT$$BP$const$u20$T$u20$as$u20$core..fmt..Debug$GT$3fmt17hd9a2fbb77067ecdcE
00000000 l    d  .text._ZN52_$LT$$BP$mut$u20$T$u20$as$u20$core..fmt..Pointer$GT$3fmt17hdb9ce0f2a2cb66c8E	00000000 .text._ZN52_$LT$$BP$mut$u20$T$u20$as$u20$core..fmt..Pointer$GT$3fmt17hdb9ce0f2a2cb66c8E
00000000 l    d  .text._ZN52_$LT$$BP$mut$u20$T$u20$as$u20$core..fmt..Pointer$GT$3fmt17hf16b89b108565f3dE	00000000 .text._ZN52_$LT$$BP$mut$u20$T$u20$as$u20$core..fmt..Pointer$GT$3fmt17hf16b89b108565f3dE
00000000 l    d  .text._ZN54_$LT$$BP$const$u20$T$u20$as$u20$core..fmt..Pointer$GT$3fmt17h037cdabdaf3b9a74E	00000000 .text._ZN54_$LT$$BP$const$u20$T$u20$as$u20$core..fmt..Pointer$GT$3fmt17h037cdabdaf3b9a74E
00000000 l    d  .text._ZN54_$LT$$BP$const$u20$T$u20$as$u20$core..fmt..Pointer$GT$3fmt17h89f86cb41e4cb0a0E	00000000 .text._ZN54_$LT$$BP$const$u20$T$u20$as$u20$core..fmt..Pointer$GT$3fmt17h89f86cb41e4cb0a0E
00000000 l    d  .text._ZN54_$LT$$BP$const$u20$T$u20$as$u20$core..fmt..Pointer$GT$3fmt17ha14ea2bff71abe9bE	00000000 .text._ZN54_$LT$$BP$const$u20$T$u20$as$u20$core..fmt..Pointer$GT$3fmt17ha14ea2bff71abe9bE
00000000 l    d  .text._ZN54_$LT$$BP$const$u20$T$u20$as$u20$core..fmt..Pointer$GT$3fmt17he0d6d5453dd79ba4E	00000000 .text._ZN54_$LT$$BP$const$u20$T$u20$as$u20$core..fmt..Pointer$GT$3fmt17he0d6d5453dd79ba4E
00000000 l    d  .debug_abbrev	00000000 .debug_abbrev
00000000 l    d  .debug_info	00000000 .debug_info
00000000 l    d  .debug_ranges	00000000 .debug_ranges
00000000 l    d  .debug_frame	00000000 .debug_frame
00000000 l    d  .debug_line	00000000 .debug_line
00000000 g     F .text._ZN42_$LT$$RF$T$u20$as$u20$core..fmt..Debug$GT$3fmt17h6cb858c1b33e980aE	00000028 _ZN42_$LT$$RF$T$u20$as$u20$core..fmt..Debug$GT$3fmt17h6cb858c1b33e980aE
00000000 g     F .text._ZN42_$LT$$RF$T$u20$as$u20$core..fmt..Debug$GT$3fmt17h840f656d40ad194eE	00000028 _ZN42_$LT$$RF$T$u20$as$u20$core..fmt..Debug$GT$3fmt17h840f656d40ad194eE
00000000 g     F .text._ZN42_$LT$$RF$T$u20$as$u20$core..fmt..Debug$GT$3fmt17ha62b54af37adecf0E	00000028 _ZN42_$LT$$RF$T$u20$as$u20$core..fmt..Debug$GT$3fmt17ha62b54af37adecf0E
00000000 g     F .text._ZN42_$LT$$RF$T$u20$as$u20$core..fmt..Debug$GT$3fmt17hf37e8052479de84cE	00000028 _ZN42_$LT$$RF$T$u20$as$u20$core..fmt..Debug$GT$3fmt17hf37e8052479de84cE
00000000         *UND*	00000000 _ZN4core3fmt3num55_$LT$impl$u20$core..fmt..LowerHex$u20$for$u20$usize$GT$3fmt17h562f60f4fbcc2e1dE
00000000         *UND*	00000000 _ZN4core3fmt9Formatter9alternate17hd09f58cee14df2eeE
00000000         *UND*	00000000 _ZN4core3mem7size_of17h033cda7c0b223844E
00000000 g     F .text._ZN50_$LT$$BP$mut$u20$T$u20$as$u20$core..fmt..Debug$GT$3fmt17h2eed44fb05b85061E	00000026 _ZN50_$LT$$BP$mut$u20$T$u20$as$u20$core..fmt..Debug$GT$3fmt17h2eed44fb05b85061E
00000000 g     F .text._ZN50_$LT$$BP$mut$u20$T$u20$as$u20$core..fmt..Debug$GT$3fmt17h78e8e914ac815482E	00000026 _ZN50_$LT$$BP$mut$u20$T$u20$as$u20$core..fmt..Debug$GT$3fmt17h78e8e914ac815482E
00000000 g     F .text._ZN52_$LT$$BP$const$u20$T$u20$as$u20$core..fmt..Debug$GT$3fmt17h74205a9a831ae0aaE	00000026 _ZN52_$LT$$BP$const$u20$T$u20$as$u20$core..fmt..Debug$GT$3fmt17h74205a9a831ae0aaE
00000000 g     F .text._ZN52_$LT$$BP$const$u20$T$u20$as$u20$core..fmt..Debug$GT$3fmt17hd9a2fbb77067ecdcE	00000026 _ZN52_$LT$$BP$const$u20$T$u20$as$u20$core..fmt..Debug$GT$3fmt17hd9a2fbb77067ecdcE
00000000 g     F .text._ZN52_$LT$$BP$mut$u20$T$u20$as$u20$core..fmt..Pointer$GT$3fmt17hdb9ce0f2a2cb66c8E	0000002c _ZN52_$LT$$BP$mut$u20$T$u20$as$u20$core..fmt..Pointer$GT$3fmt17hdb9ce0f2a2cb66c8E
00000000 g     F .text._ZN52_$LT$$BP$mut$u20$T$u20$as$u20$core..fmt..Pointer$GT$3fmt17hf16b89b108565f3dE	0000002c _ZN52_$LT$$BP$mut$u20$T$u20$as$u20$core..fmt..Pointer$GT$3fmt17hf16b89b108565f3dE
00000000 g     F .text._ZN54_$LT$$BP$const$u20$T$u20$as$u20$core..fmt..Pointer$GT$3fmt17h037cdabdaf3b9a74E	000000a2 _ZN54_$LT$$BP$const$u20$T$u20$as$u20$core..fmt..Pointer$GT$3fmt17h037cdabdaf3b9a74E
00000000 g     F .text._ZN54_$LT$$BP$const$u20$T$u20$as$u20$core..fmt..Pointer$GT$3fmt17h89f86cb41e4cb0a0E	000000a2 _ZN54_$LT$$BP$const$u20$T$u20$as$u20$core..fmt..Pointer$GT$3fmt17h89f86cb41e4cb0a0E
00000000 g     F .text._ZN54_$LT$$BP$const$u20$T$u20$as$u20$core..fmt..Pointer$GT$3fmt17ha14ea2bff71abe9bE	000000a2 _ZN54_$LT$$BP$const$u20$T$u20$as$u20$core..fmt..Pointer$GT$3fmt17ha14ea2bff71abe9bE
00000000 g     F .text._ZN54_$LT$$BP$const$u20$T$u20$as$u20$core..fmt..Pointer$GT$3fmt17he0d6d5453dd79ba4E	000000a2 _ZN54_$LT$$BP$const$u20$T$u20$as$u20$core..fmt..Pointer$GT$3fmt17he0d6d5453dd79ba4E



Disassembly of section .text._ZN42_$LT$$RF$T$u20$as$u20$core..fmt..Debug$GT$3fmt17h6cb858c1b33e980aE:

00000000 <_ZN42_$LT$$RF$T$u20$as$u20$core..fmt..Debug$GT$3fmt17h6cb858c1b33e980aE>:
_ZN42_$LT$$RF$T$u20$as$u20$core..fmt..Debug$GT$3fmt17h6cb858c1b33e980aE():
/rustc/50a0defd5a93523067ef239936cc2e0755220904/src/libcore/fmt/mod.rs:1914
   0:	b580      	push	{r7, lr}
   2:	b086      	sub	sp, #24
   4:	460a      	mov	r2, r1
   6:	4603      	mov	r3, r0
   8:	9004      	str	r0, [sp, #16]
   a:	9105      	str	r1, [sp, #20]
   c:	9804      	ldr	r0, [sp, #16]
   e:	6800      	ldr	r0, [r0, #0]
  10:	9905      	ldr	r1, [sp, #20]
  12:	9203      	str	r2, [sp, #12]
  14:	9302      	str	r3, [sp, #8]
  16:	f7ff fffe 	bl	0 <_ZN42_$LT$$RF$T$u20$as$u20$core..fmt..Debug$GT$3fmt17h6cb858c1b33e980aE>
  1a:	9001      	str	r0, [sp, #4]
  1c:	e7ff      	b.n	1e <_ZN42_$LT$$RF$T$u20$as$u20$core..fmt..Debug$GT$3fmt17h6cb858c1b33e980aE+0x1e>
  1e:	9801      	ldr	r0, [sp, #4]
  20:	f000 0001 	and.w	r0, r0, #1
  24:	b006      	add	sp, #24
  26:	bd80      	pop	{r7, pc}

Disassembly of section .text._ZN42_$LT$$RF$T$u20$as$u20$core..fmt..Debug$GT$3fmt17h840f656d40ad194eE:

00000000 <_ZN42_$LT$$RF$T$u20$as$u20$core..fmt..Debug$GT$3fmt17h840f656d40ad194eE>:
_ZN42_$LT$$RF$T$u20$as$u20$core..fmt..Debug$GT$3fmt17h840f656d40ad194eE():
/rustc/50a0defd5a93523067ef239936cc2e0755220904/src/libcore/fmt/mod.rs:1914
   0:	b580      	push	{r7, lr}
   2:	b086      	sub	sp, #24
   4:	460a      	mov	r2, r1
   6:	4603      	mov	r3, r0
   8:	9004      	str	r0, [sp, #16]
   a:	9105      	str	r1, [sp, #20]
   c:	9804      	ldr	r0, [sp, #16]
   e:	6800      	ldr	r0, [r0, #0]
  10:	9905      	ldr	r1, [sp, #20]
  12:	9203      	str	r2, [sp, #12]
  14:	9302      	str	r3, [sp, #8]
  16:	f7ff fffe 	bl	0 <_ZN42_$LT$$RF$T$u20$as$u20$core..fmt..Debug$GT$3fmt17h840f656d40ad194eE>
  1a:	9001      	str	r0, [sp, #4]
  1c:	e7ff      	b.n	1e <_ZN42_$LT$$RF$T$u20$as$u20$core..fmt..Debug$GT$3fmt17h840f656d40ad194eE+0x1e>
  1e:	9801      	ldr	r0, [sp, #4]
  20:	f000 0001 	and.w	r0, r0, #1
  24:	b006      	add	sp, #24
  26:	bd80      	pop	{r7, pc}

Disassembly of section .text._ZN42_$LT$$RF$T$u20$as$u20$core..fmt..Debug$GT$3fmt17ha62b54af37adecf0E:

00000000 <_ZN42_$LT$$RF$T$u20$as$u20$core..fmt..Debug$GT$3fmt17ha62b54af37adecf0E>:
_ZN42_$LT$$RF$T$u20$as$u20$core..fmt..Debug$GT$3fmt17ha62b54af37adecf0E():
/rustc/50a0defd5a93523067ef239936cc2e0755220904/src/libcore/fmt/mod.rs:1914
   0:	b580      	push	{r7, lr}
   2:	b086      	sub	sp, #24
   4:	460a      	mov	r2, r1
   6:	4603      	mov	r3, r0
   8:	9004      	str	r0, [sp, #16]
   a:	9105      	str	r1, [sp, #20]
   c:	9804      	ldr	r0, [sp, #16]
   e:	6800      	ldr	r0, [r0, #0]
  10:	9905      	ldr	r1, [sp, #20]
  12:	9203      	str	r2, [sp, #12]
  14:	9302      	str	r3, [sp, #8]
  16:	f7ff fffe 	bl	0 <_ZN42_$LT$$RF$T$u20$as$u20$core..fmt..Debug$GT$3fmt17ha62b54af37adecf0E>
  1a:	9001      	str	r0, [sp, #4]
  1c:	e7ff      	b.n	1e <_ZN42_$LT$$RF$T$u20$as$u20$core..fmt..Debug$GT$3fmt17ha62b54af37adecf0E+0x1e>
  1e:	9801      	ldr	r0, [sp, #4]
  20:	f000 0001 	and.w	r0, r0, #1
  24:	b006      	add	sp, #24
  26:	bd80      	pop	{r7, pc}

Disassembly of section .text._ZN42_$LT$$RF$T$u20$as$u20$core..fmt..Debug$GT$3fmt17hf37e8052479de84cE:

00000000 <_ZN42_$LT$$RF$T$u20$as$u20$core..fmt..Debug$GT$3fmt17hf37e8052479de84cE>:
_ZN42_$LT$$RF$T$u20$as$u20$core..fmt..Debug$GT$3fmt17hf37e8052479de84cE():
/rustc/50a0defd5a93523067ef239936cc2e0755220904/src/libcore/fmt/mod.rs:1914
   0:	b580      	push	{r7, lr}
   2:	b086      	sub	sp, #24
   4:	460a      	mov	r2, r1
   6:	4603      	mov	r3, r0
   8:	9004      	str	r0, [sp, #16]
   a:	9105      	str	r1, [sp, #20]
   c:	9804      	ldr	r0, [sp, #16]
   e:	6800      	ldr	r0, [r0, #0]
  10:	9905      	ldr	r1, [sp, #20]
  12:	9203      	str	r2, [sp, #12]
  14:	9302      	str	r3, [sp, #8]
  16:	f7ff fffe 	bl	0 <_ZN42_$LT$$RF$T$u20$as$u20$core..fmt..Debug$GT$3fmt17hf37e8052479de84cE>
  1a:	9001      	str	r0, [sp, #4]
  1c:	e7ff      	b.n	1e <_ZN42_$LT$$RF$T$u20$as$u20$core..fmt..Debug$GT$3fmt17hf37e8052479de84cE+0x1e>
  1e:	9801      	ldr	r0, [sp, #4]
  20:	f000 0001 	and.w	r0, r0, #1
  24:	b006      	add	sp, #24
  26:	bd80      	pop	{r7, pc}

Disassembly of section .text._ZN50_$LT$$BP$mut$u20$T$u20$as$u20$core..fmt..Debug$GT$3fmt17h2eed44fb05b85061E:

00000000 <_ZN50_$LT$$BP$mut$u20$T$u20$as$u20$core..fmt..Debug$GT$3fmt17h2eed44fb05b85061E>:
_ZN50_$LT$$BP$mut$u20$T$u20$as$u20$core..fmt..Debug$GT$3fmt17h2eed44fb05b85061E():
/rustc/50a0defd5a93523067ef239936cc2e0755220904/src/libcore/fmt/mod.rs:2062
   0:	b580      	push	{r7, lr}
   2:	b086      	sub	sp, #24
   4:	460a      	mov	r2, r1
   6:	4603      	mov	r3, r0
   8:	9004      	str	r0, [sp, #16]
   a:	9105      	str	r1, [sp, #20]
   c:	9804      	ldr	r0, [sp, #16]
   e:	9905      	ldr	r1, [sp, #20]
  10:	9203      	str	r2, [sp, #12]
  12:	9302      	str	r3, [sp, #8]
  14:	f7ff fffe 	bl	0 <_ZN50_$LT$$BP$mut$u20$T$u20$as$u20$core..fmt..Debug$GT$3fmt17h2eed44fb05b85061E>
  18:	9001      	str	r0, [sp, #4]
  1a:	e7ff      	b.n	1c <_ZN50_$LT$$BP$mut$u20$T$u20$as$u20$core..fmt..Debug$GT$3fmt17h2eed44fb05b85061E+0x1c>
  1c:	9801      	ldr	r0, [sp, #4]
  1e:	f000 0001 	and.w	r0, r0, #1
  22:	b006      	add	sp, #24
  24:	bd80      	pop	{r7, pc}

Disassembly of section .text._ZN50_$LT$$BP$mut$u20$T$u20$as$u20$core..fmt..Debug$GT$3fmt17h78e8e914ac815482E:

00000000 <_ZN50_$LT$$BP$mut$u20$T$u20$as$u20$core..fmt..Debug$GT$3fmt17h78e8e914ac815482E>:
_ZN50_$LT$$BP$mut$u20$T$u20$as$u20$core..fmt..Debug$GT$3fmt17h78e8e914ac815482E():
/rustc/50a0defd5a93523067ef239936cc2e0755220904/src/libcore/fmt/mod.rs:2062
   0:	b580      	push	{r7, lr}
   2:	b086      	sub	sp, #24
   4:	460a      	mov	r2, r1
   6:	4603      	mov	r3, r0
   8:	9004      	str	r0, [sp, #16]
   a:	9105      	str	r1, [sp, #20]
   c:	9804      	ldr	r0, [sp, #16]
   e:	9905      	ldr	r1, [sp, #20]
  10:	9203      	str	r2, [sp, #12]
  12:	9302      	str	r3, [sp, #8]
  14:	f7ff fffe 	bl	0 <_ZN50_$LT$$BP$mut$u20$T$u20$as$u20$core..fmt..Debug$GT$3fmt17h78e8e914ac815482E>
  18:	9001      	str	r0, [sp, #4]
  1a:	e7ff      	b.n	1c <_ZN50_$LT$$BP$mut$u20$T$u20$as$u20$core..fmt..Debug$GT$3fmt17h78e8e914ac815482E+0x1c>
  1c:	9801      	ldr	r0, [sp, #4]
  1e:	f000 0001 	and.w	r0, r0, #1
  22:	b006      	add	sp, #24
  24:	bd80      	pop	{r7, pc}

Disassembly of section .text._ZN52_$LT$$BP$const$u20$T$u20$as$u20$core..fmt..Debug$GT$3fmt17h74205a9a831ae0aaE:

00000000 <_ZN52_$LT$$BP$const$u20$T$u20$as$u20$core..fmt..Debug$GT$3fmt17h74205a9a831ae0aaE>:
_ZN52_$LT$$BP$const$u20$T$u20$as$u20$core..fmt..Debug$GT$3fmt17h74205a9a831ae0aaE():
/rustc/50a0defd5a93523067ef239936cc2e0755220904/src/libcore/fmt/mod.rs:2058
   0:	b580      	push	{r7, lr}
   2:	b086      	sub	sp, #24
   4:	460a      	mov	r2, r1
   6:	4603      	mov	r3, r0
   8:	9004      	str	r0, [sp, #16]
   a:	9105      	str	r1, [sp, #20]
   c:	9804      	ldr	r0, [sp, #16]
   e:	9905      	ldr	r1, [sp, #20]
  10:	9203      	str	r2, [sp, #12]
  12:	9302      	str	r3, [sp, #8]
  14:	f7ff fffe 	bl	0 <_ZN52_$LT$$BP$const$u20$T$u20$as$u20$core..fmt..Debug$GT$3fmt17h74205a9a831ae0aaE>
  18:	9001      	str	r0, [sp, #4]
  1a:	e7ff      	b.n	1c <_ZN52_$LT$$BP$const$u20$T$u20$as$u20$core..fmt..Debug$GT$3fmt17h74205a9a831ae0aaE+0x1c>
  1c:	9801      	ldr	r0, [sp, #4]
  1e:	f000 0001 	and.w	r0, r0, #1
  22:	b006      	add	sp, #24
  24:	bd80      	pop	{r7, pc}

Disassembly of section .text._ZN52_$LT$$BP$const$u20$T$u20$as$u20$core..fmt..Debug$GT$3fmt17hd9a2fbb77067ecdcE:

00000000 <_ZN52_$LT$$BP$const$u20$T$u20$as$u20$core..fmt..Debug$GT$3fmt17hd9a2fbb77067ecdcE>:
_ZN52_$LT$$BP$const$u20$T$u20$as$u20$core..fmt..Debug$GT$3fmt17hd9a2fbb77067ecdcE():
/rustc/50a0defd5a93523067ef239936cc2e0755220904/src/libcore/fmt/mod.rs:2058
   0:	b580      	push	{r7, lr}
   2:	b086      	sub	sp, #24
   4:	460a      	mov	r2, r1
   6:	4603      	mov	r3, r0
   8:	9004      	str	r0, [sp, #16]
   a:	9105      	str	r1, [sp, #20]
   c:	9804      	ldr	r0, [sp, #16]
   e:	9905      	ldr	r1, [sp, #20]
  10:	9203      	str	r2, [sp, #12]
  12:	9302      	str	r3, [sp, #8]
  14:	f7ff fffe 	bl	0 <_ZN52_$LT$$BP$const$u20$T$u20$as$u20$core..fmt..Debug$GT$3fmt17hd9a2fbb77067ecdcE>
  18:	9001      	str	r0, [sp, #4]
  1a:	e7ff      	b.n	1c <_ZN52_$LT$$BP$const$u20$T$u20$as$u20$core..fmt..Debug$GT$3fmt17hd9a2fbb77067ecdcE+0x1c>
  1c:	9801      	ldr	r0, [sp, #4]
  1e:	f000 0001 	and.w	r0, r0, #1
  22:	b006      	add	sp, #24
  24:	bd80      	pop	{r7, pc}

Disassembly of section .text._ZN52_$LT$$BP$mut$u20$T$u20$as$u20$core..fmt..Pointer$GT$3fmt17hdb9ce0f2a2cb66c8E:

00000000 <_ZN52_$LT$$BP$mut$u20$T$u20$as$u20$core..fmt..Pointer$GT$3fmt17hdb9ce0f2a2cb66c8E>:
_ZN52_$LT$$BP$mut$u20$T$u20$as$u20$core..fmt..Pointer$GT$3fmt17hdb9ce0f2a2cb66c8E():
/rustc/50a0defd5a93523067ef239936cc2e0755220904/src/libcore/fmt/mod.rs:2035
   0:	b580      	push	{r7, lr}
   2:	b086      	sub	sp, #24
   4:	460a      	mov	r2, r1
   6:	4603      	mov	r3, r0
   8:	9003      	str	r0, [sp, #12]
   a:	9104      	str	r1, [sp, #16]
/rustc/50a0defd5a93523067ef239936cc2e0755220904/src/libcore/fmt/mod.rs:2036
   c:	9803      	ldr	r0, [sp, #12]
   e:	6800      	ldr	r0, [r0, #0]
  10:	9005      	str	r0, [sp, #20]
  12:	9904      	ldr	r1, [sp, #16]
  14:	a805      	add	r0, sp, #20
  16:	9202      	str	r2, [sp, #8]
  18:	9301      	str	r3, [sp, #4]
  1a:	f7ff fffe 	bl	0 <_ZN52_$LT$$BP$mut$u20$T$u20$as$u20$core..fmt..Pointer$GT$3fmt17hdb9ce0f2a2cb66c8E>
  1e:	9000      	str	r0, [sp, #0]
  20:	e7ff      	b.n	22 <_ZN52_$LT$$BP$mut$u20$T$u20$as$u20$core..fmt..Pointer$GT$3fmt17hdb9ce0f2a2cb66c8E+0x22>
/rustc/50a0defd5a93523067ef239936cc2e0755220904/src/libcore/fmt/mod.rs:2037
  22:	9800      	ldr	r0, [sp, #0]
  24:	f000 0001 	and.w	r0, r0, #1
  28:	b006      	add	sp, #24
  2a:	bd80      	pop	{r7, pc}

Disassembly of section .text._ZN52_$LT$$BP$mut$u20$T$u20$as$u20$core..fmt..Pointer$GT$3fmt17hf16b89b108565f3dE:

00000000 <_ZN52_$LT$$BP$mut$u20$T$u20$as$u20$core..fmt..Pointer$GT$3fmt17hf16b89b108565f3dE>:
_ZN52_$LT$$BP$mut$u20$T$u20$as$u20$core..fmt..Pointer$GT$3fmt17hf16b89b108565f3dE():
/rustc/50a0defd5a93523067ef239936cc2e0755220904/src/libcore/fmt/mod.rs:2035
   0:	b580      	push	{r7, lr}
   2:	b086      	sub	sp, #24
   4:	460a      	mov	r2, r1
   6:	4603      	mov	r3, r0
   8:	9003      	str	r0, [sp, #12]
   a:	9104      	str	r1, [sp, #16]
/rustc/50a0defd5a93523067ef239936cc2e0755220904/src/libcore/fmt/mod.rs:2036
   c:	9803      	ldr	r0, [sp, #12]
   e:	6800      	ldr	r0, [r0, #0]
  10:	9005      	str	r0, [sp, #20]
  12:	9904      	ldr	r1, [sp, #16]
  14:	a805      	add	r0, sp, #20
  16:	9202      	str	r2, [sp, #8]
  18:	9301      	str	r3, [sp, #4]
  1a:	f7ff fffe 	bl	0 <_ZN52_$LT$$BP$mut$u20$T$u20$as$u20$core..fmt..Pointer$GT$3fmt17hf16b89b108565f3dE>
  1e:	9000      	str	r0, [sp, #0]
  20:	e7ff      	b.n	22 <_ZN52_$LT$$BP$mut$u20$T$u20$as$u20$core..fmt..Pointer$GT$3fmt17hf16b89b108565f3dE+0x22>
/rustc/50a0defd5a93523067ef239936cc2e0755220904/src/libcore/fmt/mod.rs:2037
  22:	9800      	ldr	r0, [sp, #0]
  24:	f000 0001 	and.w	r0, r0, #1
  28:	b006      	add	sp, #24
  2a:	bd80      	pop	{r7, pc}

Disassembly of section .text._ZN54_$LT$$BP$const$u20$T$u20$as$u20$core..fmt..Pointer$GT$3fmt17h037cdabdaf3b9a74E:

00000000 <_ZN54_$LT$$BP$const$u20$T$u20$as$u20$core..fmt..Pointer$GT$3fmt17h037cdabdaf3b9a74E>:
_ZN54_$LT$$BP$const$u20$T$u20$as$u20$core..fmt..Pointer$GT$3fmt17h037cdabdaf3b9a74E():
/rustc/50a0defd5a93523067ef239936cc2e0755220904/src/libcore/fmt/mod.rs:2007
   0:	b580      	push	{r7, lr}
   2:	b08c      	sub	sp, #48	; 0x30
   4:	460a      	mov	r2, r1
   6:	4603      	mov	r3, r0
   8:	9005      	str	r0, [sp, #20]
   a:	9106      	str	r1, [sp, #24]
/rustc/50a0defd5a93523067ef239936cc2e0755220904/src/libcore/fmt/mod.rs:2008
   c:	9806      	ldr	r0, [sp, #24]
   e:	6881      	ldr	r1, [r0, #8]
  10:	68c0      	ldr	r0, [r0, #12]
  12:	9107      	str	r1, [sp, #28]
  14:	9008      	str	r0, [sp, #32]
/rustc/50a0defd5a93523067ef239936cc2e0755220904/src/libcore/fmt/mod.rs:2009
  16:	9806      	ldr	r0, [sp, #24]
  18:	6800      	ldr	r0, [r0, #0]
  1a:	9009      	str	r0, [sp, #36]	; 0x24
/rustc/50a0defd5a93523067ef239936cc2e0755220904/src/libcore/fmt/mod.rs:2015
  1c:	9806      	ldr	r0, [sp, #24]
  1e:	9204      	str	r2, [sp, #16]
  20:	9303      	str	r3, [sp, #12]
  22:	f7ff fffe 	bl	0 <_ZN4core3fmt9Formatter9alternate17hd09f58cee14df2eeE>
  26:	9002      	str	r0, [sp, #8]
  28:	e7ff      	b.n	2a <_ZN54_$LT$$BP$const$u20$T$u20$as$u20$core..fmt..Pointer$GT$3fmt17h037cdabdaf3b9a74E+0x2a>
  2a:	9802      	ldr	r0, [sp, #8]
  2c:	07c1      	lsls	r1, r0, #31
  2e:	2900      	cmp	r1, #0
  30:	d01c      	beq.n	6c <_ZN54_$LT$$BP$const$u20$T$u20$as$u20$core..fmt..Pointer$GT$3fmt17h037cdabdaf3b9a74E+0x6c>
  32:	e7ff      	b.n	34 <_ZN54_$LT$$BP$const$u20$T$u20$as$u20$core..fmt..Pointer$GT$3fmt17h037cdabdaf3b9a74E+0x34>
/rustc/50a0defd5a93523067ef239936cc2e0755220904/src/libcore/fmt/mod.rs:2016
  34:	9806      	ldr	r0, [sp, #24]
  36:	6801      	ldr	r1, [r0, #0]
  38:	f041 0108 	orr.w	r1, r1, #8
  3c:	6001      	str	r1, [r0, #0]
/rustc/50a0defd5a93523067ef239936cc2e0755220904/src/libcore/fmt/mod.rs:2018
  3e:	9806      	ldr	r0, [sp, #24]
  40:	6880      	ldr	r0, [r0, #8]
  42:	2800      	cmp	r0, #0
  44:	d112      	bne.n	6c <_ZN54_$LT$$BP$const$u20$T$u20$as$u20$core..fmt..Pointer$GT$3fmt17h037cdabdaf3b9a74E+0x6c>
  46:	e7ff      	b.n	48 <_ZN54_$LT$$BP$const$u20$T$u20$as$u20$core..fmt..Pointer$GT$3fmt17h037cdabdaf3b9a74E+0x48>
/rustc/50a0defd5a93523067ef239936cc2e0755220904/src/libcore/fmt/mod.rs:2019
  48:	f7ff fffe 	bl	0 <_ZN4core3mem7size_of17h033cda7c0b223844E>
  4c:	9001      	str	r0, [sp, #4]
  4e:	e7ff      	b.n	50 <_ZN54_$LT$$BP$const$u20$T$u20$as$u20$core..fmt..Pointer$GT$3fmt17h037cdabdaf3b9a74E+0x50>
  50:	9801      	ldr	r0, [sp, #4]
  52:	00c1      	lsls	r1, r0, #3
  54:	9100      	str	r1, [sp, #0]
  56:	e7ff      	b.n	58 <_ZN54_$LT$$BP$const$u20$T$u20$as$u20$core..fmt..Pointer$GT$3fmt17h037cdabdaf3b9a74E+0x58>
  58:	2002      	movs	r0, #2
  5a:	9900      	ldr	r1, [sp, #0]
  5c:	eb00 0091 	add.w	r0, r0, r1, lsr #2
  60:	9a06      	ldr	r2, [sp, #24]
  62:	60d0      	str	r0, [r2, #12]
  64:	9806      	ldr	r0, [sp, #24]
  66:	2201      	movs	r2, #1
  68:	6082      	str	r2, [r0, #8]
/rustc/50a0defd5a93523067ef239936cc2e0755220904/src/libcore/fmt/mod.rs:2018
  6a:	e7ff      	b.n	6c <_ZN54_$LT$$BP$const$u20$T$u20$as$u20$core..fmt..Pointer$GT$3fmt17h037cdabdaf3b9a74E+0x6c>
/rustc/50a0defd5a93523067ef239936cc2e0755220904/src/libcore/fmt/mod.rs:2022
  6c:	9806      	ldr	r0, [sp, #24]
  6e:	6801      	ldr	r1, [r0, #0]
  70:	f041 0104 	orr.w	r1, r1, #4
  74:	6001      	str	r1, [r0, #0]
/rustc/50a0defd5a93523067ef239936cc2e0755220904/src/libcore/fmt/mod.rs:2024
  76:	9805      	ldr	r0, [sp, #20]
  78:	6800      	ldr	r0, [r0, #0]
  7a:	900b      	str	r0, [sp, #44]	; 0x2c
  7c:	9906      	ldr	r1, [sp, #24]
  7e:	a80b      	add	r0, sp, #44	; 0x2c
  80:	f7ff fffe 	bl	0 <_ZN4core3fmt3num55_$LT$impl$u20$core..fmt..LowerHex$u20$for$u20$usize$GT$3fmt17h562f60f4fbcc2e1dE>
  84:	f88d 002b 	strb.w	r0, [sp, #43]	; 0x2b
  88:	e7ff      	b.n	8a <_ZN54_$LT$$BP$const$u20$T$u20$as$u20$core..fmt..Pointer$GT$3fmt17h037cdabdaf3b9a74E+0x8a>
/rustc/50a0defd5a93523067ef239936cc2e0755220904/src/libcore/fmt/mod.rs:2026
  8a:	9807      	ldr	r0, [sp, #28]
  8c:	9908      	ldr	r1, [sp, #32]
  8e:	9a06      	ldr	r2, [sp, #24]
  90:	6090      	str	r0, [r2, #8]
  92:	60d1      	str	r1, [r2, #12]
/rustc/50a0defd5a93523067ef239936cc2e0755220904/src/libcore/fmt/mod.rs:2027
  94:	9809      	ldr	r0, [sp, #36]	; 0x24
  96:	9906      	ldr	r1, [sp, #24]
  98:	6008      	str	r0, [r1, #0]
/rustc/50a0defd5a93523067ef239936cc2e0755220904/src/libcore/fmt/mod.rs:2029
  9a:	f89d 002b 	ldrb.w	r0, [sp, #43]	; 0x2b
/rustc/50a0defd5a93523067ef239936cc2e0755220904/src/libcore/fmt/mod.rs:2030
  9e:	b00c      	add	sp, #48	; 0x30
  a0:	bd80      	pop	{r7, pc}

Disassembly of section .text._ZN54_$LT$$BP$const$u20$T$u20$as$u20$core..fmt..Pointer$GT$3fmt17h89f86cb41e4cb0a0E:

00000000 <_ZN54_$LT$$BP$const$u20$T$u20$as$u20$core..fmt..Pointer$GT$3fmt17h89f86cb41e4cb0a0E>:
_ZN54_$LT$$BP$const$u20$T$u20$as$u20$core..fmt..Pointer$GT$3fmt17h89f86cb41e4cb0a0E():
/rustc/50a0defd5a93523067ef239936cc2e0755220904/src/libcore/fmt/mod.rs:2007
   0:	b580      	push	{r7, lr}
   2:	b08c      	sub	sp, #48	; 0x30
   4:	460a      	mov	r2, r1
   6:	4603      	mov	r3, r0
   8:	9005      	str	r0, [sp, #20]
   a:	9106      	str	r1, [sp, #24]
/rustc/50a0defd5a93523067ef239936cc2e0755220904/src/libcore/fmt/mod.rs:2008
   c:	9806      	ldr	r0, [sp, #24]
   e:	6881      	ldr	r1, [r0, #8]
  10:	68c0      	ldr	r0, [r0, #12]
  12:	9107      	str	r1, [sp, #28]
  14:	9008      	str	r0, [sp, #32]
/rustc/50a0defd5a93523067ef239936cc2e0755220904/src/libcore/fmt/mod.rs:2009
  16:	9806      	ldr	r0, [sp, #24]
  18:	6800      	ldr	r0, [r0, #0]
  1a:	9009      	str	r0, [sp, #36]	; 0x24
/rustc/50a0defd5a93523067ef239936cc2e0755220904/src/libcore/fmt/mod.rs:2015
  1c:	9806      	ldr	r0, [sp, #24]
  1e:	9204      	str	r2, [sp, #16]
  20:	9303      	str	r3, [sp, #12]
  22:	f7ff fffe 	bl	0 <_ZN4core3fmt9Formatter9alternate17hd09f58cee14df2eeE>
  26:	9002      	str	r0, [sp, #8]
  28:	e7ff      	b.n	2a <_ZN54_$LT$$BP$const$u20$T$u20$as$u20$core..fmt..Pointer$GT$3fmt17h89f86cb41e4cb0a0E+0x2a>
  2a:	9802      	ldr	r0, [sp, #8]
  2c:	07c1      	lsls	r1, r0, #31
  2e:	2900      	cmp	r1, #0
  30:	d01c      	beq.n	6c <_ZN54_$LT$$BP$const$u20$T$u20$as$u20$core..fmt..Pointer$GT$3fmt17h89f86cb41e4cb0a0E+0x6c>
  32:	e7ff      	b.n	34 <_ZN54_$LT$$BP$const$u20$T$u20$as$u20$core..fmt..Pointer$GT$3fmt17h89f86cb41e4cb0a0E+0x34>
/rustc/50a0defd5a93523067ef239936cc2e0755220904/src/libcore/fmt/mod.rs:2016
  34:	9806      	ldr	r0, [sp, #24]
  36:	6801      	ldr	r1, [r0, #0]
  38:	f041 0108 	orr.w	r1, r1, #8
  3c:	6001      	str	r1, [r0, #0]
/rustc/50a0defd5a93523067ef239936cc2e0755220904/src/libcore/fmt/mod.rs:2018
  3e:	9806      	ldr	r0, [sp, #24]
  40:	6880      	ldr	r0, [r0, #8]
  42:	2800      	cmp	r0, #0
  44:	d112      	bne.n	6c <_ZN54_$LT$$BP$const$u20$T$u20$as$u20$core..fmt..Pointer$GT$3fmt17h89f86cb41e4cb0a0E+0x6c>
  46:	e7ff      	b.n	48 <_ZN54_$LT$$BP$const$u20$T$u20$as$u20$core..fmt..Pointer$GT$3fmt17h89f86cb41e4cb0a0E+0x48>
/rustc/50a0defd5a93523067ef239936cc2e0755220904/src/libcore/fmt/mod.rs:2019
  48:	f7ff fffe 	bl	0 <_ZN4core3mem7size_of17h033cda7c0b223844E>
  4c:	9001      	str	r0, [sp, #4]
  4e:	e7ff      	b.n	50 <_ZN54_$LT$$BP$const$u20$T$u20$as$u20$core..fmt..Pointer$GT$3fmt17h89f86cb41e4cb0a0E+0x50>
  50:	9801      	ldr	r0, [sp, #4]
  52:	00c1      	lsls	r1, r0, #3
  54:	9100      	str	r1, [sp, #0]
  56:	e7ff      	b.n	58 <_ZN54_$LT$$BP$const$u20$T$u20$as$u20$core..fmt..Pointer$GT$3fmt17h89f86cb41e4cb0a0E+0x58>
  58:	2002      	movs	r0, #2
  5a:	9900      	ldr	r1, [sp, #0]
  5c:	eb00 0091 	add.w	r0, r0, r1, lsr #2
  60:	9a06      	ldr	r2, [sp, #24]
  62:	60d0      	str	r0, [r2, #12]
  64:	9806      	ldr	r0, [sp, #24]
  66:	2201      	movs	r2, #1
  68:	6082      	str	r2, [r0, #8]
/rustc/50a0defd5a93523067ef239936cc2e0755220904/src/libcore/fmt/mod.rs:2018
  6a:	e7ff      	b.n	6c <_ZN54_$LT$$BP$const$u20$T$u20$as$u20$core..fmt..Pointer$GT$3fmt17h89f86cb41e4cb0a0E+0x6c>
/rustc/50a0defd5a93523067ef239936cc2e0755220904/src/libcore/fmt/mod.rs:2022
  6c:	9806      	ldr	r0, [sp, #24]
  6e:	6801      	ldr	r1, [r0, #0]
  70:	f041 0104 	orr.w	r1, r1, #4
  74:	6001      	str	r1, [r0, #0]
/rustc/50a0defd5a93523067ef239936cc2e0755220904/src/libcore/fmt/mod.rs:2024
  76:	9805      	ldr	r0, [sp, #20]
  78:	6800      	ldr	r0, [r0, #0]
  7a:	900b      	str	r0, [sp, #44]	; 0x2c
  7c:	9906      	ldr	r1, [sp, #24]
  7e:	a80b      	add	r0, sp, #44	; 0x2c
  80:	f7ff fffe 	bl	0 <_ZN4core3fmt3num55_$LT$impl$u20$core..fmt..LowerHex$u20$for$u20$usize$GT$3fmt17h562f60f4fbcc2e1dE>
  84:	f88d 002b 	strb.w	r0, [sp, #43]	; 0x2b
  88:	e7ff      	b.n	8a <_ZN54_$LT$$BP$const$u20$T$u20$as$u20$core..fmt..Pointer$GT$3fmt17h89f86cb41e4cb0a0E+0x8a>
/rustc/50a0defd5a93523067ef239936cc2e0755220904/src/libcore/fmt/mod.rs:2026
  8a:	9807      	ldr	r0, [sp, #28]
  8c:	9908      	ldr	r1, [sp, #32]
  8e:	9a06      	ldr	r2, [sp, #24]
  90:	6090      	str	r0, [r2, #8]
  92:	60d1      	str	r1, [r2, #12]
/rustc/50a0defd5a93523067ef239936cc2e0755220904/src/libcore/fmt/mod.rs:2027
  94:	9809      	ldr	r0, [sp, #36]	; 0x24
  96:	9906      	ldr	r1, [sp, #24]
  98:	6008      	str	r0, [r1, #0]
/rustc/50a0defd5a93523067ef239936cc2e0755220904/src/libcore/fmt/mod.rs:2029
  9a:	f89d 002b 	ldrb.w	r0, [sp, #43]	; 0x2b
/rustc/50a0defd5a93523067ef239936cc2e0755220904/src/libcore/fmt/mod.rs:2030
  9e:	b00c      	add	sp, #48	; 0x30
  a0:	bd80      	pop	{r7, pc}

Disassembly of section .text._ZN54_$LT$$BP$const$u20$T$u20$as$u20$core..fmt..Pointer$GT$3fmt17ha14ea2bff71abe9bE:

00000000 <_ZN54_$LT$$BP$const$u20$T$u20$as$u20$core..fmt..Pointer$GT$3fmt17ha14ea2bff71abe9bE>:
_ZN54_$LT$$BP$const$u20$T$u20$as$u20$core..fmt..Pointer$GT$3fmt17ha14ea2bff71abe9bE():
/rustc/50a0defd5a93523067ef239936cc2e0755220904/src/libcore/fmt/mod.rs:2007
   0:	b580      	push	{r7, lr}
   2:	b08c      	sub	sp, #48	; 0x30
   4:	460a      	mov	r2, r1
   6:	4603      	mov	r3, r0
   8:	9005      	str	r0, [sp, #20]
   a:	9106      	str	r1, [sp, #24]
/rustc/50a0defd5a93523067ef239936cc2e0755220904/src/libcore/fmt/mod.rs:2008
   c:	9806      	ldr	r0, [sp, #24]
   e:	6881      	ldr	r1, [r0, #8]
  10:	68c0      	ldr	r0, [r0, #12]
  12:	9107      	str	r1, [sp, #28]
  14:	9008      	str	r0, [sp, #32]
/rustc/50a0defd5a93523067ef239936cc2e0755220904/src/libcore/fmt/mod.rs:2009
  16:	9806      	ldr	r0, [sp, #24]
  18:	6800      	ldr	r0, [r0, #0]
  1a:	9009      	str	r0, [sp, #36]	; 0x24
/rustc/50a0defd5a93523067ef239936cc2e0755220904/src/libcore/fmt/mod.rs:2015
  1c:	9806      	ldr	r0, [sp, #24]
  1e:	9204      	str	r2, [sp, #16]
  20:	9303      	str	r3, [sp, #12]
  22:	f7ff fffe 	bl	0 <_ZN4core3fmt9Formatter9alternate17hd09f58cee14df2eeE>
  26:	9002      	str	r0, [sp, #8]
  28:	e7ff      	b.n	2a <_ZN54_$LT$$BP$const$u20$T$u20$as$u20$core..fmt..Pointer$GT$3fmt17ha14ea2bff71abe9bE+0x2a>
  2a:	9802      	ldr	r0, [sp, #8]
  2c:	07c1      	lsls	r1, r0, #31
  2e:	2900      	cmp	r1, #0
  30:	d01c      	beq.n	6c <_ZN54_$LT$$BP$const$u20$T$u20$as$u20$core..fmt..Pointer$GT$3fmt17ha14ea2bff71abe9bE+0x6c>
  32:	e7ff      	b.n	34 <_ZN54_$LT$$BP$const$u20$T$u20$as$u20$core..fmt..Pointer$GT$3fmt17ha14ea2bff71abe9bE+0x34>
/rustc/50a0defd5a93523067ef239936cc2e0755220904/src/libcore/fmt/mod.rs:2016
  34:	9806      	ldr	r0, [sp, #24]
  36:	6801      	ldr	r1, [r0, #0]
  38:	f041 0108 	orr.w	r1, r1, #8
  3c:	6001      	str	r1, [r0, #0]
/rustc/50a0defd5a93523067ef239936cc2e0755220904/src/libcore/fmt/mod.rs:2018
  3e:	9806      	ldr	r0, [sp, #24]
  40:	6880      	ldr	r0, [r0, #8]
  42:	2800      	cmp	r0, #0
  44:	d112      	bne.n	6c <_ZN54_$LT$$BP$const$u20$T$u20$as$u20$core..fmt..Pointer$GT$3fmt17ha14ea2bff71abe9bE+0x6c>
  46:	e7ff      	b.n	48 <_ZN54_$LT$$BP$const$u20$T$u20$as$u20$core..fmt..Pointer$GT$3fmt17ha14ea2bff71abe9bE+0x48>
/rustc/50a0defd5a93523067ef239936cc2e0755220904/src/libcore/fmt/mod.rs:2019
  48:	f7ff fffe 	bl	0 <_ZN4core3mem7size_of17h033cda7c0b223844E>
  4c:	9001      	str	r0, [sp, #4]
  4e:	e7ff      	b.n	50 <_ZN54_$LT$$BP$const$u20$T$u20$as$u20$core..fmt..Pointer$GT$3fmt17ha14ea2bff71abe9bE+0x50>
  50:	9801      	ldr	r0, [sp, #4]
  52:	00c1      	lsls	r1, r0, #3
  54:	9100      	str	r1, [sp, #0]
  56:	e7ff      	b.n	58 <_ZN54_$LT$$BP$const$u20$T$u20$as$u20$core..fmt..Pointer$GT$3fmt17ha14ea2bff71abe9bE+0x58>
  58:	2002      	movs	r0, #2
  5a:	9900      	ldr	r1, [sp, #0]
  5c:	eb00 0091 	add.w	r0, r0, r1, lsr #2
  60:	9a06      	ldr	r2, [sp, #24]
  62:	60d0      	str	r0, [r2, #12]
  64:	9806      	ldr	r0, [sp, #24]
  66:	2201      	movs	r2, #1
  68:	6082      	str	r2, [r0, #8]
/rustc/50a0defd5a93523067ef239936cc2e0755220904/src/libcore/fmt/mod.rs:2018
  6a:	e7ff      	b.n	6c <_ZN54_$LT$$BP$const$u20$T$u20$as$u20$core..fmt..Pointer$GT$3fmt17ha14ea2bff71abe9bE+0x6c>
/rustc/50a0defd5a93523067ef239936cc2e0755220904/src/libcore/fmt/mod.rs:2022
  6c:	9806      	ldr	r0, [sp, #24]
  6e:	6801      	ldr	r1, [r0, #0]
  70:	f041 0104 	orr.w	r1, r1, #4
  74:	6001      	str	r1, [r0, #0]
/rustc/50a0defd5a93523067ef239936cc2e0755220904/src/libcore/fmt/mod.rs:2024
  76:	9805      	ldr	r0, [sp, #20]
  78:	6800      	ldr	r0, [r0, #0]
  7a:	900b      	str	r0, [sp, #44]	; 0x2c
  7c:	9906      	ldr	r1, [sp, #24]
  7e:	a80b      	add	r0, sp, #44	; 0x2c
  80:	f7ff fffe 	bl	0 <_ZN4core3fmt3num55_$LT$impl$u20$core..fmt..LowerHex$u20$for$u20$usize$GT$3fmt17h562f60f4fbcc2e1dE>
  84:	f88d 002b 	strb.w	r0, [sp, #43]	; 0x2b
  88:	e7ff      	b.n	8a <_ZN54_$LT$$BP$const$u20$T$u20$as$u20$core..fmt..Pointer$GT$3fmt17ha14ea2bff71abe9bE+0x8a>
/rustc/50a0defd5a93523067ef239936cc2e0755220904/src/libcore/fmt/mod.rs:2026
  8a:	9807      	ldr	r0, [sp, #28]
  8c:	9908      	ldr	r1, [sp, #32]
  8e:	9a06      	ldr	r2, [sp, #24]
  90:	6090      	str	r0, [r2, #8]
  92:	60d1      	str	r1, [r2, #12]
/rustc/50a0defd5a93523067ef239936cc2e0755220904/src/libcore/fmt/mod.rs:2027
  94:	9809      	ldr	r0, [sp, #36]	; 0x24
  96:	9906      	ldr	r1, [sp, #24]
  98:	6008      	str	r0, [r1, #0]
/rustc/50a0defd5a93523067ef239936cc2e0755220904/src/libcore/fmt/mod.rs:2029
  9a:	f89d 002b 	ldrb.w	r0, [sp, #43]	; 0x2b
/rustc/50a0defd5a93523067ef239936cc2e0755220904/src/libcore/fmt/mod.rs:2030
  9e:	b00c      	add	sp, #48	; 0x30
  a0:	bd80      	pop	{r7, pc}

Disassembly of section .text._ZN54_$LT$$BP$const$u20$T$u20$as$u20$core..fmt..Pointer$GT$3fmt17he0d6d5453dd79ba4E:

00000000 <_ZN54_$LT$$BP$const$u20$T$u20$as$u20$core..fmt..Pointer$GT$3fmt17he0d6d5453dd79ba4E>:
_ZN54_$LT$$BP$const$u20$T$u20$as$u20$core..fmt..Pointer$GT$3fmt17he0d6d5453dd79ba4E():
/rustc/50a0defd5a93523067ef239936cc2e0755220904/src/libcore/fmt/mod.rs:2007
   0:	b580      	push	{r7, lr}
   2:	b08c      	sub	sp, #48	; 0x30
   4:	460a      	mov	r2, r1
   6:	4603      	mov	r3, r0
   8:	9005      	str	r0, [sp, #20]
   a:	9106      	str	r1, [sp, #24]
/rustc/50a0defd5a93523067ef239936cc2e0755220904/src/libcore/fmt/mod.rs:2008
   c:	9806      	ldr	r0, [sp, #24]
   e:	6881      	ldr	r1, [r0, #8]
  10:	68c0      	ldr	r0, [r0, #12]
  12:	9107      	str	r1, [sp, #28]
  14:	9008      	str	r0, [sp, #32]
/rustc/50a0defd5a93523067ef239936cc2e0755220904/src/libcore/fmt/mod.rs:2009
  16:	9806      	ldr	r0, [sp, #24]
  18:	6800      	ldr	r0, [r0, #0]
  1a:	9009      	str	r0, [sp, #36]	; 0x24
/rustc/50a0defd5a93523067ef239936cc2e0755220904/src/libcore/fmt/mod.rs:2015
  1c:	9806      	ldr	r0, [sp, #24]
  1e:	9204      	str	r2, [sp, #16]
  20:	9303      	str	r3, [sp, #12]
  22:	f7ff fffe 	bl	0 <_ZN4core3fmt9Formatter9alternate17hd09f58cee14df2eeE>
  26:	9002      	str	r0, [sp, #8]
  28:	e7ff      	b.n	2a <_ZN54_$LT$$BP$const$u20$T$u20$as$u20$core..fmt..Pointer$GT$3fmt17he0d6d5453dd79ba4E+0x2a>
  2a:	9802      	ldr	r0, [sp, #8]
  2c:	07c1      	lsls	r1, r0, #31
  2e:	2900      	cmp	r1, #0
  30:	d01c      	beq.n	6c <_ZN54_$LT$$BP$const$u20$T$u20$as$u20$core..fmt..Pointer$GT$3fmt17he0d6d5453dd79ba4E+0x6c>
  32:	e7ff      	b.n	34 <_ZN54_$LT$$BP$const$u20$T$u20$as$u20$core..fmt..Pointer$GT$3fmt17he0d6d5453dd79ba4E+0x34>
/rustc/50a0defd5a93523067ef239936cc2e0755220904/src/libcore/fmt/mod.rs:2016
  34:	9806      	ldr	r0, [sp, #24]
  36:	6801      	ldr	r1, [r0, #0]
  38:	f041 0108 	orr.w	r1, r1, #8
  3c:	6001      	str	r1, [r0, #0]
/rustc/50a0defd5a93523067ef239936cc2e0755220904/src/libcore/fmt/mod.rs:2018
  3e:	9806      	ldr	r0, [sp, #24]
  40:	6880      	ldr	r0, [r0, #8]
  42:	2800      	cmp	r0, #0
  44:	d112      	bne.n	6c <_ZN54_$LT$$BP$const$u20$T$u20$as$u20$core..fmt..Pointer$GT$3fmt17he0d6d5453dd79ba4E+0x6c>
  46:	e7ff      	b.n	48 <_ZN54_$LT$$BP$const$u20$T$u20$as$u20$core..fmt..Pointer$GT$3fmt17he0d6d5453dd79ba4E+0x48>
/rustc/50a0defd5a93523067ef239936cc2e0755220904/src/libcore/fmt/mod.rs:2019
  48:	f7ff fffe 	bl	0 <_ZN4core3mem7size_of17h033cda7c0b223844E>
  4c:	9001      	str	r0, [sp, #4]
  4e:	e7ff      	b.n	50 <_ZN54_$LT$$BP$const$u20$T$u20$as$u20$core..fmt..Pointer$GT$3fmt17he0d6d5453dd79ba4E+0x50>
  50:	9801      	ldr	r0, [sp, #4]
  52:	00c1      	lsls	r1, r0, #3
  54:	9100      	str	r1, [sp, #0]
  56:	e7ff      	b.n	58 <_ZN54_$LT$$BP$const$u20$T$u20$as$u20$core..fmt..Pointer$GT$3fmt17he0d6d5453dd79ba4E+0x58>
  58:	2002      	movs	r0, #2
  5a:	9900      	ldr	r1, [sp, #0]
  5c:	eb00 0091 	add.w	r0, r0, r1, lsr #2
  60:	9a06      	ldr	r2, [sp, #24]
  62:	60d0      	str	r0, [r2, #12]
  64:	9806      	ldr	r0, [sp, #24]
  66:	2201      	movs	r2, #1
  68:	6082      	str	r2, [r0, #8]
/rustc/50a0defd5a93523067ef239936cc2e0755220904/src/libcore/fmt/mod.rs:2018
  6a:	e7ff      	b.n	6c <_ZN54_$LT$$BP$const$u20$T$u20$as$u20$core..fmt..Pointer$GT$3fmt17he0d6d5453dd79ba4E+0x6c>
/rustc/50a0defd5a93523067ef239936cc2e0755220904/src/libcore/fmt/mod.rs:2022
  6c:	9806      	ldr	r0, [sp, #24]
  6e:	6801      	ldr	r1, [r0, #0]
  70:	f041 0104 	orr.w	r1, r1, #4
  74:	6001      	str	r1, [r0, #0]
/rustc/50a0defd5a93523067ef239936cc2e0755220904/src/libcore/fmt/mod.rs:2024
  76:	9805      	ldr	r0, [sp, #20]
  78:	6800      	ldr	r0, [r0, #0]
  7a:	900b      	str	r0, [sp, #44]	; 0x2c
  7c:	9906      	ldr	r1, [sp, #24]
  7e:	a80b      	add	r0, sp, #44	; 0x2c
  80:	f7ff fffe 	bl	0 <_ZN4core3fmt3num55_$LT$impl$u20$core..fmt..LowerHex$u20$for$u20$usize$GT$3fmt17h562f60f4fbcc2e1dE>
  84:	f88d 002b 	strb.w	r0, [sp, #43]	; 0x2b
  88:	e7ff      	b.n	8a <_ZN54_$LT$$BP$const$u20$T$u20$as$u20$core..fmt..Pointer$GT$3fmt17he0d6d5453dd79ba4E+0x8a>
/rustc/50a0defd5a93523067ef239936cc2e0755220904/src/libcore/fmt/mod.rs:2026
  8a:	9807      	ldr	r0, [sp, #28]
  8c:	9908      	ldr	r1, [sp, #32]
  8e:	9a06      	ldr	r2, [sp, #24]
  90:	6090      	str	r0, [r2, #8]
  92:	60d1      	str	r1, [r2, #12]
/rustc/50a0defd5a93523067ef239936cc2e0755220904/src/libcore/fmt/mod.rs:2027
  94:	9809      	ldr	r0, [sp, #36]	; 0x24
  96:	9906      	ldr	r1, [sp, #24]
  98:	6008      	str	r0, [r1, #0]
/rustc/50a0defd5a93523067ef239936cc2e0755220904/src/libcore/fmt/mod.rs:2029
  9a:	f89d 002b 	ldrb.w	r0, [sp, #43]	; 0x2b
/rustc/50a0defd5a93523067ef239936cc2e0755220904/src/libcore/fmt/mod.rs:2030
  9e:	b00c      	add	sp, #48	; 0x30
  a0:	bd80      	pop	{r7, pc}

mylib-ac95891f38e7979c.4497fvddxy6cb2a7.rcgu.o:     file format elf32-littlearm

SYMBOL TABLE:
00000000 l    df *ABS*	00000000 4497fvddxy6cb2a7
00000000 l       .debug_str	00000000 
00000041 l       .debug_str	00000000 
0000004c l       .debug_str	00000000 
0000006f l       .debug_str	00000000 
00000074 l       .debug_str	00000000 
00000078 l       .debug_str	00000000 
00000081 l       .debug_str	00000000 
000000c2 l       .debug_str	00000000 
000000cb l       .debug_str	00000000 
000000d4 l       .debug_str	00000000 
000000d7 l       .debug_str	00000000 
000000e1 l       .debug_str	00000000 
000000e8 l       .debug_str	00000000 
000000ee l       .debug_str	00000000 
000000f4 l       .debug_str	00000000 
000000f9 l       .debug_str	00000000 
000000fe l       .debug_str	00000000 
0000013a l       .debug_str	00000000 
0000013e l       .debug_str	00000000 
0000017d l       .debug_str	00000000 
00000000 l    d  .text._ZN4core3str21_$LT$impl$u20$str$GT$3len17ha2e0db4a9f502071E	00000000 .text._ZN4core3str21_$LT$impl$u20$str$GT$3len17ha2e0db4a9f502071E
00000000 l    d  .text._ZN4core3str21_$LT$impl$u20$str$GT$6as_ptr17hca80eebebc99ccd9E	00000000 .text._ZN4core3str21_$LT$impl$u20$str$GT$6as_ptr17hca80eebebc99ccd9E
00000000 l    d  .debug_abbrev	00000000 .debug_abbrev
00000000 l    d  .debug_info	00000000 .debug_info
00000000 l    d  .debug_ranges	00000000 .debug_ranges
00000000 l    d  .debug_frame	00000000 .debug_frame
00000000 l    d  .debug_line	00000000 .debug_line
00000000 g     F .text._ZN4core3str21_$LT$impl$u20$str$GT$3len17ha2e0db4a9f502071E	0000003c .hidden _ZN4core3str21_$LT$impl$u20$str$GT$3len17ha2e0db4a9f502071E
00000000 g     F .text._ZN4core3str21_$LT$impl$u20$str$GT$6as_ptr17hca80eebebc99ccd9E	00000014 .hidden _ZN4core3str21_$LT$impl$u20$str$GT$6as_ptr17hca80eebebc99ccd9E
00000000         *UND*	00000000 _ZN4core5slice29_$LT$impl$u20$$u5b$T$u5d$$GT$3len17h8c76a39fea4234d0E



Disassembly of section .text._ZN4core3str21_$LT$impl$u20$str$GT$3len17ha2e0db4a9f502071E:

00000000 <_ZN4core3str21_$LT$impl$u20$str$GT$3len17ha2e0db4a9f502071E>:
_ZN4core3str21_$LT$impl$u20$str$GT$3len17ha2e0db4a9f502071E():
/rustc/50a0defd5a93523067ef239936cc2e0755220904/src/libcore/str/mod.rs:2070
   0:	b580      	push	{r7, lr}
   2:	b08c      	sub	sp, #48	; 0x30
   4:	460a      	mov	r2, r1
   6:	4603      	mov	r3, r0
   8:	9006      	str	r0, [sp, #24]
   a:	9107      	str	r1, [sp, #28]
/rustc/50a0defd5a93523067ef239936cc2e0755220904/src/libcore/str/mod.rs:2071
   c:	9806      	ldr	r0, [sp, #24]
   e:	9907      	ldr	r1, [sp, #28]
  10:	9008      	str	r0, [sp, #32]
  12:	9109      	str	r1, [sp, #36]	; 0x24
_ZN4core3str21_$LT$impl$u20$str$GT$8as_bytes17hbca31947ef6ad219E():
/rustc/50a0defd5a93523067ef239936cc2e0755220904/src/libcore/str/mod.rs:2153
  14:	9808      	ldr	r0, [sp, #32]
  16:	9909      	ldr	r1, [sp, #36]	; 0x24
  18:	900a      	str	r0, [sp, #40]	; 0x28
  1a:	910b      	str	r1, [sp, #44]	; 0x2c
  1c:	980a      	ldr	r0, [sp, #40]	; 0x28
  1e:	990b      	ldr	r1, [sp, #44]	; 0x2c
_ZN4core3str21_$LT$impl$u20$str$GT$3len17ha2e0db4a9f502071E():
/rustc/50a0defd5a93523067ef239936cc2e0755220904/src/libcore/str/mod.rs:2071
  20:	9205      	str	r2, [sp, #20]
  22:	9304      	str	r3, [sp, #16]
  24:	9003      	str	r0, [sp, #12]
  26:	9102      	str	r1, [sp, #8]
  28:	e7ff      	b.n	2a <_ZN4core3str21_$LT$impl$u20$str$GT$3len17ha2e0db4a9f502071E+0x2a>
  2a:	9803      	ldr	r0, [sp, #12]
  2c:	9902      	ldr	r1, [sp, #8]
  2e:	f7ff fffe 	bl	0 <_ZN4core5slice29_$LT$impl$u20$$u5b$T$u5d$$GT$3len17h8c76a39fea4234d0E>
  32:	9001      	str	r0, [sp, #4]
  34:	e7ff      	b.n	36 <_ZN4core3str21_$LT$impl$u20$str$GT$3len17ha2e0db4a9f502071E+0x36>
/rustc/50a0defd5a93523067ef239936cc2e0755220904/src/libcore/str/mod.rs:2072
  36:	9801      	ldr	r0, [sp, #4]
  38:	b00c      	add	sp, #48	; 0x30
  3a:	bd80      	pop	{r7, pc}

Disassembly of section .text._ZN4core3str21_$LT$impl$u20$str$GT$6as_ptr17hca80eebebc99ccd9E:

00000000 <_ZN4core3str21_$LT$impl$u20$str$GT$6as_ptr17hca80eebebc99ccd9E>:
_ZN4core3str21_$LT$impl$u20$str$GT$6as_ptr17hca80eebebc99ccd9E():
/rustc/50a0defd5a93523067ef239936cc2e0755220904/src/libcore/str/mod.rs:2217
   0:	b084      	sub	sp, #16
   2:	460a      	mov	r2, r1
   4:	4603      	mov	r3, r0
   6:	9002      	str	r0, [sp, #8]
   8:	9103      	str	r1, [sp, #12]
/rustc/50a0defd5a93523067ef239936cc2e0755220904/src/libcore/str/mod.rs:2218
   a:	9802      	ldr	r0, [sp, #8]
/rustc/50a0defd5a93523067ef239936cc2e0755220904/src/libcore/str/mod.rs:2219
   c:	9201      	str	r2, [sp, #4]
   e:	9300      	str	r3, [sp, #0]
  10:	b004      	add	sp, #16
  12:	4770      	bx	lr

mylib-ac95891f38e7979c.4c5oiq6sgmojh33d.rcgu.o:     file format elf32-littlearm

SYMBOL TABLE:
00000000 l    df *ABS*	00000000 4c5oiq6sgmojh33d
00000000 l       .debug_str	00000000 
00000041 l       .debug_str	00000000 
0000004c l       .debug_str	00000000 
0000006f l       .debug_str	00000000 
00000076 l       .debug_str	00000000 
0000007b l       .debug_str	00000000 
00000082 l       .debug_str	00000000 
00000086 l       .debug_str	00000000 
0000008b l       .debug_str	00000000 
00000091 l       .debug_str	00000000 
00000097 l       .debug_str	00000000 
0000009e l       .debug_str	00000000 
000000a7 l       .debug_str	00000000 
000000ab l       .debug_str	00000000 
000000b1 l       .debug_str	00000000 
000000b6 l       .debug_str	00000000 
000000b9 l       .debug_str	00000000 
000000c1 l       .debug_str	00000000 
00000113 l       .debug_str	00000000 
00000115 l       .debug_str	00000000 
0000011a l       .debug_str	00000000 
0000011e l       .debug_str	00000000 
00000178 l       .debug_str	00000000 
00000185 l       .debug_str	00000000 
000001b2 l       .debug_str	00000000 
000001b7 l       .debug_str	00000000 
000001da l       .debug_str	00000000 
000001e4 l       .debug_str	00000000 
00000238 l       .debug_str	00000000 
00000294 l       .debug_str	00000000 
000002ff l       .debug_str	00000000 
00000368 l       .debug_str	00000000 
00000396 l       .debug_str	00000000 
0000039a l       .debug_str	00000000 
000003a8 l       .debug_str	00000000 
000003bc l       .debug_str	00000000 
000003ee l       .debug_str	00000000 
0000044d l       .debug_str	00000000 
000004b4 l       .debug_str	00000000 
0000052a l       .debug_str	00000000 
0000052f l       .debug_str	00000000 
00000533 l       .debug_str	00000000 
0000053e l       .debug_str	00000000 
00000549 l       .debug_str	00000000 
00000550 l       .debug_str	00000000 
00000567 l       .debug_str	00000000 
0000057f l       .debug_str	00000000 
00000586 l       .debug_str	00000000 
000005b9 l       .debug_str	00000000 
000005be l       .debug_str	00000000 
000005c4 l       .debug_str	00000000 
000005c8 l       .debug_str	00000000 
0000061c l       .debug_str	00000000 
00000678 l       .debug_str	00000000 
0000067e l       .debug_str	00000000 
000006d2 l       .debug_str	00000000 
0000072e l       .debug_str	00000000 
00000734 l       .debug_str	00000000 
00000738 l       .debug_str	00000000 
0000078c l       .debug_str	00000000 
000007e8 l       .debug_str	00000000 
000007ec l       .debug_str	00000000 
00000852 l       .debug_str	00000000 
000008c0 l       .debug_str	00000000 
000008c4 l       .debug_str	00000000 
000008d1 l       .debug_str	00000000 
000008e5 l       .debug_str	00000000 
00000917 l       .debug_str	00000000 
0000096a l       .debug_str	00000000 
000009c5 l       .debug_str	00000000 
00000a2f l       .debug_str	00000000 
00000a9a l       .debug_str	00000000 
00000b05 l       .debug_str	00000000 
00000b70 l       .debug_str	00000000 
00000bed l       .debug_str	00000000 
00000c20 l       .debug_str	00000000 
00000c22 l       .debug_str	00000000 
00000c26 l       .debug_str	00000000 
00000c2c l       .debug_str	00000000 
00000c37 l       .debug_str	00000000 
00000c62 l       .debug_str	00000000 
00000c8e l       .debug_str	00000000 
00000c93 l       .debug_str	00000000 
00000c98 l       .debug_str	00000000 
00000c9c l       .debug_str	00000000 
00000ca3 l       .debug_str	00000000 
00000ca6 l       .debug_str	00000000 
00000caa l       .debug_str	00000000 
00000cb1 l       .debug_str	00000000 
00000cb5 l       .debug_str	00000000 
00000cb8 l       .debug_str	00000000 
00000cbb l       .debug_str	00000000 
00000cc0 l       .debug_str	00000000 
00000cc6 l       .debug_str	00000000 
00000ccd l       .debug_str	00000000 
00000cd5 l       .debug_str	00000000 
00000cdf l       .debug_str	00000000 
00000ce8 l       .debug_str	00000000 
00000d50 l       .debug_str	00000000 
00000db0 l       .debug_str	00000000 
00000e1f l       .debug_str	00000000 
00000e85 l       .debug_str	00000000 
00000eec l       .debug_str	00000000 
00000f5b l       .debug_str	00000000 
00000fc1 l       .debug_str	00000000 
00001026 l       .debug_str	00000000 
0000102b l       .debug_str	00000000 
00001052 l       .debug_str	00000000 
00001054 l       .debug_str	00000000 
00001059 l       .debug_str	00000000 
0000105e l       .debug_str	00000000 
00001064 l       .debug_str	00000000 
0000106a l       .debug_str	00000000 
00001078 l       .debug_str	00000000 
00001082 l       .debug_str	00000000 
00001086 l       .debug_str	00000000 
0000108e l       .debug_str	00000000 
000010a2 l       .debug_str	00000000 
000010ae l       .debug_str	00000000 
000010b9 l       .debug_str	00000000 
000010c0 l       .debug_str	00000000 
000010c6 l       .debug_str	00000000 
000010ca l       .debug_str	00000000 
000010d0 l       .debug_str	00000000 
000010d6 l       .debug_str	00000000 
000010d9 l       .debug_str	00000000 
000010e8 l       .debug_str	00000000 
000010ef l       .debug_str	00000000 
000010f3 l       .debug_str	00000000 
000010fc l       .debug_str	00000000 
00001108 l       .debug_str	00000000 
00001121 l       .debug_str	00000000 
00001126 l       .debug_str	00000000 
00001137 l       .debug_str	00000000 
00001141 l       .debug_str	00000000 
0000119f l       .debug_str	00000000 
000011aa l       .debug_str	00000000 
000011c7 l       .debug_str	00000000 
000011cf l       .debug_str	00000000 
000011e6 l       .debug_str	00000000 
0000120a l       .debug_str	00000000 
00001226 l       .debug_str	00000000 
0000122b l       .debug_str	00000000 
00001234 l       .debug_str	00000000 
0000123b l       .debug_str	00000000 
00001254 l       .debug_str	00000000 
0000125e l       .debug_str	00000000 
00001278 l       .debug_str	00000000 
00001283 l       .debug_str	00000000 
0000128e l       .debug_str	00000000 
000012a2 l       .debug_str	00000000 
000012ab l       .debug_str	00000000 
000012b6 l       .debug_str	00000000 
000012bb l       .debug_str	00000000 
000012c7 l       .debug_str	00000000 
000012e6 l       .debug_str	00000000 
00001314 l       .debug_str	00000000 
0000131d l       .debug_str	00000000 
00001325 l       .debug_str	00000000 
00001330 l       .debug_str	00000000 
00001355 l       .debug_str	00000000 
0000135c l       .debug_str	00000000 
00001367 l       .debug_str	00000000 
0000136d l       .debug_str	00000000 
00001379 l       .debug_str	00000000 
0000139f l       .debug_str	00000000 
000013aa l       .debug_str	00000000 
000013b5 l       .debug_str	00000000 
000013e3 l       .debug_str	00000000 
000013ee l       .debug_str	00000000 
000013f9 l       .debug_str	00000000 
00001404 l       .debug_str	00000000 
00001429 l       .debug_str	00000000 
00001430 l       .debug_str	00000000 
00001437 l       .debug_str	00000000 
00001441 l       .debug_str	00000000 
00001447 l       .debug_str	00000000 
0000144d l       .debug_str	00000000 
00001457 l       .debug_str	00000000 
00000000 l     O .rodata..Lanon.a1a72fdcd65ef11fc2e2b41f4bdd439e.0	0000000c .Lanon.a1a72fdcd65ef11fc2e2b41f4bdd439e.0
00000000 l     O .rodata..Lanon.a1a72fdcd65ef11fc2e2b41f4bdd439e.1	00000005 .Lanon.a1a72fdcd65ef11fc2e2b41f4bdd439e.1
00000000 l     O .rodata..Lanon.a1a72fdcd65ef11fc2e2b41f4bdd439e.10	0000000d .Lanon.a1a72fdcd65ef11fc2e2b41f4bdd439e.10
00000000 l     O .rodata..Lanon.a1a72fdcd65ef11fc2e2b41f4bdd439e.11	00000010 .Lanon.a1a72fdcd65ef11fc2e2b41f4bdd439e.11
00000000 l     O .rodata..Lanon.a1a72fdcd65ef11fc2e2b41f4bdd439e.12	0000000a .Lanon.a1a72fdcd65ef11fc2e2b41f4bdd439e.12
00000000 l     O .rodata.cst8	00000008 .Lanon.a1a72fdcd65ef11fc2e2b41f4bdd439e.13
00000000 l     O .rodata..Lanon.a1a72fdcd65ef11fc2e2b41f4bdd439e.14	00000010 .Lanon.a1a72fdcd65ef11fc2e2b41f4bdd439e.14
00000000 l     O .rodata..Lanon.a1a72fdcd65ef11fc2e2b41f4bdd439e.15	00000007 .Lanon.a1a72fdcd65ef11fc2e2b41f4bdd439e.15
00000000 l     O .rodata..Lanon.a1a72fdcd65ef11fc2e2b41f4bdd439e.16	00000010 .Lanon.a1a72fdcd65ef11fc2e2b41f4bdd439e.16
00000000 l     O .rodata..Lanon.a1a72fdcd65ef11fc2e2b41f4bdd439e.17	0000000b .Lanon.a1a72fdcd65ef11fc2e2b41f4bdd439e.17
00000000 l     O .rodata..Lanon.a1a72fdcd65ef11fc2e2b41f4bdd439e.18	00000006 .Lanon.a1a72fdcd65ef11fc2e2b41f4bdd439e.18
00000000 l     O .rodata..Lanon.a1a72fdcd65ef11fc2e2b41f4bdd439e.19	00000010 .Lanon.a1a72fdcd65ef11fc2e2b41f4bdd439e.19
00000000 l     O .rodata..Lanon.a1a72fdcd65ef11fc2e2b41f4bdd439e.2	00000010 .Lanon.a1a72fdcd65ef11fc2e2b41f4bdd439e.2
00000000 l     O .rodata..Lanon.a1a72fdcd65ef11fc2e2b41f4bdd439e.20	0000000a .Lanon.a1a72fdcd65ef11fc2e2b41f4bdd439e.20
00000000 l     O .rodata..Lanon.a1a72fdcd65ef11fc2e2b41f4bdd439e.21	00000005 .Lanon.a1a72fdcd65ef11fc2e2b41f4bdd439e.21
00000000 l     O .rodata..Lanon.a1a72fdcd65ef11fc2e2b41f4bdd439e.22	00000005 .Lanon.a1a72fdcd65ef11fc2e2b41f4bdd439e.22
00000000 l     O .rodata..Lanon.a1a72fdcd65ef11fc2e2b41f4bdd439e.23	00000013 .Lanon.a1a72fdcd65ef11fc2e2b41f4bdd439e.23
00000008 l     O .rodata.cst4	00000004 .Lanon.a1a72fdcd65ef11fc2e2b41f4bdd439e.24
00000000 l     O .rodata..Lanon.a1a72fdcd65ef11fc2e2b41f4bdd439e.25	00000010 .Lanon.a1a72fdcd65ef11fc2e2b41f4bdd439e.25
00000000 l     O .rodata..Lanon.a1a72fdcd65ef11fc2e2b41f4bdd439e.26	00000005 .Lanon.a1a72fdcd65ef11fc2e2b41f4bdd439e.26
00000000 l     O .rodata..Lanon.a1a72fdcd65ef11fc2e2b41f4bdd439e.27	00000010 .Lanon.a1a72fdcd65ef11fc2e2b41f4bdd439e.27
00000000 l     O .rodata..Lanon.a1a72fdcd65ef11fc2e2b41f4bdd439e.28	00000005 .Lanon.a1a72fdcd65ef11fc2e2b41f4bdd439e.28
00000000 l     O .rodata..Lanon.a1a72fdcd65ef11fc2e2b41f4bdd439e.29	00000010 .Lanon.a1a72fdcd65ef11fc2e2b41f4bdd439e.29
00000000 l     O .rodata.cst4	00000004 .Lanon.a1a72fdcd65ef11fc2e2b41f4bdd439e.3
00000000 l     O .rodata..Lanon.a1a72fdcd65ef11fc2e2b41f4bdd439e.30	00000005 .Lanon.a1a72fdcd65ef11fc2e2b41f4bdd439e.30
00000000 l     O .rodata..Lanon.a1a72fdcd65ef11fc2e2b41f4bdd439e.31	00000010 .Lanon.a1a72fdcd65ef11fc2e2b41f4bdd439e.31
00000000 l     O .rodata..Lanon.a1a72fdcd65ef11fc2e2b41f4bdd439e.32	00000003 .Lanon.a1a72fdcd65ef11fc2e2b41f4bdd439e.32
00000000 l     O .rodata..Lanon.a1a72fdcd65ef11fc2e2b41f4bdd439e.33	00000010 .Lanon.a1a72fdcd65ef11fc2e2b41f4bdd439e.33
00000000 l     O .rodata..Lanon.a1a72fdcd65ef11fc2e2b41f4bdd439e.34	00000003 .Lanon.a1a72fdcd65ef11fc2e2b41f4bdd439e.34
00000000 l     O .rodata..Lanon.a1a72fdcd65ef11fc2e2b41f4bdd439e.35	0000000c .Lanon.a1a72fdcd65ef11fc2e2b41f4bdd439e.35
00000000 l     O .rodata..Lanon.a1a72fdcd65ef11fc2e2b41f4bdd439e.36	0000000a .Lanon.a1a72fdcd65ef11fc2e2b41f4bdd439e.36
00000000 l     O .rodata..Lanon.a1a72fdcd65ef11fc2e2b41f4bdd439e.37	00000001 .Lanon.a1a72fdcd65ef11fc2e2b41f4bdd439e.37
00000000 l     O .rodata..Lanon.a1a72fdcd65ef11fc2e2b41f4bdd439e.38	00000010 .Lanon.a1a72fdcd65ef11fc2e2b41f4bdd439e.38
00000000 l     O .rodata..Lanon.a1a72fdcd65ef11fc2e2b41f4bdd439e.39	00000003 .Lanon.a1a72fdcd65ef11fc2e2b41f4bdd439e.39
00000000 l     O .rodata..Lanon.a1a72fdcd65ef11fc2e2b41f4bdd439e.4	00000010 .Lanon.a1a72fdcd65ef11fc2e2b41f4bdd439e.4
00000000 l     O .rodata..Lanon.a1a72fdcd65ef11fc2e2b41f4bdd439e.40	00000009 .Lanon.a1a72fdcd65ef11fc2e2b41f4bdd439e.40
00000000 l     O .rodata..Lanon.a1a72fdcd65ef11fc2e2b41f4bdd439e.41	00000006 .Lanon.a1a72fdcd65ef11fc2e2b41f4bdd439e.41
00000000 l     O .rodata..Lanon.a1a72fdcd65ef11fc2e2b41f4bdd439e.42	00000010 .Lanon.a1a72fdcd65ef11fc2e2b41f4bdd439e.42
00000000 l     O .rodata..Lanon.a1a72fdcd65ef11fc2e2b41f4bdd439e.43	00000006 .Lanon.a1a72fdcd65ef11fc2e2b41f4bdd439e.43
00000000 l     O .rodata..Lanon.a1a72fdcd65ef11fc2e2b41f4bdd439e.44	00000009 .Lanon.a1a72fdcd65ef11fc2e2b41f4bdd439e.44
00000000 l     O .rodata..Lanon.a1a72fdcd65ef11fc2e2b41f4bdd439e.45	00000010 .Lanon.a1a72fdcd65ef11fc2e2b41f4bdd439e.45
00000000 l     O .rodata..Lanon.a1a72fdcd65ef11fc2e2b41f4bdd439e.46	00000005 .Lanon.a1a72fdcd65ef11fc2e2b41f4bdd439e.46
00000000 l     O .rodata..Lanon.a1a72fdcd65ef11fc2e2b41f4bdd439e.47	00000010 .Lanon.a1a72fdcd65ef11fc2e2b41f4bdd439e.47
00000000 l     O .rodata..Lanon.a1a72fdcd65ef11fc2e2b41f4bdd439e.48	00000005 .Lanon.a1a72fdcd65ef11fc2e2b41f4bdd439e.48
00000000 l     O .rodata..Lanon.a1a72fdcd65ef11fc2e2b41f4bdd439e.49	00000010 .Lanon.a1a72fdcd65ef11fc2e2b41f4bdd439e.49
00000004 l     O .rodata.cst4	00000004 .Lanon.a1a72fdcd65ef11fc2e2b41f4bdd439e.5
00000000 l     O .rodata..Lanon.a1a72fdcd65ef11fc2e2b41f4bdd439e.6	00000003 .Lanon.a1a72fdcd65ef11fc2e2b41f4bdd439e.6
00000000 l     O .rodata..Lanon.a1a72fdcd65ef11fc2e2b41f4bdd439e.7	00000010 .Lanon.a1a72fdcd65ef11fc2e2b41f4bdd439e.7
00000000 l     O .rodata..Lanon.a1a72fdcd65ef11fc2e2b41f4bdd439e.8	00000013 .Lanon.a1a72fdcd65ef11fc2e2b41f4bdd439e.8
00000000 l     O .rodata..Lanon.a1a72fdcd65ef11fc2e2b41f4bdd439e.9	00000010 .Lanon.a1a72fdcd65ef11fc2e2b41f4bdd439e.9
00000000 l    d  .text._ZN74_$LT$mylib..mynewt..tinycbor..File_methods$u20$as$u20$core..fmt..Debug$GT$3fmt17h5e4e9abbf530ca8aE	00000000 .text._ZN74_$LT$mylib..mynewt..tinycbor..File_methods$u20$as$u20$core..fmt..Debug$GT$3fmt17h5e4e9abbf530ca8aE
00000000 l    d  .text._ZN66_$LT$mylib..mynewt..tinycbor..File$u20$as$u20$core..fmt..Debug$GT$3fmt17h08f74d96e687af17E	00000000 .text._ZN66_$LT$mylib..mynewt..tinycbor..File$u20$as$u20$core..fmt..Debug$GT$3fmt17h08f74d96e687af17E
00000000 l    d  .text._ZN81_$LT$mylib..mynewt..tinycbor..cbor_encoder_writer$u20$as$u20$core..fmt..Debug$GT$3fmt17h144325543e71d5c5E	00000000 .text._ZN81_$LT$mylib..mynewt..tinycbor..cbor_encoder_writer$u20$as$u20$core..fmt..Debug$GT$3fmt17h144325543e71d5c5E
00000000 l    d  .text._ZN72_$LT$mylib..mynewt..tinycbor..cbor_iovec$u20$as$u20$core..fmt..Debug$GT$3fmt17h1eaa7e565bb58badE	00000000 .text._ZN72_$LT$mylib..mynewt..tinycbor..cbor_iovec$u20$as$u20$core..fmt..Debug$GT$3fmt17h1eaa7e565bb58badE
00000000 l    d  .text._ZN73_$LT$mylib..mynewt..tinycbor..CborEncoder$u20$as$u20$core..fmt..Debug$GT$3fmt17hc65cec1eb1bc6a79E	00000000 .text._ZN73_$LT$mylib..mynewt..tinycbor..CborEncoder$u20$as$u20$core..fmt..Debug$GT$3fmt17hc65cec1eb1bc6a79E
00000000 l    d  .text._ZN81_$LT$mylib..mynewt..tinycbor..cbor_decoder_reader$u20$as$u20$core..fmt..Debug$GT$3fmt17hbb3beeca788e9aedE	00000000 .text._ZN81_$LT$mylib..mynewt..tinycbor..cbor_decoder_reader$u20$as$u20$core..fmt..Debug$GT$3fmt17hbb3beeca788e9aedE
00000000 l    d  .text._ZN72_$LT$mylib..mynewt..tinycbor..CborParser$u20$as$u20$core..fmt..Debug$GT$3fmt17h172cf134992c6de8E	00000000 .text._ZN72_$LT$mylib..mynewt..tinycbor..CborParser$u20$as$u20$core..fmt..Debug$GT$3fmt17h172cf134992c6de8E
00000000 l    d  .text._ZN71_$LT$mylib..mynewt..tinycbor..CborValue$u20$as$u20$core..fmt..Debug$GT$3fmt17he716596da4deb764E	00000000 .text._ZN71_$LT$mylib..mynewt..tinycbor..CborValue$u20$as$u20$core..fmt..Debug$GT$3fmt17he716596da4deb764E
00000000 l    d  .rodata..Lanon.a1a72fdcd65ef11fc2e2b41f4bdd439e.2	00000000 .rodata..Lanon.a1a72fdcd65ef11fc2e2b41f4bdd439e.2
00000000 l    d  .rodata..Lanon.a1a72fdcd65ef11fc2e2b41f4bdd439e.4	00000000 .rodata..Lanon.a1a72fdcd65ef11fc2e2b41f4bdd439e.4
00000000 l    d  .rodata..Lanon.a1a72fdcd65ef11fc2e2b41f4bdd439e.7	00000000 .rodata..Lanon.a1a72fdcd65ef11fc2e2b41f4bdd439e.7
00000000 l    d  .rodata..Lanon.a1a72fdcd65ef11fc2e2b41f4bdd439e.9	00000000 .rodata..Lanon.a1a72fdcd65ef11fc2e2b41f4bdd439e.9
00000000 l    d  .rodata..Lanon.a1a72fdcd65ef11fc2e2b41f4bdd439e.11	00000000 .rodata..Lanon.a1a72fdcd65ef11fc2e2b41f4bdd439e.11
00000000 l    d  .rodata..Lanon.a1a72fdcd65ef11fc2e2b41f4bdd439e.14	00000000 .rodata..Lanon.a1a72fdcd65ef11fc2e2b41f4bdd439e.14
00000000 l    d  .rodata..Lanon.a1a72fdcd65ef11fc2e2b41f4bdd439e.16	00000000 .rodata..Lanon.a1a72fdcd65ef11fc2e2b41f4bdd439e.16
00000000 l    d  .rodata..Lanon.a1a72fdcd65ef11fc2e2b41f4bdd439e.19	00000000 .rodata..Lanon.a1a72fdcd65ef11fc2e2b41f4bdd439e.19
00000000 l    d  .rodata..Lanon.a1a72fdcd65ef11fc2e2b41f4bdd439e.25	00000000 .rodata..Lanon.a1a72fdcd65ef11fc2e2b41f4bdd439e.25
00000000 l    d  .rodata..Lanon.a1a72fdcd65ef11fc2e2b41f4bdd439e.27	00000000 .rodata..Lanon.a1a72fdcd65ef11fc2e2b41f4bdd439e.27
00000000 l    d  .rodata..Lanon.a1a72fdcd65ef11fc2e2b41f4bdd439e.29	00000000 .rodata..Lanon.a1a72fdcd65ef11fc2e2b41f4bdd439e.29
00000000 l    d  .rodata..Lanon.a1a72fdcd65ef11fc2e2b41f4bdd439e.31	00000000 .rodata..Lanon.a1a72fdcd65ef11fc2e2b41f4bdd439e.31
00000000 l    d  .rodata..Lanon.a1a72fdcd65ef11fc2e2b41f4bdd439e.33	00000000 .rodata..Lanon.a1a72fdcd65ef11fc2e2b41f4bdd439e.33
00000000 l    d  .rodata..Lanon.a1a72fdcd65ef11fc2e2b41f4bdd439e.38	00000000 .rodata..Lanon.a1a72fdcd65ef11fc2e2b41f4bdd439e.38
00000000 l    d  .rodata..Lanon.a1a72fdcd65ef11fc2e2b41f4bdd439e.42	00000000 .rodata..Lanon.a1a72fdcd65ef11fc2e2b41f4bdd439e.42
00000000 l    d  .rodata..Lanon.a1a72fdcd65ef11fc2e2b41f4bdd439e.45	00000000 .rodata..Lanon.a1a72fdcd65ef11fc2e2b41f4bdd439e.45
00000000 l    d  .rodata..Lanon.a1a72fdcd65ef11fc2e2b41f4bdd439e.47	00000000 .rodata..Lanon.a1a72fdcd65ef11fc2e2b41f4bdd439e.47
00000000 l    d  .rodata..Lanon.a1a72fdcd65ef11fc2e2b41f4bdd439e.49	00000000 .rodata..Lanon.a1a72fdcd65ef11fc2e2b41f4bdd439e.49
00000000 l    d  .debug_abbrev	00000000 .debug_abbrev
00000000 l    d  .debug_info	00000000 .debug_info
00000000 l    d  .debug_ranges	00000000 .debug_ranges
00000000 l    d  .debug_frame	00000000 .debug_frame
00000000 l    d  .debug_line	00000000 .debug_line
00000000         *UND*	00000000 _ZN42_$LT$$RF$T$u20$as$u20$core..fmt..Debug$GT$3fmt17h0aaf8bc5a80c634eE
00000000         *UND*	00000000 _ZN42_$LT$$RF$T$u20$as$u20$core..fmt..Debug$GT$3fmt17h0c004dc6f6942d42E
00000000         *UND*	00000000 _ZN42_$LT$$RF$T$u20$as$u20$core..fmt..Debug$GT$3fmt17h0e42809c79540eacE
00000000         *UND*	00000000 _ZN42_$LT$$RF$T$u20$as$u20$core..fmt..Debug$GT$3fmt17h1c0d5056315a9ef1E
00000000         *UND*	00000000 _ZN42_$LT$$RF$T$u20$as$u20$core..fmt..Debug$GT$3fmt17h3bc168511c4a04acE
00000000         *UND*	00000000 _ZN42_$LT$$RF$T$u20$as$u20$core..fmt..Debug$GT$3fmt17h3ee8b5c7bfa08fb6E
00000000         *UND*	00000000 _ZN42_$LT$$RF$T$u20$as$u20$core..fmt..Debug$GT$3fmt17h621e3e6d7052a7dbE
00000000         *UND*	00000000 _ZN42_$LT$$RF$T$u20$as$u20$core..fmt..Debug$GT$3fmt17h65d69163f64827d9E
00000000         *UND*	00000000 _ZN42_$LT$$RF$T$u20$as$u20$core..fmt..Debug$GT$3fmt17h6b54cd33c0767134E
00000000         *UND*	00000000 _ZN42_$LT$$RF$T$u20$as$u20$core..fmt..Debug$GT$3fmt17h6cb858c1b33e980aE
00000000         *UND*	00000000 _ZN42_$LT$$RF$T$u20$as$u20$core..fmt..Debug$GT$3fmt17h7f3efd56ed4e4138E
00000000         *UND*	00000000 _ZN42_$LT$$RF$T$u20$as$u20$core..fmt..Debug$GT$3fmt17h840f656d40ad194eE
00000000         *UND*	00000000 _ZN42_$LT$$RF$T$u20$as$u20$core..fmt..Debug$GT$3fmt17ha62b54af37adecf0E
00000000         *UND*	00000000 _ZN42_$LT$$RF$T$u20$as$u20$core..fmt..Debug$GT$3fmt17hb35d5ed52829ed06E
00000000         *UND*	00000000 _ZN42_$LT$$RF$T$u20$as$u20$core..fmt..Debug$GT$3fmt17hcca20f1604194f1cE
00000000         *UND*	00000000 _ZN42_$LT$$RF$T$u20$as$u20$core..fmt..Debug$GT$3fmt17hec02e5d7029bcca7E
00000000         *UND*	00000000 _ZN42_$LT$$RF$T$u20$as$u20$core..fmt..Debug$GT$3fmt17hf37e8052479de84cE
00000000         *UND*	00000000 _ZN42_$LT$$RF$T$u20$as$u20$core..fmt..Debug$GT$3fmt17hf76728bd7bf145f4E
00000000         *UND*	00000000 _ZN4core3fmt8builders11DebugStruct5field17h80023aaf54882542E
00000000         *UND*	00000000 _ZN4core3fmt8builders11DebugStruct6finish17h9090cd1e84004b71E
00000000         *UND*	00000000 _ZN4core3fmt9Formatter12debug_struct17h0a14031b095ee1baE
00000000         *UND*	00000000 _ZN4core3ptr18real_drop_in_place17h0285661cd8494b3dE
00000000         *UND*	00000000 _ZN4core3ptr18real_drop_in_place17h1adc7f7cf1df91faE
00000000         *UND*	00000000 _ZN4core3ptr18real_drop_in_place17h2c6f01d67e57004eE
00000000         *UND*	00000000 _ZN4core3ptr18real_drop_in_place17h309ee9e30f5ac4c6E
00000000         *UND*	00000000 _ZN4core3ptr18real_drop_in_place17h3515672942856e83E
00000000         *UND*	00000000 _ZN4core3ptr18real_drop_in_place17h3c494ee951fd5fc9E
00000000         *UND*	00000000 _ZN4core3ptr18real_drop_in_place17h42fdf29cfa820390E
00000000         *UND*	00000000 _ZN4core3ptr18real_drop_in_place17h71a61f5e0b16a079E
00000000         *UND*	00000000 _ZN4core3ptr18real_drop_in_place17h90dd0c71a102d6d1E
00000000         *UND*	00000000 _ZN4core3ptr18real_drop_in_place17h9af35fa2439d5ce3E
00000000         *UND*	00000000 _ZN4core3ptr18real_drop_in_place17hae3b5b64a6552475E
00000000         *UND*	00000000 _ZN4core3ptr18real_drop_in_place17hc070d4c0ef8e4115E
00000000         *UND*	00000000 _ZN4core3ptr18real_drop_in_place17hc0b2e8a3c853570dE
00000000         *UND*	00000000 _ZN4core3ptr18real_drop_in_place17hd416f9f658d259f7E
00000000         *UND*	00000000 _ZN4core3ptr18real_drop_in_place17hd87e1c6e9d133217E
00000000         *UND*	00000000 _ZN4core3ptr18real_drop_in_place17he7a7ad1b0b27acd3E
00000000         *UND*	00000000 _ZN4core3ptr18real_drop_in_place17hf034633d7358c3dcE
00000000         *UND*	00000000 _ZN4core3ptr18real_drop_in_place17hf4847ab145721afeE
00000000 g     F .text._ZN66_$LT$mylib..mynewt..tinycbor..File$u20$as$u20$core..fmt..Debug$GT$3fmt17h08f74d96e687af17E	00000072 _ZN66_$LT$mylib..mynewt..tinycbor..File$u20$as$u20$core..fmt..Debug$GT$3fmt17h08f74d96e687af17E
00000000 g     F .text._ZN71_$LT$mylib..mynewt..tinycbor..CborValue$u20$as$u20$core..fmt..Debug$GT$3fmt17he716596da4deb764E	0000014e _ZN71_$LT$mylib..mynewt..tinycbor..CborValue$u20$as$u20$core..fmt..Debug$GT$3fmt17he716596da4deb764E
00000000 g     F .text._ZN72_$LT$mylib..mynewt..tinycbor..CborParser$u20$as$u20$core..fmt..Debug$GT$3fmt17h172cf134992c6de8E	000000ca _ZN72_$LT$mylib..mynewt..tinycbor..CborParser$u20$as$u20$core..fmt..Debug$GT$3fmt17h172cf134992c6de8E
00000000 g     F .text._ZN72_$LT$mylib..mynewt..tinycbor..cbor_iovec$u20$as$u20$core..fmt..Debug$GT$3fmt17h1eaa7e565bb58badE	0000009e _ZN72_$LT$mylib..mynewt..tinycbor..cbor_iovec$u20$as$u20$core..fmt..Debug$GT$3fmt17h1eaa7e565bb58badE
00000000 g     F .text._ZN73_$LT$mylib..mynewt..tinycbor..CborEncoder$u20$as$u20$core..fmt..Debug$GT$3fmt17hc65cec1eb1bc6a79E	000000f6 _ZN73_$LT$mylib..mynewt..tinycbor..CborEncoder$u20$as$u20$core..fmt..Debug$GT$3fmt17hc65cec1eb1bc6a79E
00000000 g     F .text._ZN74_$LT$mylib..mynewt..tinycbor..File_methods$u20$as$u20$core..fmt..Debug$GT$3fmt17h5e4e9abbf530ca8aE	0000009e _ZN74_$LT$mylib..mynewt..tinycbor..File_methods$u20$as$u20$core..fmt..Debug$GT$3fmt17h5e4e9abbf530ca8aE
00000000 g     F .text._ZN81_$LT$mylib..mynewt..tinycbor..cbor_decoder_reader$u20$as$u20$core..fmt..Debug$GT$3fmt17hbb3beeca788e9aedE	0000017a _ZN81_$LT$mylib..mynewt..tinycbor..cbor_decoder_reader$u20$as$u20$core..fmt..Debug$GT$3fmt17hbb3beeca788e9aedE
00000000 g     F .text._ZN81_$LT$mylib..mynewt..tinycbor..cbor_encoder_writer$u20$as$u20$core..fmt..Debug$GT$3fmt17h144325543e71d5c5E	0000009e _ZN81_$LT$mylib..mynewt..tinycbor..cbor_encoder_writer$u20$as$u20$core..fmt..Debug$GT$3fmt17h144325543e71d5c5E



Disassembly of section .text._ZN74_$LT$mylib..mynewt..tinycbor..File_methods$u20$as$u20$core..fmt..Debug$GT$3fmt17h5e4e9abbf530ca8aE:

00000000 <_ZN74_$LT$mylib..mynewt..tinycbor..File_methods$u20$as$u20$core..fmt..Debug$GT$3fmt17h5e4e9abbf530ca8aE>:
_ZN74_$LT$mylib..mynewt..tinycbor..File_methods$u20$as$u20$core..fmt..Debug$GT$3fmt17h5e4e9abbf530ca8aE():
/mnt/c/stm32bluepill-mynewt-sensor/src/mynewt/tinycbor.rs:11
pub type __int64_t = ::cty::c_longlong;
pub type __uint64_t = ::cty::c_ulonglong;
pub type __uintptr_t = ::cty::c_uint;
pub type FILE = File;
#[repr(C)]
#[derive(Debug, Copy, Clone)]
   0:	b580      	push	{r7, lr}
   2:	b090      	sub	sp, #64	; 0x40
   4:	460a      	mov	r2, r1
   6:	4603      	mov	r3, r0
   8:	9008      	str	r0, [sp, #32]
   a:	9109      	str	r1, [sp, #36]	; 0x24
/mnt/c/stm32bluepill-mynewt-sensor/src/mynewt/tinycbor.rs:13
pub struct File_methods {
    pub write: ::core::option::Option<
   c:	9808      	ldr	r0, [sp, #32]
   e:	900a      	str	r0, [sp, #40]	; 0x28
/mnt/c/stm32bluepill-mynewt-sensor/src/mynewt/tinycbor.rs:16
        unsafe extern "C" fn(instance: *mut FILE, bp: *const ::cty::c_char, n: usize) -> usize,
    >,
    pub read: ::core::option::Option<
  10:	9808      	ldr	r0, [sp, #32]
  12:	3004      	adds	r0, #4
  14:	900b      	str	r0, [sp, #44]	; 0x2c
/mnt/c/stm32bluepill-mynewt-sensor/src/mynewt/tinycbor.rs:11
#[derive(Debug, Copy, Clone)]
  16:	9909      	ldr	r1, [sp, #36]	; 0x24
  18:	f240 0000 	movw	r0, #0
  1c:	f2c0 0000 	movt	r0, #0
  20:	f10d 0c30 	add.w	ip, sp, #48	; 0x30
  24:	f04f 0e0c 	mov.w	lr, #12
  28:	9007      	str	r0, [sp, #28]
  2a:	4660      	mov	r0, ip
  2c:	f8dd c01c 	ldr.w	ip, [sp, #28]
  30:	9206      	str	r2, [sp, #24]
  32:	4662      	mov	r2, ip
  34:	9305      	str	r3, [sp, #20]
  36:	4673      	mov	r3, lr
  38:	f7ff fffe 	bl	0 <_ZN4core3fmt9Formatter12debug_struct17h0a14031b095ee1baE>
  3c:	e7ff      	b.n	3e <_ZN74_$LT$mylib..mynewt..tinycbor..File_methods$u20$as$u20$core..fmt..Debug$GT$3fmt17h5e4e9abbf530ca8aE+0x3e>
/mnt/c/stm32bluepill-mynewt-sensor/src/mynewt/tinycbor.rs:13
    pub write: ::core::option::Option<
  3e:	980a      	ldr	r0, [sp, #40]	; 0x28
  40:	900e      	str	r0, [sp, #56]	; 0x38
/mnt/c/stm32bluepill-mynewt-sensor/src/mynewt/tinycbor.rs:11
#[derive(Debug, Copy, Clone)]
  42:	f240 0000 	movw	r0, #0
  46:	f2c0 0000 	movt	r0, #0
  4a:	4669      	mov	r1, sp
  4c:	6008      	str	r0, [r1, #0]
  4e:	f240 0100 	movw	r1, #0
  52:	f2c0 0100 	movt	r1, #0
  56:	a80c      	add	r0, sp, #48	; 0x30
  58:	2205      	movs	r2, #5
  5a:	ab0e      	add	r3, sp, #56	; 0x38
  5c:	f7ff fffe 	bl	0 <_ZN4core3fmt8builders11DebugStruct5field17h80023aaf54882542E>
  60:	9004      	str	r0, [sp, #16]
  62:	e7ff      	b.n	64 <_ZN74_$LT$mylib..mynewt..tinycbor..File_methods$u20$as$u20$core..fmt..Debug$GT$3fmt17h5e4e9abbf530ca8aE+0x64>
/mnt/c/stm32bluepill-mynewt-sensor/src/mynewt/tinycbor.rs:16
    pub read: ::core::option::Option<
  64:	980b      	ldr	r0, [sp, #44]	; 0x2c
  66:	900f      	str	r0, [sp, #60]	; 0x3c
/mnt/c/stm32bluepill-mynewt-sensor/src/mynewt/tinycbor.rs:11
#[derive(Debug, Copy, Clone)]
  68:	f240 0000 	movw	r0, #0
  6c:	f2c0 0000 	movt	r0, #0
  70:	4669      	mov	r1, sp
  72:	6008      	str	r0, [r1, #0]
  74:	f240 0100 	movw	r1, #0
  78:	f2c0 0100 	movt	r1, #0
  7c:	a80c      	add	r0, sp, #48	; 0x30
  7e:	2204      	movs	r2, #4
  80:	ab0f      	add	r3, sp, #60	; 0x3c
  82:	f7ff fffe 	bl	0 <_ZN4core3fmt8builders11DebugStruct5field17h80023aaf54882542E>
  86:	9003      	str	r0, [sp, #12]
  88:	e7ff      	b.n	8a <_ZN74_$LT$mylib..mynewt..tinycbor..File_methods$u20$as$u20$core..fmt..Debug$GT$3fmt17h5e4e9abbf530ca8aE+0x8a>
  8a:	a80c      	add	r0, sp, #48	; 0x30
  8c:	f7ff fffe 	bl	0 <_ZN4core3fmt8builders11DebugStruct6finish17h9090cd1e84004b71E>
  90:	9002      	str	r0, [sp, #8]
  92:	e7ff      	b.n	94 <_ZN74_$LT$mylib..mynewt..tinycbor..File_methods$u20$as$u20$core..fmt..Debug$GT$3fmt17h5e4e9abbf530ca8aE+0x94>
  94:	9802      	ldr	r0, [sp, #8]
  96:	f000 0001 	and.w	r0, r0, #1
  9a:	b010      	add	sp, #64	; 0x40
  9c:	bd80      	pop	{r7, pc}

Disassembly of section .text._ZN66_$LT$mylib..mynewt..tinycbor..File$u20$as$u20$core..fmt..Debug$GT$3fmt17h08f74d96e687af17E:

00000000 <_ZN66_$LT$mylib..mynewt..tinycbor..File$u20$as$u20$core..fmt..Debug$GT$3fmt17h08f74d96e687af17E>:
_ZN66_$LT$mylib..mynewt..tinycbor..File$u20$as$u20$core..fmt..Debug$GT$3fmt17h08f74d96e687af17E():
/mnt/c/stm32bluepill-mynewt-sensor/src/mynewt/tinycbor.rs:54
            stringify!(read)
        )
    );
}
#[repr(C)]
#[derive(Debug, Copy, Clone)]
   0:	b580      	push	{r7, lr}
   2:	b08c      	sub	sp, #48	; 0x30
   4:	460a      	mov	r2, r1
   6:	4603      	mov	r3, r0
   8:	9006      	str	r0, [sp, #24]
   a:	9107      	str	r1, [sp, #28]
/mnt/c/stm32bluepill-mynewt-sensor/src/mynewt/tinycbor.rs:56
pub struct File {
    pub vmt: *const File_methods,
   c:	9806      	ldr	r0, [sp, #24]
   e:	9008      	str	r0, [sp, #32]
/mnt/c/stm32bluepill-mynewt-sensor/src/mynewt/tinycbor.rs:54
#[derive(Debug, Copy, Clone)]
  10:	9907      	ldr	r1, [sp, #28]
  12:	f240 0000 	movw	r0, #0
  16:	f2c0 0000 	movt	r0, #0
  1a:	f10d 0c24 	add.w	ip, sp, #36	; 0x24
  1e:	f04f 0e04 	mov.w	lr, #4
  22:	9005      	str	r0, [sp, #20]
  24:	4660      	mov	r0, ip
  26:	f8dd c014 	ldr.w	ip, [sp, #20]
  2a:	9204      	str	r2, [sp, #16]
  2c:	4662      	mov	r2, ip
  2e:	9303      	str	r3, [sp, #12]
  30:	4673      	mov	r3, lr
  32:	f7ff fffe 	bl	0 <_ZN4core3fmt9Formatter12debug_struct17h0a14031b095ee1baE>
  36:	e7ff      	b.n	38 <_ZN66_$LT$mylib..mynewt..tinycbor..File$u20$as$u20$core..fmt..Debug$GT$3fmt17h08f74d96e687af17E+0x38>
/mnt/c/stm32bluepill-mynewt-sensor/src/mynewt/tinycbor.rs:56
    pub vmt: *const File_methods,
  38:	9808      	ldr	r0, [sp, #32]
  3a:	900b      	str	r0, [sp, #44]	; 0x2c
/mnt/c/stm32bluepill-mynewt-sensor/src/mynewt/tinycbor.rs:54
#[derive(Debug, Copy, Clone)]
  3c:	f240 0000 	movw	r0, #0
  40:	f2c0 0000 	movt	r0, #0
  44:	4669      	mov	r1, sp
  46:	6008      	str	r0, [r1, #0]
  48:	f240 0100 	movw	r1, #0
  4c:	f2c0 0100 	movt	r1, #0
  50:	a809      	add	r0, sp, #36	; 0x24
  52:	2203      	movs	r2, #3
  54:	ab0b      	add	r3, sp, #44	; 0x2c
  56:	f7ff fffe 	bl	0 <_ZN4core3fmt8builders11DebugStruct5field17h80023aaf54882542E>
  5a:	9002      	str	r0, [sp, #8]
  5c:	e7ff      	b.n	5e <_ZN66_$LT$mylib..mynewt..tinycbor..File$u20$as$u20$core..fmt..Debug$GT$3fmt17h08f74d96e687af17E+0x5e>
  5e:	a809      	add	r0, sp, #36	; 0x24
  60:	f7ff fffe 	bl	0 <_ZN4core3fmt8builders11DebugStruct6finish17h9090cd1e84004b71E>
  64:	9001      	str	r0, [sp, #4]
  66:	e7ff      	b.n	68 <_ZN66_$LT$mylib..mynewt..tinycbor..File$u20$as$u20$core..fmt..Debug$GT$3fmt17h08f74d96e687af17E+0x68>
  68:	9801      	ldr	r0, [sp, #4]
  6a:	f000 0001 	and.w	r0, r0, #1
  6e:	b00c      	add	sp, #48	; 0x30
  70:	bd80      	pop	{r7, pc}

Disassembly of section .text._ZN81_$LT$mylib..mynewt..tinycbor..cbor_encoder_writer$u20$as$u20$core..fmt..Debug$GT$3fmt17h144325543e71d5c5E:

00000000 <_ZN81_$LT$mylib..mynewt..tinycbor..cbor_encoder_writer$u20$as$u20$core..fmt..Debug$GT$3fmt17h144325543e71d5c5E>:
_ZN81_$LT$mylib..mynewt..tinycbor..cbor_encoder_writer$u20$as$u20$core..fmt..Debug$GT$3fmt17h144325543e71d5c5E():
/mnt/c/stm32bluepill-mynewt-sensor/src/mynewt/tinycbor.rs:147
        data: *const ::cty::c_char,
        len: ::cty::c_int,
    ) -> ::cty::c_int,
>;
#[repr(C)]
#[derive(Debug, Copy, Clone)]
   0:	b580      	push	{r7, lr}
   2:	b090      	sub	sp, #64	; 0x40
   4:	460a      	mov	r2, r1
   6:	4603      	mov	r3, r0
   8:	9008      	str	r0, [sp, #32]
   a:	9109      	str	r1, [sp, #36]	; 0x24
/mnt/c/stm32bluepill-mynewt-sensor/src/mynewt/tinycbor.rs:149
pub struct cbor_encoder_writer {
    pub write: cbor_encoder_write,
   c:	9808      	ldr	r0, [sp, #32]
   e:	900a      	str	r0, [sp, #40]	; 0x28
/mnt/c/stm32bluepill-mynewt-sensor/src/mynewt/tinycbor.rs:150
    pub bytes_written: ::cty::c_int,
  10:	9808      	ldr	r0, [sp, #32]
  12:	3004      	adds	r0, #4
  14:	900b      	str	r0, [sp, #44]	; 0x2c
/mnt/c/stm32bluepill-mynewt-sensor/src/mynewt/tinycbor.rs:147
#[derive(Debug, Copy, Clone)]
  16:	9909      	ldr	r1, [sp, #36]	; 0x24
  18:	f240 0000 	movw	r0, #0
  1c:	f2c0 0000 	movt	r0, #0
  20:	f10d 0c30 	add.w	ip, sp, #48	; 0x30
  24:	f04f 0e13 	mov.w	lr, #19
  28:	9007      	str	r0, [sp, #28]
  2a:	4660      	mov	r0, ip
  2c:	f8dd c01c 	ldr.w	ip, [sp, #28]
  30:	9206      	str	r2, [sp, #24]
  32:	4662      	mov	r2, ip
  34:	9305      	str	r3, [sp, #20]
  36:	4673      	mov	r3, lr
  38:	f7ff fffe 	bl	0 <_ZN4core3fmt9Formatter12debug_struct17h0a14031b095ee1baE>
  3c:	e7ff      	b.n	3e <_ZN81_$LT$mylib..mynewt..tinycbor..cbor_encoder_writer$u20$as$u20$core..fmt..Debug$GT$3fmt17h144325543e71d5c5E+0x3e>
/mnt/c/stm32bluepill-mynewt-sensor/src/mynewt/tinycbor.rs:149
    pub write: cbor_encoder_write,
  3e:	980a      	ldr	r0, [sp, #40]	; 0x28
  40:	900e      	str	r0, [sp, #56]	; 0x38
/mnt/c/stm32bluepill-mynewt-sensor/src/mynewt/tinycbor.rs:147
#[derive(Debug, Copy, Clone)]
  42:	f240 0000 	movw	r0, #0
  46:	f2c0 0000 	movt	r0, #0
  4a:	4669      	mov	r1, sp
  4c:	6008      	str	r0, [r1, #0]
  4e:	f240 0100 	movw	r1, #0
  52:	f2c0 0100 	movt	r1, #0
  56:	a80c      	add	r0, sp, #48	; 0x30
  58:	2205      	movs	r2, #5
  5a:	ab0e      	add	r3, sp, #56	; 0x38
  5c:	f7ff fffe 	bl	0 <_ZN4core3fmt8builders11DebugStruct5field17h80023aaf54882542E>
  60:	9004      	str	r0, [sp, #16]
  62:	e7ff      	b.n	64 <_ZN81_$LT$mylib..mynewt..tinycbor..cbor_encoder_writer$u20$as$u20$core..fmt..Debug$GT$3fmt17h144325543e71d5c5E+0x64>
/mnt/c/stm32bluepill-mynewt-sensor/src/mynewt/tinycbor.rs:150
    pub bytes_written: ::cty::c_int,
  64:	980b      	ldr	r0, [sp, #44]	; 0x2c
  66:	900f      	str	r0, [sp, #60]	; 0x3c
/mnt/c/stm32bluepill-mynewt-sensor/src/mynewt/tinycbor.rs:147
#[derive(Debug, Copy, Clone)]
  68:	f240 0000 	movw	r0, #0
  6c:	f2c0 0000 	movt	r0, #0
  70:	4669      	mov	r1, sp
  72:	6008      	str	r0, [r1, #0]
  74:	f240 0100 	movw	r1, #0
  78:	f2c0 0100 	movt	r1, #0
  7c:	a80c      	add	r0, sp, #48	; 0x30
  7e:	220d      	movs	r2, #13
  80:	ab0f      	add	r3, sp, #60	; 0x3c
  82:	f7ff fffe 	bl	0 <_ZN4core3fmt8builders11DebugStruct5field17h80023aaf54882542E>
  86:	9003      	str	r0, [sp, #12]
  88:	e7ff      	b.n	8a <_ZN81_$LT$mylib..mynewt..tinycbor..cbor_encoder_writer$u20$as$u20$core..fmt..Debug$GT$3fmt17h144325543e71d5c5E+0x8a>
  8a:	a80c      	add	r0, sp, #48	; 0x30
  8c:	f7ff fffe 	bl	0 <_ZN4core3fmt8builders11DebugStruct6finish17h9090cd1e84004b71E>
  90:	9002      	str	r0, [sp, #8]
  92:	e7ff      	b.n	94 <_ZN81_$LT$mylib..mynewt..tinycbor..cbor_encoder_writer$u20$as$u20$core..fmt..Debug$GT$3fmt17h144325543e71d5c5E+0x94>
  94:	9802      	ldr	r0, [sp, #8]
  96:	f000 0001 	and.w	r0, r0, #1
  9a:	b010      	add	sp, #64	; 0x40
  9c:	bd80      	pop	{r7, pc}

Disassembly of section .text._ZN72_$LT$mylib..mynewt..tinycbor..cbor_iovec$u20$as$u20$core..fmt..Debug$GT$3fmt17h1eaa7e565bb58badE:

00000000 <_ZN72_$LT$mylib..mynewt..tinycbor..cbor_iovec$u20$as$u20$core..fmt..Debug$GT$3fmt17h1eaa7e565bb58badE>:
_ZN72_$LT$mylib..mynewt..tinycbor..cbor_iovec$u20$as$u20$core..fmt..Debug$GT$3fmt17h1eaa7e565bb58badE():
/mnt/c/stm32bluepill-mynewt-sensor/src/mynewt/tinycbor.rs:188
            stringify!(bytes_written)
        )
    );
}
#[repr(C)]
#[derive(Debug, Copy, Clone)]
   0:	b580      	push	{r7, lr}
   2:	b090      	sub	sp, #64	; 0x40
   4:	460a      	mov	r2, r1
   6:	4603      	mov	r3, r0
   8:	9008      	str	r0, [sp, #32]
   a:	9109      	str	r1, [sp, #36]	; 0x24
/mnt/c/stm32bluepill-mynewt-sensor/src/mynewt/tinycbor.rs:190
pub struct cbor_iovec {
    pub iov_base: *mut ::cty::c_void,
   c:	9808      	ldr	r0, [sp, #32]
   e:	900a      	str	r0, [sp, #40]	; 0x28
/mnt/c/stm32bluepill-mynewt-sensor/src/mynewt/tinycbor.rs:191
    pub iov_len: usize,
  10:	9808      	ldr	r0, [sp, #32]
  12:	3004      	adds	r0, #4
  14:	900b      	str	r0, [sp, #44]	; 0x2c
/mnt/c/stm32bluepill-mynewt-sensor/src/mynewt/tinycbor.rs:188
#[derive(Debug, Copy, Clone)]
  16:	9909      	ldr	r1, [sp, #36]	; 0x24
  18:	f240 0000 	movw	r0, #0
  1c:	f2c0 0000 	movt	r0, #0
  20:	f10d 0c30 	add.w	ip, sp, #48	; 0x30
  24:	f04f 0e0a 	mov.w	lr, #10
  28:	9007      	str	r0, [sp, #28]
  2a:	4660      	mov	r0, ip
  2c:	f8dd c01c 	ldr.w	ip, [sp, #28]
  30:	9206      	str	r2, [sp, #24]
  32:	4662      	mov	r2, ip
  34:	9305      	str	r3, [sp, #20]
  36:	4673      	mov	r3, lr
  38:	f7ff fffe 	bl	0 <_ZN4core3fmt9Formatter12debug_struct17h0a14031b095ee1baE>
  3c:	e7ff      	b.n	3e <_ZN72_$LT$mylib..mynewt..tinycbor..cbor_iovec$u20$as$u20$core..fmt..Debug$GT$3fmt17h1eaa7e565bb58badE+0x3e>
/mnt/c/stm32bluepill-mynewt-sensor/src/mynewt/tinycbor.rs:190
    pub iov_base: *mut ::cty::c_void,
  3e:	980a      	ldr	r0, [sp, #40]	; 0x28
  40:	900e      	str	r0, [sp, #56]	; 0x38
/mnt/c/stm32bluepill-mynewt-sensor/src/mynewt/tinycbor.rs:188
#[derive(Debug, Copy, Clone)]
  42:	f240 0000 	movw	r0, #0
  46:	f2c0 0000 	movt	r0, #0
  4a:	4669      	mov	r1, sp
  4c:	6008      	str	r0, [r1, #0]
  4e:	f240 0100 	movw	r1, #0
  52:	f2c0 0100 	movt	r1, #0
  56:	a80c      	add	r0, sp, #48	; 0x30
  58:	2208      	movs	r2, #8
  5a:	ab0e      	add	r3, sp, #56	; 0x38
  5c:	f7ff fffe 	bl	0 <_ZN4core3fmt8builders11DebugStruct5field17h80023aaf54882542E>
  60:	9004      	str	r0, [sp, #16]
  62:	e7ff      	b.n	64 <_ZN72_$LT$mylib..mynewt..tinycbor..cbor_iovec$u20$as$u20$core..fmt..Debug$GT$3fmt17h1eaa7e565bb58badE+0x64>
/mnt/c/stm32bluepill-mynewt-sensor/src/mynewt/tinycbor.rs:191
    pub iov_len: usize,
  64:	980b      	ldr	r0, [sp, #44]	; 0x2c
  66:	900f      	str	r0, [sp, #60]	; 0x3c
/mnt/c/stm32bluepill-mynewt-sensor/src/mynewt/tinycbor.rs:188
#[derive(Debug, Copy, Clone)]
  68:	f240 0000 	movw	r0, #0
  6c:	f2c0 0000 	movt	r0, #0
  70:	4669      	mov	r1, sp
  72:	6008      	str	r0, [r1, #0]
  74:	f240 0100 	movw	r1, #0
  78:	f2c0 0100 	movt	r1, #0
  7c:	a80c      	add	r0, sp, #48	; 0x30
  7e:	2207      	movs	r2, #7
  80:	ab0f      	add	r3, sp, #60	; 0x3c
  82:	f7ff fffe 	bl	0 <_ZN4core3fmt8builders11DebugStruct5field17h80023aaf54882542E>
  86:	9003      	str	r0, [sp, #12]
  88:	e7ff      	b.n	8a <_ZN72_$LT$mylib..mynewt..tinycbor..cbor_iovec$u20$as$u20$core..fmt..Debug$GT$3fmt17h1eaa7e565bb58badE+0x8a>
  8a:	a80c      	add	r0, sp, #48	; 0x30
  8c:	f7ff fffe 	bl	0 <_ZN4core3fmt8builders11DebugStruct6finish17h9090cd1e84004b71E>
  90:	9002      	str	r0, [sp, #8]
  92:	e7ff      	b.n	94 <_ZN72_$LT$mylib..mynewt..tinycbor..cbor_iovec$u20$as$u20$core..fmt..Debug$GT$3fmt17h1eaa7e565bb58badE+0x94>
  94:	9802      	ldr	r0, [sp, #8]
  96:	f000 0001 	and.w	r0, r0, #1
  9a:	b010      	add	sp, #64	; 0x40
  9c:	bd80      	pop	{r7, pc}

Disassembly of section .text._ZN73_$LT$mylib..mynewt..tinycbor..CborEncoder$u20$as$u20$core..fmt..Debug$GT$3fmt17hc65cec1eb1bc6a79E:

00000000 <_ZN73_$LT$mylib..mynewt..tinycbor..CborEncoder$u20$as$u20$core..fmt..Debug$GT$3fmt17hc65cec1eb1bc6a79E>:
_ZN73_$LT$mylib..mynewt..tinycbor..CborEncoder$u20$as$u20$core..fmt..Debug$GT$3fmt17hc65cec1eb1bc6a79E():
/mnt/c/stm32bluepill-mynewt-sensor/src/mynewt/tinycbor.rs:227
            stringify!(iov_len)
        )
    );
}
#[repr(C)]
#[derive(Debug, Copy, Clone)]
   0:	b580      	push	{r7, lr}
   2:	b096      	sub	sp, #88	; 0x58
   4:	460a      	mov	r2, r1
   6:	4603      	mov	r3, r0
   8:	900a      	str	r0, [sp, #40]	; 0x28
   a:	910b      	str	r1, [sp, #44]	; 0x2c
/mnt/c/stm32bluepill-mynewt-sensor/src/mynewt/tinycbor.rs:229
pub struct CborEncoder {
    pub writer: *mut cbor_encoder_writer,
   c:	980a      	ldr	r0, [sp, #40]	; 0x28
   e:	900c      	str	r0, [sp, #48]	; 0x30
/mnt/c/stm32bluepill-mynewt-sensor/src/mynewt/tinycbor.rs:230
    pub writer_arg: *mut ::cty::c_void,
  10:	980a      	ldr	r0, [sp, #40]	; 0x28
  12:	3004      	adds	r0, #4
  14:	900d      	str	r0, [sp, #52]	; 0x34
/mnt/c/stm32bluepill-mynewt-sensor/src/mynewt/tinycbor.rs:231
    pub added: usize,
  16:	980a      	ldr	r0, [sp, #40]	; 0x28
  18:	3008      	adds	r0, #8
  1a:	900e      	str	r0, [sp, #56]	; 0x38
/mnt/c/stm32bluepill-mynewt-sensor/src/mynewt/tinycbor.rs:232
    pub flags: ::cty::c_int,
  1c:	980a      	ldr	r0, [sp, #40]	; 0x28
  1e:	300c      	adds	r0, #12
  20:	900f      	str	r0, [sp, #60]	; 0x3c
/mnt/c/stm32bluepill-mynewt-sensor/src/mynewt/tinycbor.rs:227
#[derive(Debug, Copy, Clone)]
  22:	990b      	ldr	r1, [sp, #44]	; 0x2c
  24:	f240 0000 	movw	r0, #0
  28:	f2c0 0000 	movt	r0, #0
  2c:	f10d 0c40 	add.w	ip, sp, #64	; 0x40
  30:	f04f 0e0b 	mov.w	lr, #11
  34:	9009      	str	r0, [sp, #36]	; 0x24
  36:	4660      	mov	r0, ip
  38:	f8dd c024 	ldr.w	ip, [sp, #36]	; 0x24
  3c:	9208      	str	r2, [sp, #32]
  3e:	4662      	mov	r2, ip
  40:	9307      	str	r3, [sp, #28]
  42:	4673      	mov	r3, lr
  44:	f7ff fffe 	bl	0 <_ZN4core3fmt9Formatter12debug_struct17h0a14031b095ee1baE>
  48:	e7ff      	b.n	4a <_ZN73_$LT$mylib..mynewt..tinycbor..CborEncoder$u20$as$u20$core..fmt..Debug$GT$3fmt17hc65cec1eb1bc6a79E+0x4a>
/mnt/c/stm32bluepill-mynewt-sensor/src/mynewt/tinycbor.rs:229
    pub writer: *mut cbor_encoder_writer,
  4a:	980c      	ldr	r0, [sp, #48]	; 0x30
  4c:	9012      	str	r0, [sp, #72]	; 0x48
/mnt/c/stm32bluepill-mynewt-sensor/src/mynewt/tinycbor.rs:227
#[derive(Debug, Copy, Clone)]
  4e:	f240 0000 	movw	r0, #0
  52:	f2c0 0000 	movt	r0, #0
  56:	4669      	mov	r1, sp
  58:	6008      	str	r0, [r1, #0]
  5a:	f240 0100 	movw	r1, #0
  5e:	f2c0 0100 	movt	r1, #0
  62:	a810      	add	r0, sp, #64	; 0x40
  64:	2206      	movs	r2, #6
  66:	ab12      	add	r3, sp, #72	; 0x48
  68:	f7ff fffe 	bl	0 <_ZN4core3fmt8builders11DebugStruct5field17h80023aaf54882542E>
  6c:	9006      	str	r0, [sp, #24]
  6e:	e7ff      	b.n	70 <_ZN73_$LT$mylib..mynewt..tinycbor..CborEncoder$u20$as$u20$core..fmt..Debug$GT$3fmt17hc65cec1eb1bc6a79E+0x70>
/mnt/c/stm32bluepill-mynewt-sensor/src/mynewt/tinycbor.rs:230
    pub writer_arg: *mut ::cty::c_void,
  70:	980d      	ldr	r0, [sp, #52]	; 0x34
  72:	9013      	str	r0, [sp, #76]	; 0x4c
/mnt/c/stm32bluepill-mynewt-sensor/src/mynewt/tinycbor.rs:227
#[derive(Debug, Copy, Clone)]
  74:	f240 0000 	movw	r0, #0
  78:	f2c0 0000 	movt	r0, #0
  7c:	4669      	mov	r1, sp
  7e:	6008      	str	r0, [r1, #0]
  80:	f240 0100 	movw	r1, #0
  84:	f2c0 0100 	movt	r1, #0
  88:	a810      	add	r0, sp, #64	; 0x40
  8a:	220a      	movs	r2, #10
  8c:	ab13      	add	r3, sp, #76	; 0x4c
  8e:	f7ff fffe 	bl	0 <_ZN4core3fmt8builders11DebugStruct5field17h80023aaf54882542E>
  92:	9005      	str	r0, [sp, #20]
  94:	e7ff      	b.n	96 <_ZN73_$LT$mylib..mynewt..tinycbor..CborEncoder$u20$as$u20$core..fmt..Debug$GT$3fmt17hc65cec1eb1bc6a79E+0x96>
/mnt/c/stm32bluepill-mynewt-sensor/src/mynewt/tinycbor.rs:231
    pub added: usize,
  96:	980e      	ldr	r0, [sp, #56]	; 0x38
  98:	9014      	str	r0, [sp, #80]	; 0x50
/mnt/c/stm32bluepill-mynewt-sensor/src/mynewt/tinycbor.rs:227
#[derive(Debug, Copy, Clone)]
  9a:	f240 0000 	movw	r0, #0
  9e:	f2c0 0000 	movt	r0, #0
  a2:	4669      	mov	r1, sp
  a4:	6008      	str	r0, [r1, #0]
  a6:	f240 0100 	movw	r1, #0
  aa:	f2c0 0100 	movt	r1, #0
  ae:	a810      	add	r0, sp, #64	; 0x40
  b0:	2205      	movs	r2, #5
  b2:	ab14      	add	r3, sp, #80	; 0x50
  b4:	f7ff fffe 	bl	0 <_ZN4core3fmt8builders11DebugStruct5field17h80023aaf54882542E>
  b8:	9004      	str	r0, [sp, #16]
  ba:	e7ff      	b.n	bc <_ZN73_$LT$mylib..mynewt..tinycbor..CborEncoder$u20$as$u20$core..fmt..Debug$GT$3fmt17hc65cec1eb1bc6a79E+0xbc>
/mnt/c/stm32bluepill-mynewt-sensor/src/mynewt/tinycbor.rs:232
    pub flags: ::cty::c_int,
  bc:	980f      	ldr	r0, [sp, #60]	; 0x3c
  be:	9015      	str	r0, [sp, #84]	; 0x54
/mnt/c/stm32bluepill-mynewt-sensor/src/mynewt/tinycbor.rs:227
#[derive(Debug, Copy, Clone)]
  c0:	f240 0000 	movw	r0, #0
  c4:	f2c0 0000 	movt	r0, #0
  c8:	4669      	mov	r1, sp
  ca:	6008      	str	r0, [r1, #0]
  cc:	f240 0100 	movw	r1, #0
  d0:	f2c0 0100 	movt	r1, #0
  d4:	a810      	add	r0, sp, #64	; 0x40
  d6:	2205      	movs	r2, #5
  d8:	ab15      	add	r3, sp, #84	; 0x54
  da:	f7ff fffe 	bl	0 <_ZN4core3fmt8builders11DebugStruct5field17h80023aaf54882542E>
  de:	9003      	str	r0, [sp, #12]
  e0:	e7ff      	b.n	e2 <_ZN73_$LT$mylib..mynewt..tinycbor..CborEncoder$u20$as$u20$core..fmt..Debug$GT$3fmt17hc65cec1eb1bc6a79E+0xe2>
  e2:	a810      	add	r0, sp, #64	; 0x40
  e4:	f7ff fffe 	bl	0 <_ZN4core3fmt8builders11DebugStruct6finish17h9090cd1e84004b71E>
  e8:	9002      	str	r0, [sp, #8]
  ea:	e7ff      	b.n	ec <_ZN73_$LT$mylib..mynewt..tinycbor..CborEncoder$u20$as$u20$core..fmt..Debug$GT$3fmt17hc65cec1eb1bc6a79E+0xec>
  ec:	9802      	ldr	r0, [sp, #8]
  ee:	f000 0001 	and.w	r0, r0, #1
  f2:	b016      	add	sp, #88	; 0x58
  f4:	bd80      	pop	{r7, pc}

Disassembly of section .text._ZN81_$LT$mylib..mynewt..tinycbor..cbor_decoder_reader$u20$as$u20$core..fmt..Debug$GT$3fmt17hbb3beeca788e9aedE:

00000000 <_ZN81_$LT$mylib..mynewt..tinycbor..cbor_decoder_reader$u20$as$u20$core..fmt..Debug$GT$3fmt17hbb3beeca788e9aedE>:
_ZN81_$LT$mylib..mynewt..tinycbor..cbor_decoder_reader$u20$as$u20$core..fmt..Debug$GT$3fmt17hbb3beeca788e9aedE():
/mnt/c/stm32bluepill-mynewt-sensor/src/mynewt/tinycbor.rs:405
        offset: ::cty::c_int,
        len: usize,
    ) -> usize,
>;
#[repr(C)]
#[derive(Debug, Copy, Clone)]
   0:	b580      	push	{r7, lr}
   2:	b09e      	sub	sp, #120	; 0x78
   4:	460a      	mov	r2, r1
   6:	4603      	mov	r3, r0
   8:	900c      	str	r0, [sp, #48]	; 0x30
   a:	910d      	str	r1, [sp, #52]	; 0x34
/mnt/c/stm32bluepill-mynewt-sensor/src/mynewt/tinycbor.rs:407
pub struct cbor_decoder_reader {
    pub get8: cbor_reader_get8,
   c:	980c      	ldr	r0, [sp, #48]	; 0x30
   e:	900e      	str	r0, [sp, #56]	; 0x38
/mnt/c/stm32bluepill-mynewt-sensor/src/mynewt/tinycbor.rs:408
    pub get16: cbor_reader_get16,
  10:	980c      	ldr	r0, [sp, #48]	; 0x30
  12:	3004      	adds	r0, #4
  14:	900f      	str	r0, [sp, #60]	; 0x3c
/mnt/c/stm32bluepill-mynewt-sensor/src/mynewt/tinycbor.rs:409
    pub get32: cbor_reader_get32,
  16:	980c      	ldr	r0, [sp, #48]	; 0x30
  18:	3008      	adds	r0, #8
  1a:	9010      	str	r0, [sp, #64]	; 0x40
/mnt/c/stm32bluepill-mynewt-sensor/src/mynewt/tinycbor.rs:410
    pub get64: cbor_reader_get64,
  1c:	980c      	ldr	r0, [sp, #48]	; 0x30
  1e:	300c      	adds	r0, #12
  20:	9011      	str	r0, [sp, #68]	; 0x44
/mnt/c/stm32bluepill-mynewt-sensor/src/mynewt/tinycbor.rs:411
    pub cmp: cbor_memcmp,
  22:	980c      	ldr	r0, [sp, #48]	; 0x30
  24:	3010      	adds	r0, #16
  26:	9012      	str	r0, [sp, #72]	; 0x48
/mnt/c/stm32bluepill-mynewt-sensor/src/mynewt/tinycbor.rs:412
    pub cpy: cbor_memcpy,
  28:	980c      	ldr	r0, [sp, #48]	; 0x30
  2a:	3014      	adds	r0, #20
  2c:	9013      	str	r0, [sp, #76]	; 0x4c
/mnt/c/stm32bluepill-mynewt-sensor/src/mynewt/tinycbor.rs:413
    pub message_size: usize,
  2e:	980c      	ldr	r0, [sp, #48]	; 0x30
  30:	3018      	adds	r0, #24
  32:	9014      	str	r0, [sp, #80]	; 0x50
/mnt/c/stm32bluepill-mynewt-sensor/src/mynewt/tinycbor.rs:405
#[derive(Debug, Copy, Clone)]
  34:	990d      	ldr	r1, [sp, #52]	; 0x34
  36:	f240 0000 	movw	r0, #0
  3a:	f2c0 0000 	movt	r0, #0
  3e:	f10d 0c54 	add.w	ip, sp, #84	; 0x54
  42:	f04f 0e13 	mov.w	lr, #19
  46:	900b      	str	r0, [sp, #44]	; 0x2c
  48:	4660      	mov	r0, ip
  4a:	f8dd c02c 	ldr.w	ip, [sp, #44]	; 0x2c
  4e:	920a      	str	r2, [sp, #40]	; 0x28
  50:	4662      	mov	r2, ip
  52:	9309      	str	r3, [sp, #36]	; 0x24
  54:	4673      	mov	r3, lr
  56:	f7ff fffe 	bl	0 <_ZN4core3fmt9Formatter12debug_struct17h0a14031b095ee1baE>
  5a:	e7ff      	b.n	5c <_ZN81_$LT$mylib..mynewt..tinycbor..cbor_decoder_reader$u20$as$u20$core..fmt..Debug$GT$3fmt17hbb3beeca788e9aedE+0x5c>
/mnt/c/stm32bluepill-mynewt-sensor/src/mynewt/tinycbor.rs:407
    pub get8: cbor_reader_get8,
  5c:	980e      	ldr	r0, [sp, #56]	; 0x38
  5e:	9017      	str	r0, [sp, #92]	; 0x5c
/mnt/c/stm32bluepill-mynewt-sensor/src/mynewt/tinycbor.rs:405
#[derive(Debug, Copy, Clone)]
  60:	f240 0000 	movw	r0, #0
  64:	f2c0 0000 	movt	r0, #0
  68:	4669      	mov	r1, sp
  6a:	6008      	str	r0, [r1, #0]
  6c:	f240 0100 	movw	r1, #0
  70:	f2c0 0100 	movt	r1, #0
  74:	a815      	add	r0, sp, #84	; 0x54
  76:	2204      	movs	r2, #4
  78:	ab17      	add	r3, sp, #92	; 0x5c
  7a:	f7ff fffe 	bl	0 <_ZN4core3fmt8builders11DebugStruct5field17h80023aaf54882542E>
  7e:	9008      	str	r0, [sp, #32]
  80:	e7ff      	b.n	82 <_ZN81_$LT$mylib..mynewt..tinycbor..cbor_decoder_reader$u20$as$u20$core..fmt..Debug$GT$3fmt17hbb3beeca788e9aedE+0x82>
/mnt/c/stm32bluepill-mynewt-sensor/src/mynewt/tinycbor.rs:408
    pub get16: cbor_reader_get16,
  82:	980f      	ldr	r0, [sp, #60]	; 0x3c
  84:	9018      	str	r0, [sp, #96]	; 0x60
/mnt/c/stm32bluepill-mynewt-sensor/src/mynewt/tinycbor.rs:405
#[derive(Debug, Copy, Clone)]
  86:	f240 0000 	movw	r0, #0
  8a:	f2c0 0000 	movt	r0, #0
  8e:	4669      	mov	r1, sp
  90:	6008      	str	r0, [r1, #0]
  92:	f240 0100 	movw	r1, #0
  96:	f2c0 0100 	movt	r1, #0
  9a:	a815      	add	r0, sp, #84	; 0x54
  9c:	2205      	movs	r2, #5
  9e:	ab18      	add	r3, sp, #96	; 0x60
  a0:	f7ff fffe 	bl	0 <_ZN4core3fmt8builders11DebugStruct5field17h80023aaf54882542E>
  a4:	9007      	str	r0, [sp, #28]
  a6:	e7ff      	b.n	a8 <_ZN81_$LT$mylib..mynewt..tinycbor..cbor_decoder_reader$u20$as$u20$core..fmt..Debug$GT$3fmt17hbb3beeca788e9aedE+0xa8>
/mnt/c/stm32bluepill-mynewt-sensor/src/mynewt/tinycbor.rs:409
    pub get32: cbor_reader_get32,
  a8:	9810      	ldr	r0, [sp, #64]	; 0x40
  aa:	9019      	str	r0, [sp, #100]	; 0x64
/mnt/c/stm32bluepill-mynewt-sensor/src/mynewt/tinycbor.rs:405
#[derive(Debug, Copy, Clone)]
  ac:	f240 0000 	movw	r0, #0
  b0:	f2c0 0000 	movt	r0, #0
  b4:	4669      	mov	r1, sp
  b6:	6008      	str	r0, [r1, #0]
  b8:	f240 0100 	movw	r1, #0
  bc:	f2c0 0100 	movt	r1, #0
  c0:	a815      	add	r0, sp, #84	; 0x54
  c2:	2205      	movs	r2, #5
  c4:	ab19      	add	r3, sp, #100	; 0x64
  c6:	f7ff fffe 	bl	0 <_ZN4core3fmt8builders11DebugStruct5field17h80023aaf54882542E>
  ca:	9006      	str	r0, [sp, #24]
  cc:	e7ff      	b.n	ce <_ZN81_$LT$mylib..mynewt..tinycbor..cbor_decoder_reader$u20$as$u20$core..fmt..Debug$GT$3fmt17hbb3beeca788e9aedE+0xce>
/mnt/c/stm32bluepill-mynewt-sensor/src/mynewt/tinycbor.rs:410
    pub get64: cbor_reader_get64,
  ce:	9811      	ldr	r0, [sp, #68]	; 0x44
  d0:	901a      	str	r0, [sp, #104]	; 0x68
/mnt/c/stm32bluepill-mynewt-sensor/src/mynewt/tinycbor.rs:405
#[derive(Debug, Copy, Clone)]
  d2:	f240 0000 	movw	r0, #0
  d6:	f2c0 0000 	movt	r0, #0
  da:	4669      	mov	r1, sp
  dc:	6008      	str	r0, [r1, #0]
  de:	f240 0100 	movw	r1, #0
  e2:	f2c0 0100 	movt	r1, #0
  e6:	a815      	add	r0, sp, #84	; 0x54
  e8:	2205      	movs	r2, #5
  ea:	ab1a      	add	r3, sp, #104	; 0x68
  ec:	f7ff fffe 	bl	0 <_ZN4core3fmt8builders11DebugStruct5field17h80023aaf54882542E>
  f0:	9005      	str	r0, [sp, #20]
  f2:	e7ff      	b.n	f4 <_ZN81_$LT$mylib..mynewt..tinycbor..cbor_decoder_reader$u20$as$u20$core..fmt..Debug$GT$3fmt17hbb3beeca788e9aedE+0xf4>
/mnt/c/stm32bluepill-mynewt-sensor/src/mynewt/tinycbor.rs:411
    pub cmp: cbor_memcmp,
  f4:	9812      	ldr	r0, [sp, #72]	; 0x48
  f6:	901b      	str	r0, [sp, #108]	; 0x6c
/mnt/c/stm32bluepill-mynewt-sensor/src/mynewt/tinycbor.rs:405
#[derive(Debug, Copy, Clone)]
  f8:	f240 0000 	movw	r0, #0
  fc:	f2c0 0000 	movt	r0, #0
 100:	4669      	mov	r1, sp
 102:	6008      	str	r0, [r1, #0]
 104:	f240 0100 	movw	r1, #0
 108:	f2c0 0100 	movt	r1, #0
 10c:	a815      	add	r0, sp, #84	; 0x54
 10e:	2203      	movs	r2, #3
 110:	ab1b      	add	r3, sp, #108	; 0x6c
 112:	f7ff fffe 	bl	0 <_ZN4core3fmt8builders11DebugStruct5field17h80023aaf54882542E>
 116:	9004      	str	r0, [sp, #16]
 118:	e7ff      	b.n	11a <_ZN81_$LT$mylib..mynewt..tinycbor..cbor_decoder_reader$u20$as$u20$core..fmt..Debug$GT$3fmt17hbb3beeca788e9aedE+0x11a>
/mnt/c/stm32bluepill-mynewt-sensor/src/mynewt/tinycbor.rs:412
    pub cpy: cbor_memcpy,
 11a:	9813      	ldr	r0, [sp, #76]	; 0x4c
 11c:	901c      	str	r0, [sp, #112]	; 0x70
/mnt/c/stm32bluepill-mynewt-sensor/src/mynewt/tinycbor.rs:405
#[derive(Debug, Copy, Clone)]
 11e:	f240 0000 	movw	r0, #0
 122:	f2c0 0000 	movt	r0, #0
 126:	4669      	mov	r1, sp
 128:	6008      	str	r0, [r1, #0]
 12a:	f240 0100 	movw	r1, #0
 12e:	f2c0 0100 	movt	r1, #0
 132:	a815      	add	r0, sp, #84	; 0x54
 134:	2203      	movs	r2, #3
 136:	ab1c      	add	r3, sp, #112	; 0x70
 138:	f7ff fffe 	bl	0 <_ZN4core3fmt8builders11DebugStruct5field17h80023aaf54882542E>
 13c:	9003      	str	r0, [sp, #12]
 13e:	e7ff      	b.n	140 <_ZN81_$LT$mylib..mynewt..tinycbor..cbor_decoder_reader$u20$as$u20$core..fmt..Debug$GT$3fmt17hbb3beeca788e9aedE+0x140>
/mnt/c/stm32bluepill-mynewt-sensor/src/mynewt/tinycbor.rs:413
    pub message_size: usize,
 140:	9814      	ldr	r0, [sp, #80]	; 0x50
 142:	901d      	str	r0, [sp, #116]	; 0x74
/mnt/c/stm32bluepill-mynewt-sensor/src/mynewt/tinycbor.rs:405
#[derive(Debug, Copy, Clone)]
 144:	f240 0000 	movw	r0, #0
 148:	f2c0 0000 	movt	r0, #0
 14c:	4669      	mov	r1, sp
 14e:	6008      	str	r0, [r1, #0]
 150:	f240 0100 	movw	r1, #0
 154:	f2c0 0100 	movt	r1, #0
 158:	a815      	add	r0, sp, #84	; 0x54
 15a:	220c      	movs	r2, #12
 15c:	ab1d      	add	r3, sp, #116	; 0x74
 15e:	f7ff fffe 	bl	0 <_ZN4core3fmt8builders11DebugStruct5field17h80023aaf54882542E>
 162:	9002      	str	r0, [sp, #8]
 164:	e7ff      	b.n	166 <_ZN81_$LT$mylib..mynewt..tinycbor..cbor_decoder_reader$u20$as$u20$core..fmt..Debug$GT$3fmt17hbb3beeca788e9aedE+0x166>
 166:	a815      	add	r0, sp, #84	; 0x54
 168:	f7ff fffe 	bl	0 <_ZN4core3fmt8builders11DebugStruct6finish17h9090cd1e84004b71E>
 16c:	9001      	str	r0, [sp, #4]
 16e:	e7ff      	b.n	170 <_ZN81_$LT$mylib..mynewt..tinycbor..cbor_decoder_reader$u20$as$u20$core..fmt..Debug$GT$3fmt17hbb3beeca788e9aedE+0x170>
 170:	9801      	ldr	r0, [sp, #4]
 172:	f000 0001 	and.w	r0, r0, #1
 176:	b01e      	add	sp, #120	; 0x78
 178:	bd80      	pop	{r7, pc}

Disassembly of section .text._ZN72_$LT$mylib..mynewt..tinycbor..CborParser$u20$as$u20$core..fmt..Debug$GT$3fmt17h172cf134992c6de8E:

00000000 <_ZN72_$LT$mylib..mynewt..tinycbor..CborParser$u20$as$u20$core..fmt..Debug$GT$3fmt17h172cf134992c6de8E>:
_ZN72_$LT$mylib..mynewt..tinycbor..CborParser$u20$as$u20$core..fmt..Debug$GT$3fmt17h172cf134992c6de8E():
/mnt/c/stm32bluepill-mynewt-sensor/src/mynewt/tinycbor.rs:501
            stringify!(message_size)
        )
    );
}
#[repr(C)]
#[derive(Debug, Copy, Clone)]
   0:	b580      	push	{r7, lr}
   2:	b092      	sub	sp, #72	; 0x48
   4:	460a      	mov	r2, r1
   6:	4603      	mov	r3, r0
   8:	9008      	str	r0, [sp, #32]
   a:	9109      	str	r1, [sp, #36]	; 0x24
/mnt/c/stm32bluepill-mynewt-sensor/src/mynewt/tinycbor.rs:503
pub struct CborParser {
    pub d: *mut cbor_decoder_reader,
   c:	9808      	ldr	r0, [sp, #32]
   e:	900a      	str	r0, [sp, #40]	; 0x28
/mnt/c/stm32bluepill-mynewt-sensor/src/mynewt/tinycbor.rs:504
    pub end: ::cty::c_int,
  10:	9808      	ldr	r0, [sp, #32]
  12:	3004      	adds	r0, #4
  14:	900b      	str	r0, [sp, #44]	; 0x2c
/mnt/c/stm32bluepill-mynewt-sensor/src/mynewt/tinycbor.rs:505
    pub flags: ::cty::c_int,
  16:	9808      	ldr	r0, [sp, #32]
  18:	3008      	adds	r0, #8
  1a:	900c      	str	r0, [sp, #48]	; 0x30
/mnt/c/stm32bluepill-mynewt-sensor/src/mynewt/tinycbor.rs:501
#[derive(Debug, Copy, Clone)]
  1c:	9909      	ldr	r1, [sp, #36]	; 0x24
  1e:	f240 0000 	movw	r0, #0
  22:	f2c0 0000 	movt	r0, #0
  26:	f10d 0c34 	add.w	ip, sp, #52	; 0x34
  2a:	f04f 0e0a 	mov.w	lr, #10
  2e:	9007      	str	r0, [sp, #28]
  30:	4660      	mov	r0, ip
  32:	f8dd c01c 	ldr.w	ip, [sp, #28]
  36:	9206      	str	r2, [sp, #24]
  38:	4662      	mov	r2, ip
  3a:	9305      	str	r3, [sp, #20]
  3c:	4673      	mov	r3, lr
  3e:	f7ff fffe 	bl	0 <_ZN4core3fmt9Formatter12debug_struct17h0a14031b095ee1baE>
  42:	e7ff      	b.n	44 <_ZN72_$LT$mylib..mynewt..tinycbor..CborParser$u20$as$u20$core..fmt..Debug$GT$3fmt17h172cf134992c6de8E+0x44>
/mnt/c/stm32bluepill-mynewt-sensor/src/mynewt/tinycbor.rs:503
    pub d: *mut cbor_decoder_reader,
  44:	980a      	ldr	r0, [sp, #40]	; 0x28
  46:	900f      	str	r0, [sp, #60]	; 0x3c
/mnt/c/stm32bluepill-mynewt-sensor/src/mynewt/tinycbor.rs:501
#[derive(Debug, Copy, Clone)]
  48:	f240 0000 	movw	r0, #0
  4c:	f2c0 0000 	movt	r0, #0
  50:	4669      	mov	r1, sp
  52:	6008      	str	r0, [r1, #0]
  54:	f240 0100 	movw	r1, #0
  58:	f2c0 0100 	movt	r1, #0
  5c:	a80d      	add	r0, sp, #52	; 0x34
  5e:	2201      	movs	r2, #1
  60:	ab0f      	add	r3, sp, #60	; 0x3c
  62:	f7ff fffe 	bl	0 <_ZN4core3fmt8builders11DebugStruct5field17h80023aaf54882542E>
  66:	9004      	str	r0, [sp, #16]
  68:	e7ff      	b.n	6a <_ZN72_$LT$mylib..mynewt..tinycbor..CborParser$u20$as$u20$core..fmt..Debug$GT$3fmt17h172cf134992c6de8E+0x6a>
/mnt/c/stm32bluepill-mynewt-sensor/src/mynewt/tinycbor.rs:504
    pub end: ::cty::c_int,
  6a:	980b      	ldr	r0, [sp, #44]	; 0x2c
  6c:	9010      	str	r0, [sp, #64]	; 0x40
/mnt/c/stm32bluepill-mynewt-sensor/src/mynewt/tinycbor.rs:501
#[derive(Debug, Copy, Clone)]
  6e:	f240 0000 	movw	r0, #0
  72:	f2c0 0000 	movt	r0, #0
  76:	4669      	mov	r1, sp
  78:	6008      	str	r0, [r1, #0]
  7a:	f240 0100 	movw	r1, #0
  7e:	f2c0 0100 	movt	r1, #0
  82:	a80d      	add	r0, sp, #52	; 0x34
  84:	2203      	movs	r2, #3
  86:	ab10      	add	r3, sp, #64	; 0x40
  88:	f7ff fffe 	bl	0 <_ZN4core3fmt8builders11DebugStruct5field17h80023aaf54882542E>
  8c:	9003      	str	r0, [sp, #12]
  8e:	e7ff      	b.n	90 <_ZN72_$LT$mylib..mynewt..tinycbor..CborParser$u20$as$u20$core..fmt..Debug$GT$3fmt17h172cf134992c6de8E+0x90>
/mnt/c/stm32bluepill-mynewt-sensor/src/mynewt/tinycbor.rs:505
    pub flags: ::cty::c_int,
  90:	980c      	ldr	r0, [sp, #48]	; 0x30
  92:	9011      	str	r0, [sp, #68]	; 0x44
/mnt/c/stm32bluepill-mynewt-sensor/src/mynewt/tinycbor.rs:501
#[derive(Debug, Copy, Clone)]
  94:	f240 0000 	movw	r0, #0
  98:	f2c0 0000 	movt	r0, #0
  9c:	4669      	mov	r1, sp
  9e:	6008      	str	r0, [r1, #0]
  a0:	f240 0100 	movw	r1, #0
  a4:	f2c0 0100 	movt	r1, #0
  a8:	a80d      	add	r0, sp, #52	; 0x34
  aa:	2205      	movs	r2, #5
  ac:	ab11      	add	r3, sp, #68	; 0x44
  ae:	f7ff fffe 	bl	0 <_ZN4core3fmt8builders11DebugStruct5field17h80023aaf54882542E>
  b2:	9002      	str	r0, [sp, #8]
  b4:	e7ff      	b.n	b6 <_ZN72_$LT$mylib..mynewt..tinycbor..CborParser$u20$as$u20$core..fmt..Debug$GT$3fmt17h172cf134992c6de8E+0xb6>
  b6:	a80d      	add	r0, sp, #52	; 0x34
  b8:	f7ff fffe 	bl	0 <_ZN4core3fmt8builders11DebugStruct6finish17h9090cd1e84004b71E>
  bc:	9001      	str	r0, [sp, #4]
  be:	e7ff      	b.n	c0 <_ZN72_$LT$mylib..mynewt..tinycbor..CborParser$u20$as$u20$core..fmt..Debug$GT$3fmt17h172cf134992c6de8E+0xc0>
  c0:	9801      	ldr	r0, [sp, #4]
  c2:	f000 0001 	and.w	r0, r0, #1
  c6:	b012      	add	sp, #72	; 0x48
  c8:	bd80      	pop	{r7, pc}

Disassembly of section .text._ZN71_$LT$mylib..mynewt..tinycbor..CborValue$u20$as$u20$core..fmt..Debug$GT$3fmt17he716596da4deb764E:

00000000 <_ZN71_$LT$mylib..mynewt..tinycbor..CborValue$u20$as$u20$core..fmt..Debug$GT$3fmt17he716596da4deb764E>:
_ZN71_$LT$mylib..mynewt..tinycbor..CborValue$u20$as$u20$core..fmt..Debug$GT$3fmt17he716596da4deb764E():
/mnt/c/stm32bluepill-mynewt-sensor/src/mynewt/tinycbor.rs:551
            stringify!(flags)
        )
    );
}
#[repr(C)]
#[derive(Debug, Copy, Clone)]
   0:	b580      	push	{r7, lr}
   2:	b09c      	sub	sp, #112	; 0x70
   4:	460a      	mov	r2, r1
   6:	4603      	mov	r3, r0
   8:	900c      	str	r0, [sp, #48]	; 0x30
   a:	910d      	str	r1, [sp, #52]	; 0x34
/mnt/c/stm32bluepill-mynewt-sensor/src/mynewt/tinycbor.rs:553
pub struct CborValue {
    pub parser: *const CborParser,
   c:	980c      	ldr	r0, [sp, #48]	; 0x30
   e:	900e      	str	r0, [sp, #56]	; 0x38
/mnt/c/stm32bluepill-mynewt-sensor/src/mynewt/tinycbor.rs:554
    pub offset: ::cty::c_int,
  10:	980c      	ldr	r0, [sp, #48]	; 0x30
  12:	3004      	adds	r0, #4
  14:	900f      	str	r0, [sp, #60]	; 0x3c
/mnt/c/stm32bluepill-mynewt-sensor/src/mynewt/tinycbor.rs:555
    pub remaining: u32,
  16:	980c      	ldr	r0, [sp, #48]	; 0x30
  18:	3008      	adds	r0, #8
  1a:	9010      	str	r0, [sp, #64]	; 0x40
/mnt/c/stm32bluepill-mynewt-sensor/src/mynewt/tinycbor.rs:556
    pub extra: u16,
  1c:	980c      	ldr	r0, [sp, #48]	; 0x30
  1e:	300c      	adds	r0, #12
  20:	9011      	str	r0, [sp, #68]	; 0x44
/mnt/c/stm32bluepill-mynewt-sensor/src/mynewt/tinycbor.rs:557
    pub type_: u8,
  22:	980c      	ldr	r0, [sp, #48]	; 0x30
  24:	300e      	adds	r0, #14
  26:	9012      	str	r0, [sp, #72]	; 0x48
/mnt/c/stm32bluepill-mynewt-sensor/src/mynewt/tinycbor.rs:558
    pub flags: u8,
  28:	980c      	ldr	r0, [sp, #48]	; 0x30
  2a:	300f      	adds	r0, #15
  2c:	9013      	str	r0, [sp, #76]	; 0x4c
/mnt/c/stm32bluepill-mynewt-sensor/src/mynewt/tinycbor.rs:551
#[derive(Debug, Copy, Clone)]
  2e:	990d      	ldr	r1, [sp, #52]	; 0x34
  30:	f240 0000 	movw	r0, #0
  34:	f2c0 0000 	movt	r0, #0
  38:	f10d 0c50 	add.w	ip, sp, #80	; 0x50
  3c:	f04f 0e09 	mov.w	lr, #9
  40:	900b      	str	r0, [sp, #44]	; 0x2c
  42:	4660      	mov	r0, ip
  44:	f8dd c02c 	ldr.w	ip, [sp, #44]	; 0x2c
  48:	920a      	str	r2, [sp, #40]	; 0x28
  4a:	4662      	mov	r2, ip
  4c:	9309      	str	r3, [sp, #36]	; 0x24
  4e:	4673      	mov	r3, lr
  50:	f7ff fffe 	bl	0 <_ZN4core3fmt9Formatter12debug_struct17h0a14031b095ee1baE>
  54:	e7ff      	b.n	56 <_ZN71_$LT$mylib..mynewt..tinycbor..CborValue$u20$as$u20$core..fmt..Debug$GT$3fmt17he716596da4deb764E+0x56>
/mnt/c/stm32bluepill-mynewt-sensor/src/mynewt/tinycbor.rs:553
    pub parser: *const CborParser,
  56:	980e      	ldr	r0, [sp, #56]	; 0x38
  58:	9016      	str	r0, [sp, #88]	; 0x58
/mnt/c/stm32bluepill-mynewt-sensor/src/mynewt/tinycbor.rs:551
#[derive(Debug, Copy, Clone)]
  5a:	f240 0000 	movw	r0, #0
  5e:	f2c0 0000 	movt	r0, #0
  62:	4669      	mov	r1, sp
  64:	6008      	str	r0, [r1, #0]
  66:	f240 0100 	movw	r1, #0
  6a:	f2c0 0100 	movt	r1, #0
  6e:	a814      	add	r0, sp, #80	; 0x50
  70:	2206      	movs	r2, #6
  72:	ab16      	add	r3, sp, #88	; 0x58
  74:	f7ff fffe 	bl	0 <_ZN4core3fmt8builders11DebugStruct5field17h80023aaf54882542E>
  78:	9008      	str	r0, [sp, #32]
  7a:	e7ff      	b.n	7c <_ZN71_$LT$mylib..mynewt..tinycbor..CborValue$u20$as$u20$core..fmt..Debug$GT$3fmt17he716596da4deb764E+0x7c>
/mnt/c/stm32bluepill-mynewt-sensor/src/mynewt/tinycbor.rs:554
    pub offset: ::cty::c_int,
  7c:	980f      	ldr	r0, [sp, #60]	; 0x3c
  7e:	9017      	str	r0, [sp, #92]	; 0x5c
/mnt/c/stm32bluepill-mynewt-sensor/src/mynewt/tinycbor.rs:551
#[derive(Debug, Copy, Clone)]
  80:	f240 0000 	movw	r0, #0
  84:	f2c0 0000 	movt	r0, #0
  88:	4669      	mov	r1, sp
  8a:	6008      	str	r0, [r1, #0]
  8c:	f240 0100 	movw	r1, #0
  90:	f2c0 0100 	movt	r1, #0
  94:	a814      	add	r0, sp, #80	; 0x50
  96:	2206      	movs	r2, #6
  98:	ab17      	add	r3, sp, #92	; 0x5c
  9a:	f7ff fffe 	bl	0 <_ZN4core3fmt8builders11DebugStruct5field17h80023aaf54882542E>
  9e:	9007      	str	r0, [sp, #28]
  a0:	e7ff      	b.n	a2 <_ZN71_$LT$mylib..mynewt..tinycbor..CborValue$u20$as$u20$core..fmt..Debug$GT$3fmt17he716596da4deb764E+0xa2>
/mnt/c/stm32bluepill-mynewt-sensor/src/mynewt/tinycbor.rs:555
    pub remaining: u32,
  a2:	9810      	ldr	r0, [sp, #64]	; 0x40
  a4:	9018      	str	r0, [sp, #96]	; 0x60
/mnt/c/stm32bluepill-mynewt-sensor/src/mynewt/tinycbor.rs:551
#[derive(Debug, Copy, Clone)]
  a6:	f240 0000 	movw	r0, #0
  aa:	f2c0 0000 	movt	r0, #0
  ae:	4669      	mov	r1, sp
  b0:	6008      	str	r0, [r1, #0]
  b2:	f240 0100 	movw	r1, #0
  b6:	f2c0 0100 	movt	r1, #0
  ba:	a814      	add	r0, sp, #80	; 0x50
  bc:	2209      	movs	r2, #9
  be:	ab18      	add	r3, sp, #96	; 0x60
  c0:	f7ff fffe 	bl	0 <_ZN4core3fmt8builders11DebugStruct5field17h80023aaf54882542E>
  c4:	9006      	str	r0, [sp, #24]
  c6:	e7ff      	b.n	c8 <_ZN71_$LT$mylib..mynewt..tinycbor..CborValue$u20$as$u20$core..fmt..Debug$GT$3fmt17he716596da4deb764E+0xc8>
/mnt/c/stm32bluepill-mynewt-sensor/src/mynewt/tinycbor.rs:556
    pub extra: u16,
  c8:	9811      	ldr	r0, [sp, #68]	; 0x44
  ca:	9019      	str	r0, [sp, #100]	; 0x64
/mnt/c/stm32bluepill-mynewt-sensor/src/mynewt/tinycbor.rs:551
#[derive(Debug, Copy, Clone)]
  cc:	f240 0000 	movw	r0, #0
  d0:	f2c0 0000 	movt	r0, #0
  d4:	4669      	mov	r1, sp
  d6:	6008      	str	r0, [r1, #0]
  d8:	f240 0100 	movw	r1, #0
  dc:	f2c0 0100 	movt	r1, #0
  e0:	a814      	add	r0, sp, #80	; 0x50
  e2:	2205      	movs	r2, #5
  e4:	ab19      	add	r3, sp, #100	; 0x64
  e6:	f7ff fffe 	bl	0 <_ZN4core3fmt8builders11DebugStruct5field17h80023aaf54882542E>
  ea:	9005      	str	r0, [sp, #20]
  ec:	e7ff      	b.n	ee <_ZN71_$LT$mylib..mynewt..tinycbor..CborValue$u20$as$u20$core..fmt..Debug$GT$3fmt17he716596da4deb764E+0xee>
/mnt/c/stm32bluepill-mynewt-sensor/src/mynewt/tinycbor.rs:557
    pub type_: u8,
  ee:	9812      	ldr	r0, [sp, #72]	; 0x48
  f0:	901a      	str	r0, [sp, #104]	; 0x68
/mnt/c/stm32bluepill-mynewt-sensor/src/mynewt/tinycbor.rs:551
#[derive(Debug, Copy, Clone)]
  f2:	f240 0000 	movw	r0, #0
  f6:	f2c0 0000 	movt	r0, #0
  fa:	4669      	mov	r1, sp
  fc:	6008      	str	r0, [r1, #0]
  fe:	f240 0100 	movw	r1, #0
 102:	f2c0 0100 	movt	r1, #0
 106:	a814      	add	r0, sp, #80	; 0x50
 108:	2205      	movs	r2, #5
 10a:	ab1a      	add	r3, sp, #104	; 0x68
 10c:	f7ff fffe 	bl	0 <_ZN4core3fmt8builders11DebugStruct5field17h80023aaf54882542E>
 110:	9004      	str	r0, [sp, #16]
 112:	e7ff      	b.n	114 <_ZN71_$LT$mylib..mynewt..tinycbor..CborValue$u20$as$u20$core..fmt..Debug$GT$3fmt17he716596da4deb764E+0x114>
/mnt/c/stm32bluepill-mynewt-sensor/src/mynewt/tinycbor.rs:558
    pub flags: u8,
 114:	9813      	ldr	r0, [sp, #76]	; 0x4c
 116:	901b      	str	r0, [sp, #108]	; 0x6c
/mnt/c/stm32bluepill-mynewt-sensor/src/mynewt/tinycbor.rs:551
#[derive(Debug, Copy, Clone)]
 118:	f240 0000 	movw	r0, #0
 11c:	f2c0 0000 	movt	r0, #0
 120:	4669      	mov	r1, sp
 122:	6008      	str	r0, [r1, #0]
 124:	f240 0100 	movw	r1, #0
 128:	f2c0 0100 	movt	r1, #0
 12c:	a814      	add	r0, sp, #80	; 0x50
 12e:	2205      	movs	r2, #5
 130:	ab1b      	add	r3, sp, #108	; 0x6c
 132:	f7ff fffe 	bl	0 <_ZN4core3fmt8builders11DebugStruct5field17h80023aaf54882542E>
 136:	9003      	str	r0, [sp, #12]
 138:	e7ff      	b.n	13a <_ZN71_$LT$mylib..mynewt..tinycbor..CborValue$u20$as$u20$core..fmt..Debug$GT$3fmt17he716596da4deb764E+0x13a>
 13a:	a814      	add	r0, sp, #80	; 0x50
 13c:	f7ff fffe 	bl	0 <_ZN4core3fmt8builders11DebugStruct6finish17h9090cd1e84004b71E>
 140:	9002      	str	r0, [sp, #8]
 142:	e7ff      	b.n	144 <_ZN71_$LT$mylib..mynewt..tinycbor..CborValue$u20$as$u20$core..fmt..Debug$GT$3fmt17he716596da4deb764E+0x144>
 144:	9802      	ldr	r0, [sp, #8]
 146:	f000 0001 	and.w	r0, r0, #1
 14a:	b01c      	add	sp, #112	; 0x70
 14c:	bd80      	pop	{r7, pc}

mylib-ac95891f38e7979c.4fs43327d33gbryi.rcgu.o:     file format elf32-littlearm

SYMBOL TABLE:
00000000 l    df *ABS*	00000000 4fs43327d33gbryi
00000000 l       .debug_str	00000000 
00000041 l       .debug_str	00000000 
0000004c l       .debug_str	00000000 
0000006f l       .debug_str	00000000 
00000074 l       .debug_str	00000000 
0000007b l       .debug_str	00000000 
0000007e l       .debug_str	00000000 
00000081 l       .debug_str	00000000 
00000085 l       .debug_str	00000000 
0000008c l       .debug_str	00000000 
00000090 l       .debug_str	00000000 
00000093 l       .debug_str	00000000 
00000096 l       .debug_str	00000000 
0000009b l       .debug_str	00000000 
000000a1 l       .debug_str	00000000 
000000a8 l       .debug_str	00000000 
000000b0 l       .debug_str	00000000 
000000ba l       .debug_str	00000000 
000000be l       .debug_str	00000000 
000000c7 l       .debug_str	00000000 
00000124 l       .debug_str	00000000 
00000181 l       .debug_str	00000000 
00000186 l       .debug_str	00000000 
0000018a l       .debug_str	00000000 
0000018f l       .debug_str	00000000 
00000191 l       .debug_str	00000000 
00000197 l       .debug_str	00000000 
0000019b l       .debug_str	00000000 
000001a0 l       .debug_str	00000000 
000001a5 l       .debug_str	00000000 
000001ab l       .debug_str	00000000 
000001b1 l       .debug_str	00000000 
000001b8 l       .debug_str	00000000 
000001bd l       .debug_str	00000000 
000001c3 l       .debug_str	00000000 
000001c5 l       .debug_str	00000000 
000001ca l       .debug_str	00000000 
000001ce l       .debug_str	00000000 
000001dc l       .debug_str	00000000 
000001e6 l       .debug_str	00000000 
000001ea l       .debug_str	00000000 
000001f2 l       .debug_str	00000000 
000001fa l       .debug_str	00000000 
00000201 l       .debug_str	00000000 
00000215 l       .debug_str	00000000 
00000221 l       .debug_str	00000000 
0000022c l       .debug_str	00000000 
00000233 l       .debug_str	00000000 
00000239 l       .debug_str	00000000 
0000023d l       .debug_str	00000000 
00000243 l       .debug_str	00000000 
00000249 l       .debug_str	00000000 
0000024c l       .debug_str	00000000 
0000025b l       .debug_str	00000000 
00000262 l       .debug_str	00000000 
00000266 l       .debug_str	00000000 
0000026f l       .debug_str	00000000 
0000027b l       .debug_str	00000000 
00000294 l       .debug_str	00000000 
00000299 l       .debug_str	00000000 
000002aa l       .debug_str	00000000 
000002b4 l       .debug_str	00000000 
00000312 l       .debug_str	00000000 
0000031d l       .debug_str	00000000 
0000033a l       .debug_str	00000000 
0000033e l       .debug_str	00000000 
00000346 l       .debug_str	00000000 
0000035d l       .debug_str	00000000 
00000381 l       .debug_str	00000000 
0000039d l       .debug_str	00000000 
000003a2 l       .debug_str	00000000 
000003ab l       .debug_str	00000000 
000003b2 l       .debug_str	00000000 
000003cb l       .debug_str	00000000 
000003d5 l       .debug_str	00000000 
000003ef l       .debug_str	00000000 
000003f3 l       .debug_str	00000000 
00000000 l    d  .text._ZN4core3fmt3num50_$LT$impl$u20$core..fmt..Debug$u20$for$u20$i32$GT$3fmt17hbbb46498fb3ead3eE	00000000 .text._ZN4core3fmt3num50_$LT$impl$u20$core..fmt..Debug$u20$for$u20$i32$GT$3fmt17hbbb46498fb3ead3eE
00000000 l    d  .text._ZN4core3fmt3num50_$LT$impl$u20$core..fmt..Debug$u20$for$u20$u16$GT$3fmt17h85fea0f7ac7209d6E	00000000 .text._ZN4core3fmt3num50_$LT$impl$u20$core..fmt..Debug$u20$for$u20$u16$GT$3fmt17h85fea0f7ac7209d6E
00000000 l    d  .debug_abbrev	00000000 .debug_abbrev
00000000 l    d  .debug_info	00000000 .debug_info
00000000 l    d  .debug_ranges	00000000 .debug_ranges
00000000 l    d  .debug_frame	00000000 .debug_frame
00000000 l    d  .debug_line	00000000 .debug_line
00000000         *UND*	00000000 _ZN4core3fmt3num3imp52_$LT$impl$u20$core..fmt..Display$u20$for$u20$i32$GT$3fmt17h33b3bbdbc74b88baE
00000000         *UND*	00000000 _ZN4core3fmt3num3imp52_$LT$impl$u20$core..fmt..Display$u20$for$u20$u16$GT$3fmt17hc4c95b945dca8c87E
00000000 g     F .text._ZN4core3fmt3num50_$LT$impl$u20$core..fmt..Debug$u20$for$u20$i32$GT$3fmt17hbbb46498fb3ead3eE	00000072 .hidden _ZN4core3fmt3num50_$LT$impl$u20$core..fmt..Debug$u20$for$u20$i32$GT$3fmt17hbbb46498fb3ead3eE
00000000 g     F .text._ZN4core3fmt3num50_$LT$impl$u20$core..fmt..Debug$u20$for$u20$u16$GT$3fmt17h85fea0f7ac7209d6E	00000072 .hidden _ZN4core3fmt3num50_$LT$impl$u20$core..fmt..Debug$u20$for$u20$u16$GT$3fmt17h85fea0f7ac7209d6E
00000000         *UND*	00000000 _ZN4core3fmt3num53_$LT$impl$u20$core..fmt..LowerHex$u20$for$u20$i32$GT$3fmt17hb2119167a92723afE
00000000         *UND*	00000000 _ZN4core3fmt3num53_$LT$impl$u20$core..fmt..LowerHex$u20$for$u20$u16$GT$3fmt17h64ef524a23a0177cE
00000000         *UND*	00000000 _ZN4core3fmt3num53_$LT$impl$u20$core..fmt..UpperHex$u20$for$u20$i32$GT$3fmt17hc44988ae29d24532E
00000000         *UND*	00000000 _ZN4core3fmt3num53_$LT$impl$u20$core..fmt..UpperHex$u20$for$u20$u16$GT$3fmt17h0cc208c1b57a04edE
00000000         *UND*	00000000 _ZN4core3fmt9Formatter15debug_lower_hex17h6ead2f28bb05b574E
00000000         *UND*	00000000 _ZN4core3fmt9Formatter15debug_upper_hex17hd6d96e6aa5cb78d8E



Disassembly of section .text._ZN4core3fmt3num50_$LT$impl$u20$core..fmt..Debug$u20$for$u20$i32$GT$3fmt17hbbb46498fb3ead3eE:

00000000 <_ZN4core3fmt3num50_$LT$impl$u20$core..fmt..Debug$u20$for$u20$i32$GT$3fmt17hbbb46498fb3ead3eE>:
_ZN4core3fmt3num50_$LT$impl$u20$core..fmt..Debug$u20$for$u20$i32$GT$3fmt17hbbb46498fb3ead3eE():
/rustc/50a0defd5a93523067ef239936cc2e0755220904/src/libcore/fmt/num.rs:146
   0:	b580      	push	{r7, lr}
   2:	b088      	sub	sp, #32
   4:	460a      	mov	r2, r1
   6:	4603      	mov	r3, r0
   8:	9005      	str	r0, [sp, #20]
   a:	9106      	str	r1, [sp, #24]
/rustc/50a0defd5a93523067ef239936cc2e0755220904/src/libcore/fmt/num.rs:147
   c:	9806      	ldr	r0, [sp, #24]
   e:	9204      	str	r2, [sp, #16]
  10:	9303      	str	r3, [sp, #12]
  12:	f7ff fffe 	bl	0 <_ZN4core3fmt9Formatter15debug_lower_hex17h6ead2f28bb05b574E>
  16:	9002      	str	r0, [sp, #8]
  18:	e7ff      	b.n	1a <_ZN4core3fmt3num50_$LT$impl$u20$core..fmt..Debug$u20$for$u20$i32$GT$3fmt17hbbb46498fb3ead3eE+0x1a>
  1a:	9802      	ldr	r0, [sp, #8]
  1c:	07c1      	lsls	r1, r0, #31
  1e:	2900      	cmp	r1, #0
  20:	d008      	beq.n	34 <_ZN4core3fmt3num50_$LT$impl$u20$core..fmt..Debug$u20$for$u20$i32$GT$3fmt17hbbb46498fb3ead3eE+0x34>
  22:	e7ff      	b.n	24 <_ZN4core3fmt3num50_$LT$impl$u20$core..fmt..Debug$u20$for$u20$i32$GT$3fmt17hbbb46498fb3ead3eE+0x24>
/rustc/50a0defd5a93523067ef239936cc2e0755220904/src/libcore/fmt/num.rs:148
  24:	9805      	ldr	r0, [sp, #20]
  26:	9906      	ldr	r1, [sp, #24]
  28:	f7ff fffe 	bl	0 <_ZN4core3fmt3num53_$LT$impl$u20$core..fmt..LowerHex$u20$for$u20$i32$GT$3fmt17hb2119167a92723afE>
  2c:	f88d 001f 	strb.w	r0, [sp, #31]
  30:	e7ff      	b.n	32 <_ZN4core3fmt3num50_$LT$impl$u20$core..fmt..Debug$u20$for$u20$i32$GT$3fmt17hbbb46498fb3ead3eE+0x32>
/rustc/50a0defd5a93523067ef239936cc2e0755220904/src/libcore/fmt/num.rs:147
  32:	e01a      	b.n	6a <_ZN4core3fmt3num50_$LT$impl$u20$core..fmt..Debug$u20$for$u20$i32$GT$3fmt17hbbb46498fb3ead3eE+0x6a>
/rustc/50a0defd5a93523067ef239936cc2e0755220904/src/libcore/fmt/num.rs:149
  34:	9806      	ldr	r0, [sp, #24]
  36:	f7ff fffe 	bl	0 <_ZN4core3fmt9Formatter15debug_upper_hex17hd6d96e6aa5cb78d8E>
  3a:	9001      	str	r0, [sp, #4]
  3c:	e7ff      	b.n	3e <_ZN4core3fmt3num50_$LT$impl$u20$core..fmt..Debug$u20$for$u20$i32$GT$3fmt17hbbb46498fb3ead3eE+0x3e>
  3e:	9801      	ldr	r0, [sp, #4]
  40:	07c1      	lsls	r1, r0, #31
  42:	2900      	cmp	r1, #0
  44:	d008      	beq.n	58 <_ZN4core3fmt3num50_$LT$impl$u20$core..fmt..Debug$u20$for$u20$i32$GT$3fmt17hbbb46498fb3ead3eE+0x58>
  46:	e7ff      	b.n	48 <_ZN4core3fmt3num50_$LT$impl$u20$core..fmt..Debug$u20$for$u20$i32$GT$3fmt17hbbb46498fb3ead3eE+0x48>
/rustc/50a0defd5a93523067ef239936cc2e0755220904/src/libcore/fmt/num.rs:150
  48:	9805      	ldr	r0, [sp, #20]
  4a:	9906      	ldr	r1, [sp, #24]
  4c:	f7ff fffe 	bl	0 <_ZN4core3fmt3num53_$LT$impl$u20$core..fmt..UpperHex$u20$for$u20$i32$GT$3fmt17hc44988ae29d24532E>
  50:	f88d 001f 	strb.w	r0, [sp, #31]
  54:	e7ff      	b.n	56 <_ZN4core3fmt3num50_$LT$impl$u20$core..fmt..Debug$u20$for$u20$i32$GT$3fmt17hbbb46498fb3ead3eE+0x56>
/rustc/50a0defd5a93523067ef239936cc2e0755220904/src/libcore/fmt/num.rs:149
  56:	e007      	b.n	68 <_ZN4core3fmt3num50_$LT$impl$u20$core..fmt..Debug$u20$for$u20$i32$GT$3fmt17hbbb46498fb3ead3eE+0x68>
/rustc/50a0defd5a93523067ef239936cc2e0755220904/src/libcore/fmt/num.rs:152
  58:	9805      	ldr	r0, [sp, #20]
  5a:	9906      	ldr	r1, [sp, #24]
  5c:	f7ff fffe 	bl	0 <_ZN4core3fmt3num3imp52_$LT$impl$u20$core..fmt..Display$u20$for$u20$i32$GT$3fmt17h33b3bbdbc74b88baE>
  60:	f88d 001f 	strb.w	r0, [sp, #31]
  64:	e7ff      	b.n	66 <_ZN4core3fmt3num50_$LT$impl$u20$core..fmt..Debug$u20$for$u20$i32$GT$3fmt17hbbb46498fb3ead3eE+0x66>
/rustc/50a0defd5a93523067ef239936cc2e0755220904/src/libcore/fmt/num.rs:149
  66:	e7ff      	b.n	68 <_ZN4core3fmt3num50_$LT$impl$u20$core..fmt..Debug$u20$for$u20$i32$GT$3fmt17hbbb46498fb3ead3eE+0x68>
/rustc/50a0defd5a93523067ef239936cc2e0755220904/src/libcore/fmt/num.rs:147
  68:	e7ff      	b.n	6a <_ZN4core3fmt3num50_$LT$impl$u20$core..fmt..Debug$u20$for$u20$i32$GT$3fmt17hbbb46498fb3ead3eE+0x6a>
/rustc/50a0defd5a93523067ef239936cc2e0755220904/src/libcore/fmt/num.rs:154
  6a:	f89d 001f 	ldrb.w	r0, [sp, #31]
  6e:	b008      	add	sp, #32
  70:	bd80      	pop	{r7, pc}

Disassembly of section .text._ZN4core3fmt3num50_$LT$impl$u20$core..fmt..Debug$u20$for$u20$u16$GT$3fmt17h85fea0f7ac7209d6E:

00000000 <_ZN4core3fmt3num50_$LT$impl$u20$core..fmt..Debug$u20$for$u20$u16$GT$3fmt17h85fea0f7ac7209d6E>:
_ZN4core3fmt3num50_$LT$impl$u20$core..fmt..Debug$u20$for$u20$u16$GT$3fmt17h85fea0f7ac7209d6E():
/rustc/50a0defd5a93523067ef239936cc2e0755220904/src/libcore/fmt/num.rs:146
   0:	b580      	push	{r7, lr}
   2:	b088      	sub	sp, #32
   4:	460a      	mov	r2, r1
   6:	4603      	mov	r3, r0
   8:	9005      	str	r0, [sp, #20]
   a:	9106      	str	r1, [sp, #24]
/rustc/50a0defd5a93523067ef239936cc2e0755220904/src/libcore/fmt/num.rs:147
   c:	9806      	ldr	r0, [sp, #24]
   e:	9204      	str	r2, [sp, #16]
  10:	9303      	str	r3, [sp, #12]
  12:	f7ff fffe 	bl	0 <_ZN4core3fmt9Formatter15debug_lower_hex17h6ead2f28bb05b574E>
  16:	9002      	str	r0, [sp, #8]
  18:	e7ff      	b.n	1a <_ZN4core3fmt3num50_$LT$impl$u20$core..fmt..Debug$u20$for$u20$u16$GT$3fmt17h85fea0f7ac7209d6E+0x1a>
  1a:	9802      	ldr	r0, [sp, #8]
  1c:	07c1      	lsls	r1, r0, #31
  1e:	2900      	cmp	r1, #0
  20:	d008      	beq.n	34 <_ZN4core3fmt3num50_$LT$impl$u20$core..fmt..Debug$u20$for$u20$u16$GT$3fmt17h85fea0f7ac7209d6E+0x34>
  22:	e7ff      	b.n	24 <_ZN4core3fmt3num50_$LT$impl$u20$core..fmt..Debug$u20$for$u20$u16$GT$3fmt17h85fea0f7ac7209d6E+0x24>
/rustc/50a0defd5a93523067ef239936cc2e0755220904/src/libcore/fmt/num.rs:148
  24:	9805      	ldr	r0, [sp, #20]
  26:	9906      	ldr	r1, [sp, #24]
  28:	f7ff fffe 	bl	0 <_ZN4core3fmt3num53_$LT$impl$u20$core..fmt..LowerHex$u20$for$u20$u16$GT$3fmt17h64ef524a23a0177cE>
  2c:	f88d 001f 	strb.w	r0, [sp, #31]
  30:	e7ff      	b.n	32 <_ZN4core3fmt3num50_$LT$impl$u20$core..fmt..Debug$u20$for$u20$u16$GT$3fmt17h85fea0f7ac7209d6E+0x32>
/rustc/50a0defd5a93523067ef239936cc2e0755220904/src/libcore/fmt/num.rs:147
  32:	e01a      	b.n	6a <_ZN4core3fmt3num50_$LT$impl$u20$core..fmt..Debug$u20$for$u20$u16$GT$3fmt17h85fea0f7ac7209d6E+0x6a>
/rustc/50a0defd5a93523067ef239936cc2e0755220904/src/libcore/fmt/num.rs:149
  34:	9806      	ldr	r0, [sp, #24]
  36:	f7ff fffe 	bl	0 <_ZN4core3fmt9Formatter15debug_upper_hex17hd6d96e6aa5cb78d8E>
  3a:	9001      	str	r0, [sp, #4]
  3c:	e7ff      	b.n	3e <_ZN4core3fmt3num50_$LT$impl$u20$core..fmt..Debug$u20$for$u20$u16$GT$3fmt17h85fea0f7ac7209d6E+0x3e>
  3e:	9801      	ldr	r0, [sp, #4]
  40:	07c1      	lsls	r1, r0, #31
  42:	2900      	cmp	r1, #0
  44:	d008      	beq.n	58 <_ZN4core3fmt3num50_$LT$impl$u20$core..fmt..Debug$u20$for$u20$u16$GT$3fmt17h85fea0f7ac7209d6E+0x58>
  46:	e7ff      	b.n	48 <_ZN4core3fmt3num50_$LT$impl$u20$core..fmt..Debug$u20$for$u20$u16$GT$3fmt17h85fea0f7ac7209d6E+0x48>
/rustc/50a0defd5a93523067ef239936cc2e0755220904/src/libcore/fmt/num.rs:150
  48:	9805      	ldr	r0, [sp, #20]
  4a:	9906      	ldr	r1, [sp, #24]
  4c:	f7ff fffe 	bl	0 <_ZN4core3fmt3num53_$LT$impl$u20$core..fmt..UpperHex$u20$for$u20$u16$GT$3fmt17h0cc208c1b57a04edE>
  50:	f88d 001f 	strb.w	r0, [sp, #31]
  54:	e7ff      	b.n	56 <_ZN4core3fmt3num50_$LT$impl$u20$core..fmt..Debug$u20$for$u20$u16$GT$3fmt17h85fea0f7ac7209d6E+0x56>
/rustc/50a0defd5a93523067ef239936cc2e0755220904/src/libcore/fmt/num.rs:149
  56:	e007      	b.n	68 <_ZN4core3fmt3num50_$LT$impl$u20$core..fmt..Debug$u20$for$u20$u16$GT$3fmt17h85fea0f7ac7209d6E+0x68>
/rustc/50a0defd5a93523067ef239936cc2e0755220904/src/libcore/fmt/num.rs:152
  58:	9805      	ldr	r0, [sp, #20]
  5a:	9906      	ldr	r1, [sp, #24]
  5c:	f7ff fffe 	bl	0 <_ZN4core3fmt3num3imp52_$LT$impl$u20$core..fmt..Display$u20$for$u20$u16$GT$3fmt17hc4c95b945dca8c87E>
  60:	f88d 001f 	strb.w	r0, [sp, #31]
  64:	e7ff      	b.n	66 <_ZN4core3fmt3num50_$LT$impl$u20$core..fmt..Debug$u20$for$u20$u16$GT$3fmt17h85fea0f7ac7209d6E+0x66>
/rustc/50a0defd5a93523067ef239936cc2e0755220904/src/libcore/fmt/num.rs:149
  66:	e7ff      	b.n	68 <_ZN4core3fmt3num50_$LT$impl$u20$core..fmt..Debug$u20$for$u20$u16$GT$3fmt17h85fea0f7ac7209d6E+0x68>
/rustc/50a0defd5a93523067ef239936cc2e0755220904/src/libcore/fmt/num.rs:147
  68:	e7ff      	b.n	6a <_ZN4core3fmt3num50_$LT$impl$u20$core..fmt..Debug$u20$for$u20$u16$GT$3fmt17h85fea0f7ac7209d6E+0x6a>
/rustc/50a0defd5a93523067ef239936cc2e0755220904/src/libcore/fmt/num.rs:154
  6a:	f89d 001f 	ldrb.w	r0, [sp, #31]
  6e:	b008      	add	sp, #32
  70:	bd80      	pop	{r7, pc}

mylib-ac95891f38e7979c.4gfa6aki8v0cc60q.rcgu.o:     file format elf32-littlearm

SYMBOL TABLE:
00000000 l    df *ABS*	00000000 4gfa6aki8v0cc60q
00000000 l       .debug_str	00000000 
00000041 l       .debug_str	00000000 
0000004c l       .debug_str	00000000 
0000006f l       .debug_str	00000000 
00000075 l       .debug_str	00000000 
0000007a l       .debug_str	00000000 
00000083 l       .debug_str	00000000 
000000b5 l       .debug_str	00000000 
000000c3 l       .debug_str	00000000 
00000128 l       .debug_str	00000000 
00000130 l       .debug_str	00000000 
00000134 l       .debug_str	00000000 
0000013d l       .debug_str	00000000 
00000140 l       .debug_str	00000000 
0000014a l       .debug_str	00000000 
00000151 l       .debug_str	00000000 
00000157 l       .debug_str	00000000 
0000015c l       .debug_str	00000000 
00000160 l       .debug_str	00000000 
00000164 l       .debug_str	00000000 
00000169 l       .debug_str	00000000 
0000016e l       .debug_str	00000000 
00000172 l       .debug_str	00000000 
00000178 l       .debug_str	00000000 
0000017c l       .debug_str	00000000 
0000018c l       .debug_str	00000000 
00000198 l       .debug_str	00000000 
0000019c l       .debug_str	00000000 
000001a2 l       .debug_str	00000000 
00000000 l     O .rodata..Lanon.1ce793ee7c0b9d4423da42755329a706.0	00000000 .Lanon.1ce793ee7c0b9d4423da42755329a706.0
00000000 l    d  .text._ZN5mylib4base13console_print17h47a7ec4e529b3d82E	00000000 .text._ZN5mylib4base13console_print17h47a7ec4e529b3d82E
00000000 l    d  .text._ZN67_$LT$mylib..base..SensorValue$u20$as$u20$core..default..Default$GT$7default17hcb08cd325439514dE	00000000 .text._ZN67_$LT$mylib..base..SensorValue$u20$as$u20$core..default..Default$GT$7default17hcb08cd325439514dE
00000000 l    d  .debug_abbrev	00000000 .debug_abbrev
00000000 l    d  .debug_info	00000000 .debug_info
00000000 l    d  .debug_ranges	00000000 .debug_ranges
00000000 l    d  .debug_frame	00000000 .debug_frame
00000000 l    d  .debug_line	00000000 .debug_line
00000000         *UND*	00000000 _ZN4core5slice29_$LT$impl$u20$$u5b$T$u5d$$GT$3len17h8c76a39fea4234d0E
00000000         *UND*	00000000 _ZN4core5slice29_$LT$impl$u20$$u5b$T$u5d$$GT$6as_ptr17h6e6820e87d479c61E
00000000 g     F .text._ZN5mylib4base13console_print17h47a7ec4e529b3d82E	0000003c .hidden _ZN5mylib4base13console_print17h47a7ec4e529b3d82E
00000000 g     F .text._ZN67_$LT$mylib..base..SensorValue$u20$as$u20$core..default..Default$GT$7default17hcb08cd325439514dE	00000022 .hidden _ZN67_$LT$mylib..base..SensorValue$u20$as$u20$core..default..Default$GT$7default17hcb08cd325439514dE
00000000         *UND*	00000000 console_buffer
00000000         *UND*	00000000 console_flush



Disassembly of section .text._ZN5mylib4base13console_print17h47a7ec4e529b3d82E:

00000000 <_ZN5mylib4base13console_print17h47a7ec4e529b3d82E>:
_ZN5mylib4base13console_print17h47a7ec4e529b3d82E():
/mnt/c/stm32bluepill-mynewt-sensor/src/base.rs:7

use cty::*;            //  Import string utilities from cty library: https://crates.io/crates/cty
use crate::mynewt::sensor::*;  //  Import sensor.rs for Mynewt Sensor API

///  Display message `msg` on the Arm Semihosting console (via OpenOCD).
pub fn console_print(msg: &[u8]) {
   0:	b580      	push	{r7, lr}
   2:	b086      	sub	sp, #24
   4:	460a      	mov	r2, r1
   6:	4603      	mov	r3, r0
   8:	9003      	str	r0, [sp, #12]
   a:	9104      	str	r1, [sp, #16]
/mnt/c/stm32bluepill-mynewt-sensor/src/base.rs:8
    let len = msg.len();
   c:	9803      	ldr	r0, [sp, #12]
   e:	9904      	ldr	r1, [sp, #16]
  10:	9202      	str	r2, [sp, #8]
  12:	9301      	str	r3, [sp, #4]
  14:	f7ff fffe 	bl	0 <_ZN4core5slice29_$LT$impl$u20$$u5b$T$u5d$$GT$3len17h8c76a39fea4234d0E>
  18:	9005      	str	r0, [sp, #20]
  1a:	e7ff      	b.n	1c <_ZN5mylib4base13console_print17h47a7ec4e529b3d82E+0x1c>
/mnt/c/stm32bluepill-mynewt-sensor/src/base.rs:11
    unsafe {
        //  Call the Semihosting Console API, which is unsafe.
        console_buffer(msg.as_ptr(), len as u32);
  1c:	9803      	ldr	r0, [sp, #12]
  1e:	9904      	ldr	r1, [sp, #16]
  20:	f7ff fffe 	bl	0 <_ZN4core5slice29_$LT$impl$u20$$u5b$T$u5d$$GT$6as_ptr17h6e6820e87d479c61E>
  24:	9000      	str	r0, [sp, #0]
  26:	e7ff      	b.n	28 <_ZN5mylib4base13console_print17h47a7ec4e529b3d82E+0x28>
  28:	9905      	ldr	r1, [sp, #20]
  2a:	9800      	ldr	r0, [sp, #0]
  2c:	f7ff fffe 	bl	0 <console_buffer>
  30:	e7ff      	b.n	2 <console_flush+0x2>
/mnt/c/stm32bluepill-mynewt-sensor/src/base.rs:12
        console_flush();  //  TODO: Remove this.
  32:	f7ff fffe 	bl	0 <console_flush>
  36:	e7ff      	b.n	38 <_ZN5mylib4base13console_print17h47a7ec4e529b3d82E+0x38>
/mnt/c/stm32bluepill-mynewt-sensor/src/base.rs:14
    }
}
  38:	b006      	add	sp, #24
  3a:	bd80      	pop	{r7, pc}

Disassembly of section .text._ZN67_$LT$mylib..base..SensorValue$u20$as$u20$core..default..Default$GT$7default17hcb08cd325439514dE:

00000000 <_ZN67_$LT$mylib..base..SensorValue$u20$as$u20$core..default..Default$GT$7default17hcb08cd325439514dE>:
_ZN67_$LT$mylib..base..SensorValue$u20$as$u20$core..default..Default$GT$7default17hcb08cd325439514dE():
/mnt/c/stm32bluepill-mynewt-sensor/src/base.rs:145
}

///  Default sensor value is `None`
impl Default for SensorValue {
  #[inline]
  fn default() -> SensorValue {
   0:	b083      	sub	sp, #12
   2:	4601      	mov	r1, r0
   4:	2200      	movs	r2, #0
/mnt/c/stm32bluepill-mynewt-sensor/src/base.rs:148
    SensorValue {
      key: "",
      val: SensorValueType::None,
   6:	9201      	str	r2, [sp, #4]
/mnt/c/stm32bluepill-mynewt-sensor/src/base.rs:146
    SensorValue {
   8:	f240 0300 	movw	r3, #0
   c:	f2c0 0300 	movt	r3, #0
  10:	6003      	str	r3, [r0, #0]
  12:	6042      	str	r2, [r0, #4]
  14:	9a01      	ldr	r2, [sp, #4]
  16:	9b02      	ldr	r3, [sp, #8]
  18:	60c3      	str	r3, [r0, #12]
  1a:	6082      	str	r2, [r0, #8]
/mnt/c/stm32bluepill-mynewt-sensor/src/base.rs:150
    }
  }
  1c:	9100      	str	r1, [sp, #0]
  1e:	b003      	add	sp, #12
  20:	4770      	bx	lr

mylib-ac95891f38e7979c.4q7xp3fheufr030k.rcgu.o:     file format elf32-littlearm

SYMBOL TABLE:
00000000 l    df *ABS*	00000000 4q7xp3fheufr030k
00000000 l       .debug_str	00000000 
00000041 l       .debug_str	00000000 
0000004c l       .debug_str	00000000 
0000006f l       .debug_str	00000000 
00000074 l       .debug_str	00000000 
00000078 l       .debug_str	00000000 
0000007b l       .debug_str	00000000 
00000086 l       .debug_str	00000000 
00000091 l       .debug_str	00000000 
00000098 l       .debug_str	00000000 
0000009c l       .debug_str	00000000 
000000a2 l       .debug_str	00000000 
000000a9 l       .debug_str	00000000 
000000ac l       .debug_str	00000000 
000000b3 l       .debug_str	00000000 
000000ba l       .debug_str	00000000 
000000be l       .debug_str	00000000 
000000c3 l       .debug_str	00000000 
000000cf l       .debug_str	00000000 
000000d6 l       .debug_str	00000000 
000000da l       .debug_str	00000000 
000000e2 l       .debug_str	00000000 
000000e6 l       .debug_str	00000000 
000000f1 l       .debug_str	00000000 
00000116 l       .debug_str	00000000 
00000122 l       .debug_str	00000000 
00000131 l       .debug_str	00000000 
00000135 l       .debug_str	00000000 
00000140 l       .debug_str	00000000 
0000014c l       .debug_str	00000000 
00000172 l       .debug_str	00000000 
0000017d l       .debug_str	00000000 
00000188 l       .debug_str	00000000 
00000199 l       .debug_str	00000000 
0000019e l       .debug_str	00000000 
000001b2 l       .debug_str	00000000 
000001e0 l       .debug_str	00000000 
000001f7 l       .debug_str	00000000 
00000253 l       .debug_str	00000000 
00000255 l       .debug_str	00000000 
0000025a l       .debug_str	00000000 
0000025e l       .debug_str	00000000 
000002c2 l       .debug_str	00000000 
000002ca l       .debug_str	00000000 
000002d3 l       .debug_str	00000000 
000002dd l       .debug_str	00000000 
0000030d l       .debug_str	00000000 
00000333 l       .debug_str	00000000 
0000034b l       .debug_str	00000000 
00000373 l       .debug_str	00000000 
000003a6 l       .debug_str	00000000 
000003b1 l       .debug_str	00000000 
000003bb l       .debug_str	00000000 
000003c1 l       .debug_str	00000000 
000003f8 l       .debug_str	00000000 
00000437 l       .debug_str	00000000 
0000043e l       .debug_str	00000000 
00000446 l       .debug_str	00000000 
0000045d l       .debug_str	00000000 
00000466 l       .debug_str	00000000 
00000487 l       .debug_str	00000000 
00000491 l       .debug_str	00000000 
000004b7 l       .debug_str	00000000 
000004cf l       .debug_str	00000000 
000004f7 l       .debug_str	00000000 
0000052a l       .debug_str	00000000 
00000535 l       .debug_str	00000000 
0000053e l       .debug_str	00000000 
00000549 l       .debug_str	00000000 
00000555 l       .debug_str	00000000 
00000559 l       .debug_str	00000000 
00000562 l       .debug_str	00000000 
00000569 l       .debug_str	00000000 
00000571 l       .debug_str	00000000 
00000579 l       .debug_str	00000000 
00000583 l       .debug_str	00000000 
00000589 l       .debug_str	00000000 
00000590 l       .debug_str	00000000 
0000059a l       .debug_str	00000000 
000005a1 l       .debug_str	00000000 
000005ce l       .debug_str	00000000 
00000603 l       .debug_str	00000000 
00000609 l       .debug_str	00000000 
0000060f l       .debug_str	00000000 
0000061e l       .debug_str	00000000 
0000062e l       .debug_str	00000000 
0000063e l       .debug_str	00000000 
00000646 l       .debug_str	00000000 
0000066e l       .debug_str	00000000 
000006cb l       .debug_str	00000000 
00000730 l       .debug_str	00000000 
00000737 l       .debug_str	00000000 
0000073f l       .debug_str	00000000 
00000748 l       .debug_str	00000000 
00000766 l       .debug_str	00000000 
00000776 l       .debug_str	00000000 
00000784 l       .debug_str	00000000 
0000078f l       .debug_str	00000000 
0000079c l       .debug_str	00000000 
000007ab l       .debug_str	00000000 
000007c1 l       .debug_str	00000000 
000007cb l       .debug_str	00000000 
000007d4 l       .debug_str	00000000 
000007dd l       .debug_str	00000000 
00000802 l       .debug_str	00000000 
00000818 l       .debug_str	00000000 
00000823 l       .debug_str	00000000 
00000839 l       .debug_str	00000000 
00000841 l       .debug_str	00000000 
00000861 l       .debug_str	00000000 
00000870 l       .debug_str	00000000 
00000898 l       .debug_str	00000000 
000008c2 l       .debug_str	00000000 
000008ca l       .debug_str	00000000 
000008ee l       .debug_str	00000000 
00000908 l       .debug_str	00000000 
00000914 l       .debug_str	00000000 
0000093c l       .debug_str	00000000 
00000963 l       .debug_str	00000000 
0000096c l       .debug_str	00000000 
00000976 l       .debug_str	00000000 
0000098b l       .debug_str	00000000 
00000990 l       .debug_str	00000000 
0000099b l       .debug_str	00000000 
000009a2 l       .debug_str	00000000 
000009ca l       .debug_str	00000000 
000009ec l       .debug_str	00000000 
000009f6 l       .debug_str	00000000 
000009fe l       .debug_str	00000000 
00000a05 l       .debug_str	00000000 
00000a0c l       .debug_str	00000000 
00000a11 l       .debug_str	00000000 
00000a33 l       .debug_str	00000000 
00000a5a l       .debug_str	00000000 
00000a72 l       .debug_str	00000000 
00000a7c l       .debug_str	00000000 
00000aa4 l       .debug_str	00000000 
00000ac9 l       .debug_str	00000000 
00000ad8 l       .debug_str	00000000 
00000ae3 l       .debug_str	00000000 
00000af2 l       .debug_str	00000000 
00000b07 l       .debug_str	00000000 
00000b1f l       .debug_str	00000000 
00000b72 l       .debug_str	00000000 
00000bcd l       .debug_str	00000000 
00000be2 l       .debug_str	00000000 
00000bfb l       .debug_str	00000000 
00000c23 l       .debug_str	00000000 
00000c63 l       .debug_str	00000000 
00000c6d l       .debug_str	00000000 
00000c76 l       .debug_str	00000000 
00000c7f l       .debug_str	00000000 
00000c89 l       .debug_str	00000000 
00000cb1 l       .debug_str	00000000 
00000cd6 l       .debug_str	00000000 
00000ced l       .debug_str	00000000 
00000d15 l       .debug_str	00000000 
00000d47 l       .debug_str	00000000 
00000d4f l       .debug_str	00000000 
00000d59 l       .debug_str	00000000 
00000d62 l       .debug_str	00000000 
00000d7f l       .debug_str	00000000 
00000d8e l       .debug_str	00000000 
00000db5 l       .debug_str	00000000 
00000de1 l       .debug_str	00000000 
00000df9 l       .debug_str	00000000 
00000e21 l       .debug_str	00000000 
00000e54 l       .debug_str	00000000 
00000e7c l       .debug_str	00000000 
00000eae l       .debug_str	00000000 
00000ed6 l       .debug_str	00000000 
00000f07 l       .debug_str	00000000 
00000f11 l       .debug_str	00000000 
00000f1a l       .debug_str	00000000 
00000f27 l       .debug_str	00000000 
00000f4f l       .debug_str	00000000 
00000f77 l       .debug_str	00000000 
00000f7c l       .debug_str	00000000 
00000f82 l       .debug_str	00000000 
00000fa4 l       .debug_str	00000000 
00000fac l       .debug_str	00000000 
00000fb3 l       .debug_str	00000000 
00000fbe l       .debug_str	00000000 
00000fe1 l       .debug_str	00000000 
00001009 l       .debug_str	00000000 
00001022 l       .debug_str	00000000 
0000104a l       .debug_str	00000000 
0000107e l       .debug_str	00000000 
000010a6 l       .debug_str	00000000 
000010d7 l       .debug_str	00000000 
000010df l       .debug_str	00000000 
000010e5 l       .debug_str	00000000 
000010ef l       .debug_str	00000000 
00001117 l       .debug_str	00000000 
0000113c l       .debug_str	00000000 
00001148 l       .debug_str	00000000 
00001150 l       .debug_str	00000000 
0000116f l       .debug_str	00000000 
000011c8 l       .debug_str	00000000 
00001229 l       .debug_str	00000000 
00001234 l       .debug_str	00000000 
0000127a l       .debug_str	00000000 
000012c8 l       .debug_str	00000000 
000012d2 l       .debug_str	00000000 
0000130e l       .debug_str	00000000 
00001352 l       .debug_str	00000000 
0000135b l       .debug_str	00000000 
0000136b l       .debug_str	00000000 
00001373 l       .debug_str	00000000 
000013c7 l       .debug_str	00000000 
00001423 l       .debug_str	00000000 
0000142f l       .debug_str	00000000 
00001438 l       .debug_str	00000000 
00001444 l       .debug_str	00000000 
00001450 l       .debug_str	00000000 
00001459 l       .debug_str	00000000 
00001461 l       .debug_str	00000000 
00001469 l       .debug_str	00000000 
0000147e l       .debug_str	00000000 
00001485 l       .debug_str	00000000 
000014ad l       .debug_str	00000000 
000014cf l       .debug_str	00000000 
000014f7 l       .debug_str	00000000 
00001530 l       .debug_str	00000000 
00001538 l       .debug_str	00000000 
00001540 l       .debug_str	00000000 
00001549 l       .debug_str	00000000 
00001552 l       .debug_str	00000000 
0000155b l       .debug_str	00000000 
00001583 l       .debug_str	00000000 
000015a7 l       .debug_str	00000000 
000015b7 l       .debug_str	00000000 
000015c0 l       .debug_str	00000000 
000015ce l       .debug_str	00000000 
000015dc l       .debug_str	00000000 
000015e8 l       .debug_str	00000000 
000015f4 l       .debug_str	00000000 
000015fd l       .debug_str	00000000 
0000160c l       .debug_str	00000000 
00001614 l       .debug_str	00000000 
0000162d l       .debug_str	00000000 
0000163e l       .debug_str	00000000 
00001657 l       .debug_str	00000000 
0000165c l       .debug_str	00000000 
00001664 l       .debug_str	00000000 
0000166f l       .debug_str	00000000 
00001692 l       .debug_str	00000000 
000016b7 l       .debug_str	00000000 
000016d2 l       .debug_str	00000000 
000016df l       .debug_str	00000000 
00001707 l       .debug_str	00000000 
0000172f l       .debug_str	00000000 
00001749 l       .debug_str	00000000 
00001771 l       .debug_str	00000000 
000017a6 l       .debug_str	00000000 
000017ce l       .debug_str	00000000 
000017f1 l       .debug_str	00000000 
00001819 l       .debug_str	00000000 
0000184f l       .debug_str	00000000 
0000185f l       .debug_str	00000000 
00001887 l       .debug_str	00000000 
000018b2 l       .debug_str	00000000 
000018da l       .debug_str	00000000 
00001900 l       .debug_str	00000000 
00001928 l       .debug_str	00000000 
00001958 l       .debug_str	00000000 
0000195c l       .debug_str	00000000 
00001965 l       .debug_str	00000000 
0000196d l       .debug_str	00000000 
00001977 l       .debug_str	00000000 
0000197b l       .debug_str	00000000 
00001988 l       .debug_str	00000000 
000019b0 l       .debug_str	00000000 
000019e4 l       .debug_str	00000000 
000019eb l       .debug_str	00000000 
000019f6 l       .debug_str	00000000 
00001a1d l       .debug_str	00000000 
00001a91 l       .debug_str	00000000 
00001b0d l       .debug_str	00000000 
00001b19 l       .debug_str	00000000 
00001b28 l       .debug_str	00000000 
00001b50 l       .debug_str	00000000 
00001b7a l       .debug_str	00000000 
00001b82 l       .debug_str	00000000 
00001b8b l       .debug_str	00000000 
00001b99 l       .debug_str	00000000 
00001ba0 l       .debug_str	00000000 
00001ba7 l       .debug_str	00000000 
00001baf l       .debug_str	00000000 
00001bba l       .debug_str	00000000 
00001bc1 l       .debug_str	00000000 
00001bd1 l       .debug_str	00000000 
00001bd5 l       .debug_str	00000000 
00001be9 l       .debug_str	00000000 
00001c04 l       .debug_str	00000000 
00001c0c l       .debug_str	00000000 
00001c2c l       .debug_str	00000000 
00001c42 l       .debug_str	00000000 
00001c6a l       .debug_str	00000000 
00001c9b l       .debug_str	00000000 
00001cc3 l       .debug_str	00000000 
00001cf3 l       .debug_str	00000000 
00001d1b l       .debug_str	00000000 
00001d45 l       .debug_str	00000000 
00001d6d l       .debug_str	00000000 
00001d90 l       .debug_str	00000000 
00001db8 l       .debug_str	00000000 
00001deb l       .debug_str	00000000 
00001e13 l       .debug_str	00000000 
00001e48 l       .debug_str	00000000 
00001e70 l       .debug_str	00000000 
00001ea4 l       .debug_str	00000000 
00001ead l       .debug_str	00000000 
00001eb9 l       .debug_str	00000000 
00001ee1 l       .debug_str	00000000 
00001f08 l       .debug_str	00000000 
00001f30 l       .debug_str	00000000 
00001f61 l       .debug_str	00000000 
00001f89 l       .debug_str	00000000 
00001fb4 l       .debug_str	00000000 
00001fdc l       .debug_str	00000000 
00002010 l       .debug_str	00000000 
00002038 l       .debug_str	00000000 
0000205c l       .debug_str	00000000 
00002084 l       .debug_str	00000000 
000020b3 l       .debug_str	00000000 
000020db l       .debug_str	00000000 
0000211c l       .debug_str	00000000 
00002144 l       .debug_str	00000000 
0000217c l       .debug_str	00000000 
000021a4 l       .debug_str	00000000 
00000000 l    d  .text._ZN4core3mem6zeroed17h08155ea49050dc3eE	00000000 .text._ZN4core3mem6zeroed17h08155ea49050dc3eE
00000000 l    d  .text._ZN4core3mem6zeroed17h1b7c9138926d7b9cE	00000000 .text._ZN4core3mem6zeroed17h1b7c9138926d7b9cE
00000000 l    d  .text._ZN4core3mem6zeroed17h2c5a9e6369ada9ebE	00000000 .text._ZN4core3mem6zeroed17h2c5a9e6369ada9ebE
00000000 l    d  .text._ZN4core3mem6zeroed17h2c7747257aa272c7E	00000000 .text._ZN4core3mem6zeroed17h2c7747257aa272c7E
00000000 l    d  .text._ZN4core3mem6zeroed17h2fcb95fac63f0f37E	00000000 .text._ZN4core3mem6zeroed17h2fcb95fac63f0f37E
00000000 l    d  .text._ZN4core3mem6zeroed17h3319ebf41e5ebcd3E	00000000 .text._ZN4core3mem6zeroed17h3319ebf41e5ebcd3E
00000000 l    d  .text._ZN4core3mem6zeroed17h374e790a6b292e1cE	00000000 .text._ZN4core3mem6zeroed17h374e790a6b292e1cE
00000000 l    d  .text._ZN4core3mem6zeroed17h38e1ce7c1e5873d8E	00000000 .text._ZN4core3mem6zeroed17h38e1ce7c1e5873d8E
00000000 l    d  .text._ZN4core3mem6zeroed17h4a90a962f223a34bE	00000000 .text._ZN4core3mem6zeroed17h4a90a962f223a34bE
00000000 l    d  .text._ZN4core3mem6zeroed17h4cab47ee70a5f420E	00000000 .text._ZN4core3mem6zeroed17h4cab47ee70a5f420E
00000000 l    d  .text._ZN4core3mem6zeroed17h54d1c270f7c18682E	00000000 .text._ZN4core3mem6zeroed17h54d1c270f7c18682E
00000000 l    d  .text._ZN4core3mem6zeroed17h5935ad08c7a7043bE	00000000 .text._ZN4core3mem6zeroed17h5935ad08c7a7043bE
00000000 l    d  .text._ZN4core3mem6zeroed17h5ce3b1a147c0b31cE	00000000 .text._ZN4core3mem6zeroed17h5ce3b1a147c0b31cE
00000000 l    d  .text._ZN4core3mem6zeroed17h5fca9c1a1095d517E	00000000 .text._ZN4core3mem6zeroed17h5fca9c1a1095d517E
00000000 l    d  .text._ZN4core3mem6zeroed17h64045bbfaa0998f4E	00000000 .text._ZN4core3mem6zeroed17h64045bbfaa0998f4E
00000000 l    d  .text._ZN4core3mem6zeroed17h64b6ac68acfa6d7aE	00000000 .text._ZN4core3mem6zeroed17h64b6ac68acfa6d7aE
00000000 l    d  .text._ZN4core3mem6zeroed17h6c16a59c940a3294E	00000000 .text._ZN4core3mem6zeroed17h6c16a59c940a3294E
00000000 l    d  .text._ZN4core3mem6zeroed17h6c97548100b53c02E	00000000 .text._ZN4core3mem6zeroed17h6c97548100b53c02E
00000000 l    d  .text._ZN4core3mem6zeroed17h6fd0826c5284d1e7E	00000000 .text._ZN4core3mem6zeroed17h6fd0826c5284d1e7E
00000000 l    d  .text._ZN4core3mem6zeroed17h70df674b60665696E	00000000 .text._ZN4core3mem6zeroed17h70df674b60665696E
00000000 l    d  .text._ZN4core3mem6zeroed17h79f6a622198a28bbE	00000000 .text._ZN4core3mem6zeroed17h79f6a622198a28bbE
00000000 l    d  .text._ZN4core3mem6zeroed17h7bfc2859ca9f5340E	00000000 .text._ZN4core3mem6zeroed17h7bfc2859ca9f5340E
00000000 l    d  .text._ZN4core3mem6zeroed17h80594db7b20bcd9dE	00000000 .text._ZN4core3mem6zeroed17h80594db7b20bcd9dE
00000000 l    d  .text._ZN4core3mem6zeroed17h82caf1239ac4833bE	00000000 .text._ZN4core3mem6zeroed17h82caf1239ac4833bE
00000000 l    d  .text._ZN4core3mem6zeroed17h88fd50400cb1a996E	00000000 .text._ZN4core3mem6zeroed17h88fd50400cb1a996E
00000000 l    d  .text._ZN4core3mem6zeroed17h8dbad459a4b2071aE	00000000 .text._ZN4core3mem6zeroed17h8dbad459a4b2071aE
00000000 l    d  .text._ZN4core3mem6zeroed17h92e18ce85b06259eE	00000000 .text._ZN4core3mem6zeroed17h92e18ce85b06259eE
00000000 l    d  .text._ZN4core3mem6zeroed17h92eefd0ad2717dd3E	00000000 .text._ZN4core3mem6zeroed17h92eefd0ad2717dd3E
00000000 l    d  .text._ZN4core3mem6zeroed17h98e0c4c0deb7c86bE	00000000 .text._ZN4core3mem6zeroed17h98e0c4c0deb7c86bE
00000000 l    d  .text._ZN4core3mem6zeroed17h9aa2c627ba372f2fE	00000000 .text._ZN4core3mem6zeroed17h9aa2c627ba372f2fE
00000000 l    d  .text._ZN4core3mem6zeroed17h9ad70ac399f4322bE	00000000 .text._ZN4core3mem6zeroed17h9ad70ac399f4322bE
00000000 l    d  .text._ZN4core3mem6zeroed17ha188dc5e0bd4fd78E	00000000 .text._ZN4core3mem6zeroed17ha188dc5e0bd4fd78E
00000000 l    d  .text._ZN4core3mem6zeroed17ha42de8d78d848b40E	00000000 .text._ZN4core3mem6zeroed17ha42de8d78d848b40E
00000000 l    d  .text._ZN4core3mem6zeroed17ha8a888d7a5d79574E	00000000 .text._ZN4core3mem6zeroed17ha8a888d7a5d79574E
00000000 l    d  .text._ZN4core3mem6zeroed17hb09e7ec69bda6ad0E	00000000 .text._ZN4core3mem6zeroed17hb09e7ec69bda6ad0E
00000000 l    d  .text._ZN4core3mem6zeroed17hb6404f5abcb541feE	00000000 .text._ZN4core3mem6zeroed17hb6404f5abcb541feE
00000000 l    d  .text._ZN4core3mem6zeroed17hd940eb44d903adefE	00000000 .text._ZN4core3mem6zeroed17hd940eb44d903adefE
00000000 l    d  .text._ZN4core3mem6zeroed17hdab47f1c2f229790E	00000000 .text._ZN4core3mem6zeroed17hdab47f1c2f229790E
00000000 l    d  .text._ZN4core3mem6zeroed17hded35ad507f971e3E	00000000 .text._ZN4core3mem6zeroed17hded35ad507f971e3E
00000000 l    d  .text._ZN4core3mem6zeroed17he26129cc1a6bd652E	00000000 .text._ZN4core3mem6zeroed17he26129cc1a6bd652E
00000000 l    d  .text._ZN4core3mem6zeroed17he8704dfe99657d04E	00000000 .text._ZN4core3mem6zeroed17he8704dfe99657d04E
00000000 l    d  .text._ZN4core3mem6zeroed17hee2152239e6bc116E	00000000 .text._ZN4core3mem6zeroed17hee2152239e6bc116E
00000000 l    d  .text._ZN4core3mem6zeroed17hfcb0e8ea495ca665E	00000000 .text._ZN4core3mem6zeroed17hfcb0e8ea495ca665E
00000000 l    d  .text._ZN4core3mem6zeroed17hfd350443cca8fc90E	00000000 .text._ZN4core3mem6zeroed17hfd350443cca8fc90E
00000000 l    d  .debug_abbrev	00000000 .debug_abbrev
00000000 l    d  .debug_info	00000000 .debug_info
00000000 l    d  .debug_ranges	00000000 .debug_ranges
00000000 l    d  .debug_frame	00000000 .debug_frame
00000000 l    d  .debug_line	00000000 .debug_line
00000000 g     F .text._ZN4core3mem6zeroed17h08155ea49050dc3eE	00000016 _ZN4core3mem6zeroed17h08155ea49050dc3eE
00000000 g     F .text._ZN4core3mem6zeroed17h1b7c9138926d7b9cE	0000001c _ZN4core3mem6zeroed17h1b7c9138926d7b9cE
00000000 g     F .text._ZN4core3mem6zeroed17h2c5a9e6369ada9ebE	0000001c _ZN4core3mem6zeroed17h2c5a9e6369ada9ebE
00000000 g     F .text._ZN4core3mem6zeroed17h2c7747257aa272c7E	00000010 _ZN4core3mem6zeroed17h2c7747257aa272c7E
00000000 g     F .text._ZN4core3mem6zeroed17h2fcb95fac63f0f37E	00000014 _ZN4core3mem6zeroed17h2fcb95fac63f0f37E
00000000 g     F .text._ZN4core3mem6zeroed17h3319ebf41e5ebcd3E	0000001c _ZN4core3mem6zeroed17h3319ebf41e5ebcd3E
00000000 g     F .text._ZN4core3mem6zeroed17h374e790a6b292e1cE	0000001a _ZN4core3mem6zeroed17h374e790a6b292e1cE
00000000 g     F .text._ZN4core3mem6zeroed17h38e1ce7c1e5873d8E	00000018 _ZN4core3mem6zeroed17h38e1ce7c1e5873d8E
00000000 g     F .text._ZN4core3mem6zeroed17h4a90a962f223a34bE	00000010 _ZN4core3mem6zeroed17h4a90a962f223a34bE
00000000 g     F .text._ZN4core3mem6zeroed17h4cab47ee70a5f420E	0000001c _ZN4core3mem6zeroed17h4cab47ee70a5f420E
00000000 g     F .text._ZN4core3mem6zeroed17h54d1c270f7c18682E	00000010 _ZN4core3mem6zeroed17h54d1c270f7c18682E
00000000 g     F .text._ZN4core3mem6zeroed17h5935ad08c7a7043bE	00000010 _ZN4core3mem6zeroed17h5935ad08c7a7043bE
00000000 g     F .text._ZN4core3mem6zeroed17h5ce3b1a147c0b31cE	0000001c _ZN4core3mem6zeroed17h5ce3b1a147c0b31cE
00000000 g     F .text._ZN4core3mem6zeroed17h5fca9c1a1095d517E	0000001c _ZN4core3mem6zeroed17h5fca9c1a1095d517E
00000000 g     F .text._ZN4core3mem6zeroed17h64045bbfaa0998f4E	0000001c _ZN4core3mem6zeroed17h64045bbfaa0998f4E
00000000 g     F .text._ZN4core3mem6zeroed17h64b6ac68acfa6d7aE	0000001c _ZN4core3mem6zeroed17h64b6ac68acfa6d7aE
00000000 g     F .text._ZN4core3mem6zeroed17h6c16a59c940a3294E	00000016 _ZN4core3mem6zeroed17h6c16a59c940a3294E
00000000 g     F .text._ZN4core3mem6zeroed17h6c97548100b53c02E	00000010 _ZN4core3mem6zeroed17h6c97548100b53c02E
00000000 g     F .text._ZN4core3mem6zeroed17h6fd0826c5284d1e7E	00000016 _ZN4core3mem6zeroed17h6fd0826c5284d1e7E
00000000 g     F .text._ZN4core3mem6zeroed17h70df674b60665696E	00000016 _ZN4core3mem6zeroed17h70df674b60665696E
00000000 g     F .text._ZN4core3mem6zeroed17h79f6a622198a28bbE	00000010 _ZN4core3mem6zeroed17h79f6a622198a28bbE
00000000 g     F .text._ZN4core3mem6zeroed17h7bfc2859ca9f5340E	00000016 _ZN4core3mem6zeroed17h7bfc2859ca9f5340E
00000000 g     F .text._ZN4core3mem6zeroed17h80594db7b20bcd9dE	00000010 _ZN4core3mem6zeroed17h80594db7b20bcd9dE
00000000 g     F .text._ZN4core3mem6zeroed17h82caf1239ac4833bE	0000001c _ZN4core3mem6zeroed17h82caf1239ac4833bE
00000000 g     F .text._ZN4core3mem6zeroed17h88fd50400cb1a996E	0000001e _ZN4core3mem6zeroed17h88fd50400cb1a996E
00000000 g     F .text._ZN4core3mem6zeroed17h8dbad459a4b2071aE	00000010 _ZN4core3mem6zeroed17h8dbad459a4b2071aE
00000000 g     F .text._ZN4core3mem6zeroed17h92e18ce85b06259eE	00000018 _ZN4core3mem6zeroed17h92e18ce85b06259eE
00000000 g     F .text._ZN4core3mem6zeroed17h92eefd0ad2717dd3E	00000016 _ZN4core3mem6zeroed17h92eefd0ad2717dd3E
00000000 g     F .text._ZN4core3mem6zeroed17h98e0c4c0deb7c86bE	00000010 _ZN4core3mem6zeroed17h98e0c4c0deb7c86bE
00000000 g     F .text._ZN4core3mem6zeroed17h9aa2c627ba372f2fE	00000010 _ZN4core3mem6zeroed17h9aa2c627ba372f2fE
00000000 g     F .text._ZN4core3mem6zeroed17h9ad70ac399f4322bE	00000014 _ZN4core3mem6zeroed17h9ad70ac399f4322bE
00000000 g     F .text._ZN4core3mem6zeroed17ha188dc5e0bd4fd78E	00000018 _ZN4core3mem6zeroed17ha188dc5e0bd4fd78E
00000000 g     F .text._ZN4core3mem6zeroed17ha42de8d78d848b40E	0000001c _ZN4core3mem6zeroed17ha42de8d78d848b40E
00000000 g     F .text._ZN4core3mem6zeroed17ha8a888d7a5d79574E	00000010 _ZN4core3mem6zeroed17ha8a888d7a5d79574E
00000000 g     F .text._ZN4core3mem6zeroed17hb09e7ec69bda6ad0E	00000010 _ZN4core3mem6zeroed17hb09e7ec69bda6ad0E
00000000 g     F .text._ZN4core3mem6zeroed17hb6404f5abcb541feE	00000010 _ZN4core3mem6zeroed17hb6404f5abcb541feE
00000000 g     F .text._ZN4core3mem6zeroed17hd940eb44d903adefE	00000010 _ZN4core3mem6zeroed17hd940eb44d903adefE
00000000 g     F .text._ZN4core3mem6zeroed17hdab47f1c2f229790E	0000001a _ZN4core3mem6zeroed17hdab47f1c2f229790E
00000000 g     F .text._ZN4core3mem6zeroed17hded35ad507f971e3E	00000010 _ZN4core3mem6zeroed17hded35ad507f971e3E
00000000 g     F .text._ZN4core3mem6zeroed17he26129cc1a6bd652E	00000018 _ZN4core3mem6zeroed17he26129cc1a6bd652E
00000000 g     F .text._ZN4core3mem6zeroed17he8704dfe99657d04E	0000001a _ZN4core3mem6zeroed17he8704dfe99657d04E
00000000 g     F .text._ZN4core3mem6zeroed17hee2152239e6bc116E	00000010 _ZN4core3mem6zeroed17hee2152239e6bc116E
00000000 g     F .text._ZN4core3mem6zeroed17hfcb0e8ea495ca665E	00000010 _ZN4core3mem6zeroed17hfcb0e8ea495ca665E
00000000 g     F .text._ZN4core3mem6zeroed17hfd350443cca8fc90E	00000020 _ZN4core3mem6zeroed17hfd350443cca8fc90E
00000000         *UND*	00000000 __aeabi_memclr4



Disassembly of section .text._ZN4core3mem6zeroed17h08155ea49050dc3eE:

00000000 <_ZN4core3mem6zeroed17h08155ea49050dc3eE>:
_ZN4core3mem6zeroed17h08155ea49050dc3eE():
/rustc/50a0defd5a93523067ef239936cc2e0755220904/src/libcore/mem.rs:445
   0:	b081      	sub	sp, #4
/rustc/50a0defd5a93523067ef239936cc2e0755220904/src/libcore/mem.rs:446
   2:	9000      	str	r0, [sp, #0]
   4:	e7ff      	b.n	6 <_ZN4core3mem6zeroed17h08155ea49050dc3eE+0x6>
   6:	2000      	movs	r0, #0
/rustc/50a0defd5a93523067ef239936cc2e0755220904/src/libcore/mem.rs:447
   8:	9900      	ldr	r1, [sp, #0]
   a:	6088      	str	r0, [r1, #8]
   c:	6048      	str	r0, [r1, #4]
   e:	6008      	str	r0, [r1, #0]
  10:	e7ff      	b.n	12 <_ZN4core3mem6zeroed17h08155ea49050dc3eE+0x12>
/rustc/50a0defd5a93523067ef239936cc2e0755220904/src/libcore/mem.rs:448
  12:	b001      	add	sp, #4
  14:	4770      	bx	lr

Disassembly of section .text._ZN4core3mem6zeroed17h1b7c9138926d7b9cE:

00000000 <_ZN4core3mem6zeroed17h1b7c9138926d7b9cE>:
_ZN4core3mem6zeroed17h1b7c9138926d7b9cE():
/rustc/50a0defd5a93523067ef239936cc2e0755220904/src/libcore/mem.rs:445
   0:	b084      	sub	sp, #16
/rustc/50a0defd5a93523067ef239936cc2e0755220904/src/libcore/mem.rs:446
   2:	e7ff      	b.n	4 <_ZN4core3mem6zeroed17h1b7c9138926d7b9cE+0x4>
   4:	2000      	movs	r0, #0
/rustc/50a0defd5a93523067ef239936cc2e0755220904/src/libcore/mem.rs:447
   6:	9003      	str	r0, [sp, #12]
   8:	9002      	str	r0, [sp, #8]
   a:	9802      	ldr	r0, [sp, #8]
   c:	9903      	ldr	r1, [sp, #12]
   e:	9001      	str	r0, [sp, #4]
  10:	9100      	str	r1, [sp, #0]
  12:	e7ff      	b.n	14 <_ZN4core3mem6zeroed17h1b7c9138926d7b9cE+0x14>
/rustc/50a0defd5a93523067ef239936cc2e0755220904/src/libcore/mem.rs:448
  14:	9801      	ldr	r0, [sp, #4]
  16:	9900      	ldr	r1, [sp, #0]
  18:	b004      	add	sp, #16
  1a:	4770      	bx	lr

Disassembly of section .text._ZN4core3mem6zeroed17h2c5a9e6369ada9ebE:

00000000 <_ZN4core3mem6zeroed17h2c5a9e6369ada9ebE>:
_ZN4core3mem6zeroed17h2c5a9e6369ada9ebE():
/rustc/50a0defd5a93523067ef239936cc2e0755220904/src/libcore/mem.rs:445
   0:	b084      	sub	sp, #16
/rustc/50a0defd5a93523067ef239936cc2e0755220904/src/libcore/mem.rs:446
   2:	e7ff      	b.n	4 <_ZN4core3mem6zeroed17h2c5a9e6369ada9ebE+0x4>
   4:	2000      	movs	r0, #0
/rustc/50a0defd5a93523067ef239936cc2e0755220904/src/libcore/mem.rs:447
   6:	9003      	str	r0, [sp, #12]
   8:	9002      	str	r0, [sp, #8]
   a:	9802      	ldr	r0, [sp, #8]
   c:	9903      	ldr	r1, [sp, #12]
   e:	9001      	str	r0, [sp, #4]
  10:	9100      	str	r1, [sp, #0]
  12:	e7ff      	b.n	14 <_ZN4core3mem6zeroed17h2c5a9e6369ada9ebE+0x14>
/rustc/50a0defd5a93523067ef239936cc2e0755220904/src/libcore/mem.rs:448
  14:	9801      	ldr	r0, [sp, #4]
  16:	9900      	ldr	r1, [sp, #0]
  18:	b004      	add	sp, #16
  1a:	4770      	bx	lr

Disassembly of section .text._ZN4core3mem6zeroed17h2c7747257aa272c7E:

00000000 <_ZN4core3mem6zeroed17h2c7747257aa272c7E>:
_ZN4core3mem6zeroed17h2c7747257aa272c7E():
/rustc/50a0defd5a93523067ef239936cc2e0755220904/src/libcore/mem.rs:445
   0:	b081      	sub	sp, #4
/rustc/50a0defd5a93523067ef239936cc2e0755220904/src/libcore/mem.rs:446
   2:	e7ff      	b.n	4 <_ZN4core3mem6zeroed17h2c7747257aa272c7E+0x4>
   4:	2000      	movs	r0, #0
/rustc/50a0defd5a93523067ef239936cc2e0755220904/src/libcore/mem.rs:447
   6:	9000      	str	r0, [sp, #0]
   8:	e7ff      	b.n	a <_ZN4core3mem6zeroed17h2c7747257aa272c7E+0xa>
/rustc/50a0defd5a93523067ef239936cc2e0755220904/src/libcore/mem.rs:448
   a:	9800      	ldr	r0, [sp, #0]
   c:	b001      	add	sp, #4
   e:	4770      	bx	lr

Disassembly of section .text._ZN4core3mem6zeroed17h2fcb95fac63f0f37E:

00000000 <_ZN4core3mem6zeroed17h2fcb95fac63f0f37E>:
_ZN4core3mem6zeroed17h2fcb95fac63f0f37E():
/rustc/50a0defd5a93523067ef239936cc2e0755220904/src/libcore/mem.rs:445
   0:	b081      	sub	sp, #4
/rustc/50a0defd5a93523067ef239936cc2e0755220904/src/libcore/mem.rs:446
   2:	9000      	str	r0, [sp, #0]
   4:	e7ff      	b.n	6 <_ZN4core3mem6zeroed17h2fcb95fac63f0f37E+0x6>
   6:	2000      	movs	r0, #0
/rustc/50a0defd5a93523067ef239936cc2e0755220904/src/libcore/mem.rs:447
   8:	9900      	ldr	r1, [sp, #0]
   a:	6048      	str	r0, [r1, #4]
   c:	6008      	str	r0, [r1, #0]
   e:	e7ff      	b.n	10 <_ZN4core3mem6zeroed17h2fcb95fac63f0f37E+0x10>
/rustc/50a0defd5a93523067ef239936cc2e0755220904/src/libcore/mem.rs:448
  10:	b001      	add	sp, #4
  12:	4770      	bx	lr

Disassembly of section .text._ZN4core3mem6zeroed17h3319ebf41e5ebcd3E:

00000000 <_ZN4core3mem6zeroed17h3319ebf41e5ebcd3E>:
_ZN4core3mem6zeroed17h3319ebf41e5ebcd3E():
/rustc/50a0defd5a93523067ef239936cc2e0755220904/src/libcore/mem.rs:445
   0:	b081      	sub	sp, #4
/rustc/50a0defd5a93523067ef239936cc2e0755220904/src/libcore/mem.rs:446
   2:	9000      	str	r0, [sp, #0]
   4:	e7ff      	b.n	6 <_ZN4core3mem6zeroed17h3319ebf41e5ebcd3E+0x6>
   6:	2000      	movs	r0, #0
/rustc/50a0defd5a93523067ef239936cc2e0755220904/src/libcore/mem.rs:447
   8:	9900      	ldr	r1, [sp, #0]
   a:	6148      	str	r0, [r1, #20]
   c:	6108      	str	r0, [r1, #16]
   e:	60c8      	str	r0, [r1, #12]
  10:	6088      	str	r0, [r1, #8]
  12:	6048      	str	r0, [r1, #4]
  14:	6008      	str	r0, [r1, #0]
  16:	e7ff      	b.n	18 <_ZN4core3mem6zeroed17h3319ebf41e5ebcd3E+0x18>
/rustc/50a0defd5a93523067ef239936cc2e0755220904/src/libcore/mem.rs:448
  18:	b001      	add	sp, #4
  1a:	4770      	bx	lr

Disassembly of section .text._ZN4core3mem6zeroed17h374e790a6b292e1cE:

00000000 <_ZN4core3mem6zeroed17h374e790a6b292e1cE>:
_ZN4core3mem6zeroed17h374e790a6b292e1cE():
/rustc/50a0defd5a93523067ef239936cc2e0755220904/src/libcore/mem.rs:445
   0:	b081      	sub	sp, #4
/rustc/50a0defd5a93523067ef239936cc2e0755220904/src/libcore/mem.rs:446
   2:	9000      	str	r0, [sp, #0]
   4:	e7ff      	b.n	6 <_ZN4core3mem6zeroed17h374e790a6b292e1cE+0x6>
   6:	2000      	movs	r0, #0
/rustc/50a0defd5a93523067ef239936cc2e0755220904/src/libcore/mem.rs:447
   8:	9900      	ldr	r1, [sp, #0]
   a:	6108      	str	r0, [r1, #16]
   c:	60c8      	str	r0, [r1, #12]
   e:	6088      	str	r0, [r1, #8]
  10:	6048      	str	r0, [r1, #4]
  12:	6008      	str	r0, [r1, #0]
  14:	e7ff      	b.n	16 <_ZN4core3mem6zeroed17h374e790a6b292e1cE+0x16>
/rustc/50a0defd5a93523067ef239936cc2e0755220904/src/libcore/mem.rs:448
  16:	b001      	add	sp, #4
  18:	4770      	bx	lr

Disassembly of section .text._ZN4core3mem6zeroed17h38e1ce7c1e5873d8E:

00000000 <_ZN4core3mem6zeroed17h38e1ce7c1e5873d8E>:
_ZN4core3mem6zeroed17h38e1ce7c1e5873d8E():
/rustc/50a0defd5a93523067ef239936cc2e0755220904/src/libcore/mem.rs:445
   0:	b081      	sub	sp, #4
/rustc/50a0defd5a93523067ef239936cc2e0755220904/src/libcore/mem.rs:446
   2:	9000      	str	r0, [sp, #0]
   4:	e7ff      	b.n	6 <_ZN4core3mem6zeroed17h38e1ce7c1e5873d8E+0x6>
   6:	2000      	movs	r0, #0
/rustc/50a0defd5a93523067ef239936cc2e0755220904/src/libcore/mem.rs:447
   8:	9900      	ldr	r1, [sp, #0]
   a:	60c8      	str	r0, [r1, #12]
   c:	6088      	str	r0, [r1, #8]
   e:	6048      	str	r0, [r1, #4]
  10:	6008      	str	r0, [r1, #0]
  12:	e7ff      	b.n	14 <_ZN4core3mem6zeroed17h38e1ce7c1e5873d8E+0x14>
/rustc/50a0defd5a93523067ef239936cc2e0755220904/src/libcore/mem.rs:448
  14:	b001      	add	sp, #4
  16:	4770      	bx	lr

Disassembly of section .text._ZN4core3mem6zeroed17h4a90a962f223a34bE:

00000000 <_ZN4core3mem6zeroed17h4a90a962f223a34bE>:
_ZN4core3mem6zeroed17h4a90a962f223a34bE():
/rustc/50a0defd5a93523067ef239936cc2e0755220904/src/libcore/mem.rs:445
   0:	b081      	sub	sp, #4
/rustc/50a0defd5a93523067ef239936cc2e0755220904/src/libcore/mem.rs:446
   2:	e7ff      	b.n	4 <_ZN4core3mem6zeroed17h4a90a962f223a34bE+0x4>
   4:	2000      	movs	r0, #0
/rustc/50a0defd5a93523067ef239936cc2e0755220904/src/libcore/mem.rs:447
   6:	9000      	str	r0, [sp, #0]
   8:	e7ff      	b.n	a <_ZN4core3mem6zeroed17h4a90a962f223a34bE+0xa>
/rustc/50a0defd5a93523067ef239936cc2e0755220904/src/libcore/mem.rs:448
   a:	9800      	ldr	r0, [sp, #0]
   c:	b001      	add	sp, #4
   e:	4770      	bx	lr

Disassembly of section .text._ZN4core3mem6zeroed17h4cab47ee70a5f420E:

00000000 <_ZN4core3mem6zeroed17h4cab47ee70a5f420E>:
_ZN4core3mem6zeroed17h4cab47ee70a5f420E():
/rustc/50a0defd5a93523067ef239936cc2e0755220904/src/libcore/mem.rs:445
   0:	b084      	sub	sp, #16
/rustc/50a0defd5a93523067ef239936cc2e0755220904/src/libcore/mem.rs:446
   2:	e7ff      	b.n	4 <_ZN4core3mem6zeroed17h4cab47ee70a5f420E+0x4>
   4:	2000      	movs	r0, #0
/rustc/50a0defd5a93523067ef239936cc2e0755220904/src/libcore/mem.rs:447
   6:	9003      	str	r0, [sp, #12]
   8:	9002      	str	r0, [sp, #8]
   a:	9802      	ldr	r0, [sp, #8]
   c:	9903      	ldr	r1, [sp, #12]
   e:	9001      	str	r0, [sp, #4]
  10:	9100      	str	r1, [sp, #0]
  12:	e7ff      	b.n	14 <_ZN4core3mem6zeroed17h4cab47ee70a5f420E+0x14>
/rustc/50a0defd5a93523067ef239936cc2e0755220904/src/libcore/mem.rs:448
  14:	9801      	ldr	r0, [sp, #4]
  16:	9900      	ldr	r1, [sp, #0]
  18:	b004      	add	sp, #16
  1a:	4770      	bx	lr

Disassembly of section .text._ZN4core3mem6zeroed17h54d1c270f7c18682E:

00000000 <_ZN4core3mem6zeroed17h54d1c270f7c18682E>:
_ZN4core3mem6zeroed17h54d1c270f7c18682E():
/rustc/50a0defd5a93523067ef239936cc2e0755220904/src/libcore/mem.rs:445
   0:	b081      	sub	sp, #4
/rustc/50a0defd5a93523067ef239936cc2e0755220904/src/libcore/mem.rs:446
   2:	e7ff      	b.n	4 <_ZN4core3mem6zeroed17h54d1c270f7c18682E+0x4>
   4:	2000      	movs	r0, #0
/rustc/50a0defd5a93523067ef239936cc2e0755220904/src/libcore/mem.rs:447
   6:	9000      	str	r0, [sp, #0]
   8:	e7ff      	b.n	a <_ZN4core3mem6zeroed17h54d1c270f7c18682E+0xa>
/rustc/50a0defd5a93523067ef239936cc2e0755220904/src/libcore/mem.rs:448
   a:	9800      	ldr	r0, [sp, #0]
   c:	b001      	add	sp, #4
   e:	4770      	bx	lr

Disassembly of section .text._ZN4core3mem6zeroed17h5935ad08c7a7043bE:

00000000 <_ZN4core3mem6zeroed17h5935ad08c7a7043bE>:
_ZN4core3mem6zeroed17h5935ad08c7a7043bE():
/rustc/50a0defd5a93523067ef239936cc2e0755220904/src/libcore/mem.rs:445
   0:	b081      	sub	sp, #4
/rustc/50a0defd5a93523067ef239936cc2e0755220904/src/libcore/mem.rs:446
   2:	e7ff      	b.n	4 <_ZN4core3mem6zeroed17h5935ad08c7a7043bE+0x4>
   4:	2000      	movs	r0, #0
/rustc/50a0defd5a93523067ef239936cc2e0755220904/src/libcore/mem.rs:447
   6:	9000      	str	r0, [sp, #0]
   8:	e7ff      	b.n	a <_ZN4core3mem6zeroed17h5935ad08c7a7043bE+0xa>
/rustc/50a0defd5a93523067ef239936cc2e0755220904/src/libcore/mem.rs:448
   a:	9800      	ldr	r0, [sp, #0]
   c:	b001      	add	sp, #4
   e:	4770      	bx	lr

Disassembly of section .text._ZN4core3mem6zeroed17h5ce3b1a147c0b31cE:

00000000 <_ZN4core3mem6zeroed17h5ce3b1a147c0b31cE>:
_ZN4core3mem6zeroed17h5ce3b1a147c0b31cE():
/rustc/50a0defd5a93523067ef239936cc2e0755220904/src/libcore/mem.rs:445
   0:	b084      	sub	sp, #16
/rustc/50a0defd5a93523067ef239936cc2e0755220904/src/libcore/mem.rs:446
   2:	e7ff      	b.n	4 <_ZN4core3mem6zeroed17h5ce3b1a147c0b31cE+0x4>
   4:	2000      	movs	r0, #0
/rustc/50a0defd5a93523067ef239936cc2e0755220904/src/libcore/mem.rs:447
   6:	9003      	str	r0, [sp, #12]
   8:	9002      	str	r0, [sp, #8]
   a:	9802      	ldr	r0, [sp, #8]
   c:	9903      	ldr	r1, [sp, #12]
   e:	9001      	str	r0, [sp, #4]
  10:	9100      	str	r1, [sp, #0]
  12:	e7ff      	b.n	14 <_ZN4core3mem6zeroed17h5ce3b1a147c0b31cE+0x14>
/rustc/50a0defd5a93523067ef239936cc2e0755220904/src/libcore/mem.rs:448
  14:	9801      	ldr	r0, [sp, #4]
  16:	9900      	ldr	r1, [sp, #0]
  18:	b004      	add	sp, #16
  1a:	4770      	bx	lr

Disassembly of section .text._ZN4core3mem6zeroed17h5fca9c1a1095d517E:

00000000 <_ZN4core3mem6zeroed17h5fca9c1a1095d517E>:
_ZN4core3mem6zeroed17h5fca9c1a1095d517E():
/rustc/50a0defd5a93523067ef239936cc2e0755220904/src/libcore/mem.rs:445
   0:	b084      	sub	sp, #16
/rustc/50a0defd5a93523067ef239936cc2e0755220904/src/libcore/mem.rs:446
   2:	e7ff      	b.n	4 <_ZN4core3mem6zeroed17h5fca9c1a1095d517E+0x4>
   4:	2000      	movs	r0, #0
/rustc/50a0defd5a93523067ef239936cc2e0755220904/src/libcore/mem.rs:447
   6:	9003      	str	r0, [sp, #12]
   8:	9002      	str	r0, [sp, #8]
   a:	9802      	ldr	r0, [sp, #8]
   c:	9903      	ldr	r1, [sp, #12]
   e:	9001      	str	r0, [sp, #4]
  10:	9100      	str	r1, [sp, #0]
  12:	e7ff      	b.n	14 <_ZN4core3mem6zeroed17h5fca9c1a1095d517E+0x14>
/rustc/50a0defd5a93523067ef239936cc2e0755220904/src/libcore/mem.rs:448
  14:	9801      	ldr	r0, [sp, #4]
  16:	9900      	ldr	r1, [sp, #0]
  18:	b004      	add	sp, #16
  1a:	4770      	bx	lr

Disassembly of section .text._ZN4core3mem6zeroed17h64045bbfaa0998f4E:

00000000 <_ZN4core3mem6zeroed17h64045bbfaa0998f4E>:
_ZN4core3mem6zeroed17h64045bbfaa0998f4E():
/rustc/50a0defd5a93523067ef239936cc2e0755220904/src/libcore/mem.rs:445
   0:	b084      	sub	sp, #16
/rustc/50a0defd5a93523067ef239936cc2e0755220904/src/libcore/mem.rs:446
   2:	e7ff      	b.n	4 <_ZN4core3mem6zeroed17h64045bbfaa0998f4E+0x4>
   4:	2000      	movs	r0, #0
/rustc/50a0defd5a93523067ef239936cc2e0755220904/src/libcore/mem.rs:447
   6:	9003      	str	r0, [sp, #12]
   8:	9002      	str	r0, [sp, #8]
   a:	9802      	ldr	r0, [sp, #8]
   c:	9903      	ldr	r1, [sp, #12]
   e:	9001      	str	r0, [sp, #4]
  10:	9100      	str	r1, [sp, #0]
  12:	e7ff      	b.n	14 <_ZN4core3mem6zeroed17h64045bbfaa0998f4E+0x14>
/rustc/50a0defd5a93523067ef239936cc2e0755220904/src/libcore/mem.rs:448
  14:	9801      	ldr	r0, [sp, #4]
  16:	9900      	ldr	r1, [sp, #0]
  18:	b004      	add	sp, #16
  1a:	4770      	bx	lr

Disassembly of section .text._ZN4core3mem6zeroed17h64b6ac68acfa6d7aE:

00000000 <_ZN4core3mem6zeroed17h64b6ac68acfa6d7aE>:
_ZN4core3mem6zeroed17h64b6ac68acfa6d7aE():
/rustc/50a0defd5a93523067ef239936cc2e0755220904/src/libcore/mem.rs:445
   0:	b081      	sub	sp, #4
/rustc/50a0defd5a93523067ef239936cc2e0755220904/src/libcore/mem.rs:446
   2:	9000      	str	r0, [sp, #0]
   4:	e7ff      	b.n	6 <_ZN4core3mem6zeroed17h64b6ac68acfa6d7aE+0x6>
   6:	2000      	movs	r0, #0
/rustc/50a0defd5a93523067ef239936cc2e0755220904/src/libcore/mem.rs:447
   8:	9900      	ldr	r1, [sp, #0]
   a:	6148      	str	r0, [r1, #20]
   c:	6108      	str	r0, [r1, #16]
   e:	60c8      	str	r0, [r1, #12]
  10:	6088      	str	r0, [r1, #8]
  12:	6048      	str	r0, [r1, #4]
  14:	6008      	str	r0, [r1, #0]
  16:	e7ff      	b.n	18 <_ZN4core3mem6zeroed17h64b6ac68acfa6d7aE+0x18>
/rustc/50a0defd5a93523067ef239936cc2e0755220904/src/libcore/mem.rs:448
  18:	b001      	add	sp, #4
  1a:	4770      	bx	lr

Disassembly of section .text._ZN4core3mem6zeroed17h6c16a59c940a3294E:

00000000 <_ZN4core3mem6zeroed17h6c16a59c940a3294E>:
_ZN4core3mem6zeroed17h6c16a59c940a3294E():
/rustc/50a0defd5a93523067ef239936cc2e0755220904/src/libcore/mem.rs:445
   0:	b580      	push	{r7, lr}
   2:	b082      	sub	sp, #8
/rustc/50a0defd5a93523067ef239936cc2e0755220904/src/libcore/mem.rs:446
   4:	9001      	str	r0, [sp, #4]
   6:	e7ff      	b.n	8 <_ZN4core3mem6zeroed17h6c16a59c940a3294E+0x8>
   8:	2124      	movs	r1, #36	; 0x24
/rustc/50a0defd5a93523067ef239936cc2e0755220904/src/libcore/mem.rs:447
   a:	9801      	ldr	r0, [sp, #4]
   c:	f7ff fffe 	bl	0 <__aeabi_memclr4>
  10:	e7ff      	b.n	12 <_ZN4core3mem6zeroed17h6c16a59c940a3294E+0x12>
/rustc/50a0defd5a93523067ef239936cc2e0755220904/src/libcore/mem.rs:448
  12:	b002      	add	sp, #8
  14:	bd80      	pop	{r7, pc}

Disassembly of section .text._ZN4core3mem6zeroed17h6c97548100b53c02E:

00000000 <_ZN4core3mem6zeroed17h6c97548100b53c02E>:
_ZN4core3mem6zeroed17h6c97548100b53c02E():
/rustc/50a0defd5a93523067ef239936cc2e0755220904/src/libcore/mem.rs:445
   0:	b081      	sub	sp, #4
/rustc/50a0defd5a93523067ef239936cc2e0755220904/src/libcore/mem.rs:446
   2:	e7ff      	b.n	4 <_ZN4core3mem6zeroed17h6c97548100b53c02E+0x4>
   4:	2000      	movs	r0, #0
/rustc/50a0defd5a93523067ef239936cc2e0755220904/src/libcore/mem.rs:447
   6:	9000      	str	r0, [sp, #0]
   8:	e7ff      	b.n	a <_ZN4core3mem6zeroed17h6c97548100b53c02E+0xa>
/rustc/50a0defd5a93523067ef239936cc2e0755220904/src/libcore/mem.rs:448
   a:	9800      	ldr	r0, [sp, #0]
   c:	b001      	add	sp, #4
   e:	4770      	bx	lr

Disassembly of section .text._ZN4core3mem6zeroed17h6fd0826c5284d1e7E:

00000000 <_ZN4core3mem6zeroed17h6fd0826c5284d1e7E>:
_ZN4core3mem6zeroed17h6fd0826c5284d1e7E():
/rustc/50a0defd5a93523067ef239936cc2e0755220904/src/libcore/mem.rs:445
   0:	b081      	sub	sp, #4
/rustc/50a0defd5a93523067ef239936cc2e0755220904/src/libcore/mem.rs:446
   2:	9000      	str	r0, [sp, #0]
   4:	e7ff      	b.n	6 <_ZN4core3mem6zeroed17h6fd0826c5284d1e7E+0x6>
   6:	2000      	movs	r0, #0
/rustc/50a0defd5a93523067ef239936cc2e0755220904/src/libcore/mem.rs:447
   8:	9900      	ldr	r1, [sp, #0]
   a:	6088      	str	r0, [r1, #8]
   c:	6048      	str	r0, [r1, #4]
   e:	6008      	str	r0, [r1, #0]
  10:	e7ff      	b.n	12 <_ZN4core3mem6zeroed17h6fd0826c5284d1e7E+0x12>
/rustc/50a0defd5a93523067ef239936cc2e0755220904/src/libcore/mem.rs:448
  12:	b001      	add	sp, #4
  14:	4770      	bx	lr

Disassembly of section .text._ZN4core3mem6zeroed17h70df674b60665696E:

00000000 <_ZN4core3mem6zeroed17h70df674b60665696E>:
_ZN4core3mem6zeroed17h70df674b60665696E():
/rustc/50a0defd5a93523067ef239936cc2e0755220904/src/libcore/mem.rs:445
   0:	b081      	sub	sp, #4
/rustc/50a0defd5a93523067ef239936cc2e0755220904/src/libcore/mem.rs:446
   2:	9000      	str	r0, [sp, #0]
   4:	e7ff      	b.n	6 <_ZN4core3mem6zeroed17h70df674b60665696E+0x6>
   6:	2000      	movs	r0, #0
/rustc/50a0defd5a93523067ef239936cc2e0755220904/src/libcore/mem.rs:447
   8:	9900      	ldr	r1, [sp, #0]
   a:	6088      	str	r0, [r1, #8]
   c:	6048      	str	r0, [r1, #4]
   e:	6008      	str	r0, [r1, #0]
  10:	e7ff      	b.n	12 <_ZN4core3mem6zeroed17h70df674b60665696E+0x12>
/rustc/50a0defd5a93523067ef239936cc2e0755220904/src/libcore/mem.rs:448
  12:	b001      	add	sp, #4
  14:	4770      	bx	lr

Disassembly of section .text._ZN4core3mem6zeroed17h79f6a622198a28bbE:

00000000 <_ZN4core3mem6zeroed17h79f6a622198a28bbE>:
_ZN4core3mem6zeroed17h79f6a622198a28bbE():
/rustc/50a0defd5a93523067ef239936cc2e0755220904/src/libcore/mem.rs:445
   0:	b081      	sub	sp, #4
/rustc/50a0defd5a93523067ef239936cc2e0755220904/src/libcore/mem.rs:446
   2:	e7ff      	b.n	4 <_ZN4core3mem6zeroed17h79f6a622198a28bbE+0x4>
   4:	2000      	movs	r0, #0
/rustc/50a0defd5a93523067ef239936cc2e0755220904/src/libcore/mem.rs:447
   6:	9000      	str	r0, [sp, #0]
   8:	e7ff      	b.n	a <_ZN4core3mem6zeroed17h79f6a622198a28bbE+0xa>
/rustc/50a0defd5a93523067ef239936cc2e0755220904/src/libcore/mem.rs:448
   a:	9800      	ldr	r0, [sp, #0]
   c:	b001      	add	sp, #4
   e:	4770      	bx	lr

Disassembly of section .text._ZN4core3mem6zeroed17h7bfc2859ca9f5340E:

00000000 <_ZN4core3mem6zeroed17h7bfc2859ca9f5340E>:
_ZN4core3mem6zeroed17h7bfc2859ca9f5340E():
/rustc/50a0defd5a93523067ef239936cc2e0755220904/src/libcore/mem.rs:445
   0:	b580      	push	{r7, lr}
   2:	b082      	sub	sp, #8
/rustc/50a0defd5a93523067ef239936cc2e0755220904/src/libcore/mem.rs:446
   4:	9001      	str	r0, [sp, #4]
   6:	e7ff      	b.n	8 <_ZN4core3mem6zeroed17h7bfc2859ca9f5340E+0x8>
   8:	2150      	movs	r1, #80	; 0x50
/rustc/50a0defd5a93523067ef239936cc2e0755220904/src/libcore/mem.rs:447
   a:	9801      	ldr	r0, [sp, #4]
   c:	f7ff fffe 	bl	0 <__aeabi_memclr4>
  10:	e7ff      	b.n	12 <_ZN4core3mem6zeroed17h7bfc2859ca9f5340E+0x12>
/rustc/50a0defd5a93523067ef239936cc2e0755220904/src/libcore/mem.rs:448
  12:	b002      	add	sp, #8
  14:	bd80      	pop	{r7, pc}

Disassembly of section .text._ZN4core3mem6zeroed17h80594db7b20bcd9dE:

00000000 <_ZN4core3mem6zeroed17h80594db7b20bcd9dE>:
_ZN4core3mem6zeroed17h80594db7b20bcd9dE():
/rustc/50a0defd5a93523067ef239936cc2e0755220904/src/libcore/mem.rs:445
   0:	b081      	sub	sp, #4
/rustc/50a0defd5a93523067ef239936cc2e0755220904/src/libcore/mem.rs:446
   2:	e7ff      	b.n	4 <_ZN4core3mem6zeroed17h80594db7b20bcd9dE+0x4>
   4:	2000      	movs	r0, #0
/rustc/50a0defd5a93523067ef239936cc2e0755220904/src/libcore/mem.rs:447
   6:	9000      	str	r0, [sp, #0]
   8:	e7ff      	b.n	a <_ZN4core3mem6zeroed17h80594db7b20bcd9dE+0xa>
/rustc/50a0defd5a93523067ef239936cc2e0755220904/src/libcore/mem.rs:448
   a:	9800      	ldr	r0, [sp, #0]
   c:	b001      	add	sp, #4
   e:	4770      	bx	lr

Disassembly of section .text._ZN4core3mem6zeroed17h82caf1239ac4833bE:

00000000 <_ZN4core3mem6zeroed17h82caf1239ac4833bE>:
_ZN4core3mem6zeroed17h82caf1239ac4833bE():
/rustc/50a0defd5a93523067ef239936cc2e0755220904/src/libcore/mem.rs:445
   0:	b084      	sub	sp, #16
/rustc/50a0defd5a93523067ef239936cc2e0755220904/src/libcore/mem.rs:446
   2:	e7ff      	b.n	4 <_ZN4core3mem6zeroed17h82caf1239ac4833bE+0x4>
   4:	2000      	movs	r0, #0
/rustc/50a0defd5a93523067ef239936cc2e0755220904/src/libcore/mem.rs:447
   6:	9003      	str	r0, [sp, #12]
   8:	9002      	str	r0, [sp, #8]
   a:	9802      	ldr	r0, [sp, #8]
   c:	9903      	ldr	r1, [sp, #12]
   e:	9001      	str	r0, [sp, #4]
  10:	9100      	str	r1, [sp, #0]
  12:	e7ff      	b.n	14 <_ZN4core3mem6zeroed17h82caf1239ac4833bE+0x14>
/rustc/50a0defd5a93523067ef239936cc2e0755220904/src/libcore/mem.rs:448
  14:	9801      	ldr	r0, [sp, #4]
  16:	9900      	ldr	r1, [sp, #0]
  18:	b004      	add	sp, #16
  1a:	4770      	bx	lr

Disassembly of section .text._ZN4core3mem6zeroed17h88fd50400cb1a996E:

00000000 <_ZN4core3mem6zeroed17h88fd50400cb1a996E>:
_ZN4core3mem6zeroed17h88fd50400cb1a996E():
/rustc/50a0defd5a93523067ef239936cc2e0755220904/src/libcore/mem.rs:445
   0:	b081      	sub	sp, #4
/rustc/50a0defd5a93523067ef239936cc2e0755220904/src/libcore/mem.rs:446
   2:	9000      	str	r0, [sp, #0]
   4:	e7ff      	b.n	6 <_ZN4core3mem6zeroed17h88fd50400cb1a996E+0x6>
   6:	2000      	movs	r0, #0
/rustc/50a0defd5a93523067ef239936cc2e0755220904/src/libcore/mem.rs:447
   8:	9900      	ldr	r1, [sp, #0]
   a:	6188      	str	r0, [r1, #24]
   c:	6148      	str	r0, [r1, #20]
   e:	6108      	str	r0, [r1, #16]
  10:	60c8      	str	r0, [r1, #12]
  12:	6088      	str	r0, [r1, #8]
  14:	6048      	str	r0, [r1, #4]
  16:	6008      	str	r0, [r1, #0]
  18:	e7ff      	b.n	1a <_ZN4core3mem6zeroed17h88fd50400cb1a996E+0x1a>
/rustc/50a0defd5a93523067ef239936cc2e0755220904/src/libcore/mem.rs:448
  1a:	b001      	add	sp, #4
  1c:	4770      	bx	lr

Disassembly of section .text._ZN4core3mem6zeroed17h8dbad459a4b2071aE:

00000000 <_ZN4core3mem6zeroed17h8dbad459a4b2071aE>:
_ZN4core3mem6zeroed17h8dbad459a4b2071aE():
/rustc/50a0defd5a93523067ef239936cc2e0755220904/src/libcore/mem.rs:445
   0:	b081      	sub	sp, #4
/rustc/50a0defd5a93523067ef239936cc2e0755220904/src/libcore/mem.rs:446
   2:	e7ff      	b.n	4 <_ZN4core3mem6zeroed17h8dbad459a4b2071aE+0x4>
   4:	2000      	movs	r0, #0
/rustc/50a0defd5a93523067ef239936cc2e0755220904/src/libcore/mem.rs:447
   6:	9000      	str	r0, [sp, #0]
   8:	e7ff      	b.n	a <_ZN4core3mem6zeroed17h8dbad459a4b2071aE+0xa>
/rustc/50a0defd5a93523067ef239936cc2e0755220904/src/libcore/mem.rs:448
   a:	9800      	ldr	r0, [sp, #0]
   c:	b001      	add	sp, #4
   e:	4770      	bx	lr

Disassembly of section .text._ZN4core3mem6zeroed17h92e18ce85b06259eE:

00000000 <_ZN4core3mem6zeroed17h92e18ce85b06259eE>:
_ZN4core3mem6zeroed17h92e18ce85b06259eE():
/rustc/50a0defd5a93523067ef239936cc2e0755220904/src/libcore/mem.rs:445
   0:	b081      	sub	sp, #4
/rustc/50a0defd5a93523067ef239936cc2e0755220904/src/libcore/mem.rs:446
   2:	9000      	str	r0, [sp, #0]
   4:	e7ff      	b.n	6 <_ZN4core3mem6zeroed17h92e18ce85b06259eE+0x6>
   6:	2000      	movs	r0, #0
/rustc/50a0defd5a93523067ef239936cc2e0755220904/src/libcore/mem.rs:447
   8:	9900      	ldr	r1, [sp, #0]
   a:	60c8      	str	r0, [r1, #12]
   c:	6088      	str	r0, [r1, #8]
   e:	6048      	str	r0, [r1, #4]
  10:	6008      	str	r0, [r1, #0]
  12:	e7ff      	b.n	14 <_ZN4core3mem6zeroed17h92e18ce85b06259eE+0x14>
/rustc/50a0defd5a93523067ef239936cc2e0755220904/src/libcore/mem.rs:448
  14:	b001      	add	sp, #4
  16:	4770      	bx	lr

Disassembly of section .text._ZN4core3mem6zeroed17h92eefd0ad2717dd3E:

00000000 <_ZN4core3mem6zeroed17h92eefd0ad2717dd3E>:
_ZN4core3mem6zeroed17h92eefd0ad2717dd3E():
/rustc/50a0defd5a93523067ef239936cc2e0755220904/src/libcore/mem.rs:445
   0:	b580      	push	{r7, lr}
   2:	b082      	sub	sp, #8
/rustc/50a0defd5a93523067ef239936cc2e0755220904/src/libcore/mem.rs:446
   4:	9001      	str	r0, [sp, #4]
   6:	e7ff      	b.n	8 <_ZN4core3mem6zeroed17h92eefd0ad2717dd3E+0x8>
   8:	2124      	movs	r1, #36	; 0x24
/rustc/50a0defd5a93523067ef239936cc2e0755220904/src/libcore/mem.rs:447
   a:	9801      	ldr	r0, [sp, #4]
   c:	f7ff fffe 	bl	0 <__aeabi_memclr4>
  10:	e7ff      	b.n	12 <_ZN4core3mem6zeroed17h92eefd0ad2717dd3E+0x12>
/rustc/50a0defd5a93523067ef239936cc2e0755220904/src/libcore/mem.rs:448
  12:	b002      	add	sp, #8
  14:	bd80      	pop	{r7, pc}

Disassembly of section .text._ZN4core3mem6zeroed17h98e0c4c0deb7c86bE:

00000000 <_ZN4core3mem6zeroed17h98e0c4c0deb7c86bE>:
_ZN4core3mem6zeroed17h98e0c4c0deb7c86bE():
/rustc/50a0defd5a93523067ef239936cc2e0755220904/src/libcore/mem.rs:445
   0:	b081      	sub	sp, #4
/rustc/50a0defd5a93523067ef239936cc2e0755220904/src/libcore/mem.rs:446
   2:	e7ff      	b.n	4 <_ZN4core3mem6zeroed17h98e0c4c0deb7c86bE+0x4>
   4:	2000      	movs	r0, #0
/rustc/50a0defd5a93523067ef239936cc2e0755220904/src/libcore/mem.rs:447
   6:	9000      	str	r0, [sp, #0]
   8:	e7ff      	b.n	a <_ZN4core3mem6zeroed17h98e0c4c0deb7c86bE+0xa>
/rustc/50a0defd5a93523067ef239936cc2e0755220904/src/libcore/mem.rs:448
   a:	9800      	ldr	r0, [sp, #0]
   c:	b001      	add	sp, #4
   e:	4770      	bx	lr

Disassembly of section .text._ZN4core3mem6zeroed17h9aa2c627ba372f2fE:

00000000 <_ZN4core3mem6zeroed17h9aa2c627ba372f2fE>:
_ZN4core3mem6zeroed17h9aa2c627ba372f2fE():
/rustc/50a0defd5a93523067ef239936cc2e0755220904/src/libcore/mem.rs:445
   0:	b081      	sub	sp, #4
/rustc/50a0defd5a93523067ef239936cc2e0755220904/src/libcore/mem.rs:446
   2:	e7ff      	b.n	4 <_ZN4core3mem6zeroed17h9aa2c627ba372f2fE+0x4>
   4:	2000      	movs	r0, #0
/rustc/50a0defd5a93523067ef239936cc2e0755220904/src/libcore/mem.rs:447
   6:	9000      	str	r0, [sp, #0]
   8:	e7ff      	b.n	a <_ZN4core3mem6zeroed17h9aa2c627ba372f2fE+0xa>
/rustc/50a0defd5a93523067ef239936cc2e0755220904/src/libcore/mem.rs:448
   a:	9800      	ldr	r0, [sp, #0]
   c:	b001      	add	sp, #4
   e:	4770      	bx	lr

Disassembly of section .text._ZN4core3mem6zeroed17h9ad70ac399f4322bE:

00000000 <_ZN4core3mem6zeroed17h9ad70ac399f4322bE>:
_ZN4core3mem6zeroed17h9ad70ac399f4322bE():
/rustc/50a0defd5a93523067ef239936cc2e0755220904/src/libcore/mem.rs:445
   0:	b081      	sub	sp, #4
/rustc/50a0defd5a93523067ef239936cc2e0755220904/src/libcore/mem.rs:446
   2:	9000      	str	r0, [sp, #0]
   4:	e7ff      	b.n	6 <_ZN4core3mem6zeroed17h9ad70ac399f4322bE+0x6>
   6:	2000      	movs	r0, #0
/rustc/50a0defd5a93523067ef239936cc2e0755220904/src/libcore/mem.rs:447
   8:	9900      	ldr	r1, [sp, #0]
   a:	6048      	str	r0, [r1, #4]
   c:	6008      	str	r0, [r1, #0]
   e:	e7ff      	b.n	10 <_ZN4core3mem6zeroed17h9ad70ac399f4322bE+0x10>
/rustc/50a0defd5a93523067ef239936cc2e0755220904/src/libcore/mem.rs:448
  10:	b001      	add	sp, #4
  12:	4770      	bx	lr

Disassembly of section .text._ZN4core3mem6zeroed17ha188dc5e0bd4fd78E:

00000000 <_ZN4core3mem6zeroed17ha188dc5e0bd4fd78E>:
_ZN4core3mem6zeroed17ha188dc5e0bd4fd78E():
/rustc/50a0defd5a93523067ef239936cc2e0755220904/src/libcore/mem.rs:445
   0:	b081      	sub	sp, #4
/rustc/50a0defd5a93523067ef239936cc2e0755220904/src/libcore/mem.rs:446
   2:	9000      	str	r0, [sp, #0]
   4:	e7ff      	b.n	6 <_ZN4core3mem6zeroed17ha188dc5e0bd4fd78E+0x6>
   6:	2000      	movs	r0, #0
/rustc/50a0defd5a93523067ef239936cc2e0755220904/src/libcore/mem.rs:447
   8:	9900      	ldr	r1, [sp, #0]
   a:	60c8      	str	r0, [r1, #12]
   c:	6088      	str	r0, [r1, #8]
   e:	6048      	str	r0, [r1, #4]
  10:	6008      	str	r0, [r1, #0]
  12:	e7ff      	b.n	14 <_ZN4core3mem6zeroed17ha188dc5e0bd4fd78E+0x14>
/rustc/50a0defd5a93523067ef239936cc2e0755220904/src/libcore/mem.rs:448
  14:	b001      	add	sp, #4
  16:	4770      	bx	lr

Disassembly of section .text._ZN4core3mem6zeroed17ha42de8d78d848b40E:

00000000 <_ZN4core3mem6zeroed17ha42de8d78d848b40E>:
_ZN4core3mem6zeroed17ha42de8d78d848b40E():
/rustc/50a0defd5a93523067ef239936cc2e0755220904/src/libcore/mem.rs:445
   0:	b084      	sub	sp, #16
/rustc/50a0defd5a93523067ef239936cc2e0755220904/src/libcore/mem.rs:446
   2:	e7ff      	b.n	4 <_ZN4core3mem6zeroed17ha42de8d78d848b40E+0x4>
   4:	2000      	movs	r0, #0
/rustc/50a0defd5a93523067ef239936cc2e0755220904/src/libcore/mem.rs:447
   6:	9003      	str	r0, [sp, #12]
   8:	9002      	str	r0, [sp, #8]
   a:	9802      	ldr	r0, [sp, #8]
   c:	9903      	ldr	r1, [sp, #12]
   e:	9001      	str	r0, [sp, #4]
  10:	9100      	str	r1, [sp, #0]
  12:	e7ff      	b.n	14 <_ZN4core3mem6zeroed17ha42de8d78d848b40E+0x14>
/rustc/50a0defd5a93523067ef239936cc2e0755220904/src/libcore/mem.rs:448
  14:	9801      	ldr	r0, [sp, #4]
  16:	9900      	ldr	r1, [sp, #0]
  18:	b004      	add	sp, #16
  1a:	4770      	bx	lr

Disassembly of section .text._ZN4core3mem6zeroed17ha8a888d7a5d79574E:

00000000 <_ZN4core3mem6zeroed17ha8a888d7a5d79574E>:
_ZN4core3mem6zeroed17ha8a888d7a5d79574E():
/rustc/50a0defd5a93523067ef239936cc2e0755220904/src/libcore/mem.rs:445
   0:	b081      	sub	sp, #4
/rustc/50a0defd5a93523067ef239936cc2e0755220904/src/libcore/mem.rs:446
   2:	e7ff      	b.n	4 <_ZN4core3mem6zeroed17ha8a888d7a5d79574E+0x4>
   4:	2000      	movs	r0, #0
/rustc/50a0defd5a93523067ef239936cc2e0755220904/src/libcore/mem.rs:447
   6:	9000      	str	r0, [sp, #0]
   8:	e7ff      	b.n	a <_ZN4core3mem6zeroed17ha8a888d7a5d79574E+0xa>
/rustc/50a0defd5a93523067ef239936cc2e0755220904/src/libcore/mem.rs:448
   a:	9800      	ldr	r0, [sp, #0]
   c:	b001      	add	sp, #4
   e:	4770      	bx	lr

Disassembly of section .text._ZN4core3mem6zeroed17hb09e7ec69bda6ad0E:

00000000 <_ZN4core3mem6zeroed17hb09e7ec69bda6ad0E>:
_ZN4core3mem6zeroed17hb09e7ec69bda6ad0E():
/rustc/50a0defd5a93523067ef239936cc2e0755220904/src/libcore/mem.rs:445
   0:	b081      	sub	sp, #4
/rustc/50a0defd5a93523067ef239936cc2e0755220904/src/libcore/mem.rs:446
   2:	e7ff      	b.n	4 <_ZN4core3mem6zeroed17hb09e7ec69bda6ad0E+0x4>
   4:	2000      	movs	r0, #0
/rustc/50a0defd5a93523067ef239936cc2e0755220904/src/libcore/mem.rs:447
   6:	9000      	str	r0, [sp, #0]
   8:	e7ff      	b.n	a <_ZN4core3mem6zeroed17hb09e7ec69bda6ad0E+0xa>
/rustc/50a0defd5a93523067ef239936cc2e0755220904/src/libcore/mem.rs:448
   a:	9800      	ldr	r0, [sp, #0]
   c:	b001      	add	sp, #4
   e:	4770      	bx	lr

Disassembly of section .text._ZN4core3mem6zeroed17hb6404f5abcb541feE:

00000000 <_ZN4core3mem6zeroed17hb6404f5abcb541feE>:
_ZN4core3mem6zeroed17hb6404f5abcb541feE():
/rustc/50a0defd5a93523067ef239936cc2e0755220904/src/libcore/mem.rs:445
   0:	b081      	sub	sp, #4
/rustc/50a0defd5a93523067ef239936cc2e0755220904/src/libcore/mem.rs:446
   2:	e7ff      	b.n	4 <_ZN4core3mem6zeroed17hb6404f5abcb541feE+0x4>
   4:	2000      	movs	r0, #0
/rustc/50a0defd5a93523067ef239936cc2e0755220904/src/libcore/mem.rs:447
   6:	9000      	str	r0, [sp, #0]
   8:	e7ff      	b.n	a <_ZN4core3mem6zeroed17hb6404f5abcb541feE+0xa>
/rustc/50a0defd5a93523067ef239936cc2e0755220904/src/libcore/mem.rs:448
   a:	9800      	ldr	r0, [sp, #0]
   c:	b001      	add	sp, #4
   e:	4770      	bx	lr

Disassembly of section .text._ZN4core3mem6zeroed17hd940eb44d903adefE:

00000000 <_ZN4core3mem6zeroed17hd940eb44d903adefE>:
_ZN4core3mem6zeroed17hd940eb44d903adefE():
/rustc/50a0defd5a93523067ef239936cc2e0755220904/src/libcore/mem.rs:445
   0:	b081      	sub	sp, #4
/rustc/50a0defd5a93523067ef239936cc2e0755220904/src/libcore/mem.rs:446
   2:	e7ff      	b.n	4 <_ZN4core3mem6zeroed17hd940eb44d903adefE+0x4>
   4:	2000      	movs	r0, #0
/rustc/50a0defd5a93523067ef239936cc2e0755220904/src/libcore/mem.rs:447
   6:	9000      	str	r0, [sp, #0]
   8:	e7ff      	b.n	a <_ZN4core3mem6zeroed17hd940eb44d903adefE+0xa>
/rustc/50a0defd5a93523067ef239936cc2e0755220904/src/libcore/mem.rs:448
   a:	9800      	ldr	r0, [sp, #0]
   c:	b001      	add	sp, #4
   e:	4770      	bx	lr

Disassembly of section .text._ZN4core3mem6zeroed17hdab47f1c2f229790E:

00000000 <_ZN4core3mem6zeroed17hdab47f1c2f229790E>:
_ZN4core3mem6zeroed17hdab47f1c2f229790E():
/rustc/50a0defd5a93523067ef239936cc2e0755220904/src/libcore/mem.rs:445
   0:	b081      	sub	sp, #4
/rustc/50a0defd5a93523067ef239936cc2e0755220904/src/libcore/mem.rs:446
   2:	9000      	str	r0, [sp, #0]
   4:	e7ff      	b.n	6 <_ZN4core3mem6zeroed17hdab47f1c2f229790E+0x6>
   6:	2000      	movs	r0, #0
/rustc/50a0defd5a93523067ef239936cc2e0755220904/src/libcore/mem.rs:447
   8:	9900      	ldr	r1, [sp, #0]
   a:	6108      	str	r0, [r1, #16]
   c:	60c8      	str	r0, [r1, #12]
   e:	6088      	str	r0, [r1, #8]
  10:	6048      	str	r0, [r1, #4]
  12:	6008      	str	r0, [r1, #0]
  14:	e7ff      	b.n	16 <_ZN4core3mem6zeroed17hdab47f1c2f229790E+0x16>
/rustc/50a0defd5a93523067ef239936cc2e0755220904/src/libcore/mem.rs:448
  16:	b001      	add	sp, #4
  18:	4770      	bx	lr

Disassembly of section .text._ZN4core3mem6zeroed17hded35ad507f971e3E:

00000000 <_ZN4core3mem6zeroed17hded35ad507f971e3E>:
_ZN4core3mem6zeroed17hded35ad507f971e3E():
/rustc/50a0defd5a93523067ef239936cc2e0755220904/src/libcore/mem.rs:445
   0:	b081      	sub	sp, #4
/rustc/50a0defd5a93523067ef239936cc2e0755220904/src/libcore/mem.rs:446
   2:	e7ff      	b.n	4 <_ZN4core3mem6zeroed17hded35ad507f971e3E+0x4>
   4:	2000      	movs	r0, #0
/rustc/50a0defd5a93523067ef239936cc2e0755220904/src/libcore/mem.rs:447
   6:	9000      	str	r0, [sp, #0]
   8:	e7ff      	b.n	a <_ZN4core3mem6zeroed17hded35ad507f971e3E+0xa>
/rustc/50a0defd5a93523067ef239936cc2e0755220904/src/libcore/mem.rs:448
   a:	9800      	ldr	r0, [sp, #0]
   c:	b001      	add	sp, #4
   e:	4770      	bx	lr

Disassembly of section .text._ZN4core3mem6zeroed17he26129cc1a6bd652E:

00000000 <_ZN4core3mem6zeroed17he26129cc1a6bd652E>:
_ZN4core3mem6zeroed17he26129cc1a6bd652E():
/rustc/50a0defd5a93523067ef239936cc2e0755220904/src/libcore/mem.rs:445
   0:	b081      	sub	sp, #4
/rustc/50a0defd5a93523067ef239936cc2e0755220904/src/libcore/mem.rs:446
   2:	9000      	str	r0, [sp, #0]
   4:	e7ff      	b.n	6 <_ZN4core3mem6zeroed17he26129cc1a6bd652E+0x6>
   6:	2000      	movs	r0, #0
/rustc/50a0defd5a93523067ef239936cc2e0755220904/src/libcore/mem.rs:447
   8:	9900      	ldr	r1, [sp, #0]
   a:	60c8      	str	r0, [r1, #12]
   c:	6088      	str	r0, [r1, #8]
   e:	6048      	str	r0, [r1, #4]
  10:	6008      	str	r0, [r1, #0]
  12:	e7ff      	b.n	14 <_ZN4core3mem6zeroed17he26129cc1a6bd652E+0x14>
/rustc/50a0defd5a93523067ef239936cc2e0755220904/src/libcore/mem.rs:448
  14:	b001      	add	sp, #4
  16:	4770      	bx	lr

Disassembly of section .text._ZN4core3mem6zeroed17he8704dfe99657d04E:

00000000 <_ZN4core3mem6zeroed17he8704dfe99657d04E>:
_ZN4core3mem6zeroed17he8704dfe99657d04E():
/rustc/50a0defd5a93523067ef239936cc2e0755220904/src/libcore/mem.rs:445
   0:	b081      	sub	sp, #4
/rustc/50a0defd5a93523067ef239936cc2e0755220904/src/libcore/mem.rs:446
   2:	9000      	str	r0, [sp, #0]
   4:	e7ff      	b.n	6 <_ZN4core3mem6zeroed17he8704dfe99657d04E+0x6>
   6:	2000      	movs	r0, #0
/rustc/50a0defd5a93523067ef239936cc2e0755220904/src/libcore/mem.rs:447
   8:	9900      	ldr	r1, [sp, #0]
   a:	6108      	str	r0, [r1, #16]
   c:	60c8      	str	r0, [r1, #12]
   e:	6088      	str	r0, [r1, #8]
  10:	6048      	str	r0, [r1, #4]
  12:	6008      	str	r0, [r1, #0]
  14:	e7ff      	b.n	16 <_ZN4core3mem6zeroed17he8704dfe99657d04E+0x16>
/rustc/50a0defd5a93523067ef239936cc2e0755220904/src/libcore/mem.rs:448
  16:	b001      	add	sp, #4
  18:	4770      	bx	lr

Disassembly of section .text._ZN4core3mem6zeroed17hee2152239e6bc116E:

00000000 <_ZN4core3mem6zeroed17hee2152239e6bc116E>:
_ZN4core3mem6zeroed17hee2152239e6bc116E():
/rustc/50a0defd5a93523067ef239936cc2e0755220904/src/libcore/mem.rs:445
   0:	b081      	sub	sp, #4
/rustc/50a0defd5a93523067ef239936cc2e0755220904/src/libcore/mem.rs:446
   2:	e7ff      	b.n	4 <_ZN4core3mem6zeroed17hee2152239e6bc116E+0x4>
   4:	2000      	movs	r0, #0
/rustc/50a0defd5a93523067ef239936cc2e0755220904/src/libcore/mem.rs:447
   6:	9000      	str	r0, [sp, #0]
   8:	e7ff      	b.n	a <_ZN4core3mem6zeroed17hee2152239e6bc116E+0xa>
/rustc/50a0defd5a93523067ef239936cc2e0755220904/src/libcore/mem.rs:448
   a:	9800      	ldr	r0, [sp, #0]
   c:	b001      	add	sp, #4
   e:	4770      	bx	lr

Disassembly of section .text._ZN4core3mem6zeroed17hfcb0e8ea495ca665E:

00000000 <_ZN4core3mem6zeroed17hfcb0e8ea495ca665E>:
_ZN4core3mem6zeroed17hfcb0e8ea495ca665E():
/rustc/50a0defd5a93523067ef239936cc2e0755220904/src/libcore/mem.rs:445
   0:	b081      	sub	sp, #4
/rustc/50a0defd5a93523067ef239936cc2e0755220904/src/libcore/mem.rs:446
   2:	e7ff      	b.n	4 <_ZN4core3mem6zeroed17hfcb0e8ea495ca665E+0x4>
   4:	2000      	movs	r0, #0
/rustc/50a0defd5a93523067ef239936cc2e0755220904/src/libcore/mem.rs:447
   6:	9000      	str	r0, [sp, #0]
   8:	e7ff      	b.n	a <_ZN4core3mem6zeroed17hfcb0e8ea495ca665E+0xa>
/rustc/50a0defd5a93523067ef239936cc2e0755220904/src/libcore/mem.rs:448
   a:	9800      	ldr	r0, [sp, #0]
   c:	b001      	add	sp, #4
   e:	4770      	bx	lr

Disassembly of section .text._ZN4core3mem6zeroed17hfd350443cca8fc90E:

00000000 <_ZN4core3mem6zeroed17hfd350443cca8fc90E>:
_ZN4core3mem6zeroed17hfd350443cca8fc90E():
/rustc/50a0defd5a93523067ef239936cc2e0755220904/src/libcore/mem.rs:445
   0:	b081      	sub	sp, #4
/rustc/50a0defd5a93523067ef239936cc2e0755220904/src/libcore/mem.rs:446
   2:	9000      	str	r0, [sp, #0]
   4:	e7ff      	b.n	6 <_ZN4core3mem6zeroed17hfd350443cca8fc90E+0x6>
   6:	2000      	movs	r0, #0
/rustc/50a0defd5a93523067ef239936cc2e0755220904/src/libcore/mem.rs:447
   8:	9900      	ldr	r1, [sp, #0]
   a:	61c8      	str	r0, [r1, #28]
   c:	6188      	str	r0, [r1, #24]
   e:	6148      	str	r0, [r1, #20]
  10:	6108      	str	r0, [r1, #16]
  12:	60c8      	str	r0, [r1, #12]
  14:	6088      	str	r0, [r1, #8]
  16:	6048      	str	r0, [r1, #4]
  18:	6008      	str	r0, [r1, #0]
  1a:	e7ff      	b.n	1c <_ZN4core3mem6zeroed17hfd350443cca8fc90E+0x1c>
/rustc/50a0defd5a93523067ef239936cc2e0755220904/src/libcore/mem.rs:448
  1c:	b001      	add	sp, #4
  1e:	4770      	bx	lr

mylib-ac95891f38e7979c.4qnbhyi3l9cd8p4p.rcgu.o:     file format elf32-littlearm

SYMBOL TABLE:
00000000 l    df *ABS*	00000000 4qnbhyi3l9cd8p4p
00000000 l       .debug_str	00000000 
00000041 l       .debug_str	00000000 
0000004c l       .debug_str	00000000 
0000006f l       .debug_str	00000000 
00000075 l       .debug_str	00000000 
0000007c l       .debug_str	00000000 
00000083 l       .debug_str	00000000 
00000095 l       .debug_str	00000000 
000000a4 l       .debug_str	00000000 
000000a8 l       .debug_str	00000000 
000000b0 l       .debug_str	00000000 
000000b4 l       .debug_str	00000000 
000000b8 l       .debug_str	00000000 
000000c2 l       .debug_str	00000000 
000000cc l       .debug_str	00000000 
000000d2 l       .debug_str	00000000 
000000f6 l       .debug_str	00000000 
0000015f l       .debug_str	00000000 
00000166 l       .debug_str	00000000 
0000016e l       .debug_str	00000000 
0000017d l       .debug_str	00000000 
000001bc l       .debug_str	00000000 
000001fb l       .debug_str	00000000 
0000020d l       .debug_str	00000000 
00000250 l       .debug_str	00000000 
00000266 l       .debug_str	00000000 
0000026f l       .debug_str	00000000 
00000277 l       .debug_str	00000000 
0000027c l       .debug_str	00000000 
00000289 l       .debug_str	00000000 
00000000 l     O .rodata..Lanon.51a1014dc85d25258f5a7b11ed5e2070.2	00000018 .Lanon.51a1014dc85d25258f5a7b11ed5e2070.2
00000000 l     O .data._ZN5mylib6mynewt6sensor17LISTENER_INTERNAL17h64bb8eaf7ffdbdb3E	00000018 _ZN5mylib6mynewt6sensor17LISTENER_INTERNAL17h64bb8eaf7ffdbdb3E
00000000 l     F .text._ZN5mylib6mynewt6sensor21null_sensor_data_func17hc753d7de5ec3ecbdE	0000002a _ZN5mylib6mynewt6sensor21null_sensor_data_func17hc753d7de5ec3ecbdE
00000000 l    d  .text._ZN5mylib6mynewt6sensor17register_listener17h36152b4d732de144E	00000000 .text._ZN5mylib6mynewt6sensor17register_listener17h36152b4d732de144E
00000000 l    d  .text._ZN5mylib6mynewt6sensor21null_sensor_data_func17hc753d7de5ec3ecbdE	00000000 .text._ZN5mylib6mynewt6sensor21null_sensor_data_func17hc753d7de5ec3ecbdE
00000000 l    d  .rodata..Lanon.51a1014dc85d25258f5a7b11ed5e2070.0	00000000 .rodata..Lanon.51a1014dc85d25258f5a7b11ed5e2070.0
00000000 l    d  .rodata..Lanon.51a1014dc85d25258f5a7b11ed5e2070.1	00000000 .rodata..Lanon.51a1014dc85d25258f5a7b11ed5e2070.1
00000000 l    d  .data._ZN5mylib6mynewt6sensor17LISTENER_INTERNAL17h64bb8eaf7ffdbdb3E	00000000 .data._ZN5mylib6mynewt6sensor17LISTENER_INTERNAL17h64bb8eaf7ffdbdb3E
00000000 l    d  .debug_loc	00000000 .debug_loc
00000000 l    d  .debug_abbrev	00000000 .debug_abbrev
00000000 l    d  .debug_info	00000000 .debug_info
00000000 l    d  .debug_ranges	00000000 .debug_ranges
00000000 l    d  .debug_frame	00000000 .debug_frame
00000000 l    d  .debug_line	00000000 .debug_line
00000000         *UND*	00000000 _ZN4core9panicking5panic17h53ca63c6ac6312f8E
00000000 g     F .text._ZN5mylib6mynewt6sensor17register_listener17h36152b4d732de144E	0000005e .hidden _ZN5mylib6mynewt6sensor17register_listener17h36152b4d732de144E
00000000         *UND*	00000000 sensor_register_listener



Disassembly of section .text._ZN5mylib6mynewt6sensor17register_listener17h36152b4d732de144E:

00000000 <_ZN5mylib6mynewt6sensor17register_listener17h36152b4d732de144E>:
_ZN5mylib6mynewt6sensor17register_listener17h36152b4d732de144E():
/mnt/c/stm32bluepill-mynewt-sensor/src/mynewt/sensor.rs:14
///  for the sensor listener structure.
///
///  `sensor`: The sensor to register a listener on.
///  `listener`: The listener to register onto the sensor.
///  Return 0 on success, non-zero error code on failure.
pub fn register_listener(sensor: SensorPtr, listener: SensorListener) -> i32 {    
   0:	b570      	push	{r4, r5, r6, lr}
   2:	b08a      	sub	sp, #40	; 0x28
   4:	4602      	mov	r2, r0
   6:	9003      	str	r0, [sp, #12]
/mnt/c/stm32bluepill-mynewt-sensor/src/mynewt/sensor.rs:15
    unsafe { assert!(LISTENER_INTERNAL.sl_sensor_type == 0) };  //  Make sure it's not used.
   8:	f240 0000 	movw	r0, #0
   c:	f2c0 0000 	movt	r0, #0
  10:	6803      	ldr	r3, [r0, #0]
  12:	6840      	ldr	r0, [r0, #4]
  14:	4318      	orrs	r0, r3
  16:	2800      	cmp	r0, #0
  18:	9102      	str	r1, [sp, #8]
  1a:	9201      	str	r2, [sp, #4]
  1c:	d007      	beq.n	2e <_ZN5mylib6mynewt6sensor17register_listener17h36152b4d732de144E+0x2e>
  1e:	e7ff      	b.n	20 <_ZN5mylib6mynewt6sensor17register_listener17h36152b4d732de144E+0x20>
  20:	f240 0000 	movw	r0, #0
  24:	f2c0 0000 	movt	r0, #0
  28:	f7ff fffe 	bl	0 <_ZN4core9panicking5panic17h53ca63c6ac6312f8E>
  2c:	defe      	udf	#254	; 0xfe
  2e:	a804      	add	r0, sp, #16
/mnt/c/stm32bluepill-mynewt-sensor/src/mynewt/sensor.rs:17
    //  Copy the caller's listener to the internal listener.
    unsafe { LISTENER_INTERNAL = listener };
  30:	9902      	ldr	r1, [sp, #8]
  32:	4602      	mov	r2, r0
  34:	e891 5078 	ldmia.w	r1, {r3, r4, r5, r6, ip, lr}
  38:	e882 5078 	stmia.w	r2, {r3, r4, r5, r6, ip, lr}
  3c:	f240 0100 	movw	r1, #0
  40:	f2c0 0100 	movt	r1, #0
  44:	460a      	mov	r2, r1
  46:	e890 5078 	ldmia.w	r0, {r3, r4, r5, r6, ip, lr}
  4a:	e882 5078 	stmia.w	r2, {r3, r4, r5, r6, ip, lr}
/mnt/c/stm32bluepill-mynewt-sensor/src/mynewt/sensor.rs:19
    //  Pass the internal listener to the unsafe Mynewt API.
    unsafe { sensor_register_listener(sensor, &mut LISTENER_INTERNAL) }
  4e:	9803      	ldr	r0, [sp, #12]
  50:	f7ff fffe 	bl	0 <sensor_register_listener>
  54:	9000      	str	r0, [sp, #0]
  56:	e7ff      	b.n	58 <_ZN5mylib6mynewt6sensor17register_listener17h36152b4d732de144E+0x58>
/mnt/c/stm32bluepill-mynewt-sensor/src/mynewt/sensor.rs:20
}
  58:	9800      	ldr	r0, [sp, #0]
  5a:	b00a      	add	sp, #40	; 0x28
  5c:	bd70      	pop	{r4, r5, r6, pc}

Disassembly of section .text._ZN5mylib6mynewt6sensor21null_sensor_data_func17hc753d7de5ec3ecbdE:

00000000 <_ZN5mylib6mynewt6sensor21null_sensor_data_func17hc753d7de5ec3ecbdE>:
_ZN5mylib6mynewt6sensor21null_sensor_data_func17hc753d7de5ec3ecbdE():
/mnt/c/stm32bluepill-mynewt-sensor/src/mynewt/sensor.rs:33
    sl_arg        : 0,
    sl_next       : 0,
};

///  Define a dummy sensor data function in case there is none.
extern fn null_sensor_data_func(_sensor: SensorPtr, _arg: SensorArg, _sensor_data: SensorDataPtr, _sensor_type: SensorType) -> i32 { 0 }
   0:	b5b0      	push	{r4, r5, r7, lr}
   2:	b088      	sub	sp, #32
   4:	9b0d      	ldr	r3, [sp, #52]	; 0x34
   6:	f8dd c030 	ldr.w	ip, [sp, #48]	; 0x30
   a:	4696      	mov	lr, r2
   c:	460c      	mov	r4, r1
   e:	4605      	mov	r5, r0
  10:	9003      	str	r0, [sp, #12]
  12:	9104      	str	r1, [sp, #16]
  14:	9205      	str	r2, [sp, #20]
  16:	9307      	str	r3, [sp, #28]
  18:	f8cd c018 	str.w	ip, [sp, #24]
  1c:	2000      	movs	r0, #0
  1e:	f8cd e008 	str.w	lr, [sp, #8]
  22:	9401      	str	r4, [sp, #4]
  24:	9500      	str	r5, [sp, #0]
  26:	b008      	add	sp, #32
  28:	bdb0      	pop	{r4, r5, r7, pc}

mylib-ac95891f38e7979c.541s4ibcgernpkgl.rcgu.o:     file format elf32-littlearm

SYMBOL TABLE:
00000000 l    df *ABS*	00000000 541s4ibcgernpkgl
00000000 l       .debug_str	00000000 
00000041 l       .debug_str	00000000 
0000004c l       .debug_str	00000000 
0000006f l       .debug_str	00000000 
00000074 l       .debug_str	00000000 
0000007b l       .debug_str	00000000 
0000007f l       .debug_str	00000000 
00000082 l       .debug_str	00000000 
00000086 l       .debug_str	00000000 
00000089 l       .debug_str	00000000 
0000008b l       .debug_str	00000000 
0000008f l       .debug_str	00000000 
00000091 l       .debug_str	00000000 
00000095 l       .debug_str	00000000 
000000a5 l       .debug_str	00000000 
000000d8 l       .debug_str	00000000 
000000eb l       .debug_str	00000000 
000000ed l       .debug_str	00000000 
0000012d l       .debug_str	00000000 
0000013c l       .debug_str	00000000 
00000140 l       .debug_str	00000000 
00000149 l       .debug_str	00000000 
0000014c l       .debug_str	00000000 
00000156 l       .debug_str	00000000 
0000015d l       .debug_str	00000000 
00000163 l       .debug_str	00000000 
00000168 l       .debug_str	00000000 
0000016e l       .debug_str	00000000 
00000173 l       .debug_str	00000000 
00000179 l       .debug_str	00000000 
0000017e l       .debug_str	00000000 
00000183 l       .debug_str	00000000 
00000188 l       .debug_str	00000000 
0000018a l       .debug_str	00000000 
00000000 l     O .rodata..Lanon.f53c71e115d2729da6dd16a088e85c6e.2	00000010 .Lanon.f53c71e115d2729da6dd16a088e85c6e.2
00000000 l     O .rodata..Lanon.f53c71e115d2729da6dd16a088e85c6e.4	00000010 .Lanon.f53c71e115d2729da6dd16a088e85c6e.4
00000000 l    d  .text._ZN4core6result13unwrap_failed17h07a2116b0728a952E	00000000 .text._ZN4core6result13unwrap_failed17h07a2116b0728a952E
00000000 l    d  .text._ZN4core6result19Result$LT$T$C$E$GT$6expect17hf656a3fd5c2cb345E	00000000 .text._ZN4core6result19Result$LT$T$C$E$GT$6expect17hf656a3fd5c2cb345E
00000000 l    d  .rodata..Lanon.f53c71e115d2729da6dd16a088e85c6e.0	00000000 .rodata..Lanon.f53c71e115d2729da6dd16a088e85c6e.0
00000000 l    d  .rodata..Lanon.f53c71e115d2729da6dd16a088e85c6e.1	00000000 .rodata..Lanon.f53c71e115d2729da6dd16a088e85c6e.1
00000000 l    d  .rodata..Lanon.f53c71e115d2729da6dd16a088e85c6e.3	00000000 .rodata..Lanon.f53c71e115d2729da6dd16a088e85c6e.3
00000000 l    d  .debug_abbrev	00000000 .debug_abbrev
00000000 l    d  .debug_info	00000000 .debug_info
00000000 l    d  .debug_ranges	00000000 .debug_ranges
00000000 l    d  .debug_frame	00000000 .debug_frame
00000000 l    d  .debug_line	00000000 .debug_line
00000000         *UND*	00000000 _ZN44_$LT$$RF$T$u20$as$u20$core..fmt..Display$GT$3fmt17h3783dcd2d2b56f30E
00000000         *UND*	00000000 _ZN4core3fmt10ArgumentV13new17h05d4954a4919dcdbE
00000000         *UND*	00000000 _ZN4core3fmt10ArgumentV13new17h47ed94b94e242b01E
00000000         *UND*	00000000 .hidden _ZN4core3fmt3num50_$LT$impl$u20$core..fmt..Debug$u20$for$u20$i32$GT$3fmt17hbbb46498fb3ead3eE
00000000         *UND*	00000000 .hidden _ZN4core3fmt9Arguments6new_v117h0330c13173882f69E
00000000 g     F .text._ZN4core6result13unwrap_failed17h07a2116b0728a952E	0000008e _ZN4core6result13unwrap_failed17h07a2116b0728a952E
00000000 g     F .text._ZN4core6result19Result$LT$T$C$E$GT$6expect17hf656a3fd5c2cb345E	00000052 _ZN4core6result19Result$LT$T$C$E$GT$6expect17hf656a3fd5c2cb345E
00000000         *UND*	00000000 _ZN4core9panicking9panic_fmt17h6b4d8e87b0965449E



Disassembly of section .text._ZN4core6result13unwrap_failed17h07a2116b0728a952E:

00000000 <_ZN4core6result13unwrap_failed17h07a2116b0728a952E>:
_ZN4core6result13unwrap_failed17h07a2116b0728a952E():
/rustc/50a0defd5a93523067ef239936cc2e0755220904/src/libcore/result.rs:998
   0:	b09a      	sub	sp, #104	; 0x68
   2:	4613      	mov	r3, r2
   4:	468c      	mov	ip, r1
   6:	4686      	mov	lr, r0
   8:	9009      	str	r0, [sp, #36]	; 0x24
   a:	910a      	str	r1, [sp, #40]	; 0x28
   c:	920b      	str	r2, [sp, #44]	; 0x2c
   e:	a809      	add	r0, sp, #36	; 0x24
/rustc/50a0defd5a93523067ef239936cc2e0755220904/src/libcore/result.rs:999
  10:	9016      	str	r0, [sp, #88]	; 0x58
  12:	a80b      	add	r0, sp, #44	; 0x2c
  14:	9017      	str	r0, [sp, #92]	; 0x5c
/mnt/c/stm32bluepill-mynewt-sensor/src/lib.rs:1
//!  Sensor app that reads sensor data from a temperature sensor and sends the sensor data to a CoAP server or Collector Node.
  16:	9816      	ldr	r0, [sp, #88]	; 0x58
  18:	9018      	str	r0, [sp, #96]	; 0x60
  1a:	9817      	ldr	r0, [sp, #92]	; 0x5c
  1c:	9019      	str	r0, [sp, #100]	; 0x64
/rustc/50a0defd5a93523067ef239936cc2e0755220904/src/libcore/result.rs:999
  1e:	9818      	ldr	r0, [sp, #96]	; 0x60
/rustc/50a0defd5a93523067ef239936cc2e0755220904/src/libcore/macros.rs:18
  20:	f240 0100 	movw	r1, #0
  24:	f2c0 0100 	movt	r1, #0
  28:	9308      	str	r3, [sp, #32]
  2a:	f8cd c01c 	str.w	ip, [sp, #28]
  2e:	f8cd e018 	str.w	lr, [sp, #24]
  32:	f7ff fffe 	bl	0 <_ZN4core3fmt10ArgumentV13new17h05d4954a4919dcdbE>
  36:	9005      	str	r0, [sp, #20]
  38:	9104      	str	r1, [sp, #16]
  3a:	e7ff      	b.n	3c <_ZN4core6result13unwrap_failed17h07a2116b0728a952E+0x3c>
/rustc/50a0defd5a93523067ef239936cc2e0755220904/src/libcore/result.rs:999
  3c:	9819      	ldr	r0, [sp, #100]	; 0x64
/rustc/50a0defd5a93523067ef239936cc2e0755220904/src/libcore/macros.rs:18
  3e:	f240 0100 	movw	r1, #0
  42:	f2c0 0100 	movt	r1, #0
  46:	f7ff fffe 	bl	0 <_ZN4core3fmt10ArgumentV13new17h47ed94b94e242b01E>
  4a:	9003      	str	r0, [sp, #12]
  4c:	9102      	str	r1, [sp, #8]
  4e:	e7ff      	b.n	50 <_ZN4core6result13unwrap_failed17h07a2116b0728a952E+0x50>
/rustc/50a0defd5a93523067ef239936cc2e0755220904/src/libcore/result.rs:999
  50:	9805      	ldr	r0, [sp, #20]
  52:	9012      	str	r0, [sp, #72]	; 0x48
  54:	9904      	ldr	r1, [sp, #16]
  56:	9113      	str	r1, [sp, #76]	; 0x4c
  58:	9a03      	ldr	r2, [sp, #12]
  5a:	9214      	str	r2, [sp, #80]	; 0x50
  5c:	9b02      	ldr	r3, [sp, #8]
  5e:	9315      	str	r3, [sp, #84]	; 0x54
/rustc/50a0defd5a93523067ef239936cc2e0755220904/src/libcore/macros.rs:18
  60:	46ec      	mov	ip, sp
  62:	f04f 0e02 	mov.w	lr, #2
  66:	f8cc e000 	str.w	lr, [ip]
  6a:	f240 0100 	movw	r1, #0
  6e:	f2c0 0100 	movt	r1, #0
  72:	a80c      	add	r0, sp, #48	; 0x30
  74:	ab12      	add	r3, sp, #72	; 0x48
  76:	4672      	mov	r2, lr
  78:	f7ff fffe 	bl	0 <_ZN4core3fmt9Arguments6new_v117h0330c13173882f69E>
  7c:	e7ff      	b.n	2 <_ZN4core6result13unwrap_failed17h07a2116b0728a952E+0x2>
  7e:	f240 0100 	movw	r1, #0
  82:	f2c0 0100 	movt	r1, #0
  86:	a80c      	add	r0, sp, #48	; 0x30
  88:	f7ff fffe 	bl	0 <_ZN4core9panicking9panic_fmt17h6b4d8e87b0965449E>
  8c:	defe      	udf	#254	; 0xfe

Disassembly of section .text._ZN4core6result19Result$LT$T$C$E$GT$6expect17hf656a3fd5c2cb345E:

00000000 <_ZN4core6result19Result$LT$T$C$E$GT$6expect17hf656a3fd5c2cb345E>:
_ZN4core6result19Result$LT$T$C$E$GT$6expect17hf656a3fd5c2cb345E():
/rustc/50a0defd5a93523067ef239936cc2e0755220904/src/libcore/result.rs:824
   0:	b5b0      	push	{r4, r5, r7, lr}
   2:	b08c      	sub	sp, #48	; 0x30
   4:	469c      	mov	ip, r3
   6:	4696      	mov	lr, r2
   8:	460c      	mov	r4, r1
   a:	4605      	mov	r5, r0
   c:	9006      	str	r0, [sp, #24]
   e:	9107      	str	r1, [sp, #28]
  10:	9208      	str	r2, [sp, #32]
  12:	9309      	str	r3, [sp, #36]	; 0x24
/rustc/50a0defd5a93523067ef239936cc2e0755220904/src/libcore/result.rs:826
  14:	9806      	ldr	r0, [sp, #24]
  16:	2800      	cmp	r0, #0
  18:	f8cd c014 	str.w	ip, [sp, #20]
  1c:	f8cd e010 	str.w	lr, [sp, #16]
  20:	9403      	str	r4, [sp, #12]
  22:	9502      	str	r5, [sp, #8]
  24:	9001      	str	r0, [sp, #4]
  26:	d005      	beq.n	34 <_ZN4core6result19Result$LT$T$C$E$GT$6expect17hf656a3fd5c2cb345E+0x34>
  28:	e7ff      	b.n	2a <_ZN4core6result19Result$LT$T$C$E$GT$6expect17hf656a3fd5c2cb345E+0x2a>
  2a:	9801      	ldr	r0, [sp, #4]
  2c:	2801      	cmp	r0, #1
  2e:	d005      	beq.n	3c <_ZN4core6result19Result$LT$T$C$E$GT$6expect17hf656a3fd5c2cb345E+0x3c>
  30:	e7ff      	b.n	32 <_ZN4core6result19Result$LT$T$C$E$GT$6expect17hf656a3fd5c2cb345E+0x32>
/rustc/50a0defd5a93523067ef239936cc2e0755220904/src/libcore/result.rs:829
  32:	defe      	udf	#254	; 0xfe
  34:	9806      	ldr	r0, [sp, #24]
  36:	2800      	cmp	r0, #0
  38:	d008      	beq.n	4c <_ZN4core6result19Result$LT$T$C$E$GT$6expect17hf656a3fd5c2cb345E+0x4c>
  3a:	e009      	b.n	50 <_ZN4core6result19Result$LT$T$C$E$GT$6expect17hf656a3fd5c2cb345E+0x50>
/rustc/50a0defd5a93523067ef239936cc2e0755220904/src/libcore/result.rs:827
  3c:	9807      	ldr	r0, [sp, #28]
  3e:	900b      	str	r0, [sp, #44]	; 0x2c
  40:	9808      	ldr	r0, [sp, #32]
  42:	9909      	ldr	r1, [sp, #36]	; 0x24
  44:	9a0b      	ldr	r2, [sp, #44]	; 0x2c
  46:	f7ff fffe 	bl	0 <_ZN4core6result19Result$LT$T$C$E$GT$6expect17hf656a3fd5c2cb345E>
  4a:	defe      	udf	#254	; 0xfe
/rustc/50a0defd5a93523067ef239936cc2e0755220904/src/libcore/result.rs:829
  4c:	b00c      	add	sp, #48	; 0x30
  4e:	bdb0      	pop	{r4, r5, r7, pc}
  50:	e7fc      	b.n	4c <_ZN4core6result19Result$LT$T$C$E$GT$6expect17hf656a3fd5c2cb345E+0x4c>

mylib-ac95891f38e7979c.5a1y3gwwctyoomvh.rcgu.o:     file format elf32-littlearm

SYMBOL TABLE:
00000000 l    df *ABS*	00000000 5a1y3gwwctyoomvh
00000000 l       .debug_str	00000000 
00000041 l       .debug_str	00000000 
0000004c l       .debug_str	00000000 
0000006f l       .debug_str	00000000 
00000074 l       .debug_str	00000000 
00000078 l       .debug_str	00000000 
0000007b l       .debug_str	00000000 
00000086 l       .debug_str	00000000 
00000091 l       .debug_str	00000000 
00000098 l       .debug_str	00000000 
0000009e l       .debug_str	00000000 
000000a5 l       .debug_str	00000000 
000000a8 l       .debug_str	00000000 
000000b1 l       .debug_str	00000000 
00000124 l       .debug_str	00000000 
0000012c l       .debug_str	00000000 
00000138 l       .debug_str	00000000 
0000013f l       .debug_str	00000000 
00000143 l       .debug_str	00000000 
0000014b l       .debug_str	00000000 
0000014f l       .debug_str	00000000 
0000015a l       .debug_str	00000000 
0000017f l       .debug_str	00000000 
0000018b l       .debug_str	00000000 
0000019a l       .debug_str	00000000 
0000019e l       .debug_str	00000000 
000001a9 l       .debug_str	00000000 
000001b5 l       .debug_str	00000000 
000001db l       .debug_str	00000000 
000001e6 l       .debug_str	00000000 
000001f1 l       .debug_str	00000000 
00000202 l       .debug_str	00000000 
00000207 l       .debug_str	00000000 
0000021b l       .debug_str	00000000 
000002a0 l       .debug_str	00000000 
000002aa l       .debug_str	00000000 
000002b1 l       .debug_str	00000000 
000002b8 l       .debug_str	00000000 
000002bc l       .debug_str	00000000 
000002c1 l       .debug_str	00000000 
000002ef l       .debug_str	00000000 
00000306 l       .debug_str	00000000 
00000362 l       .debug_str	00000000 
00000364 l       .debug_str	00000000 
00000369 l       .debug_str	00000000 
0000036d l       .debug_str	00000000 
000003d1 l       .debug_str	00000000 
000003d9 l       .debug_str	00000000 
000003e2 l       .debug_str	00000000 
000003fa l       .debug_str	00000000 
0000042a l       .debug_str	00000000 
00000450 l       .debug_str	00000000 
000004c7 l       .debug_str	00000000 
0000053d l       .debug_str	00000000 
00000547 l       .debug_str	00000000 
0000054d l       .debug_str	00000000 
00000584 l       .debug_str	00000000 
000005c3 l       .debug_str	00000000 
000005ca l       .debug_str	00000000 
000005d2 l       .debug_str	00000000 
000005db l       .debug_str	00000000 
000005fc l       .debug_str	00000000 
00000613 l       .debug_str	00000000 
0000067b l       .debug_str	00000000 
000006f2 l       .debug_str	00000000 
000006fd l       .debug_str	00000000 
00000707 l       .debug_str	00000000 
0000072d l       .debug_str	00000000 
00000745 l       .debug_str	00000000 
000007ae l       .debug_str	00000000 
000007b8 l       .debug_str	00000000 
000007c3 l       .debug_str	00000000 
000007cc l       .debug_str	00000000 
000007d7 l       .debug_str	00000000 
000007e3 l       .debug_str	00000000 
000007e7 l       .debug_str	00000000 
000007f0 l       .debug_str	00000000 
000007f7 l       .debug_str	00000000 
000007ff l       .debug_str	00000000 
00000807 l       .debug_str	00000000 
00000811 l       .debug_str	00000000 
00000817 l       .debug_str	00000000 
0000081e l       .debug_str	00000000 
00000828 l       .debug_str	00000000 
0000082f l       .debug_str	00000000 
0000085c l       .debug_str	00000000 
00000891 l       .debug_str	00000000 
00000897 l       .debug_str	00000000 
0000089d l       .debug_str	00000000 
000008ac l       .debug_str	00000000 
000008bc l       .debug_str	00000000 
000008cc l       .debug_str	00000000 
000008d4 l       .debug_str	00000000 
000008fc l       .debug_str	00000000 
00000959 l       .debug_str	00000000 
000009be l       .debug_str	00000000 
000009c5 l       .debug_str	00000000 
000009cd l       .debug_str	00000000 
000009d6 l       .debug_str	00000000 
000009f4 l       .debug_str	00000000 
00000a04 l       .debug_str	00000000 
00000a12 l       .debug_str	00000000 
00000a1d l       .debug_str	00000000 
00000a2a l       .debug_str	00000000 
00000a39 l       .debug_str	00000000 
00000a4f l       .debug_str	00000000 
00000a59 l       .debug_str	00000000 
00000a62 l       .debug_str	00000000 
00000a6b l       .debug_str	00000000 
00000a90 l       .debug_str	00000000 
00000aa6 l       .debug_str	00000000 
00000ab1 l       .debug_str	00000000 
00000ac7 l       .debug_str	00000000 
00000acf l       .debug_str	00000000 
00000aef l       .debug_str	00000000 
00000af8 l       .debug_str	00000000 
00000b01 l       .debug_str	00000000 
00000b0b l       .debug_str	00000000 
00000b83 l       .debug_str	00000000 
00000b88 l       .debug_str	00000000 
00000b8e l       .debug_str	00000000 
00000bb0 l       .debug_str	00000000 
00000bb8 l       .debug_str	00000000 
00000bbf l       .debug_str	00000000 
00000bca l       .debug_str	00000000 
00000bed l       .debug_str	00000000 
00000c15 l       .debug_str	00000000 
00000c2e l       .debug_str	00000000 
00000c98 l       .debug_str	00000000 
00000d07 l       .debug_str	00000000 
00000d11 l       .debug_str	00000000 
00000d1a l       .debug_str	00000000 
00000d2a l       .debug_str	00000000 
00000da1 l       .debug_str	00000000 
00000dab l       .debug_str	00000000 
00000db3 l       .debug_str	00000000 
00000dba l       .debug_str	00000000 
00000dc1 l       .debug_str	00000000 
00000dc6 l       .debug_str	00000000 
00000dd0 l       .debug_str	00000000 
00000df2 l       .debug_str	00000000 
00000e19 l       .debug_str	00000000 
00000e31 l       .debug_str	00000000 
00000e9a l       .debug_str	00000000 
00000f0e l       .debug_str	00000000 
00000f1a l       .debug_str	00000000 
00000f22 l       .debug_str	00000000 
00000f7b l       .debug_str	00000000 
00000fdc l       .debug_str	00000000 
00000fe7 l       .debug_str	00000000 
0000102d l       .debug_str	00000000 
0000107b l       .debug_str	00000000 
00001085 l       .debug_str	00000000 
000010c1 l       .debug_str	00000000 
00001105 l       .debug_str	00000000 
0000110e l       .debug_str	00000000 
0000111e l       .debug_str	00000000 
00001126 l       .debug_str	00000000 
0000117a l       .debug_str	00000000 
000011d6 l       .debug_str	00000000 
000011e2 l       .debug_str	00000000 
000011eb l       .debug_str	00000000 
000011f7 l       .debug_str	00000000 
00001203 l       .debug_str	00000000 
0000120c l       .debug_str	00000000 
00001214 l       .debug_str	00000000 
0000121c l       .debug_str	00000000 
00001223 l       .debug_str	00000000 
00001242 l       .debug_str	00000000 
00001257 l       .debug_str	00000000 
000012bd l       .debug_str	00000000 
00001337 l       .debug_str	00000000 
00001347 l       .debug_str	00000000 
00001350 l       .debug_str	00000000 
0000135e l       .debug_str	00000000 
0000136c l       .debug_str	00000000 
00001378 l       .debug_str	00000000 
00001384 l       .debug_str	00000000 
0000138d l       .debug_str	00000000 
0000139c l       .debug_str	00000000 
000013a4 l       .debug_str	00000000 
000013bd l       .debug_str	00000000 
000013ce l       .debug_str	00000000 
000013d8 l       .debug_str	00000000 
000013e0 l       .debug_str	00000000 
000013fa l       .debug_str	00000000 
00001406 l       .debug_str	00000000 
0000142a l       .debug_str	00000000 
00001443 l       .debug_str	00000000 
00001448 l       .debug_str	00000000 
00001450 l       .debug_str	00000000 
0000145b l       .debug_str	00000000 
0000147e l       .debug_str	00000000 
00001487 l       .debug_str	00000000 
00001494 l       .debug_str	00000000 
000014b9 l       .debug_str	00000000 
000014d4 l       .debug_str	00000000 
00001540 l       .debug_str	00000000 
000015bc l       .debug_str	00000000 
000015c4 l       .debug_str	00000000 
000015ce l       .debug_str	00000000 
000015dd l       .debug_str	00000000 
00001604 l       .debug_str	00000000 
00001621 l       .debug_str	00000000 
0000168f l       .debug_str	00000000 
00001704 l       .debug_str	00000000 
0000170c l       .debug_str	00000000 
00001715 l       .debug_str	00000000 
00001723 l       .debug_str	00000000 
0000172a l       .debug_str	00000000 
00001731 l       .debug_str	00000000 
00001739 l       .debug_str	00000000 
00001744 l       .debug_str	00000000 
0000174b l       .debug_str	00000000 
0000175b l       .debug_str	00000000 
0000175f l       .debug_str	00000000 
00001773 l       .debug_str	00000000 
0000178e l       .debug_str	00000000 
00001796 l       .debug_str	00000000 
000017b6 l       .debug_str	00000000 
000017cc l       .debug_str	00000000 
00001833 l       .debug_str	00000000 
000018aa l       .debug_str	00000000 
000018d6 l       .debug_str	00000000 
000018ee l       .debug_str	00000000 
00001957 l       .debug_str	00000000 
0000195f l       .debug_str	00000000 
00001965 l       .debug_str	00000000 
0000196f l       .debug_str	00000000 
000019e8 l       .debug_str	00000000 
00001a53 l       .debug_str	00000000 
00001acb l       .debug_str	00000000 
00001b43 l       .debug_str	00000000 
00001bad l       .debug_str	00000000 
00001c1b l       .debug_str	00000000 
00001c22 l       .debug_str	00000000 
00001c2d l       .debug_str	00000000 
00001c54 l       .debug_str	00000000 
00001cc8 l       .debug_str	00000000 
00001d44 l       .debug_str	00000000 
00001d50 l       .debug_str	00000000 
00001d5f l       .debug_str	00000000 
00001dd5 l       .debug_str	00000000 
00001dec l       .debug_str	00000000 
00001e54 l       .debug_str	00000000 
00001e5c l       .debug_str	00000000 
00001e61 l       .debug_str	00000000 
00001e69 l       .debug_str	00000000 
00001e72 l       .debug_str	00000000 
00001e7b l       .debug_str	00000000 
00001e84 l       .debug_str	00000000 
00001f01 l       .debug_str	00000000 
00001f70 l       .debug_str	00000000 
00001fe9 l       .debug_str	00000000 
00002003 l       .debug_str	00000000 
0000206e l       .debug_str	00000000 
00002077 l       .debug_str	00000000 
00002083 l       .debug_str	00000000 
000020f8 l       .debug_str	00000000 
0000216d l       .debug_str	00000000 
000021e2 l       .debug_str	00000000 
00002249 l       .debug_str	00000000 
000022b7 l       .debug_str	00000000 
000022c6 l       .debug_str	00000000 
00002332 l       .debug_str	00000000 
0000233f l       .debug_str	00000000 
000023b3 l       .debug_str	00000000 
000023c8 l       .debug_str	00000000 
0000242e l       .debug_str	00000000 
00002437 l       .debug_str	00000000 
00002442 l       .debug_str	00000000 
00000000 l    d  .text._ZN81_$LT$mylib..mynewt..os..os_time_change_info$u20$as$u20$core..default..Default$GT$7default17h6cea679964405056E	00000000 .text._ZN81_$LT$mylib..mynewt..os..os_time_change_info$u20$as$u20$core..default..Default$GT$7default17h6cea679964405056E
00000000 l    d  .text._ZN99_$LT$mylib..mynewt..os..os_time_change_listener__bindgen_ty_1$u20$as$u20$core..default..Default$GT$7default17h2cb641613af9efdbE	00000000 .text._ZN99_$LT$mylib..mynewt..os..os_time_change_listener__bindgen_ty_1$u20$as$u20$core..default..Default$GT$7default17h2cb641613af9efdbE
00000000 l    d  .text._ZN85_$LT$mylib..mynewt..os..os_time_change_listener$u20$as$u20$core..default..Default$GT$7default17h525aa6cae0cce1a4E	00000000 .text._ZN85_$LT$mylib..mynewt..os..os_time_change_listener$u20$as$u20$core..default..Default$GT$7default17h525aa6cae0cce1a4E
00000000 l    d  .text._ZN84_$LT$mylib..mynewt..os..os_event__bindgen_ty_1$u20$as$u20$core..default..Default$GT$7default17h8fe16523975ac09bE	00000000 .text._ZN84_$LT$mylib..mynewt..os..os_event__bindgen_ty_1$u20$as$u20$core..default..Default$GT$7default17h8fe16523975ac09bE
00000000 l    d  .text._ZN70_$LT$mylib..mynewt..os..os_event$u20$as$u20$core..default..Default$GT$7default17h66424e5eddc7b7f0E	00000000 .text._ZN70_$LT$mylib..mynewt..os..os_event$u20$as$u20$core..default..Default$GT$7default17h66424e5eddc7b7f0E
00000000 l    d  .text._ZN85_$LT$mylib..mynewt..os..os_eventq__bindgen_ty_1$u20$as$u20$core..default..Default$GT$7default17hba640a24853c0ec0E	00000000 .text._ZN85_$LT$mylib..mynewt..os..os_eventq__bindgen_ty_1$u20$as$u20$core..default..Default$GT$7default17hba640a24853c0ec0E
00000000 l    d  .text._ZN71_$LT$mylib..mynewt..os..os_eventq$u20$as$u20$core..default..Default$GT$7default17hf03d9e86dac90013E	00000000 .text._ZN71_$LT$mylib..mynewt..os..os_eventq$u20$as$u20$core..default..Default$GT$7default17hf03d9e86dac90013E
00000000 l    d  .text._ZN86_$LT$mylib..mynewt..os..os_callout__bindgen_ty_1$u20$as$u20$core..default..Default$GT$7default17h30b8ab0fbb6e6127E	00000000 .text._ZN86_$LT$mylib..mynewt..os..os_callout__bindgen_ty_1$u20$as$u20$core..default..Default$GT$7default17h30b8ab0fbb6e6127E
00000000 l    d  .text._ZN72_$LT$mylib..mynewt..os..os_callout$u20$as$u20$core..default..Default$GT$7default17h198d22e0efdbfbadE	00000000 .text._ZN72_$LT$mylib..mynewt..os..os_callout$u20$as$u20$core..default..Default$GT$7default17h198d22e0efdbfbadE
00000000 l    d  .text._ZN77_$LT$mylib..mynewt..os..os_callout_list$u20$as$u20$core..default..Default$GT$7default17hafa2589540bc989cE	00000000 .text._ZN77_$LT$mylib..mynewt..os..os_callout_list$u20$as$u20$core..default..Default$GT$7default17hafa2589540bc989cE
00000000 l    d  .text._ZN85_$LT$mylib..mynewt..os..hal_timer__bindgen_ty_1$u20$as$u20$core..default..Default$GT$7default17h407795a53c69308eE	00000000 .text._ZN85_$LT$mylib..mynewt..os..hal_timer__bindgen_ty_1$u20$as$u20$core..default..Default$GT$7default17h407795a53c69308eE
00000000 l    d  .text._ZN71_$LT$mylib..mynewt..os..hal_timer$u20$as$u20$core..default..Default$GT$7default17h2acf0a66fe6c7029E	00000000 .text._ZN71_$LT$mylib..mynewt..os..hal_timer$u20$as$u20$core..default..Default$GT$7default17h2acf0a66fe6c7029E
00000000 l    d  .text._ZN82_$LT$mylib..mynewt..os..os_dev__bindgen_ty_1$u20$as$u20$core..default..Default$GT$7default17he0833dd4e18431c4E	00000000 .text._ZN82_$LT$mylib..mynewt..os..os_dev__bindgen_ty_1$u20$as$u20$core..default..Default$GT$7default17he0833dd4e18431c4E
00000000 l    d  .text._ZN68_$LT$mylib..mynewt..os..os_dev$u20$as$u20$core..default..Default$GT$7default17h1412b1c8db1a0b8bE	00000000 .text._ZN68_$LT$mylib..mynewt..os..os_dev$u20$as$u20$core..default..Default$GT$7default17h1412b1c8db1a0b8bE
00000000 l    d  .text._ZN88_$LT$mylib..mynewt..os..os_mbuf_pool__bindgen_ty_1$u20$as$u20$core..default..Default$GT$7default17h95cd085344296abdE	00000000 .text._ZN88_$LT$mylib..mynewt..os..os_mbuf_pool__bindgen_ty_1$u20$as$u20$core..default..Default$GT$7default17h95cd085344296abdE
00000000 l    d  .text._ZN74_$LT$mylib..mynewt..os..os_mbuf_pool$u20$as$u20$core..default..Default$GT$7default17h077f7a3159631585E	00000000 .text._ZN74_$LT$mylib..mynewt..os..os_mbuf_pool$u20$as$u20$core..default..Default$GT$7default17h077f7a3159631585E
00000000 l    d  .text._ZN90_$LT$mylib..mynewt..os..os_mbuf_pkthdr__bindgen_ty_1$u20$as$u20$core..default..Default$GT$7default17h047ef58c499eb403E	00000000 .text._ZN90_$LT$mylib..mynewt..os..os_mbuf_pkthdr__bindgen_ty_1$u20$as$u20$core..default..Default$GT$7default17h047ef58c499eb403E
00000000 l    d  .text._ZN76_$LT$mylib..mynewt..os..os_mbuf_pkthdr$u20$as$u20$core..default..Default$GT$7default17hb9420dbe855ce86fE	00000000 .text._ZN76_$LT$mylib..mynewt..os..os_mbuf_pkthdr$u20$as$u20$core..default..Default$GT$7default17hb9420dbe855ce86fE
00000000 l    d  .text._ZN83_$LT$mylib..mynewt..os..os_mbuf__bindgen_ty_1$u20$as$u20$core..default..Default$GT$7default17h893a8f1d01795f47E	00000000 .text._ZN83_$LT$mylib..mynewt..os..os_mbuf__bindgen_ty_1$u20$as$u20$core..default..Default$GT$7default17h893a8f1d01795f47E
00000000 l    d  .text._ZN69_$LT$mylib..mynewt..os..os_mbuf$u20$as$u20$core..default..Default$GT$7default17h611852fc16586423E	00000000 .text._ZN69_$LT$mylib..mynewt..os..os_mbuf$u20$as$u20$core..default..Default$GT$7default17h611852fc16586423E
00000000 l    d  .text._ZN85_$LT$mylib..mynewt..os..os_mqueue__bindgen_ty_1$u20$as$u20$core..default..Default$GT$7default17h17ce14023712f6faE	00000000 .text._ZN85_$LT$mylib..mynewt..os..os_mqueue__bindgen_ty_1$u20$as$u20$core..default..Default$GT$7default17h17ce14023712f6faE
00000000 l    d  .text._ZN71_$LT$mylib..mynewt..os..os_mqueue$u20$as$u20$core..default..Default$GT$7default17h69ed1b99e5663808E	00000000 .text._ZN71_$LT$mylib..mynewt..os..os_mqueue$u20$as$u20$core..default..Default$GT$7default17h69ed1b99e5663808E
00000000 l    d  .text._ZN87_$LT$mylib..mynewt..os..os_memblock__bindgen_ty_1$u20$as$u20$core..default..Default$GT$7default17h55003f9bbb37063fE	00000000 .text._ZN87_$LT$mylib..mynewt..os..os_memblock__bindgen_ty_1$u20$as$u20$core..default..Default$GT$7default17h55003f9bbb37063fE
00000000 l    d  .text._ZN73_$LT$mylib..mynewt..os..os_memblock$u20$as$u20$core..default..Default$GT$7default17h273217c970aea815E	00000000 .text._ZN73_$LT$mylib..mynewt..os..os_memblock$u20$as$u20$core..default..Default$GT$7default17h273217c970aea815E
00000000 l    d  .text._ZN86_$LT$mylib..mynewt..os..os_mempool__bindgen_ty_1$u20$as$u20$core..default..Default$GT$7default17h3aa73c7cd0fc6a3bE	00000000 .text._ZN86_$LT$mylib..mynewt..os..os_mempool__bindgen_ty_1$u20$as$u20$core..default..Default$GT$7default17h3aa73c7cd0fc6a3bE
00000000 l    d  .text._ZN86_$LT$mylib..mynewt..os..os_mempool__bindgen_ty_2$u20$as$u20$core..default..Default$GT$7default17h70e08da27e8745cfE	00000000 .text._ZN86_$LT$mylib..mynewt..os..os_mempool__bindgen_ty_2$u20$as$u20$core..default..Default$GT$7default17h70e08da27e8745cfE
00000000 l    d  .text._ZN72_$LT$mylib..mynewt..os..os_mempool$u20$as$u20$core..default..Default$GT$7default17hbadc4ad5691bc104E	00000000 .text._ZN72_$LT$mylib..mynewt..os..os_mempool$u20$as$u20$core..default..Default$GT$7default17hbadc4ad5691bc104E
00000000 l    d  .text._ZN76_$LT$mylib..mynewt..os..os_mempool_ext$u20$as$u20$core..default..Default$GT$7default17hff4894421a7ccd81E	00000000 .text._ZN76_$LT$mylib..mynewt..os..os_mempool_ext$u20$as$u20$core..default..Default$GT$7default17hff4894421a7ccd81E
00000000 l    d  .text._ZN84_$LT$mylib..mynewt..os..os_mutex__bindgen_ty_1$u20$as$u20$core..default..Default$GT$7default17hc8f39c37b6ffe101E	00000000 .text._ZN84_$LT$mylib..mynewt..os..os_mutex__bindgen_ty_1$u20$as$u20$core..default..Default$GT$7default17hc8f39c37b6ffe101E
00000000 l    d  .text._ZN70_$LT$mylib..mynewt..os..os_mutex$u20$as$u20$core..default..Default$GT$7default17haea3c694df4e36eeE	00000000 .text._ZN70_$LT$mylib..mynewt..os..os_mutex$u20$as$u20$core..default..Default$GT$7default17haea3c694df4e36eeE
00000000 l    d  .text._ZN91_$LT$mylib..mynewt..os..os_sanity_check__bindgen_ty_1$u20$as$u20$core..default..Default$GT$7default17h4ed295c1d2075008E	00000000 .text._ZN91_$LT$mylib..mynewt..os..os_sanity_check__bindgen_ty_1$u20$as$u20$core..default..Default$GT$7default17h4ed295c1d2075008E
00000000 l    d  .text._ZN77_$LT$mylib..mynewt..os..os_sanity_check$u20$as$u20$core..default..Default$GT$7default17h3066a52d65ff2ba3E	00000000 .text._ZN77_$LT$mylib..mynewt..os..os_sanity_check$u20$as$u20$core..default..Default$GT$7default17h3066a52d65ff2ba3E
00000000 l    d  .text._ZN87_$LT$mylib..mynewt..os..os_task_obj__bindgen_ty_1$u20$as$u20$core..default..Default$GT$7default17hbbd7e1dbafd5e832E	00000000 .text._ZN87_$LT$mylib..mynewt..os..os_task_obj__bindgen_ty_1$u20$as$u20$core..default..Default$GT$7default17hbbd7e1dbafd5e832E
00000000 l    d  .text._ZN73_$LT$mylib..mynewt..os..os_task_obj$u20$as$u20$core..default..Default$GT$7default17h67b00553140338f7E	00000000 .text._ZN73_$LT$mylib..mynewt..os..os_task_obj$u20$as$u20$core..default..Default$GT$7default17h67b00553140338f7E
00000000 l    d  .text._ZN83_$LT$mylib..mynewt..os..os_task__bindgen_ty_1$u20$as$u20$core..default..Default$GT$7default17ha3ae116785e4dd12E	00000000 .text._ZN83_$LT$mylib..mynewt..os..os_task__bindgen_ty_1$u20$as$u20$core..default..Default$GT$7default17ha3ae116785e4dd12E
00000000 l    d  .text._ZN83_$LT$mylib..mynewt..os..os_task__bindgen_ty_2$u20$as$u20$core..default..Default$GT$7default17he2c896c1c865c9eeE	00000000 .text._ZN83_$LT$mylib..mynewt..os..os_task__bindgen_ty_2$u20$as$u20$core..default..Default$GT$7default17he2c896c1c865c9eeE
00000000 l    d  .text._ZN83_$LT$mylib..mynewt..os..os_task__bindgen_ty_3$u20$as$u20$core..default..Default$GT$7default17heda70455ac32de4bE	00000000 .text._ZN83_$LT$mylib..mynewt..os..os_task__bindgen_ty_3$u20$as$u20$core..default..Default$GT$7default17heda70455ac32de4bE
00000000 l    d  .text._ZN69_$LT$mylib..mynewt..os..os_task$u20$as$u20$core..default..Default$GT$7default17h155d954fefd7a04cE	00000000 .text._ZN69_$LT$mylib..mynewt..os..os_task$u20$as$u20$core..default..Default$GT$7default17h155d954fefd7a04cE
00000000 l    d  .text._ZN76_$LT$mylib..mynewt..os..os_task_stailq$u20$as$u20$core..default..Default$GT$7default17h37658d8c0de15ca5E	00000000 .text._ZN76_$LT$mylib..mynewt..os..os_task_stailq$u20$as$u20$core..default..Default$GT$7default17h37658d8c0de15ca5E
00000000 l    d  .text._ZN74_$LT$mylib..mynewt..os..os_task_list$u20$as$u20$core..default..Default$GT$7default17h469cdf5fe49f14c4E	00000000 .text._ZN74_$LT$mylib..mynewt..os..os_task_list$u20$as$u20$core..default..Default$GT$7default17h469cdf5fe49f14c4E
00000000 l    d  .text._ZN82_$LT$mylib..mynewt..os..os_sem__bindgen_ty_1$u20$as$u20$core..default..Default$GT$7default17h79df8c47d06ea967E	00000000 .text._ZN82_$LT$mylib..mynewt..os..os_sem__bindgen_ty_1$u20$as$u20$core..default..Default$GT$7default17h79df8c47d06ea967E
00000000 l    d  .text._ZN68_$LT$mylib..mynewt..os..os_sem$u20$as$u20$core..default..Default$GT$7default17heb40b96bce90a330E	00000000 .text._ZN68_$LT$mylib..mynewt..os..os_sem$u20$as$u20$core..default..Default$GT$7default17heb40b96bce90a330E
00000000 l    d  .debug_abbrev	00000000 .debug_abbrev
00000000 l    d  .debug_info	00000000 .debug_info
00000000 l    d  .debug_ranges	00000000 .debug_ranges
00000000 l    d  .debug_frame	00000000 .debug_frame
00000000 l    d  .debug_line	00000000 .debug_line
00000000         *UND*	00000000 _ZN4core3mem6zeroed17h08155ea49050dc3eE
00000000         *UND*	00000000 _ZN4core3mem6zeroed17h1b7c9138926d7b9cE
00000000         *UND*	00000000 _ZN4core3mem6zeroed17h2c5a9e6369ada9ebE
00000000         *UND*	00000000 _ZN4core3mem6zeroed17h2c7747257aa272c7E
00000000         *UND*	00000000 _ZN4core3mem6zeroed17h2fcb95fac63f0f37E
00000000         *UND*	00000000 _ZN4core3mem6zeroed17h3319ebf41e5ebcd3E
00000000         *UND*	00000000 _ZN4core3mem6zeroed17h38e1ce7c1e5873d8E
00000000         *UND*	00000000 _ZN4core3mem6zeroed17h4a90a962f223a34bE
00000000         *UND*	00000000 _ZN4core3mem6zeroed17h4cab47ee70a5f420E
00000000         *UND*	00000000 _ZN4core3mem6zeroed17h54d1c270f7c18682E
00000000         *UND*	00000000 _ZN4core3mem6zeroed17h5935ad08c7a7043bE
00000000         *UND*	00000000 _ZN4core3mem6zeroed17h5ce3b1a147c0b31cE
00000000         *UND*	00000000 _ZN4core3mem6zeroed17h5fca9c1a1095d517E
00000000         *UND*	00000000 _ZN4core3mem6zeroed17h64045bbfaa0998f4E
00000000         *UND*	00000000 _ZN4core3mem6zeroed17h64b6ac68acfa6d7aE
00000000         *UND*	00000000 _ZN4core3mem6zeroed17h6c16a59c940a3294E
00000000         *UND*	00000000 _ZN4core3mem6zeroed17h6c97548100b53c02E
00000000         *UND*	00000000 _ZN4core3mem6zeroed17h6fd0826c5284d1e7E
00000000         *UND*	00000000 _ZN4core3mem6zeroed17h70df674b60665696E
00000000         *UND*	00000000 _ZN4core3mem6zeroed17h79f6a622198a28bbE
00000000         *UND*	00000000 _ZN4core3mem6zeroed17h7bfc2859ca9f5340E
00000000         *UND*	00000000 _ZN4core3mem6zeroed17h80594db7b20bcd9dE
00000000         *UND*	00000000 _ZN4core3mem6zeroed17h82caf1239ac4833bE
00000000         *UND*	00000000 _ZN4core3mem6zeroed17h88fd50400cb1a996E
00000000         *UND*	00000000 _ZN4core3mem6zeroed17h8dbad459a4b2071aE
00000000         *UND*	00000000 _ZN4core3mem6zeroed17h92eefd0ad2717dd3E
00000000         *UND*	00000000 _ZN4core3mem6zeroed17h98e0c4c0deb7c86bE
00000000         *UND*	00000000 _ZN4core3mem6zeroed17h9aa2c627ba372f2fE
00000000         *UND*	00000000 _ZN4core3mem6zeroed17h9ad70ac399f4322bE
00000000         *UND*	00000000 _ZN4core3mem6zeroed17ha188dc5e0bd4fd78E
00000000         *UND*	00000000 _ZN4core3mem6zeroed17ha42de8d78d848b40E
00000000         *UND*	00000000 _ZN4core3mem6zeroed17ha8a888d7a5d79574E
00000000         *UND*	00000000 _ZN4core3mem6zeroed17hb09e7ec69bda6ad0E
00000000         *UND*	00000000 _ZN4core3mem6zeroed17hb6404f5abcb541feE
00000000         *UND*	00000000 _ZN4core3mem6zeroed17hd940eb44d903adefE
00000000         *UND*	00000000 _ZN4core3mem6zeroed17hdab47f1c2f229790E
00000000         *UND*	00000000 _ZN4core3mem6zeroed17hded35ad507f971e3E
00000000         *UND*	00000000 _ZN4core3mem6zeroed17he26129cc1a6bd652E
00000000         *UND*	00000000 _ZN4core3mem6zeroed17he8704dfe99657d04E
00000000         *UND*	00000000 _ZN4core3mem6zeroed17hee2152239e6bc116E
00000000         *UND*	00000000 _ZN4core3mem6zeroed17hfcb0e8ea495ca665E
00000000         *UND*	00000000 _ZN4core3mem6zeroed17hfd350443cca8fc90E
00000000 g     F .text._ZN68_$LT$mylib..mynewt..os..os_dev$u20$as$u20$core..default..Default$GT$7default17h1412b1c8db1a0b8bE	00000012 _ZN68_$LT$mylib..mynewt..os..os_dev$u20$as$u20$core..default..Default$GT$7default17h1412b1c8db1a0b8bE
00000000 g     F .text._ZN68_$LT$mylib..mynewt..os..os_sem$u20$as$u20$core..default..Default$GT$7default17heb40b96bce90a330E	00000012 _ZN68_$LT$mylib..mynewt..os..os_sem$u20$as$u20$core..default..Default$GT$7default17heb40b96bce90a330E
00000000 g     F .text._ZN69_$LT$mylib..mynewt..os..os_mbuf$u20$as$u20$core..default..Default$GT$7default17h611852fc16586423E	00000012 _ZN69_$LT$mylib..mynewt..os..os_mbuf$u20$as$u20$core..default..Default$GT$7default17h611852fc16586423E
00000000 g     F .text._ZN69_$LT$mylib..mynewt..os..os_task$u20$as$u20$core..default..Default$GT$7default17h155d954fefd7a04cE	00000012 _ZN69_$LT$mylib..mynewt..os..os_task$u20$as$u20$core..default..Default$GT$7default17h155d954fefd7a04cE
00000000 g     F .text._ZN70_$LT$mylib..mynewt..os..os_event$u20$as$u20$core..default..Default$GT$7default17h66424e5eddc7b7f0E	00000012 _ZN70_$LT$mylib..mynewt..os..os_event$u20$as$u20$core..default..Default$GT$7default17h66424e5eddc7b7f0E
00000000 g     F .text._ZN70_$LT$mylib..mynewt..os..os_mutex$u20$as$u20$core..default..Default$GT$7default17haea3c694df4e36eeE	00000012 _ZN70_$LT$mylib..mynewt..os..os_mutex$u20$as$u20$core..default..Default$GT$7default17haea3c694df4e36eeE
00000000 g     F .text._ZN71_$LT$mylib..mynewt..os..hal_timer$u20$as$u20$core..default..Default$GT$7default17h2acf0a66fe6c7029E	00000012 _ZN71_$LT$mylib..mynewt..os..hal_timer$u20$as$u20$core..default..Default$GT$7default17h2acf0a66fe6c7029E
00000000 g     F .text._ZN71_$LT$mylib..mynewt..os..os_eventq$u20$as$u20$core..default..Default$GT$7default17hf03d9e86dac90013E	00000012 _ZN71_$LT$mylib..mynewt..os..os_eventq$u20$as$u20$core..default..Default$GT$7default17hf03d9e86dac90013E
00000000 g     F .text._ZN71_$LT$mylib..mynewt..os..os_mqueue$u20$as$u20$core..default..Default$GT$7default17h69ed1b99e5663808E	00000012 _ZN71_$LT$mylib..mynewt..os..os_mqueue$u20$as$u20$core..default..Default$GT$7default17h69ed1b99e5663808E
00000000 g     F .text._ZN72_$LT$mylib..mynewt..os..os_callout$u20$as$u20$core..default..Default$GT$7default17h198d22e0efdbfbadE	00000012 _ZN72_$LT$mylib..mynewt..os..os_callout$u20$as$u20$core..default..Default$GT$7default17h198d22e0efdbfbadE
00000000 g     F .text._ZN72_$LT$mylib..mynewt..os..os_mempool$u20$as$u20$core..default..Default$GT$7default17hbadc4ad5691bc104E	00000012 _ZN72_$LT$mylib..mynewt..os..os_mempool$u20$as$u20$core..default..Default$GT$7default17hbadc4ad5691bc104E
00000000 g     F .text._ZN73_$LT$mylib..mynewt..os..os_memblock$u20$as$u20$core..default..Default$GT$7default17h273217c970aea815E	00000016 _ZN73_$LT$mylib..mynewt..os..os_memblock$u20$as$u20$core..default..Default$GT$7default17h273217c970aea815E
00000000 g     F .text._ZN73_$LT$mylib..mynewt..os..os_task_obj$u20$as$u20$core..default..Default$GT$7default17h67b00553140338f7E	00000016 _ZN73_$LT$mylib..mynewt..os..os_task_obj$u20$as$u20$core..default..Default$GT$7default17h67b00553140338f7E
00000000 g     F .text._ZN74_$LT$mylib..mynewt..os..os_mbuf_pool$u20$as$u20$core..default..Default$GT$7default17h077f7a3159631585E	00000012 _ZN74_$LT$mylib..mynewt..os..os_mbuf_pool$u20$as$u20$core..default..Default$GT$7default17h077f7a3159631585E
00000000 g     F .text._ZN74_$LT$mylib..mynewt..os..os_task_list$u20$as$u20$core..default..Default$GT$7default17h469cdf5fe49f14c4E	00000016 _ZN74_$LT$mylib..mynewt..os..os_task_list$u20$as$u20$core..default..Default$GT$7default17h469cdf5fe49f14c4E
00000000 g     F .text._ZN76_$LT$mylib..mynewt..os..os_mbuf_pkthdr$u20$as$u20$core..default..Default$GT$7default17hb9420dbe855ce86fE	00000012 _ZN76_$LT$mylib..mynewt..os..os_mbuf_pkthdr$u20$as$u20$core..default..Default$GT$7default17hb9420dbe855ce86fE
00000000 g     F .text._ZN76_$LT$mylib..mynewt..os..os_mempool_ext$u20$as$u20$core..default..Default$GT$7default17hff4894421a7ccd81E	00000012 _ZN76_$LT$mylib..mynewt..os..os_mempool_ext$u20$as$u20$core..default..Default$GT$7default17hff4894421a7ccd81E
00000000 g     F .text._ZN76_$LT$mylib..mynewt..os..os_task_stailq$u20$as$u20$core..default..Default$GT$7default17h37658d8c0de15ca5E	00000016 _ZN76_$LT$mylib..mynewt..os..os_task_stailq$u20$as$u20$core..default..Default$GT$7default17h37658d8c0de15ca5E
00000000 g     F .text._ZN77_$LT$mylib..mynewt..os..os_callout_list$u20$as$u20$core..default..Default$GT$7default17hafa2589540bc989cE	00000016 _ZN77_$LT$mylib..mynewt..os..os_callout_list$u20$as$u20$core..default..Default$GT$7default17hafa2589540bc989cE
00000000 g     F .text._ZN77_$LT$mylib..mynewt..os..os_sanity_check$u20$as$u20$core..default..Default$GT$7default17h3066a52d65ff2ba3E	00000012 _ZN77_$LT$mylib..mynewt..os..os_sanity_check$u20$as$u20$core..default..Default$GT$7default17h3066a52d65ff2ba3E
00000000 g     F .text._ZN81_$LT$mylib..mynewt..os..os_time_change_info$u20$as$u20$core..default..Default$GT$7default17h6cea679964405056E	00000012 _ZN81_$LT$mylib..mynewt..os..os_time_change_info$u20$as$u20$core..default..Default$GT$7default17h6cea679964405056E
00000000 g     F .text._ZN82_$LT$mylib..mynewt..os..os_dev__bindgen_ty_1$u20$as$u20$core..default..Default$GT$7default17he0833dd4e18431c4E	00000016 _ZN82_$LT$mylib..mynewt..os..os_dev__bindgen_ty_1$u20$as$u20$core..default..Default$GT$7default17he0833dd4e18431c4E
00000000 g     F .text._ZN82_$LT$mylib..mynewt..os..os_sem__bindgen_ty_1$u20$as$u20$core..default..Default$GT$7default17h79df8c47d06ea967E	00000016 _ZN82_$LT$mylib..mynewt..os..os_sem__bindgen_ty_1$u20$as$u20$core..default..Default$GT$7default17h79df8c47d06ea967E
00000000 g     F .text._ZN83_$LT$mylib..mynewt..os..os_mbuf__bindgen_ty_1$u20$as$u20$core..default..Default$GT$7default17h893a8f1d01795f47E	00000016 _ZN83_$LT$mylib..mynewt..os..os_mbuf__bindgen_ty_1$u20$as$u20$core..default..Default$GT$7default17h893a8f1d01795f47E
00000000 g     F .text._ZN83_$LT$mylib..mynewt..os..os_task__bindgen_ty_1$u20$as$u20$core..default..Default$GT$7default17ha3ae116785e4dd12E	00000016 _ZN83_$LT$mylib..mynewt..os..os_task__bindgen_ty_1$u20$as$u20$core..default..Default$GT$7default17ha3ae116785e4dd12E
00000000 g     F .text._ZN83_$LT$mylib..mynewt..os..os_task__bindgen_ty_2$u20$as$u20$core..default..Default$GT$7default17he2c896c1c865c9eeE	00000016 _ZN83_$LT$mylib..mynewt..os..os_task__bindgen_ty_2$u20$as$u20$core..default..Default$GT$7default17he2c896c1c865c9eeE
00000000 g     F .text._ZN83_$LT$mylib..mynewt..os..os_task__bindgen_ty_3$u20$as$u20$core..default..Default$GT$7default17heda70455ac32de4bE	00000016 _ZN83_$LT$mylib..mynewt..os..os_task__bindgen_ty_3$u20$as$u20$core..default..Default$GT$7default17heda70455ac32de4bE
00000000 g     F .text._ZN84_$LT$mylib..mynewt..os..os_event__bindgen_ty_1$u20$as$u20$core..default..Default$GT$7default17h8fe16523975ac09bE	00000016 _ZN84_$LT$mylib..mynewt..os..os_event__bindgen_ty_1$u20$as$u20$core..default..Default$GT$7default17h8fe16523975ac09bE
00000000 g     F .text._ZN84_$LT$mylib..mynewt..os..os_mutex__bindgen_ty_1$u20$as$u20$core..default..Default$GT$7default17hc8f39c37b6ffe101E	00000016 _ZN84_$LT$mylib..mynewt..os..os_mutex__bindgen_ty_1$u20$as$u20$core..default..Default$GT$7default17hc8f39c37b6ffe101E
00000000 g     F .text._ZN85_$LT$mylib..mynewt..os..hal_timer__bindgen_ty_1$u20$as$u20$core..default..Default$GT$7default17h407795a53c69308eE	00000016 _ZN85_$LT$mylib..mynewt..os..hal_timer__bindgen_ty_1$u20$as$u20$core..default..Default$GT$7default17h407795a53c69308eE
00000000 g     F .text._ZN85_$LT$mylib..mynewt..os..os_eventq__bindgen_ty_1$u20$as$u20$core..default..Default$GT$7default17hba640a24853c0ec0E	00000016 _ZN85_$LT$mylib..mynewt..os..os_eventq__bindgen_ty_1$u20$as$u20$core..default..Default$GT$7default17hba640a24853c0ec0E
00000000 g     F .text._ZN85_$LT$mylib..mynewt..os..os_mqueue__bindgen_ty_1$u20$as$u20$core..default..Default$GT$7default17h17ce14023712f6faE	00000016 _ZN85_$LT$mylib..mynewt..os..os_mqueue__bindgen_ty_1$u20$as$u20$core..default..Default$GT$7default17h17ce14023712f6faE
00000000 g     F .text._ZN85_$LT$mylib..mynewt..os..os_time_change_listener$u20$as$u20$core..default..Default$GT$7default17h525aa6cae0cce1a4E	00000012 _ZN85_$LT$mylib..mynewt..os..os_time_change_listener$u20$as$u20$core..default..Default$GT$7default17h525aa6cae0cce1a4E
00000000 g     F .text._ZN86_$LT$mylib..mynewt..os..os_callout__bindgen_ty_1$u20$as$u20$core..default..Default$GT$7default17h30b8ab0fbb6e6127E	00000016 _ZN86_$LT$mylib..mynewt..os..os_callout__bindgen_ty_1$u20$as$u20$core..default..Default$GT$7default17h30b8ab0fbb6e6127E
00000000 g     F .text._ZN86_$LT$mylib..mynewt..os..os_mempool__bindgen_ty_1$u20$as$u20$core..default..Default$GT$7default17h3aa73c7cd0fc6a3bE	00000016 _ZN86_$LT$mylib..mynewt..os..os_mempool__bindgen_ty_1$u20$as$u20$core..default..Default$GT$7default17h3aa73c7cd0fc6a3bE
00000000 g     F .text._ZN86_$LT$mylib..mynewt..os..os_mempool__bindgen_ty_2$u20$as$u20$core..default..Default$GT$7default17h70e08da27e8745cfE	00000016 _ZN86_$LT$mylib..mynewt..os..os_mempool__bindgen_ty_2$u20$as$u20$core..default..Default$GT$7default17h70e08da27e8745cfE
00000000 g     F .text._ZN87_$LT$mylib..mynewt..os..os_memblock__bindgen_ty_1$u20$as$u20$core..default..Default$GT$7default17h55003f9bbb37063fE	00000016 _ZN87_$LT$mylib..mynewt..os..os_memblock__bindgen_ty_1$u20$as$u20$core..default..Default$GT$7default17h55003f9bbb37063fE
00000000 g     F .text._ZN87_$LT$mylib..mynewt..os..os_task_obj__bindgen_ty_1$u20$as$u20$core..default..Default$GT$7default17hbbd7e1dbafd5e832E	00000016 _ZN87_$LT$mylib..mynewt..os..os_task_obj__bindgen_ty_1$u20$as$u20$core..default..Default$GT$7default17hbbd7e1dbafd5e832E
00000000 g     F .text._ZN88_$LT$mylib..mynewt..os..os_mbuf_pool__bindgen_ty_1$u20$as$u20$core..default..Default$GT$7default17h95cd085344296abdE	00000016 _ZN88_$LT$mylib..mynewt..os..os_mbuf_pool__bindgen_ty_1$u20$as$u20$core..default..Default$GT$7default17h95cd085344296abdE
00000000 g     F .text._ZN90_$LT$mylib..mynewt..os..os_mbuf_pkthdr__bindgen_ty_1$u20$as$u20$core..default..Default$GT$7default17h047ef58c499eb403E	00000016 _ZN90_$LT$mylib..mynewt..os..os_mbuf_pkthdr__bindgen_ty_1$u20$as$u20$core..default..Default$GT$7default17h047ef58c499eb403E
00000000 g     F .text._ZN91_$LT$mylib..mynewt..os..os_sanity_check__bindgen_ty_1$u20$as$u20$core..default..Default$GT$7default17h4ed295c1d2075008E	00000016 _ZN91_$LT$mylib..mynewt..os..os_sanity_check__bindgen_ty_1$u20$as$u20$core..default..Default$GT$7default17h4ed295c1d2075008E
00000000 g     F .text._ZN99_$LT$mylib..mynewt..os..os_time_change_listener__bindgen_ty_1$u20$as$u20$core..default..Default$GT$7default17h2cb641613af9efdbE	00000016 _ZN99_$LT$mylib..mynewt..os..os_time_change_listener__bindgen_ty_1$u20$as$u20$core..default..Default$GT$7default17h2cb641613af9efdbE



Disassembly of section .text._ZN81_$LT$mylib..mynewt..os..os_time_change_info$u20$as$u20$core..default..Default$GT$7default17h6cea679964405056E:

00000000 <_ZN81_$LT$mylib..mynewt..os..os_time_change_info$u20$as$u20$core..default..Default$GT$7default17h6cea679964405056E>:
_ZN81_$LT$mylib..mynewt..os..os_time_change_info$u20$as$u20$core..default..Default$GT$7default17h6cea679964405056E():
/mnt/c/stm32bluepill-mynewt-sensor/src/mynewt/os.rs:234
    pub tci_cur_tv: *const os_timeval,
    pub tci_cur_tz: *const os_timezone,
    pub tci_newly_synced: bool,
}
impl Default for os_time_change_info {
    fn default() -> Self {
   0:	b580      	push	{r7, lr}
   2:	b082      	sub	sp, #8
   4:	4601      	mov	r1, r0
/mnt/c/stm32bluepill-mynewt-sensor/src/mynewt/os.rs:235
        unsafe { ::core::mem::zeroed() }
   6:	9101      	str	r1, [sp, #4]
   8:	f7ff fffe 	bl	0 <_ZN4core3mem6zeroed17he8704dfe99657d04E>
   c:	e7ff      	b.n	e <_ZN81_$LT$mylib..mynewt..os..os_time_change_info$u20$as$u20$core..default..Default$GT$7default17h6cea679964405056E+0xe>
/mnt/c/stm32bluepill-mynewt-sensor/src/mynewt/os.rs:236
    }
   e:	b002      	add	sp, #8
  10:	bd80      	pop	{r7, pc}

Disassembly of section .text._ZN99_$LT$mylib..mynewt..os..os_time_change_listener__bindgen_ty_1$u20$as$u20$core..default..Default$GT$7default17h2cb641613af9efdbE:

00000000 <_ZN99_$LT$mylib..mynewt..os..os_time_change_listener__bindgen_ty_1$u20$as$u20$core..default..Default$GT$7default17h2cb641613af9efdbE>:
_ZN99_$LT$mylib..mynewt..os..os_time_change_listener__bindgen_ty_1$u20$as$u20$core..default..Default$GT$7default17h2cb641613af9efdbE():
/mnt/c/stm32bluepill-mynewt-sensor/src/mynewt/os.rs:252
#[repr(C)]
pub struct os_time_change_listener__bindgen_ty_1 {
    pub stqe_next: *mut os_time_change_listener,
}
impl Default for os_time_change_listener__bindgen_ty_1 {
    fn default() -> Self {
   0:	b580      	push	{r7, lr}
   2:	b082      	sub	sp, #8
/mnt/c/stm32bluepill-mynewt-sensor/src/mynewt/os.rs:253
        unsafe { ::core::mem::zeroed() }
   4:	f7ff fffe 	bl	0 <_ZN4core3mem6zeroed17hee2152239e6bc116E>
   8:	9001      	str	r0, [sp, #4]
   a:	9801      	ldr	r0, [sp, #4]
   c:	9000      	str	r0, [sp, #0]
   e:	e7ff      	b.n	10 <_ZN99_$LT$mylib..mynewt..os..os_time_change_listener__bindgen_ty_1$u20$as$u20$core..default..Default$GT$7default17h2cb641613af9efdbE+0x10>
/mnt/c/stm32bluepill-mynewt-sensor/src/mynewt/os.rs:254
    }
  10:	9800      	ldr	r0, [sp, #0]
  12:	b002      	add	sp, #8
  14:	bd80      	pop	{r7, pc}

Disassembly of section .text._ZN85_$LT$mylib..mynewt..os..os_time_change_listener$u20$as$u20$core..default..Default$GT$7default17h525aa6cae0cce1a4E:

00000000 <_ZN85_$LT$mylib..mynewt..os..os_time_change_listener$u20$as$u20$core..default..Default$GT$7default17h525aa6cae0cce1a4E>:
_ZN85_$LT$mylib..mynewt..os..os_time_change_listener$u20$as$u20$core..default..Default$GT$7default17h525aa6cae0cce1a4E():
/mnt/c/stm32bluepill-mynewt-sensor/src/mynewt/os.rs:257
}
impl Default for os_time_change_listener {
    fn default() -> Self {
   0:	b580      	push	{r7, lr}
   2:	b082      	sub	sp, #8
   4:	4601      	mov	r1, r0
/mnt/c/stm32bluepill-mynewt-sensor/src/mynewt/os.rs:258
        unsafe { ::core::mem::zeroed() }
   6:	9101      	str	r1, [sp, #4]
   8:	f7ff fffe 	bl	0 <_ZN4core3mem6zeroed17h08155ea49050dc3eE>
   c:	e7ff      	b.n	e <_ZN85_$LT$mylib..mynewt..os..os_time_change_listener$u20$as$u20$core..default..Default$GT$7default17h525aa6cae0cce1a4E+0xe>
/mnt/c/stm32bluepill-mynewt-sensor/src/mynewt/os.rs:259
    }
   e:	b002      	add	sp, #8
  10:	bd80      	pop	{r7, pc}

Disassembly of section .text._ZN84_$LT$mylib..mynewt..os..os_event__bindgen_ty_1$u20$as$u20$core..default..Default$GT$7default17h8fe16523975ac09bE:

00000000 <_ZN84_$LT$mylib..mynewt..os..os_event__bindgen_ty_1$u20$as$u20$core..default..Default$GT$7default17h8fe16523975ac09bE>:
_ZN84_$LT$mylib..mynewt..os..os_event__bindgen_ty_1$u20$as$u20$core..default..Default$GT$7default17h8fe16523975ac09bE():
/mnt/c/stm32bluepill-mynewt-sensor/src/mynewt/os.rs:301
#[repr(C)]
pub struct os_event__bindgen_ty_1 {
    pub stqe_next: *mut os_event,
}
impl Default for os_event__bindgen_ty_1 {
    fn default() -> Self {
   0:	b580      	push	{r7, lr}
   2:	b082      	sub	sp, #8
/mnt/c/stm32bluepill-mynewt-sensor/src/mynewt/os.rs:302
        unsafe { ::core::mem::zeroed() }
   4:	f7ff fffe 	bl	0 <_ZN4core3mem6zeroed17h54d1c270f7c18682E>
   8:	9001      	str	r0, [sp, #4]
   a:	9801      	ldr	r0, [sp, #4]
   c:	9000      	str	r0, [sp, #0]
   e:	e7ff      	b.n	10 <_ZN84_$LT$mylib..mynewt..os..os_event__bindgen_ty_1$u20$as$u20$core..default..Default$GT$7default17h8fe16523975ac09bE+0x10>
/mnt/c/stm32bluepill-mynewt-sensor/src/mynewt/os.rs:303
    }
  10:	9800      	ldr	r0, [sp, #0]
  12:	b002      	add	sp, #8
  14:	bd80      	pop	{r7, pc}

Disassembly of section .text._ZN70_$LT$mylib..mynewt..os..os_event$u20$as$u20$core..default..Default$GT$7default17h66424e5eddc7b7f0E:

00000000 <_ZN70_$LT$mylib..mynewt..os..os_event$u20$as$u20$core..default..Default$GT$7default17h66424e5eddc7b7f0E>:
_ZN70_$LT$mylib..mynewt..os..os_event$u20$as$u20$core..default..Default$GT$7default17h66424e5eddc7b7f0E():
/mnt/c/stm32bluepill-mynewt-sensor/src/mynewt/os.rs:306
}
impl Default for os_event {
    fn default() -> Self {
   0:	b580      	push	{r7, lr}
   2:	b082      	sub	sp, #8
   4:	4601      	mov	r1, r0
/mnt/c/stm32bluepill-mynewt-sensor/src/mynewt/os.rs:307
        unsafe { ::core::mem::zeroed() }
   6:	9101      	str	r1, [sp, #4]
   8:	f7ff fffe 	bl	0 <_ZN4core3mem6zeroed17he26129cc1a6bd652E>
   c:	e7ff      	b.n	e <_ZN70_$LT$mylib..mynewt..os..os_event$u20$as$u20$core..default..Default$GT$7default17h66424e5eddc7b7f0E+0xe>
/mnt/c/stm32bluepill-mynewt-sensor/src/mynewt/os.rs:308
    }
   e:	b002      	add	sp, #8
  10:	bd80      	pop	{r7, pc}

Disassembly of section .text._ZN85_$LT$mylib..mynewt..os..os_eventq__bindgen_ty_1$u20$as$u20$core..default..Default$GT$7default17hba640a24853c0ec0E:

00000000 <_ZN85_$LT$mylib..mynewt..os..os_eventq__bindgen_ty_1$u20$as$u20$core..default..Default$GT$7default17hba640a24853c0ec0E>:
_ZN85_$LT$mylib..mynewt..os..os_eventq__bindgen_ty_1$u20$as$u20$core..default..Default$GT$7default17hba640a24853c0ec0E():
/mnt/c/stm32bluepill-mynewt-sensor/src/mynewt/os.rs:322
pub struct os_eventq__bindgen_ty_1 {
    pub stqh_first: *mut os_event,
    pub stqh_last: *mut *mut os_event,
}
impl Default for os_eventq__bindgen_ty_1 {
    fn default() -> Self {
   0:	b580      	push	{r7, lr}
   2:	b082      	sub	sp, #8
/mnt/c/stm32bluepill-mynewt-sensor/src/mynewt/os.rs:323
        unsafe { ::core::mem::zeroed() }
   4:	f7ff fffe 	bl	0 <_ZN4core3mem6zeroed17h1b7c9138926d7b9cE>
   8:	9001      	str	r0, [sp, #4]
   a:	9100      	str	r1, [sp, #0]
   c:	e7ff      	b.n	e <_ZN85_$LT$mylib..mynewt..os..os_eventq__bindgen_ty_1$u20$as$u20$core..default..Default$GT$7default17hba640a24853c0ec0E+0xe>
/mnt/c/stm32bluepill-mynewt-sensor/src/mynewt/os.rs:324
    }
   e:	9801      	ldr	r0, [sp, #4]
  10:	9900      	ldr	r1, [sp, #0]
  12:	b002      	add	sp, #8
  14:	bd80      	pop	{r7, pc}

Disassembly of section .text._ZN71_$LT$mylib..mynewt..os..os_eventq$u20$as$u20$core..default..Default$GT$7default17hf03d9e86dac90013E:

00000000 <_ZN71_$LT$mylib..mynewt..os..os_eventq$u20$as$u20$core..default..Default$GT$7default17hf03d9e86dac90013E>:
_ZN71_$LT$mylib..mynewt..os..os_eventq$u20$as$u20$core..default..Default$GT$7default17hf03d9e86dac90013E():
/mnt/c/stm32bluepill-mynewt-sensor/src/mynewt/os.rs:327
}
impl Default for os_eventq {
    fn default() -> Self {
   0:	b580      	push	{r7, lr}
   2:	b082      	sub	sp, #8
   4:	4601      	mov	r1, r0
/mnt/c/stm32bluepill-mynewt-sensor/src/mynewt/os.rs:328
        unsafe { ::core::mem::zeroed() }
   6:	9101      	str	r1, [sp, #4]
   8:	f7ff fffe 	bl	0 <_ZN4core3mem6zeroed17h38e1ce7c1e5873d8E>
   c:	e7ff      	b.n	e <_ZN71_$LT$mylib..mynewt..os..os_eventq$u20$as$u20$core..default..Default$GT$7default17hf03d9e86dac90013E+0xe>
/mnt/c/stm32bluepill-mynewt-sensor/src/mynewt/os.rs:329
    }
   e:	b002      	add	sp, #8
  10:	bd80      	pop	{r7, pc}

Disassembly of section .text._ZN86_$LT$mylib..mynewt..os..os_callout__bindgen_ty_1$u20$as$u20$core..default..Default$GT$7default17h30b8ab0fbb6e6127E:

00000000 <_ZN86_$LT$mylib..mynewt..os..os_callout__bindgen_ty_1$u20$as$u20$core..default..Default$GT$7default17h30b8ab0fbb6e6127E>:
_ZN86_$LT$mylib..mynewt..os..os_callout__bindgen_ty_1$u20$as$u20$core..default..Default$GT$7default17h30b8ab0fbb6e6127E():
/mnt/c/stm32bluepill-mynewt-sensor/src/mynewt/os.rs:382
pub struct os_callout__bindgen_ty_1 {
    pub tqe_next: *mut os_callout,
    pub tqe_prev: *mut *mut os_callout,
}
impl Default for os_callout__bindgen_ty_1 {
    fn default() -> Self {
   0:	b580      	push	{r7, lr}
   2:	b082      	sub	sp, #8
/mnt/c/stm32bluepill-mynewt-sensor/src/mynewt/os.rs:383
        unsafe { ::core::mem::zeroed() }
   4:	f7ff fffe 	bl	0 <_ZN4core3mem6zeroed17h5fca9c1a1095d517E>
   8:	9001      	str	r0, [sp, #4]
   a:	9100      	str	r1, [sp, #0]
   c:	e7ff      	b.n	e <_ZN86_$LT$mylib..mynewt..os..os_callout__bindgen_ty_1$u20$as$u20$core..default..Default$GT$7default17h30b8ab0fbb6e6127E+0xe>
/mnt/c/stm32bluepill-mynewt-sensor/src/mynewt/os.rs:384
    }
   e:	9801      	ldr	r0, [sp, #4]
  10:	9900      	ldr	r1, [sp, #0]
  12:	b002      	add	sp, #8
  14:	bd80      	pop	{r7, pc}

Disassembly of section .text._ZN72_$LT$mylib..mynewt..os..os_callout$u20$as$u20$core..default..Default$GT$7default17h198d22e0efdbfbadE:

00000000 <_ZN72_$LT$mylib..mynewt..os..os_callout$u20$as$u20$core..default..Default$GT$7default17h198d22e0efdbfbadE>:
_ZN72_$LT$mylib..mynewt..os..os_callout$u20$as$u20$core..default..Default$GT$7default17h198d22e0efdbfbadE():
/mnt/c/stm32bluepill-mynewt-sensor/src/mynewt/os.rs:387
}
impl Default for os_callout {
    fn default() -> Self {
   0:	b580      	push	{r7, lr}
   2:	b082      	sub	sp, #8
   4:	4601      	mov	r1, r0
/mnt/c/stm32bluepill-mynewt-sensor/src/mynewt/os.rs:388
        unsafe { ::core::mem::zeroed() }
   6:	9101      	str	r1, [sp, #4]
   8:	f7ff fffe 	bl	0 <_ZN4core3mem6zeroed17hfd350443cca8fc90E>
   c:	e7ff      	b.n	e <_ZN72_$LT$mylib..mynewt..os..os_callout$u20$as$u20$core..default..Default$GT$7default17h198d22e0efdbfbadE+0xe>
/mnt/c/stm32bluepill-mynewt-sensor/src/mynewt/os.rs:389
    }
   e:	b002      	add	sp, #8
  10:	bd80      	pop	{r7, pc}

Disassembly of section .text._ZN77_$LT$mylib..mynewt..os..os_callout_list$u20$as$u20$core..default..Default$GT$7default17hafa2589540bc989cE:

00000000 <_ZN77_$LT$mylib..mynewt..os..os_callout_list$u20$as$u20$core..default..Default$GT$7default17hafa2589540bc989cE>:
_ZN77_$LT$mylib..mynewt..os..os_callout_list$u20$as$u20$core..default..Default$GT$7default17hafa2589540bc989cE():
/mnt/c/stm32bluepill-mynewt-sensor/src/mynewt/os.rs:397
pub struct os_callout_list {
    pub tqh_first: *mut os_callout,
    pub tqh_last: *mut *mut os_callout,
}
impl Default for os_callout_list {
    fn default() -> Self {
   0:	b580      	push	{r7, lr}
   2:	b082      	sub	sp, #8
/mnt/c/stm32bluepill-mynewt-sensor/src/mynewt/os.rs:398
        unsafe { ::core::mem::zeroed() }
   4:	f7ff fffe 	bl	0 <_ZN4core3mem6zeroed17h82caf1239ac4833bE>
   8:	9001      	str	r0, [sp, #4]
   a:	9100      	str	r1, [sp, #0]
   c:	e7ff      	b.n	e <_ZN77_$LT$mylib..mynewt..os..os_callout_list$u20$as$u20$core..default..Default$GT$7default17hafa2589540bc989cE+0xe>
/mnt/c/stm32bluepill-mynewt-sensor/src/mynewt/os.rs:399
    }
   e:	9801      	ldr	r0, [sp, #4]
  10:	9900      	ldr	r1, [sp, #0]
  12:	b002      	add	sp, #8
  14:	bd80      	pop	{r7, pc}

Disassembly of section .text._ZN85_$LT$mylib..mynewt..os..hal_timer__bindgen_ty_1$u20$as$u20$core..default..Default$GT$7default17h407795a53c69308eE:

00000000 <_ZN85_$LT$mylib..mynewt..os..hal_timer__bindgen_ty_1$u20$as$u20$core..default..Default$GT$7default17h407795a53c69308eE>:
_ZN85_$LT$mylib..mynewt..os..hal_timer__bindgen_ty_1$u20$as$u20$core..default..Default$GT$7default17h407795a53c69308eE():
/mnt/c/stm32bluepill-mynewt-sensor/src/mynewt/os.rs:439
pub struct hal_timer__bindgen_ty_1 {
    pub tqe_next: *mut hal_timer,
    pub tqe_prev: *mut *mut hal_timer,
}
impl Default for hal_timer__bindgen_ty_1 {
    fn default() -> Self {
   0:	b580      	push	{r7, lr}
   2:	b082      	sub	sp, #8
/mnt/c/stm32bluepill-mynewt-sensor/src/mynewt/os.rs:440
        unsafe { ::core::mem::zeroed() }
   4:	f7ff fffe 	bl	0 <_ZN4core3mem6zeroed17ha42de8d78d848b40E>
   8:	9001      	str	r0, [sp, #4]
   a:	9100      	str	r1, [sp, #0]
   c:	e7ff      	b.n	e <_ZN85_$LT$mylib..mynewt..os..hal_timer__bindgen_ty_1$u20$as$u20$core..default..Default$GT$7default17h407795a53c69308eE+0xe>
/mnt/c/stm32bluepill-mynewt-sensor/src/mynewt/os.rs:441
    }
   e:	9801      	ldr	r0, [sp, #4]
  10:	9900      	ldr	r1, [sp, #0]
  12:	b002      	add	sp, #8
  14:	bd80      	pop	{r7, pc}

Disassembly of section .text._ZN71_$LT$mylib..mynewt..os..hal_timer$u20$as$u20$core..default..Default$GT$7default17h2acf0a66fe6c7029E:

00000000 <_ZN71_$LT$mylib..mynewt..os..hal_timer$u20$as$u20$core..default..Default$GT$7default17h2acf0a66fe6c7029E>:
_ZN71_$LT$mylib..mynewt..os..hal_timer$u20$as$u20$core..default..Default$GT$7default17h2acf0a66fe6c7029E():
/mnt/c/stm32bluepill-mynewt-sensor/src/mynewt/os.rs:444
}
impl Default for hal_timer {
    fn default() -> Self {
   0:	b580      	push	{r7, lr}
   2:	b082      	sub	sp, #8
   4:	4601      	mov	r1, r0
/mnt/c/stm32bluepill-mynewt-sensor/src/mynewt/os.rs:445
        unsafe { ::core::mem::zeroed() }
   6:	9101      	str	r1, [sp, #4]
   8:	f7ff fffe 	bl	0 <_ZN4core3mem6zeroed17h3319ebf41e5ebcd3E>
   c:	e7ff      	b.n	e <_ZN71_$LT$mylib..mynewt..os..hal_timer$u20$as$u20$core..default..Default$GT$7default17h2acf0a66fe6c7029E+0xe>
/mnt/c/stm32bluepill-mynewt-sensor/src/mynewt/os.rs:446
    }
   e:	b002      	add	sp, #8
  10:	bd80      	pop	{r7, pc}

Disassembly of section .text._ZN82_$LT$mylib..mynewt..os..os_dev__bindgen_ty_1$u20$as$u20$core..default..Default$GT$7default17he0833dd4e18431c4E:

00000000 <_ZN82_$LT$mylib..mynewt..os..os_dev__bindgen_ty_1$u20$as$u20$core..default..Default$GT$7default17he0833dd4e18431c4E>:
_ZN82_$LT$mylib..mynewt..os..os_dev__bindgen_ty_1$u20$as$u20$core..default..Default$GT$7default17he0833dd4e18431c4E():
/mnt/c/stm32bluepill-mynewt-sensor/src/mynewt/os.rs:519
#[repr(C)]
pub struct os_dev__bindgen_ty_1 {
    pub stqe_next: *mut os_dev,
}
impl Default for os_dev__bindgen_ty_1 {
    fn default() -> Self {
   0:	b580      	push	{r7, lr}
   2:	b082      	sub	sp, #8
/mnt/c/stm32bluepill-mynewt-sensor/src/mynewt/os.rs:520
        unsafe { ::core::mem::zeroed() }
   4:	f7ff fffe 	bl	0 <_ZN4core3mem6zeroed17h9aa2c627ba372f2fE>
   8:	9001      	str	r0, [sp, #4]
   a:	9801      	ldr	r0, [sp, #4]
   c:	9000      	str	r0, [sp, #0]
   e:	e7ff      	b.n	10 <_ZN82_$LT$mylib..mynewt..os..os_dev__bindgen_ty_1$u20$as$u20$core..default..Default$GT$7default17he0833dd4e18431c4E+0x10>
/mnt/c/stm32bluepill-mynewt-sensor/src/mynewt/os.rs:521
    }
  10:	9800      	ldr	r0, [sp, #0]
  12:	b002      	add	sp, #8
  14:	bd80      	pop	{r7, pc}

Disassembly of section .text._ZN68_$LT$mylib..mynewt..os..os_dev$u20$as$u20$core..default..Default$GT$7default17h1412b1c8db1a0b8bE:

00000000 <_ZN68_$LT$mylib..mynewt..os..os_dev$u20$as$u20$core..default..Default$GT$7default17h1412b1c8db1a0b8bE>:
_ZN68_$LT$mylib..mynewt..os..os_dev$u20$as$u20$core..default..Default$GT$7default17h1412b1c8db1a0b8bE():
/mnt/c/stm32bluepill-mynewt-sensor/src/mynewt/os.rs:524
}
impl Default for os_dev {
    fn default() -> Self {
   0:	b580      	push	{r7, lr}
   2:	b082      	sub	sp, #8
   4:	4601      	mov	r1, r0
/mnt/c/stm32bluepill-mynewt-sensor/src/mynewt/os.rs:525
        unsafe { ::core::mem::zeroed() }
   6:	9101      	str	r1, [sp, #4]
   8:	f7ff fffe 	bl	0 <_ZN4core3mem6zeroed17h6c16a59c940a3294E>
   c:	e7ff      	b.n	e <_ZN68_$LT$mylib..mynewt..os..os_dev$u20$as$u20$core..default..Default$GT$7default17h1412b1c8db1a0b8bE+0xe>
/mnt/c/stm32bluepill-mynewt-sensor/src/mynewt/os.rs:526
    }
   e:	b002      	add	sp, #8
  10:	bd80      	pop	{r7, pc}

Disassembly of section .text._ZN88_$LT$mylib..mynewt..os..os_mbuf_pool__bindgen_ty_1$u20$as$u20$core..default..Default$GT$7default17h95cd085344296abdE:

00000000 <_ZN88_$LT$mylib..mynewt..os..os_mbuf_pool__bindgen_ty_1$u20$as$u20$core..default..Default$GT$7default17h95cd085344296abdE>:
_ZN88_$LT$mylib..mynewt..os..os_mbuf_pool__bindgen_ty_1$u20$as$u20$core..default..Default$GT$7default17h95cd085344296abdE():
/mnt/c/stm32bluepill-mynewt-sensor/src/mynewt/os.rs:597
#[repr(C)]
pub struct os_mbuf_pool__bindgen_ty_1 {
    pub stqe_next: *mut os_mbuf_pool,
}
impl Default for os_mbuf_pool__bindgen_ty_1 {
    fn default() -> Self {
   0:	b580      	push	{r7, lr}
   2:	b082      	sub	sp, #8
/mnt/c/stm32bluepill-mynewt-sensor/src/mynewt/os.rs:598
        unsafe { ::core::mem::zeroed() }
   4:	f7ff fffe 	bl	0 <_ZN4core3mem6zeroed17h80594db7b20bcd9dE>
   8:	9001      	str	r0, [sp, #4]
   a:	9801      	ldr	r0, [sp, #4]
   c:	9000      	str	r0, [sp, #0]
   e:	e7ff      	b.n	10 <_ZN88_$LT$mylib..mynewt..os..os_mbuf_pool__bindgen_ty_1$u20$as$u20$core..default..Default$GT$7default17h95cd085344296abdE+0x10>
/mnt/c/stm32bluepill-mynewt-sensor/src/mynewt/os.rs:599
    }
  10:	9800      	ldr	r0, [sp, #0]
  12:	b002      	add	sp, #8
  14:	bd80      	pop	{r7, pc}

Disassembly of section .text._ZN74_$LT$mylib..mynewt..os..os_mbuf_pool$u20$as$u20$core..default..Default$GT$7default17h077f7a3159631585E:

00000000 <_ZN74_$LT$mylib..mynewt..os..os_mbuf_pool$u20$as$u20$core..default..Default$GT$7default17h077f7a3159631585E>:
_ZN74_$LT$mylib..mynewt..os..os_mbuf_pool$u20$as$u20$core..default..Default$GT$7default17h077f7a3159631585E():
/mnt/c/stm32bluepill-mynewt-sensor/src/mynewt/os.rs:602
}
impl Default for os_mbuf_pool {
    fn default() -> Self {
   0:	b580      	push	{r7, lr}
   2:	b082      	sub	sp, #8
   4:	4601      	mov	r1, r0
/mnt/c/stm32bluepill-mynewt-sensor/src/mynewt/os.rs:603
        unsafe { ::core::mem::zeroed() }
   6:	9101      	str	r1, [sp, #4]
   8:	f7ff fffe 	bl	0 <_ZN4core3mem6zeroed17h70df674b60665696E>
   c:	e7ff      	b.n	e <_ZN74_$LT$mylib..mynewt..os..os_mbuf_pool$u20$as$u20$core..default..Default$GT$7default17h077f7a3159631585E+0xe>
/mnt/c/stm32bluepill-mynewt-sensor/src/mynewt/os.rs:604
    }
   e:	b002      	add	sp, #8
  10:	bd80      	pop	{r7, pc}

Disassembly of section .text._ZN90_$LT$mylib..mynewt..os..os_mbuf_pkthdr__bindgen_ty_1$u20$as$u20$core..default..Default$GT$7default17h047ef58c499eb403E:

00000000 <_ZN90_$LT$mylib..mynewt..os..os_mbuf_pkthdr__bindgen_ty_1$u20$as$u20$core..default..Default$GT$7default17h047ef58c499eb403E>:
_ZN90_$LT$mylib..mynewt..os..os_mbuf_pkthdr__bindgen_ty_1$u20$as$u20$core..default..Default$GT$7default17h047ef58c499eb403E():
/mnt/c/stm32bluepill-mynewt-sensor/src/mynewt/os.rs:617
#[repr(C)]
pub struct os_mbuf_pkthdr__bindgen_ty_1 {
    pub stqe_next: *mut os_mbuf_pkthdr,
}
impl Default for os_mbuf_pkthdr__bindgen_ty_1 {
    fn default() -> Self {
   0:	b580      	push	{r7, lr}
   2:	b082      	sub	sp, #8
/mnt/c/stm32bluepill-mynewt-sensor/src/mynewt/os.rs:618
        unsafe { ::core::mem::zeroed() }
   4:	f7ff fffe 	bl	0 <_ZN4core3mem6zeroed17hfcb0e8ea495ca665E>
   8:	9001      	str	r0, [sp, #4]
   a:	9801      	ldr	r0, [sp, #4]
   c:	9000      	str	r0, [sp, #0]
   e:	e7ff      	b.n	10 <_ZN90_$LT$mylib..mynewt..os..os_mbuf_pkthdr__bindgen_ty_1$u20$as$u20$core..default..Default$GT$7default17h047ef58c499eb403E+0x10>
/mnt/c/stm32bluepill-mynewt-sensor/src/mynewt/os.rs:619
    }
  10:	9800      	ldr	r0, [sp, #0]
  12:	b002      	add	sp, #8
  14:	bd80      	pop	{r7, pc}

Disassembly of section .text._ZN76_$LT$mylib..mynewt..os..os_mbuf_pkthdr$u20$as$u20$core..default..Default$GT$7default17hb9420dbe855ce86fE:

00000000 <_ZN76_$LT$mylib..mynewt..os..os_mbuf_pkthdr$u20$as$u20$core..default..Default$GT$7default17hb9420dbe855ce86fE>:
_ZN76_$LT$mylib..mynewt..os..os_mbuf_pkthdr$u20$as$u20$core..default..Default$GT$7default17hb9420dbe855ce86fE():
/mnt/c/stm32bluepill-mynewt-sensor/src/mynewt/os.rs:622
}
impl Default for os_mbuf_pkthdr {
    fn default() -> Self {
   0:	b580      	push	{r7, lr}
   2:	b082      	sub	sp, #8
   4:	4601      	mov	r1, r0
/mnt/c/stm32bluepill-mynewt-sensor/src/mynewt/os.rs:623
        unsafe { ::core::mem::zeroed() }
   6:	9101      	str	r1, [sp, #4]
   8:	f7ff fffe 	bl	0 <_ZN4core3mem6zeroed17h9ad70ac399f4322bE>
   c:	e7ff      	b.n	e <_ZN76_$LT$mylib..mynewt..os..os_mbuf_pkthdr$u20$as$u20$core..default..Default$GT$7default17hb9420dbe855ce86fE+0xe>
/mnt/c/stm32bluepill-mynewt-sensor/src/mynewt/os.rs:624
    }
   e:	b002      	add	sp, #8
  10:	bd80      	pop	{r7, pc}

Disassembly of section .text._ZN83_$LT$mylib..mynewt..os..os_mbuf__bindgen_ty_1$u20$as$u20$core..default..Default$GT$7default17h893a8f1d01795f47E:

00000000 <_ZN83_$LT$mylib..mynewt..os..os_mbuf__bindgen_ty_1$u20$as$u20$core..default..Default$GT$7default17h893a8f1d01795f47E>:
_ZN83_$LT$mylib..mynewt..os..os_mbuf__bindgen_ty_1$u20$as$u20$core..default..Default$GT$7default17h893a8f1d01795f47E():
/mnt/c/stm32bluepill-mynewt-sensor/src/mynewt/os.rs:641
#[repr(C)]
pub struct os_mbuf__bindgen_ty_1 {
    pub sle_next: *mut os_mbuf,
}
impl Default for os_mbuf__bindgen_ty_1 {
    fn default() -> Self {
   0:	b580      	push	{r7, lr}
   2:	b082      	sub	sp, #8
/mnt/c/stm32bluepill-mynewt-sensor/src/mynewt/os.rs:642
        unsafe { ::core::mem::zeroed() }
   4:	f7ff fffe 	bl	0 <_ZN4core3mem6zeroed17h98e0c4c0deb7c86bE>
   8:	9001      	str	r0, [sp, #4]
   a:	9801      	ldr	r0, [sp, #4]
   c:	9000      	str	r0, [sp, #0]
   e:	e7ff      	b.n	10 <_ZN83_$LT$mylib..mynewt..os..os_mbuf__bindgen_ty_1$u20$as$u20$core..default..Default$GT$7default17h893a8f1d01795f47E+0x10>
/mnt/c/stm32bluepill-mynewt-sensor/src/mynewt/os.rs:643
    }
  10:	9800      	ldr	r0, [sp, #0]
  12:	b002      	add	sp, #8
  14:	bd80      	pop	{r7, pc}

Disassembly of section .text._ZN69_$LT$mylib..mynewt..os..os_mbuf$u20$as$u20$core..default..Default$GT$7default17h611852fc16586423E:

00000000 <_ZN69_$LT$mylib..mynewt..os..os_mbuf$u20$as$u20$core..default..Default$GT$7default17h611852fc16586423E>:
_ZN69_$LT$mylib..mynewt..os..os_mbuf$u20$as$u20$core..default..Default$GT$7default17h611852fc16586423E():
/mnt/c/stm32bluepill-mynewt-sensor/src/mynewt/os.rs:646
}
impl Default for os_mbuf {
    fn default() -> Self {
   0:	b580      	push	{r7, lr}
   2:	b082      	sub	sp, #8
   4:	4601      	mov	r1, r0
/mnt/c/stm32bluepill-mynewt-sensor/src/mynewt/os.rs:647
        unsafe { ::core::mem::zeroed() }
   6:	9101      	str	r1, [sp, #4]
   8:	f7ff fffe 	bl	0 <_ZN4core3mem6zeroed17ha188dc5e0bd4fd78E>
   c:	e7ff      	b.n	e <_ZN69_$LT$mylib..mynewt..os..os_mbuf$u20$as$u20$core..default..Default$GT$7default17h611852fc16586423E+0xe>
/mnt/c/stm32bluepill-mynewt-sensor/src/mynewt/os.rs:648
    }
   e:	b002      	add	sp, #8
  10:	bd80      	pop	{r7, pc}

Disassembly of section .text._ZN85_$LT$mylib..mynewt..os..os_mqueue__bindgen_ty_1$u20$as$u20$core..default..Default$GT$7default17h17ce14023712f6faE:

00000000 <_ZN85_$LT$mylib..mynewt..os..os_mqueue__bindgen_ty_1$u20$as$u20$core..default..Default$GT$7default17h17ce14023712f6faE>:
_ZN85_$LT$mylib..mynewt..os..os_mqueue__bindgen_ty_1$u20$as$u20$core..default..Default$GT$7default17h17ce14023712f6faE():
/mnt/c/stm32bluepill-mynewt-sensor/src/mynewt/os.rs:661
pub struct os_mqueue__bindgen_ty_1 {
    pub stqh_first: *mut os_mbuf_pkthdr,
    pub stqh_last: *mut *mut os_mbuf_pkthdr,
}
impl Default for os_mqueue__bindgen_ty_1 {
    fn default() -> Self {
   0:	b580      	push	{r7, lr}
   2:	b082      	sub	sp, #8
/mnt/c/stm32bluepill-mynewt-sensor/src/mynewt/os.rs:662
        unsafe { ::core::mem::zeroed() }
   4:	f7ff fffe 	bl	0 <_ZN4core3mem6zeroed17h4cab47ee70a5f420E>
   8:	9001      	str	r0, [sp, #4]
   a:	9100      	str	r1, [sp, #0]
   c:	e7ff      	b.n	e <_ZN85_$LT$mylib..mynewt..os..os_mqueue__bindgen_ty_1$u20$as$u20$core..default..Default$GT$7default17h17ce14023712f6faE+0xe>
/mnt/c/stm32bluepill-mynewt-sensor/src/mynewt/os.rs:663
    }
   e:	9801      	ldr	r0, [sp, #4]
  10:	9900      	ldr	r1, [sp, #0]
  12:	b002      	add	sp, #8
  14:	bd80      	pop	{r7, pc}

Disassembly of section .text._ZN71_$LT$mylib..mynewt..os..os_mqueue$u20$as$u20$core..default..Default$GT$7default17h69ed1b99e5663808E:

00000000 <_ZN71_$LT$mylib..mynewt..os..os_mqueue$u20$as$u20$core..default..Default$GT$7default17h69ed1b99e5663808E>:
_ZN71_$LT$mylib..mynewt..os..os_mqueue$u20$as$u20$core..default..Default$GT$7default17h69ed1b99e5663808E():
/mnt/c/stm32bluepill-mynewt-sensor/src/mynewt/os.rs:666
}
impl Default for os_mqueue {
    fn default() -> Self {
   0:	b580      	push	{r7, lr}
   2:	b082      	sub	sp, #8
   4:	4601      	mov	r1, r0
/mnt/c/stm32bluepill-mynewt-sensor/src/mynewt/os.rs:667
        unsafe { ::core::mem::zeroed() }
   6:	9101      	str	r1, [sp, #4]
   8:	f7ff fffe 	bl	0 <_ZN4core3mem6zeroed17h64b6ac68acfa6d7aE>
   c:	e7ff      	b.n	e <_ZN71_$LT$mylib..mynewt..os..os_mqueue$u20$as$u20$core..default..Default$GT$7default17h69ed1b99e5663808E+0xe>
/mnt/c/stm32bluepill-mynewt-sensor/src/mynewt/os.rs:668
    }
   e:	b002      	add	sp, #8
  10:	bd80      	pop	{r7, pc}

Disassembly of section .text._ZN87_$LT$mylib..mynewt..os..os_memblock__bindgen_ty_1$u20$as$u20$core..default..Default$GT$7default17h55003f9bbb37063fE:

00000000 <_ZN87_$LT$mylib..mynewt..os..os_memblock__bindgen_ty_1$u20$as$u20$core..default..Default$GT$7default17h55003f9bbb37063fE>:
_ZN87_$LT$mylib..mynewt..os..os_memblock__bindgen_ty_1$u20$as$u20$core..default..Default$GT$7default17h55003f9bbb37063fE():
/mnt/c/stm32bluepill-mynewt-sensor/src/mynewt/os.rs:811
#[repr(C)]
pub struct os_memblock__bindgen_ty_1 {
    pub sle_next: *mut os_memblock,
}
impl Default for os_memblock__bindgen_ty_1 {
    fn default() -> Self {
   0:	b580      	push	{r7, lr}
   2:	b082      	sub	sp, #8
/mnt/c/stm32bluepill-mynewt-sensor/src/mynewt/os.rs:812
        unsafe { ::core::mem::zeroed() }
   4:	f7ff fffe 	bl	0 <_ZN4core3mem6zeroed17ha8a888d7a5d79574E>
   8:	9001      	str	r0, [sp, #4]
   a:	9801      	ldr	r0, [sp, #4]
   c:	9000      	str	r0, [sp, #0]
   e:	e7ff      	b.n	10 <_ZN87_$LT$mylib..mynewt..os..os_memblock__bindgen_ty_1$u20$as$u20$core..default..Default$GT$7default17h55003f9bbb37063fE+0x10>
/mnt/c/stm32bluepill-mynewt-sensor/src/mynewt/os.rs:813
    }
  10:	9800      	ldr	r0, [sp, #0]
  12:	b002      	add	sp, #8
  14:	bd80      	pop	{r7, pc}

Disassembly of section .text._ZN73_$LT$mylib..mynewt..os..os_memblock$u20$as$u20$core..default..Default$GT$7default17h273217c970aea815E:

00000000 <_ZN73_$LT$mylib..mynewt..os..os_memblock$u20$as$u20$core..default..Default$GT$7default17h273217c970aea815E>:
_ZN73_$LT$mylib..mynewt..os..os_memblock$u20$as$u20$core..default..Default$GT$7default17h273217c970aea815E():
/mnt/c/stm32bluepill-mynewt-sensor/src/mynewt/os.rs:816
}
impl Default for os_memblock {
    fn default() -> Self {
   0:	b580      	push	{r7, lr}
   2:	b082      	sub	sp, #8
/mnt/c/stm32bluepill-mynewt-sensor/src/mynewt/os.rs:817
        unsafe { ::core::mem::zeroed() }
   4:	f7ff fffe 	bl	0 <_ZN4core3mem6zeroed17h2c7747257aa272c7E>
   8:	9001      	str	r0, [sp, #4]
   a:	9801      	ldr	r0, [sp, #4]
   c:	9000      	str	r0, [sp, #0]
   e:	e7ff      	b.n	10 <_ZN73_$LT$mylib..mynewt..os..os_memblock$u20$as$u20$core..default..Default$GT$7default17h273217c970aea815E+0x10>
/mnt/c/stm32bluepill-mynewt-sensor/src/mynewt/os.rs:818
    }
  10:	9800      	ldr	r0, [sp, #0]
  12:	b002      	add	sp, #8
  14:	bd80      	pop	{r7, pc}

Disassembly of section .text._ZN86_$LT$mylib..mynewt..os..os_mempool__bindgen_ty_1$u20$as$u20$core..default..Default$GT$7default17h3aa73c7cd0fc6a3bE:

00000000 <_ZN86_$LT$mylib..mynewt..os..os_mempool__bindgen_ty_1$u20$as$u20$core..default..Default$GT$7default17h3aa73c7cd0fc6a3bE>:
_ZN86_$LT$mylib..mynewt..os..os_mempool__bindgen_ty_1$u20$as$u20$core..default..Default$GT$7default17h3aa73c7cd0fc6a3bE():
/mnt/c/stm32bluepill-mynewt-sensor/src/mynewt/os.rs:837
#[repr(C)]
pub struct os_mempool__bindgen_ty_1 {
    pub stqe_next: *mut os_mempool,
}
impl Default for os_mempool__bindgen_ty_1 {
    fn default() -> Self {
   0:	b580      	push	{r7, lr}
   2:	b082      	sub	sp, #8
/mnt/c/stm32bluepill-mynewt-sensor/src/mynewt/os.rs:838
        unsafe { ::core::mem::zeroed() }
   4:	f7ff fffe 	bl	0 <_ZN4core3mem6zeroed17hded35ad507f971e3E>
   8:	9001      	str	r0, [sp, #4]
   a:	9801      	ldr	r0, [sp, #4]
   c:	9000      	str	r0, [sp, #0]
   e:	e7ff      	b.n	10 <_ZN86_$LT$mylib..mynewt..os..os_mempool__bindgen_ty_1$u20$as$u20$core..default..Default$GT$7default17h3aa73c7cd0fc6a3bE+0x10>
/mnt/c/stm32bluepill-mynewt-sensor/src/mynewt/os.rs:839
    }
  10:	9800      	ldr	r0, [sp, #0]
  12:	b002      	add	sp, #8
  14:	bd80      	pop	{r7, pc}

Disassembly of section .text._ZN86_$LT$mylib..mynewt..os..os_mempool__bindgen_ty_2$u20$as$u20$core..default..Default$GT$7default17h70e08da27e8745cfE:

00000000 <_ZN86_$LT$mylib..mynewt..os..os_mempool__bindgen_ty_2$u20$as$u20$core..default..Default$GT$7default17h70e08da27e8745cfE>:
_ZN86_$LT$mylib..mynewt..os..os_mempool__bindgen_ty_2$u20$as$u20$core..default..Default$GT$7default17h70e08da27e8745cfE():
/mnt/c/stm32bluepill-mynewt-sensor/src/mynewt/os.rs:846
#[repr(C)]
pub struct os_mempool__bindgen_ty_2 {
    pub slh_first: *mut os_memblock,
}
impl Default for os_mempool__bindgen_ty_2 {
    fn default() -> Self {
   0:	b580      	push	{r7, lr}
   2:	b082      	sub	sp, #8
/mnt/c/stm32bluepill-mynewt-sensor/src/mynewt/os.rs:847
        unsafe { ::core::mem::zeroed() }
   4:	f7ff fffe 	bl	0 <_ZN4core3mem6zeroed17hb09e7ec69bda6ad0E>
   8:	9001      	str	r0, [sp, #4]
   a:	9801      	ldr	r0, [sp, #4]
   c:	9000      	str	r0, [sp, #0]
   e:	e7ff      	b.n	10 <_ZN86_$LT$mylib..mynewt..os..os_mempool__bindgen_ty_2$u20$as$u20$core..default..Default$GT$7default17h70e08da27e8745cfE+0x10>
/mnt/c/stm32bluepill-mynewt-sensor/src/mynewt/os.rs:848
    }
  10:	9800      	ldr	r0, [sp, #0]
  12:	b002      	add	sp, #8
  14:	bd80      	pop	{r7, pc}

Disassembly of section .text._ZN72_$LT$mylib..mynewt..os..os_mempool$u20$as$u20$core..default..Default$GT$7default17hbadc4ad5691bc104E:

00000000 <_ZN72_$LT$mylib..mynewt..os..os_mempool$u20$as$u20$core..default..Default$GT$7default17hbadc4ad5691bc104E>:
_ZN72_$LT$mylib..mynewt..os..os_mempool$u20$as$u20$core..default..Default$GT$7default17hbadc4ad5691bc104E():
/mnt/c/stm32bluepill-mynewt-sensor/src/mynewt/os.rs:851
}
impl Default for os_mempool {
    fn default() -> Self {
   0:	b580      	push	{r7, lr}
   2:	b082      	sub	sp, #8
   4:	4601      	mov	r1, r0
/mnt/c/stm32bluepill-mynewt-sensor/src/mynewt/os.rs:852
        unsafe { ::core::mem::zeroed() }
   6:	9101      	str	r1, [sp, #4]
   8:	f7ff fffe 	bl	0 <_ZN4core3mem6zeroed17h88fd50400cb1a996E>
   c:	e7ff      	b.n	e <_ZN72_$LT$mylib..mynewt..os..os_mempool$u20$as$u20$core..default..Default$GT$7default17hbadc4ad5691bc104E+0xe>
/mnt/c/stm32bluepill-mynewt-sensor/src/mynewt/os.rs:853
    }
   e:	b002      	add	sp, #8
  10:	bd80      	pop	{r7, pc}

Disassembly of section .text._ZN76_$LT$mylib..mynewt..os..os_mempool_ext$u20$as$u20$core..default..Default$GT$7default17hff4894421a7ccd81E:

00000000 <_ZN76_$LT$mylib..mynewt..os..os_mempool_ext$u20$as$u20$core..default..Default$GT$7default17hff4894421a7ccd81E>:
_ZN76_$LT$mylib..mynewt..os..os_mempool_ext$u20$as$u20$core..default..Default$GT$7default17hff4894421a7ccd81E():
/mnt/c/stm32bluepill-mynewt-sensor/src/mynewt/os.rs:869
    pub mpe_mp: os_mempool,
    pub mpe_put_cb: os_mempool_put_fn,
    pub mpe_put_arg: *mut ::cty::c_void,
}
impl Default for os_mempool_ext {
    fn default() -> Self {
   0:	b580      	push	{r7, lr}
   2:	b082      	sub	sp, #8
   4:	4601      	mov	r1, r0
/mnt/c/stm32bluepill-mynewt-sensor/src/mynewt/os.rs:870
        unsafe { ::core::mem::zeroed() }
   6:	9101      	str	r1, [sp, #4]
   8:	f7ff fffe 	bl	0 <_ZN4core3mem6zeroed17h92eefd0ad2717dd3E>
   c:	e7ff      	b.n	e <_ZN76_$LT$mylib..mynewt..os..os_mempool_ext$u20$as$u20$core..default..Default$GT$7default17hff4894421a7ccd81E+0xe>
/mnt/c/stm32bluepill-mynewt-sensor/src/mynewt/os.rs:871
    }
   e:	b002      	add	sp, #8
  10:	bd80      	pop	{r7, pc}

Disassembly of section .text._ZN84_$LT$mylib..mynewt..os..os_mutex__bindgen_ty_1$u20$as$u20$core..default..Default$GT$7default17hc8f39c37b6ffe101E:

00000000 <_ZN84_$LT$mylib..mynewt..os..os_mutex__bindgen_ty_1$u20$as$u20$core..default..Default$GT$7default17hc8f39c37b6ffe101E>:
_ZN84_$LT$mylib..mynewt..os..os_mutex__bindgen_ty_1$u20$as$u20$core..default..Default$GT$7default17hc8f39c37b6ffe101E():
/mnt/c/stm32bluepill-mynewt-sensor/src/mynewt/os.rs:947
#[repr(C)]
pub struct os_mutex__bindgen_ty_1 {
    pub slh_first: *mut os_task,
}
impl Default for os_mutex__bindgen_ty_1 {
    fn default() -> Self {
   0:	b580      	push	{r7, lr}
   2:	b082      	sub	sp, #8
/mnt/c/stm32bluepill-mynewt-sensor/src/mynewt/os.rs:948
        unsafe { ::core::mem::zeroed() }
   4:	f7ff fffe 	bl	0 <_ZN4core3mem6zeroed17h4a90a962f223a34bE>
   8:	9001      	str	r0, [sp, #4]
   a:	9801      	ldr	r0, [sp, #4]
   c:	9000      	str	r0, [sp, #0]
   e:	e7ff      	b.n	10 <_ZN84_$LT$mylib..mynewt..os..os_mutex__bindgen_ty_1$u20$as$u20$core..default..Default$GT$7default17hc8f39c37b6ffe101E+0x10>
/mnt/c/stm32bluepill-mynewt-sensor/src/mynewt/os.rs:949
    }
  10:	9800      	ldr	r0, [sp, #0]
  12:	b002      	add	sp, #8
  14:	bd80      	pop	{r7, pc}

Disassembly of section .text._ZN70_$LT$mylib..mynewt..os..os_mutex$u20$as$u20$core..default..Default$GT$7default17haea3c694df4e36eeE:

00000000 <_ZN70_$LT$mylib..mynewt..os..os_mutex$u20$as$u20$core..default..Default$GT$7default17haea3c694df4e36eeE>:
_ZN70_$LT$mylib..mynewt..os..os_mutex$u20$as$u20$core..default..Default$GT$7default17haea3c694df4e36eeE():
/mnt/c/stm32bluepill-mynewt-sensor/src/mynewt/os.rs:952
}
impl Default for os_mutex {
    fn default() -> Self {
   0:	b580      	push	{r7, lr}
   2:	b082      	sub	sp, #8
   4:	4601      	mov	r1, r0
/mnt/c/stm32bluepill-mynewt-sensor/src/mynewt/os.rs:953
        unsafe { ::core::mem::zeroed() }
   6:	9101      	str	r1, [sp, #4]
   8:	f7ff fffe 	bl	0 <_ZN4core3mem6zeroed17h6fd0826c5284d1e7E>
   c:	e7ff      	b.n	e <_ZN70_$LT$mylib..mynewt..os..os_mutex$u20$as$u20$core..default..Default$GT$7default17haea3c694df4e36eeE+0xe>
/mnt/c/stm32bluepill-mynewt-sensor/src/mynewt/os.rs:954
    }
   e:	b002      	add	sp, #8
  10:	bd80      	pop	{r7, pc}

Disassembly of section .text._ZN91_$LT$mylib..mynewt..os..os_sanity_check__bindgen_ty_1$u20$as$u20$core..default..Default$GT$7default17h4ed295c1d2075008E:

00000000 <_ZN91_$LT$mylib..mynewt..os..os_sanity_check__bindgen_ty_1$u20$as$u20$core..default..Default$GT$7default17h4ed295c1d2075008E>:
_ZN91_$LT$mylib..mynewt..os..os_sanity_check__bindgen_ty_1$u20$as$u20$core..default..Default$GT$7default17h4ed295c1d2075008E():
/mnt/c/stm32bluepill-mynewt-sensor/src/mynewt/os.rs:981
#[repr(C)]
pub struct os_sanity_check__bindgen_ty_1 {
    pub sle_next: *mut os_sanity_check,
}
impl Default for os_sanity_check__bindgen_ty_1 {
    fn default() -> Self {
   0:	b580      	push	{r7, lr}
   2:	b082      	sub	sp, #8
/mnt/c/stm32bluepill-mynewt-sensor/src/mynewt/os.rs:982
        unsafe { ::core::mem::zeroed() }
   4:	f7ff fffe 	bl	0 <_ZN4core3mem6zeroed17h6c97548100b53c02E>
   8:	9001      	str	r0, [sp, #4]
   a:	9801      	ldr	r0, [sp, #4]
   c:	9000      	str	r0, [sp, #0]
   e:	e7ff      	b.n	10 <_ZN91_$LT$mylib..mynewt..os..os_sanity_check__bindgen_ty_1$u20$as$u20$core..default..Default$GT$7default17h4ed295c1d2075008E+0x10>
/mnt/c/stm32bluepill-mynewt-sensor/src/mynewt/os.rs:983
    }
  10:	9800      	ldr	r0, [sp, #0]
  12:	b002      	add	sp, #8
  14:	bd80      	pop	{r7, pc}

Disassembly of section .text._ZN77_$LT$mylib..mynewt..os..os_sanity_check$u20$as$u20$core..default..Default$GT$7default17h3066a52d65ff2ba3E:

00000000 <_ZN77_$LT$mylib..mynewt..os..os_sanity_check$u20$as$u20$core..default..Default$GT$7default17h3066a52d65ff2ba3E>:
_ZN77_$LT$mylib..mynewt..os..os_sanity_check$u20$as$u20$core..default..Default$GT$7default17h3066a52d65ff2ba3E():
/mnt/c/stm32bluepill-mynewt-sensor/src/mynewt/os.rs:986
}
impl Default for os_sanity_check {
    fn default() -> Self {
   0:	b580      	push	{r7, lr}
   2:	b082      	sub	sp, #8
   4:	4601      	mov	r1, r0
/mnt/c/stm32bluepill-mynewt-sensor/src/mynewt/os.rs:987
        unsafe { ::core::mem::zeroed() }
   6:	9101      	str	r1, [sp, #4]
   8:	f7ff fffe 	bl	0 <_ZN4core3mem6zeroed17hdab47f1c2f229790E>
   c:	e7ff      	b.n	e <_ZN77_$LT$mylib..mynewt..os..os_sanity_check$u20$as$u20$core..default..Default$GT$7default17h3066a52d65ff2ba3E+0xe>
/mnt/c/stm32bluepill-mynewt-sensor/src/mynewt/os.rs:988
    }
   e:	b002      	add	sp, #8
  10:	bd80      	pop	{r7, pc}

Disassembly of section .text._ZN87_$LT$mylib..mynewt..os..os_task_obj__bindgen_ty_1$u20$as$u20$core..default..Default$GT$7default17hbbd7e1dbafd5e832E:

00000000 <_ZN87_$LT$mylib..mynewt..os..os_task_obj__bindgen_ty_1$u20$as$u20$core..default..Default$GT$7default17hbbd7e1dbafd5e832E>:
_ZN87_$LT$mylib..mynewt..os..os_task_obj__bindgen_ty_1$u20$as$u20$core..default..Default$GT$7default17hbbd7e1dbafd5e832E():
/mnt/c/stm32bluepill-mynewt-sensor/src/mynewt/os.rs:1017
#[repr(C)]
pub struct os_task_obj__bindgen_ty_1 {
    pub slh_first: *mut os_task,
}
impl Default for os_task_obj__bindgen_ty_1 {
    fn default() -> Self {
   0:	b580      	push	{r7, lr}
   2:	b082      	sub	sp, #8
/mnt/c/stm32bluepill-mynewt-sensor/src/mynewt/os.rs:1018
        unsafe { ::core::mem::zeroed() }
   4:	f7ff fffe 	bl	0 <_ZN4core3mem6zeroed17h79f6a622198a28bbE>
   8:	9001      	str	r0, [sp, #4]
   a:	9801      	ldr	r0, [sp, #4]
   c:	9000      	str	r0, [sp, #0]
   e:	e7ff      	b.n	10 <_ZN87_$LT$mylib..mynewt..os..os_task_obj__bindgen_ty_1$u20$as$u20$core..default..Default$GT$7default17hbbd7e1dbafd5e832E+0x10>
/mnt/c/stm32bluepill-mynewt-sensor/src/mynewt/os.rs:1019
    }
  10:	9800      	ldr	r0, [sp, #0]
  12:	b002      	add	sp, #8
  14:	bd80      	pop	{r7, pc}

Disassembly of section .text._ZN73_$LT$mylib..mynewt..os..os_task_obj$u20$as$u20$core..default..Default$GT$7default17h67b00553140338f7E:

00000000 <_ZN73_$LT$mylib..mynewt..os..os_task_obj$u20$as$u20$core..default..Default$GT$7default17h67b00553140338f7E>:
_ZN73_$LT$mylib..mynewt..os..os_task_obj$u20$as$u20$core..default..Default$GT$7default17h67b00553140338f7E():
/mnt/c/stm32bluepill-mynewt-sensor/src/mynewt/os.rs:1022
}
impl Default for os_task_obj {
    fn default() -> Self {
   0:	b580      	push	{r7, lr}
   2:	b082      	sub	sp, #8
/mnt/c/stm32bluepill-mynewt-sensor/src/mynewt/os.rs:1023
        unsafe { ::core::mem::zeroed() }
   4:	f7ff fffe 	bl	0 <_ZN4core3mem6zeroed17hb6404f5abcb541feE>
   8:	9001      	str	r0, [sp, #4]
   a:	9801      	ldr	r0, [sp, #4]
   c:	9000      	str	r0, [sp, #0]
   e:	e7ff      	b.n	10 <_ZN73_$LT$mylib..mynewt..os..os_task_obj$u20$as$u20$core..default..Default$GT$7default17h67b00553140338f7E+0x10>
/mnt/c/stm32bluepill-mynewt-sensor/src/mynewt/os.rs:1024
    }
  10:	9800      	ldr	r0, [sp, #0]
  12:	b002      	add	sp, #8
  14:	bd80      	pop	{r7, pc}

Disassembly of section .text._ZN83_$LT$mylib..mynewt..os..os_task__bindgen_ty_1$u20$as$u20$core..default..Default$GT$7default17ha3ae116785e4dd12E:

00000000 <_ZN83_$LT$mylib..mynewt..os..os_task__bindgen_ty_1$u20$as$u20$core..default..Default$GT$7default17ha3ae116785e4dd12E>:
_ZN83_$LT$mylib..mynewt..os..os_task__bindgen_ty_1$u20$as$u20$core..default..Default$GT$7default17ha3ae116785e4dd12E():
/mnt/c/stm32bluepill-mynewt-sensor/src/mynewt/os.rs:1059
#[repr(C)]
pub struct os_task__bindgen_ty_1 {
    pub stqe_next: *mut os_task,
}
impl Default for os_task__bindgen_ty_1 {
    fn default() -> Self {
   0:	b580      	push	{r7, lr}
   2:	b082      	sub	sp, #8
/mnt/c/stm32bluepill-mynewt-sensor/src/mynewt/os.rs:1060
        unsafe { ::core::mem::zeroed() }
   4:	f7ff fffe 	bl	0 <_ZN4core3mem6zeroed17hd940eb44d903adefE>
   8:	9001      	str	r0, [sp, #4]
   a:	9801      	ldr	r0, [sp, #4]
   c:	9000      	str	r0, [sp, #0]
   e:	e7ff      	b.n	10 <_ZN83_$LT$mylib..mynewt..os..os_task__bindgen_ty_1$u20$as$u20$core..default..Default$GT$7default17ha3ae116785e4dd12E+0x10>
/mnt/c/stm32bluepill-mynewt-sensor/src/mynewt/os.rs:1061
    }
  10:	9800      	ldr	r0, [sp, #0]
  12:	b002      	add	sp, #8
  14:	bd80      	pop	{r7, pc}

Disassembly of section .text._ZN83_$LT$mylib..mynewt..os..os_task__bindgen_ty_2$u20$as$u20$core..default..Default$GT$7default17he2c896c1c865c9eeE:

00000000 <_ZN83_$LT$mylib..mynewt..os..os_task__bindgen_ty_2$u20$as$u20$core..default..Default$GT$7default17he2c896c1c865c9eeE>:
_ZN83_$LT$mylib..mynewt..os..os_task__bindgen_ty_2$u20$as$u20$core..default..Default$GT$7default17he2c896c1c865c9eeE():
/mnt/c/stm32bluepill-mynewt-sensor/src/mynewt/os.rs:1069
pub struct os_task__bindgen_ty_2 {
    pub tqe_next: *mut os_task,
    pub tqe_prev: *mut *mut os_task,
}
impl Default for os_task__bindgen_ty_2 {
    fn default() -> Self {
   0:	b580      	push	{r7, lr}
   2:	b082      	sub	sp, #8
/mnt/c/stm32bluepill-mynewt-sensor/src/mynewt/os.rs:1070
        unsafe { ::core::mem::zeroed() }
   4:	f7ff fffe 	bl	0 <_ZN4core3mem6zeroed17h64045bbfaa0998f4E>
   8:	9001      	str	r0, [sp, #4]
   a:	9100      	str	r1, [sp, #0]
   c:	e7ff      	b.n	e <_ZN83_$LT$mylib..mynewt..os..os_task__bindgen_ty_2$u20$as$u20$core..default..Default$GT$7default17he2c896c1c865c9eeE+0xe>
/mnt/c/stm32bluepill-mynewt-sensor/src/mynewt/os.rs:1071
    }
   e:	9801      	ldr	r0, [sp, #4]
  10:	9900      	ldr	r1, [sp, #0]
  12:	b002      	add	sp, #8
  14:	bd80      	pop	{r7, pc}

Disassembly of section .text._ZN83_$LT$mylib..mynewt..os..os_task__bindgen_ty_3$u20$as$u20$core..default..Default$GT$7default17heda70455ac32de4bE:

00000000 <_ZN83_$LT$mylib..mynewt..os..os_task__bindgen_ty_3$u20$as$u20$core..default..Default$GT$7default17heda70455ac32de4bE>:
_ZN83_$LT$mylib..mynewt..os..os_task__bindgen_ty_3$u20$as$u20$core..default..Default$GT$7default17heda70455ac32de4bE():
/mnt/c/stm32bluepill-mynewt-sensor/src/mynewt/os.rs:1078
#[repr(C)]
pub struct os_task__bindgen_ty_3 {
    pub sle_next: *mut os_task,
}
impl Default for os_task__bindgen_ty_3 {
    fn default() -> Self {
   0:	b580      	push	{r7, lr}
   2:	b082      	sub	sp, #8
/mnt/c/stm32bluepill-mynewt-sensor/src/mynewt/os.rs:1079
        unsafe { ::core::mem::zeroed() }
   4:	f7ff fffe 	bl	0 <_ZN4core3mem6zeroed17h5935ad08c7a7043bE>
   8:	9001      	str	r0, [sp, #4]
   a:	9801      	ldr	r0, [sp, #4]
   c:	9000      	str	r0, [sp, #0]
   e:	e7ff      	b.n	10 <_ZN83_$LT$mylib..mynewt..os..os_task__bindgen_ty_3$u20$as$u20$core..default..Default$GT$7default17heda70455ac32de4bE+0x10>
/mnt/c/stm32bluepill-mynewt-sensor/src/mynewt/os.rs:1080
    }
  10:	9800      	ldr	r0, [sp, #0]
  12:	b002      	add	sp, #8
  14:	bd80      	pop	{r7, pc}

Disassembly of section .text._ZN69_$LT$mylib..mynewt..os..os_task$u20$as$u20$core..default..Default$GT$7default17h155d954fefd7a04cE:

00000000 <_ZN69_$LT$mylib..mynewt..os..os_task$u20$as$u20$core..default..Default$GT$7default17h155d954fefd7a04cE>:
_ZN69_$LT$mylib..mynewt..os..os_task$u20$as$u20$core..default..Default$GT$7default17h155d954fefd7a04cE():
/mnt/c/stm32bluepill-mynewt-sensor/src/mynewt/os.rs:1083
}
impl Default for os_task {
    fn default() -> Self {
   0:	b580      	push	{r7, lr}
   2:	b082      	sub	sp, #8
   4:	4601      	mov	r1, r0
/mnt/c/stm32bluepill-mynewt-sensor/src/mynewt/os.rs:1084
        unsafe { ::core::mem::zeroed() }
   6:	9101      	str	r1, [sp, #4]
   8:	f7ff fffe 	bl	0 <_ZN4core3mem6zeroed17h7bfc2859ca9f5340E>
   c:	e7ff      	b.n	e <_ZN69_$LT$mylib..mynewt..os..os_task$u20$as$u20$core..default..Default$GT$7default17h155d954fefd7a04cE+0xe>
/mnt/c/stm32bluepill-mynewt-sensor/src/mynewt/os.rs:1085
    }
   e:	b002      	add	sp, #8
  10:	bd80      	pop	{r7, pc}

Disassembly of section .text._ZN76_$LT$mylib..mynewt..os..os_task_stailq$u20$as$u20$core..default..Default$GT$7default17h37658d8c0de15ca5E:

00000000 <_ZN76_$LT$mylib..mynewt..os..os_task_stailq$u20$as$u20$core..default..Default$GT$7default17h37658d8c0de15ca5E>:
_ZN76_$LT$mylib..mynewt..os..os_task_stailq$u20$as$u20$core..default..Default$GT$7default17h37658d8c0de15ca5E():
/mnt/c/stm32bluepill-mynewt-sensor/src/mynewt/os.rs:1093
pub struct os_task_stailq {
    pub stqh_first: *mut os_task,
    pub stqh_last: *mut *mut os_task,
}
impl Default for os_task_stailq {
    fn default() -> Self {
   0:	b580      	push	{r7, lr}
   2:	b082      	sub	sp, #8
/mnt/c/stm32bluepill-mynewt-sensor/src/mynewt/os.rs:1094
        unsafe { ::core::mem::zeroed() }
   4:	f7ff fffe 	bl	0 <_ZN4core3mem6zeroed17h2c5a9e6369ada9ebE>
   8:	9001      	str	r0, [sp, #4]
   a:	9100      	str	r1, [sp, #0]
   c:	e7ff      	b.n	e <_ZN76_$LT$mylib..mynewt..os..os_task_stailq$u20$as$u20$core..default..Default$GT$7default17h37658d8c0de15ca5E+0xe>
/mnt/c/stm32bluepill-mynewt-sensor/src/mynewt/os.rs:1095
    }
   e:	9801      	ldr	r0, [sp, #4]
  10:	9900      	ldr	r1, [sp, #0]
  12:	b002      	add	sp, #8
  14:	bd80      	pop	{r7, pc}

Disassembly of section .text._ZN74_$LT$mylib..mynewt..os..os_task_list$u20$as$u20$core..default..Default$GT$7default17h469cdf5fe49f14c4E:

00000000 <_ZN74_$LT$mylib..mynewt..os..os_task_list$u20$as$u20$core..default..Default$GT$7default17h469cdf5fe49f14c4E>:
_ZN74_$LT$mylib..mynewt..os..os_task_list$u20$as$u20$core..default..Default$GT$7default17h469cdf5fe49f14c4E():
/mnt/c/stm32bluepill-mynewt-sensor/src/mynewt/os.rs:1138
pub struct os_task_list {
    pub tqh_first: *mut os_task,
    pub tqh_last: *mut *mut os_task,
}
impl Default for os_task_list {
    fn default() -> Self {
   0:	b580      	push	{r7, lr}
   2:	b082      	sub	sp, #8
/mnt/c/stm32bluepill-mynewt-sensor/src/mynewt/os.rs:1139
        unsafe { ::core::mem::zeroed() }
   4:	f7ff fffe 	bl	0 <_ZN4core3mem6zeroed17h5ce3b1a147c0b31cE>
   8:	9001      	str	r0, [sp, #4]
   a:	9100      	str	r1, [sp, #0]
   c:	e7ff      	b.n	e <_ZN74_$LT$mylib..mynewt..os..os_task_list$u20$as$u20$core..default..Default$GT$7default17h469cdf5fe49f14c4E+0xe>
/mnt/c/stm32bluepill-mynewt-sensor/src/mynewt/os.rs:1140
    }
   e:	9801      	ldr	r0, [sp, #4]
  10:	9900      	ldr	r1, [sp, #0]
  12:	b002      	add	sp, #8
  14:	bd80      	pop	{r7, pc}

Disassembly of section .text._ZN82_$LT$mylib..mynewt..os..os_sem__bindgen_ty_1$u20$as$u20$core..default..Default$GT$7default17h79df8c47d06ea967E:

00000000 <_ZN82_$LT$mylib..mynewt..os..os_sem__bindgen_ty_1$u20$as$u20$core..default..Default$GT$7default17h79df8c47d06ea967E>:
_ZN82_$LT$mylib..mynewt..os..os_sem__bindgen_ty_1$u20$as$u20$core..default..Default$GT$7default17h79df8c47d06ea967E():
/mnt/c/stm32bluepill-mynewt-sensor/src/mynewt/os.rs:1189
#[repr(C)]
pub struct os_sem__bindgen_ty_1 {
    pub slh_first: *mut os_task,
}
impl Default for os_sem__bindgen_ty_1 {
    fn default() -> Self {
   0:	b580      	push	{r7, lr}
   2:	b082      	sub	sp, #8
/mnt/c/stm32bluepill-mynewt-sensor/src/mynewt/os.rs:1190
        unsafe { ::core::mem::zeroed() }
   4:	f7ff fffe 	bl	0 <_ZN4core3mem6zeroed17h8dbad459a4b2071aE>
   8:	9001      	str	r0, [sp, #4]
   a:	9801      	ldr	r0, [sp, #4]
   c:	9000      	str	r0, [sp, #0]
   e:	e7ff      	b.n	10 <_ZN82_$LT$mylib..mynewt..os..os_sem__bindgen_ty_1$u20$as$u20$core..default..Default$GT$7default17h79df8c47d06ea967E+0x10>
/mnt/c/stm32bluepill-mynewt-sensor/src/mynewt/os.rs:1191
    }
  10:	9800      	ldr	r0, [sp, #0]
  12:	b002      	add	sp, #8
  14:	bd80      	pop	{r7, pc}

Disassembly of section .text._ZN68_$LT$mylib..mynewt..os..os_sem$u20$as$u20$core..default..Default$GT$7default17heb40b96bce90a330E:

00000000 <_ZN68_$LT$mylib..mynewt..os..os_sem$u20$as$u20$core..default..Default$GT$7default17heb40b96bce90a330E>:
_ZN68_$LT$mylib..mynewt..os..os_sem$u20$as$u20$core..default..Default$GT$7default17heb40b96bce90a330E():
/mnt/c/stm32bluepill-mynewt-sensor/src/mynewt/os.rs:1194
}
impl Default for os_sem {
    fn default() -> Self {
   0:	b580      	push	{r7, lr}
   2:	b082      	sub	sp, #8
   4:	4601      	mov	r1, r0
/mnt/c/stm32bluepill-mynewt-sensor/src/mynewt/os.rs:1195
        unsafe { ::core::mem::zeroed() }
   6:	9101      	str	r1, [sp, #4]
   8:	f7ff fffe 	bl	0 <_ZN4core3mem6zeroed17h2fcb95fac63f0f37E>
   c:	e7ff      	b.n	e <_ZN68_$LT$mylib..mynewt..os..os_sem$u20$as$u20$core..default..Default$GT$7default17heb40b96bce90a330E+0xe>
/mnt/c/stm32bluepill-mynewt-sensor/src/mynewt/os.rs:1196
    }
   e:	b002      	add	sp, #8
  10:	bd80      	pop	{r7, pc}

mylib-ac95891f38e7979c.gf4ix36rm4u0qfa.rcgu.o:     file format elf32-littlearm

SYMBOL TABLE:
00000000 l    df *ABS*	00000000 gf4ix36rm4u0qfa
00000000 l       .debug_str	00000000 
00000041 l       .debug_str	00000000 
0000004c l       .debug_str	00000000 
0000006f l       .debug_str	00000000 
00000074 l       .debug_str	00000000 
0000007b l       .debug_str	00000000 
0000007e l       .debug_str	00000000 
00000081 l       .debug_str	00000000 
00000085 l       .debug_str	00000000 
0000008c l       .debug_str	00000000 
00000090 l       .debug_str	00000000 
00000093 l       .debug_str	00000000 
00000096 l       .debug_str	00000000 
0000009b l       .debug_str	00000000 
000000a1 l       .debug_str	00000000 
000000a8 l       .debug_str	00000000 
000000b0 l       .debug_str	00000000 
000000ba l       .debug_str	00000000 
000000c3 l       .debug_str	00000000 
000000c9 l       .debug_str	00000000 
000000cf l       .debug_str	00000000 
000000d2 l       .debug_str	00000000 
000000e1 l       .debug_str	00000000 
000000e8 l       .debug_str	00000000 
000000ec l       .debug_str	00000000 
000000f5 l       .debug_str	00000000 
000000fd l       .debug_str	00000000 
00000105 l       .debug_str	00000000 
0000010c l       .debug_str	00000000 
00000112 l       .debug_str	00000000 
00000126 l       .debug_str	00000000 
00000132 l       .debug_str	00000000 
0000013e l       .debug_str	00000000 
00000140 l       .debug_str	00000000 
00000159 l       .debug_str	00000000 
0000015e l       .debug_str	00000000 
0000016f l       .debug_str	00000000 
00000179 l       .debug_str	00000000 
0000017f l       .debug_str	00000000 
00000183 l       .debug_str	00000000 
00000188 l       .debug_str	00000000 
0000018d l       .debug_str	00000000 
00000193 l       .debug_str	00000000 
00000199 l       .debug_str	00000000 
000001a0 l       .debug_str	00000000 
000001a5 l       .debug_str	00000000 
000001aa l       .debug_str	00000000 
000001ae l       .debug_str	00000000 
000001bc l       .debug_str	00000000 
000001c6 l       .debug_str	00000000 
000001ca l       .debug_str	00000000 
000001d5 l       .debug_str	00000000 
000001dc l       .debug_str	00000000 
000001e2 l       .debug_str	00000000 
000001e6 l       .debug_str	00000000 
00000203 l       .debug_str	00000000 
00000207 l       .debug_str	00000000 
0000020f l       .debug_str	00000000 
00000226 l       .debug_str	00000000 
0000024a l       .debug_str	00000000 
00000266 l       .debug_str	00000000 
0000026b l       .debug_str	00000000 
00000274 l       .debug_str	00000000 
0000027b l       .debug_str	00000000 
00000294 l       .debug_str	00000000 
0000029e l       .debug_str	00000000 
000002b8 l       .debug_str	00000000 
00000316 l       .debug_str	00000000 
00000321 l       .debug_str	00000000 
00000325 l       .debug_str	00000000 
0000036d l       .debug_str	00000000 
00000376 l       .debug_str	00000000 
0000037c l       .debug_str	00000000 
00000383 l       .debug_str	00000000 
0000038c l       .debug_str	00000000 
00000391 l       .debug_str	00000000 
0000039e l       .debug_str	00000000 
000003f9 l       .debug_str	00000000 
000003ff l       .debug_str	00000000 
00000403 l       .debug_str	00000000 
00000457 l       .debug_str	00000000 
000004b3 l       .debug_str	00000000 
000004b9 l       .debug_str	00000000 
0000050d l       .debug_str	00000000 
00000569 l       .debug_str	00000000 
0000056f l       .debug_str	00000000 
00000573 l       .debug_str	00000000 
000005c7 l       .debug_str	00000000 
00000623 l       .debug_str	00000000 
00000627 l       .debug_str	00000000 
0000068d l       .debug_str	00000000 
000006fb l       .debug_str	00000000 
000006ff l       .debug_str	00000000 
0000070c l       .debug_str	00000000 
00000720 l       .debug_str	00000000 
00000752 l       .debug_str	00000000 
000007a5 l       .debug_str	00000000 
000007ed l       .debug_str	00000000 
00000845 l       .debug_str	00000000 
00000849 l       .debug_str	00000000 
0000084f l       .debug_str	00000000 
000008ab l       .debug_str	00000000 
000008b0 l       .debug_str	00000000 
00000902 l       .debug_str	00000000 
0000095c l       .debug_str	00000000 
00000969 l       .debug_str	00000000 
00000996 l       .debug_str	00000000 
0000099b l       .debug_str	00000000 
000009be l       .debug_str	00000000 
000009c8 l       .debug_str	00000000 
00000a1c l       .debug_str	00000000 
00000a64 l       .debug_str	00000000 
00000abd l       .debug_str	00000000 
00000b24 l       .debug_str	00000000 
00000b32 l       .debug_str	00000000 
00000b46 l       .debug_str	00000000 
00000b78 l       .debug_str	00000000 
00000bd7 l       .debug_str	00000000 
00000c1f l       .debug_str	00000000 
00000c83 l       .debug_str	00000000 
00000ccb l       .debug_str	00000000 
00000d36 l       .debug_str	00000000 
00000d7e l       .debug_str	00000000 
00000d87 l       .debug_str	00000000 
00000dcf l       .debug_str	00000000 
00000dde l       .debug_str	00000000 
00000e26 l       .debug_str	00000000 
00000e7f l       .debug_str	00000000 
00000ec7 l       .debug_str	00000000 
00000f20 l       .debug_str	00000000 
00000f68 l       .debug_str	00000000 
00000fc1 l       .debug_str	00000000 
00001009 l       .debug_str	00000000 
00001060 l       .debug_str	00000000 
00001063 l       .debug_str	00000000 
000010ad l       .debug_str	00000000 
000010b6 l       .debug_str	00000000 
000010bb l       .debug_str	00000000 
000010ec l       .debug_str	00000000 
000010f6 l       .debug_str	00000000 
000010fa l       .debug_str	00000000 
0000112b l       .debug_str	00000000 
00001134 l       .debug_str	00000000 
00001139 l       .debug_str	00000000 
0000116a l       .debug_str	00000000 
00001174 l       .debug_str	00000000 
000011a5 l       .debug_str	00000000 
000011ae l       .debug_str	00000000 
000011b9 l       .debug_str	00000000 
000011ea l       .debug_str	00000000 
000011fa l       .debug_str	00000000 
0000124c l       .debug_str	00000000 
00001254 l       .debug_str	00000000 
000012a8 l       .debug_str	00000000 
000012fc l       .debug_str	00000000 
00001304 l       .debug_str	00000000 
00001309 l       .debug_str	00000000 
0000130e l       .debug_str	00000000 
00001314 l       .debug_str	00000000 
00001316 l       .debug_str	00000000 
0000136a l       .debug_str	00000000 
000013bf l       .debug_str	00000000 
00001414 l       .debug_str	00000000 
0000146a l       .debug_str	00000000 
000014ca l       .debug_str	00000000 
0000152b l       .debug_str	00000000 
00001592 l       .debug_str	00000000 
000015fa l       .debug_str	00000000 
00001600 l       .debug_str	00000000 
0000160c l       .debug_str	00000000 
00001661 l       .debug_str	00000000 
000016b7 l       .debug_str	00000000 
0000170c l       .debug_str	00000000 
00001762 l       .debug_str	00000000 
000017b7 l       .debug_str	00000000 
0000180d l       .debug_str	00000000 
00001860 l       .debug_str	00000000 
000018b4 l       .debug_str	00000000 
000018ba l       .debug_str	00000000 
000018bc l       .debug_str	00000000 
0000190f l       .debug_str	00000000 
00001914 l       .debug_str	00000000 
00001966 l       .debug_str	00000000 
000019b9 l       .debug_str	00000000 
00001a0b l       .debug_str	00000000 
00001a64 l       .debug_str	00000000 
00001a6e l       .debug_str	00000000 
00001a78 l       .debug_str	00000000 
00001a7c l       .debug_str	00000000 
00001a86 l       .debug_str	00000000 
00000000 l    d  .text._ZN42_$LT$$RF$T$u20$as$u20$core..fmt..Debug$GT$3fmt17h0c004dc6f6942d42E	00000000 .text._ZN42_$LT$$RF$T$u20$as$u20$core..fmt..Debug$GT$3fmt17h0c004dc6f6942d42E
00000000 l    d  .text._ZN42_$LT$$RF$T$u20$as$u20$core..fmt..Debug$GT$3fmt17h0cdca961d1c557e8E	00000000 .text._ZN42_$LT$$RF$T$u20$as$u20$core..fmt..Debug$GT$3fmt17h0cdca961d1c557e8E
00000000 l    d  .text._ZN42_$LT$$RF$T$u20$as$u20$core..fmt..Debug$GT$3fmt17h2ae6f5912530d6ebE	00000000 .text._ZN42_$LT$$RF$T$u20$as$u20$core..fmt..Debug$GT$3fmt17h2ae6f5912530d6ebE
00000000 l    d  .text._ZN42_$LT$$RF$T$u20$as$u20$core..fmt..Debug$GT$3fmt17h5c003adaa463cb29E	00000000 .text._ZN42_$LT$$RF$T$u20$as$u20$core..fmt..Debug$GT$3fmt17h5c003adaa463cb29E
00000000 l    d  .text._ZN42_$LT$$RF$T$u20$as$u20$core..fmt..Debug$GT$3fmt17h5fbde9a5b4654be1E	00000000 .text._ZN42_$LT$$RF$T$u20$as$u20$core..fmt..Debug$GT$3fmt17h5fbde9a5b4654be1E
00000000 l    d  .text._ZN42_$LT$$RF$T$u20$as$u20$core..fmt..Debug$GT$3fmt17h6b54cd33c0767134E	00000000 .text._ZN42_$LT$$RF$T$u20$as$u20$core..fmt..Debug$GT$3fmt17h6b54cd33c0767134E
00000000 l    d  .text._ZN42_$LT$$RF$T$u20$as$u20$core..fmt..Debug$GT$3fmt17h6e7c3bfec75bb04cE	00000000 .text._ZN42_$LT$$RF$T$u20$as$u20$core..fmt..Debug$GT$3fmt17h6e7c3bfec75bb04cE
00000000 l    d  .text._ZN42_$LT$$RF$T$u20$as$u20$core..fmt..Debug$GT$3fmt17h76ba8836aca212f1E	00000000 .text._ZN42_$LT$$RF$T$u20$as$u20$core..fmt..Debug$GT$3fmt17h76ba8836aca212f1E
00000000 l    d  .text._ZN42_$LT$$RF$T$u20$as$u20$core..fmt..Debug$GT$3fmt17h7cc7f97b20a39a7fE	00000000 .text._ZN42_$LT$$RF$T$u20$as$u20$core..fmt..Debug$GT$3fmt17h7cc7f97b20a39a7fE
00000000 l    d  .text._ZN42_$LT$$RF$T$u20$as$u20$core..fmt..Debug$GT$3fmt17hcdb644f2e036f0feE	00000000 .text._ZN42_$LT$$RF$T$u20$as$u20$core..fmt..Debug$GT$3fmt17hcdb644f2e036f0feE
00000000 l    d  .text._ZN42_$LT$$RF$T$u20$as$u20$core..fmt..Debug$GT$3fmt17hd4db4b6915aedee5E	00000000 .text._ZN42_$LT$$RF$T$u20$as$u20$core..fmt..Debug$GT$3fmt17hd4db4b6915aedee5E
00000000 l    d  .text._ZN44_$LT$$RF$T$u20$as$u20$core..fmt..Display$GT$3fmt17h3783dcd2d2b56f30E	00000000 .text._ZN44_$LT$$RF$T$u20$as$u20$core..fmt..Display$GT$3fmt17h3783dcd2d2b56f30E
00000000 l    d  .text._ZN4core3fmt10ArgumentV13new17h05d4954a4919dcdbE	00000000 .text._ZN4core3fmt10ArgumentV13new17h05d4954a4919dcdbE
00000000 l    d  .text._ZN4core3fmt10ArgumentV13new17h17eece399e82c5f4E	00000000 .text._ZN4core3fmt10ArgumentV13new17h17eece399e82c5f4E
00000000 l    d  .text._ZN4core3fmt10ArgumentV13new17h26e8f734fca6286bE	00000000 .text._ZN4core3fmt10ArgumentV13new17h26e8f734fca6286bE
00000000 l    d  .text._ZN4core3fmt10ArgumentV13new17h47ed94b94e242b01E	00000000 .text._ZN4core3fmt10ArgumentV13new17h47ed94b94e242b01E
00000000 l    d  .text._ZN4core3fmt10ArgumentV13new17h99468556cb7f6d86E	00000000 .text._ZN4core3fmt10ArgumentV13new17h99468556cb7f6d86E
00000000 l    d  .text._ZN52_$LT$$BP$const$u20$T$u20$as$u20$core..fmt..Debug$GT$3fmt17h1f0ecbf1b43940b8E	00000000 .text._ZN52_$LT$$BP$const$u20$T$u20$as$u20$core..fmt..Debug$GT$3fmt17h1f0ecbf1b43940b8E
00000000 l    d  .text._ZN54_$LT$$BP$const$u20$T$u20$as$u20$core..fmt..Pointer$GT$3fmt17hd2a13db4f57a64adE	00000000 .text._ZN54_$LT$$BP$const$u20$T$u20$as$u20$core..fmt..Pointer$GT$3fmt17hd2a13db4f57a64adE
00000000 l    d  .text._ZN54_$LT$$BP$const$u20$T$u20$as$u20$core..fmt..Pointer$GT$3fmt17he4f54e4c19abbcc9E	00000000 .text._ZN54_$LT$$BP$const$u20$T$u20$as$u20$core..fmt..Pointer$GT$3fmt17he4f54e4c19abbcc9E
00000000 l    d  .debug_abbrev	00000000 .debug_abbrev
00000000 l    d  .debug_info	00000000 .debug_info
00000000 l    d  .debug_ranges	00000000 .debug_ranges
00000000 l    d  .debug_frame	00000000 .debug_frame
00000000 l    d  .debug_line	00000000 .debug_line
00000000 g     F .text._ZN42_$LT$$RF$T$u20$as$u20$core..fmt..Debug$GT$3fmt17h0c004dc6f6942d42E	00000028 _ZN42_$LT$$RF$T$u20$as$u20$core..fmt..Debug$GT$3fmt17h0c004dc6f6942d42E
00000000 g     F .text._ZN42_$LT$$RF$T$u20$as$u20$core..fmt..Debug$GT$3fmt17h0cdca961d1c557e8E	00000028 _ZN42_$LT$$RF$T$u20$as$u20$core..fmt..Debug$GT$3fmt17h0cdca961d1c557e8E
00000000 g     F .text._ZN42_$LT$$RF$T$u20$as$u20$core..fmt..Debug$GT$3fmt17h2ae6f5912530d6ebE	00000028 _ZN42_$LT$$RF$T$u20$as$u20$core..fmt..Debug$GT$3fmt17h2ae6f5912530d6ebE
00000000 g     F .text._ZN42_$LT$$RF$T$u20$as$u20$core..fmt..Debug$GT$3fmt17h5c003adaa463cb29E	00000028 _ZN42_$LT$$RF$T$u20$as$u20$core..fmt..Debug$GT$3fmt17h5c003adaa463cb29E
00000000 g     F .text._ZN42_$LT$$RF$T$u20$as$u20$core..fmt..Debug$GT$3fmt17h5fbde9a5b4654be1E	00000028 _ZN42_$LT$$RF$T$u20$as$u20$core..fmt..Debug$GT$3fmt17h5fbde9a5b4654be1E
00000000 g     F .text._ZN42_$LT$$RF$T$u20$as$u20$core..fmt..Debug$GT$3fmt17h6b54cd33c0767134E	00000028 _ZN42_$LT$$RF$T$u20$as$u20$core..fmt..Debug$GT$3fmt17h6b54cd33c0767134E
00000000 g     F .text._ZN42_$LT$$RF$T$u20$as$u20$core..fmt..Debug$GT$3fmt17h6e7c3bfec75bb04cE	00000028 _ZN42_$LT$$RF$T$u20$as$u20$core..fmt..Debug$GT$3fmt17h6e7c3bfec75bb04cE
00000000 g     F .text._ZN42_$LT$$RF$T$u20$as$u20$core..fmt..Debug$GT$3fmt17h76ba8836aca212f1E	00000028 _ZN42_$LT$$RF$T$u20$as$u20$core..fmt..Debug$GT$3fmt17h76ba8836aca212f1E
00000000 g     F .text._ZN42_$LT$$RF$T$u20$as$u20$core..fmt..Debug$GT$3fmt17h7cc7f97b20a39a7fE	00000028 _ZN42_$LT$$RF$T$u20$as$u20$core..fmt..Debug$GT$3fmt17h7cc7f97b20a39a7fE
00000000 g     F .text._ZN42_$LT$$RF$T$u20$as$u20$core..fmt..Debug$GT$3fmt17hcdb644f2e036f0feE	00000028 _ZN42_$LT$$RF$T$u20$as$u20$core..fmt..Debug$GT$3fmt17hcdb644f2e036f0feE
00000000 g     F .text._ZN42_$LT$$RF$T$u20$as$u20$core..fmt..Debug$GT$3fmt17hd4db4b6915aedee5E	00000028 _ZN42_$LT$$RF$T$u20$as$u20$core..fmt..Debug$GT$3fmt17hd4db4b6915aedee5E
00000000         *UND*	00000000 _ZN42_$LT$str$u20$as$u20$core..fmt..Display$GT$3fmt17h3a34938e29ce59dcE
00000000 g     F .text._ZN44_$LT$$RF$T$u20$as$u20$core..fmt..Display$GT$3fmt17h3783dcd2d2b56f30E	00000034 _ZN44_$LT$$RF$T$u20$as$u20$core..fmt..Display$GT$3fmt17h3783dcd2d2b56f30E
00000000 g     F .text._ZN4core3fmt10ArgumentV13new17h05d4954a4919dcdbE	00000032 _ZN4core3fmt10ArgumentV13new17h05d4954a4919dcdbE
00000000 g     F .text._ZN4core3fmt10ArgumentV13new17h17eece399e82c5f4E	00000032 _ZN4core3fmt10ArgumentV13new17h17eece399e82c5f4E
00000000 g     F .text._ZN4core3fmt10ArgumentV13new17h26e8f734fca6286bE	00000032 _ZN4core3fmt10ArgumentV13new17h26e8f734fca6286bE
00000000 g     F .text._ZN4core3fmt10ArgumentV13new17h47ed94b94e242b01E	00000032 _ZN4core3fmt10ArgumentV13new17h47ed94b94e242b01E
00000000 g     F .text._ZN4core3fmt10ArgumentV13new17h99468556cb7f6d86E	00000032 _ZN4core3fmt10ArgumentV13new17h99468556cb7f6d86E
00000000         *UND*	00000000 .hidden _ZN4core3fmt3num50_$LT$impl$u20$core..fmt..Debug$u20$for$u20$i32$GT$3fmt17hbbb46498fb3ead3eE
00000000         *UND*	00000000 .hidden _ZN4core3fmt3num50_$LT$impl$u20$core..fmt..Debug$u20$for$u20$u16$GT$3fmt17h85fea0f7ac7209d6E
00000000         *UND*	00000000 _ZN4core3fmt3num55_$LT$impl$u20$core..fmt..LowerHex$u20$for$u20$usize$GT$3fmt17h562f60f4fbcc2e1dE
00000000         *UND*	00000000 _ZN4core3fmt9Formatter9alternate17hd09f58cee14df2eeE
00000000         *UND*	00000000 _ZN4core3mem7size_of17h033cda7c0b223844E
00000000         *UND*	00000000 _ZN4core3ptr123_$LT$impl$u20$core..fmt..Debug$u20$for$u20$unsafe$u20$extern$u20$$u22$C$u22$$u20$fn$LP$A$C$$u20$B$RP$$u20$.$GT$$u20$Ret$GT$3fmt17h3fb1f20cb1dcac52E
00000000         *UND*	00000000 _ZN4core3ptr123_$LT$impl$u20$core..fmt..Debug$u20$for$u20$unsafe$u20$extern$u20$$u22$C$u22$$u20$fn$LP$A$C$$u20$B$RP$$u20$.$GT$$u20$Ret$GT$3fmt17h4edbc5696d0c317fE
00000000         *UND*	00000000 _ZN4core3ptr123_$LT$impl$u20$core..fmt..Debug$u20$for$u20$unsafe$u20$extern$u20$$u22$C$u22$$u20$fn$LP$A$C$$u20$B$RP$$u20$.$GT$$u20$Ret$GT$3fmt17h53893f4e0b3086caE
00000000         *UND*	00000000 _ZN4core3ptr123_$LT$impl$u20$core..fmt..Debug$u20$for$u20$unsafe$u20$extern$u20$$u22$C$u22$$u20$fn$LP$A$C$$u20$B$RP$$u20$.$GT$$u20$Ret$GT$3fmt17hc81a0f1b3a058ef8E
00000000         *UND*	00000000 _ZN4core3ptr132_$LT$impl$u20$core..fmt..Debug$u20$for$u20$unsafe$u20$extern$u20$$u22$C$u22$$u20$fn$LP$A$C$$u20$B$C$$u20$C$RP$$u20$.$GT$$u20$Ret$GT$3fmt17ha083e96f88eede30E
00000000         *UND*	00000000 _ZN4core3ptr132_$LT$impl$u20$core..fmt..Debug$u20$for$u20$unsafe$u20$extern$u20$$u22$C$u22$$u20$fn$LP$A$C$$u20$B$C$$u20$C$RP$$u20$.$GT$$u20$Ret$GT$3fmt17hbf397bd6bbf1ae14E
00000000         *UND*	00000000 _ZN4core3ptr132_$LT$impl$u20$core..fmt..Debug$u20$for$u20$unsafe$u20$extern$u20$$u22$C$u22$$u20$fn$LP$A$C$$u20$B$C$$u20$C$RP$$u20$.$GT$$u20$Ret$GT$3fmt17hfe0812769f629b28E
00000000         *UND*	00000000 _ZN4core3ptr141_$LT$impl$u20$core..fmt..Debug$u20$for$u20$unsafe$u20$extern$u20$$u22$C$u22$$u20$fn$LP$A$C$$u20$B$C$$u20$C$C$$u20$D$RP$$u20$.$GT$$u20$Ret$GT$3fmt17h638559f450adb14aE
00000000 g     F .text._ZN52_$LT$$BP$const$u20$T$u20$as$u20$core..fmt..Debug$GT$3fmt17h1f0ecbf1b43940b8E	00000026 _ZN52_$LT$$BP$const$u20$T$u20$as$u20$core..fmt..Debug$GT$3fmt17h1f0ecbf1b43940b8E
00000000 g     F .text._ZN54_$LT$$BP$const$u20$T$u20$as$u20$core..fmt..Pointer$GT$3fmt17hd2a13db4f57a64adE	000000a2 _ZN54_$LT$$BP$const$u20$T$u20$as$u20$core..fmt..Pointer$GT$3fmt17hd2a13db4f57a64adE
00000000 g     F .text._ZN54_$LT$$BP$const$u20$T$u20$as$u20$core..fmt..Pointer$GT$3fmt17he4f54e4c19abbcc9E	000000a2 _ZN54_$LT$$BP$const$u20$T$u20$as$u20$core..fmt..Pointer$GT$3fmt17he4f54e4c19abbcc9E



Disassembly of section .text._ZN42_$LT$$RF$T$u20$as$u20$core..fmt..Debug$GT$3fmt17h0c004dc6f6942d42E:

00000000 <_ZN42_$LT$$RF$T$u20$as$u20$core..fmt..Debug$GT$3fmt17h0c004dc6f6942d42E>:
_ZN42_$LT$$RF$T$u20$as$u20$core..fmt..Debug$GT$3fmt17h0c004dc6f6942d42E():
/rustc/50a0defd5a93523067ef239936cc2e0755220904/src/libcore/fmt/mod.rs:1914
   0:	b580      	push	{r7, lr}
   2:	b086      	sub	sp, #24
   4:	460a      	mov	r2, r1
   6:	4603      	mov	r3, r0
   8:	9004      	str	r0, [sp, #16]
   a:	9105      	str	r1, [sp, #20]
   c:	9804      	ldr	r0, [sp, #16]
   e:	6800      	ldr	r0, [r0, #0]
  10:	9905      	ldr	r1, [sp, #20]
  12:	9203      	str	r2, [sp, #12]
  14:	9302      	str	r3, [sp, #8]
  16:	f7ff fffe 	bl	0 <_ZN4core3fmt3num50_$LT$impl$u20$core..fmt..Debug$u20$for$u20$u16$GT$3fmt17h85fea0f7ac7209d6E>
  1a:	9001      	str	r0, [sp, #4]
  1c:	e7ff      	b.n	1e <_ZN42_$LT$$RF$T$u20$as$u20$core..fmt..Debug$GT$3fmt17h0c004dc6f6942d42E+0x1e>
  1e:	9801      	ldr	r0, [sp, #4]
  20:	f000 0001 	and.w	r0, r0, #1
  24:	b006      	add	sp, #24
  26:	bd80      	pop	{r7, pc}

Disassembly of section .text._ZN42_$LT$$RF$T$u20$as$u20$core..fmt..Debug$GT$3fmt17h0cdca961d1c557e8E:

00000000 <_ZN42_$LT$$RF$T$u20$as$u20$core..fmt..Debug$GT$3fmt17h0cdca961d1c557e8E>:
_ZN42_$LT$$RF$T$u20$as$u20$core..fmt..Debug$GT$3fmt17h0cdca961d1c557e8E():
/rustc/50a0defd5a93523067ef239936cc2e0755220904/src/libcore/fmt/mod.rs:1914
   0:	b580      	push	{r7, lr}
   2:	b086      	sub	sp, #24
   4:	460a      	mov	r2, r1
   6:	4603      	mov	r3, r0
   8:	9004      	str	r0, [sp, #16]
   a:	9105      	str	r1, [sp, #20]
   c:	9804      	ldr	r0, [sp, #16]
   e:	6800      	ldr	r0, [r0, #0]
  10:	9905      	ldr	r1, [sp, #20]
  12:	9203      	str	r2, [sp, #12]
  14:	9302      	str	r3, [sp, #8]
  16:	f7ff fffe 	bl	0 <_ZN4core3ptr123_$LT$impl$u20$core..fmt..Debug$u20$for$u20$unsafe$u20$extern$u20$$u22$C$u22$$u20$fn$LP$A$C$$u20$B$RP$$u20$.$GT$$u20$Ret$GT$3fmt17h4edbc5696d0c317fE>
  1a:	9001      	str	r0, [sp, #4]
  1c:	e7ff      	b.n	1e <_ZN42_$LT$$RF$T$u20$as$u20$core..fmt..Debug$GT$3fmt17h0cdca961d1c557e8E+0x1e>
  1e:	9801      	ldr	r0, [sp, #4]
  20:	f000 0001 	and.w	r0, r0, #1
  24:	b006      	add	sp, #24
  26:	bd80      	pop	{r7, pc}

Disassembly of section .text._ZN42_$LT$$RF$T$u20$as$u20$core..fmt..Debug$GT$3fmt17h2ae6f5912530d6ebE:

00000000 <_ZN42_$LT$$RF$T$u20$as$u20$core..fmt..Debug$GT$3fmt17h2ae6f5912530d6ebE>:
_ZN42_$LT$$RF$T$u20$as$u20$core..fmt..Debug$GT$3fmt17h2ae6f5912530d6ebE():
/rustc/50a0defd5a93523067ef239936cc2e0755220904/src/libcore/fmt/mod.rs:1914
   0:	b580      	push	{r7, lr}
   2:	b086      	sub	sp, #24
   4:	460a      	mov	r2, r1
   6:	4603      	mov	r3, r0
   8:	9004      	str	r0, [sp, #16]
   a:	9105      	str	r1, [sp, #20]
   c:	9804      	ldr	r0, [sp, #16]
   e:	6800      	ldr	r0, [r0, #0]
  10:	9905      	ldr	r1, [sp, #20]
  12:	9203      	str	r2, [sp, #12]
  14:	9302      	str	r3, [sp, #8]
  16:	f7ff fffe 	bl	0 <_ZN4core3ptr132_$LT$impl$u20$core..fmt..Debug$u20$for$u20$unsafe$u20$extern$u20$$u22$C$u22$$u20$fn$LP$A$C$$u20$B$C$$u20$C$RP$$u20$.$GT$$u20$Ret$GT$3fmt17hfe0812769f629b28E>
  1a:	9001      	str	r0, [sp, #4]
  1c:	e7ff      	b.n	1e <_ZN42_$LT$$RF$T$u20$as$u20$core..fmt..Debug$GT$3fmt17h2ae6f5912530d6ebE+0x1e>
  1e:	9801      	ldr	r0, [sp, #4]
  20:	f000 0001 	and.w	r0, r0, #1
  24:	b006      	add	sp, #24
  26:	bd80      	pop	{r7, pc}

Disassembly of section .text._ZN42_$LT$$RF$T$u20$as$u20$core..fmt..Debug$GT$3fmt17h5c003adaa463cb29E:

00000000 <_ZN42_$LT$$RF$T$u20$as$u20$core..fmt..Debug$GT$3fmt17h5c003adaa463cb29E>:
_ZN42_$LT$$RF$T$u20$as$u20$core..fmt..Debug$GT$3fmt17h5c003adaa463cb29E():
/rustc/50a0defd5a93523067ef239936cc2e0755220904/src/libcore/fmt/mod.rs:1914
   0:	b580      	push	{r7, lr}
   2:	b086      	sub	sp, #24
   4:	460a      	mov	r2, r1
   6:	4603      	mov	r3, r0
   8:	9004      	str	r0, [sp, #16]
   a:	9105      	str	r1, [sp, #20]
   c:	9804      	ldr	r0, [sp, #16]
   e:	6800      	ldr	r0, [r0, #0]
  10:	9905      	ldr	r1, [sp, #20]
  12:	9203      	str	r2, [sp, #12]
  14:	9302      	str	r3, [sp, #8]
  16:	f7ff fffe 	bl	0 <_ZN4core3ptr132_$LT$impl$u20$core..fmt..Debug$u20$for$u20$unsafe$u20$extern$u20$$u22$C$u22$$u20$fn$LP$A$C$$u20$B$C$$u20$C$RP$$u20$.$GT$$u20$Ret$GT$3fmt17hbf397bd6bbf1ae14E>
  1a:	9001      	str	r0, [sp, #4]
  1c:	e7ff      	b.n	1e <_ZN42_$LT$$RF$T$u20$as$u20$core..fmt..Debug$GT$3fmt17h5c003adaa463cb29E+0x1e>
  1e:	9801      	ldr	r0, [sp, #4]
  20:	f000 0001 	and.w	r0, r0, #1
  24:	b006      	add	sp, #24
  26:	bd80      	pop	{r7, pc}

Disassembly of section .text._ZN42_$LT$$RF$T$u20$as$u20$core..fmt..Debug$GT$3fmt17h5fbde9a5b4654be1E:

00000000 <_ZN42_$LT$$RF$T$u20$as$u20$core..fmt..Debug$GT$3fmt17h5fbde9a5b4654be1E>:
_ZN42_$LT$$RF$T$u20$as$u20$core..fmt..Debug$GT$3fmt17h5fbde9a5b4654be1E():
/rustc/50a0defd5a93523067ef239936cc2e0755220904/src/libcore/fmt/mod.rs:1914
   0:	b580      	push	{r7, lr}
   2:	b086      	sub	sp, #24
   4:	460a      	mov	r2, r1
   6:	4603      	mov	r3, r0
   8:	9004      	str	r0, [sp, #16]
   a:	9105      	str	r1, [sp, #20]
   c:	9804      	ldr	r0, [sp, #16]
   e:	6800      	ldr	r0, [r0, #0]
  10:	9905      	ldr	r1, [sp, #20]
  12:	9203      	str	r2, [sp, #12]
  14:	9302      	str	r3, [sp, #8]
  16:	f7ff fffe 	bl	0 <_ZN4core3ptr141_$LT$impl$u20$core..fmt..Debug$u20$for$u20$unsafe$u20$extern$u20$$u22$C$u22$$u20$fn$LP$A$C$$u20$B$C$$u20$C$C$$u20$D$RP$$u20$.$GT$$u20$Ret$GT$3fmt17h638559f450adb14aE>
  1a:	9001      	str	r0, [sp, #4]
  1c:	e7ff      	b.n	1e <_ZN42_$LT$$RF$T$u20$as$u20$core..fmt..Debug$GT$3fmt17h5fbde9a5b4654be1E+0x1e>
  1e:	9801      	ldr	r0, [sp, #4]
  20:	f000 0001 	and.w	r0, r0, #1
  24:	b006      	add	sp, #24
  26:	bd80      	pop	{r7, pc}

Disassembly of section .text._ZN42_$LT$$RF$T$u20$as$u20$core..fmt..Debug$GT$3fmt17h6b54cd33c0767134E:

00000000 <_ZN42_$LT$$RF$T$u20$as$u20$core..fmt..Debug$GT$3fmt17h6b54cd33c0767134E>:
_ZN42_$LT$$RF$T$u20$as$u20$core..fmt..Debug$GT$3fmt17h6b54cd33c0767134E():
/rustc/50a0defd5a93523067ef239936cc2e0755220904/src/libcore/fmt/mod.rs:1914
   0:	b580      	push	{r7, lr}
   2:	b086      	sub	sp, #24
   4:	460a      	mov	r2, r1
   6:	4603      	mov	r3, r0
   8:	9004      	str	r0, [sp, #16]
   a:	9105      	str	r1, [sp, #20]
   c:	9804      	ldr	r0, [sp, #16]
   e:	6800      	ldr	r0, [r0, #0]
  10:	9905      	ldr	r1, [sp, #20]
  12:	9203      	str	r2, [sp, #12]
  14:	9302      	str	r3, [sp, #8]
  16:	f7ff fffe 	bl	0 <_ZN4core3fmt3num50_$LT$impl$u20$core..fmt..Debug$u20$for$u20$i32$GT$3fmt17hbbb46498fb3ead3eE>
  1a:	9001      	str	r0, [sp, #4]
  1c:	e7ff      	b.n	1e <_ZN42_$LT$$RF$T$u20$as$u20$core..fmt..Debug$GT$3fmt17h6b54cd33c0767134E+0x1e>
  1e:	9801      	ldr	r0, [sp, #4]
  20:	f000 0001 	and.w	r0, r0, #1
  24:	b006      	add	sp, #24
  26:	bd80      	pop	{r7, pc}

Disassembly of section .text._ZN42_$LT$$RF$T$u20$as$u20$core..fmt..Debug$GT$3fmt17h6e7c3bfec75bb04cE:

00000000 <_ZN42_$LT$$RF$T$u20$as$u20$core..fmt..Debug$GT$3fmt17h6e7c3bfec75bb04cE>:
_ZN42_$LT$$RF$T$u20$as$u20$core..fmt..Debug$GT$3fmt17h6e7c3bfec75bb04cE():
/rustc/50a0defd5a93523067ef239936cc2e0755220904/src/libcore/fmt/mod.rs:1914
   0:	b580      	push	{r7, lr}
   2:	b086      	sub	sp, #24
   4:	460a      	mov	r2, r1
   6:	4603      	mov	r3, r0
   8:	9004      	str	r0, [sp, #16]
   a:	9105      	str	r1, [sp, #20]
   c:	9804      	ldr	r0, [sp, #16]
   e:	6800      	ldr	r0, [r0, #0]
  10:	9905      	ldr	r1, [sp, #20]
  12:	9203      	str	r2, [sp, #12]
  14:	9302      	str	r3, [sp, #8]
  16:	f7ff fffe 	bl	0 <_ZN42_$LT$$RF$T$u20$as$u20$core..fmt..Debug$GT$3fmt17h6e7c3bfec75bb04cE>
  1a:	9001      	str	r0, [sp, #4]
  1c:	e7ff      	b.n	1e <_ZN42_$LT$$RF$T$u20$as$u20$core..fmt..Debug$GT$3fmt17h6e7c3bfec75bb04cE+0x1e>
  1e:	9801      	ldr	r0, [sp, #4]
  20:	f000 0001 	and.w	r0, r0, #1
  24:	b006      	add	sp, #24
  26:	bd80      	pop	{r7, pc}

Disassembly of section .text._ZN42_$LT$$RF$T$u20$as$u20$core..fmt..Debug$GT$3fmt17h76ba8836aca212f1E:

00000000 <_ZN42_$LT$$RF$T$u20$as$u20$core..fmt..Debug$GT$3fmt17h76ba8836aca212f1E>:
_ZN42_$LT$$RF$T$u20$as$u20$core..fmt..Debug$GT$3fmt17h76ba8836aca212f1E():
/rustc/50a0defd5a93523067ef239936cc2e0755220904/src/libcore/fmt/mod.rs:1914
   0:	b580      	push	{r7, lr}
   2:	b086      	sub	sp, #24
   4:	460a      	mov	r2, r1
   6:	4603      	mov	r3, r0
   8:	9004      	str	r0, [sp, #16]
   a:	9105      	str	r1, [sp, #20]
   c:	9804      	ldr	r0, [sp, #16]
   e:	6800      	ldr	r0, [r0, #0]
  10:	9905      	ldr	r1, [sp, #20]
  12:	9203      	str	r2, [sp, #12]
  14:	9302      	str	r3, [sp, #8]
  16:	f7ff fffe 	bl	0 <_ZN4core3ptr123_$LT$impl$u20$core..fmt..Debug$u20$for$u20$unsafe$u20$extern$u20$$u22$C$u22$$u20$fn$LP$A$C$$u20$B$RP$$u20$.$GT$$u20$Ret$GT$3fmt17hc81a0f1b3a058ef8E>
  1a:	9001      	str	r0, [sp, #4]
  1c:	e7ff      	b.n	1e <_ZN42_$LT$$RF$T$u20$as$u20$core..fmt..Debug$GT$3fmt17h76ba8836aca212f1E+0x1e>
  1e:	9801      	ldr	r0, [sp, #4]
  20:	f000 0001 	and.w	r0, r0, #1
  24:	b006      	add	sp, #24
  26:	bd80      	pop	{r7, pc}

Disassembly of section .text._ZN42_$LT$$RF$T$u20$as$u20$core..fmt..Debug$GT$3fmt17h7cc7f97b20a39a7fE:

00000000 <_ZN42_$LT$$RF$T$u20$as$u20$core..fmt..Debug$GT$3fmt17h7cc7f97b20a39a7fE>:
_ZN42_$LT$$RF$T$u20$as$u20$core..fmt..Debug$GT$3fmt17h7cc7f97b20a39a7fE():
/rustc/50a0defd5a93523067ef239936cc2e0755220904/src/libcore/fmt/mod.rs:1914
   0:	b580      	push	{r7, lr}
   2:	b086      	sub	sp, #24
   4:	460a      	mov	r2, r1
   6:	4603      	mov	r3, r0
   8:	9004      	str	r0, [sp, #16]
   a:	9105      	str	r1, [sp, #20]
   c:	9804      	ldr	r0, [sp, #16]
   e:	6800      	ldr	r0, [r0, #0]
  10:	9905      	ldr	r1, [sp, #20]
  12:	9203      	str	r2, [sp, #12]
  14:	9302      	str	r3, [sp, #8]
  16:	f7ff fffe 	bl	0 <_ZN4core3ptr123_$LT$impl$u20$core..fmt..Debug$u20$for$u20$unsafe$u20$extern$u20$$u22$C$u22$$u20$fn$LP$A$C$$u20$B$RP$$u20$.$GT$$u20$Ret$GT$3fmt17h3fb1f20cb1dcac52E>
  1a:	9001      	str	r0, [sp, #4]
  1c:	e7ff      	b.n	1e <_ZN42_$LT$$RF$T$u20$as$u20$core..fmt..Debug$GT$3fmt17h7cc7f97b20a39a7fE+0x1e>
  1e:	9801      	ldr	r0, [sp, #4]
  20:	f000 0001 	and.w	r0, r0, #1
  24:	b006      	add	sp, #24
  26:	bd80      	pop	{r7, pc}

Disassembly of section .text._ZN42_$LT$$RF$T$u20$as$u20$core..fmt..Debug$GT$3fmt17hcdb644f2e036f0feE:

00000000 <_ZN42_$LT$$RF$T$u20$as$u20$core..fmt..Debug$GT$3fmt17hcdb644f2e036f0feE>:
_ZN42_$LT$$RF$T$u20$as$u20$core..fmt..Debug$GT$3fmt17hcdb644f2e036f0feE():
/rustc/50a0defd5a93523067ef239936cc2e0755220904/src/libcore/fmt/mod.rs:1914
   0:	b580      	push	{r7, lr}
   2:	b086      	sub	sp, #24
   4:	460a      	mov	r2, r1
   6:	4603      	mov	r3, r0
   8:	9004      	str	r0, [sp, #16]
   a:	9105      	str	r1, [sp, #20]
   c:	9804      	ldr	r0, [sp, #16]
   e:	6800      	ldr	r0, [r0, #0]
  10:	9905      	ldr	r1, [sp, #20]
  12:	9203      	str	r2, [sp, #12]
  14:	9302      	str	r3, [sp, #8]
  16:	f7ff fffe 	bl	0 <_ZN4core3ptr123_$LT$impl$u20$core..fmt..Debug$u20$for$u20$unsafe$u20$extern$u20$$u22$C$u22$$u20$fn$LP$A$C$$u20$B$RP$$u20$.$GT$$u20$Ret$GT$3fmt17h53893f4e0b3086caE>
  1a:	9001      	str	r0, [sp, #4]
  1c:	e7ff      	b.n	1e <_ZN42_$LT$$RF$T$u20$as$u20$core..fmt..Debug$GT$3fmt17hcdb644f2e036f0feE+0x1e>
  1e:	9801      	ldr	r0, [sp, #4]
  20:	f000 0001 	and.w	r0, r0, #1
  24:	b006      	add	sp, #24
  26:	bd80      	pop	{r7, pc}

Disassembly of section .text._ZN42_$LT$$RF$T$u20$as$u20$core..fmt..Debug$GT$3fmt17hd4db4b6915aedee5E:

00000000 <_ZN42_$LT$$RF$T$u20$as$u20$core..fmt..Debug$GT$3fmt17hd4db4b6915aedee5E>:
_ZN42_$LT$$RF$T$u20$as$u20$core..fmt..Debug$GT$3fmt17hd4db4b6915aedee5E():
/rustc/50a0defd5a93523067ef239936cc2e0755220904/src/libcore/fmt/mod.rs:1914
   0:	b580      	push	{r7, lr}
   2:	b086      	sub	sp, #24
   4:	460a      	mov	r2, r1
   6:	4603      	mov	r3, r0
   8:	9004      	str	r0, [sp, #16]
   a:	9105      	str	r1, [sp, #20]
   c:	9804      	ldr	r0, [sp, #16]
   e:	6800      	ldr	r0, [r0, #0]
  10:	9905      	ldr	r1, [sp, #20]
  12:	9203      	str	r2, [sp, #12]
  14:	9302      	str	r3, [sp, #8]
  16:	f7ff fffe 	bl	0 <_ZN4core3ptr132_$LT$impl$u20$core..fmt..Debug$u20$for$u20$unsafe$u20$extern$u20$$u22$C$u22$$u20$fn$LP$A$C$$u20$B$C$$u20$C$RP$$u20$.$GT$$u20$Ret$GT$3fmt17ha083e96f88eede30E>
  1a:	9001      	str	r0, [sp, #4]
  1c:	e7ff      	b.n	1e <_ZN42_$LT$$RF$T$u20$as$u20$core..fmt..Debug$GT$3fmt17hd4db4b6915aedee5E+0x1e>
  1e:	9801      	ldr	r0, [sp, #4]
  20:	f000 0001 	and.w	r0, r0, #1
  24:	b006      	add	sp, #24
  26:	bd80      	pop	{r7, pc}

Disassembly of section .text._ZN44_$LT$$RF$T$u20$as$u20$core..fmt..Display$GT$3fmt17h3783dcd2d2b56f30E:

00000000 <_ZN44_$LT$$RF$T$u20$as$u20$core..fmt..Display$GT$3fmt17h3783dcd2d2b56f30E>:
_ZN44_$LT$$RF$T$u20$as$u20$core..fmt..Display$GT$3fmt17h3783dcd2d2b56f30E():
/rustc/50a0defd5a93523067ef239936cc2e0755220904/src/libcore/fmt/mod.rs:1914
   0:	b580      	push	{r7, lr}
   2:	b086      	sub	sp, #24
   4:	460a      	mov	r2, r1
   6:	4603      	mov	r3, r0
   8:	9004      	str	r0, [sp, #16]
   a:	9105      	str	r1, [sp, #20]
   c:	9804      	ldr	r0, [sp, #16]
   e:	6801      	ldr	r1, [r0, #0]
  10:	6840      	ldr	r0, [r0, #4]
  12:	f8dd c014 	ldr.w	ip, [sp, #20]
  16:	9003      	str	r0, [sp, #12]
  18:	4608      	mov	r0, r1
  1a:	9903      	ldr	r1, [sp, #12]
  1c:	9202      	str	r2, [sp, #8]
  1e:	4662      	mov	r2, ip
  20:	9301      	str	r3, [sp, #4]
  22:	f7ff fffe 	bl	0 <_ZN42_$LT$str$u20$as$u20$core..fmt..Display$GT$3fmt17h3a34938e29ce59dcE>
  26:	9000      	str	r0, [sp, #0]
  28:	e7ff      	b.n	2a <_ZN44_$LT$$RF$T$u20$as$u20$core..fmt..Display$GT$3fmt17h3783dcd2d2b56f30E+0x2a>
  2a:	9800      	ldr	r0, [sp, #0]
  2c:	f000 0001 	and.w	r0, r0, #1
  30:	b006      	add	sp, #24
  32:	bd80      	pop	{r7, pc}

Disassembly of section .text._ZN4core3fmt10ArgumentV13new17h05d4954a4919dcdbE:

00000000 <_ZN4core3fmt10ArgumentV13new17h05d4954a4919dcdbE>:
_ZN4core3fmt10ArgumentV13new17h05d4954a4919dcdbE():
/rustc/50a0defd5a93523067ef239936cc2e0755220904/src/libcore/fmt/mod.rs:278
   0:	b08a      	sub	sp, #40	; 0x28
   2:	460a      	mov	r2, r1
   4:	4603      	mov	r3, r0
   6:	9004      	str	r0, [sp, #16]
   8:	9105      	str	r1, [sp, #20]
/rustc/50a0defd5a93523067ef239936cc2e0755220904/src/libcore/fmt/mod.rs:282
   a:	9805      	ldr	r0, [sp, #20]
   c:	9008      	str	r0, [sp, #32]
   e:	9808      	ldr	r0, [sp, #32]
  10:	9203      	str	r2, [sp, #12]
  12:	9302      	str	r3, [sp, #8]
  14:	9001      	str	r0, [sp, #4]
  16:	e7ff      	b.n	18 <_ZN4core3fmt10ArgumentV13new17h05d4954a4919dcdbE+0x18>
/rustc/50a0defd5a93523067ef239936cc2e0755220904/src/libcore/fmt/mod.rs:283
  18:	9804      	ldr	r0, [sp, #16]
  1a:	9009      	str	r0, [sp, #36]	; 0x24
  1c:	9809      	ldr	r0, [sp, #36]	; 0x24
  1e:	9000      	str	r0, [sp, #0]
  20:	e7ff      	b.n	22 <_ZN4core3fmt10ArgumentV13new17h05d4954a4919dcdbE+0x22>
/rustc/50a0defd5a93523067ef239936cc2e0755220904/src/libcore/fmt/mod.rs:281
  22:	9800      	ldr	r0, [sp, #0]
  24:	9006      	str	r0, [sp, #24]
  26:	9901      	ldr	r1, [sp, #4]
  28:	9107      	str	r1, [sp, #28]
/rustc/50a0defd5a93523067ef239936cc2e0755220904/src/libcore/fmt/mod.rs:286
  2a:	9806      	ldr	r0, [sp, #24]
  2c:	9907      	ldr	r1, [sp, #28]
  2e:	b00a      	add	sp, #40	; 0x28
  30:	4770      	bx	lr

Disassembly of section .text._ZN4core3fmt10ArgumentV13new17h17eece399e82c5f4E:

00000000 <_ZN4core3fmt10ArgumentV13new17h17eece399e82c5f4E>:
_ZN4core3fmt10ArgumentV13new17h17eece399e82c5f4E():
/rustc/50a0defd5a93523067ef239936cc2e0755220904/src/libcore/fmt/mod.rs:278
   0:	b08a      	sub	sp, #40	; 0x28
   2:	460a      	mov	r2, r1
   4:	4603      	mov	r3, r0
   6:	9004      	str	r0, [sp, #16]
   8:	9105      	str	r1, [sp, #20]
/rustc/50a0defd5a93523067ef239936cc2e0755220904/src/libcore/fmt/mod.rs:282
   a:	9805      	ldr	r0, [sp, #20]
   c:	9008      	str	r0, [sp, #32]
   e:	9808      	ldr	r0, [sp, #32]
  10:	9203      	str	r2, [sp, #12]
  12:	9302      	str	r3, [sp, #8]
  14:	9001      	str	r0, [sp, #4]
  16:	e7ff      	b.n	18 <_ZN4core3fmt10ArgumentV13new17h17eece399e82c5f4E+0x18>
/rustc/50a0defd5a93523067ef239936cc2e0755220904/src/libcore/fmt/mod.rs:283
  18:	9804      	ldr	r0, [sp, #16]
  1a:	9009      	str	r0, [sp, #36]	; 0x24
  1c:	9809      	ldr	r0, [sp, #36]	; 0x24
  1e:	9000      	str	r0, [sp, #0]
  20:	e7ff      	b.n	22 <_ZN4core3fmt10ArgumentV13new17h17eece399e82c5f4E+0x22>
/rustc/50a0defd5a93523067ef239936cc2e0755220904/src/libcore/fmt/mod.rs:281
  22:	9800      	ldr	r0, [sp, #0]
  24:	9006      	str	r0, [sp, #24]
  26:	9901      	ldr	r1, [sp, #4]
  28:	9107      	str	r1, [sp, #28]
/rustc/50a0defd5a93523067ef239936cc2e0755220904/src/libcore/fmt/mod.rs:286
  2a:	9806      	ldr	r0, [sp, #24]
  2c:	9907      	ldr	r1, [sp, #28]
  2e:	b00a      	add	sp, #40	; 0x28
  30:	4770      	bx	lr

Disassembly of section .text._ZN4core3fmt10ArgumentV13new17h26e8f734fca6286bE:

00000000 <_ZN4core3fmt10ArgumentV13new17h26e8f734fca6286bE>:
_ZN4core3fmt10ArgumentV13new17h26e8f734fca6286bE():
/rustc/50a0defd5a93523067ef239936cc2e0755220904/src/libcore/fmt/mod.rs:278
   0:	b08a      	sub	sp, #40	; 0x28
   2:	460a      	mov	r2, r1
   4:	4603      	mov	r3, r0
   6:	9004      	str	r0, [sp, #16]
   8:	9105      	str	r1, [sp, #20]
/rustc/50a0defd5a93523067ef239936cc2e0755220904/src/libcore/fmt/mod.rs:282
   a:	9805      	ldr	r0, [sp, #20]
   c:	9008      	str	r0, [sp, #32]
   e:	9808      	ldr	r0, [sp, #32]
  10:	9203      	str	r2, [sp, #12]
  12:	9302      	str	r3, [sp, #8]
  14:	9001      	str	r0, [sp, #4]
  16:	e7ff      	b.n	18 <_ZN4core3fmt10ArgumentV13new17h26e8f734fca6286bE+0x18>
/rustc/50a0defd5a93523067ef239936cc2e0755220904/src/libcore/fmt/mod.rs:283
  18:	9804      	ldr	r0, [sp, #16]
  1a:	9009      	str	r0, [sp, #36]	; 0x24
  1c:	9809      	ldr	r0, [sp, #36]	; 0x24
  1e:	9000      	str	r0, [sp, #0]
  20:	e7ff      	b.n	22 <_ZN4core3fmt10ArgumentV13new17h26e8f734fca6286bE+0x22>
/rustc/50a0defd5a93523067ef239936cc2e0755220904/src/libcore/fmt/mod.rs:281
  22:	9800      	ldr	r0, [sp, #0]
  24:	9006      	str	r0, [sp, #24]
  26:	9901      	ldr	r1, [sp, #4]
  28:	9107      	str	r1, [sp, #28]
/rustc/50a0defd5a93523067ef239936cc2e0755220904/src/libcore/fmt/mod.rs:286
  2a:	9806      	ldr	r0, [sp, #24]
  2c:	9907      	ldr	r1, [sp, #28]
  2e:	b00a      	add	sp, #40	; 0x28
  30:	4770      	bx	lr

Disassembly of section .text._ZN4core3fmt10ArgumentV13new17h47ed94b94e242b01E:

00000000 <_ZN4core3fmt10ArgumentV13new17h47ed94b94e242b01E>:
_ZN4core3fmt10ArgumentV13new17h47ed94b94e242b01E():
/rustc/50a0defd5a93523067ef239936cc2e0755220904/src/libcore/fmt/mod.rs:278
   0:	b08a      	sub	sp, #40	; 0x28
   2:	460a      	mov	r2, r1
   4:	4603      	mov	r3, r0
   6:	9004      	str	r0, [sp, #16]
   8:	9105      	str	r1, [sp, #20]
/rustc/50a0defd5a93523067ef239936cc2e0755220904/src/libcore/fmt/mod.rs:282
   a:	9805      	ldr	r0, [sp, #20]
   c:	9008      	str	r0, [sp, #32]
   e:	9808      	ldr	r0, [sp, #32]
  10:	9203      	str	r2, [sp, #12]
  12:	9302      	str	r3, [sp, #8]
  14:	9001      	str	r0, [sp, #4]
  16:	e7ff      	b.n	18 <_ZN4core3fmt10ArgumentV13new17h47ed94b94e242b01E+0x18>
/rustc/50a0defd5a93523067ef239936cc2e0755220904/src/libcore/fmt/mod.rs:283
  18:	9804      	ldr	r0, [sp, #16]
  1a:	9009      	str	r0, [sp, #36]	; 0x24
  1c:	9809      	ldr	r0, [sp, #36]	; 0x24
  1e:	9000      	str	r0, [sp, #0]
  20:	e7ff      	b.n	22 <_ZN4core3fmt10ArgumentV13new17h47ed94b94e242b01E+0x22>
/rustc/50a0defd5a93523067ef239936cc2e0755220904/src/libcore/fmt/mod.rs:281
  22:	9800      	ldr	r0, [sp, #0]
  24:	9006      	str	r0, [sp, #24]
  26:	9901      	ldr	r1, [sp, #4]
  28:	9107      	str	r1, [sp, #28]
/rustc/50a0defd5a93523067ef239936cc2e0755220904/src/libcore/fmt/mod.rs:286
  2a:	9806      	ldr	r0, [sp, #24]
  2c:	9907      	ldr	r1, [sp, #28]
  2e:	b00a      	add	sp, #40	; 0x28
  30:	4770      	bx	lr

Disassembly of section .text._ZN4core3fmt10ArgumentV13new17h99468556cb7f6d86E:

00000000 <_ZN4core3fmt10ArgumentV13new17h99468556cb7f6d86E>:
_ZN4core3fmt10ArgumentV13new17h99468556cb7f6d86E():
/rustc/50a0defd5a93523067ef239936cc2e0755220904/src/libcore/fmt/mod.rs:278
   0:	b08a      	sub	sp, #40	; 0x28
   2:	460a      	mov	r2, r1
   4:	4603      	mov	r3, r0
   6:	9004      	str	r0, [sp, #16]
   8:	9105      	str	r1, [sp, #20]
/rustc/50a0defd5a93523067ef239936cc2e0755220904/src/libcore/fmt/mod.rs:282
   a:	9805      	ldr	r0, [sp, #20]
   c:	9008      	str	r0, [sp, #32]
   e:	9808      	ldr	r0, [sp, #32]
  10:	9203      	str	r2, [sp, #12]
  12:	9302      	str	r3, [sp, #8]
  14:	9001      	str	r0, [sp, #4]
  16:	e7ff      	b.n	18 <_ZN4core3fmt10ArgumentV13new17h99468556cb7f6d86E+0x18>
/rustc/50a0defd5a93523067ef239936cc2e0755220904/src/libcore/fmt/mod.rs:283
  18:	9804      	ldr	r0, [sp, #16]
  1a:	9009      	str	r0, [sp, #36]	; 0x24
  1c:	9809      	ldr	r0, [sp, #36]	; 0x24
  1e:	9000      	str	r0, [sp, #0]
  20:	e7ff      	b.n	22 <_ZN4core3fmt10ArgumentV13new17h99468556cb7f6d86E+0x22>
/rustc/50a0defd5a93523067ef239936cc2e0755220904/src/libcore/fmt/mod.rs:281
  22:	9800      	ldr	r0, [sp, #0]
  24:	9006      	str	r0, [sp, #24]
  26:	9901      	ldr	r1, [sp, #4]
  28:	9107      	str	r1, [sp, #28]
/rustc/50a0defd5a93523067ef239936cc2e0755220904/src/libcore/fmt/mod.rs:286
  2a:	9806      	ldr	r0, [sp, #24]
  2c:	9907      	ldr	r1, [sp, #28]
  2e:	b00a      	add	sp, #40	; 0x28
  30:	4770      	bx	lr

Disassembly of section .text._ZN52_$LT$$BP$const$u20$T$u20$as$u20$core..fmt..Debug$GT$3fmt17h1f0ecbf1b43940b8E:

00000000 <_ZN52_$LT$$BP$const$u20$T$u20$as$u20$core..fmt..Debug$GT$3fmt17h1f0ecbf1b43940b8E>:
_ZN52_$LT$$BP$const$u20$T$u20$as$u20$core..fmt..Debug$GT$3fmt17h1f0ecbf1b43940b8E():
/rustc/50a0defd5a93523067ef239936cc2e0755220904/src/libcore/fmt/mod.rs:2058
   0:	b580      	push	{r7, lr}
   2:	b086      	sub	sp, #24
   4:	460a      	mov	r2, r1
   6:	4603      	mov	r3, r0
   8:	9004      	str	r0, [sp, #16]
   a:	9105      	str	r1, [sp, #20]
   c:	9804      	ldr	r0, [sp, #16]
   e:	9905      	ldr	r1, [sp, #20]
  10:	9203      	str	r2, [sp, #12]
  12:	9302      	str	r3, [sp, #8]
  14:	f7ff fffe 	bl	0 <_ZN52_$LT$$BP$const$u20$T$u20$as$u20$core..fmt..Debug$GT$3fmt17h1f0ecbf1b43940b8E>
  18:	9001      	str	r0, [sp, #4]
  1a:	e7ff      	b.n	1c <_ZN52_$LT$$BP$const$u20$T$u20$as$u20$core..fmt..Debug$GT$3fmt17h1f0ecbf1b43940b8E+0x1c>
  1c:	9801      	ldr	r0, [sp, #4]
  1e:	f000 0001 	and.w	r0, r0, #1
  22:	b006      	add	sp, #24
  24:	bd80      	pop	{r7, pc}

Disassembly of section .text._ZN54_$LT$$BP$const$u20$T$u20$as$u20$core..fmt..Pointer$GT$3fmt17hd2a13db4f57a64adE:

00000000 <_ZN54_$LT$$BP$const$u20$T$u20$as$u20$core..fmt..Pointer$GT$3fmt17hd2a13db4f57a64adE>:
_ZN54_$LT$$BP$const$u20$T$u20$as$u20$core..fmt..Pointer$GT$3fmt17hd2a13db4f57a64adE():
/rustc/50a0defd5a93523067ef239936cc2e0755220904/src/libcore/fmt/mod.rs:2007
   0:	b580      	push	{r7, lr}
   2:	b08c      	sub	sp, #48	; 0x30
   4:	460a      	mov	r2, r1
   6:	4603      	mov	r3, r0
   8:	9005      	str	r0, [sp, #20]
   a:	9106      	str	r1, [sp, #24]
/rustc/50a0defd5a93523067ef239936cc2e0755220904/src/libcore/fmt/mod.rs:2008
   c:	9806      	ldr	r0, [sp, #24]
   e:	6881      	ldr	r1, [r0, #8]
  10:	68c0      	ldr	r0, [r0, #12]
  12:	9107      	str	r1, [sp, #28]
  14:	9008      	str	r0, [sp, #32]
/rustc/50a0defd5a93523067ef239936cc2e0755220904/src/libcore/fmt/mod.rs:2009
  16:	9806      	ldr	r0, [sp, #24]
  18:	6800      	ldr	r0, [r0, #0]
  1a:	9009      	str	r0, [sp, #36]	; 0x24
/rustc/50a0defd5a93523067ef239936cc2e0755220904/src/libcore/fmt/mod.rs:2015
  1c:	9806      	ldr	r0, [sp, #24]
  1e:	9204      	str	r2, [sp, #16]
  20:	9303      	str	r3, [sp, #12]
  22:	f7ff fffe 	bl	0 <_ZN4core3fmt9Formatter9alternate17hd09f58cee14df2eeE>
  26:	9002      	str	r0, [sp, #8]
  28:	e7ff      	b.n	2a <_ZN54_$LT$$BP$const$u20$T$u20$as$u20$core..fmt..Pointer$GT$3fmt17hd2a13db4f57a64adE+0x2a>
  2a:	9802      	ldr	r0, [sp, #8]
  2c:	07c1      	lsls	r1, r0, #31
  2e:	2900      	cmp	r1, #0
  30:	d01c      	beq.n	6c <_ZN54_$LT$$BP$const$u20$T$u20$as$u20$core..fmt..Pointer$GT$3fmt17hd2a13db4f57a64adE+0x6c>
  32:	e7ff      	b.n	34 <_ZN54_$LT$$BP$const$u20$T$u20$as$u20$core..fmt..Pointer$GT$3fmt17hd2a13db4f57a64adE+0x34>
/rustc/50a0defd5a93523067ef239936cc2e0755220904/src/libcore/fmt/mod.rs:2016
  34:	9806      	ldr	r0, [sp, #24]
  36:	6801      	ldr	r1, [r0, #0]
  38:	f041 0108 	orr.w	r1, r1, #8
  3c:	6001      	str	r1, [r0, #0]
/rustc/50a0defd5a93523067ef239936cc2e0755220904/src/libcore/fmt/mod.rs:2018
  3e:	9806      	ldr	r0, [sp, #24]
  40:	6880      	ldr	r0, [r0, #8]
  42:	2800      	cmp	r0, #0
  44:	d112      	bne.n	6c <_ZN54_$LT$$BP$const$u20$T$u20$as$u20$core..fmt..Pointer$GT$3fmt17hd2a13db4f57a64adE+0x6c>
  46:	e7ff      	b.n	48 <_ZN54_$LT$$BP$const$u20$T$u20$as$u20$core..fmt..Pointer$GT$3fmt17hd2a13db4f57a64adE+0x48>
/rustc/50a0defd5a93523067ef239936cc2e0755220904/src/libcore/fmt/mod.rs:2019
  48:	f7ff fffe 	bl	0 <_ZN4core3mem7size_of17h033cda7c0b223844E>
  4c:	9001      	str	r0, [sp, #4]
  4e:	e7ff      	b.n	50 <_ZN54_$LT$$BP$const$u20$T$u20$as$u20$core..fmt..Pointer$GT$3fmt17hd2a13db4f57a64adE+0x50>
  50:	9801      	ldr	r0, [sp, #4]
  52:	00c1      	lsls	r1, r0, #3
  54:	9100      	str	r1, [sp, #0]
  56:	e7ff      	b.n	58 <_ZN54_$LT$$BP$const$u20$T$u20$as$u20$core..fmt..Pointer$GT$3fmt17hd2a13db4f57a64adE+0x58>
  58:	2002      	movs	r0, #2
  5a:	9900      	ldr	r1, [sp, #0]
  5c:	eb00 0091 	add.w	r0, r0, r1, lsr #2
  60:	9a06      	ldr	r2, [sp, #24]
  62:	60d0      	str	r0, [r2, #12]
  64:	9806      	ldr	r0, [sp, #24]
  66:	2201      	movs	r2, #1
  68:	6082      	str	r2, [r0, #8]
/rustc/50a0defd5a93523067ef239936cc2e0755220904/src/libcore/fmt/mod.rs:2018
  6a:	e7ff      	b.n	6c <_ZN54_$LT$$BP$const$u20$T$u20$as$u20$core..fmt..Pointer$GT$3fmt17hd2a13db4f57a64adE+0x6c>
/rustc/50a0defd5a93523067ef239936cc2e0755220904/src/libcore/fmt/mod.rs:2022
  6c:	9806      	ldr	r0, [sp, #24]
  6e:	6801      	ldr	r1, [r0, #0]
  70:	f041 0104 	orr.w	r1, r1, #4
  74:	6001      	str	r1, [r0, #0]
/rustc/50a0defd5a93523067ef239936cc2e0755220904/src/libcore/fmt/mod.rs:2024
  76:	9805      	ldr	r0, [sp, #20]
  78:	6800      	ldr	r0, [r0, #0]
  7a:	900b      	str	r0, [sp, #44]	; 0x2c
  7c:	9906      	ldr	r1, [sp, #24]
  7e:	a80b      	add	r0, sp, #44	; 0x2c
  80:	f7ff fffe 	bl	0 <_ZN4core3fmt3num55_$LT$impl$u20$core..fmt..LowerHex$u20$for$u20$usize$GT$3fmt17h562f60f4fbcc2e1dE>
  84:	f88d 002b 	strb.w	r0, [sp, #43]	; 0x2b
  88:	e7ff      	b.n	8a <_ZN54_$LT$$BP$const$u20$T$u20$as$u20$core..fmt..Pointer$GT$3fmt17hd2a13db4f57a64adE+0x8a>
/rustc/50a0defd5a93523067ef239936cc2e0755220904/src/libcore/fmt/mod.rs:2026
  8a:	9807      	ldr	r0, [sp, #28]
  8c:	9908      	ldr	r1, [sp, #32]
  8e:	9a06      	ldr	r2, [sp, #24]
  90:	6090      	str	r0, [r2, #8]
  92:	60d1      	str	r1, [r2, #12]
/rustc/50a0defd5a93523067ef239936cc2e0755220904/src/libcore/fmt/mod.rs:2027
  94:	9809      	ldr	r0, [sp, #36]	; 0x24
  96:	9906      	ldr	r1, [sp, #24]
  98:	6008      	str	r0, [r1, #0]
/rustc/50a0defd5a93523067ef239936cc2e0755220904/src/libcore/fmt/mod.rs:2029
  9a:	f89d 002b 	ldrb.w	r0, [sp, #43]	; 0x2b
/rustc/50a0defd5a93523067ef239936cc2e0755220904/src/libcore/fmt/mod.rs:2030
  9e:	b00c      	add	sp, #48	; 0x30
  a0:	bd80      	pop	{r7, pc}

Disassembly of section .text._ZN54_$LT$$BP$const$u20$T$u20$as$u20$core..fmt..Pointer$GT$3fmt17he4f54e4c19abbcc9E:

00000000 <_ZN54_$LT$$BP$const$u20$T$u20$as$u20$core..fmt..Pointer$GT$3fmt17he4f54e4c19abbcc9E>:
_ZN54_$LT$$BP$const$u20$T$u20$as$u20$core..fmt..Pointer$GT$3fmt17he4f54e4c19abbcc9E():
/rustc/50a0defd5a93523067ef239936cc2e0755220904/src/libcore/fmt/mod.rs:2007
   0:	b580      	push	{r7, lr}
   2:	b08c      	sub	sp, #48	; 0x30
   4:	460a      	mov	r2, r1
   6:	4603      	mov	r3, r0
   8:	9005      	str	r0, [sp, #20]
   a:	9106      	str	r1, [sp, #24]
/rustc/50a0defd5a93523067ef239936cc2e0755220904/src/libcore/fmt/mod.rs:2008
   c:	9806      	ldr	r0, [sp, #24]
   e:	6881      	ldr	r1, [r0, #8]
  10:	68c0      	ldr	r0, [r0, #12]
  12:	9107      	str	r1, [sp, #28]
  14:	9008      	str	r0, [sp, #32]
/rustc/50a0defd5a93523067ef239936cc2e0755220904/src/libcore/fmt/mod.rs:2009
  16:	9806      	ldr	r0, [sp, #24]
  18:	6800      	ldr	r0, [r0, #0]
  1a:	9009      	str	r0, [sp, #36]	; 0x24
/rustc/50a0defd5a93523067ef239936cc2e0755220904/src/libcore/fmt/mod.rs:2015
  1c:	9806      	ldr	r0, [sp, #24]
  1e:	9204      	str	r2, [sp, #16]
  20:	9303      	str	r3, [sp, #12]
  22:	f7ff fffe 	bl	0 <_ZN4core3fmt9Formatter9alternate17hd09f58cee14df2eeE>
  26:	9002      	str	r0, [sp, #8]
  28:	e7ff      	b.n	2a <_ZN54_$LT$$BP$const$u20$T$u20$as$u20$core..fmt..Pointer$GT$3fmt17he4f54e4c19abbcc9E+0x2a>
  2a:	9802      	ldr	r0, [sp, #8]
  2c:	07c1      	lsls	r1, r0, #31
  2e:	2900      	cmp	r1, #0
  30:	d01c      	beq.n	6c <_ZN54_$LT$$BP$const$u20$T$u20$as$u20$core..fmt..Pointer$GT$3fmt17he4f54e4c19abbcc9E+0x6c>
  32:	e7ff      	b.n	34 <_ZN54_$LT$$BP$const$u20$T$u20$as$u20$core..fmt..Pointer$GT$3fmt17he4f54e4c19abbcc9E+0x34>
/rustc/50a0defd5a93523067ef239936cc2e0755220904/src/libcore/fmt/mod.rs:2016
  34:	9806      	ldr	r0, [sp, #24]
  36:	6801      	ldr	r1, [r0, #0]
  38:	f041 0108 	orr.w	r1, r1, #8
  3c:	6001      	str	r1, [r0, #0]
/rustc/50a0defd5a93523067ef239936cc2e0755220904/src/libcore/fmt/mod.rs:2018
  3e:	9806      	ldr	r0, [sp, #24]
  40:	6880      	ldr	r0, [r0, #8]
  42:	2800      	cmp	r0, #0
  44:	d112      	bne.n	6c <_ZN54_$LT$$BP$const$u20$T$u20$as$u20$core..fmt..Pointer$GT$3fmt17he4f54e4c19abbcc9E+0x6c>
  46:	e7ff      	b.n	48 <_ZN54_$LT$$BP$const$u20$T$u20$as$u20$core..fmt..Pointer$GT$3fmt17he4f54e4c19abbcc9E+0x48>
/rustc/50a0defd5a93523067ef239936cc2e0755220904/src/libcore/fmt/mod.rs:2019
  48:	f7ff fffe 	bl	0 <_ZN4core3mem7size_of17h033cda7c0b223844E>
  4c:	9001      	str	r0, [sp, #4]
  4e:	e7ff      	b.n	50 <_ZN54_$LT$$BP$const$u20$T$u20$as$u20$core..fmt..Pointer$GT$3fmt17he4f54e4c19abbcc9E+0x50>
  50:	9801      	ldr	r0, [sp, #4]
  52:	00c1      	lsls	r1, r0, #3
  54:	9100      	str	r1, [sp, #0]
  56:	e7ff      	b.n	58 <_ZN54_$LT$$BP$const$u20$T$u20$as$u20$core..fmt..Pointer$GT$3fmt17he4f54e4c19abbcc9E+0x58>
  58:	2002      	movs	r0, #2
  5a:	9900      	ldr	r1, [sp, #0]
  5c:	eb00 0091 	add.w	r0, r0, r1, lsr #2
  60:	9a06      	ldr	r2, [sp, #24]
  62:	60d0      	str	r0, [r2, #12]
  64:	9806      	ldr	r0, [sp, #24]
  66:	2201      	movs	r2, #1
  68:	6082      	str	r2, [r0, #8]
/rustc/50a0defd5a93523067ef239936cc2e0755220904/src/libcore/fmt/mod.rs:2018
  6a:	e7ff      	b.n	6c <_ZN54_$LT$$BP$const$u20$T$u20$as$u20$core..fmt..Pointer$GT$3fmt17he4f54e4c19abbcc9E+0x6c>
/rustc/50a0defd5a93523067ef239936cc2e0755220904/src/libcore/fmt/mod.rs:2022
  6c:	9806      	ldr	r0, [sp, #24]
  6e:	6801      	ldr	r1, [r0, #0]
  70:	f041 0104 	orr.w	r1, r1, #4
  74:	6001      	str	r1, [r0, #0]
/rustc/50a0defd5a93523067ef239936cc2e0755220904/src/libcore/fmt/mod.rs:2024
  76:	9805      	ldr	r0, [sp, #20]
  78:	6800      	ldr	r0, [r0, #0]
  7a:	900b      	str	r0, [sp, #44]	; 0x2c
  7c:	9906      	ldr	r1, [sp, #24]
  7e:	a80b      	add	r0, sp, #44	; 0x2c
  80:	f7ff fffe 	bl	0 <_ZN4core3fmt3num55_$LT$impl$u20$core..fmt..LowerHex$u20$for$u20$usize$GT$3fmt17h562f60f4fbcc2e1dE>
  84:	f88d 002b 	strb.w	r0, [sp, #43]	; 0x2b
  88:	e7ff      	b.n	8a <_ZN54_$LT$$BP$const$u20$T$u20$as$u20$core..fmt..Pointer$GT$3fmt17he4f54e4c19abbcc9E+0x8a>
/rustc/50a0defd5a93523067ef239936cc2e0755220904/src/libcore/fmt/mod.rs:2026
  8a:	9807      	ldr	r0, [sp, #28]
  8c:	9908      	ldr	r1, [sp, #32]
  8e:	9a06      	ldr	r2, [sp, #24]
  90:	6090      	str	r0, [r2, #8]
  92:	60d1      	str	r1, [r2, #12]
/rustc/50a0defd5a93523067ef239936cc2e0755220904/src/libcore/fmt/mod.rs:2027
  94:	9809      	ldr	r0, [sp, #36]	; 0x24
  96:	9906      	ldr	r1, [sp, #24]
  98:	6008      	str	r0, [r1, #0]
/rustc/50a0defd5a93523067ef239936cc2e0755220904/src/libcore/fmt/mod.rs:2029
  9a:	f89d 002b 	ldrb.w	r0, [sp, #43]	; 0x2b
/rustc/50a0defd5a93523067ef239936cc2e0755220904/src/libcore/fmt/mod.rs:2030
  9e:	b00c      	add	sp, #48	; 0x30
  a0:	bd80      	pop	{r7, pc}

mylib-ac95891f38e7979c.qtt5z7aexjho3ih.rcgu.o:     file format elf32-littlearm

SYMBOL TABLE:
00000000 l    df *ABS*	00000000 qtt5z7aexjho3ih
00000000 l       .debug_str	00000000 
00000041 l       .debug_str	00000000 
0000004c l       .debug_str	00000000 
0000006f l       .debug_str	00000000 
00000074 l       .debug_str	00000000 
0000007b l       .debug_str	00000000 
0000007e l       .debug_str	00000000 
00000081 l       .debug_str	00000000 
00000085 l       .debug_str	00000000 
0000008c l       .debug_str	00000000 
00000090 l       .debug_str	00000000 
0000009b l       .debug_str	00000000 
000000a6 l       .debug_str	00000000 
000000ad l       .debug_str	00000000 
000000b1 l       .debug_str	00000000 
000000b4 l       .debug_str	00000000 
000000b7 l       .debug_str	00000000 
000000bc l       .debug_str	00000000 
000000c2 l       .debug_str	00000000 
000000c9 l       .debug_str	00000000 
000000d1 l       .debug_str	00000000 
000000db l       .debug_str	00000000 
000000e4 l       .debug_str	00000000 
000000fb l       .debug_str	00000000 
000000fd l       .debug_str	00000000 
00000145 l       .debug_str	00000000 
00000161 l       .debug_str	00000000 
000001b1 l       .debug_str	00000000 
000001c8 l       .debug_str	00000000 
0000021a l       .debug_str	00000000 
0000026e l       .debug_str	00000000 
00000273 l       .debug_str	00000000 
0000028b l       .debug_str	00000000 
000002a4 l       .debug_str	00000000 
000002a6 l       .debug_str	00000000 
000002ac l       .debug_str	00000000 
000002b0 l       .debug_str	00000000 
000002b5 l       .debug_str	00000000 
000002ba l       .debug_str	00000000 
000002c0 l       .debug_str	00000000 
000002c6 l       .debug_str	00000000 
000002cd l       .debug_str	00000000 
000002d2 l       .debug_str	00000000 
000002d8 l       .debug_str	00000000 
000002dd l       .debug_str	00000000 
000002e1 l       .debug_str	00000000 
000002ef l       .debug_str	00000000 
000002f9 l       .debug_str	00000000 
000002fd l       .debug_str	00000000 
00000305 l       .debug_str	00000000 
0000030d l       .debug_str	00000000 
00000314 l       .debug_str	00000000 
00000328 l       .debug_str	00000000 
00000334 l       .debug_str	00000000 
0000033f l       .debug_str	00000000 
00000346 l       .debug_str	00000000 
0000034c l       .debug_str	00000000 
00000350 l       .debug_str	00000000 
00000356 l       .debug_str	00000000 
0000035c l       .debug_str	00000000 
0000035f l       .debug_str	00000000 
0000036e l       .debug_str	00000000 
00000375 l       .debug_str	00000000 
00000379 l       .debug_str	00000000 
00000382 l       .debug_str	00000000 
0000038e l       .debug_str	00000000 
000003a7 l       .debug_str	00000000 
000003ac l       .debug_str	00000000 
000003bd l       .debug_str	00000000 
000003c7 l       .debug_str	00000000 
00000425 l       .debug_str	00000000 
00000430 l       .debug_str	00000000 
0000044d l       .debug_str	00000000 
00000451 l       .debug_str	00000000 
00000459 l       .debug_str	00000000 
00000470 l       .debug_str	00000000 
00000494 l       .debug_str	00000000 
000004b0 l       .debug_str	00000000 
000004b5 l       .debug_str	00000000 
000004be l       .debug_str	00000000 
000004c5 l       .debug_str	00000000 
000004de l       .debug_str	00000000 
000004e8 l       .debug_str	00000000 
00000502 l       .debug_str	00000000 
0000051b l       .debug_str	00000000 
00000535 l       .debug_str	00000000 
0000053f l       .debug_str	00000000 
00000549 l       .debug_str	00000000 
00000000 l    d  .text._ZN42_$LT$$RF$T$u20$as$u20$core..fmt..Debug$GT$3fmt17h1c0d5056315a9ef1E	00000000 .text._ZN42_$LT$$RF$T$u20$as$u20$core..fmt..Debug$GT$3fmt17h1c0d5056315a9ef1E
00000000 l    d  .text._ZN50_$LT$$BP$mut$u20$T$u20$as$u20$core..fmt..Debug$GT$3fmt17he6fad86a2695427eE	00000000 .text._ZN50_$LT$$BP$mut$u20$T$u20$as$u20$core..fmt..Debug$GT$3fmt17he6fad86a2695427eE
00000000 l    d  .text._ZN52_$LT$$BP$mut$u20$T$u20$as$u20$core..fmt..Pointer$GT$3fmt17hb121d45b1b1c1ac1E	00000000 .text._ZN52_$LT$$BP$mut$u20$T$u20$as$u20$core..fmt..Pointer$GT$3fmt17hb121d45b1b1c1ac1E
00000000 l    d  .text._ZN54_$LT$$BP$const$u20$T$u20$as$u20$core..fmt..Pointer$GT$3fmt17h2a0c6005f019d940E	00000000 .text._ZN54_$LT$$BP$const$u20$T$u20$as$u20$core..fmt..Pointer$GT$3fmt17h2a0c6005f019d940E
00000000 l    d  .debug_abbrev	00000000 .debug_abbrev
00000000 l    d  .debug_info	00000000 .debug_info
00000000 l    d  .debug_ranges	00000000 .debug_ranges
00000000 l    d  .debug_frame	00000000 .debug_frame
00000000 l    d  .debug_line	00000000 .debug_line
00000000 g     F .text._ZN42_$LT$$RF$T$u20$as$u20$core..fmt..Debug$GT$3fmt17h1c0d5056315a9ef1E	00000028 _ZN42_$LT$$RF$T$u20$as$u20$core..fmt..Debug$GT$3fmt17h1c0d5056315a9ef1E
00000000         *UND*	00000000 _ZN4core3fmt3num55_$LT$impl$u20$core..fmt..LowerHex$u20$for$u20$usize$GT$3fmt17h562f60f4fbcc2e1dE
00000000         *UND*	00000000 _ZN4core3fmt9Formatter9alternate17hd09f58cee14df2eeE
00000000         *UND*	00000000 _ZN4core3mem7size_of17h033cda7c0b223844E
00000000 g     F .text._ZN50_$LT$$BP$mut$u20$T$u20$as$u20$core..fmt..Debug$GT$3fmt17he6fad86a2695427eE	00000026 _ZN50_$LT$$BP$mut$u20$T$u20$as$u20$core..fmt..Debug$GT$3fmt17he6fad86a2695427eE
00000000 g     F .text._ZN52_$LT$$BP$mut$u20$T$u20$as$u20$core..fmt..Pointer$GT$3fmt17hb121d45b1b1c1ac1E	0000002c _ZN52_$LT$$BP$mut$u20$T$u20$as$u20$core..fmt..Pointer$GT$3fmt17hb121d45b1b1c1ac1E
00000000 g     F .text._ZN54_$LT$$BP$const$u20$T$u20$as$u20$core..fmt..Pointer$GT$3fmt17h2a0c6005f019d940E	000000a2 _ZN54_$LT$$BP$const$u20$T$u20$as$u20$core..fmt..Pointer$GT$3fmt17h2a0c6005f019d940E



Disassembly of section .text._ZN42_$LT$$RF$T$u20$as$u20$core..fmt..Debug$GT$3fmt17h1c0d5056315a9ef1E:

00000000 <_ZN42_$LT$$RF$T$u20$as$u20$core..fmt..Debug$GT$3fmt17h1c0d5056315a9ef1E>:
_ZN42_$LT$$RF$T$u20$as$u20$core..fmt..Debug$GT$3fmt17h1c0d5056315a9ef1E():
/rustc/50a0defd5a93523067ef239936cc2e0755220904/src/libcore/fmt/mod.rs:1914
   0:	b580      	push	{r7, lr}
   2:	b086      	sub	sp, #24
   4:	460a      	mov	r2, r1
   6:	4603      	mov	r3, r0
   8:	9004      	str	r0, [sp, #16]
   a:	9105      	str	r1, [sp, #20]
   c:	9804      	ldr	r0, [sp, #16]
   e:	6800      	ldr	r0, [r0, #0]
  10:	9905      	ldr	r1, [sp, #20]
  12:	9203      	str	r2, [sp, #12]
  14:	9302      	str	r3, [sp, #8]
  16:	f7ff fffe 	bl	0 <_ZN42_$LT$$RF$T$u20$as$u20$core..fmt..Debug$GT$3fmt17h1c0d5056315a9ef1E>
  1a:	9001      	str	r0, [sp, #4]
  1c:	e7ff      	b.n	1e <_ZN42_$LT$$RF$T$u20$as$u20$core..fmt..Debug$GT$3fmt17h1c0d5056315a9ef1E+0x1e>
  1e:	9801      	ldr	r0, [sp, #4]
  20:	f000 0001 	and.w	r0, r0, #1
  24:	b006      	add	sp, #24
  26:	bd80      	pop	{r7, pc}

Disassembly of section .text._ZN50_$LT$$BP$mut$u20$T$u20$as$u20$core..fmt..Debug$GT$3fmt17he6fad86a2695427eE:

00000000 <_ZN50_$LT$$BP$mut$u20$T$u20$as$u20$core..fmt..Debug$GT$3fmt17he6fad86a2695427eE>:
_ZN50_$LT$$BP$mut$u20$T$u20$as$u20$core..fmt..Debug$GT$3fmt17he6fad86a2695427eE():
/rustc/50a0defd5a93523067ef239936cc2e0755220904/src/libcore/fmt/mod.rs:2062
   0:	b580      	push	{r7, lr}
   2:	b086      	sub	sp, #24
   4:	460a      	mov	r2, r1
   6:	4603      	mov	r3, r0
   8:	9004      	str	r0, [sp, #16]
   a:	9105      	str	r1, [sp, #20]
   c:	9804      	ldr	r0, [sp, #16]
   e:	9905      	ldr	r1, [sp, #20]
  10:	9203      	str	r2, [sp, #12]
  12:	9302      	str	r3, [sp, #8]
  14:	f7ff fffe 	bl	0 <_ZN50_$LT$$BP$mut$u20$T$u20$as$u20$core..fmt..Debug$GT$3fmt17he6fad86a2695427eE>
  18:	9001      	str	r0, [sp, #4]
  1a:	e7ff      	b.n	1c <_ZN50_$LT$$BP$mut$u20$T$u20$as$u20$core..fmt..Debug$GT$3fmt17he6fad86a2695427eE+0x1c>
  1c:	9801      	ldr	r0, [sp, #4]
  1e:	f000 0001 	and.w	r0, r0, #1
  22:	b006      	add	sp, #24
  24:	bd80      	pop	{r7, pc}

Disassembly of section .text._ZN52_$LT$$BP$mut$u20$T$u20$as$u20$core..fmt..Pointer$GT$3fmt17hb121d45b1b1c1ac1E:

00000000 <_ZN52_$LT$$BP$mut$u20$T$u20$as$u20$core..fmt..Pointer$GT$3fmt17hb121d45b1b1c1ac1E>:
_ZN52_$LT$$BP$mut$u20$T$u20$as$u20$core..fmt..Pointer$GT$3fmt17hb121d45b1b1c1ac1E():
/rustc/50a0defd5a93523067ef239936cc2e0755220904/src/libcore/fmt/mod.rs:2035
   0:	b580      	push	{r7, lr}
   2:	b086      	sub	sp, #24
   4:	460a      	mov	r2, r1
   6:	4603      	mov	r3, r0
   8:	9003      	str	r0, [sp, #12]
   a:	9104      	str	r1, [sp, #16]
/rustc/50a0defd5a93523067ef239936cc2e0755220904/src/libcore/fmt/mod.rs:2036
   c:	9803      	ldr	r0, [sp, #12]
   e:	6800      	ldr	r0, [r0, #0]
  10:	9005      	str	r0, [sp, #20]
  12:	9904      	ldr	r1, [sp, #16]
  14:	a805      	add	r0, sp, #20
  16:	9202      	str	r2, [sp, #8]
  18:	9301      	str	r3, [sp, #4]
  1a:	f7ff fffe 	bl	0 <_ZN52_$LT$$BP$mut$u20$T$u20$as$u20$core..fmt..Pointer$GT$3fmt17hb121d45b1b1c1ac1E>
  1e:	9000      	str	r0, [sp, #0]
  20:	e7ff      	b.n	22 <_ZN52_$LT$$BP$mut$u20$T$u20$as$u20$core..fmt..Pointer$GT$3fmt17hb121d45b1b1c1ac1E+0x22>
/rustc/50a0defd5a93523067ef239936cc2e0755220904/src/libcore/fmt/mod.rs:2037
  22:	9800      	ldr	r0, [sp, #0]
  24:	f000 0001 	and.w	r0, r0, #1
  28:	b006      	add	sp, #24
  2a:	bd80      	pop	{r7, pc}

Disassembly of section .text._ZN54_$LT$$BP$const$u20$T$u20$as$u20$core..fmt..Pointer$GT$3fmt17h2a0c6005f019d940E:

00000000 <_ZN54_$LT$$BP$const$u20$T$u20$as$u20$core..fmt..Pointer$GT$3fmt17h2a0c6005f019d940E>:
_ZN54_$LT$$BP$const$u20$T$u20$as$u20$core..fmt..Pointer$GT$3fmt17h2a0c6005f019d940E():
/rustc/50a0defd5a93523067ef239936cc2e0755220904/src/libcore/fmt/mod.rs:2007
   0:	b580      	push	{r7, lr}
   2:	b08c      	sub	sp, #48	; 0x30
   4:	460a      	mov	r2, r1
   6:	4603      	mov	r3, r0
   8:	9005      	str	r0, [sp, #20]
   a:	9106      	str	r1, [sp, #24]
/rustc/50a0defd5a93523067ef239936cc2e0755220904/src/libcore/fmt/mod.rs:2008
   c:	9806      	ldr	r0, [sp, #24]
   e:	6881      	ldr	r1, [r0, #8]
  10:	68c0      	ldr	r0, [r0, #12]
  12:	9107      	str	r1, [sp, #28]
  14:	9008      	str	r0, [sp, #32]
/rustc/50a0defd5a93523067ef239936cc2e0755220904/src/libcore/fmt/mod.rs:2009
  16:	9806      	ldr	r0, [sp, #24]
  18:	6800      	ldr	r0, [r0, #0]
  1a:	9009      	str	r0, [sp, #36]	; 0x24
/rustc/50a0defd5a93523067ef239936cc2e0755220904/src/libcore/fmt/mod.rs:2015
  1c:	9806      	ldr	r0, [sp, #24]
  1e:	9204      	str	r2, [sp, #16]
  20:	9303      	str	r3, [sp, #12]
  22:	f7ff fffe 	bl	0 <_ZN4core3fmt9Formatter9alternate17hd09f58cee14df2eeE>
  26:	9002      	str	r0, [sp, #8]
  28:	e7ff      	b.n	2a <_ZN54_$LT$$BP$const$u20$T$u20$as$u20$core..fmt..Pointer$GT$3fmt17h2a0c6005f019d940E+0x2a>
  2a:	9802      	ldr	r0, [sp, #8]
  2c:	07c1      	lsls	r1, r0, #31
  2e:	2900      	cmp	r1, #0
  30:	d01c      	beq.n	6c <_ZN54_$LT$$BP$const$u20$T$u20$as$u20$core..fmt..Pointer$GT$3fmt17h2a0c6005f019d940E+0x6c>
  32:	e7ff      	b.n	34 <_ZN54_$LT$$BP$const$u20$T$u20$as$u20$core..fmt..Pointer$GT$3fmt17h2a0c6005f019d940E+0x34>
/rustc/50a0defd5a93523067ef239936cc2e0755220904/src/libcore/fmt/mod.rs:2016
  34:	9806      	ldr	r0, [sp, #24]
  36:	6801      	ldr	r1, [r0, #0]
  38:	f041 0108 	orr.w	r1, r1, #8
  3c:	6001      	str	r1, [r0, #0]
/rustc/50a0defd5a93523067ef239936cc2e0755220904/src/libcore/fmt/mod.rs:2018
  3e:	9806      	ldr	r0, [sp, #24]
  40:	6880      	ldr	r0, [r0, #8]
  42:	2800      	cmp	r0, #0
  44:	d112      	bne.n	6c <_ZN54_$LT$$BP$const$u20$T$u20$as$u20$core..fmt..Pointer$GT$3fmt17h2a0c6005f019d940E+0x6c>
  46:	e7ff      	b.n	48 <_ZN54_$LT$$BP$const$u20$T$u20$as$u20$core..fmt..Pointer$GT$3fmt17h2a0c6005f019d940E+0x48>
/rustc/50a0defd5a93523067ef239936cc2e0755220904/src/libcore/fmt/mod.rs:2019
  48:	f7ff fffe 	bl	0 <_ZN4core3mem7size_of17h033cda7c0b223844E>
  4c:	9001      	str	r0, [sp, #4]
  4e:	e7ff      	b.n	50 <_ZN54_$LT$$BP$const$u20$T$u20$as$u20$core..fmt..Pointer$GT$3fmt17h2a0c6005f019d940E+0x50>
  50:	9801      	ldr	r0, [sp, #4]
  52:	00c1      	lsls	r1, r0, #3
  54:	9100      	str	r1, [sp, #0]
  56:	e7ff      	b.n	58 <_ZN54_$LT$$BP$const$u20$T$u20$as$u20$core..fmt..Pointer$GT$3fmt17h2a0c6005f019d940E+0x58>
  58:	2002      	movs	r0, #2
  5a:	9900      	ldr	r1, [sp, #0]
  5c:	eb00 0091 	add.w	r0, r0, r1, lsr #2
  60:	9a06      	ldr	r2, [sp, #24]
  62:	60d0      	str	r0, [r2, #12]
  64:	9806      	ldr	r0, [sp, #24]
  66:	2201      	movs	r2, #1
  68:	6082      	str	r2, [r0, #8]
/rustc/50a0defd5a93523067ef239936cc2e0755220904/src/libcore/fmt/mod.rs:2018
  6a:	e7ff      	b.n	6c <_ZN54_$LT$$BP$const$u20$T$u20$as$u20$core..fmt..Pointer$GT$3fmt17h2a0c6005f019d940E+0x6c>
/rustc/50a0defd5a93523067ef239936cc2e0755220904/src/libcore/fmt/mod.rs:2022
  6c:	9806      	ldr	r0, [sp, #24]
  6e:	6801      	ldr	r1, [r0, #0]
  70:	f041 0104 	orr.w	r1, r1, #4
  74:	6001      	str	r1, [r0, #0]
/rustc/50a0defd5a93523067ef239936cc2e0755220904/src/libcore/fmt/mod.rs:2024
  76:	9805      	ldr	r0, [sp, #20]
  78:	6800      	ldr	r0, [r0, #0]
  7a:	900b      	str	r0, [sp, #44]	; 0x2c
  7c:	9906      	ldr	r1, [sp, #24]
  7e:	a80b      	add	r0, sp, #44	; 0x2c
  80:	f7ff fffe 	bl	0 <_ZN4core3fmt3num55_$LT$impl$u20$core..fmt..LowerHex$u20$for$u20$usize$GT$3fmt17h562f60f4fbcc2e1dE>
  84:	f88d 002b 	strb.w	r0, [sp, #43]	; 0x2b
  88:	e7ff      	b.n	8a <_ZN54_$LT$$BP$const$u20$T$u20$as$u20$core..fmt..Pointer$GT$3fmt17h2a0c6005f019d940E+0x8a>
/rustc/50a0defd5a93523067ef239936cc2e0755220904/src/libcore/fmt/mod.rs:2026
  8a:	9807      	ldr	r0, [sp, #28]
  8c:	9908      	ldr	r1, [sp, #32]
  8e:	9a06      	ldr	r2, [sp, #24]
  90:	6090      	str	r0, [r2, #8]
  92:	60d1      	str	r1, [r2, #12]
/rustc/50a0defd5a93523067ef239936cc2e0755220904/src/libcore/fmt/mod.rs:2027
  94:	9809      	ldr	r0, [sp, #36]	; 0x24
  96:	9906      	ldr	r1, [sp, #24]
  98:	6008      	str	r0, [r1, #0]
/rustc/50a0defd5a93523067ef239936cc2e0755220904/src/libcore/fmt/mod.rs:2029
  9a:	f89d 002b 	ldrb.w	r0, [sp, #43]	; 0x2b
/rustc/50a0defd5a93523067ef239936cc2e0755220904/src/libcore/fmt/mod.rs:2030
  9e:	b00c      	add	sp, #48	; 0x30
  a0:	bd80      	pop	{r7, pc}
arm-none-eabi-objdump: rust.metadata.bin: file format not recognized
arm-none-eabi-objdump: mylib-ac95891f38e7979c.1b7do7e5i4j0exrn.rcgu.bc.z: file format not recognized
arm-none-eabi-objdump: mylib-ac95891f38e7979c.1p0bleeal0c8ffkh.rcgu.bc.z: file format not recognized
arm-none-eabi-objdump: mylib-ac95891f38e7979c.1sy4lk16z0utqsak.rcgu.bc.z: file format not recognized
arm-none-eabi-objdump: mylib-ac95891f38e7979c.26updx3t07wdtj2j.rcgu.bc.z: file format not recognized
arm-none-eabi-objdump: mylib-ac95891f38e7979c.29x7oqvwgrpr4c8r.rcgu.bc.z: file format not recognized
arm-none-eabi-objdump: mylib-ac95891f38e7979c.2k4h3n1psy8odh4v.rcgu.bc.z: file format not recognized
arm-none-eabi-objdump: mylib-ac95891f38e7979c.341gx5szusdqfzd3.rcgu.bc.z: file format not recognized
arm-none-eabi-objdump: mylib-ac95891f38e7979c.39numqykf0lihsq7.rcgu.bc.z: file format not recognized
arm-none-eabi-objdump: mylib-ac95891f38e7979c.3bbvzv7pip6h5983.rcgu.bc.z: file format not recognized
arm-none-eabi-objdump: mylib-ac95891f38e7979c.3rzqljy00d1p0zrg.rcgu.bc.z: file format not recognized
arm-none-eabi-objdump: mylib-ac95891f38e7979c.4497fvddxy6cb2a7.rcgu.bc.z: file format not recognized
arm-none-eabi-objdump: mylib-ac95891f38e7979c.4c5oiq6sgmojh33d.rcgu.bc.z: file format not recognized
arm-none-eabi-objdump: mylib-ac95891f38e7979c.4fs43327d33gbryi.rcgu.bc.z: file format not recognized
arm-none-eabi-objdump: mylib-ac95891f38e7979c.4gfa6aki8v0cc60q.rcgu.bc.z: file format not recognized
arm-none-eabi-objdump: mylib-ac95891f38e7979c.4q7xp3fheufr030k.rcgu.bc.z: file format not recognized
arm-none-eabi-objdump: mylib-ac95891f38e7979c.4qnbhyi3l9cd8p4p.rcgu.bc.z: file format not recognized
arm-none-eabi-objdump: mylib-ac95891f38e7979c.541s4ibcgernpkgl.rcgu.bc.z: file format not recognized
arm-none-eabi-objdump: mylib-ac95891f38e7979c.5a1y3gwwctyoomvh.rcgu.bc.z: file format not recognized
arm-none-eabi-objdump: mylib-ac95891f38e7979c.gf4ix36rm4u0qfa.rcgu.bc.z: file format not recognized
arm-none-eabi-objdump: mylib-ac95891f38e7979c.qtt5z7aexjho3ih.rcgu.bc.z: file format not recognized
