In archive target/thumbv7m-none-eabi/debug/libmylib.rlib:

mylib-b003fcb153d61cda.11mj9j4qeikoz7a8.rcgu.o:     file format elf32-littlearm

SYMBOL TABLE:
00000000 l    df *ABS*	00000000 11mj9j4qeikoz7a8
00000df6 l       .debug_str	00000000 
00000fff l       .debug_str	00000000 
00001053 l       .debug_str	00000000 
0000105b l       .debug_str	00000000 
00001060 l       .debug_str	00000000 
000010ac l       .debug_str	00000000 
000010f9 l       .debug_str	00000000 
000010fb l       .debug_str	00000000 
00001100 l       .debug_str	00000000 
00001106 l       .debug_str	00000000 
00001151 l       .debug_str	00000000 
0000119d l       .debug_str	00000000 
000011ea l       .debug_str	00000000 
00001238 l       .debug_str	00000000 
00001285 l       .debug_str	00000000 
000012d3 l       .debug_str	00000000 
00001320 l       .debug_str	00000000 
0000136e l       .debug_str	00000000 
000013cd l       .debug_str	00000000 
0000142d l       .debug_str	00000000 
00001432 l       .debug_str	00000000 
00001438 l       .debug_str	00000000 
00001485 l       .debug_str	00000000 
000014d3 l       .debug_str	00000000 
0000152b l       .debug_str	00000000 
00001584 l       .debug_str	00000000 
0000158a l       .debug_str	00000000 
0000158c l       .debug_str	00000000 
000015df l       .debug_str	00000000 
00001631 l       .debug_str	00000000 
0000163b l       .debug_str	00000000 
00001646 l       .debug_str	00000000 
00001650 l       .debug_str	00000000 
0000165a l       .debug_str	00000000 
00000000 l       .debug_str	00000000 
00000041 l       .debug_str	00000000 
0000004c l       .debug_str	00000000 
0000007c l       .debug_str	00000000 
00000081 l       .debug_str	00000000 
00000088 l       .debug_str	00000000 
0000008b l       .debug_str	00000000 
0000008e l       .debug_str	00000000 
00000092 l       .debug_str	00000000 
00000099 l       .debug_str	00000000 
0000009d l       .debug_str	00000000 
000000a0 l       .debug_str	00000000 
000000a3 l       .debug_str	00000000 
000000a8 l       .debug_str	00000000 
000000ae l       .debug_str	00000000 
000000b5 l       .debug_str	00000000 
000000bd l       .debug_str	00000000 
000000c7 l       .debug_str	00000000 
000000d0 l       .debug_str	00000000 
000000d6 l       .debug_str	00000000 
000000dc l       .debug_str	00000000 
000000df l       .debug_str	00000000 
000000ee l       .debug_str	00000000 
000000f5 l       .debug_str	00000000 
000000f9 l       .debug_str	00000000 
00000102 l       .debug_str	00000000 
0000010a l       .debug_str	00000000 
00000112 l       .debug_str	00000000 
00000119 l       .debug_str	00000000 
0000011f l       .debug_str	00000000 
00000133 l       .debug_str	00000000 
0000013f l       .debug_str	00000000 
0000014b l       .debug_str	00000000 
0000014d l       .debug_str	00000000 
00000166 l       .debug_str	00000000 
0000016b l       .debug_str	00000000 
0000017c l       .debug_str	00000000 
00000186 l       .debug_str	00000000 
0000018c l       .debug_str	00000000 
00000190 l       .debug_str	00000000 
00000195 l       .debug_str	00000000 
0000019a l       .debug_str	00000000 
000001a0 l       .debug_str	00000000 
000001a6 l       .debug_str	00000000 
000001ad l       .debug_str	00000000 
000001b2 l       .debug_str	00000000 
000001b7 l       .debug_str	00000000 
000001bb l       .debug_str	00000000 
000001c9 l       .debug_str	00000000 
000001d3 l       .debug_str	00000000 
000001d7 l       .debug_str	00000000 
000001e2 l       .debug_str	00000000 
000001e9 l       .debug_str	00000000 
000001ef l       .debug_str	00000000 
000001f3 l       .debug_str	00000000 
00000210 l       .debug_str	00000000 
00000214 l       .debug_str	00000000 
0000021c l       .debug_str	00000000 
00000233 l       .debug_str	00000000 
00000257 l       .debug_str	00000000 
00000273 l       .debug_str	00000000 
00000278 l       .debug_str	00000000 
00000281 l       .debug_str	00000000 
00000288 l       .debug_str	00000000 
000002a1 l       .debug_str	00000000 
000002ab l       .debug_str	00000000 
000002c5 l       .debug_str	00000000 
00000323 l       .debug_str	00000000 
0000032e l       .debug_str	00000000 
00000334 l       .debug_str	00000000 
0000033d l       .debug_str	00000000 
00000342 l       .debug_str	00000000 
0000034f l       .debug_str	00000000 
000003a2 l       .debug_str	00000000 
000003a8 l       .debug_str	00000000 
000003ac l       .debug_str	00000000 
000003b0 l       .debug_str	00000000 
000003fc l       .debug_str	00000000 
00000450 l       .debug_str	00000000 
00000456 l       .debug_str	00000000 
000004a2 l       .debug_str	00000000 
000004f6 l       .debug_str	00000000 
000004fc l       .debug_str	00000000 
00000500 l       .debug_str	00000000 
0000054c l       .debug_str	00000000 
000005a0 l       .debug_str	00000000 
000005a4 l       .debug_str	00000000 
00000602 l       .debug_str	00000000 
00000668 l       .debug_str	00000000 
0000066c l       .debug_str	00000000 
00000679 l       .debug_str	00000000 
0000068d l       .debug_str	00000000 
000006b7 l       .debug_str	00000000 
00000702 l       .debug_str	00000000 
0000074a l       .debug_str	00000000 
0000079a l       .debug_str	00000000 
000007e2 l       .debug_str	00000000 
000007eb l       .debug_str	00000000 
000007ef l       .debug_str	00000000 
000007f5 l       .debug_str	00000000 
000007ff l       .debug_str	00000000 
0000084b l       .debug_str	00000000 
0000089f l       .debug_str	00000000 
000008a4 l       .debug_str	00000000 
000008f6 l       .debug_str	00000000 
00000903 l       .debug_str	00000000 
00000928 l       .debug_str	00000000 
0000092d l       .debug_str	00000000 
00000948 l       .debug_str	00000000 
00000992 l       .debug_str	00000000 
000009da l       .debug_str	00000000 
00000a29 l       .debug_str	00000000 
00000a71 l       .debug_str	00000000 
00000ac2 l       .debug_str	00000000 
00000b0a l       .debug_str	00000000 
00000b5b l       .debug_str	00000000 
00000ba3 l       .debug_str	00000000 
00000bf4 l       .debug_str	00000000 
00000c3c l       .debug_str	00000000 
00000c9f l       .debug_str	00000000 
00000ce7 l       .debug_str	00000000 
00000cf0 l       .debug_str	00000000 
00000d38 l       .debug_str	00000000 
00000d89 l       .debug_str	00000000 
00000de8 l       .debug_str	00000000 
00000e0a l       .debug_str	00000000 
00000e34 l       .debug_str	00000000 
00000e8b l       .debug_str	00000000 
00000ed3 l       .debug_str	00000000 
00000f2f l       .debug_str	00000000 
00000f32 l       .debug_str	00000000 
00000f7c l       .debug_str	00000000 
00000f85 l       .debug_str	00000000 
00000f8a l       .debug_str	00000000 
00000fbb l       .debug_str	00000000 
00000fc5 l       .debug_str	00000000 
00000ff6 l       .debug_str	00000000 
00000000 l    d  .text._ZN42_$LT$$RF$T$u20$as$u20$core..fmt..Debug$GT$3fmt17h18c0495a2dbbf2d0E	00000000 .text._ZN42_$LT$$RF$T$u20$as$u20$core..fmt..Debug$GT$3fmt17h18c0495a2dbbf2d0E
00000000 l    d  .text._ZN42_$LT$$RF$T$u20$as$u20$core..fmt..Debug$GT$3fmt17h247b450a62ac622cE	00000000 .text._ZN42_$LT$$RF$T$u20$as$u20$core..fmt..Debug$GT$3fmt17h247b450a62ac622cE
00000000 l    d  .text._ZN42_$LT$$RF$T$u20$as$u20$core..fmt..Debug$GT$3fmt17h7ca9da276f8c8ee3E	00000000 .text._ZN42_$LT$$RF$T$u20$as$u20$core..fmt..Debug$GT$3fmt17h7ca9da276f8c8ee3E
00000000 l    d  .text._ZN42_$LT$$RF$T$u20$as$u20$core..fmt..Debug$GT$3fmt17h8144b902ff78eb2fE	00000000 .text._ZN42_$LT$$RF$T$u20$as$u20$core..fmt..Debug$GT$3fmt17h8144b902ff78eb2fE
00000000 l    d  .text._ZN42_$LT$$RF$T$u20$as$u20$core..fmt..Debug$GT$3fmt17h8272ca58177595d3E	00000000 .text._ZN42_$LT$$RF$T$u20$as$u20$core..fmt..Debug$GT$3fmt17h8272ca58177595d3E
00000000 l    d  .text._ZN42_$LT$$RF$T$u20$as$u20$core..fmt..Debug$GT$3fmt17h8709e7fb29ff5507E	00000000 .text._ZN42_$LT$$RF$T$u20$as$u20$core..fmt..Debug$GT$3fmt17h8709e7fb29ff5507E
00000000 l    d  .text._ZN42_$LT$$RF$T$u20$as$u20$core..fmt..Debug$GT$3fmt17h96477941bf30f3a2E	00000000 .text._ZN42_$LT$$RF$T$u20$as$u20$core..fmt..Debug$GT$3fmt17h96477941bf30f3a2E
00000000 l    d  .text._ZN42_$LT$$RF$T$u20$as$u20$core..fmt..Debug$GT$3fmt17haa044a67e90314e2E	00000000 .text._ZN42_$LT$$RF$T$u20$as$u20$core..fmt..Debug$GT$3fmt17haa044a67e90314e2E
00000000 l    d  .text._ZN42_$LT$$RF$T$u20$as$u20$core..fmt..Debug$GT$3fmt17he869134b4544e004E	00000000 .text._ZN42_$LT$$RF$T$u20$as$u20$core..fmt..Debug$GT$3fmt17he869134b4544e004E
00000000 l    d  .text._ZN42_$LT$$RF$T$u20$as$u20$core..fmt..Debug$GT$3fmt17hf23787e6c6e23e88E	00000000 .text._ZN42_$LT$$RF$T$u20$as$u20$core..fmt..Debug$GT$3fmt17hf23787e6c6e23e88E
00000000 l    d  .text._ZN44_$LT$$RF$T$u20$as$u20$core..fmt..Display$GT$3fmt17h4533063c292a1bf4E	00000000 .text._ZN44_$LT$$RF$T$u20$as$u20$core..fmt..Display$GT$3fmt17h4533063c292a1bf4E
00000000 l    d  .text._ZN4core3fmt10ArgumentV13new17hc3a720c8f5dbc78aE	00000000 .text._ZN4core3fmt10ArgumentV13new17hc3a720c8f5dbc78aE
00000000 l    d  .text._ZN4core3fmt10ArgumentV13new17he96b0bb5e87d0237E	00000000 .text._ZN4core3fmt10ArgumentV13new17he96b0bb5e87d0237E
00000000 l    d  .text._ZN54_$LT$$BP$const$u20$T$u20$as$u20$core..fmt..Pointer$GT$3fmt17h0481ba7e57c1de15E	00000000 .text._ZN54_$LT$$BP$const$u20$T$u20$as$u20$core..fmt..Pointer$GT$3fmt17h0481ba7e57c1de15E
00000000 l    d  .debug_abbrev	00000000 .debug_abbrev
00000000 l    d  .debug_info	00000000 .debug_info
00000000 l    d  .debug_ranges	00000000 .debug_ranges
00000000 l    d  .debug_frame	00000000 .debug_frame
00000000 l    d  .debug_line	00000000 .debug_line
00000000 g     F .text._ZN42_$LT$$RF$T$u20$as$u20$core..fmt..Debug$GT$3fmt17h18c0495a2dbbf2d0E	00000028 _ZN42_$LT$$RF$T$u20$as$u20$core..fmt..Debug$GT$3fmt17h18c0495a2dbbf2d0E
00000000 g     F .text._ZN42_$LT$$RF$T$u20$as$u20$core..fmt..Debug$GT$3fmt17h247b450a62ac622cE	00000028 _ZN42_$LT$$RF$T$u20$as$u20$core..fmt..Debug$GT$3fmt17h247b450a62ac622cE
00000000 g     F .text._ZN42_$LT$$RF$T$u20$as$u20$core..fmt..Debug$GT$3fmt17h7ca9da276f8c8ee3E	00000028 _ZN42_$LT$$RF$T$u20$as$u20$core..fmt..Debug$GT$3fmt17h7ca9da276f8c8ee3E
00000000 g     F .text._ZN42_$LT$$RF$T$u20$as$u20$core..fmt..Debug$GT$3fmt17h8144b902ff78eb2fE	00000028 _ZN42_$LT$$RF$T$u20$as$u20$core..fmt..Debug$GT$3fmt17h8144b902ff78eb2fE
00000000 g     F .text._ZN42_$LT$$RF$T$u20$as$u20$core..fmt..Debug$GT$3fmt17h8272ca58177595d3E	00000028 _ZN42_$LT$$RF$T$u20$as$u20$core..fmt..Debug$GT$3fmt17h8272ca58177595d3E
00000000 g     F .text._ZN42_$LT$$RF$T$u20$as$u20$core..fmt..Debug$GT$3fmt17h8709e7fb29ff5507E	00000028 _ZN42_$LT$$RF$T$u20$as$u20$core..fmt..Debug$GT$3fmt17h8709e7fb29ff5507E
00000000 g     F .text._ZN42_$LT$$RF$T$u20$as$u20$core..fmt..Debug$GT$3fmt17h96477941bf30f3a2E	00000028 _ZN42_$LT$$RF$T$u20$as$u20$core..fmt..Debug$GT$3fmt17h96477941bf30f3a2E
00000000 g     F .text._ZN42_$LT$$RF$T$u20$as$u20$core..fmt..Debug$GT$3fmt17haa044a67e90314e2E	00000028 _ZN42_$LT$$RF$T$u20$as$u20$core..fmt..Debug$GT$3fmt17haa044a67e90314e2E
00000000 g     F .text._ZN42_$LT$$RF$T$u20$as$u20$core..fmt..Debug$GT$3fmt17he869134b4544e004E	00000028 _ZN42_$LT$$RF$T$u20$as$u20$core..fmt..Debug$GT$3fmt17he869134b4544e004E
00000000 g     F .text._ZN42_$LT$$RF$T$u20$as$u20$core..fmt..Debug$GT$3fmt17hf23787e6c6e23e88E	00000028 _ZN42_$LT$$RF$T$u20$as$u20$core..fmt..Debug$GT$3fmt17hf23787e6c6e23e88E
00000000         *UND*	00000000 _ZN42_$LT$str$u20$as$u20$core..fmt..Display$GT$3fmt17h3a34938e29ce59dcE
00000000 g     F .text._ZN44_$LT$$RF$T$u20$as$u20$core..fmt..Display$GT$3fmt17h4533063c292a1bf4E	00000034 _ZN44_$LT$$RF$T$u20$as$u20$core..fmt..Display$GT$3fmt17h4533063c292a1bf4E
00000000 g     F .text._ZN4core3fmt10ArgumentV13new17hc3a720c8f5dbc78aE	00000032 _ZN4core3fmt10ArgumentV13new17hc3a720c8f5dbc78aE
00000000 g     F .text._ZN4core3fmt10ArgumentV13new17he96b0bb5e87d0237E	00000032 _ZN4core3fmt10ArgumentV13new17he96b0bb5e87d0237E
00000000         *UND*	00000000 .hidden _ZN4core3fmt3num50_$LT$impl$u20$core..fmt..Debug$u20$for$u20$i32$GT$3fmt17h9e3ddf3b71073729E
00000000         *UND*	00000000 .hidden _ZN4core3fmt3num50_$LT$impl$u20$core..fmt..Debug$u20$for$u20$u16$GT$3fmt17ha62d55cd1d0b3de9E
00000000         *UND*	00000000 _ZN4core3fmt3num55_$LT$impl$u20$core..fmt..LowerHex$u20$for$u20$usize$GT$3fmt17h562f60f4fbcc2e1dE
00000000         *UND*	00000000 _ZN4core3fmt9Formatter9alternate17hd09f58cee14df2eeE
00000000         *UND*	00000000 _ZN4core3mem7size_of17hd6e821d2e278c7d8E
00000000         *UND*	00000000 _ZN4core3ptr123_$LT$impl$u20$core..fmt..Debug$u20$for$u20$unsafe$u20$extern$u20$$u22$C$u22$$u20$fn$LP$A$C$$u20$B$RP$$u20$.$GT$$u20$Ret$GT$3fmt17h0bbe2de0b38932c8E
00000000         *UND*	00000000 _ZN4core3ptr123_$LT$impl$u20$core..fmt..Debug$u20$for$u20$unsafe$u20$extern$u20$$u22$C$u22$$u20$fn$LP$A$C$$u20$B$RP$$u20$.$GT$$u20$Ret$GT$3fmt17h4440b6f63884d916E
00000000         *UND*	00000000 _ZN4core3ptr123_$LT$impl$u20$core..fmt..Debug$u20$for$u20$unsafe$u20$extern$u20$$u22$C$u22$$u20$fn$LP$A$C$$u20$B$RP$$u20$.$GT$$u20$Ret$GT$3fmt17h65f8e9db2d41fa07E
00000000         *UND*	00000000 _ZN4core3ptr123_$LT$impl$u20$core..fmt..Debug$u20$for$u20$unsafe$u20$extern$u20$$u22$C$u22$$u20$fn$LP$A$C$$u20$B$RP$$u20$.$GT$$u20$Ret$GT$3fmt17he9cd39f63afe9bd2E
00000000         *UND*	00000000 _ZN4core3ptr132_$LT$impl$u20$core..fmt..Debug$u20$for$u20$unsafe$u20$extern$u20$$u22$C$u22$$u20$fn$LP$A$C$$u20$B$C$$u20$C$RP$$u20$.$GT$$u20$Ret$GT$3fmt17h170eefadf5c6ab1aE
00000000         *UND*	00000000 _ZN4core3ptr132_$LT$impl$u20$core..fmt..Debug$u20$for$u20$unsafe$u20$extern$u20$$u22$C$u22$$u20$fn$LP$A$C$$u20$B$C$$u20$C$RP$$u20$.$GT$$u20$Ret$GT$3fmt17h7b70789ce6c52447E
00000000         *UND*	00000000 _ZN4core3ptr132_$LT$impl$u20$core..fmt..Debug$u20$for$u20$unsafe$u20$extern$u20$$u22$C$u22$$u20$fn$LP$A$C$$u20$B$C$$u20$C$RP$$u20$.$GT$$u20$Ret$GT$3fmt17hf0ecc1947de76860E
00000000         *UND*	00000000 _ZN4core3ptr141_$LT$impl$u20$core..fmt..Debug$u20$for$u20$unsafe$u20$extern$u20$$u22$C$u22$$u20$fn$LP$A$C$$u20$B$C$$u20$C$C$$u20$D$RP$$u20$.$GT$$u20$Ret$GT$3fmt17he1f758b612aa8ffaE
00000000 g     F .text._ZN54_$LT$$BP$const$u20$T$u20$as$u20$core..fmt..Pointer$GT$3fmt17h0481ba7e57c1de15E	000000a2 _ZN54_$LT$$BP$const$u20$T$u20$as$u20$core..fmt..Pointer$GT$3fmt17h0481ba7e57c1de15E



Disassembly of section .text._ZN42_$LT$$RF$T$u20$as$u20$core..fmt..Debug$GT$3fmt17h18c0495a2dbbf2d0E:

00000000 <_ZN42_$LT$$RF$T$u20$as$u20$core..fmt..Debug$GT$3fmt17h18c0495a2dbbf2d0E>:
_ZN42_$LT$$RF$T$u20$as$u20$core..fmt..Debug$GT$3fmt17h18c0495a2dbbf2d0E():
/rustc/50a0defd5a93523067ef239936cc2e0755220904/src/libcore/fmt/mod.rs:1914
   0:	b580      	push	{r7, lr}
   2:	b086      	sub	sp, #24
   4:	460a      	mov	r2, r1
   6:	4603      	mov	r3, r0
   8:	9004      	str	r0, [sp, #16]
   a:	9105      	str	r1, [sp, #20]
   c:	9804      	ldr	r0, [sp, #16]
   e:	6800      	ldr	r0, [r0, #0]
  10:	9905      	ldr	r1, [sp, #20]
  12:	9203      	str	r2, [sp, #12]
  14:	9302      	str	r3, [sp, #8]
  16:	f7ff fffe 	bl	0 <_ZN4core3ptr123_$LT$impl$u20$core..fmt..Debug$u20$for$u20$unsafe$u20$extern$u20$$u22$C$u22$$u20$fn$LP$A$C$$u20$B$RP$$u20$.$GT$$u20$Ret$GT$3fmt17h4440b6f63884d916E>
  1a:	9001      	str	r0, [sp, #4]
  1c:	e7ff      	b.n	1e <_ZN42_$LT$$RF$T$u20$as$u20$core..fmt..Debug$GT$3fmt17h18c0495a2dbbf2d0E+0x1e>
  1e:	9801      	ldr	r0, [sp, #4]
  20:	f000 0001 	and.w	r0, r0, #1
  24:	b006      	add	sp, #24
  26:	bd80      	pop	{r7, pc}

Disassembly of section .text._ZN42_$LT$$RF$T$u20$as$u20$core..fmt..Debug$GT$3fmt17h247b450a62ac622cE:

00000000 <_ZN42_$LT$$RF$T$u20$as$u20$core..fmt..Debug$GT$3fmt17h247b450a62ac622cE>:
_ZN42_$LT$$RF$T$u20$as$u20$core..fmt..Debug$GT$3fmt17h247b450a62ac622cE():
/rustc/50a0defd5a93523067ef239936cc2e0755220904/src/libcore/fmt/mod.rs:1914
   0:	b580      	push	{r7, lr}
   2:	b086      	sub	sp, #24
   4:	460a      	mov	r2, r1
   6:	4603      	mov	r3, r0
   8:	9004      	str	r0, [sp, #16]
   a:	9105      	str	r1, [sp, #20]
   c:	9804      	ldr	r0, [sp, #16]
   e:	6800      	ldr	r0, [r0, #0]
  10:	9905      	ldr	r1, [sp, #20]
  12:	9203      	str	r2, [sp, #12]
  14:	9302      	str	r3, [sp, #8]
  16:	f7ff fffe 	bl	0 <_ZN4core3fmt3num50_$LT$impl$u20$core..fmt..Debug$u20$for$u20$i32$GT$3fmt17h9e3ddf3b71073729E>
  1a:	9001      	str	r0, [sp, #4]
  1c:	e7ff      	b.n	1e <_ZN42_$LT$$RF$T$u20$as$u20$core..fmt..Debug$GT$3fmt17h247b450a62ac622cE+0x1e>
  1e:	9801      	ldr	r0, [sp, #4]
  20:	f000 0001 	and.w	r0, r0, #1
  24:	b006      	add	sp, #24
  26:	bd80      	pop	{r7, pc}

Disassembly of section .text._ZN42_$LT$$RF$T$u20$as$u20$core..fmt..Debug$GT$3fmt17h7ca9da276f8c8ee3E:

00000000 <_ZN42_$LT$$RF$T$u20$as$u20$core..fmt..Debug$GT$3fmt17h7ca9da276f8c8ee3E>:
_ZN42_$LT$$RF$T$u20$as$u20$core..fmt..Debug$GT$3fmt17h7ca9da276f8c8ee3E():
/rustc/50a0defd5a93523067ef239936cc2e0755220904/src/libcore/fmt/mod.rs:1914
   0:	b580      	push	{r7, lr}
   2:	b086      	sub	sp, #24
   4:	460a      	mov	r2, r1
   6:	4603      	mov	r3, r0
   8:	9004      	str	r0, [sp, #16]
   a:	9105      	str	r1, [sp, #20]
   c:	9804      	ldr	r0, [sp, #16]
   e:	6800      	ldr	r0, [r0, #0]
  10:	9905      	ldr	r1, [sp, #20]
  12:	9203      	str	r2, [sp, #12]
  14:	9302      	str	r3, [sp, #8]
  16:	f7ff fffe 	bl	0 <_ZN4core3ptr132_$LT$impl$u20$core..fmt..Debug$u20$for$u20$unsafe$u20$extern$u20$$u22$C$u22$$u20$fn$LP$A$C$$u20$B$C$$u20$C$RP$$u20$.$GT$$u20$Ret$GT$3fmt17hf0ecc1947de76860E>
  1a:	9001      	str	r0, [sp, #4]
  1c:	e7ff      	b.n	1e <_ZN42_$LT$$RF$T$u20$as$u20$core..fmt..Debug$GT$3fmt17h7ca9da276f8c8ee3E+0x1e>
  1e:	9801      	ldr	r0, [sp, #4]
  20:	f000 0001 	and.w	r0, r0, #1
  24:	b006      	add	sp, #24
  26:	bd80      	pop	{r7, pc}

Disassembly of section .text._ZN42_$LT$$RF$T$u20$as$u20$core..fmt..Debug$GT$3fmt17h8144b902ff78eb2fE:

00000000 <_ZN42_$LT$$RF$T$u20$as$u20$core..fmt..Debug$GT$3fmt17h8144b902ff78eb2fE>:
_ZN42_$LT$$RF$T$u20$as$u20$core..fmt..Debug$GT$3fmt17h8144b902ff78eb2fE():
/rustc/50a0defd5a93523067ef239936cc2e0755220904/src/libcore/fmt/mod.rs:1914
   0:	b580      	push	{r7, lr}
   2:	b086      	sub	sp, #24
   4:	460a      	mov	r2, r1
   6:	4603      	mov	r3, r0
   8:	9004      	str	r0, [sp, #16]
   a:	9105      	str	r1, [sp, #20]
   c:	9804      	ldr	r0, [sp, #16]
   e:	6800      	ldr	r0, [r0, #0]
  10:	9905      	ldr	r1, [sp, #20]
  12:	9203      	str	r2, [sp, #12]
  14:	9302      	str	r3, [sp, #8]
  16:	f7ff fffe 	bl	0 <_ZN4core3ptr132_$LT$impl$u20$core..fmt..Debug$u20$for$u20$unsafe$u20$extern$u20$$u22$C$u22$$u20$fn$LP$A$C$$u20$B$C$$u20$C$RP$$u20$.$GT$$u20$Ret$GT$3fmt17h7b70789ce6c52447E>
  1a:	9001      	str	r0, [sp, #4]
  1c:	e7ff      	b.n	1e <_ZN42_$LT$$RF$T$u20$as$u20$core..fmt..Debug$GT$3fmt17h8144b902ff78eb2fE+0x1e>
  1e:	9801      	ldr	r0, [sp, #4]
  20:	f000 0001 	and.w	r0, r0, #1
  24:	b006      	add	sp, #24
  26:	bd80      	pop	{r7, pc}

Disassembly of section .text._ZN42_$LT$$RF$T$u20$as$u20$core..fmt..Debug$GT$3fmt17h8272ca58177595d3E:

00000000 <_ZN42_$LT$$RF$T$u20$as$u20$core..fmt..Debug$GT$3fmt17h8272ca58177595d3E>:
_ZN42_$LT$$RF$T$u20$as$u20$core..fmt..Debug$GT$3fmt17h8272ca58177595d3E():
/rustc/50a0defd5a93523067ef239936cc2e0755220904/src/libcore/fmt/mod.rs:1914
   0:	b580      	push	{r7, lr}
   2:	b086      	sub	sp, #24
   4:	460a      	mov	r2, r1
   6:	4603      	mov	r3, r0
   8:	9004      	str	r0, [sp, #16]
   a:	9105      	str	r1, [sp, #20]
   c:	9804      	ldr	r0, [sp, #16]
   e:	6800      	ldr	r0, [r0, #0]
  10:	9905      	ldr	r1, [sp, #20]
  12:	9203      	str	r2, [sp, #12]
  14:	9302      	str	r3, [sp, #8]
  16:	f7ff fffe 	bl	0 <_ZN4core3ptr123_$LT$impl$u20$core..fmt..Debug$u20$for$u20$unsafe$u20$extern$u20$$u22$C$u22$$u20$fn$LP$A$C$$u20$B$RP$$u20$.$GT$$u20$Ret$GT$3fmt17h65f8e9db2d41fa07E>
  1a:	9001      	str	r0, [sp, #4]
  1c:	e7ff      	b.n	1e <_ZN42_$LT$$RF$T$u20$as$u20$core..fmt..Debug$GT$3fmt17h8272ca58177595d3E+0x1e>
  1e:	9801      	ldr	r0, [sp, #4]
  20:	f000 0001 	and.w	r0, r0, #1
  24:	b006      	add	sp, #24
  26:	bd80      	pop	{r7, pc}

Disassembly of section .text._ZN42_$LT$$RF$T$u20$as$u20$core..fmt..Debug$GT$3fmt17h8709e7fb29ff5507E:

00000000 <_ZN42_$LT$$RF$T$u20$as$u20$core..fmt..Debug$GT$3fmt17h8709e7fb29ff5507E>:
_ZN42_$LT$$RF$T$u20$as$u20$core..fmt..Debug$GT$3fmt17h8709e7fb29ff5507E():
/rustc/50a0defd5a93523067ef239936cc2e0755220904/src/libcore/fmt/mod.rs:1914
   0:	b580      	push	{r7, lr}
   2:	b086      	sub	sp, #24
   4:	460a      	mov	r2, r1
   6:	4603      	mov	r3, r0
   8:	9004      	str	r0, [sp, #16]
   a:	9105      	str	r1, [sp, #20]
   c:	9804      	ldr	r0, [sp, #16]
   e:	6800      	ldr	r0, [r0, #0]
  10:	9905      	ldr	r1, [sp, #20]
  12:	9203      	str	r2, [sp, #12]
  14:	9302      	str	r3, [sp, #8]
  16:	f7ff fffe 	bl	0 <_ZN4core3ptr123_$LT$impl$u20$core..fmt..Debug$u20$for$u20$unsafe$u20$extern$u20$$u22$C$u22$$u20$fn$LP$A$C$$u20$B$RP$$u20$.$GT$$u20$Ret$GT$3fmt17he9cd39f63afe9bd2E>
  1a:	9001      	str	r0, [sp, #4]
  1c:	e7ff      	b.n	1e <_ZN42_$LT$$RF$T$u20$as$u20$core..fmt..Debug$GT$3fmt17h8709e7fb29ff5507E+0x1e>
  1e:	9801      	ldr	r0, [sp, #4]
  20:	f000 0001 	and.w	r0, r0, #1
  24:	b006      	add	sp, #24
  26:	bd80      	pop	{r7, pc}

Disassembly of section .text._ZN42_$LT$$RF$T$u20$as$u20$core..fmt..Debug$GT$3fmt17h96477941bf30f3a2E:

00000000 <_ZN42_$LT$$RF$T$u20$as$u20$core..fmt..Debug$GT$3fmt17h96477941bf30f3a2E>:
_ZN42_$LT$$RF$T$u20$as$u20$core..fmt..Debug$GT$3fmt17h96477941bf30f3a2E():
/rustc/50a0defd5a93523067ef239936cc2e0755220904/src/libcore/fmt/mod.rs:1914
   0:	b580      	push	{r7, lr}
   2:	b086      	sub	sp, #24
   4:	460a      	mov	r2, r1
   6:	4603      	mov	r3, r0
   8:	9004      	str	r0, [sp, #16]
   a:	9105      	str	r1, [sp, #20]
   c:	9804      	ldr	r0, [sp, #16]
   e:	6800      	ldr	r0, [r0, #0]
  10:	9905      	ldr	r1, [sp, #20]
  12:	9203      	str	r2, [sp, #12]
  14:	9302      	str	r3, [sp, #8]
  16:	f7ff fffe 	bl	0 <_ZN4core3ptr141_$LT$impl$u20$core..fmt..Debug$u20$for$u20$unsafe$u20$extern$u20$$u22$C$u22$$u20$fn$LP$A$C$$u20$B$C$$u20$C$C$$u20$D$RP$$u20$.$GT$$u20$Ret$GT$3fmt17he1f758b612aa8ffaE>
  1a:	9001      	str	r0, [sp, #4]
  1c:	e7ff      	b.n	1e <_ZN42_$LT$$RF$T$u20$as$u20$core..fmt..Debug$GT$3fmt17h96477941bf30f3a2E+0x1e>
  1e:	9801      	ldr	r0, [sp, #4]
  20:	f000 0001 	and.w	r0, r0, #1
  24:	b006      	add	sp, #24
  26:	bd80      	pop	{r7, pc}

Disassembly of section .text._ZN42_$LT$$RF$T$u20$as$u20$core..fmt..Debug$GT$3fmt17haa044a67e90314e2E:

00000000 <_ZN42_$LT$$RF$T$u20$as$u20$core..fmt..Debug$GT$3fmt17haa044a67e90314e2E>:
_ZN42_$LT$$RF$T$u20$as$u20$core..fmt..Debug$GT$3fmt17haa044a67e90314e2E():
/rustc/50a0defd5a93523067ef239936cc2e0755220904/src/libcore/fmt/mod.rs:1914
   0:	b580      	push	{r7, lr}
   2:	b086      	sub	sp, #24
   4:	460a      	mov	r2, r1
   6:	4603      	mov	r3, r0
   8:	9004      	str	r0, [sp, #16]
   a:	9105      	str	r1, [sp, #20]
   c:	9804      	ldr	r0, [sp, #16]
   e:	6800      	ldr	r0, [r0, #0]
  10:	9905      	ldr	r1, [sp, #20]
  12:	9203      	str	r2, [sp, #12]
  14:	9302      	str	r3, [sp, #8]
  16:	f7ff fffe 	bl	0 <_ZN4core3fmt3num50_$LT$impl$u20$core..fmt..Debug$u20$for$u20$u16$GT$3fmt17ha62d55cd1d0b3de9E>
  1a:	9001      	str	r0, [sp, #4]
  1c:	e7ff      	b.n	1e <_ZN42_$LT$$RF$T$u20$as$u20$core..fmt..Debug$GT$3fmt17haa044a67e90314e2E+0x1e>
  1e:	9801      	ldr	r0, [sp, #4]
  20:	f000 0001 	and.w	r0, r0, #1
  24:	b006      	add	sp, #24
  26:	bd80      	pop	{r7, pc}

Disassembly of section .text._ZN42_$LT$$RF$T$u20$as$u20$core..fmt..Debug$GT$3fmt17he869134b4544e004E:

00000000 <_ZN42_$LT$$RF$T$u20$as$u20$core..fmt..Debug$GT$3fmt17he869134b4544e004E>:
_ZN42_$LT$$RF$T$u20$as$u20$core..fmt..Debug$GT$3fmt17he869134b4544e004E():
/rustc/50a0defd5a93523067ef239936cc2e0755220904/src/libcore/fmt/mod.rs:1914
   0:	b580      	push	{r7, lr}
   2:	b086      	sub	sp, #24
   4:	460a      	mov	r2, r1
   6:	4603      	mov	r3, r0
   8:	9004      	str	r0, [sp, #16]
   a:	9105      	str	r1, [sp, #20]
   c:	9804      	ldr	r0, [sp, #16]
   e:	6800      	ldr	r0, [r0, #0]
  10:	9905      	ldr	r1, [sp, #20]
  12:	9203      	str	r2, [sp, #12]
  14:	9302      	str	r3, [sp, #8]
  16:	f7ff fffe 	bl	0 <_ZN4core3ptr123_$LT$impl$u20$core..fmt..Debug$u20$for$u20$unsafe$u20$extern$u20$$u22$C$u22$$u20$fn$LP$A$C$$u20$B$RP$$u20$.$GT$$u20$Ret$GT$3fmt17h0bbe2de0b38932c8E>
  1a:	9001      	str	r0, [sp, #4]
  1c:	e7ff      	b.n	1e <_ZN42_$LT$$RF$T$u20$as$u20$core..fmt..Debug$GT$3fmt17he869134b4544e004E+0x1e>
  1e:	9801      	ldr	r0, [sp, #4]
  20:	f000 0001 	and.w	r0, r0, #1
  24:	b006      	add	sp, #24
  26:	bd80      	pop	{r7, pc}

Disassembly of section .text._ZN42_$LT$$RF$T$u20$as$u20$core..fmt..Debug$GT$3fmt17hf23787e6c6e23e88E:

00000000 <_ZN42_$LT$$RF$T$u20$as$u20$core..fmt..Debug$GT$3fmt17hf23787e6c6e23e88E>:
_ZN42_$LT$$RF$T$u20$as$u20$core..fmt..Debug$GT$3fmt17hf23787e6c6e23e88E():
/rustc/50a0defd5a93523067ef239936cc2e0755220904/src/libcore/fmt/mod.rs:1914
   0:	b580      	push	{r7, lr}
   2:	b086      	sub	sp, #24
   4:	460a      	mov	r2, r1
   6:	4603      	mov	r3, r0
   8:	9004      	str	r0, [sp, #16]
   a:	9105      	str	r1, [sp, #20]
   c:	9804      	ldr	r0, [sp, #16]
   e:	6800      	ldr	r0, [r0, #0]
  10:	9905      	ldr	r1, [sp, #20]
  12:	9203      	str	r2, [sp, #12]
  14:	9302      	str	r3, [sp, #8]
  16:	f7ff fffe 	bl	0 <_ZN4core3ptr132_$LT$impl$u20$core..fmt..Debug$u20$for$u20$unsafe$u20$extern$u20$$u22$C$u22$$u20$fn$LP$A$C$$u20$B$C$$u20$C$RP$$u20$.$GT$$u20$Ret$GT$3fmt17h170eefadf5c6ab1aE>
  1a:	9001      	str	r0, [sp, #4]
  1c:	e7ff      	b.n	1e <_ZN42_$LT$$RF$T$u20$as$u20$core..fmt..Debug$GT$3fmt17hf23787e6c6e23e88E+0x1e>
  1e:	9801      	ldr	r0, [sp, #4]
  20:	f000 0001 	and.w	r0, r0, #1
  24:	b006      	add	sp, #24
  26:	bd80      	pop	{r7, pc}

Disassembly of section .text._ZN44_$LT$$RF$T$u20$as$u20$core..fmt..Display$GT$3fmt17h4533063c292a1bf4E:

00000000 <_ZN44_$LT$$RF$T$u20$as$u20$core..fmt..Display$GT$3fmt17h4533063c292a1bf4E>:
_ZN44_$LT$$RF$T$u20$as$u20$core..fmt..Display$GT$3fmt17h4533063c292a1bf4E():
/rustc/50a0defd5a93523067ef239936cc2e0755220904/src/libcore/fmt/mod.rs:1914
   0:	b580      	push	{r7, lr}
   2:	b086      	sub	sp, #24
   4:	460a      	mov	r2, r1
   6:	4603      	mov	r3, r0
   8:	9004      	str	r0, [sp, #16]
   a:	9105      	str	r1, [sp, #20]
   c:	9804      	ldr	r0, [sp, #16]
   e:	6801      	ldr	r1, [r0, #0]
  10:	6840      	ldr	r0, [r0, #4]
  12:	f8dd c014 	ldr.w	ip, [sp, #20]
  16:	9003      	str	r0, [sp, #12]
  18:	4608      	mov	r0, r1
  1a:	9903      	ldr	r1, [sp, #12]
  1c:	9202      	str	r2, [sp, #8]
  1e:	4662      	mov	r2, ip
  20:	9301      	str	r3, [sp, #4]
  22:	f7ff fffe 	bl	0 <_ZN42_$LT$str$u20$as$u20$core..fmt..Display$GT$3fmt17h3a34938e29ce59dcE>
  26:	9000      	str	r0, [sp, #0]
  28:	e7ff      	b.n	2a <_ZN44_$LT$$RF$T$u20$as$u20$core..fmt..Display$GT$3fmt17h4533063c292a1bf4E+0x2a>
  2a:	9800      	ldr	r0, [sp, #0]
  2c:	f000 0001 	and.w	r0, r0, #1
  30:	b006      	add	sp, #24
  32:	bd80      	pop	{r7, pc}

Disassembly of section .text._ZN4core3fmt10ArgumentV13new17hc3a720c8f5dbc78aE:

00000000 <_ZN4core3fmt10ArgumentV13new17hc3a720c8f5dbc78aE>:
_ZN4core3fmt10ArgumentV13new17hc3a720c8f5dbc78aE():
/rustc/50a0defd5a93523067ef239936cc2e0755220904/src/libcore/fmt/mod.rs:278
   0:	b08a      	sub	sp, #40	; 0x28
   2:	460a      	mov	r2, r1
   4:	4603      	mov	r3, r0
   6:	9004      	str	r0, [sp, #16]
   8:	9105      	str	r1, [sp, #20]
/rustc/50a0defd5a93523067ef239936cc2e0755220904/src/libcore/fmt/mod.rs:282
   a:	9805      	ldr	r0, [sp, #20]
   c:	9008      	str	r0, [sp, #32]
   e:	9808      	ldr	r0, [sp, #32]
  10:	9203      	str	r2, [sp, #12]
  12:	9302      	str	r3, [sp, #8]
  14:	9001      	str	r0, [sp, #4]
  16:	e7ff      	b.n	18 <_ZN4core3fmt10ArgumentV13new17hc3a720c8f5dbc78aE+0x18>
/rustc/50a0defd5a93523067ef239936cc2e0755220904/src/libcore/fmt/mod.rs:283
  18:	9804      	ldr	r0, [sp, #16]
  1a:	9009      	str	r0, [sp, #36]	; 0x24
  1c:	9809      	ldr	r0, [sp, #36]	; 0x24
  1e:	9000      	str	r0, [sp, #0]
  20:	e7ff      	b.n	22 <_ZN4core3fmt10ArgumentV13new17hc3a720c8f5dbc78aE+0x22>
/rustc/50a0defd5a93523067ef239936cc2e0755220904/src/libcore/fmt/mod.rs:281
  22:	9800      	ldr	r0, [sp, #0]
  24:	9006      	str	r0, [sp, #24]
  26:	9901      	ldr	r1, [sp, #4]
  28:	9107      	str	r1, [sp, #28]
/rustc/50a0defd5a93523067ef239936cc2e0755220904/src/libcore/fmt/mod.rs:286
  2a:	9806      	ldr	r0, [sp, #24]
  2c:	9907      	ldr	r1, [sp, #28]
  2e:	b00a      	add	sp, #40	; 0x28
  30:	4770      	bx	lr

Disassembly of section .text._ZN4core3fmt10ArgumentV13new17he96b0bb5e87d0237E:

00000000 <_ZN4core3fmt10ArgumentV13new17he96b0bb5e87d0237E>:
_ZN4core3fmt10ArgumentV13new17he96b0bb5e87d0237E():
/rustc/50a0defd5a93523067ef239936cc2e0755220904/src/libcore/fmt/mod.rs:278
   0:	b08a      	sub	sp, #40	; 0x28
   2:	460a      	mov	r2, r1
   4:	4603      	mov	r3, r0
   6:	9004      	str	r0, [sp, #16]
   8:	9105      	str	r1, [sp, #20]
/rustc/50a0defd5a93523067ef239936cc2e0755220904/src/libcore/fmt/mod.rs:282
   a:	9805      	ldr	r0, [sp, #20]
   c:	9008      	str	r0, [sp, #32]
   e:	9808      	ldr	r0, [sp, #32]
  10:	9203      	str	r2, [sp, #12]
  12:	9302      	str	r3, [sp, #8]
  14:	9001      	str	r0, [sp, #4]
  16:	e7ff      	b.n	18 <_ZN4core3fmt10ArgumentV13new17he96b0bb5e87d0237E+0x18>
/rustc/50a0defd5a93523067ef239936cc2e0755220904/src/libcore/fmt/mod.rs:283
  18:	9804      	ldr	r0, [sp, #16]
  1a:	9009      	str	r0, [sp, #36]	; 0x24
  1c:	9809      	ldr	r0, [sp, #36]	; 0x24
  1e:	9000      	str	r0, [sp, #0]
  20:	e7ff      	b.n	22 <_ZN4core3fmt10ArgumentV13new17he96b0bb5e87d0237E+0x22>
/rustc/50a0defd5a93523067ef239936cc2e0755220904/src/libcore/fmt/mod.rs:281
  22:	9800      	ldr	r0, [sp, #0]
  24:	9006      	str	r0, [sp, #24]
  26:	9901      	ldr	r1, [sp, #4]
  28:	9107      	str	r1, [sp, #28]
/rustc/50a0defd5a93523067ef239936cc2e0755220904/src/libcore/fmt/mod.rs:286
  2a:	9806      	ldr	r0, [sp, #24]
  2c:	9907      	ldr	r1, [sp, #28]
  2e:	b00a      	add	sp, #40	; 0x28
  30:	4770      	bx	lr

Disassembly of section .text._ZN54_$LT$$BP$const$u20$T$u20$as$u20$core..fmt..Pointer$GT$3fmt17h0481ba7e57c1de15E:

00000000 <_ZN54_$LT$$BP$const$u20$T$u20$as$u20$core..fmt..Pointer$GT$3fmt17h0481ba7e57c1de15E>:
_ZN54_$LT$$BP$const$u20$T$u20$as$u20$core..fmt..Pointer$GT$3fmt17h0481ba7e57c1de15E():
/rustc/50a0defd5a93523067ef239936cc2e0755220904/src/libcore/fmt/mod.rs:2007
   0:	b580      	push	{r7, lr}
   2:	b08c      	sub	sp, #48	; 0x30
   4:	460a      	mov	r2, r1
   6:	4603      	mov	r3, r0
   8:	9005      	str	r0, [sp, #20]
   a:	9106      	str	r1, [sp, #24]
/rustc/50a0defd5a93523067ef239936cc2e0755220904/src/libcore/fmt/mod.rs:2008
   c:	9806      	ldr	r0, [sp, #24]
   e:	6881      	ldr	r1, [r0, #8]
  10:	68c0      	ldr	r0, [r0, #12]
  12:	9107      	str	r1, [sp, #28]
  14:	9008      	str	r0, [sp, #32]
/rustc/50a0defd5a93523067ef239936cc2e0755220904/src/libcore/fmt/mod.rs:2009
  16:	9806      	ldr	r0, [sp, #24]
  18:	6800      	ldr	r0, [r0, #0]
  1a:	9009      	str	r0, [sp, #36]	; 0x24
/rustc/50a0defd5a93523067ef239936cc2e0755220904/src/libcore/fmt/mod.rs:2015
  1c:	9806      	ldr	r0, [sp, #24]
  1e:	9204      	str	r2, [sp, #16]
  20:	9303      	str	r3, [sp, #12]
  22:	f7ff fffe 	bl	0 <_ZN4core3fmt9Formatter9alternate17hd09f58cee14df2eeE>
  26:	9002      	str	r0, [sp, #8]
  28:	e7ff      	b.n	2a <_ZN54_$LT$$BP$const$u20$T$u20$as$u20$core..fmt..Pointer$GT$3fmt17h0481ba7e57c1de15E+0x2a>
  2a:	9802      	ldr	r0, [sp, #8]
  2c:	07c1      	lsls	r1, r0, #31
  2e:	2900      	cmp	r1, #0
  30:	d01c      	beq.n	6c <_ZN54_$LT$$BP$const$u20$T$u20$as$u20$core..fmt..Pointer$GT$3fmt17h0481ba7e57c1de15E+0x6c>
  32:	e7ff      	b.n	34 <_ZN54_$LT$$BP$const$u20$T$u20$as$u20$core..fmt..Pointer$GT$3fmt17h0481ba7e57c1de15E+0x34>
/rustc/50a0defd5a93523067ef239936cc2e0755220904/src/libcore/fmt/mod.rs:2016
  34:	9806      	ldr	r0, [sp, #24]
  36:	6801      	ldr	r1, [r0, #0]
  38:	f041 0108 	orr.w	r1, r1, #8
  3c:	6001      	str	r1, [r0, #0]
/rustc/50a0defd5a93523067ef239936cc2e0755220904/src/libcore/fmt/mod.rs:2018
  3e:	9806      	ldr	r0, [sp, #24]
  40:	6880      	ldr	r0, [r0, #8]
  42:	2800      	cmp	r0, #0
  44:	d112      	bne.n	6c <_ZN54_$LT$$BP$const$u20$T$u20$as$u20$core..fmt..Pointer$GT$3fmt17h0481ba7e57c1de15E+0x6c>
  46:	e7ff      	b.n	48 <_ZN54_$LT$$BP$const$u20$T$u20$as$u20$core..fmt..Pointer$GT$3fmt17h0481ba7e57c1de15E+0x48>
/rustc/50a0defd5a93523067ef239936cc2e0755220904/src/libcore/fmt/mod.rs:2019
  48:	f7ff fffe 	bl	0 <_ZN4core3mem7size_of17hd6e821d2e278c7d8E>
  4c:	9001      	str	r0, [sp, #4]
  4e:	e7ff      	b.n	50 <_ZN54_$LT$$BP$const$u20$T$u20$as$u20$core..fmt..Pointer$GT$3fmt17h0481ba7e57c1de15E+0x50>
  50:	9801      	ldr	r0, [sp, #4]
  52:	00c1      	lsls	r1, r0, #3
  54:	9100      	str	r1, [sp, #0]
  56:	e7ff      	b.n	58 <_ZN54_$LT$$BP$const$u20$T$u20$as$u20$core..fmt..Pointer$GT$3fmt17h0481ba7e57c1de15E+0x58>
  58:	2002      	movs	r0, #2
  5a:	9900      	ldr	r1, [sp, #0]
  5c:	eb00 0091 	add.w	r0, r0, r1, lsr #2
  60:	9a06      	ldr	r2, [sp, #24]
  62:	60d0      	str	r0, [r2, #12]
  64:	9806      	ldr	r0, [sp, #24]
  66:	2201      	movs	r2, #1
  68:	6082      	str	r2, [r0, #8]
/rustc/50a0defd5a93523067ef239936cc2e0755220904/src/libcore/fmt/mod.rs:2018
  6a:	e7ff      	b.n	6c <_ZN54_$LT$$BP$const$u20$T$u20$as$u20$core..fmt..Pointer$GT$3fmt17h0481ba7e57c1de15E+0x6c>
/rustc/50a0defd5a93523067ef239936cc2e0755220904/src/libcore/fmt/mod.rs:2022
  6c:	9806      	ldr	r0, [sp, #24]
  6e:	6801      	ldr	r1, [r0, #0]
  70:	f041 0104 	orr.w	r1, r1, #4
  74:	6001      	str	r1, [r0, #0]
/rustc/50a0defd5a93523067ef239936cc2e0755220904/src/libcore/fmt/mod.rs:2024
  76:	9805      	ldr	r0, [sp, #20]
  78:	6800      	ldr	r0, [r0, #0]
  7a:	900b      	str	r0, [sp, #44]	; 0x2c
  7c:	9906      	ldr	r1, [sp, #24]
  7e:	a80b      	add	r0, sp, #44	; 0x2c
  80:	f7ff fffe 	bl	0 <_ZN4core3fmt3num55_$LT$impl$u20$core..fmt..LowerHex$u20$for$u20$usize$GT$3fmt17h562f60f4fbcc2e1dE>
  84:	f88d 002b 	strb.w	r0, [sp, #43]	; 0x2b
  88:	e7ff      	b.n	8a <_ZN54_$LT$$BP$const$u20$T$u20$as$u20$core..fmt..Pointer$GT$3fmt17h0481ba7e57c1de15E+0x8a>
/rustc/50a0defd5a93523067ef239936cc2e0755220904/src/libcore/fmt/mod.rs:2026
  8a:	9807      	ldr	r0, [sp, #28]
  8c:	9908      	ldr	r1, [sp, #32]
  8e:	9a06      	ldr	r2, [sp, #24]
  90:	6090      	str	r0, [r2, #8]
  92:	60d1      	str	r1, [r2, #12]
/rustc/50a0defd5a93523067ef239936cc2e0755220904/src/libcore/fmt/mod.rs:2027
  94:	9809      	ldr	r0, [sp, #36]	; 0x24
  96:	9906      	ldr	r1, [sp, #24]
  98:	6008      	str	r0, [r1, #0]
/rustc/50a0defd5a93523067ef239936cc2e0755220904/src/libcore/fmt/mod.rs:2029
  9a:	f89d 002b 	ldrb.w	r0, [sp, #43]	; 0x2b
/rustc/50a0defd5a93523067ef239936cc2e0755220904/src/libcore/fmt/mod.rs:2030
  9e:	b00c      	add	sp, #48	; 0x30
  a0:	bd80      	pop	{r7, pc}

mylib-b003fcb153d61cda.18n9guqs9q0zxh55.rcgu.o:     file format elf32-littlearm

SYMBOL TABLE:
00000000 l    df *ABS*	00000000 18n9guqs9q0zxh55
000001ed l       .debug_str	00000000 
0000016b l       .debug_str	00000000 
000001a3 l       .debug_str	00000000 
000001db l       .debug_str	00000000 
00000229 l       .debug_str	00000000 
00000262 l       .debug_str	00000000 
00000255 l       .debug_str	00000000 
00000250 l       .debug_str	00000000 
00000248 l       .debug_str	00000000 
0000023f l       .debug_str	00000000 
00000000 l       .debug_str	00000000 
00000041 l       .debug_str	00000000 
0000004c l       .debug_str	00000000 
0000007c l       .debug_str	00000000 
00000082 l       .debug_str	00000000 
00000089 l       .debug_str	00000000 
0000009b l       .debug_str	00000000 
000000aa l       .debug_str	00000000 
000000ae l       .debug_str	00000000 
000000b6 l       .debug_str	00000000 
000000ba l       .debug_str	00000000 
000000be l       .debug_str	00000000 
000000c8 l       .debug_str	00000000 
000000d2 l       .debug_str	00000000 
000000d8 l       .debug_str	00000000 
000000f4 l       .debug_str	00000000 
0000014d l       .debug_str	00000000 
00000154 l       .debug_str	00000000 
0000015c l       .debug_str	00000000 
00000000 l     O .rodata..Lanon.061914168654b3d2aef4baac020860b9.2	00000018 .Lanon.061914168654b3d2aef4baac020860b9.2
00000000 l     O .data._ZN5mylib6sensor17LISTENER_INTERNAL17h869a4bbc3ef7a70eE	00000018 _ZN5mylib6sensor17LISTENER_INTERNAL17h869a4bbc3ef7a70eE
00000000 l     F .text._ZN5mylib6sensor21null_sensor_data_func17hed0345933409d3ecE	0000002a _ZN5mylib6sensor21null_sensor_data_func17hed0345933409d3ecE
00000000 l    d  .text._ZN5mylib6sensor17register_listener17hcfc70760fee1324fE	00000000 .text._ZN5mylib6sensor17register_listener17hcfc70760fee1324fE
00000000 l    d  .text._ZN5mylib6sensor21null_sensor_data_func17hed0345933409d3ecE	00000000 .text._ZN5mylib6sensor21null_sensor_data_func17hed0345933409d3ecE
00000000 l    d  .rodata..Lanon.061914168654b3d2aef4baac020860b9.0	00000000 .rodata..Lanon.061914168654b3d2aef4baac020860b9.0
00000000 l    d  .rodata..Lanon.061914168654b3d2aef4baac020860b9.1	00000000 .rodata..Lanon.061914168654b3d2aef4baac020860b9.1
00000000 l    d  .data._ZN5mylib6sensor17LISTENER_INTERNAL17h869a4bbc3ef7a70eE	00000000 .data._ZN5mylib6sensor17LISTENER_INTERNAL17h869a4bbc3ef7a70eE
00000000 l    d  .debug_loc	00000000 .debug_loc
00000000 l    d  .debug_abbrev	00000000 .debug_abbrev
00000000 l    d  .debug_info	00000000 .debug_info
00000000 l    d  .debug_ranges	00000000 .debug_ranges
00000000 l    d  .debug_frame	00000000 .debug_frame
00000000 l    d  .debug_line	00000000 .debug_line
00000000         *UND*	00000000 _ZN4core9panicking5panic17h53ca63c6ac6312f8E
00000000 g     F .text._ZN5mylib6sensor17register_listener17hcfc70760fee1324fE	0000005e .hidden _ZN5mylib6sensor17register_listener17hcfc70760fee1324fE
00000000         *UND*	00000000 sensor_register_listener



Disassembly of section .text._ZN5mylib6sensor17register_listener17hcfc70760fee1324fE:

00000000 <_ZN5mylib6sensor17register_listener17hcfc70760fee1324fE>:
_ZN5mylib6sensor17register_listener17hcfc70760fee1324fE():
/Users/Luppy/mynewt/stm32bluepill-mynewt-sensor/src/sensor.rs:14
///  for the sensor listener structure.
///
///  `sensor`: The sensor to register a listener on.
///  `listener`: The listener to register onto the sensor.
///  Return 0 on success, non-zero error code on failure.
pub fn register_listener(sensor: SensorPtr, listener: SensorListener) -> i32 {    
   0:	b570      	push	{r4, r5, r6, lr}
   2:	b08a      	sub	sp, #40	; 0x28
   4:	4602      	mov	r2, r0
   6:	9003      	str	r0, [sp, #12]
/Users/Luppy/mynewt/stm32bluepill-mynewt-sensor/src/sensor.rs:15
    unsafe { assert!(LISTENER_INTERNAL.sl_sensor_type == 0) };  //  Make sure it's not used.
   8:	f240 0000 	movw	r0, #0
   c:	f2c0 0000 	movt	r0, #0
  10:	6803      	ldr	r3, [r0, #0]
  12:	6840      	ldr	r0, [r0, #4]
  14:	4318      	orrs	r0, r3
  16:	2800      	cmp	r0, #0
  18:	9102      	str	r1, [sp, #8]
  1a:	9201      	str	r2, [sp, #4]
  1c:	d007      	beq.n	2e <_ZN5mylib6sensor17register_listener17hcfc70760fee1324fE+0x2e>
  1e:	e7ff      	b.n	20 <_ZN5mylib6sensor17register_listener17hcfc70760fee1324fE+0x20>
  20:	f240 0000 	movw	r0, #0
  24:	f2c0 0000 	movt	r0, #0
  28:	f7ff fffe 	bl	0 <_ZN4core9panicking5panic17h53ca63c6ac6312f8E>
  2c:	defe      	udf	#254	; 0xfe
  2e:	a804      	add	r0, sp, #16
/Users/Luppy/mynewt/stm32bluepill-mynewt-sensor/src/sensor.rs:17
    //  Copy the caller's listener to the internal listener.
    unsafe { LISTENER_INTERNAL = listener };
  30:	9902      	ldr	r1, [sp, #8]
  32:	4602      	mov	r2, r0
  34:	e891 5078 	ldmia.w	r1, {r3, r4, r5, r6, ip, lr}
  38:	e882 5078 	stmia.w	r2, {r3, r4, r5, r6, ip, lr}
  3c:	f240 0100 	movw	r1, #0
  40:	f2c0 0100 	movt	r1, #0
  44:	460a      	mov	r2, r1
  46:	e890 5078 	ldmia.w	r0, {r3, r4, r5, r6, ip, lr}
  4a:	e882 5078 	stmia.w	r2, {r3, r4, r5, r6, ip, lr}
/Users/Luppy/mynewt/stm32bluepill-mynewt-sensor/src/sensor.rs:19
    //  Pass the internal listener to the unsafe Mynewt API.
    unsafe { sensor_register_listener(sensor, &mut LISTENER_INTERNAL) }
  4e:	9803      	ldr	r0, [sp, #12]
  50:	f7ff fffe 	bl	0 <sensor_register_listener>
  54:	9000      	str	r0, [sp, #0]
  56:	e7ff      	b.n	58 <_ZN5mylib6sensor17register_listener17hcfc70760fee1324fE+0x58>
/Users/Luppy/mynewt/stm32bluepill-mynewt-sensor/src/sensor.rs:20
}
  58:	9800      	ldr	r0, [sp, #0]
  5a:	b00a      	add	sp, #40	; 0x28
  5c:	bd70      	pop	{r4, r5, r6, pc}

Disassembly of section .text._ZN5mylib6sensor21null_sensor_data_func17hed0345933409d3ecE:

00000000 <_ZN5mylib6sensor21null_sensor_data_func17hed0345933409d3ecE>:
_ZN5mylib6sensor21null_sensor_data_func17hed0345933409d3ecE():
/Users/Luppy/mynewt/stm32bluepill-mynewt-sensor/src/sensor.rs:33
    sl_arg        : 0,
    sl_next       : 0,
};

///  Define a dummy sensor data function in case there is none.
extern fn null_sensor_data_func(_sensor: SensorPtr, _arg: SensorArg, _sensor_data: SensorDataPtr, _sensor_type: SensorType) -> i32 { 0 }
   0:	b5b0      	push	{r4, r5, r7, lr}
   2:	b088      	sub	sp, #32
   4:	9b0d      	ldr	r3, [sp, #52]	; 0x34
   6:	f8dd c030 	ldr.w	ip, [sp, #48]	; 0x30
   a:	4696      	mov	lr, r2
   c:	460c      	mov	r4, r1
   e:	4605      	mov	r5, r0
  10:	9003      	str	r0, [sp, #12]
  12:	9104      	str	r1, [sp, #16]
  14:	9205      	str	r2, [sp, #20]
  16:	9307      	str	r3, [sp, #28]
  18:	f8cd c018 	str.w	ip, [sp, #24]
  1c:	2000      	movs	r0, #0
  1e:	f8cd e008 	str.w	lr, [sp, #8]
  22:	9401      	str	r4, [sp, #4]
  24:	9500      	str	r5, [sp, #0]
  26:	b008      	add	sp, #32
  28:	bdb0      	pop	{r4, r5, r7, pc}

mylib-b003fcb153d61cda.1cv7y0mzu4zroe8s.rcgu.o:     file format elf32-littlearm

SYMBOL TABLE:
00000000 l    df *ABS*	00000000 1cv7y0mzu4zroe8s
000002c1 l       .debug_str	00000000 
0000038e l       .debug_str	00000000 
000003aa l       .debug_str	00000000 
000003af l       .debug_str	00000000 
000003b8 l       .debug_str	00000000 
000003bf l       .debug_str	00000000 
000003d8 l       .debug_str	00000000 
000003e2 l       .debug_str	00000000 
000003fc l       .debug_str	00000000 
00000400 l       .debug_str	00000000 
00000000 l       .debug_str	00000000 
00000041 l       .debug_str	00000000 
0000004c l       .debug_str	00000000 
0000007c l       .debug_str	00000000 
00000081 l       .debug_str	00000000 
00000088 l       .debug_str	00000000 
0000008b l       .debug_str	00000000 
0000008e l       .debug_str	00000000 
00000092 l       .debug_str	00000000 
00000099 l       .debug_str	00000000 
0000009d l       .debug_str	00000000 
000000a0 l       .debug_str	00000000 
000000a3 l       .debug_str	00000000 
000000a8 l       .debug_str	00000000 
000000ae l       .debug_str	00000000 
000000b5 l       .debug_str	00000000 
000000bd l       .debug_str	00000000 
000000c7 l       .debug_str	00000000 
000000cb l       .debug_str	00000000 
000000d4 l       .debug_str	00000000 
00000131 l       .debug_str	00000000 
0000018e l       .debug_str	00000000 
00000193 l       .debug_str	00000000 
00000197 l       .debug_str	00000000 
0000019c l       .debug_str	00000000 
0000019e l       .debug_str	00000000 
000001a4 l       .debug_str	00000000 
000001a8 l       .debug_str	00000000 
000001ad l       .debug_str	00000000 
000001b2 l       .debug_str	00000000 
000001b8 l       .debug_str	00000000 
000001be l       .debug_str	00000000 
000001c5 l       .debug_str	00000000 
000001ca l       .debug_str	00000000 
000001d0 l       .debug_str	00000000 
000001d2 l       .debug_str	00000000 
000001d7 l       .debug_str	00000000 
000001db l       .debug_str	00000000 
000001e9 l       .debug_str	00000000 
000001f3 l       .debug_str	00000000 
000001f7 l       .debug_str	00000000 
000001ff l       .debug_str	00000000 
00000207 l       .debug_str	00000000 
0000020e l       .debug_str	00000000 
00000222 l       .debug_str	00000000 
0000022e l       .debug_str	00000000 
00000239 l       .debug_str	00000000 
00000240 l       .debug_str	00000000 
00000246 l       .debug_str	00000000 
0000024a l       .debug_str	00000000 
00000250 l       .debug_str	00000000 
00000256 l       .debug_str	00000000 
00000259 l       .debug_str	00000000 
00000268 l       .debug_str	00000000 
0000026f l       .debug_str	00000000 
00000273 l       .debug_str	00000000 
0000027c l       .debug_str	00000000 
00000288 l       .debug_str	00000000 
000002a1 l       .debug_str	00000000 
000002a6 l       .debug_str	00000000 
000002b7 l       .debug_str	00000000 
0000031f l       .debug_str	00000000 
0000032a l       .debug_str	00000000 
00000347 l       .debug_str	00000000 
0000034b l       .debug_str	00000000 
00000353 l       .debug_str	00000000 
0000036a l       .debug_str	00000000 
00000000 l    d  .text._ZN4core3fmt3num50_$LT$impl$u20$core..fmt..Debug$u20$for$u20$i32$GT$3fmt17h9e3ddf3b71073729E	00000000 .text._ZN4core3fmt3num50_$LT$impl$u20$core..fmt..Debug$u20$for$u20$i32$GT$3fmt17h9e3ddf3b71073729E
00000000 l    d  .text._ZN4core3fmt3num50_$LT$impl$u20$core..fmt..Debug$u20$for$u20$u16$GT$3fmt17ha62d55cd1d0b3de9E	00000000 .text._ZN4core3fmt3num50_$LT$impl$u20$core..fmt..Debug$u20$for$u20$u16$GT$3fmt17ha62d55cd1d0b3de9E
00000000 l    d  .debug_abbrev	00000000 .debug_abbrev
00000000 l    d  .debug_info	00000000 .debug_info
00000000 l    d  .debug_ranges	00000000 .debug_ranges
00000000 l    d  .debug_frame	00000000 .debug_frame
00000000 l    d  .debug_line	00000000 .debug_line
00000000         *UND*	00000000 _ZN4core3fmt3num3imp52_$LT$impl$u20$core..fmt..Display$u20$for$u20$i32$GT$3fmt17h33b3bbdbc74b88baE
00000000         *UND*	00000000 _ZN4core3fmt3num3imp52_$LT$impl$u20$core..fmt..Display$u20$for$u20$u16$GT$3fmt17hc4c95b945dca8c87E
00000000 g     F .text._ZN4core3fmt3num50_$LT$impl$u20$core..fmt..Debug$u20$for$u20$i32$GT$3fmt17h9e3ddf3b71073729E	00000072 .hidden _ZN4core3fmt3num50_$LT$impl$u20$core..fmt..Debug$u20$for$u20$i32$GT$3fmt17h9e3ddf3b71073729E
00000000 g     F .text._ZN4core3fmt3num50_$LT$impl$u20$core..fmt..Debug$u20$for$u20$u16$GT$3fmt17ha62d55cd1d0b3de9E	00000072 .hidden _ZN4core3fmt3num50_$LT$impl$u20$core..fmt..Debug$u20$for$u20$u16$GT$3fmt17ha62d55cd1d0b3de9E
00000000         *UND*	00000000 _ZN4core3fmt3num53_$LT$impl$u20$core..fmt..LowerHex$u20$for$u20$i32$GT$3fmt17hb2119167a92723afE
00000000         *UND*	00000000 _ZN4core3fmt3num53_$LT$impl$u20$core..fmt..LowerHex$u20$for$u20$u16$GT$3fmt17h64ef524a23a0177cE
00000000         *UND*	00000000 _ZN4core3fmt3num53_$LT$impl$u20$core..fmt..UpperHex$u20$for$u20$i32$GT$3fmt17hc44988ae29d24532E
00000000         *UND*	00000000 _ZN4core3fmt3num53_$LT$impl$u20$core..fmt..UpperHex$u20$for$u20$u16$GT$3fmt17h0cc208c1b57a04edE
00000000         *UND*	00000000 _ZN4core3fmt9Formatter15debug_lower_hex17h6ead2f28bb05b574E
00000000         *UND*	00000000 _ZN4core3fmt9Formatter15debug_upper_hex17hd6d96e6aa5cb78d8E



Disassembly of section .text._ZN4core3fmt3num50_$LT$impl$u20$core..fmt..Debug$u20$for$u20$i32$GT$3fmt17h9e3ddf3b71073729E:

00000000 <_ZN4core3fmt3num50_$LT$impl$u20$core..fmt..Debug$u20$for$u20$i32$GT$3fmt17h9e3ddf3b71073729E>:
_ZN4core3fmt3num50_$LT$impl$u20$core..fmt..Debug$u20$for$u20$i32$GT$3fmt17h9e3ddf3b71073729E():
/rustc/50a0defd5a93523067ef239936cc2e0755220904/src/libcore/fmt/num.rs:146
   0:	b580      	push	{r7, lr}
   2:	b088      	sub	sp, #32
   4:	460a      	mov	r2, r1
   6:	4603      	mov	r3, r0
   8:	9005      	str	r0, [sp, #20]
   a:	9106      	str	r1, [sp, #24]
/rustc/50a0defd5a93523067ef239936cc2e0755220904/src/libcore/fmt/num.rs:147
   c:	9806      	ldr	r0, [sp, #24]
   e:	9204      	str	r2, [sp, #16]
  10:	9303      	str	r3, [sp, #12]
  12:	f7ff fffe 	bl	0 <_ZN4core3fmt9Formatter15debug_lower_hex17h6ead2f28bb05b574E>
  16:	9002      	str	r0, [sp, #8]
  18:	e7ff      	b.n	1a <_ZN4core3fmt3num50_$LT$impl$u20$core..fmt..Debug$u20$for$u20$i32$GT$3fmt17h9e3ddf3b71073729E+0x1a>
  1a:	9802      	ldr	r0, [sp, #8]
  1c:	07c1      	lsls	r1, r0, #31
  1e:	2900      	cmp	r1, #0
  20:	d008      	beq.n	34 <_ZN4core3fmt3num50_$LT$impl$u20$core..fmt..Debug$u20$for$u20$i32$GT$3fmt17h9e3ddf3b71073729E+0x34>
  22:	e7ff      	b.n	24 <_ZN4core3fmt3num50_$LT$impl$u20$core..fmt..Debug$u20$for$u20$i32$GT$3fmt17h9e3ddf3b71073729E+0x24>
/rustc/50a0defd5a93523067ef239936cc2e0755220904/src/libcore/fmt/num.rs:148
  24:	9805      	ldr	r0, [sp, #20]
  26:	9906      	ldr	r1, [sp, #24]
  28:	f7ff fffe 	bl	0 <_ZN4core3fmt3num53_$LT$impl$u20$core..fmt..LowerHex$u20$for$u20$i32$GT$3fmt17hb2119167a92723afE>
  2c:	f88d 001f 	strb.w	r0, [sp, #31]
  30:	e7ff      	b.n	32 <_ZN4core3fmt3num50_$LT$impl$u20$core..fmt..Debug$u20$for$u20$i32$GT$3fmt17h9e3ddf3b71073729E+0x32>
/rustc/50a0defd5a93523067ef239936cc2e0755220904/src/libcore/fmt/num.rs:147
  32:	e01a      	b.n	6a <_ZN4core3fmt3num50_$LT$impl$u20$core..fmt..Debug$u20$for$u20$i32$GT$3fmt17h9e3ddf3b71073729E+0x6a>
/rustc/50a0defd5a93523067ef239936cc2e0755220904/src/libcore/fmt/num.rs:149
  34:	9806      	ldr	r0, [sp, #24]
  36:	f7ff fffe 	bl	0 <_ZN4core3fmt9Formatter15debug_upper_hex17hd6d96e6aa5cb78d8E>
  3a:	9001      	str	r0, [sp, #4]
  3c:	e7ff      	b.n	3e <_ZN4core3fmt3num50_$LT$impl$u20$core..fmt..Debug$u20$for$u20$i32$GT$3fmt17h9e3ddf3b71073729E+0x3e>
  3e:	9801      	ldr	r0, [sp, #4]
  40:	07c1      	lsls	r1, r0, #31
  42:	2900      	cmp	r1, #0
  44:	d008      	beq.n	58 <_ZN4core3fmt3num50_$LT$impl$u20$core..fmt..Debug$u20$for$u20$i32$GT$3fmt17h9e3ddf3b71073729E+0x58>
  46:	e7ff      	b.n	48 <_ZN4core3fmt3num50_$LT$impl$u20$core..fmt..Debug$u20$for$u20$i32$GT$3fmt17h9e3ddf3b71073729E+0x48>
/rustc/50a0defd5a93523067ef239936cc2e0755220904/src/libcore/fmt/num.rs:150
  48:	9805      	ldr	r0, [sp, #20]
  4a:	9906      	ldr	r1, [sp, #24]
  4c:	f7ff fffe 	bl	0 <_ZN4core3fmt3num53_$LT$impl$u20$core..fmt..UpperHex$u20$for$u20$i32$GT$3fmt17hc44988ae29d24532E>
  50:	f88d 001f 	strb.w	r0, [sp, #31]
  54:	e7ff      	b.n	56 <_ZN4core3fmt3num50_$LT$impl$u20$core..fmt..Debug$u20$for$u20$i32$GT$3fmt17h9e3ddf3b71073729E+0x56>
/rustc/50a0defd5a93523067ef239936cc2e0755220904/src/libcore/fmt/num.rs:149
  56:	e007      	b.n	68 <_ZN4core3fmt3num50_$LT$impl$u20$core..fmt..Debug$u20$for$u20$i32$GT$3fmt17h9e3ddf3b71073729E+0x68>
/rustc/50a0defd5a93523067ef239936cc2e0755220904/src/libcore/fmt/num.rs:152
  58:	9805      	ldr	r0, [sp, #20]
  5a:	9906      	ldr	r1, [sp, #24]
  5c:	f7ff fffe 	bl	0 <_ZN4core3fmt3num3imp52_$LT$impl$u20$core..fmt..Display$u20$for$u20$i32$GT$3fmt17h33b3bbdbc74b88baE>
  60:	f88d 001f 	strb.w	r0, [sp, #31]
  64:	e7ff      	b.n	66 <_ZN4core3fmt3num50_$LT$impl$u20$core..fmt..Debug$u20$for$u20$i32$GT$3fmt17h9e3ddf3b71073729E+0x66>
/rustc/50a0defd5a93523067ef239936cc2e0755220904/src/libcore/fmt/num.rs:149
  66:	e7ff      	b.n	68 <_ZN4core3fmt3num50_$LT$impl$u20$core..fmt..Debug$u20$for$u20$i32$GT$3fmt17h9e3ddf3b71073729E+0x68>
/rustc/50a0defd5a93523067ef239936cc2e0755220904/src/libcore/fmt/num.rs:147
  68:	e7ff      	b.n	6a <_ZN4core3fmt3num50_$LT$impl$u20$core..fmt..Debug$u20$for$u20$i32$GT$3fmt17h9e3ddf3b71073729E+0x6a>
/rustc/50a0defd5a93523067ef239936cc2e0755220904/src/libcore/fmt/num.rs:154
  6a:	f89d 001f 	ldrb.w	r0, [sp, #31]
  6e:	b008      	add	sp, #32
  70:	bd80      	pop	{r7, pc}

Disassembly of section .text._ZN4core3fmt3num50_$LT$impl$u20$core..fmt..Debug$u20$for$u20$u16$GT$3fmt17ha62d55cd1d0b3de9E:

00000000 <_ZN4core3fmt3num50_$LT$impl$u20$core..fmt..Debug$u20$for$u20$u16$GT$3fmt17ha62d55cd1d0b3de9E>:
_ZN4core3fmt3num50_$LT$impl$u20$core..fmt..Debug$u20$for$u20$u16$GT$3fmt17ha62d55cd1d0b3de9E():
/rustc/50a0defd5a93523067ef239936cc2e0755220904/src/libcore/fmt/num.rs:146
   0:	b580      	push	{r7, lr}
   2:	b088      	sub	sp, #32
   4:	460a      	mov	r2, r1
   6:	4603      	mov	r3, r0
   8:	9005      	str	r0, [sp, #20]
   a:	9106      	str	r1, [sp, #24]
/rustc/50a0defd5a93523067ef239936cc2e0755220904/src/libcore/fmt/num.rs:147
   c:	9806      	ldr	r0, [sp, #24]
   e:	9204      	str	r2, [sp, #16]
  10:	9303      	str	r3, [sp, #12]
  12:	f7ff fffe 	bl	0 <_ZN4core3fmt9Formatter15debug_lower_hex17h6ead2f28bb05b574E>
  16:	9002      	str	r0, [sp, #8]
  18:	e7ff      	b.n	1a <_ZN4core3fmt3num50_$LT$impl$u20$core..fmt..Debug$u20$for$u20$u16$GT$3fmt17ha62d55cd1d0b3de9E+0x1a>
  1a:	9802      	ldr	r0, [sp, #8]
  1c:	07c1      	lsls	r1, r0, #31
  1e:	2900      	cmp	r1, #0
  20:	d008      	beq.n	34 <_ZN4core3fmt3num50_$LT$impl$u20$core..fmt..Debug$u20$for$u20$u16$GT$3fmt17ha62d55cd1d0b3de9E+0x34>
  22:	e7ff      	b.n	24 <_ZN4core3fmt3num50_$LT$impl$u20$core..fmt..Debug$u20$for$u20$u16$GT$3fmt17ha62d55cd1d0b3de9E+0x24>
/rustc/50a0defd5a93523067ef239936cc2e0755220904/src/libcore/fmt/num.rs:148
  24:	9805      	ldr	r0, [sp, #20]
  26:	9906      	ldr	r1, [sp, #24]
  28:	f7ff fffe 	bl	0 <_ZN4core3fmt3num53_$LT$impl$u20$core..fmt..LowerHex$u20$for$u20$u16$GT$3fmt17h64ef524a23a0177cE>
  2c:	f88d 001f 	strb.w	r0, [sp, #31]
  30:	e7ff      	b.n	32 <_ZN4core3fmt3num50_$LT$impl$u20$core..fmt..Debug$u20$for$u20$u16$GT$3fmt17ha62d55cd1d0b3de9E+0x32>
/rustc/50a0defd5a93523067ef239936cc2e0755220904/src/libcore/fmt/num.rs:147
  32:	e01a      	b.n	6a <_ZN4core3fmt3num50_$LT$impl$u20$core..fmt..Debug$u20$for$u20$u16$GT$3fmt17ha62d55cd1d0b3de9E+0x6a>
/rustc/50a0defd5a93523067ef239936cc2e0755220904/src/libcore/fmt/num.rs:149
  34:	9806      	ldr	r0, [sp, #24]
  36:	f7ff fffe 	bl	0 <_ZN4core3fmt9Formatter15debug_upper_hex17hd6d96e6aa5cb78d8E>
  3a:	9001      	str	r0, [sp, #4]
  3c:	e7ff      	b.n	3e <_ZN4core3fmt3num50_$LT$impl$u20$core..fmt..Debug$u20$for$u20$u16$GT$3fmt17ha62d55cd1d0b3de9E+0x3e>
  3e:	9801      	ldr	r0, [sp, #4]
  40:	07c1      	lsls	r1, r0, #31
  42:	2900      	cmp	r1, #0
  44:	d008      	beq.n	58 <_ZN4core3fmt3num50_$LT$impl$u20$core..fmt..Debug$u20$for$u20$u16$GT$3fmt17ha62d55cd1d0b3de9E+0x58>
  46:	e7ff      	b.n	48 <_ZN4core3fmt3num50_$LT$impl$u20$core..fmt..Debug$u20$for$u20$u16$GT$3fmt17ha62d55cd1d0b3de9E+0x48>
/rustc/50a0defd5a93523067ef239936cc2e0755220904/src/libcore/fmt/num.rs:150
  48:	9805      	ldr	r0, [sp, #20]
  4a:	9906      	ldr	r1, [sp, #24]
  4c:	f7ff fffe 	bl	0 <_ZN4core3fmt3num53_$LT$impl$u20$core..fmt..UpperHex$u20$for$u20$u16$GT$3fmt17h0cc208c1b57a04edE>
  50:	f88d 001f 	strb.w	r0, [sp, #31]
  54:	e7ff      	b.n	56 <_ZN4core3fmt3num50_$LT$impl$u20$core..fmt..Debug$u20$for$u20$u16$GT$3fmt17ha62d55cd1d0b3de9E+0x56>
/rustc/50a0defd5a93523067ef239936cc2e0755220904/src/libcore/fmt/num.rs:149
  56:	e007      	b.n	68 <_ZN4core3fmt3num50_$LT$impl$u20$core..fmt..Debug$u20$for$u20$u16$GT$3fmt17ha62d55cd1d0b3de9E+0x68>
/rustc/50a0defd5a93523067ef239936cc2e0755220904/src/libcore/fmt/num.rs:152
  58:	9805      	ldr	r0, [sp, #20]
  5a:	9906      	ldr	r1, [sp, #24]
  5c:	f7ff fffe 	bl	0 <_ZN4core3fmt3num3imp52_$LT$impl$u20$core..fmt..Display$u20$for$u20$u16$GT$3fmt17hc4c95b945dca8c87E>
  60:	f88d 001f 	strb.w	r0, [sp, #31]
  64:	e7ff      	b.n	66 <_ZN4core3fmt3num50_$LT$impl$u20$core..fmt..Debug$u20$for$u20$u16$GT$3fmt17ha62d55cd1d0b3de9E+0x66>
/rustc/50a0defd5a93523067ef239936cc2e0755220904/src/libcore/fmt/num.rs:149
  66:	e7ff      	b.n	68 <_ZN4core3fmt3num50_$LT$impl$u20$core..fmt..Debug$u20$for$u20$u16$GT$3fmt17ha62d55cd1d0b3de9E+0x68>
/rustc/50a0defd5a93523067ef239936cc2e0755220904/src/libcore/fmt/num.rs:147
  68:	e7ff      	b.n	6a <_ZN4core3fmt3num50_$LT$impl$u20$core..fmt..Debug$u20$for$u20$u16$GT$3fmt17ha62d55cd1d0b3de9E+0x6a>
/rustc/50a0defd5a93523067ef239936cc2e0755220904/src/libcore/fmt/num.rs:154
  6a:	f89d 001f 	ldrb.w	r0, [sp, #31]
  6e:	b008      	add	sp, #32
  70:	bd80      	pop	{r7, pc}

mylib-b003fcb153d61cda.23l0w0pq083mtt57.rcgu.o:     file format elf32-littlearm

SYMBOL TABLE:
00000000 l    df *ABS*	00000000 23l0w0pq083mtt57
00000175 l       .debug_str	00000000 
00000149 l       .debug_str	00000000 
0000014d l       .debug_str	00000000 
00000156 l       .debug_str	00000000 
00000159 l       .debug_str	00000000 
00000163 l       .debug_str	00000000 
0000016a l       .debug_str	00000000 
00000170 l       .debug_str	00000000 
0000017b l       .debug_str	00000000 
00000180 l       .debug_str	00000000 
00000186 l       .debug_str	00000000 
0000018b l       .debug_str	00000000 
00000190 l       .debug_str	00000000 
00000195 l       .debug_str	00000000 
00000197 l       .debug_str	00000000 
00000000 l       .debug_str	00000000 
00000041 l       .debug_str	00000000 
0000004c l       .debug_str	00000000 
0000007c l       .debug_str	00000000 
00000081 l       .debug_str	00000000 
00000088 l       .debug_str	00000000 
0000008c l       .debug_str	00000000 
0000008f l       .debug_str	00000000 
00000093 l       .debug_str	00000000 
00000096 l       .debug_str	00000000 
00000098 l       .debug_str	00000000 
0000009c l       .debug_str	00000000 
0000009e l       .debug_str	00000000 
000000a2 l       .debug_str	00000000 
000000b2 l       .debug_str	00000000 
000000e5 l       .debug_str	00000000 
000000f8 l       .debug_str	00000000 
000000fa l       .debug_str	00000000 
0000013a l       .debug_str	00000000 
00000000 l     O .rodata..Lanon.fb57867c0819510d004bf1187bb70872.2	00000010 .Lanon.fb57867c0819510d004bf1187bb70872.2
00000000 l     O .rodata..Lanon.fb57867c0819510d004bf1187bb70872.4	00000010 .Lanon.fb57867c0819510d004bf1187bb70872.4
00000000 l    d  .text._ZN4core6result13unwrap_failed17h3e7d0765ad747786E	00000000 .text._ZN4core6result13unwrap_failed17h3e7d0765ad747786E
00000000 l    d  .text._ZN4core6result19Result$LT$T$C$E$GT$6expect17hd036ff3d7a4f372eE	00000000 .text._ZN4core6result19Result$LT$T$C$E$GT$6expect17hd036ff3d7a4f372eE
00000000 l    d  .rodata..Lanon.fb57867c0819510d004bf1187bb70872.0	00000000 .rodata..Lanon.fb57867c0819510d004bf1187bb70872.0
00000000 l    d  .rodata..Lanon.fb57867c0819510d004bf1187bb70872.1	00000000 .rodata..Lanon.fb57867c0819510d004bf1187bb70872.1
00000000 l    d  .rodata..Lanon.fb57867c0819510d004bf1187bb70872.3	00000000 .rodata..Lanon.fb57867c0819510d004bf1187bb70872.3
00000000 l    d  .debug_abbrev	00000000 .debug_abbrev
00000000 l    d  .debug_info	00000000 .debug_info
00000000 l    d  .debug_ranges	00000000 .debug_ranges
00000000 l    d  .debug_frame	00000000 .debug_frame
00000000 l    d  .debug_line	00000000 .debug_line
00000000         *UND*	00000000 _ZN44_$LT$$RF$T$u20$as$u20$core..fmt..Display$GT$3fmt17h4533063c292a1bf4E
00000000         *UND*	00000000 _ZN4core3fmt10ArgumentV13new17hc3a720c8f5dbc78aE
00000000         *UND*	00000000 _ZN4core3fmt10ArgumentV13new17he96b0bb5e87d0237E
00000000         *UND*	00000000 .hidden _ZN4core3fmt3num50_$LT$impl$u20$core..fmt..Debug$u20$for$u20$i32$GT$3fmt17h9e3ddf3b71073729E
00000000         *UND*	00000000 .hidden _ZN4core3fmt9Arguments6new_v117he189e8374689c47cE
00000000 g     F .text._ZN4core6result13unwrap_failed17h3e7d0765ad747786E	0000008e _ZN4core6result13unwrap_failed17h3e7d0765ad747786E
00000000 g     F .text._ZN4core6result19Result$LT$T$C$E$GT$6expect17hd036ff3d7a4f372eE	00000052 _ZN4core6result19Result$LT$T$C$E$GT$6expect17hd036ff3d7a4f372eE
00000000         *UND*	00000000 _ZN4core9panicking9panic_fmt17h6b4d8e87b0965449E



Disassembly of section .text._ZN4core6result13unwrap_failed17h3e7d0765ad747786E:

00000000 <_ZN4core6result13unwrap_failed17h3e7d0765ad747786E>:
_ZN4core6result13unwrap_failed17h3e7d0765ad747786E():
/rustc/50a0defd5a93523067ef239936cc2e0755220904/src/libcore/result.rs:998
   0:	b09a      	sub	sp, #104	; 0x68
   2:	4613      	mov	r3, r2
   4:	468c      	mov	ip, r1
   6:	4686      	mov	lr, r0
   8:	9009      	str	r0, [sp, #36]	; 0x24
   a:	910a      	str	r1, [sp, #40]	; 0x28
   c:	920b      	str	r2, [sp, #44]	; 0x2c
   e:	a809      	add	r0, sp, #36	; 0x24
/rustc/50a0defd5a93523067ef239936cc2e0755220904/src/libcore/result.rs:999
  10:	9016      	str	r0, [sp, #88]	; 0x58
  12:	a80b      	add	r0, sp, #44	; 0x2c
  14:	9017      	str	r0, [sp, #92]	; 0x5c
/Users/Luppy/mynewt/stm32bluepill-mynewt-sensor/src/lib.rs:1
//!  Sensor app that reads sensor data from a temperature sensor and sends the sensor data to a CoAP server or Collector Node.
  16:	9816      	ldr	r0, [sp, #88]	; 0x58
  18:	9018      	str	r0, [sp, #96]	; 0x60
  1a:	9817      	ldr	r0, [sp, #92]	; 0x5c
  1c:	9019      	str	r0, [sp, #100]	; 0x64
/rustc/50a0defd5a93523067ef239936cc2e0755220904/src/libcore/result.rs:999
  1e:	9818      	ldr	r0, [sp, #96]	; 0x60
/rustc/50a0defd5a93523067ef239936cc2e0755220904/src/libcore/macros.rs:18
  20:	f240 0100 	movw	r1, #0
  24:	f2c0 0100 	movt	r1, #0
  28:	9308      	str	r3, [sp, #32]
  2a:	f8cd c01c 	str.w	ip, [sp, #28]
  2e:	f8cd e018 	str.w	lr, [sp, #24]
  32:	f7ff fffe 	bl	0 <_ZN4core3fmt10ArgumentV13new17hc3a720c8f5dbc78aE>
  36:	9005      	str	r0, [sp, #20]
  38:	9104      	str	r1, [sp, #16]
  3a:	e7ff      	b.n	3c <_ZN4core6result13unwrap_failed17h3e7d0765ad747786E+0x3c>
/rustc/50a0defd5a93523067ef239936cc2e0755220904/src/libcore/result.rs:999
  3c:	9819      	ldr	r0, [sp, #100]	; 0x64
/rustc/50a0defd5a93523067ef239936cc2e0755220904/src/libcore/macros.rs:18
  3e:	f240 0100 	movw	r1, #0
  42:	f2c0 0100 	movt	r1, #0
  46:	f7ff fffe 	bl	0 <_ZN4core3fmt10ArgumentV13new17he96b0bb5e87d0237E>
  4a:	9003      	str	r0, [sp, #12]
  4c:	9102      	str	r1, [sp, #8]
  4e:	e7ff      	b.n	50 <_ZN4core6result13unwrap_failed17h3e7d0765ad747786E+0x50>
/rustc/50a0defd5a93523067ef239936cc2e0755220904/src/libcore/result.rs:999
  50:	9805      	ldr	r0, [sp, #20]
  52:	9012      	str	r0, [sp, #72]	; 0x48
  54:	9904      	ldr	r1, [sp, #16]
  56:	9113      	str	r1, [sp, #76]	; 0x4c
  58:	9a03      	ldr	r2, [sp, #12]
  5a:	9214      	str	r2, [sp, #80]	; 0x50
  5c:	9b02      	ldr	r3, [sp, #8]
  5e:	9315      	str	r3, [sp, #84]	; 0x54
/rustc/50a0defd5a93523067ef239936cc2e0755220904/src/libcore/macros.rs:18
  60:	46ec      	mov	ip, sp
  62:	f04f 0e02 	mov.w	lr, #2
  66:	f8cc e000 	str.w	lr, [ip]
  6a:	f240 0100 	movw	r1, #0
  6e:	f2c0 0100 	movt	r1, #0
  72:	a80c      	add	r0, sp, #48	; 0x30
  74:	ab12      	add	r3, sp, #72	; 0x48
  76:	4672      	mov	r2, lr
  78:	f7ff fffe 	bl	0 <_ZN4core3fmt9Arguments6new_v117he189e8374689c47cE>
  7c:	e7ff      	b.n	2 <_ZN4core6result13unwrap_failed17h3e7d0765ad747786E+0x2>
  7e:	f240 0100 	movw	r1, #0
  82:	f2c0 0100 	movt	r1, #0
  86:	a80c      	add	r0, sp, #48	; 0x30
  88:	f7ff fffe 	bl	0 <_ZN4core9panicking9panic_fmt17h6b4d8e87b0965449E>
  8c:	defe      	udf	#254	; 0xfe

Disassembly of section .text._ZN4core6result19Result$LT$T$C$E$GT$6expect17hd036ff3d7a4f372eE:

00000000 <_ZN4core6result19Result$LT$T$C$E$GT$6expect17hd036ff3d7a4f372eE>:
_ZN4core6result19Result$LT$T$C$E$GT$6expect17hd036ff3d7a4f372eE():
/rustc/50a0defd5a93523067ef239936cc2e0755220904/src/libcore/result.rs:824
   0:	b5b0      	push	{r4, r5, r7, lr}
   2:	b08c      	sub	sp, #48	; 0x30
   4:	469c      	mov	ip, r3
   6:	4696      	mov	lr, r2
   8:	460c      	mov	r4, r1
   a:	4605      	mov	r5, r0
   c:	9006      	str	r0, [sp, #24]
   e:	9107      	str	r1, [sp, #28]
  10:	9208      	str	r2, [sp, #32]
  12:	9309      	str	r3, [sp, #36]	; 0x24
/rustc/50a0defd5a93523067ef239936cc2e0755220904/src/libcore/result.rs:826
  14:	9806      	ldr	r0, [sp, #24]
  16:	2800      	cmp	r0, #0
  18:	f8cd c014 	str.w	ip, [sp, #20]
  1c:	f8cd e010 	str.w	lr, [sp, #16]
  20:	9403      	str	r4, [sp, #12]
  22:	9502      	str	r5, [sp, #8]
  24:	9001      	str	r0, [sp, #4]
  26:	d005      	beq.n	34 <_ZN4core6result19Result$LT$T$C$E$GT$6expect17hd036ff3d7a4f372eE+0x34>
  28:	e7ff      	b.n	2a <_ZN4core6result19Result$LT$T$C$E$GT$6expect17hd036ff3d7a4f372eE+0x2a>
  2a:	9801      	ldr	r0, [sp, #4]
  2c:	2801      	cmp	r0, #1
  2e:	d005      	beq.n	3c <_ZN4core6result19Result$LT$T$C$E$GT$6expect17hd036ff3d7a4f372eE+0x3c>
  30:	e7ff      	b.n	32 <_ZN4core6result19Result$LT$T$C$E$GT$6expect17hd036ff3d7a4f372eE+0x32>
/rustc/50a0defd5a93523067ef239936cc2e0755220904/src/libcore/result.rs:829
  32:	defe      	udf	#254	; 0xfe
  34:	9806      	ldr	r0, [sp, #24]
  36:	2800      	cmp	r0, #0
  38:	d008      	beq.n	4c <_ZN4core6result19Result$LT$T$C$E$GT$6expect17hd036ff3d7a4f372eE+0x4c>
  3a:	e009      	b.n	50 <_ZN4core6result19Result$LT$T$C$E$GT$6expect17hd036ff3d7a4f372eE+0x50>
/rustc/50a0defd5a93523067ef239936cc2e0755220904/src/libcore/result.rs:827
  3c:	9807      	ldr	r0, [sp, #28]
  3e:	900b      	str	r0, [sp, #44]	; 0x2c
  40:	9808      	ldr	r0, [sp, #32]
  42:	9909      	ldr	r1, [sp, #36]	; 0x24
  44:	9a0b      	ldr	r2, [sp, #44]	; 0x2c
  46:	f7ff fffe 	bl	0 <_ZN4core6result19Result$LT$T$C$E$GT$6expect17hd036ff3d7a4f372eE>
  4a:	defe      	udf	#254	; 0xfe
/rustc/50a0defd5a93523067ef239936cc2e0755220904/src/libcore/result.rs:829
  4c:	b00c      	add	sp, #48	; 0x30
  4e:	bdb0      	pop	{r4, r5, r7, pc}
  50:	e7fc      	b.n	4c <_ZN4core6result19Result$LT$T$C$E$GT$6expect17hd036ff3d7a4f372eE+0x4c>

mylib-b003fcb153d61cda.25y7hjucdld5sf54.rcgu.o:     file format elf32-littlearm

SYMBOL TABLE:
00000000 l    df *ABS*	00000000 25y7hjucdld5sf54
00000ec2 l       .debug_str	00000000 
00000fa8 l       .debug_str	00000000 
00000fc5 l       .debug_str	00000000 
00000fc9 l       .debug_str	00000000 
00000fd1 l       .debug_str	00000000 
00000fe8 l       .debug_str	00000000 
0000100c l       .debug_str	00000000 
00001028 l       .debug_str	00000000 
0000102d l       .debug_str	00000000 
00001036 l       .debug_str	00000000 
0000103d l       .debug_str	00000000 
00001056 l       .debug_str	00000000 
00001060 l       .debug_str	00000000 
0000107a l       .debug_str	00000000 
000010c6 l       .debug_str	00000000 
00001113 l       .debug_str	00000000 
00001160 l       .debug_str	00000000 
000011b7 l       .debug_str	00000000 
0000120f l       .debug_str	00000000 
0000125b l       .debug_str	00000000 
000012a8 l       .debug_str	00000000 
000012f3 l       .debug_str	00000000 
00000000 l       .debug_str	00000000 
00000041 l       .debug_str	00000000 
0000004c l       .debug_str	00000000 
0000007c l       .debug_str	00000000 
00000081 l       .debug_str	00000000 
00000088 l       .debug_str	00000000 
0000008b l       .debug_str	00000000 
0000008e l       .debug_str	00000000 
00000092 l       .debug_str	00000000 
00000099 l       .debug_str	00000000 
0000009d l       .debug_str	00000000 
000000a0 l       .debug_str	00000000 
000000a3 l       .debug_str	00000000 
000000a8 l       .debug_str	00000000 
000000ae l       .debug_str	00000000 
000000b5 l       .debug_str	00000000 
000000bd l       .debug_str	00000000 
000000c7 l       .debug_str	00000000 
000000cb l       .debug_str	00000000 
000000d4 l       .debug_str	00000000 
000000d8 l       .debug_str	00000000 
000000dc l       .debug_str	00000000 
000000e2 l       .debug_str	00000000 
000000eb l       .debug_str	00000000 
000000f0 l       .debug_str	00000000 
000000f7 l       .debug_str	00000000 
000000fb l       .debug_str	00000000 
00000100 l       .debug_str	00000000 
00000104 l       .debug_str	00000000 
0000014f l       .debug_str	00000000 
00000151 l       .debug_str	00000000 
00000156 l       .debug_str	00000000 
0000015a l       .debug_str	00000000 
000001ad l       .debug_str	00000000 
000001b3 l       .debug_str	00000000 
000001b7 l       .debug_str	00000000 
00000203 l       .debug_str	00000000 
00000257 l       .debug_str	00000000 
0000025d l       .debug_str	00000000 
000002a9 l       .debug_str	00000000 
000002fd l       .debug_str	00000000 
00000303 l       .debug_str	00000000 
00000310 l       .debug_str	00000000 
00000364 l       .debug_str	00000000 
00000368 l       .debug_str	00000000 
0000036e l       .debug_str	00000000 
00000376 l       .debug_str	00000000 
000003d4 l       .debug_str	00000000 
0000043a l       .debug_str	00000000 
0000043e l       .debug_str	00000000 
0000044b l       .debug_str	00000000 
0000045f l       .debug_str	00000000 
00000489 l       .debug_str	00000000 
0000048b l       .debug_str	00000000 
0000048d l       .debug_str	00000000 
00000530 l       .debug_str	00000000 
00000567 l       .debug_str	00000000 
0000060a l       .debug_str	00000000 
00000640 l       .debug_str	00000000 
000006e3 l       .debug_str	00000000 
0000071a l       .debug_str	00000000 
000007bd l       .debug_str	00000000 
000007f4 l       .debug_str	00000000 
000007fa l       .debug_str	00000000 
00000859 l       .debug_str	00000000 
00000867 l       .debug_str	00000000 
0000087b l       .debug_str	00000000 
000008a5 l       .debug_str	00000000 
000008af l       .debug_str	00000000 
000008b1 l       .debug_str	00000000 
0000095d l       .debug_str	00000000 
0000099e l       .debug_str	00000000 
000009a2 l       .debug_str	00000000 
000009f6 l       .debug_str	00000000 
000009fb l       .debug_str	00000000 
00000a45 l       .debug_str	00000000 
00000a97 l       .debug_str	00000000 
00000aa4 l       .debug_str	00000000 
00000ac9 l       .debug_str	00000000 
00000ace l       .debug_str	00000000 
00000ae9 l       .debug_str	00000000 
00000b95 l       .debug_str	00000000 
00000bcb l       .debug_str	00000000 
00000c77 l       .debug_str	00000000 
00000cab l       .debug_str	00000000 
00000cad l       .debug_str	00000000 
00000d62 l       .debug_str	00000000 
00000da9 l       .debug_str	00000000 
00000dae l       .debug_str	00000000 
00000dfa l       .debug_str	00000000 
00000e47 l       .debug_str	00000000 
00000e49 l       .debug_str	00000000 
00000e4f l       .debug_str	00000000 
00000e54 l       .debug_str	00000000 
00000e59 l       .debug_str	00000000 
00000e5f l       .debug_str	00000000 
00000e65 l       .debug_str	00000000 
00000e73 l       .debug_str	00000000 
00000e7d l       .debug_str	00000000 
00000e81 l       .debug_str	00000000 
00000e89 l       .debug_str	00000000 
00000e90 l       .debug_str	00000000 
00000ea4 l       .debug_str	00000000 
00000eb0 l       .debug_str	00000000 
00000ebb l       .debug_str	00000000 
00000ec8 l       .debug_str	00000000 
00000ece l       .debug_str	00000000 
00000ed4 l       .debug_str	00000000 
00000ed7 l       .debug_str	00000000 
00000ee6 l       .debug_str	00000000 
00000eed l       .debug_str	00000000 
00000ef1 l       .debug_str	00000000 
00000efa l       .debug_str	00000000 
00000f06 l       .debug_str	00000000 
00000f1f l       .debug_str	00000000 
00000f24 l       .debug_str	00000000 
00000f35 l       .debug_str	00000000 
00000f3f l       .debug_str	00000000 
00000f9d l       .debug_str	00000000 
00000000 l    d  .text._ZN4core3ptr123_$LT$impl$u20$core..fmt..Debug$u20$for$u20$unsafe$u20$extern$u20$$u22$C$u22$$u20$fn$LP$A$C$$u20$B$RP$$u20$.$GT$$u20$Ret$GT$3fmt17h0bbe2de0b38932c8E	00000000 .text._ZN4core3ptr123_$LT$impl$u20$core..fmt..Debug$u20$for$u20$unsafe$u20$extern$u20$$u22$C$u22$$u20$fn$LP$A$C$$u20$B$RP$$u20$.$GT$$u20$Ret$GT$3fmt17h0bbe2de0b38932c8E
00000000 l    d  .text._ZN4core3ptr123_$LT$impl$u20$core..fmt..Debug$u20$for$u20$unsafe$u20$extern$u20$$u22$C$u22$$u20$fn$LP$A$C$$u20$B$RP$$u20$.$GT$$u20$Ret$GT$3fmt17h4440b6f63884d916E	00000000 .text._ZN4core3ptr123_$LT$impl$u20$core..fmt..Debug$u20$for$u20$unsafe$u20$extern$u20$$u22$C$u22$$u20$fn$LP$A$C$$u20$B$RP$$u20$.$GT$$u20$Ret$GT$3fmt17h4440b6f63884d916E
00000000 l    d  .text._ZN4core3ptr123_$LT$impl$u20$core..fmt..Debug$u20$for$u20$unsafe$u20$extern$u20$$u22$C$u22$$u20$fn$LP$A$C$$u20$B$RP$$u20$.$GT$$u20$Ret$GT$3fmt17h65f8e9db2d41fa07E	00000000 .text._ZN4core3ptr123_$LT$impl$u20$core..fmt..Debug$u20$for$u20$unsafe$u20$extern$u20$$u22$C$u22$$u20$fn$LP$A$C$$u20$B$RP$$u20$.$GT$$u20$Ret$GT$3fmt17h65f8e9db2d41fa07E
00000000 l    d  .text._ZN4core3ptr123_$LT$impl$u20$core..fmt..Debug$u20$for$u20$unsafe$u20$extern$u20$$u22$C$u22$$u20$fn$LP$A$C$$u20$B$RP$$u20$.$GT$$u20$Ret$GT$3fmt17he9cd39f63afe9bd2E	00000000 .text._ZN4core3ptr123_$LT$impl$u20$core..fmt..Debug$u20$for$u20$unsafe$u20$extern$u20$$u22$C$u22$$u20$fn$LP$A$C$$u20$B$RP$$u20$.$GT$$u20$Ret$GT$3fmt17he9cd39f63afe9bd2E
00000000 l    d  .text._ZN4core3ptr132_$LT$impl$u20$core..fmt..Debug$u20$for$u20$unsafe$u20$extern$u20$$u22$C$u22$$u20$fn$LP$A$C$$u20$B$C$$u20$C$RP$$u20$.$GT$$u20$Ret$GT$3fmt17h170eefadf5c6ab1aE	00000000 .text._ZN4core3ptr132_$LT$impl$u20$core..fmt..Debug$u20$for$u20$unsafe$u20$extern$u20$$u22$C$u22$$u20$fn$LP$A$C$$u20$B$C$$u20$C$RP$$u20$.$GT$$u20$Ret$GT$3fmt17h170eefadf5c6ab1aE
00000000 l    d  .text._ZN4core3ptr132_$LT$impl$u20$core..fmt..Debug$u20$for$u20$unsafe$u20$extern$u20$$u22$C$u22$$u20$fn$LP$A$C$$u20$B$C$$u20$C$RP$$u20$.$GT$$u20$Ret$GT$3fmt17h7b70789ce6c52447E	00000000 .text._ZN4core3ptr132_$LT$impl$u20$core..fmt..Debug$u20$for$u20$unsafe$u20$extern$u20$$u22$C$u22$$u20$fn$LP$A$C$$u20$B$C$$u20$C$RP$$u20$.$GT$$u20$Ret$GT$3fmt17h7b70789ce6c52447E
00000000 l    d  .text._ZN4core3ptr132_$LT$impl$u20$core..fmt..Debug$u20$for$u20$unsafe$u20$extern$u20$$u22$C$u22$$u20$fn$LP$A$C$$u20$B$C$$u20$C$RP$$u20$.$GT$$u20$Ret$GT$3fmt17hf0ecc1947de76860E	00000000 .text._ZN4core3ptr132_$LT$impl$u20$core..fmt..Debug$u20$for$u20$unsafe$u20$extern$u20$$u22$C$u22$$u20$fn$LP$A$C$$u20$B$C$$u20$C$RP$$u20$.$GT$$u20$Ret$GT$3fmt17hf0ecc1947de76860E
00000000 l    d  .text._ZN4core3ptr141_$LT$impl$u20$core..fmt..Debug$u20$for$u20$unsafe$u20$extern$u20$$u22$C$u22$$u20$fn$LP$A$C$$u20$B$C$$u20$C$C$$u20$D$RP$$u20$.$GT$$u20$Ret$GT$3fmt17he1f758b612aa8ffaE	00000000 .text._ZN4core3ptr141_$LT$impl$u20$core..fmt..Debug$u20$for$u20$unsafe$u20$extern$u20$$u22$C$u22$$u20$fn$LP$A$C$$u20$B$C$$u20$C$C$$u20$D$RP$$u20$.$GT$$u20$Ret$GT$3fmt17he1f758b612aa8ffaE
00000000 l    d  .debug_abbrev	00000000 .debug_abbrev
00000000 l    d  .debug_info	00000000 .debug_info
00000000 l    d  .debug_ranges	00000000 .debug_ranges
00000000 l    d  .debug_frame	00000000 .debug_frame
00000000 l    d  .debug_line	00000000 .debug_line
00000000 g     F .text._ZN4core3ptr123_$LT$impl$u20$core..fmt..Debug$u20$for$u20$unsafe$u20$extern$u20$$u22$C$u22$$u20$fn$LP$A$C$$u20$B$RP$$u20$.$GT$$u20$Ret$GT$3fmt17h0bbe2de0b38932c8E	0000002c _ZN4core3ptr123_$LT$impl$u20$core..fmt..Debug$u20$for$u20$unsafe$u20$extern$u20$$u22$C$u22$$u20$fn$LP$A$C$$u20$B$RP$$u20$.$GT$$u20$Ret$GT$3fmt17h0bbe2de0b38932c8E
00000000 g     F .text._ZN4core3ptr123_$LT$impl$u20$core..fmt..Debug$u20$for$u20$unsafe$u20$extern$u20$$u22$C$u22$$u20$fn$LP$A$C$$u20$B$RP$$u20$.$GT$$u20$Ret$GT$3fmt17h4440b6f63884d916E	0000002c _ZN4core3ptr123_$LT$impl$u20$core..fmt..Debug$u20$for$u20$unsafe$u20$extern$u20$$u22$C$u22$$u20$fn$LP$A$C$$u20$B$RP$$u20$.$GT$$u20$Ret$GT$3fmt17h4440b6f63884d916E
00000000 g     F .text._ZN4core3ptr123_$LT$impl$u20$core..fmt..Debug$u20$for$u20$unsafe$u20$extern$u20$$u22$C$u22$$u20$fn$LP$A$C$$u20$B$RP$$u20$.$GT$$u20$Ret$GT$3fmt17h65f8e9db2d41fa07E	0000002c _ZN4core3ptr123_$LT$impl$u20$core..fmt..Debug$u20$for$u20$unsafe$u20$extern$u20$$u22$C$u22$$u20$fn$LP$A$C$$u20$B$RP$$u20$.$GT$$u20$Ret$GT$3fmt17h65f8e9db2d41fa07E
00000000 g     F .text._ZN4core3ptr123_$LT$impl$u20$core..fmt..Debug$u20$for$u20$unsafe$u20$extern$u20$$u22$C$u22$$u20$fn$LP$A$C$$u20$B$RP$$u20$.$GT$$u20$Ret$GT$3fmt17he9cd39f63afe9bd2E	0000002c _ZN4core3ptr123_$LT$impl$u20$core..fmt..Debug$u20$for$u20$unsafe$u20$extern$u20$$u22$C$u22$$u20$fn$LP$A$C$$u20$B$RP$$u20$.$GT$$u20$Ret$GT$3fmt17he9cd39f63afe9bd2E
00000000 g     F .text._ZN4core3ptr132_$LT$impl$u20$core..fmt..Debug$u20$for$u20$unsafe$u20$extern$u20$$u22$C$u22$$u20$fn$LP$A$C$$u20$B$C$$u20$C$RP$$u20$.$GT$$u20$Ret$GT$3fmt17h170eefadf5c6ab1aE	0000002c _ZN4core3ptr132_$LT$impl$u20$core..fmt..Debug$u20$for$u20$unsafe$u20$extern$u20$$u22$C$u22$$u20$fn$LP$A$C$$u20$B$C$$u20$C$RP$$u20$.$GT$$u20$Ret$GT$3fmt17h170eefadf5c6ab1aE
00000000 g     F .text._ZN4core3ptr132_$LT$impl$u20$core..fmt..Debug$u20$for$u20$unsafe$u20$extern$u20$$u22$C$u22$$u20$fn$LP$A$C$$u20$B$C$$u20$C$RP$$u20$.$GT$$u20$Ret$GT$3fmt17h7b70789ce6c52447E	0000002c _ZN4core3ptr132_$LT$impl$u20$core..fmt..Debug$u20$for$u20$unsafe$u20$extern$u20$$u22$C$u22$$u20$fn$LP$A$C$$u20$B$C$$u20$C$RP$$u20$.$GT$$u20$Ret$GT$3fmt17h7b70789ce6c52447E
00000000 g     F .text._ZN4core3ptr132_$LT$impl$u20$core..fmt..Debug$u20$for$u20$unsafe$u20$extern$u20$$u22$C$u22$$u20$fn$LP$A$C$$u20$B$C$$u20$C$RP$$u20$.$GT$$u20$Ret$GT$3fmt17hf0ecc1947de76860E	0000002c _ZN4core3ptr132_$LT$impl$u20$core..fmt..Debug$u20$for$u20$unsafe$u20$extern$u20$$u22$C$u22$$u20$fn$LP$A$C$$u20$B$C$$u20$C$RP$$u20$.$GT$$u20$Ret$GT$3fmt17hf0ecc1947de76860E
00000000 g     F .text._ZN4core3ptr141_$LT$impl$u20$core..fmt..Debug$u20$for$u20$unsafe$u20$extern$u20$$u22$C$u22$$u20$fn$LP$A$C$$u20$B$C$$u20$C$C$$u20$D$RP$$u20$.$GT$$u20$Ret$GT$3fmt17he1f758b612aa8ffaE	0000002c _ZN4core3ptr141_$LT$impl$u20$core..fmt..Debug$u20$for$u20$unsafe$u20$extern$u20$$u22$C$u22$$u20$fn$LP$A$C$$u20$B$C$$u20$C$C$$u20$D$RP$$u20$.$GT$$u20$Ret$GT$3fmt17he1f758b612aa8ffaE
00000000         *UND*	00000000 _ZN54_$LT$$BP$const$u20$T$u20$as$u20$core..fmt..Pointer$GT$3fmt17h0481ba7e57c1de15E



Disassembly of section .text._ZN4core3ptr123_$LT$impl$u20$core..fmt..Debug$u20$for$u20$unsafe$u20$extern$u20$$u22$C$u22$$u20$fn$LP$A$C$$u20$B$RP$$u20$.$GT$$u20$Ret$GT$3fmt17h0bbe2de0b38932c8E:

00000000 <_ZN4core3ptr123_$LT$impl$u20$core..fmt..Debug$u20$for$u20$unsafe$u20$extern$u20$$u22$C$u22$$u20$fn$LP$A$C$$u20$B$RP$$u20$.$GT$$u20$Ret$GT$3fmt17h0bbe2de0b38932c8E>:
_ZN4core3ptr123_$LT$impl$u20$core..fmt..Debug$u20$for$u20$unsafe$u20$extern$u20$$u22$C$u22$$u20$fn$LP$A$C$$u20$B$RP$$u20$.$GT$$u20$Ret$GT$3fmt17h0bbe2de0b38932c8E():
/rustc/50a0defd5a93523067ef239936cc2e0755220904/src/libcore/ptr.rs:2638
   0:	b580      	push	{r7, lr}
   2:	b086      	sub	sp, #24
   4:	460a      	mov	r2, r1
   6:	4603      	mov	r3, r0
   8:	9003      	str	r0, [sp, #12]
   a:	9104      	str	r1, [sp, #16]
/rustc/50a0defd5a93523067ef239936cc2e0755220904/src/libcore/ptr.rs:2639
   c:	9803      	ldr	r0, [sp, #12]
   e:	6800      	ldr	r0, [r0, #0]
  10:	9005      	str	r0, [sp, #20]
  12:	9904      	ldr	r1, [sp, #16]
  14:	a805      	add	r0, sp, #20
  16:	9202      	str	r2, [sp, #8]
  18:	9301      	str	r3, [sp, #4]
  1a:	f7ff fffe 	bl	0 <_ZN54_$LT$$BP$const$u20$T$u20$as$u20$core..fmt..Pointer$GT$3fmt17h0481ba7e57c1de15E>
  1e:	9000      	str	r0, [sp, #0]
  20:	e7ff      	b.n	22 <_ZN4core3ptr123_$LT$impl$u20$core..fmt..Debug$u20$for$u20$unsafe$u20$extern$u20$$u22$C$u22$$u20$fn$LP$A$C$$u20$B$RP$$u20$.$GT$$u20$Ret$GT$3fmt17h0bbe2de0b38932c8E+0x22>
/rustc/50a0defd5a93523067ef239936cc2e0755220904/src/libcore/ptr.rs:2640
  22:	9800      	ldr	r0, [sp, #0]
  24:	f000 0001 	and.w	r0, r0, #1
  28:	b006      	add	sp, #24
  2a:	bd80      	pop	{r7, pc}

Disassembly of section .text._ZN4core3ptr123_$LT$impl$u20$core..fmt..Debug$u20$for$u20$unsafe$u20$extern$u20$$u22$C$u22$$u20$fn$LP$A$C$$u20$B$RP$$u20$.$GT$$u20$Ret$GT$3fmt17h4440b6f63884d916E:

00000000 <_ZN4core3ptr123_$LT$impl$u20$core..fmt..Debug$u20$for$u20$unsafe$u20$extern$u20$$u22$C$u22$$u20$fn$LP$A$C$$u20$B$RP$$u20$.$GT$$u20$Ret$GT$3fmt17h4440b6f63884d916E>:
_ZN4core3ptr123_$LT$impl$u20$core..fmt..Debug$u20$for$u20$unsafe$u20$extern$u20$$u22$C$u22$$u20$fn$LP$A$C$$u20$B$RP$$u20$.$GT$$u20$Ret$GT$3fmt17h4440b6f63884d916E():
/rustc/50a0defd5a93523067ef239936cc2e0755220904/src/libcore/ptr.rs:2638
   0:	b580      	push	{r7, lr}
   2:	b086      	sub	sp, #24
   4:	460a      	mov	r2, r1
   6:	4603      	mov	r3, r0
   8:	9003      	str	r0, [sp, #12]
   a:	9104      	str	r1, [sp, #16]
/rustc/50a0defd5a93523067ef239936cc2e0755220904/src/libcore/ptr.rs:2639
   c:	9803      	ldr	r0, [sp, #12]
   e:	6800      	ldr	r0, [r0, #0]
  10:	9005      	str	r0, [sp, #20]
  12:	9904      	ldr	r1, [sp, #16]
  14:	a805      	add	r0, sp, #20
  16:	9202      	str	r2, [sp, #8]
  18:	9301      	str	r3, [sp, #4]
  1a:	f7ff fffe 	bl	0 <_ZN54_$LT$$BP$const$u20$T$u20$as$u20$core..fmt..Pointer$GT$3fmt17h0481ba7e57c1de15E>
  1e:	9000      	str	r0, [sp, #0]
  20:	e7ff      	b.n	22 <_ZN4core3ptr123_$LT$impl$u20$core..fmt..Debug$u20$for$u20$unsafe$u20$extern$u20$$u22$C$u22$$u20$fn$LP$A$C$$u20$B$RP$$u20$.$GT$$u20$Ret$GT$3fmt17h4440b6f63884d916E+0x22>
/rustc/50a0defd5a93523067ef239936cc2e0755220904/src/libcore/ptr.rs:2640
  22:	9800      	ldr	r0, [sp, #0]
  24:	f000 0001 	and.w	r0, r0, #1
  28:	b006      	add	sp, #24
  2a:	bd80      	pop	{r7, pc}

Disassembly of section .text._ZN4core3ptr123_$LT$impl$u20$core..fmt..Debug$u20$for$u20$unsafe$u20$extern$u20$$u22$C$u22$$u20$fn$LP$A$C$$u20$B$RP$$u20$.$GT$$u20$Ret$GT$3fmt17h65f8e9db2d41fa07E:

00000000 <_ZN4core3ptr123_$LT$impl$u20$core..fmt..Debug$u20$for$u20$unsafe$u20$extern$u20$$u22$C$u22$$u20$fn$LP$A$C$$u20$B$RP$$u20$.$GT$$u20$Ret$GT$3fmt17h65f8e9db2d41fa07E>:
_ZN4core3ptr123_$LT$impl$u20$core..fmt..Debug$u20$for$u20$unsafe$u20$extern$u20$$u22$C$u22$$u20$fn$LP$A$C$$u20$B$RP$$u20$.$GT$$u20$Ret$GT$3fmt17h65f8e9db2d41fa07E():
/rustc/50a0defd5a93523067ef239936cc2e0755220904/src/libcore/ptr.rs:2638
   0:	b580      	push	{r7, lr}
   2:	b086      	sub	sp, #24
   4:	460a      	mov	r2, r1
   6:	4603      	mov	r3, r0
   8:	9003      	str	r0, [sp, #12]
   a:	9104      	str	r1, [sp, #16]
/rustc/50a0defd5a93523067ef239936cc2e0755220904/src/libcore/ptr.rs:2639
   c:	9803      	ldr	r0, [sp, #12]
   e:	6800      	ldr	r0, [r0, #0]
  10:	9005      	str	r0, [sp, #20]
  12:	9904      	ldr	r1, [sp, #16]
  14:	a805      	add	r0, sp, #20
  16:	9202      	str	r2, [sp, #8]
  18:	9301      	str	r3, [sp, #4]
  1a:	f7ff fffe 	bl	0 <_ZN54_$LT$$BP$const$u20$T$u20$as$u20$core..fmt..Pointer$GT$3fmt17h0481ba7e57c1de15E>
  1e:	9000      	str	r0, [sp, #0]
  20:	e7ff      	b.n	22 <_ZN4core3ptr123_$LT$impl$u20$core..fmt..Debug$u20$for$u20$unsafe$u20$extern$u20$$u22$C$u22$$u20$fn$LP$A$C$$u20$B$RP$$u20$.$GT$$u20$Ret$GT$3fmt17h65f8e9db2d41fa07E+0x22>
/rustc/50a0defd5a93523067ef239936cc2e0755220904/src/libcore/ptr.rs:2640
  22:	9800      	ldr	r0, [sp, #0]
  24:	f000 0001 	and.w	r0, r0, #1
  28:	b006      	add	sp, #24
  2a:	bd80      	pop	{r7, pc}

Disassembly of section .text._ZN4core3ptr123_$LT$impl$u20$core..fmt..Debug$u20$for$u20$unsafe$u20$extern$u20$$u22$C$u22$$u20$fn$LP$A$C$$u20$B$RP$$u20$.$GT$$u20$Ret$GT$3fmt17he9cd39f63afe9bd2E:

00000000 <_ZN4core3ptr123_$LT$impl$u20$core..fmt..Debug$u20$for$u20$unsafe$u20$extern$u20$$u22$C$u22$$u20$fn$LP$A$C$$u20$B$RP$$u20$.$GT$$u20$Ret$GT$3fmt17he9cd39f63afe9bd2E>:
_ZN4core3ptr123_$LT$impl$u20$core..fmt..Debug$u20$for$u20$unsafe$u20$extern$u20$$u22$C$u22$$u20$fn$LP$A$C$$u20$B$RP$$u20$.$GT$$u20$Ret$GT$3fmt17he9cd39f63afe9bd2E():
/rustc/50a0defd5a93523067ef239936cc2e0755220904/src/libcore/ptr.rs:2638
   0:	b580      	push	{r7, lr}
   2:	b086      	sub	sp, #24
   4:	460a      	mov	r2, r1
   6:	4603      	mov	r3, r0
   8:	9003      	str	r0, [sp, #12]
   a:	9104      	str	r1, [sp, #16]
/rustc/50a0defd5a93523067ef239936cc2e0755220904/src/libcore/ptr.rs:2639
   c:	9803      	ldr	r0, [sp, #12]
   e:	6800      	ldr	r0, [r0, #0]
  10:	9005      	str	r0, [sp, #20]
  12:	9904      	ldr	r1, [sp, #16]
  14:	a805      	add	r0, sp, #20
  16:	9202      	str	r2, [sp, #8]
  18:	9301      	str	r3, [sp, #4]
  1a:	f7ff fffe 	bl	0 <_ZN54_$LT$$BP$const$u20$T$u20$as$u20$core..fmt..Pointer$GT$3fmt17h0481ba7e57c1de15E>
  1e:	9000      	str	r0, [sp, #0]
  20:	e7ff      	b.n	22 <_ZN4core3ptr123_$LT$impl$u20$core..fmt..Debug$u20$for$u20$unsafe$u20$extern$u20$$u22$C$u22$$u20$fn$LP$A$C$$u20$B$RP$$u20$.$GT$$u20$Ret$GT$3fmt17he9cd39f63afe9bd2E+0x22>
/rustc/50a0defd5a93523067ef239936cc2e0755220904/src/libcore/ptr.rs:2640
  22:	9800      	ldr	r0, [sp, #0]
  24:	f000 0001 	and.w	r0, r0, #1
  28:	b006      	add	sp, #24
  2a:	bd80      	pop	{r7, pc}

Disassembly of section .text._ZN4core3ptr132_$LT$impl$u20$core..fmt..Debug$u20$for$u20$unsafe$u20$extern$u20$$u22$C$u22$$u20$fn$LP$A$C$$u20$B$C$$u20$C$RP$$u20$.$GT$$u20$Ret$GT$3fmt17h170eefadf5c6ab1aE:

00000000 <_ZN4core3ptr132_$LT$impl$u20$core..fmt..Debug$u20$for$u20$unsafe$u20$extern$u20$$u22$C$u22$$u20$fn$LP$A$C$$u20$B$C$$u20$C$RP$$u20$.$GT$$u20$Ret$GT$3fmt17h170eefadf5c6ab1aE>:
_ZN4core3ptr132_$LT$impl$u20$core..fmt..Debug$u20$for$u20$unsafe$u20$extern$u20$$u22$C$u22$$u20$fn$LP$A$C$$u20$B$C$$u20$C$RP$$u20$.$GT$$u20$Ret$GT$3fmt17h170eefadf5c6ab1aE():
/rustc/50a0defd5a93523067ef239936cc2e0755220904/src/libcore/ptr.rs:2638
   0:	b580      	push	{r7, lr}
   2:	b086      	sub	sp, #24
   4:	460a      	mov	r2, r1
   6:	4603      	mov	r3, r0
   8:	9003      	str	r0, [sp, #12]
   a:	9104      	str	r1, [sp, #16]
/rustc/50a0defd5a93523067ef239936cc2e0755220904/src/libcore/ptr.rs:2639
   c:	9803      	ldr	r0, [sp, #12]
   e:	6800      	ldr	r0, [r0, #0]
  10:	9005      	str	r0, [sp, #20]
  12:	9904      	ldr	r1, [sp, #16]
  14:	a805      	add	r0, sp, #20
  16:	9202      	str	r2, [sp, #8]
  18:	9301      	str	r3, [sp, #4]
  1a:	f7ff fffe 	bl	0 <_ZN54_$LT$$BP$const$u20$T$u20$as$u20$core..fmt..Pointer$GT$3fmt17h0481ba7e57c1de15E>
  1e:	9000      	str	r0, [sp, #0]
  20:	e7ff      	b.n	22 <_ZN4core3ptr132_$LT$impl$u20$core..fmt..Debug$u20$for$u20$unsafe$u20$extern$u20$$u22$C$u22$$u20$fn$LP$A$C$$u20$B$C$$u20$C$RP$$u20$.$GT$$u20$Ret$GT$3fmt17h170eefadf5c6ab1aE+0x22>
/rustc/50a0defd5a93523067ef239936cc2e0755220904/src/libcore/ptr.rs:2640
  22:	9800      	ldr	r0, [sp, #0]
  24:	f000 0001 	and.w	r0, r0, #1
  28:	b006      	add	sp, #24
  2a:	bd80      	pop	{r7, pc}

Disassembly of section .text._ZN4core3ptr132_$LT$impl$u20$core..fmt..Debug$u20$for$u20$unsafe$u20$extern$u20$$u22$C$u22$$u20$fn$LP$A$C$$u20$B$C$$u20$C$RP$$u20$.$GT$$u20$Ret$GT$3fmt17h7b70789ce6c52447E:

00000000 <_ZN4core3ptr132_$LT$impl$u20$core..fmt..Debug$u20$for$u20$unsafe$u20$extern$u20$$u22$C$u22$$u20$fn$LP$A$C$$u20$B$C$$u20$C$RP$$u20$.$GT$$u20$Ret$GT$3fmt17h7b70789ce6c52447E>:
_ZN4core3ptr132_$LT$impl$u20$core..fmt..Debug$u20$for$u20$unsafe$u20$extern$u20$$u22$C$u22$$u20$fn$LP$A$C$$u20$B$C$$u20$C$RP$$u20$.$GT$$u20$Ret$GT$3fmt17h7b70789ce6c52447E():
/rustc/50a0defd5a93523067ef239936cc2e0755220904/src/libcore/ptr.rs:2638
   0:	b580      	push	{r7, lr}
   2:	b086      	sub	sp, #24
   4:	460a      	mov	r2, r1
   6:	4603      	mov	r3, r0
   8:	9003      	str	r0, [sp, #12]
   a:	9104      	str	r1, [sp, #16]
/rustc/50a0defd5a93523067ef239936cc2e0755220904/src/libcore/ptr.rs:2639
   c:	9803      	ldr	r0, [sp, #12]
   e:	6800      	ldr	r0, [r0, #0]
  10:	9005      	str	r0, [sp, #20]
  12:	9904      	ldr	r1, [sp, #16]
  14:	a805      	add	r0, sp, #20
  16:	9202      	str	r2, [sp, #8]
  18:	9301      	str	r3, [sp, #4]
  1a:	f7ff fffe 	bl	0 <_ZN54_$LT$$BP$const$u20$T$u20$as$u20$core..fmt..Pointer$GT$3fmt17h0481ba7e57c1de15E>
  1e:	9000      	str	r0, [sp, #0]
  20:	e7ff      	b.n	22 <_ZN4core3ptr132_$LT$impl$u20$core..fmt..Debug$u20$for$u20$unsafe$u20$extern$u20$$u22$C$u22$$u20$fn$LP$A$C$$u20$B$C$$u20$C$RP$$u20$.$GT$$u20$Ret$GT$3fmt17h7b70789ce6c52447E+0x22>
/rustc/50a0defd5a93523067ef239936cc2e0755220904/src/libcore/ptr.rs:2640
  22:	9800      	ldr	r0, [sp, #0]
  24:	f000 0001 	and.w	r0, r0, #1
  28:	b006      	add	sp, #24
  2a:	bd80      	pop	{r7, pc}

Disassembly of section .text._ZN4core3ptr132_$LT$impl$u20$core..fmt..Debug$u20$for$u20$unsafe$u20$extern$u20$$u22$C$u22$$u20$fn$LP$A$C$$u20$B$C$$u20$C$RP$$u20$.$GT$$u20$Ret$GT$3fmt17hf0ecc1947de76860E:

00000000 <_ZN4core3ptr132_$LT$impl$u20$core..fmt..Debug$u20$for$u20$unsafe$u20$extern$u20$$u22$C$u22$$u20$fn$LP$A$C$$u20$B$C$$u20$C$RP$$u20$.$GT$$u20$Ret$GT$3fmt17hf0ecc1947de76860E>:
_ZN4core3ptr132_$LT$impl$u20$core..fmt..Debug$u20$for$u20$unsafe$u20$extern$u20$$u22$C$u22$$u20$fn$LP$A$C$$u20$B$C$$u20$C$RP$$u20$.$GT$$u20$Ret$GT$3fmt17hf0ecc1947de76860E():
/rustc/50a0defd5a93523067ef239936cc2e0755220904/src/libcore/ptr.rs:2638
   0:	b580      	push	{r7, lr}
   2:	b086      	sub	sp, #24
   4:	460a      	mov	r2, r1
   6:	4603      	mov	r3, r0
   8:	9003      	str	r0, [sp, #12]
   a:	9104      	str	r1, [sp, #16]
/rustc/50a0defd5a93523067ef239936cc2e0755220904/src/libcore/ptr.rs:2639
   c:	9803      	ldr	r0, [sp, #12]
   e:	6800      	ldr	r0, [r0, #0]
  10:	9005      	str	r0, [sp, #20]
  12:	9904      	ldr	r1, [sp, #16]
  14:	a805      	add	r0, sp, #20
  16:	9202      	str	r2, [sp, #8]
  18:	9301      	str	r3, [sp, #4]
  1a:	f7ff fffe 	bl	0 <_ZN54_$LT$$BP$const$u20$T$u20$as$u20$core..fmt..Pointer$GT$3fmt17h0481ba7e57c1de15E>
  1e:	9000      	str	r0, [sp, #0]
  20:	e7ff      	b.n	22 <_ZN4core3ptr132_$LT$impl$u20$core..fmt..Debug$u20$for$u20$unsafe$u20$extern$u20$$u22$C$u22$$u20$fn$LP$A$C$$u20$B$C$$u20$C$RP$$u20$.$GT$$u20$Ret$GT$3fmt17hf0ecc1947de76860E+0x22>
/rustc/50a0defd5a93523067ef239936cc2e0755220904/src/libcore/ptr.rs:2640
  22:	9800      	ldr	r0, [sp, #0]
  24:	f000 0001 	and.w	r0, r0, #1
  28:	b006      	add	sp, #24
  2a:	bd80      	pop	{r7, pc}

Disassembly of section .text._ZN4core3ptr141_$LT$impl$u20$core..fmt..Debug$u20$for$u20$unsafe$u20$extern$u20$$u22$C$u22$$u20$fn$LP$A$C$$u20$B$C$$u20$C$C$$u20$D$RP$$u20$.$GT$$u20$Ret$GT$3fmt17he1f758b612aa8ffaE:

00000000 <_ZN4core3ptr141_$LT$impl$u20$core..fmt..Debug$u20$for$u20$unsafe$u20$extern$u20$$u22$C$u22$$u20$fn$LP$A$C$$u20$B$C$$u20$C$C$$u20$D$RP$$u20$.$GT$$u20$Ret$GT$3fmt17he1f758b612aa8ffaE>:
_ZN4core3ptr141_$LT$impl$u20$core..fmt..Debug$u20$for$u20$unsafe$u20$extern$u20$$u22$C$u22$$u20$fn$LP$A$C$$u20$B$C$$u20$C$C$$u20$D$RP$$u20$.$GT$$u20$Ret$GT$3fmt17he1f758b612aa8ffaE():
/rustc/50a0defd5a93523067ef239936cc2e0755220904/src/libcore/ptr.rs:2638
   0:	b580      	push	{r7, lr}
   2:	b086      	sub	sp, #24
   4:	460a      	mov	r2, r1
   6:	4603      	mov	r3, r0
   8:	9003      	str	r0, [sp, #12]
   a:	9104      	str	r1, [sp, #16]
/rustc/50a0defd5a93523067ef239936cc2e0755220904/src/libcore/ptr.rs:2639
   c:	9803      	ldr	r0, [sp, #12]
   e:	6800      	ldr	r0, [r0, #0]
  10:	9005      	str	r0, [sp, #20]
  12:	9904      	ldr	r1, [sp, #16]
  14:	a805      	add	r0, sp, #20
  16:	9202      	str	r2, [sp, #8]
  18:	9301      	str	r3, [sp, #4]
  1a:	f7ff fffe 	bl	0 <_ZN54_$LT$$BP$const$u20$T$u20$as$u20$core..fmt..Pointer$GT$3fmt17h0481ba7e57c1de15E>
  1e:	9000      	str	r0, [sp, #0]
  20:	e7ff      	b.n	22 <_ZN4core3ptr141_$LT$impl$u20$core..fmt..Debug$u20$for$u20$unsafe$u20$extern$u20$$u22$C$u22$$u20$fn$LP$A$C$$u20$B$C$$u20$C$C$$u20$D$RP$$u20$.$GT$$u20$Ret$GT$3fmt17he1f758b612aa8ffaE+0x22>
/rustc/50a0defd5a93523067ef239936cc2e0755220904/src/libcore/ptr.rs:2640
  22:	9800      	ldr	r0, [sp, #0]
  24:	f000 0001 	and.w	r0, r0, #1
  28:	b006      	add	sp, #24
  2a:	bd80      	pop	{r7, pc}

mylib-b003fcb153d61cda.2szhknqr18qd3cbm.rcgu.o:     file format elf32-littlearm

SYMBOL TABLE:
00000000 l    df *ABS*	00000000 2szhknqr18qd3cbm
00000147 l       .debug_str	00000000 
0000010b l       .debug_str	00000000 
0000014b l       .debug_str	00000000 
0000018a l       .debug_str	00000000 
00000000 l       .debug_str	00000000 
00000041 l       .debug_str	00000000 
0000004c l       .debug_str	00000000 
0000007c l       .debug_str	00000000 
00000081 l       .debug_str	00000000 
00000085 l       .debug_str	00000000 
0000008e l       .debug_str	00000000 
000000cf l       .debug_str	00000000 
000000d8 l       .debug_str	00000000 
000000e1 l       .debug_str	00000000 
000000e4 l       .debug_str	00000000 
000000ee l       .debug_str	00000000 
000000f5 l       .debug_str	00000000 
000000fb l       .debug_str	00000000 
00000101 l       .debug_str	00000000 
00000106 l       .debug_str	00000000 
00000000 l    d  .text._ZN4core3str21_$LT$impl$u20$str$GT$3len17h30fb15763e3d167dE	00000000 .text._ZN4core3str21_$LT$impl$u20$str$GT$3len17h30fb15763e3d167dE
00000000 l    d  .text._ZN4core3str21_$LT$impl$u20$str$GT$6as_ptr17hd8ab2824414c1d90E	00000000 .text._ZN4core3str21_$LT$impl$u20$str$GT$6as_ptr17hd8ab2824414c1d90E
00000000 l    d  .debug_abbrev	00000000 .debug_abbrev
00000000 l    d  .debug_info	00000000 .debug_info
00000000 l    d  .debug_ranges	00000000 .debug_ranges
00000000 l    d  .debug_frame	00000000 .debug_frame
00000000 l    d  .debug_line	00000000 .debug_line
00000000 g     F .text._ZN4core3str21_$LT$impl$u20$str$GT$3len17h30fb15763e3d167dE	0000003c .hidden _ZN4core3str21_$LT$impl$u20$str$GT$3len17h30fb15763e3d167dE
00000000 g     F .text._ZN4core3str21_$LT$impl$u20$str$GT$6as_ptr17hd8ab2824414c1d90E	00000014 .hidden _ZN4core3str21_$LT$impl$u20$str$GT$6as_ptr17hd8ab2824414c1d90E
00000000         *UND*	00000000 _ZN4core5slice29_$LT$impl$u20$$u5b$T$u5d$$GT$3len17h63f985867d9f263fE



Disassembly of section .text._ZN4core3str21_$LT$impl$u20$str$GT$3len17h30fb15763e3d167dE:

00000000 <_ZN4core3str21_$LT$impl$u20$str$GT$3len17h30fb15763e3d167dE>:
_ZN4core3str21_$LT$impl$u20$str$GT$3len17h30fb15763e3d167dE():
/rustc/50a0defd5a93523067ef239936cc2e0755220904/src/libcore/str/mod.rs:2070
   0:	b580      	push	{r7, lr}
   2:	b08c      	sub	sp, #48	; 0x30
   4:	460a      	mov	r2, r1
   6:	4603      	mov	r3, r0
   8:	9006      	str	r0, [sp, #24]
   a:	9107      	str	r1, [sp, #28]
/rustc/50a0defd5a93523067ef239936cc2e0755220904/src/libcore/str/mod.rs:2071
   c:	9806      	ldr	r0, [sp, #24]
   e:	9907      	ldr	r1, [sp, #28]
  10:	9008      	str	r0, [sp, #32]
  12:	9109      	str	r1, [sp, #36]	; 0x24
_ZN4core3str21_$LT$impl$u20$str$GT$8as_bytes17hbca31947ef6ad219E():
/rustc/50a0defd5a93523067ef239936cc2e0755220904/src/libcore/str/mod.rs:2153
  14:	9808      	ldr	r0, [sp, #32]
  16:	9909      	ldr	r1, [sp, #36]	; 0x24
  18:	900a      	str	r0, [sp, #40]	; 0x28
  1a:	910b      	str	r1, [sp, #44]	; 0x2c
  1c:	980a      	ldr	r0, [sp, #40]	; 0x28
  1e:	990b      	ldr	r1, [sp, #44]	; 0x2c
_ZN4core3str21_$LT$impl$u20$str$GT$3len17h30fb15763e3d167dE():
/rustc/50a0defd5a93523067ef239936cc2e0755220904/src/libcore/str/mod.rs:2071
  20:	9205      	str	r2, [sp, #20]
  22:	9304      	str	r3, [sp, #16]
  24:	9003      	str	r0, [sp, #12]
  26:	9102      	str	r1, [sp, #8]
  28:	e7ff      	b.n	2a <_ZN4core3str21_$LT$impl$u20$str$GT$3len17h30fb15763e3d167dE+0x2a>
  2a:	9803      	ldr	r0, [sp, #12]
  2c:	9902      	ldr	r1, [sp, #8]
  2e:	f7ff fffe 	bl	0 <_ZN4core5slice29_$LT$impl$u20$$u5b$T$u5d$$GT$3len17h63f985867d9f263fE>
  32:	9001      	str	r0, [sp, #4]
  34:	e7ff      	b.n	36 <_ZN4core3str21_$LT$impl$u20$str$GT$3len17h30fb15763e3d167dE+0x36>
/rustc/50a0defd5a93523067ef239936cc2e0755220904/src/libcore/str/mod.rs:2072
  36:	9801      	ldr	r0, [sp, #4]
  38:	b00c      	add	sp, #48	; 0x30
  3a:	bd80      	pop	{r7, pc}

Disassembly of section .text._ZN4core3str21_$LT$impl$u20$str$GT$6as_ptr17hd8ab2824414c1d90E:

00000000 <_ZN4core3str21_$LT$impl$u20$str$GT$6as_ptr17hd8ab2824414c1d90E>:
_ZN4core3str21_$LT$impl$u20$str$GT$6as_ptr17hd8ab2824414c1d90E():
/rustc/50a0defd5a93523067ef239936cc2e0755220904/src/libcore/str/mod.rs:2217
   0:	b084      	sub	sp, #16
   2:	460a      	mov	r2, r1
   4:	4603      	mov	r3, r0
   6:	9002      	str	r0, [sp, #8]
   8:	9103      	str	r1, [sp, #12]
/rustc/50a0defd5a93523067ef239936cc2e0755220904/src/libcore/str/mod.rs:2218
   a:	9802      	ldr	r0, [sp, #8]
/rustc/50a0defd5a93523067ef239936cc2e0755220904/src/libcore/str/mod.rs:2219
   c:	9201      	str	r2, [sp, #4]
   e:	9300      	str	r3, [sp, #0]
  10:	b004      	add	sp, #16
  12:	4770      	bx	lr

mylib-b003fcb153d61cda.33mbow37mj95xlhx.rcgu.o:     file format elf32-littlearm

SYMBOL TABLE:
00000000 l    df *ABS*	00000000 33mbow37mj95xlhx
000002b0 l       .debug_str	00000000 
000003cd l       .debug_str	00000000 
000003d8 l       .debug_str	00000000 
000003f5 l       .debug_str	00000000 
0000040e l       .debug_str	00000000 
00000418 l       .debug_str	00000000 
0000044a l       .debug_str	00000000 
00000000 l       .debug_str	00000000 
00000041 l       .debug_str	00000000 
0000004c l       .debug_str	00000000 
0000007c l       .debug_str	00000000 
00000081 l       .debug_str	00000000 
00000085 l       .debug_str	00000000 
00000088 l       .debug_str	00000000 
0000008b l       .debug_str	00000000 
0000008e l       .debug_str	00000000 
00000093 l       .debug_str	00000000 
00000099 l       .debug_str	00000000 
000000a0 l       .debug_str	00000000 
000000a8 l       .debug_str	00000000 
000000b2 l       .debug_str	00000000 
000000b9 l       .debug_str	00000000 
000000bc l       .debug_str	00000000 
000000c0 l       .debug_str	00000000 
000000c7 l       .debug_str	00000000 
000000ce l       .debug_str	00000000 
000000d7 l       .debug_str	00000000 
000000e1 l       .debug_str	00000000 
000000e8 l       .debug_str	00000000 
000000ee l       .debug_str	00000000 
000000f3 l       .debug_str	00000000 
000000ff l       .debug_str	00000000 
00000107 l       .debug_str	00000000 
0000010e l       .debug_str	00000000 
00000112 l       .debug_str	00000000 
00000117 l       .debug_str	00000000 
00000120 l       .debug_str	00000000 
00000125 l       .debug_str	00000000 
00000128 l       .debug_str	00000000 
0000012c l       .debug_str	00000000 
00000135 l       .debug_str	00000000 
0000013c l       .debug_str	00000000 
00000141 l       .debug_str	00000000 
00000146 l       .debug_str	00000000 
0000014c l       .debug_str	00000000 
00000152 l       .debug_str	00000000 
0000015c l       .debug_str	00000000 
0000015f l       .debug_str	00000000 
00000165 l       .debug_str	00000000 
0000016f l       .debug_str	00000000 
00000177 l       .debug_str	00000000 
0000017d l       .debug_str	00000000 
00000183 l       .debug_str	00000000 
0000018e l       .debug_str	00000000 
00000197 l       .debug_str	00000000 
000001ba l       .debug_str	00000000 
000001d9 l       .debug_str	00000000 
000001db l       .debug_str	00000000 
000001e0 l       .debug_str	00000000 
00000207 l       .debug_str	00000000 
0000020c l       .debug_str	00000000 
00000212 l       .debug_str	00000000 
00000218 l       .debug_str	00000000 
0000021b l       .debug_str	00000000 
0000022a l       .debug_str	00000000 
00000231 l       .debug_str	00000000 
00000235 l       .debug_str	00000000 
0000023e l       .debug_str	00000000 
00000246 l       .debug_str	00000000 
0000024e l       .debug_str	00000000 
00000255 l       .debug_str	00000000 
00000269 l       .debug_str	00000000 
00000275 l       .debug_str	00000000 
00000281 l       .debug_str	00000000 
0000029a l       .debug_str	00000000 
0000029f l       .debug_str	00000000 
000002ba l       .debug_str	00000000 
000002c8 l       .debug_str	00000000 
000002cc l       .debug_str	00000000 
000002d7 l       .debug_str	00000000 
000002de l       .debug_str	00000000 
000002e4 l       .debug_str	00000000 
000002e8 l       .debug_str	00000000 
000002ec l       .debug_str	00000000 
000002f4 l       .debug_str	00000000 
0000030b l       .debug_str	00000000 
0000032f l       .debug_str	00000000 
0000034b l       .debug_str	00000000 
00000355 l       .debug_str	00000000 
0000036f l       .debug_str	00000000 
00000000 l    d  .text._ZN4core3fmt9Arguments6new_v117he189e8374689c47cE	00000000 .text._ZN4core3fmt9Arguments6new_v117he189e8374689c47cE
00000000 l    d  .debug_abbrev	00000000 .debug_abbrev
00000000 l    d  .debug_info	00000000 .debug_info
00000000 l    d  .debug_frame	00000000 .debug_frame
00000000 l    d  .debug_line	00000000 .debug_line
00000000 g     F .text._ZN4core3fmt9Arguments6new_v117he189e8374689c47cE	0000004c .hidden _ZN4core3fmt9Arguments6new_v117he189e8374689c47cE



Disassembly of section .text._ZN4core3fmt9Arguments6new_v117he189e8374689c47cE:

00000000 <_ZN4core3fmt9Arguments6new_v117he189e8374689c47cE>:
_ZN4core3fmt9Arguments6new_v117he189e8374689c47cE():
/rustc/50a0defd5a93523067ef239936cc2e0755220904/src/libcore/fmt/mod.rs:314
   0:	b570      	push	{r4, r5, r6, lr}
   2:	b08a      	sub	sp, #40	; 0x28
   4:	f8dd c038 	ldr.w	ip, [sp, #56]	; 0x38
   8:	469e      	mov	lr, r3
   a:	4614      	mov	r4, r2
   c:	460d      	mov	r5, r1
   e:	4606      	mov	r6, r0
  10:	9104      	str	r1, [sp, #16]
  12:	9205      	str	r2, [sp, #20]
  14:	9306      	str	r3, [sp, #24]
  16:	f8cd c01c 	str.w	ip, [sp, #28]
/rustc/50a0defd5a93523067ef239936cc2e0755220904/src/libcore/fmt/mod.rs:317
  1a:	9904      	ldr	r1, [sp, #16]
  1c:	9a05      	ldr	r2, [sp, #20]
  1e:	2300      	movs	r3, #0
/rustc/50a0defd5a93523067ef239936cc2e0755220904/src/libcore/fmt/mod.rs:318
  20:	9309      	str	r3, [sp, #36]	; 0x24
  22:	9308      	str	r3, [sp, #32]
  24:	9308      	str	r3, [sp, #32]
/rustc/50a0defd5a93523067ef239936cc2e0755220904/src/libcore/fmt/mod.rs:319
  26:	9b06      	ldr	r3, [sp, #24]
  28:	f8dd c01c 	ldr.w	ip, [sp, #28]
/rustc/50a0defd5a93523067ef239936cc2e0755220904/src/libcore/fmt/mod.rs:316
  2c:	6001      	str	r1, [r0, #0]
  2e:	6042      	str	r2, [r0, #4]
  30:	9908      	ldr	r1, [sp, #32]
  32:	9a09      	ldr	r2, [sp, #36]	; 0x24
  34:	6081      	str	r1, [r0, #8]
  36:	60c2      	str	r2, [r0, #12]
  38:	6103      	str	r3, [r0, #16]
  3a:	f8c0 c014 	str.w	ip, [r0, #20]
/rustc/50a0defd5a93523067ef239936cc2e0755220904/src/libcore/fmt/mod.rs:321
  3e:	f8cd e00c 	str.w	lr, [sp, #12]
  42:	9402      	str	r4, [sp, #8]
  44:	9501      	str	r5, [sp, #4]
  46:	9600      	str	r6, [sp, #0]
  48:	b00a      	add	sp, #40	; 0x28
  4a:	bd70      	pop	{r4, r5, r6, pc}

mylib-b003fcb153d61cda.3bdhhpoj085ustfh.rcgu.o:     file format elf32-littlearm

SYMBOL TABLE:
00000000 l    df *ABS*	00000000 3bdhhpoj085ustfh
000002d4 l       .debug_str	00000000 
000001e6 l       .debug_str	00000000 
000001ea l       .debug_str	00000000 
000001f6 l       .debug_str	00000000 
000001f9 l       .debug_str	00000000 
00000215 l       .debug_str	00000000 
0000021e l       .debug_str	00000000 
0000022d l       .debug_str	00000000 
00000231 l       .debug_str	00000000 
00000239 l       .debug_str	00000000 
00000292 l       .debug_str	00000000 
00000299 l       .debug_str	00000000 
000002a1 l       .debug_str	00000000 
000002b0 l       .debug_str	00000000 
000002b5 l       .debug_str	00000000 
000002c1 l       .debug_str	00000000 
000002cd l       .debug_str	00000000 
000002da l       .debug_str	00000000 
000002e6 l       .debug_str	00000000 
000002f0 l       .debug_str	00000000 
000002f6 l       .debug_str	00000000 
0000030a l       .debug_str	00000000 
0000030f l       .debug_str	00000000 
00000320 l       .debug_str	00000000 
00000332 l       .debug_str	00000000 
0000033f l       .debug_str	00000000 
0000034b l       .debug_str	00000000 
00000359 l       .debug_str	00000000 
00000370 l       .debug_str	00000000 
00000382 l       .debug_str	00000000 
000003a2 l       .debug_str	00000000 
000003ab l       .debug_str	00000000 
000003b4 l       .debug_str	00000000 
000003c6 l       .debug_str	00000000 
00000000 l       .debug_str	00000000 
00000041 l       .debug_str	00000000 
0000004c l       .debug_str	00000000 
0000007c l       .debug_str	00000000 
00000082 l       .debug_str	00000000 
00000089 l       .debug_str	00000000 
0000008d l       .debug_str	00000000 
00000097 l       .debug_str	00000000 
000000a1 l       .debug_str	00000000 
000000a7 l       .debug_str	00000000 
000000b5 l       .debug_str	00000000 
000000f9 l       .debug_str	00000000 
0000010f l       .debug_str	00000000 
00000113 l       .debug_str	00000000 
00000152 l       .debug_str	00000000 
00000163 l       .debug_str	00000000 
000001a1 l       .debug_str	00000000 
000001b1 l       .debug_str	00000000 
000001b6 l       .debug_str	00000000 
000001ba l       .debug_str	00000000 
000001bd l       .debug_str	00000000 
000001c7 l       .debug_str	00000000 
000001d0 l       .debug_str	00000000 
000001d8 l       .debug_str	00000000 
000001dc l       .debug_str	00000000 
00000000 l     O .rodata..Lanon.5a193bd42aa79a17fece9f816a2deead.0	0000000a .Lanon.5a193bd42aa79a17fece9f816a2deead.0
00000000 l     O .rodata..Lanon.5a193bd42aa79a17fece9f816a2deead.1	0000000d .Lanon.5a193bd42aa79a17fece9f816a2deead.1
00000000 l     O .rodata..Lanon.5a193bd42aa79a17fece9f816a2deead.10	00000018 .Lanon.5a193bd42aa79a17fece9f816a2deead.10
00000000 l     O .rodata..Lanon.5a193bd42aa79a17fece9f816a2deead.12	00000018 .Lanon.5a193bd42aa79a17fece9f816a2deead.12
00000000 l     O .rodata..Lanon.5a193bd42aa79a17fece9f816a2deead.13	00000016 .Lanon.5a193bd42aa79a17fece9f816a2deead.13
00000000 l     O .rodata..Lanon.5a193bd42aa79a17fece9f816a2deead.14	00000018 .Lanon.5a193bd42aa79a17fece9f816a2deead.14
00000000 l     O .rodata..Lanon.5a193bd42aa79a17fece9f816a2deead.15	00000001 .Lanon.5a193bd42aa79a17fece9f816a2deead.15
00000000 l     O .rodata..Lanon.5a193bd42aa79a17fece9f816a2deead.16	00000018 .Lanon.5a193bd42aa79a17fece9f816a2deead.16
00000000 l     O .rodata..Lanon.5a193bd42aa79a17fece9f816a2deead.17	00000018 .Lanon.5a193bd42aa79a17fece9f816a2deead.17
00000000 l     O .rodata..Lanon.5a193bd42aa79a17fece9f816a2deead.18	00000019 .Lanon.5a193bd42aa79a17fece9f816a2deead.18
00000000 l     O .rodata..Lanon.5a193bd42aa79a17fece9f816a2deead.19	00000002 .Lanon.5a193bd42aa79a17fece9f816a2deead.19
00000000 l     O .rodata..Lanon.5a193bd42aa79a17fece9f816a2deead.4	00000018 .Lanon.5a193bd42aa79a17fece9f816a2deead.4
00000000 l     O .rodata..Lanon.5a193bd42aa79a17fece9f816a2deead.6	00000018 .Lanon.5a193bd42aa79a17fece9f816a2deead.6
00000000 l     O .rodata..Lanon.5a193bd42aa79a17fece9f816a2deead.7	00000018 .Lanon.5a193bd42aa79a17fece9f816a2deead.7
00000000 l     O .rodata..Lanon.5a193bd42aa79a17fece9f816a2deead.8	00000011 .Lanon.5a193bd42aa79a17fece9f816a2deead.8
00000000 l     F .text._ZN5mylib13listen_sensor15get_temperature17h83c775b9fc8c5924E	0000014c _ZN5mylib13listen_sensor15get_temperature17h83c775b9fc8c5924E
00000000 l     F .text._ZN5mylib13listen_sensor16read_temperature17h318673dbfba97d4bE	00000120 _ZN5mylib13listen_sensor16read_temperature17h318673dbfba97d4bE
00000000 l    d  .text._ZN5mylib13listen_sensor21start_sensor_listener17h8abf00547b9e4a93E	00000000 .text._ZN5mylib13listen_sensor21start_sensor_listener17h8abf00547b9e4a93E
00000000 l    d  .text._ZN5mylib13listen_sensor16read_temperature17h318673dbfba97d4bE	00000000 .text._ZN5mylib13listen_sensor16read_temperature17h318673dbfba97d4bE
00000000 l    d  .text._ZN5mylib13listen_sensor15get_temperature17h83c775b9fc8c5924E	00000000 .text._ZN5mylib13listen_sensor15get_temperature17h83c775b9fc8c5924E
00000000 l    d  .rodata..Lanon.5a193bd42aa79a17fece9f816a2deead.2	00000000 .rodata..Lanon.5a193bd42aa79a17fece9f816a2deead.2
00000000 l    d  .rodata..Lanon.5a193bd42aa79a17fece9f816a2deead.3	00000000 .rodata..Lanon.5a193bd42aa79a17fece9f816a2deead.3
00000000 l    d  .rodata..Lanon.5a193bd42aa79a17fece9f816a2deead.5	00000000 .rodata..Lanon.5a193bd42aa79a17fece9f816a2deead.5
00000000 l    d  .rodata..Lanon.5a193bd42aa79a17fece9f816a2deead.9	00000000 .rodata..Lanon.5a193bd42aa79a17fece9f816a2deead.9
00000000 l    d  .rodata..Lanon.5a193bd42aa79a17fece9f816a2deead.11	00000000 .rodata..Lanon.5a193bd42aa79a17fece9f816a2deead.11
00000000 l    d  .debug_abbrev	00000000 .debug_abbrev
00000000 l    d  .debug_info	00000000 .debug_info
00000000 l    d  .debug_ranges	00000000 .debug_ranges
00000000 l    d  .debug_frame	00000000 .debug_frame
00000000 l    d  .debug_line	00000000 .debug_line
00000000         *UND*	00000000 _ZN4core5slice29_$LT$impl$u20$$u5b$T$u5d$$GT$6as_ptr17hd0263209417be61aE
00000000         *UND*	00000000 _ZN4core9panicking5panic17h53ca63c6ac6312f8E
00000000 g     F .text._ZN5mylib13listen_sensor21start_sensor_listener17h8abf00547b9e4a93E	000000ca .hidden _ZN5mylib13listen_sensor21start_sensor_listener17h8abf00547b9e4a93E
00000000         *UND*	00000000 .hidden _ZN5mylib4base13console_print17h6caebb40d9fb0292E
00000000         *UND*	00000000 .hidden _ZN5mylib6sensor17register_listener17hcfc70760fee1324fE
00000000         *UND*	00000000 .hidden _ZN5mylib9send_coap16send_sensor_data17hd2e470cb3f766db4E
00000000         *UND*	00000000 _ZN9cstr_core4CStr8from_ptr17ha5d4992c233d069bE
00000000         *UND*	00000000 device_get_name
00000000         *UND*	00000000 get_temp_data
00000000         *UND*	00000000 get_temp_raw_data
00000000         *UND*	00000000 is_null_sensor
00000000         *UND*	00000000 is_null_sensor_data
00000000         *UND*	00000000 null_sensor
00000000         *UND*	00000000 sensor_get_device
00000000         *UND*	00000000 sensor_mgr_find_next_bydevname
00000000         *UND*	00000000 sensor_set_poll_rate_ms



Disassembly of section .text._ZN5mylib13listen_sensor21start_sensor_listener17h8abf00547b9e4a93E:

00000000 <_ZN5mylib13listen_sensor21start_sensor_listener17h8abf00547b9e4a93E>:
_ZN5mylib13listen_sensor21start_sensor_listener17h8abf00547b9e4a93E():
/Users/Luppy/mynewt/stm32bluepill-mynewt-sensor/src/listen_sensor.rs:30
///  Listener Function to send the sensor data to the Collector Node (if this is a Sensor Node)
///  or CoAP Server (is this is a Standalone Node).
///  For Collector Node: Start the Listeners for Remote Sensor 
///  Otherwise this is a Standalone Node with ESP8266, or a Sensor Node with nRF24L01.
///  Return 0 if successful.
pub fn start_sensor_listener() -> i32 {
   0:	b5f0      	push	{r4, r5, r6, r7, lr}
   2:	b093      	sub	sp, #76	; 0x4c
/Users/Luppy/mynewt/stm32bluepill-mynewt-sensor/src/listen_sensor.rs:31
    console_print(b"TMP poll \n");  //  SENSOR_DEVICE "\n";
   4:	f240 0000 	movw	r0, #0
   8:	f2c0 0000 	movt	r0, #0
   c:	210a      	movs	r1, #10
   e:	f7ff fffe 	bl	0 <_ZN5mylib4base13console_print17h6caebb40d9fb0292E>
  12:	e7ff      	b.n	2 <_ZN5mylib13listen_sensor21start_sensor_listener17h8abf00547b9e4a93E+0x2>
/Users/Luppy/mynewt/stm32bluepill-mynewt-sensor/src/listen_sensor.rs:34

    //  Set the sensor polling time to 10 seconds.  SENSOR_DEVICE is either "bme280_0" or "temp_stm32_0"
    let rc = unsafe { sensor_set_poll_rate_ms(SENSOR_DEVICE, SENSOR_POLL_TIME) };
  14:	f240 0000 	movw	r0, #0
  18:	f2c0 0000 	movt	r0, #0
  1c:	f242 7110 	movw	r1, #10000	; 0x2710
  20:	f7ff fffe 	bl	0 <sensor_set_poll_rate_ms>
  24:	9002      	str	r0, [sp, #8]
  26:	e7ff      	b.n	28 <_ZN5mylib13listen_sensor21start_sensor_listener17h8abf00547b9e4a93E+0x28>
/Users/Luppy/mynewt/stm32bluepill-mynewt-sensor/src/listen_sensor.rs:35
    assert!(rc == 0);
  28:	9802      	ldr	r0, [sp, #8]
  2a:	2800      	cmp	r0, #0
  2c:	d007      	beq.n	3e <_ZN5mylib13listen_sensor21start_sensor_listener17h8abf00547b9e4a93E+0x3e>
  2e:	e7ff      	b.n	30 <_ZN5mylib13listen_sensor21start_sensor_listener17h8abf00547b9e4a93E+0x30>
  30:	f240 0000 	movw	r0, #0
  34:	f2c0 0000 	movt	r0, #0
  38:	f7ff fffe 	bl	0 <_ZN4core9panicking5panic17h53ca63c6ac6312f8E>
  3c:	defe      	udf	#254	; 0xfe
/Users/Luppy/mynewt/stm32bluepill-mynewt-sensor/src/listen_sensor.rs:38

    //  Fetch the sensor by name, without locking the driver for exclusive access.
    let listen_sensor = unsafe { sensor_mgr_find_next_bydevname(SENSOR_DEVICE, null_sensor()) };
  3e:	f7ff fffe 	bl	0 <null_sensor>
  42:	9001      	str	r0, [sp, #4]
  44:	e7ff      	b.n	46 <_ZN5mylib13listen_sensor21start_sensor_listener17h8abf00547b9e4a93E+0x46>
  46:	f240 0000 	movw	r0, #0
  4a:	f2c0 0000 	movt	r0, #0
  4e:	9901      	ldr	r1, [sp, #4]
  50:	f7ff fffe 	bl	0 <sensor_mgr_find_next_bydevname>
  54:	9003      	str	r0, [sp, #12]
  56:	e7ff      	b.n	58 <_ZN5mylib13listen_sensor21start_sensor_listener17h8abf00547b9e4a93E+0x58>
/Users/Luppy/mynewt/stm32bluepill-mynewt-sensor/src/listen_sensor.rs:39
    assert!(!unsafe{ is_null_sensor(listen_sensor) });
  58:	9803      	ldr	r0, [sp, #12]
  5a:	f7ff fffe 	bl	0 <is_null_sensor>
  5e:	9000      	str	r0, [sp, #0]
  60:	e7ff      	b.n	62 <_ZN5mylib13listen_sensor21start_sensor_listener17h8abf00547b9e4a93E+0x62>
  62:	9800      	ldr	r0, [sp, #0]
  64:	07c1      	lsls	r1, r0, #31
  66:	2900      	cmp	r1, #0
  68:	d007      	beq.n	7a <_ZN5mylib13listen_sensor21start_sensor_listener17h8abf00547b9e4a93E+0x7a>
  6a:	e7ff      	b.n	6c <_ZN5mylib13listen_sensor21start_sensor_listener17h8abf00547b9e4a93E+0x6c>
  6c:	f240 0000 	movw	r0, #0
  70:	f2c0 0000 	movt	r0, #0
  74:	f7ff fffe 	bl	0 <_ZN4core9panicking5panic17h53ca63c6ac6312f8E>
  78:	defe      	udf	#254	; 0xfe
  7a:	2000      	movs	r0, #0
/Users/Luppy/mynewt/stm32bluepill-mynewt-sensor/src/listen_sensor.rs:42

    //  Define the listener function to be called after polling the temperature sensor.
    let listener = SensorListener {
  7c:	9005      	str	r0, [sp, #20]
  7e:	f04f 6180 	mov.w	r1, #67108864	; 0x4000000
  82:	9104      	str	r1, [sp, #16]
  84:	f240 0100 	movw	r1, #0
  88:	f2c0 0100 	movt	r1, #0
  8c:	9106      	str	r1, [sp, #24]
  8e:	2101      	movs	r1, #1
  90:	9107      	str	r1, [sp, #28]
  92:	9008      	str	r0, [sp, #32]
/Users/Luppy/mynewt/stm32bluepill-mynewt-sensor/src/listen_sensor.rs:50
        sl_arg        : LISTENER_CB,           //  Indicate to the listener function that this is a listener callback
        sl_next       : 0,                     //  Must be 0
    };

    //  Register the Listener Function to be called every 10 seconds, with the polled sensor data.
    let rc = register_listener(listen_sensor, listener);
  94:	9803      	ldr	r0, [sp, #12]
  96:	a904      	add	r1, sp, #16
  98:	aa0c      	add	r2, sp, #48	; 0x30
  9a:	4613      	mov	r3, r2
  9c:	e891 50f0 	ldmia.w	r1, {r4, r5, r6, r7, ip, lr}
  a0:	e883 50f0 	stmia.w	r3, {r4, r5, r6, r7, ip, lr}
  a4:	4611      	mov	r1, r2
  a6:	f7ff fffe 	bl	0 <_ZN5mylib6sensor17register_listener17hcfc70760fee1324fE>
  aa:	900b      	str	r0, [sp, #44]	; 0x2c
  ac:	e7ff      	b.n	ae <_ZN5mylib13listen_sensor21start_sensor_listener17h8abf00547b9e4a93E+0xae>
/Users/Luppy/mynewt/stm32bluepill-mynewt-sensor/src/listen_sensor.rs:51
    assert!(rc == 0);
  ae:	980b      	ldr	r0, [sp, #44]	; 0x2c
  b0:	2800      	cmp	r0, #0
  b2:	d007      	beq.n	c4 <_ZN5mylib13listen_sensor21start_sensor_listener17h8abf00547b9e4a93E+0xc4>
  b4:	e7ff      	b.n	b6 <_ZN5mylib13listen_sensor21start_sensor_listener17h8abf00547b9e4a93E+0xb6>
  b6:	f240 0000 	movw	r0, #0
  ba:	f2c0 0000 	movt	r0, #0
  be:	f7ff fffe 	bl	0 <_ZN4core9panicking5panic17h53ca63c6ac6312f8E>
  c2:	defe      	udf	#254	; 0xfe
  c4:	2000      	movs	r0, #0
/Users/Luppy/mynewt/stm32bluepill-mynewt-sensor/src/listen_sensor.rs:55

    //  Return 0 to indicate success.  This line should not end with a semicolon (;).
    0
}
  c6:	b013      	add	sp, #76	; 0x4c
  c8:	bdf0      	pop	{r4, r5, r6, r7, pc}

Disassembly of section .text._ZN5mylib13listen_sensor16read_temperature17h318673dbfba97d4bE:

00000000 <_ZN5mylib13listen_sensor16read_temperature17h318673dbfba97d4bE>:
_ZN5mylib13listen_sensor16read_temperature17h318673dbfba97d4bE():
/Users/Luppy/mynewt/stm32bluepill-mynewt-sensor/src/listen_sensor.rs:70
///  This listener function is called by Mynewt every 10 seconds (for local sensors) or when sensor data is received
///  (for Remote Sensors).  Mynewt has fetched the raw or computed temperature value, passed through `sensor_data`.
///  If this is a Sensor Node, we send the sensor data to the Collector Node.
///  If this is a Collector Node or Standalone Node, we send the sensor data to the CoAP server.  
///  Return 0 if we have processed the sensor data successfully.
extern fn read_temperature(sensor: SensorPtr, _arg: SensorArg, sensor_data: SensorDataPtr, sensor_type: SensorType) -> i32 {
   0:	b5b0      	push	{r4, r5, r7, lr}
   2:	b096      	sub	sp, #88	; 0x58
   4:	9b1b      	ldr	r3, [sp, #108]	; 0x6c
   6:	f8dd c068 	ldr.w	ip, [sp, #104]	; 0x68
   a:	4696      	mov	lr, r2
   c:	460c      	mov	r4, r1
   e:	4605      	mov	r5, r0
  10:	9007      	str	r0, [sp, #28]
  12:	9108      	str	r1, [sp, #32]
  14:	9209      	str	r2, [sp, #36]	; 0x24
  16:	930b      	str	r3, [sp, #44]	; 0x2c
  18:	f8cd c028 	str.w	ip, [sp, #40]	; 0x28
/Users/Luppy/mynewt/stm32bluepill-mynewt-sensor/src/listen_sensor.rs:72
    unsafe {
        console_print(b"read_temperature\n");
  1c:	f240 0000 	movw	r0, #0
  20:	f2c0 0000 	movt	r0, #0
  24:	2111      	movs	r1, #17
  26:	f8cd e018 	str.w	lr, [sp, #24]
  2a:	9405      	str	r4, [sp, #20]
  2c:	9504      	str	r5, [sp, #16]
  2e:	f7ff fffe 	bl	0 <_ZN5mylib4base13console_print17h6caebb40d9fb0292E>
  32:	e7ff      	b.n	34 <_ZN5mylib13listen_sensor16read_temperature17h318673dbfba97d4bE+0x34>
/Users/Luppy/mynewt/stm32bluepill-mynewt-sensor/src/listen_sensor.rs:75
        //  Check that the temperature data is valid.
        //  TODO
        if is_null_sensor_data(sensor_data) { return SYS_EINVAL; }  //  Exit if data is missing
  34:	9809      	ldr	r0, [sp, #36]	; 0x24
  36:	f7ff fffe 	bl	0 <is_null_sensor_data>
  3a:	9003      	str	r0, [sp, #12]
  3c:	e7ff      	b.n	3e <_ZN5mylib13listen_sensor16read_temperature17h318673dbfba97d4bE+0x3e>
  3e:	9803      	ldr	r0, [sp, #12]
  40:	07c1      	lsls	r1, r0, #31
  42:	2900      	cmp	r1, #0
  44:	d007      	beq.n	56 <_ZN5mylib13listen_sensor16read_temperature17h318673dbfba97d4bE+0x56>
  46:	e7ff      	b.n	48 <_ZN5mylib13listen_sensor16read_temperature17h318673dbfba97d4bE+0x48>
  48:	f06f 0001 	mvn.w	r0, #1
  4c:	900c      	str	r0, [sp, #48]	; 0x30
  4e:	e7ff      	b.n	50 <_ZN5mylib13listen_sensor16read_temperature17h318673dbfba97d4bE+0x50>
/Users/Luppy/mynewt/stm32bluepill-mynewt-sensor/src/listen_sensor.rs:107
        }
        assert!(rc == 0);
        //#endif  //  MYNEWT_VAL(SENSOR_COAP)
    }
    0
}
  50:	980c      	ldr	r0, [sp, #48]	; 0x30
  52:	b016      	add	sp, #88	; 0x58
  54:	bdb0      	pop	{r4, r5, r7, pc}
/Users/Luppy/mynewt/stm32bluepill-mynewt-sensor/src/listen_sensor.rs:76
        assert!(!is_null_sensor(sensor));
  56:	9807      	ldr	r0, [sp, #28]
  58:	f7ff fffe 	bl	0 <is_null_sensor>
  5c:	9002      	str	r0, [sp, #8]
  5e:	e7ff      	b.n	60 <_ZN5mylib13listen_sensor16read_temperature17h318673dbfba97d4bE+0x60>
  60:	9802      	ldr	r0, [sp, #8]
  62:	07c1      	lsls	r1, r0, #31
  64:	2900      	cmp	r1, #0
  66:	d007      	beq.n	78 <_ZN5mylib13listen_sensor16read_temperature17h318673dbfba97d4bE+0x78>
  68:	e7ff      	b.n	6a <_ZN5mylib13listen_sensor16read_temperature17h318673dbfba97d4bE+0x6a>
  6a:	f240 0000 	movw	r0, #0
  6e:	f2c0 0000 	movt	r0, #0
  72:	f7ff fffe 	bl	0 <_ZN4core9panicking5panic17h53ca63c6ac6312f8E>
  76:	defe      	udf	#254	; 0xfe
/Users/Luppy/mynewt/stm32bluepill-mynewt-sensor/src/listen_sensor.rs:80
        let device = sensor_get_device(sensor);
  78:	9807      	ldr	r0, [sp, #28]
  7a:	f7ff fffe 	bl	0 <sensor_get_device>
  7e:	900d      	str	r0, [sp, #52]	; 0x34
  80:	e7ff      	b.n	82 <_ZN5mylib13listen_sensor16read_temperature17h318673dbfba97d4bE+0x82>
/Users/Luppy/mynewt/stm32bluepill-mynewt-sensor/src/listen_sensor.rs:81
        let c_buf: *const c_char = device_get_name(device);
  82:	980d      	ldr	r0, [sp, #52]	; 0x34
  84:	f7ff fffe 	bl	0 <device_get_name>
  88:	900e      	str	r0, [sp, #56]	; 0x38
  8a:	e7ff      	b.n	8c <_ZN5mylib13listen_sensor16read_temperature17h318673dbfba97d4bE+0x8c>
/Users/Luppy/mynewt/stm32bluepill-mynewt-sensor/src/listen_sensor.rs:82
        let device_name: &CStr = CStr::from_ptr(c_buf);
  8c:	980e      	ldr	r0, [sp, #56]	; 0x38
  8e:	f7ff fffe 	bl	0 <_ZN9cstr_core4CStr8from_ptr17ha5d4992c233d069bE>
  92:	9001      	str	r0, [sp, #4]
  94:	9100      	str	r1, [sp, #0]
  96:	e7ff      	b.n	98 <_ZN5mylib13listen_sensor16read_temperature17h318673dbfba97d4bE+0x98>
  98:	9801      	ldr	r0, [sp, #4]
  9a:	900f      	str	r0, [sp, #60]	; 0x3c
  9c:	9900      	ldr	r1, [sp, #0]
  9e:	9110      	str	r1, [sp, #64]	; 0x40
/Users/Luppy/mynewt/stm32bluepill-mynewt-sensor/src/listen_sensor.rs:86
        let temp_sensor_value = get_temperature(sensor_data, sensor_type);
  a0:	9909      	ldr	r1, [sp, #36]	; 0x24
  a2:	9a0a      	ldr	r2, [sp, #40]	; 0x28
  a4:	9b0b      	ldr	r3, [sp, #44]	; 0x2c
  a6:	a811      	add	r0, sp, #68	; 0x44
  a8:	f7ff fffe 	bl	0 <_ZN5mylib13listen_sensor16read_temperature17h318673dbfba97d4bE>
  ac:	e7ff      	b.n	ae <_ZN5mylib13listen_sensor16read_temperature17h318673dbfba97d4bE+0xae>
/Users/Luppy/mynewt/stm32bluepill-mynewt-sensor/src/listen_sensor.rs:87
        assert!(temp_sensor_value.val_type != 0);
  ae:	9812      	ldr	r0, [sp, #72]	; 0x48
  b0:	2800      	cmp	r0, #0
  b2:	d107      	bne.n	c4 <_ZN5mylib13listen_sensor16read_temperature17h318673dbfba97d4bE+0xc4>
  b4:	e7ff      	b.n	b6 <_ZN5mylib13listen_sensor16read_temperature17h318673dbfba97d4bE+0xb6>
  b6:	f240 0000 	movw	r0, #0
  ba:	f2c0 0000 	movt	r0, #0
  be:	f7ff fffe 	bl	0 <_ZN4core9panicking5panic17h53ca63c6ac6312f8E>
  c2:	defe      	udf	#254	; 0xfe
/Users/Luppy/mynewt/stm32bluepill-mynewt-sensor/src/listen_sensor.rs:88
        if temp_sensor_value.val_type == 0 { return -1; }  //  Invalid type.
  c4:	9812      	ldr	r0, [sp, #72]	; 0x48
  c6:	2800      	cmp	r0, #0
  c8:	d105      	bne.n	d6 <_ZN5mylib13listen_sensor16read_temperature17h318673dbfba97d4bE+0xd6>
  ca:	e7ff      	b.n	cc <_ZN5mylib13listen_sensor16read_temperature17h318673dbfba97d4bE+0xcc>
  cc:	f04f 30ff 	mov.w	r0, #4294967295	; 0xffffffff
  d0:	900c      	str	r0, [sp, #48]	; 0x30
  d2:	e7ff      	b.n	d4 <_ZN5mylib13listen_sensor16read_temperature17h318673dbfba97d4bE+0xd4>
  d4:	e7bc      	b.n	50 <_ZN5mylib13listen_sensor16read_temperature17h318673dbfba97d4bE+0x50>
/Users/Luppy/mynewt/stm32bluepill-mynewt-sensor/src/listen_sensor.rs:95
        let rc = send_sensor_data(&temp_sensor_value, device_name);
  d6:	990f      	ldr	r1, [sp, #60]	; 0x3c
  d8:	9a10      	ldr	r2, [sp, #64]	; 0x40
  da:	a811      	add	r0, sp, #68	; 0x44
  dc:	f7ff fffe 	bl	0 <_ZN5mylib9send_coap16send_sensor_data17hd2e470cb3f766db4E>
  e0:	9015      	str	r0, [sp, #84]	; 0x54
  e2:	e7ff      	b.n	e4 <_ZN5mylib13listen_sensor16read_temperature17h318673dbfba97d4bE+0xe4>
/Users/Luppy/mynewt/stm32bluepill-mynewt-sensor/src/listen_sensor.rs:99
        if rc == SYS_EAGAIN {
  e4:	9815      	ldr	r0, [sp, #84]	; 0x54
  e6:	3006      	adds	r0, #6
  e8:	2800      	cmp	r0, #0
  ea:	d10b      	bne.n	104 <_ZN5mylib13listen_sensor16read_temperature17h318673dbfba97d4bE+0x104>
  ec:	e7ff      	b.n	ee <_ZN5mylib13listen_sensor16read_temperature17h318673dbfba97d4bE+0xee>
/Users/Luppy/mynewt/stm32bluepill-mynewt-sensor/src/listen_sensor.rs:100
            console_print(b"TMP network not ready\n");
  ee:	f240 0000 	movw	r0, #0
  f2:	f2c0 0000 	movt	r0, #0
  f6:	2116      	movs	r1, #22
  f8:	f7ff fffe 	bl	0 <_ZN5mylib4base13console_print17h6caebb40d9fb0292E>
  fc:	e7ff      	b.n	fe <_ZN5mylib13listen_sensor16read_temperature17h318673dbfba97d4bE+0xfe>
  fe:	2000      	movs	r0, #0
/Users/Luppy/mynewt/stm32bluepill-mynewt-sensor/src/listen_sensor.rs:101
            return 0; 
 100:	900c      	str	r0, [sp, #48]	; 0x30
 102:	e7e7      	b.n	d4 <_ZN5mylib13listen_sensor16read_temperature17h318673dbfba97d4bE+0xd4>
/Users/Luppy/mynewt/stm32bluepill-mynewt-sensor/src/listen_sensor.rs:103
        assert!(rc == 0);
 104:	9815      	ldr	r0, [sp, #84]	; 0x54
 106:	2800      	cmp	r0, #0
 108:	d007      	beq.n	11a <_ZN5mylib13listen_sensor16read_temperature17h318673dbfba97d4bE+0x11a>
 10a:	e7ff      	b.n	10c <_ZN5mylib13listen_sensor16read_temperature17h318673dbfba97d4bE+0x10c>
 10c:	f240 0000 	movw	r0, #0
 110:	f2c0 0000 	movt	r0, #0
 114:	f7ff fffe 	bl	0 <_ZN4core9panicking5panic17h53ca63c6ac6312f8E>
 118:	defe      	udf	#254	; 0xfe
 11a:	2000      	movs	r0, #0
/Users/Luppy/mynewt/stm32bluepill-mynewt-sensor/src/listen_sensor.rs:106
    0
 11c:	900c      	str	r0, [sp, #48]	; 0x30
/Users/Luppy/mynewt/stm32bluepill-mynewt-sensor/src/listen_sensor.rs:107
}
 11e:	e797      	b.n	50 <_ZN5mylib13listen_sensor16read_temperature17h318673dbfba97d4bE+0x50>

Disassembly of section .text._ZN5mylib13listen_sensor15get_temperature17h83c775b9fc8c5924E:

00000000 <_ZN5mylib13listen_sensor15get_temperature17h83c775b9fc8c5924E>:
_ZN5mylib13listen_sensor15get_temperature17h83c775b9fc8c5924E():
/Users/Luppy/mynewt/stm32bluepill-mynewt-sensor/src/listen_sensor.rs:112

///  Get the temperature value, raw or computed.  `sensor_data` contains the raw or computed temperature. 
///  `sensor_type` indicates whether `sensor_data` contains raw or computed temperature.  We return 
///  the raw or computed temperature, as well as the key and value type.
fn get_temperature(sensor_data: *const CVoid, sensor_type: SensorType) -> SensorValue {
   0:	b510      	push	{r4, lr}
   2:	b096      	sub	sp, #88	; 0x58
   4:	469c      	mov	ip, r3
   6:	4696      	mov	lr, r2
   8:	460c      	mov	r4, r1
   a:	9105      	str	r1, [sp, #20]
   c:	9307      	str	r3, [sp, #28]
   e:	9206      	str	r2, [sp, #24]
/Users/Luppy/mynewt/stm32bluepill-mynewt-sensor/src/listen_sensor.rs:114
    let mut return_value = SensorValue {
        key: b"\0".as_ptr(),
  10:	f240 0100 	movw	r1, #0
  14:	f2c0 0100 	movt	r1, #0
  18:	2201      	movs	r2, #1
  1a:	9004      	str	r0, [sp, #16]
  1c:	4608      	mov	r0, r1
  1e:	4611      	mov	r1, r2
  20:	f8cd c00c 	str.w	ip, [sp, #12]
  24:	f8cd e008 	str.w	lr, [sp, #8]
  28:	9401      	str	r4, [sp, #4]
  2a:	f7ff fffe 	bl	0 <_ZN4core5slice29_$LT$impl$u20$$u5b$T$u5d$$GT$6as_ptr17hd0263209417be61aE>
  2e:	9000      	str	r0, [sp, #0]
  30:	e7ff      	b.n	32 <_ZN5mylib13listen_sensor15get_temperature17h83c775b9fc8c5924E+0x32>
/Users/Luppy/mynewt/stm32bluepill-mynewt-sensor/src/listen_sensor.rs:113
    let mut return_value = SensorValue {
  32:	9800      	ldr	r0, [sp, #0]
  34:	9009      	str	r0, [sp, #36]	; 0x24
  36:	2100      	movs	r1, #0
  38:	910a      	str	r1, [sp, #40]	; 0x28
  3a:	f8ad 102c 	strh.w	r1, [sp, #44]	; 0x2c
  3e:	910c      	str	r1, [sp, #48]	; 0x30
/Users/Luppy/mynewt/stm32bluepill-mynewt-sensor/src/listen_sensor.rs:122
        float_val: 0.0,
    };
    unsafe {
        //assert!(sensor_data);
        match sensor_type {                                //  Is this raw or computed temperature?
            SENSOR_TYPE_AMBIENT_TEMPERATURE_RAW => {  //  If this is raw temperature...
  40:	9906      	ldr	r1, [sp, #24]
  42:	9a07      	ldr	r2, [sp, #28]
  44:	f081 6180 	eor.w	r1, r1, #67108864	; 0x4000000
  48:	4311      	orrs	r1, r2
  4a:	2900      	cmp	r1, #0
  4c:	d138      	bne.n	c0 <_ZN5mylib13listen_sensor15get_temperature17h83c775b9fc8c5924E+0xc0>
  4e:	e7ff      	b.n	50 <_ZN5mylib13listen_sensor15get_temperature17h83c775b9fc8c5924E+0x50>
  50:	2000      	movs	r0, #0
/Users/Luppy/mynewt/stm32bluepill-mynewt-sensor/src/listen_sensor.rs:124
                //  Interpret the sensor data as a sensor_temp_raw_data struct that contains raw temp.
                let mut rawtempdata = SensorTempRawData {
  52:	900d      	str	r0, [sp, #52]	; 0x34
  54:	f88d 0038 	strb.w	r0, [sp, #56]	; 0x38
/Users/Luppy/mynewt/stm32bluepill-mynewt-sensor/src/listen_sensor.rs:128
                    strd_temp_raw: 0,
                    strd_temp_raw_is_valid: 0,
                };
                let rc = get_temp_raw_data(sensor_data, &mut rawtempdata);
  58:	9805      	ldr	r0, [sp, #20]
  5a:	a90d      	add	r1, sp, #52	; 0x34
  5c:	f7ff fffe 	bl	0 <get_temp_raw_data>
  60:	900f      	str	r0, [sp, #60]	; 0x3c
  62:	e7ff      	b.n	64 <_ZN5mylib13listen_sensor15get_temperature17h83c775b9fc8c5924E+0x64>
/Users/Luppy/mynewt/stm32bluepill-mynewt-sensor/src/listen_sensor.rs:129
                assert!(rc == 0);
  64:	980f      	ldr	r0, [sp, #60]	; 0x3c
  66:	2800      	cmp	r0, #0
  68:	d007      	beq.n	7a <_ZN5mylib13listen_sensor15get_temperature17h83c775b9fc8c5924E+0x7a>
  6a:	e7ff      	b.n	6c <_ZN5mylib13listen_sensor15get_temperature17h83c775b9fc8c5924E+0x6c>
  6c:	f240 0000 	movw	r0, #0
  70:	f2c0 0000 	movt	r0, #0
  74:	f7ff fffe 	bl	0 <_ZN4core9panicking5panic17h53ca63c6ac6312f8E>
  78:	defe      	udf	#254	; 0xfe
/Users/Luppy/mynewt/stm32bluepill-mynewt-sensor/src/listen_sensor.rs:132

                //  Check that the raw temperature data is valid.
                if rawtempdata.strd_temp_raw_is_valid == 0 { return return_value; }  //  Exit if data is not valid
  7a:	f89d 0038 	ldrb.w	r0, [sp, #56]	; 0x38
  7e:	2800      	cmp	r0, #0
  80:	d112      	bne.n	a8 <_ZN5mylib13listen_sensor15get_temperature17h83c775b9fc8c5924E+0xa8>
  82:	e7ff      	b.n	84 <_ZN5mylib13listen_sensor15get_temperature17h83c775b9fc8c5924E+0x84>
  84:	9809      	ldr	r0, [sp, #36]	; 0x24
  86:	990a      	ldr	r1, [sp, #40]	; 0x28
  88:	9a0b      	ldr	r2, [sp, #44]	; 0x2c
  8a:	9b0c      	ldr	r3, [sp, #48]	; 0x30
  8c:	f8dd c010 	ldr.w	ip, [sp, #16]
  90:	f8cc 300c 	str.w	r3, [ip, #12]
  94:	f8cc 2008 	str.w	r2, [ip, #8]
  98:	f8cc 1004 	str.w	r1, [ip, #4]
  9c:	f8cc 0000 	str.w	r0, [ip]
  a0:	e001      	b.n	a6 <_ZN5mylib13listen_sensor15get_temperature17h83c775b9fc8c5924E+0xa6>
/Users/Luppy/mynewt/stm32bluepill-mynewt-sensor/src/listen_sensor.rs:168
        //  Return the key and value type for raw or computed temperature, as defined in temp_stm32.h.
        return_value.key = TEMP_SENSOR_KEY;
        return_value.val_type = TEMP_SENSOR_VALUE_TYPE;
    };
    return_value
}
  a2:	b016      	add	sp, #88	; 0x58
  a4:	bd10      	pop	{r4, pc}
/Users/Luppy/mynewt/stm32bluepill-mynewt-sensor/src/listen_sensor.rs:132
                if rawtempdata.strd_temp_raw_is_valid == 0 { return return_value; }  //  Exit if data is not valid
  a6:	e7fc      	b.n	a2 <_ZN5mylib13listen_sensor15get_temperature17h83c775b9fc8c5924E+0xa2>
/Users/Luppy/mynewt/stm32bluepill-mynewt-sensor/src/listen_sensor.rs:135
                return_value.int_val = rawtempdata.strd_temp_raw as u16;  //  Raw Temperature in integer (0 to 4095)
  a8:	980d      	ldr	r0, [sp, #52]	; 0x34
  aa:	f8ad 002c 	strh.w	r0, [sp, #44]	; 0x2c
/Users/Luppy/mynewt/stm32bluepill-mynewt-sensor/src/listen_sensor.rs:136
                console_print(b"TMP listener got rawtmp \n");  // return_value->int_val);
  ae:	f240 0000 	movw	r0, #0
  b2:	f2c0 0000 	movt	r0, #0
  b6:	2119      	movs	r1, #25
  b8:	f7ff fffe 	bl	0 <_ZN5mylib4base13console_print17h6caebb40d9fb0292E>
  bc:	e7ff      	b.n	be <_ZN5mylib13listen_sensor15get_temperature17h83c775b9fc8c5924E+0xbe>
/Users/Luppy/mynewt/stm32bluepill-mynewt-sensor/src/listen_sensor.rs:121
        match sensor_type {                                //  Is this raw or computed temperature?
  be:	e02f      	b.n	120 <_ZN5mylib13listen_sensor15get_temperature17h83c775b9fc8c5924E+0x120>
/Users/Luppy/mynewt/stm32bluepill-mynewt-sensor/src/listen_sensor.rs:138
            SENSOR_TYPE_AMBIENT_TEMPERATURE => {      //  If this is computed temperature...
  c0:	9806      	ldr	r0, [sp, #24]
  c2:	9907      	ldr	r1, [sp, #28]
  c4:	9111      	str	r1, [sp, #68]	; 0x44
  c6:	9010      	str	r0, [sp, #64]	; 0x40
  c8:	2000      	movs	r0, #0
/Users/Luppy/mynewt/stm32bluepill-mynewt-sensor/src/listen_sensor.rs:140
                let mut tempdata = SensorTempData {
  ca:	9013      	str	r0, [sp, #76]	; 0x4c
  cc:	f88d 0050 	strb.w	r0, [sp, #80]	; 0x50
/Users/Luppy/mynewt/stm32bluepill-mynewt-sensor/src/listen_sensor.rs:144
                let rc = get_temp_data(sensor_data, &mut tempdata);
  d0:	9805      	ldr	r0, [sp, #20]
  d2:	a913      	add	r1, sp, #76	; 0x4c
  d4:	f7ff fffe 	bl	0 <get_temp_data>
  d8:	9015      	str	r0, [sp, #84]	; 0x54
  da:	e7ff      	b.n	dc <_ZN5mylib13listen_sensor15get_temperature17h83c775b9fc8c5924E+0xdc>
/Users/Luppy/mynewt/stm32bluepill-mynewt-sensor/src/listen_sensor.rs:145
                assert!(rc == 0);
  dc:	9815      	ldr	r0, [sp, #84]	; 0x54
  de:	2800      	cmp	r0, #0
  e0:	d007      	beq.n	f2 <_ZN5mylib13listen_sensor15get_temperature17h83c775b9fc8c5924E+0xf2>
  e2:	e7ff      	b.n	e4 <_ZN5mylib13listen_sensor15get_temperature17h83c775b9fc8c5924E+0xe4>
  e4:	f240 0000 	movw	r0, #0
  e8:	f2c0 0000 	movt	r0, #0
  ec:	f7ff fffe 	bl	0 <_ZN4core9panicking5panic17h53ca63c6ac6312f8E>
  f0:	defe      	udf	#254	; 0xfe
/Users/Luppy/mynewt/stm32bluepill-mynewt-sensor/src/listen_sensor.rs:148
                if tempdata.std_temp_is_valid == 0 { return return_value; }  //  Exit if data is not valid
  f2:	f89d 0050 	ldrb.w	r0, [sp, #80]	; 0x50
  f6:	2800      	cmp	r0, #0
  f8:	d10f      	bne.n	11a <_ZN5mylib13listen_sensor15get_temperature17h83c775b9fc8c5924E+0x11a>
  fa:	e7ff      	b.n	fc <_ZN5mylib13listen_sensor15get_temperature17h83c775b9fc8c5924E+0xfc>
  fc:	9809      	ldr	r0, [sp, #36]	; 0x24
  fe:	990a      	ldr	r1, [sp, #40]	; 0x28
 100:	9a0b      	ldr	r2, [sp, #44]	; 0x2c
 102:	9b0c      	ldr	r3, [sp, #48]	; 0x30
 104:	f8dd c010 	ldr.w	ip, [sp, #16]
 108:	f8cc 300c 	str.w	r3, [ip, #12]
 10c:	f8cc 2008 	str.w	r2, [ip, #8]
 110:	f8cc 1004 	str.w	r1, [ip, #4]
 114:	f8cc 0000 	str.w	r0, [ip]
 118:	e7c5      	b.n	a6 <_ZN5mylib13listen_sensor15get_temperature17h83c775b9fc8c5924E+0xa6>
/Users/Luppy/mynewt/stm32bluepill-mynewt-sensor/src/listen_sensor.rs:151
                return_value.float_val = tempdata.std_temp;  //  Temperature in floating point.
 11a:	9813      	ldr	r0, [sp, #76]	; 0x4c
 11c:	900c      	str	r0, [sp, #48]	; 0x30
/Users/Luppy/mynewt/stm32bluepill-mynewt-sensor/src/listen_sensor.rs:121
        match sensor_type {                                //  Is this raw or computed temperature?
 11e:	e7ff      	b.n	120 <_ZN5mylib13listen_sensor15get_temperature17h83c775b9fc8c5924E+0x120>
/Users/Luppy/mynewt/stm32bluepill-mynewt-sensor/src/listen_sensor.rs:164
        return_value.key = TEMP_SENSOR_KEY;
 120:	f240 0000 	movw	r0, #0
 124:	f2c0 0000 	movt	r0, #0
 128:	9009      	str	r0, [sp, #36]	; 0x24
 12a:	2001      	movs	r0, #1
/Users/Luppy/mynewt/stm32bluepill-mynewt-sensor/src/listen_sensor.rs:165
        return_value.val_type = TEMP_SENSOR_VALUE_TYPE;
 12c:	900a      	str	r0, [sp, #40]	; 0x28
/Users/Luppy/mynewt/stm32bluepill-mynewt-sensor/src/listen_sensor.rs:167
    return_value
 12e:	9809      	ldr	r0, [sp, #36]	; 0x24
 130:	990a      	ldr	r1, [sp, #40]	; 0x28
 132:	9a0b      	ldr	r2, [sp, #44]	; 0x2c
 134:	9b0c      	ldr	r3, [sp, #48]	; 0x30
 136:	f8dd c010 	ldr.w	ip, [sp, #16]
 13a:	f8cc 300c 	str.w	r3, [ip, #12]
 13e:	f8cc 2008 	str.w	r2, [ip, #8]
 142:	f8cc 1004 	str.w	r1, [ip, #4]
 146:	f8cc 0000 	str.w	r0, [ip]
/Users/Luppy/mynewt/stm32bluepill-mynewt-sensor/src/listen_sensor.rs:168
}
 14a:	e7aa      	b.n	a2 <_ZN5mylib13listen_sensor15get_temperature17h83c775b9fc8c5924E+0xa2>

mylib-b003fcb153d61cda.3m2bj5bgdp6nzbj4.rcgu.o:     file format elf32-littlearm

SYMBOL TABLE:
00000000 l    df *ABS*	00000000 3m2bj5bgdp6nzbj4
00000352 l       .debug_str	00000000 
000003e3 l       .debug_str	00000000 
000003ed l       .debug_str	00000000 
00000407 l       .debug_str	00000000 
00000465 l       .debug_str	00000000 
00000470 l       .debug_str	00000000 
0000048d l       .debug_str	00000000 
000004a6 l       .debug_str	00000000 
000004b0 l       .debug_str	00000000 
000004c6 l       .debug_str	00000000 
000004e4 l       .debug_str	00000000 
000004ed l       .debug_str	00000000 
000004f2 l       .debug_str	00000000 
000004f7 l       .debug_str	00000000 
000004fb l       .debug_str	00000000 
00000504 l       .debug_str	00000000 
0000050e l       .debug_str	00000000 
00000526 l       .debug_str	00000000 
00000000 l       .debug_str	00000000 
00000041 l       .debug_str	00000000 
0000004c l       .debug_str	00000000 
0000007c l       .debug_str	00000000 
00000081 l       .debug_str	00000000 
00000085 l       .debug_str	00000000 
00000088 l       .debug_str	00000000 
0000008b l       .debug_str	00000000 
0000008e l       .debug_str	00000000 
00000093 l       .debug_str	00000000 
00000099 l       .debug_str	00000000 
000000a0 l       .debug_str	00000000 
000000a8 l       .debug_str	00000000 
000000b2 l       .debug_str	00000000 
000000b9 l       .debug_str	00000000 
000000bc l       .debug_str	00000000 
000000c0 l       .debug_str	00000000 
000000c7 l       .debug_str	00000000 
000000cd l       .debug_str	00000000 
000000d6 l       .debug_str	00000000 
000000da l       .debug_str	00000000 
00000104 l       .debug_str	00000000 
00000109 l       .debug_str	00000000 
0000010e l       .debug_str	00000000 
00000110 l       .debug_str	00000000 
00000122 l       .debug_str	00000000 
00000128 l       .debug_str	00000000 
0000012b l       .debug_str	00000000 
0000012f l       .debug_str	00000000 
00000133 l       .debug_str	00000000 
00000136 l       .debug_str	00000000 
00000138 l       .debug_str	00000000 
0000013c l       .debug_str	00000000 
0000013e l       .debug_str	00000000 
0000014e l       .debug_str	00000000 
00000153 l       .debug_str	00000000 
0000015b l       .debug_str	00000000 
0000015f l       .debug_str	00000000 
00000167 l       .debug_str	00000000 
0000016f l       .debug_str	00000000 
00000176 l       .debug_str	00000000 
0000017c l       .debug_str	00000000 
00000190 l       .debug_str	00000000 
0000019c l       .debug_str	00000000 
000001a1 l       .debug_str	00000000 
000001a9 l       .debug_str	00000000 
000001b0 l       .debug_str	00000000 
000001b5 l       .debug_str	00000000 
000001bc l       .debug_str	00000000 
000001c5 l       .debug_str	00000000 
000001cf l       .debug_str	00000000 
000001d6 l       .debug_str	00000000 
000001db l       .debug_str	00000000 
000001e7 l       .debug_str	00000000 
000001ef l       .debug_str	00000000 
000001f8 l       .debug_str	00000000 
000001fd l       .debug_str	00000000 
00000200 l       .debug_str	00000000 
00000209 l       .debug_str	00000000 
00000210 l       .debug_str	00000000 
00000215 l       .debug_str	00000000 
0000021a l       .debug_str	00000000 
00000220 l       .debug_str	00000000 
00000226 l       .debug_str	00000000 
00000230 l       .debug_str	00000000 
00000233 l       .debug_str	00000000 
00000239 l       .debug_str	00000000 
00000243 l       .debug_str	00000000 
0000024b l       .debug_str	00000000 
00000251 l       .debug_str	00000000 
00000257 l       .debug_str	00000000 
00000262 l       .debug_str	00000000 
0000026b l       .debug_str	00000000 
0000028e l       .debug_str	00000000 
000002ad l       .debug_str	00000000 
000002b2 l       .debug_str	00000000 
000002d9 l       .debug_str	00000000 
000002de l       .debug_str	00000000 
000002e4 l       .debug_str	00000000 
000002ea l       .debug_str	00000000 
000002f9 l       .debug_str	00000000 
00000300 l       .debug_str	00000000 
00000304 l       .debug_str	00000000 
0000030d l       .debug_str	00000000 
00000319 l       .debug_str	00000000 
00000332 l       .debug_str	00000000 
00000337 l       .debug_str	00000000 
00000348 l       .debug_str	00000000 
00000360 l       .debug_str	00000000 
00000364 l       .debug_str	00000000 
0000036f l       .debug_str	00000000 
00000376 l       .debug_str	00000000 
0000037c l       .debug_str	00000000 
00000380 l       .debug_str	00000000 
00000384 l       .debug_str	00000000 
0000038c l       .debug_str	00000000 
000003a3 l       .debug_str	00000000 
000003c7 l       .debug_str	00000000 
00000000 l     O .rodata..Lanon.3ed011473997af99b525cde47c9eaaac.0	00000000 .Lanon.3ed011473997af99b525cde47c9eaaac.0
00000000 l     O .rodata..Lanon.3ed011473997af99b525cde47c9eaaac.3	00000018 .Lanon.3ed011473997af99b525cde47c9eaaac.3
00000000 l     O .rodata..Lanon.3ed011473997af99b525cde47c9eaaac.4	00000012 .Lanon.3ed011473997af99b525cde47c9eaaac.4
00000000 l     O .rodata..Lanon.3ed011473997af99b525cde47c9eaaac.5	00000009 .Lanon.3ed011473997af99b525cde47c9eaaac.5
00000000 l     O .rodata.cst8	00000008 .Lanon.3ed011473997af99b525cde47c9eaaac.6
00000000 l     O .rodata..Lanon.3ed011473997af99b525cde47c9eaaac.7	00000001 .Lanon.3ed011473997af99b525cde47c9eaaac.7
00000000 l    d  .text.main	00000000 .text.main
00000000 l    d  .text.rust_begin_unwind	00000000 .text.rust_begin_unwind
00000000 l    d  .rodata..Lanon.3ed011473997af99b525cde47c9eaaac.1	00000000 .rodata..Lanon.3ed011473997af99b525cde47c9eaaac.1
00000000 l    d  .rodata..Lanon.3ed011473997af99b525cde47c9eaaac.2	00000000 .rodata..Lanon.3ed011473997af99b525cde47c9eaaac.2
00000000 l    d  .debug_abbrev	00000000 .debug_abbrev
00000000 l    d  .debug_info	00000000 .debug_info
00000000 l    d  .debug_ranges	00000000 .debug_ranges
00000000 l    d  .debug_frame	00000000 .debug_frame
00000000 l    d  .debug_line	00000000 .debug_line
00000000         *UND*	00000000 .hidden _ZN4core3str21_$LT$impl$u20$str$GT$3len17h30fb15763e3d167dE
00000000         *UND*	00000000 .hidden _ZN4core3str21_$LT$impl$u20$str$GT$6as_ptr17hd8ab2824414c1d90E
00000000         *UND*	00000000 _ZN4core5panic8Location4file17h94cc6af18de736c4E
00000000         *UND*	00000000 _ZN4core5panic8Location4line17h3ffc63f14d0a6636E
00000000         *UND*	00000000 _ZN4core5panic9PanicInfo8location17h5226165d8771f8a2E
00000000         *UND*	00000000 _ZN4core6result19Result$LT$T$C$E$GT$6expect17hd036ff3d7a4f372eE
00000000         *UND*	00000000 _ZN4core9panicking5panic17h53ca63c6ac6312f8E
00000000         *UND*	00000000 .hidden _ZN5mylib13listen_sensor21start_sensor_listener17h8abf00547b9e4a93E
00000000         *UND*	00000000 .hidden _ZN5mylib4base13console_print17h6caebb40d9fb0292E
00000000         *UND*	00000000 .hidden _ZN5mylib9send_coap18start_network_task17hd61dace35b0a381aE
00000000         *UND*	00000000 __bkpt
00000000         *UND*	00000000 console_buffer
00000000         *UND*	00000000 console_flush
00000000         *UND*	00000000 console_printhex
00000000 g     F .text.main	0000005e main
00000000         *UND*	00000000 os_eventq_dflt_get
00000000         *UND*	00000000 os_eventq_run
00000000 g     F .text.rust_begin_unwind	000000b6 rust_begin_unwind
00000000         *UND*	00000000 rust_sysinit



Disassembly of section .text.main:

00000000 <main>:
main():
/Users/Luppy/mynewt/stm32bluepill-mynewt-sensor/src/lib.rs:27
use crate::listen_sensor::*;    //  Import listen_sensor.rs for polling the temperature sensor
use crate::send_coap::*;        //  Import send_coap.rs for sending sensor data

///  main() will be called at Mynewt startup. It replaces the C version of the main() function.
#[no_mangle]                     //  Don't mangle the name "main"
pub extern "C" fn main() -> ! {  //  Declare extern "C" because it will be called by Mynewt
   0:	b084      	sub	sp, #16
/Users/Luppy/mynewt/stm32bluepill-mynewt-sensor/src/lib.rs:29
    //  Init Mynewt system.
    unsafe { rust_sysinit()  };
   2:	f7ff fffe 	bl	0 <rust_sysinit>
   6:	e7ff      	b.n	2 <console_flush+0x2>
/Users/Luppy/mynewt/stm32bluepill-mynewt-sensor/src/lib.rs:30
    unsafe { console_flush() };
   8:	f7ff fffe 	bl	0 <console_flush>
   c:	e7ff      	b.n	2 <_ZN5mylib9send_coap18start_network_task17hd61dace35b0a381aE+0x2>
/Users/Luppy/mynewt/stm32bluepill-mynewt-sensor/src/lib.rs:35

    //  Start the Network Task in the background.  The Network Task prepares the ESP8266 or nRF24L01 transceiver for
    //  sending CoAP messages.  We connect the ESP8266 to the WiFi access point and register
    //  the ESP8266/nRF24L01 driver as the network transport for CoAP.  Also perform WiFi Geolocation if it is enabled.
    let rc = start_network_task();  
   e:	f7ff fffe 	bl	0 <_ZN5mylib9send_coap18start_network_task17hd61dace35b0a381aE>
  12:	9102      	str	r1, [sp, #8]
  14:	9001      	str	r0, [sp, #4]
  16:	e7ff      	b.n	18 <main+0x18>
/Users/Luppy/mynewt/stm32bluepill-mynewt-sensor/src/lib.rs:36
    rc.expect("");
  18:	9801      	ldr	r0, [sp, #4]
  1a:	9902      	ldr	r1, [sp, #8]
  1c:	f240 0200 	movw	r2, #0
  20:	f2c0 0200 	movt	r2, #0
  24:	2300      	movs	r3, #0
  26:	f7ff fffe 	bl	0 <_ZN4core6result19Result$LT$T$C$E$GT$6expect17hd036ff3d7a4f372eE>
  2a:	e7ff      	b.n	2 <_ZN5mylib13listen_sensor21start_sensor_listener17h8abf00547b9e4a93E+0x2>
/Users/Luppy/mynewt/stm32bluepill-mynewt-sensor/src/lib.rs:42
    //  assert!(rc == 0);

    //  Starting polling the temperature sensor every 10 seconds in the background.  
    //  After polling the sensor, call the listener function to send the sensor data to the CoAP server or Collector Node.
    //  If this is the Collector Node, we shall wait for sensor data from the Sensor Nodes and transmit to the CoAP server.
    let rc = start_sensor_listener();  assert!(rc == 0);
  2c:	f7ff fffe 	bl	0 <_ZN5mylib13listen_sensor21start_sensor_listener17h8abf00547b9e4a93E>
  30:	9003      	str	r0, [sp, #12]
  32:	e7ff      	b.n	34 <main+0x34>
  34:	9803      	ldr	r0, [sp, #12]
  36:	2800      	cmp	r0, #0
  38:	d007      	beq.n	4a <main+0x4a>
  3a:	e7ff      	b.n	3c <main+0x3c>
  3c:	f240 0000 	movw	r0, #0
  40:	f2c0 0000 	movt	r0, #0
  44:	f7ff fffe 	bl	0 <_ZN4core9panicking5panic17h53ca63c6ac6312f8E>
  48:	defe      	udf	#254	; 0xfe
/Users/Luppy/mynewt/stm32bluepill-mynewt-sensor/src/lib.rs:54
        }
    }; */
    // ::core::panicking::panic(expr_file_line_col: &(&'static str, &'static str, u32, u32))

    //  Main event loop
    loop {                            //  Loop forever...
  4a:	e7ff      	b.n	4c <main+0x4c>
/Users/Luppy/mynewt/stm32bluepill-mynewt-sensor/src/lib.rs:57
        unsafe {
            os_eventq_run(            //  Process events...
                os_eventq_dflt_get()  //  From default event queue.
  4c:	f7ff fffe 	bl	0 <os_eventq_dflt_get>
  50:	9000      	str	r0, [sp, #0]
  52:	e7ff      	b.n	54 <main+0x54>
/Users/Luppy/mynewt/stm32bluepill-mynewt-sensor/src/lib.rs:56
            os_eventq_run(            //  Process events...
  54:	9800      	ldr	r0, [sp, #0]
  56:	f7ff fffe 	bl	0 <os_eventq_run>
  5a:	e7ff      	b.n	5c <main+0x5c>
/Users/Luppy/mynewt/stm32bluepill-mynewt-sensor/src/lib.rs:54
    loop {                            //  Loop forever...
  5c:	e7f6      	b.n	4c <main+0x4c>

Disassembly of section .text.rust_begin_unwind:

00000000 <rust_begin_unwind>:
rust_begin_unwind():
/Users/Luppy/mynewt/stm32bluepill-mynewt-sensor/src/lib.rs:66
    //  Never comes here.
}

///  This function is called on panic, like an assertion failure. We display the filename and line number and pause in the debugger. From https://os.phil-opp.com/freestanding-rust-binary/
#[panic_handler]
fn panic(info: &PanicInfo) -> ! {
   0:	b08a      	sub	sp, #40	; 0x28
   2:	4601      	mov	r1, r0
   4:	9003      	str	r0, [sp, #12]
/Users/Luppy/mynewt/stm32bluepill-mynewt-sensor/src/lib.rs:68
    //  Display the filename and line number to the Semihosting Console.
    if let Some(location) = info.location() {
   6:	9803      	ldr	r0, [sp, #12]
   8:	9102      	str	r1, [sp, #8]
   a:	f7ff fffe 	bl	0 <_ZN4core5panic9PanicInfo8location17h5226165d8771f8a2E>
   e:	9005      	str	r0, [sp, #20]
  10:	e7ff      	b.n	12 <rust_begin_unwind+0x12>
  12:	9805      	ldr	r0, [sp, #20]
  14:	2800      	cmp	r0, #0
  16:	d03f      	beq.n	98 <rust_begin_unwind+0x98>
  18:	e7ff      	b.n	1a <rust_begin_unwind+0x1a>
  1a:	9805      	ldr	r0, [sp, #20]
  1c:	9006      	str	r0, [sp, #24]
/Users/Luppy/mynewt/stm32bluepill-mynewt-sensor/src/lib.rs:69
        let file = location.file();
  1e:	9806      	ldr	r0, [sp, #24]
  20:	f7ff fffe 	bl	0 <_ZN4core5panic8Location4file17h94cc6af18de736c4E>
  24:	9108      	str	r1, [sp, #32]
  26:	9007      	str	r0, [sp, #28]
  28:	e7ff      	b.n	2a <rust_begin_unwind+0x2a>
/Users/Luppy/mynewt/stm32bluepill-mynewt-sensor/src/lib.rs:70
        let line = location.line();
  2a:	9806      	ldr	r0, [sp, #24]
  2c:	f7ff fffe 	bl	0 <_ZN4core5panic8Location4line17h3ffc63f14d0a6636E>
  30:	9009      	str	r0, [sp, #36]	; 0x24
  32:	e7ff      	b.n	34 <rust_begin_unwind+0x34>
/Users/Luppy/mynewt/stm32bluepill-mynewt-sensor/src/lib.rs:71
        console_print(b"panic at ");
  34:	f240 0000 	movw	r0, #0
  38:	f2c0 0000 	movt	r0, #0
  3c:	2109      	movs	r1, #9
  3e:	f7ff fffe 	bl	0 <_ZN5mylib4base13console_print17h6caebb40d9fb0292E>
  42:	e7ff      	b.n	44 <rust_begin_unwind+0x44>
/Users/Luppy/mynewt/stm32bluepill-mynewt-sensor/src/lib.rs:72
        unsafe { console_buffer(file.as_ptr(), file.len() as u32) }
  44:	9807      	ldr	r0, [sp, #28]
  46:	9908      	ldr	r1, [sp, #32]
  48:	f7ff fffe 	bl	0 <_ZN4core3str21_$LT$impl$u20$str$GT$6as_ptr17hd8ab2824414c1d90E>
  4c:	9001      	str	r0, [sp, #4]
  4e:	e7ff      	b.n	50 <rust_begin_unwind+0x50>
  50:	9807      	ldr	r0, [sp, #28]
  52:	9908      	ldr	r1, [sp, #32]
  54:	f7ff fffe 	bl	0 <_ZN4core3str21_$LT$impl$u20$str$GT$3len17h30fb15763e3d167dE>
  58:	9000      	str	r0, [sp, #0]
  5a:	e7ff      	b.n	5c <rust_begin_unwind+0x5c>
  5c:	9801      	ldr	r0, [sp, #4]
  5e:	9900      	ldr	r1, [sp, #0]
  60:	f7ff fffe 	bl	0 <console_buffer>
  64:	e7ff      	b.n	2 <rust_begin_unwind+0x2>
/Users/Luppy/mynewt/stm32bluepill-mynewt-sensor/src/lib.rs:73
        console_print(b" line 0x");
  66:	f240 0000 	movw	r0, #0
  6a:	f2c0 0000 	movt	r0, #0
  6e:	2108      	movs	r1, #8
  70:	f7ff fffe 	bl	0 <_ZN5mylib4base13console_print17h6caebb40d9fb0292E>
  74:	e7ff      	b.n	76 <rust_begin_unwind+0x76>
/Users/Luppy/mynewt/stm32bluepill-mynewt-sensor/src/lib.rs:74
        unsafe { console_printhex(line as u8) }  //  TODO: Print in decimal not hex. Allow more than 255 lines.
  76:	f89d 0024 	ldrb.w	r0, [sp, #36]	; 0x24
  7a:	f7ff fffe 	bl	0 <console_printhex>
  7e:	e7ff      	b.n	2 <rust_begin_unwind+0x2>
/Users/Luppy/mynewt/stm32bluepill-mynewt-sensor/src/lib.rs:75
        console_print(b"\n");
  80:	f240 0000 	movw	r0, #0
  84:	f2c0 0000 	movt	r0, #0
  88:	2101      	movs	r1, #1
  8a:	f7ff fffe 	bl	0 <_ZN5mylib4base13console_print17h6caebb40d9fb0292E>
  8e:	e7ff      	b.n	2 <console_flush+0x2>
/Users/Luppy/mynewt/stm32bluepill-mynewt-sensor/src/lib.rs:76
        unsafe { console_flush() }
  90:	f7ff fffe 	bl	0 <console_flush>
  94:	e7ff      	b.n	96 <rust_begin_unwind+0x96>
/Users/Luppy/mynewt/stm32bluepill-mynewt-sensor/src/lib.rs:68
    if let Some(location) = info.location() {
  96:	e00a      	b.n	ae <rust_begin_unwind+0xae>
/Users/Luppy/mynewt/stm32bluepill-mynewt-sensor/src/lib.rs:78
    } else {
        console_print(b"panic unknown loc\n");
  98:	f240 0000 	movw	r0, #0
  9c:	f2c0 0000 	movt	r0, #0
  a0:	2112      	movs	r1, #18
  a2:	f7ff fffe 	bl	0 <_ZN5mylib4base13console_print17h6caebb40d9fb0292E>
  a6:	e7ff      	b.n	2 <console_flush+0x2>
/Users/Luppy/mynewt/stm32bluepill-mynewt-sensor/src/lib.rs:79
        unsafe { console_flush() }
  a8:	f7ff fffe 	bl	0 <console_flush>
  ac:	e7ff      	b.n	2 <__bkpt+0x2>
_ZN8cortex_m3asm4bkpt17h38d1ae7ad2dd546bE():
/Users/Luppy/.cargo/registry/src/github.com-1ecc6299db9ec823/cortex-m-0.6.0/src/asm.rs:19
        () => unsafe {
            extern "C" {
                fn __bkpt();
            }

            __bkpt();
  ae:	f7ff fffe 	bl	0 <__bkpt>
rust_begin_unwind():
/Users/Luppy/mynewt/stm32bluepill-mynewt-sensor/src/lib.rs:82
    }
    //  Pause in the debugger.
    bkpt();
  b2:	e7ff      	b.n	b4 <rust_begin_unwind+0xb4>
/Users/Luppy/mynewt/stm32bluepill-mynewt-sensor/src/lib.rs:84
    //  Loop forever so that device won't restart.
    loop {}
  b4:	e7fe      	b.n	b4 <rust_begin_unwind+0xb4>

mylib-b003fcb153d61cda.47ssxaqryfunpqha.rcgu.o:     file format elf32-littlearm

SYMBOL TABLE:
00000000 l    df *ABS*	00000000 47ssxaqryfunpqha
000014c8 l       .debug_str	00000000 
000012b2 l       .debug_str	00000000 
000012e7 l       .debug_str	00000000 
00001370 l       .debug_str	00000000 
000013d1 l       .debug_str	00000000 
00001406 l       .debug_str	00000000 
0000147b l       .debug_str	00000000 
000014fd l       .debug_str	00000000 
0000155e l       .debug_str	00000000 
000015aa l       .debug_str	00000000 
000015df l       .debug_str	00000000 
0000163f l       .debug_str	00000000 
00001697 l       .debug_str	00000000 
000016cc l       .debug_str	00000000 
00001738 l       .debug_str	00000000 
000017a6 l       .debug_str	00000000 
000017db l       .debug_str	00000000 
0000185d l       .debug_str	00000000 
00001883 l       .debug_str	00000000 
000018b8 l       .debug_str	00000000 
000018f2 l       .debug_str	00000000 
0000193f l       .debug_str	00000000 
00001974 l       .debug_str	00000000 
000019d5 l       .debug_str	00000000 
00001a38 l       .debug_str	00000000 
00001a6d l       .debug_str	00000000 
00001ae4 l       .debug_str	00000000 
00001ae9 l       .debug_str	00000000 
00001b1e l       .debug_str	00000000 
00001b37 l       .debug_str	00000000 
00001b82 l       .debug_str	00000000 
00001bb7 l       .debug_str	00000000 
00001c16 l       .debug_str	00000000 
00001c46 l       .debug_str	00000000 
00001c76 l       .debug_str	00000000 
00001c80 l       .debug_str	00000000 
00001c89 l       .debug_str	00000000 
00001cdb l       .debug_str	00000000 
00001d3f l       .debug_str	00000000 
00001da7 l       .debug_str	00000000 
00001db3 l       .debug_str	00000000 
00001e05 l       .debug_str	00000000 
00001e6d l       .debug_str	00000000 
00001ed4 l       .debug_str	00000000 
00001ef1 l       .debug_str	00000000 
00001f59 l       .debug_str	00000000 
00001f63 l       .debug_str	00000000 
00001f8c l       .debug_str	00000000 
00002006 l       .debug_str	00000000 
0000206c l       .debug_str	00000000 
000020be l       .debug_str	00000000 
0000210f l       .debug_str	00000000 
0000216c l       .debug_str	00000000 
000021df l       .debug_str	00000000 
0000220a l       .debug_str	00000000 
0000225c l       .debug_str	00000000 
000022c4 l       .debug_str	00000000 
000022ce l       .debug_str	00000000 
00000000 l       .debug_str	00000000 
00000041 l       .debug_str	00000000 
0000004c l       .debug_str	00000000 
0000007c l       .debug_str	00000000 
00000081 l       .debug_str	00000000 
00000085 l       .debug_str	00000000 
00000088 l       .debug_str	00000000 
00000093 l       .debug_str	00000000 
0000009e l       .debug_str	00000000 
000000a5 l       .debug_str	00000000 
000000a9 l       .debug_str	00000000 
000000af l       .debug_str	00000000 
000000b8 l       .debug_str	00000000 
000000be l       .debug_str	00000000 
000000c5 l       .debug_str	00000000 
000000c9 l       .debug_str	00000000 
000000ce l       .debug_str	00000000 
000000d2 l       .debug_str	00000000 
000000dc l       .debug_str	00000000 
00000133 l       .debug_str	00000000 
00000135 l       .debug_str	00000000 
0000013a l       .debug_str	00000000 
0000013e l       .debug_str	00000000 
0000019d l       .debug_str	00000000 
000001ab l       .debug_str	00000000 
000001bf l       .debug_str	00000000 
000001e9 l       .debug_str	00000000 
00000214 l       .debug_str	00000000 
00000249 l       .debug_str	00000000 
00000288 l       .debug_str	00000000 
0000028d l       .debug_str	00000000 
000002d8 l       .debug_str	00000000 
0000032b l       .debug_str	00000000 
00000331 l       .debug_str	00000000 
00000335 l       .debug_str	00000000 
00000381 l       .debug_str	00000000 
000003d5 l       .debug_str	00000000 
000003db l       .debug_str	00000000 
00000427 l       .debug_str	00000000 
0000047b l       .debug_str	00000000 
00000481 l       .debug_str	00000000 
00000485 l       .debug_str	00000000 
000004d1 l       .debug_str	00000000 
00000525 l       .debug_str	00000000 
00000529 l       .debug_str	00000000 
0000052f l       .debug_str	00000000 
00000537 l       .debug_str	00000000 
00000595 l       .debug_str	00000000 
000005fb l       .debug_str	00000000 
000005ff l       .debug_str	00000000 
0000060c l       .debug_str	00000000 
00000620 l       .debug_str	00000000 
0000064a l       .debug_str	00000000 
00000675 l       .debug_str	00000000 
000006aa l       .debug_str	00000000 
000006e9 l       .debug_str	00000000 
000006ee l       .debug_str	00000000 
00000723 l       .debug_str	00000000 
0000073c l       .debug_str	00000000 
00000740 l       .debug_str	00000000 
00000775 l       .debug_str	00000000 
0000078d l       .debug_str	00000000 
00000791 l       .debug_str	00000000 
0000079e l       .debug_str	00000000 
000007f2 l       .debug_str	00000000 
000007f7 l       .debug_str	00000000 
00000841 l       .debug_str	00000000 
00000893 l       .debug_str	00000000 
000008a0 l       .debug_str	00000000 
000008c5 l       .debug_str	00000000 
000008ca l       .debug_str	00000000 
000008e5 l       .debug_str	00000000 
00000931 l       .debug_str	00000000 
0000097e l       .debug_str	00000000 
000009b3 l       .debug_str	00000000 
00000a14 l       .debug_str	00000000 
00000a73 l       .debug_str	00000000 
00000aa8 l       .debug_str	00000000 
00000b1b l       .debug_str	00000000 
00000b7e l       .debug_str	00000000 
00000bb3 l       .debug_str	00000000 
00000c2a l       .debug_str	00000000 
00000c31 l       .debug_str	00000000 
00000c66 l       .debug_str	00000000 
00000c81 l       .debug_str	00000000 
00000cce l       .debug_str	00000000 
00000d03 l       .debug_str	00000000 
00000d64 l       .debug_str	00000000 
00000dc7 l       .debug_str	00000000 
00000dfc l       .debug_str	00000000 
00000e73 l       .debug_str	00000000 
00000ed5 l       .debug_str	00000000 
00000f0a l       .debug_str	00000000 
00000f80 l       .debug_str	00000000 
00000f97 l       .debug_str	00000000 
00000faf l       .debug_str	00000000 
00000fe4 l       .debug_str	00000000 
00001010 l       .debug_str	00000000 
00001073 l       .debug_str	00000000 
000010a8 l       .debug_str	00000000 
0000111f l       .debug_str	00000000 
00001124 l       .debug_str	00000000 
00001159 l       .debug_str	00000000 
00001172 l       .debug_str	00000000 
00001174 l       .debug_str	00000000 
00001178 l       .debug_str	00000000 
0000117e l       .debug_str	00000000 
00001189 l       .debug_str	00000000 
000011ac l       .debug_str	00000000 
000011d0 l       .debug_str	00000000 
00001205 l       .debug_str	00000000 
0000123d l       .debug_str	00000000 
00000000 l    d  .text._ZN4core3ptr18real_drop_in_place17h12364d551a64c673E	00000000 .text._ZN4core3ptr18real_drop_in_place17h12364d551a64c673E
00000000 l    d  .text._ZN4core3ptr18real_drop_in_place17h13274ed9e6cf42aeE	00000000 .text._ZN4core3ptr18real_drop_in_place17h13274ed9e6cf42aeE
00000000 l    d  .text._ZN4core3ptr18real_drop_in_place17h1aaee5cf4ac22bfcE	00000000 .text._ZN4core3ptr18real_drop_in_place17h1aaee5cf4ac22bfcE
00000000 l    d  .text._ZN4core3ptr18real_drop_in_place17h1d9e7311b666e5e4E	00000000 .text._ZN4core3ptr18real_drop_in_place17h1d9e7311b666e5e4E
00000000 l    d  .text._ZN4core3ptr18real_drop_in_place17h27badf271e18d594E	00000000 .text._ZN4core3ptr18real_drop_in_place17h27badf271e18d594E
00000000 l    d  .text._ZN4core3ptr18real_drop_in_place17h28de366767d05f01E	00000000 .text._ZN4core3ptr18real_drop_in_place17h28de366767d05f01E
00000000 l    d  .text._ZN4core3ptr18real_drop_in_place17h290397d347366afaE	00000000 .text._ZN4core3ptr18real_drop_in_place17h290397d347366afaE
00000000 l    d  .text._ZN4core3ptr18real_drop_in_place17h413dd901aad0bbcdE	00000000 .text._ZN4core3ptr18real_drop_in_place17h413dd901aad0bbcdE
00000000 l    d  .text._ZN4core3ptr18real_drop_in_place17h58402320c56cf29dE	00000000 .text._ZN4core3ptr18real_drop_in_place17h58402320c56cf29dE
00000000 l    d  .text._ZN4core3ptr18real_drop_in_place17h5e2525a3918e4db9E	00000000 .text._ZN4core3ptr18real_drop_in_place17h5e2525a3918e4db9E
00000000 l    d  .text._ZN4core3ptr18real_drop_in_place17h660a62535e7051c3E	00000000 .text._ZN4core3ptr18real_drop_in_place17h660a62535e7051c3E
00000000 l    d  .text._ZN4core3ptr18real_drop_in_place17h77860e73084ca4e9E	00000000 .text._ZN4core3ptr18real_drop_in_place17h77860e73084ca4e9E
00000000 l    d  .text._ZN4core3ptr18real_drop_in_place17h78addfcfdfe6f973E	00000000 .text._ZN4core3ptr18real_drop_in_place17h78addfcfdfe6f973E
00000000 l    d  .text._ZN4core3ptr18real_drop_in_place17h80f1b1fa24a4e5dbE	00000000 .text._ZN4core3ptr18real_drop_in_place17h80f1b1fa24a4e5dbE
00000000 l    d  .text._ZN4core3ptr18real_drop_in_place17h96e4be033f54a271E	00000000 .text._ZN4core3ptr18real_drop_in_place17h96e4be033f54a271E
00000000 l    d  .text._ZN4core3ptr18real_drop_in_place17haac9792b890d7898E	00000000 .text._ZN4core3ptr18real_drop_in_place17haac9792b890d7898E
00000000 l    d  .text._ZN4core3ptr18real_drop_in_place17hb3abb23f5be60e65E	00000000 .text._ZN4core3ptr18real_drop_in_place17hb3abb23f5be60e65E
00000000 l    d  .text._ZN4core3ptr18real_drop_in_place17hb7fdc9a3b24be3baE	00000000 .text._ZN4core3ptr18real_drop_in_place17hb7fdc9a3b24be3baE
00000000 l    d  .text._ZN4core3ptr18real_drop_in_place17hc32270644e96efcaE	00000000 .text._ZN4core3ptr18real_drop_in_place17hc32270644e96efcaE
00000000 l    d  .text._ZN4core3ptr18real_drop_in_place17hcb33886135ac6277E	00000000 .text._ZN4core3ptr18real_drop_in_place17hcb33886135ac6277E
00000000 l    d  .text._ZN4core3ptr18real_drop_in_place17hd8ee651bf7b1ca42E	00000000 .text._ZN4core3ptr18real_drop_in_place17hd8ee651bf7b1ca42E
00000000 l    d  .text._ZN4core3ptr18real_drop_in_place17hd939fa4f43d12248E	00000000 .text._ZN4core3ptr18real_drop_in_place17hd939fa4f43d12248E
00000000 l    d  .text._ZN4core3ptr18real_drop_in_place17hdf7c2529d7c06479E	00000000 .text._ZN4core3ptr18real_drop_in_place17hdf7c2529d7c06479E
00000000 l    d  .text._ZN4core3ptr18real_drop_in_place17he8f3ca6d4eafaaa0E	00000000 .text._ZN4core3ptr18real_drop_in_place17he8f3ca6d4eafaaa0E
00000000 l    d  .text._ZN4core3ptr18real_drop_in_place17hf0e9cd777cfd2ba7E	00000000 .text._ZN4core3ptr18real_drop_in_place17hf0e9cd777cfd2ba7E
00000000 l    d  .text._ZN4core3ptr18real_drop_in_place17hf26e66271739e00dE	00000000 .text._ZN4core3ptr18real_drop_in_place17hf26e66271739e00dE
00000000 l    d  .debug_abbrev	00000000 .debug_abbrev
00000000 l    d  .debug_info	00000000 .debug_info
00000000 l    d  .debug_ranges	00000000 .debug_ranges
00000000 l    d  .debug_frame	00000000 .debug_frame
00000000 l    d  .debug_line	00000000 .debug_line
00000000 g     F .text._ZN4core3ptr18real_drop_in_place17h12364d551a64c673E	0000000c .hidden _ZN4core3ptr18real_drop_in_place17h12364d551a64c673E
00000000 g     F .text._ZN4core3ptr18real_drop_in_place17h13274ed9e6cf42aeE	0000000c .hidden _ZN4core3ptr18real_drop_in_place17h13274ed9e6cf42aeE
00000000 g     F .text._ZN4core3ptr18real_drop_in_place17h1aaee5cf4ac22bfcE	0000000c .hidden _ZN4core3ptr18real_drop_in_place17h1aaee5cf4ac22bfcE
00000000 g     F .text._ZN4core3ptr18real_drop_in_place17h1d9e7311b666e5e4E	0000000c .hidden _ZN4core3ptr18real_drop_in_place17h1d9e7311b666e5e4E
00000000 g     F .text._ZN4core3ptr18real_drop_in_place17h27badf271e18d594E	0000000c .hidden _ZN4core3ptr18real_drop_in_place17h27badf271e18d594E
00000000 g     F .text._ZN4core3ptr18real_drop_in_place17h28de366767d05f01E	0000000c .hidden _ZN4core3ptr18real_drop_in_place17h28de366767d05f01E
00000000 g     F .text._ZN4core3ptr18real_drop_in_place17h290397d347366afaE	0000000c .hidden _ZN4core3ptr18real_drop_in_place17h290397d347366afaE
00000000 g     F .text._ZN4core3ptr18real_drop_in_place17h413dd901aad0bbcdE	0000000c .hidden _ZN4core3ptr18real_drop_in_place17h413dd901aad0bbcdE
00000000 g     F .text._ZN4core3ptr18real_drop_in_place17h58402320c56cf29dE	0000000c .hidden _ZN4core3ptr18real_drop_in_place17h58402320c56cf29dE
00000000 g     F .text._ZN4core3ptr18real_drop_in_place17h5e2525a3918e4db9E	0000000c .hidden _ZN4core3ptr18real_drop_in_place17h5e2525a3918e4db9E
00000000 g     F .text._ZN4core3ptr18real_drop_in_place17h660a62535e7051c3E	0000000c .hidden _ZN4core3ptr18real_drop_in_place17h660a62535e7051c3E
00000000 g     F .text._ZN4core3ptr18real_drop_in_place17h77860e73084ca4e9E	0000000c .hidden _ZN4core3ptr18real_drop_in_place17h77860e73084ca4e9E
00000000 g     F .text._ZN4core3ptr18real_drop_in_place17h78addfcfdfe6f973E	0000000c .hidden _ZN4core3ptr18real_drop_in_place17h78addfcfdfe6f973E
00000000 g     F .text._ZN4core3ptr18real_drop_in_place17h80f1b1fa24a4e5dbE	0000000c .hidden _ZN4core3ptr18real_drop_in_place17h80f1b1fa24a4e5dbE
00000000 g     F .text._ZN4core3ptr18real_drop_in_place17h96e4be033f54a271E	0000000c .hidden _ZN4core3ptr18real_drop_in_place17h96e4be033f54a271E
00000000 g     F .text._ZN4core3ptr18real_drop_in_place17haac9792b890d7898E	0000000c .hidden _ZN4core3ptr18real_drop_in_place17haac9792b890d7898E
00000000 g     F .text._ZN4core3ptr18real_drop_in_place17hb3abb23f5be60e65E	0000000c .hidden _ZN4core3ptr18real_drop_in_place17hb3abb23f5be60e65E
00000000 g     F .text._ZN4core3ptr18real_drop_in_place17hb7fdc9a3b24be3baE	0000000c .hidden _ZN4core3ptr18real_drop_in_place17hb7fdc9a3b24be3baE
00000000 g     F .text._ZN4core3ptr18real_drop_in_place17hc32270644e96efcaE	0000000c .hidden _ZN4core3ptr18real_drop_in_place17hc32270644e96efcaE
00000000 g     F .text._ZN4core3ptr18real_drop_in_place17hcb33886135ac6277E	0000000c .hidden _ZN4core3ptr18real_drop_in_place17hcb33886135ac6277E
00000000 g     F .text._ZN4core3ptr18real_drop_in_place17hd8ee651bf7b1ca42E	0000000c .hidden _ZN4core3ptr18real_drop_in_place17hd8ee651bf7b1ca42E
00000000 g     F .text._ZN4core3ptr18real_drop_in_place17hd939fa4f43d12248E	0000000c .hidden _ZN4core3ptr18real_drop_in_place17hd939fa4f43d12248E
00000000 g     F .text._ZN4core3ptr18real_drop_in_place17hdf7c2529d7c06479E	0000000c .hidden _ZN4core3ptr18real_drop_in_place17hdf7c2529d7c06479E
00000000 g     F .text._ZN4core3ptr18real_drop_in_place17he8f3ca6d4eafaaa0E	0000000c .hidden _ZN4core3ptr18real_drop_in_place17he8f3ca6d4eafaaa0E
00000000 g     F .text._ZN4core3ptr18real_drop_in_place17hf0e9cd777cfd2ba7E	0000000c .hidden _ZN4core3ptr18real_drop_in_place17hf0e9cd777cfd2ba7E
00000000 g     F .text._ZN4core3ptr18real_drop_in_place17hf26e66271739e00dE	0000000c .hidden _ZN4core3ptr18real_drop_in_place17hf26e66271739e00dE



Disassembly of section .text._ZN4core3ptr18real_drop_in_place17h12364d551a64c673E:

00000000 <_ZN4core3ptr18real_drop_in_place17h12364d551a64c673E>:
_ZN4core3ptr18real_drop_in_place17h12364d551a64c673E():
/rustc/50a0defd5a93523067ef239936cc2e0755220904/src/libcore/ptr.rs:195
   0:	b082      	sub	sp, #8
   2:	4601      	mov	r1, r0
   4:	9001      	str	r0, [sp, #4]
   6:	9100      	str	r1, [sp, #0]
   8:	b002      	add	sp, #8
   a:	4770      	bx	lr

Disassembly of section .text._ZN4core3ptr18real_drop_in_place17h13274ed9e6cf42aeE:

00000000 <_ZN4core3ptr18real_drop_in_place17h13274ed9e6cf42aeE>:
_ZN4core3ptr18real_drop_in_place17h13274ed9e6cf42aeE():
/rustc/50a0defd5a93523067ef239936cc2e0755220904/src/libcore/ptr.rs:195
   0:	b082      	sub	sp, #8
   2:	4601      	mov	r1, r0
   4:	9001      	str	r0, [sp, #4]
   6:	9100      	str	r1, [sp, #0]
   8:	b002      	add	sp, #8
   a:	4770      	bx	lr

Disassembly of section .text._ZN4core3ptr18real_drop_in_place17h1aaee5cf4ac22bfcE:

00000000 <_ZN4core3ptr18real_drop_in_place17h1aaee5cf4ac22bfcE>:
_ZN4core3ptr18real_drop_in_place17h1aaee5cf4ac22bfcE():
/rustc/50a0defd5a93523067ef239936cc2e0755220904/src/libcore/ptr.rs:195
   0:	b082      	sub	sp, #8
   2:	4601      	mov	r1, r0
   4:	9001      	str	r0, [sp, #4]
   6:	9100      	str	r1, [sp, #0]
   8:	b002      	add	sp, #8
   a:	4770      	bx	lr

Disassembly of section .text._ZN4core3ptr18real_drop_in_place17h1d9e7311b666e5e4E:

00000000 <_ZN4core3ptr18real_drop_in_place17h1d9e7311b666e5e4E>:
_ZN4core3ptr18real_drop_in_place17h1d9e7311b666e5e4E():
/rustc/50a0defd5a93523067ef239936cc2e0755220904/src/libcore/ptr.rs:195
   0:	b082      	sub	sp, #8
   2:	4601      	mov	r1, r0
   4:	9001      	str	r0, [sp, #4]
   6:	9100      	str	r1, [sp, #0]
   8:	b002      	add	sp, #8
   a:	4770      	bx	lr

Disassembly of section .text._ZN4core3ptr18real_drop_in_place17h27badf271e18d594E:

00000000 <_ZN4core3ptr18real_drop_in_place17h27badf271e18d594E>:
_ZN4core3ptr18real_drop_in_place17h27badf271e18d594E():
/rustc/50a0defd5a93523067ef239936cc2e0755220904/src/libcore/ptr.rs:195
   0:	b082      	sub	sp, #8
   2:	4601      	mov	r1, r0
   4:	9001      	str	r0, [sp, #4]
   6:	9100      	str	r1, [sp, #0]
   8:	b002      	add	sp, #8
   a:	4770      	bx	lr

Disassembly of section .text._ZN4core3ptr18real_drop_in_place17h28de366767d05f01E:

00000000 <_ZN4core3ptr18real_drop_in_place17h28de366767d05f01E>:
_ZN4core3ptr18real_drop_in_place17h28de366767d05f01E():
/rustc/50a0defd5a93523067ef239936cc2e0755220904/src/libcore/ptr.rs:195
   0:	b082      	sub	sp, #8
   2:	4601      	mov	r1, r0
   4:	9001      	str	r0, [sp, #4]
   6:	9100      	str	r1, [sp, #0]
   8:	b002      	add	sp, #8
   a:	4770      	bx	lr

Disassembly of section .text._ZN4core3ptr18real_drop_in_place17h290397d347366afaE:

00000000 <_ZN4core3ptr18real_drop_in_place17h290397d347366afaE>:
_ZN4core3ptr18real_drop_in_place17h290397d347366afaE():
/rustc/50a0defd5a93523067ef239936cc2e0755220904/src/libcore/ptr.rs:195
   0:	b082      	sub	sp, #8
   2:	4601      	mov	r1, r0
   4:	9001      	str	r0, [sp, #4]
   6:	9100      	str	r1, [sp, #0]
   8:	b002      	add	sp, #8
   a:	4770      	bx	lr

Disassembly of section .text._ZN4core3ptr18real_drop_in_place17h413dd901aad0bbcdE:

00000000 <_ZN4core3ptr18real_drop_in_place17h413dd901aad0bbcdE>:
_ZN4core3ptr18real_drop_in_place17h413dd901aad0bbcdE():
/rustc/50a0defd5a93523067ef239936cc2e0755220904/src/libcore/ptr.rs:195
   0:	b082      	sub	sp, #8
   2:	4601      	mov	r1, r0
   4:	9001      	str	r0, [sp, #4]
   6:	9100      	str	r1, [sp, #0]
   8:	b002      	add	sp, #8
   a:	4770      	bx	lr

Disassembly of section .text._ZN4core3ptr18real_drop_in_place17h58402320c56cf29dE:

00000000 <_ZN4core3ptr18real_drop_in_place17h58402320c56cf29dE>:
_ZN4core3ptr18real_drop_in_place17h58402320c56cf29dE():
/rustc/50a0defd5a93523067ef239936cc2e0755220904/src/libcore/ptr.rs:195
   0:	b082      	sub	sp, #8
   2:	4601      	mov	r1, r0
   4:	9001      	str	r0, [sp, #4]
   6:	9100      	str	r1, [sp, #0]
   8:	b002      	add	sp, #8
   a:	4770      	bx	lr

Disassembly of section .text._ZN4core3ptr18real_drop_in_place17h5e2525a3918e4db9E:

00000000 <_ZN4core3ptr18real_drop_in_place17h5e2525a3918e4db9E>:
_ZN4core3ptr18real_drop_in_place17h5e2525a3918e4db9E():
/rustc/50a0defd5a93523067ef239936cc2e0755220904/src/libcore/ptr.rs:195
   0:	b082      	sub	sp, #8
   2:	4601      	mov	r1, r0
   4:	9001      	str	r0, [sp, #4]
   6:	9100      	str	r1, [sp, #0]
   8:	b002      	add	sp, #8
   a:	4770      	bx	lr

Disassembly of section .text._ZN4core3ptr18real_drop_in_place17h660a62535e7051c3E:

00000000 <_ZN4core3ptr18real_drop_in_place17h660a62535e7051c3E>:
_ZN4core3ptr18real_drop_in_place17h660a62535e7051c3E():
/rustc/50a0defd5a93523067ef239936cc2e0755220904/src/libcore/ptr.rs:195
   0:	b082      	sub	sp, #8
   2:	4601      	mov	r1, r0
   4:	9001      	str	r0, [sp, #4]
   6:	9100      	str	r1, [sp, #0]
   8:	b002      	add	sp, #8
   a:	4770      	bx	lr

Disassembly of section .text._ZN4core3ptr18real_drop_in_place17h77860e73084ca4e9E:

00000000 <_ZN4core3ptr18real_drop_in_place17h77860e73084ca4e9E>:
_ZN4core3ptr18real_drop_in_place17h77860e73084ca4e9E():
/rustc/50a0defd5a93523067ef239936cc2e0755220904/src/libcore/ptr.rs:195
   0:	b082      	sub	sp, #8
   2:	4601      	mov	r1, r0
   4:	9001      	str	r0, [sp, #4]
   6:	9100      	str	r1, [sp, #0]
   8:	b002      	add	sp, #8
   a:	4770      	bx	lr

Disassembly of section .text._ZN4core3ptr18real_drop_in_place17h78addfcfdfe6f973E:

00000000 <_ZN4core3ptr18real_drop_in_place17h78addfcfdfe6f973E>:
_ZN4core3ptr18real_drop_in_place17h78addfcfdfe6f973E():
/rustc/50a0defd5a93523067ef239936cc2e0755220904/src/libcore/ptr.rs:195
   0:	b082      	sub	sp, #8
   2:	4601      	mov	r1, r0
   4:	9001      	str	r0, [sp, #4]
   6:	9100      	str	r1, [sp, #0]
   8:	b002      	add	sp, #8
   a:	4770      	bx	lr

Disassembly of section .text._ZN4core3ptr18real_drop_in_place17h80f1b1fa24a4e5dbE:

00000000 <_ZN4core3ptr18real_drop_in_place17h80f1b1fa24a4e5dbE>:
_ZN4core3ptr18real_drop_in_place17h80f1b1fa24a4e5dbE():
/rustc/50a0defd5a93523067ef239936cc2e0755220904/src/libcore/ptr.rs:195
   0:	b082      	sub	sp, #8
   2:	4601      	mov	r1, r0
   4:	9001      	str	r0, [sp, #4]
   6:	9100      	str	r1, [sp, #0]
   8:	b002      	add	sp, #8
   a:	4770      	bx	lr

Disassembly of section .text._ZN4core3ptr18real_drop_in_place17h96e4be033f54a271E:

00000000 <_ZN4core3ptr18real_drop_in_place17h96e4be033f54a271E>:
_ZN4core3ptr18real_drop_in_place17h96e4be033f54a271E():
/rustc/50a0defd5a93523067ef239936cc2e0755220904/src/libcore/ptr.rs:195
   0:	b082      	sub	sp, #8
   2:	4601      	mov	r1, r0
   4:	9001      	str	r0, [sp, #4]
   6:	9100      	str	r1, [sp, #0]
   8:	b002      	add	sp, #8
   a:	4770      	bx	lr

Disassembly of section .text._ZN4core3ptr18real_drop_in_place17haac9792b890d7898E:

00000000 <_ZN4core3ptr18real_drop_in_place17haac9792b890d7898E>:
_ZN4core3ptr18real_drop_in_place17haac9792b890d7898E():
/rustc/50a0defd5a93523067ef239936cc2e0755220904/src/libcore/ptr.rs:195
   0:	b082      	sub	sp, #8
   2:	4601      	mov	r1, r0
   4:	9001      	str	r0, [sp, #4]
   6:	9100      	str	r1, [sp, #0]
   8:	b002      	add	sp, #8
   a:	4770      	bx	lr

Disassembly of section .text._ZN4core3ptr18real_drop_in_place17hb3abb23f5be60e65E:

00000000 <_ZN4core3ptr18real_drop_in_place17hb3abb23f5be60e65E>:
_ZN4core3ptr18real_drop_in_place17hb3abb23f5be60e65E():
/rustc/50a0defd5a93523067ef239936cc2e0755220904/src/libcore/ptr.rs:195
   0:	b082      	sub	sp, #8
   2:	4601      	mov	r1, r0
   4:	9001      	str	r0, [sp, #4]
   6:	9100      	str	r1, [sp, #0]
   8:	b002      	add	sp, #8
   a:	4770      	bx	lr

Disassembly of section .text._ZN4core3ptr18real_drop_in_place17hb7fdc9a3b24be3baE:

00000000 <_ZN4core3ptr18real_drop_in_place17hb7fdc9a3b24be3baE>:
_ZN4core3ptr18real_drop_in_place17hb7fdc9a3b24be3baE():
/rustc/50a0defd5a93523067ef239936cc2e0755220904/src/libcore/ptr.rs:195
   0:	b082      	sub	sp, #8
   2:	4601      	mov	r1, r0
   4:	9001      	str	r0, [sp, #4]
   6:	9100      	str	r1, [sp, #0]
   8:	b002      	add	sp, #8
   a:	4770      	bx	lr

Disassembly of section .text._ZN4core3ptr18real_drop_in_place17hc32270644e96efcaE:

00000000 <_ZN4core3ptr18real_drop_in_place17hc32270644e96efcaE>:
_ZN4core3ptr18real_drop_in_place17hc32270644e96efcaE():
/rustc/50a0defd5a93523067ef239936cc2e0755220904/src/libcore/ptr.rs:195
   0:	b082      	sub	sp, #8
   2:	4601      	mov	r1, r0
   4:	9001      	str	r0, [sp, #4]
   6:	9100      	str	r1, [sp, #0]
   8:	b002      	add	sp, #8
   a:	4770      	bx	lr

Disassembly of section .text._ZN4core3ptr18real_drop_in_place17hcb33886135ac6277E:

00000000 <_ZN4core3ptr18real_drop_in_place17hcb33886135ac6277E>:
_ZN4core3ptr18real_drop_in_place17hcb33886135ac6277E():
/rustc/50a0defd5a93523067ef239936cc2e0755220904/src/libcore/ptr.rs:195
   0:	b082      	sub	sp, #8
   2:	4601      	mov	r1, r0
   4:	9001      	str	r0, [sp, #4]
   6:	9100      	str	r1, [sp, #0]
   8:	b002      	add	sp, #8
   a:	4770      	bx	lr

Disassembly of section .text._ZN4core3ptr18real_drop_in_place17hd8ee651bf7b1ca42E:

00000000 <_ZN4core3ptr18real_drop_in_place17hd8ee651bf7b1ca42E>:
_ZN4core3ptr18real_drop_in_place17hd8ee651bf7b1ca42E():
/rustc/50a0defd5a93523067ef239936cc2e0755220904/src/libcore/ptr.rs:195
   0:	b082      	sub	sp, #8
   2:	4601      	mov	r1, r0
   4:	9001      	str	r0, [sp, #4]
   6:	9100      	str	r1, [sp, #0]
   8:	b002      	add	sp, #8
   a:	4770      	bx	lr

Disassembly of section .text._ZN4core3ptr18real_drop_in_place17hd939fa4f43d12248E:

00000000 <_ZN4core3ptr18real_drop_in_place17hd939fa4f43d12248E>:
_ZN4core3ptr18real_drop_in_place17hd939fa4f43d12248E():
/rustc/50a0defd5a93523067ef239936cc2e0755220904/src/libcore/ptr.rs:195
   0:	b082      	sub	sp, #8
   2:	4601      	mov	r1, r0
   4:	9001      	str	r0, [sp, #4]
   6:	9100      	str	r1, [sp, #0]
   8:	b002      	add	sp, #8
   a:	4770      	bx	lr

Disassembly of section .text._ZN4core3ptr18real_drop_in_place17hdf7c2529d7c06479E:

00000000 <_ZN4core3ptr18real_drop_in_place17hdf7c2529d7c06479E>:
_ZN4core3ptr18real_drop_in_place17hdf7c2529d7c06479E():
/rustc/50a0defd5a93523067ef239936cc2e0755220904/src/libcore/ptr.rs:195
   0:	b082      	sub	sp, #8
   2:	4601      	mov	r1, r0
   4:	9001      	str	r0, [sp, #4]
   6:	9100      	str	r1, [sp, #0]
   8:	b002      	add	sp, #8
   a:	4770      	bx	lr

Disassembly of section .text._ZN4core3ptr18real_drop_in_place17he8f3ca6d4eafaaa0E:

00000000 <_ZN4core3ptr18real_drop_in_place17he8f3ca6d4eafaaa0E>:
_ZN4core3ptr18real_drop_in_place17he8f3ca6d4eafaaa0E():
/rustc/50a0defd5a93523067ef239936cc2e0755220904/src/libcore/ptr.rs:195
   0:	b082      	sub	sp, #8
   2:	4601      	mov	r1, r0
   4:	9001      	str	r0, [sp, #4]
   6:	9100      	str	r1, [sp, #0]
   8:	b002      	add	sp, #8
   a:	4770      	bx	lr

Disassembly of section .text._ZN4core3ptr18real_drop_in_place17hf0e9cd777cfd2ba7E:

00000000 <_ZN4core3ptr18real_drop_in_place17hf0e9cd777cfd2ba7E>:
_ZN4core3ptr18real_drop_in_place17hf0e9cd777cfd2ba7E():
/rustc/50a0defd5a93523067ef239936cc2e0755220904/src/libcore/ptr.rs:195
   0:	b082      	sub	sp, #8
   2:	4601      	mov	r1, r0
   4:	9001      	str	r0, [sp, #4]
   6:	9100      	str	r1, [sp, #0]
   8:	b002      	add	sp, #8
   a:	4770      	bx	lr

Disassembly of section .text._ZN4core3ptr18real_drop_in_place17hf26e66271739e00dE:

00000000 <_ZN4core3ptr18real_drop_in_place17hf26e66271739e00dE>:
_ZN4core3ptr18real_drop_in_place17hf26e66271739e00dE():
/rustc/50a0defd5a93523067ef239936cc2e0755220904/src/libcore/ptr.rs:195
   0:	b082      	sub	sp, #8
   2:	4601      	mov	r1, r0
   4:	9001      	str	r0, [sp, #4]
   6:	9100      	str	r1, [sp, #0]
   8:	b002      	add	sp, #8
   a:	4770      	bx	lr

mylib-b003fcb153d61cda.4lwecpdwsq3qr3ns.rcgu.o:     file format elf32-littlearm

SYMBOL TABLE:
00000000 l    df *ABS*	00000000 4lwecpdwsq3qr3ns
00000f58 l       .debug_str	00000000 
00000bb3 l       .debug_str	00000000 
00000bb6 l       .debug_str	00000000 
00000bb9 l       .debug_str	00000000 
00000bbe l       .debug_str	00000000 
00000bc4 l       .debug_str	00000000 
00000bcb l       .debug_str	00000000 
00000bd3 l       .debug_str	00000000 
00000bdd l       .debug_str	00000000 
00000be6 l       .debug_str	00000000 
00000c46 l       .debug_str	00000000 
00000c9e l       .debug_str	00000000 
00000d05 l       .debug_str	00000000 
00000d63 l       .debug_str	00000000 
00000dc2 l       .debug_str	00000000 
00000e29 l       .debug_str	00000000 
00000e87 l       .debug_str	00000000 
00000ee4 l       .debug_str	00000000 
00000ee9 l       .debug_str	00000000 
00000f08 l       .debug_str	00000000 
00000f0a l       .debug_str	00000000 
00000f0f l       .debug_str	00000000 
00000f14 l       .debug_str	00000000 
00000f1a l       .debug_str	00000000 
00000f20 l       .debug_str	00000000 
00000f2e l       .debug_str	00000000 
00000f38 l       .debug_str	00000000 
00000f3c l       .debug_str	00000000 
00000f44 l       .debug_str	00000000 
00000f64 l       .debug_str	00000000 
00000f6f l       .debug_str	00000000 
00000f76 l       .debug_str	00000000 
00000f7c l       .debug_str	00000000 
00000f80 l       .debug_str	00000000 
00000f86 l       .debug_str	00000000 
00000f8c l       .debug_str	00000000 
00000f8f l       .debug_str	00000000 
00000f9e l       .debug_str	00000000 
00000fa5 l       .debug_str	00000000 
00000fa9 l       .debug_str	00000000 
00000fb2 l       .debug_str	00000000 
00000fbe l       .debug_str	00000000 
00000fd7 l       .debug_str	00000000 
00000fdc l       .debug_str	00000000 
00000fed l       .debug_str	00000000 
00000ff7 l       .debug_str	00000000 
00001055 l       .debug_str	00000000 
00001060 l       .debug_str	00000000 
0000107d l       .debug_str	00000000 
00001085 l       .debug_str	00000000 
0000109c l       .debug_str	00000000 
000010c0 l       .debug_str	00000000 
000010dc l       .debug_str	00000000 
000010e1 l       .debug_str	00000000 
000010ea l       .debug_str	00000000 
000010f1 l       .debug_str	00000000 
0000110a l       .debug_str	00000000 
00001114 l       .debug_str	00000000 
0000112e l       .debug_str	00000000 
00001139 l       .debug_str	00000000 
00001144 l       .debug_str	00000000 
00001158 l       .debug_str	00000000 
00001161 l       .debug_str	00000000 
0000116c l       .debug_str	00000000 
00001171 l       .debug_str	00000000 
0000117d l       .debug_str	00000000 
00001194 l       .debug_str	00000000 
000011ba l       .debug_str	00000000 
000011c3 l       .debug_str	00000000 
000011cb l       .debug_str	00000000 
000011d6 l       .debug_str	00000000 
000011f3 l       .debug_str	00000000 
000011fa l       .debug_str	00000000 
00001205 l       .debug_str	00000000 
0000120b l       .debug_str	00000000 
00001217 l       .debug_str	00000000 
00001235 l       .debug_str	00000000 
00001240 l       .debug_str	00000000 
0000124b l       .debug_str	00000000 
00001271 l       .debug_str	00000000 
0000127c l       .debug_str	00000000 
00001287 l       .debug_str	00000000 
00001292 l       .debug_str	00000000 
000012af l       .debug_str	00000000 
000012b6 l       .debug_str	00000000 
000012bd l       .debug_str	00000000 
000012c7 l       .debug_str	00000000 
000012cd l       .debug_str	00000000 
000012d3 l       .debug_str	00000000 
000012dd l       .debug_str	00000000 
00000000 l       .debug_str	00000000 
00000041 l       .debug_str	00000000 
0000004c l       .debug_str	00000000 
0000007c l       .debug_str	00000000 
00000083 l       .debug_str	00000000 
00000088 l       .debug_str	00000000 
0000008f l       .debug_str	00000000 
00000093 l       .debug_str	00000000 
00000098 l       .debug_str	00000000 
0000009e l       .debug_str	00000000 
000000a4 l       .debug_str	00000000 
000000ad l       .debug_str	00000000 
000000b1 l       .debug_str	00000000 
000000b7 l       .debug_str	00000000 
000000bc l       .debug_str	00000000 
000000bf l       .debug_str	00000000 
000000c7 l       .debug_str	00000000 
00000111 l       .debug_str	00000000 
00000113 l       .debug_str	00000000 
00000118 l       .debug_str	00000000 
0000011c l       .debug_str	00000000 
0000016e l       .debug_str	00000000 
0000017b l       .debug_str	00000000 
000001a0 l       .debug_str	00000000 
000001a5 l       .debug_str	00000000 
000001c0 l       .debug_str	00000000 
000001ca l       .debug_str	00000000 
00000216 l       .debug_str	00000000 
0000026a l       .debug_str	00000000 
000002cd l       .debug_str	00000000 
0000032e l       .debug_str	00000000 
00000354 l       .debug_str	00000000 
00000358 l       .debug_str	00000000 
00000366 l       .debug_str	00000000 
0000037a l       .debug_str	00000000 
000003a4 l       .debug_str	00000000 
000003fb l       .debug_str	00000000 
0000045a l       .debug_str	00000000 
000004c8 l       .debug_str	00000000 
000004cd l       .debug_str	00000000 
000004d1 l       .debug_str	00000000 
000004dc l       .debug_str	00000000 
000004e7 l       .debug_str	00000000 
000004ee l       .debug_str	00000000 
00000505 l       .debug_str	00000000 
0000051d l       .debug_str	00000000 
00000524 l       .debug_str	00000000 
0000054f l       .debug_str	00000000 
00000554 l       .debug_str	00000000 
0000055a l       .debug_str	00000000 
0000055e l       .debug_str	00000000 
000005aa l       .debug_str	00000000 
000005fe l       .debug_str	00000000 
00000604 l       .debug_str	00000000 
00000650 l       .debug_str	00000000 
000006a4 l       .debug_str	00000000 
000006aa l       .debug_str	00000000 
000006ae l       .debug_str	00000000 
000006fa l       .debug_str	00000000 
0000074e l       .debug_str	00000000 
00000752 l       .debug_str	00000000 
000007b0 l       .debug_str	00000000 
00000816 l       .debug_str	00000000 
0000081a l       .debug_str	00000000 
00000827 l       .debug_str	00000000 
0000083b l       .debug_str	00000000 
00000865 l       .debug_str	00000000 
000008b0 l       .debug_str	00000000 
00000903 l       .debug_str	00000000 
00000965 l       .debug_str	00000000 
000009c8 l       .debug_str	00000000 
00000a2b l       .debug_str	00000000 
00000a8e l       .debug_str	00000000 
00000b03 l       .debug_str	00000000 
00000b2e l       .debug_str	00000000 
00000b30 l       .debug_str	00000000 
00000b34 l       .debug_str	00000000 
00000b3a l       .debug_str	00000000 
00000b45 l       .debug_str	00000000 
00000b68 l       .debug_str	00000000 
00000b8c l       .debug_str	00000000 
00000b91 l       .debug_str	00000000 
00000b96 l       .debug_str	00000000 
00000b9a l       .debug_str	00000000 
00000ba1 l       .debug_str	00000000 
00000ba4 l       .debug_str	00000000 
00000ba8 l       .debug_str	00000000 
00000baf l       .debug_str	00000000 
00000000 l     O .rodata..Lanon.f857ca147a032d488e1227fcc4761d11.0	0000000c .Lanon.f857ca147a032d488e1227fcc4761d11.0
00000000 l     O .rodata..Lanon.f857ca147a032d488e1227fcc4761d11.1	00000005 .Lanon.f857ca147a032d488e1227fcc4761d11.1
00000000 l     O .rodata..Lanon.f857ca147a032d488e1227fcc4761d11.10	0000000d .Lanon.f857ca147a032d488e1227fcc4761d11.10
00000000 l     O .rodata..Lanon.f857ca147a032d488e1227fcc4761d11.11	00000010 .Lanon.f857ca147a032d488e1227fcc4761d11.11
00000000 l     O .rodata..Lanon.f857ca147a032d488e1227fcc4761d11.12	0000000a .Lanon.f857ca147a032d488e1227fcc4761d11.12
00000000 l     O .rodata.cst8	00000008 .Lanon.f857ca147a032d488e1227fcc4761d11.13
00000000 l     O .rodata..Lanon.f857ca147a032d488e1227fcc4761d11.14	00000010 .Lanon.f857ca147a032d488e1227fcc4761d11.14
00000000 l     O .rodata..Lanon.f857ca147a032d488e1227fcc4761d11.15	00000007 .Lanon.f857ca147a032d488e1227fcc4761d11.15
00000000 l     O .rodata..Lanon.f857ca147a032d488e1227fcc4761d11.16	00000010 .Lanon.f857ca147a032d488e1227fcc4761d11.16
00000000 l     O .rodata..Lanon.f857ca147a032d488e1227fcc4761d11.17	0000000b .Lanon.f857ca147a032d488e1227fcc4761d11.17
00000000 l     O .rodata..Lanon.f857ca147a032d488e1227fcc4761d11.18	00000006 .Lanon.f857ca147a032d488e1227fcc4761d11.18
00000000 l     O .rodata..Lanon.f857ca147a032d488e1227fcc4761d11.19	00000010 .Lanon.f857ca147a032d488e1227fcc4761d11.19
00000000 l     O .rodata..Lanon.f857ca147a032d488e1227fcc4761d11.2	00000010 .Lanon.f857ca147a032d488e1227fcc4761d11.2
00000000 l     O .rodata..Lanon.f857ca147a032d488e1227fcc4761d11.20	0000000a .Lanon.f857ca147a032d488e1227fcc4761d11.20
00000000 l     O .rodata..Lanon.f857ca147a032d488e1227fcc4761d11.21	00000005 .Lanon.f857ca147a032d488e1227fcc4761d11.21
00000000 l     O .rodata..Lanon.f857ca147a032d488e1227fcc4761d11.22	00000005 .Lanon.f857ca147a032d488e1227fcc4761d11.22
00000000 l     O .rodata..Lanon.f857ca147a032d488e1227fcc4761d11.23	00000013 .Lanon.f857ca147a032d488e1227fcc4761d11.23
00000008 l     O .rodata.cst4	00000004 .Lanon.f857ca147a032d488e1227fcc4761d11.24
00000000 l     O .rodata..Lanon.f857ca147a032d488e1227fcc4761d11.25	00000010 .Lanon.f857ca147a032d488e1227fcc4761d11.25
00000000 l     O .rodata..Lanon.f857ca147a032d488e1227fcc4761d11.26	00000005 .Lanon.f857ca147a032d488e1227fcc4761d11.26
00000000 l     O .rodata..Lanon.f857ca147a032d488e1227fcc4761d11.27	00000010 .Lanon.f857ca147a032d488e1227fcc4761d11.27
00000000 l     O .rodata..Lanon.f857ca147a032d488e1227fcc4761d11.28	00000005 .Lanon.f857ca147a032d488e1227fcc4761d11.28
00000000 l     O .rodata..Lanon.f857ca147a032d488e1227fcc4761d11.29	00000010 .Lanon.f857ca147a032d488e1227fcc4761d11.29
00000000 l     O .rodata.cst4	00000004 .Lanon.f857ca147a032d488e1227fcc4761d11.3
00000000 l     O .rodata..Lanon.f857ca147a032d488e1227fcc4761d11.30	00000005 .Lanon.f857ca147a032d488e1227fcc4761d11.30
00000000 l     O .rodata..Lanon.f857ca147a032d488e1227fcc4761d11.31	00000010 .Lanon.f857ca147a032d488e1227fcc4761d11.31
00000000 l     O .rodata..Lanon.f857ca147a032d488e1227fcc4761d11.32	00000003 .Lanon.f857ca147a032d488e1227fcc4761d11.32
00000000 l     O .rodata..Lanon.f857ca147a032d488e1227fcc4761d11.33	00000010 .Lanon.f857ca147a032d488e1227fcc4761d11.33
00000000 l     O .rodata..Lanon.f857ca147a032d488e1227fcc4761d11.34	00000003 .Lanon.f857ca147a032d488e1227fcc4761d11.34
00000000 l     O .rodata..Lanon.f857ca147a032d488e1227fcc4761d11.35	0000000c .Lanon.f857ca147a032d488e1227fcc4761d11.35
00000000 l     O .rodata..Lanon.f857ca147a032d488e1227fcc4761d11.36	0000000a .Lanon.f857ca147a032d488e1227fcc4761d11.36
00000000 l     O .rodata..Lanon.f857ca147a032d488e1227fcc4761d11.37	00000001 .Lanon.f857ca147a032d488e1227fcc4761d11.37
00000000 l     O .rodata..Lanon.f857ca147a032d488e1227fcc4761d11.38	00000010 .Lanon.f857ca147a032d488e1227fcc4761d11.38
00000000 l     O .rodata..Lanon.f857ca147a032d488e1227fcc4761d11.39	00000003 .Lanon.f857ca147a032d488e1227fcc4761d11.39
00000000 l     O .rodata..Lanon.f857ca147a032d488e1227fcc4761d11.4	00000010 .Lanon.f857ca147a032d488e1227fcc4761d11.4
00000000 l     O .rodata..Lanon.f857ca147a032d488e1227fcc4761d11.40	00000009 .Lanon.f857ca147a032d488e1227fcc4761d11.40
00000000 l     O .rodata..Lanon.f857ca147a032d488e1227fcc4761d11.41	00000006 .Lanon.f857ca147a032d488e1227fcc4761d11.41
00000000 l     O .rodata..Lanon.f857ca147a032d488e1227fcc4761d11.42	00000010 .Lanon.f857ca147a032d488e1227fcc4761d11.42
00000000 l     O .rodata..Lanon.f857ca147a032d488e1227fcc4761d11.43	00000006 .Lanon.f857ca147a032d488e1227fcc4761d11.43
00000000 l     O .rodata..Lanon.f857ca147a032d488e1227fcc4761d11.44	00000009 .Lanon.f857ca147a032d488e1227fcc4761d11.44
00000000 l     O .rodata..Lanon.f857ca147a032d488e1227fcc4761d11.45	00000010 .Lanon.f857ca147a032d488e1227fcc4761d11.45
00000000 l     O .rodata..Lanon.f857ca147a032d488e1227fcc4761d11.46	00000005 .Lanon.f857ca147a032d488e1227fcc4761d11.46
00000000 l     O .rodata..Lanon.f857ca147a032d488e1227fcc4761d11.47	00000010 .Lanon.f857ca147a032d488e1227fcc4761d11.47
00000000 l     O .rodata..Lanon.f857ca147a032d488e1227fcc4761d11.48	00000005 .Lanon.f857ca147a032d488e1227fcc4761d11.48
00000000 l     O .rodata..Lanon.f857ca147a032d488e1227fcc4761d11.49	00000010 .Lanon.f857ca147a032d488e1227fcc4761d11.49
00000004 l     O .rodata.cst4	00000004 .Lanon.f857ca147a032d488e1227fcc4761d11.5
00000000 l     O .rodata..Lanon.f857ca147a032d488e1227fcc4761d11.6	00000003 .Lanon.f857ca147a032d488e1227fcc4761d11.6
00000000 l     O .rodata..Lanon.f857ca147a032d488e1227fcc4761d11.7	00000010 .Lanon.f857ca147a032d488e1227fcc4761d11.7
00000000 l     O .rodata..Lanon.f857ca147a032d488e1227fcc4761d11.8	00000013 .Lanon.f857ca147a032d488e1227fcc4761d11.8
00000000 l     O .rodata..Lanon.f857ca147a032d488e1227fcc4761d11.9	00000010 .Lanon.f857ca147a032d488e1227fcc4761d11.9
00000000 l    d  .text._ZN66_$LT$mylib..tinycbor..File_methods$u20$as$u20$core..fmt..Debug$GT$3fmt17h620ba58e62a2c575E	00000000 .text._ZN66_$LT$mylib..tinycbor..File_methods$u20$as$u20$core..fmt..Debug$GT$3fmt17h620ba58e62a2c575E
00000000 l    d  .text._ZN58_$LT$mylib..tinycbor..File$u20$as$u20$core..fmt..Debug$GT$3fmt17h5447c8c916eca50eE	00000000 .text._ZN58_$LT$mylib..tinycbor..File$u20$as$u20$core..fmt..Debug$GT$3fmt17h5447c8c916eca50eE
00000000 l    d  .text._ZN73_$LT$mylib..tinycbor..cbor_encoder_writer$u20$as$u20$core..fmt..Debug$GT$3fmt17h5ed7b7d956ab74f3E	00000000 .text._ZN73_$LT$mylib..tinycbor..cbor_encoder_writer$u20$as$u20$core..fmt..Debug$GT$3fmt17h5ed7b7d956ab74f3E
00000000 l    d  .text._ZN64_$LT$mylib..tinycbor..cbor_iovec$u20$as$u20$core..fmt..Debug$GT$3fmt17hf3d0f38b0d4466d6E	00000000 .text._ZN64_$LT$mylib..tinycbor..cbor_iovec$u20$as$u20$core..fmt..Debug$GT$3fmt17hf3d0f38b0d4466d6E
00000000 l    d  .text._ZN65_$LT$mylib..tinycbor..CborEncoder$u20$as$u20$core..fmt..Debug$GT$3fmt17h35e1dc682fe3b1b7E	00000000 .text._ZN65_$LT$mylib..tinycbor..CborEncoder$u20$as$u20$core..fmt..Debug$GT$3fmt17h35e1dc682fe3b1b7E
00000000 l    d  .text._ZN73_$LT$mylib..tinycbor..cbor_decoder_reader$u20$as$u20$core..fmt..Debug$GT$3fmt17h9f3020895227ed5cE	00000000 .text._ZN73_$LT$mylib..tinycbor..cbor_decoder_reader$u20$as$u20$core..fmt..Debug$GT$3fmt17h9f3020895227ed5cE
00000000 l    d  .text._ZN64_$LT$mylib..tinycbor..CborParser$u20$as$u20$core..fmt..Debug$GT$3fmt17h4217f02942d5fe32E	00000000 .text._ZN64_$LT$mylib..tinycbor..CborParser$u20$as$u20$core..fmt..Debug$GT$3fmt17h4217f02942d5fe32E
00000000 l    d  .text._ZN63_$LT$mylib..tinycbor..CborValue$u20$as$u20$core..fmt..Debug$GT$3fmt17hbe8a83b579bb51f4E	00000000 .text._ZN63_$LT$mylib..tinycbor..CborValue$u20$as$u20$core..fmt..Debug$GT$3fmt17hbe8a83b579bb51f4E
00000000 l    d  .rodata..Lanon.f857ca147a032d488e1227fcc4761d11.2	00000000 .rodata..Lanon.f857ca147a032d488e1227fcc4761d11.2
00000000 l    d  .rodata..Lanon.f857ca147a032d488e1227fcc4761d11.4	00000000 .rodata..Lanon.f857ca147a032d488e1227fcc4761d11.4
00000000 l    d  .rodata..Lanon.f857ca147a032d488e1227fcc4761d11.7	00000000 .rodata..Lanon.f857ca147a032d488e1227fcc4761d11.7
00000000 l    d  .rodata..Lanon.f857ca147a032d488e1227fcc4761d11.9	00000000 .rodata..Lanon.f857ca147a032d488e1227fcc4761d11.9
00000000 l    d  .rodata..Lanon.f857ca147a032d488e1227fcc4761d11.11	00000000 .rodata..Lanon.f857ca147a032d488e1227fcc4761d11.11
00000000 l    d  .rodata..Lanon.f857ca147a032d488e1227fcc4761d11.14	00000000 .rodata..Lanon.f857ca147a032d488e1227fcc4761d11.14
00000000 l    d  .rodata..Lanon.f857ca147a032d488e1227fcc4761d11.16	00000000 .rodata..Lanon.f857ca147a032d488e1227fcc4761d11.16
00000000 l    d  .rodata..Lanon.f857ca147a032d488e1227fcc4761d11.19	00000000 .rodata..Lanon.f857ca147a032d488e1227fcc4761d11.19
00000000 l    d  .rodata..Lanon.f857ca147a032d488e1227fcc4761d11.25	00000000 .rodata..Lanon.f857ca147a032d488e1227fcc4761d11.25
00000000 l    d  .rodata..Lanon.f857ca147a032d488e1227fcc4761d11.27	00000000 .rodata..Lanon.f857ca147a032d488e1227fcc4761d11.27
00000000 l    d  .rodata..Lanon.f857ca147a032d488e1227fcc4761d11.29	00000000 .rodata..Lanon.f857ca147a032d488e1227fcc4761d11.29
00000000 l    d  .rodata..Lanon.f857ca147a032d488e1227fcc4761d11.31	00000000 .rodata..Lanon.f857ca147a032d488e1227fcc4761d11.31
00000000 l    d  .rodata..Lanon.f857ca147a032d488e1227fcc4761d11.33	00000000 .rodata..Lanon.f857ca147a032d488e1227fcc4761d11.33
00000000 l    d  .rodata..Lanon.f857ca147a032d488e1227fcc4761d11.38	00000000 .rodata..Lanon.f857ca147a032d488e1227fcc4761d11.38
00000000 l    d  .rodata..Lanon.f857ca147a032d488e1227fcc4761d11.42	00000000 .rodata..Lanon.f857ca147a032d488e1227fcc4761d11.42
00000000 l    d  .rodata..Lanon.f857ca147a032d488e1227fcc4761d11.45	00000000 .rodata..Lanon.f857ca147a032d488e1227fcc4761d11.45
00000000 l    d  .rodata..Lanon.f857ca147a032d488e1227fcc4761d11.47	00000000 .rodata..Lanon.f857ca147a032d488e1227fcc4761d11.47
00000000 l    d  .rodata..Lanon.f857ca147a032d488e1227fcc4761d11.49	00000000 .rodata..Lanon.f857ca147a032d488e1227fcc4761d11.49
00000000 l    d  .debug_abbrev	00000000 .debug_abbrev
00000000 l    d  .debug_info	00000000 .debug_info
00000000 l    d  .debug_ranges	00000000 .debug_ranges
00000000 l    d  .debug_frame	00000000 .debug_frame
00000000 l    d  .debug_line	00000000 .debug_line
00000000         *UND*	00000000 _ZN42_$LT$$RF$T$u20$as$u20$core..fmt..Debug$GT$3fmt17h0690c51280dc8f21E
00000000         *UND*	00000000 _ZN42_$LT$$RF$T$u20$as$u20$core..fmt..Debug$GT$3fmt17h247b450a62ac622cE
00000000         *UND*	00000000 _ZN42_$LT$$RF$T$u20$as$u20$core..fmt..Debug$GT$3fmt17h3451ac6675a8fc21E
00000000         *UND*	00000000 _ZN42_$LT$$RF$T$u20$as$u20$core..fmt..Debug$GT$3fmt17h367967656a555ad1E
00000000         *UND*	00000000 _ZN42_$LT$$RF$T$u20$as$u20$core..fmt..Debug$GT$3fmt17h39647962fcf7b802E
00000000         *UND*	00000000 _ZN42_$LT$$RF$T$u20$as$u20$core..fmt..Debug$GT$3fmt17h3bcd2d1aa17a0478E
00000000         *UND*	00000000 _ZN42_$LT$$RF$T$u20$as$u20$core..fmt..Debug$GT$3fmt17h3f09e6bacb324456E
00000000         *UND*	00000000 _ZN42_$LT$$RF$T$u20$as$u20$core..fmt..Debug$GT$3fmt17h408b5df78a496a3aE
00000000         *UND*	00000000 _ZN42_$LT$$RF$T$u20$as$u20$core..fmt..Debug$GT$3fmt17h504dd6b3682c5e2aE
00000000         *UND*	00000000 _ZN42_$LT$$RF$T$u20$as$u20$core..fmt..Debug$GT$3fmt17h6a899eec6d6b94e7E
00000000         *UND*	00000000 _ZN42_$LT$$RF$T$u20$as$u20$core..fmt..Debug$GT$3fmt17h8d8c72190485fc01E
00000000         *UND*	00000000 _ZN42_$LT$$RF$T$u20$as$u20$core..fmt..Debug$GT$3fmt17h999e4f7c1827db7eE
00000000         *UND*	00000000 _ZN42_$LT$$RF$T$u20$as$u20$core..fmt..Debug$GT$3fmt17h9f97eba8228f92a1E
00000000         *UND*	00000000 _ZN42_$LT$$RF$T$u20$as$u20$core..fmt..Debug$GT$3fmt17ha33a0814a6357a00E
00000000         *UND*	00000000 _ZN42_$LT$$RF$T$u20$as$u20$core..fmt..Debug$GT$3fmt17haa044a67e90314e2E
00000000         *UND*	00000000 _ZN42_$LT$$RF$T$u20$as$u20$core..fmt..Debug$GT$3fmt17hd07287b39cdf4c8aE
00000000         *UND*	00000000 _ZN42_$LT$$RF$T$u20$as$u20$core..fmt..Debug$GT$3fmt17hd573bb3572f63439E
00000000         *UND*	00000000 _ZN42_$LT$$RF$T$u20$as$u20$core..fmt..Debug$GT$3fmt17he0662d6d576dbc21E
00000000         *UND*	00000000 _ZN4core3fmt8builders11DebugStruct5field17h80023aaf54882542E
00000000         *UND*	00000000 _ZN4core3fmt8builders11DebugStruct6finish17h9090cd1e84004b71E
00000000         *UND*	00000000 _ZN4core3fmt9Formatter12debug_struct17h0a14031b095ee1baE
00000000         *UND*	00000000 _ZN4core3ptr18real_drop_in_place17h12364d551a64c673E
00000000         *UND*	00000000 _ZN4core3ptr18real_drop_in_place17h13274ed9e6cf42aeE
00000000         *UND*	00000000 _ZN4core3ptr18real_drop_in_place17h1aaee5cf4ac22bfcE
00000000         *UND*	00000000 _ZN4core3ptr18real_drop_in_place17h1d9e7311b666e5e4E
00000000         *UND*	00000000 _ZN4core3ptr18real_drop_in_place17h290397d347366afaE
00000000         *UND*	00000000 _ZN4core3ptr18real_drop_in_place17h413dd901aad0bbcdE
00000000         *UND*	00000000 _ZN4core3ptr18real_drop_in_place17h5e2525a3918e4db9E
00000000         *UND*	00000000 _ZN4core3ptr18real_drop_in_place17h660a62535e7051c3E
00000000         *UND*	00000000 _ZN4core3ptr18real_drop_in_place17h77860e73084ca4e9E
00000000         *UND*	00000000 _ZN4core3ptr18real_drop_in_place17h78addfcfdfe6f973E
00000000         *UND*	00000000 _ZN4core3ptr18real_drop_in_place17h80f1b1fa24a4e5dbE
00000000         *UND*	00000000 _ZN4core3ptr18real_drop_in_place17h96e4be033f54a271E
00000000         *UND*	00000000 _ZN4core3ptr18real_drop_in_place17haac9792b890d7898E
00000000         *UND*	00000000 _ZN4core3ptr18real_drop_in_place17hb3abb23f5be60e65E
00000000         *UND*	00000000 _ZN4core3ptr18real_drop_in_place17hd8ee651bf7b1ca42E
00000000         *UND*	00000000 _ZN4core3ptr18real_drop_in_place17hd939fa4f43d12248E
00000000         *UND*	00000000 _ZN4core3ptr18real_drop_in_place17he8f3ca6d4eafaaa0E
00000000         *UND*	00000000 _ZN4core3ptr18real_drop_in_place17hf0e9cd777cfd2ba7E
00000000 g     F .text._ZN58_$LT$mylib..tinycbor..File$u20$as$u20$core..fmt..Debug$GT$3fmt17h5447c8c916eca50eE	00000072 _ZN58_$LT$mylib..tinycbor..File$u20$as$u20$core..fmt..Debug$GT$3fmt17h5447c8c916eca50eE
00000000 g     F .text._ZN63_$LT$mylib..tinycbor..CborValue$u20$as$u20$core..fmt..Debug$GT$3fmt17hbe8a83b579bb51f4E	0000014e _ZN63_$LT$mylib..tinycbor..CborValue$u20$as$u20$core..fmt..Debug$GT$3fmt17hbe8a83b579bb51f4E
00000000 g     F .text._ZN64_$LT$mylib..tinycbor..CborParser$u20$as$u20$core..fmt..Debug$GT$3fmt17h4217f02942d5fe32E	000000ca _ZN64_$LT$mylib..tinycbor..CborParser$u20$as$u20$core..fmt..Debug$GT$3fmt17h4217f02942d5fe32E
00000000 g     F .text._ZN64_$LT$mylib..tinycbor..cbor_iovec$u20$as$u20$core..fmt..Debug$GT$3fmt17hf3d0f38b0d4466d6E	0000009e _ZN64_$LT$mylib..tinycbor..cbor_iovec$u20$as$u20$core..fmt..Debug$GT$3fmt17hf3d0f38b0d4466d6E
00000000 g     F .text._ZN65_$LT$mylib..tinycbor..CborEncoder$u20$as$u20$core..fmt..Debug$GT$3fmt17h35e1dc682fe3b1b7E	000000f6 _ZN65_$LT$mylib..tinycbor..CborEncoder$u20$as$u20$core..fmt..Debug$GT$3fmt17h35e1dc682fe3b1b7E
00000000 g     F .text._ZN66_$LT$mylib..tinycbor..File_methods$u20$as$u20$core..fmt..Debug$GT$3fmt17h620ba58e62a2c575E	0000009e _ZN66_$LT$mylib..tinycbor..File_methods$u20$as$u20$core..fmt..Debug$GT$3fmt17h620ba58e62a2c575E
00000000 g     F .text._ZN73_$LT$mylib..tinycbor..cbor_decoder_reader$u20$as$u20$core..fmt..Debug$GT$3fmt17h9f3020895227ed5cE	0000017a _ZN73_$LT$mylib..tinycbor..cbor_decoder_reader$u20$as$u20$core..fmt..Debug$GT$3fmt17h9f3020895227ed5cE
00000000 g     F .text._ZN73_$LT$mylib..tinycbor..cbor_encoder_writer$u20$as$u20$core..fmt..Debug$GT$3fmt17h5ed7b7d956ab74f3E	0000009e _ZN73_$LT$mylib..tinycbor..cbor_encoder_writer$u20$as$u20$core..fmt..Debug$GT$3fmt17h5ed7b7d956ab74f3E



Disassembly of section .text._ZN66_$LT$mylib..tinycbor..File_methods$u20$as$u20$core..fmt..Debug$GT$3fmt17h620ba58e62a2c575E:

00000000 <_ZN66_$LT$mylib..tinycbor..File_methods$u20$as$u20$core..fmt..Debug$GT$3fmt17h620ba58e62a2c575E>:
_ZN66_$LT$mylib..tinycbor..File_methods$u20$as$u20$core..fmt..Debug$GT$3fmt17h620ba58e62a2c575E():
/Users/Luppy/mynewt/stm32bluepill-mynewt-sensor/src/tinycbor.rs:11
pub type __int64_t = ::cty::c_longlong;
pub type __uint64_t = ::cty::c_ulonglong;
pub type __uintptr_t = ::cty::c_uint;
pub type FILE = File;
#[repr(C)]
#[derive(Debug, Copy, Clone)]
   0:	b580      	push	{r7, lr}
   2:	b090      	sub	sp, #64	; 0x40
   4:	460a      	mov	r2, r1
   6:	4603      	mov	r3, r0
   8:	9008      	str	r0, [sp, #32]
   a:	9109      	str	r1, [sp, #36]	; 0x24
/Users/Luppy/mynewt/stm32bluepill-mynewt-sensor/src/tinycbor.rs:13
pub struct File_methods {
    pub write: ::core::option::Option<
   c:	9808      	ldr	r0, [sp, #32]
   e:	900a      	str	r0, [sp, #40]	; 0x28
/Users/Luppy/mynewt/stm32bluepill-mynewt-sensor/src/tinycbor.rs:16
        unsafe extern "C" fn(instance: *mut FILE, bp: *const ::cty::c_char, n: usize) -> usize,
    >,
    pub read: ::core::option::Option<
  10:	9808      	ldr	r0, [sp, #32]
  12:	3004      	adds	r0, #4
  14:	900b      	str	r0, [sp, #44]	; 0x2c
/Users/Luppy/mynewt/stm32bluepill-mynewt-sensor/src/tinycbor.rs:11
#[derive(Debug, Copy, Clone)]
  16:	9909      	ldr	r1, [sp, #36]	; 0x24
  18:	f240 0000 	movw	r0, #0
  1c:	f2c0 0000 	movt	r0, #0
  20:	f10d 0c30 	add.w	ip, sp, #48	; 0x30
  24:	f04f 0e0c 	mov.w	lr, #12
  28:	9007      	str	r0, [sp, #28]
  2a:	4660      	mov	r0, ip
  2c:	f8dd c01c 	ldr.w	ip, [sp, #28]
  30:	9206      	str	r2, [sp, #24]
  32:	4662      	mov	r2, ip
  34:	9305      	str	r3, [sp, #20]
  36:	4673      	mov	r3, lr
  38:	f7ff fffe 	bl	0 <_ZN4core3fmt9Formatter12debug_struct17h0a14031b095ee1baE>
  3c:	e7ff      	b.n	3e <_ZN66_$LT$mylib..tinycbor..File_methods$u20$as$u20$core..fmt..Debug$GT$3fmt17h620ba58e62a2c575E+0x3e>
/Users/Luppy/mynewt/stm32bluepill-mynewt-sensor/src/tinycbor.rs:13
    pub write: ::core::option::Option<
  3e:	980a      	ldr	r0, [sp, #40]	; 0x28
  40:	900e      	str	r0, [sp, #56]	; 0x38
/Users/Luppy/mynewt/stm32bluepill-mynewt-sensor/src/tinycbor.rs:11
#[derive(Debug, Copy, Clone)]
  42:	f240 0000 	movw	r0, #0
  46:	f2c0 0000 	movt	r0, #0
  4a:	4669      	mov	r1, sp
  4c:	6008      	str	r0, [r1, #0]
  4e:	f240 0100 	movw	r1, #0
  52:	f2c0 0100 	movt	r1, #0
  56:	a80c      	add	r0, sp, #48	; 0x30
  58:	2205      	movs	r2, #5
  5a:	ab0e      	add	r3, sp, #56	; 0x38
  5c:	f7ff fffe 	bl	0 <_ZN4core3fmt8builders11DebugStruct5field17h80023aaf54882542E>
  60:	9004      	str	r0, [sp, #16]
  62:	e7ff      	b.n	64 <_ZN66_$LT$mylib..tinycbor..File_methods$u20$as$u20$core..fmt..Debug$GT$3fmt17h620ba58e62a2c575E+0x64>
/Users/Luppy/mynewt/stm32bluepill-mynewt-sensor/src/tinycbor.rs:16
    pub read: ::core::option::Option<
  64:	980b      	ldr	r0, [sp, #44]	; 0x2c
  66:	900f      	str	r0, [sp, #60]	; 0x3c
/Users/Luppy/mynewt/stm32bluepill-mynewt-sensor/src/tinycbor.rs:11
#[derive(Debug, Copy, Clone)]
  68:	f240 0000 	movw	r0, #0
  6c:	f2c0 0000 	movt	r0, #0
  70:	4669      	mov	r1, sp
  72:	6008      	str	r0, [r1, #0]
  74:	f240 0100 	movw	r1, #0
  78:	f2c0 0100 	movt	r1, #0
  7c:	a80c      	add	r0, sp, #48	; 0x30
  7e:	2204      	movs	r2, #4
  80:	ab0f      	add	r3, sp, #60	; 0x3c
  82:	f7ff fffe 	bl	0 <_ZN4core3fmt8builders11DebugStruct5field17h80023aaf54882542E>
  86:	9003      	str	r0, [sp, #12]
  88:	e7ff      	b.n	8a <_ZN66_$LT$mylib..tinycbor..File_methods$u20$as$u20$core..fmt..Debug$GT$3fmt17h620ba58e62a2c575E+0x8a>
  8a:	a80c      	add	r0, sp, #48	; 0x30
  8c:	f7ff fffe 	bl	0 <_ZN4core3fmt8builders11DebugStruct6finish17h9090cd1e84004b71E>
  90:	9002      	str	r0, [sp, #8]
  92:	e7ff      	b.n	94 <_ZN66_$LT$mylib..tinycbor..File_methods$u20$as$u20$core..fmt..Debug$GT$3fmt17h620ba58e62a2c575E+0x94>
  94:	9802      	ldr	r0, [sp, #8]
  96:	f000 0001 	and.w	r0, r0, #1
  9a:	b010      	add	sp, #64	; 0x40
  9c:	bd80      	pop	{r7, pc}

Disassembly of section .text._ZN58_$LT$mylib..tinycbor..File$u20$as$u20$core..fmt..Debug$GT$3fmt17h5447c8c916eca50eE:

00000000 <_ZN58_$LT$mylib..tinycbor..File$u20$as$u20$core..fmt..Debug$GT$3fmt17h5447c8c916eca50eE>:
_ZN58_$LT$mylib..tinycbor..File$u20$as$u20$core..fmt..Debug$GT$3fmt17h5447c8c916eca50eE():
/Users/Luppy/mynewt/stm32bluepill-mynewt-sensor/src/tinycbor.rs:54
            stringify!(read)
        )
    );
}
#[repr(C)]
#[derive(Debug, Copy, Clone)]
   0:	b580      	push	{r7, lr}
   2:	b08c      	sub	sp, #48	; 0x30
   4:	460a      	mov	r2, r1
   6:	4603      	mov	r3, r0
   8:	9006      	str	r0, [sp, #24]
   a:	9107      	str	r1, [sp, #28]
/Users/Luppy/mynewt/stm32bluepill-mynewt-sensor/src/tinycbor.rs:56
pub struct File {
    pub vmt: *const File_methods,
   c:	9806      	ldr	r0, [sp, #24]
   e:	9008      	str	r0, [sp, #32]
/Users/Luppy/mynewt/stm32bluepill-mynewt-sensor/src/tinycbor.rs:54
#[derive(Debug, Copy, Clone)]
  10:	9907      	ldr	r1, [sp, #28]
  12:	f240 0000 	movw	r0, #0
  16:	f2c0 0000 	movt	r0, #0
  1a:	f10d 0c24 	add.w	ip, sp, #36	; 0x24
  1e:	f04f 0e04 	mov.w	lr, #4
  22:	9005      	str	r0, [sp, #20]
  24:	4660      	mov	r0, ip
  26:	f8dd c014 	ldr.w	ip, [sp, #20]
  2a:	9204      	str	r2, [sp, #16]
  2c:	4662      	mov	r2, ip
  2e:	9303      	str	r3, [sp, #12]
  30:	4673      	mov	r3, lr
  32:	f7ff fffe 	bl	0 <_ZN4core3fmt9Formatter12debug_struct17h0a14031b095ee1baE>
  36:	e7ff      	b.n	38 <_ZN58_$LT$mylib..tinycbor..File$u20$as$u20$core..fmt..Debug$GT$3fmt17h5447c8c916eca50eE+0x38>
/Users/Luppy/mynewt/stm32bluepill-mynewt-sensor/src/tinycbor.rs:56
    pub vmt: *const File_methods,
  38:	9808      	ldr	r0, [sp, #32]
  3a:	900b      	str	r0, [sp, #44]	; 0x2c
/Users/Luppy/mynewt/stm32bluepill-mynewt-sensor/src/tinycbor.rs:54
#[derive(Debug, Copy, Clone)]
  3c:	f240 0000 	movw	r0, #0
  40:	f2c0 0000 	movt	r0, #0
  44:	4669      	mov	r1, sp
  46:	6008      	str	r0, [r1, #0]
  48:	f240 0100 	movw	r1, #0
  4c:	f2c0 0100 	movt	r1, #0
  50:	a809      	add	r0, sp, #36	; 0x24
  52:	2203      	movs	r2, #3
  54:	ab0b      	add	r3, sp, #44	; 0x2c
  56:	f7ff fffe 	bl	0 <_ZN4core3fmt8builders11DebugStruct5field17h80023aaf54882542E>
  5a:	9002      	str	r0, [sp, #8]
  5c:	e7ff      	b.n	5e <_ZN58_$LT$mylib..tinycbor..File$u20$as$u20$core..fmt..Debug$GT$3fmt17h5447c8c916eca50eE+0x5e>
  5e:	a809      	add	r0, sp, #36	; 0x24
  60:	f7ff fffe 	bl	0 <_ZN4core3fmt8builders11DebugStruct6finish17h9090cd1e84004b71E>
  64:	9001      	str	r0, [sp, #4]
  66:	e7ff      	b.n	68 <_ZN58_$LT$mylib..tinycbor..File$u20$as$u20$core..fmt..Debug$GT$3fmt17h5447c8c916eca50eE+0x68>
  68:	9801      	ldr	r0, [sp, #4]
  6a:	f000 0001 	and.w	r0, r0, #1
  6e:	b00c      	add	sp, #48	; 0x30
  70:	bd80      	pop	{r7, pc}

Disassembly of section .text._ZN73_$LT$mylib..tinycbor..cbor_encoder_writer$u20$as$u20$core..fmt..Debug$GT$3fmt17h5ed7b7d956ab74f3E:

00000000 <_ZN73_$LT$mylib..tinycbor..cbor_encoder_writer$u20$as$u20$core..fmt..Debug$GT$3fmt17h5ed7b7d956ab74f3E>:
_ZN73_$LT$mylib..tinycbor..cbor_encoder_writer$u20$as$u20$core..fmt..Debug$GT$3fmt17h5ed7b7d956ab74f3E():
/Users/Luppy/mynewt/stm32bluepill-mynewt-sensor/src/tinycbor.rs:147
        data: *const ::cty::c_char,
        len: ::cty::c_int,
    ) -> ::cty::c_int,
>;
#[repr(C)]
#[derive(Debug, Copy, Clone)]
   0:	b580      	push	{r7, lr}
   2:	b090      	sub	sp, #64	; 0x40
   4:	460a      	mov	r2, r1
   6:	4603      	mov	r3, r0
   8:	9008      	str	r0, [sp, #32]
   a:	9109      	str	r1, [sp, #36]	; 0x24
/Users/Luppy/mynewt/stm32bluepill-mynewt-sensor/src/tinycbor.rs:149
pub struct cbor_encoder_writer {
    pub write: cbor_encoder_write,
   c:	9808      	ldr	r0, [sp, #32]
   e:	900a      	str	r0, [sp, #40]	; 0x28
/Users/Luppy/mynewt/stm32bluepill-mynewt-sensor/src/tinycbor.rs:150
    pub bytes_written: ::cty::c_int,
  10:	9808      	ldr	r0, [sp, #32]
  12:	3004      	adds	r0, #4
  14:	900b      	str	r0, [sp, #44]	; 0x2c
/Users/Luppy/mynewt/stm32bluepill-mynewt-sensor/src/tinycbor.rs:147
#[derive(Debug, Copy, Clone)]
  16:	9909      	ldr	r1, [sp, #36]	; 0x24
  18:	f240 0000 	movw	r0, #0
  1c:	f2c0 0000 	movt	r0, #0
  20:	f10d 0c30 	add.w	ip, sp, #48	; 0x30
  24:	f04f 0e13 	mov.w	lr, #19
  28:	9007      	str	r0, [sp, #28]
  2a:	4660      	mov	r0, ip
  2c:	f8dd c01c 	ldr.w	ip, [sp, #28]
  30:	9206      	str	r2, [sp, #24]
  32:	4662      	mov	r2, ip
  34:	9305      	str	r3, [sp, #20]
  36:	4673      	mov	r3, lr
  38:	f7ff fffe 	bl	0 <_ZN4core3fmt9Formatter12debug_struct17h0a14031b095ee1baE>
  3c:	e7ff      	b.n	3e <_ZN73_$LT$mylib..tinycbor..cbor_encoder_writer$u20$as$u20$core..fmt..Debug$GT$3fmt17h5ed7b7d956ab74f3E+0x3e>
/Users/Luppy/mynewt/stm32bluepill-mynewt-sensor/src/tinycbor.rs:149
    pub write: cbor_encoder_write,
  3e:	980a      	ldr	r0, [sp, #40]	; 0x28
  40:	900e      	str	r0, [sp, #56]	; 0x38
/Users/Luppy/mynewt/stm32bluepill-mynewt-sensor/src/tinycbor.rs:147
#[derive(Debug, Copy, Clone)]
  42:	f240 0000 	movw	r0, #0
  46:	f2c0 0000 	movt	r0, #0
  4a:	4669      	mov	r1, sp
  4c:	6008      	str	r0, [r1, #0]
  4e:	f240 0100 	movw	r1, #0
  52:	f2c0 0100 	movt	r1, #0
  56:	a80c      	add	r0, sp, #48	; 0x30
  58:	2205      	movs	r2, #5
  5a:	ab0e      	add	r3, sp, #56	; 0x38
  5c:	f7ff fffe 	bl	0 <_ZN4core3fmt8builders11DebugStruct5field17h80023aaf54882542E>
  60:	9004      	str	r0, [sp, #16]
  62:	e7ff      	b.n	64 <_ZN73_$LT$mylib..tinycbor..cbor_encoder_writer$u20$as$u20$core..fmt..Debug$GT$3fmt17h5ed7b7d956ab74f3E+0x64>
/Users/Luppy/mynewt/stm32bluepill-mynewt-sensor/src/tinycbor.rs:150
    pub bytes_written: ::cty::c_int,
  64:	980b      	ldr	r0, [sp, #44]	; 0x2c
  66:	900f      	str	r0, [sp, #60]	; 0x3c
/Users/Luppy/mynewt/stm32bluepill-mynewt-sensor/src/tinycbor.rs:147
#[derive(Debug, Copy, Clone)]
  68:	f240 0000 	movw	r0, #0
  6c:	f2c0 0000 	movt	r0, #0
  70:	4669      	mov	r1, sp
  72:	6008      	str	r0, [r1, #0]
  74:	f240 0100 	movw	r1, #0
  78:	f2c0 0100 	movt	r1, #0
  7c:	a80c      	add	r0, sp, #48	; 0x30
  7e:	220d      	movs	r2, #13
  80:	ab0f      	add	r3, sp, #60	; 0x3c
  82:	f7ff fffe 	bl	0 <_ZN4core3fmt8builders11DebugStruct5field17h80023aaf54882542E>
  86:	9003      	str	r0, [sp, #12]
  88:	e7ff      	b.n	8a <_ZN73_$LT$mylib..tinycbor..cbor_encoder_writer$u20$as$u20$core..fmt..Debug$GT$3fmt17h5ed7b7d956ab74f3E+0x8a>
  8a:	a80c      	add	r0, sp, #48	; 0x30
  8c:	f7ff fffe 	bl	0 <_ZN4core3fmt8builders11DebugStruct6finish17h9090cd1e84004b71E>
  90:	9002      	str	r0, [sp, #8]
  92:	e7ff      	b.n	94 <_ZN73_$LT$mylib..tinycbor..cbor_encoder_writer$u20$as$u20$core..fmt..Debug$GT$3fmt17h5ed7b7d956ab74f3E+0x94>
  94:	9802      	ldr	r0, [sp, #8]
  96:	f000 0001 	and.w	r0, r0, #1
  9a:	b010      	add	sp, #64	; 0x40
  9c:	bd80      	pop	{r7, pc}

Disassembly of section .text._ZN64_$LT$mylib..tinycbor..cbor_iovec$u20$as$u20$core..fmt..Debug$GT$3fmt17hf3d0f38b0d4466d6E:

00000000 <_ZN64_$LT$mylib..tinycbor..cbor_iovec$u20$as$u20$core..fmt..Debug$GT$3fmt17hf3d0f38b0d4466d6E>:
_ZN64_$LT$mylib..tinycbor..cbor_iovec$u20$as$u20$core..fmt..Debug$GT$3fmt17hf3d0f38b0d4466d6E():
/Users/Luppy/mynewt/stm32bluepill-mynewt-sensor/src/tinycbor.rs:188
            stringify!(bytes_written)
        )
    );
}
#[repr(C)]
#[derive(Debug, Copy, Clone)]
   0:	b580      	push	{r7, lr}
   2:	b090      	sub	sp, #64	; 0x40
   4:	460a      	mov	r2, r1
   6:	4603      	mov	r3, r0
   8:	9008      	str	r0, [sp, #32]
   a:	9109      	str	r1, [sp, #36]	; 0x24
/Users/Luppy/mynewt/stm32bluepill-mynewt-sensor/src/tinycbor.rs:190
pub struct cbor_iovec {
    pub iov_base: *mut ::cty::c_void,
   c:	9808      	ldr	r0, [sp, #32]
   e:	900a      	str	r0, [sp, #40]	; 0x28
/Users/Luppy/mynewt/stm32bluepill-mynewt-sensor/src/tinycbor.rs:191
    pub iov_len: usize,
  10:	9808      	ldr	r0, [sp, #32]
  12:	3004      	adds	r0, #4
  14:	900b      	str	r0, [sp, #44]	; 0x2c
/Users/Luppy/mynewt/stm32bluepill-mynewt-sensor/src/tinycbor.rs:188
#[derive(Debug, Copy, Clone)]
  16:	9909      	ldr	r1, [sp, #36]	; 0x24
  18:	f240 0000 	movw	r0, #0
  1c:	f2c0 0000 	movt	r0, #0
  20:	f10d 0c30 	add.w	ip, sp, #48	; 0x30
  24:	f04f 0e0a 	mov.w	lr, #10
  28:	9007      	str	r0, [sp, #28]
  2a:	4660      	mov	r0, ip
  2c:	f8dd c01c 	ldr.w	ip, [sp, #28]
  30:	9206      	str	r2, [sp, #24]
  32:	4662      	mov	r2, ip
  34:	9305      	str	r3, [sp, #20]
  36:	4673      	mov	r3, lr
  38:	f7ff fffe 	bl	0 <_ZN4core3fmt9Formatter12debug_struct17h0a14031b095ee1baE>
  3c:	e7ff      	b.n	3e <_ZN64_$LT$mylib..tinycbor..cbor_iovec$u20$as$u20$core..fmt..Debug$GT$3fmt17hf3d0f38b0d4466d6E+0x3e>
/Users/Luppy/mynewt/stm32bluepill-mynewt-sensor/src/tinycbor.rs:190
    pub iov_base: *mut ::cty::c_void,
  3e:	980a      	ldr	r0, [sp, #40]	; 0x28
  40:	900e      	str	r0, [sp, #56]	; 0x38
/Users/Luppy/mynewt/stm32bluepill-mynewt-sensor/src/tinycbor.rs:188
#[derive(Debug, Copy, Clone)]
  42:	f240 0000 	movw	r0, #0
  46:	f2c0 0000 	movt	r0, #0
  4a:	4669      	mov	r1, sp
  4c:	6008      	str	r0, [r1, #0]
  4e:	f240 0100 	movw	r1, #0
  52:	f2c0 0100 	movt	r1, #0
  56:	a80c      	add	r0, sp, #48	; 0x30
  58:	2208      	movs	r2, #8
  5a:	ab0e      	add	r3, sp, #56	; 0x38
  5c:	f7ff fffe 	bl	0 <_ZN4core3fmt8builders11DebugStruct5field17h80023aaf54882542E>
  60:	9004      	str	r0, [sp, #16]
  62:	e7ff      	b.n	64 <_ZN64_$LT$mylib..tinycbor..cbor_iovec$u20$as$u20$core..fmt..Debug$GT$3fmt17hf3d0f38b0d4466d6E+0x64>
/Users/Luppy/mynewt/stm32bluepill-mynewt-sensor/src/tinycbor.rs:191
    pub iov_len: usize,
  64:	980b      	ldr	r0, [sp, #44]	; 0x2c
  66:	900f      	str	r0, [sp, #60]	; 0x3c
/Users/Luppy/mynewt/stm32bluepill-mynewt-sensor/src/tinycbor.rs:188
#[derive(Debug, Copy, Clone)]
  68:	f240 0000 	movw	r0, #0
  6c:	f2c0 0000 	movt	r0, #0
  70:	4669      	mov	r1, sp
  72:	6008      	str	r0, [r1, #0]
  74:	f240 0100 	movw	r1, #0
  78:	f2c0 0100 	movt	r1, #0
  7c:	a80c      	add	r0, sp, #48	; 0x30
  7e:	2207      	movs	r2, #7
  80:	ab0f      	add	r3, sp, #60	; 0x3c
  82:	f7ff fffe 	bl	0 <_ZN4core3fmt8builders11DebugStruct5field17h80023aaf54882542E>
  86:	9003      	str	r0, [sp, #12]
  88:	e7ff      	b.n	8a <_ZN64_$LT$mylib..tinycbor..cbor_iovec$u20$as$u20$core..fmt..Debug$GT$3fmt17hf3d0f38b0d4466d6E+0x8a>
  8a:	a80c      	add	r0, sp, #48	; 0x30
  8c:	f7ff fffe 	bl	0 <_ZN4core3fmt8builders11DebugStruct6finish17h9090cd1e84004b71E>
  90:	9002      	str	r0, [sp, #8]
  92:	e7ff      	b.n	94 <_ZN64_$LT$mylib..tinycbor..cbor_iovec$u20$as$u20$core..fmt..Debug$GT$3fmt17hf3d0f38b0d4466d6E+0x94>
  94:	9802      	ldr	r0, [sp, #8]
  96:	f000 0001 	and.w	r0, r0, #1
  9a:	b010      	add	sp, #64	; 0x40
  9c:	bd80      	pop	{r7, pc}

Disassembly of section .text._ZN65_$LT$mylib..tinycbor..CborEncoder$u20$as$u20$core..fmt..Debug$GT$3fmt17h35e1dc682fe3b1b7E:

00000000 <_ZN65_$LT$mylib..tinycbor..CborEncoder$u20$as$u20$core..fmt..Debug$GT$3fmt17h35e1dc682fe3b1b7E>:
_ZN65_$LT$mylib..tinycbor..CborEncoder$u20$as$u20$core..fmt..Debug$GT$3fmt17h35e1dc682fe3b1b7E():
/Users/Luppy/mynewt/stm32bluepill-mynewt-sensor/src/tinycbor.rs:227
            stringify!(iov_len)
        )
    );
}
#[repr(C)]
#[derive(Debug, Copy, Clone)]
   0:	b580      	push	{r7, lr}
   2:	b096      	sub	sp, #88	; 0x58
   4:	460a      	mov	r2, r1
   6:	4603      	mov	r3, r0
   8:	900a      	str	r0, [sp, #40]	; 0x28
   a:	910b      	str	r1, [sp, #44]	; 0x2c
/Users/Luppy/mynewt/stm32bluepill-mynewt-sensor/src/tinycbor.rs:229
pub struct CborEncoder {
    pub writer: *mut cbor_encoder_writer,
   c:	980a      	ldr	r0, [sp, #40]	; 0x28
   e:	900c      	str	r0, [sp, #48]	; 0x30
/Users/Luppy/mynewt/stm32bluepill-mynewt-sensor/src/tinycbor.rs:230
    pub writer_arg: *mut ::cty::c_void,
  10:	980a      	ldr	r0, [sp, #40]	; 0x28
  12:	3004      	adds	r0, #4
  14:	900d      	str	r0, [sp, #52]	; 0x34
/Users/Luppy/mynewt/stm32bluepill-mynewt-sensor/src/tinycbor.rs:231
    pub added: usize,
  16:	980a      	ldr	r0, [sp, #40]	; 0x28
  18:	3008      	adds	r0, #8
  1a:	900e      	str	r0, [sp, #56]	; 0x38
/Users/Luppy/mynewt/stm32bluepill-mynewt-sensor/src/tinycbor.rs:232
    pub flags: ::cty::c_int,
  1c:	980a      	ldr	r0, [sp, #40]	; 0x28
  1e:	300c      	adds	r0, #12
  20:	900f      	str	r0, [sp, #60]	; 0x3c
/Users/Luppy/mynewt/stm32bluepill-mynewt-sensor/src/tinycbor.rs:227
#[derive(Debug, Copy, Clone)]
  22:	990b      	ldr	r1, [sp, #44]	; 0x2c
  24:	f240 0000 	movw	r0, #0
  28:	f2c0 0000 	movt	r0, #0
  2c:	f10d 0c40 	add.w	ip, sp, #64	; 0x40
  30:	f04f 0e0b 	mov.w	lr, #11
  34:	9009      	str	r0, [sp, #36]	; 0x24
  36:	4660      	mov	r0, ip
  38:	f8dd c024 	ldr.w	ip, [sp, #36]	; 0x24
  3c:	9208      	str	r2, [sp, #32]
  3e:	4662      	mov	r2, ip
  40:	9307      	str	r3, [sp, #28]
  42:	4673      	mov	r3, lr
  44:	f7ff fffe 	bl	0 <_ZN4core3fmt9Formatter12debug_struct17h0a14031b095ee1baE>
  48:	e7ff      	b.n	4a <_ZN65_$LT$mylib..tinycbor..CborEncoder$u20$as$u20$core..fmt..Debug$GT$3fmt17h35e1dc682fe3b1b7E+0x4a>
/Users/Luppy/mynewt/stm32bluepill-mynewt-sensor/src/tinycbor.rs:229
    pub writer: *mut cbor_encoder_writer,
  4a:	980c      	ldr	r0, [sp, #48]	; 0x30
  4c:	9012      	str	r0, [sp, #72]	; 0x48
/Users/Luppy/mynewt/stm32bluepill-mynewt-sensor/src/tinycbor.rs:227
#[derive(Debug, Copy, Clone)]
  4e:	f240 0000 	movw	r0, #0
  52:	f2c0 0000 	movt	r0, #0
  56:	4669      	mov	r1, sp
  58:	6008      	str	r0, [r1, #0]
  5a:	f240 0100 	movw	r1, #0
  5e:	f2c0 0100 	movt	r1, #0
  62:	a810      	add	r0, sp, #64	; 0x40
  64:	2206      	movs	r2, #6
  66:	ab12      	add	r3, sp, #72	; 0x48
  68:	f7ff fffe 	bl	0 <_ZN4core3fmt8builders11DebugStruct5field17h80023aaf54882542E>
  6c:	9006      	str	r0, [sp, #24]
  6e:	e7ff      	b.n	70 <_ZN65_$LT$mylib..tinycbor..CborEncoder$u20$as$u20$core..fmt..Debug$GT$3fmt17h35e1dc682fe3b1b7E+0x70>
/Users/Luppy/mynewt/stm32bluepill-mynewt-sensor/src/tinycbor.rs:230
    pub writer_arg: *mut ::cty::c_void,
  70:	980d      	ldr	r0, [sp, #52]	; 0x34
  72:	9013      	str	r0, [sp, #76]	; 0x4c
/Users/Luppy/mynewt/stm32bluepill-mynewt-sensor/src/tinycbor.rs:227
#[derive(Debug, Copy, Clone)]
  74:	f240 0000 	movw	r0, #0
  78:	f2c0 0000 	movt	r0, #0
  7c:	4669      	mov	r1, sp
  7e:	6008      	str	r0, [r1, #0]
  80:	f240 0100 	movw	r1, #0
  84:	f2c0 0100 	movt	r1, #0
  88:	a810      	add	r0, sp, #64	; 0x40
  8a:	220a      	movs	r2, #10
  8c:	ab13      	add	r3, sp, #76	; 0x4c
  8e:	f7ff fffe 	bl	0 <_ZN4core3fmt8builders11DebugStruct5field17h80023aaf54882542E>
  92:	9005      	str	r0, [sp, #20]
  94:	e7ff      	b.n	96 <_ZN65_$LT$mylib..tinycbor..CborEncoder$u20$as$u20$core..fmt..Debug$GT$3fmt17h35e1dc682fe3b1b7E+0x96>
/Users/Luppy/mynewt/stm32bluepill-mynewt-sensor/src/tinycbor.rs:231
    pub added: usize,
  96:	980e      	ldr	r0, [sp, #56]	; 0x38
  98:	9014      	str	r0, [sp, #80]	; 0x50
/Users/Luppy/mynewt/stm32bluepill-mynewt-sensor/src/tinycbor.rs:227
#[derive(Debug, Copy, Clone)]
  9a:	f240 0000 	movw	r0, #0
  9e:	f2c0 0000 	movt	r0, #0
  a2:	4669      	mov	r1, sp
  a4:	6008      	str	r0, [r1, #0]
  a6:	f240 0100 	movw	r1, #0
  aa:	f2c0 0100 	movt	r1, #0
  ae:	a810      	add	r0, sp, #64	; 0x40
  b0:	2205      	movs	r2, #5
  b2:	ab14      	add	r3, sp, #80	; 0x50
  b4:	f7ff fffe 	bl	0 <_ZN4core3fmt8builders11DebugStruct5field17h80023aaf54882542E>
  b8:	9004      	str	r0, [sp, #16]
  ba:	e7ff      	b.n	bc <_ZN65_$LT$mylib..tinycbor..CborEncoder$u20$as$u20$core..fmt..Debug$GT$3fmt17h35e1dc682fe3b1b7E+0xbc>
/Users/Luppy/mynewt/stm32bluepill-mynewt-sensor/src/tinycbor.rs:232
    pub flags: ::cty::c_int,
  bc:	980f      	ldr	r0, [sp, #60]	; 0x3c
  be:	9015      	str	r0, [sp, #84]	; 0x54
/Users/Luppy/mynewt/stm32bluepill-mynewt-sensor/src/tinycbor.rs:227
#[derive(Debug, Copy, Clone)]
  c0:	f240 0000 	movw	r0, #0
  c4:	f2c0 0000 	movt	r0, #0
  c8:	4669      	mov	r1, sp
  ca:	6008      	str	r0, [r1, #0]
  cc:	f240 0100 	movw	r1, #0
  d0:	f2c0 0100 	movt	r1, #0
  d4:	a810      	add	r0, sp, #64	; 0x40
  d6:	2205      	movs	r2, #5
  d8:	ab15      	add	r3, sp, #84	; 0x54
  da:	f7ff fffe 	bl	0 <_ZN4core3fmt8builders11DebugStruct5field17h80023aaf54882542E>
  de:	9003      	str	r0, [sp, #12]
  e0:	e7ff      	b.n	e2 <_ZN65_$LT$mylib..tinycbor..CborEncoder$u20$as$u20$core..fmt..Debug$GT$3fmt17h35e1dc682fe3b1b7E+0xe2>
  e2:	a810      	add	r0, sp, #64	; 0x40
  e4:	f7ff fffe 	bl	0 <_ZN4core3fmt8builders11DebugStruct6finish17h9090cd1e84004b71E>
  e8:	9002      	str	r0, [sp, #8]
  ea:	e7ff      	b.n	ec <_ZN65_$LT$mylib..tinycbor..CborEncoder$u20$as$u20$core..fmt..Debug$GT$3fmt17h35e1dc682fe3b1b7E+0xec>
  ec:	9802      	ldr	r0, [sp, #8]
  ee:	f000 0001 	and.w	r0, r0, #1
  f2:	b016      	add	sp, #88	; 0x58
  f4:	bd80      	pop	{r7, pc}

Disassembly of section .text._ZN73_$LT$mylib..tinycbor..cbor_decoder_reader$u20$as$u20$core..fmt..Debug$GT$3fmt17h9f3020895227ed5cE:

00000000 <_ZN73_$LT$mylib..tinycbor..cbor_decoder_reader$u20$as$u20$core..fmt..Debug$GT$3fmt17h9f3020895227ed5cE>:
_ZN73_$LT$mylib..tinycbor..cbor_decoder_reader$u20$as$u20$core..fmt..Debug$GT$3fmt17h9f3020895227ed5cE():
/Users/Luppy/mynewt/stm32bluepill-mynewt-sensor/src/tinycbor.rs:405
        offset: ::cty::c_int,
        len: usize,
    ) -> usize,
>;
#[repr(C)]
#[derive(Debug, Copy, Clone)]
   0:	b580      	push	{r7, lr}
   2:	b09e      	sub	sp, #120	; 0x78
   4:	460a      	mov	r2, r1
   6:	4603      	mov	r3, r0
   8:	900c      	str	r0, [sp, #48]	; 0x30
   a:	910d      	str	r1, [sp, #52]	; 0x34
/Users/Luppy/mynewt/stm32bluepill-mynewt-sensor/src/tinycbor.rs:407
pub struct cbor_decoder_reader {
    pub get8: cbor_reader_get8,
   c:	980c      	ldr	r0, [sp, #48]	; 0x30
   e:	900e      	str	r0, [sp, #56]	; 0x38
/Users/Luppy/mynewt/stm32bluepill-mynewt-sensor/src/tinycbor.rs:408
    pub get16: cbor_reader_get16,
  10:	980c      	ldr	r0, [sp, #48]	; 0x30
  12:	3004      	adds	r0, #4
  14:	900f      	str	r0, [sp, #60]	; 0x3c
/Users/Luppy/mynewt/stm32bluepill-mynewt-sensor/src/tinycbor.rs:409
    pub get32: cbor_reader_get32,
  16:	980c      	ldr	r0, [sp, #48]	; 0x30
  18:	3008      	adds	r0, #8
  1a:	9010      	str	r0, [sp, #64]	; 0x40
/Users/Luppy/mynewt/stm32bluepill-mynewt-sensor/src/tinycbor.rs:410
    pub get64: cbor_reader_get64,
  1c:	980c      	ldr	r0, [sp, #48]	; 0x30
  1e:	300c      	adds	r0, #12
  20:	9011      	str	r0, [sp, #68]	; 0x44
/Users/Luppy/mynewt/stm32bluepill-mynewt-sensor/src/tinycbor.rs:411
    pub cmp: cbor_memcmp,
  22:	980c      	ldr	r0, [sp, #48]	; 0x30
  24:	3010      	adds	r0, #16
  26:	9012      	str	r0, [sp, #72]	; 0x48
/Users/Luppy/mynewt/stm32bluepill-mynewt-sensor/src/tinycbor.rs:412
    pub cpy: cbor_memcpy,
  28:	980c      	ldr	r0, [sp, #48]	; 0x30
  2a:	3014      	adds	r0, #20
  2c:	9013      	str	r0, [sp, #76]	; 0x4c
/Users/Luppy/mynewt/stm32bluepill-mynewt-sensor/src/tinycbor.rs:413
    pub message_size: usize,
  2e:	980c      	ldr	r0, [sp, #48]	; 0x30
  30:	3018      	adds	r0, #24
  32:	9014      	str	r0, [sp, #80]	; 0x50
/Users/Luppy/mynewt/stm32bluepill-mynewt-sensor/src/tinycbor.rs:405
#[derive(Debug, Copy, Clone)]
  34:	990d      	ldr	r1, [sp, #52]	; 0x34
  36:	f240 0000 	movw	r0, #0
  3a:	f2c0 0000 	movt	r0, #0
  3e:	f10d 0c54 	add.w	ip, sp, #84	; 0x54
  42:	f04f 0e13 	mov.w	lr, #19
  46:	900b      	str	r0, [sp, #44]	; 0x2c
  48:	4660      	mov	r0, ip
  4a:	f8dd c02c 	ldr.w	ip, [sp, #44]	; 0x2c
  4e:	920a      	str	r2, [sp, #40]	; 0x28
  50:	4662      	mov	r2, ip
  52:	9309      	str	r3, [sp, #36]	; 0x24
  54:	4673      	mov	r3, lr
  56:	f7ff fffe 	bl	0 <_ZN4core3fmt9Formatter12debug_struct17h0a14031b095ee1baE>
  5a:	e7ff      	b.n	5c <_ZN73_$LT$mylib..tinycbor..cbor_decoder_reader$u20$as$u20$core..fmt..Debug$GT$3fmt17h9f3020895227ed5cE+0x5c>
/Users/Luppy/mynewt/stm32bluepill-mynewt-sensor/src/tinycbor.rs:407
    pub get8: cbor_reader_get8,
  5c:	980e      	ldr	r0, [sp, #56]	; 0x38
  5e:	9017      	str	r0, [sp, #92]	; 0x5c
/Users/Luppy/mynewt/stm32bluepill-mynewt-sensor/src/tinycbor.rs:405
#[derive(Debug, Copy, Clone)]
  60:	f240 0000 	movw	r0, #0
  64:	f2c0 0000 	movt	r0, #0
  68:	4669      	mov	r1, sp
  6a:	6008      	str	r0, [r1, #0]
  6c:	f240 0100 	movw	r1, #0
  70:	f2c0 0100 	movt	r1, #0
  74:	a815      	add	r0, sp, #84	; 0x54
  76:	2204      	movs	r2, #4
  78:	ab17      	add	r3, sp, #92	; 0x5c
  7a:	f7ff fffe 	bl	0 <_ZN4core3fmt8builders11DebugStruct5field17h80023aaf54882542E>
  7e:	9008      	str	r0, [sp, #32]
  80:	e7ff      	b.n	82 <_ZN73_$LT$mylib..tinycbor..cbor_decoder_reader$u20$as$u20$core..fmt..Debug$GT$3fmt17h9f3020895227ed5cE+0x82>
/Users/Luppy/mynewt/stm32bluepill-mynewt-sensor/src/tinycbor.rs:408
    pub get16: cbor_reader_get16,
  82:	980f      	ldr	r0, [sp, #60]	; 0x3c
  84:	9018      	str	r0, [sp, #96]	; 0x60
/Users/Luppy/mynewt/stm32bluepill-mynewt-sensor/src/tinycbor.rs:405
#[derive(Debug, Copy, Clone)]
  86:	f240 0000 	movw	r0, #0
  8a:	f2c0 0000 	movt	r0, #0
  8e:	4669      	mov	r1, sp
  90:	6008      	str	r0, [r1, #0]
  92:	f240 0100 	movw	r1, #0
  96:	f2c0 0100 	movt	r1, #0
  9a:	a815      	add	r0, sp, #84	; 0x54
  9c:	2205      	movs	r2, #5
  9e:	ab18      	add	r3, sp, #96	; 0x60
  a0:	f7ff fffe 	bl	0 <_ZN4core3fmt8builders11DebugStruct5field17h80023aaf54882542E>
  a4:	9007      	str	r0, [sp, #28]
  a6:	e7ff      	b.n	a8 <_ZN73_$LT$mylib..tinycbor..cbor_decoder_reader$u20$as$u20$core..fmt..Debug$GT$3fmt17h9f3020895227ed5cE+0xa8>
/Users/Luppy/mynewt/stm32bluepill-mynewt-sensor/src/tinycbor.rs:409
    pub get32: cbor_reader_get32,
  a8:	9810      	ldr	r0, [sp, #64]	; 0x40
  aa:	9019      	str	r0, [sp, #100]	; 0x64
/Users/Luppy/mynewt/stm32bluepill-mynewt-sensor/src/tinycbor.rs:405
#[derive(Debug, Copy, Clone)]
  ac:	f240 0000 	movw	r0, #0
  b0:	f2c0 0000 	movt	r0, #0
  b4:	4669      	mov	r1, sp
  b6:	6008      	str	r0, [r1, #0]
  b8:	f240 0100 	movw	r1, #0
  bc:	f2c0 0100 	movt	r1, #0
  c0:	a815      	add	r0, sp, #84	; 0x54
  c2:	2205      	movs	r2, #5
  c4:	ab19      	add	r3, sp, #100	; 0x64
  c6:	f7ff fffe 	bl	0 <_ZN4core3fmt8builders11DebugStruct5field17h80023aaf54882542E>
  ca:	9006      	str	r0, [sp, #24]
  cc:	e7ff      	b.n	ce <_ZN73_$LT$mylib..tinycbor..cbor_decoder_reader$u20$as$u20$core..fmt..Debug$GT$3fmt17h9f3020895227ed5cE+0xce>
/Users/Luppy/mynewt/stm32bluepill-mynewt-sensor/src/tinycbor.rs:410
    pub get64: cbor_reader_get64,
  ce:	9811      	ldr	r0, [sp, #68]	; 0x44
  d0:	901a      	str	r0, [sp, #104]	; 0x68
/Users/Luppy/mynewt/stm32bluepill-mynewt-sensor/src/tinycbor.rs:405
#[derive(Debug, Copy, Clone)]
  d2:	f240 0000 	movw	r0, #0
  d6:	f2c0 0000 	movt	r0, #0
  da:	4669      	mov	r1, sp
  dc:	6008      	str	r0, [r1, #0]
  de:	f240 0100 	movw	r1, #0
  e2:	f2c0 0100 	movt	r1, #0
  e6:	a815      	add	r0, sp, #84	; 0x54
  e8:	2205      	movs	r2, #5
  ea:	ab1a      	add	r3, sp, #104	; 0x68
  ec:	f7ff fffe 	bl	0 <_ZN4core3fmt8builders11DebugStruct5field17h80023aaf54882542E>
  f0:	9005      	str	r0, [sp, #20]
  f2:	e7ff      	b.n	f4 <_ZN73_$LT$mylib..tinycbor..cbor_decoder_reader$u20$as$u20$core..fmt..Debug$GT$3fmt17h9f3020895227ed5cE+0xf4>
/Users/Luppy/mynewt/stm32bluepill-mynewt-sensor/src/tinycbor.rs:411
    pub cmp: cbor_memcmp,
  f4:	9812      	ldr	r0, [sp, #72]	; 0x48
  f6:	901b      	str	r0, [sp, #108]	; 0x6c
/Users/Luppy/mynewt/stm32bluepill-mynewt-sensor/src/tinycbor.rs:405
#[derive(Debug, Copy, Clone)]
  f8:	f240 0000 	movw	r0, #0
  fc:	f2c0 0000 	movt	r0, #0
 100:	4669      	mov	r1, sp
 102:	6008      	str	r0, [r1, #0]
 104:	f240 0100 	movw	r1, #0
 108:	f2c0 0100 	movt	r1, #0
 10c:	a815      	add	r0, sp, #84	; 0x54
 10e:	2203      	movs	r2, #3
 110:	ab1b      	add	r3, sp, #108	; 0x6c
 112:	f7ff fffe 	bl	0 <_ZN4core3fmt8builders11DebugStruct5field17h80023aaf54882542E>
 116:	9004      	str	r0, [sp, #16]
 118:	e7ff      	b.n	11a <_ZN73_$LT$mylib..tinycbor..cbor_decoder_reader$u20$as$u20$core..fmt..Debug$GT$3fmt17h9f3020895227ed5cE+0x11a>
/Users/Luppy/mynewt/stm32bluepill-mynewt-sensor/src/tinycbor.rs:412
    pub cpy: cbor_memcpy,
 11a:	9813      	ldr	r0, [sp, #76]	; 0x4c
 11c:	901c      	str	r0, [sp, #112]	; 0x70
/Users/Luppy/mynewt/stm32bluepill-mynewt-sensor/src/tinycbor.rs:405
#[derive(Debug, Copy, Clone)]
 11e:	f240 0000 	movw	r0, #0
 122:	f2c0 0000 	movt	r0, #0
 126:	4669      	mov	r1, sp
 128:	6008      	str	r0, [r1, #0]
 12a:	f240 0100 	movw	r1, #0
 12e:	f2c0 0100 	movt	r1, #0
 132:	a815      	add	r0, sp, #84	; 0x54
 134:	2203      	movs	r2, #3
 136:	ab1c      	add	r3, sp, #112	; 0x70
 138:	f7ff fffe 	bl	0 <_ZN4core3fmt8builders11DebugStruct5field17h80023aaf54882542E>
 13c:	9003      	str	r0, [sp, #12]
 13e:	e7ff      	b.n	140 <_ZN73_$LT$mylib..tinycbor..cbor_decoder_reader$u20$as$u20$core..fmt..Debug$GT$3fmt17h9f3020895227ed5cE+0x140>
/Users/Luppy/mynewt/stm32bluepill-mynewt-sensor/src/tinycbor.rs:413
    pub message_size: usize,
 140:	9814      	ldr	r0, [sp, #80]	; 0x50
 142:	901d      	str	r0, [sp, #116]	; 0x74
/Users/Luppy/mynewt/stm32bluepill-mynewt-sensor/src/tinycbor.rs:405
#[derive(Debug, Copy, Clone)]
 144:	f240 0000 	movw	r0, #0
 148:	f2c0 0000 	movt	r0, #0
 14c:	4669      	mov	r1, sp
 14e:	6008      	str	r0, [r1, #0]
 150:	f240 0100 	movw	r1, #0
 154:	f2c0 0100 	movt	r1, #0
 158:	a815      	add	r0, sp, #84	; 0x54
 15a:	220c      	movs	r2, #12
 15c:	ab1d      	add	r3, sp, #116	; 0x74
 15e:	f7ff fffe 	bl	0 <_ZN4core3fmt8builders11DebugStruct5field17h80023aaf54882542E>
 162:	9002      	str	r0, [sp, #8]
 164:	e7ff      	b.n	166 <_ZN73_$LT$mylib..tinycbor..cbor_decoder_reader$u20$as$u20$core..fmt..Debug$GT$3fmt17h9f3020895227ed5cE+0x166>
 166:	a815      	add	r0, sp, #84	; 0x54
 168:	f7ff fffe 	bl	0 <_ZN4core3fmt8builders11DebugStruct6finish17h9090cd1e84004b71E>
 16c:	9001      	str	r0, [sp, #4]
 16e:	e7ff      	b.n	170 <_ZN73_$LT$mylib..tinycbor..cbor_decoder_reader$u20$as$u20$core..fmt..Debug$GT$3fmt17h9f3020895227ed5cE+0x170>
 170:	9801      	ldr	r0, [sp, #4]
 172:	f000 0001 	and.w	r0, r0, #1
 176:	b01e      	add	sp, #120	; 0x78
 178:	bd80      	pop	{r7, pc}

Disassembly of section .text._ZN64_$LT$mylib..tinycbor..CborParser$u20$as$u20$core..fmt..Debug$GT$3fmt17h4217f02942d5fe32E:

00000000 <_ZN64_$LT$mylib..tinycbor..CborParser$u20$as$u20$core..fmt..Debug$GT$3fmt17h4217f02942d5fe32E>:
_ZN64_$LT$mylib..tinycbor..CborParser$u20$as$u20$core..fmt..Debug$GT$3fmt17h4217f02942d5fe32E():
/Users/Luppy/mynewt/stm32bluepill-mynewt-sensor/src/tinycbor.rs:501
            stringify!(message_size)
        )
    );
}
#[repr(C)]
#[derive(Debug, Copy, Clone)]
   0:	b580      	push	{r7, lr}
   2:	b092      	sub	sp, #72	; 0x48
   4:	460a      	mov	r2, r1
   6:	4603      	mov	r3, r0
   8:	9008      	str	r0, [sp, #32]
   a:	9109      	str	r1, [sp, #36]	; 0x24
/Users/Luppy/mynewt/stm32bluepill-mynewt-sensor/src/tinycbor.rs:503
pub struct CborParser {
    pub d: *mut cbor_decoder_reader,
   c:	9808      	ldr	r0, [sp, #32]
   e:	900a      	str	r0, [sp, #40]	; 0x28
/Users/Luppy/mynewt/stm32bluepill-mynewt-sensor/src/tinycbor.rs:504
    pub end: ::cty::c_int,
  10:	9808      	ldr	r0, [sp, #32]
  12:	3004      	adds	r0, #4
  14:	900b      	str	r0, [sp, #44]	; 0x2c
/Users/Luppy/mynewt/stm32bluepill-mynewt-sensor/src/tinycbor.rs:505
    pub flags: ::cty::c_int,
  16:	9808      	ldr	r0, [sp, #32]
  18:	3008      	adds	r0, #8
  1a:	900c      	str	r0, [sp, #48]	; 0x30
/Users/Luppy/mynewt/stm32bluepill-mynewt-sensor/src/tinycbor.rs:501
#[derive(Debug, Copy, Clone)]
  1c:	9909      	ldr	r1, [sp, #36]	; 0x24
  1e:	f240 0000 	movw	r0, #0
  22:	f2c0 0000 	movt	r0, #0
  26:	f10d 0c34 	add.w	ip, sp, #52	; 0x34
  2a:	f04f 0e0a 	mov.w	lr, #10
  2e:	9007      	str	r0, [sp, #28]
  30:	4660      	mov	r0, ip
  32:	f8dd c01c 	ldr.w	ip, [sp, #28]
  36:	9206      	str	r2, [sp, #24]
  38:	4662      	mov	r2, ip
  3a:	9305      	str	r3, [sp, #20]
  3c:	4673      	mov	r3, lr
  3e:	f7ff fffe 	bl	0 <_ZN4core3fmt9Formatter12debug_struct17h0a14031b095ee1baE>
  42:	e7ff      	b.n	44 <_ZN64_$LT$mylib..tinycbor..CborParser$u20$as$u20$core..fmt..Debug$GT$3fmt17h4217f02942d5fe32E+0x44>
/Users/Luppy/mynewt/stm32bluepill-mynewt-sensor/src/tinycbor.rs:503
    pub d: *mut cbor_decoder_reader,
  44:	980a      	ldr	r0, [sp, #40]	; 0x28
  46:	900f      	str	r0, [sp, #60]	; 0x3c
/Users/Luppy/mynewt/stm32bluepill-mynewt-sensor/src/tinycbor.rs:501
#[derive(Debug, Copy, Clone)]
  48:	f240 0000 	movw	r0, #0
  4c:	f2c0 0000 	movt	r0, #0
  50:	4669      	mov	r1, sp
  52:	6008      	str	r0, [r1, #0]
  54:	f240 0100 	movw	r1, #0
  58:	f2c0 0100 	movt	r1, #0
  5c:	a80d      	add	r0, sp, #52	; 0x34
  5e:	2201      	movs	r2, #1
  60:	ab0f      	add	r3, sp, #60	; 0x3c
  62:	f7ff fffe 	bl	0 <_ZN4core3fmt8builders11DebugStruct5field17h80023aaf54882542E>
  66:	9004      	str	r0, [sp, #16]
  68:	e7ff      	b.n	6a <_ZN64_$LT$mylib..tinycbor..CborParser$u20$as$u20$core..fmt..Debug$GT$3fmt17h4217f02942d5fe32E+0x6a>
/Users/Luppy/mynewt/stm32bluepill-mynewt-sensor/src/tinycbor.rs:504
    pub end: ::cty::c_int,
  6a:	980b      	ldr	r0, [sp, #44]	; 0x2c
  6c:	9010      	str	r0, [sp, #64]	; 0x40
/Users/Luppy/mynewt/stm32bluepill-mynewt-sensor/src/tinycbor.rs:501
#[derive(Debug, Copy, Clone)]
  6e:	f240 0000 	movw	r0, #0
  72:	f2c0 0000 	movt	r0, #0
  76:	4669      	mov	r1, sp
  78:	6008      	str	r0, [r1, #0]
  7a:	f240 0100 	movw	r1, #0
  7e:	f2c0 0100 	movt	r1, #0
  82:	a80d      	add	r0, sp, #52	; 0x34
  84:	2203      	movs	r2, #3
  86:	ab10      	add	r3, sp, #64	; 0x40
  88:	f7ff fffe 	bl	0 <_ZN4core3fmt8builders11DebugStruct5field17h80023aaf54882542E>
  8c:	9003      	str	r0, [sp, #12]
  8e:	e7ff      	b.n	90 <_ZN64_$LT$mylib..tinycbor..CborParser$u20$as$u20$core..fmt..Debug$GT$3fmt17h4217f02942d5fe32E+0x90>
/Users/Luppy/mynewt/stm32bluepill-mynewt-sensor/src/tinycbor.rs:505
    pub flags: ::cty::c_int,
  90:	980c      	ldr	r0, [sp, #48]	; 0x30
  92:	9011      	str	r0, [sp, #68]	; 0x44
/Users/Luppy/mynewt/stm32bluepill-mynewt-sensor/src/tinycbor.rs:501
#[derive(Debug, Copy, Clone)]
  94:	f240 0000 	movw	r0, #0
  98:	f2c0 0000 	movt	r0, #0
  9c:	4669      	mov	r1, sp
  9e:	6008      	str	r0, [r1, #0]
  a0:	f240 0100 	movw	r1, #0
  a4:	f2c0 0100 	movt	r1, #0
  a8:	a80d      	add	r0, sp, #52	; 0x34
  aa:	2205      	movs	r2, #5
  ac:	ab11      	add	r3, sp, #68	; 0x44
  ae:	f7ff fffe 	bl	0 <_ZN4core3fmt8builders11DebugStruct5field17h80023aaf54882542E>
  b2:	9002      	str	r0, [sp, #8]
  b4:	e7ff      	b.n	b6 <_ZN64_$LT$mylib..tinycbor..CborParser$u20$as$u20$core..fmt..Debug$GT$3fmt17h4217f02942d5fe32E+0xb6>
  b6:	a80d      	add	r0, sp, #52	; 0x34
  b8:	f7ff fffe 	bl	0 <_ZN4core3fmt8builders11DebugStruct6finish17h9090cd1e84004b71E>
  bc:	9001      	str	r0, [sp, #4]
  be:	e7ff      	b.n	c0 <_ZN64_$LT$mylib..tinycbor..CborParser$u20$as$u20$core..fmt..Debug$GT$3fmt17h4217f02942d5fe32E+0xc0>
  c0:	9801      	ldr	r0, [sp, #4]
  c2:	f000 0001 	and.w	r0, r0, #1
  c6:	b012      	add	sp, #72	; 0x48
  c8:	bd80      	pop	{r7, pc}

Disassembly of section .text._ZN63_$LT$mylib..tinycbor..CborValue$u20$as$u20$core..fmt..Debug$GT$3fmt17hbe8a83b579bb51f4E:

00000000 <_ZN63_$LT$mylib..tinycbor..CborValue$u20$as$u20$core..fmt..Debug$GT$3fmt17hbe8a83b579bb51f4E>:
_ZN63_$LT$mylib..tinycbor..CborValue$u20$as$u20$core..fmt..Debug$GT$3fmt17hbe8a83b579bb51f4E():
/Users/Luppy/mynewt/stm32bluepill-mynewt-sensor/src/tinycbor.rs:551
            stringify!(flags)
        )
    );
}
#[repr(C)]
#[derive(Debug, Copy, Clone)]
   0:	b580      	push	{r7, lr}
   2:	b09c      	sub	sp, #112	; 0x70
   4:	460a      	mov	r2, r1
   6:	4603      	mov	r3, r0
   8:	900c      	str	r0, [sp, #48]	; 0x30
   a:	910d      	str	r1, [sp, #52]	; 0x34
/Users/Luppy/mynewt/stm32bluepill-mynewt-sensor/src/tinycbor.rs:553
pub struct CborValue {
    pub parser: *const CborParser,
   c:	980c      	ldr	r0, [sp, #48]	; 0x30
   e:	900e      	str	r0, [sp, #56]	; 0x38
/Users/Luppy/mynewt/stm32bluepill-mynewt-sensor/src/tinycbor.rs:554
    pub offset: ::cty::c_int,
  10:	980c      	ldr	r0, [sp, #48]	; 0x30
  12:	3004      	adds	r0, #4
  14:	900f      	str	r0, [sp, #60]	; 0x3c
/Users/Luppy/mynewt/stm32bluepill-mynewt-sensor/src/tinycbor.rs:555
    pub remaining: u32,
  16:	980c      	ldr	r0, [sp, #48]	; 0x30
  18:	3008      	adds	r0, #8
  1a:	9010      	str	r0, [sp, #64]	; 0x40
/Users/Luppy/mynewt/stm32bluepill-mynewt-sensor/src/tinycbor.rs:556
    pub extra: u16,
  1c:	980c      	ldr	r0, [sp, #48]	; 0x30
  1e:	300c      	adds	r0, #12
  20:	9011      	str	r0, [sp, #68]	; 0x44
/Users/Luppy/mynewt/stm32bluepill-mynewt-sensor/src/tinycbor.rs:557
    pub type_: u8,
  22:	980c      	ldr	r0, [sp, #48]	; 0x30
  24:	300e      	adds	r0, #14
  26:	9012      	str	r0, [sp, #72]	; 0x48
/Users/Luppy/mynewt/stm32bluepill-mynewt-sensor/src/tinycbor.rs:558
    pub flags: u8,
  28:	980c      	ldr	r0, [sp, #48]	; 0x30
  2a:	300f      	adds	r0, #15
  2c:	9013      	str	r0, [sp, #76]	; 0x4c
/Users/Luppy/mynewt/stm32bluepill-mynewt-sensor/src/tinycbor.rs:551
#[derive(Debug, Copy, Clone)]
  2e:	990d      	ldr	r1, [sp, #52]	; 0x34
  30:	f240 0000 	movw	r0, #0
  34:	f2c0 0000 	movt	r0, #0
  38:	f10d 0c50 	add.w	ip, sp, #80	; 0x50
  3c:	f04f 0e09 	mov.w	lr, #9
  40:	900b      	str	r0, [sp, #44]	; 0x2c
  42:	4660      	mov	r0, ip
  44:	f8dd c02c 	ldr.w	ip, [sp, #44]	; 0x2c
  48:	920a      	str	r2, [sp, #40]	; 0x28
  4a:	4662      	mov	r2, ip
  4c:	9309      	str	r3, [sp, #36]	; 0x24
  4e:	4673      	mov	r3, lr
  50:	f7ff fffe 	bl	0 <_ZN4core3fmt9Formatter12debug_struct17h0a14031b095ee1baE>
  54:	e7ff      	b.n	56 <_ZN63_$LT$mylib..tinycbor..CborValue$u20$as$u20$core..fmt..Debug$GT$3fmt17hbe8a83b579bb51f4E+0x56>
/Users/Luppy/mynewt/stm32bluepill-mynewt-sensor/src/tinycbor.rs:553
    pub parser: *const CborParser,
  56:	980e      	ldr	r0, [sp, #56]	; 0x38
  58:	9016      	str	r0, [sp, #88]	; 0x58
/Users/Luppy/mynewt/stm32bluepill-mynewt-sensor/src/tinycbor.rs:551
#[derive(Debug, Copy, Clone)]
  5a:	f240 0000 	movw	r0, #0
  5e:	f2c0 0000 	movt	r0, #0
  62:	4669      	mov	r1, sp
  64:	6008      	str	r0, [r1, #0]
  66:	f240 0100 	movw	r1, #0
  6a:	f2c0 0100 	movt	r1, #0
  6e:	a814      	add	r0, sp, #80	; 0x50
  70:	2206      	movs	r2, #6
  72:	ab16      	add	r3, sp, #88	; 0x58
  74:	f7ff fffe 	bl	0 <_ZN4core3fmt8builders11DebugStruct5field17h80023aaf54882542E>
  78:	9008      	str	r0, [sp, #32]
  7a:	e7ff      	b.n	7c <_ZN63_$LT$mylib..tinycbor..CborValue$u20$as$u20$core..fmt..Debug$GT$3fmt17hbe8a83b579bb51f4E+0x7c>
/Users/Luppy/mynewt/stm32bluepill-mynewt-sensor/src/tinycbor.rs:554
    pub offset: ::cty::c_int,
  7c:	980f      	ldr	r0, [sp, #60]	; 0x3c
  7e:	9017      	str	r0, [sp, #92]	; 0x5c
/Users/Luppy/mynewt/stm32bluepill-mynewt-sensor/src/tinycbor.rs:551
#[derive(Debug, Copy, Clone)]
  80:	f240 0000 	movw	r0, #0
  84:	f2c0 0000 	movt	r0, #0
  88:	4669      	mov	r1, sp
  8a:	6008      	str	r0, [r1, #0]
  8c:	f240 0100 	movw	r1, #0
  90:	f2c0 0100 	movt	r1, #0
  94:	a814      	add	r0, sp, #80	; 0x50
  96:	2206      	movs	r2, #6
  98:	ab17      	add	r3, sp, #92	; 0x5c
  9a:	f7ff fffe 	bl	0 <_ZN4core3fmt8builders11DebugStruct5field17h80023aaf54882542E>
  9e:	9007      	str	r0, [sp, #28]
  a0:	e7ff      	b.n	a2 <_ZN63_$LT$mylib..tinycbor..CborValue$u20$as$u20$core..fmt..Debug$GT$3fmt17hbe8a83b579bb51f4E+0xa2>
/Users/Luppy/mynewt/stm32bluepill-mynewt-sensor/src/tinycbor.rs:555
    pub remaining: u32,
  a2:	9810      	ldr	r0, [sp, #64]	; 0x40
  a4:	9018      	str	r0, [sp, #96]	; 0x60
/Users/Luppy/mynewt/stm32bluepill-mynewt-sensor/src/tinycbor.rs:551
#[derive(Debug, Copy, Clone)]
  a6:	f240 0000 	movw	r0, #0
  aa:	f2c0 0000 	movt	r0, #0
  ae:	4669      	mov	r1, sp
  b0:	6008      	str	r0, [r1, #0]
  b2:	f240 0100 	movw	r1, #0
  b6:	f2c0 0100 	movt	r1, #0
  ba:	a814      	add	r0, sp, #80	; 0x50
  bc:	2209      	movs	r2, #9
  be:	ab18      	add	r3, sp, #96	; 0x60
  c0:	f7ff fffe 	bl	0 <_ZN4core3fmt8builders11DebugStruct5field17h80023aaf54882542E>
  c4:	9006      	str	r0, [sp, #24]
  c6:	e7ff      	b.n	c8 <_ZN63_$LT$mylib..tinycbor..CborValue$u20$as$u20$core..fmt..Debug$GT$3fmt17hbe8a83b579bb51f4E+0xc8>
/Users/Luppy/mynewt/stm32bluepill-mynewt-sensor/src/tinycbor.rs:556
    pub extra: u16,
  c8:	9811      	ldr	r0, [sp, #68]	; 0x44
  ca:	9019      	str	r0, [sp, #100]	; 0x64
/Users/Luppy/mynewt/stm32bluepill-mynewt-sensor/src/tinycbor.rs:551
#[derive(Debug, Copy, Clone)]
  cc:	f240 0000 	movw	r0, #0
  d0:	f2c0 0000 	movt	r0, #0
  d4:	4669      	mov	r1, sp
  d6:	6008      	str	r0, [r1, #0]
  d8:	f240 0100 	movw	r1, #0
  dc:	f2c0 0100 	movt	r1, #0
  e0:	a814      	add	r0, sp, #80	; 0x50
  e2:	2205      	movs	r2, #5
  e4:	ab19      	add	r3, sp, #100	; 0x64
  e6:	f7ff fffe 	bl	0 <_ZN4core3fmt8builders11DebugStruct5field17h80023aaf54882542E>
  ea:	9005      	str	r0, [sp, #20]
  ec:	e7ff      	b.n	ee <_ZN63_$LT$mylib..tinycbor..CborValue$u20$as$u20$core..fmt..Debug$GT$3fmt17hbe8a83b579bb51f4E+0xee>
/Users/Luppy/mynewt/stm32bluepill-mynewt-sensor/src/tinycbor.rs:557
    pub type_: u8,
  ee:	9812      	ldr	r0, [sp, #72]	; 0x48
  f0:	901a      	str	r0, [sp, #104]	; 0x68
/Users/Luppy/mynewt/stm32bluepill-mynewt-sensor/src/tinycbor.rs:551
#[derive(Debug, Copy, Clone)]
  f2:	f240 0000 	movw	r0, #0
  f6:	f2c0 0000 	movt	r0, #0
  fa:	4669      	mov	r1, sp
  fc:	6008      	str	r0, [r1, #0]
  fe:	f240 0100 	movw	r1, #0
 102:	f2c0 0100 	movt	r1, #0
 106:	a814      	add	r0, sp, #80	; 0x50
 108:	2205      	movs	r2, #5
 10a:	ab1a      	add	r3, sp, #104	; 0x68
 10c:	f7ff fffe 	bl	0 <_ZN4core3fmt8builders11DebugStruct5field17h80023aaf54882542E>
 110:	9004      	str	r0, [sp, #16]
 112:	e7ff      	b.n	114 <_ZN63_$LT$mylib..tinycbor..CborValue$u20$as$u20$core..fmt..Debug$GT$3fmt17hbe8a83b579bb51f4E+0x114>
/Users/Luppy/mynewt/stm32bluepill-mynewt-sensor/src/tinycbor.rs:558
    pub flags: u8,
 114:	9813      	ldr	r0, [sp, #76]	; 0x4c
 116:	901b      	str	r0, [sp, #108]	; 0x6c
/Users/Luppy/mynewt/stm32bluepill-mynewt-sensor/src/tinycbor.rs:551
#[derive(Debug, Copy, Clone)]
 118:	f240 0000 	movw	r0, #0
 11c:	f2c0 0000 	movt	r0, #0
 120:	4669      	mov	r1, sp
 122:	6008      	str	r0, [r1, #0]
 124:	f240 0100 	movw	r1, #0
 128:	f2c0 0100 	movt	r1, #0
 12c:	a814      	add	r0, sp, #80	; 0x50
 12e:	2205      	movs	r2, #5
 130:	ab1b      	add	r3, sp, #108	; 0x6c
 132:	f7ff fffe 	bl	0 <_ZN4core3fmt8builders11DebugStruct5field17h80023aaf54882542E>
 136:	9003      	str	r0, [sp, #12]
 138:	e7ff      	b.n	13a <_ZN63_$LT$mylib..tinycbor..CborValue$u20$as$u20$core..fmt..Debug$GT$3fmt17hbe8a83b579bb51f4E+0x13a>
 13a:	a814      	add	r0, sp, #80	; 0x50
 13c:	f7ff fffe 	bl	0 <_ZN4core3fmt8builders11DebugStruct6finish17h9090cd1e84004b71E>
 140:	9002      	str	r0, [sp, #8]
 142:	e7ff      	b.n	144 <_ZN63_$LT$mylib..tinycbor..CborValue$u20$as$u20$core..fmt..Debug$GT$3fmt17hbe8a83b579bb51f4E+0x144>
 144:	9802      	ldr	r0, [sp, #8]
 146:	f000 0001 	and.w	r0, r0, #1
 14a:	b01c      	add	sp, #112	; 0x70
 14c:	bd80      	pop	{r7, pc}

mylib-b003fcb153d61cda.53xejyw88i0w8gr2.rcgu.o:     file format elf32-littlearm

SYMBOL TABLE:
00000000 l    df *ABS*	00000000 53xejyw88i0w8gr2
00000305 l       .debug_str	00000000 
000002b0 l       .debug_str	00000000 
000002b5 l       .debug_str	00000000 
000002b9 l       .debug_str	00000000 
000002be l       .debug_str	00000000 
000002c4 l       .debug_str	00000000 
000002c8 l       .debug_str	00000000 
000002d8 l       .debug_str	00000000 
000002e7 l       .debug_str	00000000 
000002f1 l       .debug_str	00000000 
0000030f l       .debug_str	00000000 
00000317 l       .debug_str	00000000 
00000321 l       .debug_str	00000000 
00000326 l       .debug_str	00000000 
0000032b l       .debug_str	00000000 
00000334 l       .debug_str	00000000 
0000033c l       .debug_str	00000000 
00000340 l       .debug_str	00000000 
0000034a l       .debug_str	00000000 
00000356 l       .debug_str	00000000 
00000376 l       .debug_str	00000000 
00000383 l       .debug_str	00000000 
0000038d l       .debug_str	00000000 
00000393 l       .debug_str	00000000 
00000398 l       .debug_str	00000000 
00000000 l       .debug_str	00000000 
00000041 l       .debug_str	00000000 
0000004c l       .debug_str	00000000 
0000007c l       .debug_str	00000000 
00000082 l       .debug_str	00000000 
0000008c l       .debug_str	00000000 
000000d7 l       .debug_str	00000000 
000000f9 l       .debug_str	00000000 
00000138 l       .debug_str	00000000 
0000014e l       .debug_str	00000000 
0000018d l       .debug_str	00000000 
000001a3 l       .debug_str	00000000 
000001df l       .debug_str	00000000 
000001f2 l       .debug_str	00000000 
000001f7 l       .debug_str	00000000 
000001fe l       .debug_str	00000000 
00000202 l       .debug_str	00000000 
00000205 l       .debug_str	00000000 
00000209 l       .debug_str	00000000 
0000020c l       .debug_str	00000000 
0000020e l       .debug_str	00000000 
00000212 l       .debug_str	00000000 
00000214 l       .debug_str	00000000 
00000218 l       .debug_str	00000000 
00000228 l       .debug_str	00000000 
00000262 l       .debug_str	00000000 
00000273 l       .debug_str	00000000 
00000284 l       .debug_str	00000000 
00000289 l       .debug_str	00000000 
0000028d l       .debug_str	00000000 
00000296 l       .debug_str	00000000 
00000299 l       .debug_str	00000000 
000002a3 l       .debug_str	00000000 
000002aa l       .debug_str	00000000 
00000000 l     O .rodata..Lanon.07b863c2fd91f4da1654f4fddcb3693c.1	00000001 .Lanon.07b863c2fd91f4da1654f4fddcb3693c.1
00000000 l     O .rodata.cst32	00000020 .Lanon.07b863c2fd91f4da1654f4fddcb3693c.2
00000000 l     O .rodata..Lanon.07b863c2fd91f4da1654f4fddcb3693c.22	00000013 .Lanon.07b863c2fd91f4da1654f4fddcb3693c.22
00000000 l     O .rodata..Lanon.07b863c2fd91f4da1654f4fddcb3693c.23	00000011 .Lanon.07b863c2fd91f4da1654f4fddcb3693c.23
00000000 l     O .rodata..Lanon.07b863c2fd91f4da1654f4fddcb3693c.3	0000000a .Lanon.07b863c2fd91f4da1654f4fddcb3693c.3
00000000 l     O .rodata.cst4	00000004 .Lanon.07b863c2fd91f4da1654f4fddcb3693c.5
00000000 l     F .text._ZN5mylib9send_coap21send_sensor_data_cbor17h7538565b17104e08E	000000b4 _ZN5mylib9send_coap21send_sensor_data_cbor17h7538565b17104e08E
00000000 l     F .text._ZN5mylib9send_coap21send_sensor_data_json17hd7d2d3bda2c06290E	0000003a _ZN5mylib9send_coap21send_sensor_data_json17hd7d2d3bda2c06290E
00000000 l     F .text._ZN5mylib9send_coap33send_sensor_data_without_encoding17hd19fbca4f3b5daffE	0000003a _ZN5mylib9send_coap33send_sensor_data_without_encoding17hd19fbca4f3b5daffE
00000000 l    d  .text._ZN5mylib9send_coap33send_sensor_data_without_encoding17hd19fbca4f3b5daffE	00000000 .text._ZN5mylib9send_coap33send_sensor_data_without_encoding17hd19fbca4f3b5daffE
00000000 l    d  .text._ZN5mylib9send_coap21send_sensor_data_json17hd7d2d3bda2c06290E	00000000 .text._ZN5mylib9send_coap21send_sensor_data_json17hd7d2d3bda2c06290E
00000000 l    d  .text._ZN5mylib9send_coap21send_sensor_data_cbor17h7538565b17104e08E	00000000 .text._ZN5mylib9send_coap21send_sensor_data_cbor17h7538565b17104e08E
00000000 l    d  .text._ZN5mylib9send_coap18start_network_task17hd61dace35b0a381aE	00000000 .text._ZN5mylib9send_coap18start_network_task17hd61dace35b0a381aE
00000000 l    d  .text._ZN5mylib9send_coap16send_sensor_data17hd2e470cb3f766db4E	00000000 .text._ZN5mylib9send_coap16send_sensor_data17hd2e470cb3f766db4E
00000000 l    d  .debug_abbrev	00000000 .debug_abbrev
00000000 l    d  .debug_info	00000000 .debug_info
00000000 l    d  .debug_ranges	00000000 .debug_ranges
00000000 l    d  .debug_frame	00000000 .debug_frame
00000000 l    d  .debug_line	00000000 .debug_line
00000000         *UND*	00000000 .hidden _ZN4core3str21_$LT$impl$u20$str$GT$3len17h30fb15763e3d167dE
00000000         *UND*	00000000 .hidden _ZN4core3str21_$LT$impl$u20$str$GT$6as_ptr17hd8ab2824414c1d90E
00000000         *UND*	00000000 .hidden _ZN5mylib4base13console_print17h6caebb40d9fb0292E
00000000 g     F .text._ZN5mylib9send_coap16send_sensor_data17hd2e470cb3f766db4E	00000030 .hidden _ZN5mylib9send_coap16send_sensor_data17hd2e470cb3f766db4E
00000000 g     F .text._ZN5mylib9send_coap18start_network_task17hd61dace35b0a381aE	00000032 .hidden _ZN5mylib9send_coap18start_network_task17hd61dace35b0a381aE
00000000         *UND*	00000000 cbor_encode_int
00000000         *UND*	00000000 cbor_encode_text_string
00000000         *UND*	00000000 cbor_encoder_close_container
00000000         *UND*	00000000 cbor_encoder_create_map
00000000         *UND*	00000000 g_encoder
00000000         *UND*	00000000 root_map



Disassembly of section .text._ZN5mylib9send_coap33send_sensor_data_without_encoding17hd19fbca4f3b5daffE:

00000000 <_ZN5mylib9send_coap33send_sensor_data_without_encoding17hd19fbca4f3b5daffE>:
_ZN5mylib9send_coap33send_sensor_data_without_encoding17hd19fbca4f3b5daffE():
/Users/Luppy/mynewt/stm32bluepill-mynewt-sensor/src/send_coap.rs:6
use cstr_core::CStr;     //  Import string utilities from cstr_core library: https://crates.io/crates/cstr_core
use crate::base::*;      //  Import base.rs for common declarations
use crate::tinycbor::*;  //  Import tinycbor.rs for TinyCBOR C API
//  use crate::sensor::*;    //  Import sensor.rs for sensor declarations

fn send_sensor_data_without_encoding() {
   0:	b088      	sub	sp, #32
   2:	f640 3036 	movw	r0, #2870	; 0xb36
/Users/Luppy/mynewt/stm32bluepill-mynewt-sensor/src/send_coap.rs:14
  trace_macros!(false);  //  Stop tracing macros

  //  Sensor `t` has int value 2870.
  let int_sensor_value = SensorValueNew {
    key: "t",
    val: SensorValueType::Uint(2870)
   6:	9005      	str	r0, [sp, #20]
   8:	2000      	movs	r0, #0
   a:	9004      	str	r0, [sp, #16]
/Users/Luppy/mynewt/stm32bluepill-mynewt-sensor/src/send_coap.rs:12
  let int_sensor_value = SensorValueNew {
   c:	f240 0000 	movw	r0, #0
  10:	f2c0 0000 	movt	r0, #0
  14:	9000      	str	r0, [sp, #0]
  16:	2001      	movs	r0, #1
  18:	9001      	str	r0, [sp, #4]
  1a:	9804      	ldr	r0, [sp, #16]
  1c:	9905      	ldr	r1, [sp, #20]
  1e:	9103      	str	r1, [sp, #12]
  20:	9002      	str	r0, [sp, #8]
/Users/Luppy/mynewt/stm32bluepill-mynewt-sensor/src/send_coap.rs:16
  };
  let device_id = b"0102030405060708090a0b0c0d0e0f10";
  22:	f240 0000 	movw	r0, #0
  26:	f2c0 0000 	movt	r0, #0
  2a:	9006      	str	r0, [sp, #24]
/Users/Luppy/mynewt/stm32bluepill-mynewt-sensor/src/send_coap.rs:17
  let node_id =   b"b3b4b5b6f1";
  2c:	f240 0000 	movw	r0, #0
  30:	f2c0 0000 	movt	r0, #0
  34:	9007      	str	r0, [sp, #28]
/Users/Luppy/mynewt/stm32bluepill-mynewt-sensor/src/send_coap.rs:29
    "node":   node_id,
    int_sensor_value,  //  Send `{t: 2870}`
  });
  trace_macros!(false);  //  Stop tracing macros
  */
}
  36:	b008      	add	sp, #32
  38:	4770      	bx	lr

Disassembly of section .text._ZN5mylib9send_coap21send_sensor_data_json17hd7d2d3bda2c06290E:

00000000 <_ZN5mylib9send_coap21send_sensor_data_json17hd7d2d3bda2c06290E>:
_ZN5mylib9send_coap21send_sensor_data_json17hd7d2d3bda2c06290E():
/Users/Luppy/mynewt/stm32bluepill-mynewt-sensor/src/send_coap.rs:42
// !  instead of computed temperature (floating-point) to make the encoding simpler and faster.
// !
// !  Note that we are using a patched version of apps/my_sensor_app/src/vsscanf.c that
// !  fixes ESP8266 response parsing bugs.  The patched file must be present in that location.
// !  This is the Rust version of `https://github.com/lupyuen/stm32bluepill-mynewt-sensor/blob/rust/apps/my_sensor_app/OLDsrc/send_coap.c`
fn send_sensor_data_json() {
   0:	b088      	sub	sp, #32
/Users/Luppy/mynewt/stm32bluepill-mynewt-sensor/src/send_coap.rs:43
  let device_id = b"0102030405060708090a0b0c0d0e0f10";
   2:	f240 0000 	movw	r0, #0
   6:	f2c0 0000 	movt	r0, #0
   a:	9000      	str	r0, [sp, #0]
/Users/Luppy/mynewt/stm32bluepill-mynewt-sensor/src/send_coap.rs:44
  let node_id  =  b"b3b4b5b6f1";
   c:	f240 0000 	movw	r0, #0
  10:	f2c0 0000 	movt	r0, #0
  14:	9001      	str	r0, [sp, #4]
  16:	f640 3036 	movw	r0, #2870	; 0xb36
/Users/Luppy/mynewt/stm32bluepill-mynewt-sensor/src/send_coap.rs:49

  //  Sensor `t` has int value 2870.
  let int_sensor_value = SensorValueNew {
    key: "t",
    val: SensorValueType::Uint(2870)
  1a:	9007      	str	r0, [sp, #28]
  1c:	2000      	movs	r0, #0
  1e:	9006      	str	r0, [sp, #24]
/Users/Luppy/mynewt/stm32bluepill-mynewt-sensor/src/send_coap.rs:47
  let int_sensor_value = SensorValueNew {
  20:	f240 0000 	movw	r0, #0
  24:	f2c0 0000 	movt	r0, #0
  28:	9002      	str	r0, [sp, #8]
  2a:	2001      	movs	r0, #1
  2c:	9003      	str	r0, [sp, #12]
  2e:	9806      	ldr	r0, [sp, #24]
  30:	9907      	ldr	r1, [sp, #28]
  32:	9105      	str	r1, [sp, #20]
  34:	9004      	str	r0, [sp, #16]
/Users/Luppy/mynewt/stm32bluepill-mynewt-sensor/src/send_coap.rs:61
    //  "node":   node_id,
    int_sensor_value,  //  Send `{t: 2870}`
  });
  trace_macros!(false);
  */
}
  36:	b008      	add	sp, #32
  38:	4770      	bx	lr

Disassembly of section .text._ZN5mylib9send_coap21send_sensor_data_cbor17h7538565b17104e08E:

00000000 <_ZN5mylib9send_coap21send_sensor_data_cbor17h7538565b17104e08E>:
_ZN5mylib9send_coap21send_sensor_data_cbor17h7538565b17104e08E():
/Users/Luppy/mynewt/stm32bluepill-mynewt-sensor/src/send_coap.rs:63

fn send_sensor_data_cbor() {
   0:	b580      	push	{r7, lr}
   2:	b090      	sub	sp, #64	; 0x40
   4:	f640 3036 	movw	r0, #2870	; 0xb36
/Users/Luppy/mynewt/stm32bluepill-mynewt-sensor/src/send_coap.rs:67
  //  Sensor `t` has int value 2870.
  let int_sensor_value = SensorValueNew {
    key: "t",
    val: SensorValueType::Uint(2870)
   8:	900b      	str	r0, [sp, #44]	; 0x2c
   a:	2000      	movs	r0, #0
   c:	900a      	str	r0, [sp, #40]	; 0x28
/Users/Luppy/mynewt/stm32bluepill-mynewt-sensor/src/send_coap.rs:65
  let int_sensor_value = SensorValueNew {
   e:	f240 0000 	movw	r0, #0
  12:	f2c0 0000 	movt	r0, #0
  16:	9006      	str	r0, [sp, #24]
  18:	2001      	movs	r0, #1
  1a:	9007      	str	r0, [sp, #28]
  1c:	980a      	ldr	r0, [sp, #40]	; 0x28
  1e:	990b      	ldr	r1, [sp, #44]	; 0x2c
  20:	9109      	str	r1, [sp, #36]	; 0x24
  22:	9008      	str	r0, [sp, #32]
/Users/Luppy/mynewt/stm32bluepill-mynewt-sensor/src/send_coap.rs:80
  cbor_encode_int(&mut root_map, 1234);
  */

  //  Compose the CoAP Payload in CBOR using the `coap` macro.
  trace_macros!(true);
  let payload = coap!(@cbor {
  24:	f240 0000 	movw	r0, #0
  28:	f2c0 0000 	movt	r0, #0
  2c:	900e      	str	r0, [sp, #56]	; 0x38
  2e:	2004      	movs	r0, #4
  30:	900f      	str	r0, [sp, #60]	; 0x3c
  32:	f240 0000 	movw	r0, #0
  36:	f2c0 0000 	movt	r0, #0
  3a:	f240 0100 	movw	r1, #0
  3e:	f2c0 0100 	movt	r1, #0
  42:	f04f 32ff 	mov.w	r2, #4294967295	; 0xffffffff
  46:	f7ff fffe 	bl	0 <cbor_encoder_create_map>
  4a:	9005      	str	r0, [sp, #20]
  4c:	e7ff      	b.n	4e <_ZN5mylib9send_coap21send_sensor_data_cbor17h7538565b17104e08E+0x4e>
  4e:	9806      	ldr	r0, [sp, #24]
  50:	9907      	ldr	r1, [sp, #28]
  52:	f7ff fffe 	bl	0 <_ZN4core3str21_$LT$impl$u20$str$GT$6as_ptr17hd8ab2824414c1d90E>
  56:	9004      	str	r0, [sp, #16]
  58:	e7ff      	b.n	5a <_ZN5mylib9send_coap21send_sensor_data_cbor17h7538565b17104e08E+0x5a>
  5a:	9806      	ldr	r0, [sp, #24]
  5c:	9907      	ldr	r1, [sp, #28]
  5e:	f7ff fffe 	bl	0 <_ZN4core3str21_$LT$impl$u20$str$GT$3len17h30fb15763e3d167dE>
  62:	9003      	str	r0, [sp, #12]
  64:	e7ff      	b.n	66 <_ZN5mylib9send_coap21send_sensor_data_cbor17h7538565b17104e08E+0x66>
  66:	f240 0000 	movw	r0, #0
  6a:	f2c0 0000 	movt	r0, #0
  6e:	9904      	ldr	r1, [sp, #16]
  70:	9a03      	ldr	r2, [sp, #12]
  72:	f7ff fffe 	bl	0 <cbor_encode_text_string>
  76:	9002      	str	r0, [sp, #8]
  78:	e7ff      	b.n	7a <_ZN5mylib9send_coap21send_sensor_data_cbor17h7538565b17104e08E+0x7a>
  7a:	f240 0000 	movw	r0, #0
  7e:	f2c0 0000 	movt	r0, #0
  82:	f240 42d2 	movw	r2, #1234	; 0x4d2
  86:	2300      	movs	r3, #0
  88:	f7ff fffe 	bl	0 <cbor_encode_int>
  8c:	9001      	str	r0, [sp, #4]
  8e:	e7ff      	b.n	90 <_ZN5mylib9send_coap21send_sensor_data_cbor17h7538565b17104e08E+0x90>
  90:	f240 0000 	movw	r0, #0
  94:	f2c0 0000 	movt	r0, #0
  98:	f240 0100 	movw	r1, #0
  9c:	f2c0 0100 	movt	r1, #0
  a0:	f7ff fffe 	bl	0 <cbor_encoder_close_container>
  a4:	9000      	str	r0, [sp, #0]
  a6:	e7ff      	b.n	a8 <_ZN5mylib9send_coap21send_sensor_data_cbor17h7538565b17104e08E+0xa8>
  a8:	980e      	ldr	r0, [sp, #56]	; 0x38
  aa:	990f      	ldr	r1, [sp, #60]	; 0x3c
  ac:	900c      	str	r0, [sp, #48]	; 0x30
  ae:	910d      	str	r1, [sp, #52]	; 0x34
/Users/Luppy/mynewt/stm32bluepill-mynewt-sensor/src/send_coap.rs:84
    int_sensor_value,    //  Send `{t: 2870}`
  });
  trace_macros!(false);
}
  b0:	b010      	add	sp, #64	; 0x40
  b2:	bd80      	pop	{r7, pc}

Disassembly of section .text._ZN5mylib9send_coap18start_network_task17hd61dace35b0a381aE:

00000000 <_ZN5mylib9send_coap18start_network_task17hd61dace35b0a381aE>:
_ZN5mylib9send_coap18start_network_task17hd61dace35b0a381aE():
/Users/Luppy/mynewt/stm32bluepill-mynewt-sensor/src/send_coap.rs:170

///  TODO: Start the Network Task in the background.  The Network Task prepares the network drivers
///  (ESP8266 and nRF24L01) for transmitting sensor data messages.  
///  Connecting the ESP8266 to the WiFi access point may be slow so we do this in the background.
///  Also perform WiFi Geolocation if it is enabled.  Return 0 if successful.
pub fn start_network_task() -> Result<(), i32>  {  //  Returns an error code upon error.
   0:	b580      	push	{r7, lr}
   2:	b084      	sub	sp, #16
/Users/Luppy/mynewt/stm32bluepill-mynewt-sensor/src/send_coap.rs:172
//  pub fn start_network_task() -> i32  {
  console_print(b"start_network_task\n");
   4:	f240 0000 	movw	r0, #0
   8:	f2c0 0000 	movt	r0, #0
   c:	2113      	movs	r1, #19
   e:	f7ff fffe 	bl	0 <_ZN5mylib4base13console_print17h6caebb40d9fb0292E>
  12:	e7ff      	b.n	2 <_ZN5mylib9send_coap18start_network_task17hd61dace35b0a381aE+0x2>
/Users/Luppy/mynewt/stm32bluepill-mynewt-sensor/src/send_coap.rs:173
  send_sensor_data_without_encoding();
  14:	f7ff fffe 	bl	0 <_ZN5mylib9send_coap18start_network_task17hd61dace35b0a381aE>
  18:	e7ff      	b.n	2 <_ZN5mylib9send_coap18start_network_task17hd61dace35b0a381aE+0x2>
/Users/Luppy/mynewt/stm32bluepill-mynewt-sensor/src/send_coap.rs:174
  send_sensor_data_json();
  1a:	f7ff fffe 	bl	0 <_ZN5mylib9send_coap18start_network_task17hd61dace35b0a381aE>
  1e:	e7ff      	b.n	2 <_ZN5mylib9send_coap18start_network_task17hd61dace35b0a381aE+0x2>
/Users/Luppy/mynewt/stm32bluepill-mynewt-sensor/src/send_coap.rs:175
  send_sensor_data_cbor();
  20:	f7ff fffe 	bl	0 <_ZN5mylib9send_coap18start_network_task17hd61dace35b0a381aE>
  24:	e7ff      	b.n	26 <_ZN5mylib9send_coap18start_network_task17hd61dace35b0a381aE+0x26>
  26:	2000      	movs	r0, #0
/Users/Luppy/mynewt/stm32bluepill-mynewt-sensor/src/send_coap.rs:176
  Ok(())
  28:	9001      	str	r0, [sp, #4]
/Users/Luppy/mynewt/stm32bluepill-mynewt-sensor/src/send_coap.rs:178
  //  0
}
  2a:	9801      	ldr	r0, [sp, #4]
  2c:	9902      	ldr	r1, [sp, #8]
  2e:	b004      	add	sp, #16
  30:	bd80      	pop	{r7, pc}

Disassembly of section .text._ZN5mylib9send_coap16send_sensor_data17hd2e470cb3f766db4E:

00000000 <_ZN5mylib9send_coap16send_sensor_data17hd2e470cb3f766db4E>:
_ZN5mylib9send_coap16send_sensor_data17hd2e470cb3f766db4E():
/Users/Luppy/mynewt/stm32bluepill-mynewt-sensor/src/send_coap.rs:189
///  For Collector Node: sensor_node is the Sensor Node Address of the Sensor Node that transmitted
///  the sensor data (like `b3b4b5b6f1`)
///  The message will be enqueued for transmission by the CoAP / OIC Background Task 
///  so this function will return without waiting for the message to be transmitted.  
///  Return 0 if successful, SYS_EAGAIN if network is not ready yet.
pub fn send_sensor_data(_val: *const SensorValue, _sensor_node: &'static CStr) -> i32 {
   0:	b580      	push	{r7, lr}
   2:	b086      	sub	sp, #24
   4:	4613      	mov	r3, r2
   6:	468c      	mov	ip, r1
   8:	4686      	mov	lr, r0
   a:	9003      	str	r0, [sp, #12]
   c:	9104      	str	r1, [sp, #16]
   e:	9205      	str	r2, [sp, #20]
/Users/Luppy/mynewt/stm32bluepill-mynewt-sensor/src/send_coap.rs:190
  console_print(b"send_sensor_data\n");
  10:	f240 0000 	movw	r0, #0
  14:	f2c0 0000 	movt	r0, #0
  18:	2111      	movs	r1, #17
  1a:	9302      	str	r3, [sp, #8]
  1c:	f8cd c004 	str.w	ip, [sp, #4]
  20:	f8cd e000 	str.w	lr, [sp]
  24:	f7ff fffe 	bl	0 <_ZN5mylib4base13console_print17h6caebb40d9fb0292E>
  28:	e7ff      	b.n	2a <_ZN5mylib9send_coap16send_sensor_data17hd2e470cb3f766db4E+0x2a>
  2a:	2000      	movs	r0, #0
/Users/Luppy/mynewt/stm32bluepill-mynewt-sensor/src/send_coap.rs:222

*/

  ;
  0
}
  2c:	b006      	add	sp, #24
  2e:	bd80      	pop	{r7, pc}

mylib-b003fcb153d61cda.cpeh3xk2nxhahx3.rcgu.o:     file format elf32-littlearm

SYMBOL TABLE:
00000000 l    df *ABS*	00000000 cpeh3xk2nxhahx3
00000df8 l       .debug_str	00000000 
00000e39 l       .debug_str	00000000 
00000e3d l       .debug_str	00000000 
00000e46 l       .debug_str	00000000 
00000e52 l       .debug_str	00000000 
00000e6b l       .debug_str	00000000 
00000e70 l       .debug_str	00000000 
00000e81 l       .debug_str	00000000 
00000e8b l       .debug_str	00000000 
00000ee9 l       .debug_str	00000000 
00000ef4 l       .debug_str	00000000 
00000f11 l       .debug_str	00000000 
00000f19 l       .debug_str	00000000 
00000f30 l       .debug_str	00000000 
00000f54 l       .debug_str	00000000 
00000f70 l       .debug_str	00000000 
00000f75 l       .debug_str	00000000 
00000f7e l       .debug_str	00000000 
00000f85 l       .debug_str	00000000 
00000f9e l       .debug_str	00000000 
00000fa8 l       .debug_str	00000000 
00000fc2 l       .debug_str	00000000 
00000fed l       .debug_str	00000000 
00001019 l       .debug_str	00000000 
00001044 l       .debug_str	00000000 
00001070 l       .debug_str	00000000 
00001094 l       .debug_str	00000000 
000010b9 l       .debug_str	00000000 
000010c3 l       .debug_str	00000000 
000010cd l       .debug_str	00000000 
000010d1 l       .debug_str	00000000 
000010fd l       .debug_str	00000000 
0000112a l       .debug_str	00000000 
00001156 l       .debug_str	00000000 
00000000 l       .debug_str	00000000 
00000041 l       .debug_str	00000000 
0000004c l       .debug_str	00000000 
0000007c l       .debug_str	00000000 
00000081 l       .debug_str	00000000 
00000088 l       .debug_str	00000000 
0000008b l       .debug_str	00000000 
0000008e l       .debug_str	00000000 
00000092 l       .debug_str	00000000 
00000099 l       .debug_str	00000000 
0000009d l       .debug_str	00000000 
000000a0 l       .debug_str	00000000 
000000a3 l       .debug_str	00000000 
000000a8 l       .debug_str	00000000 
000000ae l       .debug_str	00000000 
000000b5 l       .debug_str	00000000 
000000bd l       .debug_str	00000000 
000000c7 l       .debug_str	00000000 
000000d0 l       .debug_str	00000000 
000000d6 l       .debug_str	00000000 
000000df l       .debug_str	00000000 
000000e5 l       .debug_str	00000000 
000000ec l       .debug_str	00000000 
000000f0 l       .debug_str	00000000 
000000f5 l       .debug_str	00000000 
000000fb l       .debug_str	00000000 
000000ff l       .debug_str	00000000 
00000104 l       .debug_str	00000000 
0000011f l       .debug_str	00000000 
00000129 l       .debug_str	00000000 
00000175 l       .debug_str	00000000 
00000177 l       .debug_str	00000000 
0000017c l       .debug_str	00000000 
00000180 l       .debug_str	00000000 
000001d4 l       .debug_str	00000000 
000001d9 l       .debug_str	00000000 
000001e1 l       .debug_str	00000000 
0000022b l       .debug_str	00000000 
0000027d l       .debug_str	00000000 
0000028a l       .debug_str	00000000 
000002af l       .debug_str	00000000 
000002f7 l       .debug_str	00000000 
00000321 l       .debug_str	00000000 
00000326 l       .debug_str	00000000 
0000032a l       .debug_str	00000000 
00000375 l       .debug_str	00000000 
000003c8 l       .debug_str	00000000 
000003ce l       .debug_str	00000000 
000003d2 l       .debug_str	00000000 
0000041e l       .debug_str	00000000 
00000472 l       .debug_str	00000000 
00000478 l       .debug_str	00000000 
000004c4 l       .debug_str	00000000 
00000518 l       .debug_str	00000000 
0000051e l       .debug_str	00000000 
00000522 l       .debug_str	00000000 
0000056e l       .debug_str	00000000 
000005c2 l       .debug_str	00000000 
000005c6 l       .debug_str	00000000 
00000624 l       .debug_str	00000000 
0000068a l       .debug_str	00000000 
0000068e l       .debug_str	00000000 
0000069b l       .debug_str	00000000 
000006af l       .debug_str	00000000 
000006d9 l       .debug_str	00000000 
00000721 l       .debug_str	00000000 
00000750 l       .debug_str	00000000 
000007a7 l       .debug_str	00000000 
00000806 l       .debug_str	00000000 
00000814 l       .debug_str	00000000 
00000828 l       .debug_str	00000000 
00000852 l       .debug_str	00000000 
0000089a l       .debug_str	00000000 
000008c9 l       .debug_str	00000000 
000008cb l       .debug_str	00000000 
000008cf l       .debug_str	00000000 
000008d5 l       .debug_str	00000000 
000008e0 l       .debug_str	00000000 
00000903 l       .debug_str	00000000 
0000094b l       .debug_str	00000000 
00000973 l       .debug_str	00000000 
000009c3 l       .debug_str	00000000 
000009ed l       .debug_str	00000000 
00000a3d l       .debug_str	00000000 
00000a67 l       .debug_str	00000000 
00000ab9 l       .debug_str	00000000 
00000adc l       .debug_str	00000000 
00000b2e l       .debug_str	00000000 
00000b4f l       .debug_str	00000000 
00000ba1 l       .debug_str	00000000 
00000bf3 l       .debug_str	00000000 
00000c47 l       .debug_str	00000000 
00000c9b l       .debug_str	00000000 
00000cef l       .debug_str	00000000 
00000d43 l       .debug_str	00000000 
00000d48 l       .debug_str	00000000 
00000d6e l       .debug_str	00000000 
00000d95 l       .debug_str	00000000 
00000d97 l       .debug_str	00000000 
00000d9c l       .debug_str	00000000 
00000da1 l       .debug_str	00000000 
00000da7 l       .debug_str	00000000 
00000dad l       .debug_str	00000000 
00000dbb l       .debug_str	00000000 
00000dc5 l       .debug_str	00000000 
00000dc9 l       .debug_str	00000000 
00000dd1 l       .debug_str	00000000 
00000dd8 l       .debug_str	00000000 
00000dec l       .debug_str	00000000 
00000e03 l       .debug_str	00000000 
00000e0a l       .debug_str	00000000 
00000e10 l       .debug_str	00000000 
00000e14 l       .debug_str	00000000 
00000e1a l       .debug_str	00000000 
00000e20 l       .debug_str	00000000 
00000e23 l       .debug_str	00000000 
00000e32 l       .debug_str	00000000 
00000000 l    d  .text._ZN42_$LT$$RF$T$u20$as$u20$core..fmt..Debug$GT$3fmt17h3bcd2d1aa17a0478E	00000000 .text._ZN42_$LT$$RF$T$u20$as$u20$core..fmt..Debug$GT$3fmt17h3bcd2d1aa17a0478E
00000000 l    d  .text._ZN42_$LT$$RF$T$u20$as$u20$core..fmt..Debug$GT$3fmt17h504dd6b3682c5e2aE	00000000 .text._ZN42_$LT$$RF$T$u20$as$u20$core..fmt..Debug$GT$3fmt17h504dd6b3682c5e2aE
00000000 l    d  .text._ZN42_$LT$$RF$T$u20$as$u20$core..fmt..Debug$GT$3fmt17h6a899eec6d6b94e7E	00000000 .text._ZN42_$LT$$RF$T$u20$as$u20$core..fmt..Debug$GT$3fmt17h6a899eec6d6b94e7E
00000000 l    d  .text._ZN42_$LT$$RF$T$u20$as$u20$core..fmt..Debug$GT$3fmt17ha33a0814a6357a00E	00000000 .text._ZN42_$LT$$RF$T$u20$as$u20$core..fmt..Debug$GT$3fmt17ha33a0814a6357a00E
00000000 l    d  .text._ZN50_$LT$$BP$mut$u20$T$u20$as$u20$core..fmt..Debug$GT$3fmt17h791b70b052cad394E	00000000 .text._ZN50_$LT$$BP$mut$u20$T$u20$as$u20$core..fmt..Debug$GT$3fmt17h791b70b052cad394E
00000000 l    d  .text._ZN50_$LT$$BP$mut$u20$T$u20$as$u20$core..fmt..Debug$GT$3fmt17h922d543f228f2ee3E	00000000 .text._ZN50_$LT$$BP$mut$u20$T$u20$as$u20$core..fmt..Debug$GT$3fmt17h922d543f228f2ee3E
00000000 l    d  .text._ZN52_$LT$$BP$const$u20$T$u20$as$u20$core..fmt..Debug$GT$3fmt17h9d51444a1ea92a89E	00000000 .text._ZN52_$LT$$BP$const$u20$T$u20$as$u20$core..fmt..Debug$GT$3fmt17h9d51444a1ea92a89E
00000000 l    d  .text._ZN52_$LT$$BP$const$u20$T$u20$as$u20$core..fmt..Debug$GT$3fmt17had256ba1dbf5f8e6E	00000000 .text._ZN52_$LT$$BP$const$u20$T$u20$as$u20$core..fmt..Debug$GT$3fmt17had256ba1dbf5f8e6E
00000000 l    d  .text._ZN52_$LT$$BP$mut$u20$T$u20$as$u20$core..fmt..Pointer$GT$3fmt17h02f6df243e88c09cE	00000000 .text._ZN52_$LT$$BP$mut$u20$T$u20$as$u20$core..fmt..Pointer$GT$3fmt17h02f6df243e88c09cE
00000000 l    d  .text._ZN52_$LT$$BP$mut$u20$T$u20$as$u20$core..fmt..Pointer$GT$3fmt17h3d6c38af72f8cb8bE	00000000 .text._ZN52_$LT$$BP$mut$u20$T$u20$as$u20$core..fmt..Pointer$GT$3fmt17h3d6c38af72f8cb8bE
00000000 l    d  .text._ZN54_$LT$$BP$const$u20$T$u20$as$u20$core..fmt..Pointer$GT$3fmt17had99a5c54c24f21dE	00000000 .text._ZN54_$LT$$BP$const$u20$T$u20$as$u20$core..fmt..Pointer$GT$3fmt17had99a5c54c24f21dE
00000000 l    d  .text._ZN54_$LT$$BP$const$u20$T$u20$as$u20$core..fmt..Pointer$GT$3fmt17hb303c832caa37536E	00000000 .text._ZN54_$LT$$BP$const$u20$T$u20$as$u20$core..fmt..Pointer$GT$3fmt17hb303c832caa37536E
00000000 l    d  .text._ZN54_$LT$$BP$const$u20$T$u20$as$u20$core..fmt..Pointer$GT$3fmt17hbbe46cc1aa2deceaE	00000000 .text._ZN54_$LT$$BP$const$u20$T$u20$as$u20$core..fmt..Pointer$GT$3fmt17hbbe46cc1aa2deceaE
00000000 l    d  .text._ZN54_$LT$$BP$const$u20$T$u20$as$u20$core..fmt..Pointer$GT$3fmt17he28cc5b08303893bE	00000000 .text._ZN54_$LT$$BP$const$u20$T$u20$as$u20$core..fmt..Pointer$GT$3fmt17he28cc5b08303893bE
00000000 l    d  .debug_abbrev	00000000 .debug_abbrev
00000000 l    d  .debug_info	00000000 .debug_info
00000000 l    d  .debug_ranges	00000000 .debug_ranges
00000000 l    d  .debug_frame	00000000 .debug_frame
00000000 l    d  .debug_line	00000000 .debug_line
00000000 g     F .text._ZN42_$LT$$RF$T$u20$as$u20$core..fmt..Debug$GT$3fmt17h3bcd2d1aa17a0478E	00000028 _ZN42_$LT$$RF$T$u20$as$u20$core..fmt..Debug$GT$3fmt17h3bcd2d1aa17a0478E
00000000 g     F .text._ZN42_$LT$$RF$T$u20$as$u20$core..fmt..Debug$GT$3fmt17h504dd6b3682c5e2aE	00000028 _ZN42_$LT$$RF$T$u20$as$u20$core..fmt..Debug$GT$3fmt17h504dd6b3682c5e2aE
00000000 g     F .text._ZN42_$LT$$RF$T$u20$as$u20$core..fmt..Debug$GT$3fmt17h6a899eec6d6b94e7E	00000028 _ZN42_$LT$$RF$T$u20$as$u20$core..fmt..Debug$GT$3fmt17h6a899eec6d6b94e7E
00000000 g     F .text._ZN42_$LT$$RF$T$u20$as$u20$core..fmt..Debug$GT$3fmt17ha33a0814a6357a00E	00000028 _ZN42_$LT$$RF$T$u20$as$u20$core..fmt..Debug$GT$3fmt17ha33a0814a6357a00E
00000000         *UND*	00000000 _ZN4core3fmt3num55_$LT$impl$u20$core..fmt..LowerHex$u20$for$u20$usize$GT$3fmt17h562f60f4fbcc2e1dE
00000000         *UND*	00000000 _ZN4core3fmt9Formatter9alternate17hd09f58cee14df2eeE
00000000         *UND*	00000000 _ZN4core3mem7size_of17hd6e821d2e278c7d8E
00000000 g     F .text._ZN50_$LT$$BP$mut$u20$T$u20$as$u20$core..fmt..Debug$GT$3fmt17h791b70b052cad394E	00000026 _ZN50_$LT$$BP$mut$u20$T$u20$as$u20$core..fmt..Debug$GT$3fmt17h791b70b052cad394E
00000000 g     F .text._ZN50_$LT$$BP$mut$u20$T$u20$as$u20$core..fmt..Debug$GT$3fmt17h922d543f228f2ee3E	00000026 _ZN50_$LT$$BP$mut$u20$T$u20$as$u20$core..fmt..Debug$GT$3fmt17h922d543f228f2ee3E
00000000 g     F .text._ZN52_$LT$$BP$const$u20$T$u20$as$u20$core..fmt..Debug$GT$3fmt17h9d51444a1ea92a89E	00000026 _ZN52_$LT$$BP$const$u20$T$u20$as$u20$core..fmt..Debug$GT$3fmt17h9d51444a1ea92a89E
00000000 g     F .text._ZN52_$LT$$BP$const$u20$T$u20$as$u20$core..fmt..Debug$GT$3fmt17had256ba1dbf5f8e6E	00000026 _ZN52_$LT$$BP$const$u20$T$u20$as$u20$core..fmt..Debug$GT$3fmt17had256ba1dbf5f8e6E
00000000 g     F .text._ZN52_$LT$$BP$mut$u20$T$u20$as$u20$core..fmt..Pointer$GT$3fmt17h02f6df243e88c09cE	0000002c _ZN52_$LT$$BP$mut$u20$T$u20$as$u20$core..fmt..Pointer$GT$3fmt17h02f6df243e88c09cE
00000000 g     F .text._ZN52_$LT$$BP$mut$u20$T$u20$as$u20$core..fmt..Pointer$GT$3fmt17h3d6c38af72f8cb8bE	0000002c _ZN52_$LT$$BP$mut$u20$T$u20$as$u20$core..fmt..Pointer$GT$3fmt17h3d6c38af72f8cb8bE
00000000 g     F .text._ZN54_$LT$$BP$const$u20$T$u20$as$u20$core..fmt..Pointer$GT$3fmt17had99a5c54c24f21dE	000000a2 _ZN54_$LT$$BP$const$u20$T$u20$as$u20$core..fmt..Pointer$GT$3fmt17had99a5c54c24f21dE
00000000 g     F .text._ZN54_$LT$$BP$const$u20$T$u20$as$u20$core..fmt..Pointer$GT$3fmt17hb303c832caa37536E	000000a2 _ZN54_$LT$$BP$const$u20$T$u20$as$u20$core..fmt..Pointer$GT$3fmt17hb303c832caa37536E
00000000 g     F .text._ZN54_$LT$$BP$const$u20$T$u20$as$u20$core..fmt..Pointer$GT$3fmt17hbbe46cc1aa2deceaE	000000a2 _ZN54_$LT$$BP$const$u20$T$u20$as$u20$core..fmt..Pointer$GT$3fmt17hbbe46cc1aa2deceaE
00000000 g     F .text._ZN54_$LT$$BP$const$u20$T$u20$as$u20$core..fmt..Pointer$GT$3fmt17he28cc5b08303893bE	000000a2 _ZN54_$LT$$BP$const$u20$T$u20$as$u20$core..fmt..Pointer$GT$3fmt17he28cc5b08303893bE



Disassembly of section .text._ZN42_$LT$$RF$T$u20$as$u20$core..fmt..Debug$GT$3fmt17h3bcd2d1aa17a0478E:

00000000 <_ZN42_$LT$$RF$T$u20$as$u20$core..fmt..Debug$GT$3fmt17h3bcd2d1aa17a0478E>:
_ZN42_$LT$$RF$T$u20$as$u20$core..fmt..Debug$GT$3fmt17h3bcd2d1aa17a0478E():
/rustc/50a0defd5a93523067ef239936cc2e0755220904/src/libcore/fmt/mod.rs:1914
   0:	b580      	push	{r7, lr}
   2:	b086      	sub	sp, #24
   4:	460a      	mov	r2, r1
   6:	4603      	mov	r3, r0
   8:	9004      	str	r0, [sp, #16]
   a:	9105      	str	r1, [sp, #20]
   c:	9804      	ldr	r0, [sp, #16]
   e:	6800      	ldr	r0, [r0, #0]
  10:	9905      	ldr	r1, [sp, #20]
  12:	9203      	str	r2, [sp, #12]
  14:	9302      	str	r3, [sp, #8]
  16:	f7ff fffe 	bl	0 <_ZN42_$LT$$RF$T$u20$as$u20$core..fmt..Debug$GT$3fmt17h3bcd2d1aa17a0478E>
  1a:	9001      	str	r0, [sp, #4]
  1c:	e7ff      	b.n	1e <_ZN42_$LT$$RF$T$u20$as$u20$core..fmt..Debug$GT$3fmt17h3bcd2d1aa17a0478E+0x1e>
  1e:	9801      	ldr	r0, [sp, #4]
  20:	f000 0001 	and.w	r0, r0, #1
  24:	b006      	add	sp, #24
  26:	bd80      	pop	{r7, pc}

Disassembly of section .text._ZN42_$LT$$RF$T$u20$as$u20$core..fmt..Debug$GT$3fmt17h504dd6b3682c5e2aE:

00000000 <_ZN42_$LT$$RF$T$u20$as$u20$core..fmt..Debug$GT$3fmt17h504dd6b3682c5e2aE>:
_ZN42_$LT$$RF$T$u20$as$u20$core..fmt..Debug$GT$3fmt17h504dd6b3682c5e2aE():
/rustc/50a0defd5a93523067ef239936cc2e0755220904/src/libcore/fmt/mod.rs:1914
   0:	b580      	push	{r7, lr}
   2:	b086      	sub	sp, #24
   4:	460a      	mov	r2, r1
   6:	4603      	mov	r3, r0
   8:	9004      	str	r0, [sp, #16]
   a:	9105      	str	r1, [sp, #20]
   c:	9804      	ldr	r0, [sp, #16]
   e:	6800      	ldr	r0, [r0, #0]
  10:	9905      	ldr	r1, [sp, #20]
  12:	9203      	str	r2, [sp, #12]
  14:	9302      	str	r3, [sp, #8]
  16:	f7ff fffe 	bl	0 <_ZN42_$LT$$RF$T$u20$as$u20$core..fmt..Debug$GT$3fmt17h504dd6b3682c5e2aE>
  1a:	9001      	str	r0, [sp, #4]
  1c:	e7ff      	b.n	1e <_ZN42_$LT$$RF$T$u20$as$u20$core..fmt..Debug$GT$3fmt17h504dd6b3682c5e2aE+0x1e>
  1e:	9801      	ldr	r0, [sp, #4]
  20:	f000 0001 	and.w	r0, r0, #1
  24:	b006      	add	sp, #24
  26:	bd80      	pop	{r7, pc}

Disassembly of section .text._ZN42_$LT$$RF$T$u20$as$u20$core..fmt..Debug$GT$3fmt17h6a899eec6d6b94e7E:

00000000 <_ZN42_$LT$$RF$T$u20$as$u20$core..fmt..Debug$GT$3fmt17h6a899eec6d6b94e7E>:
_ZN42_$LT$$RF$T$u20$as$u20$core..fmt..Debug$GT$3fmt17h6a899eec6d6b94e7E():
/rustc/50a0defd5a93523067ef239936cc2e0755220904/src/libcore/fmt/mod.rs:1914
   0:	b580      	push	{r7, lr}
   2:	b086      	sub	sp, #24
   4:	460a      	mov	r2, r1
   6:	4603      	mov	r3, r0
   8:	9004      	str	r0, [sp, #16]
   a:	9105      	str	r1, [sp, #20]
   c:	9804      	ldr	r0, [sp, #16]
   e:	6800      	ldr	r0, [r0, #0]
  10:	9905      	ldr	r1, [sp, #20]
  12:	9203      	str	r2, [sp, #12]
  14:	9302      	str	r3, [sp, #8]
  16:	f7ff fffe 	bl	0 <_ZN42_$LT$$RF$T$u20$as$u20$core..fmt..Debug$GT$3fmt17h6a899eec6d6b94e7E>
  1a:	9001      	str	r0, [sp, #4]
  1c:	e7ff      	b.n	1e <_ZN42_$LT$$RF$T$u20$as$u20$core..fmt..Debug$GT$3fmt17h6a899eec6d6b94e7E+0x1e>
  1e:	9801      	ldr	r0, [sp, #4]
  20:	f000 0001 	and.w	r0, r0, #1
  24:	b006      	add	sp, #24
  26:	bd80      	pop	{r7, pc}

Disassembly of section .text._ZN42_$LT$$RF$T$u20$as$u20$core..fmt..Debug$GT$3fmt17ha33a0814a6357a00E:

00000000 <_ZN42_$LT$$RF$T$u20$as$u20$core..fmt..Debug$GT$3fmt17ha33a0814a6357a00E>:
_ZN42_$LT$$RF$T$u20$as$u20$core..fmt..Debug$GT$3fmt17ha33a0814a6357a00E():
/rustc/50a0defd5a93523067ef239936cc2e0755220904/src/libcore/fmt/mod.rs:1914
   0:	b580      	push	{r7, lr}
   2:	b086      	sub	sp, #24
   4:	460a      	mov	r2, r1
   6:	4603      	mov	r3, r0
   8:	9004      	str	r0, [sp, #16]
   a:	9105      	str	r1, [sp, #20]
   c:	9804      	ldr	r0, [sp, #16]
   e:	6800      	ldr	r0, [r0, #0]
  10:	9905      	ldr	r1, [sp, #20]
  12:	9203      	str	r2, [sp, #12]
  14:	9302      	str	r3, [sp, #8]
  16:	f7ff fffe 	bl	0 <_ZN42_$LT$$RF$T$u20$as$u20$core..fmt..Debug$GT$3fmt17ha33a0814a6357a00E>
  1a:	9001      	str	r0, [sp, #4]
  1c:	e7ff      	b.n	1e <_ZN42_$LT$$RF$T$u20$as$u20$core..fmt..Debug$GT$3fmt17ha33a0814a6357a00E+0x1e>
  1e:	9801      	ldr	r0, [sp, #4]
  20:	f000 0001 	and.w	r0, r0, #1
  24:	b006      	add	sp, #24
  26:	bd80      	pop	{r7, pc}

Disassembly of section .text._ZN50_$LT$$BP$mut$u20$T$u20$as$u20$core..fmt..Debug$GT$3fmt17h791b70b052cad394E:

00000000 <_ZN50_$LT$$BP$mut$u20$T$u20$as$u20$core..fmt..Debug$GT$3fmt17h791b70b052cad394E>:
_ZN50_$LT$$BP$mut$u20$T$u20$as$u20$core..fmt..Debug$GT$3fmt17h791b70b052cad394E():
/rustc/50a0defd5a93523067ef239936cc2e0755220904/src/libcore/fmt/mod.rs:2062
   0:	b580      	push	{r7, lr}
   2:	b086      	sub	sp, #24
   4:	460a      	mov	r2, r1
   6:	4603      	mov	r3, r0
   8:	9004      	str	r0, [sp, #16]
   a:	9105      	str	r1, [sp, #20]
   c:	9804      	ldr	r0, [sp, #16]
   e:	9905      	ldr	r1, [sp, #20]
  10:	9203      	str	r2, [sp, #12]
  12:	9302      	str	r3, [sp, #8]
  14:	f7ff fffe 	bl	0 <_ZN50_$LT$$BP$mut$u20$T$u20$as$u20$core..fmt..Debug$GT$3fmt17h791b70b052cad394E>
  18:	9001      	str	r0, [sp, #4]
  1a:	e7ff      	b.n	1c <_ZN50_$LT$$BP$mut$u20$T$u20$as$u20$core..fmt..Debug$GT$3fmt17h791b70b052cad394E+0x1c>
  1c:	9801      	ldr	r0, [sp, #4]
  1e:	f000 0001 	and.w	r0, r0, #1
  22:	b006      	add	sp, #24
  24:	bd80      	pop	{r7, pc}

Disassembly of section .text._ZN50_$LT$$BP$mut$u20$T$u20$as$u20$core..fmt..Debug$GT$3fmt17h922d543f228f2ee3E:

00000000 <_ZN50_$LT$$BP$mut$u20$T$u20$as$u20$core..fmt..Debug$GT$3fmt17h922d543f228f2ee3E>:
_ZN50_$LT$$BP$mut$u20$T$u20$as$u20$core..fmt..Debug$GT$3fmt17h922d543f228f2ee3E():
/rustc/50a0defd5a93523067ef239936cc2e0755220904/src/libcore/fmt/mod.rs:2062
   0:	b580      	push	{r7, lr}
   2:	b086      	sub	sp, #24
   4:	460a      	mov	r2, r1
   6:	4603      	mov	r3, r0
   8:	9004      	str	r0, [sp, #16]
   a:	9105      	str	r1, [sp, #20]
   c:	9804      	ldr	r0, [sp, #16]
   e:	9905      	ldr	r1, [sp, #20]
  10:	9203      	str	r2, [sp, #12]
  12:	9302      	str	r3, [sp, #8]
  14:	f7ff fffe 	bl	0 <_ZN50_$LT$$BP$mut$u20$T$u20$as$u20$core..fmt..Debug$GT$3fmt17h922d543f228f2ee3E>
  18:	9001      	str	r0, [sp, #4]
  1a:	e7ff      	b.n	1c <_ZN50_$LT$$BP$mut$u20$T$u20$as$u20$core..fmt..Debug$GT$3fmt17h922d543f228f2ee3E+0x1c>
  1c:	9801      	ldr	r0, [sp, #4]
  1e:	f000 0001 	and.w	r0, r0, #1
  22:	b006      	add	sp, #24
  24:	bd80      	pop	{r7, pc}

Disassembly of section .text._ZN52_$LT$$BP$const$u20$T$u20$as$u20$core..fmt..Debug$GT$3fmt17h9d51444a1ea92a89E:

00000000 <_ZN52_$LT$$BP$const$u20$T$u20$as$u20$core..fmt..Debug$GT$3fmt17h9d51444a1ea92a89E>:
_ZN52_$LT$$BP$const$u20$T$u20$as$u20$core..fmt..Debug$GT$3fmt17h9d51444a1ea92a89E():
/rustc/50a0defd5a93523067ef239936cc2e0755220904/src/libcore/fmt/mod.rs:2058
   0:	b580      	push	{r7, lr}
   2:	b086      	sub	sp, #24
   4:	460a      	mov	r2, r1
   6:	4603      	mov	r3, r0
   8:	9004      	str	r0, [sp, #16]
   a:	9105      	str	r1, [sp, #20]
   c:	9804      	ldr	r0, [sp, #16]
   e:	9905      	ldr	r1, [sp, #20]
  10:	9203      	str	r2, [sp, #12]
  12:	9302      	str	r3, [sp, #8]
  14:	f7ff fffe 	bl	0 <_ZN52_$LT$$BP$const$u20$T$u20$as$u20$core..fmt..Debug$GT$3fmt17h9d51444a1ea92a89E>
  18:	9001      	str	r0, [sp, #4]
  1a:	e7ff      	b.n	1c <_ZN52_$LT$$BP$const$u20$T$u20$as$u20$core..fmt..Debug$GT$3fmt17h9d51444a1ea92a89E+0x1c>
  1c:	9801      	ldr	r0, [sp, #4]
  1e:	f000 0001 	and.w	r0, r0, #1
  22:	b006      	add	sp, #24
  24:	bd80      	pop	{r7, pc}

Disassembly of section .text._ZN52_$LT$$BP$const$u20$T$u20$as$u20$core..fmt..Debug$GT$3fmt17had256ba1dbf5f8e6E:

00000000 <_ZN52_$LT$$BP$const$u20$T$u20$as$u20$core..fmt..Debug$GT$3fmt17had256ba1dbf5f8e6E>:
_ZN52_$LT$$BP$const$u20$T$u20$as$u20$core..fmt..Debug$GT$3fmt17had256ba1dbf5f8e6E():
/rustc/50a0defd5a93523067ef239936cc2e0755220904/src/libcore/fmt/mod.rs:2058
   0:	b580      	push	{r7, lr}
   2:	b086      	sub	sp, #24
   4:	460a      	mov	r2, r1
   6:	4603      	mov	r3, r0
   8:	9004      	str	r0, [sp, #16]
   a:	9105      	str	r1, [sp, #20]
   c:	9804      	ldr	r0, [sp, #16]
   e:	9905      	ldr	r1, [sp, #20]
  10:	9203      	str	r2, [sp, #12]
  12:	9302      	str	r3, [sp, #8]
  14:	f7ff fffe 	bl	0 <_ZN52_$LT$$BP$const$u20$T$u20$as$u20$core..fmt..Debug$GT$3fmt17had256ba1dbf5f8e6E>
  18:	9001      	str	r0, [sp, #4]
  1a:	e7ff      	b.n	1c <_ZN52_$LT$$BP$const$u20$T$u20$as$u20$core..fmt..Debug$GT$3fmt17had256ba1dbf5f8e6E+0x1c>
  1c:	9801      	ldr	r0, [sp, #4]
  1e:	f000 0001 	and.w	r0, r0, #1
  22:	b006      	add	sp, #24
  24:	bd80      	pop	{r7, pc}

Disassembly of section .text._ZN52_$LT$$BP$mut$u20$T$u20$as$u20$core..fmt..Pointer$GT$3fmt17h02f6df243e88c09cE:

00000000 <_ZN52_$LT$$BP$mut$u20$T$u20$as$u20$core..fmt..Pointer$GT$3fmt17h02f6df243e88c09cE>:
_ZN52_$LT$$BP$mut$u20$T$u20$as$u20$core..fmt..Pointer$GT$3fmt17h02f6df243e88c09cE():
/rustc/50a0defd5a93523067ef239936cc2e0755220904/src/libcore/fmt/mod.rs:2035
   0:	b580      	push	{r7, lr}
   2:	b086      	sub	sp, #24
   4:	460a      	mov	r2, r1
   6:	4603      	mov	r3, r0
   8:	9003      	str	r0, [sp, #12]
   a:	9104      	str	r1, [sp, #16]
/rustc/50a0defd5a93523067ef239936cc2e0755220904/src/libcore/fmt/mod.rs:2036
   c:	9803      	ldr	r0, [sp, #12]
   e:	6800      	ldr	r0, [r0, #0]
  10:	9005      	str	r0, [sp, #20]
  12:	9904      	ldr	r1, [sp, #16]
  14:	a805      	add	r0, sp, #20
  16:	9202      	str	r2, [sp, #8]
  18:	9301      	str	r3, [sp, #4]
  1a:	f7ff fffe 	bl	0 <_ZN52_$LT$$BP$mut$u20$T$u20$as$u20$core..fmt..Pointer$GT$3fmt17h02f6df243e88c09cE>
  1e:	9000      	str	r0, [sp, #0]
  20:	e7ff      	b.n	22 <_ZN52_$LT$$BP$mut$u20$T$u20$as$u20$core..fmt..Pointer$GT$3fmt17h02f6df243e88c09cE+0x22>
/rustc/50a0defd5a93523067ef239936cc2e0755220904/src/libcore/fmt/mod.rs:2037
  22:	9800      	ldr	r0, [sp, #0]
  24:	f000 0001 	and.w	r0, r0, #1
  28:	b006      	add	sp, #24
  2a:	bd80      	pop	{r7, pc}

Disassembly of section .text._ZN52_$LT$$BP$mut$u20$T$u20$as$u20$core..fmt..Pointer$GT$3fmt17h3d6c38af72f8cb8bE:

00000000 <_ZN52_$LT$$BP$mut$u20$T$u20$as$u20$core..fmt..Pointer$GT$3fmt17h3d6c38af72f8cb8bE>:
_ZN52_$LT$$BP$mut$u20$T$u20$as$u20$core..fmt..Pointer$GT$3fmt17h3d6c38af72f8cb8bE():
/rustc/50a0defd5a93523067ef239936cc2e0755220904/src/libcore/fmt/mod.rs:2035
   0:	b580      	push	{r7, lr}
   2:	b086      	sub	sp, #24
   4:	460a      	mov	r2, r1
   6:	4603      	mov	r3, r0
   8:	9003      	str	r0, [sp, #12]
   a:	9104      	str	r1, [sp, #16]
/rustc/50a0defd5a93523067ef239936cc2e0755220904/src/libcore/fmt/mod.rs:2036
   c:	9803      	ldr	r0, [sp, #12]
   e:	6800      	ldr	r0, [r0, #0]
  10:	9005      	str	r0, [sp, #20]
  12:	9904      	ldr	r1, [sp, #16]
  14:	a805      	add	r0, sp, #20
  16:	9202      	str	r2, [sp, #8]
  18:	9301      	str	r3, [sp, #4]
  1a:	f7ff fffe 	bl	0 <_ZN52_$LT$$BP$mut$u20$T$u20$as$u20$core..fmt..Pointer$GT$3fmt17h3d6c38af72f8cb8bE>
  1e:	9000      	str	r0, [sp, #0]
  20:	e7ff      	b.n	22 <_ZN52_$LT$$BP$mut$u20$T$u20$as$u20$core..fmt..Pointer$GT$3fmt17h3d6c38af72f8cb8bE+0x22>
/rustc/50a0defd5a93523067ef239936cc2e0755220904/src/libcore/fmt/mod.rs:2037
  22:	9800      	ldr	r0, [sp, #0]
  24:	f000 0001 	and.w	r0, r0, #1
  28:	b006      	add	sp, #24
  2a:	bd80      	pop	{r7, pc}

Disassembly of section .text._ZN54_$LT$$BP$const$u20$T$u20$as$u20$core..fmt..Pointer$GT$3fmt17had99a5c54c24f21dE:

00000000 <_ZN54_$LT$$BP$const$u20$T$u20$as$u20$core..fmt..Pointer$GT$3fmt17had99a5c54c24f21dE>:
_ZN54_$LT$$BP$const$u20$T$u20$as$u20$core..fmt..Pointer$GT$3fmt17had99a5c54c24f21dE():
/rustc/50a0defd5a93523067ef239936cc2e0755220904/src/libcore/fmt/mod.rs:2007
   0:	b580      	push	{r7, lr}
   2:	b08c      	sub	sp, #48	; 0x30
   4:	460a      	mov	r2, r1
   6:	4603      	mov	r3, r0
   8:	9005      	str	r0, [sp, #20]
   a:	9106      	str	r1, [sp, #24]
/rustc/50a0defd5a93523067ef239936cc2e0755220904/src/libcore/fmt/mod.rs:2008
   c:	9806      	ldr	r0, [sp, #24]
   e:	6881      	ldr	r1, [r0, #8]
  10:	68c0      	ldr	r0, [r0, #12]
  12:	9107      	str	r1, [sp, #28]
  14:	9008      	str	r0, [sp, #32]
/rustc/50a0defd5a93523067ef239936cc2e0755220904/src/libcore/fmt/mod.rs:2009
  16:	9806      	ldr	r0, [sp, #24]
  18:	6800      	ldr	r0, [r0, #0]
  1a:	9009      	str	r0, [sp, #36]	; 0x24
/rustc/50a0defd5a93523067ef239936cc2e0755220904/src/libcore/fmt/mod.rs:2015
  1c:	9806      	ldr	r0, [sp, #24]
  1e:	9204      	str	r2, [sp, #16]
  20:	9303      	str	r3, [sp, #12]
  22:	f7ff fffe 	bl	0 <_ZN4core3fmt9Formatter9alternate17hd09f58cee14df2eeE>
  26:	9002      	str	r0, [sp, #8]
  28:	e7ff      	b.n	2a <_ZN54_$LT$$BP$const$u20$T$u20$as$u20$core..fmt..Pointer$GT$3fmt17had99a5c54c24f21dE+0x2a>
  2a:	9802      	ldr	r0, [sp, #8]
  2c:	07c1      	lsls	r1, r0, #31
  2e:	2900      	cmp	r1, #0
  30:	d01c      	beq.n	6c <_ZN54_$LT$$BP$const$u20$T$u20$as$u20$core..fmt..Pointer$GT$3fmt17had99a5c54c24f21dE+0x6c>
  32:	e7ff      	b.n	34 <_ZN54_$LT$$BP$const$u20$T$u20$as$u20$core..fmt..Pointer$GT$3fmt17had99a5c54c24f21dE+0x34>
/rustc/50a0defd5a93523067ef239936cc2e0755220904/src/libcore/fmt/mod.rs:2016
  34:	9806      	ldr	r0, [sp, #24]
  36:	6801      	ldr	r1, [r0, #0]
  38:	f041 0108 	orr.w	r1, r1, #8
  3c:	6001      	str	r1, [r0, #0]
/rustc/50a0defd5a93523067ef239936cc2e0755220904/src/libcore/fmt/mod.rs:2018
  3e:	9806      	ldr	r0, [sp, #24]
  40:	6880      	ldr	r0, [r0, #8]
  42:	2800      	cmp	r0, #0
  44:	d112      	bne.n	6c <_ZN54_$LT$$BP$const$u20$T$u20$as$u20$core..fmt..Pointer$GT$3fmt17had99a5c54c24f21dE+0x6c>
  46:	e7ff      	b.n	48 <_ZN54_$LT$$BP$const$u20$T$u20$as$u20$core..fmt..Pointer$GT$3fmt17had99a5c54c24f21dE+0x48>
/rustc/50a0defd5a93523067ef239936cc2e0755220904/src/libcore/fmt/mod.rs:2019
  48:	f7ff fffe 	bl	0 <_ZN4core3mem7size_of17hd6e821d2e278c7d8E>
  4c:	9001      	str	r0, [sp, #4]
  4e:	e7ff      	b.n	50 <_ZN54_$LT$$BP$const$u20$T$u20$as$u20$core..fmt..Pointer$GT$3fmt17had99a5c54c24f21dE+0x50>
  50:	9801      	ldr	r0, [sp, #4]
  52:	00c1      	lsls	r1, r0, #3
  54:	9100      	str	r1, [sp, #0]
  56:	e7ff      	b.n	58 <_ZN54_$LT$$BP$const$u20$T$u20$as$u20$core..fmt..Pointer$GT$3fmt17had99a5c54c24f21dE+0x58>
  58:	2002      	movs	r0, #2
  5a:	9900      	ldr	r1, [sp, #0]
  5c:	eb00 0091 	add.w	r0, r0, r1, lsr #2
  60:	9a06      	ldr	r2, [sp, #24]
  62:	60d0      	str	r0, [r2, #12]
  64:	9806      	ldr	r0, [sp, #24]
  66:	2201      	movs	r2, #1
  68:	6082      	str	r2, [r0, #8]
/rustc/50a0defd5a93523067ef239936cc2e0755220904/src/libcore/fmt/mod.rs:2018
  6a:	e7ff      	b.n	6c <_ZN54_$LT$$BP$const$u20$T$u20$as$u20$core..fmt..Pointer$GT$3fmt17had99a5c54c24f21dE+0x6c>
/rustc/50a0defd5a93523067ef239936cc2e0755220904/src/libcore/fmt/mod.rs:2022
  6c:	9806      	ldr	r0, [sp, #24]
  6e:	6801      	ldr	r1, [r0, #0]
  70:	f041 0104 	orr.w	r1, r1, #4
  74:	6001      	str	r1, [r0, #0]
/rustc/50a0defd5a93523067ef239936cc2e0755220904/src/libcore/fmt/mod.rs:2024
  76:	9805      	ldr	r0, [sp, #20]
  78:	6800      	ldr	r0, [r0, #0]
  7a:	900b      	str	r0, [sp, #44]	; 0x2c
  7c:	9906      	ldr	r1, [sp, #24]
  7e:	a80b      	add	r0, sp, #44	; 0x2c
  80:	f7ff fffe 	bl	0 <_ZN4core3fmt3num55_$LT$impl$u20$core..fmt..LowerHex$u20$for$u20$usize$GT$3fmt17h562f60f4fbcc2e1dE>
  84:	f88d 002b 	strb.w	r0, [sp, #43]	; 0x2b
  88:	e7ff      	b.n	8a <_ZN54_$LT$$BP$const$u20$T$u20$as$u20$core..fmt..Pointer$GT$3fmt17had99a5c54c24f21dE+0x8a>
/rustc/50a0defd5a93523067ef239936cc2e0755220904/src/libcore/fmt/mod.rs:2026
  8a:	9807      	ldr	r0, [sp, #28]
  8c:	9908      	ldr	r1, [sp, #32]
  8e:	9a06      	ldr	r2, [sp, #24]
  90:	6090      	str	r0, [r2, #8]
  92:	60d1      	str	r1, [r2, #12]
/rustc/50a0defd5a93523067ef239936cc2e0755220904/src/libcore/fmt/mod.rs:2027
  94:	9809      	ldr	r0, [sp, #36]	; 0x24
  96:	9906      	ldr	r1, [sp, #24]
  98:	6008      	str	r0, [r1, #0]
/rustc/50a0defd5a93523067ef239936cc2e0755220904/src/libcore/fmt/mod.rs:2029
  9a:	f89d 002b 	ldrb.w	r0, [sp, #43]	; 0x2b
/rustc/50a0defd5a93523067ef239936cc2e0755220904/src/libcore/fmt/mod.rs:2030
  9e:	b00c      	add	sp, #48	; 0x30
  a0:	bd80      	pop	{r7, pc}

Disassembly of section .text._ZN54_$LT$$BP$const$u20$T$u20$as$u20$core..fmt..Pointer$GT$3fmt17hb303c832caa37536E:

00000000 <_ZN54_$LT$$BP$const$u20$T$u20$as$u20$core..fmt..Pointer$GT$3fmt17hb303c832caa37536E>:
_ZN54_$LT$$BP$const$u20$T$u20$as$u20$core..fmt..Pointer$GT$3fmt17hb303c832caa37536E():
/rustc/50a0defd5a93523067ef239936cc2e0755220904/src/libcore/fmt/mod.rs:2007
   0:	b580      	push	{r7, lr}
   2:	b08c      	sub	sp, #48	; 0x30
   4:	460a      	mov	r2, r1
   6:	4603      	mov	r3, r0
   8:	9005      	str	r0, [sp, #20]
   a:	9106      	str	r1, [sp, #24]
/rustc/50a0defd5a93523067ef239936cc2e0755220904/src/libcore/fmt/mod.rs:2008
   c:	9806      	ldr	r0, [sp, #24]
   e:	6881      	ldr	r1, [r0, #8]
  10:	68c0      	ldr	r0, [r0, #12]
  12:	9107      	str	r1, [sp, #28]
  14:	9008      	str	r0, [sp, #32]
/rustc/50a0defd5a93523067ef239936cc2e0755220904/src/libcore/fmt/mod.rs:2009
  16:	9806      	ldr	r0, [sp, #24]
  18:	6800      	ldr	r0, [r0, #0]
  1a:	9009      	str	r0, [sp, #36]	; 0x24
/rustc/50a0defd5a93523067ef239936cc2e0755220904/src/libcore/fmt/mod.rs:2015
  1c:	9806      	ldr	r0, [sp, #24]
  1e:	9204      	str	r2, [sp, #16]
  20:	9303      	str	r3, [sp, #12]
  22:	f7ff fffe 	bl	0 <_ZN4core3fmt9Formatter9alternate17hd09f58cee14df2eeE>
  26:	9002      	str	r0, [sp, #8]
  28:	e7ff      	b.n	2a <_ZN54_$LT$$BP$const$u20$T$u20$as$u20$core..fmt..Pointer$GT$3fmt17hb303c832caa37536E+0x2a>
  2a:	9802      	ldr	r0, [sp, #8]
  2c:	07c1      	lsls	r1, r0, #31
  2e:	2900      	cmp	r1, #0
  30:	d01c      	beq.n	6c <_ZN54_$LT$$BP$const$u20$T$u20$as$u20$core..fmt..Pointer$GT$3fmt17hb303c832caa37536E+0x6c>
  32:	e7ff      	b.n	34 <_ZN54_$LT$$BP$const$u20$T$u20$as$u20$core..fmt..Pointer$GT$3fmt17hb303c832caa37536E+0x34>
/rustc/50a0defd5a93523067ef239936cc2e0755220904/src/libcore/fmt/mod.rs:2016
  34:	9806      	ldr	r0, [sp, #24]
  36:	6801      	ldr	r1, [r0, #0]
  38:	f041 0108 	orr.w	r1, r1, #8
  3c:	6001      	str	r1, [r0, #0]
/rustc/50a0defd5a93523067ef239936cc2e0755220904/src/libcore/fmt/mod.rs:2018
  3e:	9806      	ldr	r0, [sp, #24]
  40:	6880      	ldr	r0, [r0, #8]
  42:	2800      	cmp	r0, #0
  44:	d112      	bne.n	6c <_ZN54_$LT$$BP$const$u20$T$u20$as$u20$core..fmt..Pointer$GT$3fmt17hb303c832caa37536E+0x6c>
  46:	e7ff      	b.n	48 <_ZN54_$LT$$BP$const$u20$T$u20$as$u20$core..fmt..Pointer$GT$3fmt17hb303c832caa37536E+0x48>
/rustc/50a0defd5a93523067ef239936cc2e0755220904/src/libcore/fmt/mod.rs:2019
  48:	f7ff fffe 	bl	0 <_ZN4core3mem7size_of17hd6e821d2e278c7d8E>
  4c:	9001      	str	r0, [sp, #4]
  4e:	e7ff      	b.n	50 <_ZN54_$LT$$BP$const$u20$T$u20$as$u20$core..fmt..Pointer$GT$3fmt17hb303c832caa37536E+0x50>
  50:	9801      	ldr	r0, [sp, #4]
  52:	00c1      	lsls	r1, r0, #3
  54:	9100      	str	r1, [sp, #0]
  56:	e7ff      	b.n	58 <_ZN54_$LT$$BP$const$u20$T$u20$as$u20$core..fmt..Pointer$GT$3fmt17hb303c832caa37536E+0x58>
  58:	2002      	movs	r0, #2
  5a:	9900      	ldr	r1, [sp, #0]
  5c:	eb00 0091 	add.w	r0, r0, r1, lsr #2
  60:	9a06      	ldr	r2, [sp, #24]
  62:	60d0      	str	r0, [r2, #12]
  64:	9806      	ldr	r0, [sp, #24]
  66:	2201      	movs	r2, #1
  68:	6082      	str	r2, [r0, #8]
/rustc/50a0defd5a93523067ef239936cc2e0755220904/src/libcore/fmt/mod.rs:2018
  6a:	e7ff      	b.n	6c <_ZN54_$LT$$BP$const$u20$T$u20$as$u20$core..fmt..Pointer$GT$3fmt17hb303c832caa37536E+0x6c>
/rustc/50a0defd5a93523067ef239936cc2e0755220904/src/libcore/fmt/mod.rs:2022
  6c:	9806      	ldr	r0, [sp, #24]
  6e:	6801      	ldr	r1, [r0, #0]
  70:	f041 0104 	orr.w	r1, r1, #4
  74:	6001      	str	r1, [r0, #0]
/rustc/50a0defd5a93523067ef239936cc2e0755220904/src/libcore/fmt/mod.rs:2024
  76:	9805      	ldr	r0, [sp, #20]
  78:	6800      	ldr	r0, [r0, #0]
  7a:	900b      	str	r0, [sp, #44]	; 0x2c
  7c:	9906      	ldr	r1, [sp, #24]
  7e:	a80b      	add	r0, sp, #44	; 0x2c
  80:	f7ff fffe 	bl	0 <_ZN4core3fmt3num55_$LT$impl$u20$core..fmt..LowerHex$u20$for$u20$usize$GT$3fmt17h562f60f4fbcc2e1dE>
  84:	f88d 002b 	strb.w	r0, [sp, #43]	; 0x2b
  88:	e7ff      	b.n	8a <_ZN54_$LT$$BP$const$u20$T$u20$as$u20$core..fmt..Pointer$GT$3fmt17hb303c832caa37536E+0x8a>
/rustc/50a0defd5a93523067ef239936cc2e0755220904/src/libcore/fmt/mod.rs:2026
  8a:	9807      	ldr	r0, [sp, #28]
  8c:	9908      	ldr	r1, [sp, #32]
  8e:	9a06      	ldr	r2, [sp, #24]
  90:	6090      	str	r0, [r2, #8]
  92:	60d1      	str	r1, [r2, #12]
/rustc/50a0defd5a93523067ef239936cc2e0755220904/src/libcore/fmt/mod.rs:2027
  94:	9809      	ldr	r0, [sp, #36]	; 0x24
  96:	9906      	ldr	r1, [sp, #24]
  98:	6008      	str	r0, [r1, #0]
/rustc/50a0defd5a93523067ef239936cc2e0755220904/src/libcore/fmt/mod.rs:2029
  9a:	f89d 002b 	ldrb.w	r0, [sp, #43]	; 0x2b
/rustc/50a0defd5a93523067ef239936cc2e0755220904/src/libcore/fmt/mod.rs:2030
  9e:	b00c      	add	sp, #48	; 0x30
  a0:	bd80      	pop	{r7, pc}

Disassembly of section .text._ZN54_$LT$$BP$const$u20$T$u20$as$u20$core..fmt..Pointer$GT$3fmt17hbbe46cc1aa2deceaE:

00000000 <_ZN54_$LT$$BP$const$u20$T$u20$as$u20$core..fmt..Pointer$GT$3fmt17hbbe46cc1aa2deceaE>:
_ZN54_$LT$$BP$const$u20$T$u20$as$u20$core..fmt..Pointer$GT$3fmt17hbbe46cc1aa2deceaE():
/rustc/50a0defd5a93523067ef239936cc2e0755220904/src/libcore/fmt/mod.rs:2007
   0:	b580      	push	{r7, lr}
   2:	b08c      	sub	sp, #48	; 0x30
   4:	460a      	mov	r2, r1
   6:	4603      	mov	r3, r0
   8:	9005      	str	r0, [sp, #20]
   a:	9106      	str	r1, [sp, #24]
/rustc/50a0defd5a93523067ef239936cc2e0755220904/src/libcore/fmt/mod.rs:2008
   c:	9806      	ldr	r0, [sp, #24]
   e:	6881      	ldr	r1, [r0, #8]
  10:	68c0      	ldr	r0, [r0, #12]
  12:	9107      	str	r1, [sp, #28]
  14:	9008      	str	r0, [sp, #32]
/rustc/50a0defd5a93523067ef239936cc2e0755220904/src/libcore/fmt/mod.rs:2009
  16:	9806      	ldr	r0, [sp, #24]
  18:	6800      	ldr	r0, [r0, #0]
  1a:	9009      	str	r0, [sp, #36]	; 0x24
/rustc/50a0defd5a93523067ef239936cc2e0755220904/src/libcore/fmt/mod.rs:2015
  1c:	9806      	ldr	r0, [sp, #24]
  1e:	9204      	str	r2, [sp, #16]
  20:	9303      	str	r3, [sp, #12]
  22:	f7ff fffe 	bl	0 <_ZN4core3fmt9Formatter9alternate17hd09f58cee14df2eeE>
  26:	9002      	str	r0, [sp, #8]
  28:	e7ff      	b.n	2a <_ZN54_$LT$$BP$const$u20$T$u20$as$u20$core..fmt..Pointer$GT$3fmt17hbbe46cc1aa2deceaE+0x2a>
  2a:	9802      	ldr	r0, [sp, #8]
  2c:	07c1      	lsls	r1, r0, #31
  2e:	2900      	cmp	r1, #0
  30:	d01c      	beq.n	6c <_ZN54_$LT$$BP$const$u20$T$u20$as$u20$core..fmt..Pointer$GT$3fmt17hbbe46cc1aa2deceaE+0x6c>
  32:	e7ff      	b.n	34 <_ZN54_$LT$$BP$const$u20$T$u20$as$u20$core..fmt..Pointer$GT$3fmt17hbbe46cc1aa2deceaE+0x34>
/rustc/50a0defd5a93523067ef239936cc2e0755220904/src/libcore/fmt/mod.rs:2016
  34:	9806      	ldr	r0, [sp, #24]
  36:	6801      	ldr	r1, [r0, #0]
  38:	f041 0108 	orr.w	r1, r1, #8
  3c:	6001      	str	r1, [r0, #0]
/rustc/50a0defd5a93523067ef239936cc2e0755220904/src/libcore/fmt/mod.rs:2018
  3e:	9806      	ldr	r0, [sp, #24]
  40:	6880      	ldr	r0, [r0, #8]
  42:	2800      	cmp	r0, #0
  44:	d112      	bne.n	6c <_ZN54_$LT$$BP$const$u20$T$u20$as$u20$core..fmt..Pointer$GT$3fmt17hbbe46cc1aa2deceaE+0x6c>
  46:	e7ff      	b.n	48 <_ZN54_$LT$$BP$const$u20$T$u20$as$u20$core..fmt..Pointer$GT$3fmt17hbbe46cc1aa2deceaE+0x48>
/rustc/50a0defd5a93523067ef239936cc2e0755220904/src/libcore/fmt/mod.rs:2019
  48:	f7ff fffe 	bl	0 <_ZN4core3mem7size_of17hd6e821d2e278c7d8E>
  4c:	9001      	str	r0, [sp, #4]
  4e:	e7ff      	b.n	50 <_ZN54_$LT$$BP$const$u20$T$u20$as$u20$core..fmt..Pointer$GT$3fmt17hbbe46cc1aa2deceaE+0x50>
  50:	9801      	ldr	r0, [sp, #4]
  52:	00c1      	lsls	r1, r0, #3
  54:	9100      	str	r1, [sp, #0]
  56:	e7ff      	b.n	58 <_ZN54_$LT$$BP$const$u20$T$u20$as$u20$core..fmt..Pointer$GT$3fmt17hbbe46cc1aa2deceaE+0x58>
  58:	2002      	movs	r0, #2
  5a:	9900      	ldr	r1, [sp, #0]
  5c:	eb00 0091 	add.w	r0, r0, r1, lsr #2
  60:	9a06      	ldr	r2, [sp, #24]
  62:	60d0      	str	r0, [r2, #12]
  64:	9806      	ldr	r0, [sp, #24]
  66:	2201      	movs	r2, #1
  68:	6082      	str	r2, [r0, #8]
/rustc/50a0defd5a93523067ef239936cc2e0755220904/src/libcore/fmt/mod.rs:2018
  6a:	e7ff      	b.n	6c <_ZN54_$LT$$BP$const$u20$T$u20$as$u20$core..fmt..Pointer$GT$3fmt17hbbe46cc1aa2deceaE+0x6c>
/rustc/50a0defd5a93523067ef239936cc2e0755220904/src/libcore/fmt/mod.rs:2022
  6c:	9806      	ldr	r0, [sp, #24]
  6e:	6801      	ldr	r1, [r0, #0]
  70:	f041 0104 	orr.w	r1, r1, #4
  74:	6001      	str	r1, [r0, #0]
/rustc/50a0defd5a93523067ef239936cc2e0755220904/src/libcore/fmt/mod.rs:2024
  76:	9805      	ldr	r0, [sp, #20]
  78:	6800      	ldr	r0, [r0, #0]
  7a:	900b      	str	r0, [sp, #44]	; 0x2c
  7c:	9906      	ldr	r1, [sp, #24]
  7e:	a80b      	add	r0, sp, #44	; 0x2c
  80:	f7ff fffe 	bl	0 <_ZN4core3fmt3num55_$LT$impl$u20$core..fmt..LowerHex$u20$for$u20$usize$GT$3fmt17h562f60f4fbcc2e1dE>
  84:	f88d 002b 	strb.w	r0, [sp, #43]	; 0x2b
  88:	e7ff      	b.n	8a <_ZN54_$LT$$BP$const$u20$T$u20$as$u20$core..fmt..Pointer$GT$3fmt17hbbe46cc1aa2deceaE+0x8a>
/rustc/50a0defd5a93523067ef239936cc2e0755220904/src/libcore/fmt/mod.rs:2026
  8a:	9807      	ldr	r0, [sp, #28]
  8c:	9908      	ldr	r1, [sp, #32]
  8e:	9a06      	ldr	r2, [sp, #24]
  90:	6090      	str	r0, [r2, #8]
  92:	60d1      	str	r1, [r2, #12]
/rustc/50a0defd5a93523067ef239936cc2e0755220904/src/libcore/fmt/mod.rs:2027
  94:	9809      	ldr	r0, [sp, #36]	; 0x24
  96:	9906      	ldr	r1, [sp, #24]
  98:	6008      	str	r0, [r1, #0]
/rustc/50a0defd5a93523067ef239936cc2e0755220904/src/libcore/fmt/mod.rs:2029
  9a:	f89d 002b 	ldrb.w	r0, [sp, #43]	; 0x2b
/rustc/50a0defd5a93523067ef239936cc2e0755220904/src/libcore/fmt/mod.rs:2030
  9e:	b00c      	add	sp, #48	; 0x30
  a0:	bd80      	pop	{r7, pc}

Disassembly of section .text._ZN54_$LT$$BP$const$u20$T$u20$as$u20$core..fmt..Pointer$GT$3fmt17he28cc5b08303893bE:

00000000 <_ZN54_$LT$$BP$const$u20$T$u20$as$u20$core..fmt..Pointer$GT$3fmt17he28cc5b08303893bE>:
_ZN54_$LT$$BP$const$u20$T$u20$as$u20$core..fmt..Pointer$GT$3fmt17he28cc5b08303893bE():
/rustc/50a0defd5a93523067ef239936cc2e0755220904/src/libcore/fmt/mod.rs:2007
   0:	b580      	push	{r7, lr}
   2:	b08c      	sub	sp, #48	; 0x30
   4:	460a      	mov	r2, r1
   6:	4603      	mov	r3, r0
   8:	9005      	str	r0, [sp, #20]
   a:	9106      	str	r1, [sp, #24]
/rustc/50a0defd5a93523067ef239936cc2e0755220904/src/libcore/fmt/mod.rs:2008
   c:	9806      	ldr	r0, [sp, #24]
   e:	6881      	ldr	r1, [r0, #8]
  10:	68c0      	ldr	r0, [r0, #12]
  12:	9107      	str	r1, [sp, #28]
  14:	9008      	str	r0, [sp, #32]
/rustc/50a0defd5a93523067ef239936cc2e0755220904/src/libcore/fmt/mod.rs:2009
  16:	9806      	ldr	r0, [sp, #24]
  18:	6800      	ldr	r0, [r0, #0]
  1a:	9009      	str	r0, [sp, #36]	; 0x24
/rustc/50a0defd5a93523067ef239936cc2e0755220904/src/libcore/fmt/mod.rs:2015
  1c:	9806      	ldr	r0, [sp, #24]
  1e:	9204      	str	r2, [sp, #16]
  20:	9303      	str	r3, [sp, #12]
  22:	f7ff fffe 	bl	0 <_ZN4core3fmt9Formatter9alternate17hd09f58cee14df2eeE>
  26:	9002      	str	r0, [sp, #8]
  28:	e7ff      	b.n	2a <_ZN54_$LT$$BP$const$u20$T$u20$as$u20$core..fmt..Pointer$GT$3fmt17he28cc5b08303893bE+0x2a>
  2a:	9802      	ldr	r0, [sp, #8]
  2c:	07c1      	lsls	r1, r0, #31
  2e:	2900      	cmp	r1, #0
  30:	d01c      	beq.n	6c <_ZN54_$LT$$BP$const$u20$T$u20$as$u20$core..fmt..Pointer$GT$3fmt17he28cc5b08303893bE+0x6c>
  32:	e7ff      	b.n	34 <_ZN54_$LT$$BP$const$u20$T$u20$as$u20$core..fmt..Pointer$GT$3fmt17he28cc5b08303893bE+0x34>
/rustc/50a0defd5a93523067ef239936cc2e0755220904/src/libcore/fmt/mod.rs:2016
  34:	9806      	ldr	r0, [sp, #24]
  36:	6801      	ldr	r1, [r0, #0]
  38:	f041 0108 	orr.w	r1, r1, #8
  3c:	6001      	str	r1, [r0, #0]
/rustc/50a0defd5a93523067ef239936cc2e0755220904/src/libcore/fmt/mod.rs:2018
  3e:	9806      	ldr	r0, [sp, #24]
  40:	6880      	ldr	r0, [r0, #8]
  42:	2800      	cmp	r0, #0
  44:	d112      	bne.n	6c <_ZN54_$LT$$BP$const$u20$T$u20$as$u20$core..fmt..Pointer$GT$3fmt17he28cc5b08303893bE+0x6c>
  46:	e7ff      	b.n	48 <_ZN54_$LT$$BP$const$u20$T$u20$as$u20$core..fmt..Pointer$GT$3fmt17he28cc5b08303893bE+0x48>
/rustc/50a0defd5a93523067ef239936cc2e0755220904/src/libcore/fmt/mod.rs:2019
  48:	f7ff fffe 	bl	0 <_ZN4core3mem7size_of17hd6e821d2e278c7d8E>
  4c:	9001      	str	r0, [sp, #4]
  4e:	e7ff      	b.n	50 <_ZN54_$LT$$BP$const$u20$T$u20$as$u20$core..fmt..Pointer$GT$3fmt17he28cc5b08303893bE+0x50>
  50:	9801      	ldr	r0, [sp, #4]
  52:	00c1      	lsls	r1, r0, #3
  54:	9100      	str	r1, [sp, #0]
  56:	e7ff      	b.n	58 <_ZN54_$LT$$BP$const$u20$T$u20$as$u20$core..fmt..Pointer$GT$3fmt17he28cc5b08303893bE+0x58>
  58:	2002      	movs	r0, #2
  5a:	9900      	ldr	r1, [sp, #0]
  5c:	eb00 0091 	add.w	r0, r0, r1, lsr #2
  60:	9a06      	ldr	r2, [sp, #24]
  62:	60d0      	str	r0, [r2, #12]
  64:	9806      	ldr	r0, [sp, #24]
  66:	2201      	movs	r2, #1
  68:	6082      	str	r2, [r0, #8]
/rustc/50a0defd5a93523067ef239936cc2e0755220904/src/libcore/fmt/mod.rs:2018
  6a:	e7ff      	b.n	6c <_ZN54_$LT$$BP$const$u20$T$u20$as$u20$core..fmt..Pointer$GT$3fmt17he28cc5b08303893bE+0x6c>
/rustc/50a0defd5a93523067ef239936cc2e0755220904/src/libcore/fmt/mod.rs:2022
  6c:	9806      	ldr	r0, [sp, #24]
  6e:	6801      	ldr	r1, [r0, #0]
  70:	f041 0104 	orr.w	r1, r1, #4
  74:	6001      	str	r1, [r0, #0]
/rustc/50a0defd5a93523067ef239936cc2e0755220904/src/libcore/fmt/mod.rs:2024
  76:	9805      	ldr	r0, [sp, #20]
  78:	6800      	ldr	r0, [r0, #0]
  7a:	900b      	str	r0, [sp, #44]	; 0x2c
  7c:	9906      	ldr	r1, [sp, #24]
  7e:	a80b      	add	r0, sp, #44	; 0x2c
  80:	f7ff fffe 	bl	0 <_ZN4core3fmt3num55_$LT$impl$u20$core..fmt..LowerHex$u20$for$u20$usize$GT$3fmt17h562f60f4fbcc2e1dE>
  84:	f88d 002b 	strb.w	r0, [sp, #43]	; 0x2b
  88:	e7ff      	b.n	8a <_ZN54_$LT$$BP$const$u20$T$u20$as$u20$core..fmt..Pointer$GT$3fmt17he28cc5b08303893bE+0x8a>
/rustc/50a0defd5a93523067ef239936cc2e0755220904/src/libcore/fmt/mod.rs:2026
  8a:	9807      	ldr	r0, [sp, #28]
  8c:	9908      	ldr	r1, [sp, #32]
  8e:	9a06      	ldr	r2, [sp, #24]
  90:	6090      	str	r0, [r2, #8]
  92:	60d1      	str	r1, [r2, #12]
/rustc/50a0defd5a93523067ef239936cc2e0755220904/src/libcore/fmt/mod.rs:2027
  94:	9809      	ldr	r0, [sp, #36]	; 0x24
  96:	9906      	ldr	r1, [sp, #24]
  98:	6008      	str	r0, [r1, #0]
/rustc/50a0defd5a93523067ef239936cc2e0755220904/src/libcore/fmt/mod.rs:2029
  9a:	f89d 002b 	ldrb.w	r0, [sp, #43]	; 0x2b
/rustc/50a0defd5a93523067ef239936cc2e0755220904/src/libcore/fmt/mod.rs:2030
  9e:	b00c      	add	sp, #48	; 0x30
  a0:	bd80      	pop	{r7, pc}

mylib-b003fcb153d61cda.qdoyzfijau6r165.rcgu.o:     file format elf32-littlearm

SYMBOL TABLE:
00000000 l    df *ABS*	00000000 qdoyzfijau6r165
000003ca l       .debug_str	00000000 
0000047d l       .debug_str	00000000 
000004a1 l       .debug_str	00000000 
000004bd l       .debug_str	00000000 
000004c2 l       .debug_str	00000000 
000004cb l       .debug_str	00000000 
000004d2 l       .debug_str	00000000 
000004eb l       .debug_str	00000000 
000004f5 l       .debug_str	00000000 
0000050f l       .debug_str	00000000 
00000528 l       .debug_str	00000000 
00000542 l       .debug_str	00000000 
0000054c l       .debug_str	00000000 
00000556 l       .debug_str	00000000 
00000000 l       .debug_str	00000000 
00000041 l       .debug_str	00000000 
0000004c l       .debug_str	00000000 
0000007c l       .debug_str	00000000 
00000081 l       .debug_str	00000000 
00000088 l       .debug_str	00000000 
0000008b l       .debug_str	00000000 
0000008e l       .debug_str	00000000 
00000092 l       .debug_str	00000000 
00000099 l       .debug_str	00000000 
0000009d l       .debug_str	00000000 
000000a8 l       .debug_str	00000000 
000000b3 l       .debug_str	00000000 
000000ba l       .debug_str	00000000 
000000be l       .debug_str	00000000 
000000c1 l       .debug_str	00000000 
000000c4 l       .debug_str	00000000 
000000c9 l       .debug_str	00000000 
000000cf l       .debug_str	00000000 
000000d6 l       .debug_str	00000000 
000000de l       .debug_str	00000000 
000000e8 l       .debug_str	00000000 
000000f1 l       .debug_str	00000000 
00000108 l       .debug_str	00000000 
0000010a l       .debug_str	00000000 
00000152 l       .debug_str	00000000 
0000016e l       .debug_str	00000000 
000001be l       .debug_str	00000000 
000001d5 l       .debug_str	00000000 
00000227 l       .debug_str	00000000 
0000027b l       .debug_str	00000000 
00000280 l       .debug_str	00000000 
00000298 l       .debug_str	00000000 
000002b1 l       .debug_str	00000000 
000002b3 l       .debug_str	00000000 
000002b9 l       .debug_str	00000000 
000002bd l       .debug_str	00000000 
000002c2 l       .debug_str	00000000 
000002c7 l       .debug_str	00000000 
000002cd l       .debug_str	00000000 
000002d3 l       .debug_str	00000000 
000002da l       .debug_str	00000000 
000002df l       .debug_str	00000000 
000002e5 l       .debug_str	00000000 
000002ea l       .debug_str	00000000 
000002ee l       .debug_str	00000000 
000002fc l       .debug_str	00000000 
00000306 l       .debug_str	00000000 
0000030a l       .debug_str	00000000 
00000312 l       .debug_str	00000000 
0000031a l       .debug_str	00000000 
00000321 l       .debug_str	00000000 
00000335 l       .debug_str	00000000 
00000341 l       .debug_str	00000000 
0000034c l       .debug_str	00000000 
00000353 l       .debug_str	00000000 
00000359 l       .debug_str	00000000 
0000035d l       .debug_str	00000000 
00000363 l       .debug_str	00000000 
00000369 l       .debug_str	00000000 
0000036c l       .debug_str	00000000 
0000037b l       .debug_str	00000000 
00000382 l       .debug_str	00000000 
00000386 l       .debug_str	00000000 
0000038f l       .debug_str	00000000 
0000039b l       .debug_str	00000000 
000003b4 l       .debug_str	00000000 
000003b9 l       .debug_str	00000000 
000003d4 l       .debug_str	00000000 
00000432 l       .debug_str	00000000 
0000043d l       .debug_str	00000000 
0000045a l       .debug_str	00000000 
0000045e l       .debug_str	00000000 
00000466 l       .debug_str	00000000 
00000000 l    d  .text._ZN42_$LT$$RF$T$u20$as$u20$core..fmt..Debug$GT$3fmt17h8d8c72190485fc01E	00000000 .text._ZN42_$LT$$RF$T$u20$as$u20$core..fmt..Debug$GT$3fmt17h8d8c72190485fc01E
00000000 l    d  .text._ZN50_$LT$$BP$mut$u20$T$u20$as$u20$core..fmt..Debug$GT$3fmt17ha2339e93bbe6758eE	00000000 .text._ZN50_$LT$$BP$mut$u20$T$u20$as$u20$core..fmt..Debug$GT$3fmt17ha2339e93bbe6758eE
00000000 l    d  .text._ZN52_$LT$$BP$mut$u20$T$u20$as$u20$core..fmt..Pointer$GT$3fmt17h469172d9aa062131E	00000000 .text._ZN52_$LT$$BP$mut$u20$T$u20$as$u20$core..fmt..Pointer$GT$3fmt17h469172d9aa062131E
00000000 l    d  .text._ZN54_$LT$$BP$const$u20$T$u20$as$u20$core..fmt..Pointer$GT$3fmt17hfe227d678549c316E	00000000 .text._ZN54_$LT$$BP$const$u20$T$u20$as$u20$core..fmt..Pointer$GT$3fmt17hfe227d678549c316E
00000000 l    d  .debug_abbrev	00000000 .debug_abbrev
00000000 l    d  .debug_info	00000000 .debug_info
00000000 l    d  .debug_ranges	00000000 .debug_ranges
00000000 l    d  .debug_frame	00000000 .debug_frame
00000000 l    d  .debug_line	00000000 .debug_line
00000000 g     F .text._ZN42_$LT$$RF$T$u20$as$u20$core..fmt..Debug$GT$3fmt17h8d8c72190485fc01E	00000028 _ZN42_$LT$$RF$T$u20$as$u20$core..fmt..Debug$GT$3fmt17h8d8c72190485fc01E
00000000         *UND*	00000000 _ZN4core3fmt3num55_$LT$impl$u20$core..fmt..LowerHex$u20$for$u20$usize$GT$3fmt17h562f60f4fbcc2e1dE
00000000         *UND*	00000000 _ZN4core3fmt9Formatter9alternate17hd09f58cee14df2eeE
00000000         *UND*	00000000 _ZN4core3mem7size_of17hd6e821d2e278c7d8E
00000000 g     F .text._ZN50_$LT$$BP$mut$u20$T$u20$as$u20$core..fmt..Debug$GT$3fmt17ha2339e93bbe6758eE	00000026 _ZN50_$LT$$BP$mut$u20$T$u20$as$u20$core..fmt..Debug$GT$3fmt17ha2339e93bbe6758eE
00000000 g     F .text._ZN52_$LT$$BP$mut$u20$T$u20$as$u20$core..fmt..Pointer$GT$3fmt17h469172d9aa062131E	0000002c _ZN52_$LT$$BP$mut$u20$T$u20$as$u20$core..fmt..Pointer$GT$3fmt17h469172d9aa062131E
00000000 g     F .text._ZN54_$LT$$BP$const$u20$T$u20$as$u20$core..fmt..Pointer$GT$3fmt17hfe227d678549c316E	000000a2 _ZN54_$LT$$BP$const$u20$T$u20$as$u20$core..fmt..Pointer$GT$3fmt17hfe227d678549c316E



Disassembly of section .text._ZN42_$LT$$RF$T$u20$as$u20$core..fmt..Debug$GT$3fmt17h8d8c72190485fc01E:

00000000 <_ZN42_$LT$$RF$T$u20$as$u20$core..fmt..Debug$GT$3fmt17h8d8c72190485fc01E>:
_ZN42_$LT$$RF$T$u20$as$u20$core..fmt..Debug$GT$3fmt17h8d8c72190485fc01E():
/rustc/50a0defd5a93523067ef239936cc2e0755220904/src/libcore/fmt/mod.rs:1914
   0:	b580      	push	{r7, lr}
   2:	b086      	sub	sp, #24
   4:	460a      	mov	r2, r1
   6:	4603      	mov	r3, r0
   8:	9004      	str	r0, [sp, #16]
   a:	9105      	str	r1, [sp, #20]
   c:	9804      	ldr	r0, [sp, #16]
   e:	6800      	ldr	r0, [r0, #0]
  10:	9905      	ldr	r1, [sp, #20]
  12:	9203      	str	r2, [sp, #12]
  14:	9302      	str	r3, [sp, #8]
  16:	f7ff fffe 	bl	0 <_ZN42_$LT$$RF$T$u20$as$u20$core..fmt..Debug$GT$3fmt17h8d8c72190485fc01E>
  1a:	9001      	str	r0, [sp, #4]
  1c:	e7ff      	b.n	1e <_ZN42_$LT$$RF$T$u20$as$u20$core..fmt..Debug$GT$3fmt17h8d8c72190485fc01E+0x1e>
  1e:	9801      	ldr	r0, [sp, #4]
  20:	f000 0001 	and.w	r0, r0, #1
  24:	b006      	add	sp, #24
  26:	bd80      	pop	{r7, pc}

Disassembly of section .text._ZN50_$LT$$BP$mut$u20$T$u20$as$u20$core..fmt..Debug$GT$3fmt17ha2339e93bbe6758eE:

00000000 <_ZN50_$LT$$BP$mut$u20$T$u20$as$u20$core..fmt..Debug$GT$3fmt17ha2339e93bbe6758eE>:
_ZN50_$LT$$BP$mut$u20$T$u20$as$u20$core..fmt..Debug$GT$3fmt17ha2339e93bbe6758eE():
/rustc/50a0defd5a93523067ef239936cc2e0755220904/src/libcore/fmt/mod.rs:2062
   0:	b580      	push	{r7, lr}
   2:	b086      	sub	sp, #24
   4:	460a      	mov	r2, r1
   6:	4603      	mov	r3, r0
   8:	9004      	str	r0, [sp, #16]
   a:	9105      	str	r1, [sp, #20]
   c:	9804      	ldr	r0, [sp, #16]
   e:	9905      	ldr	r1, [sp, #20]
  10:	9203      	str	r2, [sp, #12]
  12:	9302      	str	r3, [sp, #8]
  14:	f7ff fffe 	bl	0 <_ZN50_$LT$$BP$mut$u20$T$u20$as$u20$core..fmt..Debug$GT$3fmt17ha2339e93bbe6758eE>
  18:	9001      	str	r0, [sp, #4]
  1a:	e7ff      	b.n	1c <_ZN50_$LT$$BP$mut$u20$T$u20$as$u20$core..fmt..Debug$GT$3fmt17ha2339e93bbe6758eE+0x1c>
  1c:	9801      	ldr	r0, [sp, #4]
  1e:	f000 0001 	and.w	r0, r0, #1
  22:	b006      	add	sp, #24
  24:	bd80      	pop	{r7, pc}

Disassembly of section .text._ZN52_$LT$$BP$mut$u20$T$u20$as$u20$core..fmt..Pointer$GT$3fmt17h469172d9aa062131E:

00000000 <_ZN52_$LT$$BP$mut$u20$T$u20$as$u20$core..fmt..Pointer$GT$3fmt17h469172d9aa062131E>:
_ZN52_$LT$$BP$mut$u20$T$u20$as$u20$core..fmt..Pointer$GT$3fmt17h469172d9aa062131E():
/rustc/50a0defd5a93523067ef239936cc2e0755220904/src/libcore/fmt/mod.rs:2035
   0:	b580      	push	{r7, lr}
   2:	b086      	sub	sp, #24
   4:	460a      	mov	r2, r1
   6:	4603      	mov	r3, r0
   8:	9003      	str	r0, [sp, #12]
   a:	9104      	str	r1, [sp, #16]
/rustc/50a0defd5a93523067ef239936cc2e0755220904/src/libcore/fmt/mod.rs:2036
   c:	9803      	ldr	r0, [sp, #12]
   e:	6800      	ldr	r0, [r0, #0]
  10:	9005      	str	r0, [sp, #20]
  12:	9904      	ldr	r1, [sp, #16]
  14:	a805      	add	r0, sp, #20
  16:	9202      	str	r2, [sp, #8]
  18:	9301      	str	r3, [sp, #4]
  1a:	f7ff fffe 	bl	0 <_ZN52_$LT$$BP$mut$u20$T$u20$as$u20$core..fmt..Pointer$GT$3fmt17h469172d9aa062131E>
  1e:	9000      	str	r0, [sp, #0]
  20:	e7ff      	b.n	22 <_ZN52_$LT$$BP$mut$u20$T$u20$as$u20$core..fmt..Pointer$GT$3fmt17h469172d9aa062131E+0x22>
/rustc/50a0defd5a93523067ef239936cc2e0755220904/src/libcore/fmt/mod.rs:2037
  22:	9800      	ldr	r0, [sp, #0]
  24:	f000 0001 	and.w	r0, r0, #1
  28:	b006      	add	sp, #24
  2a:	bd80      	pop	{r7, pc}

Disassembly of section .text._ZN54_$LT$$BP$const$u20$T$u20$as$u20$core..fmt..Pointer$GT$3fmt17hfe227d678549c316E:

00000000 <_ZN54_$LT$$BP$const$u20$T$u20$as$u20$core..fmt..Pointer$GT$3fmt17hfe227d678549c316E>:
_ZN54_$LT$$BP$const$u20$T$u20$as$u20$core..fmt..Pointer$GT$3fmt17hfe227d678549c316E():
/rustc/50a0defd5a93523067ef239936cc2e0755220904/src/libcore/fmt/mod.rs:2007
   0:	b580      	push	{r7, lr}
   2:	b08c      	sub	sp, #48	; 0x30
   4:	460a      	mov	r2, r1
   6:	4603      	mov	r3, r0
   8:	9005      	str	r0, [sp, #20]
   a:	9106      	str	r1, [sp, #24]
/rustc/50a0defd5a93523067ef239936cc2e0755220904/src/libcore/fmt/mod.rs:2008
   c:	9806      	ldr	r0, [sp, #24]
   e:	6881      	ldr	r1, [r0, #8]
  10:	68c0      	ldr	r0, [r0, #12]
  12:	9107      	str	r1, [sp, #28]
  14:	9008      	str	r0, [sp, #32]
/rustc/50a0defd5a93523067ef239936cc2e0755220904/src/libcore/fmt/mod.rs:2009
  16:	9806      	ldr	r0, [sp, #24]
  18:	6800      	ldr	r0, [r0, #0]
  1a:	9009      	str	r0, [sp, #36]	; 0x24
/rustc/50a0defd5a93523067ef239936cc2e0755220904/src/libcore/fmt/mod.rs:2015
  1c:	9806      	ldr	r0, [sp, #24]
  1e:	9204      	str	r2, [sp, #16]
  20:	9303      	str	r3, [sp, #12]
  22:	f7ff fffe 	bl	0 <_ZN4core3fmt9Formatter9alternate17hd09f58cee14df2eeE>
  26:	9002      	str	r0, [sp, #8]
  28:	e7ff      	b.n	2a <_ZN54_$LT$$BP$const$u20$T$u20$as$u20$core..fmt..Pointer$GT$3fmt17hfe227d678549c316E+0x2a>
  2a:	9802      	ldr	r0, [sp, #8]
  2c:	07c1      	lsls	r1, r0, #31
  2e:	2900      	cmp	r1, #0
  30:	d01c      	beq.n	6c <_ZN54_$LT$$BP$const$u20$T$u20$as$u20$core..fmt..Pointer$GT$3fmt17hfe227d678549c316E+0x6c>
  32:	e7ff      	b.n	34 <_ZN54_$LT$$BP$const$u20$T$u20$as$u20$core..fmt..Pointer$GT$3fmt17hfe227d678549c316E+0x34>
/rustc/50a0defd5a93523067ef239936cc2e0755220904/src/libcore/fmt/mod.rs:2016
  34:	9806      	ldr	r0, [sp, #24]
  36:	6801      	ldr	r1, [r0, #0]
  38:	f041 0108 	orr.w	r1, r1, #8
  3c:	6001      	str	r1, [r0, #0]
/rustc/50a0defd5a93523067ef239936cc2e0755220904/src/libcore/fmt/mod.rs:2018
  3e:	9806      	ldr	r0, [sp, #24]
  40:	6880      	ldr	r0, [r0, #8]
  42:	2800      	cmp	r0, #0
  44:	d112      	bne.n	6c <_ZN54_$LT$$BP$const$u20$T$u20$as$u20$core..fmt..Pointer$GT$3fmt17hfe227d678549c316E+0x6c>
  46:	e7ff      	b.n	48 <_ZN54_$LT$$BP$const$u20$T$u20$as$u20$core..fmt..Pointer$GT$3fmt17hfe227d678549c316E+0x48>
/rustc/50a0defd5a93523067ef239936cc2e0755220904/src/libcore/fmt/mod.rs:2019
  48:	f7ff fffe 	bl	0 <_ZN4core3mem7size_of17hd6e821d2e278c7d8E>
  4c:	9001      	str	r0, [sp, #4]
  4e:	e7ff      	b.n	50 <_ZN54_$LT$$BP$const$u20$T$u20$as$u20$core..fmt..Pointer$GT$3fmt17hfe227d678549c316E+0x50>
  50:	9801      	ldr	r0, [sp, #4]
  52:	00c1      	lsls	r1, r0, #3
  54:	9100      	str	r1, [sp, #0]
  56:	e7ff      	b.n	58 <_ZN54_$LT$$BP$const$u20$T$u20$as$u20$core..fmt..Pointer$GT$3fmt17hfe227d678549c316E+0x58>
  58:	2002      	movs	r0, #2
  5a:	9900      	ldr	r1, [sp, #0]
  5c:	eb00 0091 	add.w	r0, r0, r1, lsr #2
  60:	9a06      	ldr	r2, [sp, #24]
  62:	60d0      	str	r0, [r2, #12]
  64:	9806      	ldr	r0, [sp, #24]
  66:	2201      	movs	r2, #1
  68:	6082      	str	r2, [r0, #8]
/rustc/50a0defd5a93523067ef239936cc2e0755220904/src/libcore/fmt/mod.rs:2018
  6a:	e7ff      	b.n	6c <_ZN54_$LT$$BP$const$u20$T$u20$as$u20$core..fmt..Pointer$GT$3fmt17hfe227d678549c316E+0x6c>
/rustc/50a0defd5a93523067ef239936cc2e0755220904/src/libcore/fmt/mod.rs:2022
  6c:	9806      	ldr	r0, [sp, #24]
  6e:	6801      	ldr	r1, [r0, #0]
  70:	f041 0104 	orr.w	r1, r1, #4
  74:	6001      	str	r1, [r0, #0]
/rustc/50a0defd5a93523067ef239936cc2e0755220904/src/libcore/fmt/mod.rs:2024
  76:	9805      	ldr	r0, [sp, #20]
  78:	6800      	ldr	r0, [r0, #0]
  7a:	900b      	str	r0, [sp, #44]	; 0x2c
  7c:	9906      	ldr	r1, [sp, #24]
  7e:	a80b      	add	r0, sp, #44	; 0x2c
  80:	f7ff fffe 	bl	0 <_ZN4core3fmt3num55_$LT$impl$u20$core..fmt..LowerHex$u20$for$u20$usize$GT$3fmt17h562f60f4fbcc2e1dE>
  84:	f88d 002b 	strb.w	r0, [sp, #43]	; 0x2b
  88:	e7ff      	b.n	8a <_ZN54_$LT$$BP$const$u20$T$u20$as$u20$core..fmt..Pointer$GT$3fmt17hfe227d678549c316E+0x8a>
/rustc/50a0defd5a93523067ef239936cc2e0755220904/src/libcore/fmt/mod.rs:2026
  8a:	9807      	ldr	r0, [sp, #28]
  8c:	9908      	ldr	r1, [sp, #32]
  8e:	9a06      	ldr	r2, [sp, #24]
  90:	6090      	str	r0, [r2, #8]
  92:	60d1      	str	r1, [r2, #12]
/rustc/50a0defd5a93523067ef239936cc2e0755220904/src/libcore/fmt/mod.rs:2027
  94:	9809      	ldr	r0, [sp, #36]	; 0x24
  96:	9906      	ldr	r1, [sp, #24]
  98:	6008      	str	r0, [r1, #0]
/rustc/50a0defd5a93523067ef239936cc2e0755220904/src/libcore/fmt/mod.rs:2029
  9a:	f89d 002b 	ldrb.w	r0, [sp, #43]	; 0x2b
/rustc/50a0defd5a93523067ef239936cc2e0755220904/src/libcore/fmt/mod.rs:2030
  9e:	b00c      	add	sp, #48	; 0x30
  a0:	bd80      	pop	{r7, pc}

mylib-b003fcb153d61cda.vddnup3uubqfh70.rcgu.o:     file format elf32-littlearm

SYMBOL TABLE:
00000000 l    df *ABS*	00000000 vddnup3uubqfh70
00001646 l       .debug_str	00000000 
0000161c l       .debug_str	00000000 
00001626 l       .debug_str	00000000 
0000162a l       .debug_str	00000000 
00001632 l       .debug_str	00000000 
00001652 l       .debug_str	00000000 
0000165d l       .debug_str	00000000 
00001664 l       .debug_str	00000000 
0000166a l       .debug_str	00000000 
0000166e l       .debug_str	00000000 
00001674 l       .debug_str	00000000 
0000167a l       .debug_str	00000000 
0000167d l       .debug_str	00000000 
0000168c l       .debug_str	00000000 
00001693 l       .debug_str	00000000 
00001697 l       .debug_str	00000000 
000016a0 l       .debug_str	00000000 
000016ac l       .debug_str	00000000 
000016c5 l       .debug_str	00000000 
000016ca l       .debug_str	00000000 
000016db l       .debug_str	00000000 
000016e5 l       .debug_str	00000000 
00001743 l       .debug_str	00000000 
0000174e l       .debug_str	00000000 
0000176b l       .debug_str	00000000 
0000176f l       .debug_str	00000000 
00001777 l       .debug_str	00000000 
0000178e l       .debug_str	00000000 
000017b2 l       .debug_str	00000000 
000017ce l       .debug_str	00000000 
000017d3 l       .debug_str	00000000 
000017dc l       .debug_str	00000000 
000017e3 l       .debug_str	00000000 
000017fc l       .debug_str	00000000 
00001806 l       .debug_str	00000000 
00001820 l       .debug_str	00000000 
00001883 l       .debug_str	00000000 
000018e7 l       .debug_str	00000000 
0000194a l       .debug_str	00000000 
000019ae l       .debug_str	00000000 
00001a0f l       .debug_str	00000000 
00001a71 l       .debug_str	00000000 
00001ae6 l       .debug_str	00000000 
00001b5c l       .debug_str	00000000 
00001bca l       .debug_str	00000000 
00001c39 l       .debug_str	00000000 
00001c9c l       .debug_str	00000000 
00001d00 l       .debug_str	00000000 
00001d63 l       .debug_str	00000000 
00001dc7 l       .debug_str	00000000 
00001ddb l       .debug_str	00000000 
00001de4 l       .debug_str	00000000 
00001deb l       .debug_str	00000000 
00001df6 l       .debug_str	00000000 
00001dfb l       .debug_str	00000000 
00001e06 l       .debug_str	00000000 
00000000 l       .debug_str	00000000 
00000041 l       .debug_str	00000000 
0000004c l       .debug_str	00000000 
0000007c l       .debug_str	00000000 
00000083 l       .debug_str	00000000 
00000086 l       .debug_str	00000000 
0000008c l       .debug_str	00000000 
00000095 l       .debug_str	00000000 
0000009a l       .debug_str	00000000 
0000009f l       .debug_str	00000000 
000000a6 l       .debug_str	00000000 
000000aa l       .debug_str	00000000 
000000af l       .debug_str	00000000 
000000b1 l       .debug_str	00000000 
000000b6 l       .debug_str	00000000 
000000ba l       .debug_str	00000000 
0000010d l       .debug_str	00000000 
00000113 l       .debug_str	00000000 
00000117 l       .debug_str	00000000 
0000011b l       .debug_str	00000000 
00000167 l       .debug_str	00000000 
000001bb l       .debug_str	00000000 
000001c1 l       .debug_str	00000000 
0000020d l       .debug_str	00000000 
00000261 l       .debug_str	00000000 
00000267 l       .debug_str	00000000 
0000026b l       .debug_str	00000000 
000002b7 l       .debug_str	00000000 
0000030b l       .debug_str	00000000 
0000030f l       .debug_str	00000000 
00000315 l       .debug_str	00000000 
0000031d l       .debug_str	00000000 
0000037b l       .debug_str	00000000 
000003e1 l       .debug_str	00000000 
000003e5 l       .debug_str	00000000 
000003f2 l       .debug_str	00000000 
00000406 l       .debug_str	00000000 
00000430 l       .debug_str	00000000 
0000047b l       .debug_str	00000000 
000004c7 l       .debug_str	00000000 
00000514 l       .debug_str	00000000 
0000051a l       .debug_str	00000000 
00000579 l       .debug_str	00000000 
00000587 l       .debug_str	00000000 
0000059b l       .debug_str	00000000 
000005c5 l       .debug_str	00000000 
000005cf l       .debug_str	00000000 
00000626 l       .debug_str	00000000 
0000067e l       .debug_str	00000000 
000006cb l       .debug_str	00000000 
00000718 l       .debug_str	00000000 
00000777 l       .debug_str	00000000 
0000077b l       .debug_str	00000000 
000007cf l       .debug_str	00000000 
000007d4 l       .debug_str	00000000 
0000081e l       .debug_str	00000000 
00000870 l       .debug_str	00000000 
0000087d l       .debug_str	00000000 
000008a2 l       .debug_str	00000000 
000008a7 l       .debug_str	00000000 
000008c2 l       .debug_str	00000000 
0000090e l       .debug_str	00000000 
0000095b l       .debug_str	00000000 
000009a6 l       .debug_str	00000000 
000009ad l       .debug_str	00000000 
000009b0 l       .debug_str	00000000 
000009b4 l       .debug_str	00000000 
000009bb l       .debug_str	00000000 
000009bf l       .debug_str	00000000 
000009c2 l       .debug_str	00000000 
000009c5 l       .debug_str	00000000 
000009ca l       .debug_str	00000000 
000009d0 l       .debug_str	00000000 
000009d7 l       .debug_str	00000000 
000009df l       .debug_str	00000000 
000009e9 l       .debug_str	00000000 
000009f2 l       .debug_str	00000000 
00000a3a l       .debug_str	00000000 
00000aa0 l       .debug_str	00000000 
00000ae8 l       .debug_str	00000000 
00000b4f l       .debug_str	00000000 
00000b97 l       .debug_str	00000000 
00000bfe l       .debug_str	00000000 
00000c46 l       .debug_str	00000000 
00000cab l       .debug_str	00000000 
00000cf3 l       .debug_str	00000000 
00000d6c l       .debug_str	00000000 
00000db4 l       .debug_str	00000000 
00000e26 l       .debug_str	00000000 
00000e6e l       .debug_str	00000000 
00000ed5 l       .debug_str	00000000 
00000f1d l       .debug_str	00000000 
00000f84 l       .debug_str	00000000 
00000fe4 l       .debug_str	00000000 
00001034 l       .debug_str	00000000 
00001094 l       .debug_str	00000000 
000010e5 l       .debug_str	00000000 
00001145 l       .debug_str	00000000 
000011a1 l       .debug_str	00000000 
00001201 l       .debug_str	00000000 
00001252 l       .debug_str	00000000 
000012b2 l       .debug_str	00000000 
00001303 l       .debug_str	00000000 
00001363 l       .debug_str	00000000 
000013c6 l       .debug_str	00000000 
00001426 l       .debug_str	00000000 
00001477 l       .debug_str	00000000 
000014d7 l       .debug_str	00000000 
00001526 l       .debug_str	00000000 
0000152b l       .debug_str	00000000 
0000158d l       .debug_str	00000000 
000015f0 l       .debug_str	00000000 
000015f2 l       .debug_str	00000000 
000015f8 l       .debug_str	00000000 
000015fd l       .debug_str	00000000 
00001602 l       .debug_str	00000000 
00001608 l       .debug_str	00000000 
0000160e l       .debug_str	00000000 
00000000 l     O .rodata.cst4	00000004 .Lanon.33f3a11627b89aa8dd25c907097073e9.0
00000000 l     O .rodata..Lanon.33f3a11627b89aa8dd25c907097073e9.1	00000010 .Lanon.33f3a11627b89aa8dd25c907097073e9.1
00000004 l     O .rodata.cst4	00000004 .Lanon.33f3a11627b89aa8dd25c907097073e9.2
00000000 l     O .rodata..Lanon.33f3a11627b89aa8dd25c907097073e9.3	00000010 .Lanon.33f3a11627b89aa8dd25c907097073e9.3
00000000 l     O .rodata..Lanon.33f3a11627b89aa8dd25c907097073e9.4	00000010 .Lanon.33f3a11627b89aa8dd25c907097073e9.4
00000000 l     O .rodata..Lanon.33f3a11627b89aa8dd25c907097073e9.5	00000010 .Lanon.33f3a11627b89aa8dd25c907097073e9.5
00000000 l     O .rodata..Lanon.33f3a11627b89aa8dd25c907097073e9.6	00000010 .Lanon.33f3a11627b89aa8dd25c907097073e9.6
00000000 l     O .rodata..Lanon.33f3a11627b89aa8dd25c907097073e9.7	00000010 .Lanon.33f3a11627b89aa8dd25c907097073e9.7
00000000 l     O .rodata..Lanon.33f3a11627b89aa8dd25c907097073e9.8	00000010 .Lanon.33f3a11627b89aa8dd25c907097073e9.8
00000000 l     O .rodata..Lanon.33f3a11627b89aa8dd25c907097073e9.9	00000010 .Lanon.33f3a11627b89aa8dd25c907097073e9.9
00000000 l    d  .text._ZN42_$LT$$RF$T$u20$as$u20$core..fmt..Debug$GT$3fmt17h0690c51280dc8f21E	00000000 .text._ZN42_$LT$$RF$T$u20$as$u20$core..fmt..Debug$GT$3fmt17h0690c51280dc8f21E
00000000 l    d  .text._ZN42_$LT$$RF$T$u20$as$u20$core..fmt..Debug$GT$3fmt17h3451ac6675a8fc21E	00000000 .text._ZN42_$LT$$RF$T$u20$as$u20$core..fmt..Debug$GT$3fmt17h3451ac6675a8fc21E
00000000 l    d  .text._ZN42_$LT$$RF$T$u20$as$u20$core..fmt..Debug$GT$3fmt17h367967656a555ad1E	00000000 .text._ZN42_$LT$$RF$T$u20$as$u20$core..fmt..Debug$GT$3fmt17h367967656a555ad1E
00000000 l    d  .text._ZN42_$LT$$RF$T$u20$as$u20$core..fmt..Debug$GT$3fmt17h3f09e6bacb324456E	00000000 .text._ZN42_$LT$$RF$T$u20$as$u20$core..fmt..Debug$GT$3fmt17h3f09e6bacb324456E
00000000 l    d  .text._ZN42_$LT$$RF$T$u20$as$u20$core..fmt..Debug$GT$3fmt17h408b5df78a496a3aE	00000000 .text._ZN42_$LT$$RF$T$u20$as$u20$core..fmt..Debug$GT$3fmt17h408b5df78a496a3aE
00000000 l    d  .text._ZN42_$LT$$RF$T$u20$as$u20$core..fmt..Debug$GT$3fmt17h9f97eba8228f92a1E	00000000 .text._ZN42_$LT$$RF$T$u20$as$u20$core..fmt..Debug$GT$3fmt17h9f97eba8228f92a1E
00000000 l    d  .text._ZN42_$LT$$RF$T$u20$as$u20$core..fmt..Debug$GT$3fmt17hd07287b39cdf4c8aE	00000000 .text._ZN42_$LT$$RF$T$u20$as$u20$core..fmt..Debug$GT$3fmt17hd07287b39cdf4c8aE
00000000 l    d  .text._ZN42_$LT$$RF$T$u20$as$u20$core..fmt..Debug$GT$3fmt17hd573bb3572f63439E	00000000 .text._ZN42_$LT$$RF$T$u20$as$u20$core..fmt..Debug$GT$3fmt17hd573bb3572f63439E
00000000 l    d  .text._ZN66_$LT$core..option..Option$LT$T$GT$$u20$as$u20$core..fmt..Debug$GT$3fmt17h19104f213502f0cdE	00000000 .text._ZN66_$LT$core..option..Option$LT$T$GT$$u20$as$u20$core..fmt..Debug$GT$3fmt17h19104f213502f0cdE
00000000 l    d  .text._ZN66_$LT$core..option..Option$LT$T$GT$$u20$as$u20$core..fmt..Debug$GT$3fmt17h26377db1a6cbb4d0E	00000000 .text._ZN66_$LT$core..option..Option$LT$T$GT$$u20$as$u20$core..fmt..Debug$GT$3fmt17h26377db1a6cbb4d0E
00000000 l    d  .text._ZN66_$LT$core..option..Option$LT$T$GT$$u20$as$u20$core..fmt..Debug$GT$3fmt17h489ac8633bf18069E	00000000 .text._ZN66_$LT$core..option..Option$LT$T$GT$$u20$as$u20$core..fmt..Debug$GT$3fmt17h489ac8633bf18069E
00000000 l    d  .text._ZN66_$LT$core..option..Option$LT$T$GT$$u20$as$u20$core..fmt..Debug$GT$3fmt17h4f06df10e6982bb8E	00000000 .text._ZN66_$LT$core..option..Option$LT$T$GT$$u20$as$u20$core..fmt..Debug$GT$3fmt17h4f06df10e6982bb8E
00000000 l    d  .text._ZN66_$LT$core..option..Option$LT$T$GT$$u20$as$u20$core..fmt..Debug$GT$3fmt17h67f01eadf89cf374E	00000000 .text._ZN66_$LT$core..option..Option$LT$T$GT$$u20$as$u20$core..fmt..Debug$GT$3fmt17h67f01eadf89cf374E
00000000 l    d  .text._ZN66_$LT$core..option..Option$LT$T$GT$$u20$as$u20$core..fmt..Debug$GT$3fmt17h7b45e21f4da58d61E	00000000 .text._ZN66_$LT$core..option..Option$LT$T$GT$$u20$as$u20$core..fmt..Debug$GT$3fmt17h7b45e21f4da58d61E
00000000 l    d  .text._ZN66_$LT$core..option..Option$LT$T$GT$$u20$as$u20$core..fmt..Debug$GT$3fmt17hd2c5f68ae147ca04E	00000000 .text._ZN66_$LT$core..option..Option$LT$T$GT$$u20$as$u20$core..fmt..Debug$GT$3fmt17hd2c5f68ae147ca04E
00000000 l    d  .text._ZN66_$LT$core..option..Option$LT$T$GT$$u20$as$u20$core..fmt..Debug$GT$3fmt17hf69534630fadeb29E	00000000 .text._ZN66_$LT$core..option..Option$LT$T$GT$$u20$as$u20$core..fmt..Debug$GT$3fmt17hf69534630fadeb29E
00000000 l    d  .rodata..Lanon.33f3a11627b89aa8dd25c907097073e9.1	00000000 .rodata..Lanon.33f3a11627b89aa8dd25c907097073e9.1
00000000 l    d  .rodata..Lanon.33f3a11627b89aa8dd25c907097073e9.3	00000000 .rodata..Lanon.33f3a11627b89aa8dd25c907097073e9.3
00000000 l    d  .rodata..Lanon.33f3a11627b89aa8dd25c907097073e9.4	00000000 .rodata..Lanon.33f3a11627b89aa8dd25c907097073e9.4
00000000 l    d  .rodata..Lanon.33f3a11627b89aa8dd25c907097073e9.5	00000000 .rodata..Lanon.33f3a11627b89aa8dd25c907097073e9.5
00000000 l    d  .rodata..Lanon.33f3a11627b89aa8dd25c907097073e9.6	00000000 .rodata..Lanon.33f3a11627b89aa8dd25c907097073e9.6
00000000 l    d  .rodata..Lanon.33f3a11627b89aa8dd25c907097073e9.7	00000000 .rodata..Lanon.33f3a11627b89aa8dd25c907097073e9.7
00000000 l    d  .rodata..Lanon.33f3a11627b89aa8dd25c907097073e9.8	00000000 .rodata..Lanon.33f3a11627b89aa8dd25c907097073e9.8
00000000 l    d  .rodata..Lanon.33f3a11627b89aa8dd25c907097073e9.9	00000000 .rodata..Lanon.33f3a11627b89aa8dd25c907097073e9.9
00000000 l    d  .debug_abbrev	00000000 .debug_abbrev
00000000 l    d  .debug_info	00000000 .debug_info
00000000 l    d  .debug_ranges	00000000 .debug_ranges
00000000 l    d  .debug_frame	00000000 .debug_frame
00000000 l    d  .debug_line	00000000 .debug_line
00000000 g     F .text._ZN42_$LT$$RF$T$u20$as$u20$core..fmt..Debug$GT$3fmt17h0690c51280dc8f21E	00000028 _ZN42_$LT$$RF$T$u20$as$u20$core..fmt..Debug$GT$3fmt17h0690c51280dc8f21E
00000000         *UND*	00000000 _ZN42_$LT$$RF$T$u20$as$u20$core..fmt..Debug$GT$3fmt17h18c0495a2dbbf2d0E
00000000 g     F .text._ZN42_$LT$$RF$T$u20$as$u20$core..fmt..Debug$GT$3fmt17h3451ac6675a8fc21E	00000028 _ZN42_$LT$$RF$T$u20$as$u20$core..fmt..Debug$GT$3fmt17h3451ac6675a8fc21E
00000000 g     F .text._ZN42_$LT$$RF$T$u20$as$u20$core..fmt..Debug$GT$3fmt17h367967656a555ad1E	00000028 _ZN42_$LT$$RF$T$u20$as$u20$core..fmt..Debug$GT$3fmt17h367967656a555ad1E
00000000 g     F .text._ZN42_$LT$$RF$T$u20$as$u20$core..fmt..Debug$GT$3fmt17h3f09e6bacb324456E	00000028 _ZN42_$LT$$RF$T$u20$as$u20$core..fmt..Debug$GT$3fmt17h3f09e6bacb324456E
00000000 g     F .text._ZN42_$LT$$RF$T$u20$as$u20$core..fmt..Debug$GT$3fmt17h408b5df78a496a3aE	00000028 _ZN42_$LT$$RF$T$u20$as$u20$core..fmt..Debug$GT$3fmt17h408b5df78a496a3aE
00000000         *UND*	00000000 _ZN42_$LT$$RF$T$u20$as$u20$core..fmt..Debug$GT$3fmt17h7ca9da276f8c8ee3E
00000000         *UND*	00000000 _ZN42_$LT$$RF$T$u20$as$u20$core..fmt..Debug$GT$3fmt17h8144b902ff78eb2fE
00000000         *UND*	00000000 _ZN42_$LT$$RF$T$u20$as$u20$core..fmt..Debug$GT$3fmt17h8272ca58177595d3E
00000000         *UND*	00000000 _ZN42_$LT$$RF$T$u20$as$u20$core..fmt..Debug$GT$3fmt17h8709e7fb29ff5507E
00000000         *UND*	00000000 _ZN42_$LT$$RF$T$u20$as$u20$core..fmt..Debug$GT$3fmt17h96477941bf30f3a2E
00000000 g     F .text._ZN42_$LT$$RF$T$u20$as$u20$core..fmt..Debug$GT$3fmt17h9f97eba8228f92a1E	00000028 _ZN42_$LT$$RF$T$u20$as$u20$core..fmt..Debug$GT$3fmt17h9f97eba8228f92a1E
00000000 g     F .text._ZN42_$LT$$RF$T$u20$as$u20$core..fmt..Debug$GT$3fmt17hd07287b39cdf4c8aE	00000028 _ZN42_$LT$$RF$T$u20$as$u20$core..fmt..Debug$GT$3fmt17hd07287b39cdf4c8aE
00000000 g     F .text._ZN42_$LT$$RF$T$u20$as$u20$core..fmt..Debug$GT$3fmt17hd573bb3572f63439E	00000028 _ZN42_$LT$$RF$T$u20$as$u20$core..fmt..Debug$GT$3fmt17hd573bb3572f63439E
00000000         *UND*	00000000 _ZN42_$LT$$RF$T$u20$as$u20$core..fmt..Debug$GT$3fmt17he869134b4544e004E
00000000         *UND*	00000000 _ZN42_$LT$$RF$T$u20$as$u20$core..fmt..Debug$GT$3fmt17hf23787e6c6e23e88E
00000000         *UND*	00000000 _ZN4core3fmt8builders10DebugTuple5field17h7da5ac79cde13c49E
00000000         *UND*	00000000 _ZN4core3fmt8builders10DebugTuple6finish17h24d91625b3672e6dE
00000000         *UND*	00000000 _ZN4core3fmt9Formatter11debug_tuple17h793087e8ecab9022E
00000000         *UND*	00000000 _ZN4core3ptr18real_drop_in_place17h27badf271e18d594E
00000000         *UND*	00000000 _ZN4core3ptr18real_drop_in_place17h28de366767d05f01E
00000000         *UND*	00000000 _ZN4core3ptr18real_drop_in_place17h58402320c56cf29dE
00000000         *UND*	00000000 _ZN4core3ptr18real_drop_in_place17hb7fdc9a3b24be3baE
00000000         *UND*	00000000 _ZN4core3ptr18real_drop_in_place17hc32270644e96efcaE
00000000         *UND*	00000000 _ZN4core3ptr18real_drop_in_place17hcb33886135ac6277E
00000000         *UND*	00000000 _ZN4core3ptr18real_drop_in_place17hdf7c2529d7c06479E
00000000         *UND*	00000000 _ZN4core3ptr18real_drop_in_place17hf26e66271739e00dE
00000000 g     F .text._ZN66_$LT$core..option..Option$LT$T$GT$$u20$as$u20$core..fmt..Debug$GT$3fmt17h19104f213502f0cdE	0000009a _ZN66_$LT$core..option..Option$LT$T$GT$$u20$as$u20$core..fmt..Debug$GT$3fmt17h19104f213502f0cdE
00000000 g     F .text._ZN66_$LT$core..option..Option$LT$T$GT$$u20$as$u20$core..fmt..Debug$GT$3fmt17h26377db1a6cbb4d0E	0000009a _ZN66_$LT$core..option..Option$LT$T$GT$$u20$as$u20$core..fmt..Debug$GT$3fmt17h26377db1a6cbb4d0E
00000000 g     F .text._ZN66_$LT$core..option..Option$LT$T$GT$$u20$as$u20$core..fmt..Debug$GT$3fmt17h489ac8633bf18069E	0000009a _ZN66_$LT$core..option..Option$LT$T$GT$$u20$as$u20$core..fmt..Debug$GT$3fmt17h489ac8633bf18069E
00000000 g     F .text._ZN66_$LT$core..option..Option$LT$T$GT$$u20$as$u20$core..fmt..Debug$GT$3fmt17h4f06df10e6982bb8E	0000009a _ZN66_$LT$core..option..Option$LT$T$GT$$u20$as$u20$core..fmt..Debug$GT$3fmt17h4f06df10e6982bb8E
00000000 g     F .text._ZN66_$LT$core..option..Option$LT$T$GT$$u20$as$u20$core..fmt..Debug$GT$3fmt17h67f01eadf89cf374E	0000009a _ZN66_$LT$core..option..Option$LT$T$GT$$u20$as$u20$core..fmt..Debug$GT$3fmt17h67f01eadf89cf374E
00000000 g     F .text._ZN66_$LT$core..option..Option$LT$T$GT$$u20$as$u20$core..fmt..Debug$GT$3fmt17h7b45e21f4da58d61E	0000009a _ZN66_$LT$core..option..Option$LT$T$GT$$u20$as$u20$core..fmt..Debug$GT$3fmt17h7b45e21f4da58d61E
00000000 g     F .text._ZN66_$LT$core..option..Option$LT$T$GT$$u20$as$u20$core..fmt..Debug$GT$3fmt17hd2c5f68ae147ca04E	0000009a _ZN66_$LT$core..option..Option$LT$T$GT$$u20$as$u20$core..fmt..Debug$GT$3fmt17hd2c5f68ae147ca04E
00000000 g     F .text._ZN66_$LT$core..option..Option$LT$T$GT$$u20$as$u20$core..fmt..Debug$GT$3fmt17hf69534630fadeb29E	0000009a _ZN66_$LT$core..option..Option$LT$T$GT$$u20$as$u20$core..fmt..Debug$GT$3fmt17hf69534630fadeb29E



Disassembly of section .text._ZN42_$LT$$RF$T$u20$as$u20$core..fmt..Debug$GT$3fmt17h0690c51280dc8f21E:

00000000 <_ZN42_$LT$$RF$T$u20$as$u20$core..fmt..Debug$GT$3fmt17h0690c51280dc8f21E>:
_ZN42_$LT$$RF$T$u20$as$u20$core..fmt..Debug$GT$3fmt17h0690c51280dc8f21E():
/rustc/50a0defd5a93523067ef239936cc2e0755220904/src/libcore/fmt/mod.rs:1914
   0:	b580      	push	{r7, lr}
   2:	b086      	sub	sp, #24
   4:	460a      	mov	r2, r1
   6:	4603      	mov	r3, r0
   8:	9004      	str	r0, [sp, #16]
   a:	9105      	str	r1, [sp, #20]
   c:	9804      	ldr	r0, [sp, #16]
   e:	6800      	ldr	r0, [r0, #0]
  10:	9905      	ldr	r1, [sp, #20]
  12:	9203      	str	r2, [sp, #12]
  14:	9302      	str	r3, [sp, #8]
  16:	f7ff fffe 	bl	0 <_ZN42_$LT$$RF$T$u20$as$u20$core..fmt..Debug$GT$3fmt17h0690c51280dc8f21E>
  1a:	9001      	str	r0, [sp, #4]
  1c:	e7ff      	b.n	1e <_ZN42_$LT$$RF$T$u20$as$u20$core..fmt..Debug$GT$3fmt17h0690c51280dc8f21E+0x1e>
  1e:	9801      	ldr	r0, [sp, #4]
  20:	f000 0001 	and.w	r0, r0, #1
  24:	b006      	add	sp, #24
  26:	bd80      	pop	{r7, pc}

Disassembly of section .text._ZN42_$LT$$RF$T$u20$as$u20$core..fmt..Debug$GT$3fmt17h3451ac6675a8fc21E:

00000000 <_ZN42_$LT$$RF$T$u20$as$u20$core..fmt..Debug$GT$3fmt17h3451ac6675a8fc21E>:
_ZN42_$LT$$RF$T$u20$as$u20$core..fmt..Debug$GT$3fmt17h3451ac6675a8fc21E():
/rustc/50a0defd5a93523067ef239936cc2e0755220904/src/libcore/fmt/mod.rs:1914
   0:	b580      	push	{r7, lr}
   2:	b086      	sub	sp, #24
   4:	460a      	mov	r2, r1
   6:	4603      	mov	r3, r0
   8:	9004      	str	r0, [sp, #16]
   a:	9105      	str	r1, [sp, #20]
   c:	9804      	ldr	r0, [sp, #16]
   e:	6800      	ldr	r0, [r0, #0]
  10:	9905      	ldr	r1, [sp, #20]
  12:	9203      	str	r2, [sp, #12]
  14:	9302      	str	r3, [sp, #8]
  16:	f7ff fffe 	bl	0 <_ZN42_$LT$$RF$T$u20$as$u20$core..fmt..Debug$GT$3fmt17h3451ac6675a8fc21E>
  1a:	9001      	str	r0, [sp, #4]
  1c:	e7ff      	b.n	1e <_ZN42_$LT$$RF$T$u20$as$u20$core..fmt..Debug$GT$3fmt17h3451ac6675a8fc21E+0x1e>
  1e:	9801      	ldr	r0, [sp, #4]
  20:	f000 0001 	and.w	r0, r0, #1
  24:	b006      	add	sp, #24
  26:	bd80      	pop	{r7, pc}

Disassembly of section .text._ZN42_$LT$$RF$T$u20$as$u20$core..fmt..Debug$GT$3fmt17h367967656a555ad1E:

00000000 <_ZN42_$LT$$RF$T$u20$as$u20$core..fmt..Debug$GT$3fmt17h367967656a555ad1E>:
_ZN42_$LT$$RF$T$u20$as$u20$core..fmt..Debug$GT$3fmt17h367967656a555ad1E():
/rustc/50a0defd5a93523067ef239936cc2e0755220904/src/libcore/fmt/mod.rs:1914
   0:	b580      	push	{r7, lr}
   2:	b086      	sub	sp, #24
   4:	460a      	mov	r2, r1
   6:	4603      	mov	r3, r0
   8:	9004      	str	r0, [sp, #16]
   a:	9105      	str	r1, [sp, #20]
   c:	9804      	ldr	r0, [sp, #16]
   e:	6800      	ldr	r0, [r0, #0]
  10:	9905      	ldr	r1, [sp, #20]
  12:	9203      	str	r2, [sp, #12]
  14:	9302      	str	r3, [sp, #8]
  16:	f7ff fffe 	bl	0 <_ZN42_$LT$$RF$T$u20$as$u20$core..fmt..Debug$GT$3fmt17h367967656a555ad1E>
  1a:	9001      	str	r0, [sp, #4]
  1c:	e7ff      	b.n	1e <_ZN42_$LT$$RF$T$u20$as$u20$core..fmt..Debug$GT$3fmt17h367967656a555ad1E+0x1e>
  1e:	9801      	ldr	r0, [sp, #4]
  20:	f000 0001 	and.w	r0, r0, #1
  24:	b006      	add	sp, #24
  26:	bd80      	pop	{r7, pc}

Disassembly of section .text._ZN42_$LT$$RF$T$u20$as$u20$core..fmt..Debug$GT$3fmt17h3f09e6bacb324456E:

00000000 <_ZN42_$LT$$RF$T$u20$as$u20$core..fmt..Debug$GT$3fmt17h3f09e6bacb324456E>:
_ZN42_$LT$$RF$T$u20$as$u20$core..fmt..Debug$GT$3fmt17h3f09e6bacb324456E():
/rustc/50a0defd5a93523067ef239936cc2e0755220904/src/libcore/fmt/mod.rs:1914
   0:	b580      	push	{r7, lr}
   2:	b086      	sub	sp, #24
   4:	460a      	mov	r2, r1
   6:	4603      	mov	r3, r0
   8:	9004      	str	r0, [sp, #16]
   a:	9105      	str	r1, [sp, #20]
   c:	9804      	ldr	r0, [sp, #16]
   e:	6800      	ldr	r0, [r0, #0]
  10:	9905      	ldr	r1, [sp, #20]
  12:	9203      	str	r2, [sp, #12]
  14:	9302      	str	r3, [sp, #8]
  16:	f7ff fffe 	bl	0 <_ZN42_$LT$$RF$T$u20$as$u20$core..fmt..Debug$GT$3fmt17h3f09e6bacb324456E>
  1a:	9001      	str	r0, [sp, #4]
  1c:	e7ff      	b.n	1e <_ZN42_$LT$$RF$T$u20$as$u20$core..fmt..Debug$GT$3fmt17h3f09e6bacb324456E+0x1e>
  1e:	9801      	ldr	r0, [sp, #4]
  20:	f000 0001 	and.w	r0, r0, #1
  24:	b006      	add	sp, #24
  26:	bd80      	pop	{r7, pc}

Disassembly of section .text._ZN42_$LT$$RF$T$u20$as$u20$core..fmt..Debug$GT$3fmt17h408b5df78a496a3aE:

00000000 <_ZN42_$LT$$RF$T$u20$as$u20$core..fmt..Debug$GT$3fmt17h408b5df78a496a3aE>:
_ZN42_$LT$$RF$T$u20$as$u20$core..fmt..Debug$GT$3fmt17h408b5df78a496a3aE():
/rustc/50a0defd5a93523067ef239936cc2e0755220904/src/libcore/fmt/mod.rs:1914
   0:	b580      	push	{r7, lr}
   2:	b086      	sub	sp, #24
   4:	460a      	mov	r2, r1
   6:	4603      	mov	r3, r0
   8:	9004      	str	r0, [sp, #16]
   a:	9105      	str	r1, [sp, #20]
   c:	9804      	ldr	r0, [sp, #16]
   e:	6800      	ldr	r0, [r0, #0]
  10:	9905      	ldr	r1, [sp, #20]
  12:	9203      	str	r2, [sp, #12]
  14:	9302      	str	r3, [sp, #8]
  16:	f7ff fffe 	bl	0 <_ZN42_$LT$$RF$T$u20$as$u20$core..fmt..Debug$GT$3fmt17h408b5df78a496a3aE>
  1a:	9001      	str	r0, [sp, #4]
  1c:	e7ff      	b.n	1e <_ZN42_$LT$$RF$T$u20$as$u20$core..fmt..Debug$GT$3fmt17h408b5df78a496a3aE+0x1e>
  1e:	9801      	ldr	r0, [sp, #4]
  20:	f000 0001 	and.w	r0, r0, #1
  24:	b006      	add	sp, #24
  26:	bd80      	pop	{r7, pc}

Disassembly of section .text._ZN42_$LT$$RF$T$u20$as$u20$core..fmt..Debug$GT$3fmt17h9f97eba8228f92a1E:

00000000 <_ZN42_$LT$$RF$T$u20$as$u20$core..fmt..Debug$GT$3fmt17h9f97eba8228f92a1E>:
_ZN42_$LT$$RF$T$u20$as$u20$core..fmt..Debug$GT$3fmt17h9f97eba8228f92a1E():
/rustc/50a0defd5a93523067ef239936cc2e0755220904/src/libcore/fmt/mod.rs:1914
   0:	b580      	push	{r7, lr}
   2:	b086      	sub	sp, #24
   4:	460a      	mov	r2, r1
   6:	4603      	mov	r3, r0
   8:	9004      	str	r0, [sp, #16]
   a:	9105      	str	r1, [sp, #20]
   c:	9804      	ldr	r0, [sp, #16]
   e:	6800      	ldr	r0, [r0, #0]
  10:	9905      	ldr	r1, [sp, #20]
  12:	9203      	str	r2, [sp, #12]
  14:	9302      	str	r3, [sp, #8]
  16:	f7ff fffe 	bl	0 <_ZN42_$LT$$RF$T$u20$as$u20$core..fmt..Debug$GT$3fmt17h9f97eba8228f92a1E>
  1a:	9001      	str	r0, [sp, #4]
  1c:	e7ff      	b.n	1e <_ZN42_$LT$$RF$T$u20$as$u20$core..fmt..Debug$GT$3fmt17h9f97eba8228f92a1E+0x1e>
  1e:	9801      	ldr	r0, [sp, #4]
  20:	f000 0001 	and.w	r0, r0, #1
  24:	b006      	add	sp, #24
  26:	bd80      	pop	{r7, pc}

Disassembly of section .text._ZN42_$LT$$RF$T$u20$as$u20$core..fmt..Debug$GT$3fmt17hd07287b39cdf4c8aE:

00000000 <_ZN42_$LT$$RF$T$u20$as$u20$core..fmt..Debug$GT$3fmt17hd07287b39cdf4c8aE>:
_ZN42_$LT$$RF$T$u20$as$u20$core..fmt..Debug$GT$3fmt17hd07287b39cdf4c8aE():
/rustc/50a0defd5a93523067ef239936cc2e0755220904/src/libcore/fmt/mod.rs:1914
   0:	b580      	push	{r7, lr}
   2:	b086      	sub	sp, #24
   4:	460a      	mov	r2, r1
   6:	4603      	mov	r3, r0
   8:	9004      	str	r0, [sp, #16]
   a:	9105      	str	r1, [sp, #20]
   c:	9804      	ldr	r0, [sp, #16]
   e:	6800      	ldr	r0, [r0, #0]
  10:	9905      	ldr	r1, [sp, #20]
  12:	9203      	str	r2, [sp, #12]
  14:	9302      	str	r3, [sp, #8]
  16:	f7ff fffe 	bl	0 <_ZN42_$LT$$RF$T$u20$as$u20$core..fmt..Debug$GT$3fmt17hd07287b39cdf4c8aE>
  1a:	9001      	str	r0, [sp, #4]
  1c:	e7ff      	b.n	1e <_ZN42_$LT$$RF$T$u20$as$u20$core..fmt..Debug$GT$3fmt17hd07287b39cdf4c8aE+0x1e>
  1e:	9801      	ldr	r0, [sp, #4]
  20:	f000 0001 	and.w	r0, r0, #1
  24:	b006      	add	sp, #24
  26:	bd80      	pop	{r7, pc}

Disassembly of section .text._ZN42_$LT$$RF$T$u20$as$u20$core..fmt..Debug$GT$3fmt17hd573bb3572f63439E:

00000000 <_ZN42_$LT$$RF$T$u20$as$u20$core..fmt..Debug$GT$3fmt17hd573bb3572f63439E>:
_ZN42_$LT$$RF$T$u20$as$u20$core..fmt..Debug$GT$3fmt17hd573bb3572f63439E():
/rustc/50a0defd5a93523067ef239936cc2e0755220904/src/libcore/fmt/mod.rs:1914
   0:	b580      	push	{r7, lr}
   2:	b086      	sub	sp, #24
   4:	460a      	mov	r2, r1
   6:	4603      	mov	r3, r0
   8:	9004      	str	r0, [sp, #16]
   a:	9105      	str	r1, [sp, #20]
   c:	9804      	ldr	r0, [sp, #16]
   e:	6800      	ldr	r0, [r0, #0]
  10:	9905      	ldr	r1, [sp, #20]
  12:	9203      	str	r2, [sp, #12]
  14:	9302      	str	r3, [sp, #8]
  16:	f7ff fffe 	bl	0 <_ZN42_$LT$$RF$T$u20$as$u20$core..fmt..Debug$GT$3fmt17hd573bb3572f63439E>
  1a:	9001      	str	r0, [sp, #4]
  1c:	e7ff      	b.n	1e <_ZN42_$LT$$RF$T$u20$as$u20$core..fmt..Debug$GT$3fmt17hd573bb3572f63439E+0x1e>
  1e:	9801      	ldr	r0, [sp, #4]
  20:	f000 0001 	and.w	r0, r0, #1
  24:	b006      	add	sp, #24
  26:	bd80      	pop	{r7, pc}

Disassembly of section .text._ZN66_$LT$core..option..Option$LT$T$GT$$u20$as$u20$core..fmt..Debug$GT$3fmt17h19104f213502f0cdE:

00000000 <_ZN66_$LT$core..option..Option$LT$T$GT$$u20$as$u20$core..fmt..Debug$GT$3fmt17h19104f213502f0cdE>:
_ZN66_$LT$core..option..Option$LT$T$GT$$u20$as$u20$core..fmt..Debug$GT$3fmt17h19104f213502f0cdE():
/rustc/50a0defd5a93523067ef239936cc2e0755220904/src/libcore/option.rs:148
   0:	b580      	push	{r7, lr}
   2:	b090      	sub	sp, #64	; 0x40
   4:	460a      	mov	r2, r1
   6:	4603      	mov	r3, r0
   8:	9004      	str	r0, [sp, #16]
   a:	9105      	str	r1, [sp, #20]
   c:	9804      	ldr	r0, [sp, #16]
   e:	9007      	str	r0, [sp, #28]
  10:	9807      	ldr	r0, [sp, #28]
  12:	6800      	ldr	r0, [r0, #0]
  14:	2800      	cmp	r0, #0
  16:	4601      	mov	r1, r0
  18:	bf18      	it	ne
  1a:	2101      	movne	r1, #1
  1c:	2800      	cmp	r0, #0
  1e:	9203      	str	r2, [sp, #12]
  20:	9302      	str	r3, [sp, #8]
  22:	9101      	str	r1, [sp, #4]
  24:	d005      	beq.n	32 <_ZN66_$LT$core..option..Option$LT$T$GT$$u20$as$u20$core..fmt..Debug$GT$3fmt17h19104f213502f0cdE+0x32>
  26:	e7ff      	b.n	28 <_ZN66_$LT$core..option..Option$LT$T$GT$$u20$as$u20$core..fmt..Debug$GT$3fmt17h19104f213502f0cdE+0x28>
  28:	9801      	ldr	r0, [sp, #4]
  2a:	2801      	cmp	r0, #1
  2c:	d012      	beq.n	54 <_ZN66_$LT$core..option..Option$LT$T$GT$$u20$as$u20$core..fmt..Debug$GT$3fmt17h19104f213502f0cdE+0x54>
  2e:	e7ff      	b.n	30 <_ZN66_$LT$core..option..Option$LT$T$GT$$u20$as$u20$core..fmt..Debug$GT$3fmt17h19104f213502f0cdE+0x30>
  30:	defe      	udf	#254	; 0xfe
  32:	9905      	ldr	r1, [sp, #20]
  34:	f240 0200 	movw	r2, #0
  38:	f2c0 0200 	movt	r2, #0
  3c:	a808      	add	r0, sp, #32
  3e:	2304      	movs	r3, #4
  40:	f7ff fffe 	bl	0 <_ZN4core3fmt9Formatter11debug_tuple17h793087e8ecab9022E>
  44:	e7ff      	b.n	46 <_ZN66_$LT$core..option..Option$LT$T$GT$$u20$as$u20$core..fmt..Debug$GT$3fmt17h19104f213502f0cdE+0x46>
  46:	a808      	add	r0, sp, #32
  48:	f7ff fffe 	bl	0 <_ZN4core3fmt8builders10DebugTuple6finish17h24d91625b3672e6dE>
  4c:	f88d 001b 	strb.w	r0, [sp, #27]
  50:	e7ff      	b.n	52 <_ZN66_$LT$core..option..Option$LT$T$GT$$u20$as$u20$core..fmt..Debug$GT$3fmt17h19104f213502f0cdE+0x52>
  52:	e01e      	b.n	92 <_ZN66_$LT$core..option..Option$LT$T$GT$$u20$as$u20$core..fmt..Debug$GT$3fmt17h19104f213502f0cdE+0x92>
/rustc/50a0defd5a93523067ef239936cc2e0755220904/src/libcore/option.rs:156
  54:	9807      	ldr	r0, [sp, #28]
  56:	900b      	str	r0, [sp, #44]	; 0x2c
/rustc/50a0defd5a93523067ef239936cc2e0755220904/src/libcore/option.rs:148
  58:	9905      	ldr	r1, [sp, #20]
  5a:	f240 0200 	movw	r2, #0
  5e:	f2c0 0200 	movt	r2, #0
  62:	a80c      	add	r0, sp, #48	; 0x30
  64:	2304      	movs	r3, #4
  66:	f7ff fffe 	bl	0 <_ZN4core3fmt9Formatter11debug_tuple17h793087e8ecab9022E>
  6a:	e7ff      	b.n	6c <_ZN66_$LT$core..option..Option$LT$T$GT$$u20$as$u20$core..fmt..Debug$GT$3fmt17h19104f213502f0cdE+0x6c>
/rustc/50a0defd5a93523067ef239936cc2e0755220904/src/libcore/option.rs:156
  6c:	980b      	ldr	r0, [sp, #44]	; 0x2c
  6e:	900f      	str	r0, [sp, #60]	; 0x3c
/rustc/50a0defd5a93523067ef239936cc2e0755220904/src/libcore/option.rs:148
  70:	f240 0200 	movw	r2, #0
  74:	f2c0 0200 	movt	r2, #0
  78:	a80c      	add	r0, sp, #48	; 0x30
  7a:	a90f      	add	r1, sp, #60	; 0x3c
  7c:	f7ff fffe 	bl	0 <_ZN4core3fmt8builders10DebugTuple5field17h7da5ac79cde13c49E>
  80:	9000      	str	r0, [sp, #0]
  82:	e7ff      	b.n	84 <_ZN66_$LT$core..option..Option$LT$T$GT$$u20$as$u20$core..fmt..Debug$GT$3fmt17h19104f213502f0cdE+0x84>
  84:	a80c      	add	r0, sp, #48	; 0x30
  86:	f7ff fffe 	bl	0 <_ZN4core3fmt8builders10DebugTuple6finish17h24d91625b3672e6dE>
  8a:	f88d 001b 	strb.w	r0, [sp, #27]
  8e:	e7ff      	b.n	90 <_ZN66_$LT$core..option..Option$LT$T$GT$$u20$as$u20$core..fmt..Debug$GT$3fmt17h19104f213502f0cdE+0x90>
  90:	e7ff      	b.n	92 <_ZN66_$LT$core..option..Option$LT$T$GT$$u20$as$u20$core..fmt..Debug$GT$3fmt17h19104f213502f0cdE+0x92>
  92:	f89d 001b 	ldrb.w	r0, [sp, #27]
  96:	b010      	add	sp, #64	; 0x40
  98:	bd80      	pop	{r7, pc}

Disassembly of section .text._ZN66_$LT$core..option..Option$LT$T$GT$$u20$as$u20$core..fmt..Debug$GT$3fmt17h26377db1a6cbb4d0E:

00000000 <_ZN66_$LT$core..option..Option$LT$T$GT$$u20$as$u20$core..fmt..Debug$GT$3fmt17h26377db1a6cbb4d0E>:
_ZN66_$LT$core..option..Option$LT$T$GT$$u20$as$u20$core..fmt..Debug$GT$3fmt17h26377db1a6cbb4d0E():
/rustc/50a0defd5a93523067ef239936cc2e0755220904/src/libcore/option.rs:148
   0:	b580      	push	{r7, lr}
   2:	b090      	sub	sp, #64	; 0x40
   4:	460a      	mov	r2, r1
   6:	4603      	mov	r3, r0
   8:	9004      	str	r0, [sp, #16]
   a:	9105      	str	r1, [sp, #20]
   c:	9804      	ldr	r0, [sp, #16]
   e:	9007      	str	r0, [sp, #28]
  10:	9807      	ldr	r0, [sp, #28]
  12:	6800      	ldr	r0, [r0, #0]
  14:	2800      	cmp	r0, #0
  16:	4601      	mov	r1, r0
  18:	bf18      	it	ne
  1a:	2101      	movne	r1, #1
  1c:	2800      	cmp	r0, #0
  1e:	9203      	str	r2, [sp, #12]
  20:	9302      	str	r3, [sp, #8]
  22:	9101      	str	r1, [sp, #4]
  24:	d005      	beq.n	32 <_ZN66_$LT$core..option..Option$LT$T$GT$$u20$as$u20$core..fmt..Debug$GT$3fmt17h26377db1a6cbb4d0E+0x32>
  26:	e7ff      	b.n	28 <_ZN66_$LT$core..option..Option$LT$T$GT$$u20$as$u20$core..fmt..Debug$GT$3fmt17h26377db1a6cbb4d0E+0x28>
  28:	9801      	ldr	r0, [sp, #4]
  2a:	2801      	cmp	r0, #1
  2c:	d012      	beq.n	54 <_ZN66_$LT$core..option..Option$LT$T$GT$$u20$as$u20$core..fmt..Debug$GT$3fmt17h26377db1a6cbb4d0E+0x54>
  2e:	e7ff      	b.n	30 <_ZN66_$LT$core..option..Option$LT$T$GT$$u20$as$u20$core..fmt..Debug$GT$3fmt17h26377db1a6cbb4d0E+0x30>
  30:	defe      	udf	#254	; 0xfe
  32:	9905      	ldr	r1, [sp, #20]
  34:	f240 0200 	movw	r2, #0
  38:	f2c0 0200 	movt	r2, #0
  3c:	a808      	add	r0, sp, #32
  3e:	2304      	movs	r3, #4
  40:	f7ff fffe 	bl	0 <_ZN4core3fmt9Formatter11debug_tuple17h793087e8ecab9022E>
  44:	e7ff      	b.n	46 <_ZN66_$LT$core..option..Option$LT$T$GT$$u20$as$u20$core..fmt..Debug$GT$3fmt17h26377db1a6cbb4d0E+0x46>
  46:	a808      	add	r0, sp, #32
  48:	f7ff fffe 	bl	0 <_ZN4core3fmt8builders10DebugTuple6finish17h24d91625b3672e6dE>
  4c:	f88d 001b 	strb.w	r0, [sp, #27]
  50:	e7ff      	b.n	52 <_ZN66_$LT$core..option..Option$LT$T$GT$$u20$as$u20$core..fmt..Debug$GT$3fmt17h26377db1a6cbb4d0E+0x52>
  52:	e01e      	b.n	92 <_ZN66_$LT$core..option..Option$LT$T$GT$$u20$as$u20$core..fmt..Debug$GT$3fmt17h26377db1a6cbb4d0E+0x92>
/rustc/50a0defd5a93523067ef239936cc2e0755220904/src/libcore/option.rs:156
  54:	9807      	ldr	r0, [sp, #28]
  56:	900b      	str	r0, [sp, #44]	; 0x2c
/rustc/50a0defd5a93523067ef239936cc2e0755220904/src/libcore/option.rs:148
  58:	9905      	ldr	r1, [sp, #20]
  5a:	f240 0200 	movw	r2, #0
  5e:	f2c0 0200 	movt	r2, #0
  62:	a80c      	add	r0, sp, #48	; 0x30
  64:	2304      	movs	r3, #4
  66:	f7ff fffe 	bl	0 <_ZN4core3fmt9Formatter11debug_tuple17h793087e8ecab9022E>
  6a:	e7ff      	b.n	6c <_ZN66_$LT$core..option..Option$LT$T$GT$$u20$as$u20$core..fmt..Debug$GT$3fmt17h26377db1a6cbb4d0E+0x6c>
/rustc/50a0defd5a93523067ef239936cc2e0755220904/src/libcore/option.rs:156
  6c:	980b      	ldr	r0, [sp, #44]	; 0x2c
  6e:	900f      	str	r0, [sp, #60]	; 0x3c
/rustc/50a0defd5a93523067ef239936cc2e0755220904/src/libcore/option.rs:148
  70:	f240 0200 	movw	r2, #0
  74:	f2c0 0200 	movt	r2, #0
  78:	a80c      	add	r0, sp, #48	; 0x30
  7a:	a90f      	add	r1, sp, #60	; 0x3c
  7c:	f7ff fffe 	bl	0 <_ZN4core3fmt8builders10DebugTuple5field17h7da5ac79cde13c49E>
  80:	9000      	str	r0, [sp, #0]
  82:	e7ff      	b.n	84 <_ZN66_$LT$core..option..Option$LT$T$GT$$u20$as$u20$core..fmt..Debug$GT$3fmt17h26377db1a6cbb4d0E+0x84>
  84:	a80c      	add	r0, sp, #48	; 0x30
  86:	f7ff fffe 	bl	0 <_ZN4core3fmt8builders10DebugTuple6finish17h24d91625b3672e6dE>
  8a:	f88d 001b 	strb.w	r0, [sp, #27]
  8e:	e7ff      	b.n	90 <_ZN66_$LT$core..option..Option$LT$T$GT$$u20$as$u20$core..fmt..Debug$GT$3fmt17h26377db1a6cbb4d0E+0x90>
  90:	e7ff      	b.n	92 <_ZN66_$LT$core..option..Option$LT$T$GT$$u20$as$u20$core..fmt..Debug$GT$3fmt17h26377db1a6cbb4d0E+0x92>
  92:	f89d 001b 	ldrb.w	r0, [sp, #27]
  96:	b010      	add	sp, #64	; 0x40
  98:	bd80      	pop	{r7, pc}

Disassembly of section .text._ZN66_$LT$core..option..Option$LT$T$GT$$u20$as$u20$core..fmt..Debug$GT$3fmt17h489ac8633bf18069E:

00000000 <_ZN66_$LT$core..option..Option$LT$T$GT$$u20$as$u20$core..fmt..Debug$GT$3fmt17h489ac8633bf18069E>:
_ZN66_$LT$core..option..Option$LT$T$GT$$u20$as$u20$core..fmt..Debug$GT$3fmt17h489ac8633bf18069E():
/rustc/50a0defd5a93523067ef239936cc2e0755220904/src/libcore/option.rs:148
   0:	b580      	push	{r7, lr}
   2:	b090      	sub	sp, #64	; 0x40
   4:	460a      	mov	r2, r1
   6:	4603      	mov	r3, r0
   8:	9004      	str	r0, [sp, #16]
   a:	9105      	str	r1, [sp, #20]
   c:	9804      	ldr	r0, [sp, #16]
   e:	9007      	str	r0, [sp, #28]
  10:	9807      	ldr	r0, [sp, #28]
  12:	6800      	ldr	r0, [r0, #0]
  14:	2800      	cmp	r0, #0
  16:	4601      	mov	r1, r0
  18:	bf18      	it	ne
  1a:	2101      	movne	r1, #1
  1c:	2800      	cmp	r0, #0
  1e:	9203      	str	r2, [sp, #12]
  20:	9302      	str	r3, [sp, #8]
  22:	9101      	str	r1, [sp, #4]
  24:	d005      	beq.n	32 <_ZN66_$LT$core..option..Option$LT$T$GT$$u20$as$u20$core..fmt..Debug$GT$3fmt17h489ac8633bf18069E+0x32>
  26:	e7ff      	b.n	28 <_ZN66_$LT$core..option..Option$LT$T$GT$$u20$as$u20$core..fmt..Debug$GT$3fmt17h489ac8633bf18069E+0x28>
  28:	9801      	ldr	r0, [sp, #4]
  2a:	2801      	cmp	r0, #1
  2c:	d012      	beq.n	54 <_ZN66_$LT$core..option..Option$LT$T$GT$$u20$as$u20$core..fmt..Debug$GT$3fmt17h489ac8633bf18069E+0x54>
  2e:	e7ff      	b.n	30 <_ZN66_$LT$core..option..Option$LT$T$GT$$u20$as$u20$core..fmt..Debug$GT$3fmt17h489ac8633bf18069E+0x30>
  30:	defe      	udf	#254	; 0xfe
  32:	9905      	ldr	r1, [sp, #20]
  34:	f240 0200 	movw	r2, #0
  38:	f2c0 0200 	movt	r2, #0
  3c:	a808      	add	r0, sp, #32
  3e:	2304      	movs	r3, #4
  40:	f7ff fffe 	bl	0 <_ZN4core3fmt9Formatter11debug_tuple17h793087e8ecab9022E>
  44:	e7ff      	b.n	46 <_ZN66_$LT$core..option..Option$LT$T$GT$$u20$as$u20$core..fmt..Debug$GT$3fmt17h489ac8633bf18069E+0x46>
  46:	a808      	add	r0, sp, #32
  48:	f7ff fffe 	bl	0 <_ZN4core3fmt8builders10DebugTuple6finish17h24d91625b3672e6dE>
  4c:	f88d 001b 	strb.w	r0, [sp, #27]
  50:	e7ff      	b.n	52 <_ZN66_$LT$core..option..Option$LT$T$GT$$u20$as$u20$core..fmt..Debug$GT$3fmt17h489ac8633bf18069E+0x52>
  52:	e01e      	b.n	92 <_ZN66_$LT$core..option..Option$LT$T$GT$$u20$as$u20$core..fmt..Debug$GT$3fmt17h489ac8633bf18069E+0x92>
/rustc/50a0defd5a93523067ef239936cc2e0755220904/src/libcore/option.rs:156
  54:	9807      	ldr	r0, [sp, #28]
  56:	900b      	str	r0, [sp, #44]	; 0x2c
/rustc/50a0defd5a93523067ef239936cc2e0755220904/src/libcore/option.rs:148
  58:	9905      	ldr	r1, [sp, #20]
  5a:	f240 0200 	movw	r2, #0
  5e:	f2c0 0200 	movt	r2, #0
  62:	a80c      	add	r0, sp, #48	; 0x30
  64:	2304      	movs	r3, #4
  66:	f7ff fffe 	bl	0 <_ZN4core3fmt9Formatter11debug_tuple17h793087e8ecab9022E>
  6a:	e7ff      	b.n	6c <_ZN66_$LT$core..option..Option$LT$T$GT$$u20$as$u20$core..fmt..Debug$GT$3fmt17h489ac8633bf18069E+0x6c>
/rustc/50a0defd5a93523067ef239936cc2e0755220904/src/libcore/option.rs:156
  6c:	980b      	ldr	r0, [sp, #44]	; 0x2c
  6e:	900f      	str	r0, [sp, #60]	; 0x3c
/rustc/50a0defd5a93523067ef239936cc2e0755220904/src/libcore/option.rs:148
  70:	f240 0200 	movw	r2, #0
  74:	f2c0 0200 	movt	r2, #0
  78:	a80c      	add	r0, sp, #48	; 0x30
  7a:	a90f      	add	r1, sp, #60	; 0x3c
  7c:	f7ff fffe 	bl	0 <_ZN4core3fmt8builders10DebugTuple5field17h7da5ac79cde13c49E>
  80:	9000      	str	r0, [sp, #0]
  82:	e7ff      	b.n	84 <_ZN66_$LT$core..option..Option$LT$T$GT$$u20$as$u20$core..fmt..Debug$GT$3fmt17h489ac8633bf18069E+0x84>
  84:	a80c      	add	r0, sp, #48	; 0x30
  86:	f7ff fffe 	bl	0 <_ZN4core3fmt8builders10DebugTuple6finish17h24d91625b3672e6dE>
  8a:	f88d 001b 	strb.w	r0, [sp, #27]
  8e:	e7ff      	b.n	90 <_ZN66_$LT$core..option..Option$LT$T$GT$$u20$as$u20$core..fmt..Debug$GT$3fmt17h489ac8633bf18069E+0x90>
  90:	e7ff      	b.n	92 <_ZN66_$LT$core..option..Option$LT$T$GT$$u20$as$u20$core..fmt..Debug$GT$3fmt17h489ac8633bf18069E+0x92>
  92:	f89d 001b 	ldrb.w	r0, [sp, #27]
  96:	b010      	add	sp, #64	; 0x40
  98:	bd80      	pop	{r7, pc}

Disassembly of section .text._ZN66_$LT$core..option..Option$LT$T$GT$$u20$as$u20$core..fmt..Debug$GT$3fmt17h4f06df10e6982bb8E:

00000000 <_ZN66_$LT$core..option..Option$LT$T$GT$$u20$as$u20$core..fmt..Debug$GT$3fmt17h4f06df10e6982bb8E>:
_ZN66_$LT$core..option..Option$LT$T$GT$$u20$as$u20$core..fmt..Debug$GT$3fmt17h4f06df10e6982bb8E():
/rustc/50a0defd5a93523067ef239936cc2e0755220904/src/libcore/option.rs:148
   0:	b580      	push	{r7, lr}
   2:	b090      	sub	sp, #64	; 0x40
   4:	460a      	mov	r2, r1
   6:	4603      	mov	r3, r0
   8:	9004      	str	r0, [sp, #16]
   a:	9105      	str	r1, [sp, #20]
   c:	9804      	ldr	r0, [sp, #16]
   e:	9007      	str	r0, [sp, #28]
  10:	9807      	ldr	r0, [sp, #28]
  12:	6800      	ldr	r0, [r0, #0]
  14:	2800      	cmp	r0, #0
  16:	4601      	mov	r1, r0
  18:	bf18      	it	ne
  1a:	2101      	movne	r1, #1
  1c:	2800      	cmp	r0, #0
  1e:	9203      	str	r2, [sp, #12]
  20:	9302      	str	r3, [sp, #8]
  22:	9101      	str	r1, [sp, #4]
  24:	d005      	beq.n	32 <_ZN66_$LT$core..option..Option$LT$T$GT$$u20$as$u20$core..fmt..Debug$GT$3fmt17h4f06df10e6982bb8E+0x32>
  26:	e7ff      	b.n	28 <_ZN66_$LT$core..option..Option$LT$T$GT$$u20$as$u20$core..fmt..Debug$GT$3fmt17h4f06df10e6982bb8E+0x28>
  28:	9801      	ldr	r0, [sp, #4]
  2a:	2801      	cmp	r0, #1
  2c:	d012      	beq.n	54 <_ZN66_$LT$core..option..Option$LT$T$GT$$u20$as$u20$core..fmt..Debug$GT$3fmt17h4f06df10e6982bb8E+0x54>
  2e:	e7ff      	b.n	30 <_ZN66_$LT$core..option..Option$LT$T$GT$$u20$as$u20$core..fmt..Debug$GT$3fmt17h4f06df10e6982bb8E+0x30>
  30:	defe      	udf	#254	; 0xfe
  32:	9905      	ldr	r1, [sp, #20]
  34:	f240 0200 	movw	r2, #0
  38:	f2c0 0200 	movt	r2, #0
  3c:	a808      	add	r0, sp, #32
  3e:	2304      	movs	r3, #4
  40:	f7ff fffe 	bl	0 <_ZN4core3fmt9Formatter11debug_tuple17h793087e8ecab9022E>
  44:	e7ff      	b.n	46 <_ZN66_$LT$core..option..Option$LT$T$GT$$u20$as$u20$core..fmt..Debug$GT$3fmt17h4f06df10e6982bb8E+0x46>
  46:	a808      	add	r0, sp, #32
  48:	f7ff fffe 	bl	0 <_ZN4core3fmt8builders10DebugTuple6finish17h24d91625b3672e6dE>
  4c:	f88d 001b 	strb.w	r0, [sp, #27]
  50:	e7ff      	b.n	52 <_ZN66_$LT$core..option..Option$LT$T$GT$$u20$as$u20$core..fmt..Debug$GT$3fmt17h4f06df10e6982bb8E+0x52>
  52:	e01e      	b.n	92 <_ZN66_$LT$core..option..Option$LT$T$GT$$u20$as$u20$core..fmt..Debug$GT$3fmt17h4f06df10e6982bb8E+0x92>
/rustc/50a0defd5a93523067ef239936cc2e0755220904/src/libcore/option.rs:156
  54:	9807      	ldr	r0, [sp, #28]
  56:	900b      	str	r0, [sp, #44]	; 0x2c
/rustc/50a0defd5a93523067ef239936cc2e0755220904/src/libcore/option.rs:148
  58:	9905      	ldr	r1, [sp, #20]
  5a:	f240 0200 	movw	r2, #0
  5e:	f2c0 0200 	movt	r2, #0
  62:	a80c      	add	r0, sp, #48	; 0x30
  64:	2304      	movs	r3, #4
  66:	f7ff fffe 	bl	0 <_ZN4core3fmt9Formatter11debug_tuple17h793087e8ecab9022E>
  6a:	e7ff      	b.n	6c <_ZN66_$LT$core..option..Option$LT$T$GT$$u20$as$u20$core..fmt..Debug$GT$3fmt17h4f06df10e6982bb8E+0x6c>
/rustc/50a0defd5a93523067ef239936cc2e0755220904/src/libcore/option.rs:156
  6c:	980b      	ldr	r0, [sp, #44]	; 0x2c
  6e:	900f      	str	r0, [sp, #60]	; 0x3c
/rustc/50a0defd5a93523067ef239936cc2e0755220904/src/libcore/option.rs:148
  70:	f240 0200 	movw	r2, #0
  74:	f2c0 0200 	movt	r2, #0
  78:	a80c      	add	r0, sp, #48	; 0x30
  7a:	a90f      	add	r1, sp, #60	; 0x3c
  7c:	f7ff fffe 	bl	0 <_ZN4core3fmt8builders10DebugTuple5field17h7da5ac79cde13c49E>
  80:	9000      	str	r0, [sp, #0]
  82:	e7ff      	b.n	84 <_ZN66_$LT$core..option..Option$LT$T$GT$$u20$as$u20$core..fmt..Debug$GT$3fmt17h4f06df10e6982bb8E+0x84>
  84:	a80c      	add	r0, sp, #48	; 0x30
  86:	f7ff fffe 	bl	0 <_ZN4core3fmt8builders10DebugTuple6finish17h24d91625b3672e6dE>
  8a:	f88d 001b 	strb.w	r0, [sp, #27]
  8e:	e7ff      	b.n	90 <_ZN66_$LT$core..option..Option$LT$T$GT$$u20$as$u20$core..fmt..Debug$GT$3fmt17h4f06df10e6982bb8E+0x90>
  90:	e7ff      	b.n	92 <_ZN66_$LT$core..option..Option$LT$T$GT$$u20$as$u20$core..fmt..Debug$GT$3fmt17h4f06df10e6982bb8E+0x92>
  92:	f89d 001b 	ldrb.w	r0, [sp, #27]
  96:	b010      	add	sp, #64	; 0x40
  98:	bd80      	pop	{r7, pc}

Disassembly of section .text._ZN66_$LT$core..option..Option$LT$T$GT$$u20$as$u20$core..fmt..Debug$GT$3fmt17h67f01eadf89cf374E:

00000000 <_ZN66_$LT$core..option..Option$LT$T$GT$$u20$as$u20$core..fmt..Debug$GT$3fmt17h67f01eadf89cf374E>:
_ZN66_$LT$core..option..Option$LT$T$GT$$u20$as$u20$core..fmt..Debug$GT$3fmt17h67f01eadf89cf374E():
/rustc/50a0defd5a93523067ef239936cc2e0755220904/src/libcore/option.rs:148
   0:	b580      	push	{r7, lr}
   2:	b090      	sub	sp, #64	; 0x40
   4:	460a      	mov	r2, r1
   6:	4603      	mov	r3, r0
   8:	9004      	str	r0, [sp, #16]
   a:	9105      	str	r1, [sp, #20]
   c:	9804      	ldr	r0, [sp, #16]
   e:	9007      	str	r0, [sp, #28]
  10:	9807      	ldr	r0, [sp, #28]
  12:	6800      	ldr	r0, [r0, #0]
  14:	2800      	cmp	r0, #0
  16:	4601      	mov	r1, r0
  18:	bf18      	it	ne
  1a:	2101      	movne	r1, #1
  1c:	2800      	cmp	r0, #0
  1e:	9203      	str	r2, [sp, #12]
  20:	9302      	str	r3, [sp, #8]
  22:	9101      	str	r1, [sp, #4]
  24:	d005      	beq.n	32 <_ZN66_$LT$core..option..Option$LT$T$GT$$u20$as$u20$core..fmt..Debug$GT$3fmt17h67f01eadf89cf374E+0x32>
  26:	e7ff      	b.n	28 <_ZN66_$LT$core..option..Option$LT$T$GT$$u20$as$u20$core..fmt..Debug$GT$3fmt17h67f01eadf89cf374E+0x28>
  28:	9801      	ldr	r0, [sp, #4]
  2a:	2801      	cmp	r0, #1
  2c:	d012      	beq.n	54 <_ZN66_$LT$core..option..Option$LT$T$GT$$u20$as$u20$core..fmt..Debug$GT$3fmt17h67f01eadf89cf374E+0x54>
  2e:	e7ff      	b.n	30 <_ZN66_$LT$core..option..Option$LT$T$GT$$u20$as$u20$core..fmt..Debug$GT$3fmt17h67f01eadf89cf374E+0x30>
  30:	defe      	udf	#254	; 0xfe
  32:	9905      	ldr	r1, [sp, #20]
  34:	f240 0200 	movw	r2, #0
  38:	f2c0 0200 	movt	r2, #0
  3c:	a808      	add	r0, sp, #32
  3e:	2304      	movs	r3, #4
  40:	f7ff fffe 	bl	0 <_ZN4core3fmt9Formatter11debug_tuple17h793087e8ecab9022E>
  44:	e7ff      	b.n	46 <_ZN66_$LT$core..option..Option$LT$T$GT$$u20$as$u20$core..fmt..Debug$GT$3fmt17h67f01eadf89cf374E+0x46>
  46:	a808      	add	r0, sp, #32
  48:	f7ff fffe 	bl	0 <_ZN4core3fmt8builders10DebugTuple6finish17h24d91625b3672e6dE>
  4c:	f88d 001b 	strb.w	r0, [sp, #27]
  50:	e7ff      	b.n	52 <_ZN66_$LT$core..option..Option$LT$T$GT$$u20$as$u20$core..fmt..Debug$GT$3fmt17h67f01eadf89cf374E+0x52>
  52:	e01e      	b.n	92 <_ZN66_$LT$core..option..Option$LT$T$GT$$u20$as$u20$core..fmt..Debug$GT$3fmt17h67f01eadf89cf374E+0x92>
/rustc/50a0defd5a93523067ef239936cc2e0755220904/src/libcore/option.rs:156
  54:	9807      	ldr	r0, [sp, #28]
  56:	900b      	str	r0, [sp, #44]	; 0x2c
/rustc/50a0defd5a93523067ef239936cc2e0755220904/src/libcore/option.rs:148
  58:	9905      	ldr	r1, [sp, #20]
  5a:	f240 0200 	movw	r2, #0
  5e:	f2c0 0200 	movt	r2, #0
  62:	a80c      	add	r0, sp, #48	; 0x30
  64:	2304      	movs	r3, #4
  66:	f7ff fffe 	bl	0 <_ZN4core3fmt9Formatter11debug_tuple17h793087e8ecab9022E>
  6a:	e7ff      	b.n	6c <_ZN66_$LT$core..option..Option$LT$T$GT$$u20$as$u20$core..fmt..Debug$GT$3fmt17h67f01eadf89cf374E+0x6c>
/rustc/50a0defd5a93523067ef239936cc2e0755220904/src/libcore/option.rs:156
  6c:	980b      	ldr	r0, [sp, #44]	; 0x2c
  6e:	900f      	str	r0, [sp, #60]	; 0x3c
/rustc/50a0defd5a93523067ef239936cc2e0755220904/src/libcore/option.rs:148
  70:	f240 0200 	movw	r2, #0
  74:	f2c0 0200 	movt	r2, #0
  78:	a80c      	add	r0, sp, #48	; 0x30
  7a:	a90f      	add	r1, sp, #60	; 0x3c
  7c:	f7ff fffe 	bl	0 <_ZN4core3fmt8builders10DebugTuple5field17h7da5ac79cde13c49E>
  80:	9000      	str	r0, [sp, #0]
  82:	e7ff      	b.n	84 <_ZN66_$LT$core..option..Option$LT$T$GT$$u20$as$u20$core..fmt..Debug$GT$3fmt17h67f01eadf89cf374E+0x84>
  84:	a80c      	add	r0, sp, #48	; 0x30
  86:	f7ff fffe 	bl	0 <_ZN4core3fmt8builders10DebugTuple6finish17h24d91625b3672e6dE>
  8a:	f88d 001b 	strb.w	r0, [sp, #27]
  8e:	e7ff      	b.n	90 <_ZN66_$LT$core..option..Option$LT$T$GT$$u20$as$u20$core..fmt..Debug$GT$3fmt17h67f01eadf89cf374E+0x90>
  90:	e7ff      	b.n	92 <_ZN66_$LT$core..option..Option$LT$T$GT$$u20$as$u20$core..fmt..Debug$GT$3fmt17h67f01eadf89cf374E+0x92>
  92:	f89d 001b 	ldrb.w	r0, [sp, #27]
  96:	b010      	add	sp, #64	; 0x40
  98:	bd80      	pop	{r7, pc}

Disassembly of section .text._ZN66_$LT$core..option..Option$LT$T$GT$$u20$as$u20$core..fmt..Debug$GT$3fmt17h7b45e21f4da58d61E:

00000000 <_ZN66_$LT$core..option..Option$LT$T$GT$$u20$as$u20$core..fmt..Debug$GT$3fmt17h7b45e21f4da58d61E>:
_ZN66_$LT$core..option..Option$LT$T$GT$$u20$as$u20$core..fmt..Debug$GT$3fmt17h7b45e21f4da58d61E():
/rustc/50a0defd5a93523067ef239936cc2e0755220904/src/libcore/option.rs:148
   0:	b580      	push	{r7, lr}
   2:	b090      	sub	sp, #64	; 0x40
   4:	460a      	mov	r2, r1
   6:	4603      	mov	r3, r0
   8:	9004      	str	r0, [sp, #16]
   a:	9105      	str	r1, [sp, #20]
   c:	9804      	ldr	r0, [sp, #16]
   e:	9007      	str	r0, [sp, #28]
  10:	9807      	ldr	r0, [sp, #28]
  12:	6800      	ldr	r0, [r0, #0]
  14:	2800      	cmp	r0, #0
  16:	4601      	mov	r1, r0
  18:	bf18      	it	ne
  1a:	2101      	movne	r1, #1
  1c:	2800      	cmp	r0, #0
  1e:	9203      	str	r2, [sp, #12]
  20:	9302      	str	r3, [sp, #8]
  22:	9101      	str	r1, [sp, #4]
  24:	d005      	beq.n	32 <_ZN66_$LT$core..option..Option$LT$T$GT$$u20$as$u20$core..fmt..Debug$GT$3fmt17h7b45e21f4da58d61E+0x32>
  26:	e7ff      	b.n	28 <_ZN66_$LT$core..option..Option$LT$T$GT$$u20$as$u20$core..fmt..Debug$GT$3fmt17h7b45e21f4da58d61E+0x28>
  28:	9801      	ldr	r0, [sp, #4]
  2a:	2801      	cmp	r0, #1
  2c:	d012      	beq.n	54 <_ZN66_$LT$core..option..Option$LT$T$GT$$u20$as$u20$core..fmt..Debug$GT$3fmt17h7b45e21f4da58d61E+0x54>
  2e:	e7ff      	b.n	30 <_ZN66_$LT$core..option..Option$LT$T$GT$$u20$as$u20$core..fmt..Debug$GT$3fmt17h7b45e21f4da58d61E+0x30>
  30:	defe      	udf	#254	; 0xfe
  32:	9905      	ldr	r1, [sp, #20]
  34:	f240 0200 	movw	r2, #0
  38:	f2c0 0200 	movt	r2, #0
  3c:	a808      	add	r0, sp, #32
  3e:	2304      	movs	r3, #4
  40:	f7ff fffe 	bl	0 <_ZN4core3fmt9Formatter11debug_tuple17h793087e8ecab9022E>
  44:	e7ff      	b.n	46 <_ZN66_$LT$core..option..Option$LT$T$GT$$u20$as$u20$core..fmt..Debug$GT$3fmt17h7b45e21f4da58d61E+0x46>
  46:	a808      	add	r0, sp, #32
  48:	f7ff fffe 	bl	0 <_ZN4core3fmt8builders10DebugTuple6finish17h24d91625b3672e6dE>
  4c:	f88d 001b 	strb.w	r0, [sp, #27]
  50:	e7ff      	b.n	52 <_ZN66_$LT$core..option..Option$LT$T$GT$$u20$as$u20$core..fmt..Debug$GT$3fmt17h7b45e21f4da58d61E+0x52>
  52:	e01e      	b.n	92 <_ZN66_$LT$core..option..Option$LT$T$GT$$u20$as$u20$core..fmt..Debug$GT$3fmt17h7b45e21f4da58d61E+0x92>
/rustc/50a0defd5a93523067ef239936cc2e0755220904/src/libcore/option.rs:156
  54:	9807      	ldr	r0, [sp, #28]
  56:	900b      	str	r0, [sp, #44]	; 0x2c
/rustc/50a0defd5a93523067ef239936cc2e0755220904/src/libcore/option.rs:148
  58:	9905      	ldr	r1, [sp, #20]
  5a:	f240 0200 	movw	r2, #0
  5e:	f2c0 0200 	movt	r2, #0
  62:	a80c      	add	r0, sp, #48	; 0x30
  64:	2304      	movs	r3, #4
  66:	f7ff fffe 	bl	0 <_ZN4core3fmt9Formatter11debug_tuple17h793087e8ecab9022E>
  6a:	e7ff      	b.n	6c <_ZN66_$LT$core..option..Option$LT$T$GT$$u20$as$u20$core..fmt..Debug$GT$3fmt17h7b45e21f4da58d61E+0x6c>
/rustc/50a0defd5a93523067ef239936cc2e0755220904/src/libcore/option.rs:156
  6c:	980b      	ldr	r0, [sp, #44]	; 0x2c
  6e:	900f      	str	r0, [sp, #60]	; 0x3c
/rustc/50a0defd5a93523067ef239936cc2e0755220904/src/libcore/option.rs:148
  70:	f240 0200 	movw	r2, #0
  74:	f2c0 0200 	movt	r2, #0
  78:	a80c      	add	r0, sp, #48	; 0x30
  7a:	a90f      	add	r1, sp, #60	; 0x3c
  7c:	f7ff fffe 	bl	0 <_ZN4core3fmt8builders10DebugTuple5field17h7da5ac79cde13c49E>
  80:	9000      	str	r0, [sp, #0]
  82:	e7ff      	b.n	84 <_ZN66_$LT$core..option..Option$LT$T$GT$$u20$as$u20$core..fmt..Debug$GT$3fmt17h7b45e21f4da58d61E+0x84>
  84:	a80c      	add	r0, sp, #48	; 0x30
  86:	f7ff fffe 	bl	0 <_ZN4core3fmt8builders10DebugTuple6finish17h24d91625b3672e6dE>
  8a:	f88d 001b 	strb.w	r0, [sp, #27]
  8e:	e7ff      	b.n	90 <_ZN66_$LT$core..option..Option$LT$T$GT$$u20$as$u20$core..fmt..Debug$GT$3fmt17h7b45e21f4da58d61E+0x90>
  90:	e7ff      	b.n	92 <_ZN66_$LT$core..option..Option$LT$T$GT$$u20$as$u20$core..fmt..Debug$GT$3fmt17h7b45e21f4da58d61E+0x92>
  92:	f89d 001b 	ldrb.w	r0, [sp, #27]
  96:	b010      	add	sp, #64	; 0x40
  98:	bd80      	pop	{r7, pc}

Disassembly of section .text._ZN66_$LT$core..option..Option$LT$T$GT$$u20$as$u20$core..fmt..Debug$GT$3fmt17hd2c5f68ae147ca04E:

00000000 <_ZN66_$LT$core..option..Option$LT$T$GT$$u20$as$u20$core..fmt..Debug$GT$3fmt17hd2c5f68ae147ca04E>:
_ZN66_$LT$core..option..Option$LT$T$GT$$u20$as$u20$core..fmt..Debug$GT$3fmt17hd2c5f68ae147ca04E():
/rustc/50a0defd5a93523067ef239936cc2e0755220904/src/libcore/option.rs:148
   0:	b580      	push	{r7, lr}
   2:	b090      	sub	sp, #64	; 0x40
   4:	460a      	mov	r2, r1
   6:	4603      	mov	r3, r0
   8:	9004      	str	r0, [sp, #16]
   a:	9105      	str	r1, [sp, #20]
   c:	9804      	ldr	r0, [sp, #16]
   e:	9007      	str	r0, [sp, #28]
  10:	9807      	ldr	r0, [sp, #28]
  12:	6800      	ldr	r0, [r0, #0]
  14:	2800      	cmp	r0, #0
  16:	4601      	mov	r1, r0
  18:	bf18      	it	ne
  1a:	2101      	movne	r1, #1
  1c:	2800      	cmp	r0, #0
  1e:	9203      	str	r2, [sp, #12]
  20:	9302      	str	r3, [sp, #8]
  22:	9101      	str	r1, [sp, #4]
  24:	d005      	beq.n	32 <_ZN66_$LT$core..option..Option$LT$T$GT$$u20$as$u20$core..fmt..Debug$GT$3fmt17hd2c5f68ae147ca04E+0x32>
  26:	e7ff      	b.n	28 <_ZN66_$LT$core..option..Option$LT$T$GT$$u20$as$u20$core..fmt..Debug$GT$3fmt17hd2c5f68ae147ca04E+0x28>
  28:	9801      	ldr	r0, [sp, #4]
  2a:	2801      	cmp	r0, #1
  2c:	d012      	beq.n	54 <_ZN66_$LT$core..option..Option$LT$T$GT$$u20$as$u20$core..fmt..Debug$GT$3fmt17hd2c5f68ae147ca04E+0x54>
  2e:	e7ff      	b.n	30 <_ZN66_$LT$core..option..Option$LT$T$GT$$u20$as$u20$core..fmt..Debug$GT$3fmt17hd2c5f68ae147ca04E+0x30>
  30:	defe      	udf	#254	; 0xfe
  32:	9905      	ldr	r1, [sp, #20]
  34:	f240 0200 	movw	r2, #0
  38:	f2c0 0200 	movt	r2, #0
  3c:	a808      	add	r0, sp, #32
  3e:	2304      	movs	r3, #4
  40:	f7ff fffe 	bl	0 <_ZN4core3fmt9Formatter11debug_tuple17h793087e8ecab9022E>
  44:	e7ff      	b.n	46 <_ZN66_$LT$core..option..Option$LT$T$GT$$u20$as$u20$core..fmt..Debug$GT$3fmt17hd2c5f68ae147ca04E+0x46>
  46:	a808      	add	r0, sp, #32
  48:	f7ff fffe 	bl	0 <_ZN4core3fmt8builders10DebugTuple6finish17h24d91625b3672e6dE>
  4c:	f88d 001b 	strb.w	r0, [sp, #27]
  50:	e7ff      	b.n	52 <_ZN66_$LT$core..option..Option$LT$T$GT$$u20$as$u20$core..fmt..Debug$GT$3fmt17hd2c5f68ae147ca04E+0x52>
  52:	e01e      	b.n	92 <_ZN66_$LT$core..option..Option$LT$T$GT$$u20$as$u20$core..fmt..Debug$GT$3fmt17hd2c5f68ae147ca04E+0x92>
/rustc/50a0defd5a93523067ef239936cc2e0755220904/src/libcore/option.rs:156
  54:	9807      	ldr	r0, [sp, #28]
  56:	900b      	str	r0, [sp, #44]	; 0x2c
/rustc/50a0defd5a93523067ef239936cc2e0755220904/src/libcore/option.rs:148
  58:	9905      	ldr	r1, [sp, #20]
  5a:	f240 0200 	movw	r2, #0
  5e:	f2c0 0200 	movt	r2, #0
  62:	a80c      	add	r0, sp, #48	; 0x30
  64:	2304      	movs	r3, #4
  66:	f7ff fffe 	bl	0 <_ZN4core3fmt9Formatter11debug_tuple17h793087e8ecab9022E>
  6a:	e7ff      	b.n	6c <_ZN66_$LT$core..option..Option$LT$T$GT$$u20$as$u20$core..fmt..Debug$GT$3fmt17hd2c5f68ae147ca04E+0x6c>
/rustc/50a0defd5a93523067ef239936cc2e0755220904/src/libcore/option.rs:156
  6c:	980b      	ldr	r0, [sp, #44]	; 0x2c
  6e:	900f      	str	r0, [sp, #60]	; 0x3c
/rustc/50a0defd5a93523067ef239936cc2e0755220904/src/libcore/option.rs:148
  70:	f240 0200 	movw	r2, #0
  74:	f2c0 0200 	movt	r2, #0
  78:	a80c      	add	r0, sp, #48	; 0x30
  7a:	a90f      	add	r1, sp, #60	; 0x3c
  7c:	f7ff fffe 	bl	0 <_ZN4core3fmt8builders10DebugTuple5field17h7da5ac79cde13c49E>
  80:	9000      	str	r0, [sp, #0]
  82:	e7ff      	b.n	84 <_ZN66_$LT$core..option..Option$LT$T$GT$$u20$as$u20$core..fmt..Debug$GT$3fmt17hd2c5f68ae147ca04E+0x84>
  84:	a80c      	add	r0, sp, #48	; 0x30
  86:	f7ff fffe 	bl	0 <_ZN4core3fmt8builders10DebugTuple6finish17h24d91625b3672e6dE>
  8a:	f88d 001b 	strb.w	r0, [sp, #27]
  8e:	e7ff      	b.n	90 <_ZN66_$LT$core..option..Option$LT$T$GT$$u20$as$u20$core..fmt..Debug$GT$3fmt17hd2c5f68ae147ca04E+0x90>
  90:	e7ff      	b.n	92 <_ZN66_$LT$core..option..Option$LT$T$GT$$u20$as$u20$core..fmt..Debug$GT$3fmt17hd2c5f68ae147ca04E+0x92>
  92:	f89d 001b 	ldrb.w	r0, [sp, #27]
  96:	b010      	add	sp, #64	; 0x40
  98:	bd80      	pop	{r7, pc}

Disassembly of section .text._ZN66_$LT$core..option..Option$LT$T$GT$$u20$as$u20$core..fmt..Debug$GT$3fmt17hf69534630fadeb29E:

00000000 <_ZN66_$LT$core..option..Option$LT$T$GT$$u20$as$u20$core..fmt..Debug$GT$3fmt17hf69534630fadeb29E>:
_ZN66_$LT$core..option..Option$LT$T$GT$$u20$as$u20$core..fmt..Debug$GT$3fmt17hf69534630fadeb29E():
/rustc/50a0defd5a93523067ef239936cc2e0755220904/src/libcore/option.rs:148
   0:	b580      	push	{r7, lr}
   2:	b090      	sub	sp, #64	; 0x40
   4:	460a      	mov	r2, r1
   6:	4603      	mov	r3, r0
   8:	9004      	str	r0, [sp, #16]
   a:	9105      	str	r1, [sp, #20]
   c:	9804      	ldr	r0, [sp, #16]
   e:	9007      	str	r0, [sp, #28]
  10:	9807      	ldr	r0, [sp, #28]
  12:	6800      	ldr	r0, [r0, #0]
  14:	2800      	cmp	r0, #0
  16:	4601      	mov	r1, r0
  18:	bf18      	it	ne
  1a:	2101      	movne	r1, #1
  1c:	2800      	cmp	r0, #0
  1e:	9203      	str	r2, [sp, #12]
  20:	9302      	str	r3, [sp, #8]
  22:	9101      	str	r1, [sp, #4]
  24:	d005      	beq.n	32 <_ZN66_$LT$core..option..Option$LT$T$GT$$u20$as$u20$core..fmt..Debug$GT$3fmt17hf69534630fadeb29E+0x32>
  26:	e7ff      	b.n	28 <_ZN66_$LT$core..option..Option$LT$T$GT$$u20$as$u20$core..fmt..Debug$GT$3fmt17hf69534630fadeb29E+0x28>
  28:	9801      	ldr	r0, [sp, #4]
  2a:	2801      	cmp	r0, #1
  2c:	d012      	beq.n	54 <_ZN66_$LT$core..option..Option$LT$T$GT$$u20$as$u20$core..fmt..Debug$GT$3fmt17hf69534630fadeb29E+0x54>
  2e:	e7ff      	b.n	30 <_ZN66_$LT$core..option..Option$LT$T$GT$$u20$as$u20$core..fmt..Debug$GT$3fmt17hf69534630fadeb29E+0x30>
  30:	defe      	udf	#254	; 0xfe
  32:	9905      	ldr	r1, [sp, #20]
  34:	f240 0200 	movw	r2, #0
  38:	f2c0 0200 	movt	r2, #0
  3c:	a808      	add	r0, sp, #32
  3e:	2304      	movs	r3, #4
  40:	f7ff fffe 	bl	0 <_ZN4core3fmt9Formatter11debug_tuple17h793087e8ecab9022E>
  44:	e7ff      	b.n	46 <_ZN66_$LT$core..option..Option$LT$T$GT$$u20$as$u20$core..fmt..Debug$GT$3fmt17hf69534630fadeb29E+0x46>
  46:	a808      	add	r0, sp, #32
  48:	f7ff fffe 	bl	0 <_ZN4core3fmt8builders10DebugTuple6finish17h24d91625b3672e6dE>
  4c:	f88d 001b 	strb.w	r0, [sp, #27]
  50:	e7ff      	b.n	52 <_ZN66_$LT$core..option..Option$LT$T$GT$$u20$as$u20$core..fmt..Debug$GT$3fmt17hf69534630fadeb29E+0x52>
  52:	e01e      	b.n	92 <_ZN66_$LT$core..option..Option$LT$T$GT$$u20$as$u20$core..fmt..Debug$GT$3fmt17hf69534630fadeb29E+0x92>
/rustc/50a0defd5a93523067ef239936cc2e0755220904/src/libcore/option.rs:156
  54:	9807      	ldr	r0, [sp, #28]
  56:	900b      	str	r0, [sp, #44]	; 0x2c
/rustc/50a0defd5a93523067ef239936cc2e0755220904/src/libcore/option.rs:148
  58:	9905      	ldr	r1, [sp, #20]
  5a:	f240 0200 	movw	r2, #0
  5e:	f2c0 0200 	movt	r2, #0
  62:	a80c      	add	r0, sp, #48	; 0x30
  64:	2304      	movs	r3, #4
  66:	f7ff fffe 	bl	0 <_ZN4core3fmt9Formatter11debug_tuple17h793087e8ecab9022E>
  6a:	e7ff      	b.n	6c <_ZN66_$LT$core..option..Option$LT$T$GT$$u20$as$u20$core..fmt..Debug$GT$3fmt17hf69534630fadeb29E+0x6c>
/rustc/50a0defd5a93523067ef239936cc2e0755220904/src/libcore/option.rs:156
  6c:	980b      	ldr	r0, [sp, #44]	; 0x2c
  6e:	900f      	str	r0, [sp, #60]	; 0x3c
/rustc/50a0defd5a93523067ef239936cc2e0755220904/src/libcore/option.rs:148
  70:	f240 0200 	movw	r2, #0
  74:	f2c0 0200 	movt	r2, #0
  78:	a80c      	add	r0, sp, #48	; 0x30
  7a:	a90f      	add	r1, sp, #60	; 0x3c
  7c:	f7ff fffe 	bl	0 <_ZN4core3fmt8builders10DebugTuple5field17h7da5ac79cde13c49E>
  80:	9000      	str	r0, [sp, #0]
  82:	e7ff      	b.n	84 <_ZN66_$LT$core..option..Option$LT$T$GT$$u20$as$u20$core..fmt..Debug$GT$3fmt17hf69534630fadeb29E+0x84>
  84:	a80c      	add	r0, sp, #48	; 0x30
  86:	f7ff fffe 	bl	0 <_ZN4core3fmt8builders10DebugTuple6finish17h24d91625b3672e6dE>
  8a:	f88d 001b 	strb.w	r0, [sp, #27]
  8e:	e7ff      	b.n	90 <_ZN66_$LT$core..option..Option$LT$T$GT$$u20$as$u20$core..fmt..Debug$GT$3fmt17hf69534630fadeb29E+0x90>
  90:	e7ff      	b.n	92 <_ZN66_$LT$core..option..Option$LT$T$GT$$u20$as$u20$core..fmt..Debug$GT$3fmt17hf69534630fadeb29E+0x92>
  92:	f89d 001b 	ldrb.w	r0, [sp, #27]
  96:	b010      	add	sp, #64	; 0x40
  98:	bd80      	pop	{r7, pc}

mylib-b003fcb153d61cda.wjo4ew4l4ktpf3y.rcgu.o:     file format elf32-littlearm

SYMBOL TABLE:
00000000 l    df *ABS*	00000000 wjo4ew4l4ktpf3y
000000f4 l       .debug_str	00000000 
00000000 l       .debug_str	00000000 
00000041 l       .debug_str	00000000 
0000004c l       .debug_str	00000000 
0000007c l       .debug_str	00000000 
00000082 l       .debug_str	00000000 
00000087 l       .debug_str	00000000 
000000b9 l       .debug_str	00000000 
000000ee l       .debug_str	00000000 
000000c7 l       .debug_str	00000000 
000000cb l       .debug_str	00000000 
000000d4 l       .debug_str	00000000 
000000d7 l       .debug_str	00000000 
000000e1 l       .debug_str	00000000 
000000e8 l       .debug_str	00000000 
00000000 l    d  .text._ZN5mylib4base13console_print17h6caebb40d9fb0292E	00000000 .text._ZN5mylib4base13console_print17h6caebb40d9fb0292E
00000000 l    d  .debug_abbrev	00000000 .debug_abbrev
00000000 l    d  .debug_info	00000000 .debug_info
00000000 l    d  .debug_frame	00000000 .debug_frame
00000000 l    d  .debug_line	00000000 .debug_line
00000000         *UND*	00000000 _ZN4core5slice29_$LT$impl$u20$$u5b$T$u5d$$GT$3len17h63f985867d9f263fE
00000000         *UND*	00000000 _ZN4core5slice29_$LT$impl$u20$$u5b$T$u5d$$GT$6as_ptr17hd0263209417be61aE
00000000 g     F .text._ZN5mylib4base13console_print17h6caebb40d9fb0292E	0000003c .hidden _ZN5mylib4base13console_print17h6caebb40d9fb0292E
00000000         *UND*	00000000 console_buffer
00000000         *UND*	00000000 console_flush



Disassembly of section .text._ZN5mylib4base13console_print17h6caebb40d9fb0292E:

00000000 <_ZN5mylib4base13console_print17h6caebb40d9fb0292E>:
_ZN5mylib4base13console_print17h6caebb40d9fb0292E():
/Users/Luppy/mynewt/stm32bluepill-mynewt-sensor/src/base.rs:7

use cty::*;            //  Import string utilities from cty library: https://crates.io/crates/cty
use crate::sensor::*;  //  Import sensor.rs for Mynewt Sensor API

///  Display message `msg` on the Arm Semihosting console (via OpenOCD).
pub fn console_print(msg: &[u8]) {
   0:	b580      	push	{r7, lr}
   2:	b086      	sub	sp, #24
   4:	460a      	mov	r2, r1
   6:	4603      	mov	r3, r0
   8:	9003      	str	r0, [sp, #12]
   a:	9104      	str	r1, [sp, #16]
/Users/Luppy/mynewt/stm32bluepill-mynewt-sensor/src/base.rs:8
    let len = msg.len();
   c:	9803      	ldr	r0, [sp, #12]
   e:	9904      	ldr	r1, [sp, #16]
  10:	9202      	str	r2, [sp, #8]
  12:	9301      	str	r3, [sp, #4]
  14:	f7ff fffe 	bl	0 <_ZN4core5slice29_$LT$impl$u20$$u5b$T$u5d$$GT$3len17h63f985867d9f263fE>
  18:	9005      	str	r0, [sp, #20]
  1a:	e7ff      	b.n	1c <_ZN5mylib4base13console_print17h6caebb40d9fb0292E+0x1c>
/Users/Luppy/mynewt/stm32bluepill-mynewt-sensor/src/base.rs:11
    unsafe {
        //  Call the Semihosting Console API, which is unsafe.
        console_buffer(msg.as_ptr(), len as u32);
  1c:	9803      	ldr	r0, [sp, #12]
  1e:	9904      	ldr	r1, [sp, #16]
  20:	f7ff fffe 	bl	0 <_ZN4core5slice29_$LT$impl$u20$$u5b$T$u5d$$GT$6as_ptr17hd0263209417be61aE>
  24:	9000      	str	r0, [sp, #0]
  26:	e7ff      	b.n	28 <_ZN5mylib4base13console_print17h6caebb40d9fb0292E+0x28>
  28:	9905      	ldr	r1, [sp, #20]
  2a:	9800      	ldr	r0, [sp, #0]
  2c:	f7ff fffe 	bl	0 <console_buffer>
  30:	e7ff      	b.n	2 <console_flush+0x2>
/Users/Luppy/mynewt/stm32bluepill-mynewt-sensor/src/base.rs:12
        console_flush();  //  TODO: Remove this.
  32:	f7ff fffe 	bl	0 <console_flush>
  36:	e7ff      	b.n	38 <_ZN5mylib4base13console_print17h6caebb40d9fb0292E+0x38>
/Users/Luppy/mynewt/stm32bluepill-mynewt-sensor/src/base.rs:14
    }
}
  38:	b006      	add	sp, #24
  3a:	bd80      	pop	{r7, pc}
arm-none-eabi-objdump: rust.metadata.bin: File format not recognized
arm-none-eabi-objdump: mylib-b003fcb153d61cda.11mj9j4qeikoz7a8.rcgu.bc.z: File format not recognized
arm-none-eabi-objdump: mylib-b003fcb153d61cda.18n9guqs9q0zxh55.rcgu.bc.z: File format not recognized
arm-none-eabi-objdump: mylib-b003fcb153d61cda.1cv7y0mzu4zroe8s.rcgu.bc.z: File format not recognized
arm-none-eabi-objdump: mylib-b003fcb153d61cda.23l0w0pq083mtt57.rcgu.bc.z: File format not recognized
arm-none-eabi-objdump: mylib-b003fcb153d61cda.25y7hjucdld5sf54.rcgu.bc.z: File format not recognized
arm-none-eabi-objdump: mylib-b003fcb153d61cda.2szhknqr18qd3cbm.rcgu.bc.z: File format not recognized
arm-none-eabi-objdump: mylib-b003fcb153d61cda.33mbow37mj95xlhx.rcgu.bc.z: File format not recognized
arm-none-eabi-objdump: mylib-b003fcb153d61cda.3bdhhpoj085ustfh.rcgu.bc.z: File format not recognized
arm-none-eabi-objdump: mylib-b003fcb153d61cda.3m2bj5bgdp6nzbj4.rcgu.bc.z: File format not recognized
arm-none-eabi-objdump: mylib-b003fcb153d61cda.47ssxaqryfunpqha.rcgu.bc.z: File format not recognized
arm-none-eabi-objdump: mylib-b003fcb153d61cda.4lwecpdwsq3qr3ns.rcgu.bc.z: File format not recognized
arm-none-eabi-objdump: mylib-b003fcb153d61cda.53xejyw88i0w8gr2.rcgu.bc.z: File format not recognized
arm-none-eabi-objdump: mylib-b003fcb153d61cda.cpeh3xk2nxhahx3.rcgu.bc.z: File format not recognized
arm-none-eabi-objdump: mylib-b003fcb153d61cda.qdoyzfijau6r165.rcgu.bc.z: File format not recognized
arm-none-eabi-objdump: mylib-b003fcb153d61cda.vddnup3uubqfh70.rcgu.bc.z: File format not recognized
arm-none-eabi-objdump: mylib-b003fcb153d61cda.wjo4ew4l4ktpf3y.rcgu.bc.z: File format not recognized
