In archive target/thumbv7m-none-eabi/release/libmylib.rlib:

mylib-3c348a03a6a4b9f1.mylib.4yqbpuee-cgu.0.rcgu.o:     file format elf32-littlearm

SYMBOL TABLE:
00000000 l    df *ABS*	00000000 mylib.4yqbpuee-cgu.0
00004347 l       .debug_str	00000000 
00004bcd l       .debug_str	00000000 
00004c01 l       .debug_str	00000000 
00004c13 l       .debug_str	00000000 
00004c17 l       .debug_str	00000000 
00004c20 l       .debug_str	00000000 
00004c2b l       .debug_str	00000000 
00004c69 l       .debug_str	00000000 
00004c81 l       .debug_str	00000000 
00004c85 l       .debug_str	00000000 
00004c89 l       .debug_str	00000000 
00004cdc l       .debug_str	00000000 
00004cf0 l       .debug_str	00000000 
00004cfa l       .debug_str	00000000 
00004d03 l       .debug_str	00000000 
00004d0a l       .debug_str	00000000 
00004d14 l       .debug_str	00000000 
00004d19 l       .debug_str	00000000 
00004d21 l       .debug_str	00000000 
00004d26 l       .debug_str	00000000 
00004d2b l       .debug_str	00000000 
00004d32 l       .debug_str	00000000 
00004d3e l       .debug_str	00000000 
00004d46 l       .debug_str	00000000 
00004d4f l       .debug_str	00000000 
00004d54 l       .debug_str	00000000 
00004d57 l       .debug_str	00000000 
00004d60 l       .debug_str	00000000 
00004d67 l       .debug_str	00000000 
00004d6a l       .debug_str	00000000 
00004d70 l       .debug_str	00000000 
00004d7a l       .debug_str	00000000 
00004d82 l       .debug_str	00000000 
00004d88 l       .debug_str	00000000 
00004d93 l       .debug_str	00000000 
00004d9c l       .debug_str	00000000 
00004dbf l       .debug_str	00000000 
00004dde l       .debug_str	00000000 
00004e05 l       .debug_str	00000000 
00004e0f l       .debug_str	00000000 
00004e25 l       .debug_str	00000000 
00004e7b l       .debug_str	00000000 
00004e87 l       .debug_str	00000000 
00004ebf l       .debug_str	00000000 
00004ec1 l       .debug_str	00000000 
00004f18 l       .debug_str	00000000 
00004f25 l       .debug_str	00000000 
00004f59 l       .debug_str	00000000 
00004f5f l       .debug_str	00000000 
00004f8f l       .debug_str	00000000 
00004f98 l       .debug_str	00000000 
00004f9e l       .debug_str	00000000 
00004fe2 l       .debug_str	00000000 
00004ffd l       .debug_str	00000000 
00005005 l       .debug_str	00000000 
0000500a l       .debug_str	00000000 
00005018 l       .debug_str	00000000 
00005022 l       .debug_str	00000000 
00005030 l       .debug_str	00000000 
00005044 l       .debug_str	00000000 
000050c7 l       .debug_str	00000000 
000050d1 l       .debug_str	00000000 
000050d7 l       .debug_str	00000000 
000050dd l       .debug_str	00000000 
000050e1 l       .debug_str	00000000 
000050ee l       .debug_str	00000000 
00005174 l       .debug_str	00000000 
00005183 l       .debug_str	00000000 
00005185 l       .debug_str	00000000 
000051fa l       .debug_str	00000000 
00005225 l       .debug_str	00000000 
0000522b l       .debug_str	00000000 
00005283 l       .debug_str	00000000 
00005291 l       .debug_str	00000000 
000052dc l       .debug_str	00000000 
000052ec l       .debug_str	00000000 
000052fa l       .debug_str	00000000 
000052fe l       .debug_str	00000000 
00005300 l       .debug_str	00000000 
00005302 l       .debug_str	00000000 
00005349 l       .debug_str	00000000 
00005355 l       .debug_str	00000000 
0000539c l       .debug_str	00000000 
000053a5 l       .debug_str	00000000 
000053b1 l       .debug_str	00000000 
000053ba l       .debug_str	00000000 
000053be l       .debug_str	00000000 
000053c8 l       .debug_str	00000000 
0000542b l       .debug_str	00000000 
00005433 l       .debug_str	00000000 
0000544e l       .debug_str	00000000 
00005454 l       .debug_str	00000000 
0000545e l       .debug_str	00000000 
00005464 l       .debug_str	00000000 
0000546f l       .debug_str	00000000 
00005478 l       .debug_str	00000000 
00005482 l       .debug_str	00000000 
000054b4 l       .debug_str	00000000 
000054bb l       .debug_str	00000000 
000054f7 l       .debug_str	00000000 
0000550a l       .debug_str	00000000 
00005510 l       .debug_str	00000000 
00005554 l       .debug_str	00000000 
0000556a l       .debug_str	00000000 
00005573 l       .debug_str	00000000 
000055b5 l       .debug_str	00000000 
000055c7 l       .debug_str	00000000 
000055d0 l       .debug_str	00000000 
000055d4 l       .debug_str	00000000 
000055fe l       .debug_str	00000000 
00005603 l       .debug_str	00000000 
0000564b l       .debug_str	00000000 
00005681 l       .debug_str	00000000 
000056c9 l       .debug_str	00000000 
000056d2 l       .debug_str	00000000 
0000571a l       .debug_str	00000000 
00005722 l       .debug_str	00000000 
0000576a l       .debug_str	00000000 
00005773 l       .debug_str	00000000 
000057eb l       .debug_str	00000000 
000057f3 l       .debug_str	00000000 
0000586a l       .debug_str	00000000 
000058ff l       .debug_str	00000000 
00005986 l       .debug_str	00000000 
000059fe l       .debug_str	00000000 
00005a83 l       .debug_str	00000000 
00005afa l       .debug_str	00000000 
00005b86 l       .debug_str	00000000 
00005b9c l       .debug_str	00000000 
00005c1f l       .debug_str	00000000 
00005ca6 l       .debug_str	00000000 
00005d35 l       .debug_str	00000000 
00005da5 l       .debug_str	00000000 
00005e17 l       .debug_str	00000000 
00005e88 l       .debug_str	00000000 
00005ef6 l       .debug_str	00000000 
00005f65 l       .debug_str	00000000 
00005fd7 l       .debug_str	00000000 
0000604e l       .debug_str	00000000 
000060bd l       .debug_str	00000000 
0000612b l       .debug_str	00000000 
000061b2 l       .debug_str	00000000 
00006231 l       .debug_str	00000000 
000062b2 l       .debug_str	00000000 
00006336 l       .debug_str	00000000 
000063bd l       .debug_str	00000000 
000063c9 l       .debug_str	00000000 
000063d5 l       .debug_str	00000000 
000063ea l       .debug_str	00000000 
00006462 l       .debug_str	00000000 
000064e1 l       .debug_str	00000000 
00006527 l       .debug_str	00000000 
0000653d l       .debug_str	00000000 
000065c5 l       .debug_str	00000000 
00006650 l       .debug_str	00000000 
000066e2 l       .debug_str	00000000 
000066e7 l       .debug_str	00000000 
00006726 l       .debug_str	00000000 
00006737 l       .debug_str	00000000 
00006772 l       .debug_str	00000000 
00006784 l       .debug_str	00000000 
00006789 l       .debug_str	00000000 
0000678b l       .debug_str	00000000 
0000679d l       .debug_str	00000000 
000067a3 l       .debug_str	00000000 
00006808 l       .debug_str	00000000 
0000683b l       .debug_str	00000000 
00006841 l       .debug_str	00000000 
00006849 l       .debug_str	00000000 
0000684e l       .debug_str	00000000 
0000685b l       .debug_str	00000000 
00006868 l       .debug_str	00000000 
0000686f l       .debug_str	00000000 
0000687f l       .debug_str	00000000 
00006891 l       .debug_str	00000000 
0000689d l       .debug_str	00000000 
000068a2 l       .debug_str	00000000 
000068aa l       .debug_str	00000000 
000068ae l       .debug_str	00000000 
000068b3 l       .debug_str	00000000 
000068bb l       .debug_str	00000000 
000068d9 l       .debug_str	00000000 
000068e2 l       .debug_str	00000000 
000068e7 l       .debug_str	00000000 
000068ec l       .debug_str	00000000 
000068f0 l       .debug_str	00000000 
000068f9 l       .debug_str	00000000 
00006903 l       .debug_str	00000000 
0000691b l       .debug_str	00000000 
00006932 l       .debug_str	00000000 
00000000 l       .debug_str	00000000 
00000041 l       .debug_str	00000000 
0000004c l       .debug_str	00000000 
0000007c l       .debug_str	00000000 
00000082 l       .debug_str	00000000 
00000089 l       .debug_str	00000000 
00000092 l       .debug_str	00000000 
0000009f l       .debug_str	00000000 
000000ac l       .debug_str	00000000 
000000b7 l       .debug_str	00000000 
000000ba l       .debug_str	00000000 
000000ce l       .debug_str	00000000 
000000db l       .debug_str	00000000 
000000e7 l       .debug_str	00000000 
00000131 l       .debug_str	00000000 
00000134 l       .debug_str	00000000 
0000013b l       .debug_str	00000000 
0000014d l       .debug_str	00000000 
00000156 l       .debug_str	00000000 
00000165 l       .debug_str	00000000 
00000169 l       .debug_str	00000000 
00000171 l       .debug_str	00000000 
00000176 l       .debug_str	00000000 
0000017d l       .debug_str	00000000 
00000181 l       .debug_str	00000000 
00000186 l       .debug_str	00000000 
0000018a l       .debug_str	00000000 
00000190 l       .debug_str	00000000 
00000197 l       .debug_str	00000000 
0000019a l       .debug_str	00000000 
000001a6 l       .debug_str	00000000 
000001ae l       .debug_str	00000000 
000001b2 l       .debug_str	00000000 
000001bd l       .debug_str	00000000 
000001c8 l       .debug_str	00000000 
000001cf l       .debug_str	00000000 
000001e6 l       .debug_str	00000000 
00000247 l       .debug_str	00000000 
00000249 l       .debug_str	00000000 
0000024e l       .debug_str	00000000 
00000252 l       .debug_str	00000000 
000002bb l       .debug_str	00000000 
000002c6 l       .debug_str	00000000 
00000314 l       .debug_str	00000000 
0000036a l       .debug_str	00000000 
00000374 l       .debug_str	00000000 
000003b8 l       .debug_str	00000000 
00000404 l       .debug_str	00000000 
0000040d l       .debug_str	00000000 
0000041d l       .debug_str	00000000 
00000425 l       .debug_str	00000000 
00000481 l       .debug_str	00000000 
000004e5 l       .debug_str	00000000 
000004f1 l       .debug_str	00000000 
000004fa l       .debug_str	00000000 
00000506 l       .debug_str	00000000 
00000512 l       .debug_str	00000000 
0000051b l       .debug_str	00000000 
00000523 l       .debug_str	00000000 
0000052d l       .debug_str	00000000 
00000535 l       .debug_str	00000000 
0000053f l       .debug_str	00000000 
00000554 l       .debug_str	00000000 
0000055b l       .debug_str	00000000 
00000582 l       .debug_str	00000000 
00000589 l       .debug_str	00000000 
00000591 l       .debug_str	00000000 
0000059b l       .debug_str	00000000 
000005a6 l       .debug_str	00000000 
000005af l       .debug_str	00000000 
000005ba l       .debug_str	00000000 
000005c6 l       .debug_str	00000000 
000005ca l       .debug_str	00000000 
000005d3 l       .debug_str	00000000 
000005da l       .debug_str	00000000 
000005e2 l       .debug_str	00000000 
000005ea l       .debug_str	00000000 
000005f4 l       .debug_str	00000000 
000005fa l       .debug_str	00000000 
00000601 l       .debug_str	00000000 
00000608 l       .debug_str	00000000 
00000635 l       .debug_str	00000000 
0000066a l       .debug_str	00000000 
00000670 l       .debug_str	00000000 
00000676 l       .debug_str	00000000 
00000685 l       .debug_str	00000000 
00000695 l       .debug_str	00000000 
000006a5 l       .debug_str	00000000 
000006ad l       .debug_str	00000000 
000006dd l       .debug_str	00000000 
00000742 l       .debug_str	00000000 
000007af l       .debug_str	00000000 
000007b6 l       .debug_str	00000000 
000007be l       .debug_str	00000000 
000007c7 l       .debug_str	00000000 
000007e5 l       .debug_str	00000000 
000007f5 l       .debug_str	00000000 
00000803 l       .debug_str	00000000 
0000080e l       .debug_str	00000000 
0000081b l       .debug_str	00000000 
0000082a l       .debug_str	00000000 
00000840 l       .debug_str	00000000 
0000084a l       .debug_str	00000000 
00000853 l       .debug_str	00000000 
0000085c l       .debug_str	00000000 
00000889 l       .debug_str	00000000 
0000089f l       .debug_str	00000000 
000008aa l       .debug_str	00000000 
000008c0 l       .debug_str	00000000 
000008c8 l       .debug_str	00000000 
000008f0 l       .debug_str	00000000 
00000907 l       .debug_str	00000000 
0000090c l       .debug_str	00000000 
00000914 l       .debug_str	00000000 
0000091d l       .debug_str	00000000 
00000926 l       .debug_str	00000000 
0000092f l       .debug_str	00000000 
00000937 l       .debug_str	00000000 
0000093e l       .debug_str	00000000 
0000094a l       .debug_str	00000000 
00000955 l       .debug_str	00000000 
0000095d l       .debug_str	00000000 
00000965 l       .debug_str	00000000 
00000a6f l       .debug_str	00000000 
00000b81 l       .debug_str	00000000 
00000b8f l       .debug_str	00000000 
00000b9a l       .debug_str	00000000 
00000ba4 l       .debug_str	00000000 
00000baf l       .debug_str	00000000 
00000be4 l       .debug_str	00000000 
00000c6d l       .debug_str	00000000 
00000cfe l       .debug_str	00000000 
00000d0c l       .debug_str	00000000 
00000d72 l       .debug_str	00000000 
00000de0 l       .debug_str	00000000 
00000df6 l       .debug_str	00000000 
00000e06 l       .debug_str	00000000 
00000e15 l       .debug_str	00000000 
00000e19 l       .debug_str	00000000 
00000e20 l       .debug_str	00000000 
00000e26 l       .debug_str	00000000 
00000e2a l       .debug_str	00000000 
00000e30 l       .debug_str	00000000 
00000e36 l       .debug_str	00000000 
00000e42 l       .debug_str	00000000 
00000e4a l       .debug_str	00000000 
00000e50 l       .debug_str	00000000 
00000e58 l       .debug_str	00000000 
00000e5e l       .debug_str	00000000 
00000e81 l       .debug_str	00000000 
00000e91 l       .debug_str	00000000 
00000ecb l       .debug_str	00000000 
00000f12 l       .debug_str	00000000 
00000f61 l       .debug_str	00000000 
00000f65 l       .debug_str	00000000 
00000f6b l       .debug_str	00000000 
00000f71 l       .debug_str	00000000 
00000f77 l       .debug_str	00000000 
00000f89 l       .debug_str	00000000 
00000fc5 l       .debug_str	00000000 
0000100e l       .debug_str	00000000 
0000105f l       .debug_str	00000000 
00001063 l       .debug_str	00000000 
00001069 l       .debug_str	00000000 
0000106f l       .debug_str	00000000 
00001075 l       .debug_str	00000000 
00001087 l       .debug_str	00000000 
000010c3 l       .debug_str	00000000 
0000110c l       .debug_str	00000000 
0000115d l       .debug_str	00000000 
00001161 l       .debug_str	00000000 
00001167 l       .debug_str	00000000 
0000116d l       .debug_str	00000000 
00001173 l       .debug_str	00000000 
00001179 l       .debug_str	00000000 
0000118a l       .debug_str	00000000 
000011c5 l       .debug_str	00000000 
0000120d l       .debug_str	00000000 
0000125d l       .debug_str	00000000 
00001262 l       .debug_str	00000000 
00001267 l       .debug_str	00000000 
0000126b l       .debug_str	00000000 
00001271 l       .debug_str	00000000 
00001277 l       .debug_str	00000000 
0000127d l       .debug_str	00000000 
0000128e l       .debug_str	00000000 
000012c9 l       .debug_str	00000000 
00001311 l       .debug_str	00000000 
00001361 l       .debug_str	00000000 
00001365 l       .debug_str	00000000 
0000136e l       .debug_str	00000000 
0000137f l       .debug_str	00000000 
000013ba l       .debug_str	00000000 
00001402 l       .debug_str	00000000 
00001452 l       .debug_str	00000000 
00001457 l       .debug_str	00000000 
0000145b l       .debug_str	00000000 
00001464 l       .debug_str	00000000 
0000146b l       .debug_str	00000000 
00001473 l       .debug_str	00000000 
00001485 l       .debug_str	00000000 
000014c1 l       .debug_str	00000000 
0000150a l       .debug_str	00000000 
0000155b l       .debug_str	00000000 
0000155f l       .debug_str	00000000 
00001565 l       .debug_str	00000000 
0000156b l       .debug_str	00000000 
00001571 l       .debug_str	00000000 
00001577 l       .debug_str	00000000 
0000157f l       .debug_str	00000000 
0000158d l       .debug_str	00000000 
0000159c l       .debug_str	00000000 
000015ad l       .debug_str	00000000 
000015b8 l       .debug_str	00000000 
000015c3 l       .debug_str	00000000 
000015ce l       .debug_str	00000000 
000015d5 l       .debug_str	00000000 
000015f8 l       .debug_str	00000000 
0000160a l       .debug_str	00000000 
00001646 l       .debug_str	00000000 
0000168f l       .debug_str	00000000 
000016e0 l       .debug_str	00000000 
000016e4 l       .debug_str	00000000 
000016ee l       .debug_str	00000000 
00001700 l       .debug_str	00000000 
0000173c l       .debug_str	00000000 
00001785 l       .debug_str	00000000 
000017d6 l       .debug_str	00000000 
000017db l       .debug_str	00000000 
000017e5 l       .debug_str	00000000 
000017f7 l       .debug_str	00000000 
00001833 l       .debug_str	00000000 
0000187c l       .debug_str	00000000 
000018cd l       .debug_str	00000000 
000018e1 l       .debug_str	00000000 
000018e5 l       .debug_str	00000000 
000018f3 l       .debug_str	00000000 
00001903 l       .debug_str	00000000 
0000190c l       .debug_str	00000000 
00001917 l       .debug_str	00000000 
00001926 l       .debug_str	00000000 
0000193b l       .debug_str	00000000 
00001973 l       .debug_str	00000000 
00001a1e l       .debug_str	00000000 
00001ad1 l       .debug_str	00000000 
00001adc l       .debug_str	00000000 
00001ae5 l       .debug_str	00000000 
00001b06 l       .debug_str	00000000 
00001b19 l       .debug_str	00000000 
00001b56 l       .debug_str	00000000 
00001be7 l       .debug_str	00000000 
00001c80 l       .debug_str	00000000 
00001c9c l       .debug_str	00000000 
00001cef l       .debug_str	00000000 
00001d4a l       .debug_str	00000000 
00001d67 l       .debug_str	00000000 
00001d7b l       .debug_str	00000000 
00001dce l       .debug_str	00000000 
00001e29 l       .debug_str	00000000 
00001e3f l       .debug_str	00000000 
00001e53 l       .debug_str	00000000 
00001ea1 l       .debug_str	00000000 
00001ef7 l       .debug_str	00000000 
00001f00 l       .debug_str	00000000 
00001f0e l       .debug_str	00000000 
00001f46 l       .debug_str	00000000 
00001f4c l       .debug_str	00000000 
00001f54 l       .debug_str	00000000 
00001f5b l       .debug_str	00000000 
00001f63 l       .debug_str	00000000 
00001f6e l       .debug_str	00000000 
00001f76 l       .debug_str	00000000 
00001f85 l       .debug_str	00000000 
00001f89 l       .debug_str	00000000 
00001f94 l       .debug_str	00000000 
00001fa0 l       .debug_str	00000000 
00001fab l       .debug_str	00000000 
00001fbc l       .debug_str	00000000 
00001fc2 l       .debug_str	00000000 
00001fca l       .debug_str	00000000 
00001fd1 l       .debug_str	00000000 
00001fdb l       .debug_str	00000000 
00001fe3 l       .debug_str	00000000 
00001feb l       .debug_str	00000000 
00002014 l       .debug_str	00000000 
0000201f l       .debug_str	00000000 
0000202b l       .debug_str	00000000 
00002033 l       .debug_str	00000000 
0000203c l       .debug_str	00000000 
00002047 l       .debug_str	00000000 
0000204e l       .debug_str	00000000 
00002059 l       .debug_str	00000000 
00002064 l       .debug_str	00000000 
00002074 l       .debug_str	00000000 
0000207e l       .debug_str	00000000 
00002084 l       .debug_str	00000000 
000020ad l       .debug_str	00000000 
000020ec l       .debug_str	00000000 
00002133 l       .debug_str	00000000 
0000213a l       .debug_str	00000000 
00002142 l       .debug_str	00000000 
00002159 l       .debug_str	00000000 
00002162 l       .debug_str	00000000 
00002172 l       .debug_str	00000000 
000021ac l       .debug_str	00000000 
000021c1 l       .debug_str	00000000 
000021ca l       .debug_str	00000000 
0000222e l       .debug_str	00000000 
0000229a l       .debug_str	00000000 
000022a4 l       .debug_str	00000000 
000022b4 l       .debug_str	00000000 
000022c9 l       .debug_str	00000000 
000022d1 l       .debug_str	00000000 
0000233c l       .debug_str	00000000 
000023af l       .debug_str	00000000 
000023b6 l       .debug_str	00000000 
000023be l       .debug_str	00000000 
000023dc l       .debug_str	00000000 
000023ec l       .debug_str	00000000 
00002426 l       .debug_str	00000000 
0000243b l       .debug_str	00000000 
0000244e l       .debug_str	00000000 
00002463 l       .debug_str	00000000 
0000246a l       .debug_str	00000000 
0000247f l       .debug_str	00000000 
000024b0 l       .debug_str	00000000 
00002533 l       .debug_str	00000000 
000025be l       .debug_str	00000000 
000025c5 l       .debug_str	00000000 
000025cd l       .debug_str	00000000 
000025eb l       .debug_str	00000000 
000025fb l       .debug_str	00000000 
0000263d l       .debug_str	00000000 
00002647 l       .debug_str	00000000 
00002654 l       .debug_str	00000000 
0000268a l       .debug_str	00000000 
0000269d l       .debug_str	00000000 
000026d9 l       .debug_str	00000000 
000026ea l       .debug_str	00000000 
000026ef l       .debug_str	00000000 
00002729 l       .debug_str	00000000 
00002730 l       .debug_str	00000000 
00002733 l       .debug_str	00000000 
00002737 l       .debug_str	00000000 
0000273e l       .debug_str	00000000 
00002741 l       .debug_str	00000000 
00002750 l       .debug_str	00000000 
0000275a l       .debug_str	00000000 
0000275e l       .debug_str	00000000 
00002761 l       .debug_str	00000000 
00002764 l       .debug_str	00000000 
00002769 l       .debug_str	00000000 
0000276f l       .debug_str	00000000 
00002776 l       .debug_str	00000000 
0000277e l       .debug_str	00000000 
00002788 l       .debug_str	00000000 
00002790 l       .debug_str	00000000 
0000279b l       .debug_str	00000000 
000027a6 l       .debug_str	00000000 
000027b3 l       .debug_str	00000000 
000027be l       .debug_str	00000000 
000027c6 l       .debug_str	00000000 
000027d1 l       .debug_str	00000000 
000027dc l       .debug_str	00000000 
000027e6 l       .debug_str	00000000 
000027f1 l       .debug_str	00000000 
000027fc l       .debug_str	00000000 
00002809 l       .debug_str	00000000 
00002815 l       .debug_str	00000000 
00002822 l       .debug_str	00000000 
00002830 l       .debug_str	00000000 
0000283a l       .debug_str	00000000 
00002847 l       .debug_str	00000000 
00002853 l       .debug_str	00000000 
0000285c l       .debug_str	00000000 
000028cf l       .debug_str	00000000 
000028d4 l       .debug_str	00000000 
00002906 l       .debug_str	00000000 
00002908 l       .debug_str	00000000 
0000290e l       .debug_str	00000000 
00002913 l       .debug_str	00000000 
00002918 l       .debug_str	00000000 
0000291e l       .debug_str	00000000 
00002924 l       .debug_str	00000000 
00002932 l       .debug_str	00000000 
0000293c l       .debug_str	00000000 
00002940 l       .debug_str	00000000 
00002948 l       .debug_str	00000000 
00002950 l       .debug_str	00000000 
00002957 l       .debug_str	00000000 
00002963 l       .debug_str	00000000 
0000296e l       .debug_str	00000000 
00002975 l       .debug_str	00000000 
0000297b l       .debug_str	00000000 
0000297f l       .debug_str	00000000 
00002985 l       .debug_str	00000000 
0000298b l       .debug_str	00000000 
0000298e l       .debug_str	00000000 
0000299d l       .debug_str	00000000 
000029a1 l       .debug_str	00000000 
000029aa l       .debug_str	00000000 
000029b6 l       .debug_str	00000000 
000029cf l       .debug_str	00000000 
000029d4 l       .debug_str	00000000 
000029e5 l       .debug_str	00000000 
000029ef l       .debug_str	00000000 
00002a4d l       .debug_str	00000000 
00002a58 l       .debug_str	00000000 
00002a75 l       .debug_str	00000000 
00002a79 l       .debug_str	00000000 
00002a81 l       .debug_str	00000000 
00002a98 l       .debug_str	00000000 
00002abc l       .debug_str	00000000 
00002ad8 l       .debug_str	00000000 
00002add l       .debug_str	00000000 
00002ae6 l       .debug_str	00000000 
00002aed l       .debug_str	00000000 
00002b06 l       .debug_str	00000000 
00002b10 l       .debug_str	00000000 
00002b2a l       .debug_str	00000000 
00002b3e l       .debug_str	00000000 
00002b47 l       .debug_str	00000000 
00002b4e l       .debug_str	00000000 
00002b59 l       .debug_str	00000000 
00002b64 l       .debug_str	00000000 
00002b68 l       .debug_str	00000000 
00002bc5 l       .debug_str	00000000 
00002bca l       .debug_str	00000000 
00002c26 l       .debug_str	00000000 
00002c2a l       .debug_str	00000000 
00002c87 l       .debug_str	00000000 
00002c8c l       .debug_str	00000000 
00002c90 l       .debug_str	00000000 
00002c95 l       .debug_str	00000000 
00002c9e l       .debug_str	00000000 
00002ce0 l       .debug_str	00000000 
00002d2a l       .debug_str	00000000 
00002d31 l       .debug_str	00000000 
00002d3f l       .debug_str	00000000 
00002d4c l       .debug_str	00000000 
00002d74 l       .debug_str	00000000 
00002da8 l       .debug_str	00000000 
00002db0 l       .debug_str	00000000 
00002dba l       .debug_str	00000000 
00002dc0 l       .debug_str	00000000 
00002dc5 l       .debug_str	00000000 
00002dcd l       .debug_str	00000000 
00002dd6 l       .debug_str	00000000 
00002dec l       .debug_str	00000000 
00002e0a l       .debug_str	00000000 
00002e13 l       .debug_str	00000000 
00002e1c l       .debug_str	00000000 
00002e32 l       .debug_str	00000000 
00002e50 l       .debug_str	00000000 
00002e55 l       .debug_str	00000000 
00002e59 l       .debug_str	00000000 
00002e62 l       .debug_str	00000000 
00002e78 l       .debug_str	00000000 
00002e96 l       .debug_str	00000000 
00002e9d l       .debug_str	00000000 
00002eb2 l       .debug_str	00000000 
00002ecf l       .debug_str	00000000 
00002ed7 l       .debug_str	00000000 
00002ee1 l       .debug_str	00000000 
00002ef8 l       .debug_str	00000000 
00002f17 l       .debug_str	00000000 
00002f21 l       .debug_str	00000000 
00002f27 l       .debug_str	00000000 
00002f34 l       .debug_str	00000000 
00002f38 l       .debug_str	00000000 
00002f40 l       .debug_str	00000000 
00002f95 l       .debug_str	00000000 
00002ff2 l       .debug_str	00000000 
00002ffa l       .debug_str	00000000 
00002fff l       .debug_str	00000000 
0000300c l       .debug_str	00000000 
00003012 l       .debug_str	00000000 
0000301b l       .debug_str	00000000 
00003044 l       .debug_str	00000000 
00003099 l       .debug_str	00000000 
000030f6 l       .debug_str	00000000 
000030ff l       .debug_str	00000000 
00003128 l       .debug_str	00000000 
0000317d l       .debug_str	00000000 
000031da l       .debug_str	00000000 
000031e4 l       .debug_str	00000000 
0000320d l       .debug_str	00000000 
00003262 l       .debug_str	00000000 
000032bf l       .debug_str	00000000 
000032c5 l       .debug_str	00000000 
000032ee l       .debug_str	00000000 
00003343 l       .debug_str	00000000 
000033a0 l       .debug_str	00000000 
000033a9 l       .debug_str	00000000 
000033d2 l       .debug_str	00000000 
00003427 l       .debug_str	00000000 
00003484 l       .debug_str	00000000 
0000349f l       .debug_str	00000000 
000034a5 l       .debug_str	00000000 
000034ae l       .debug_str	00000000 
000034b5 l       .debug_str	00000000 
000034c2 l       .debug_str	00000000 
000034fb l       .debug_str	00000000 
0000353c l       .debug_str	00000000 
00003543 l       .debug_str	00000000 
00003556 l       .debug_str	00000000 
00003571 l       .debug_str	00000000 
0000358b l       .debug_str	00000000 
00003590 l       .debug_str	00000000 
000035a1 l       .debug_str	00000000 
000035ba l       .debug_str	00000000 
000035cb l       .debug_str	00000000 
000035e4 l       .debug_str	00000000 
000035f5 l       .debug_str	00000000 
0000360e l       .debug_str	00000000 
00003620 l       .debug_str	00000000 
0000363a l       .debug_str	00000000 
0000364a l       .debug_str	00000000 
00003662 l       .debug_str	00000000 
00003668 l       .debug_str	00000000 
00003682 l       .debug_str	00000000 
00003686 l       .debug_str	00000000 
0000368a l       .debug_str	00000000 
0000368f l       .debug_str	00000000 
0000369b l       .debug_str	00000000 
000036cd l       .debug_str	00000000 
000036d7 l       .debug_str	00000000 
000036e3 l       .debug_str	00000000 
00003715 l       .debug_str	00000000 
0000371a l       .debug_str	00000000 
00003721 l       .debug_str	00000000 
0000374a l       .debug_str	00000000 
00003772 l       .debug_str	00000000 
000037c2 l       .debug_str	00000000 
000037ea l       .debug_str	00000000 
0000382c l       .debug_str	00000000 
00003854 l       .debug_str	00000000 
00003888 l       .debug_str	00000000 
000038b0 l       .debug_str	00000000 
000038f1 l       .debug_str	00000000 
00003919 l       .debug_str	00000000 
0000394c l       .debug_str	00000000 
00003974 l       .debug_str	00000000 
000039a0 l       .debug_str	00000000 
000039a5 l       .debug_str	00000000 
000039ab l       .debug_str	00000000 
000039b5 l       .debug_str	00000000 
000039be l       .debug_str	00000000 
000039c7 l       .debug_str	00000000 
000039d2 l       .debug_str	00000000 
000039dc l       .debug_str	00000000 
00003a0a l       .debug_str	00000000 
00003a22 l       .debug_str	00000000 
00003a2c l       .debug_str	00000000 
00003a56 l       .debug_str	00000000 
00003a5e l       .debug_str	00000000 
00003a65 l       .debug_str	00000000 
00003a90 l       .debug_str	00000000 
00003ac0 l       .debug_str	00000000 
00003ad9 l       .debug_str	00000000 
00003ae4 l       .debug_str	00000000 
00003b0c l       .debug_str	00000000 
00003b3a l       .debug_str	00000000 
00003b44 l       .debug_str	00000000 
00003b4c l       .debug_str	00000000 
00003b53 l       .debug_str	00000000 
00003b5a l       .debug_str	00000000 
00003b5f l       .debug_str	00000000 
00003b89 l       .debug_str	00000000 
00003bb8 l       .debug_str	00000000 
00003bd0 l       .debug_str	00000000 
00003bda l       .debug_str	00000000 
00003c02 l       .debug_str	00000000 
00003c2f l       .debug_str	00000000 
00003c57 l       .debug_str	00000000 
00003c81 l       .debug_str	00000000 
00003c89 l       .debug_str	00000000 
00003c92 l       .debug_str	00000000 
00003ca0 l       .debug_str	00000000 
00003ca7 l       .debug_str	00000000 
00003cae l       .debug_str	00000000 
00003cbe l       .debug_str	00000000 
00003cc7 l       .debug_str	00000000 
00003cd5 l       .debug_str	00000000 
00003ce3 l       .debug_str	00000000 
00003cef l       .debug_str	00000000 
00003cfb l       .debug_str	00000000 
00003d04 l       .debug_str	00000000 
00003d13 l       .debug_str	00000000 
00003d1b l       .debug_str	00000000 
00003d34 l       .debug_str	00000000 
00003d45 l       .debug_str	00000000 
00003d4d l       .debug_str	00000000 
00003d67 l       .debug_str	00000000 
00003d73 l       .debug_str	00000000 
00003d9f l       .debug_str	00000000 
00003db8 l       .debug_str	00000000 
00003dc3 l       .debug_str	00000000 
00003dee l       .debug_str	00000000 
00003df7 l       .debug_str	00000000 
00003e12 l       .debug_str	00000000 
00003e1f l       .debug_str	00000000 
00003e4c l       .debug_str	00000000 
00003e54 l       .debug_str	00000000 
00003e7c l       .debug_str	00000000 
00003e92 l       .debug_str	00000000 
00003e9d l       .debug_str	00000000 
00003ea1 l       .debug_str	00000000 
00003ebc l       .debug_str	00000000 
00003ec4 l       .debug_str	00000000 
00003eec l       .debug_str	00000000 
00003f17 l       .debug_str	00000000 
00003f3f l       .debug_str	00000000 
00003f6d l       .debug_str	00000000 
00003f95 l       .debug_str	00000000 
00003fc8 l       .debug_str	00000000 
00003ff0 l       .debug_str	00000000 
0000401b l       .debug_str	00000000 
00004024 l       .debug_str	00000000 
00004039 l       .debug_str	00000000 
00004044 l       .debug_str	00000000 
0000404b l       .debug_str	00000000 
00004073 l       .debug_str	00000000 
0000409d l       .debug_str	00000000 
000040c5 l       .debug_str	00000000 
00004100 l       .debug_str	00000000 
00004128 l       .debug_str	00000000 
00004165 l       .debug_str	00000000 
0000418d l       .debug_str	00000000 
000041cd l       .debug_str	00000000 
000041f5 l       .debug_str	00000000 
00004229 l       .debug_str	00000000 
00004232 l       .debug_str	00000000 
00004245 l       .debug_str	00000000 
00004250 l       .debug_str	00000000 
00004260 l       .debug_str	00000000 
0000427c l       .debug_str	00000000 
0000428a l       .debug_str	00000000 
000042b2 l       .debug_str	00000000 
000042ed l       .debug_str	00000000 
000042f2 l       .debug_str	00000000 
000042fe l       .debug_str	00000000 
00004300 l       .debug_str	00000000 
00004303 l       .debug_str	00000000 
00004314 l       .debug_str	00000000 
0000432d l       .debug_str	00000000 
00004331 l       .debug_str	00000000 
0000433b l       .debug_str	00000000 
00004340 l       .debug_str	00000000 
0000434f l       .debug_str	00000000 
00004357 l       .debug_str	00000000 
0000435e l       .debug_str	00000000 
00004365 l       .debug_str	00000000 
0000438c l       .debug_str	00000000 
000043df l       .debug_str	00000000 
0000443a l       .debug_str	00000000 
00004453 l       .debug_str	00000000 
0000445e l       .debug_str	00000000 
0000448d l       .debug_str	00000000 
000044c1 l       .debug_str	00000000 
00004517 l       .debug_str	00000000 
00004575 l       .debug_str	00000000 
0000459d l       .debug_str	00000000 
000045e0 l       .debug_str	00000000 
000045ef l       .debug_str	00000000 
000045fa l       .debug_str	00000000 
00004609 l       .debug_str	00000000 
0000461e l       .debug_str	00000000 
00004636 l       .debug_str	00000000 
00004689 l       .debug_str	00000000 
000046e4 l       .debug_str	00000000 
000046f9 l       .debug_str	00000000 
00004712 l       .debug_str	00000000 
0000473a l       .debug_str	00000000 
00004780 l       .debug_str	00000000 
000047b2 l       .debug_str	00000000 
000047c0 l       .debug_str	00000000 
000047c4 l       .debug_str	00000000 
000047ca l       .debug_str	00000000 
000047d8 l       .debug_str	00000000 
00004816 l       .debug_str	00000000 
00004826 l       .debug_str	00000000 
0000482a l       .debug_str	00000000 
0000482f l       .debug_str	00000000 
00004833 l       .debug_str	00000000 
00004838 l       .debug_str	00000000 
0000483e l       .debug_str	00000000 
0000484e l       .debug_str	00000000 
0000485a l       .debug_str	00000000 
00004866 l       .debug_str	00000000 
00004872 l       .debug_str	00000000 
0000487f l       .debug_str	00000000 
0000488b l       .debug_str	00000000 
00004899 l       .debug_str	00000000 
000048b0 l       .debug_str	00000000 
000048c5 l       .debug_str	00000000 
000048c8 l       .debug_str	00000000 
000048e8 l       .debug_str	00000000 
000048f1 l       .debug_str	00000000 
0000492b l       .debug_str	00000000 
0000493c l       .debug_str	00000000 
0000493e l       .debug_str	00000000 
0000496d l       .debug_str	00000000 
00004978 l       .debug_str	00000000 
00004992 l       .debug_str	00000000 
0000499e l       .debug_str	00000000 
000049a8 l       .debug_str	00000000 
000049ae l       .debug_str	00000000 
000049b3 l       .debug_str	00000000 
000049c4 l       .debug_str	00000000 
000049cd l       .debug_str	00000000 
000049d5 l       .debug_str	00000000 
000049df l       .debug_str	00000000 
000049ec l       .debug_str	00000000 
00004a33 l       .debug_str	00000000 
00004a51 l       .debug_str	00000000 
00004a5a l       .debug_str	00000000 
00004a62 l       .debug_str	00000000 
00004a6b l       .debug_str	00000000 
00004a72 l       .debug_str	00000000 
00004a78 l       .debug_str	00000000 
00004ae1 l       .debug_str	00000000 
00004b52 l       .debug_str	00000000 
00004b60 l       .debug_str	00000000 
00004b74 l       .debug_str	00000000 
00004bb0 l       .debug_str	00000000 
00004bbb l       .debug_str	00000000 
00004bc1 l       .debug_str	00000000 
00000000 l     O .bss..L_MergedGlobals	00000041 .L_MergedGlobals
00000000 l     O .rodata..Lanon.a56035f3358feb78c42af7a7f5ac36f0.10	00000010 .Lanon.a56035f3358feb78c42af7a7f5ac36f0.10
00000000 l     O .rodata..Lanon.a56035f3358feb78c42af7a7f5ac36f0.13	00000018 .Lanon.a56035f3358feb78c42af7a7f5ac36f0.13
00000000 l     O .rodata..Lanon.a56035f3358feb78c42af7a7f5ac36f0.14	0000000a .Lanon.a56035f3358feb78c42af7a7f5ac36f0.14
00000000 l     O .rodata..Lanon.a56035f3358feb78c42af7a7f5ac36f0.15	0000000d .Lanon.a56035f3358feb78c42af7a7f5ac36f0.15
00000000 l     O .rodata..Lanon.a56035f3358feb78c42af7a7f5ac36f0.17	00000010 .Lanon.a56035f3358feb78c42af7a7f5ac36f0.17
00000000 l     O .rodata..Lanon.a56035f3358feb78c42af7a7f5ac36f0.19	00000018 .Lanon.a56035f3358feb78c42af7a7f5ac36f0.19
00000000 l     O .rodata..Lanon.a56035f3358feb78c42af7a7f5ac36f0.2	00000001 .Lanon.a56035f3358feb78c42af7a7f5ac36f0.2
00000000 l     O .rodata..Lanon.a56035f3358feb78c42af7a7f5ac36f0.20	00000011 .Lanon.a56035f3358feb78c42af7a7f5ac36f0.20
00000000 l     O .rodata..Lanon.a56035f3358feb78c42af7a7f5ac36f0.21	00000018 .Lanon.a56035f3358feb78c42af7a7f5ac36f0.21
00000000 l     O .rodata..Lanon.a56035f3358feb78c42af7a7f5ac36f0.23	00000018 .Lanon.a56035f3358feb78c42af7a7f5ac36f0.23
00000000 l     O .rodata..Lanon.a56035f3358feb78c42af7a7f5ac36f0.24	00000016 .Lanon.a56035f3358feb78c42af7a7f5ac36f0.24
00000000 l     O .rodata..Lanon.a56035f3358feb78c42af7a7f5ac36f0.26	00000018 .Lanon.a56035f3358feb78c42af7a7f5ac36f0.26
00000000 l     O .rodata..Lanon.a56035f3358feb78c42af7a7f5ac36f0.27	00000018 .Lanon.a56035f3358feb78c42af7a7f5ac36f0.27
00000000 l     O .rodata..Lanon.a56035f3358feb78c42af7a7f5ac36f0.28	00000019 .Lanon.a56035f3358feb78c42af7a7f5ac36f0.28
00000000 l     O .rodata..Lanon.a56035f3358feb78c42af7a7f5ac36f0.29	0000000a .Lanon.a56035f3358feb78c42af7a7f5ac36f0.29
00000000 l     O .rodata.cst8	00000008 .Lanon.a56035f3358feb78c42af7a7f5ac36f0.30
00000000 l     O .rodata.cst16	00000010 .Lanon.a56035f3358feb78c42af7a7f5ac36f0.31
00000000 l     O .rodata..Lanon.a56035f3358feb78c42af7a7f5ac36f0.32	00000010 .Lanon.a56035f3358feb78c42af7a7f5ac36f0.32
00000000 l     O .rodata..Lanon.a56035f3358feb78c42af7a7f5ac36f0.34	00000018 .Lanon.a56035f3358feb78c42af7a7f5ac36f0.34
00000000 l     O .rodata..Lanon.a56035f3358feb78c42af7a7f5ac36f0.35	00000010 .Lanon.a56035f3358feb78c42af7a7f5ac36f0.35
00000000 l     O .rodata..Lanon.a56035f3358feb78c42af7a7f5ac36f0.36	00000010 .Lanon.a56035f3358feb78c42af7a7f5ac36f0.36
00000000 l     O .rodata..Lanon.a56035f3358feb78c42af7a7f5ac36f0.37	00000011 .Lanon.a56035f3358feb78c42af7a7f5ac36f0.37
00000000 l     O .rodata..Lanon.a56035f3358feb78c42af7a7f5ac36f0.38	00000011 .Lanon.a56035f3358feb78c42af7a7f5ac36f0.38
00000000 l     O .rodata..Lanon.a56035f3358feb78c42af7a7f5ac36f0.39	00000010 .Lanon.a56035f3358feb78c42af7a7f5ac36f0.39
00000000 l     O .rodata..Lanon.a56035f3358feb78c42af7a7f5ac36f0.41	00000018 .Lanon.a56035f3358feb78c42af7a7f5ac36f0.41
00000000 l     O .rodata..Lanon.a56035f3358feb78c42af7a7f5ac36f0.42	00000010 .Lanon.a56035f3358feb78c42af7a7f5ac36f0.42
00000000 l     O .rodata..Lanon.a56035f3358feb78c42af7a7f5ac36f0.44	00000018 .Lanon.a56035f3358feb78c42af7a7f5ac36f0.44
00000000 l     O .rodata..Lanon.a56035f3358feb78c42af7a7f5ac36f0.45	00000007 .Lanon.a56035f3358feb78c42af7a7f5ac36f0.45
00000000 l     O .rodata..Lanon.a56035f3358feb78c42af7a7f5ac36f0.46	0000000d .Lanon.a56035f3358feb78c42af7a7f5ac36f0.46
00000004 l     O .rodata.cst4	00000004 .Lanon.a56035f3358feb78c42af7a7f5ac36f0.47
00000000 l     O .rodata..Lanon.a56035f3358feb78c42af7a7f5ac36f0.48	00000006 .Lanon.a56035f3358feb78c42af7a7f5ac36f0.48
00000000 l     O .rodata..Lanon.a56035f3358feb78c42af7a7f5ac36f0.49	00000006 .Lanon.a56035f3358feb78c42af7a7f5ac36f0.49
00000000 l     O .rodata..Lanon.a56035f3358feb78c42af7a7f5ac36f0.5	00000018 .Lanon.a56035f3358feb78c42af7a7f5ac36f0.5
00000000 l     O .rodata..Lanon.a56035f3358feb78c42af7a7f5ac36f0.50	00000003 .Lanon.a56035f3358feb78c42af7a7f5ac36f0.50
00000000 l     O .rodata..Lanon.a56035f3358feb78c42af7a7f5ac36f0.51	00000005 .Lanon.a56035f3358feb78c42af7a7f5ac36f0.51
00000000 l     O .rodata..Lanon.a56035f3358feb78c42af7a7f5ac36f0.52	00000018 .Lanon.a56035f3358feb78c42af7a7f5ac36f0.52
00000000 l     O .rodata..Lanon.a56035f3358feb78c42af7a7f5ac36f0.53	0000004b .Lanon.a56035f3358feb78c42af7a7f5ac36f0.53
00000000 l     O .rodata..Lanon.a56035f3358feb78c42af7a7f5ac36f0.54	00000018 .Lanon.a56035f3358feb78c42af7a7f5ac36f0.54
00000000 l     O .rodata..Lanon.a56035f3358feb78c42af7a7f5ac36f0.55	00000018 .Lanon.a56035f3358feb78c42af7a7f5ac36f0.55
00000000 l     O .rodata..Lanon.a56035f3358feb78c42af7a7f5ac36f0.56	00000021 .Lanon.a56035f3358feb78c42af7a7f5ac36f0.56
00000000 l     O .rodata..Lanon.a56035f3358feb78c42af7a7f5ac36f0.57	00000012 .Lanon.a56035f3358feb78c42af7a7f5ac36f0.57
00000000 l     O .rodata..Lanon.a56035f3358feb78c42af7a7f5ac36f0.58	00000009 .Lanon.a56035f3358feb78c42af7a7f5ac36f0.58
00000008 l     O .rodata.cst8	00000008 .Lanon.a56035f3358feb78c42af7a7f5ac36f0.59
00000000 l     O .rodata.cst4	00000004 .Lanon.a56035f3358feb78c42af7a7f5ac36f0.6
00000000 l     O .rodata..Lanon.a56035f3358feb78c42af7a7f5ac36f0.60	00000001 .Lanon.a56035f3358feb78c42af7a7f5ac36f0.60
00000000 l     O .rodata..Lanon.a56035f3358feb78c42af7a7f5ac36f0.61	0000000e .Lanon.a56035f3358feb78c42af7a7f5ac36f0.61
00000000 l     O .rodata..Lanon.a56035f3358feb78c42af7a7f5ac36f0.62	00000002 .Lanon.a56035f3358feb78c42af7a7f5ac36f0.62
00000000 l     O .rodata..Lanon.a56035f3358feb78c42af7a7f5ac36f0.63	0000000c .Lanon.a56035f3358feb78c42af7a7f5ac36f0.63
00000000 l     O .rodata..Lanon.a56035f3358feb78c42af7a7f5ac36f0.64	00000009 .Lanon.a56035f3358feb78c42af7a7f5ac36f0.64
00000000 l     O .rodata..Lanon.a56035f3358feb78c42af7a7f5ac36f0.65	0000000d .Lanon.a56035f3358feb78c42af7a7f5ac36f0.65
00000000 l     O .rodata..Lanon.a56035f3358feb78c42af7a7f5ac36f0.66	0000000c .Lanon.a56035f3358feb78c42af7a7f5ac36f0.66
00000000 l     O .rodata..Lanon.a56035f3358feb78c42af7a7f5ac36f0.67	0000000b .Lanon.a56035f3358feb78c42af7a7f5ac36f0.67
00000000 l     O .rodata..Lanon.a56035f3358feb78c42af7a7f5ac36f0.68	0000000c .Lanon.a56035f3358feb78c42af7a7f5ac36f0.68
00000000 l     O .rodata..Lanon.a56035f3358feb78c42af7a7f5ac36f0.69	0000000a .Lanon.a56035f3358feb78c42af7a7f5ac36f0.69
00000000 l     O .rodata..Lanon.a56035f3358feb78c42af7a7f5ac36f0.70	0000000a .Lanon.a56035f3358feb78c42af7a7f5ac36f0.70
00000000 l     O .rodata..Lanon.a56035f3358feb78c42af7a7f5ac36f0.71	00000009 .Lanon.a56035f3358feb78c42af7a7f5ac36f0.71
00000000 l     O .rodata..Lanon.a56035f3358feb78c42af7a7f5ac36f0.72	0000000a .Lanon.a56035f3358feb78c42af7a7f5ac36f0.72
00000000 l     O .rodata..Lanon.a56035f3358feb78c42af7a7f5ac36f0.73	0000000a .Lanon.a56035f3358feb78c42af7a7f5ac36f0.73
00000000 l     O .rodata..Lanon.a56035f3358feb78c42af7a7f5ac36f0.74	00000007 .Lanon.a56035f3358feb78c42af7a7f5ac36f0.74
00000000 l     O .rodata..Lanon.a56035f3358feb78c42af7a7f5ac36f0.75	0000000a .Lanon.a56035f3358feb78c42af7a7f5ac36f0.75
00000000 l     O .rodata..Lanon.a56035f3358feb78c42af7a7f5ac36f0.76	0000000c .Lanon.a56035f3358feb78c42af7a7f5ac36f0.76
00000000 l     O .rodata..Lanon.a56035f3358feb78c42af7a7f5ac36f0.77	0000000a .Lanon.a56035f3358feb78c42af7a7f5ac36f0.77
00000000 l     O .rodata..Lanon.a56035f3358feb78c42af7a7f5ac36f0.78	0000000a .Lanon.a56035f3358feb78c42af7a7f5ac36f0.78
00000000 l     O .rodata..Lanon.a56035f3358feb78c42af7a7f5ac36f0.79	00000007 .Lanon.a56035f3358feb78c42af7a7f5ac36f0.79
00000000 l     O .rodata..Lanon.a56035f3358feb78c42af7a7f5ac36f0.8	00000018 .Lanon.a56035f3358feb78c42af7a7f5ac36f0.8
00000000 l     O .rodata..Lanon.a56035f3358feb78c42af7a7f5ac36f0.9	00000010 .Lanon.a56035f3358feb78c42af7a7f5ac36f0.9
00000000 l     F .text._ZN42_$LT$$RF$T$u20$as$u20$core..fmt..Debug$GT$3fmt17h27455dd270634122E	00000036 _ZN42_$LT$$RF$T$u20$as$u20$core..fmt..Debug$GT$3fmt17h27455dd270634122E
00000000 l     F .text._ZN42_$LT$$RF$T$u20$as$u20$core..fmt..Debug$GT$3fmt17h653ee1736c41e59dE	0000003a _ZN42_$LT$$RF$T$u20$as$u20$core..fmt..Debug$GT$3fmt17h653ee1736c41e59dE
00000000 l     F .text._ZN42_$LT$$RF$T$u20$as$u20$core..fmt..Debug$GT$3fmt17h76fead27a1ddbfabE	0000003a _ZN42_$LT$$RF$T$u20$as$u20$core..fmt..Debug$GT$3fmt17h76fead27a1ddbfabE
00000000 l     F .text._ZN42_$LT$$RF$T$u20$as$u20$core..fmt..Debug$GT$3fmt17he00cb98dab49dbd2E	0000003a _ZN42_$LT$$RF$T$u20$as$u20$core..fmt..Debug$GT$3fmt17he00cb98dab49dbd2E
00000000 l     F .text._ZN5mylib13listen_sensor16read_temperature17h5746559456a1a162E	0000052e _ZN5mylib13listen_sensor16read_temperature17h5746559456a1a162E
00000000 l     O .data._ZN5mylib6mynewt2hw6sensor17LISTENER_INTERNAL17h820d2cc1dc7bfe02E	00000018 _ZN5mylib6mynewt2hw6sensor17LISTENER_INTERNAL17h820d2cc1dc7bfe02E
00000000 l     F .text._ZN5mylib6mynewt2hw6sensor21null_sensor_data_func17haff87e1ea84103ffE	00000004 _ZN5mylib6mynewt2hw6sensor21null_sensor_data_func17haff87e1ea84103ffE
00000001 l     O .bss..L_MergedGlobals	00000040 _ZN5mylib6mynewt8encoding12json_context12JSON_CONTEXT17h4e1f75e6d59c640cE
00000000 l     O .bss._ZN5mylib9send_coap12NETWORK_TASK17h9d7f2abc89e4a393E	00000050 _ZN5mylib9send_coap12NETWORK_TASK17h9d7f2abc89e4a393E
00000000 l     O .bss..L_MergedGlobals	00000001 _ZN5mylib9send_coap16NETWORK_IS_READY17he345ee1c8e8eda6fE.0.0
00000000 l     F .text._ZN5mylib9send_coap17network_task_func17h485106b354545a85E	0000011a _ZN5mylib9send_coap17network_task_func17h485106b354545a85E
00000000 l     O .bss._ZN5mylib9send_coap18NETWORK_TASK_STACK17h36dbba394cce5f8dE	00000400 _ZN5mylib9send_coap18NETWORK_TASK_STACK17h36dbba394cce5f8dE
00000000 l     O .rodata.str.4	00000010 str.4
00000000 l    d  .text._ZN42_$LT$$RF$T$u20$as$u20$core..fmt..Debug$GT$3fmt17h27455dd270634122E	00000000 .text._ZN42_$LT$$RF$T$u20$as$u20$core..fmt..Debug$GT$3fmt17h27455dd270634122E
00000000 l    d  .text._ZN42_$LT$$RF$T$u20$as$u20$core..fmt..Debug$GT$3fmt17h653ee1736c41e59dE	00000000 .text._ZN42_$LT$$RF$T$u20$as$u20$core..fmt..Debug$GT$3fmt17h653ee1736c41e59dE
00000000 l    d  .text._ZN42_$LT$$RF$T$u20$as$u20$core..fmt..Debug$GT$3fmt17h76fead27a1ddbfabE	00000000 .text._ZN42_$LT$$RF$T$u20$as$u20$core..fmt..Debug$GT$3fmt17h76fead27a1ddbfabE
00000000 l    d  .text._ZN42_$LT$$RF$T$u20$as$u20$core..fmt..Debug$GT$3fmt17he00cb98dab49dbd2E	00000000 .text._ZN42_$LT$$RF$T$u20$as$u20$core..fmt..Debug$GT$3fmt17he00cb98dab49dbd2E
00000000 l    d  .text._ZN86_$LT$mylib..mynewt..encoding..json..json_encoder$u20$as$u20$core..default..Default$GT$7default17h982a2e832001d0bdE	00000000 .text._ZN86_$LT$mylib..mynewt..encoding..json..json_encoder$u20$as$u20$core..default..Default$GT$7default17h982a2e832001d0bdE
00000000 l    d  .text._ZN85_$LT$mylib..mynewt..encoding..json..json_enum_t$u20$as$u20$core..default..Default$GT$7default17h4a50b4a9a7701847E	00000000 .text._ZN85_$LT$mylib..mynewt..encoding..json..json_enum_t$u20$as$u20$core..default..Default$GT$7default17h4a50b4a9a7701847E
00000000 l    d  .text._ZN114_$LT$mylib..mynewt..encoding..json..json_array_t__bindgen_ty_1__bindgen_ty_1$u20$as$u20$core..default..Default$GT$7default17ha4adbe312ab55923E	00000000 .text._ZN114_$LT$mylib..mynewt..encoding..json..json_array_t__bindgen_ty_1__bindgen_ty_1$u20$as$u20$core..default..Default$GT$7default17ha4adbe312ab55923E
00000000 l    d  .text._ZN100_$LT$mylib..mynewt..encoding..json..json_array_t__bindgen_ty_1$u20$as$u20$core..default..Default$GT$7default17h5f7de247a55fbecaE	00000000 .text._ZN100_$LT$mylib..mynewt..encoding..json..json_array_t__bindgen_ty_1$u20$as$u20$core..default..Default$GT$7default17h5f7de247a55fbecaE
00000000 l    d  .text._ZN86_$LT$mylib..mynewt..encoding..json..json_array_t$u20$as$u20$core..default..Default$GT$7default17ha0fa87000e834280E	00000000 .text._ZN86_$LT$mylib..mynewt..encoding..json..json_array_t$u20$as$u20$core..default..Default$GT$7default17ha0fa87000e834280E
00000000 l    d  .text._ZN99_$LT$mylib..mynewt..encoding..json..json_attr_t__bindgen_ty_1$u20$as$u20$core..default..Default$GT$7default17h3c58d62a33949173E	00000000 .text._ZN99_$LT$mylib..mynewt..encoding..json..json_attr_t__bindgen_ty_1$u20$as$u20$core..default..Default$GT$7default17h3c58d62a33949173E
00000000 l    d  .text._ZN85_$LT$mylib..mynewt..encoding..json..json_attr_t$u20$as$u20$core..default..Default$GT$7default17h0cca0584c26562b8E	00000000 .text._ZN85_$LT$mylib..mynewt..encoding..json..json_attr_t$u20$as$u20$core..default..Default$GT$7default17h0cca0584c26562b8E
00000000 l    d  .text._ZN91_$LT$$u5b$u8$u5d$$u20$as$u20$mylib..mynewt..encoding..json_context..ToBytesOptionalNull$GT$21to_bytes_optional_nul17h03b0b329ca881075E	00000000 .text._ZN91_$LT$$u5b$u8$u5d$$u20$as$u20$mylib..mynewt..encoding..json_context..ToBytesOptionalNull$GT$21to_bytes_optional_nul17h03b0b329ca881075E
00000000 l    d  .text._ZN82_$LT$str$u20$as$u20$mylib..mynewt..encoding..json_context..ToBytesOptionalNull$GT$21to_bytes_optional_nul17h108c0c8bf9a30950E	00000000 .text._ZN82_$LT$str$u20$as$u20$mylib..mynewt..encoding..json_context..ToBytesOptionalNull$GT$21to_bytes_optional_nul17h108c0c8bf9a30950E
00000000 l    d  .text._ZN86_$LT$$RF$str$u20$as$u20$mylib..mynewt..encoding..json_context..ToBytesOptionalNull$GT$21to_bytes_optional_nul17hbb512c963821e18bE	00000000 .text._ZN86_$LT$$RF$str$u20$as$u20$mylib..mynewt..encoding..json_context..ToBytesOptionalNull$GT$21to_bytes_optional_nul17hbb512c963821e18bE
00000000 l    d  .text._ZN94_$LT$cstr_core..CStr$u20$as$u20$mylib..mynewt..encoding..json_context..ToBytesOptionalNull$GT$21to_bytes_optional_nul17h238cf9ea5f9d302eE	00000000 .text._ZN94_$LT$cstr_core..CStr$u20$as$u20$mylib..mynewt..encoding..json_context..ToBytesOptionalNull$GT$21to_bytes_optional_nul17h238cf9ea5f9d302eE
00000000 l    d  .text._ZN78_$LT$mylib..mynewt..kernel..os..os_event$u20$as$u20$core..default..Default$GT$7default17hd55cbe51333ea2e3E	00000000 .text._ZN78_$LT$mylib..mynewt..kernel..os..os_event$u20$as$u20$core..default..Default$GT$7default17hd55cbe51333ea2e3E
00000000 l    d  .text._ZN80_$LT$mylib..mynewt..kernel..os..os_callout$u20$as$u20$core..default..Default$GT$7default17h62ab9fe64b0476a4E	00000000 .text._ZN80_$LT$mylib..mynewt..kernel..os..os_callout$u20$as$u20$core..default..Default$GT$7default17h62ab9fe64b0476a4E
00000000 l    d  .text._ZN79_$LT$mylib..mynewt..kernel..os..hal_timer$u20$as$u20$core..default..Default$GT$7default17h7a4728b71af86950E	00000000 .text._ZN79_$LT$mylib..mynewt..kernel..os..hal_timer$u20$as$u20$core..default..Default$GT$7default17h7a4728b71af86950E
00000000 l    d  .text._ZN76_$LT$mylib..mynewt..kernel..os..os_dev$u20$as$u20$core..default..Default$GT$7default17h64ccc38bd96ac520E	00000000 .text._ZN76_$LT$mylib..mynewt..kernel..os..os_dev$u20$as$u20$core..default..Default$GT$7default17h64ccc38bd96ac520E
00000000 l    d  .text._ZN77_$LT$mylib..mynewt..kernel..os..os_mbuf$u20$as$u20$core..default..Default$GT$7default17h307ef86156fcb3bdE	00000000 .text._ZN77_$LT$mylib..mynewt..kernel..os..os_mbuf$u20$as$u20$core..default..Default$GT$7default17h307ef86156fcb3bdE
00000000 l    d  .text._ZN80_$LT$mylib..mynewt..kernel..os..os_mempool$u20$as$u20$core..default..Default$GT$7default17hd0690e599c578949E	00000000 .text._ZN80_$LT$mylib..mynewt..kernel..os..os_mempool$u20$as$u20$core..default..Default$GT$7default17hd0690e599c578949E
00000000 l    d  .text._ZN85_$LT$mylib..mynewt..kernel..os..os_sanity_check$u20$as$u20$core..default..Default$GT$7default17h1892fac639610923E	00000000 .text._ZN85_$LT$mylib..mynewt..kernel..os..os_sanity_check$u20$as$u20$core..default..Default$GT$7default17h1892fac639610923E
00000000 l    d  .text._ZN77_$LT$mylib..mynewt..kernel..os..os_task$u20$as$u20$core..default..Default$GT$7default17hdec024014da851e9E	00000000 .text._ZN77_$LT$mylib..mynewt..kernel..os..os_task$u20$as$u20$core..default..Default$GT$7default17hdec024014da851e9E
00000000 l    d  .text._ZN76_$LT$mylib..mynewt..kernel..os..os_sem$u20$as$u20$core..default..Default$GT$7default17he9dac6d905e4a480E	00000000 .text._ZN76_$LT$mylib..mynewt..kernel..os..os_sem$u20$as$u20$core..default..Default$GT$7default17he9dac6d905e4a480E
00000000 l    d  .text._ZN100_$LT$mylib..mynewt..hw..sensor..bindings..os_dev__bindgen_ty_1$u20$as$u20$core..default..Default$GT$7default17h9f98e0532c78fc8aE	00000000 .text._ZN100_$LT$mylib..mynewt..hw..sensor..bindings..os_dev__bindgen_ty_1$u20$as$u20$core..default..Default$GT$7default17h9f98e0532c78fc8aE
00000000 l    d  .text._ZN93_$LT$mylib..mynewt..hw..sensor..bindings..sensor_data_t$u20$as$u20$core..default..Default$GT$7default17h566c2d91c5a7bfe4E	00000000 .text._ZN93_$LT$mylib..mynewt..hw..sensor..bindings..sensor_data_t$u20$as$u20$core..default..Default$GT$7default17h566c2d91c5a7bfe4E
00000000 l    d  .text._ZN95_$LT$mylib..mynewt..hw..sensor..bindings..sensor_listener$u20$as$u20$core..default..Default$GT$7default17hac8e4c45263c41eeE	00000000 .text._ZN95_$LT$mylib..mynewt..hw..sensor..bindings..sensor_listener$u20$as$u20$core..default..Default$GT$7default17hac8e4c45263c41eeE
00000000 l    d  .text._ZN98_$LT$mylib..mynewt..hw..sensor..bindings..sensor_type_traits$u20$as$u20$core..default..Default$GT$7default17h94297b4d1b83d1d8E	00000000 .text._ZN98_$LT$mylib..mynewt..hw..sensor..bindings..sensor_type_traits$u20$as$u20$core..default..Default$GT$7default17h94297b4d1b83d1d8E
00000000 l    d  .text._ZN100_$LT$mylib..mynewt..hw..sensor..bindings..sensor_notify_ev_ctx$u20$as$u20$core..default..Default$GT$7default17h29e0d9c0dc058767E	00000000 .text._ZN100_$LT$mylib..mynewt..hw..sensor..bindings..sensor_notify_ev_ctx$u20$as$u20$core..default..Default$GT$7default17h29e0d9c0dc058767E
00000000 l    d  .text._ZN86_$LT$mylib..mynewt..hw..sensor..bindings..sensor$u20$as$u20$core..default..Default$GT$7default17h2d83cce13de2e372E	00000000 .text._ZN86_$LT$mylib..mynewt..hw..sensor..bindings..sensor$u20$as$u20$core..default..Default$GT$7default17h2d83cce13de2e372E
00000000 l    d  .text._ZN93_$LT$mylib..mynewt..hw..sensor..bindings.._bindgen_ty_1$u20$as$u20$core..default..Default$GT$7default17h7e1f75c025c54723E	00000000 .text._ZN93_$LT$mylib..mynewt..hw..sensor..bindings.._bindgen_ty_1$u20$as$u20$core..default..Default$GT$7default17h7e1f75c025c54723E
00000000 l    d  .text._ZN5mylib6mynewt2hw6sensor21null_sensor_data_func17haff87e1ea84103ffE	00000000 .text._ZN5mylib6mynewt2hw6sensor21null_sensor_data_func17haff87e1ea84103ffE
00000000 l    d  .text._ZN101_$LT$mylib..mynewt..libs..sensor_coap..json_value__bindgen_ty_1$u20$as$u20$core..default..Default$GT$7default17ha677d1a6459b729eE	00000000 .text._ZN101_$LT$mylib..mynewt..libs..sensor_coap..json_value__bindgen_ty_1$u20$as$u20$core..default..Default$GT$7default17ha677d1a6459b729eE
00000000 l    d  .text._ZN104_$LT$mylib..mynewt..libs..sensor_network..sensor_network_interface$u20$as$u20$core..default..Default$GT$7default17h5ebbb0309c6df401E	00000000 .text._ZN104_$LT$mylib..mynewt..libs..sensor_network..sensor_network_interface$u20$as$u20$core..default..Default$GT$7default17h5ebbb0309c6df401E
00000000 l    d  .text._ZN5mylib6mynewt6result95_$LT$impl$u20$core..convert..From$LT$mylib..mynewt..result..MynewtError$GT$$u20$for$u20$i32$GT$4from17h6f98d82047c2a358E	00000000 .text._ZN5mylib6mynewt6result95_$LT$impl$u20$core..convert..From$LT$mylib..mynewt..result..MynewtError$GT$$u20$for$u20$i32$GT$4from17h6f98d82047c2a358E
00000000 l    d  .text._ZN5mylib13listen_sensor16read_temperature17h5746559456a1a162E	00000000 .text._ZN5mylib13listen_sensor16read_temperature17h5746559456a1a162E
00000000 l    d  .text._ZN5mylib9send_coap17network_task_func17h485106b354545a85E	00000000 .text._ZN5mylib9send_coap17network_task_func17h485106b354545a85E
00000000 l    d  .text.main	00000000 .text.main
00000000 l    d  .text.rust_begin_unwind	00000000 .text.rust_begin_unwind
00000000 l    d  .text._ZN85_$LT$mylib..mynewt..encoding..json_context..JsonError$u20$as$u20$core..fmt..Debug$GT$3fmt17h02045c24b189eb9fE	00000000 .text._ZN85_$LT$mylib..mynewt..encoding..json_context..JsonError$u20$as$u20$core..fmt..Debug$GT$3fmt17h02045c24b189eb9fE
00000000 l    d  .text._ZN71_$LT$mylib..mynewt..result..MynewtError$u20$as$u20$core..fmt..Debug$GT$3fmt17h79a8899db0271e45E	00000000 .text._ZN71_$LT$mylib..mynewt..result..MynewtError$u20$as$u20$core..fmt..Debug$GT$3fmt17h79a8899db0271e45E
00000000 l    d  .rodata..Lanon.a56035f3358feb78c42af7a7f5ac36f0.0	00000000 .rodata..Lanon.a56035f3358feb78c42af7a7f5ac36f0.0
00000000 l    d  .rodata..Lanon.a56035f3358feb78c42af7a7f5ac36f0.1	00000000 .rodata..Lanon.a56035f3358feb78c42af7a7f5ac36f0.1
00000000 l    d  .rodata..Lanon.a56035f3358feb78c42af7a7f5ac36f0.3	00000000 .rodata..Lanon.a56035f3358feb78c42af7a7f5ac36f0.3
00000000 l    d  .rodata..Lanon.a56035f3358feb78c42af7a7f5ac36f0.4	00000000 .rodata..Lanon.a56035f3358feb78c42af7a7f5ac36f0.4
00000000 l    d  .rodata..Lanon.a56035f3358feb78c42af7a7f5ac36f0.7	00000000 .rodata..Lanon.a56035f3358feb78c42af7a7f5ac36f0.7
00000000 l    d  .rodata..Lanon.a56035f3358feb78c42af7a7f5ac36f0.11	00000000 .rodata..Lanon.a56035f3358feb78c42af7a7f5ac36f0.11
00000000 l    d  .rodata..Lanon.a56035f3358feb78c42af7a7f5ac36f0.12	00000000 .rodata..Lanon.a56035f3358feb78c42af7a7f5ac36f0.12
00000000 l    d  .data._ZN5mylib6mynewt2hw6sensor17LISTENER_INTERNAL17h820d2cc1dc7bfe02E	00000000 .data._ZN5mylib6mynewt2hw6sensor17LISTENER_INTERNAL17h820d2cc1dc7bfe02E
00000000 l    d  .rodata..Lanon.a56035f3358feb78c42af7a7f5ac36f0.16	00000000 .rodata..Lanon.a56035f3358feb78c42af7a7f5ac36f0.16
00000000 l    d  .rodata..Lanon.a56035f3358feb78c42af7a7f5ac36f0.18	00000000 .rodata..Lanon.a56035f3358feb78c42af7a7f5ac36f0.18
00000000 l    d  .rodata..Lanon.a56035f3358feb78c42af7a7f5ac36f0.22	00000000 .rodata..Lanon.a56035f3358feb78c42af7a7f5ac36f0.22
00000000 l    d  .rodata..Lanon.a56035f3358feb78c42af7a7f5ac36f0.25	00000000 .rodata..Lanon.a56035f3358feb78c42af7a7f5ac36f0.25
00000000 l    d  .bss._ZN5mylib9send_coap12NETWORK_TASK17h9d7f2abc89e4a393E	00000000 .bss._ZN5mylib9send_coap12NETWORK_TASK17h9d7f2abc89e4a393E
00000000 l    d  .bss._ZN5mylib9send_coap18NETWORK_TASK_STACK17h36dbba394cce5f8dE	00000000 .bss._ZN5mylib9send_coap18NETWORK_TASK_STACK17h36dbba394cce5f8dE
00000000 l    d  .rodata..Lanon.a56035f3358feb78c42af7a7f5ac36f0.33	00000000 .rodata..Lanon.a56035f3358feb78c42af7a7f5ac36f0.33
00000000 l    d  .rodata.str.4	00000000 .rodata.str.4
00000000 l    d  .rodata..Lanon.a56035f3358feb78c42af7a7f5ac36f0.40	00000000 .rodata..Lanon.a56035f3358feb78c42af7a7f5ac36f0.40
00000000 l    d  .rodata..Lanon.a56035f3358feb78c42af7a7f5ac36f0.43	00000000 .rodata..Lanon.a56035f3358feb78c42af7a7f5ac36f0.43
00000000 l    d  .bss..L_MergedGlobals	00000000 .bss..L_MergedGlobals
00000000 l    d  .debug_loc	00000000 .debug_loc
00000000 l    d  .debug_abbrev	00000000 .debug_abbrev
00000000 l    d  .debug_info	00000000 .debug_info
00000000 l    d  .debug_ranges	00000000 .debug_ranges
00000000 l    d  .debug_frame	00000000 .debug_frame
00000000 l    d  .debug_line	00000000 .debug_line
00000000 g     F .text._ZN100_$LT$mylib..mynewt..encoding..json..json_array_t__bindgen_ty_1$u20$as$u20$core..default..Default$GT$7default17h5f7de247a55fbecaE	00000010 _ZN100_$LT$mylib..mynewt..encoding..json..json_array_t__bindgen_ty_1$u20$as$u20$core..default..Default$GT$7default17h5f7de247a55fbecaE
00000000 g     F .text._ZN100_$LT$mylib..mynewt..hw..sensor..bindings..os_dev__bindgen_ty_1$u20$as$u20$core..default..Default$GT$7default17h9f98e0532c78fc8aE	00000004 _ZN100_$LT$mylib..mynewt..hw..sensor..bindings..os_dev__bindgen_ty_1$u20$as$u20$core..default..Default$GT$7default17h9f98e0532c78fc8aE
00000000 g     F .text._ZN100_$LT$mylib..mynewt..hw..sensor..bindings..os_dev__bindgen_ty_1$u20$as$u20$core..default..Default$GT$7default17h9f98e0532c78fc8aE	00000004 _ZN100_$LT$mylib..mynewt..hw..sensor..bindings..sensor__bindgen_ty_1$u20$as$u20$core..default..Default$GT$7default17h4b08a635bc580d42E
00000000 g     F .text._ZN100_$LT$mylib..mynewt..hw..sensor..bindings..os_dev__bindgen_ty_1$u20$as$u20$core..default..Default$GT$7default17h9f98e0532c78fc8aE	00000004 _ZN100_$LT$mylib..mynewt..hw..sensor..bindings..sensor__bindgen_ty_2$u20$as$u20$core..default..Default$GT$7default17hbeffa7cfc066bc48E
00000000 g     F .text._ZN100_$LT$mylib..mynewt..hw..sensor..bindings..os_dev__bindgen_ty_1$u20$as$u20$core..default..Default$GT$7default17h9f98e0532c78fc8aE	00000004 _ZN100_$LT$mylib..mynewt..hw..sensor..bindings..sensor__bindgen_ty_3$u20$as$u20$core..default..Default$GT$7default17h3e40727d9f31da08E
00000000 g     F .text._ZN100_$LT$mylib..mynewt..hw..sensor..bindings..os_dev__bindgen_ty_1$u20$as$u20$core..default..Default$GT$7default17h9f98e0532c78fc8aE	00000004 _ZN100_$LT$mylib..mynewt..hw..sensor..bindings..sensor__bindgen_ty_4$u20$as$u20$core..default..Default$GT$7default17ha13125f7e555001cE
00000000 g     F .text._ZN100_$LT$mylib..mynewt..hw..sensor..bindings..sensor_notify_ev_ctx$u20$as$u20$core..default..Default$GT$7default17h29e0d9c0dc058767E	00000006 _ZN100_$LT$mylib..mynewt..hw..sensor..bindings..sensor_notify_ev_ctx$u20$as$u20$core..default..Default$GT$7default17h29e0d9c0dc058767E
00000000 g     F .text._ZN100_$LT$mylib..mynewt..hw..sensor..bindings..os_dev__bindgen_ty_1$u20$as$u20$core..default..Default$GT$7default17h9f98e0532c78fc8aE	00000004 _ZN101_$LT$mylib..mynewt..hw..sensor..bindings..os_task__bindgen_ty_1$u20$as$u20$core..default..Default$GT$7default17hd82763caab8b3bddE
00000000 g     F .text._ZN100_$LT$mylib..mynewt..hw..sensor..bindings..sensor_notify_ev_ctx$u20$as$u20$core..default..Default$GT$7default17h29e0d9c0dc058767E	00000006 _ZN101_$LT$mylib..mynewt..hw..sensor..bindings..os_task__bindgen_ty_2$u20$as$u20$core..default..Default$GT$7default17h04d519536cb97ad3E
00000000 g     F .text._ZN100_$LT$mylib..mynewt..hw..sensor..bindings..os_dev__bindgen_ty_1$u20$as$u20$core..default..Default$GT$7default17h9f98e0532c78fc8aE	00000004 _ZN101_$LT$mylib..mynewt..hw..sensor..bindings..os_task__bindgen_ty_3$u20$as$u20$core..default..Default$GT$7default17h696f5995a98cfa1bE
00000000 g     F .text._ZN101_$LT$mylib..mynewt..libs..sensor_coap..json_value__bindgen_ty_1$u20$as$u20$core..default..Default$GT$7default17ha677d1a6459b729eE	0000000c _ZN101_$LT$mylib..mynewt..libs..sensor_coap..json_value__bindgen_ty_1$u20$as$u20$core..default..Default$GT$7default17ha677d1a6459b729eE
00000000 g     F .text._ZN100_$LT$mylib..mynewt..hw..sensor..bindings..os_dev__bindgen_ty_1$u20$as$u20$core..default..Default$GT$7default17h9f98e0532c78fc8aE	00000004 _ZN101_$LT$mylib..mynewt..libs..sensor_coap..os_mempool__bindgen_ty_1$u20$as$u20$core..default..Default$GT$7default17hcc8de374a6aa3c5bE
00000000 g     F .text._ZN100_$LT$mylib..mynewt..hw..sensor..bindings..os_dev__bindgen_ty_1$u20$as$u20$core..default..Default$GT$7default17h9f98e0532c78fc8aE	00000004 _ZN101_$LT$mylib..mynewt..libs..sensor_coap..os_mempool__bindgen_ty_2$u20$as$u20$core..default..Default$GT$7default17h6167fdb95e3e0db3E
00000000 g     F .text._ZN100_$LT$mylib..mynewt..hw..sensor..bindings..os_dev__bindgen_ty_1$u20$as$u20$core..default..Default$GT$7default17h9f98e0532c78fc8aE	00000004 _ZN102_$LT$mylib..mynewt..hw..sensor..bindings..os_event__bindgen_ty_1$u20$as$u20$core..default..Default$GT$7default17hf190900c62f410b5E
00000000 g     F .text._ZN100_$LT$mylib..mynewt..hw..sensor..bindings..os_dev__bindgen_ty_1$u20$as$u20$core..default..Default$GT$7default17h9f98e0532c78fc8aE	00000004 _ZN102_$LT$mylib..mynewt..hw..sensor..bindings..os_mutex__bindgen_ty_1$u20$as$u20$core..default..Default$GT$7default17h9ae3cb77eb6b153dE
00000000 g     F .text._ZN100_$LT$mylib..mynewt..hw..sensor..bindings..os_dev__bindgen_ty_1$u20$as$u20$core..default..Default$GT$7default17h9f98e0532c78fc8aE	00000004 _ZN102_$LT$mylib..mynewt..libs..sensor_coap..os_memblock__bindgen_ty_1$u20$as$u20$core..default..Default$GT$7default17hf3ec9c4779f0a5bdE
00000000 g     F .text._ZN100_$LT$mylib..mynewt..hw..sensor..bindings..sensor_notify_ev_ctx$u20$as$u20$core..default..Default$GT$7default17h29e0d9c0dc058767E	00000006 _ZN103_$LT$mylib..mynewt..hw..sensor..bindings..os_eventq__bindgen_ty_1$u20$as$u20$core..default..Default$GT$7default17h309a5929df0c9a48E
00000000 g     F .text._ZN100_$LT$mylib..mynewt..hw..sensor..bindings..os_dev__bindgen_ty_1$u20$as$u20$core..default..Default$GT$7default17h9f98e0532c78fc8aE	00000004 _ZN103_$LT$mylib..mynewt..libs..sensor_coap..os_mbuf_pool__bindgen_ty_1$u20$as$u20$core..default..Default$GT$7default17he59bacdc71a1ee16E
00000000 g     F .text._ZN100_$LT$mylib..mynewt..hw..sensor..bindings..sensor_notify_ev_ctx$u20$as$u20$core..default..Default$GT$7default17h29e0d9c0dc058767E	00000006 _ZN104_$LT$mylib..mynewt..hw..sensor..bindings..os_callout__bindgen_ty_1$u20$as$u20$core..default..Default$GT$7default17h134cee657012a95dE
00000000 g     F .text._ZN100_$LT$mylib..mynewt..hw..sensor..bindings..os_dev__bindgen_ty_1$u20$as$u20$core..default..Default$GT$7default17h9f98e0532c78fc8aE	00000004 _ZN104_$LT$mylib..mynewt..hw..sensor..bindings..os_mempool__bindgen_ty_1$u20$as$u20$core..default..Default$GT$7default17h9700fc564308056dE
00000000 g     F .text._ZN100_$LT$mylib..mynewt..hw..sensor..bindings..os_dev__bindgen_ty_1$u20$as$u20$core..default..Default$GT$7default17h9f98e0532c78fc8aE	00000004 _ZN104_$LT$mylib..mynewt..hw..sensor..bindings..os_mempool__bindgen_ty_2$u20$as$u20$core..default..Default$GT$7default17hdc3d4929cc7de531E
00000000 g     F .text._ZN104_$LT$mylib..mynewt..libs..sensor_network..sensor_network_interface$u20$as$u20$core..default..Default$GT$7default17h5ebbb0309c6df401E	0000000e _ZN104_$LT$mylib..mynewt..libs..sensor_network..sensor_network_interface$u20$as$u20$core..default..Default$GT$7default17h5ebbb0309c6df401E
00000000 g     F .text._ZN100_$LT$mylib..mynewt..hw..sensor..bindings..os_dev__bindgen_ty_1$u20$as$u20$core..default..Default$GT$7default17h9f98e0532c78fc8aE	00000004 _ZN105_$LT$mylib..mynewt..hw..sensor..bindings..os_memblock__bindgen_ty_1$u20$as$u20$core..default..Default$GT$7default17hbe08a96617714d43E
00000000 g     F .text._ZN100_$LT$mylib..mynewt..hw..sensor..bindings..os_dev__bindgen_ty_1$u20$as$u20$core..default..Default$GT$7default17h9f98e0532c78fc8aE	00000004 _ZN106_$LT$mylib..mynewt..libs..mynewt_rust..os_sanity_check__bindgen_ty_1$u20$as$u20$core..default..Default$GT$7default17h76cb5ef3b42e6abdE
00000000 g     F .text._ZN100_$LT$mylib..mynewt..hw..sensor..bindings..os_dev__bindgen_ty_1$u20$as$u20$core..default..Default$GT$7default17h9f98e0532c78fc8aE	00000004 _ZN106_$LT$mylib..mynewt..libs..mynewt_rust..sensor_listener__bindgen_ty_1$u20$as$u20$core..default..Default$GT$7default17h4cb0e9dd2b5e26f5E
00000000 g     F .text._ZN100_$LT$mylib..mynewt..hw..sensor..bindings..os_dev__bindgen_ty_1$u20$as$u20$core..default..Default$GT$7default17h9f98e0532c78fc8aE	00000004 _ZN106_$LT$mylib..mynewt..libs..mynewt_rust..sensor_notifier__bindgen_ty_1$u20$as$u20$core..default..Default$GT$7default17h9fd0cfd045a51e2eE
00000000 g     F .text._ZN100_$LT$mylib..mynewt..hw..sensor..bindings..os_dev__bindgen_ty_1$u20$as$u20$core..default..Default$GT$7default17h9f98e0532c78fc8aE	00000004 _ZN107_$LT$mylib..mynewt..hw..sensor..bindings.._bindgen_ty_1__bindgen_ty_1$u20$as$u20$core..default..Default$GT$7default17h267830866935a528E
00000000 g     F .text._ZN100_$LT$mylib..mynewt..hw..sensor..bindings..os_dev__bindgen_ty_1$u20$as$u20$core..default..Default$GT$7default17h9f98e0532c78fc8aE	00000004 _ZN107_$LT$mylib..mynewt..kernel..os..os_time_change_listener__bindgen_ty_1$u20$as$u20$core..default..Default$GT$7default17h8561ec4b67bac3b2E
00000000 g     F .text._ZN100_$LT$mylib..mynewt..hw..sensor..bindings..os_dev__bindgen_ty_1$u20$as$u20$core..default..Default$GT$7default17h9f98e0532c78fc8aE	00000004 _ZN109_$LT$mylib..mynewt..hw..sensor..bindings..os_sanity_check__bindgen_ty_1$u20$as$u20$core..default..Default$GT$7default17hcb53e12dc72dbab6E
00000000 g     F .text._ZN100_$LT$mylib..mynewt..hw..sensor..bindings..os_dev__bindgen_ty_1$u20$as$u20$core..default..Default$GT$7default17h9f98e0532c78fc8aE	00000004 _ZN109_$LT$mylib..mynewt..hw..sensor..bindings..sensor_listener__bindgen_ty_1$u20$as$u20$core..default..Default$GT$7default17h18de59d07415c91aE
00000000 g     F .text._ZN100_$LT$mylib..mynewt..hw..sensor..bindings..os_dev__bindgen_ty_1$u20$as$u20$core..default..Default$GT$7default17h9f98e0532c78fc8aE	00000004 _ZN109_$LT$mylib..mynewt..hw..sensor..bindings..sensor_notifier__bindgen_ty_1$u20$as$u20$core..default..Default$GT$7default17he02c090d2e233379E
00000000 g     F .text._ZN100_$LT$mylib..mynewt..hw..sensor..bindings..os_dev__bindgen_ty_1$u20$as$u20$core..default..Default$GT$7default17h9f98e0532c78fc8aE	00000004 _ZN109_$LT$mylib..mynewt..libs..mynewt_rust..sensor_type_traits__bindgen_ty_1$u20$as$u20$core..default..Default$GT$7default17hb19a92b36779c679E
00000000 g     F .text._ZN100_$LT$mylib..mynewt..hw..sensor..bindings..sensor_notify_ev_ctx$u20$as$u20$core..default..Default$GT$7default17h29e0d9c0dc058767E	00000006 _ZN112_$LT$mylib..mynewt..encoding..json..json_value__bindgen_ty_1__bindgen_ty_1$u20$as$u20$core..default..Default$GT$7default17hdd3ffb8de887e4a3E
00000000 g     F .text._ZN100_$LT$mylib..mynewt..hw..sensor..bindings..os_dev__bindgen_ty_1$u20$as$u20$core..default..Default$GT$7default17h9f98e0532c78fc8aE	00000004 _ZN112_$LT$mylib..mynewt..hw..sensor..bindings..sensor_type_traits__bindgen_ty_1$u20$as$u20$core..default..Default$GT$7default17h16d315124ee59c8aE
00000000 g     F .text._ZN114_$LT$mylib..mynewt..encoding..json..json_array_t__bindgen_ty_1__bindgen_ty_1$u20$as$u20$core..default..Default$GT$7default17ha4adbe312ab55923E	0000000a _ZN114_$LT$mylib..mynewt..encoding..json..json_array_t__bindgen_ty_1__bindgen_ty_1$u20$as$u20$core..default..Default$GT$7default17ha4adbe312ab55923E
00000000 g     F .text._ZN114_$LT$mylib..mynewt..encoding..json..json_array_t__bindgen_ty_1__bindgen_ty_1$u20$as$u20$core..default..Default$GT$7default17ha4adbe312ab55923E	0000000a _ZN114_$LT$mylib..mynewt..encoding..json..json_array_t__bindgen_ty_1__bindgen_ty_2$u20$as$u20$core..default..Default$GT$7default17h1d01ecc5f3b53021E
00000000 g     F .text._ZN100_$LT$mylib..mynewt..hw..sensor..bindings..os_dev__bindgen_ty_1$u20$as$u20$core..default..Default$GT$7default17h9f98e0532c78fc8aE	00000004 _ZN114_$LT$mylib..mynewt..encoding..json..json_array_t__bindgen_ty_1__bindgen_ty_3$u20$as$u20$core..default..Default$GT$7default17h858f51ac1fdeeaebE
00000000 g     F .text._ZN100_$LT$mylib..mynewt..hw..sensor..bindings..os_dev__bindgen_ty_1$u20$as$u20$core..default..Default$GT$7default17h9f98e0532c78fc8aE	00000004 _ZN114_$LT$mylib..mynewt..encoding..json..json_array_t__bindgen_ty_1__bindgen_ty_4$u20$as$u20$core..default..Default$GT$7default17h051ebc53297057f2E
00000000 g     F .text._ZN100_$LT$mylib..mynewt..hw..sensor..bindings..os_dev__bindgen_ty_1$u20$as$u20$core..default..Default$GT$7default17h9f98e0532c78fc8aE	00000004 _ZN114_$LT$mylib..mynewt..encoding..json..json_array_t__bindgen_ty_1__bindgen_ty_5$u20$as$u20$core..default..Default$GT$7default17h4538416aea6257f7E
00000000 g     F .text._ZN100_$LT$mylib..mynewt..hw..sensor..bindings..os_dev__bindgen_ty_1$u20$as$u20$core..default..Default$GT$7default17h9f98e0532c78fc8aE	00000004 _ZN114_$LT$mylib..mynewt..encoding..json..json_array_t__bindgen_ty_1__bindgen_ty_6$u20$as$u20$core..default..Default$GT$7default17h69c41424cdd58289E
00000000 g     F .text._ZN100_$LT$mylib..mynewt..hw..sensor..bindings..sensor_notify_ev_ctx$u20$as$u20$core..default..Default$GT$7default17h29e0d9c0dc058767E	00000006 _ZN115_$LT$mylib..mynewt..libs..sensor_coap..json_value__bindgen_ty_1__bindgen_ty_1$u20$as$u20$core..default..Default$GT$7default17h58b94180166d64ceE
00000000         *UND*	00000000 _ZN4core3fmt3num3imp51_$LT$impl$u20$core..fmt..Display$u20$for$u20$u8$GT$3fmt17heb4d046d241d78d0E
00000000         *UND*	00000000 _ZN4core3fmt3num3imp52_$LT$impl$u20$core..fmt..Display$u20$for$u20$i32$GT$3fmt17h33b3bbdbc74b88baE
00000000         *UND*	00000000 _ZN4core3fmt3num3imp52_$LT$impl$u20$core..fmt..Display$u20$for$u20$u32$GT$3fmt17ha7805aa8d849f46cE
00000000         *UND*	00000000 _ZN4core3fmt3num52_$LT$impl$u20$core..fmt..LowerHex$u20$for$u20$u8$GT$3fmt17he275dc913fe9b8e5E
00000000         *UND*	00000000 _ZN4core3fmt3num52_$LT$impl$u20$core..fmt..UpperHex$u20$for$u20$u8$GT$3fmt17h1d24bfddebe6efa8E
00000000         *UND*	00000000 _ZN4core3fmt3num53_$LT$impl$u20$core..fmt..LowerHex$u20$for$u20$i32$GT$3fmt17hb2119167a92723afE
00000000         *UND*	00000000 _ZN4core3fmt3num53_$LT$impl$u20$core..fmt..LowerHex$u20$for$u20$u32$GT$3fmt17hc8816b6e2fbd78aaE
00000000         *UND*	00000000 _ZN4core3fmt3num53_$LT$impl$u20$core..fmt..UpperHex$u20$for$u20$i32$GT$3fmt17hc44988ae29d24532E
00000000         *UND*	00000000 _ZN4core3fmt3num53_$LT$impl$u20$core..fmt..UpperHex$u20$for$u20$u32$GT$3fmt17hc1bd8b99f165c287E
00000000         *UND*	00000000 _ZN4core3fmt8builders10DebugTuple6finish17h24d91625b3672e6dE
00000000         *UND*	00000000 _ZN4core3fmt9Formatter11debug_tuple17h793087e8ecab9022E
00000000         *UND*	00000000 _ZN4core3fmt9Formatter15debug_lower_hex17h6ead2f28bb05b574E
00000000         *UND*	00000000 _ZN4core3fmt9Formatter15debug_upper_hex17hd6d96e6aa5cb78d8E
00000000         *UND*	00000000 _ZN4core5panic8Location4file17h94cc6af18de736c4E
00000000         *UND*	00000000 _ZN4core5panic8Location4line17h3ffc63f14d0a6636E
00000000         *UND*	00000000 _ZN4core5panic9PanicInfo8location17h5226165d8771f8a2E
00000000         *UND*	00000000 _ZN4core5slice20slice_index_len_fail17hedb5bb240677a6b7E
00000000         *UND*	00000000 _ZN4core9panicking18panic_bounds_check17h946762cd0671aec9E
00000000         *UND*	00000000 _ZN4core9panicking5panic17h53ca63c6ac6312f8E
00000000         *UND*	00000000 _ZN4core9panicking9panic_fmt17h6b4d8e87b0965449E
00000000 g     F .text._ZN5mylib6mynewt6result95_$LT$impl$u20$core..convert..From$LT$mylib..mynewt..result..MynewtError$GT$$u20$for$u20$i32$GT$4from17h6f98d82047c2a358E	00000002 _ZN5mylib6mynewt6result95_$LT$impl$u20$core..convert..From$LT$mylib..mynewt..result..MynewtError$GT$$u20$for$u20$i32$GT$4from17h6f98d82047c2a358E
00000000 g     F .text._ZN71_$LT$mylib..mynewt..result..MynewtError$u20$as$u20$core..fmt..Debug$GT$3fmt17h79a8899db0271e45E	0000011a _ZN71_$LT$mylib..mynewt..result..MynewtError$u20$as$u20$core..fmt..Debug$GT$3fmt17h79a8899db0271e45E
00000000 g     F .text._ZN76_$LT$mylib..mynewt..kernel..os..os_dev$u20$as$u20$core..default..Default$GT$7default17h64ccc38bd96ac520E	0000000a _ZN76_$LT$mylib..mynewt..kernel..os..os_dev$u20$as$u20$core..default..Default$GT$7default17h64ccc38bd96ac520E
00000000 g     F .text._ZN76_$LT$mylib..mynewt..kernel..os..os_sem$u20$as$u20$core..default..Default$GT$7default17he9dac6d905e4a480E	00000008 _ZN76_$LT$mylib..mynewt..kernel..os..os_sem$u20$as$u20$core..default..Default$GT$7default17he9dac6d905e4a480E
00000000 g     F .text._ZN77_$LT$mylib..mynewt..kernel..os..os_mbuf$u20$as$u20$core..default..Default$GT$7default17h307ef86156fcb3bdE	0000000c _ZN77_$LT$mylib..mynewt..kernel..os..os_mbuf$u20$as$u20$core..default..Default$GT$7default17h307ef86156fcb3bdE
00000000 g     F .text._ZN77_$LT$mylib..mynewt..kernel..os..os_task$u20$as$u20$core..default..Default$GT$7default17hdec024014da851e9E	0000000a _ZN77_$LT$mylib..mynewt..kernel..os..os_task$u20$as$u20$core..default..Default$GT$7default17hdec024014da851e9E
00000000 g     F .text._ZN78_$LT$mylib..mynewt..kernel..os..os_event$u20$as$u20$core..default..Default$GT$7default17hd55cbe51333ea2e3E	0000000c _ZN78_$LT$mylib..mynewt..kernel..os..os_event$u20$as$u20$core..default..Default$GT$7default17hd55cbe51333ea2e3E
00000000 g     F .text._ZN114_$LT$mylib..mynewt..encoding..json..json_array_t__bindgen_ty_1__bindgen_ty_1$u20$as$u20$core..default..Default$GT$7default17ha4adbe312ab55923E	0000000a _ZN78_$LT$mylib..mynewt..kernel..os..os_mutex$u20$as$u20$core..default..Default$GT$7default17hd333a71f97e450d2E
00000000 g     F .text._ZN79_$LT$mylib..mynewt..kernel..os..hal_timer$u20$as$u20$core..default..Default$GT$7default17h7a4728b71af86950E	00000010 _ZN79_$LT$mylib..mynewt..kernel..os..hal_timer$u20$as$u20$core..default..Default$GT$7default17h7a4728b71af86950E
00000000 g     F .text._ZN77_$LT$mylib..mynewt..kernel..os..os_mbuf$u20$as$u20$core..default..Default$GT$7default17h307ef86156fcb3bdE	0000000c _ZN79_$LT$mylib..mynewt..kernel..os..os_eventq$u20$as$u20$core..default..Default$GT$7default17hf923dd7fb73ee7b8E
00000000 g     F .text._ZN79_$LT$mylib..mynewt..kernel..os..hal_timer$u20$as$u20$core..default..Default$GT$7default17h7a4728b71af86950E	00000010 _ZN79_$LT$mylib..mynewt..kernel..os..os_mqueue$u20$as$u20$core..default..Default$GT$7default17he890e280b8c988deE
00000000 g     F .text._ZN80_$LT$mylib..mynewt..kernel..os..os_callout$u20$as$u20$core..default..Default$GT$7default17h62ab9fe64b0476a4E	00000014 _ZN80_$LT$mylib..mynewt..kernel..os..os_callout$u20$as$u20$core..default..Default$GT$7default17h62ab9fe64b0476a4E
00000000 g     F .text._ZN80_$LT$mylib..mynewt..kernel..os..os_mempool$u20$as$u20$core..default..Default$GT$7default17hd0690e599c578949E	00000012 _ZN80_$LT$mylib..mynewt..kernel..os..os_mempool$u20$as$u20$core..default..Default$GT$7default17hd0690e599c578949E
00000000 g     F .text._ZN100_$LT$mylib..mynewt..hw..sensor..bindings..os_dev__bindgen_ty_1$u20$as$u20$core..default..Default$GT$7default17h9f98e0532c78fc8aE	00000004 _ZN81_$LT$mylib..mynewt..kernel..os..os_memblock$u20$as$u20$core..default..Default$GT$7default17h7a7b3003ade92e06E
00000000 g     F .text._ZN100_$LT$mylib..mynewt..hw..sensor..bindings..os_dev__bindgen_ty_1$u20$as$u20$core..default..Default$GT$7default17h9f98e0532c78fc8aE	00000004 _ZN81_$LT$mylib..mynewt..kernel..os..os_task_obj$u20$as$u20$core..default..Default$GT$7default17h5f663c3bdf630a3eE
00000000 g     F .text._ZN100_$LT$mylib..mynewt..hw..sensor..bindings..os_dev__bindgen_ty_1$u20$as$u20$core..default..Default$GT$7default17h9f98e0532c78fc8aE	00000004 _ZN82_$LT$mylib..mynewt..encoding..tinycbor..File$u20$as$u20$core..default..Default$GT$7default17h0ce9ed4bcaf2f392E
00000000 g     F .text._ZN114_$LT$mylib..mynewt..encoding..json..json_array_t__bindgen_ty_1__bindgen_ty_1$u20$as$u20$core..default..Default$GT$7default17ha4adbe312ab55923E	0000000a _ZN82_$LT$mylib..mynewt..kernel..os..os_mbuf_pool$u20$as$u20$core..default..Default$GT$7default17hc17c98a0c6fdc0fbE
00000000 g     F .text._ZN100_$LT$mylib..mynewt..hw..sensor..bindings..sensor_notify_ev_ctx$u20$as$u20$core..default..Default$GT$7default17h29e0d9c0dc058767E	00000006 _ZN82_$LT$mylib..mynewt..kernel..os..os_task_list$u20$as$u20$core..default..Default$GT$7default17h5fe2f190894134dbE
00000000 g     F .text._ZN82_$LT$str$u20$as$u20$mylib..mynewt..encoding..json_context..ToBytesOptionalNull$GT$21to_bytes_optional_nul17h108c0c8bf9a30950E	00000002 _ZN82_$LT$str$u20$as$u20$mylib..mynewt..encoding..json_context..ToBytesOptionalNull$GT$21to_bytes_optional_nul17h108c0c8bf9a30950E
00000000 g     F .text._ZN100_$LT$mylib..mynewt..encoding..json..json_array_t__bindgen_ty_1$u20$as$u20$core..default..Default$GT$7default17h5f7de247a55fbecaE	00000010 _ZN84_$LT$mylib..mynewt..encoding..json..json_value$u20$as$u20$core..default..Default$GT$7default17hf2f3554000de829bE
00000000 g     F .text._ZN76_$LT$mylib..mynewt..kernel..os..os_sem$u20$as$u20$core..default..Default$GT$7default17he9dac6d905e4a480E	00000008 _ZN84_$LT$mylib..mynewt..kernel..os..os_mbuf_pkthdr$u20$as$u20$core..default..Default$GT$7default17h0164a148abd96994E
00000000 g     F .text._ZN76_$LT$mylib..mynewt..kernel..os..os_dev$u20$as$u20$core..default..Default$GT$7default17h64ccc38bd96ac520E	0000000a _ZN84_$LT$mylib..mynewt..kernel..os..os_mempool_ext$u20$as$u20$core..default..Default$GT$7default17ha338ae449f8b9513E
00000000 g     F .text._ZN100_$LT$mylib..mynewt..hw..sensor..bindings..sensor_notify_ev_ctx$u20$as$u20$core..default..Default$GT$7default17h29e0d9c0dc058767E	00000006 _ZN84_$LT$mylib..mynewt..kernel..os..os_task_stailq$u20$as$u20$core..default..Default$GT$7default17hca908ca07ff0a577E
00000000 g     F .text._ZN77_$LT$mylib..mynewt..kernel..os..os_mbuf$u20$as$u20$core..default..Default$GT$7default17h307ef86156fcb3bdE	0000000c _ZN84_$LT$mylib..mynewt..libs..sensor_coap..os_mbuf$u20$as$u20$core..default..Default$GT$7default17hc958823ca59f2f65E
00000000 g     F .text._ZN85_$LT$mylib..mynewt..encoding..json..json_attr_t$u20$as$u20$core..default..Default$GT$7default17h0cca0584c26562b8E	0000000a _ZN85_$LT$mylib..mynewt..encoding..json..json_attr_t$u20$as$u20$core..default..Default$GT$7default17h0cca0584c26562b8E
00000000 g     F .text._ZN85_$LT$mylib..mynewt..encoding..json..json_enum_t$u20$as$u20$core..default..Default$GT$7default17h4a50b4a9a7701847E	00000008 _ZN85_$LT$mylib..mynewt..encoding..json..json_enum_t$u20$as$u20$core..default..Default$GT$7default17h4a50b4a9a7701847E
00000000 g     F .text._ZN85_$LT$mylib..mynewt..encoding..json_context..JsonError$u20$as$u20$core..fmt..Debug$GT$3fmt17h02045c24b189eb9fE	00000034 _ZN85_$LT$mylib..mynewt..encoding..json_context..JsonError$u20$as$u20$core..fmt..Debug$GT$3fmt17h02045c24b189eb9fE
00000000 g     F .text._ZN100_$LT$mylib..mynewt..hw..sensor..bindings..sensor_notify_ev_ctx$u20$as$u20$core..default..Default$GT$7default17h29e0d9c0dc058767E	00000006 _ZN85_$LT$mylib..mynewt..kernel..os..os_callout_list$u20$as$u20$core..default..Default$GT$7default17h0ec3a8a2a8bde319E
00000000 g     F .text._ZN85_$LT$mylib..mynewt..kernel..os..os_sanity_check$u20$as$u20$core..default..Default$GT$7default17h1892fac639610923E	0000000e _ZN85_$LT$mylib..mynewt..kernel..os..os_sanity_check$u20$as$u20$core..default..Default$GT$7default17h1892fac639610923E
00000000 g     F .text._ZN5mylib6mynewt6result95_$LT$impl$u20$core..convert..From$LT$mylib..mynewt..result..MynewtError$GT$$u20$for$u20$i32$GT$4from17h6f98d82047c2a358E	00000002 _ZN85_$LT$mylib..mynewt..result..MynewtError$u20$as$u20$core..convert..From$LT$i32$GT$$GT$4from17h413bce8b496c7710E
00000000 g     F .text._ZN86_$LT$$RF$str$u20$as$u20$mylib..mynewt..encoding..json_context..ToBytesOptionalNull$GT$21to_bytes_optional_nul17hbb512c963821e18bE	00000008 _ZN86_$LT$$RF$str$u20$as$u20$mylib..mynewt..encoding..json_context..ToBytesOptionalNull$GT$21to_bytes_optional_nul17hbb512c963821e18bE
00000000 g     F .text._ZN86_$LT$mylib..mynewt..encoding..json..json_array_t$u20$as$u20$core..default..Default$GT$7default17ha0fa87000e834280E	0000000a _ZN86_$LT$mylib..mynewt..encoding..json..json_array_t$u20$as$u20$core..default..Default$GT$7default17ha0fa87000e834280E
00000000 g     F .text._ZN86_$LT$mylib..mynewt..encoding..json..json_encoder$u20$as$u20$core..default..Default$GT$7default17h982a2e832001d0bdE	0000000a _ZN86_$LT$mylib..mynewt..encoding..json..json_encoder$u20$as$u20$core..default..Default$GT$7default17h982a2e832001d0bdE
00000000 g     F .text._ZN86_$LT$mylib..mynewt..hw..sensor..bindings..sensor$u20$as$u20$core..default..Default$GT$7default17h2d83cce13de2e372E	0000000a _ZN86_$LT$mylib..mynewt..hw..sensor..bindings..sensor$u20$as$u20$core..default..Default$GT$7default17h2d83cce13de2e372E
00000000 g     F .text._ZN77_$LT$mylib..mynewt..kernel..os..os_mbuf$u20$as$u20$core..default..Default$GT$7default17h307ef86156fcb3bdE	0000000c _ZN87_$LT$mylib..mynewt..encoding..tinycbor..CborValue$u20$as$u20$core..default..Default$GT$7default17h9af0bcb8d1343ee3E
00000000 g     F .text._ZN80_$LT$mylib..mynewt..kernel..os..os_mempool$u20$as$u20$core..default..Default$GT$7default17hd0690e599c578949E	00000012 _ZN87_$LT$mylib..mynewt..libs..sensor_coap..os_mempool$u20$as$u20$core..default..Default$GT$7default17h6da16acad898d628E
00000000 g     F .text._ZN114_$LT$mylib..mynewt..encoding..json..json_array_t__bindgen_ty_1__bindgen_ty_1$u20$as$u20$core..default..Default$GT$7default17ha4adbe312ab55923E	0000000a _ZN88_$LT$mylib..mynewt..encoding..tinycbor..CborParser$u20$as$u20$core..default..Default$GT$7default17h3031619777c494d8E
00000000 g     F .text._ZN100_$LT$mylib..mynewt..hw..sensor..bindings..sensor_notify_ev_ctx$u20$as$u20$core..default..Default$GT$7default17h29e0d9c0dc058767E	00000006 _ZN88_$LT$mylib..mynewt..encoding..tinycbor..cbor_iovec$u20$as$u20$core..default..Default$GT$7default17h1233c2bba444c46aE
00000000 g     F .text._ZN100_$LT$mylib..mynewt..hw..sensor..bindings..os_dev__bindgen_ty_1$u20$as$u20$core..default..Default$GT$7default17h9f98e0532c78fc8aE	00000004 _ZN88_$LT$mylib..mynewt..libs..sensor_coap..os_memblock$u20$as$u20$core..default..Default$GT$7default17h705589695a5771d8E
00000000 g     F .text._ZN77_$LT$mylib..mynewt..kernel..os..os_mbuf$u20$as$u20$core..default..Default$GT$7default17h307ef86156fcb3bdE	0000000c _ZN89_$LT$mylib..mynewt..encoding..tinycbor..CborEncoder$u20$as$u20$core..default..Default$GT$7default17h865de6b017bbaed5E
00000000 g     F .text._ZN85_$LT$mylib..mynewt..kernel..os..os_sanity_check$u20$as$u20$core..default..Default$GT$7default17h1892fac639610923E	0000000e _ZN89_$LT$mylib..mynewt..kernel..os..os_time_change_info$u20$as$u20$core..default..Default$GT$7default17h08c922a96141996cE
00000000 g     F .text._ZN114_$LT$mylib..mynewt..encoding..json..json_array_t__bindgen_ty_1__bindgen_ty_1$u20$as$u20$core..default..Default$GT$7default17ha4adbe312ab55923E	0000000a _ZN89_$LT$mylib..mynewt..libs..sensor_coap..os_mbuf_pool$u20$as$u20$core..default..Default$GT$7default17h857c81aee41d6b5eE
00000000 g     F .text._ZN77_$LT$mylib..mynewt..kernel..os..os_mbuf$u20$as$u20$core..default..Default$GT$7default17h307ef86156fcb3bdE	0000000c _ZN89_$LT$mylib..mynewt..libs..sensor_coap..sensor_value$u20$as$u20$core..default..Default$GT$7default17h2e574d6bdbca89d7E
00000000 g     F .text._ZN104_$LT$mylib..mynewt..libs..sensor_network..sensor_network_interface$u20$as$u20$core..default..Default$GT$7default17h5ebbb0309c6df401E	0000000e _ZN90_$LT$mylib..mynewt..hw..sensor..bindings..sensor_itf$u20$as$u20$core..default..Default$GT$7default17h734d17f17e9baf93E
00000000 g     F .text._ZN100_$LT$mylib..mynewt..hw..sensor..bindings..os_dev__bindgen_ty_1$u20$as$u20$core..default..Default$GT$7default17h9f98e0532c78fc8aE	00000004 _ZN90_$LT$mylib..mynewt..kernel..os..os_dev__bindgen_ty_1$u20$as$u20$core..default..Default$GT$7default17h10a3096fc4891899E
00000000 g     F .text._ZN100_$LT$mylib..mynewt..hw..sensor..bindings..os_dev__bindgen_ty_1$u20$as$u20$core..default..Default$GT$7default17h9f98e0532c78fc8aE	00000004 _ZN90_$LT$mylib..mynewt..kernel..os..os_sem__bindgen_ty_1$u20$as$u20$core..default..Default$GT$7default17hed9f682c474dec25E
00000000 g     F .text._ZN91_$LT$$u5b$u8$u5d$$u20$as$u20$mylib..mynewt..encoding..json_context..ToBytesOptionalNull$GT$21to_bytes_optional_nul17h03b0b329ca881075E	00000002 _ZN91_$LT$$u5b$u8$u5d$$u20$as$u20$mylib..mynewt..encoding..json_context..ToBytesOptionalNull$GT$21to_bytes_optional_nul17h03b0b329ca881075E
00000000 g     F .text._ZN100_$LT$mylib..mynewt..hw..sensor..bindings..os_dev__bindgen_ty_1$u20$as$u20$core..default..Default$GT$7default17h9f98e0532c78fc8aE	00000004 _ZN91_$LT$mylib..mynewt..kernel..os..os_mbuf__bindgen_ty_1$u20$as$u20$core..default..Default$GT$7default17h42c7945b861d68adE
00000000 g     F .text._ZN100_$LT$mylib..mynewt..hw..sensor..bindings..os_dev__bindgen_ty_1$u20$as$u20$core..default..Default$GT$7default17h9f98e0532c78fc8aE	00000004 _ZN91_$LT$mylib..mynewt..kernel..os..os_task__bindgen_ty_1$u20$as$u20$core..default..Default$GT$7default17h8ddbd5877d1625afE
00000000 g     F .text._ZN100_$LT$mylib..mynewt..hw..sensor..bindings..sensor_notify_ev_ctx$u20$as$u20$core..default..Default$GT$7default17h29e0d9c0dc058767E	00000006 _ZN91_$LT$mylib..mynewt..kernel..os..os_task__bindgen_ty_2$u20$as$u20$core..default..Default$GT$7default17hcb983e07206c75d0E
00000000 g     F .text._ZN100_$LT$mylib..mynewt..hw..sensor..bindings..os_dev__bindgen_ty_1$u20$as$u20$core..default..Default$GT$7default17h9f98e0532c78fc8aE	00000004 _ZN91_$LT$mylib..mynewt..kernel..os..os_task__bindgen_ty_3$u20$as$u20$core..default..Default$GT$7default17h0d10e2887de8d0bbE
00000000 g     F .text._ZN100_$LT$mylib..mynewt..hw..sensor..bindings..os_dev__bindgen_ty_1$u20$as$u20$core..default..Default$GT$7default17h9f98e0532c78fc8aE	00000004 _ZN92_$LT$mylib..mynewt..kernel..os..os_event__bindgen_ty_1$u20$as$u20$core..default..Default$GT$7default17heaff71294aef47b7E
00000000 g     F .text._ZN100_$LT$mylib..mynewt..hw..sensor..bindings..os_dev__bindgen_ty_1$u20$as$u20$core..default..Default$GT$7default17h9f98e0532c78fc8aE	00000004 _ZN92_$LT$mylib..mynewt..kernel..os..os_mutex__bindgen_ty_1$u20$as$u20$core..default..Default$GT$7default17hbd6c916e99fad5c8E
00000000 g     F .text._ZN93_$LT$mylib..mynewt..hw..sensor..bindings.._bindgen_ty_1$u20$as$u20$core..default..Default$GT$7default17h7e1f75c025c54723E	0000000a _ZN93_$LT$mylib..mynewt..hw..sensor..bindings.._bindgen_ty_1$u20$as$u20$core..default..Default$GT$7default17h7e1f75c025c54723E
00000000 g     F .text._ZN93_$LT$mylib..mynewt..hw..sensor..bindings..sensor_data_t$u20$as$u20$core..default..Default$GT$7default17h566c2d91c5a7bfe4E	00000008 _ZN93_$LT$mylib..mynewt..hw..sensor..bindings..sensor_data_t$u20$as$u20$core..default..Default$GT$7default17h566c2d91c5a7bfe4E
00000000 g     F .text._ZN100_$LT$mylib..mynewt..hw..sensor..bindings..sensor_notify_ev_ctx$u20$as$u20$core..default..Default$GT$7default17h29e0d9c0dc058767E	00000006 _ZN93_$LT$mylib..mynewt..kernel..os..hal_timer__bindgen_ty_1$u20$as$u20$core..default..Default$GT$7default17h1500410f7f939cd6E
00000000 g     F .text._ZN100_$LT$mylib..mynewt..hw..sensor..bindings..sensor_notify_ev_ctx$u20$as$u20$core..default..Default$GT$7default17h29e0d9c0dc058767E	00000006 _ZN93_$LT$mylib..mynewt..kernel..os..os_eventq__bindgen_ty_1$u20$as$u20$core..default..Default$GT$7default17hf208f854cc9a6eafE
00000000 g     F .text._ZN100_$LT$mylib..mynewt..hw..sensor..bindings..sensor_notify_ev_ctx$u20$as$u20$core..default..Default$GT$7default17h29e0d9c0dc058767E	00000006 _ZN93_$LT$mylib..mynewt..kernel..os..os_mqueue__bindgen_ty_1$u20$as$u20$core..default..Default$GT$7default17had22cdb60fe3e3cfE
00000000 g     F .text._ZN114_$LT$mylib..mynewt..encoding..json..json_array_t__bindgen_ty_1__bindgen_ty_1$u20$as$u20$core..default..Default$GT$7default17ha4adbe312ab55923E	0000000a _ZN93_$LT$mylib..mynewt..kernel..os..os_time_change_listener$u20$as$u20$core..default..Default$GT$7default17hf9e3cc17387278c4E
00000000 g     F .text._ZN94_$LT$cstr_core..CStr$u20$as$u20$mylib..mynewt..encoding..json_context..ToBytesOptionalNull$GT$21to_bytes_optional_nul17h238cf9ea5f9d302eE	00000002 _ZN94_$LT$cstr_core..CStr$u20$as$u20$mylib..mynewt..encoding..json_context..ToBytesOptionalNull$GT$21to_bytes_optional_nul17h238cf9ea5f9d302eE
00000000 g     F .text._ZN100_$LT$mylib..mynewt..hw..sensor..bindings..sensor_notify_ev_ctx$u20$as$u20$core..default..Default$GT$7default17h29e0d9c0dc058767E	00000006 _ZN94_$LT$mylib..mynewt..kernel..os..os_callout__bindgen_ty_1$u20$as$u20$core..default..Default$GT$7default17h03fd1c3c3ac98d36E
00000000 g     F .text._ZN100_$LT$mylib..mynewt..hw..sensor..bindings..os_dev__bindgen_ty_1$u20$as$u20$core..default..Default$GT$7default17h9f98e0532c78fc8aE	00000004 _ZN94_$LT$mylib..mynewt..kernel..os..os_mempool__bindgen_ty_1$u20$as$u20$core..default..Default$GT$7default17h5bf74be1ff846187E
00000000 g     F .text._ZN100_$LT$mylib..mynewt..hw..sensor..bindings..os_dev__bindgen_ty_1$u20$as$u20$core..default..Default$GT$7default17h9f98e0532c78fc8aE	00000004 _ZN94_$LT$mylib..mynewt..kernel..os..os_mempool__bindgen_ty_2$u20$as$u20$core..default..Default$GT$7default17h296f8e1bd4f9720cE
00000000 g     F .text._ZN95_$LT$mylib..mynewt..hw..sensor..bindings..sensor_listener$u20$as$u20$core..default..Default$GT$7default17hac8e4c45263c41eeE	00000010 _ZN95_$LT$mylib..mynewt..hw..sensor..bindings..sensor_listener$u20$as$u20$core..default..Default$GT$7default17hac8e4c45263c41eeE
00000000 g     F .text._ZN77_$LT$mylib..mynewt..kernel..os..os_mbuf$u20$as$u20$core..default..Default$GT$7default17h307ef86156fcb3bdE	0000000c _ZN95_$LT$mylib..mynewt..hw..sensor..bindings..sensor_notifier$u20$as$u20$core..default..Default$GT$7default17h87188da7a17a8451E
00000000 g     F .text._ZN100_$LT$mylib..mynewt..hw..sensor..bindings..sensor_notify_ev_ctx$u20$as$u20$core..default..Default$GT$7default17h29e0d9c0dc058767E	00000006 _ZN95_$LT$mylib..mynewt..hw..sensor..bindings..sensor_read_ctx$u20$as$u20$core..default..Default$GT$7default17hb4062a4e23a2a4fbE
00000000 g     F .text._ZN100_$LT$mylib..mynewt..hw..sensor..bindings..os_dev__bindgen_ty_1$u20$as$u20$core..default..Default$GT$7default17h9f98e0532c78fc8aE	00000004 _ZN95_$LT$mylib..mynewt..kernel..os..os_memblock__bindgen_ty_1$u20$as$u20$core..default..Default$GT$7default17hde5b8fdc42a23c31E
00000000 g     F .text._ZN100_$LT$mylib..mynewt..hw..sensor..bindings..os_dev__bindgen_ty_1$u20$as$u20$core..default..Default$GT$7default17h9f98e0532c78fc8aE	00000004 _ZN95_$LT$mylib..mynewt..kernel..os..os_task_obj__bindgen_ty_1$u20$as$u20$core..default..Default$GT$7default17h0991196f96cda771E
00000000 g     F .text._ZN95_$LT$mylib..mynewt..hw..sensor..bindings..sensor_listener$u20$as$u20$core..default..Default$GT$7default17hac8e4c45263c41eeE	00000010 _ZN96_$LT$mylib..mynewt..hw..sensor..bindings..sensor_timestamp$u20$as$u20$core..default..Default$GT$7default17h51b5895af019ddc5E
00000000 g     F .text._ZN100_$LT$mylib..mynewt..hw..sensor..bindings..os_dev__bindgen_ty_1$u20$as$u20$core..default..Default$GT$7default17h9f98e0532c78fc8aE	00000004 _ZN96_$LT$mylib..mynewt..kernel..os..os_mbuf_pool__bindgen_ty_1$u20$as$u20$core..default..Default$GT$7default17h76e54ecabbebec63E
00000000 g     F .text._ZN100_$LT$mylib..mynewt..hw..sensor..bindings..os_dev__bindgen_ty_1$u20$as$u20$core..default..Default$GT$7default17h9f98e0532c78fc8aE	00000004 _ZN97_$LT$mylib..mynewt..libs..mynewt_rust..os_dev__bindgen_ty_1$u20$as$u20$core..default..Default$GT$7default17hcf40bf5715656f3aE
00000000 g     F .text._ZN100_$LT$mylib..mynewt..hw..sensor..bindings..os_dev__bindgen_ty_1$u20$as$u20$core..default..Default$GT$7default17h9f98e0532c78fc8aE	00000004 _ZN97_$LT$mylib..mynewt..libs..mynewt_rust..sensor__bindgen_ty_1$u20$as$u20$core..default..Default$GT$7default17h820316430d2d6a44E
00000000 g     F .text._ZN100_$LT$mylib..mynewt..hw..sensor..bindings..os_dev__bindgen_ty_1$u20$as$u20$core..default..Default$GT$7default17h9f98e0532c78fc8aE	00000004 _ZN97_$LT$mylib..mynewt..libs..mynewt_rust..sensor__bindgen_ty_2$u20$as$u20$core..default..Default$GT$7default17h9c979624a9b8be7cE
00000000 g     F .text._ZN100_$LT$mylib..mynewt..hw..sensor..bindings..os_dev__bindgen_ty_1$u20$as$u20$core..default..Default$GT$7default17h9f98e0532c78fc8aE	00000004 _ZN97_$LT$mylib..mynewt..libs..mynewt_rust..sensor__bindgen_ty_3$u20$as$u20$core..default..Default$GT$7default17h2da5e136c3ed9f4fE
00000000 g     F .text._ZN100_$LT$mylib..mynewt..hw..sensor..bindings..os_dev__bindgen_ty_1$u20$as$u20$core..default..Default$GT$7default17h9f98e0532c78fc8aE	00000004 _ZN97_$LT$mylib..mynewt..libs..mynewt_rust..sensor__bindgen_ty_4$u20$as$u20$core..default..Default$GT$7default17h799e745b317fc326E
00000000 g     F .text._ZN101_$LT$mylib..mynewt..libs..sensor_coap..json_value__bindgen_ty_1$u20$as$u20$core..default..Default$GT$7default17ha677d1a6459b729eE	0000000c _ZN98_$LT$mylib..mynewt..encoding..json..json_value__bindgen_ty_1$u20$as$u20$core..default..Default$GT$7default17h0269d24e9a42ffe9E
00000000 g     F .text._ZN85_$LT$mylib..mynewt..encoding..json..json_enum_t$u20$as$u20$core..default..Default$GT$7default17h4a50b4a9a7701847E	00000008 _ZN98_$LT$mylib..mynewt..hw..sensor..bindings..sensor_read_ev_ctx$u20$as$u20$core..default..Default$GT$7default17hcab4133e4431e5e9E
00000000 g     F .text._ZN98_$LT$mylib..mynewt..hw..sensor..bindings..sensor_type_traits$u20$as$u20$core..default..Default$GT$7default17h94297b4d1b83d1d8E	0000000a _ZN98_$LT$mylib..mynewt..hw..sensor..bindings..sensor_type_traits$u20$as$u20$core..default..Default$GT$7default17h94297b4d1b83d1d8E
00000000 g     F .text._ZN100_$LT$mylib..mynewt..hw..sensor..bindings..os_dev__bindgen_ty_1$u20$as$u20$core..default..Default$GT$7default17h9f98e0532c78fc8aE	00000004 _ZN98_$LT$mylib..mynewt..kernel..os..os_mbuf_pkthdr__bindgen_ty_1$u20$as$u20$core..default..Default$GT$7default17hea641fa094c8e6bfE
00000000 g     F .text._ZN100_$LT$mylib..mynewt..hw..sensor..bindings..os_dev__bindgen_ty_1$u20$as$u20$core..default..Default$GT$7default17h9f98e0532c78fc8aE	00000004 _ZN98_$LT$mylib..mynewt..libs..mynewt_rust..os_task__bindgen_ty_1$u20$as$u20$core..default..Default$GT$7default17h6fb47c67e39cb95aE
00000000 g     F .text._ZN100_$LT$mylib..mynewt..hw..sensor..bindings..sensor_notify_ev_ctx$u20$as$u20$core..default..Default$GT$7default17h29e0d9c0dc058767E	00000006 _ZN98_$LT$mylib..mynewt..libs..mynewt_rust..os_task__bindgen_ty_2$u20$as$u20$core..default..Default$GT$7default17he045da6f7abbfcb0E
00000000 g     F .text._ZN100_$LT$mylib..mynewt..hw..sensor..bindings..os_dev__bindgen_ty_1$u20$as$u20$core..default..Default$GT$7default17h9f98e0532c78fc8aE	00000004 _ZN98_$LT$mylib..mynewt..libs..mynewt_rust..os_task__bindgen_ty_3$u20$as$u20$core..default..Default$GT$7default17h333b4d0d505b6946E
00000000 g     F .text._ZN100_$LT$mylib..mynewt..hw..sensor..bindings..os_dev__bindgen_ty_1$u20$as$u20$core..default..Default$GT$7default17h9f98e0532c78fc8aE	00000004 _ZN98_$LT$mylib..mynewt..libs..sensor_coap..os_mbuf__bindgen_ty_1$u20$as$u20$core..default..Default$GT$7default17h26418a9c7d3f6ca1E
00000000 g     F .text._ZN99_$LT$mylib..mynewt..encoding..json..json_attr_t__bindgen_ty_1$u20$as$u20$core..default..Default$GT$7default17h3c58d62a33949173E	0000000a _ZN99_$LT$mylib..mynewt..encoding..json..json_attr_t__bindgen_ty_1$u20$as$u20$core..default..Default$GT$7default17h3c58d62a33949173E
00000000 g     F .text._ZN93_$LT$mylib..mynewt..hw..sensor..bindings..sensor_data_t$u20$as$u20$core..default..Default$GT$7default17h566c2d91c5a7bfe4E	00000008 _ZN99_$LT$mylib..mynewt..encoding..json..json_attr_t__bindgen_ty_2$u20$as$u20$core..default..Default$GT$7default17hbda9826f6a943b8bE
00000000 g     F .text._ZN79_$LT$mylib..mynewt..kernel..os..hal_timer$u20$as$u20$core..default..Default$GT$7default17h7a4728b71af86950E	00000010 _ZN99_$LT$mylib..mynewt..hw..sensor..bindings..sensor_notify_os_ev$u20$as$u20$core..default..Default$GT$7default17h18d2b9ed50511cadE
00000000 g     F .text._ZN100_$LT$mylib..mynewt..hw..sensor..bindings..os_dev__bindgen_ty_1$u20$as$u20$core..default..Default$GT$7default17h9f98e0532c78fc8aE	00000004 _ZN99_$LT$mylib..mynewt..kernel..os..os_sanity_check__bindgen_ty_1$u20$as$u20$core..default..Default$GT$7default17h6b8ad996f9bea383E
00000000 g     F .text._ZN100_$LT$mylib..mynewt..hw..sensor..bindings..os_dev__bindgen_ty_1$u20$as$u20$core..default..Default$GT$7default17h9f98e0532c78fc8aE	00000004 _ZN99_$LT$mylib..mynewt..libs..mynewt_rust..os_event__bindgen_ty_1$u20$as$u20$core..default..Default$GT$7default17h8178cdc8f5fd9879E
00000000 g     F .text._ZN100_$LT$mylib..mynewt..hw..sensor..bindings..os_dev__bindgen_ty_1$u20$as$u20$core..default..Default$GT$7default17h9f98e0532c78fc8aE	00000004 _ZN99_$LT$mylib..mynewt..libs..mynewt_rust..os_mutex__bindgen_ty_1$u20$as$u20$core..default..Default$GT$7default17h420030df90259864E
00000000         *UND*	00000000 _ZN9cstr_core4CStr8from_ptr17h8dd780023dafede8E
00000000         *UND*	00000000 __aeabi_memclr4
00000000         *UND*	00000000 __aeabi_memclr8
00000000         *UND*	00000000 __aeabi_memcpy
00000000         *UND*	00000000 __bkpt
00000000         *UND*	00000000 cbor_encode_int
00000000         *UND*	00000000 cbor_encode_text_string
00000000         *UND*	00000000 cbor_encoder_close_container
00000000         *UND*	00000000 cbor_encoder_create_map
00000000         *UND*	00000000 console_buffer
00000000         *UND*	00000000 console_flush
00000000         *UND*	00000000 console_printhex
00000000         *UND*	00000000 device_get_name
00000000         *UND*	00000000 do_collector_post
00000000         *UND*	00000000 do_server_post
00000000         *UND*	00000000 g_encoder
00000000         *UND*	00000000 get_device_id
00000000         *UND*	00000000 get_temp_data
00000000         *UND*	00000000 get_temp_raw_data
00000000         *UND*	00000000 init_collector_post
00000000         *UND*	00000000 init_server_post
00000000         *UND*	00000000 is_collector_node
00000000         *UND*	00000000 is_null_sensor
00000000         *UND*	00000000 is_null_sensor_data
00000000         *UND*	00000000 is_sensor_node
00000000         *UND*	00000000 is_standalone_node
00000000         *UND*	00000000 json_helper_close_array
00000000         *UND*	00000000 json_helper_object_array_end_item
00000000         *UND*	00000000 json_helper_object_array_start_item
00000000         *UND*	00000000 json_helper_set_array
00000000         *UND*	00000000 json_helper_set_int
00000000         *UND*	00000000 json_helper_set_text_string
00000000         *UND*	00000000 json_rep_end_root_object
00000000         *UND*	00000000 json_rep_start_root_object
00000000 g     F .text.main	00000192 main
00000000         *UND*	00000000 null_sensor
00000000         *UND*	00000000 os_eventq_dflt_get
00000000         *UND*	00000000 os_eventq_run
00000000         *UND*	00000000 os_task_init
00000000         *UND*	00000000 os_time_delay
00000000         *UND*	00000000 register_collector_transport
00000000         *UND*	00000000 register_server_transport
00000000         *UND*	00000000 root_map
00000000 g     F .text.rust_begin_unwind	00000072 rust_begin_unwind
00000000         *UND*	00000000 rust_sysinit
00000000         *UND*	00000000 sensor_get_device
00000000         *UND*	00000000 sensor_mgr_find_next_bydevname
00000000         *UND*	00000000 sensor_register_listener
00000000         *UND*	00000000 sensor_set_poll_rate_ms
00000000         *UND*	00000000 should_send_to_collector



Disassembly of section .text._ZN42_$LT$$RF$T$u20$as$u20$core..fmt..Debug$GT$3fmt17h27455dd270634122E:

00000000 <_ZN42_$LT$$RF$T$u20$as$u20$core..fmt..Debug$GT$3fmt17h27455dd270634122E>:
_ZN42_$LT$$RF$T$u20$as$u20$core..fmt..Debug$GT$3fmt17h27455dd270634122E():
/rustc/50a0defd5a93523067ef239936cc2e0755220904/src/libcore/fmt/mod.rs:1914
   0:	b510      	push	{r4, lr}
   2:	b084      	sub	sp, #16
   4:	6800      	ldr	r0, [r0, #0]
   6:	ac01      	add	r4, sp, #4
_ZN85_$LT$mylib..mynewt..encoding..json_context..JsonError$u20$as$u20$core..fmt..Debug$GT$3fmt17h02045c24b189eb9fE():
/Users/Luppy/mynewt/stm32bluepill-mynewt-sensor/src/mynewt/encoding/json_context.rs:88
        ptr as *mut c_void
    }
}

/// Error codes for JSON encoding failure
#[derive(Debug, PartialEq)]
   8:	7800      	ldrb	r0, [r0, #0]
   a:	2801      	cmp	r0, #1
   c:	d106      	bne.n	1c <_ZN42_$LT$$RF$T$u20$as$u20$core..fmt..Debug$GT$3fmt17h27455dd270634122E+0x1c>
   e:	f240 0200 	movw	r2, #0
  12:	4620      	mov	r0, r4
  14:	f2c0 0200 	movt	r2, #0
  18:	230e      	movs	r3, #14
  1a:	e005      	b.n	28 <_ZN42_$LT$$RF$T$u20$as$u20$core..fmt..Debug$GT$3fmt17h27455dd270634122E+0x28>
  1c:	f240 0200 	movw	r2, #0
  20:	4620      	mov	r0, r4
  22:	f2c0 0200 	movt	r2, #0
  26:	2302      	movs	r3, #2
  28:	f7ff fffe 	bl	0 <_ZN4core3fmt9Formatter11debug_tuple17h793087e8ecab9022E>
  2c:	4620      	mov	r0, r4
  2e:	f7ff fffe 	bl	0 <_ZN4core3fmt8builders10DebugTuple6finish17h24d91625b3672e6dE>
_ZN42_$LT$$RF$T$u20$as$u20$core..fmt..Debug$GT$3fmt17h27455dd270634122E():
/rustc/50a0defd5a93523067ef239936cc2e0755220904/src/libcore/fmt/mod.rs:1914
  32:	b004      	add	sp, #16
  34:	bd10      	pop	{r4, pc}

Disassembly of section .text._ZN42_$LT$$RF$T$u20$as$u20$core..fmt..Debug$GT$3fmt17h653ee1736c41e59dE:

00000000 <_ZN42_$LT$$RF$T$u20$as$u20$core..fmt..Debug$GT$3fmt17h653ee1736c41e59dE>:
_ZN42_$LT$$RF$T$u20$as$u20$core..fmt..Debug$GT$3fmt17h653ee1736c41e59dE():
/rustc/50a0defd5a93523067ef239936cc2e0755220904/src/libcore/fmt/mod.rs:1914
   0:	b5b0      	push	{r4, r5, r7, lr}
   2:	6805      	ldr	r5, [r0, #0]
_ZN4core3fmt3num50_$LT$impl$u20$core..fmt..Debug$u20$for$u20$u32$GT$3fmt17hc183193e86b0db88E():
/rustc/50a0defd5a93523067ef239936cc2e0755220904/src/libcore/fmt/num.rs:147
   4:	4608      	mov	r0, r1
   6:	460c      	mov	r4, r1
   8:	f7ff fffe 	bl	0 <_ZN4core3fmt9Formatter15debug_lower_hex17h6ead2f28bb05b574E>
   c:	b128      	cbz	r0, 1a <_ZN42_$LT$$RF$T$u20$as$u20$core..fmt..Debug$GT$3fmt17h653ee1736c41e59dE+0x1a>
/rustc/50a0defd5a93523067ef239936cc2e0755220904/src/libcore/fmt/num.rs:148
   e:	4628      	mov	r0, r5
  10:	4621      	mov	r1, r4
  12:	e8bd 40b0 	ldmia.w	sp!, {r4, r5, r7, lr}
  16:	f7ff bffe 	b.w	0 <_ZN4core3fmt3num53_$LT$impl$u20$core..fmt..LowerHex$u20$for$u20$u32$GT$3fmt17hc8816b6e2fbd78aaE>
/rustc/50a0defd5a93523067ef239936cc2e0755220904/src/libcore/fmt/num.rs:149
  1a:	4620      	mov	r0, r4
  1c:	f7ff fffe 	bl	0 <_ZN4core3fmt9Formatter15debug_upper_hex17hd6d96e6aa5cb78d8E>
  20:	b128      	cbz	r0, 2e <_ZN42_$LT$$RF$T$u20$as$u20$core..fmt..Debug$GT$3fmt17h653ee1736c41e59dE+0x2e>
/rustc/50a0defd5a93523067ef239936cc2e0755220904/src/libcore/fmt/num.rs:150
  22:	4628      	mov	r0, r5
  24:	4621      	mov	r1, r4
  26:	e8bd 40b0 	ldmia.w	sp!, {r4, r5, r7, lr}
  2a:	f7ff bffe 	b.w	0 <_ZN4core3fmt3num53_$LT$impl$u20$core..fmt..UpperHex$u20$for$u20$u32$GT$3fmt17hc1bd8b99f165c287E>
/rustc/50a0defd5a93523067ef239936cc2e0755220904/src/libcore/fmt/num.rs:152
  2e:	4628      	mov	r0, r5
  30:	4621      	mov	r1, r4
  32:	e8bd 40b0 	ldmia.w	sp!, {r4, r5, r7, lr}
  36:	f7ff bffe 	b.w	0 <_ZN4core3fmt3num3imp52_$LT$impl$u20$core..fmt..Display$u20$for$u20$u32$GT$3fmt17ha7805aa8d849f46cE>

Disassembly of section .text._ZN42_$LT$$RF$T$u20$as$u20$core..fmt..Debug$GT$3fmt17h76fead27a1ddbfabE:

00000000 <_ZN42_$LT$$RF$T$u20$as$u20$core..fmt..Debug$GT$3fmt17h76fead27a1ddbfabE>:
_ZN42_$LT$$RF$T$u20$as$u20$core..fmt..Debug$GT$3fmt17h76fead27a1ddbfabE():
/rustc/50a0defd5a93523067ef239936cc2e0755220904/src/libcore/fmt/mod.rs:1914
   0:	b5b0      	push	{r4, r5, r7, lr}
   2:	6805      	ldr	r5, [r0, #0]
_ZN4core3fmt3num49_$LT$impl$u20$core..fmt..Debug$u20$for$u20$u8$GT$3fmt17h271d1c938b44f4eaE():
/rustc/50a0defd5a93523067ef239936cc2e0755220904/src/libcore/fmt/num.rs:147
   4:	4608      	mov	r0, r1
   6:	460c      	mov	r4, r1
   8:	f7ff fffe 	bl	0 <_ZN4core3fmt9Formatter15debug_lower_hex17h6ead2f28bb05b574E>
   c:	b128      	cbz	r0, 1a <_ZN42_$LT$$RF$T$u20$as$u20$core..fmt..Debug$GT$3fmt17h76fead27a1ddbfabE+0x1a>
/rustc/50a0defd5a93523067ef239936cc2e0755220904/src/libcore/fmt/num.rs:148
   e:	4628      	mov	r0, r5
  10:	4621      	mov	r1, r4
  12:	e8bd 40b0 	ldmia.w	sp!, {r4, r5, r7, lr}
  16:	f7ff bffe 	b.w	0 <_ZN4core3fmt3num52_$LT$impl$u20$core..fmt..LowerHex$u20$for$u20$u8$GT$3fmt17he275dc913fe9b8e5E>
/rustc/50a0defd5a93523067ef239936cc2e0755220904/src/libcore/fmt/num.rs:149
  1a:	4620      	mov	r0, r4
  1c:	f7ff fffe 	bl	0 <_ZN4core3fmt9Formatter15debug_upper_hex17hd6d96e6aa5cb78d8E>
  20:	b128      	cbz	r0, 2e <_ZN42_$LT$$RF$T$u20$as$u20$core..fmt..Debug$GT$3fmt17h76fead27a1ddbfabE+0x2e>
/rustc/50a0defd5a93523067ef239936cc2e0755220904/src/libcore/fmt/num.rs:150
  22:	4628      	mov	r0, r5
  24:	4621      	mov	r1, r4
  26:	e8bd 40b0 	ldmia.w	sp!, {r4, r5, r7, lr}
  2a:	f7ff bffe 	b.w	0 <_ZN4core3fmt3num52_$LT$impl$u20$core..fmt..UpperHex$u20$for$u20$u8$GT$3fmt17h1d24bfddebe6efa8E>
/rustc/50a0defd5a93523067ef239936cc2e0755220904/src/libcore/fmt/num.rs:152
  2e:	4628      	mov	r0, r5
  30:	4621      	mov	r1, r4
  32:	e8bd 40b0 	ldmia.w	sp!, {r4, r5, r7, lr}
  36:	f7ff bffe 	b.w	0 <_ZN4core3fmt3num3imp51_$LT$impl$u20$core..fmt..Display$u20$for$u20$u8$GT$3fmt17heb4d046d241d78d0E>

Disassembly of section .text._ZN42_$LT$$RF$T$u20$as$u20$core..fmt..Debug$GT$3fmt17he00cb98dab49dbd2E:

00000000 <_ZN42_$LT$$RF$T$u20$as$u20$core..fmt..Debug$GT$3fmt17he00cb98dab49dbd2E>:
_ZN42_$LT$$RF$T$u20$as$u20$core..fmt..Debug$GT$3fmt17he00cb98dab49dbd2E():
/rustc/50a0defd5a93523067ef239936cc2e0755220904/src/libcore/fmt/mod.rs:1914
   0:	b5b0      	push	{r4, r5, r7, lr}
   2:	6805      	ldr	r5, [r0, #0]
_ZN4core3fmt3num50_$LT$impl$u20$core..fmt..Debug$u20$for$u20$i32$GT$3fmt17hc0a5c2426ccebe61E():
/rustc/50a0defd5a93523067ef239936cc2e0755220904/src/libcore/fmt/num.rs:147
   4:	4608      	mov	r0, r1
   6:	460c      	mov	r4, r1
   8:	f7ff fffe 	bl	0 <_ZN4core3fmt9Formatter15debug_lower_hex17h6ead2f28bb05b574E>
   c:	b128      	cbz	r0, 1a <_ZN42_$LT$$RF$T$u20$as$u20$core..fmt..Debug$GT$3fmt17he00cb98dab49dbd2E+0x1a>
/rustc/50a0defd5a93523067ef239936cc2e0755220904/src/libcore/fmt/num.rs:148
   e:	4628      	mov	r0, r5
  10:	4621      	mov	r1, r4
  12:	e8bd 40b0 	ldmia.w	sp!, {r4, r5, r7, lr}
  16:	f7ff bffe 	b.w	0 <_ZN4core3fmt3num53_$LT$impl$u20$core..fmt..LowerHex$u20$for$u20$i32$GT$3fmt17hb2119167a92723afE>
/rustc/50a0defd5a93523067ef239936cc2e0755220904/src/libcore/fmt/num.rs:149
  1a:	4620      	mov	r0, r4
  1c:	f7ff fffe 	bl	0 <_ZN4core3fmt9Formatter15debug_upper_hex17hd6d96e6aa5cb78d8E>
  20:	b128      	cbz	r0, 2e <_ZN42_$LT$$RF$T$u20$as$u20$core..fmt..Debug$GT$3fmt17he00cb98dab49dbd2E+0x2e>
/rustc/50a0defd5a93523067ef239936cc2e0755220904/src/libcore/fmt/num.rs:150
  22:	4628      	mov	r0, r5
  24:	4621      	mov	r1, r4
  26:	e8bd 40b0 	ldmia.w	sp!, {r4, r5, r7, lr}
  2a:	f7ff bffe 	b.w	0 <_ZN4core3fmt3num53_$LT$impl$u20$core..fmt..UpperHex$u20$for$u20$i32$GT$3fmt17hc44988ae29d24532E>
/rustc/50a0defd5a93523067ef239936cc2e0755220904/src/libcore/fmt/num.rs:152
  2e:	4628      	mov	r0, r5
  30:	4621      	mov	r1, r4
  32:	e8bd 40b0 	ldmia.w	sp!, {r4, r5, r7, lr}
  36:	f7ff bffe 	b.w	0 <_ZN4core3fmt3num3imp52_$LT$impl$u20$core..fmt..Display$u20$for$u20$i32$GT$3fmt17h33b3bbdbc74b88baE>

Disassembly of section .text._ZN86_$LT$mylib..mynewt..encoding..json..json_encoder$u20$as$u20$core..default..Default$GT$7default17h982a2e832001d0bdE:

00000000 <_ZN86_$LT$mylib..mynewt..encoding..json..json_encoder$u20$as$u20$core..default..Default$GT$7default17h982a2e832001d0bdE>:
_ZN86_$LT$mylib..mynewt..encoding..json..json_encoder$u20$as$u20$core..default..Default$GT$7default17h982a2e832001d0bdE():
/Users/Luppy/mynewt/stm32bluepill-mynewt-sensor/src/mynewt/encoding/json.rs:212
    pub je_arg: *mut ::cty::c_void,
    pub _bitfield_1: __BindgenBitfieldUnit<[u8; 1usize], u8>,
    pub je_encode_buf: [::cty::c_char; 64usize],
}
impl Default for json_encoder {
    fn default() -> Self {
   0:	b580      	push	{r7, lr}
_ZN4core3mem6zeroed17h63bf5d9694354341E():
/rustc/50a0defd5a93523067ef239936cc2e0755220904/src/libcore/mem.rs:447
   2:	214c      	movs	r1, #76	; 0x4c
   4:	f7ff fffe 	bl	0 <__aeabi_memclr4>
_ZN86_$LT$mylib..mynewt..encoding..json..json_encoder$u20$as$u20$core..default..Default$GT$7default17h982a2e832001d0bdE():
/Users/Luppy/mynewt/stm32bluepill-mynewt-sensor/src/mynewt/encoding/json.rs:214
        unsafe { ::core::mem::zeroed() }
    }
   8:	bd80      	pop	{r7, pc}

Disassembly of section .text._ZN85_$LT$mylib..mynewt..encoding..json..json_enum_t$u20$as$u20$core..default..Default$GT$7default17h4a50b4a9a7701847E:

00000000 <_ZN85_$LT$mylib..mynewt..encoding..json..json_enum_t$u20$as$u20$core..default..Default$GT$7default17h4a50b4a9a7701847E>:
_ZN85_$LT$mylib..mynewt..encoding..json..json_enum_t$u20$as$u20$core..default..Default$GT$7default17h4a50b4a9a7701847E():
/Users/Luppy/mynewt/stm32bluepill-mynewt-sensor/src/mynewt/encoding/json.rs:296
    pub value: ::cty::c_longlong,
}
impl Default for json_enum_t {
    fn default() -> Self {
        unsafe { ::core::mem::zeroed() }
    }
   0:	2000      	movs	r0, #0
   2:	2100      	movs	r1, #0
   4:	2200      	movs	r2, #0
   6:	4770      	bx	lr

Disassembly of section .text._ZN114_$LT$mylib..mynewt..encoding..json..json_array_t__bindgen_ty_1__bindgen_ty_1$u20$as$u20$core..default..Default$GT$7default17ha4adbe312ab55923E:

00000000 <_ZN114_$LT$mylib..mynewt..encoding..json..json_array_t__bindgen_ty_1__bindgen_ty_1$u20$as$u20$core..default..Default$GT$7default17ha4adbe312ab55923E>:
_ZN114_$LT$mylib..mynewt..encoding..json..json_array_t__bindgen_ty_1__bindgen_ty_1$u20$as$u20$core..default..Default$GT$7default17ha4adbe312ab55923E():
/Users/Luppy/mynewt/stm32bluepill-mynewt-sensor/src/mynewt/encoding/json.rs:322
    pub subtype: *const json_attr_t,
    pub base: *mut ::cty::c_char,
    pub stride: usize,
}
impl Default for json_array_t__bindgen_ty_1__bindgen_ty_1 {
    fn default() -> Self {
   0:	2100      	movs	r1, #0
_ZN4core3mem6zeroed17had6eb862a6871246E():
/rustc/50a0defd5a93523067ef239936cc2e0755220904/src/libcore/mem.rs:447
   2:	e9c0 1100 	strd	r1, r1, [r0]
   6:	6081      	str	r1, [r0, #8]
_ZN114_$LT$mylib..mynewt..encoding..json..json_array_t__bindgen_ty_1__bindgen_ty_1$u20$as$u20$core..default..Default$GT$7default17ha4adbe312ab55923E():
/Users/Luppy/mynewt/stm32bluepill-mynewt-sensor/src/mynewt/encoding/json.rs:324
        unsafe { ::core::mem::zeroed() }
    }
   8:	4770      	bx	lr

Disassembly of section .text._ZN100_$LT$mylib..mynewt..encoding..json..json_array_t__bindgen_ty_1$u20$as$u20$core..default..Default$GT$7default17h5f7de247a55fbecaE:

00000000 <_ZN100_$LT$mylib..mynewt..encoding..json..json_array_t__bindgen_ty_1$u20$as$u20$core..default..Default$GT$7default17h5f7de247a55fbecaE>:
_ZN100_$LT$mylib..mynewt..encoding..json..json_array_t__bindgen_ty_1$u20$as$u20$core..default..Default$GT$7default17h5f7de247a55fbecaE():
/Users/Luppy/mynewt/stm32bluepill-mynewt-sensor/src/mynewt/encoding/json.rs:374
    fn default() -> Self {
        unsafe { ::core::mem::zeroed() }
    }
}
impl Default for json_array_t__bindgen_ty_1 {
    fn default() -> Self {
   0:	2100      	movs	r1, #0
_ZN4core3mem6zeroed17h6538faafd0e9a0cbE():
/rustc/50a0defd5a93523067ef239936cc2e0755220904/src/libcore/mem.rs:447
   2:	e9c0 1100 	strd	r1, r1, [r0]
   6:	e9c0 1102 	strd	r1, r1, [r0, #8]
   a:	e9c0 1104 	strd	r1, r1, [r0, #16]
_ZN100_$LT$mylib..mynewt..encoding..json..json_array_t__bindgen_ty_1$u20$as$u20$core..default..Default$GT$7default17h5f7de247a55fbecaE():
/Users/Luppy/mynewt/stm32bluepill-mynewt-sensor/src/mynewt/encoding/json.rs:376
        unsafe { ::core::mem::zeroed() }
    }
   e:	4770      	bx	lr

Disassembly of section .text._ZN86_$LT$mylib..mynewt..encoding..json..json_array_t$u20$as$u20$core..default..Default$GT$7default17ha0fa87000e834280E:

00000000 <_ZN86_$LT$mylib..mynewt..encoding..json..json_array_t$u20$as$u20$core..default..Default$GT$7default17ha0fa87000e834280E>:
_ZN86_$LT$mylib..mynewt..encoding..json..json_array_t$u20$as$u20$core..default..Default$GT$7default17ha0fa87000e834280E():
/Users/Luppy/mynewt/stm32bluepill-mynewt-sensor/src/mynewt/encoding/json.rs:379
}
impl Default for json_array_t {
    fn default() -> Self {
   0:	b580      	push	{r7, lr}
_ZN4core3mem6zeroed17h724389cd1f75a7f3E():
/rustc/50a0defd5a93523067ef239936cc2e0755220904/src/libcore/mem.rs:447
   2:	2128      	movs	r1, #40	; 0x28
   4:	f7ff fffe 	bl	0 <__aeabi_memclr8>
_ZN86_$LT$mylib..mynewt..encoding..json..json_array_t$u20$as$u20$core..default..Default$GT$7default17ha0fa87000e834280E():
/Users/Luppy/mynewt/stm32bluepill-mynewt-sensor/src/mynewt/encoding/json.rs:381
        unsafe { ::core::mem::zeroed() }
    }
   8:	bd80      	pop	{r7, pc}

Disassembly of section .text._ZN99_$LT$mylib..mynewt..encoding..json..json_attr_t__bindgen_ty_1$u20$as$u20$core..default..Default$GT$7default17h3c58d62a33949173E:

00000000 <_ZN99_$LT$mylib..mynewt..encoding..json..json_attr_t__bindgen_ty_1$u20$as$u20$core..default..Default$GT$7default17h3c58d62a33949173E>:
_ZN99_$LT$mylib..mynewt..encoding..json..json_attr_t__bindgen_ty_1$u20$as$u20$core..default..Default$GT$7default17h3c58d62a33949173E():
/Users/Luppy/mynewt/stm32bluepill-mynewt-sensor/src/mynewt/encoding/json.rs:406
    pub array: __BindgenUnionField<json_array_t>,
    pub offset: __BindgenUnionField<usize>,
    pub bindgen_union_field: [u64; 6usize],
}
impl Default for json_attr_t__bindgen_ty_1 {
    fn default() -> Self {
   0:	b580      	push	{r7, lr}
_ZN4core3mem6zeroed17h75b20b8324b370edE():
/rustc/50a0defd5a93523067ef239936cc2e0755220904/src/libcore/mem.rs:447
   2:	2130      	movs	r1, #48	; 0x30
   4:	f7ff fffe 	bl	0 <__aeabi_memclr8>
_ZN99_$LT$mylib..mynewt..encoding..json..json_attr_t__bindgen_ty_1$u20$as$u20$core..default..Default$GT$7default17h3c58d62a33949173E():
/Users/Luppy/mynewt/stm32bluepill-mynewt-sensor/src/mynewt/encoding/json.rs:408
        unsafe { ::core::mem::zeroed() }
    }
   8:	bd80      	pop	{r7, pc}

Disassembly of section .text._ZN85_$LT$mylib..mynewt..encoding..json..json_attr_t$u20$as$u20$core..default..Default$GT$7default17h0cca0584c26562b8E:

00000000 <_ZN85_$LT$mylib..mynewt..encoding..json..json_attr_t$u20$as$u20$core..default..Default$GT$7default17h0cca0584c26562b8E>:
_ZN85_$LT$mylib..mynewt..encoding..json..json_attr_t$u20$as$u20$core..default..Default$GT$7default17h0cca0584c26562b8E():
/Users/Luppy/mynewt/stm32bluepill-mynewt-sensor/src/mynewt/encoding/json.rs:426
    fn default() -> Self {
        unsafe { ::core::mem::zeroed() }
    }
}
impl Default for json_attr_t {
    fn default() -> Self {
   0:	b580      	push	{r7, lr}
_ZN4core3mem6zeroed17h59b452482d752920E():
/rustc/50a0defd5a93523067ef239936cc2e0755220904/src/libcore/mem.rs:447
   2:	2150      	movs	r1, #80	; 0x50
   4:	f7ff fffe 	bl	0 <__aeabi_memclr8>
_ZN85_$LT$mylib..mynewt..encoding..json..json_attr_t$u20$as$u20$core..default..Default$GT$7default17h0cca0584c26562b8E():
/Users/Luppy/mynewt/stm32bluepill-mynewt-sensor/src/mynewt/encoding/json.rs:428
        unsafe { ::core::mem::zeroed() }
    }
   8:	bd80      	pop	{r7, pc}

Disassembly of section .text._ZN91_$LT$$u5b$u8$u5d$$u20$as$u20$mylib..mynewt..encoding..json_context..ToBytesOptionalNull$GT$21to_bytes_optional_nul17h03b0b329ca881075E:

00000000 <_ZN91_$LT$$u5b$u8$u5d$$u20$as$u20$mylib..mynewt..encoding..json_context..ToBytesOptionalNull$GT$21to_bytes_optional_nul17h03b0b329ca881075E>:
_ZN91_$LT$$u5b$u8$u5d$$u20$as$u20$mylib..mynewt..encoding..json_context..ToBytesOptionalNull$GT$21to_bytes_optional_nul17h03b0b329ca881075E():
/Users/Luppy/mynewt/stm32bluepill-mynewt-sensor/src/mynewt/encoding/json_context.rs:107
/// Convert the type to array of bytes that may or may not end with null
impl ToBytesOptionalNull for [u8] {
    /// Convert the type to array of bytes that may or may not end with null
    fn to_bytes_optional_nul(&self) -> &[u8] {
        self
    }
   0:	4770      	bx	lr

Disassembly of section .text._ZN82_$LT$str$u20$as$u20$mylib..mynewt..encoding..json_context..ToBytesOptionalNull$GT$21to_bytes_optional_nul17h108c0c8bf9a30950E:

00000000 <_ZN82_$LT$str$u20$as$u20$mylib..mynewt..encoding..json_context..ToBytesOptionalNull$GT$21to_bytes_optional_nul17h108c0c8bf9a30950E>:
_ZN82_$LT$str$u20$as$u20$mylib..mynewt..encoding..json_context..ToBytesOptionalNull$GT$21to_bytes_optional_nul17h108c0c8bf9a30950E():
/Users/Luppy/mynewt/stm32bluepill-mynewt-sensor/src/mynewt/encoding/json_context.rs:115
/// Convert the type to array of bytes that may or may not end with null
impl ToBytesOptionalNull for str {
    /// Convert the type to array of bytes that may or may not end with null
    fn to_bytes_optional_nul(&self) -> &[u8] {
        self.as_bytes()
    }
   0:	4770      	bx	lr

Disassembly of section .text._ZN86_$LT$$RF$str$u20$as$u20$mylib..mynewt..encoding..json_context..ToBytesOptionalNull$GT$21to_bytes_optional_nul17hbb512c963821e18bE:

00000000 <_ZN86_$LT$$RF$str$u20$as$u20$mylib..mynewt..encoding..json_context..ToBytesOptionalNull$GT$21to_bytes_optional_nul17hbb512c963821e18bE>:
_ZN86_$LT$$RF$str$u20$as$u20$mylib..mynewt..encoding..json_context..ToBytesOptionalNull$GT$21to_bytes_optional_nul17hbb512c963821e18bE():
/Users/Luppy/mynewt/stm32bluepill-mynewt-sensor/src/mynewt/encoding/json_context.rs:122

/// Convert the type to array of bytes that may or may not end with null
impl ToBytesOptionalNull for &str {
    /// Convert the type to array of bytes that may or may not end with null
    fn to_bytes_optional_nul(&self) -> &[u8] {
        self.as_bytes()
   0:	e9d0 2100 	ldrd	r2, r1, [r0]
/Users/Luppy/mynewt/stm32bluepill-mynewt-sensor/src/mynewt/encoding/json_context.rs:123
    }
   4:	4610      	mov	r0, r2
   6:	4770      	bx	lr

Disassembly of section .text._ZN94_$LT$cstr_core..CStr$u20$as$u20$mylib..mynewt..encoding..json_context..ToBytesOptionalNull$GT$21to_bytes_optional_nul17h238cf9ea5f9d302eE:

00000000 <_ZN94_$LT$cstr_core..CStr$u20$as$u20$mylib..mynewt..encoding..json_context..ToBytesOptionalNull$GT$21to_bytes_optional_nul17h238cf9ea5f9d302eE>:
_ZN94_$LT$cstr_core..CStr$u20$as$u20$mylib..mynewt..encoding..json_context..ToBytesOptionalNull$GT$21to_bytes_optional_nul17h238cf9ea5f9d302eE():
/Users/Luppy/mynewt/stm32bluepill-mynewt-sensor/src/mynewt/encoding/json_context.rs:131
/// Convert the type to array of bytes that may or may not end with null. CStr always includes nulls.
impl ToBytesOptionalNull for CStr {
    /// Convert the type to array of bytes that may or may not end with null. CStr always includes nulls.
    fn to_bytes_optional_nul(&self) -> &[u8] {
        self.to_bytes_with_nul()
    }
   0:	4770      	bx	lr

Disassembly of section .text._ZN78_$LT$mylib..mynewt..kernel..os..os_event$u20$as$u20$core..default..Default$GT$7default17hd55cbe51333ea2e3E:

00000000 <_ZN78_$LT$mylib..mynewt..kernel..os..os_event$u20$as$u20$core..default..Default$GT$7default17hd55cbe51333ea2e3E>:
_ZN78_$LT$mylib..mynewt..kernel..os..os_event$u20$as$u20$core..default..Default$GT$7default17hd55cbe51333ea2e3E():
/Users/Luppy/mynewt/stm32bluepill-mynewt-sensor/src/mynewt/kernel/os.rs:409
    fn default() -> Self {
        unsafe { ::core::mem::zeroed() }
    }
}
impl Default for os_event {
    fn default() -> Self {
   0:	2100      	movs	r1, #0
_ZN4core3mem6zeroed17he7019564e3d4662aE():
/rustc/50a0defd5a93523067ef239936cc2e0755220904/src/libcore/mem.rs:447
   2:	e9c0 1100 	strd	r1, r1, [r0]
   6:	e9c0 1102 	strd	r1, r1, [r0, #8]
_ZN78_$LT$mylib..mynewt..kernel..os..os_event$u20$as$u20$core..default..Default$GT$7default17hd55cbe51333ea2e3E():
/Users/Luppy/mynewt/stm32bluepill-mynewt-sensor/src/mynewt/kernel/os.rs:411
        unsafe { ::core::mem::zeroed() }
    }
   a:	4770      	bx	lr

Disassembly of section .text._ZN80_$LT$mylib..mynewt..kernel..os..os_callout$u20$as$u20$core..default..Default$GT$7default17h62ab9fe64b0476a4E:

00000000 <_ZN80_$LT$mylib..mynewt..kernel..os..os_callout$u20$as$u20$core..default..Default$GT$7default17h62ab9fe64b0476a4E>:
_ZN80_$LT$mylib..mynewt..kernel..os..os_callout$u20$as$u20$core..default..Default$GT$7default17h62ab9fe64b0476a4E():
/Users/Luppy/mynewt/stm32bluepill-mynewt-sensor/src/mynewt/kernel/os.rs:541
    fn default() -> Self {
        unsafe { ::core::mem::zeroed() }
    }
}
impl Default for os_callout {
    fn default() -> Self {
   0:	2100      	movs	r1, #0
_ZN4core3mem6zeroed17h213cb304f238746aE():
/rustc/50a0defd5a93523067ef239936cc2e0755220904/src/libcore/mem.rs:447
   2:	e9c0 1100 	strd	r1, r1, [r0]
   6:	e9c0 1102 	strd	r1, r1, [r0, #8]
   a:	e9c0 1104 	strd	r1, r1, [r0, #16]
   e:	e9c0 1106 	strd	r1, r1, [r0, #24]
_ZN80_$LT$mylib..mynewt..kernel..os..os_callout$u20$as$u20$core..default..Default$GT$7default17h62ab9fe64b0476a4E():
/Users/Luppy/mynewt/stm32bluepill-mynewt-sensor/src/mynewt/kernel/os.rs:543
        unsafe { ::core::mem::zeroed() }
    }
  12:	4770      	bx	lr

Disassembly of section .text._ZN79_$LT$mylib..mynewt..kernel..os..hal_timer$u20$as$u20$core..default..Default$GT$7default17h7a4728b71af86950E:

00000000 <_ZN79_$LT$mylib..mynewt..kernel..os..hal_timer$u20$as$u20$core..default..Default$GT$7default17h7a4728b71af86950E>:
_ZN79_$LT$mylib..mynewt..kernel..os..hal_timer$u20$as$u20$core..default..Default$GT$7default17h7a4728b71af86950E():
/Users/Luppy/mynewt/stm32bluepill-mynewt-sensor/src/mynewt/kernel/os.rs:642
    fn default() -> Self {
        unsafe { ::core::mem::zeroed() }
    }
}
impl Default for hal_timer {
    fn default() -> Self {
   0:	2100      	movs	r1, #0
_ZN4core3mem6zeroed17he347e49db30298b6E():
/rustc/50a0defd5a93523067ef239936cc2e0755220904/src/libcore/mem.rs:447
   2:	e9c0 1100 	strd	r1, r1, [r0]
   6:	e9c0 1102 	strd	r1, r1, [r0, #8]
   a:	e9c0 1104 	strd	r1, r1, [r0, #16]
_ZN79_$LT$mylib..mynewt..kernel..os..hal_timer$u20$as$u20$core..default..Default$GT$7default17h7a4728b71af86950E():
/Users/Luppy/mynewt/stm32bluepill-mynewt-sensor/src/mynewt/kernel/os.rs:644
        unsafe { ::core::mem::zeroed() }
    }
   e:	4770      	bx	lr

Disassembly of section .text._ZN76_$LT$mylib..mynewt..kernel..os..os_dev$u20$as$u20$core..default..Default$GT$7default17h64ccc38bd96ac520E:

00000000 <_ZN76_$LT$mylib..mynewt..kernel..os..os_dev$u20$as$u20$core..default..Default$GT$7default17h64ccc38bd96ac520E>:
_ZN76_$LT$mylib..mynewt..kernel..os..os_dev$u20$as$u20$core..default..Default$GT$7default17h64ccc38bd96ac520E():
/Users/Luppy/mynewt/stm32bluepill-mynewt-sensor/src/mynewt/kernel/os.rs:812
    fn default() -> Self {
        unsafe { ::core::mem::zeroed() }
    }
}
impl Default for os_dev {
    fn default() -> Self {
   0:	b580      	push	{r7, lr}
_ZN4core3mem6zeroed17h7c26ebbb36c20cc6E():
/rustc/50a0defd5a93523067ef239936cc2e0755220904/src/libcore/mem.rs:447
   2:	2124      	movs	r1, #36	; 0x24
   4:	f7ff fffe 	bl	0 <__aeabi_memclr4>
_ZN76_$LT$mylib..mynewt..kernel..os..os_dev$u20$as$u20$core..default..Default$GT$7default17h64ccc38bd96ac520E():
/Users/Luppy/mynewt/stm32bluepill-mynewt-sensor/src/mynewt/kernel/os.rs:814
        unsafe { ::core::mem::zeroed() }
    }
   8:	bd80      	pop	{r7, pc}

Disassembly of section .text._ZN77_$LT$mylib..mynewt..kernel..os..os_mbuf$u20$as$u20$core..default..Default$GT$7default17h307ef86156fcb3bdE:

00000000 <_ZN77_$LT$mylib..mynewt..kernel..os..os_mbuf$u20$as$u20$core..default..Default$GT$7default17h307ef86156fcb3bdE>:
_ZN77_$LT$mylib..mynewt..kernel..os..os_mbuf$u20$as$u20$core..default..Default$GT$7default17h307ef86156fcb3bdE():
/Users/Luppy/mynewt/stm32bluepill-mynewt-sensor/src/mynewt/kernel/os.rs:1040
    fn default() -> Self {
        unsafe { ::core::mem::zeroed() }
    }
}
impl Default for os_mbuf {
    fn default() -> Self {
   0:	2100      	movs	r1, #0
_ZN4core3mem6zeroed17h433508a057627441E():
/rustc/50a0defd5a93523067ef239936cc2e0755220904/src/libcore/mem.rs:447
   2:	e9c0 1100 	strd	r1, r1, [r0]
   6:	e9c0 1102 	strd	r1, r1, [r0, #8]
_ZN77_$LT$mylib..mynewt..kernel..os..os_mbuf$u20$as$u20$core..default..Default$GT$7default17h307ef86156fcb3bdE():
/Users/Luppy/mynewt/stm32bluepill-mynewt-sensor/src/mynewt/kernel/os.rs:1042
        unsafe { ::core::mem::zeroed() }
    }
   a:	4770      	bx	lr

Disassembly of section .text._ZN80_$LT$mylib..mynewt..kernel..os..os_mempool$u20$as$u20$core..default..Default$GT$7default17hd0690e599c578949E:

00000000 <_ZN80_$LT$mylib..mynewt..kernel..os..os_mempool$u20$as$u20$core..default..Default$GT$7default17hd0690e599c578949E>:
_ZN80_$LT$mylib..mynewt..kernel..os..os_mempool$u20$as$u20$core..default..Default$GT$7default17hd0690e599c578949E():
/Users/Luppy/mynewt/stm32bluepill-mynewt-sensor/src/mynewt/kernel/os.rs:1521
    fn default() -> Self {
        unsafe { ::core::mem::zeroed() }
    }
}
impl Default for os_mempool {
    fn default() -> Self {
   0:	2100      	movs	r1, #0
_ZN4core3mem6zeroed17heb014e72494c7449E():
/rustc/50a0defd5a93523067ef239936cc2e0755220904/src/libcore/mem.rs:447
   2:	e9c0 1100 	strd	r1, r1, [r0]
   6:	e9c0 1102 	strd	r1, r1, [r0, #8]
   a:	e9c0 1104 	strd	r1, r1, [r0, #16]
   e:	6181      	str	r1, [r0, #24]
_ZN80_$LT$mylib..mynewt..kernel..os..os_mempool$u20$as$u20$core..default..Default$GT$7default17hd0690e599c578949E():
/Users/Luppy/mynewt/stm32bluepill-mynewt-sensor/src/mynewt/kernel/os.rs:1523
        unsafe { ::core::mem::zeroed() }
    }
  10:	4770      	bx	lr

Disassembly of section .text._ZN85_$LT$mylib..mynewt..kernel..os..os_sanity_check$u20$as$u20$core..default..Default$GT$7default17h1892fac639610923E:

00000000 <_ZN85_$LT$mylib..mynewt..kernel..os..os_sanity_check$u20$as$u20$core..default..Default$GT$7default17h1892fac639610923E>:
_ZN85_$LT$mylib..mynewt..kernel..os..os_sanity_check$u20$as$u20$core..default..Default$GT$7default17h1892fac639610923E():
/Users/Luppy/mynewt/stm32bluepill-mynewt-sensor/src/mynewt/kernel/os.rs:1780
    fn default() -> Self {
        unsafe { ::core::mem::zeroed() }
    }
}
impl Default for os_sanity_check {
    fn default() -> Self {
   0:	2100      	movs	r1, #0
_ZN4core3mem6zeroed17h2e338e62931a7f7aE():
/rustc/50a0defd5a93523067ef239936cc2e0755220904/src/libcore/mem.rs:447
   2:	e9c0 1100 	strd	r1, r1, [r0]
   6:	e9c0 1102 	strd	r1, r1, [r0, #8]
   a:	6101      	str	r1, [r0, #16]
_ZN85_$LT$mylib..mynewt..kernel..os..os_sanity_check$u20$as$u20$core..default..Default$GT$7default17h1892fac639610923E():
/Users/Luppy/mynewt/stm32bluepill-mynewt-sensor/src/mynewt/kernel/os.rs:1782
        unsafe { ::core::mem::zeroed() }
    }
   c:	4770      	bx	lr

Disassembly of section .text._ZN77_$LT$mylib..mynewt..kernel..os..os_task$u20$as$u20$core..default..Default$GT$7default17hdec024014da851e9E:

00000000 <_ZN77_$LT$mylib..mynewt..kernel..os..os_task$u20$as$u20$core..default..Default$GT$7default17hdec024014da851e9E>:
_ZN77_$LT$mylib..mynewt..kernel..os..os_task$u20$as$u20$core..default..Default$GT$7default17hdec024014da851e9E():
/Users/Luppy/mynewt/stm32bluepill-mynewt-sensor/src/mynewt/kernel/os.rs:1918
    fn default() -> Self {
        unsafe { ::core::mem::zeroed() }
    }
}
impl Default for os_task {
    fn default() -> Self {
   0:	b580      	push	{r7, lr}
_ZN4core3mem6zeroed17h4073580a9a1dce8fE():
/rustc/50a0defd5a93523067ef239936cc2e0755220904/src/libcore/mem.rs:447
   2:	2150      	movs	r1, #80	; 0x50
   4:	f7ff fffe 	bl	0 <__aeabi_memclr4>
_ZN77_$LT$mylib..mynewt..kernel..os..os_task$u20$as$u20$core..default..Default$GT$7default17hdec024014da851e9E():
/Users/Luppy/mynewt/stm32bluepill-mynewt-sensor/src/mynewt/kernel/os.rs:1920
        unsafe { ::core::mem::zeroed() }
    }
   8:	bd80      	pop	{r7, pc}

Disassembly of section .text._ZN76_$LT$mylib..mynewt..kernel..os..os_sem$u20$as$u20$core..default..Default$GT$7default17he9dac6d905e4a480E:

00000000 <_ZN76_$LT$mylib..mynewt..kernel..os..os_sem$u20$as$u20$core..default..Default$GT$7default17he9dac6d905e4a480E>:
_ZN76_$LT$mylib..mynewt..kernel..os..os_sem$u20$as$u20$core..default..Default$GT$7default17he9dac6d905e4a480E():
/Users/Luppy/mynewt/stm32bluepill-mynewt-sensor/src/mynewt/kernel/os.rs:2131
    fn default() -> Self {
        unsafe { ::core::mem::zeroed() }
    }
}
impl Default for os_sem {
    fn default() -> Self {
   0:	2100      	movs	r1, #0
_ZN4core3mem6zeroed17h5daabc4f8ce872dbE():
/rustc/50a0defd5a93523067ef239936cc2e0755220904/src/libcore/mem.rs:447
   2:	e9c0 1100 	strd	r1, r1, [r0]
_ZN76_$LT$mylib..mynewt..kernel..os..os_sem$u20$as$u20$core..default..Default$GT$7default17he9dac6d905e4a480E():
/Users/Luppy/mynewt/stm32bluepill-mynewt-sensor/src/mynewt/kernel/os.rs:2133
        unsafe { ::core::mem::zeroed() }
    }
   6:	4770      	bx	lr

Disassembly of section .text._ZN100_$LT$mylib..mynewt..hw..sensor..bindings..os_dev__bindgen_ty_1$u20$as$u20$core..default..Default$GT$7default17h9f98e0532c78fc8aE:

00000000 <_ZN100_$LT$mylib..mynewt..hw..sensor..bindings..os_dev__bindgen_ty_1$u20$as$u20$core..default..Default$GT$7default17h9f98e0532c78fc8aE>:
_ZN100_$LT$mylib..mynewt..hw..sensor..bindings..os_dev__bindgen_ty_1$u20$as$u20$core..default..Default$GT$7default17h9f98e0532c78fc8aE():
/Users/Luppy/mynewt/stm32bluepill-mynewt-sensor/src/mynewt/hw/sensor/bindings.rs:207
    pub stqe_next: *mut os_dev,
}
impl Default for os_dev__bindgen_ty_1 {
    fn default() -> Self {
        unsafe { ::core::mem::zeroed() }
    }
   0:	2000      	movs	r0, #0
   2:	4770      	bx	lr

Disassembly of section .text._ZN93_$LT$mylib..mynewt..hw..sensor..bindings..sensor_data_t$u20$as$u20$core..default..Default$GT$7default17h566c2d91c5a7bfe4E:

00000000 <_ZN93_$LT$mylib..mynewt..hw..sensor..bindings..sensor_data_t$u20$as$u20$core..default..Default$GT$7default17h566c2d91c5a7bfe4E>:
_ZN93_$LT$mylib..mynewt..hw..sensor..bindings..sensor_data_t$u20$as$u20$core..default..Default$GT$7default17h566c2d91c5a7bfe4E():
/Users/Luppy/mynewt/stm32bluepill-mynewt-sensor/src/mynewt/hw/sensor/bindings.rs:359
    pub spd: __BindgenUnionField<*mut sensor_press_data>,
    pub srhd: __BindgenUnionField<*mut sensor_humid_data>,
    pub bindgen_union_field: u64,
}
impl Default for sensor_data_t {
    fn default() -> Self {
   0:	2100      	movs	r1, #0
_ZN4core3mem6zeroed17hfaa22d6c89f00257E():
/rustc/50a0defd5a93523067ef239936cc2e0755220904/src/libcore/mem.rs:447
   2:	e9c0 1100 	strd	r1, r1, [r0]
_ZN93_$LT$mylib..mynewt..hw..sensor..bindings..sensor_data_t$u20$as$u20$core..default..Default$GT$7default17h566c2d91c5a7bfe4E():
/Users/Luppy/mynewt/stm32bluepill-mynewt-sensor/src/mynewt/hw/sensor/bindings.rs:361
        unsafe { ::core::mem::zeroed() }
    }
   6:	4770      	bx	lr

Disassembly of section .text._ZN95_$LT$mylib..mynewt..hw..sensor..bindings..sensor_listener$u20$as$u20$core..default..Default$GT$7default17hac8e4c45263c41eeE:

00000000 <_ZN95_$LT$mylib..mynewt..hw..sensor..bindings..sensor_listener$u20$as$u20$core..default..Default$GT$7default17hac8e4c45263c41eeE>:
_ZN95_$LT$mylib..mynewt..hw..sensor..bindings..sensor_listener$u20$as$u20$core..default..Default$GT$7default17hac8e4c45263c41eeE():
/Users/Luppy/mynewt/stm32bluepill-mynewt-sensor/src/mynewt/hw/sensor/bindings.rs:443
    fn default() -> Self {
        unsafe { ::core::mem::zeroed() }
    }
}
impl Default for sensor_listener {
    fn default() -> Self {
   0:	2100      	movs	r1, #0
_ZN4core3mem6zeroed17hca2be74955f73506E():
/rustc/50a0defd5a93523067ef239936cc2e0755220904/src/libcore/mem.rs:447
   2:	e9c0 1100 	strd	r1, r1, [r0]
   6:	e9c0 1102 	strd	r1, r1, [r0, #8]
   a:	e9c0 1104 	strd	r1, r1, [r0, #16]
_ZN95_$LT$mylib..mynewt..hw..sensor..bindings..sensor_listener$u20$as$u20$core..default..Default$GT$7default17hac8e4c45263c41eeE():
/Users/Luppy/mynewt/stm32bluepill-mynewt-sensor/src/mynewt/hw/sensor/bindings.rs:445
        unsafe { ::core::mem::zeroed() }
    }
   e:	4770      	bx	lr

Disassembly of section .text._ZN98_$LT$mylib..mynewt..hw..sensor..bindings..sensor_type_traits$u20$as$u20$core..default..Default$GT$7default17h94297b4d1b83d1d8E:

00000000 <_ZN98_$LT$mylib..mynewt..hw..sensor..bindings..sensor_type_traits$u20$as$u20$core..default..Default$GT$7default17h94297b4d1b83d1d8E>:
_ZN98_$LT$mylib..mynewt..hw..sensor..bindings..sensor_type_traits$u20$as$u20$core..default..Default$GT$7default17h94297b4d1b83d1d8E():
/Users/Luppy/mynewt/stm32bluepill-mynewt-sensor/src/mynewt/hw/sensor/bindings.rs:503
    fn default() -> Self {
        unsafe { ::core::mem::zeroed() }
    }
}
impl Default for sensor_type_traits {
    fn default() -> Self {
   0:	b580      	push	{r7, lr}
_ZN4core3mem6zeroed17h05d8cb863a43018bE():
/rustc/50a0defd5a93523067ef239936cc2e0755220904/src/libcore/mem.rs:447
   2:	2130      	movs	r1, #48	; 0x30
   4:	f7ff fffe 	bl	0 <__aeabi_memclr8>
_ZN98_$LT$mylib..mynewt..hw..sensor..bindings..sensor_type_traits$u20$as$u20$core..default..Default$GT$7default17h94297b4d1b83d1d8E():
/Users/Luppy/mynewt/stm32bluepill-mynewt-sensor/src/mynewt/hw/sensor/bindings.rs:505
        unsafe { ::core::mem::zeroed() }
    }
   8:	bd80      	pop	{r7, pc}

Disassembly of section .text._ZN100_$LT$mylib..mynewt..hw..sensor..bindings..sensor_notify_ev_ctx$u20$as$u20$core..default..Default$GT$7default17h29e0d9c0dc058767E:

00000000 <_ZN100_$LT$mylib..mynewt..hw..sensor..bindings..sensor_notify_ev_ctx$u20$as$u20$core..default..Default$GT$7default17h29e0d9c0dc058767E>:
_ZN100_$LT$mylib..mynewt..hw..sensor..bindings..sensor_notify_ev_ctx$u20$as$u20$core..default..Default$GT$7default17h29e0d9c0dc058767E():
/Users/Luppy/mynewt/stm32bluepill-mynewt-sensor/src/mynewt/hw/sensor/bindings.rs:515
    pub snec_evtype: sensor_event_type_t,
}
impl Default for sensor_notify_ev_ctx {
    fn default() -> Self {
        unsafe { ::core::mem::zeroed() }
    }
   0:	2000      	movs	r0, #0
   2:	2100      	movs	r1, #0
   4:	4770      	bx	lr

Disassembly of section .text._ZN86_$LT$mylib..mynewt..hw..sensor..bindings..sensor$u20$as$u20$core..default..Default$GT$7default17h2d83cce13de2e372E:

00000000 <_ZN86_$LT$mylib..mynewt..hw..sensor..bindings..sensor$u20$as$u20$core..default..Default$GT$7default17h2d83cce13de2e372E>:
_ZN86_$LT$mylib..mynewt..hw..sensor..bindings..sensor$u20$as$u20$core..default..Default$GT$7default17h2d83cce13de2e372E():
/Users/Luppy/mynewt/stm32bluepill-mynewt-sensor/src/mynewt/hw/sensor/bindings.rs:739
    fn default() -> Self {
        unsafe { ::core::mem::zeroed() }
    }
}
impl Default for sensor {
    fn default() -> Self {
   0:	b580      	push	{r7, lr}
_ZN4core3mem6zeroed17h593870342aa850d1E():
/rustc/50a0defd5a93523067ef239936cc2e0755220904/src/libcore/mem.rs:447
   2:	2188      	movs	r1, #136	; 0x88
   4:	f7ff fffe 	bl	0 <__aeabi_memclr8>
_ZN86_$LT$mylib..mynewt..hw..sensor..bindings..sensor$u20$as$u20$core..default..Default$GT$7default17h2d83cce13de2e372E():
/Users/Luppy/mynewt/stm32bluepill-mynewt-sensor/src/mynewt/hw/sensor/bindings.rs:741
        unsafe { ::core::mem::zeroed() }
    }
   8:	bd80      	pop	{r7, pc}

Disassembly of section .text._ZN93_$LT$mylib..mynewt..hw..sensor..bindings.._bindgen_ty_1$u20$as$u20$core..default..Default$GT$7default17h7e1f75c025c54723E:

00000000 <_ZN93_$LT$mylib..mynewt..hw..sensor..bindings.._bindgen_ty_1$u20$as$u20$core..default..Default$GT$7default17h7e1f75c025c54723E>:
_ZN93_$LT$mylib..mynewt..hw..sensor..bindings.._bindgen_ty_1$u20$as$u20$core..default..Default$GT$7default17h7e1f75c025c54723E():
/Users/Luppy/mynewt/stm32bluepill-mynewt-sensor/src/mynewt/hw/sensor/bindings.rs:1833
    fn default() -> Self {
        unsafe { ::core::mem::zeroed() }
    }
}
impl Default for _bindgen_ty_1 {
    fn default() -> Self {
   0:	b580      	push	{r7, lr}
_ZN4core3mem6zeroed17heef52259681ef40fE():
/rustc/50a0defd5a93523067ef239936cc2e0755220904/src/libcore/mem.rs:447
   2:	2134      	movs	r1, #52	; 0x34
   4:	f7ff fffe 	bl	0 <__aeabi_memclr4>
_ZN93_$LT$mylib..mynewt..hw..sensor..bindings.._bindgen_ty_1$u20$as$u20$core..default..Default$GT$7default17h7e1f75c025c54723E():
/Users/Luppy/mynewt/stm32bluepill-mynewt-sensor/src/mynewt/hw/sensor/bindings.rs:1835
        unsafe { ::core::mem::zeroed() }
    }
   8:	bd80      	pop	{r7, pc}

Disassembly of section .text._ZN5mylib6mynewt2hw6sensor21null_sensor_data_func17haff87e1ea84103ffE:

00000000 <_ZN5mylib6mynewt2hw6sensor21null_sensor_data_func17haff87e1ea84103ffE>:
_ZN5mylib6mynewt2hw6sensor21null_sensor_data_func17haff87e1ea84103ffE():
/Users/Luppy/mynewt/stm32bluepill-mynewt-sensor/src/mynewt/hw/sensor.rs:88
extern fn null_sensor_data_func(
    _sensor: sensor_ptr, 
    _arg: sensor_arg, 
    _sensor_data: sensor_data_ptr, 
    _sensor_type: sensor_type_t) -> i32
    { 0 }
   0:	2000      	movs	r0, #0
   2:	4770      	bx	lr

Disassembly of section .text._ZN101_$LT$mylib..mynewt..libs..sensor_coap..json_value__bindgen_ty_1$u20$as$u20$core..default..Default$GT$7default17ha677d1a6459b729eE:

00000000 <_ZN101_$LT$mylib..mynewt..libs..sensor_coap..json_value__bindgen_ty_1$u20$as$u20$core..default..Default$GT$7default17ha677d1a6459b729eE>:
_ZN101_$LT$mylib..mynewt..libs..sensor_coap..json_value__bindgen_ty_1$u20$as$u20$core..default..Default$GT$7default17ha677d1a6459b729eE():
/Users/Luppy/mynewt/stm32bluepill-mynewt-sensor/src/mynewt/libs/sensor_coap.rs:430
    fn default() -> Self {
        unsafe { ::core::mem::zeroed() }
    }
}
impl Default for json_value__bindgen_ty_1 {
    fn default() -> Self {
   0:	2100      	movs	r1, #0
_ZN4core3mem6zeroed17ha3fd6b6e5664d943E():
/rustc/50a0defd5a93523067ef239936cc2e0755220904/src/libcore/mem.rs:447
   2:	e9c0 1100 	strd	r1, r1, [r0]
   6:	e9c0 1102 	strd	r1, r1, [r0, #8]
_ZN101_$LT$mylib..mynewt..libs..sensor_coap..json_value__bindgen_ty_1$u20$as$u20$core..default..Default$GT$7default17ha677d1a6459b729eE():
/Users/Luppy/mynewt/stm32bluepill-mynewt-sensor/src/mynewt/libs/sensor_coap.rs:432
        unsafe { ::core::mem::zeroed() }
    }
   a:	4770      	bx	lr

Disassembly of section .text._ZN104_$LT$mylib..mynewt..libs..sensor_network..sensor_network_interface$u20$as$u20$core..default..Default$GT$7default17h5ebbb0309c6df401E:

00000000 <_ZN104_$LT$mylib..mynewt..libs..sensor_network..sensor_network_interface$u20$as$u20$core..default..Default$GT$7default17h5ebbb0309c6df401E>:
_ZN104_$LT$mylib..mynewt..libs..sensor_network..sensor_network_interface$u20$as$u20$core..default..Default$GT$7default17h5ebbb0309c6df401E():
/Users/Luppy/mynewt/stm32bluepill-mynewt-sensor/src/mynewt/libs/sensor_network.rs:40
        ) -> ::cty::c_int,
    >,
    pub transport_registered: u8,
}
impl Default for sensor_network_interface {
    fn default() -> Self {
   0:	2100      	movs	r1, #0
_ZN4core3mem6zeroed17h3ce4931f94f7a43cE():
/rustc/50a0defd5a93523067ef239936cc2e0755220904/src/libcore/mem.rs:447
   2:	e9c0 1100 	strd	r1, r1, [r0]
   6:	e9c0 1102 	strd	r1, r1, [r0, #8]
   a:	6101      	str	r1, [r0, #16]
_ZN104_$LT$mylib..mynewt..libs..sensor_network..sensor_network_interface$u20$as$u20$core..default..Default$GT$7default17h5ebbb0309c6df401E():
/Users/Luppy/mynewt/stm32bluepill-mynewt-sensor/src/mynewt/libs/sensor_network.rs:42
        unsafe { ::core::mem::zeroed() }
    }
   c:	4770      	bx	lr

Disassembly of section .text._ZN5mylib6mynewt6result95_$LT$impl$u20$core..convert..From$LT$mylib..mynewt..result..MynewtError$GT$$u20$for$u20$i32$GT$4from17h6f98d82047c2a358E:

00000000 <_ZN5mylib6mynewt6result95_$LT$impl$u20$core..convert..From$LT$mylib..mynewt..result..MynewtError$GT$$u20$for$u20$i32$GT$4from17h6f98d82047c2a358E>:
_ZN5mylib6mynewt6result95_$LT$impl$u20$core..convert..From$LT$mylib..mynewt..result..MynewtError$GT$$u20$for$u20$i32$GT$4from17h6f98d82047c2a358E():
/Users/Luppy/mynewt/stm32bluepill-mynewt-sensor/src/mynewt.rs:57
    /// Cast `MynewtError` to `i32`
    impl From<MynewtError> for i32 {
        /// Cast `MynewtError` to `i32`
        fn from(err: MynewtError) -> Self {
            err as i32
        }
   0:	4770      	bx	lr

Disassembly of section .text._ZN5mylib13listen_sensor16read_temperature17h5746559456a1a162E:

00000000 <_ZN5mylib13listen_sensor16read_temperature17h5746559456a1a162E>:
_ZN5mylib13listen_sensor16read_temperature17h5746559456a1a162E():
/Users/Luppy/mynewt/stm32bluepill-mynewt-sensor/src/listen_sensor.rs:81
///  This listener function is called by Mynewt every 10 seconds (for local sensors) or when sensor data is received
///  (for Remote Sensors).  Mynewt has fetched the raw or computed temperature value, passed through `sensor_data`.
///  If this is a Sensor Node, we send the sensor data to the Collector Node.
///  If this is a Collector Node or Standalone Node, we send the sensor data to the CoAP server.  
///  Return 0 if we have processed the sensor data successfully.
extern fn read_temperature(sensor: sensor_ptr, _arg: sensor_arg, 
   0:	e92d 4ff0 	stmdb	sp!, {r4, r5, r6, r7, r8, r9, sl, fp, lr}
   4:	b095      	sub	sp, #84	; 0x54
   6:	4605      	mov	r5, r0
_ZN5mylib4base13console_print17h6486f646aedc2f70E():
/Users/Luppy/mynewt/stm32bluepill-mynewt-sensor/src/base.rs:18
///  Display message `msg` on the Arm Semihosting console (via OpenOCD).
pub fn console_print(msg: &[u8]) {
    let len = msg.len();
    unsafe {
        //  Call the Semihosting Console API, which is unsafe.
        console_buffer(msg.as_ptr(), len as u32);
   8:	f240 0000 	movw	r0, #0
   c:	f2c0 0000 	movt	r0, #0
  10:	2111      	movs	r1, #17
  12:	4614      	mov	r4, r2
  14:	f7ff fffe 	bl	0 <console_buffer>
/Users/Luppy/mynewt/stm32bluepill-mynewt-sensor/src/base.rs:19
        console_flush();  //  TODO: Remove this.
  18:	f7ff fffe 	bl	0 <console_flush>
_ZN5mylib13listen_sensor16read_temperature17h5746559456a1a162E():
/Users/Luppy/mynewt/stm32bluepill-mynewt-sensor/src/listen_sensor.rs:86
    sensor_data: sensor_data_ptr, sensor_type: sensor_type_t) -> MynewtError {
    console_print(b"read_temperature\n");
    //  Check that the temperature data is valid.
    //  TODO
    if unsafe { is_null_sensor_data(sensor_data) } { return MynewtError::SYS_EINVAL; }  //  Exit if data is missing
  1c:	4620      	mov	r0, r4
  1e:	f7ff fffe 	bl	0 <is_null_sensor_data>
  22:	b120      	cbz	r0, 2e <_ZN5mylib13listen_sensor16read_temperature17h5746559456a1a162E+0x2e>
  24:	f06f 0001 	mvn.w	r0, #1
/Users/Luppy/mynewt/stm32bluepill-mynewt-sensor/src/listen_sensor.rs:117
            return MynewtError::SYS_EOK; 
        }            
    }
    //  Return 0 to Mynewt to indicate no error.  Should not end with a semicolon (;).
    MynewtError::SYS_EOK
}
  28:	b015      	add	sp, #84	; 0x54
  2a:	e8bd 8ff0 	ldmia.w	sp!, {r4, r5, r6, r7, r8, r9, sl, fp, pc}
/Users/Luppy/mynewt/stm32bluepill-mynewt-sensor/src/listen_sensor.rs:87
    assert!(unsafe { !is_null_sensor(sensor) });
  2e:	4628      	mov	r0, r5
  30:	f7ff fffe 	bl	0 <is_null_sensor>
  34:	2800      	cmp	r0, #0
  36:	f040 819f 	bne.w	378 <_ZN5mylib13listen_sensor16read_temperature17h5746559456a1a162E+0x378>
  3a:	e9dd 101e 	ldrd	r1, r0, [sp, #120]	; 0x78
_ZN5mylib13listen_sensor15get_temperature17h0650eb2240009589E():
/Users/Luppy/mynewt/stm32bluepill-mynewt-sensor/src/listen_sensor.rs:127
#[allow(unreachable_patterns)]
#[allow(unused_variables)]
fn get_temperature(sensor_data: sensor_data_ptr, sensor_type: sensor_type_t) -> SensorValue {
    let mut return_value = SensorValue::default();
    match sensor_type {                           //  Is this raw or computed temperature?
        SENSOR_TYPE_AMBIENT_TEMPERATURE_RAW => {  //  If this is raw temperature...
  3e:	f081 6180 	eor.w	r1, r1, #67108864	; 0x4000000
  42:	ea41 0700 	orr.w	r7, r1, r0
_ZN5mylib13listen_sensor16read_temperature17h5746559456a1a162E():
/Users/Luppy/mynewt/stm32bluepill-mynewt-sensor/src/listen_sensor.rs:92
    let device = unsafe { sensor_get_device(sensor) };
  46:	4628      	mov	r0, r5
  48:	f7ff fffe 	bl	0 <sensor_get_device>
/Users/Luppy/mynewt/stm32bluepill-mynewt-sensor/src/listen_sensor.rs:93
    let device_name_ptr: *const c_char = unsafe { device_get_name(device) };
  4c:	f7ff fffe 	bl	0 <device_get_name>
/Users/Luppy/mynewt/stm32bluepill-mynewt-sensor/src/listen_sensor.rs:94
    let device_name: &CStr = unsafe { CStr::from_ptr(device_name_ptr) };
  50:	f7ff fffe 	bl	0 <_ZN9cstr_core4CStr8from_ptr17h8dd780023dafede8E>
  54:	4606      	mov	r6, r0
  56:	468a      	mov	sl, r1
  58:	2000      	movs	r0, #0
_ZN5mylib13listen_sensor15get_temperature17h0650eb2240009589E():
/Users/Luppy/mynewt/stm32bluepill-mynewt-sensor/src/listen_sensor.rs:127
        SENSOR_TYPE_AMBIENT_TEMPERATURE_RAW => {  //  If this is raw temperature...
  5a:	b9df      	cbnz	r7, 94 <_ZN5mylib13listen_sensor16read_temperature17h5746559456a1a162E+0x94>
  5c:	a90d      	add	r1, sp, #52	; 0x34
/Users/Luppy/mynewt/stm32bluepill-mynewt-sensor/src/listen_sensor.rs:129
            //  Interpret the sensor data as a sensor_temp_raw_data struct that contains raw temp.
            let mut rawtempdata = fill_zero!(sensor_temp_raw_data);
  5e:	f88d 0038 	strb.w	r0, [sp, #56]	; 0x38
  62:	900d      	str	r0, [sp, #52]	; 0x34
/Users/Luppy/mynewt/stm32bluepill-mynewt-sensor/src/listen_sensor.rs:130
            let rc = unsafe { get_temp_raw_data(sensor_data, &mut rawtempdata) };
  64:	4620      	mov	r0, r4
  66:	f7ff fffe 	bl	0 <get_temp_raw_data>
/Users/Luppy/mynewt/stm32bluepill-mynewt-sensor/src/listen_sensor.rs:131
            assert!(rc == 0);
  6a:	2800      	cmp	r0, #0
  6c:	f040 8192 	bne.w	394 <_ZN5mylib13listen_sensor16read_temperature17h5746559456a1a162E+0x394>
/Users/Luppy/mynewt/stm32bluepill-mynewt-sensor/src/listen_sensor.rs:134

            //  Check that the raw temperature data is valid.
            if rawtempdata.strd_temp_raw_is_valid == 0 { return return_value; }  //  Exit if data is not valid
  70:	f89d 0038 	ldrb.w	r0, [sp, #56]	; 0x38
  74:	2800      	cmp	r0, #0
  76:	f000 8186 	beq.w	386 <_ZN5mylib13listen_sensor16read_temperature17h5746559456a1a162E+0x386>
_ZN5mylib4base13console_print17h6486f646aedc2f70E():
/Users/Luppy/mynewt/stm32bluepill-mynewt-sensor/src/base.rs:18
        console_buffer(msg.as_ptr(), len as u32);
  7a:	f240 0000 	movw	r0, #0
  7e:	2119      	movs	r1, #25
  80:	f2c0 0000 	movt	r0, #0
_ZN5mylib13listen_sensor15get_temperature17h0650eb2240009589E():
/Users/Luppy/mynewt/stm32bluepill-mynewt-sensor/src/listen_sensor.rs:137

            //  Raw temperature data is valid.  Copy and display it.
            return_value.val = SensorValueType::Uint(rawtempdata.strd_temp_raw);  //  Raw Temperature in integer (0 to 4095)
  84:	f8dd 8034 	ldr.w	r8, [sp, #52]	; 0x34
_ZN5mylib4base13console_print17h6486f646aedc2f70E():
/Users/Luppy/mynewt/stm32bluepill-mynewt-sensor/src/base.rs:18
  88:	f7ff fffe 	bl	0 <console_buffer>
/Users/Luppy/mynewt/stm32bluepill-mynewt-sensor/src/base.rs:19
        console_flush();  //  TODO: Remove this.
  8c:	f7ff fffe 	bl	0 <console_flush>
  90:	2501      	movs	r5, #1
  92:	e011      	b.n	b8 <_ZN5mylib13listen_sensor16read_temperature17h5746559456a1a162E+0xb8>
_ZN5mylib13listen_sensor15get_temperature17h0650eb2240009589E():
  94:	a90d      	add	r1, sp, #52	; 0x34
/Users/Luppy/mynewt/stm32bluepill-mynewt-sensor/src/listen_sensor.rs:142
            console_print(b"TMP listener got rawtmp \n");  // return_value->int_val);
        },
        SENSOR_TYPE_AMBIENT_TEMPERATURE => {      //  If this is computed temperature...
            //  Interpret the sensor data as a sensor_temp_data struct that contains computed temp.
            let mut tempdata = fill_zero!(sensor_temp_data);
  96:	f88d 0038 	strb.w	r0, [sp, #56]	; 0x38
  9a:	900d      	str	r0, [sp, #52]	; 0x34
/Users/Luppy/mynewt/stm32bluepill-mynewt-sensor/src/listen_sensor.rs:143
            let rc = unsafe { get_temp_data(sensor_data, &mut tempdata) };
  9c:	4620      	mov	r0, r4
  9e:	f7ff fffe 	bl	0 <get_temp_data>
/Users/Luppy/mynewt/stm32bluepill-mynewt-sensor/src/listen_sensor.rs:144
            assert!(rc == 0);
  a2:	2800      	cmp	r0, #0
  a4:	f040 817d 	bne.w	3a2 <_ZN5mylib13listen_sensor16read_temperature17h5746559456a1a162E+0x3a2>
  a8:	f89d 0038 	ldrb.w	r0, [sp, #56]	; 0x38
/Users/Luppy/mynewt/stm32bluepill-mynewt-sensor/src/listen_sensor.rs:147

            //  Check that the computed temperature data is valid.
            if tempdata.std_temp_is_valid() == 0 { return return_value; }  //  Exit if data is not valid
  ac:	07c0      	lsls	r0, r0, #31
  ae:	f000 816a 	beq.w	386 <_ZN5mylib13listen_sensor16read_temperature17h5746559456a1a162E+0x386>
/Users/Luppy/mynewt/stm32bluepill-mynewt-sensor/src/listen_sensor.rs:150

            //  Computed temperature data is valid.  Copy and display it.
            return_value.val = SensorValueType::Float(tempdata.std_temp);  //  Temperature in floating point.
  b2:	f8dd 8034 	ldr.w	r8, [sp, #52]	; 0x34
  b6:	2502      	movs	r5, #2
_ZN5mylib4base13console_print17h6486f646aedc2f70E():
/Users/Luppy/mynewt/stm32bluepill-mynewt-sensor/src/base.rs:18
        console_buffer(msg.as_ptr(), len as u32);
  b8:	f240 0000 	movw	r0, #0
  bc:	2111      	movs	r1, #17
  be:	f2c0 0000 	movt	r0, #0
  c2:	f7ff fffe 	bl	0 <console_buffer>
/Users/Luppy/mynewt/stm32bluepill-mynewt-sensor/src/base.rs:19
        console_flush();  //  TODO: Remove this.
  c6:	f7ff fffe 	bl	0 <console_flush>
  ca:	2000      	movs	r0, #0
_ZN5mylib9send_coap16send_sensor_data17h1267f894cf2aa443E():
/Users/Luppy/mynewt/stm32bluepill-mynewt-sensor/src/send_coap.rs:188
pub fn send_sensor_data(sensor_val: &SensorValue, sensor_node: &CStr) -> MynewtResult<()>  {  //  Returns an error code upon error.
    console_print(b"send_sensor_data\n");
    //  TODO: Remove val
    let mut val = fill_zero!(sensor_value);
    //  For Sensor Node: Transmit the sensor data to the Collector Node as CBOR.
    if unsafe { sensor_network::should_send_to_collector(&mut val, sensor_node.as_ptr()) } { 
  cc:	4631      	mov	r1, r6
/Users/Luppy/mynewt/stm32bluepill-mynewt-sensor/src/send_coap.rs:186
    let mut val = fill_zero!(sensor_value);
  ce:	e9cd 0006 	strd	r0, r0, [sp, #24]
  d2:	e9cd 0004 	strd	r0, r0, [sp, #16]
  d6:	a804      	add	r0, sp, #16
/Users/Luppy/mynewt/stm32bluepill-mynewt-sensor/src/send_coap.rs:188
    if unsafe { sensor_network::should_send_to_collector(&mut val, sensor_node.as_ptr()) } { 
  d8:	f7ff fffe 	bl	0 <should_send_to_collector>
  dc:	2800      	cmp	r0, #0
  de:	d04c      	beq.n	17a <_ZN5mylib13listen_sensor16read_temperature17h5746559456a1a162E+0x17a>
_ZN5mylib9send_coap29send_sensor_data_to_collector17h8b909934b4c85748E():
/Users/Luppy/mynewt/stm32bluepill-mynewt-sensor/src/send_coap.rs:267
///  to be transmitted.  Return 0 if successful, `SYS_EAGAIN` if network is not ready yet.
///  The CoAP payload needs to be very compact (under 32 bytes) so it will be encoded in CBOR like this:
///  `{ t: 2870 }`
fn send_sensor_data_to_collector(sensor_val: &SensorValue, _node_id: &CStr) -> MynewtResult<()>  {  //  Returns an error code upon error.
    ////  TODO: if let SensorValueType::None = sensor_val.val { assert!(false); }
    if unsafe { !NETWORK_IS_READY } { return Err(MynewtError::SYS_EAGAIN); }  //  If network is not ready, tell caller (Sensor Listener) to try later.
  e0:	f240 0400 	movw	r4, #0
  e4:	f2c0 0400 	movt	r4, #0
  e8:	7820      	ldrb	r0, [r4, #0]
  ea:	2801      	cmp	r0, #1
  ec:	f040 8133 	bne.w	356 <_ZN5mylib13listen_sensor16read_temperature17h5746559456a1a162E+0x356>
/Users/Luppy/mynewt/stm32bluepill-mynewt-sensor/src/send_coap.rs:272

    //  Start composing the CoAP Collector message with the sensor data in the payload.  This will 
    //  block other tasks from composing and posting CoAP messages (through a semaphore).
    //  We only have 1 memory buffer for composing CoAP messages so it needs to be locked.
    let rc = unsafe { sensor_network::init_collector_post() };  assert!(rc);
  f0:	f7ff fffe 	bl	0 <init_collector_post>
  f4:	2800      	cmp	r0, #0
  f6:	f000 81bf 	beq.w	478 <_ZN5mylib13listen_sensor16read_temperature17h5746559456a1a162E+0x478>
/Users/Luppy/mynewt/stm32bluepill-mynewt-sensor/src/send_coap.rs:275

    //  Compose the CoAP Payload in CBOR using the `coap!()` macro.
    let _payload = coap!(@cbor {
  fa:	f240 0000 	movw	r0, #0
  fe:	f240 0100 	movw	r1, #0
 102:	f2c0 0000 	movt	r0, #0
 106:	f2c0 0100 	movt	r1, #0
 10a:	f04f 32ff 	mov.w	r2, #4294967295	; 0xffffffff
 10e:	f7ff fffe 	bl	0 <cbor_encoder_create_map>
 112:	2d01      	cmp	r5, #1
 114:	f040 817f 	bne.w	416 <_ZN5mylib13listen_sensor16read_temperature17h5746559456a1a162E+0x416>
 118:	2074      	movs	r0, #116	; 0x74
 11a:	2201      	movs	r2, #1
_ZN4core10intrinsics19copy_nonoverlapping17h948179d387e602ccE():
/rustc/50a0defd5a93523067ef239936cc2e0755220904/src/libcore/intrinsics.rs:1412
 11c:	f824 0f01 	strh.w	r0, [r4, #1]!
_ZN5mylib9send_coap29send_sensor_data_to_collector17h8b909934b4c85748E():
/Users/Luppy/mynewt/stm32bluepill-mynewt-sensor/src/send_coap.rs:275
 120:	f240 0000 	movw	r0, #0
 124:	f2c0 0000 	movt	r0, #0
 128:	4621      	mov	r1, r4
 12a:	f7ff fffe 	bl	0 <cbor_encode_text_string>
_ZN5mylib6mynewt8encoding12json_context11JsonContext12check_result17h3627f40a0dc2d2b4E():
/Users/Luppy/mynewt/stm32bluepill-mynewt-sensor/src/mynewt/encoding/json_context.rs:72
        assert_eq!(res, 0);
 12e:	2800      	cmp	r0, #0
 130:	9008      	str	r0, [sp, #32]
 132:	f040 81a8 	bne.w	486 <_ZN5mylib13listen_sensor16read_temperature17h5746559456a1a162E+0x486>
_ZN5mylib9send_coap29send_sensor_data_to_collector17h8b909934b4c85748E():
/Users/Luppy/mynewt/stm32bluepill-mynewt-sensor/src/send_coap.rs:275
 136:	f240 0000 	movw	r0, #0
 13a:	4642      	mov	r2, r8
 13c:	f2c0 0000 	movt	r0, #0
 140:	2300      	movs	r3, #0
 142:	2400      	movs	r4, #0
 144:	f7ff fffe 	bl	0 <cbor_encode_int>
_ZN5mylib6mynewt8encoding12json_context11JsonContext12check_result17h3627f40a0dc2d2b4E():
/Users/Luppy/mynewt/stm32bluepill-mynewt-sensor/src/mynewt/encoding/json_context.rs:72
 148:	2800      	cmp	r0, #0
 14a:	9008      	str	r0, [sp, #32]
 14c:	f040 81b4 	bne.w	4b8 <_ZN5mylib13listen_sensor16read_temperature17h5746559456a1a162E+0x4b8>
_ZN5mylib9send_coap29send_sensor_data_to_collector17h8b909934b4c85748E():
/Users/Luppy/mynewt/stm32bluepill-mynewt-sensor/src/send_coap.rs:275
 150:	f240 0000 	movw	r0, #0
 154:	f240 0100 	movw	r1, #0
 158:	f2c0 0000 	movt	r0, #0
 15c:	f2c0 0100 	movt	r1, #0
 160:	f7ff fffe 	bl	0 <cbor_encoder_close_container>
/Users/Luppy/mynewt/stm32bluepill-mynewt-sensor/src/send_coap.rs:283
    });

    //  Post the CoAP Collector message to the CoAP Background Task for transmission.  After posting the
    //  message to the background task, we release a semaphore that unblocks other requests
    //  to compose and post CoAP messages.
    let rc = unsafe { sensor_network::do_collector_post() };  assert!(rc);
 164:	f7ff fffe 	bl	0 <do_collector_post>
 168:	2800      	cmp	r0, #0
 16a:	f000 81cb 	beq.w	504 <_ZN5mylib13listen_sensor16read_temperature17h5746559456a1a162E+0x504>
_ZN5mylib4base13console_print17h6486f646aedc2f70E():
/Users/Luppy/mynewt/stm32bluepill-mynewt-sensor/src/base.rs:18
        console_buffer(msg.as_ptr(), len as u32);
 16e:	f240 0000 	movw	r0, #0
 172:	2121      	movs	r1, #33	; 0x21
 174:	f2c0 0000 	movt	r0, #0
 178:	e0e5      	b.n	346 <_ZN5mylib13listen_sensor16read_temperature17h5746559456a1a162E+0x346>
_ZN9cstr_core4CStr8to_bytes17h01698a6d2c5e5247E():
/Users/Luppy/.cargo/registry/src/github.com-1ecc6299db9ec823/cstr_core-0.1.2/src/lib.rs:1033
    /// assert_eq!(c_str.to_bytes(), b"foo");
    /// ```
    #[inline]
    pub fn to_bytes(&self) -> &[u8] {
        let bytes = self.to_bytes_with_nul();
        &bytes[..bytes.len() - 1]
 17a:	f1aa 0001 	sub.w	r0, sl, #1
_ZN99_$LT$core..ops..range..Range$LT$usize$GT$$u20$as$u20$core..slice..SliceIndex$LT$$u5b$T$u5d$$GT$$GT$5index17ha6259e444fe26843E():
/rustc/50a0defd5a93523067ef239936cc2e0755220904/src/libcore/slice/mod.rs:2745
 17e:	f1ba 0f00 	cmp.w	sl, #0
 182:	f000 8115 	beq.w	3b0 <_ZN5mylib13listen_sensor16read_temperature17h5746559456a1a162E+0x3b0>
_ZN5mylib9send_coap26send_sensor_data_to_server17h04da864b41372c36E():
/Users/Luppy/mynewt/stm32bluepill-mynewt-sensor/src/send_coap.rs:216
    assert_ne!(node_id.to_bytes()[0], 0);
 186:	2800      	cmp	r0, #0
 188:	f000 8116 	beq.w	3b8 <_ZN5mylib13listen_sensor16read_temperature17h5746559456a1a162E+0x3b8>
 18c:	7831      	ldrb	r1, [r6, #0]
 18e:	2900      	cmp	r1, #0
 190:	f000 811b 	beq.w	3ca <_ZN5mylib13listen_sensor16read_temperature17h5746559456a1a162E+0x3ca>
/Users/Luppy/mynewt/stm32bluepill-mynewt-sensor/src/send_coap.rs:217
    if unsafe { !NETWORK_IS_READY } { return Err(MynewtError::SYS_EAGAIN); }  //  If network is not ready, tell caller (Sensor Listener) to try later.
 194:	f240 0700 	movw	r7, #0
 198:	f2c0 0700 	movt	r7, #0
 19c:	7839      	ldrb	r1, [r7, #0]
 19e:	2901      	cmp	r1, #1
 1a0:	f040 80d9 	bne.w	356 <_ZN5mylib13listen_sensor16read_temperature17h5746559456a1a162E+0x356>
 1a4:	a901      	add	r1, sp, #4
 1a6:	e881 0121 	stmia.w	r1, {r0, r5, r8}
/Users/Luppy/mynewt/stm32bluepill-mynewt-sensor/src/send_coap.rs:218
    let device_id_ptr = unsafe { sensor_network::get_device_id() };
 1aa:	f7ff fffe 	bl	0 <get_device_id>
/Users/Luppy/mynewt/stm32bluepill-mynewt-sensor/src/send_coap.rs:219
    let device_id: &CStr = unsafe { CStr::from_ptr(device_id_ptr) };
 1ae:	f7ff fffe 	bl	0 <_ZN9cstr_core4CStr8from_ptr17h8dd780023dafede8E>
 1b2:	4683      	mov	fp, r0
/Users/Luppy/mynewt/stm32bluepill-mynewt-sensor/src/send_coap.rs:224
    let rc = unsafe { sensor_network::init_server_post(0 as *const c_char) };  assert!(rc);
 1b4:	2000      	movs	r0, #0
/Users/Luppy/mynewt/stm32bluepill-mynewt-sensor/src/send_coap.rs:219
    let device_id: &CStr = unsafe { CStr::from_ptr(device_id_ptr) };
 1b6:	4688      	mov	r8, r1
 1b8:	2400      	movs	r4, #0
/Users/Luppy/mynewt/stm32bluepill-mynewt-sensor/src/send_coap.rs:224
    let rc = unsafe { sensor_network::init_server_post(0 as *const c_char) };  assert!(rc);
 1ba:	f7ff fffe 	bl	0 <init_server_post>
 1be:	2800      	cmp	r0, #0
 1c0:	f000 81a7 	beq.w	512 <_ZN5mylib13listen_sensor16read_temperature17h5746559456a1a162E+0x512>
/Users/Luppy/mynewt/stm32bluepill-mynewt-sensor/src/send_coap.rs:227
    let _payload = coap!(@json {
 1c4:	f7ff fffe 	bl	0 <json_rep_start_root_object>
 1c8:	f107 0901 	add.w	r9, r7, #1
 1cc:	f240 0100 	movw	r1, #0
 1d0:	f2c0 0100 	movt	r1, #0
 1d4:	4648      	mov	r0, r9
 1d6:	f7ff fffe 	bl	0 <json_helper_set_array>
 1da:	f240 0000 	movw	r0, #0
 1de:	f2c0 0000 	movt	r0, #0
 1e2:	f7ff fffe 	bl	0 <json_helper_object_array_start_item>
_ZN4core10intrinsics19copy_nonoverlapping17h948179d387e602ccE():
/rustc/50a0defd5a93523067ef239936cc2e0755220904/src/libcore/intrinsics.rs:1412
 1e6:	f240 0000 	movw	r0, #0
 1ea:	f107 0521 	add.w	r5, r7, #33	; 0x21
 1ee:	f2c0 0000 	movt	r0, #0
_ZN5mylib6mynewt8encoding12json_context11JsonContext13value_to_cstr17ha57103a1a1af945eE():
/Users/Luppy/mynewt/stm32bluepill-mynewt-sensor/src/mynewt/encoding/json_context.rs:47
        self.value_buffer[s.len()] = 0;
 1f2:	f887 4027 	strb.w	r4, [r7, #39]	; 0x27
_ZN4core10intrinsics19copy_nonoverlapping17h948179d387e602ccE():
/rustc/50a0defd5a93523067ef239936cc2e0755220904/src/libcore/intrinsics.rs:1412
 1f6:	8881      	ldrh	r1, [r0, #4]
_ZN5mylib9send_coap26send_sensor_data_to_server17h04da864b41372c36E():
/Users/Luppy/mynewt/stm32bluepill-mynewt-sensor/src/send_coap.rs:227
 1f8:	462a      	mov	r2, r5
_ZN4core10intrinsics19copy_nonoverlapping17h948179d387e602ccE():
/rustc/50a0defd5a93523067ef239936cc2e0755220904/src/libcore/intrinsics.rs:1412
 1fa:	f8a7 1025 	strh.w	r1, [r7, #37]	; 0x25
_ZN5mylib9send_coap26send_sensor_data_to_server17h04da864b41372c36E():
/Users/Luppy/mynewt/stm32bluepill-mynewt-sensor/src/send_coap.rs:227
 1fe:	f240 0100 	movw	r1, #0
_ZN4core10intrinsics19copy_nonoverlapping17h948179d387e602ccE():
/rustc/50a0defd5a93523067ef239936cc2e0755220904/src/libcore/intrinsics.rs:1412
 202:	6800      	ldr	r0, [r0, #0]
_ZN5mylib9send_coap26send_sensor_data_to_server17h04da864b41372c36E():
/Users/Luppy/mynewt/stm32bluepill-mynewt-sensor/src/send_coap.rs:227
 204:	f2c0 0100 	movt	r1, #0
_ZN4core10intrinsics19copy_nonoverlapping17h948179d387e602ccE():
/rustc/50a0defd5a93523067ef239936cc2e0755220904/src/libcore/intrinsics.rs:1412
 208:	f8c7 0021 	str.w	r0, [r7, #33]	; 0x21
_ZN5mylib9send_coap26send_sensor_data_to_server17h04da864b41372c36E():
/Users/Luppy/mynewt/stm32bluepill-mynewt-sensor/src/send_coap.rs:227
 20c:	4648      	mov	r0, r9
 20e:	f7ff fffe 	bl	0 <json_helper_set_text_string>
_ZN4core3num23_$LT$impl$u20$usize$GT$15overflowing_sub17h3d9756556b058eb6E():
/rustc/50a0defd5a93523067ef239936cc2e0755220904/src/libcore/num/mod.rs:3377
 212:	f1b8 0f01 	cmp.w	r8, #1
_ZN70_$LT$core..option..Option$LT$T$GT$$u20$as$u20$core..cmp..PartialEq$GT$2eq17h8131ae5fea4302b0E():
/rustc/50a0defd5a93523067ef239936cc2e0755220904/src/libcore/option.rs:148
 216:	d306      	bcc.n	226 <_ZN5mylib13listen_sensor16read_temperature17h5746559456a1a162E+0x226>
_ZN5mylib6mynewt8encoding12json_context11JsonContext13value_to_cstr17ha57103a1a1af945eE():
 218:	f1a8 0001 	sub.w	r0, r8, #1
_ZN70_$LT$core..option..Option$LT$T$GT$$u20$as$u20$core..cmp..PartialEq$GT$2eq17h8131ae5fea4302b0E():
/rustc/50a0defd5a93523067ef239936cc2e0755220904/src/libcore/option.rs:148
 21c:	4540      	cmp	r0, r8
 21e:	d202      	bcs.n	226 <_ZN5mylib13listen_sensor16read_temperature17h5746559456a1a162E+0x226>
_ZN5mylib6mynewt8encoding12json_context11JsonContext13value_to_cstr17ha57103a1a1af945eE():
 220:	f81b 0000 	ldrb.w	r0, [fp, r0]
/Users/Luppy/mynewt/stm32bluepill-mynewt-sensor/src/mynewt/encoding/json_context.rs:43
        if s.last() == Some(&0) { return s.as_ptr() as *const c_char; }
 224:	b160      	cbz	r0, 240 <_ZN5mylib13listen_sensor16read_temperature17h5746559456a1a162E+0x240>
/Users/Luppy/mynewt/stm32bluepill-mynewt-sensor/src/mynewt/encoding/json_context.rs:45
        assert!(s.len() < JSON_VALUE_SIZE);  //  Value too long
 226:	f1b8 0f20 	cmp.w	r8, #32
 22a:	f080 811e 	bcs.w	46a <_ZN5mylib13listen_sensor16read_temperature17h5746559456a1a162E+0x46a>
_ZN4core10intrinsics19copy_nonoverlapping17h948179d387e602ccE():
/rustc/50a0defd5a93523067ef239936cc2e0755220904/src/libcore/intrinsics.rs:1412
 22e:	4628      	mov	r0, r5
 230:	4659      	mov	r1, fp
 232:	4642      	mov	r2, r8
 234:	f7ff fffe 	bl	0 <__aeabi_memcpy>
 238:	2000      	movs	r0, #0
_ZN5mylib6mynewt8encoding12json_context11JsonContext13value_to_cstr17ha57103a1a1af945eE():
 23a:	46ab      	mov	fp, r5
/Users/Luppy/mynewt/stm32bluepill-mynewt-sensor/src/mynewt/encoding/json_context.rs:47
        self.value_buffer[s.len()] = 0;
 23c:	f805 0008 	strb.w	r0, [r5, r8]
_ZN5mylib9send_coap26send_sensor_data_to_server17h04da864b41372c36E():
/Users/Luppy/mynewt/stm32bluepill-mynewt-sensor/src/send_coap.rs:227
 240:	f240 0100 	movw	r1, #0
 244:	4648      	mov	r0, r9
 246:	f2c0 0100 	movt	r1, #0
 24a:	465a      	mov	r2, fp
 24c:	f7ff fffe 	bl	0 <json_helper_set_text_string>
 250:	f240 0400 	movw	r4, #0
 254:	f2c0 0400 	movt	r4, #0
 258:	4620      	mov	r0, r4
 25a:	f7ff fffe 	bl	0 <json_helper_object_array_end_item>
 25e:	4620      	mov	r0, r4
 260:	f7ff fffe 	bl	0 <json_helper_object_array_start_item>
 264:	f646 706e 	movw	r0, #28526	; 0x6f6e
_ZN4core10intrinsics19copy_nonoverlapping17h948179d387e602ccE():
/rustc/50a0defd5a93523067ef239936cc2e0755220904/src/libcore/intrinsics.rs:1412
 268:	463a      	mov	r2, r7
 26a:	f2c6 5064 	movt	r0, #25956	; 0x6564
_ZN5mylib9send_coap26send_sensor_data_to_server17h04da864b41372c36E():
/Users/Luppy/mynewt/stm32bluepill-mynewt-sensor/src/send_coap.rs:227
 26e:	f240 0100 	movw	r1, #0
_ZN4core10intrinsics19copy_nonoverlapping17h948179d387e602ccE():
/rustc/50a0defd5a93523067ef239936cc2e0755220904/src/libcore/intrinsics.rs:1412
 272:	f842 0f21 	str.w	r0, [r2, #33]!
 276:	2000      	movs	r0, #0
_ZN5mylib9send_coap26send_sensor_data_to_server17h04da864b41372c36E():
/Users/Luppy/mynewt/stm32bluepill-mynewt-sensor/src/send_coap.rs:227
 278:	f2c0 0100 	movt	r1, #0
_ZN5mylib6mynewt8encoding12json_context11JsonContext13value_to_cstr17ha57103a1a1af945eE():
/Users/Luppy/mynewt/stm32bluepill-mynewt-sensor/src/mynewt/encoding/json_context.rs:47
 27c:	7110      	strb	r0, [r2, #4]
_ZN5mylib9send_coap26send_sensor_data_to_server17h04da864b41372c36E():
/Users/Luppy/mynewt/stm32bluepill-mynewt-sensor/src/send_coap.rs:227
 27e:	4648      	mov	r0, r9
 280:	f7ff fffe 	bl	0 <json_helper_set_text_string>
 284:	9801      	ldr	r0, [sp, #4]
 286:	5c30      	ldrb	r0, [r6, r0]
_ZN5mylib6mynewt8encoding12json_context11JsonContext13value_to_cstr17ha57103a1a1af945eE():
/Users/Luppy/mynewt/stm32bluepill-mynewt-sensor/src/mynewt/encoding/json_context.rs:43
        if s.last() == Some(&0) { return s.as_ptr() as *const c_char; }
 288:	b160      	cbz	r0, 2a4 <_ZN5mylib13listen_sensor16read_temperature17h5746559456a1a162E+0x2a4>
/Users/Luppy/mynewt/stm32bluepill-mynewt-sensor/src/mynewt/encoding/json_context.rs:45
        assert!(s.len() < JSON_VALUE_SIZE);  //  Value too long
 28a:	f1ba 0f20 	cmp.w	sl, #32
 28e:	f080 80ec 	bcs.w	46a <_ZN5mylib13listen_sensor16read_temperature17h5746559456a1a162E+0x46a>
_ZN4core10intrinsics19copy_nonoverlapping17h948179d387e602ccE():
/rustc/50a0defd5a93523067ef239936cc2e0755220904/src/libcore/intrinsics.rs:1412
 292:	4628      	mov	r0, r5
 294:	4631      	mov	r1, r6
 296:	4652      	mov	r2, sl
 298:	f7ff fffe 	bl	0 <__aeabi_memcpy>
 29c:	2000      	movs	r0, #0
_ZN5mylib6mynewt8encoding12json_context11JsonContext13value_to_cstr17ha57103a1a1af945eE():
 29e:	462e      	mov	r6, r5
/Users/Luppy/mynewt/stm32bluepill-mynewt-sensor/src/mynewt/encoding/json_context.rs:47
        self.value_buffer[s.len()] = 0;
 2a0:	f805 000a 	strb.w	r0, [r5, sl]
_ZN5mylib9send_coap26send_sensor_data_to_server17h04da864b41372c36E():
/Users/Luppy/mynewt/stm32bluepill-mynewt-sensor/src/send_coap.rs:227
 2a4:	f240 0100 	movw	r1, #0
 2a8:	4648      	mov	r0, r9
 2aa:	f2c0 0100 	movt	r1, #0
 2ae:	4632      	mov	r2, r6
 2b0:	f7ff fffe 	bl	0 <json_helper_set_text_string>
 2b4:	f240 0000 	movw	r0, #0
 2b8:	f2c0 0000 	movt	r0, #0
 2bc:	f7ff fffe 	bl	0 <json_helper_object_array_end_item>
 2c0:	9802      	ldr	r0, [sp, #8]
 2c2:	2801      	cmp	r0, #1
 2c4:	f040 80a7 	bne.w	416 <_ZN5mylib13listen_sensor16read_temperature17h5746559456a1a162E+0x416>
 2c8:	f240 0400 	movw	r4, #0
 2cc:	f2c0 0400 	movt	r4, #0
 2d0:	4620      	mov	r0, r4
 2d2:	f7ff fffe 	bl	0 <json_helper_object_array_start_item>
_ZN4core10intrinsics19copy_nonoverlapping17h948179d387e602ccE():
/rustc/50a0defd5a93523067ef239936cc2e0755220904/src/libcore/intrinsics.rs:1412
 2d6:	f240 0000 	movw	r0, #0
 2da:	2500      	movs	r5, #0
 2dc:	f2c0 0000 	movt	r0, #0
 2e0:	8801      	ldrh	r1, [r0, #0]
 2e2:	f827 1f01 	strh.w	r1, [r7, #1]!
 2e6:	7880      	ldrb	r0, [r0, #2]
 2e8:	70b8      	strb	r0, [r7, #2]
 2ea:	2074      	movs	r0, #116	; 0x74
 2ec:	463a      	mov	r2, r7
_ZN5mylib6mynewt8encoding12json_context11JsonContext11key_to_cstr17h6b14e0e9f397c131E():
/Users/Luppy/mynewt/stm32bluepill-mynewt-sensor/src/mynewt/encoding/json_context.rs:34
        self.key_buffer[s.len()] = 0;
 2ee:	70fd      	strb	r5, [r7, #3]
_ZN4core10intrinsics19copy_nonoverlapping17h948179d387e602ccE():
/rustc/50a0defd5a93523067ef239936cc2e0755220904/src/libcore/intrinsics.rs:1412
 2f0:	f822 0f20 	strh.w	r0, [r2, #32]!
_ZN5mylib9send_coap26send_sensor_data_to_server17h04da864b41372c36E():
/Users/Luppy/mynewt/stm32bluepill-mynewt-sensor/src/send_coap.rs:227
 2f4:	4638      	mov	r0, r7
 2f6:	4639      	mov	r1, r7
 2f8:	f7ff fffe 	bl	0 <json_helper_set_text_string>
_ZN4core10intrinsics19copy_nonoverlapping17h948179d387e602ccE():
/rustc/50a0defd5a93523067ef239936cc2e0755220904/src/libcore/intrinsics.rs:1412
 2fc:	f240 0000 	movw	r0, #0
_ZN5mylib9send_coap26send_sensor_data_to_server17h04da864b41372c36E():
/Users/Luppy/mynewt/stm32bluepill-mynewt-sensor/src/send_coap.rs:227
 300:	9a03      	ldr	r2, [sp, #12]
_ZN4core10intrinsics19copy_nonoverlapping17h948179d387e602ccE():
/rustc/50a0defd5a93523067ef239936cc2e0755220904/src/libcore/intrinsics.rs:1412
 302:	f2c0 0000 	movt	r0, #0
_ZN5mylib6mynewt8encoding12json_context11JsonContext11key_to_cstr17h6b14e0e9f397c131E():
/Users/Luppy/mynewt/stm32bluepill-mynewt-sensor/src/mynewt/encoding/json_context.rs:34
 306:	717d      	strb	r5, [r7, #5]
_ZN4core10intrinsics19copy_nonoverlapping17h948179d387e602ccE():
/rustc/50a0defd5a93523067ef239936cc2e0755220904/src/libcore/intrinsics.rs:1412
 308:	7901      	ldrb	r1, [r0, #4]
_ZN5mylib9send_coap26send_sensor_data_to_server17h04da864b41372c36E():
/Users/Luppy/mynewt/stm32bluepill-mynewt-sensor/src/send_coap.rs:227
 30a:	2300      	movs	r3, #0
_ZN4core10intrinsics19copy_nonoverlapping17h948179d387e602ccE():
/rustc/50a0defd5a93523067ef239936cc2e0755220904/src/libcore/intrinsics.rs:1412
 30c:	6800      	ldr	r0, [r0, #0]
 30e:	7139      	strb	r1, [r7, #4]
_ZN5mylib9send_coap26send_sensor_data_to_server17h04da864b41372c36E():
/Users/Luppy/mynewt/stm32bluepill-mynewt-sensor/src/send_coap.rs:227
 310:	4639      	mov	r1, r7
_ZN4core10intrinsics19copy_nonoverlapping17h948179d387e602ccE():
/rustc/50a0defd5a93523067ef239936cc2e0755220904/src/libcore/intrinsics.rs:1412
 312:	6038      	str	r0, [r7, #0]
_ZN5mylib9send_coap26send_sensor_data_to_server17h04da864b41372c36E():
/Users/Luppy/mynewt/stm32bluepill-mynewt-sensor/src/send_coap.rs:227
 314:	4638      	mov	r0, r7
 316:	f7ff fffe 	bl	0 <json_helper_set_int>
 31a:	4620      	mov	r0, r4
 31c:	f7ff fffe 	bl	0 <json_helper_object_array_end_item>
 320:	f240 0100 	movw	r1, #0
 324:	4638      	mov	r0, r7
 326:	f2c0 0100 	movt	r1, #0
 32a:	f7ff fffe 	bl	0 <json_helper_close_array>
 32e:	f7ff fffe 	bl	0 <json_rep_end_root_object>
/Users/Luppy/mynewt/stm32bluepill-mynewt-sensor/src/send_coap.rs:243
    let rc = unsafe { sensor_network::do_server_post() };  assert!(rc);
 332:	f7ff fffe 	bl	0 <do_server_post>
 336:	2800      	cmp	r0, #0
 338:	f000 80f2 	beq.w	520 <_ZN5mylib13listen_sensor16read_temperature17h5746559456a1a162E+0x520>
_ZN5mylib4base13console_print17h6486f646aedc2f70E():
/Users/Luppy/mynewt/stm32bluepill-mynewt-sensor/src/base.rs:18
 33c:	f240 0000 	movw	r0, #0
 340:	214b      	movs	r1, #75	; 0x4b
 342:	f2c0 0000 	movt	r0, #0
_ZN5mylib9send_coap16send_sensor_data17h1267f894cf2aa443E():
 346:	f7ff fffe 	bl	0 <console_buffer>
 34a:	f7ff fffe 	bl	0 <console_flush>
 34e:	2001      	movs	r0, #1
_ZN5mylib13listen_sensor16read_temperature17h5746559456a1a162E():
/Users/Luppy/mynewt/stm32bluepill-mynewt-sensor/src/listen_sensor.rs:109
    if let Err(err) = rc {  //  `if let` will assign `err` to the error code inside `rc`
 350:	3006      	adds	r0, #6
 352:	d10d      	bne.n	370 <_ZN5mylib13listen_sensor16read_temperature17h5746559456a1a162E+0x370>
 354:	e003      	b.n	35e <_ZN5mylib13listen_sensor16read_temperature17h5746559456a1a162E+0x35e>
 356:	f06f 0005 	mvn.w	r0, #5
 35a:	3006      	adds	r0, #6
 35c:	d108      	bne.n	370 <_ZN5mylib13listen_sensor16read_temperature17h5746559456a1a162E+0x370>
_ZN5mylib4base13console_print17h6486f646aedc2f70E():
/Users/Luppy/mynewt/stm32bluepill-mynewt-sensor/src/base.rs:18
 35e:	f240 0000 	movw	r0, #0
 362:	2116      	movs	r1, #22
 364:	f2c0 0000 	movt	r0, #0
 368:	f7ff fffe 	bl	0 <console_buffer>
/Users/Luppy/mynewt/stm32bluepill-mynewt-sensor/src/base.rs:19
        console_flush();  //  TODO: Remove this.
 36c:	f7ff fffe 	bl	0 <console_flush>
_ZN5mylib13listen_sensor16read_temperature17h5746559456a1a162E():
 370:	2000      	movs	r0, #0
/Users/Luppy/mynewt/stm32bluepill-mynewt-sensor/src/listen_sensor.rs:117
}
 372:	b015      	add	sp, #84	; 0x54
 374:	e8bd 8ff0 	ldmia.w	sp!, {r4, r5, r6, r7, r8, r9, sl, fp, pc}
/Users/Luppy/mynewt/stm32bluepill-mynewt-sensor/src/listen_sensor.rs:87
    assert!(unsafe { !is_null_sensor(sensor) });
 378:	f240 0000 	movw	r0, #0
 37c:	f2c0 0000 	movt	r0, #0
 380:	f7ff fffe 	bl	0 <_ZN4core9panicking5panic17h53ca63c6ac6312f8E>
 384:	defe      	udf	#254	; 0xfe
/Users/Luppy/mynewt/stm32bluepill-mynewt-sensor/src/listen_sensor.rs:99
    if let SensorValueType::None = temp_sensor_value.val { assert!(false); }  //  Invalid type
 386:	f240 0000 	movw	r0, #0
 38a:	f2c0 0000 	movt	r0, #0
 38e:	f7ff fffe 	bl	0 <_ZN4core9panicking5panic17h53ca63c6ac6312f8E>
 392:	defe      	udf	#254	; 0xfe
_ZN5mylib13listen_sensor15get_temperature17h0650eb2240009589E():
/Users/Luppy/mynewt/stm32bluepill-mynewt-sensor/src/listen_sensor.rs:131
            assert!(rc == 0);
 394:	f240 0000 	movw	r0, #0
 398:	f2c0 0000 	movt	r0, #0
 39c:	f7ff fffe 	bl	0 <_ZN4core9panicking5panic17h53ca63c6ac6312f8E>
 3a0:	defe      	udf	#254	; 0xfe
/Users/Luppy/mynewt/stm32bluepill-mynewt-sensor/src/listen_sensor.rs:144
            assert!(rc == 0);
 3a2:	f240 0000 	movw	r0, #0
 3a6:	f2c0 0000 	movt	r0, #0
 3aa:	f7ff fffe 	bl	0 <_ZN4core9panicking5panic17h53ca63c6ac6312f8E>
 3ae:	defe      	udf	#254	; 0xfe
_ZN99_$LT$core..ops..range..Range$LT$usize$GT$$u20$as$u20$core..slice..SliceIndex$LT$$u5b$T$u5d$$GT$$GT$5index17ha6259e444fe26843E():
/rustc/50a0defd5a93523067ef239936cc2e0755220904/src/libcore/slice/mod.rs:2746
 3b0:	2100      	movs	r1, #0
 3b2:	f7ff fffe 	bl	0 <_ZN4core5slice20slice_index_len_fail17hedb5bb240677a6b7E>
 3b6:	defe      	udf	#254	; 0xfe
_ZN5mylib9send_coap26send_sensor_data_to_server17h04da864b41372c36E():
/Users/Luppy/mynewt/stm32bluepill-mynewt-sensor/src/send_coap.rs:216
    assert_ne!(node_id.to_bytes()[0], 0);
 3b8:	f240 0000 	movw	r0, #0
 3bc:	2100      	movs	r1, #0
 3be:	f2c0 0000 	movt	r0, #0
 3c2:	2200      	movs	r2, #0
 3c4:	f7ff fffe 	bl	0 <_ZN4core9panicking18panic_bounds_check17h946762cd0671aec9E>
 3c8:	defe      	udf	#254	; 0xfe
 3ca:	f240 0000 	movw	r0, #0
 3ce:	a914      	add	r1, sp, #80	; 0x50
 3d0:	f2c0 0000 	movt	r0, #0
 3d4:	9613      	str	r6, [sp, #76]	; 0x4c
 3d6:	900c      	str	r0, [sp, #48]	; 0x30
 3d8:	e9cd 010a 	strd	r0, r1, [sp, #40]	; 0x28
 3dc:	a813      	add	r0, sp, #76	; 0x4c
 3de:	9009      	str	r0, [sp, #36]	; 0x24
 3e0:	f240 0000 	movw	r0, #0
 3e4:	f2c0 0000 	movt	r0, #0
 3e8:	f240 0100 	movw	r1, #0
 3ec:	9014      	str	r0, [sp, #80]	; 0x50
 3ee:	2002      	movs	r0, #2
_ZN4core3fmt9Arguments6new_v117ha99294a9defa432aE():
/rustc/50a0defd5a93523067ef239936cc2e0755220904/src/libcore/fmt/mod.rs:316
 3f0:	9012      	str	r0, [sp, #72]	; 0x48
 3f2:	a809      	add	r0, sp, #36	; 0x24
 3f4:	9011      	str	r0, [sp, #68]	; 0x44
 3f6:	2000      	movs	r0, #0
 3f8:	e9cd 000f 	strd	r0, r0, [sp, #60]	; 0x3c
 3fc:	2003      	movs	r0, #3
 3fe:	900e      	str	r0, [sp, #56]	; 0x38
 400:	f240 0000 	movw	r0, #0
 404:	f2c0 0000 	movt	r0, #0
_ZN5mylib9send_coap26send_sensor_data_to_server17h04da864b41372c36E():
/Users/Luppy/mynewt/stm32bluepill-mynewt-sensor/src/send_coap.rs:216
 408:	f2c0 0100 	movt	r1, #0
_ZN4core3fmt9Arguments6new_v117ha99294a9defa432aE():
/rustc/50a0defd5a93523067ef239936cc2e0755220904/src/libcore/fmt/mod.rs:316
 40c:	900d      	str	r0, [sp, #52]	; 0x34
 40e:	a80d      	add	r0, sp, #52	; 0x34
_ZN5mylib9send_coap26send_sensor_data_to_server17h04da864b41372c36E():
/Users/Luppy/mynewt/stm32bluepill-mynewt-sensor/src/send_coap.rs:216
 410:	f7ff fffe 	bl	0 <_ZN4core9panicking9panic_fmt17h6b4d8e87b0965449E>
 414:	defe      	udf	#254	; 0xfe
_ZN5mylib9send_coap16send_sensor_data17h1267f894cf2aa443E():
 416:	2001      	movs	r0, #1
 418:	a914      	add	r1, sp, #80	; 0x50
 41a:	f88d 0020 	strb.w	r0, [sp, #32]
 41e:	a808      	add	r0, sp, #32
 420:	9013      	str	r0, [sp, #76]	; 0x4c
 422:	f240 0000 	movw	r0, #0
 426:	f2c0 0000 	movt	r0, #0
 42a:	900c      	str	r0, [sp, #48]	; 0x30
 42c:	910b      	str	r1, [sp, #44]	; 0x2c
 42e:	f240 0100 	movw	r1, #0
 432:	900a      	str	r0, [sp, #40]	; 0x28
 434:	a813      	add	r0, sp, #76	; 0x4c
 436:	9009      	str	r0, [sp, #36]	; 0x24
 438:	f240 0000 	movw	r0, #0
 43c:	f2c0 0000 	movt	r0, #0
 440:	f2c0 0100 	movt	r1, #0
 444:	9014      	str	r0, [sp, #80]	; 0x50
 446:	2002      	movs	r0, #2
 448:	9012      	str	r0, [sp, #72]	; 0x48
 44a:	a809      	add	r0, sp, #36	; 0x24
 44c:	9011      	str	r0, [sp, #68]	; 0x44
 44e:	2000      	movs	r0, #0
 450:	9010      	str	r0, [sp, #64]	; 0x40
 452:	900f      	str	r0, [sp, #60]	; 0x3c
 454:	2003      	movs	r0, #3
 456:	900e      	str	r0, [sp, #56]	; 0x38
 458:	f240 0000 	movw	r0, #0
 45c:	f2c0 0000 	movt	r0, #0
 460:	900d      	str	r0, [sp, #52]	; 0x34
 462:	a80d      	add	r0, sp, #52	; 0x34
 464:	f7ff fffe 	bl	0 <_ZN4core9panicking9panic_fmt17h6b4d8e87b0965449E>
 468:	defe      	udf	#254	; 0xfe
_ZN5mylib9send_coap26send_sensor_data_to_server17h04da864b41372c36E():
 46a:	f240 0000 	movw	r0, #0
 46e:	f2c0 0000 	movt	r0, #0
 472:	f7ff fffe 	bl	0 <_ZN4core9panicking5panic17h53ca63c6ac6312f8E>
 476:	defe      	udf	#254	; 0xfe
_ZN5mylib9send_coap29send_sensor_data_to_collector17h8b909934b4c85748E():
/Users/Luppy/mynewt/stm32bluepill-mynewt-sensor/src/send_coap.rs:272
    let rc = unsafe { sensor_network::init_collector_post() };  assert!(rc);
 478:	f240 0000 	movw	r0, #0
 47c:	f2c0 0000 	movt	r0, #0
 480:	f7ff fffe 	bl	0 <_ZN4core9panicking5panic17h53ca63c6ac6312f8E>
 484:	defe      	udf	#254	; 0xfe
 486:	a808      	add	r0, sp, #32
_ZN5mylib6mynewt8encoding12json_context11JsonContext12check_result17h3627f40a0dc2d2b4E():
/Users/Luppy/mynewt/stm32bluepill-mynewt-sensor/src/mynewt/encoding/json_context.rs:72
        assert_eq!(res, 0);
 488:	9013      	str	r0, [sp, #76]	; 0x4c
 48a:	f240 0000 	movw	r0, #0
 48e:	a914      	add	r1, sp, #80	; 0x50
 490:	f2c0 0000 	movt	r0, #0
 494:	900c      	str	r0, [sp, #48]	; 0x30
 496:	e9cd 010a 	strd	r0, r1, [sp, #40]	; 0x28
 49a:	a813      	add	r0, sp, #76	; 0x4c
 49c:	9009      	str	r0, [sp, #36]	; 0x24
 49e:	f240 0000 	movw	r0, #0
 4a2:	f2c0 0000 	movt	r0, #0
 4a6:	9014      	str	r0, [sp, #80]	; 0x50
 4a8:	2002      	movs	r0, #2
_ZN4core3fmt9Arguments6new_v117ha99294a9defa432aE():
/rustc/50a0defd5a93523067ef239936cc2e0755220904/src/libcore/fmt/mod.rs:316
 4aa:	9012      	str	r0, [sp, #72]	; 0x48
 4ac:	a809      	add	r0, sp, #36	; 0x24
 4ae:	9011      	str	r0, [sp, #68]	; 0x44
 4b0:	2000      	movs	r0, #0
 4b2:	e9cd 000f 	strd	r0, r0, [sp, #60]	; 0x3c
 4b6:	e016      	b.n	4e6 <_ZN5mylib13listen_sensor16read_temperature17h5746559456a1a162E+0x4e6>
_ZN5mylib9send_coap29send_sensor_data_to_collector17h8b909934b4c85748E():
 4b8:	a808      	add	r0, sp, #32
_ZN5mylib6mynewt8encoding12json_context11JsonContext12check_result17h3627f40a0dc2d2b4E():
/Users/Luppy/mynewt/stm32bluepill-mynewt-sensor/src/mynewt/encoding/json_context.rs:72
 4ba:	9013      	str	r0, [sp, #76]	; 0x4c
 4bc:	f240 0000 	movw	r0, #0
 4c0:	a914      	add	r1, sp, #80	; 0x50
 4c2:	f2c0 0000 	movt	r0, #0
 4c6:	900c      	str	r0, [sp, #48]	; 0x30
 4c8:	e9cd 010a 	strd	r0, r1, [sp, #40]	; 0x28
 4cc:	a813      	add	r0, sp, #76	; 0x4c
 4ce:	9009      	str	r0, [sp, #36]	; 0x24
 4d0:	f240 0000 	movw	r0, #0
 4d4:	f2c0 0000 	movt	r0, #0
 4d8:	9014      	str	r0, [sp, #80]	; 0x50
 4da:	2002      	movs	r0, #2
_ZN4core3fmt9Arguments6new_v117ha99294a9defa432aE():
/rustc/50a0defd5a93523067ef239936cc2e0755220904/src/libcore/fmt/mod.rs:316
 4dc:	9012      	str	r0, [sp, #72]	; 0x48
 4de:	a809      	add	r0, sp, #36	; 0x24
 4e0:	9011      	str	r0, [sp, #68]	; 0x44
 4e2:	e9cd 440f 	strd	r4, r4, [sp, #60]	; 0x3c
_ZN5mylib9send_coap29send_sensor_data_to_collector17h8b909934b4c85748E():
 4e6:	2003      	movs	r0, #3
 4e8:	f240 0100 	movw	r1, #0
 4ec:	900e      	str	r0, [sp, #56]	; 0x38
 4ee:	f240 0000 	movw	r0, #0
 4f2:	f2c0 0000 	movt	r0, #0
 4f6:	f2c0 0100 	movt	r1, #0
 4fa:	900d      	str	r0, [sp, #52]	; 0x34
 4fc:	a80d      	add	r0, sp, #52	; 0x34
 4fe:	f7ff fffe 	bl	0 <_ZN4core9panicking9panic_fmt17h6b4d8e87b0965449E>
 502:	defe      	udf	#254	; 0xfe
/Users/Luppy/mynewt/stm32bluepill-mynewt-sensor/src/send_coap.rs:283
    let rc = unsafe { sensor_network::do_collector_post() };  assert!(rc);
 504:	f240 0000 	movw	r0, #0
 508:	f2c0 0000 	movt	r0, #0
 50c:	f7ff fffe 	bl	0 <_ZN4core9panicking5panic17h53ca63c6ac6312f8E>
 510:	defe      	udf	#254	; 0xfe
_ZN5mylib9send_coap26send_sensor_data_to_server17h04da864b41372c36E():
/Users/Luppy/mynewt/stm32bluepill-mynewt-sensor/src/send_coap.rs:224
    let rc = unsafe { sensor_network::init_server_post(0 as *const c_char) };  assert!(rc);
 512:	f240 0000 	movw	r0, #0
 516:	f2c0 0000 	movt	r0, #0
 51a:	f7ff fffe 	bl	0 <_ZN4core9panicking5panic17h53ca63c6ac6312f8E>
 51e:	defe      	udf	#254	; 0xfe
/Users/Luppy/mynewt/stm32bluepill-mynewt-sensor/src/send_coap.rs:243
    let rc = unsafe { sensor_network::do_server_post() };  assert!(rc);
 520:	f240 0000 	movw	r0, #0
 524:	f2c0 0000 	movt	r0, #0
 528:	f7ff fffe 	bl	0 <_ZN4core9panicking5panic17h53ca63c6ac6312f8E>
 52c:	defe      	udf	#254	; 0xfe

Disassembly of section .text._ZN5mylib9send_coap17network_task_func17h485106b354545a85E:

00000000 <_ZN5mylib9send_coap17network_task_func17h485106b354545a85E>:
_ZN5mylib9send_coap17network_task_func17h485106b354545a85E():
/Users/Luppy/mynewt/stm32bluepill-mynewt-sensor/src/send_coap.rs:143
extern "C" fn network_task_func(_arg: *mut ::cty::c_void) {
   0:	b08e      	sub	sp, #56	; 0x38
_ZN5mylib4base13console_print17h6486f646aedc2f70E():
/Users/Luppy/mynewt/stm32bluepill-mynewt-sensor/src/base.rs:18
        console_buffer(msg.as_ptr(), len as u32);
   2:	f240 0000 	movw	r0, #0
   6:	210a      	movs	r1, #10
   8:	f2c0 0000 	movt	r0, #0
   c:	f7ff fffe 	bl	0 <console_buffer>
/Users/Luppy/mynewt/stm32bluepill-mynewt-sensor/src/base.rs:19
        console_flush();  //  TODO: Remove this.
  10:	f7ff fffe 	bl	0 <console_flush>
_ZN5mylib9send_coap17network_task_func17h485106b354545a85E():
/Users/Luppy/mynewt/stm32bluepill-mynewt-sensor/src/send_coap.rs:144
    console_print(b"NET start\n");  assert!(unsafe { !NETWORK_IS_READY });
  14:	f240 0400 	movw	r4, #0
  18:	f2c0 0400 	movt	r4, #0
  1c:	7820      	ldrb	r0, [r4, #0]
  1e:	2801      	cmp	r0, #1
  20:	d026      	beq.n	70 <_ZN5mylib9send_coap17network_task_func17h485106b354545a85E+0x70>
/Users/Luppy/mynewt/stm32bluepill-mynewt-sensor/src/send_coap.rs:149
        sensor_network::is_standalone_node() || 
  22:	f7ff fffe 	bl	0 <is_standalone_node>
  26:	b910      	cbnz	r0, 8 <is_collector_node+0x8>
/Users/Luppy/mynewt/stm32bluepill-mynewt-sensor/src/send_coap.rs:150
        sensor_network::is_collector_node() 
  28:	f7ff fffe 	bl	0 <is_collector_node>
/Users/Luppy/mynewt/stm32bluepill-mynewt-sensor/src/send_coap.rs:148
    if unsafe { 
  2c:	b120      	cbz	r0, c <register_server_transport+0xc>
/Users/Luppy/mynewt/stm32bluepill-mynewt-sensor/src/send_coap.rs:152
        let rc = unsafe { sensor_network::register_server_transport() };  assert_eq!(rc, 0);
  2e:	f7ff fffe 	bl	0 <register_server_transport>
  32:	2800      	cmp	r0, #0
  34:	9001      	str	r0, [sp, #4]
  36:	d122      	bne.n	7e <_ZN5mylib9send_coap17network_task_func17h485106b354545a85E+0x7e>
/Users/Luppy/mynewt/stm32bluepill-mynewt-sensor/src/send_coap.rs:157
        sensor_network::is_collector_node() || 
  38:	f7ff fffe 	bl	0 <is_collector_node>
  3c:	b910      	cbnz	r0, 8 <is_sensor_node+0x8>
/Users/Luppy/mynewt/stm32bluepill-mynewt-sensor/src/send_coap.rs:158
        sensor_network::is_sensor_node() 
  3e:	f7ff fffe 	bl	0 <is_sensor_node>
/Users/Luppy/mynewt/stm32bluepill-mynewt-sensor/src/send_coap.rs:156
    if unsafe { 
  42:	b120      	cbz	r0, c <register_collector_transport+0xc>
/Users/Luppy/mynewt/stm32bluepill-mynewt-sensor/src/send_coap.rs:160
        let rc = unsafe { sensor_network::register_collector_transport() };  assert_eq!(rc, 0);
  44:	f7ff fffe 	bl	0 <register_collector_transport>
  48:	2800      	cmp	r0, #0
  4a:	9001      	str	r0, [sp, #4]
  4c:	d13e      	bne.n	cc <_ZN5mylib9send_coap17network_task_func17h485106b354545a85E+0xcc>
  4e:	2001      	movs	r0, #1
/Users/Luppy/mynewt/stm32bluepill-mynewt-sensor/src/send_coap.rs:165
    unsafe { NETWORK_IS_READY = true; }  //  Indicate that network is ready.
  50:	7020      	strb	r0, [r4, #0]
  52:	f240 0400 	movw	r4, #0
  56:	f2c0 0400 	movt	r4, #0
_ZN5mylib4base13console_print17h6486f646aedc2f70E():
/Users/Luppy/mynewt/stm32bluepill-mynewt-sensor/src/base.rs:18
        console_buffer(msg.as_ptr(), len as u32);
  5a:	4620      	mov	r0, r4
  5c:	2111      	movs	r1, #17
  5e:	f7ff fffe 	bl	0 <console_buffer>
/Users/Luppy/mynewt/stm32bluepill-mynewt-sensor/src/base.rs:19
        console_flush();  //  TODO: Remove this.
  62:	f7ff fffe 	bl	0 <console_flush>
_ZN5mylib9send_coap17network_task_func17h485106b354545a85E():
/Users/Luppy/mynewt/stm32bluepill-mynewt-sensor/src/send_coap.rs:169
        unsafe { os::os_time_delay(10 * os::OS_TICKS_PER_SEC); }                   //  Wait 10 seconds before repeating.
  66:	f242 7010 	movw	r0, #10000	; 0x2710
  6a:	f7ff fffe 	bl	0 <os_time_delay>
/Users/Luppy/mynewt/stm32bluepill-mynewt-sensor/src/send_coap.rs:167
    loop {  //  Loop forever...        
  6e:	e7f4      	b.n	ffffffec <.Lanon.a56035f3358feb78c42af7a7f5ac36f0.59+0xffffffe4>
/Users/Luppy/mynewt/stm32bluepill-mynewt-sensor/src/send_coap.rs:144
    console_print(b"NET start\n");  assert!(unsafe { !NETWORK_IS_READY });
  70:	f240 0000 	movw	r0, #0
  74:	f2c0 0000 	movt	r0, #0
  78:	f7ff fffe 	bl	0 <_ZN4core9panicking5panic17h53ca63c6ac6312f8E>
  7c:	defe      	udf	#254	; 0xfe
  7e:	a801      	add	r0, sp, #4
/Users/Luppy/mynewt/stm32bluepill-mynewt-sensor/src/send_coap.rs:152
        let rc = unsafe { sensor_network::register_server_transport() };  assert_eq!(rc, 0);
  80:	900c      	str	r0, [sp, #48]	; 0x30
  82:	f240 0000 	movw	r0, #0
  86:	a90d      	add	r1, sp, #52	; 0x34
  88:	f2c0 0000 	movt	r0, #0
  8c:	900b      	str	r0, [sp, #44]	; 0x2c
  8e:	e9cd 0109 	strd	r0, r1, [sp, #36]	; 0x24
  92:	a80c      	add	r0, sp, #48	; 0x30
  94:	9008      	str	r0, [sp, #32]
  96:	f240 0000 	movw	r0, #0
  9a:	f2c0 0000 	movt	r0, #0
  9e:	f240 0100 	movw	r1, #0
  a2:	900d      	str	r0, [sp, #52]	; 0x34
  a4:	2002      	movs	r0, #2
_ZN4core3fmt9Arguments6new_v117ha99294a9defa432aE():
/rustc/50a0defd5a93523067ef239936cc2e0755220904/src/libcore/fmt/mod.rs:316
  a6:	9007      	str	r0, [sp, #28]
  a8:	a808      	add	r0, sp, #32
  aa:	9006      	str	r0, [sp, #24]
  ac:	2000      	movs	r0, #0
  ae:	e9cd 0004 	strd	r0, r0, [sp, #16]
  b2:	2003      	movs	r0, #3
  b4:	9003      	str	r0, [sp, #12]
  b6:	f240 0000 	movw	r0, #0
  ba:	f2c0 0000 	movt	r0, #0
_ZN5mylib9send_coap17network_task_func17h485106b354545a85E():
/Users/Luppy/mynewt/stm32bluepill-mynewt-sensor/src/send_coap.rs:152
  be:	f2c0 0100 	movt	r1, #0
_ZN4core3fmt9Arguments6new_v117ha99294a9defa432aE():
/rustc/50a0defd5a93523067ef239936cc2e0755220904/src/libcore/fmt/mod.rs:316
  c2:	9002      	str	r0, [sp, #8]
  c4:	a802      	add	r0, sp, #8
_ZN5mylib9send_coap17network_task_func17h485106b354545a85E():
/Users/Luppy/mynewt/stm32bluepill-mynewt-sensor/src/send_coap.rs:152
  c6:	f7ff fffe 	bl	0 <_ZN4core9panicking9panic_fmt17h6b4d8e87b0965449E>
  ca:	defe      	udf	#254	; 0xfe
  cc:	a801      	add	r0, sp, #4
/Users/Luppy/mynewt/stm32bluepill-mynewt-sensor/src/send_coap.rs:160
        let rc = unsafe { sensor_network::register_collector_transport() };  assert_eq!(rc, 0);
  ce:	900c      	str	r0, [sp, #48]	; 0x30
  d0:	f240 0000 	movw	r0, #0
  d4:	a90d      	add	r1, sp, #52	; 0x34
  d6:	f2c0 0000 	movt	r0, #0
  da:	900b      	str	r0, [sp, #44]	; 0x2c
  dc:	e9cd 0109 	strd	r0, r1, [sp, #36]	; 0x24
  e0:	a80c      	add	r0, sp, #48	; 0x30
  e2:	9008      	str	r0, [sp, #32]
  e4:	f240 0000 	movw	r0, #0
  e8:	f2c0 0000 	movt	r0, #0
  ec:	f240 0100 	movw	r1, #0
  f0:	900d      	str	r0, [sp, #52]	; 0x34
  f2:	2002      	movs	r0, #2
_ZN4core3fmt9Arguments6new_v117ha99294a9defa432aE():
/rustc/50a0defd5a93523067ef239936cc2e0755220904/src/libcore/fmt/mod.rs:316
  f4:	9007      	str	r0, [sp, #28]
  f6:	a808      	add	r0, sp, #32
  f8:	9006      	str	r0, [sp, #24]
  fa:	2000      	movs	r0, #0
  fc:	e9cd 0004 	strd	r0, r0, [sp, #16]
 100:	2003      	movs	r0, #3
 102:	9003      	str	r0, [sp, #12]
 104:	f240 0000 	movw	r0, #0
 108:	f2c0 0000 	movt	r0, #0
_ZN5mylib9send_coap17network_task_func17h485106b354545a85E():
/Users/Luppy/mynewt/stm32bluepill-mynewt-sensor/src/send_coap.rs:160
 10c:	f2c0 0100 	movt	r1, #0
_ZN4core3fmt9Arguments6new_v117ha99294a9defa432aE():
/rustc/50a0defd5a93523067ef239936cc2e0755220904/src/libcore/fmt/mod.rs:316
 110:	9002      	str	r0, [sp, #8]
 112:	a802      	add	r0, sp, #8
_ZN5mylib9send_coap17network_task_func17h485106b354545a85E():
/Users/Luppy/mynewt/stm32bluepill-mynewt-sensor/src/send_coap.rs:160
 114:	f7ff fffe 	bl	0 <_ZN4core9panicking9panic_fmt17h6b4d8e87b0965449E>
 118:	defe      	udf	#254	; 0xfe

Disassembly of section .text.main:

00000000 <main>:
main():
/Users/Luppy/mynewt/stm32bluepill-mynewt-sensor/src/lib.rs:34
use mynewt::kernel::os;         //  Import Mynewt OS API
use crate::base::*;             //  Import `base.rs` for common declarations

///  main() will be called at Mynewt startup. It replaces the C version of the main() function.
#[no_mangle]                     //  Don't mangle the name "main"
extern "C" fn main() -> ! {  //  Declare extern "C" because it will be called by Mynewt
   0:	b092      	sub	sp, #72	; 0x48
/Users/Luppy/mynewt/stm32bluepill-mynewt-sensor/src/lib.rs:36
    //  Init Mynewt system.
    unsafe { base::rust_sysinit()  };
   2:	f7ff fffe 	bl	0 <rust_sysinit>
/Users/Luppy/mynewt/stm32bluepill-mynewt-sensor/src/lib.rs:37
    unsafe { console_flush() };
   6:	f7ff fffe 	bl	0 <console_flush>
_ZN5mylib4base13console_print17h6486f646aedc2f70E():
/Users/Luppy/mynewt/stm32bluepill-mynewt-sensor/src/base.rs:18
        console_buffer(msg.as_ptr(), len as u32);
   a:	f240 0000 	movw	r0, #0
   e:	210a      	movs	r1, #10
  10:	f2c0 0000 	movt	r0, #0
  14:	240a      	movs	r4, #10
  16:	f7ff fffe 	bl	0 <console_buffer>
/Users/Luppy/mynewt/stm32bluepill-mynewt-sensor/src/base.rs:19
        console_flush();  //  TODO: Remove this.
  1a:	f7ff fffe 	bl	0 <console_flush>
_ZN5mylib9send_coap18start_network_task17hc2b103d08831d841E():
/Users/Luppy/mynewt/stm32bluepill-mynewt-sensor/src/send_coap.rs:123
    let rc = unsafe { os::os_task_init( //  Create a new task and start it...
  1e:	f240 0100 	movw	r1, #0
  22:	f04f 32ff 	mov.w	r2, #4294967295	; 0xffffffff
  26:	f44f 7080 	mov.w	r0, #256	; 0x100
  2a:	f2c0 0100 	movt	r1, #0
  2e:	e9cd 4200 	strd	r4, r2, [sp]
  32:	f240 0200 	movw	r2, #0
  36:	e9cd 1002 	strd	r1, r0, [sp, #8]
  3a:	f240 0000 	movw	r0, #0
  3e:	f240 0100 	movw	r1, #0
  42:	f2c0 0000 	movt	r0, #0
  46:	f2c0 0100 	movt	r1, #0
  4a:	f2c0 0200 	movt	r2, #0
  4e:	2300      	movs	r3, #0
  50:	2400      	movs	r4, #0
  52:	f7ff fffe 	bl	0 <os_task_init>
/Users/Luppy/mynewt/stm32bluepill-mynewt-sensor/src/send_coap.rs:132
    assert_eq!(rc, 0);
  56:	2800      	cmp	r0, #0
/Users/Luppy/mynewt/stm32bluepill-mynewt-sensor/src/send_coap.rs:123
    let rc = unsafe { os::os_task_init( //  Create a new task and start it...
  58:	9009      	str	r0, [sp, #36]	; 0x24
/Users/Luppy/mynewt/stm32bluepill-mynewt-sensor/src/send_coap.rs:132
    assert_eq!(rc, 0);
  5a:	d13f      	bne.n	dc <main+0xdc>
_ZN5mylib4base13console_print17h6486f646aedc2f70E():
/Users/Luppy/mynewt/stm32bluepill-mynewt-sensor/src/base.rs:18
        console_buffer(msg.as_ptr(), len as u32);
  5c:	f240 0000 	movw	r0, #0
  60:	210a      	movs	r1, #10
  62:	f2c0 0000 	movt	r0, #0
  66:	f7ff fffe 	bl	0 <console_buffer>
/Users/Luppy/mynewt/stm32bluepill-mynewt-sensor/src/base.rs:19
        console_flush();  //  TODO: Remove this.
  6a:	f7ff fffe 	bl	0 <console_flush>
_ZN5mylib13listen_sensor21start_sensor_listener17hfcf71c32ce96e6e5E():
/Users/Luppy/mynewt/stm32bluepill-mynewt-sensor/src/listen_sensor.rs:46
    let rc = unsafe { sensor::sensor_set_poll_rate_ms(SENSOR_DEVICE, SENSOR_POLL_TIME) };
  6e:	f240 0000 	movw	r0, #0
  72:	f242 7110 	movw	r1, #10000	; 0x2710
  76:	f2c0 0000 	movt	r0, #0
  7a:	f7ff fffe 	bl	0 <sensor_set_poll_rate_ms>
/Users/Luppy/mynewt/stm32bluepill-mynewt-sensor/src/listen_sensor.rs:47
    assert_eq!(rc, 0);
  7e:	2800      	cmp	r0, #0
/Users/Luppy/mynewt/stm32bluepill-mynewt-sensor/src/listen_sensor.rs:46
    let rc = unsafe { sensor::sensor_set_poll_rate_ms(SENSOR_DEVICE, SENSOR_POLL_TIME) };
  80:	9009      	str	r0, [sp, #36]	; 0x24
/Users/Luppy/mynewt/stm32bluepill-mynewt-sensor/src/listen_sensor.rs:47
    assert_eq!(rc, 0);
  82:	d151      	bne.n	128 <main+0x128>
/Users/Luppy/mynewt/stm32bluepill-mynewt-sensor/src/listen_sensor.rs:50
    let sensor = unsafe { sensor::sensor_mgr_find_next_bydevname(SENSOR_DEVICE, null_sensor()) };
  84:	f7ff fffe 	bl	0 <null_sensor>
  88:	4601      	mov	r1, r0
  8a:	f240 0000 	movw	r0, #0
  8e:	f2c0 0000 	movt	r0, #0
  92:	f7ff fffe 	bl	0 <sensor_mgr_find_next_bydevname>
  96:	4604      	mov	r4, r0
/Users/Luppy/mynewt/stm32bluepill-mynewt-sensor/src/listen_sensor.rs:51
    assert!(unsafe{ !is_null_sensor(sensor) });
  98:	f7ff fffe 	bl	0 <is_null_sensor>
  9c:	2800      	cmp	r0, #0
  9e:	d16a      	bne.n	176 <main+0x176>
_ZN5mylib6mynewt2hw6sensor17register_listener17h511589f5c8e90cc2E():
/Users/Luppy/mynewt/stm32bluepill-mynewt-sensor/src/mynewt/hw/sensor.rs:66
    unsafe { assert!(LISTENER_INTERNAL.sl_sensor_type == 0) };  //  Make sure it's not used.
  a0:	f240 0100 	movw	r1, #0
  a4:	f2c0 0100 	movt	r1, #0
  a8:	e9d1 0200 	ldrd	r0, r2, [r1]
  ac:	4310      	orrs	r0, r2
  ae:	d169      	bne.n	184 <main+0x184>
/Users/Luppy/mynewt/stm32bluepill-mynewt-sensor/src/mynewt/hw/sensor.rs:68
    unsafe { LISTENER_INTERNAL = listener };
  b0:	f240 0300 	movw	r3, #0
  b4:	2000      	movs	r0, #0
  b6:	f04f 6280 	mov.w	r2, #67108864	; 0x4000000
  ba:	f04f 0c01 	mov.w	ip, #1
  be:	f2c0 0300 	movt	r3, #0
  c2:	e9c1 2000 	strd	r2, r0, [r1]
  c6:	e9c1 3c02 	strd	r3, ip, [r1, #8]
  ca:	6108      	str	r0, [r1, #16]
/Users/Luppy/mynewt/stm32bluepill-mynewt-sensor/src/mynewt/hw/sensor.rs:70
    unsafe { sensor_register_listener(sensor, &mut LISTENER_INTERNAL) };
  cc:	4620      	mov	r0, r4
  ce:	f7ff fffe 	bl	0 <sensor_register_listener>
main():
/Users/Luppy/mynewt/stm32bluepill-mynewt-sensor/src/lib.rs:55

    //  Main event loop
    loop {                            //  Loop forever...
        unsafe {
            os::os_eventq_run(            //  Process events...
                os::os_eventq_dflt_get()  //  From default event queue.
  d2:	f7ff fffe 	bl	0 <os_eventq_dflt_get>
/Users/Luppy/mynewt/stm32bluepill-mynewt-sensor/src/lib.rs:54
            os::os_eventq_run(            //  Process events...
  d6:	f7ff fffe 	bl	0 <os_eventq_run>
/Users/Luppy/mynewt/stm32bluepill-mynewt-sensor/src/lib.rs:52
    loop {                            //  Loop forever...
  da:	e7fa      	b.n	d2 <main+0xd2>
  dc:	a809      	add	r0, sp, #36	; 0x24
_ZN5mylib9send_coap18start_network_task17hc2b103d08831d841E():
/Users/Luppy/mynewt/stm32bluepill-mynewt-sensor/src/send_coap.rs:132
  de:	9010      	str	r0, [sp, #64]	; 0x40
  e0:	f240 0000 	movw	r0, #0
  e4:	a911      	add	r1, sp, #68	; 0x44
  e6:	f2c0 0000 	movt	r0, #0
  ea:	9008      	str	r0, [sp, #32]
  ec:	e9cd 0106 	strd	r0, r1, [sp, #24]
  f0:	a810      	add	r0, sp, #64	; 0x40
  f2:	9005      	str	r0, [sp, #20]
  f4:	f240 0000 	movw	r0, #0
  f8:	f2c0 0000 	movt	r0, #0
  fc:	f240 0100 	movw	r1, #0
 100:	9011      	str	r0, [sp, #68]	; 0x44
 102:	2002      	movs	r0, #2
_ZN4core3fmt9Arguments6new_v117ha99294a9defa432aE():
/rustc/50a0defd5a93523067ef239936cc2e0755220904/src/libcore/fmt/mod.rs:316
 104:	900f      	str	r0, [sp, #60]	; 0x3c
 106:	a805      	add	r0, sp, #20
 108:	900e      	str	r0, [sp, #56]	; 0x38
 10a:	2003      	movs	r0, #3
 10c:	e9cd 440c 	strd	r4, r4, [sp, #48]	; 0x30
_ZN5mylib9send_coap18start_network_task17hc2b103d08831d841E():
/Users/Luppy/mynewt/stm32bluepill-mynewt-sensor/src/send_coap.rs:132
 110:	f2c0 0100 	movt	r1, #0
_ZN4core3fmt9Arguments6new_v117ha99294a9defa432aE():
/rustc/50a0defd5a93523067ef239936cc2e0755220904/src/libcore/fmt/mod.rs:316
 114:	900b      	str	r0, [sp, #44]	; 0x2c
 116:	f240 0000 	movw	r0, #0
 11a:	f2c0 0000 	movt	r0, #0
 11e:	900a      	str	r0, [sp, #40]	; 0x28
 120:	a80a      	add	r0, sp, #40	; 0x28
_ZN5mylib9send_coap18start_network_task17hc2b103d08831d841E():
/Users/Luppy/mynewt/stm32bluepill-mynewt-sensor/src/send_coap.rs:132
 122:	f7ff fffe 	bl	0 <_ZN4core9panicking9panic_fmt17h6b4d8e87b0965449E>
 126:	defe      	udf	#254	; 0xfe
main():
 128:	a809      	add	r0, sp, #36	; 0x24
_ZN5mylib13listen_sensor21start_sensor_listener17hfcf71c32ce96e6e5E():
/Users/Luppy/mynewt/stm32bluepill-mynewt-sensor/src/listen_sensor.rs:47
    assert_eq!(rc, 0);
 12a:	9010      	str	r0, [sp, #64]	; 0x40
 12c:	f240 0000 	movw	r0, #0
 130:	a911      	add	r1, sp, #68	; 0x44
 132:	f2c0 0000 	movt	r0, #0
 136:	9008      	str	r0, [sp, #32]
 138:	e9cd 0106 	strd	r0, r1, [sp, #24]
 13c:	a810      	add	r0, sp, #64	; 0x40
 13e:	9005      	str	r0, [sp, #20]
 140:	f240 0000 	movw	r0, #0
 144:	f2c0 0000 	movt	r0, #0
 148:	f240 0100 	movw	r1, #0
 14c:	9011      	str	r0, [sp, #68]	; 0x44
 14e:	2002      	movs	r0, #2
_ZN4core3fmt9Arguments6new_v117ha99294a9defa432aE():
/rustc/50a0defd5a93523067ef239936cc2e0755220904/src/libcore/fmt/mod.rs:316
 150:	900f      	str	r0, [sp, #60]	; 0x3c
 152:	a805      	add	r0, sp, #20
 154:	900e      	str	r0, [sp, #56]	; 0x38
 156:	2000      	movs	r0, #0
 158:	e9cd 000c 	strd	r0, r0, [sp, #48]	; 0x30
 15c:	2003      	movs	r0, #3
 15e:	900b      	str	r0, [sp, #44]	; 0x2c
 160:	f240 0000 	movw	r0, #0
 164:	f2c0 0000 	movt	r0, #0
_ZN5mylib13listen_sensor21start_sensor_listener17hfcf71c32ce96e6e5E():
/Users/Luppy/mynewt/stm32bluepill-mynewt-sensor/src/listen_sensor.rs:47
 168:	f2c0 0100 	movt	r1, #0
_ZN4core3fmt9Arguments6new_v117ha99294a9defa432aE():
/rustc/50a0defd5a93523067ef239936cc2e0755220904/src/libcore/fmt/mod.rs:316
 16c:	900a      	str	r0, [sp, #40]	; 0x28
 16e:	a80a      	add	r0, sp, #40	; 0x28
_ZN5mylib13listen_sensor21start_sensor_listener17hfcf71c32ce96e6e5E():
/Users/Luppy/mynewt/stm32bluepill-mynewt-sensor/src/listen_sensor.rs:47
 170:	f7ff fffe 	bl	0 <_ZN4core9panicking9panic_fmt17h6b4d8e87b0965449E>
 174:	defe      	udf	#254	; 0xfe
/Users/Luppy/mynewt/stm32bluepill-mynewt-sensor/src/listen_sensor.rs:51
    assert!(unsafe{ !is_null_sensor(sensor) });
 176:	f240 0000 	movw	r0, #0
 17a:	f2c0 0000 	movt	r0, #0
 17e:	f7ff fffe 	bl	0 <_ZN4core9panicking5panic17h53ca63c6ac6312f8E>
 182:	defe      	udf	#254	; 0xfe
_ZN5mylib6mynewt2hw6sensor17register_listener17h511589f5c8e90cc2E():
/Users/Luppy/mynewt/stm32bluepill-mynewt-sensor/src/mynewt/hw/sensor.rs:66
    unsafe { assert!(LISTENER_INTERNAL.sl_sensor_type == 0) };  //  Make sure it's not used.
 184:	f240 0000 	movw	r0, #0
 188:	f2c0 0000 	movt	r0, #0
 18c:	f7ff fffe 	bl	0 <_ZN4core9panicking5panic17h53ca63c6ac6312f8E>
 190:	defe      	udf	#254	; 0xfe

Disassembly of section .text.rust_begin_unwind:

00000000 <rust_begin_unwind>:
rust_begin_unwind():
/Users/Luppy/mynewt/stm32bluepill-mynewt-sensor/src/lib.rs:66

///  This function is called on panic, like an assertion failure. We display the filename and line number and pause in the debugger. From https://os.phil-opp.com/freestanding-rust-binary/
#[panic_handler]
fn panic(info: &PanicInfo) -> ! {
    //  Display the filename and line number to the Semihosting Console.
    if let Some(location) = info.location() {
   0:	f7ff fffe 	bl	0 <_ZN4core5panic9PanicInfo8location17h5226165d8771f8a2E>
   4:	b338      	cbz	r0, 56 <rust_begin_unwind+0x56>
   6:	4604      	mov	r4, r0
/Users/Luppy/mynewt/stm32bluepill-mynewt-sensor/src/lib.rs:67
        let file = location.file();
   8:	f7ff fffe 	bl	0 <_ZN4core5panic8Location4file17h94cc6af18de736c4E>
   c:	4605      	mov	r5, r0
/Users/Luppy/mynewt/stm32bluepill-mynewt-sensor/src/lib.rs:68
        let line = location.line();
   e:	4620      	mov	r0, r4
/Users/Luppy/mynewt/stm32bluepill-mynewt-sensor/src/lib.rs:67
        let file = location.file();
  10:	460e      	mov	r6, r1
/Users/Luppy/mynewt/stm32bluepill-mynewt-sensor/src/lib.rs:68
        let line = location.line();
  12:	f7ff fffe 	bl	0 <_ZN4core5panic8Location4line17h3ffc63f14d0a6636E>
  16:	4604      	mov	r4, r0
_ZN5mylib4base13console_print17h6486f646aedc2f70E():
/Users/Luppy/mynewt/stm32bluepill-mynewt-sensor/src/base.rs:18
        console_buffer(msg.as_ptr(), len as u32);
  18:	f240 0000 	movw	r0, #0
  1c:	f2c0 0000 	movt	r0, #0
  20:	2109      	movs	r1, #9
  22:	f7ff fffe 	bl	0 <console_buffer>
/Users/Luppy/mynewt/stm32bluepill-mynewt-sensor/src/base.rs:19
        console_flush();  //  TODO: Remove this.
  26:	f7ff fffe 	bl	0 <console_flush>
rust_begin_unwind():
/Users/Luppy/mynewt/stm32bluepill-mynewt-sensor/src/lib.rs:70
        console_print(b"panic at ");
        unsafe { console_buffer(file.as_ptr(), file.len() as u32) }
  2a:	4628      	mov	r0, r5
  2c:	4631      	mov	r1, r6
  2e:	f7ff fffe 	bl	0 <console_buffer>
_ZN5mylib4base13console_print17h6486f646aedc2f70E():
/Users/Luppy/mynewt/stm32bluepill-mynewt-sensor/src/base.rs:18
        console_buffer(msg.as_ptr(), len as u32);
  32:	f240 0000 	movw	r0, #0
  36:	2108      	movs	r1, #8
  38:	f2c0 0000 	movt	r0, #0
  3c:	f7ff fffe 	bl	0 <console_buffer>
/Users/Luppy/mynewt/stm32bluepill-mynewt-sensor/src/base.rs:19
        console_flush();  //  TODO: Remove this.
  40:	f7ff fffe 	bl	0 <console_flush>
rust_begin_unwind():
/Users/Luppy/mynewt/stm32bluepill-mynewt-sensor/src/lib.rs:72
        console_print(b" line 0x");
        unsafe { console_printhex(line as u8) }  //  TODO: Print in decimal not hex. Allow more than 255 lines.
  44:	b2e0      	uxtb	r0, r4
  46:	f7ff fffe 	bl	0 <console_printhex>
_ZN5mylib4base13console_print17h6486f646aedc2f70E():
/Users/Luppy/mynewt/stm32bluepill-mynewt-sensor/src/base.rs:18
        console_buffer(msg.as_ptr(), len as u32);
  4a:	f240 0000 	movw	r0, #0
  4e:	2101      	movs	r1, #1
  50:	f2c0 0000 	movt	r0, #0
  54:	e004      	b.n	c <rust_begin_unwind+0xc>
  56:	f240 0000 	movw	r0, #0
  5a:	2112      	movs	r1, #18
  5c:	f2c0 0000 	movt	r0, #0
rust_begin_unwind():
  60:	f7ff fffe 	bl	0 <console_buffer>
  64:	f7ff fffe 	bl	0 <console_flush>
  68:	f7ff fffe 	bl	0 <console_flush>
_ZN8cortex_m3asm4bkpt17h756c5667fd4cf09cE():
/Users/Luppy/.cargo/registry/src/github.com-1ecc6299db9ec823/cortex-m-0.6.0/src/asm.rs:19
        () => unsafe {
            extern "C" {
                fn __bkpt();
            }

            __bkpt();
  6c:	f7ff fffe 	bl	0 <__bkpt>
rust_begin_unwind():
/Users/Luppy/mynewt/stm32bluepill-mynewt-sensor/src/lib.rs:82
        unsafe { console_flush() }
    }
    //  Pause in the debugger.
    bkpt();
    //  Loop forever so that device won't restart.
    loop {}
  70:	e7fe      	b.n	70 <rust_begin_unwind+0x70>

Disassembly of section .text._ZN85_$LT$mylib..mynewt..encoding..json_context..JsonError$u20$as$u20$core..fmt..Debug$GT$3fmt17h02045c24b189eb9fE:

00000000 <_ZN85_$LT$mylib..mynewt..encoding..json_context..JsonError$u20$as$u20$core..fmt..Debug$GT$3fmt17h02045c24b189eb9fE>:
_ZN85_$LT$mylib..mynewt..encoding..json_context..JsonError$u20$as$u20$core..fmt..Debug$GT$3fmt17h02045c24b189eb9fE():
/Users/Luppy/mynewt/stm32bluepill-mynewt-sensor/src/mynewt/encoding/json_context.rs:88
#[derive(Debug, PartialEq)]
   0:	b510      	push	{r4, lr}
   2:	b084      	sub	sp, #16
   4:	7800      	ldrb	r0, [r0, #0]
   6:	ac01      	add	r4, sp, #4
   8:	2801      	cmp	r0, #1
   a:	d106      	bne.n	1a <_ZN85_$LT$mylib..mynewt..encoding..json_context..JsonError$u20$as$u20$core..fmt..Debug$GT$3fmt17h02045c24b189eb9fE+0x1a>
   c:	f240 0200 	movw	r2, #0
  10:	4620      	mov	r0, r4
  12:	f2c0 0200 	movt	r2, #0
  16:	230e      	movs	r3, #14
  18:	e005      	b.n	26 <_ZN85_$LT$mylib..mynewt..encoding..json_context..JsonError$u20$as$u20$core..fmt..Debug$GT$3fmt17h02045c24b189eb9fE+0x26>
  1a:	f240 0200 	movw	r2, #0
  1e:	4620      	mov	r0, r4
  20:	f2c0 0200 	movt	r2, #0
  24:	2302      	movs	r3, #2
  26:	f7ff fffe 	bl	0 <_ZN4core3fmt9Formatter11debug_tuple17h793087e8ecab9022E>
  2a:	4620      	mov	r0, r4
  2c:	f7ff fffe 	bl	0 <_ZN4core3fmt8builders10DebugTuple6finish17h24d91625b3672e6dE>
  30:	b004      	add	sp, #16
  32:	bd10      	pop	{r4, pc}

Disassembly of section .text._ZN71_$LT$mylib..mynewt..result..MynewtError$u20$as$u20$core..fmt..Debug$GT$3fmt17h79a8899db0271e45E:

00000000 <_ZN71_$LT$mylib..mynewt..result..MynewtError$u20$as$u20$core..fmt..Debug$GT$3fmt17h79a8899db0271e45E>:
_ZN71_$LT$mylib..mynewt..result..MynewtError$u20$as$u20$core..fmt..Debug$GT$3fmt17h79a8899db0271e45E():
/Users/Luppy/mynewt/stm32bluepill-mynewt-sensor/src/mynewt.rs:30
    #[derive(Debug, PartialEq)]
   0:	b510      	push	{r4, lr}
   2:	b084      	sub	sp, #16
   4:	6802      	ldr	r2, [r0, #0]
   6:	f102 000f 	add.w	r0, r2, #15
   a:	280e      	cmp	r0, #14
   c:	d80f      	bhi.n	2e <_ZN71_$LT$mylib..mynewt..result..MynewtError$u20$as$u20$core..fmt..Debug$GT$3fmt17h79a8899db0271e45E+0x2e>
   e:	e8df f000 	tbb	[pc, r0]
  12:	1908      	.short	0x1908
  14:	352f2721 	.word	0x352f2721
  18:	4f49413b 	.word	0x4f49413b
  1c:	69615b55 	.word	0x69615b55
  20:	006f      	.short	0x006f
  22:	f240 0200 	movw	r2, #0
  26:	ac01      	add	r4, sp, #4
  28:	f2c0 0200 	movt	r2, #0
  2c:	e037      	b.n	9e <_ZN71_$LT$mylib..mynewt..result..MynewtError$u20$as$u20$core..fmt..Debug$GT$3fmt17h79a8899db0271e45E+0x9e>
  2e:	2001      	movs	r0, #1
  30:	ac01      	add	r4, sp, #4
  32:	f6cf 70ff 	movt	r0, #65535	; 0xffff
  36:	4282      	cmp	r2, r0
  38:	d162      	bne.n	100 <_ZN71_$LT$mylib..mynewt..result..MynewtError$u20$as$u20$core..fmt..Debug$GT$3fmt17h79a8899db0271e45E+0x100>
  3a:	f240 0200 	movw	r2, #0
  3e:	f2c0 0200 	movt	r2, #0
  42:	e04c      	b.n	de <_ZN71_$LT$mylib..mynewt..result..MynewtError$u20$as$u20$core..fmt..Debug$GT$3fmt17h79a8899db0271e45E+0xde>
  44:	ac01      	add	r4, sp, #4
  46:	f240 0200 	movw	r2, #0
  4a:	f2c0 0200 	movt	r2, #0
  4e:	230d      	movs	r3, #13
  50:	4620      	mov	r0, r4
  52:	e05b      	b.n	10c <_ZN71_$LT$mylib..mynewt..result..MynewtError$u20$as$u20$core..fmt..Debug$GT$3fmt17h79a8899db0271e45E+0x10c>
  54:	f240 0200 	movw	r2, #0
  58:	ac01      	add	r4, sp, #4
  5a:	f2c0 0200 	movt	r2, #0
  5e:	e03e      	b.n	de <_ZN71_$LT$mylib..mynewt..result..MynewtError$u20$as$u20$core..fmt..Debug$GT$3fmt17h79a8899db0271e45E+0xde>
  60:	ac01      	add	r4, sp, #4
  62:	f240 0200 	movw	r2, #0
  66:	f2c0 0200 	movt	r2, #0
  6a:	230b      	movs	r3, #11
  6c:	4620      	mov	r0, r4
  6e:	e04d      	b.n	10c <_ZN71_$LT$mylib..mynewt..result..MynewtError$u20$as$u20$core..fmt..Debug$GT$3fmt17h79a8899db0271e45E+0x10c>
  70:	f240 0200 	movw	r2, #0
  74:	ac01      	add	r4, sp, #4
  76:	f2c0 0200 	movt	r2, #0
  7a:	e030      	b.n	64 <_ZN71_$LT$mylib..mynewt..result..MynewtError$u20$as$u20$core..fmt..Debug$GT$3fmt17h79a8899db0271e45E+0x64>
  7c:	f240 0200 	movw	r2, #0
  80:	ac01      	add	r4, sp, #4
  82:	f2c0 0200 	movt	r2, #0
  86:	e038      	b.n	74 <_ZN71_$LT$mylib..mynewt..result..MynewtError$u20$as$u20$core..fmt..Debug$GT$3fmt17h79a8899db0271e45E+0x74>
  88:	f240 0200 	movw	r2, #0
  8c:	ac01      	add	r4, sp, #4
  8e:	f2c0 0200 	movt	r2, #0
  92:	e032      	b.n	68 <_ZN71_$LT$mylib..mynewt..result..MynewtError$u20$as$u20$core..fmt..Debug$GT$3fmt17h79a8899db0271e45E+0x68>
  94:	f240 0200 	movw	r2, #0
  98:	ac01      	add	r4, sp, #4
  9a:	f2c0 0200 	movt	r2, #0
  9e:	4620      	mov	r0, r4
  a0:	2309      	movs	r3, #9
  a2:	e033      	b.n	10c <_ZN71_$LT$mylib..mynewt..result..MynewtError$u20$as$u20$core..fmt..Debug$GT$3fmt17h79a8899db0271e45E+0x10c>
  a4:	f240 0200 	movw	r2, #0
  a8:	ac01      	add	r4, sp, #4
  aa:	f2c0 0200 	movt	r2, #0
  ae:	e024      	b.n	4c <_ZN71_$LT$mylib..mynewt..result..MynewtError$u20$as$u20$core..fmt..Debug$GT$3fmt17h79a8899db0271e45E+0x4c>
  b0:	f240 0200 	movw	r2, #0
  b4:	ac01      	add	r4, sp, #4
  b6:	f2c0 0200 	movt	r2, #0
  ba:	e01e      	b.n	40 <_ZN71_$LT$mylib..mynewt..result..MynewtError$u20$as$u20$core..fmt..Debug$GT$3fmt17h79a8899db0271e45E+0x40>
  bc:	f240 0200 	movw	r2, #0
  c0:	ac01      	add	r4, sp, #4
  c2:	f2c0 0200 	movt	r2, #0
  c6:	e01f      	b.n	42 <_ZN71_$LT$mylib..mynewt..result..MynewtError$u20$as$u20$core..fmt..Debug$GT$3fmt17h79a8899db0271e45E+0x42>
  c8:	f240 0200 	movw	r2, #0
  cc:	ac01      	add	r4, sp, #4
  ce:	f2c0 0200 	movt	r2, #0
  d2:	e012      	b.n	28 <_ZN71_$LT$mylib..mynewt..result..MynewtError$u20$as$u20$core..fmt..Debug$GT$3fmt17h79a8899db0271e45E+0x28>
  d4:	f240 0200 	movw	r2, #0
  d8:	ac01      	add	r4, sp, #4
  da:	f2c0 0200 	movt	r2, #0
  de:	4620      	mov	r0, r4
  e0:	230c      	movs	r3, #12
  e2:	e013      	b.n	10c <_ZN71_$LT$mylib..mynewt..result..MynewtError$u20$as$u20$core..fmt..Debug$GT$3fmt17h79a8899db0271e45E+0x10c>
  e4:	f240 0200 	movw	r2, #0
  e8:	ac01      	add	r4, sp, #4
  ea:	f2c0 0200 	movt	r2, #0
  ee:	e004      	b.n	c <_ZN71_$LT$mylib..mynewt..result..MynewtError$u20$as$u20$core..fmt..Debug$GT$3fmt17h79a8899db0271e45E+0xc>
  f0:	f240 0200 	movw	r2, #0
  f4:	ac01      	add	r4, sp, #4
  f6:	f2c0 0200 	movt	r2, #0
  fa:	4620      	mov	r0, r4
  fc:	230a      	movs	r3, #10
  fe:	e005      	b.n	10c <_ZN71_$LT$mylib..mynewt..result..MynewtError$u20$as$u20$core..fmt..Debug$GT$3fmt17h79a8899db0271e45E+0x10c>
 100:	f240 0200 	movw	r2, #0
 104:	f2c0 0200 	movt	r2, #0
 108:	4620      	mov	r0, r4
 10a:	2307      	movs	r3, #7
 10c:	f7ff fffe 	bl	0 <_ZN4core3fmt9Formatter11debug_tuple17h793087e8ecab9022E>
 110:	4620      	mov	r0, r4
 112:	f7ff fffe 	bl	0 <_ZN4core3fmt8builders10DebugTuple6finish17h24d91625b3672e6dE>
 116:	b004      	add	sp, #16
 118:	bd10      	pop	{r4, pc}
arm-none-eabi-objdump: rust.metadata.bin: File format not recognized
arm-none-eabi-objdump: mylib-3c348a03a6a4b9f1.mylib.4yqbpuee-cgu.0.rcgu.bc.z: File format not recognized
