In archive target/thumbv7m-none-eabi/debug/libmylib.rlib:

mylib-01c8eb6571dba957.12y5xoizfzc3imbb.rcgu.o:     file format elf32-littlearm

SYMBOL TABLE:
00000000 l    df *ABS*	00000000 12y5xoizfzc3imbb
00000000 l       .debug_str	00000000 
00000039 l       .debug_str	00000000 
00000044 l       .debug_str	00000000 
00000067 l       .debug_str	00000000 
0000006d l       .debug_str	00000000 
0000007b l       .debug_str	00000000 
00000084 l       .debug_str	00000000 
0000008b l       .debug_str	00000000 
0000009a l       .debug_str	00000000 
0000009e l       .debug_str	00000000 
000000a6 l       .debug_str	00000000 
000000aa l       .debug_str	00000000 
000000ae l       .debug_str	00000000 
000000b8 l       .debug_str	00000000 
000000c2 l       .debug_str	00000000 
000000c8 l       .debug_str	00000000 
000000e4 l       .debug_str	00000000 
0000013d l       .debug_str	00000000 
00000144 l       .debug_str	00000000 
0000014c l       .debug_str	00000000 
0000015b l       .debug_str	00000000 
00000191 l       .debug_str	00000000 
000001d5 l       .debug_str	00000000 
000001eb l       .debug_str	00000000 
0000022a l       .debug_str	00000000 
0000023b l       .debug_str	00000000 
00000279 l       .debug_str	00000000 
00000289 l       .debug_str	00000000 
0000028e l       .debug_str	00000000 
00000292 l       .debug_str	00000000 
00000295 l       .debug_str	00000000 
0000029f l       .debug_str	00000000 
000002a8 l       .debug_str	00000000 
000002b0 l       .debug_str	00000000 
000002b4 l       .debug_str	00000000 
000002be l       .debug_str	00000000 
000002c2 l       .debug_str	00000000 
000002ce l       .debug_str	00000000 
000002d1 l       .debug_str	00000000 
000002d6 l       .debug_str	00000000 
000002e2 l       .debug_str	00000000 
000002ee l       .debug_str	00000000 
000002f5 l       .debug_str	00000000 
000002fb l       .debug_str	00000000 
00000307 l       .debug_str	00000000 
00000311 l       .debug_str	00000000 
00000317 l       .debug_str	00000000 
0000032b l       .debug_str	00000000 
00000330 l       .debug_str	00000000 
00000341 l       .debug_str	00000000 
00000353 l       .debug_str	00000000 
00000360 l       .debug_str	00000000 
0000036c l       .debug_str	00000000 
0000037a l       .debug_str	00000000 
00000391 l       .debug_str	00000000 
000003a3 l       .debug_str	00000000 
000003c3 l       .debug_str	00000000 
000003cc l       .debug_str	00000000 
000003d5 l       .debug_str	00000000 
000003e7 l       .debug_str	00000000 
00000000 l     O .rodata..Lanon.c4007478d13b65e86f597003733140aa.0	0000000a .Lanon.c4007478d13b65e86f597003733140aa.0
00000000 l     O .rodata..Lanon.c4007478d13b65e86f597003733140aa.1	0000000d .Lanon.c4007478d13b65e86f597003733140aa.1
00000000 l     O .rodata..Lanon.c4007478d13b65e86f597003733140aa.10	00000018 .Lanon.c4007478d13b65e86f597003733140aa.10
00000000 l     O .rodata..Lanon.c4007478d13b65e86f597003733140aa.12	00000018 .Lanon.c4007478d13b65e86f597003733140aa.12
00000000 l     O .rodata..Lanon.c4007478d13b65e86f597003733140aa.13	00000016 .Lanon.c4007478d13b65e86f597003733140aa.13
00000000 l     O .rodata..Lanon.c4007478d13b65e86f597003733140aa.14	00000018 .Lanon.c4007478d13b65e86f597003733140aa.14
00000000 l     O .rodata..Lanon.c4007478d13b65e86f597003733140aa.15	00000001 .Lanon.c4007478d13b65e86f597003733140aa.15
00000000 l     O .rodata..Lanon.c4007478d13b65e86f597003733140aa.16	00000018 .Lanon.c4007478d13b65e86f597003733140aa.16
00000000 l     O .rodata..Lanon.c4007478d13b65e86f597003733140aa.17	00000018 .Lanon.c4007478d13b65e86f597003733140aa.17
00000000 l     O .rodata..Lanon.c4007478d13b65e86f597003733140aa.18	00000019 .Lanon.c4007478d13b65e86f597003733140aa.18
00000000 l     O .rodata..Lanon.c4007478d13b65e86f597003733140aa.19	00000002 .Lanon.c4007478d13b65e86f597003733140aa.19
00000000 l     O .rodata..Lanon.c4007478d13b65e86f597003733140aa.4	00000018 .Lanon.c4007478d13b65e86f597003733140aa.4
00000000 l     O .rodata..Lanon.c4007478d13b65e86f597003733140aa.6	00000018 .Lanon.c4007478d13b65e86f597003733140aa.6
00000000 l     O .rodata..Lanon.c4007478d13b65e86f597003733140aa.7	00000018 .Lanon.c4007478d13b65e86f597003733140aa.7
00000000 l     O .rodata..Lanon.c4007478d13b65e86f597003733140aa.8	00000011 .Lanon.c4007478d13b65e86f597003733140aa.8
00000000 l     F .text._ZN5mylib13listen_sensor15get_temperature17h41b7510716f6c54fE	0000014c mylib::listen_sensor::get_temperature
00000000 l     F .text._ZN5mylib13listen_sensor16read_temperature17h91f32fcdcad90405E	00000120 mylib::listen_sensor::read_temperature
00000000 l     O .rodata._ZN5mylib13listen_sensor8LISTENER17h9abcd78aa272b11cE	00000018 mylib::listen_sensor::LISTENER
00000000 l    d  .text._ZN5mylib13listen_sensor21start_sensor_listener17hfc870be3f3518a85E	00000000 .text._ZN5mylib13listen_sensor21start_sensor_listener17hfc870be3f3518a85E
00000000 l    d  .text._ZN5mylib13listen_sensor16read_temperature17h91f32fcdcad90405E	00000000 .text._ZN5mylib13listen_sensor16read_temperature17h91f32fcdcad90405E
00000000 l    d  .text._ZN5mylib13listen_sensor15get_temperature17h41b7510716f6c54fE	00000000 .text._ZN5mylib13listen_sensor15get_temperature17h41b7510716f6c54fE
00000000 l    d  .rodata._ZN5mylib13listen_sensor8LISTENER17h9abcd78aa272b11cE	00000000 .rodata._ZN5mylib13listen_sensor8LISTENER17h9abcd78aa272b11cE
00000000 l    d  .rodata..Lanon.c4007478d13b65e86f597003733140aa.2	00000000 .rodata..Lanon.c4007478d13b65e86f597003733140aa.2
00000000 l    d  .rodata..Lanon.c4007478d13b65e86f597003733140aa.3	00000000 .rodata..Lanon.c4007478d13b65e86f597003733140aa.3
00000000 l    d  .rodata..Lanon.c4007478d13b65e86f597003733140aa.5	00000000 .rodata..Lanon.c4007478d13b65e86f597003733140aa.5
00000000 l    d  .rodata..Lanon.c4007478d13b65e86f597003733140aa.9	00000000 .rodata..Lanon.c4007478d13b65e86f597003733140aa.9
00000000 l    d  .rodata..Lanon.c4007478d13b65e86f597003733140aa.11	00000000 .rodata..Lanon.c4007478d13b65e86f597003733140aa.11
00000000 l    d  .debug_abbrev	00000000 .debug_abbrev
00000000 l    d  .debug_info	00000000 .debug_info
00000000 l    d  .debug_ranges	00000000 .debug_ranges
00000000 l    d  .debug_frame	00000000 .debug_frame
00000000 l    d  .debug_line	00000000 .debug_line
00000000         *UND*	00000000 core::slice::<impl [T]>::as_ptr
00000000         *UND*	00000000 core::panicking::panic
00000000 g     F .text._ZN5mylib13listen_sensor21start_sensor_listener17hfc870be3f3518a85E	000000a8 .hidden mylib::listen_sensor::start_sensor_listener
00000000         *UND*	00000000 .hidden mylib::base::console_print
00000000         *UND*	00000000 .hidden mylib::sensor::register_listener
00000000         *UND*	00000000 .hidden mylib::send_coap::send_sensor_data
00000000         *UND*	00000000 cstr_core::CStr::from_ptr
00000000         *UND*	00000000 device_get_name
00000000         *UND*	00000000 get_temp_data
00000000         *UND*	00000000 get_temp_raw_data
00000000         *UND*	00000000 is_null_sensor
00000000         *UND*	00000000 is_null_sensor_data
00000000         *UND*	00000000 null_sensor
00000000         *UND*	00000000 sensor_get_device
00000000         *UND*	00000000 sensor_mgr_find_next_bydevname
00000000         *UND*	00000000 sensor_set_poll_rate_ms



Disassembly of section .text._ZN5mylib13listen_sensor21start_sensor_listener17hfc870be3f3518a85E:

00000000 <mylib::listen_sensor::start_sensor_listener>:
_ZN5mylib13listen_sensor21start_sensor_listener17hfc870be3f3518a85E():
/mnt/c/stm32bluepill-mynewt-sensor/src/listen_sensor.rs:38
///  Listener Function to send the sensor data to the Collector Node (if this is a Sensor Node)
///  or CoAP Server (is this is a Standalone Node).
///  For Collector Node: Start the Listeners for Remote Sensor 
///  Otherwise this is a Standalone Node with ESP8266, or a Sensor Node with nRF24L01.
///  Return 0 if successful.
pub fn start_sensor_listener() -> i32 {
   0:	b580      	push	{r7, lr}
   2:	b086      	sub	sp, #24
/mnt/c/stm32bluepill-mynewt-sensor/src/listen_sensor.rs:39
    console_print(b"TMP poll \n");  //  SENSOR_DEVICE "\n";
   4:	f240 0000 	movw	r0, #0
   8:	f2c0 0000 	movt	r0, #0
   c:	210a      	movs	r1, #10
   e:	f7ff fffe 	bl	0 <mylib::base::console_print>
  12:	e7ff      	b.n	2 <mylib::listen_sensor::start_sensor_listener+0x2>
/mnt/c/stm32bluepill-mynewt-sensor/src/listen_sensor.rs:42

    //  Set the sensor polling time to 10 seconds.  SENSOR_DEVICE is either "bme280_0" or "temp_stm32_0"
    let rc = unsafe { sensor_set_poll_rate_ms(SENSOR_DEVICE, SENSOR_POLL_TIME) };
  14:	f240 0000 	movw	r0, #0
  18:	f2c0 0000 	movt	r0, #0
  1c:	f242 7110 	movw	r1, #10000	; 0x2710
  20:	f7ff fffe 	bl	0 <sensor_set_poll_rate_ms>
  24:	9003      	str	r0, [sp, #12]
  26:	e7ff      	b.n	28 <mylib::listen_sensor::start_sensor_listener+0x28>
/mnt/c/stm32bluepill-mynewt-sensor/src/listen_sensor.rs:43
    assert!(rc == 0);
  28:	9803      	ldr	r0, [sp, #12]
  2a:	2800      	cmp	r0, #0
  2c:	d007      	beq.n	3e <mylib::listen_sensor::start_sensor_listener+0x3e>
  2e:	e7ff      	b.n	30 <mylib::listen_sensor::start_sensor_listener+0x30>
  30:	f240 0000 	movw	r0, #0
  34:	f2c0 0000 	movt	r0, #0
  38:	f7ff fffe 	bl	0 <core::panicking::panic>
  3c:	defe      	udf	#254	; 0xfe
/mnt/c/stm32bluepill-mynewt-sensor/src/listen_sensor.rs:46

    //  Fetch the sensor by name, without locking the driver for exclusive access.
    let listen_sensor = unsafe { sensor_mgr_find_next_bydevname(SENSOR_DEVICE, null_sensor()) };
  3e:	f7ff fffe 	bl	0 <null_sensor>
  42:	9002      	str	r0, [sp, #8]
  44:	e7ff      	b.n	46 <mylib::listen_sensor::start_sensor_listener+0x46>
  46:	f240 0000 	movw	r0, #0
  4a:	f2c0 0000 	movt	r0, #0
  4e:	9902      	ldr	r1, [sp, #8]
  50:	f7ff fffe 	bl	0 <sensor_mgr_find_next_bydevname>
  54:	9004      	str	r0, [sp, #16]
  56:	e7ff      	b.n	58 <mylib::listen_sensor::start_sensor_listener+0x58>
/mnt/c/stm32bluepill-mynewt-sensor/src/listen_sensor.rs:47
    assert!(!unsafe{ is_null_sensor(listen_sensor) });
  58:	9804      	ldr	r0, [sp, #16]
  5a:	f7ff fffe 	bl	0 <is_null_sensor>
  5e:	9001      	str	r0, [sp, #4]
  60:	e7ff      	b.n	62 <mylib::listen_sensor::start_sensor_listener+0x62>
  62:	9801      	ldr	r0, [sp, #4]
  64:	07c1      	lsls	r1, r0, #31
  66:	2900      	cmp	r1, #0
  68:	d007      	beq.n	7a <mylib::listen_sensor::start_sensor_listener+0x7a>
  6a:	e7ff      	b.n	6c <mylib::listen_sensor::start_sensor_listener+0x6c>
  6c:	f240 0000 	movw	r0, #0
  70:	f2c0 0000 	movt	r0, #0
  74:	f7ff fffe 	bl	0 <core::panicking::panic>
  78:	defe      	udf	#254	; 0xfe
/mnt/c/stm32bluepill-mynewt-sensor/src/listen_sensor.rs:50

    //  Set the Listener Function to be called every 10 seconds, with the polled sensor data.
    let rc = register_listener(listen_sensor, &LISTENER);
  7a:	9804      	ldr	r0, [sp, #16]
  7c:	f240 0100 	movw	r1, #0
  80:	f2c0 0100 	movt	r1, #0
  84:	f7ff fffe 	bl	0 <mylib::sensor::register_listener>
  88:	9005      	str	r0, [sp, #20]
  8a:	e7ff      	b.n	8c <mylib::listen_sensor::start_sensor_listener+0x8c>
/mnt/c/stm32bluepill-mynewt-sensor/src/listen_sensor.rs:51
    assert!(rc == 0);
  8c:	9805      	ldr	r0, [sp, #20]
  8e:	2800      	cmp	r0, #0
  90:	d007      	beq.n	a2 <mylib::listen_sensor::start_sensor_listener+0xa2>
  92:	e7ff      	b.n	94 <mylib::listen_sensor::start_sensor_listener+0x94>
  94:	f240 0000 	movw	r0, #0
  98:	f2c0 0000 	movt	r0, #0
  9c:	f7ff fffe 	bl	0 <core::panicking::panic>
  a0:	defe      	udf	#254	; 0xfe
  a2:	2000      	movs	r0, #0
/mnt/c/stm32bluepill-mynewt-sensor/src/listen_sensor.rs:55

    //  Return 0 to indicate success.  This line should not end with a semicolon (;).
    0
}
  a4:	b006      	add	sp, #24
  a6:	bd80      	pop	{r7, pc}

Disassembly of section .text._ZN5mylib13listen_sensor16read_temperature17h91f32fcdcad90405E:

00000000 <mylib::listen_sensor::read_temperature>:
_ZN5mylib13listen_sensor16read_temperature17h91f32fcdcad90405E():
/mnt/c/stm32bluepill-mynewt-sensor/src/listen_sensor.rs:70
///  This listener function is called by Mynewt every 10 seconds (for local sensors) or when sensor data is received
///  (for Remote Sensors).  Mynewt has fetched the raw or computed temperature value, passed through `sensor_data`.
///  If this is a Sensor Node, we send the sensor data to the Collector Node.
///  If this is a Collector Node or Standalone Node, we send the sensor data to the CoAP server.  
///  Return 0 if we have processed the sensor data successfully.
extern fn read_temperature(sensor: SensorPtr, _arg: SensorArg, sensor_data: SensorDataPtr, sensor_type: SensorType) -> i32 {
   0:	b5b0      	push	{r4, r5, r7, lr}
   2:	b096      	sub	sp, #88	; 0x58
   4:	9b1b      	ldr	r3, [sp, #108]	; 0x6c
   6:	f8dd c068 	ldr.w	ip, [sp, #104]	; 0x68
   a:	4696      	mov	lr, r2
   c:	460c      	mov	r4, r1
   e:	4605      	mov	r5, r0
  10:	9007      	str	r0, [sp, #28]
  12:	9108      	str	r1, [sp, #32]
  14:	9209      	str	r2, [sp, #36]	; 0x24
  16:	930b      	str	r3, [sp, #44]	; 0x2c
  18:	f8cd c028 	str.w	ip, [sp, #40]	; 0x28
/mnt/c/stm32bluepill-mynewt-sensor/src/listen_sensor.rs:72
    unsafe {
        console_print(b"read_temperature\n");
  1c:	f240 0000 	movw	r0, #0
  20:	f2c0 0000 	movt	r0, #0
  24:	2111      	movs	r1, #17
  26:	f8cd e018 	str.w	lr, [sp, #24]
  2a:	9405      	str	r4, [sp, #20]
  2c:	9504      	str	r5, [sp, #16]
  2e:	f7ff fffe 	bl	0 <mylib::base::console_print>
  32:	e7ff      	b.n	34 <mylib::listen_sensor::read_temperature+0x34>
/mnt/c/stm32bluepill-mynewt-sensor/src/listen_sensor.rs:75
        //  Check that the temperature data is valid.
        //  TODO
        if is_null_sensor_data(sensor_data) { return SYS_EINVAL; }  //  Exit if data is missing
  34:	9809      	ldr	r0, [sp, #36]	; 0x24
  36:	f7ff fffe 	bl	0 <is_null_sensor_data>
  3a:	9003      	str	r0, [sp, #12]
  3c:	e7ff      	b.n	3e <mylib::listen_sensor::read_temperature+0x3e>
  3e:	9803      	ldr	r0, [sp, #12]
  40:	07c1      	lsls	r1, r0, #31
  42:	2900      	cmp	r1, #0
  44:	d004      	beq.n	50 <mylib::listen_sensor::read_temperature+0x50>
  46:	e7ff      	b.n	48 <mylib::listen_sensor::read_temperature+0x48>
  48:	f06f 0001 	mvn.w	r0, #1
  4c:	900c      	str	r0, [sp, #48]	; 0x30
  4e:	e004      	b.n	5a <mylib::listen_sensor::read_temperature+0x5a>
/mnt/c/stm32bluepill-mynewt-sensor/src/listen_sensor.rs:76
        assert!(!is_null_sensor(sensor));
  50:	9807      	ldr	r0, [sp, #28]
  52:	f7ff fffe 	bl	0 <is_null_sensor>
  56:	9002      	str	r0, [sp, #8]
  58:	e002      	b.n	60 <mylib::listen_sensor::read_temperature+0x60>
/mnt/c/stm32bluepill-mynewt-sensor/src/listen_sensor.rs:107
        }
        assert!(rc == 0);
        //#endif  //  MYNEWT_VAL(SENSOR_COAP)
    }
    0
}
  5a:	980c      	ldr	r0, [sp, #48]	; 0x30
  5c:	b016      	add	sp, #88	; 0x58
  5e:	bdb0      	pop	{r4, r5, r7, pc}
/mnt/c/stm32bluepill-mynewt-sensor/src/listen_sensor.rs:76
        assert!(!is_null_sensor(sensor));
  60:	9802      	ldr	r0, [sp, #8]
  62:	07c1      	lsls	r1, r0, #31
  64:	2900      	cmp	r1, #0
  66:	d007      	beq.n	78 <mylib::listen_sensor::read_temperature+0x78>
  68:	e7ff      	b.n	6a <mylib::listen_sensor::read_temperature+0x6a>
  6a:	f240 0000 	movw	r0, #0
  6e:	f2c0 0000 	movt	r0, #0
  72:	f7ff fffe 	bl	0 <core::panicking::panic>
  76:	defe      	udf	#254	; 0xfe
/mnt/c/stm32bluepill-mynewt-sensor/src/listen_sensor.rs:80
        let device = sensor_get_device(sensor);
  78:	9807      	ldr	r0, [sp, #28]
  7a:	f7ff fffe 	bl	0 <sensor_get_device>
  7e:	900d      	str	r0, [sp, #52]	; 0x34
  80:	e7ff      	b.n	82 <mylib::listen_sensor::read_temperature+0x82>
/mnt/c/stm32bluepill-mynewt-sensor/src/listen_sensor.rs:81
        let c_buf: *const c_char = device_get_name(device);
  82:	980d      	ldr	r0, [sp, #52]	; 0x34
  84:	f7ff fffe 	bl	0 <device_get_name>
  88:	900e      	str	r0, [sp, #56]	; 0x38
  8a:	e7ff      	b.n	8c <mylib::listen_sensor::read_temperature+0x8c>
/mnt/c/stm32bluepill-mynewt-sensor/src/listen_sensor.rs:82
        let device_name: &CStr = CStr::from_ptr(c_buf);
  8c:	980e      	ldr	r0, [sp, #56]	; 0x38
  8e:	f7ff fffe 	bl	0 <cstr_core::CStr::from_ptr>
  92:	9001      	str	r0, [sp, #4]
  94:	9100      	str	r1, [sp, #0]
  96:	e7ff      	b.n	98 <mylib::listen_sensor::read_temperature+0x98>
  98:	9801      	ldr	r0, [sp, #4]
  9a:	900f      	str	r0, [sp, #60]	; 0x3c
  9c:	9900      	ldr	r1, [sp, #0]
  9e:	9110      	str	r1, [sp, #64]	; 0x40
/mnt/c/stm32bluepill-mynewt-sensor/src/listen_sensor.rs:86
        let temp_sensor_value = get_temperature(sensor_data, sensor_type);
  a0:	9909      	ldr	r1, [sp, #36]	; 0x24
  a2:	9a0a      	ldr	r2, [sp, #40]	; 0x28
  a4:	9b0b      	ldr	r3, [sp, #44]	; 0x2c
  a6:	a811      	add	r0, sp, #68	; 0x44
  a8:	f7ff fffe 	bl	0 <mylib::listen_sensor::read_temperature>
  ac:	e7ff      	b.n	ae <mylib::listen_sensor::read_temperature+0xae>
/mnt/c/stm32bluepill-mynewt-sensor/src/listen_sensor.rs:87
        assert!(temp_sensor_value.val_type != 0);
  ae:	9812      	ldr	r0, [sp, #72]	; 0x48
  b0:	2800      	cmp	r0, #0
  b2:	d107      	bne.n	c4 <mylib::listen_sensor::read_temperature+0xc4>
  b4:	e7ff      	b.n	b6 <mylib::listen_sensor::read_temperature+0xb6>
  b6:	f240 0000 	movw	r0, #0
  ba:	f2c0 0000 	movt	r0, #0
  be:	f7ff fffe 	bl	0 <core::panicking::panic>
  c2:	defe      	udf	#254	; 0xfe
/mnt/c/stm32bluepill-mynewt-sensor/src/listen_sensor.rs:88
        if temp_sensor_value.val_type == 0 { return -1; }  //  Invalid type.
  c4:	9812      	ldr	r0, [sp, #72]	; 0x48
  c6:	2800      	cmp	r0, #0
  c8:	d104      	bne.n	d4 <mylib::listen_sensor::read_temperature+0xd4>
  ca:	e7ff      	b.n	cc <mylib::listen_sensor::read_temperature+0xcc>
  cc:	f04f 30ff 	mov.w	r0, #4294967295	; 0xffffffff
  d0:	900c      	str	r0, [sp, #48]	; 0x30
  d2:	e006      	b.n	e2 <mylib::listen_sensor::read_temperature+0xe2>
/mnt/c/stm32bluepill-mynewt-sensor/src/listen_sensor.rs:95
        let rc = send_sensor_data(&temp_sensor_value, device_name);
  d4:	990f      	ldr	r1, [sp, #60]	; 0x3c
  d6:	9a10      	ldr	r2, [sp, #64]	; 0x40
  d8:	a811      	add	r0, sp, #68	; 0x44
  da:	f7ff fffe 	bl	0 <mylib::send_coap::send_sensor_data>
  de:	9015      	str	r0, [sp, #84]	; 0x54
  e0:	e000      	b.n	e4 <mylib::listen_sensor::read_temperature+0xe4>
/mnt/c/stm32bluepill-mynewt-sensor/src/listen_sensor.rs:88
        if temp_sensor_value.val_type == 0 { return -1; }  //  Invalid type.
  e2:	e7ba      	b.n	5a <mylib::listen_sensor::read_temperature+0x5a>
/mnt/c/stm32bluepill-mynewt-sensor/src/listen_sensor.rs:99
        if rc == SYS_EAGAIN {
  e4:	9815      	ldr	r0, [sp, #84]	; 0x54
  e6:	3006      	adds	r0, #6
  e8:	2800      	cmp	r0, #0
  ea:	d108      	bne.n	fe <mylib::listen_sensor::read_temperature+0xfe>
  ec:	e7ff      	b.n	ee <mylib::listen_sensor::read_temperature+0xee>
/mnt/c/stm32bluepill-mynewt-sensor/src/listen_sensor.rs:100
            console_print(b"TMP network not ready\n");
  ee:	f240 0000 	movw	r0, #0
  f2:	f2c0 0000 	movt	r0, #0
  f6:	2116      	movs	r1, #22
  f8:	f7ff fffe 	bl	0 <mylib::base::console_print>
  fc:	e003      	b.n	106 <mylib::listen_sensor::read_temperature+0x106>
/mnt/c/stm32bluepill-mynewt-sensor/src/listen_sensor.rs:103
        assert!(rc == 0);
  fe:	9815      	ldr	r0, [sp, #84]	; 0x54
 100:	2800      	cmp	r0, #0
 102:	d103      	bne.n	10c <mylib::listen_sensor::read_temperature+0x10c>
 104:	e009      	b.n	11a <mylib::listen_sensor::read_temperature+0x11a>
 106:	2000      	movs	r0, #0
/mnt/c/stm32bluepill-mynewt-sensor/src/listen_sensor.rs:101
            return 0; 
 108:	900c      	str	r0, [sp, #48]	; 0x30
 10a:	e7ea      	b.n	e2 <mylib::listen_sensor::read_temperature+0xe2>
/mnt/c/stm32bluepill-mynewt-sensor/src/listen_sensor.rs:103
        assert!(rc == 0);
 10c:	f240 0000 	movw	r0, #0
 110:	f2c0 0000 	movt	r0, #0
 114:	f7ff fffe 	bl	0 <core::panicking::panic>
 118:	defe      	udf	#254	; 0xfe
 11a:	2000      	movs	r0, #0
/mnt/c/stm32bluepill-mynewt-sensor/src/listen_sensor.rs:106
    0
 11c:	900c      	str	r0, [sp, #48]	; 0x30
/mnt/c/stm32bluepill-mynewt-sensor/src/listen_sensor.rs:107
}
 11e:	e79c      	b.n	5a <mylib::listen_sensor::read_temperature+0x5a>

Disassembly of section .text._ZN5mylib13listen_sensor15get_temperature17h41b7510716f6c54fE:

00000000 <mylib::listen_sensor::get_temperature>:
_ZN5mylib13listen_sensor15get_temperature17h41b7510716f6c54fE():
/mnt/c/stm32bluepill-mynewt-sensor/src/listen_sensor.rs:112

///  Get the temperature value, raw or computed.  `sensor_data` contains the raw or computed temperature. 
///  `sensor_type` indicates whether `sensor_data` contains raw or computed temperature.  We return 
///  the raw or computed temperature, as well as the key and value type.
fn get_temperature(sensor_data: *const CVoid, sensor_type: SensorType) -> SensorValue {
   0:	b510      	push	{r4, lr}
   2:	b096      	sub	sp, #88	; 0x58
   4:	469c      	mov	ip, r3
   6:	4696      	mov	lr, r2
   8:	460c      	mov	r4, r1
   a:	9105      	str	r1, [sp, #20]
   c:	9307      	str	r3, [sp, #28]
   e:	9206      	str	r2, [sp, #24]
/mnt/c/stm32bluepill-mynewt-sensor/src/listen_sensor.rs:114
    let mut return_value = SensorValue {
        key: b"\0".as_ptr(),
  10:	f240 0100 	movw	r1, #0
  14:	f2c0 0100 	movt	r1, #0
  18:	2201      	movs	r2, #1
  1a:	9004      	str	r0, [sp, #16]
  1c:	4608      	mov	r0, r1
  1e:	4611      	mov	r1, r2
  20:	f8cd c00c 	str.w	ip, [sp, #12]
  24:	f8cd e008 	str.w	lr, [sp, #8]
  28:	9401      	str	r4, [sp, #4]
  2a:	f7ff fffe 	bl	0 <core::slice::<impl [T]>::as_ptr>
  2e:	9000      	str	r0, [sp, #0]
  30:	e7ff      	b.n	32 <mylib::listen_sensor::get_temperature+0x32>
/mnt/c/stm32bluepill-mynewt-sensor/src/listen_sensor.rs:113
    let mut return_value = SensorValue {
  32:	9800      	ldr	r0, [sp, #0]
  34:	9009      	str	r0, [sp, #36]	; 0x24
  36:	2100      	movs	r1, #0
  38:	910a      	str	r1, [sp, #40]	; 0x28
  3a:	f8ad 102c 	strh.w	r1, [sp, #44]	; 0x2c
  3e:	910c      	str	r1, [sp, #48]	; 0x30
/mnt/c/stm32bluepill-mynewt-sensor/src/listen_sensor.rs:122
        float_val: 0.0,
    };
    unsafe {
        //assert!(sensor_data);
        match sensor_type {                                //  Is this raw or computed temperature?
            SENSOR_TYPE_AMBIENT_TEMPERATURE_RAW => {  //  If this is raw temperature...
  40:	9906      	ldr	r1, [sp, #24]
  42:	9a07      	ldr	r2, [sp, #28]
  44:	f081 6180 	eor.w	r1, r1, #67108864	; 0x4000000
  48:	4311      	orrs	r1, r2
  4a:	2900      	cmp	r1, #0
  4c:	d138      	bne.n	c0 <mylib::listen_sensor::get_temperature+0xc0>
  4e:	e7ff      	b.n	50 <mylib::listen_sensor::get_temperature+0x50>
  50:	2000      	movs	r0, #0
/mnt/c/stm32bluepill-mynewt-sensor/src/listen_sensor.rs:124
                //  Interpret the sensor data as a sensor_temp_raw_data struct that contains raw temp.
                let mut rawtempdata = SensorTempRawData {
  52:	900d      	str	r0, [sp, #52]	; 0x34
  54:	f88d 0038 	strb.w	r0, [sp, #56]	; 0x38
/mnt/c/stm32bluepill-mynewt-sensor/src/listen_sensor.rs:128
                    strd_temp_raw: 0,
                    strd_temp_raw_is_valid: 0,
                };
                let rc = get_temp_raw_data(sensor_data, &mut rawtempdata);
  58:	9805      	ldr	r0, [sp, #20]
  5a:	a90d      	add	r1, sp, #52	; 0x34
  5c:	f7ff fffe 	bl	0 <get_temp_raw_data>
  60:	900f      	str	r0, [sp, #60]	; 0x3c
  62:	e7ff      	b.n	64 <mylib::listen_sensor::get_temperature+0x64>
/mnt/c/stm32bluepill-mynewt-sensor/src/listen_sensor.rs:129
                assert!(rc == 0);
  64:	980f      	ldr	r0, [sp, #60]	; 0x3c
  66:	2800      	cmp	r0, #0
  68:	d007      	beq.n	7a <mylib::listen_sensor::get_temperature+0x7a>
  6a:	e7ff      	b.n	6c <mylib::listen_sensor::get_temperature+0x6c>
  6c:	f240 0000 	movw	r0, #0
  70:	f2c0 0000 	movt	r0, #0
  74:	f7ff fffe 	bl	0 <core::panicking::panic>
  78:	defe      	udf	#254	; 0xfe
/mnt/c/stm32bluepill-mynewt-sensor/src/listen_sensor.rs:132

                //  Check that the raw temperature data is valid.
                if rawtempdata.strd_temp_raw_is_valid == 0 { return return_value; }  //  Exit if data is not valid
  7a:	f89d 0038 	ldrb.w	r0, [sp, #56]	; 0x38
  7e:	2800      	cmp	r0, #0
  80:	d10f      	bne.n	a2 <mylib::listen_sensor::get_temperature+0xa2>
  82:	e7ff      	b.n	84 <mylib::listen_sensor::get_temperature+0x84>
  84:	9809      	ldr	r0, [sp, #36]	; 0x24
  86:	990a      	ldr	r1, [sp, #40]	; 0x28
  88:	9a0b      	ldr	r2, [sp, #44]	; 0x2c
  8a:	9b0c      	ldr	r3, [sp, #48]	; 0x30
  8c:	f8dd c010 	ldr.w	ip, [sp, #16]
  90:	f8cc 300c 	str.w	r3, [ip, #12]
  94:	f8cc 2008 	str.w	r2, [ip, #8]
  98:	f8cc 1004 	str.w	r1, [ip, #4]
  9c:	f8cc 0000 	str.w	r0, [ip]
  a0:	e00c      	b.n	bc <mylib::listen_sensor::get_temperature+0xbc>
/mnt/c/stm32bluepill-mynewt-sensor/src/listen_sensor.rs:135

                //  Raw temperature data is valid.  Copy and display it.
                return_value.int_val = rawtempdata.strd_temp_raw as u16;  //  Raw Temperature in integer (0 to 4095)
  a2:	980d      	ldr	r0, [sp, #52]	; 0x34
  a4:	f8ad 002c 	strh.w	r0, [sp, #44]	; 0x2c
/mnt/c/stm32bluepill-mynewt-sensor/src/listen_sensor.rs:136
                console_print(b"TMP listener got rawtmp \n");  // return_value->int_val);
  a8:	f240 0000 	movw	r0, #0
  ac:	f2c0 0000 	movt	r0, #0
  b0:	2119      	movs	r1, #25
  b2:	f7ff fffe 	bl	0 <mylib::base::console_print>
  b6:	e002      	b.n	be <mylib::listen_sensor::get_temperature+0xbe>
/mnt/c/stm32bluepill-mynewt-sensor/src/listen_sensor.rs:168
        //  Return the key and value type for raw or computed temperature, as defined in temp_stm32.h.
        return_value.key = TEMP_SENSOR_KEY;
        return_value.val_type = TEMP_SENSOR_VALUE_TYPE;
    };
    return_value
}
  b8:	b016      	add	sp, #88	; 0x58
  ba:	bd10      	pop	{r4, pc}
/mnt/c/stm32bluepill-mynewt-sensor/src/listen_sensor.rs:132
                if rawtempdata.strd_temp_raw_is_valid == 0 { return return_value; }  //  Exit if data is not valid
  bc:	e7fc      	b.n	b8 <mylib::listen_sensor::get_temperature+0xb8>
/mnt/c/stm32bluepill-mynewt-sensor/src/listen_sensor.rs:121
        match sensor_type {                                //  Is this raw or computed temperature?
  be:	e02f      	b.n	120 <mylib::listen_sensor::get_temperature+0x120>
/mnt/c/stm32bluepill-mynewt-sensor/src/listen_sensor.rs:138
            SENSOR_TYPE_AMBIENT_TEMPERATURE => {      //  If this is computed temperature...
  c0:	9806      	ldr	r0, [sp, #24]
  c2:	9907      	ldr	r1, [sp, #28]
  c4:	9111      	str	r1, [sp, #68]	; 0x44
  c6:	9010      	str	r0, [sp, #64]	; 0x40
  c8:	2000      	movs	r0, #0
/mnt/c/stm32bluepill-mynewt-sensor/src/listen_sensor.rs:140
                let mut tempdata = SensorTempData {
  ca:	9013      	str	r0, [sp, #76]	; 0x4c
  cc:	f88d 0050 	strb.w	r0, [sp, #80]	; 0x50
/mnt/c/stm32bluepill-mynewt-sensor/src/listen_sensor.rs:144
                let rc = get_temp_data(sensor_data, &mut tempdata);
  d0:	9805      	ldr	r0, [sp, #20]
  d2:	a913      	add	r1, sp, #76	; 0x4c
  d4:	f7ff fffe 	bl	0 <get_temp_data>
  d8:	9015      	str	r0, [sp, #84]	; 0x54
  da:	e7ff      	b.n	dc <mylib::listen_sensor::get_temperature+0xdc>
/mnt/c/stm32bluepill-mynewt-sensor/src/listen_sensor.rs:145
                assert!(rc == 0);
  dc:	9815      	ldr	r0, [sp, #84]	; 0x54
  de:	2800      	cmp	r0, #0
  e0:	d007      	beq.n	f2 <mylib::listen_sensor::get_temperature+0xf2>
  e2:	e7ff      	b.n	e4 <mylib::listen_sensor::get_temperature+0xe4>
  e4:	f240 0000 	movw	r0, #0
  e8:	f2c0 0000 	movt	r0, #0
  ec:	f7ff fffe 	bl	0 <core::panicking::panic>
  f0:	defe      	udf	#254	; 0xfe
/mnt/c/stm32bluepill-mynewt-sensor/src/listen_sensor.rs:148
                if tempdata.std_temp_is_valid == 0 { return return_value; }  //  Exit if data is not valid
  f2:	f89d 0050 	ldrb.w	r0, [sp, #80]	; 0x50
  f6:	2800      	cmp	r0, #0
  f8:	d10f      	bne.n	11a <mylib::listen_sensor::get_temperature+0x11a>
  fa:	e7ff      	b.n	fc <mylib::listen_sensor::get_temperature+0xfc>
  fc:	9809      	ldr	r0, [sp, #36]	; 0x24
  fe:	990a      	ldr	r1, [sp, #40]	; 0x28
 100:	9a0b      	ldr	r2, [sp, #44]	; 0x2c
 102:	9b0c      	ldr	r3, [sp, #48]	; 0x30
 104:	f8dd c010 	ldr.w	ip, [sp, #16]
 108:	f8cc 300c 	str.w	r3, [ip, #12]
 10c:	f8cc 2008 	str.w	r2, [ip, #8]
 110:	f8cc 1004 	str.w	r1, [ip, #4]
 114:	f8cc 0000 	str.w	r0, [ip]
 118:	e7d0      	b.n	bc <mylib::listen_sensor::get_temperature+0xbc>
/mnt/c/stm32bluepill-mynewt-sensor/src/listen_sensor.rs:151
                return_value.float_val = tempdata.std_temp;  //  Temperature in floating point.
 11a:	9813      	ldr	r0, [sp, #76]	; 0x4c
 11c:	900c      	str	r0, [sp, #48]	; 0x30
/mnt/c/stm32bluepill-mynewt-sensor/src/listen_sensor.rs:121
        match sensor_type {                                //  Is this raw or computed temperature?
 11e:	e7ff      	b.n	120 <mylib::listen_sensor::get_temperature+0x120>
/mnt/c/stm32bluepill-mynewt-sensor/src/listen_sensor.rs:164
        return_value.key = TEMP_SENSOR_KEY;
 120:	f240 0000 	movw	r0, #0
 124:	f2c0 0000 	movt	r0, #0
 128:	9009      	str	r0, [sp, #36]	; 0x24
 12a:	2001      	movs	r0, #1
/mnt/c/stm32bluepill-mynewt-sensor/src/listen_sensor.rs:165
        return_value.val_type = TEMP_SENSOR_VALUE_TYPE;
 12c:	900a      	str	r0, [sp, #40]	; 0x28
/mnt/c/stm32bluepill-mynewt-sensor/src/listen_sensor.rs:167
    return_value
 12e:	9809      	ldr	r0, [sp, #36]	; 0x24
 130:	990a      	ldr	r1, [sp, #40]	; 0x28
 132:	9a0b      	ldr	r2, [sp, #44]	; 0x2c
 134:	9b0c      	ldr	r3, [sp, #48]	; 0x30
 136:	f8dd c010 	ldr.w	ip, [sp, #16]
 13a:	f8cc 300c 	str.w	r3, [ip, #12]
 13e:	f8cc 2008 	str.w	r2, [ip, #8]
 142:	f8cc 1004 	str.w	r1, [ip, #4]
 146:	f8cc 0000 	str.w	r0, [ip]
/mnt/c/stm32bluepill-mynewt-sensor/src/listen_sensor.rs:168
}
 14a:	e7b5      	b.n	b8 <mylib::listen_sensor::get_temperature+0xb8>

mylib-01c8eb6571dba957.14772k0d8xjmetqv.rcgu.o:     file format elf32-littlearm

SYMBOL TABLE:
00000000 l    df *ABS*	00000000 14772k0d8xjmetqv
00000000 l       .debug_str	00000000 
00000039 l       .debug_str	00000000 
00000044 l       .debug_str	00000000 
00000067 l       .debug_str	00000000 
0000006c l       .debug_str	00000000 
00000070 l       .debug_str	00000000 
00000079 l       .debug_str	00000000 
000000ba l       .debug_str	00000000 
000000c3 l       .debug_str	00000000 
000000cc l       .debug_str	00000000 
000000cf l       .debug_str	00000000 
000000d9 l       .debug_str	00000000 
000000e0 l       .debug_str	00000000 
000000e6 l       .debug_str	00000000 
000000ec l       .debug_str	00000000 
000000f1 l       .debug_str	00000000 
000000f6 l       .debug_str	00000000 
00000132 l       .debug_str	00000000 
00000136 l       .debug_str	00000000 
00000175 l       .debug_str	00000000 
00000000 l    d  .text._ZN4core3str21_$LT$impl$u20$str$GT$3len17h9c3477ff179b3093E	00000000 .text._ZN4core3str21_$LT$impl$u20$str$GT$3len17h9c3477ff179b3093E
00000000 l    d  .text._ZN4core3str21_$LT$impl$u20$str$GT$6as_ptr17h97b5d9caadd70666E	00000000 .text._ZN4core3str21_$LT$impl$u20$str$GT$6as_ptr17h97b5d9caadd70666E
00000000 l    d  .debug_abbrev	00000000 .debug_abbrev
00000000 l    d  .debug_info	00000000 .debug_info
00000000 l    d  .debug_ranges	00000000 .debug_ranges
00000000 l    d  .debug_frame	00000000 .debug_frame
00000000 l    d  .debug_line	00000000 .debug_line
00000000 g     F .text._ZN4core3str21_$LT$impl$u20$str$GT$3len17h9c3477ff179b3093E	0000003c .hidden core::str::<impl str>::len
00000000 g     F .text._ZN4core3str21_$LT$impl$u20$str$GT$6as_ptr17h97b5d9caadd70666E	00000014 .hidden core::str::<impl str>::as_ptr
00000000         *UND*	00000000 core::slice::<impl [T]>::len



Disassembly of section .text._ZN4core3str21_$LT$impl$u20$str$GT$3len17h9c3477ff179b3093E:

00000000 <core::str::<impl str>::len>:
_ZN4core3str21_$LT$impl$u20$str$GT$3len17h9c3477ff179b3093E():
/rustc/3c235d5600393dfe6c36eeed34042efad8d4f26e/src/libcore/str/mod.rs:2053
   0:	b580      	push	{r7, lr}
   2:	b08c      	sub	sp, #48	; 0x30
   4:	460a      	mov	r2, r1
   6:	4603      	mov	r3, r0
   8:	9006      	str	r0, [sp, #24]
   a:	9107      	str	r1, [sp, #28]
/rustc/3c235d5600393dfe6c36eeed34042efad8d4f26e/src/libcore/str/mod.rs:2054
   c:	9806      	ldr	r0, [sp, #24]
   e:	9907      	ldr	r1, [sp, #28]
  10:	9008      	str	r0, [sp, #32]
  12:	9109      	str	r1, [sp, #36]	; 0x24
_ZN4core3str21_$LT$impl$u20$str$GT$8as_bytes17h85837ce7b4649004E():
/rustc/3c235d5600393dfe6c36eeed34042efad8d4f26e/src/libcore/str/mod.rs:2136
  14:	9808      	ldr	r0, [sp, #32]
  16:	9909      	ldr	r1, [sp, #36]	; 0x24
  18:	900a      	str	r0, [sp, #40]	; 0x28
  1a:	910b      	str	r1, [sp, #44]	; 0x2c
  1c:	980a      	ldr	r0, [sp, #40]	; 0x28
  1e:	990b      	ldr	r1, [sp, #44]	; 0x2c
_ZN4core3str21_$LT$impl$u20$str$GT$3len17h9c3477ff179b3093E():
/rustc/3c235d5600393dfe6c36eeed34042efad8d4f26e/src/libcore/str/mod.rs:2054
  20:	9205      	str	r2, [sp, #20]
  22:	9304      	str	r3, [sp, #16]
  24:	9003      	str	r0, [sp, #12]
  26:	9102      	str	r1, [sp, #8]
  28:	e7ff      	b.n	2a <core::str::<impl str>::len+0x2a>
  2a:	9803      	ldr	r0, [sp, #12]
  2c:	9902      	ldr	r1, [sp, #8]
  2e:	f7ff fffe 	bl	0 <core::slice::<impl [T]>::len>
  32:	9001      	str	r0, [sp, #4]
  34:	e7ff      	b.n	36 <core::str::<impl str>::len+0x36>
/rustc/3c235d5600393dfe6c36eeed34042efad8d4f26e/src/libcore/str/mod.rs:2055
  36:	9801      	ldr	r0, [sp, #4]
  38:	b00c      	add	sp, #48	; 0x30
  3a:	bd80      	pop	{r7, pc}

Disassembly of section .text._ZN4core3str21_$LT$impl$u20$str$GT$6as_ptr17h97b5d9caadd70666E:

00000000 <core::str::<impl str>::as_ptr>:
_ZN4core3str21_$LT$impl$u20$str$GT$6as_ptr17h97b5d9caadd70666E():
/rustc/3c235d5600393dfe6c36eeed34042efad8d4f26e/src/libcore/str/mod.rs:2196
   0:	b084      	sub	sp, #16
   2:	460a      	mov	r2, r1
   4:	4603      	mov	r3, r0
   6:	9002      	str	r0, [sp, #8]
   8:	9103      	str	r1, [sp, #12]
/rustc/3c235d5600393dfe6c36eeed34042efad8d4f26e/src/libcore/str/mod.rs:2197
   a:	9802      	ldr	r0, [sp, #8]
/rustc/3c235d5600393dfe6c36eeed34042efad8d4f26e/src/libcore/str/mod.rs:2198
   c:	9201      	str	r2, [sp, #4]
   e:	9300      	str	r3, [sp, #0]
  10:	b004      	add	sp, #16
  12:	4770      	bx	lr

mylib-01c8eb6571dba957.1570kja61litwunq.rcgu.o:     file format elf32-littlearm

SYMBOL TABLE:
00000000 l    df *ABS*	00000000 1570kja61litwunq
00000000 l       .debug_str	00000000 
00000039 l       .debug_str	00000000 
00000044 l       .debug_str	00000000 
00000067 l       .debug_str	00000000 
0000006d l       .debug_str	00000000 
00000072 l       .debug_str	00000000 
000000a4 l       .debug_str	00000000 
000000b2 l       .debug_str	00000000 
000000b6 l       .debug_str	00000000 
000000bf l       .debug_str	00000000 
000000c2 l       .debug_str	00000000 
000000cc l       .debug_str	00000000 
000000d3 l       .debug_str	00000000 
000000d9 l       .debug_str	00000000 
000000df l       .debug_str	00000000 
00000000 l    d  .text._ZN5mylib4base13console_print17h4cf9cc516f96f871E	00000000 .text._ZN5mylib4base13console_print17h4cf9cc516f96f871E
00000000 l    d  .debug_abbrev	00000000 .debug_abbrev
00000000 l    d  .debug_info	00000000 .debug_info
00000000 l    d  .debug_frame	00000000 .debug_frame
00000000 l    d  .debug_line	00000000 .debug_line
00000000         *UND*	00000000 core::slice::<impl [T]>::len
00000000         *UND*	00000000 core::slice::<impl [T]>::as_ptr
00000000 g     F .text._ZN5mylib4base13console_print17h4cf9cc516f96f871E	0000003c .hidden mylib::base::console_print
00000000         *UND*	00000000 console_buffer
00000000         *UND*	00000000 console_flush



Disassembly of section .text._ZN5mylib4base13console_print17h4cf9cc516f96f871E:

00000000 <mylib::base::console_print>:
_ZN5mylib4base13console_print17h4cf9cc516f96f871E():
/mnt/c/stm32bluepill-mynewt-sensor/src/base.rs:7

use cty::*;            //  Import string utilities from cty library: https://crates.io/crates/cty
use crate::sensor::*;  //  Import sensor.rs for Mynewt Sensor API

///  Display message `msg` on the Arm Semihosting console (via OpenOCD).
pub fn console_print(msg: &[u8]) {
   0:	b580      	push	{r7, lr}
   2:	b086      	sub	sp, #24
   4:	460a      	mov	r2, r1
   6:	4603      	mov	r3, r0
   8:	9003      	str	r0, [sp, #12]
   a:	9104      	str	r1, [sp, #16]
/mnt/c/stm32bluepill-mynewt-sensor/src/base.rs:8
    let len = msg.len();
   c:	9803      	ldr	r0, [sp, #12]
   e:	9904      	ldr	r1, [sp, #16]
  10:	9202      	str	r2, [sp, #8]
  12:	9301      	str	r3, [sp, #4]
  14:	f7ff fffe 	bl	0 <core::slice::<impl [T]>::len>
  18:	9005      	str	r0, [sp, #20]
  1a:	e7ff      	b.n	1c <mylib::base::console_print+0x1c>
/mnt/c/stm32bluepill-mynewt-sensor/src/base.rs:11
    unsafe {
        //  Call the Semihosting Console API, which is unsafe.
        console_buffer(msg.as_ptr(), len as u32);
  1c:	9803      	ldr	r0, [sp, #12]
  1e:	9904      	ldr	r1, [sp, #16]
  20:	f7ff fffe 	bl	0 <core::slice::<impl [T]>::as_ptr>
  24:	9000      	str	r0, [sp, #0]
  26:	e7ff      	b.n	28 <mylib::base::console_print+0x28>
  28:	9905      	ldr	r1, [sp, #20]
  2a:	9800      	ldr	r0, [sp, #0]
  2c:	f7ff fffe 	bl	0 <console_buffer>
  30:	e7ff      	b.n	2 <console_flush+0x2>
/mnt/c/stm32bluepill-mynewt-sensor/src/base.rs:12
        console_flush();  //  TODO: Remove this.
  32:	f7ff fffe 	bl	0 <console_flush>
  36:	e7ff      	b.n	38 <mylib::base::console_print+0x38>
/mnt/c/stm32bluepill-mynewt-sensor/src/base.rs:14
    }
}
  38:	b006      	add	sp, #24
  3a:	bd80      	pop	{r7, pc}

mylib-01c8eb6571dba957.1gar34u4lhxtcpa1.rcgu.o:     file format elf32-littlearm

SYMBOL TABLE:
00000000 l    df *ABS*	00000000 1gar34u4lhxtcpa1
00000000 l       .debug_str	00000000 
00000039 l       .debug_str	00000000 
00000044 l       .debug_str	00000000 
00000067 l       .debug_str	00000000 
0000006d l       .debug_str	00000000 
00000077 l       .debug_str	00000000 
000000b3 l       .debug_str	00000000 
000000c6 l       .debug_str	00000000 
000000ca l       .debug_str	00000000 
00000104 l       .debug_str	00000000 
00000115 l       .debug_str	00000000 
0000011a l       .debug_str	00000000 
0000011f l       .debug_str	00000000 
00000123 l       .debug_str	00000000 
00000126 l       .debug_str	00000000 
00000130 l       .debug_str	00000000 
00000139 l       .debug_str	00000000 
00000141 l       .debug_str	00000000 
00000145 l       .debug_str	00000000 
0000014f l       .debug_str	00000000 
00000153 l       .debug_str	00000000 
0000015f l       .debug_str	00000000 
0000017f l       .debug_str	00000000 
0000018c l       .debug_str	00000000 
00000196 l       .debug_str	00000000 
0000019c l       .debug_str	00000000 
000001b0 l       .debug_str	00000000 
000001b5 l       .debug_str	00000000 
00000000 l     O .rodata..Lanon.93b529e3d5ea91784f009f0062a617a1.0	00000013 .Lanon.93b529e3d5ea91784f009f0062a617a1.0
00000000 l     O .rodata..Lanon.93b529e3d5ea91784f009f0062a617a1.1	00000011 .Lanon.93b529e3d5ea91784f009f0062a617a1.1
00000000 l    d  .text._ZN5mylib9send_coap18start_network_task17h45cebb75903de641E	00000000 .text._ZN5mylib9send_coap18start_network_task17h45cebb75903de641E
00000000 l    d  .text._ZN5mylib9send_coap16send_sensor_data17h6fc3d2337e381536E	00000000 .text._ZN5mylib9send_coap16send_sensor_data17h6fc3d2337e381536E
00000000 l    d  .debug_abbrev	00000000 .debug_abbrev
00000000 l    d  .debug_info	00000000 .debug_info
00000000 l    d  .debug_ranges	00000000 .debug_ranges
00000000 l    d  .debug_frame	00000000 .debug_frame
00000000 l    d  .debug_line	00000000 .debug_line
00000000         *UND*	00000000 .hidden mylib::base::console_print
00000000 g     F .text._ZN5mylib9send_coap16send_sensor_data17h6fc3d2337e381536E	00000030 .hidden mylib::send_coap::send_sensor_data
00000000 g     F .text._ZN5mylib9send_coap18start_network_task17h45cebb75903de641E	00000016 .hidden mylib::send_coap::start_network_task



Disassembly of section .text._ZN5mylib9send_coap18start_network_task17h45cebb75903de641E:

00000000 <mylib::send_coap::start_network_task>:
_ZN5mylib9send_coap18start_network_task17h45cebb75903de641E():
/mnt/c/stm32bluepill-mynewt-sensor/src/send_coap.rs:20

///  TODO: Start the Network Task in the background.  The Network Task prepares the network drivers
///  (ESP8266 and nRF24L01) for transmitting sensor data messages.  
///  Connecting the ESP8266 to the WiFi access point may be slow so we do this in the background.
///  Also perform WiFi Geolocation if it is enabled.  Return 0 if successful.
pub fn start_network_task() -> i32 {
   0:	b580      	push	{r7, lr}
/mnt/c/stm32bluepill-mynewt-sensor/src/send_coap.rs:21
    console_print(b"start_network_task\n");
   2:	f240 0000 	movw	r0, #0
   6:	f2c0 0000 	movt	r0, #0
   a:	2113      	movs	r1, #19
   c:	f7ff fffe 	bl	0 <mylib::base::console_print>
  10:	e7ff      	b.n	12 <mylib::send_coap::start_network_task+0x12>
  12:	2000      	movs	r0, #0
/mnt/c/stm32bluepill-mynewt-sensor/src/send_coap.rs:23
    0
}
  14:	bd80      	pop	{r7, pc}

Disassembly of section .text._ZN5mylib9send_coap16send_sensor_data17h6fc3d2337e381536E:

00000000 <mylib::send_coap::send_sensor_data>:
_ZN5mylib9send_coap16send_sensor_data17h6fc3d2337e381536E():
/mnt/c/stm32bluepill-mynewt-sensor/src/send_coap.rs:34
///  For Collector Node: sensor_node is the Sensor Node Address of the Sensor Node that transmitted
///  the sensor data (like `b3b4b5b6f1`)
///  The message will be enqueued for transmission by the CoAP / OIC Background Task 
///  so this function will return without waiting for the message to be transmitted.  
///  Return 0 if successful, SYS_EAGAIN if network is not ready yet.
pub fn send_sensor_data(_val: *const SensorValue, _sensor_node: &'static CStr) -> i32 {
   0:	b580      	push	{r7, lr}
   2:	b086      	sub	sp, #24
   4:	4613      	mov	r3, r2
   6:	468c      	mov	ip, r1
   8:	4686      	mov	lr, r0
   a:	9003      	str	r0, [sp, #12]
   c:	9104      	str	r1, [sp, #16]
   e:	9205      	str	r2, [sp, #20]
/mnt/c/stm32bluepill-mynewt-sensor/src/send_coap.rs:35
    console_print(b"send_sensor_data\n");
  10:	f240 0000 	movw	r0, #0
  14:	f2c0 0000 	movt	r0, #0
  18:	2111      	movs	r1, #17
  1a:	9302      	str	r3, [sp, #8]
  1c:	f8cd c004 	str.w	ip, [sp, #4]
  20:	f8cd e000 	str.w	lr, [sp]
  24:	f7ff fffe 	bl	0 <mylib::base::console_print>
  28:	e7ff      	b.n	2a <mylib::send_coap::send_sensor_data+0x2a>
  2a:	2000      	movs	r0, #0
/mnt/c/stm32bluepill-mynewt-sensor/src/send_coap.rs:37
    0
}
  2c:	b006      	add	sp, #24
  2e:	bd80      	pop	{r7, pc}

mylib-01c8eb6571dba957.4644zq9yvy8xhapc.rcgu.o:     file format elf32-littlearm

SYMBOL TABLE:
00000000 l    df *ABS*	00000000 4644zq9yvy8xhapc
00000000 l       .debug_str	00000000 
00000039 l       .debug_str	00000000 
00000044 l       .debug_str	00000000 
00000067 l       .debug_str	00000000 
0000006d l       .debug_str	00000000 
00000074 l       .debug_str	00000000 
00000078 l       .debug_str	00000000 
00000082 l       .debug_str	00000000 
0000008c l       .debug_str	00000000 
00000092 l       .debug_str	00000000 
000000ca l       .debug_str	00000000 
000000dc l       .debug_str	00000000 
000000e0 l       .debug_str	00000000 
000000fc l       .debug_str	00000000 
00000105 l       .debug_str	00000000 
00000114 l       .debug_str	00000000 
00000118 l       .debug_str	00000000 
00000120 l       .debug_str	00000000 
00000179 l       .debug_str	00000000 
00000180 l       .debug_str	00000000 
00000188 l       .debug_str	00000000 
00000197 l       .debug_str	00000000 
00000000 l    d  .text._ZN5mylib6sensor17register_listener17haa248b79bab65feeE	00000000 .text._ZN5mylib6sensor17register_listener17haa248b79bab65feeE
00000000 l    d  .debug_abbrev	00000000 .debug_abbrev
00000000 l    d  .debug_info	00000000 .debug_info
00000000 l    d  .debug_frame	00000000 .debug_frame
00000000 l    d  .debug_line	00000000 .debug_line
00000000 g     F .text._ZN5mylib6sensor17register_listener17haa248b79bab65feeE	00000022 .hidden mylib::sensor::register_listener
00000000         *UND*	00000000 sensor_register_listener



Disassembly of section .text._ZN5mylib6sensor17register_listener17haa248b79bab65feeE:

00000000 <mylib::sensor::register_listener>:
_ZN5mylib6sensor17register_listener17haa248b79bab65feeE():
/mnt/c/stm32bluepill-mynewt-sensor/src/sensor.rs:13
///  for the sensor listener structure.
///
///  `sensor`: The sensor to register a listener on.
///  `listener`: The listener to register onto the sensor.
///  Return 0 on success, non-zero error code on failure.
pub fn register_listener(sensor: SensorPtr, listener: &SensorListener) -> i32 {    
   0:	b580      	push	{r7, lr}
   2:	b086      	sub	sp, #24
   4:	460a      	mov	r2, r1
   6:	4603      	mov	r3, r0
   8:	9004      	str	r0, [sp, #16]
   a:	9105      	str	r1, [sp, #20]
/mnt/c/stm32bluepill-mynewt-sensor/src/sensor.rs:15
    //  Make an unsafe call to the Mynewt API.
    unsafe { sensor_register_listener(sensor, listener) }
   c:	9804      	ldr	r0, [sp, #16]
   e:	9905      	ldr	r1, [sp, #20]
  10:	9203      	str	r2, [sp, #12]
  12:	9302      	str	r3, [sp, #8]
  14:	f7ff fffe 	bl	0 <sensor_register_listener>
  18:	9001      	str	r0, [sp, #4]
  1a:	e7ff      	b.n	1c <mylib::sensor::register_listener+0x1c>
/mnt/c/stm32bluepill-mynewt-sensor/src/sensor.rs:16
}
  1c:	9801      	ldr	r0, [sp, #4]
  1e:	b006      	add	sp, #24
  20:	bd80      	pop	{r7, pc}

mylib-01c8eb6571dba957.xtrnd2f50x208rj.rcgu.o:     file format elf32-littlearm

SYMBOL TABLE:
00000000 l    df *ABS*	00000000 xtrnd2f50x208rj
00000000 l       .debug_str	00000000 
00000039 l       .debug_str	00000000 
00000044 l       .debug_str	00000000 
00000067 l       .debug_str	00000000 
0000006c l       .debug_str	00000000 
00000070 l       .debug_str	00000000 
00000073 l       .debug_str	00000000 
00000076 l       .debug_str	00000000 
00000079 l       .debug_str	00000000 
0000007e l       .debug_str	00000000 
00000084 l       .debug_str	00000000 
0000008b l       .debug_str	00000000 
00000093 l       .debug_str	00000000 
0000009d l       .debug_str	00000000 
000000a4 l       .debug_str	00000000 
000000a7 l       .debug_str	00000000 
000000ab l       .debug_str	00000000 
000000b2 l       .debug_str	00000000 
000000b8 l       .debug_str	00000000 
000000bd l       .debug_str	00000000 
000000bf l       .debug_str	00000000 
000000d1 l       .debug_str	00000000 
000000d7 l       .debug_str	00000000 
000000db l       .debug_str	00000000 
000000df l       .debug_str	00000000 
000000e3 l       .debug_str	00000000 
000000e8 l       .debug_str	00000000 
000000f0 l       .debug_str	00000000 
000000f4 l       .debug_str	00000000 
000000fc l       .debug_str	00000000 
00000104 l       .debug_str	00000000 
0000010b l       .debug_str	00000000 
00000111 l       .debug_str	00000000 
00000125 l       .debug_str	00000000 
00000131 l       .debug_str	00000000 
00000136 l       .debug_str	00000000 
0000013e l       .debug_str	00000000 
00000145 l       .debug_str	00000000 
00000149 l       .debug_str	00000000 
0000014e l       .debug_str	00000000 
00000155 l       .debug_str	00000000 
0000015e l       .debug_str	00000000 
00000168 l       .debug_str	00000000 
0000016f l       .debug_str	00000000 
00000174 l       .debug_str	00000000 
00000180 l       .debug_str	00000000 
00000188 l       .debug_str	00000000 
00000191 l       .debug_str	00000000 
00000196 l       .debug_str	00000000 
00000199 l       .debug_str	00000000 
0000019d l       .debug_str	00000000 
000001a6 l       .debug_str	00000000 
000001ad l       .debug_str	00000000 
000001b2 l       .debug_str	00000000 
000001b7 l       .debug_str	00000000 
000001bd l       .debug_str	00000000 
000001c3 l       .debug_str	00000000 
000001cd l       .debug_str	00000000 
000001d0 l       .debug_str	00000000 
000001d6 l       .debug_str	00000000 
000001e0 l       .debug_str	00000000 
000001e8 l       .debug_str	00000000 
000001ee l       .debug_str	00000000 
000001f4 l       .debug_str	00000000 
000001ff l       .debug_str	00000000 
00000208 l       .debug_str	00000000 
0000022b l       .debug_str	00000000 
0000024a l       .debug_str	00000000 
0000024c l       .debug_str	00000000 
00000251 l       .debug_str	00000000 
00000278 l       .debug_str	00000000 
0000027d l       .debug_str	00000000 
00000283 l       .debug_str	00000000 
00000289 l       .debug_str	00000000 
0000028c l       .debug_str	00000000 
0000029b l       .debug_str	00000000 
000002a2 l       .debug_str	00000000 
000002a6 l       .debug_str	00000000 
000002af l       .debug_str	00000000 
000002bb l       .debug_str	00000000 
000002d4 l       .debug_str	00000000 
000002d9 l       .debug_str	00000000 
000002ea l       .debug_str	00000000 
000002f4 l       .debug_str	00000000 
00000302 l       .debug_str	00000000 
00000306 l       .debug_str	00000000 
00000311 l       .debug_str	00000000 
00000318 l       .debug_str	00000000 
0000031e l       .debug_str	00000000 
00000322 l       .debug_str	00000000 
00000326 l       .debug_str	00000000 
0000032e l       .debug_str	00000000 
00000345 l       .debug_str	00000000 
00000369 l       .debug_str	00000000 
00000385 l       .debug_str	00000000 
0000038f l       .debug_str	00000000 
000003a9 l       .debug_str	00000000 
00000407 l       .debug_str	00000000 
00000412 l       .debug_str	00000000 
0000042f l       .debug_str	00000000 
00000448 l       .debug_str	00000000 
00000452 l       .debug_str	00000000 
00000468 l       .debug_str	00000000 
00000486 l       .debug_str	00000000 
0000048f l       .debug_str	00000000 
00000494 l       .debug_str	00000000 
00000499 l       .debug_str	00000000 
0000049d l       .debug_str	00000000 
000004a6 l       .debug_str	00000000 
000004b0 l       .debug_str	00000000 
000004c8 l       .debug_str	00000000 
00000000 l     O .rodata..Lanon.3ed011473997af99b525cde47c9eaaac.2	00000018 .Lanon.3ed011473997af99b525cde47c9eaaac.2
00000000 l     O .rodata..Lanon.3ed011473997af99b525cde47c9eaaac.4	00000018 .Lanon.3ed011473997af99b525cde47c9eaaac.4
00000000 l     O .rodata..Lanon.3ed011473997af99b525cde47c9eaaac.5	00000012 .Lanon.3ed011473997af99b525cde47c9eaaac.5
00000000 l     O .rodata..Lanon.3ed011473997af99b525cde47c9eaaac.6	00000009 .Lanon.3ed011473997af99b525cde47c9eaaac.6
00000000 l     O .rodata.cst8	00000008 .Lanon.3ed011473997af99b525cde47c9eaaac.7
00000000 l     O .rodata..Lanon.3ed011473997af99b525cde47c9eaaac.8	00000001 .Lanon.3ed011473997af99b525cde47c9eaaac.8
00000000 l    d  .text.main	00000000 .text.main
00000000 l    d  .text.rust_begin_unwind	00000000 .text.rust_begin_unwind
00000000 l    d  .rodata..Lanon.3ed011473997af99b525cde47c9eaaac.0	00000000 .rodata..Lanon.3ed011473997af99b525cde47c9eaaac.0
00000000 l    d  .rodata..Lanon.3ed011473997af99b525cde47c9eaaac.1	00000000 .rodata..Lanon.3ed011473997af99b525cde47c9eaaac.1
00000000 l    d  .rodata..Lanon.3ed011473997af99b525cde47c9eaaac.3	00000000 .rodata..Lanon.3ed011473997af99b525cde47c9eaaac.3
00000000 l    d  .debug_abbrev	00000000 .debug_abbrev
00000000 l    d  .debug_info	00000000 .debug_info
00000000 l    d  .debug_ranges	00000000 .debug_ranges
00000000 l    d  .debug_frame	00000000 .debug_frame
00000000 l    d  .debug_line	00000000 .debug_line
00000000         *UND*	00000000 .hidden core::str::<impl str>::len
00000000         *UND*	00000000 .hidden core::str::<impl str>::as_ptr
00000000         *UND*	00000000 core::panic::Location::file
00000000         *UND*	00000000 core::panic::Location::line
00000000         *UND*	00000000 core::panic::PanicInfo::location
00000000         *UND*	00000000 core::panicking::panic
00000000         *UND*	00000000 .hidden mylib::listen_sensor::start_sensor_listener
00000000         *UND*	00000000 .hidden mylib::base::console_print
00000000         *UND*	00000000 .hidden mylib::send_coap::start_network_task
00000000         *UND*	00000000 console_buffer
00000000         *UND*	00000000 console_flush
00000000         *UND*	00000000 console_printhex
00000000 g     F .text.main	0000005e main
00000000         *UND*	00000000 os_eventq_dflt_get
00000000         *UND*	00000000 os_eventq_run
00000000 g     F .text.rust_begin_unwind	000000b2 rust_begin_unwind
00000000         *UND*	00000000 rust_sysinit



Disassembly of section .text.main:

00000000 <main>:
main():
/mnt/c/stm32bluepill-mynewt-sensor/src/lib.rs:20
use crate::listen_sensor::*;    //  Import listen_sensor.rs for polling the temperature sensor
use crate::send_coap::*;        //  Import send_coap.rs for sending sensor data

///  main() will be called at Mynewt startup. It replaces the C version of the main() function.
#[no_mangle]                     //  Don't mangle the name "main"
pub extern "C" fn main() -> ! {  //  Declare extern "C" because it will be called by Mynewt
   0:	b084      	sub	sp, #16
/mnt/c/stm32bluepill-mynewt-sensor/src/lib.rs:23
    unsafe {
        //  Init Mynewt system.
        rust_sysinit();
   2:	f7ff fffe 	bl	0 <rust_sysinit>
   6:	e7ff      	b.n	2 <console_flush+0x2>
/mnt/c/stm32bluepill-mynewt-sensor/src/lib.rs:24
        console_flush();
   8:	f7ff fffe 	bl	0 <console_flush>
   c:	e7ff      	b.n	2 <mylib::send_coap::start_network_task+0x2>
/mnt/c/stm32bluepill-mynewt-sensor/src/lib.rs:29

        //  Start the Network Task in the background.  The Network Task prepares the ESP8266 or nRF24L01 transceiver for
        //  sending CoAP messages.  We connect the ESP8266 to the WiFi access point and register
        //  the ESP8266/nRF24L01 driver as the network transport for CoAP.  Also perform WiFi Geolocation if it is enabled.
        let rc1 = start_network_task();  assert!(rc1 == 0);
   e:	f7ff fffe 	bl	0 <mylib::send_coap::start_network_task>
  12:	9002      	str	r0, [sp, #8]
  14:	e7ff      	b.n	16 <main+0x16>
  16:	9802      	ldr	r0, [sp, #8]
  18:	2800      	cmp	r0, #0
  1a:	d007      	beq.n	2c <main+0x2c>
  1c:	e7ff      	b.n	1e <main+0x1e>
  1e:	f240 0000 	movw	r0, #0
  22:	f2c0 0000 	movt	r0, #0
  26:	f7ff fffe 	bl	0 <core::panicking::panic>
  2a:	defe      	udf	#254	; 0xfe
/mnt/c/stm32bluepill-mynewt-sensor/src/lib.rs:34

        //  Starting polling the temperature sensor every 10 seconds in the background.  
        //  After polling the sensor, call the listener function to send the sensor data to the CoAP server or Collector Node.
        //  If this is the Collector Node, we shall wait for sensor data from the Sensor Nodes and transmit to the CoAP server.
        let rc2 = start_sensor_listener();  assert!(rc2 == 0);
  2c:	f7ff fffe 	bl	0 <mylib::listen_sensor::start_sensor_listener>
  30:	9003      	str	r0, [sp, #12]
  32:	e7ff      	b.n	34 <main+0x34>
  34:	9803      	ldr	r0, [sp, #12]
  36:	2800      	cmp	r0, #0
  38:	d007      	beq.n	4a <main+0x4a>
  3a:	e7ff      	b.n	3c <main+0x3c>
  3c:	f240 0000 	movw	r0, #0
  40:	f2c0 0000 	movt	r0, #0
  44:	f7ff fffe 	bl	0 <core::panicking::panic>
  48:	defe      	udf	#254	; 0xfe
/mnt/c/stm32bluepill-mynewt-sensor/src/lib.rs:37

        //  Main event loop
        loop {                        //  Loop forever...
  4a:	e7ff      	b.n	4c <main+0x4c>
/mnt/c/stm32bluepill-mynewt-sensor/src/lib.rs:39
            os_eventq_run(            //  Process events...
                os_eventq_dflt_get()  //  From default event queue.
  4c:	f7ff fffe 	bl	0 <os_eventq_dflt_get>
  50:	9001      	str	r0, [sp, #4]
  52:	e7ff      	b.n	54 <main+0x54>
/mnt/c/stm32bluepill-mynewt-sensor/src/lib.rs:38
            os_eventq_run(            //  Process events...
  54:	9801      	ldr	r0, [sp, #4]
  56:	f7ff fffe 	bl	0 <os_eventq_run>
  5a:	e7ff      	b.n	5c <main+0x5c>
/mnt/c/stm32bluepill-mynewt-sensor/src/lib.rs:37
        loop {                        //  Loop forever...
  5c:	e7f6      	b.n	4c <main+0x4c>

Disassembly of section .text.rust_begin_unwind:

00000000 <rust_begin_unwind>:
rust_begin_unwind():
/mnt/c/stm32bluepill-mynewt-sensor/src/lib.rs:48
    //  Never comes here.
}

///  This function is called on panic. Set a breakpoint here to see the panic details. From https://os.phil-opp.com/freestanding-rust-binary/
#[panic_handler]
fn panic(info: &PanicInfo) -> ! {
   0:	b08a      	sub	sp, #40	; 0x28
   2:	4601      	mov	r1, r0
   4:	9003      	str	r0, [sp, #12]
/mnt/c/stm32bluepill-mynewt-sensor/src/lib.rs:50
    //  Display the filename and line number to the Semihosting Console.
    if let Some(location) = info.location() {
   6:	9803      	ldr	r0, [sp, #12]
   8:	9102      	str	r1, [sp, #8]
   a:	f7ff fffe 	bl	0 <core::panic::PanicInfo::location>
   e:	9005      	str	r0, [sp, #20]
  10:	e7ff      	b.n	12 <rust_begin_unwind+0x12>
  12:	9805      	ldr	r0, [sp, #20]
  14:	2800      	cmp	r0, #0
  16:	d03f      	beq.n	98 <rust_begin_unwind+0x98>
  18:	e7ff      	b.n	1a <rust_begin_unwind+0x1a>
  1a:	9805      	ldr	r0, [sp, #20]
  1c:	9006      	str	r0, [sp, #24]
/mnt/c/stm32bluepill-mynewt-sensor/src/lib.rs:51
        let file = location.file();
  1e:	9806      	ldr	r0, [sp, #24]
  20:	f7ff fffe 	bl	0 <core::panic::Location::file>
  24:	9108      	str	r1, [sp, #32]
  26:	9007      	str	r0, [sp, #28]
  28:	e7ff      	b.n	2a <rust_begin_unwind+0x2a>
/mnt/c/stm32bluepill-mynewt-sensor/src/lib.rs:52
        let line = location.line();
  2a:	9806      	ldr	r0, [sp, #24]
  2c:	f7ff fffe 	bl	0 <core::panic::Location::line>
  30:	9009      	str	r0, [sp, #36]	; 0x24
  32:	e7ff      	b.n	34 <rust_begin_unwind+0x34>
/mnt/c/stm32bluepill-mynewt-sensor/src/lib.rs:53
        console_print(b"panic at ");
  34:	f240 0000 	movw	r0, #0
  38:	f2c0 0000 	movt	r0, #0
  3c:	2109      	movs	r1, #9
  3e:	f7ff fffe 	bl	0 <mylib::base::console_print>
  42:	e7ff      	b.n	44 <rust_begin_unwind+0x44>
/mnt/c/stm32bluepill-mynewt-sensor/src/lib.rs:54
        unsafe { console_buffer(file.as_ptr(), file.len() as u32) }
  44:	9807      	ldr	r0, [sp, #28]
  46:	9908      	ldr	r1, [sp, #32]
  48:	f7ff fffe 	bl	0 <core::str::<impl str>::as_ptr>
  4c:	9001      	str	r0, [sp, #4]
  4e:	e7ff      	b.n	50 <rust_begin_unwind+0x50>
  50:	9807      	ldr	r0, [sp, #28]
  52:	9908      	ldr	r1, [sp, #32]
  54:	f7ff fffe 	bl	0 <core::str::<impl str>::len>
  58:	9000      	str	r0, [sp, #0]
  5a:	e7ff      	b.n	5c <rust_begin_unwind+0x5c>
  5c:	9801      	ldr	r0, [sp, #4]
  5e:	9900      	ldr	r1, [sp, #0]
  60:	f7ff fffe 	bl	0 <console_buffer>
  64:	e7ff      	b.n	2 <rust_begin_unwind+0x2>
/mnt/c/stm32bluepill-mynewt-sensor/src/lib.rs:55
        console_print(b" line 0x");
  66:	f240 0000 	movw	r0, #0
  6a:	f2c0 0000 	movt	r0, #0
  6e:	2108      	movs	r1, #8
  70:	f7ff fffe 	bl	0 <mylib::base::console_print>
  74:	e7ff      	b.n	76 <rust_begin_unwind+0x76>
/mnt/c/stm32bluepill-mynewt-sensor/src/lib.rs:56
        unsafe { console_printhex(line as u8) }  //  TODO: Print in decimal not hex.
  76:	f89d 0024 	ldrb.w	r0, [sp, #36]	; 0x24
  7a:	f7ff fffe 	bl	0 <console_printhex>
  7e:	e7ff      	b.n	2 <rust_begin_unwind+0x2>
/mnt/c/stm32bluepill-mynewt-sensor/src/lib.rs:57
        console_print(b"\n");
  80:	f240 0000 	movw	r0, #0
  84:	f2c0 0000 	movt	r0, #0
  88:	2101      	movs	r1, #1
  8a:	f7ff fffe 	bl	0 <mylib::base::console_print>
  8e:	e7ff      	b.n	2 <console_flush+0x2>
/mnt/c/stm32bluepill-mynewt-sensor/src/lib.rs:58
        unsafe { console_flush() }
  90:	f7ff fffe 	bl	0 <console_flush>
  94:	e7ff      	b.n	96 <rust_begin_unwind+0x96>
/mnt/c/stm32bluepill-mynewt-sensor/src/lib.rs:50
    if let Some(location) = info.location() {
  96:	e00a      	b.n	ae <rust_begin_unwind+0xae>
/mnt/c/stm32bluepill-mynewt-sensor/src/lib.rs:60
    } else {
        console_print(b"panic unknown loc\n");
  98:	f240 0000 	movw	r0, #0
  9c:	f2c0 0000 	movt	r0, #0
  a0:	2112      	movs	r1, #18
  a2:	f7ff fffe 	bl	0 <mylib::base::console_print>
  a6:	e7ff      	b.n	2 <console_flush+0x2>
/mnt/c/stm32bluepill-mynewt-sensor/src/lib.rs:61
        unsafe { console_flush() }
  a8:	f7ff fffe 	bl	0 <console_flush>
  ac:	e7ff      	b.n	ae <rust_begin_unwind+0xae>
/mnt/c/stm32bluepill-mynewt-sensor/src/lib.rs:63
    }
    loop {}
  ae:	e7ff      	b.n	b0 <rust_begin_unwind+0xb0>
  b0:	e7fe      	b.n	b0 <rust_begin_unwind+0xb0>
arm-none-eabi-objdump: rust.metadata.bin: file format not recognized
arm-none-eabi-objdump: mylib-01c8eb6571dba957.12y5xoizfzc3imbb.rcgu.bc.z: file format not recognized
arm-none-eabi-objdump: mylib-01c8eb6571dba957.14772k0d8xjmetqv.rcgu.bc.z: file format not recognized
arm-none-eabi-objdump: mylib-01c8eb6571dba957.1570kja61litwunq.rcgu.bc.z: file format not recognized
arm-none-eabi-objdump: mylib-01c8eb6571dba957.1gar34u4lhxtcpa1.rcgu.bc.z: file format not recognized
arm-none-eabi-objdump: mylib-01c8eb6571dba957.4644zq9yvy8xhapc.rcgu.bc.z: file format not recognized
arm-none-eabi-objdump: mylib-01c8eb6571dba957.xtrnd2f50x208rj.rcgu.bc.z: file format not recognized
