In archive target/thumbv7m-none-eabi/debug/libmylib.rlib:

mylib-b003fcb153d61cda.11mj9j4qeikoz7a8.rcgu.o:     file format elf32-littlearm

SYMBOL TABLE:
00000000 l    df *ABS*	00000000 11mj9j4qeikoz7a8
000002ab l       .debug_str	00000000 
000003c4 l       .debug_str	00000000 
000003ce l       .debug_str	00000000 
000003d2 l       .debug_str	00000000 
00000403 l       .debug_str	00000000 
0000040c l       .debug_str	00000000 
00000411 l       .debug_str	00000000 
00000417 l       .debug_str	00000000 
00000419 l       .debug_str	00000000 
0000041b l       .debug_str	00000000 
0000046e l       .debug_str	00000000 
00000473 l       .debug_str	00000000 
00000000 l       .debug_str	00000000 
00000041 l       .debug_str	00000000 
0000004c l       .debug_str	00000000 
0000007c l       .debug_str	00000000 
00000081 l       .debug_str	00000000 
00000088 l       .debug_str	00000000 
0000008b l       .debug_str	00000000 
0000008e l       .debug_str	00000000 
00000092 l       .debug_str	00000000 
00000099 l       .debug_str	00000000 
0000009d l       .debug_str	00000000 
000000a0 l       .debug_str	00000000 
000000a3 l       .debug_str	00000000 
000000a8 l       .debug_str	00000000 
000000ae l       .debug_str	00000000 
000000b5 l       .debug_str	00000000 
000000bd l       .debug_str	00000000 
000000c7 l       .debug_str	00000000 
000000d0 l       .debug_str	00000000 
000000d6 l       .debug_str	00000000 
000000dc l       .debug_str	00000000 
000000df l       .debug_str	00000000 
000000ee l       .debug_str	00000000 
000000f5 l       .debug_str	00000000 
000000f9 l       .debug_str	00000000 
00000102 l       .debug_str	00000000 
0000010a l       .debug_str	00000000 
00000112 l       .debug_str	00000000 
00000119 l       .debug_str	00000000 
0000011f l       .debug_str	00000000 
00000133 l       .debug_str	00000000 
0000013f l       .debug_str	00000000 
0000014b l       .debug_str	00000000 
0000014d l       .debug_str	00000000 
00000166 l       .debug_str	00000000 
0000016b l       .debug_str	00000000 
0000017c l       .debug_str	00000000 
00000186 l       .debug_str	00000000 
0000018c l       .debug_str	00000000 
00000190 l       .debug_str	00000000 
00000195 l       .debug_str	00000000 
0000019a l       .debug_str	00000000 
000001a0 l       .debug_str	00000000 
000001a6 l       .debug_str	00000000 
000001ad l       .debug_str	00000000 
000001b2 l       .debug_str	00000000 
000001b7 l       .debug_str	00000000 
000001bb l       .debug_str	00000000 
000001c9 l       .debug_str	00000000 
000001d3 l       .debug_str	00000000 
000001d7 l       .debug_str	00000000 
000001e2 l       .debug_str	00000000 
000001e9 l       .debug_str	00000000 
000001ef l       .debug_str	00000000 
000001f3 l       .debug_str	00000000 
00000210 l       .debug_str	00000000 
00000214 l       .debug_str	00000000 
0000021c l       .debug_str	00000000 
00000233 l       .debug_str	00000000 
00000257 l       .debug_str	00000000 
00000273 l       .debug_str	00000000 
00000278 l       .debug_str	00000000 
00000281 l       .debug_str	00000000 
00000288 l       .debug_str	00000000 
000002a1 l       .debug_str	00000000 
000002c5 l       .debug_str	00000000 
00000323 l       .debug_str	00000000 
0000032e l       .debug_str	00000000 
00000331 l       .debug_str	00000000 
0000037b l       .debug_str	00000000 
00000384 l       .debug_str	00000000 
0000038e l       .debug_str	00000000 
00000393 l       .debug_str	00000000 
00000000 l    d  .text._ZN44_$LT$$RF$T$u20$as$u20$core..fmt..Display$GT$3fmt17h4533063c292a1bf4E	00000000 .text._ZN44_$LT$$RF$T$u20$as$u20$core..fmt..Display$GT$3fmt17h4533063c292a1bf4E
00000000 l    d  .text._ZN4core3fmt10ArgumentV13new17hc3a720c8f5dbc78aE	00000000 .text._ZN4core3fmt10ArgumentV13new17hc3a720c8f5dbc78aE
00000000 l    d  .text._ZN4core3fmt10ArgumentV13new17he96b0bb5e87d0237E	00000000 .text._ZN4core3fmt10ArgumentV13new17he96b0bb5e87d0237E
00000000 l    d  .debug_abbrev	00000000 .debug_abbrev
00000000 l    d  .debug_info	00000000 .debug_info
00000000 l    d  .debug_ranges	00000000 .debug_ranges
00000000 l    d  .debug_frame	00000000 .debug_frame
00000000 l    d  .debug_line	00000000 .debug_line
00000000         *UND*	00000000 <str as core::fmt::Display>::fmt
00000000 g     F .text._ZN44_$LT$$RF$T$u20$as$u20$core..fmt..Display$GT$3fmt17h4533063c292a1bf4E	00000034 <&T as core::fmt::Display>::fmt
00000000 g     F .text._ZN4core3fmt10ArgumentV13new17hc3a720c8f5dbc78aE	00000032 core::fmt::ArgumentV1::new
00000000 g     F .text._ZN4core3fmt10ArgumentV13new17he96b0bb5e87d0237E	00000032 core::fmt::ArgumentV1::new



Disassembly of section .text._ZN44_$LT$$RF$T$u20$as$u20$core..fmt..Display$GT$3fmt17h4533063c292a1bf4E:

00000000 <<&T as core::fmt::Display>::fmt>:
_ZN44_$LT$$RF$T$u20$as$u20$core..fmt..Display$GT$3fmt17h4533063c292a1bf4E():
/rustc/50a0defd5a93523067ef239936cc2e0755220904/src/libcore/fmt/mod.rs:1914
   0:	b580      	push	{r7, lr}
   2:	b086      	sub	sp, #24
   4:	460a      	mov	r2, r1
   6:	4603      	mov	r3, r0
   8:	9004      	str	r0, [sp, #16]
   a:	9105      	str	r1, [sp, #20]
   c:	9804      	ldr	r0, [sp, #16]
   e:	6801      	ldr	r1, [r0, #0]
  10:	6840      	ldr	r0, [r0, #4]
  12:	f8dd c014 	ldr.w	ip, [sp, #20]
  16:	9003      	str	r0, [sp, #12]
  18:	4608      	mov	r0, r1
  1a:	9903      	ldr	r1, [sp, #12]
  1c:	9202      	str	r2, [sp, #8]
  1e:	4662      	mov	r2, ip
  20:	9301      	str	r3, [sp, #4]
  22:	f7ff fffe 	bl	0 <<str as core::fmt::Display>::fmt>
  26:	9000      	str	r0, [sp, #0]
  28:	e7ff      	b.n	2a <<&T as core::fmt::Display>::fmt+0x2a>
  2a:	9800      	ldr	r0, [sp, #0]
  2c:	f000 0001 	and.w	r0, r0, #1
  30:	b006      	add	sp, #24
  32:	bd80      	pop	{r7, pc}

Disassembly of section .text._ZN4core3fmt10ArgumentV13new17hc3a720c8f5dbc78aE:

00000000 <core::fmt::ArgumentV1::new>:
_ZN4core3fmt10ArgumentV13new17hc3a720c8f5dbc78aE():
/rustc/50a0defd5a93523067ef239936cc2e0755220904/src/libcore/fmt/mod.rs:278
   0:	b08a      	sub	sp, #40	; 0x28
   2:	460a      	mov	r2, r1
   4:	4603      	mov	r3, r0
   6:	9004      	str	r0, [sp, #16]
   8:	9105      	str	r1, [sp, #20]
/rustc/50a0defd5a93523067ef239936cc2e0755220904/src/libcore/fmt/mod.rs:282
   a:	9805      	ldr	r0, [sp, #20]
   c:	9008      	str	r0, [sp, #32]
   e:	9808      	ldr	r0, [sp, #32]
  10:	9203      	str	r2, [sp, #12]
  12:	9302      	str	r3, [sp, #8]
  14:	9001      	str	r0, [sp, #4]
  16:	e7ff      	b.n	18 <core::fmt::ArgumentV1::new+0x18>
/rustc/50a0defd5a93523067ef239936cc2e0755220904/src/libcore/fmt/mod.rs:283
  18:	9804      	ldr	r0, [sp, #16]
  1a:	9009      	str	r0, [sp, #36]	; 0x24
  1c:	9809      	ldr	r0, [sp, #36]	; 0x24
  1e:	9000      	str	r0, [sp, #0]
  20:	e7ff      	b.n	22 <core::fmt::ArgumentV1::new+0x22>
/rustc/50a0defd5a93523067ef239936cc2e0755220904/src/libcore/fmt/mod.rs:281
  22:	9800      	ldr	r0, [sp, #0]
  24:	9006      	str	r0, [sp, #24]
  26:	9901      	ldr	r1, [sp, #4]
  28:	9107      	str	r1, [sp, #28]
/rustc/50a0defd5a93523067ef239936cc2e0755220904/src/libcore/fmt/mod.rs:286
  2a:	9806      	ldr	r0, [sp, #24]
  2c:	9907      	ldr	r1, [sp, #28]
  2e:	b00a      	add	sp, #40	; 0x28
  30:	4770      	bx	lr

Disassembly of section .text._ZN4core3fmt10ArgumentV13new17he96b0bb5e87d0237E:

00000000 <core::fmt::ArgumentV1::new>:
_ZN4core3fmt10ArgumentV13new17he96b0bb5e87d0237E():
/rustc/50a0defd5a93523067ef239936cc2e0755220904/src/libcore/fmt/mod.rs:278
   0:	b08a      	sub	sp, #40	; 0x28
   2:	460a      	mov	r2, r1
   4:	4603      	mov	r3, r0
   6:	9004      	str	r0, [sp, #16]
   8:	9105      	str	r1, [sp, #20]
/rustc/50a0defd5a93523067ef239936cc2e0755220904/src/libcore/fmt/mod.rs:282
   a:	9805      	ldr	r0, [sp, #20]
   c:	9008      	str	r0, [sp, #32]
   e:	9808      	ldr	r0, [sp, #32]
  10:	9203      	str	r2, [sp, #12]
  12:	9302      	str	r3, [sp, #8]
  14:	9001      	str	r0, [sp, #4]
  16:	e7ff      	b.n	18 <core::fmt::ArgumentV1::new+0x18>
/rustc/50a0defd5a93523067ef239936cc2e0755220904/src/libcore/fmt/mod.rs:283
  18:	9804      	ldr	r0, [sp, #16]
  1a:	9009      	str	r0, [sp, #36]	; 0x24
  1c:	9809      	ldr	r0, [sp, #36]	; 0x24
  1e:	9000      	str	r0, [sp, #0]
  20:	e7ff      	b.n	22 <core::fmt::ArgumentV1::new+0x22>
/rustc/50a0defd5a93523067ef239936cc2e0755220904/src/libcore/fmt/mod.rs:281
  22:	9800      	ldr	r0, [sp, #0]
  24:	9006      	str	r0, [sp, #24]
  26:	9901      	ldr	r1, [sp, #4]
  28:	9107      	str	r1, [sp, #28]
/rustc/50a0defd5a93523067ef239936cc2e0755220904/src/libcore/fmt/mod.rs:286
  2a:	9806      	ldr	r0, [sp, #24]
  2c:	9907      	ldr	r1, [sp, #28]
  2e:	b00a      	add	sp, #40	; 0x28
  30:	4770      	bx	lr

mylib-b003fcb153d61cda.18n9guqs9q0zxh55.rcgu.o:     file format elf32-littlearm

SYMBOL TABLE:
00000000 l    df *ABS*	00000000 18n9guqs9q0zxh55
000001ed l       .debug_str	00000000 
0000016b l       .debug_str	00000000 
000001a3 l       .debug_str	00000000 
000001db l       .debug_str	00000000 
00000229 l       .debug_str	00000000 
00000262 l       .debug_str	00000000 
00000255 l       .debug_str	00000000 
00000250 l       .debug_str	00000000 
00000248 l       .debug_str	00000000 
0000023f l       .debug_str	00000000 
00000000 l       .debug_str	00000000 
00000041 l       .debug_str	00000000 
0000004c l       .debug_str	00000000 
0000007c l       .debug_str	00000000 
00000082 l       .debug_str	00000000 
00000089 l       .debug_str	00000000 
0000009b l       .debug_str	00000000 
000000aa l       .debug_str	00000000 
000000ae l       .debug_str	00000000 
000000b6 l       .debug_str	00000000 
000000ba l       .debug_str	00000000 
000000be l       .debug_str	00000000 
000000c8 l       .debug_str	00000000 
000000d2 l       .debug_str	00000000 
000000d8 l       .debug_str	00000000 
000000f4 l       .debug_str	00000000 
0000014d l       .debug_str	00000000 
00000154 l       .debug_str	00000000 
0000015c l       .debug_str	00000000 
00000000 l     O .rodata..Lanon.061914168654b3d2aef4baac020860b9.2	00000018 .Lanon.061914168654b3d2aef4baac020860b9.2
00000000 l     O .data._ZN5mylib6sensor17LISTENER_INTERNAL17h869a4bbc3ef7a70eE	00000018 mylib::sensor::LISTENER_INTERNAL
00000000 l     F .text._ZN5mylib6sensor21null_sensor_data_func17hed0345933409d3ecE	0000002a mylib::sensor::null_sensor_data_func
00000000 l    d  .text._ZN5mylib6sensor17register_listener17hcfc70760fee1324fE	00000000 .text._ZN5mylib6sensor17register_listener17hcfc70760fee1324fE
00000000 l    d  .text._ZN5mylib6sensor21null_sensor_data_func17hed0345933409d3ecE	00000000 .text._ZN5mylib6sensor21null_sensor_data_func17hed0345933409d3ecE
00000000 l    d  .rodata..Lanon.061914168654b3d2aef4baac020860b9.0	00000000 .rodata..Lanon.061914168654b3d2aef4baac020860b9.0
00000000 l    d  .rodata..Lanon.061914168654b3d2aef4baac020860b9.1	00000000 .rodata..Lanon.061914168654b3d2aef4baac020860b9.1
00000000 l    d  .data._ZN5mylib6sensor17LISTENER_INTERNAL17h869a4bbc3ef7a70eE	00000000 .data._ZN5mylib6sensor17LISTENER_INTERNAL17h869a4bbc3ef7a70eE
00000000 l    d  .debug_loc	00000000 .debug_loc
00000000 l    d  .debug_abbrev	00000000 .debug_abbrev
00000000 l    d  .debug_info	00000000 .debug_info
00000000 l    d  .debug_ranges	00000000 .debug_ranges
00000000 l    d  .debug_frame	00000000 .debug_frame
00000000 l    d  .debug_line	00000000 .debug_line
00000000         *UND*	00000000 core::panicking::panic
00000000 g     F .text._ZN5mylib6sensor17register_listener17hcfc70760fee1324fE	0000005e .hidden mylib::sensor::register_listener
00000000         *UND*	00000000 sensor_register_listener



Disassembly of section .text._ZN5mylib6sensor17register_listener17hcfc70760fee1324fE:

00000000 <mylib::sensor::register_listener>:
_ZN5mylib6sensor17register_listener17hcfc70760fee1324fE():
/Users/Luppy/mynewt/stm32bluepill-mynewt-sensor/src/sensor.rs:14
///  for the sensor listener structure.
///
///  `sensor`: The sensor to register a listener on.
///  `listener`: The listener to register onto the sensor.
///  Return 0 on success, non-zero error code on failure.
pub fn register_listener(sensor: SensorPtr, listener: SensorListener) -> i32 {    
   0:	b570      	push	{r4, r5, r6, lr}
   2:	b08a      	sub	sp, #40	; 0x28
   4:	4602      	mov	r2, r0
   6:	9003      	str	r0, [sp, #12]
/Users/Luppy/mynewt/stm32bluepill-mynewt-sensor/src/sensor.rs:15
    unsafe { assert!(LISTENER_INTERNAL.sl_sensor_type == 0) };  //  Make sure it's not used.
   8:	f240 0000 	movw	r0, #0
   c:	f2c0 0000 	movt	r0, #0
  10:	6803      	ldr	r3, [r0, #0]
  12:	6840      	ldr	r0, [r0, #4]
  14:	4318      	orrs	r0, r3
  16:	2800      	cmp	r0, #0
  18:	9102      	str	r1, [sp, #8]
  1a:	9201      	str	r2, [sp, #4]
  1c:	d007      	beq.n	2e <mylib::sensor::register_listener+0x2e>
  1e:	e7ff      	b.n	20 <mylib::sensor::register_listener+0x20>
  20:	f240 0000 	movw	r0, #0
  24:	f2c0 0000 	movt	r0, #0
  28:	f7ff fffe 	bl	0 <core::panicking::panic>
  2c:	defe      	udf	#254	; 0xfe
  2e:	a804      	add	r0, sp, #16
/Users/Luppy/mynewt/stm32bluepill-mynewt-sensor/src/sensor.rs:17
    //  Copy the caller's listener to the internal listener.
    unsafe { LISTENER_INTERNAL = listener };
  30:	9902      	ldr	r1, [sp, #8]
  32:	4602      	mov	r2, r0
  34:	e891 5078 	ldmia.w	r1, {r3, r4, r5, r6, ip, lr}
  38:	e882 5078 	stmia.w	r2, {r3, r4, r5, r6, ip, lr}
  3c:	f240 0100 	movw	r1, #0
  40:	f2c0 0100 	movt	r1, #0
  44:	460a      	mov	r2, r1
  46:	e890 5078 	ldmia.w	r0, {r3, r4, r5, r6, ip, lr}
  4a:	e882 5078 	stmia.w	r2, {r3, r4, r5, r6, ip, lr}
/Users/Luppy/mynewt/stm32bluepill-mynewt-sensor/src/sensor.rs:19
    //  Pass the internal listener to the unsafe Mynewt API.
    unsafe { sensor_register_listener(sensor, &mut LISTENER_INTERNAL) }
  4e:	9803      	ldr	r0, [sp, #12]
  50:	f7ff fffe 	bl	0 <sensor_register_listener>
  54:	9000      	str	r0, [sp, #0]
  56:	e7ff      	b.n	58 <mylib::sensor::register_listener+0x58>
/Users/Luppy/mynewt/stm32bluepill-mynewt-sensor/src/sensor.rs:20
}
  58:	9800      	ldr	r0, [sp, #0]
  5a:	b00a      	add	sp, #40	; 0x28
  5c:	bd70      	pop	{r4, r5, r6, pc}

Disassembly of section .text._ZN5mylib6sensor21null_sensor_data_func17hed0345933409d3ecE:

00000000 <mylib::sensor::null_sensor_data_func>:
_ZN5mylib6sensor21null_sensor_data_func17hed0345933409d3ecE():
/Users/Luppy/mynewt/stm32bluepill-mynewt-sensor/src/sensor.rs:33
    sl_arg        : 0,
    sl_next       : 0,
};

///  Define a dummy sensor data function in case there is none.
extern fn null_sensor_data_func(_sensor: SensorPtr, _arg: SensorArg, _sensor_data: SensorDataPtr, _sensor_type: SensorType) -> i32 { 0 }
   0:	b5b0      	push	{r4, r5, r7, lr}
   2:	b088      	sub	sp, #32
   4:	9b0d      	ldr	r3, [sp, #52]	; 0x34
   6:	f8dd c030 	ldr.w	ip, [sp, #48]	; 0x30
   a:	4696      	mov	lr, r2
   c:	460c      	mov	r4, r1
   e:	4605      	mov	r5, r0
  10:	9003      	str	r0, [sp, #12]
  12:	9104      	str	r1, [sp, #16]
  14:	9205      	str	r2, [sp, #20]
  16:	9307      	str	r3, [sp, #28]
  18:	f8cd c018 	str.w	ip, [sp, #24]
  1c:	2000      	movs	r0, #0
  1e:	f8cd e008 	str.w	lr, [sp, #8]
  22:	9401      	str	r4, [sp, #4]
  24:	9500      	str	r5, [sp, #0]
  26:	b008      	add	sp, #32
  28:	bdb0      	pop	{r4, r5, r7, pc}

mylib-b003fcb153d61cda.1cv7y0mzu4zroe8s.rcgu.o:     file format elf32-littlearm

SYMBOL TABLE:
00000000 l    df *ABS*	00000000 1cv7y0mzu4zroe8s
00000244 l       .debug_str	00000000 
0000034d l       .debug_str	00000000 
00000352 l       .debug_str	00000000 
0000035b l       .debug_str	00000000 
00000362 l       .debug_str	00000000 
0000037b l       .debug_str	00000000 
00000385 l       .debug_str	00000000 
00000000 l       .debug_str	00000000 
00000041 l       .debug_str	00000000 
0000004c l       .debug_str	00000000 
0000007c l       .debug_str	00000000 
00000081 l       .debug_str	00000000 
00000088 l       .debug_str	00000000 
0000008b l       .debug_str	00000000 
0000008e l       .debug_str	00000000 
00000092 l       .debug_str	00000000 
00000099 l       .debug_str	00000000 
0000009d l       .debug_str	00000000 
000000a0 l       .debug_str	00000000 
000000a3 l       .debug_str	00000000 
000000a8 l       .debug_str	00000000 
000000ae l       .debug_str	00000000 
000000b5 l       .debug_str	00000000 
000000bd l       .debug_str	00000000 
000000c7 l       .debug_str	00000000 
000000cb l       .debug_str	00000000 
000000d4 l       .debug_str	00000000 
00000131 l       .debug_str	00000000 
00000136 l       .debug_str	00000000 
0000013a l       .debug_str	00000000 
0000013f l       .debug_str	00000000 
00000141 l       .debug_str	00000000 
00000147 l       .debug_str	00000000 
0000014b l       .debug_str	00000000 
00000150 l       .debug_str	00000000 
00000155 l       .debug_str	00000000 
0000015b l       .debug_str	00000000 
00000161 l       .debug_str	00000000 
00000168 l       .debug_str	00000000 
0000016d l       .debug_str	00000000 
00000173 l       .debug_str	00000000 
00000175 l       .debug_str	00000000 
0000017a l       .debug_str	00000000 
0000017e l       .debug_str	00000000 
0000018c l       .debug_str	00000000 
00000196 l       .debug_str	00000000 
0000019a l       .debug_str	00000000 
000001a2 l       .debug_str	00000000 
000001aa l       .debug_str	00000000 
000001b1 l       .debug_str	00000000 
000001c5 l       .debug_str	00000000 
000001d1 l       .debug_str	00000000 
000001dc l       .debug_str	00000000 
000001e3 l       .debug_str	00000000 
000001e9 l       .debug_str	00000000 
000001ed l       .debug_str	00000000 
000001f3 l       .debug_str	00000000 
000001f9 l       .debug_str	00000000 
000001fc l       .debug_str	00000000 
0000020b l       .debug_str	00000000 
00000212 l       .debug_str	00000000 
00000216 l       .debug_str	00000000 
0000021f l       .debug_str	00000000 
0000022b l       .debug_str	00000000 
00000249 l       .debug_str	00000000 
0000025a l       .debug_str	00000000 
00000264 l       .debug_str	00000000 
000002c2 l       .debug_str	00000000 
000002cd l       .debug_str	00000000 
000002ea l       .debug_str	00000000 
000002ee l       .debug_str	00000000 
000002f6 l       .debug_str	00000000 
0000030d l       .debug_str	00000000 
00000331 l       .debug_str	00000000 
00000000 l    d  .text._ZN4core3fmt3num50_$LT$impl$u20$core..fmt..Debug$u20$for$u20$i32$GT$3fmt17h9e3ddf3b71073729E	00000000 .text._ZN4core3fmt3num50_$LT$impl$u20$core..fmt..Debug$u20$for$u20$i32$GT$3fmt17h9e3ddf3b71073729E
00000000 l    d  .debug_abbrev	00000000 .debug_abbrev
00000000 l    d  .debug_info	00000000 .debug_info
00000000 l    d  .debug_frame	00000000 .debug_frame
00000000 l    d  .debug_line	00000000 .debug_line
00000000         *UND*	00000000 core::fmt::num::imp::<impl core::fmt::Display for i32>::fmt
00000000 g     F .text._ZN4core3fmt3num50_$LT$impl$u20$core..fmt..Debug$u20$for$u20$i32$GT$3fmt17h9e3ddf3b71073729E	00000072 .hidden core::fmt::num::<impl core::fmt::Debug for i32>::fmt
00000000         *UND*	00000000 core::fmt::num::<impl core::fmt::LowerHex for i32>::fmt
00000000         *UND*	00000000 core::fmt::num::<impl core::fmt::UpperHex for i32>::fmt
00000000         *UND*	00000000 core::fmt::Formatter::debug_lower_hex
00000000         *UND*	00000000 core::fmt::Formatter::debug_upper_hex



Disassembly of section .text._ZN4core3fmt3num50_$LT$impl$u20$core..fmt..Debug$u20$for$u20$i32$GT$3fmt17h9e3ddf3b71073729E:

00000000 <core::fmt::num::<impl core::fmt::Debug for i32>::fmt>:
_ZN4core3fmt3num50_$LT$impl$u20$core..fmt..Debug$u20$for$u20$i32$GT$3fmt17h9e3ddf3b71073729E():
/rustc/50a0defd5a93523067ef239936cc2e0755220904/src/libcore/fmt/num.rs:146
   0:	b580      	push	{r7, lr}
   2:	b088      	sub	sp, #32
   4:	460a      	mov	r2, r1
   6:	4603      	mov	r3, r0
   8:	9005      	str	r0, [sp, #20]
   a:	9106      	str	r1, [sp, #24]
/rustc/50a0defd5a93523067ef239936cc2e0755220904/src/libcore/fmt/num.rs:147
   c:	9806      	ldr	r0, [sp, #24]
   e:	9204      	str	r2, [sp, #16]
  10:	9303      	str	r3, [sp, #12]
  12:	f7ff fffe 	bl	0 <core::fmt::Formatter::debug_lower_hex>
  16:	9002      	str	r0, [sp, #8]
  18:	e7ff      	b.n	1a <core::fmt::num::<impl core::fmt::Debug for i32>::fmt+0x1a>
  1a:	9802      	ldr	r0, [sp, #8]
  1c:	07c1      	lsls	r1, r0, #31
  1e:	2900      	cmp	r1, #0
  20:	d008      	beq.n	34 <core::fmt::num::<impl core::fmt::Debug for i32>::fmt+0x34>
  22:	e7ff      	b.n	24 <core::fmt::num::<impl core::fmt::Debug for i32>::fmt+0x24>
/rustc/50a0defd5a93523067ef239936cc2e0755220904/src/libcore/fmt/num.rs:148
  24:	9805      	ldr	r0, [sp, #20]
  26:	9906      	ldr	r1, [sp, #24]
  28:	f7ff fffe 	bl	0 <core::fmt::num::<impl core::fmt::LowerHex for i32>::fmt>
  2c:	f88d 001f 	strb.w	r0, [sp, #31]
  30:	e7ff      	b.n	32 <core::fmt::num::<impl core::fmt::Debug for i32>::fmt+0x32>
/rustc/50a0defd5a93523067ef239936cc2e0755220904/src/libcore/fmt/num.rs:147
  32:	e01a      	b.n	6a <core::fmt::num::<impl core::fmt::Debug for i32>::fmt+0x6a>
/rustc/50a0defd5a93523067ef239936cc2e0755220904/src/libcore/fmt/num.rs:149
  34:	9806      	ldr	r0, [sp, #24]
  36:	f7ff fffe 	bl	0 <core::fmt::Formatter::debug_upper_hex>
  3a:	9001      	str	r0, [sp, #4]
  3c:	e7ff      	b.n	3e <core::fmt::num::<impl core::fmt::Debug for i32>::fmt+0x3e>
  3e:	9801      	ldr	r0, [sp, #4]
  40:	07c1      	lsls	r1, r0, #31
  42:	2900      	cmp	r1, #0
  44:	d008      	beq.n	58 <core::fmt::num::<impl core::fmt::Debug for i32>::fmt+0x58>
  46:	e7ff      	b.n	48 <core::fmt::num::<impl core::fmt::Debug for i32>::fmt+0x48>
/rustc/50a0defd5a93523067ef239936cc2e0755220904/src/libcore/fmt/num.rs:150
  48:	9805      	ldr	r0, [sp, #20]
  4a:	9906      	ldr	r1, [sp, #24]
  4c:	f7ff fffe 	bl	0 <core::fmt::num::<impl core::fmt::UpperHex for i32>::fmt>
  50:	f88d 001f 	strb.w	r0, [sp, #31]
  54:	e7ff      	b.n	56 <core::fmt::num::<impl core::fmt::Debug for i32>::fmt+0x56>
/rustc/50a0defd5a93523067ef239936cc2e0755220904/src/libcore/fmt/num.rs:149
  56:	e007      	b.n	68 <core::fmt::num::<impl core::fmt::Debug for i32>::fmt+0x68>
/rustc/50a0defd5a93523067ef239936cc2e0755220904/src/libcore/fmt/num.rs:152
  58:	9805      	ldr	r0, [sp, #20]
  5a:	9906      	ldr	r1, [sp, #24]
  5c:	f7ff fffe 	bl	0 <core::fmt::num::imp::<impl core::fmt::Display for i32>::fmt>
  60:	f88d 001f 	strb.w	r0, [sp, #31]
  64:	e7ff      	b.n	66 <core::fmt::num::<impl core::fmt::Debug for i32>::fmt+0x66>
/rustc/50a0defd5a93523067ef239936cc2e0755220904/src/libcore/fmt/num.rs:149
  66:	e7ff      	b.n	68 <core::fmt::num::<impl core::fmt::Debug for i32>::fmt+0x68>
/rustc/50a0defd5a93523067ef239936cc2e0755220904/src/libcore/fmt/num.rs:147
  68:	e7ff      	b.n	6a <core::fmt::num::<impl core::fmt::Debug for i32>::fmt+0x6a>
/rustc/50a0defd5a93523067ef239936cc2e0755220904/src/libcore/fmt/num.rs:154
  6a:	f89d 001f 	ldrb.w	r0, [sp, #31]
  6e:	b008      	add	sp, #32
  70:	bd80      	pop	{r7, pc}

mylib-b003fcb153d61cda.23l0w0pq083mtt57.rcgu.o:     file format elf32-littlearm

SYMBOL TABLE:
00000000 l    df *ABS*	00000000 23l0w0pq083mtt57
00000175 l       .debug_str	00000000 
00000149 l       .debug_str	00000000 
0000014d l       .debug_str	00000000 
00000156 l       .debug_str	00000000 
00000159 l       .debug_str	00000000 
00000163 l       .debug_str	00000000 
0000016a l       .debug_str	00000000 
00000170 l       .debug_str	00000000 
0000017b l       .debug_str	00000000 
00000180 l       .debug_str	00000000 
00000186 l       .debug_str	00000000 
0000018b l       .debug_str	00000000 
00000190 l       .debug_str	00000000 
00000195 l       .debug_str	00000000 
00000197 l       .debug_str	00000000 
00000000 l       .debug_str	00000000 
00000041 l       .debug_str	00000000 
0000004c l       .debug_str	00000000 
0000007c l       .debug_str	00000000 
00000081 l       .debug_str	00000000 
00000088 l       .debug_str	00000000 
0000008c l       .debug_str	00000000 
0000008f l       .debug_str	00000000 
00000093 l       .debug_str	00000000 
00000096 l       .debug_str	00000000 
00000098 l       .debug_str	00000000 
0000009c l       .debug_str	00000000 
0000009e l       .debug_str	00000000 
000000a2 l       .debug_str	00000000 
000000b2 l       .debug_str	00000000 
000000e5 l       .debug_str	00000000 
000000f8 l       .debug_str	00000000 
000000fa l       .debug_str	00000000 
0000013a l       .debug_str	00000000 
00000000 l     O .rodata..Lanon.fb57867c0819510d004bf1187bb70872.2	00000010 .Lanon.fb57867c0819510d004bf1187bb70872.2
00000000 l     O .rodata..Lanon.fb57867c0819510d004bf1187bb70872.4	00000010 .Lanon.fb57867c0819510d004bf1187bb70872.4
00000000 l    d  .text._ZN4core6result13unwrap_failed17h3e7d0765ad747786E	00000000 .text._ZN4core6result13unwrap_failed17h3e7d0765ad747786E
00000000 l    d  .text._ZN4core6result19Result$LT$T$C$E$GT$6expect17hd036ff3d7a4f372eE	00000000 .text._ZN4core6result19Result$LT$T$C$E$GT$6expect17hd036ff3d7a4f372eE
00000000 l    d  .rodata..Lanon.fb57867c0819510d004bf1187bb70872.0	00000000 .rodata..Lanon.fb57867c0819510d004bf1187bb70872.0
00000000 l    d  .rodata..Lanon.fb57867c0819510d004bf1187bb70872.1	00000000 .rodata..Lanon.fb57867c0819510d004bf1187bb70872.1
00000000 l    d  .rodata..Lanon.fb57867c0819510d004bf1187bb70872.3	00000000 .rodata..Lanon.fb57867c0819510d004bf1187bb70872.3
00000000 l    d  .debug_abbrev	00000000 .debug_abbrev
00000000 l    d  .debug_info	00000000 .debug_info
00000000 l    d  .debug_ranges	00000000 .debug_ranges
00000000 l    d  .debug_frame	00000000 .debug_frame
00000000 l    d  .debug_line	00000000 .debug_line
00000000         *UND*	00000000 <&T as core::fmt::Display>::fmt
00000000         *UND*	00000000 core::fmt::ArgumentV1::new
00000000         *UND*	00000000 core::fmt::ArgumentV1::new
00000000         *UND*	00000000 .hidden core::fmt::num::<impl core::fmt::Debug for i32>::fmt
00000000         *UND*	00000000 .hidden core::fmt::Arguments::new_v1
00000000 g     F .text._ZN4core6result13unwrap_failed17h3e7d0765ad747786E	0000008e core::result::unwrap_failed
00000000 g     F .text._ZN4core6result19Result$LT$T$C$E$GT$6expect17hd036ff3d7a4f372eE	00000052 core::result::Result<T,E>::expect
00000000         *UND*	00000000 core::panicking::panic_fmt



Disassembly of section .text._ZN4core6result13unwrap_failed17h3e7d0765ad747786E:

00000000 <core::result::unwrap_failed>:
_ZN4core6result13unwrap_failed17h3e7d0765ad747786E():
/rustc/50a0defd5a93523067ef239936cc2e0755220904/src/libcore/result.rs:998
   0:	b09a      	sub	sp, #104	; 0x68
   2:	4613      	mov	r3, r2
   4:	468c      	mov	ip, r1
   6:	4686      	mov	lr, r0
   8:	9009      	str	r0, [sp, #36]	; 0x24
   a:	910a      	str	r1, [sp, #40]	; 0x28
   c:	920b      	str	r2, [sp, #44]	; 0x2c
   e:	a809      	add	r0, sp, #36	; 0x24
/rustc/50a0defd5a93523067ef239936cc2e0755220904/src/libcore/result.rs:999
  10:	9016      	str	r0, [sp, #88]	; 0x58
  12:	a80b      	add	r0, sp, #44	; 0x2c
  14:	9017      	str	r0, [sp, #92]	; 0x5c
/Users/Luppy/mynewt/stm32bluepill-mynewt-sensor/src/lib.rs:1
//!  Sensor app that reads sensor data from a temperature sensor and sends the sensor data to a CoAP server or Collector Node.
  16:	9816      	ldr	r0, [sp, #88]	; 0x58
  18:	9018      	str	r0, [sp, #96]	; 0x60
  1a:	9817      	ldr	r0, [sp, #92]	; 0x5c
  1c:	9019      	str	r0, [sp, #100]	; 0x64
/rustc/50a0defd5a93523067ef239936cc2e0755220904/src/libcore/result.rs:999
  1e:	9818      	ldr	r0, [sp, #96]	; 0x60
/rustc/50a0defd5a93523067ef239936cc2e0755220904/src/libcore/macros.rs:18
  20:	f240 0100 	movw	r1, #0
  24:	f2c0 0100 	movt	r1, #0
  28:	9308      	str	r3, [sp, #32]
  2a:	f8cd c01c 	str.w	ip, [sp, #28]
  2e:	f8cd e018 	str.w	lr, [sp, #24]
  32:	f7ff fffe 	bl	0 <core::fmt::ArgumentV1::new>
  36:	9005      	str	r0, [sp, #20]
  38:	9104      	str	r1, [sp, #16]
  3a:	e7ff      	b.n	3c <core::result::unwrap_failed+0x3c>
/rustc/50a0defd5a93523067ef239936cc2e0755220904/src/libcore/result.rs:999
  3c:	9819      	ldr	r0, [sp, #100]	; 0x64
/rustc/50a0defd5a93523067ef239936cc2e0755220904/src/libcore/macros.rs:18
  3e:	f240 0100 	movw	r1, #0
  42:	f2c0 0100 	movt	r1, #0
  46:	f7ff fffe 	bl	0 <core::fmt::ArgumentV1::new>
  4a:	9003      	str	r0, [sp, #12]
  4c:	9102      	str	r1, [sp, #8]
  4e:	e7ff      	b.n	50 <core::result::unwrap_failed+0x50>
/rustc/50a0defd5a93523067ef239936cc2e0755220904/src/libcore/result.rs:999
  50:	9805      	ldr	r0, [sp, #20]
  52:	9012      	str	r0, [sp, #72]	; 0x48
  54:	9904      	ldr	r1, [sp, #16]
  56:	9113      	str	r1, [sp, #76]	; 0x4c
  58:	9a03      	ldr	r2, [sp, #12]
  5a:	9214      	str	r2, [sp, #80]	; 0x50
  5c:	9b02      	ldr	r3, [sp, #8]
  5e:	9315      	str	r3, [sp, #84]	; 0x54
/rustc/50a0defd5a93523067ef239936cc2e0755220904/src/libcore/macros.rs:18
  60:	46ec      	mov	ip, sp
  62:	f04f 0e02 	mov.w	lr, #2
  66:	f8cc e000 	str.w	lr, [ip]
  6a:	f240 0100 	movw	r1, #0
  6e:	f2c0 0100 	movt	r1, #0
  72:	a80c      	add	r0, sp, #48	; 0x30
  74:	ab12      	add	r3, sp, #72	; 0x48
  76:	4672      	mov	r2, lr
  78:	f7ff fffe 	bl	0 <core::fmt::Arguments::new_v1>
  7c:	e7ff      	b.n	2 <core::result::unwrap_failed+0x2>
  7e:	f240 0100 	movw	r1, #0
  82:	f2c0 0100 	movt	r1, #0
  86:	a80c      	add	r0, sp, #48	; 0x30
  88:	f7ff fffe 	bl	0 <core::panicking::panic_fmt>
  8c:	defe      	udf	#254	; 0xfe

Disassembly of section .text._ZN4core6result19Result$LT$T$C$E$GT$6expect17hd036ff3d7a4f372eE:

00000000 <core::result::Result<T,E>::expect>:
_ZN4core6result19Result$LT$T$C$E$GT$6expect17hd036ff3d7a4f372eE():
/rustc/50a0defd5a93523067ef239936cc2e0755220904/src/libcore/result.rs:824
   0:	b5b0      	push	{r4, r5, r7, lr}
   2:	b08c      	sub	sp, #48	; 0x30
   4:	469c      	mov	ip, r3
   6:	4696      	mov	lr, r2
   8:	460c      	mov	r4, r1
   a:	4605      	mov	r5, r0
   c:	9006      	str	r0, [sp, #24]
   e:	9107      	str	r1, [sp, #28]
  10:	9208      	str	r2, [sp, #32]
  12:	9309      	str	r3, [sp, #36]	; 0x24
/rustc/50a0defd5a93523067ef239936cc2e0755220904/src/libcore/result.rs:826
  14:	9806      	ldr	r0, [sp, #24]
  16:	2800      	cmp	r0, #0
  18:	f8cd c014 	str.w	ip, [sp, #20]
  1c:	f8cd e010 	str.w	lr, [sp, #16]
  20:	9403      	str	r4, [sp, #12]
  22:	9502      	str	r5, [sp, #8]
  24:	9001      	str	r0, [sp, #4]
  26:	d005      	beq.n	34 <core::result::Result<T,E>::expect+0x34>
  28:	e7ff      	b.n	2a <core::result::Result<T,E>::expect+0x2a>
  2a:	9801      	ldr	r0, [sp, #4]
  2c:	2801      	cmp	r0, #1
  2e:	d005      	beq.n	3c <core::result::Result<T,E>::expect+0x3c>
  30:	e7ff      	b.n	32 <core::result::Result<T,E>::expect+0x32>
/rustc/50a0defd5a93523067ef239936cc2e0755220904/src/libcore/result.rs:829
  32:	defe      	udf	#254	; 0xfe
  34:	9806      	ldr	r0, [sp, #24]
  36:	2800      	cmp	r0, #0
  38:	d008      	beq.n	4c <core::result::Result<T,E>::expect+0x4c>
  3a:	e009      	b.n	50 <core::result::Result<T,E>::expect+0x50>
/rustc/50a0defd5a93523067ef239936cc2e0755220904/src/libcore/result.rs:827
  3c:	9807      	ldr	r0, [sp, #28]
  3e:	900b      	str	r0, [sp, #44]	; 0x2c
  40:	9808      	ldr	r0, [sp, #32]
  42:	9909      	ldr	r1, [sp, #36]	; 0x24
  44:	9a0b      	ldr	r2, [sp, #44]	; 0x2c
  46:	f7ff fffe 	bl	0 <core::result::Result<T,E>::expect>
  4a:	defe      	udf	#254	; 0xfe
/rustc/50a0defd5a93523067ef239936cc2e0755220904/src/libcore/result.rs:829
  4c:	b00c      	add	sp, #48	; 0x30
  4e:	bdb0      	pop	{r4, r5, r7, pc}
  50:	e7fc      	b.n	4c <core::result::Result<T,E>::expect+0x4c>

mylib-b003fcb153d61cda.2szhknqr18qd3cbm.rcgu.o:     file format elf32-littlearm

SYMBOL TABLE:
00000000 l    df *ABS*	00000000 2szhknqr18qd3cbm
00000147 l       .debug_str	00000000 
0000010b l       .debug_str	00000000 
0000014b l       .debug_str	00000000 
0000018a l       .debug_str	00000000 
00000000 l       .debug_str	00000000 
00000041 l       .debug_str	00000000 
0000004c l       .debug_str	00000000 
0000007c l       .debug_str	00000000 
00000081 l       .debug_str	00000000 
00000085 l       .debug_str	00000000 
0000008e l       .debug_str	00000000 
000000cf l       .debug_str	00000000 
000000d8 l       .debug_str	00000000 
000000e1 l       .debug_str	00000000 
000000e4 l       .debug_str	00000000 
000000ee l       .debug_str	00000000 
000000f5 l       .debug_str	00000000 
000000fb l       .debug_str	00000000 
00000101 l       .debug_str	00000000 
00000106 l       .debug_str	00000000 
00000000 l    d  .text._ZN4core3str21_$LT$impl$u20$str$GT$3len17h30fb15763e3d167dE	00000000 .text._ZN4core3str21_$LT$impl$u20$str$GT$3len17h30fb15763e3d167dE
00000000 l    d  .text._ZN4core3str21_$LT$impl$u20$str$GT$6as_ptr17hd8ab2824414c1d90E	00000000 .text._ZN4core3str21_$LT$impl$u20$str$GT$6as_ptr17hd8ab2824414c1d90E
00000000 l    d  .debug_abbrev	00000000 .debug_abbrev
00000000 l    d  .debug_info	00000000 .debug_info
00000000 l    d  .debug_ranges	00000000 .debug_ranges
00000000 l    d  .debug_frame	00000000 .debug_frame
00000000 l    d  .debug_line	00000000 .debug_line
00000000 g     F .text._ZN4core3str21_$LT$impl$u20$str$GT$3len17h30fb15763e3d167dE	0000003c .hidden core::str::<impl str>::len
00000000 g     F .text._ZN4core3str21_$LT$impl$u20$str$GT$6as_ptr17hd8ab2824414c1d90E	00000014 .hidden core::str::<impl str>::as_ptr
00000000         *UND*	00000000 core::slice::<impl [T]>::len



Disassembly of section .text._ZN4core3str21_$LT$impl$u20$str$GT$3len17h30fb15763e3d167dE:

00000000 <core::str::<impl str>::len>:
_ZN4core3str21_$LT$impl$u20$str$GT$3len17h30fb15763e3d167dE():
/rustc/50a0defd5a93523067ef239936cc2e0755220904/src/libcore/str/mod.rs:2070
   0:	b580      	push	{r7, lr}
   2:	b08c      	sub	sp, #48	; 0x30
   4:	460a      	mov	r2, r1
   6:	4603      	mov	r3, r0
   8:	9006      	str	r0, [sp, #24]
   a:	9107      	str	r1, [sp, #28]
/rustc/50a0defd5a93523067ef239936cc2e0755220904/src/libcore/str/mod.rs:2071
   c:	9806      	ldr	r0, [sp, #24]
   e:	9907      	ldr	r1, [sp, #28]
  10:	9008      	str	r0, [sp, #32]
  12:	9109      	str	r1, [sp, #36]	; 0x24
_ZN4core3str21_$LT$impl$u20$str$GT$8as_bytes17hbca31947ef6ad219E():
/rustc/50a0defd5a93523067ef239936cc2e0755220904/src/libcore/str/mod.rs:2153
  14:	9808      	ldr	r0, [sp, #32]
  16:	9909      	ldr	r1, [sp, #36]	; 0x24
  18:	900a      	str	r0, [sp, #40]	; 0x28
  1a:	910b      	str	r1, [sp, #44]	; 0x2c
  1c:	980a      	ldr	r0, [sp, #40]	; 0x28
  1e:	990b      	ldr	r1, [sp, #44]	; 0x2c
_ZN4core3str21_$LT$impl$u20$str$GT$3len17h30fb15763e3d167dE():
/rustc/50a0defd5a93523067ef239936cc2e0755220904/src/libcore/str/mod.rs:2071
  20:	9205      	str	r2, [sp, #20]
  22:	9304      	str	r3, [sp, #16]
  24:	9003      	str	r0, [sp, #12]
  26:	9102      	str	r1, [sp, #8]
  28:	e7ff      	b.n	2a <core::str::<impl str>::len+0x2a>
  2a:	9803      	ldr	r0, [sp, #12]
  2c:	9902      	ldr	r1, [sp, #8]
  2e:	f7ff fffe 	bl	0 <core::slice::<impl [T]>::len>
  32:	9001      	str	r0, [sp, #4]
  34:	e7ff      	b.n	36 <core::str::<impl str>::len+0x36>
/rustc/50a0defd5a93523067ef239936cc2e0755220904/src/libcore/str/mod.rs:2072
  36:	9801      	ldr	r0, [sp, #4]
  38:	b00c      	add	sp, #48	; 0x30
  3a:	bd80      	pop	{r7, pc}

Disassembly of section .text._ZN4core3str21_$LT$impl$u20$str$GT$6as_ptr17hd8ab2824414c1d90E:

00000000 <core::str::<impl str>::as_ptr>:
_ZN4core3str21_$LT$impl$u20$str$GT$6as_ptr17hd8ab2824414c1d90E():
/rustc/50a0defd5a93523067ef239936cc2e0755220904/src/libcore/str/mod.rs:2217
   0:	b084      	sub	sp, #16
   2:	460a      	mov	r2, r1
   4:	4603      	mov	r3, r0
   6:	9002      	str	r0, [sp, #8]
   8:	9103      	str	r1, [sp, #12]
/rustc/50a0defd5a93523067ef239936cc2e0755220904/src/libcore/str/mod.rs:2218
   a:	9802      	ldr	r0, [sp, #8]
/rustc/50a0defd5a93523067ef239936cc2e0755220904/src/libcore/str/mod.rs:2219
   c:	9201      	str	r2, [sp, #4]
   e:	9300      	str	r3, [sp, #0]
  10:	b004      	add	sp, #16
  12:	4770      	bx	lr

mylib-b003fcb153d61cda.33mbow37mj95xlhx.rcgu.o:     file format elf32-littlearm

SYMBOL TABLE:
00000000 l    df *ABS*	00000000 33mbow37mj95xlhx
000002b0 l       .debug_str	00000000 
000003cd l       .debug_str	00000000 
000003d8 l       .debug_str	00000000 
000003f5 l       .debug_str	00000000 
0000040e l       .debug_str	00000000 
00000418 l       .debug_str	00000000 
0000044a l       .debug_str	00000000 
00000000 l       .debug_str	00000000 
00000041 l       .debug_str	00000000 
0000004c l       .debug_str	00000000 
0000007c l       .debug_str	00000000 
00000081 l       .debug_str	00000000 
00000085 l       .debug_str	00000000 
00000088 l       .debug_str	00000000 
0000008b l       .debug_str	00000000 
0000008e l       .debug_str	00000000 
00000093 l       .debug_str	00000000 
00000099 l       .debug_str	00000000 
000000a0 l       .debug_str	00000000 
000000a8 l       .debug_str	00000000 
000000b2 l       .debug_str	00000000 
000000b9 l       .debug_str	00000000 
000000bc l       .debug_str	00000000 
000000c0 l       .debug_str	00000000 
000000c7 l       .debug_str	00000000 
000000ce l       .debug_str	00000000 
000000d7 l       .debug_str	00000000 
000000e1 l       .debug_str	00000000 
000000e8 l       .debug_str	00000000 
000000ee l       .debug_str	00000000 
000000f3 l       .debug_str	00000000 
000000ff l       .debug_str	00000000 
00000107 l       .debug_str	00000000 
0000010e l       .debug_str	00000000 
00000112 l       .debug_str	00000000 
00000117 l       .debug_str	00000000 
00000120 l       .debug_str	00000000 
00000125 l       .debug_str	00000000 
00000128 l       .debug_str	00000000 
0000012c l       .debug_str	00000000 
00000135 l       .debug_str	00000000 
0000013c l       .debug_str	00000000 
00000141 l       .debug_str	00000000 
00000146 l       .debug_str	00000000 
0000014c l       .debug_str	00000000 
00000152 l       .debug_str	00000000 
0000015c l       .debug_str	00000000 
0000015f l       .debug_str	00000000 
00000165 l       .debug_str	00000000 
0000016f l       .debug_str	00000000 
00000177 l       .debug_str	00000000 
0000017d l       .debug_str	00000000 
00000183 l       .debug_str	00000000 
0000018e l       .debug_str	00000000 
00000197 l       .debug_str	00000000 
000001ba l       .debug_str	00000000 
000001d9 l       .debug_str	00000000 
000001db l       .debug_str	00000000 
000001e0 l       .debug_str	00000000 
00000207 l       .debug_str	00000000 
0000020c l       .debug_str	00000000 
00000212 l       .debug_str	00000000 
00000218 l       .debug_str	00000000 
0000021b l       .debug_str	00000000 
0000022a l       .debug_str	00000000 
00000231 l       .debug_str	00000000 
00000235 l       .debug_str	00000000 
0000023e l       .debug_str	00000000 
00000246 l       .debug_str	00000000 
0000024e l       .debug_str	00000000 
00000255 l       .debug_str	00000000 
00000269 l       .debug_str	00000000 
00000275 l       .debug_str	00000000 
00000281 l       .debug_str	00000000 
0000029a l       .debug_str	00000000 
0000029f l       .debug_str	00000000 
000002ba l       .debug_str	00000000 
000002c8 l       .debug_str	00000000 
000002cc l       .debug_str	00000000 
000002d7 l       .debug_str	00000000 
000002de l       .debug_str	00000000 
000002e4 l       .debug_str	00000000 
000002e8 l       .debug_str	00000000 
000002ec l       .debug_str	00000000 
000002f4 l       .debug_str	00000000 
0000030b l       .debug_str	00000000 
0000032f l       .debug_str	00000000 
0000034b l       .debug_str	00000000 
00000355 l       .debug_str	00000000 
0000036f l       .debug_str	00000000 
00000000 l    d  .text._ZN4core3fmt9Arguments6new_v117he189e8374689c47cE	00000000 .text._ZN4core3fmt9Arguments6new_v117he189e8374689c47cE
00000000 l    d  .debug_abbrev	00000000 .debug_abbrev
00000000 l    d  .debug_info	00000000 .debug_info
00000000 l    d  .debug_frame	00000000 .debug_frame
00000000 l    d  .debug_line	00000000 .debug_line
00000000 g     F .text._ZN4core3fmt9Arguments6new_v117he189e8374689c47cE	0000004c .hidden core::fmt::Arguments::new_v1



Disassembly of section .text._ZN4core3fmt9Arguments6new_v117he189e8374689c47cE:

00000000 <core::fmt::Arguments::new_v1>:
_ZN4core3fmt9Arguments6new_v117he189e8374689c47cE():
/rustc/50a0defd5a93523067ef239936cc2e0755220904/src/libcore/fmt/mod.rs:314
   0:	b570      	push	{r4, r5, r6, lr}
   2:	b08a      	sub	sp, #40	; 0x28
   4:	f8dd c038 	ldr.w	ip, [sp, #56]	; 0x38
   8:	469e      	mov	lr, r3
   a:	4614      	mov	r4, r2
   c:	460d      	mov	r5, r1
   e:	4606      	mov	r6, r0
  10:	9104      	str	r1, [sp, #16]
  12:	9205      	str	r2, [sp, #20]
  14:	9306      	str	r3, [sp, #24]
  16:	f8cd c01c 	str.w	ip, [sp, #28]
/rustc/50a0defd5a93523067ef239936cc2e0755220904/src/libcore/fmt/mod.rs:317
  1a:	9904      	ldr	r1, [sp, #16]
  1c:	9a05      	ldr	r2, [sp, #20]
  1e:	2300      	movs	r3, #0
/rustc/50a0defd5a93523067ef239936cc2e0755220904/src/libcore/fmt/mod.rs:318
  20:	9309      	str	r3, [sp, #36]	; 0x24
  22:	9308      	str	r3, [sp, #32]
  24:	9308      	str	r3, [sp, #32]
/rustc/50a0defd5a93523067ef239936cc2e0755220904/src/libcore/fmt/mod.rs:319
  26:	9b06      	ldr	r3, [sp, #24]
  28:	f8dd c01c 	ldr.w	ip, [sp, #28]
/rustc/50a0defd5a93523067ef239936cc2e0755220904/src/libcore/fmt/mod.rs:316
  2c:	6001      	str	r1, [r0, #0]
  2e:	6042      	str	r2, [r0, #4]
  30:	9908      	ldr	r1, [sp, #32]
  32:	9a09      	ldr	r2, [sp, #36]	; 0x24
  34:	6081      	str	r1, [r0, #8]
  36:	60c2      	str	r2, [r0, #12]
  38:	6103      	str	r3, [r0, #16]
  3a:	f8c0 c014 	str.w	ip, [r0, #20]
/rustc/50a0defd5a93523067ef239936cc2e0755220904/src/libcore/fmt/mod.rs:321
  3e:	f8cd e00c 	str.w	lr, [sp, #12]
  42:	9402      	str	r4, [sp, #8]
  44:	9501      	str	r5, [sp, #4]
  46:	9600      	str	r6, [sp, #0]
  48:	b00a      	add	sp, #40	; 0x28
  4a:	bd70      	pop	{r4, r5, r6, pc}

mylib-b003fcb153d61cda.3bdhhpoj085ustfh.rcgu.o:     file format elf32-littlearm

SYMBOL TABLE:
00000000 l    df *ABS*	00000000 3bdhhpoj085ustfh
000002d4 l       .debug_str	00000000 
000001e6 l       .debug_str	00000000 
000001ea l       .debug_str	00000000 
000001f6 l       .debug_str	00000000 
000001f9 l       .debug_str	00000000 
00000215 l       .debug_str	00000000 
0000021e l       .debug_str	00000000 
0000022d l       .debug_str	00000000 
00000231 l       .debug_str	00000000 
00000239 l       .debug_str	00000000 
00000292 l       .debug_str	00000000 
00000299 l       .debug_str	00000000 
000002a1 l       .debug_str	00000000 
000002b0 l       .debug_str	00000000 
000002b5 l       .debug_str	00000000 
000002c1 l       .debug_str	00000000 
000002cd l       .debug_str	00000000 
000002da l       .debug_str	00000000 
000002e6 l       .debug_str	00000000 
000002f0 l       .debug_str	00000000 
000002f6 l       .debug_str	00000000 
0000030a l       .debug_str	00000000 
0000030f l       .debug_str	00000000 
00000320 l       .debug_str	00000000 
00000332 l       .debug_str	00000000 
0000033f l       .debug_str	00000000 
0000034b l       .debug_str	00000000 
00000359 l       .debug_str	00000000 
00000370 l       .debug_str	00000000 
00000382 l       .debug_str	00000000 
000003a2 l       .debug_str	00000000 
000003ab l       .debug_str	00000000 
000003b4 l       .debug_str	00000000 
000003c6 l       .debug_str	00000000 
00000000 l       .debug_str	00000000 
00000041 l       .debug_str	00000000 
0000004c l       .debug_str	00000000 
0000007c l       .debug_str	00000000 
00000082 l       .debug_str	00000000 
00000089 l       .debug_str	00000000 
0000008d l       .debug_str	00000000 
00000097 l       .debug_str	00000000 
000000a1 l       .debug_str	00000000 
000000a7 l       .debug_str	00000000 
000000b5 l       .debug_str	00000000 
000000f9 l       .debug_str	00000000 
0000010f l       .debug_str	00000000 
00000113 l       .debug_str	00000000 
00000152 l       .debug_str	00000000 
00000163 l       .debug_str	00000000 
000001a1 l       .debug_str	00000000 
000001b1 l       .debug_str	00000000 
000001b6 l       .debug_str	00000000 
000001ba l       .debug_str	00000000 
000001bd l       .debug_str	00000000 
000001c7 l       .debug_str	00000000 
000001d0 l       .debug_str	00000000 
000001d8 l       .debug_str	00000000 
000001dc l       .debug_str	00000000 
00000000 l     O .rodata..Lanon.5a193bd42aa79a17fece9f816a2deead.0	0000000a .Lanon.5a193bd42aa79a17fece9f816a2deead.0
00000000 l     O .rodata..Lanon.5a193bd42aa79a17fece9f816a2deead.1	0000000d .Lanon.5a193bd42aa79a17fece9f816a2deead.1
00000000 l     O .rodata..Lanon.5a193bd42aa79a17fece9f816a2deead.10	00000018 .Lanon.5a193bd42aa79a17fece9f816a2deead.10
00000000 l     O .rodata..Lanon.5a193bd42aa79a17fece9f816a2deead.12	00000018 .Lanon.5a193bd42aa79a17fece9f816a2deead.12
00000000 l     O .rodata..Lanon.5a193bd42aa79a17fece9f816a2deead.13	00000016 .Lanon.5a193bd42aa79a17fece9f816a2deead.13
00000000 l     O .rodata..Lanon.5a193bd42aa79a17fece9f816a2deead.14	00000018 .Lanon.5a193bd42aa79a17fece9f816a2deead.14
00000000 l     O .rodata..Lanon.5a193bd42aa79a17fece9f816a2deead.15	00000001 .Lanon.5a193bd42aa79a17fece9f816a2deead.15
00000000 l     O .rodata..Lanon.5a193bd42aa79a17fece9f816a2deead.16	00000018 .Lanon.5a193bd42aa79a17fece9f816a2deead.16
00000000 l     O .rodata..Lanon.5a193bd42aa79a17fece9f816a2deead.17	00000018 .Lanon.5a193bd42aa79a17fece9f816a2deead.17
00000000 l     O .rodata..Lanon.5a193bd42aa79a17fece9f816a2deead.18	00000019 .Lanon.5a193bd42aa79a17fece9f816a2deead.18
00000000 l     O .rodata..Lanon.5a193bd42aa79a17fece9f816a2deead.19	00000002 .Lanon.5a193bd42aa79a17fece9f816a2deead.19
00000000 l     O .rodata..Lanon.5a193bd42aa79a17fece9f816a2deead.4	00000018 .Lanon.5a193bd42aa79a17fece9f816a2deead.4
00000000 l     O .rodata..Lanon.5a193bd42aa79a17fece9f816a2deead.6	00000018 .Lanon.5a193bd42aa79a17fece9f816a2deead.6
00000000 l     O .rodata..Lanon.5a193bd42aa79a17fece9f816a2deead.7	00000018 .Lanon.5a193bd42aa79a17fece9f816a2deead.7
00000000 l     O .rodata..Lanon.5a193bd42aa79a17fece9f816a2deead.8	00000011 .Lanon.5a193bd42aa79a17fece9f816a2deead.8
00000000 l     F .text._ZN5mylib13listen_sensor15get_temperature17h83c775b9fc8c5924E	0000014c mylib::listen_sensor::get_temperature
00000000 l     F .text._ZN5mylib13listen_sensor16read_temperature17h318673dbfba97d4bE	00000120 mylib::listen_sensor::read_temperature
00000000 l    d  .text._ZN5mylib13listen_sensor21start_sensor_listener17h8abf00547b9e4a93E	00000000 .text._ZN5mylib13listen_sensor21start_sensor_listener17h8abf00547b9e4a93E
00000000 l    d  .text._ZN5mylib13listen_sensor16read_temperature17h318673dbfba97d4bE	00000000 .text._ZN5mylib13listen_sensor16read_temperature17h318673dbfba97d4bE
00000000 l    d  .text._ZN5mylib13listen_sensor15get_temperature17h83c775b9fc8c5924E	00000000 .text._ZN5mylib13listen_sensor15get_temperature17h83c775b9fc8c5924E
00000000 l    d  .rodata..Lanon.5a193bd42aa79a17fece9f816a2deead.2	00000000 .rodata..Lanon.5a193bd42aa79a17fece9f816a2deead.2
00000000 l    d  .rodata..Lanon.5a193bd42aa79a17fece9f816a2deead.3	00000000 .rodata..Lanon.5a193bd42aa79a17fece9f816a2deead.3
00000000 l    d  .rodata..Lanon.5a193bd42aa79a17fece9f816a2deead.5	00000000 .rodata..Lanon.5a193bd42aa79a17fece9f816a2deead.5
00000000 l    d  .rodata..Lanon.5a193bd42aa79a17fece9f816a2deead.9	00000000 .rodata..Lanon.5a193bd42aa79a17fece9f816a2deead.9
00000000 l    d  .rodata..Lanon.5a193bd42aa79a17fece9f816a2deead.11	00000000 .rodata..Lanon.5a193bd42aa79a17fece9f816a2deead.11
00000000 l    d  .debug_abbrev	00000000 .debug_abbrev
00000000 l    d  .debug_info	00000000 .debug_info
00000000 l    d  .debug_ranges	00000000 .debug_ranges
00000000 l    d  .debug_frame	00000000 .debug_frame
00000000 l    d  .debug_line	00000000 .debug_line
00000000         *UND*	00000000 core::slice::<impl [T]>::as_ptr
00000000         *UND*	00000000 core::panicking::panic
00000000 g     F .text._ZN5mylib13listen_sensor21start_sensor_listener17h8abf00547b9e4a93E	000000ca .hidden mylib::listen_sensor::start_sensor_listener
00000000         *UND*	00000000 .hidden mylib::base::console_print
00000000         *UND*	00000000 .hidden mylib::sensor::register_listener
00000000         *UND*	00000000 .hidden mylib::send_coap::send_sensor_data
00000000         *UND*	00000000 cstr_core::CStr::from_ptr
00000000         *UND*	00000000 device_get_name
00000000         *UND*	00000000 get_temp_data
00000000         *UND*	00000000 get_temp_raw_data
00000000         *UND*	00000000 is_null_sensor
00000000         *UND*	00000000 is_null_sensor_data
00000000         *UND*	00000000 null_sensor
00000000         *UND*	00000000 sensor_get_device
00000000         *UND*	00000000 sensor_mgr_find_next_bydevname
00000000         *UND*	00000000 sensor_set_poll_rate_ms



Disassembly of section .text._ZN5mylib13listen_sensor21start_sensor_listener17h8abf00547b9e4a93E:

00000000 <mylib::listen_sensor::start_sensor_listener>:
_ZN5mylib13listen_sensor21start_sensor_listener17h8abf00547b9e4a93E():
/Users/Luppy/mynewt/stm32bluepill-mynewt-sensor/src/listen_sensor.rs:30
///  Listener Function to send the sensor data to the Collector Node (if this is a Sensor Node)
///  or CoAP Server (is this is a Standalone Node).
///  For Collector Node: Start the Listeners for Remote Sensor 
///  Otherwise this is a Standalone Node with ESP8266, or a Sensor Node with nRF24L01.
///  Return 0 if successful.
pub fn start_sensor_listener() -> i32 {
   0:	b5f0      	push	{r4, r5, r6, r7, lr}
   2:	b093      	sub	sp, #76	; 0x4c
/Users/Luppy/mynewt/stm32bluepill-mynewt-sensor/src/listen_sensor.rs:31
    console_print(b"TMP poll \n");  //  SENSOR_DEVICE "\n";
   4:	f240 0000 	movw	r0, #0
   8:	f2c0 0000 	movt	r0, #0
   c:	210a      	movs	r1, #10
   e:	f7ff fffe 	bl	0 <mylib::base::console_print>
  12:	e7ff      	b.n	2 <mylib::listen_sensor::start_sensor_listener+0x2>
/Users/Luppy/mynewt/stm32bluepill-mynewt-sensor/src/listen_sensor.rs:34

    //  Set the sensor polling time to 10 seconds.  SENSOR_DEVICE is either "bme280_0" or "temp_stm32_0"
    let rc = unsafe { sensor_set_poll_rate_ms(SENSOR_DEVICE, SENSOR_POLL_TIME) };
  14:	f240 0000 	movw	r0, #0
  18:	f2c0 0000 	movt	r0, #0
  1c:	f242 7110 	movw	r1, #10000	; 0x2710
  20:	f7ff fffe 	bl	0 <sensor_set_poll_rate_ms>
  24:	9002      	str	r0, [sp, #8]
  26:	e7ff      	b.n	28 <mylib::listen_sensor::start_sensor_listener+0x28>
/Users/Luppy/mynewt/stm32bluepill-mynewt-sensor/src/listen_sensor.rs:35
    assert!(rc == 0);
  28:	9802      	ldr	r0, [sp, #8]
  2a:	2800      	cmp	r0, #0
  2c:	d007      	beq.n	3e <mylib::listen_sensor::start_sensor_listener+0x3e>
  2e:	e7ff      	b.n	30 <mylib::listen_sensor::start_sensor_listener+0x30>
  30:	f240 0000 	movw	r0, #0
  34:	f2c0 0000 	movt	r0, #0
  38:	f7ff fffe 	bl	0 <core::panicking::panic>
  3c:	defe      	udf	#254	; 0xfe
/Users/Luppy/mynewt/stm32bluepill-mynewt-sensor/src/listen_sensor.rs:38

    //  Fetch the sensor by name, without locking the driver for exclusive access.
    let listen_sensor = unsafe { sensor_mgr_find_next_bydevname(SENSOR_DEVICE, null_sensor()) };
  3e:	f7ff fffe 	bl	0 <null_sensor>
  42:	9001      	str	r0, [sp, #4]
  44:	e7ff      	b.n	46 <mylib::listen_sensor::start_sensor_listener+0x46>
  46:	f240 0000 	movw	r0, #0
  4a:	f2c0 0000 	movt	r0, #0
  4e:	9901      	ldr	r1, [sp, #4]
  50:	f7ff fffe 	bl	0 <sensor_mgr_find_next_bydevname>
  54:	9003      	str	r0, [sp, #12]
  56:	e7ff      	b.n	58 <mylib::listen_sensor::start_sensor_listener+0x58>
/Users/Luppy/mynewt/stm32bluepill-mynewt-sensor/src/listen_sensor.rs:39
    assert!(!unsafe{ is_null_sensor(listen_sensor) });
  58:	9803      	ldr	r0, [sp, #12]
  5a:	f7ff fffe 	bl	0 <is_null_sensor>
  5e:	9000      	str	r0, [sp, #0]
  60:	e7ff      	b.n	62 <mylib::listen_sensor::start_sensor_listener+0x62>
  62:	9800      	ldr	r0, [sp, #0]
  64:	07c1      	lsls	r1, r0, #31
  66:	2900      	cmp	r1, #0
  68:	d007      	beq.n	7a <mylib::listen_sensor::start_sensor_listener+0x7a>
  6a:	e7ff      	b.n	6c <mylib::listen_sensor::start_sensor_listener+0x6c>
  6c:	f240 0000 	movw	r0, #0
  70:	f2c0 0000 	movt	r0, #0
  74:	f7ff fffe 	bl	0 <core::panicking::panic>
  78:	defe      	udf	#254	; 0xfe
  7a:	2000      	movs	r0, #0
/Users/Luppy/mynewt/stm32bluepill-mynewt-sensor/src/listen_sensor.rs:42

    //  Define the listener function to be called after polling the temperature sensor.
    let listener = SensorListener {
  7c:	9005      	str	r0, [sp, #20]
  7e:	f04f 6180 	mov.w	r1, #67108864	; 0x4000000
  82:	9104      	str	r1, [sp, #16]
  84:	f240 0100 	movw	r1, #0
  88:	f2c0 0100 	movt	r1, #0
  8c:	9106      	str	r1, [sp, #24]
  8e:	2101      	movs	r1, #1
  90:	9107      	str	r1, [sp, #28]
  92:	9008      	str	r0, [sp, #32]
/Users/Luppy/mynewt/stm32bluepill-mynewt-sensor/src/listen_sensor.rs:50
        sl_arg        : LISTENER_CB,           //  Indicate to the listener function that this is a listener callback
        sl_next       : 0,                     //  Must be 0
    };

    //  Register the Listener Function to be called every 10 seconds, with the polled sensor data.
    let rc = register_listener(listen_sensor, listener);
  94:	9803      	ldr	r0, [sp, #12]
  96:	a904      	add	r1, sp, #16
  98:	aa0c      	add	r2, sp, #48	; 0x30
  9a:	4613      	mov	r3, r2
  9c:	e891 50f0 	ldmia.w	r1, {r4, r5, r6, r7, ip, lr}
  a0:	e883 50f0 	stmia.w	r3, {r4, r5, r6, r7, ip, lr}
  a4:	4611      	mov	r1, r2
  a6:	f7ff fffe 	bl	0 <mylib::sensor::register_listener>
  aa:	900b      	str	r0, [sp, #44]	; 0x2c
  ac:	e7ff      	b.n	ae <mylib::listen_sensor::start_sensor_listener+0xae>
/Users/Luppy/mynewt/stm32bluepill-mynewt-sensor/src/listen_sensor.rs:51
    assert!(rc == 0);
  ae:	980b      	ldr	r0, [sp, #44]	; 0x2c
  b0:	2800      	cmp	r0, #0
  b2:	d007      	beq.n	c4 <mylib::listen_sensor::start_sensor_listener+0xc4>
  b4:	e7ff      	b.n	b6 <mylib::listen_sensor::start_sensor_listener+0xb6>
  b6:	f240 0000 	movw	r0, #0
  ba:	f2c0 0000 	movt	r0, #0
  be:	f7ff fffe 	bl	0 <core::panicking::panic>
  c2:	defe      	udf	#254	; 0xfe
  c4:	2000      	movs	r0, #0
/Users/Luppy/mynewt/stm32bluepill-mynewt-sensor/src/listen_sensor.rs:55

    //  Return 0 to indicate success.  This line should not end with a semicolon (;).
    0
}
  c6:	b013      	add	sp, #76	; 0x4c
  c8:	bdf0      	pop	{r4, r5, r6, r7, pc}

Disassembly of section .text._ZN5mylib13listen_sensor16read_temperature17h318673dbfba97d4bE:

00000000 <mylib::listen_sensor::read_temperature>:
_ZN5mylib13listen_sensor16read_temperature17h318673dbfba97d4bE():
/Users/Luppy/mynewt/stm32bluepill-mynewt-sensor/src/listen_sensor.rs:70
///  This listener function is called by Mynewt every 10 seconds (for local sensors) or when sensor data is received
///  (for Remote Sensors).  Mynewt has fetched the raw or computed temperature value, passed through `sensor_data`.
///  If this is a Sensor Node, we send the sensor data to the Collector Node.
///  If this is a Collector Node or Standalone Node, we send the sensor data to the CoAP server.  
///  Return 0 if we have processed the sensor data successfully.
extern fn read_temperature(sensor: SensorPtr, _arg: SensorArg, sensor_data: SensorDataPtr, sensor_type: SensorType) -> i32 {
   0:	b5b0      	push	{r4, r5, r7, lr}
   2:	b096      	sub	sp, #88	; 0x58
   4:	9b1b      	ldr	r3, [sp, #108]	; 0x6c
   6:	f8dd c068 	ldr.w	ip, [sp, #104]	; 0x68
   a:	4696      	mov	lr, r2
   c:	460c      	mov	r4, r1
   e:	4605      	mov	r5, r0
  10:	9007      	str	r0, [sp, #28]
  12:	9108      	str	r1, [sp, #32]
  14:	9209      	str	r2, [sp, #36]	; 0x24
  16:	930b      	str	r3, [sp, #44]	; 0x2c
  18:	f8cd c028 	str.w	ip, [sp, #40]	; 0x28
/Users/Luppy/mynewt/stm32bluepill-mynewt-sensor/src/listen_sensor.rs:72
    unsafe {
        console_print(b"read_temperature\n");
  1c:	f240 0000 	movw	r0, #0
  20:	f2c0 0000 	movt	r0, #0
  24:	2111      	movs	r1, #17
  26:	f8cd e018 	str.w	lr, [sp, #24]
  2a:	9405      	str	r4, [sp, #20]
  2c:	9504      	str	r5, [sp, #16]
  2e:	f7ff fffe 	bl	0 <mylib::base::console_print>
  32:	e7ff      	b.n	34 <mylib::listen_sensor::read_temperature+0x34>
/Users/Luppy/mynewt/stm32bluepill-mynewt-sensor/src/listen_sensor.rs:75
        //  Check that the temperature data is valid.
        //  TODO
        if is_null_sensor_data(sensor_data) { return SYS_EINVAL; }  //  Exit if data is missing
  34:	9809      	ldr	r0, [sp, #36]	; 0x24
  36:	f7ff fffe 	bl	0 <is_null_sensor_data>
  3a:	9003      	str	r0, [sp, #12]
  3c:	e7ff      	b.n	3e <mylib::listen_sensor::read_temperature+0x3e>
  3e:	9803      	ldr	r0, [sp, #12]
  40:	07c1      	lsls	r1, r0, #31
  42:	2900      	cmp	r1, #0
  44:	d007      	beq.n	56 <mylib::listen_sensor::read_temperature+0x56>
  46:	e7ff      	b.n	48 <mylib::listen_sensor::read_temperature+0x48>
  48:	f06f 0001 	mvn.w	r0, #1
  4c:	900c      	str	r0, [sp, #48]	; 0x30
  4e:	e7ff      	b.n	50 <mylib::listen_sensor::read_temperature+0x50>
/Users/Luppy/mynewt/stm32bluepill-mynewt-sensor/src/listen_sensor.rs:107
        }
        assert!(rc == 0);
        //#endif  //  MYNEWT_VAL(SENSOR_COAP)
    }
    0
}
  50:	980c      	ldr	r0, [sp, #48]	; 0x30
  52:	b016      	add	sp, #88	; 0x58
  54:	bdb0      	pop	{r4, r5, r7, pc}
/Users/Luppy/mynewt/stm32bluepill-mynewt-sensor/src/listen_sensor.rs:76
        assert!(!is_null_sensor(sensor));
  56:	9807      	ldr	r0, [sp, #28]
  58:	f7ff fffe 	bl	0 <is_null_sensor>
  5c:	9002      	str	r0, [sp, #8]
  5e:	e7ff      	b.n	60 <mylib::listen_sensor::read_temperature+0x60>
  60:	9802      	ldr	r0, [sp, #8]
  62:	07c1      	lsls	r1, r0, #31
  64:	2900      	cmp	r1, #0
  66:	d007      	beq.n	78 <mylib::listen_sensor::read_temperature+0x78>
  68:	e7ff      	b.n	6a <mylib::listen_sensor::read_temperature+0x6a>
  6a:	f240 0000 	movw	r0, #0
  6e:	f2c0 0000 	movt	r0, #0
  72:	f7ff fffe 	bl	0 <core::panicking::panic>
  76:	defe      	udf	#254	; 0xfe
/Users/Luppy/mynewt/stm32bluepill-mynewt-sensor/src/listen_sensor.rs:80
        let device = sensor_get_device(sensor);
  78:	9807      	ldr	r0, [sp, #28]
  7a:	f7ff fffe 	bl	0 <sensor_get_device>
  7e:	900d      	str	r0, [sp, #52]	; 0x34
  80:	e7ff      	b.n	82 <mylib::listen_sensor::read_temperature+0x82>
/Users/Luppy/mynewt/stm32bluepill-mynewt-sensor/src/listen_sensor.rs:81
        let c_buf: *const c_char = device_get_name(device);
  82:	980d      	ldr	r0, [sp, #52]	; 0x34
  84:	f7ff fffe 	bl	0 <device_get_name>
  88:	900e      	str	r0, [sp, #56]	; 0x38
  8a:	e7ff      	b.n	8c <mylib::listen_sensor::read_temperature+0x8c>
/Users/Luppy/mynewt/stm32bluepill-mynewt-sensor/src/listen_sensor.rs:82
        let device_name: &CStr = CStr::from_ptr(c_buf);
  8c:	980e      	ldr	r0, [sp, #56]	; 0x38
  8e:	f7ff fffe 	bl	0 <cstr_core::CStr::from_ptr>
  92:	9001      	str	r0, [sp, #4]
  94:	9100      	str	r1, [sp, #0]
  96:	e7ff      	b.n	98 <mylib::listen_sensor::read_temperature+0x98>
  98:	9801      	ldr	r0, [sp, #4]
  9a:	900f      	str	r0, [sp, #60]	; 0x3c
  9c:	9900      	ldr	r1, [sp, #0]
  9e:	9110      	str	r1, [sp, #64]	; 0x40
/Users/Luppy/mynewt/stm32bluepill-mynewt-sensor/src/listen_sensor.rs:86
        let temp_sensor_value = get_temperature(sensor_data, sensor_type);
  a0:	9909      	ldr	r1, [sp, #36]	; 0x24
  a2:	9a0a      	ldr	r2, [sp, #40]	; 0x28
  a4:	9b0b      	ldr	r3, [sp, #44]	; 0x2c
  a6:	a811      	add	r0, sp, #68	; 0x44
  a8:	f7ff fffe 	bl	0 <mylib::listen_sensor::read_temperature>
  ac:	e7ff      	b.n	ae <mylib::listen_sensor::read_temperature+0xae>
/Users/Luppy/mynewt/stm32bluepill-mynewt-sensor/src/listen_sensor.rs:87
        assert!(temp_sensor_value.val_type != 0);
  ae:	9812      	ldr	r0, [sp, #72]	; 0x48
  b0:	2800      	cmp	r0, #0
  b2:	d107      	bne.n	c4 <mylib::listen_sensor::read_temperature+0xc4>
  b4:	e7ff      	b.n	b6 <mylib::listen_sensor::read_temperature+0xb6>
  b6:	f240 0000 	movw	r0, #0
  ba:	f2c0 0000 	movt	r0, #0
  be:	f7ff fffe 	bl	0 <core::panicking::panic>
  c2:	defe      	udf	#254	; 0xfe
/Users/Luppy/mynewt/stm32bluepill-mynewt-sensor/src/listen_sensor.rs:88
        if temp_sensor_value.val_type == 0 { return -1; }  //  Invalid type.
  c4:	9812      	ldr	r0, [sp, #72]	; 0x48
  c6:	2800      	cmp	r0, #0
  c8:	d105      	bne.n	d6 <mylib::listen_sensor::read_temperature+0xd6>
  ca:	e7ff      	b.n	cc <mylib::listen_sensor::read_temperature+0xcc>
  cc:	f04f 30ff 	mov.w	r0, #4294967295	; 0xffffffff
  d0:	900c      	str	r0, [sp, #48]	; 0x30
  d2:	e7ff      	b.n	d4 <mylib::listen_sensor::read_temperature+0xd4>
  d4:	e7bc      	b.n	50 <mylib::listen_sensor::read_temperature+0x50>
/Users/Luppy/mynewt/stm32bluepill-mynewt-sensor/src/listen_sensor.rs:95
        let rc = send_sensor_data(&temp_sensor_value, device_name);
  d6:	990f      	ldr	r1, [sp, #60]	; 0x3c
  d8:	9a10      	ldr	r2, [sp, #64]	; 0x40
  da:	a811      	add	r0, sp, #68	; 0x44
  dc:	f7ff fffe 	bl	0 <mylib::send_coap::send_sensor_data>
  e0:	9015      	str	r0, [sp, #84]	; 0x54
  e2:	e7ff      	b.n	e4 <mylib::listen_sensor::read_temperature+0xe4>
/Users/Luppy/mynewt/stm32bluepill-mynewt-sensor/src/listen_sensor.rs:99
        if rc == SYS_EAGAIN {
  e4:	9815      	ldr	r0, [sp, #84]	; 0x54
  e6:	3006      	adds	r0, #6
  e8:	2800      	cmp	r0, #0
  ea:	d10b      	bne.n	104 <mylib::listen_sensor::read_temperature+0x104>
  ec:	e7ff      	b.n	ee <mylib::listen_sensor::read_temperature+0xee>
/Users/Luppy/mynewt/stm32bluepill-mynewt-sensor/src/listen_sensor.rs:100
            console_print(b"TMP network not ready\n");
  ee:	f240 0000 	movw	r0, #0
  f2:	f2c0 0000 	movt	r0, #0
  f6:	2116      	movs	r1, #22
  f8:	f7ff fffe 	bl	0 <mylib::base::console_print>
  fc:	e7ff      	b.n	fe <mylib::listen_sensor::read_temperature+0xfe>
  fe:	2000      	movs	r0, #0
/Users/Luppy/mynewt/stm32bluepill-mynewt-sensor/src/listen_sensor.rs:101
            return 0; 
 100:	900c      	str	r0, [sp, #48]	; 0x30
 102:	e7e7      	b.n	d4 <mylib::listen_sensor::read_temperature+0xd4>
/Users/Luppy/mynewt/stm32bluepill-mynewt-sensor/src/listen_sensor.rs:103
        assert!(rc == 0);
 104:	9815      	ldr	r0, [sp, #84]	; 0x54
 106:	2800      	cmp	r0, #0
 108:	d007      	beq.n	11a <mylib::listen_sensor::read_temperature+0x11a>
 10a:	e7ff      	b.n	10c <mylib::listen_sensor::read_temperature+0x10c>
 10c:	f240 0000 	movw	r0, #0
 110:	f2c0 0000 	movt	r0, #0
 114:	f7ff fffe 	bl	0 <core::panicking::panic>
 118:	defe      	udf	#254	; 0xfe
 11a:	2000      	movs	r0, #0
/Users/Luppy/mynewt/stm32bluepill-mynewt-sensor/src/listen_sensor.rs:106
    0
 11c:	900c      	str	r0, [sp, #48]	; 0x30
/Users/Luppy/mynewt/stm32bluepill-mynewt-sensor/src/listen_sensor.rs:107
}
 11e:	e797      	b.n	50 <mylib::listen_sensor::read_temperature+0x50>

Disassembly of section .text._ZN5mylib13listen_sensor15get_temperature17h83c775b9fc8c5924E:

00000000 <mylib::listen_sensor::get_temperature>:
_ZN5mylib13listen_sensor15get_temperature17h83c775b9fc8c5924E():
/Users/Luppy/mynewt/stm32bluepill-mynewt-sensor/src/listen_sensor.rs:112

///  Get the temperature value, raw or computed.  `sensor_data` contains the raw or computed temperature. 
///  `sensor_type` indicates whether `sensor_data` contains raw or computed temperature.  We return 
///  the raw or computed temperature, as well as the key and value type.
fn get_temperature(sensor_data: *const CVoid, sensor_type: SensorType) -> SensorValue {
   0:	b510      	push	{r4, lr}
   2:	b096      	sub	sp, #88	; 0x58
   4:	469c      	mov	ip, r3
   6:	4696      	mov	lr, r2
   8:	460c      	mov	r4, r1
   a:	9105      	str	r1, [sp, #20]
   c:	9307      	str	r3, [sp, #28]
   e:	9206      	str	r2, [sp, #24]
/Users/Luppy/mynewt/stm32bluepill-mynewt-sensor/src/listen_sensor.rs:114
    let mut return_value = SensorValue {
        key: b"\0".as_ptr(),
  10:	f240 0100 	movw	r1, #0
  14:	f2c0 0100 	movt	r1, #0
  18:	2201      	movs	r2, #1
  1a:	9004      	str	r0, [sp, #16]
  1c:	4608      	mov	r0, r1
  1e:	4611      	mov	r1, r2
  20:	f8cd c00c 	str.w	ip, [sp, #12]
  24:	f8cd e008 	str.w	lr, [sp, #8]
  28:	9401      	str	r4, [sp, #4]
  2a:	f7ff fffe 	bl	0 <core::slice::<impl [T]>::as_ptr>
  2e:	9000      	str	r0, [sp, #0]
  30:	e7ff      	b.n	32 <mylib::listen_sensor::get_temperature+0x32>
/Users/Luppy/mynewt/stm32bluepill-mynewt-sensor/src/listen_sensor.rs:113
    let mut return_value = SensorValue {
  32:	9800      	ldr	r0, [sp, #0]
  34:	9009      	str	r0, [sp, #36]	; 0x24
  36:	2100      	movs	r1, #0
  38:	910a      	str	r1, [sp, #40]	; 0x28
  3a:	f8ad 102c 	strh.w	r1, [sp, #44]	; 0x2c
  3e:	910c      	str	r1, [sp, #48]	; 0x30
/Users/Luppy/mynewt/stm32bluepill-mynewt-sensor/src/listen_sensor.rs:122
        float_val: 0.0,
    };
    unsafe {
        //assert!(sensor_data);
        match sensor_type {                                //  Is this raw or computed temperature?
            SENSOR_TYPE_AMBIENT_TEMPERATURE_RAW => {  //  If this is raw temperature...
  40:	9906      	ldr	r1, [sp, #24]
  42:	9a07      	ldr	r2, [sp, #28]
  44:	f081 6180 	eor.w	r1, r1, #67108864	; 0x4000000
  48:	4311      	orrs	r1, r2
  4a:	2900      	cmp	r1, #0
  4c:	d138      	bne.n	c0 <mylib::listen_sensor::get_temperature+0xc0>
  4e:	e7ff      	b.n	50 <mylib::listen_sensor::get_temperature+0x50>
  50:	2000      	movs	r0, #0
/Users/Luppy/mynewt/stm32bluepill-mynewt-sensor/src/listen_sensor.rs:124
                //  Interpret the sensor data as a sensor_temp_raw_data struct that contains raw temp.
                let mut rawtempdata = SensorTempRawData {
  52:	900d      	str	r0, [sp, #52]	; 0x34
  54:	f88d 0038 	strb.w	r0, [sp, #56]	; 0x38
/Users/Luppy/mynewt/stm32bluepill-mynewt-sensor/src/listen_sensor.rs:128
                    strd_temp_raw: 0,
                    strd_temp_raw_is_valid: 0,
                };
                let rc = get_temp_raw_data(sensor_data, &mut rawtempdata);
  58:	9805      	ldr	r0, [sp, #20]
  5a:	a90d      	add	r1, sp, #52	; 0x34
  5c:	f7ff fffe 	bl	0 <get_temp_raw_data>
  60:	900f      	str	r0, [sp, #60]	; 0x3c
  62:	e7ff      	b.n	64 <mylib::listen_sensor::get_temperature+0x64>
/Users/Luppy/mynewt/stm32bluepill-mynewt-sensor/src/listen_sensor.rs:129
                assert!(rc == 0);
  64:	980f      	ldr	r0, [sp, #60]	; 0x3c
  66:	2800      	cmp	r0, #0
  68:	d007      	beq.n	7a <mylib::listen_sensor::get_temperature+0x7a>
  6a:	e7ff      	b.n	6c <mylib::listen_sensor::get_temperature+0x6c>
  6c:	f240 0000 	movw	r0, #0
  70:	f2c0 0000 	movt	r0, #0
  74:	f7ff fffe 	bl	0 <core::panicking::panic>
  78:	defe      	udf	#254	; 0xfe
/Users/Luppy/mynewt/stm32bluepill-mynewt-sensor/src/listen_sensor.rs:132

                //  Check that the raw temperature data is valid.
                if rawtempdata.strd_temp_raw_is_valid == 0 { return return_value; }  //  Exit if data is not valid
  7a:	f89d 0038 	ldrb.w	r0, [sp, #56]	; 0x38
  7e:	2800      	cmp	r0, #0
  80:	d112      	bne.n	a8 <mylib::listen_sensor::get_temperature+0xa8>
  82:	e7ff      	b.n	84 <mylib::listen_sensor::get_temperature+0x84>
  84:	9809      	ldr	r0, [sp, #36]	; 0x24
  86:	990a      	ldr	r1, [sp, #40]	; 0x28
  88:	9a0b      	ldr	r2, [sp, #44]	; 0x2c
  8a:	9b0c      	ldr	r3, [sp, #48]	; 0x30
  8c:	f8dd c010 	ldr.w	ip, [sp, #16]
  90:	f8cc 300c 	str.w	r3, [ip, #12]
  94:	f8cc 2008 	str.w	r2, [ip, #8]
  98:	f8cc 1004 	str.w	r1, [ip, #4]
  9c:	f8cc 0000 	str.w	r0, [ip]
  a0:	e001      	b.n	a6 <mylib::listen_sensor::get_temperature+0xa6>
/Users/Luppy/mynewt/stm32bluepill-mynewt-sensor/src/listen_sensor.rs:168
        //  Return the key and value type for raw or computed temperature, as defined in temp_stm32.h.
        return_value.key = TEMP_SENSOR_KEY;
        return_value.val_type = TEMP_SENSOR_VALUE_TYPE;
    };
    return_value
}
  a2:	b016      	add	sp, #88	; 0x58
  a4:	bd10      	pop	{r4, pc}
/Users/Luppy/mynewt/stm32bluepill-mynewt-sensor/src/listen_sensor.rs:132
                if rawtempdata.strd_temp_raw_is_valid == 0 { return return_value; }  //  Exit if data is not valid
  a6:	e7fc      	b.n	a2 <mylib::listen_sensor::get_temperature+0xa2>
/Users/Luppy/mynewt/stm32bluepill-mynewt-sensor/src/listen_sensor.rs:135
                return_value.int_val = rawtempdata.strd_temp_raw as u16;  //  Raw Temperature in integer (0 to 4095)
  a8:	980d      	ldr	r0, [sp, #52]	; 0x34
  aa:	f8ad 002c 	strh.w	r0, [sp, #44]	; 0x2c
/Users/Luppy/mynewt/stm32bluepill-mynewt-sensor/src/listen_sensor.rs:136
                console_print(b"TMP listener got rawtmp \n");  // return_value->int_val);
  ae:	f240 0000 	movw	r0, #0
  b2:	f2c0 0000 	movt	r0, #0
  b6:	2119      	movs	r1, #25
  b8:	f7ff fffe 	bl	0 <mylib::base::console_print>
  bc:	e7ff      	b.n	be <mylib::listen_sensor::get_temperature+0xbe>
/Users/Luppy/mynewt/stm32bluepill-mynewt-sensor/src/listen_sensor.rs:121
        match sensor_type {                                //  Is this raw or computed temperature?
  be:	e02f      	b.n	120 <mylib::listen_sensor::get_temperature+0x120>
/Users/Luppy/mynewt/stm32bluepill-mynewt-sensor/src/listen_sensor.rs:138
            SENSOR_TYPE_AMBIENT_TEMPERATURE => {      //  If this is computed temperature...
  c0:	9806      	ldr	r0, [sp, #24]
  c2:	9907      	ldr	r1, [sp, #28]
  c4:	9111      	str	r1, [sp, #68]	; 0x44
  c6:	9010      	str	r0, [sp, #64]	; 0x40
  c8:	2000      	movs	r0, #0
/Users/Luppy/mynewt/stm32bluepill-mynewt-sensor/src/listen_sensor.rs:140
                let mut tempdata = SensorTempData {
  ca:	9013      	str	r0, [sp, #76]	; 0x4c
  cc:	f88d 0050 	strb.w	r0, [sp, #80]	; 0x50
/Users/Luppy/mynewt/stm32bluepill-mynewt-sensor/src/listen_sensor.rs:144
                let rc = get_temp_data(sensor_data, &mut tempdata);
  d0:	9805      	ldr	r0, [sp, #20]
  d2:	a913      	add	r1, sp, #76	; 0x4c
  d4:	f7ff fffe 	bl	0 <get_temp_data>
  d8:	9015      	str	r0, [sp, #84]	; 0x54
  da:	e7ff      	b.n	dc <mylib::listen_sensor::get_temperature+0xdc>
/Users/Luppy/mynewt/stm32bluepill-mynewt-sensor/src/listen_sensor.rs:145
                assert!(rc == 0);
  dc:	9815      	ldr	r0, [sp, #84]	; 0x54
  de:	2800      	cmp	r0, #0
  e0:	d007      	beq.n	f2 <mylib::listen_sensor::get_temperature+0xf2>
  e2:	e7ff      	b.n	e4 <mylib::listen_sensor::get_temperature+0xe4>
  e4:	f240 0000 	movw	r0, #0
  e8:	f2c0 0000 	movt	r0, #0
  ec:	f7ff fffe 	bl	0 <core::panicking::panic>
  f0:	defe      	udf	#254	; 0xfe
/Users/Luppy/mynewt/stm32bluepill-mynewt-sensor/src/listen_sensor.rs:148
                if tempdata.std_temp_is_valid == 0 { return return_value; }  //  Exit if data is not valid
  f2:	f89d 0050 	ldrb.w	r0, [sp, #80]	; 0x50
  f6:	2800      	cmp	r0, #0
  f8:	d10f      	bne.n	11a <mylib::listen_sensor::get_temperature+0x11a>
  fa:	e7ff      	b.n	fc <mylib::listen_sensor::get_temperature+0xfc>
  fc:	9809      	ldr	r0, [sp, #36]	; 0x24
  fe:	990a      	ldr	r1, [sp, #40]	; 0x28
 100:	9a0b      	ldr	r2, [sp, #44]	; 0x2c
 102:	9b0c      	ldr	r3, [sp, #48]	; 0x30
 104:	f8dd c010 	ldr.w	ip, [sp, #16]
 108:	f8cc 300c 	str.w	r3, [ip, #12]
 10c:	f8cc 2008 	str.w	r2, [ip, #8]
 110:	f8cc 1004 	str.w	r1, [ip, #4]
 114:	f8cc 0000 	str.w	r0, [ip]
 118:	e7c5      	b.n	a6 <mylib::listen_sensor::get_temperature+0xa6>
/Users/Luppy/mynewt/stm32bluepill-mynewt-sensor/src/listen_sensor.rs:151
                return_value.float_val = tempdata.std_temp;  //  Temperature in floating point.
 11a:	9813      	ldr	r0, [sp, #76]	; 0x4c
 11c:	900c      	str	r0, [sp, #48]	; 0x30
/Users/Luppy/mynewt/stm32bluepill-mynewt-sensor/src/listen_sensor.rs:121
        match sensor_type {                                //  Is this raw or computed temperature?
 11e:	e7ff      	b.n	120 <mylib::listen_sensor::get_temperature+0x120>
/Users/Luppy/mynewt/stm32bluepill-mynewt-sensor/src/listen_sensor.rs:164
        return_value.key = TEMP_SENSOR_KEY;
 120:	f240 0000 	movw	r0, #0
 124:	f2c0 0000 	movt	r0, #0
 128:	9009      	str	r0, [sp, #36]	; 0x24
 12a:	2001      	movs	r0, #1
/Users/Luppy/mynewt/stm32bluepill-mynewt-sensor/src/listen_sensor.rs:165
        return_value.val_type = TEMP_SENSOR_VALUE_TYPE;
 12c:	900a      	str	r0, [sp, #40]	; 0x28
/Users/Luppy/mynewt/stm32bluepill-mynewt-sensor/src/listen_sensor.rs:167
    return_value
 12e:	9809      	ldr	r0, [sp, #36]	; 0x24
 130:	990a      	ldr	r1, [sp, #40]	; 0x28
 132:	9a0b      	ldr	r2, [sp, #44]	; 0x2c
 134:	9b0c      	ldr	r3, [sp, #48]	; 0x30
 136:	f8dd c010 	ldr.w	ip, [sp, #16]
 13a:	f8cc 300c 	str.w	r3, [ip, #12]
 13e:	f8cc 2008 	str.w	r2, [ip, #8]
 142:	f8cc 1004 	str.w	r1, [ip, #4]
 146:	f8cc 0000 	str.w	r0, [ip]
/Users/Luppy/mynewt/stm32bluepill-mynewt-sensor/src/listen_sensor.rs:168
}
 14a:	e7aa      	b.n	a2 <mylib::listen_sensor::get_temperature+0xa2>

mylib-b003fcb153d61cda.3m2bj5bgdp6nzbj4.rcgu.o:     file format elf32-littlearm

SYMBOL TABLE:
00000000 l    df *ABS*	00000000 3m2bj5bgdp6nzbj4
00000352 l       .debug_str	00000000 
000003e3 l       .debug_str	00000000 
000003ed l       .debug_str	00000000 
00000407 l       .debug_str	00000000 
00000465 l       .debug_str	00000000 
00000470 l       .debug_str	00000000 
0000048d l       .debug_str	00000000 
000004a6 l       .debug_str	00000000 
000004b0 l       .debug_str	00000000 
000004c6 l       .debug_str	00000000 
000004e4 l       .debug_str	00000000 
000004ed l       .debug_str	00000000 
000004f2 l       .debug_str	00000000 
000004f7 l       .debug_str	00000000 
000004fb l       .debug_str	00000000 
00000504 l       .debug_str	00000000 
0000050e l       .debug_str	00000000 
00000526 l       .debug_str	00000000 
00000000 l       .debug_str	00000000 
00000041 l       .debug_str	00000000 
0000004c l       .debug_str	00000000 
0000007c l       .debug_str	00000000 
00000081 l       .debug_str	00000000 
00000085 l       .debug_str	00000000 
00000088 l       .debug_str	00000000 
0000008b l       .debug_str	00000000 
0000008e l       .debug_str	00000000 
00000093 l       .debug_str	00000000 
00000099 l       .debug_str	00000000 
000000a0 l       .debug_str	00000000 
000000a8 l       .debug_str	00000000 
000000b2 l       .debug_str	00000000 
000000b9 l       .debug_str	00000000 
000000bc l       .debug_str	00000000 
000000c0 l       .debug_str	00000000 
000000c7 l       .debug_str	00000000 
000000cd l       .debug_str	00000000 
000000d6 l       .debug_str	00000000 
000000da l       .debug_str	00000000 
00000104 l       .debug_str	00000000 
00000109 l       .debug_str	00000000 
0000010e l       .debug_str	00000000 
00000110 l       .debug_str	00000000 
00000122 l       .debug_str	00000000 
00000128 l       .debug_str	00000000 
0000012b l       .debug_str	00000000 
0000012f l       .debug_str	00000000 
00000133 l       .debug_str	00000000 
00000136 l       .debug_str	00000000 
00000138 l       .debug_str	00000000 
0000013c l       .debug_str	00000000 
0000013e l       .debug_str	00000000 
0000014e l       .debug_str	00000000 
00000153 l       .debug_str	00000000 
0000015b l       .debug_str	00000000 
0000015f l       .debug_str	00000000 
00000167 l       .debug_str	00000000 
0000016f l       .debug_str	00000000 
00000176 l       .debug_str	00000000 
0000017c l       .debug_str	00000000 
00000190 l       .debug_str	00000000 
0000019c l       .debug_str	00000000 
000001a1 l       .debug_str	00000000 
000001a9 l       .debug_str	00000000 
000001b0 l       .debug_str	00000000 
000001b5 l       .debug_str	00000000 
000001bc l       .debug_str	00000000 
000001c5 l       .debug_str	00000000 
000001cf l       .debug_str	00000000 
000001d6 l       .debug_str	00000000 
000001db l       .debug_str	00000000 
000001e7 l       .debug_str	00000000 
000001ef l       .debug_str	00000000 
000001f8 l       .debug_str	00000000 
000001fd l       .debug_str	00000000 
00000200 l       .debug_str	00000000 
00000209 l       .debug_str	00000000 
00000210 l       .debug_str	00000000 
00000215 l       .debug_str	00000000 
0000021a l       .debug_str	00000000 
00000220 l       .debug_str	00000000 
00000226 l       .debug_str	00000000 
00000230 l       .debug_str	00000000 
00000233 l       .debug_str	00000000 
00000239 l       .debug_str	00000000 
00000243 l       .debug_str	00000000 
0000024b l       .debug_str	00000000 
00000251 l       .debug_str	00000000 
00000257 l       .debug_str	00000000 
00000262 l       .debug_str	00000000 
0000026b l       .debug_str	00000000 
0000028e l       .debug_str	00000000 
000002ad l       .debug_str	00000000 
000002b2 l       .debug_str	00000000 
000002d9 l       .debug_str	00000000 
000002de l       .debug_str	00000000 
000002e4 l       .debug_str	00000000 
000002ea l       .debug_str	00000000 
000002f9 l       .debug_str	00000000 
00000300 l       .debug_str	00000000 
00000304 l       .debug_str	00000000 
0000030d l       .debug_str	00000000 
00000319 l       .debug_str	00000000 
00000332 l       .debug_str	00000000 
00000337 l       .debug_str	00000000 
00000348 l       .debug_str	00000000 
00000360 l       .debug_str	00000000 
00000364 l       .debug_str	00000000 
0000036f l       .debug_str	00000000 
00000376 l       .debug_str	00000000 
0000037c l       .debug_str	00000000 
00000380 l       .debug_str	00000000 
00000384 l       .debug_str	00000000 
0000038c l       .debug_str	00000000 
000003a3 l       .debug_str	00000000 
000003c7 l       .debug_str	00000000 
00000000 l     O .rodata..Lanon.3ed011473997af99b525cde47c9eaaac.0	00000000 .Lanon.3ed011473997af99b525cde47c9eaaac.0
00000000 l     O .rodata..Lanon.3ed011473997af99b525cde47c9eaaac.3	00000018 .Lanon.3ed011473997af99b525cde47c9eaaac.3
00000000 l     O .rodata..Lanon.3ed011473997af99b525cde47c9eaaac.4	00000012 .Lanon.3ed011473997af99b525cde47c9eaaac.4
00000000 l     O .rodata..Lanon.3ed011473997af99b525cde47c9eaaac.5	00000009 .Lanon.3ed011473997af99b525cde47c9eaaac.5
00000000 l     O .rodata.cst8	00000008 .Lanon.3ed011473997af99b525cde47c9eaaac.6
00000000 l     O .rodata..Lanon.3ed011473997af99b525cde47c9eaaac.7	00000001 .Lanon.3ed011473997af99b525cde47c9eaaac.7
00000000 l    d  .text.main	00000000 .text.main
00000000 l    d  .text.rust_begin_unwind	00000000 .text.rust_begin_unwind
00000000 l    d  .rodata..Lanon.3ed011473997af99b525cde47c9eaaac.1	00000000 .rodata..Lanon.3ed011473997af99b525cde47c9eaaac.1
00000000 l    d  .rodata..Lanon.3ed011473997af99b525cde47c9eaaac.2	00000000 .rodata..Lanon.3ed011473997af99b525cde47c9eaaac.2
00000000 l    d  .debug_abbrev	00000000 .debug_abbrev
00000000 l    d  .debug_info	00000000 .debug_info
00000000 l    d  .debug_ranges	00000000 .debug_ranges
00000000 l    d  .debug_frame	00000000 .debug_frame
00000000 l    d  .debug_line	00000000 .debug_line
00000000         *UND*	00000000 .hidden core::str::<impl str>::len
00000000         *UND*	00000000 .hidden core::str::<impl str>::as_ptr
00000000         *UND*	00000000 core::panic::Location::file
00000000         *UND*	00000000 core::panic::Location::line
00000000         *UND*	00000000 core::panic::PanicInfo::location
00000000         *UND*	00000000 core::result::Result<T,E>::expect
00000000         *UND*	00000000 core::panicking::panic
00000000         *UND*	00000000 .hidden mylib::listen_sensor::start_sensor_listener
00000000         *UND*	00000000 .hidden mylib::base::console_print
00000000         *UND*	00000000 .hidden mylib::send_coap::start_network_task
00000000         *UND*	00000000 __bkpt
00000000         *UND*	00000000 console_buffer
00000000         *UND*	00000000 console_flush
00000000         *UND*	00000000 console_printhex
00000000 g     F .text.main	0000005e main
00000000         *UND*	00000000 os_eventq_dflt_get
00000000         *UND*	00000000 os_eventq_run
00000000 g     F .text.rust_begin_unwind	000000b6 rust_begin_unwind
00000000         *UND*	00000000 rust_sysinit



Disassembly of section .text.main:

00000000 <main>:
main():
/Users/Luppy/mynewt/stm32bluepill-mynewt-sensor/src/lib.rs:24
use crate::listen_sensor::*;    //  Import listen_sensor.rs for polling the temperature sensor
use crate::send_coap::*;        //  Import send_coap.rs for sending sensor data

///  main() will be called at Mynewt startup. It replaces the C version of the main() function.
#[no_mangle]                     //  Don't mangle the name "main"
pub extern "C" fn main() -> ! {  //  Declare extern "C" because it will be called by Mynewt
   0:	b084      	sub	sp, #16
/Users/Luppy/mynewt/stm32bluepill-mynewt-sensor/src/lib.rs:26
    //  Init Mynewt system.
    unsafe { rust_sysinit()  };
   2:	f7ff fffe 	bl	0 <rust_sysinit>
   6:	e7ff      	b.n	2 <console_flush+0x2>
/Users/Luppy/mynewt/stm32bluepill-mynewt-sensor/src/lib.rs:27
    unsafe { console_flush() };
   8:	f7ff fffe 	bl	0 <console_flush>
   c:	e7ff      	b.n	2 <mylib::send_coap::start_network_task+0x2>
/Users/Luppy/mynewt/stm32bluepill-mynewt-sensor/src/lib.rs:32

    //  Start the Network Task in the background.  The Network Task prepares the ESP8266 or nRF24L01 transceiver for
    //  sending CoAP messages.  We connect the ESP8266 to the WiFi access point and register
    //  the ESP8266/nRF24L01 driver as the network transport for CoAP.  Also perform WiFi Geolocation if it is enabled.
    let rc = start_network_task();  
   e:	f7ff fffe 	bl	0 <mylib::send_coap::start_network_task>
  12:	9102      	str	r1, [sp, #8]
  14:	9001      	str	r0, [sp, #4]
  16:	e7ff      	b.n	18 <main+0x18>
/Users/Luppy/mynewt/stm32bluepill-mynewt-sensor/src/lib.rs:33
    rc.expect("");
  18:	9801      	ldr	r0, [sp, #4]
  1a:	9902      	ldr	r1, [sp, #8]
  1c:	f240 0200 	movw	r2, #0
  20:	f2c0 0200 	movt	r2, #0
  24:	2300      	movs	r3, #0
  26:	f7ff fffe 	bl	0 <core::result::Result<T,E>::expect>
  2a:	e7ff      	b.n	2 <mylib::listen_sensor::start_sensor_listener+0x2>
/Users/Luppy/mynewt/stm32bluepill-mynewt-sensor/src/lib.rs:39
    //  assert!(rc == 0);

    //  Starting polling the temperature sensor every 10 seconds in the background.  
    //  After polling the sensor, call the listener function to send the sensor data to the CoAP server or Collector Node.
    //  If this is the Collector Node, we shall wait for sensor data from the Sensor Nodes and transmit to the CoAP server.
    let rc = start_sensor_listener();  assert!(rc == 0);
  2c:	f7ff fffe 	bl	0 <mylib::listen_sensor::start_sensor_listener>
  30:	9003      	str	r0, [sp, #12]
  32:	e7ff      	b.n	34 <main+0x34>
  34:	9803      	ldr	r0, [sp, #12]
  36:	2800      	cmp	r0, #0
  38:	d007      	beq.n	4a <main+0x4a>
  3a:	e7ff      	b.n	3c <main+0x3c>
  3c:	f240 0000 	movw	r0, #0
  40:	f2c0 0000 	movt	r0, #0
  44:	f7ff fffe 	bl	0 <core::panicking::panic>
  48:	defe      	udf	#254	; 0xfe
/Users/Luppy/mynewt/stm32bluepill-mynewt-sensor/src/lib.rs:51
        }
    }; */
    // ::core::panicking::panic(expr_file_line_col: &(&'static str, &'static str, u32, u32))

    //  Main event loop
    loop {                            //  Loop forever...
  4a:	e7ff      	b.n	4c <main+0x4c>
/Users/Luppy/mynewt/stm32bluepill-mynewt-sensor/src/lib.rs:54
        unsafe {
            os_eventq_run(            //  Process events...
                os_eventq_dflt_get()  //  From default event queue.
  4c:	f7ff fffe 	bl	0 <os_eventq_dflt_get>
  50:	9000      	str	r0, [sp, #0]
  52:	e7ff      	b.n	54 <main+0x54>
/Users/Luppy/mynewt/stm32bluepill-mynewt-sensor/src/lib.rs:53
            os_eventq_run(            //  Process events...
  54:	9800      	ldr	r0, [sp, #0]
  56:	f7ff fffe 	bl	0 <os_eventq_run>
  5a:	e7ff      	b.n	5c <main+0x5c>
/Users/Luppy/mynewt/stm32bluepill-mynewt-sensor/src/lib.rs:51
    loop {                            //  Loop forever...
  5c:	e7f6      	b.n	4c <main+0x4c>

Disassembly of section .text.rust_begin_unwind:

00000000 <rust_begin_unwind>:
rust_begin_unwind():
/Users/Luppy/mynewt/stm32bluepill-mynewt-sensor/src/lib.rs:63
    //  Never comes here.
}

///  This function is called on panic, like an assertion failure. We display the filename and line number and pause in the debugger. From https://os.phil-opp.com/freestanding-rust-binary/
#[panic_handler]
fn panic(info: &PanicInfo) -> ! {
   0:	b08a      	sub	sp, #40	; 0x28
   2:	4601      	mov	r1, r0
   4:	9003      	str	r0, [sp, #12]
/Users/Luppy/mynewt/stm32bluepill-mynewt-sensor/src/lib.rs:65
    //  Display the filename and line number to the Semihosting Console.
    if let Some(location) = info.location() {
   6:	9803      	ldr	r0, [sp, #12]
   8:	9102      	str	r1, [sp, #8]
   a:	f7ff fffe 	bl	0 <core::panic::PanicInfo::location>
   e:	9005      	str	r0, [sp, #20]
  10:	e7ff      	b.n	12 <rust_begin_unwind+0x12>
  12:	9805      	ldr	r0, [sp, #20]
  14:	2800      	cmp	r0, #0
  16:	d03f      	beq.n	98 <rust_begin_unwind+0x98>
  18:	e7ff      	b.n	1a <rust_begin_unwind+0x1a>
  1a:	9805      	ldr	r0, [sp, #20]
  1c:	9006      	str	r0, [sp, #24]
/Users/Luppy/mynewt/stm32bluepill-mynewt-sensor/src/lib.rs:66
        let file = location.file();
  1e:	9806      	ldr	r0, [sp, #24]
  20:	f7ff fffe 	bl	0 <core::panic::Location::file>
  24:	9108      	str	r1, [sp, #32]
  26:	9007      	str	r0, [sp, #28]
  28:	e7ff      	b.n	2a <rust_begin_unwind+0x2a>
/Users/Luppy/mynewt/stm32bluepill-mynewt-sensor/src/lib.rs:67
        let line = location.line();
  2a:	9806      	ldr	r0, [sp, #24]
  2c:	f7ff fffe 	bl	0 <core::panic::Location::line>
  30:	9009      	str	r0, [sp, #36]	; 0x24
  32:	e7ff      	b.n	34 <rust_begin_unwind+0x34>
/Users/Luppy/mynewt/stm32bluepill-mynewt-sensor/src/lib.rs:68
        console_print(b"panic at ");
  34:	f240 0000 	movw	r0, #0
  38:	f2c0 0000 	movt	r0, #0
  3c:	2109      	movs	r1, #9
  3e:	f7ff fffe 	bl	0 <mylib::base::console_print>
  42:	e7ff      	b.n	44 <rust_begin_unwind+0x44>
/Users/Luppy/mynewt/stm32bluepill-mynewt-sensor/src/lib.rs:69
        unsafe { console_buffer(file.as_ptr(), file.len() as u32) }
  44:	9807      	ldr	r0, [sp, #28]
  46:	9908      	ldr	r1, [sp, #32]
  48:	f7ff fffe 	bl	0 <core::str::<impl str>::as_ptr>
  4c:	9001      	str	r0, [sp, #4]
  4e:	e7ff      	b.n	50 <rust_begin_unwind+0x50>
  50:	9807      	ldr	r0, [sp, #28]
  52:	9908      	ldr	r1, [sp, #32]
  54:	f7ff fffe 	bl	0 <core::str::<impl str>::len>
  58:	9000      	str	r0, [sp, #0]
  5a:	e7ff      	b.n	5c <rust_begin_unwind+0x5c>
  5c:	9801      	ldr	r0, [sp, #4]
  5e:	9900      	ldr	r1, [sp, #0]
  60:	f7ff fffe 	bl	0 <console_buffer>
  64:	e7ff      	b.n	2 <rust_begin_unwind+0x2>
/Users/Luppy/mynewt/stm32bluepill-mynewt-sensor/src/lib.rs:70
        console_print(b" line 0x");
  66:	f240 0000 	movw	r0, #0
  6a:	f2c0 0000 	movt	r0, #0
  6e:	2108      	movs	r1, #8
  70:	f7ff fffe 	bl	0 <mylib::base::console_print>
  74:	e7ff      	b.n	76 <rust_begin_unwind+0x76>
/Users/Luppy/mynewt/stm32bluepill-mynewt-sensor/src/lib.rs:71
        unsafe { console_printhex(line as u8) }  //  TODO: Print in decimal not hex. Allow more than 255 lines.
  76:	f89d 0024 	ldrb.w	r0, [sp, #36]	; 0x24
  7a:	f7ff fffe 	bl	0 <console_printhex>
  7e:	e7ff      	b.n	2 <rust_begin_unwind+0x2>
/Users/Luppy/mynewt/stm32bluepill-mynewt-sensor/src/lib.rs:72
        console_print(b"\n");
  80:	f240 0000 	movw	r0, #0
  84:	f2c0 0000 	movt	r0, #0
  88:	2101      	movs	r1, #1
  8a:	f7ff fffe 	bl	0 <mylib::base::console_print>
  8e:	e7ff      	b.n	2 <console_flush+0x2>
/Users/Luppy/mynewt/stm32bluepill-mynewt-sensor/src/lib.rs:73
        unsafe { console_flush() }
  90:	f7ff fffe 	bl	0 <console_flush>
  94:	e7ff      	b.n	96 <rust_begin_unwind+0x96>
/Users/Luppy/mynewt/stm32bluepill-mynewt-sensor/src/lib.rs:65
    if let Some(location) = info.location() {
  96:	e00a      	b.n	ae <rust_begin_unwind+0xae>
/Users/Luppy/mynewt/stm32bluepill-mynewt-sensor/src/lib.rs:75
    } else {
        console_print(b"panic unknown loc\n");
  98:	f240 0000 	movw	r0, #0
  9c:	f2c0 0000 	movt	r0, #0
  a0:	2112      	movs	r1, #18
  a2:	f7ff fffe 	bl	0 <mylib::base::console_print>
  a6:	e7ff      	b.n	2 <console_flush+0x2>
/Users/Luppy/mynewt/stm32bluepill-mynewt-sensor/src/lib.rs:76
        unsafe { console_flush() }
  a8:	f7ff fffe 	bl	0 <console_flush>
  ac:	e7ff      	b.n	2 <__bkpt+0x2>
_ZN8cortex_m3asm4bkpt17h38d1ae7ad2dd546bE():
/Users/Luppy/.cargo/registry/src/github.com-1ecc6299db9ec823/cortex-m-0.6.0/src/asm.rs:19
        () => unsafe {
            extern "C" {
                fn __bkpt();
            }

            __bkpt();
  ae:	f7ff fffe 	bl	0 <__bkpt>
rust_begin_unwind():
/Users/Luppy/mynewt/stm32bluepill-mynewt-sensor/src/lib.rs:79
    }
    //  Pause in the debugger.
    bkpt();
  b2:	e7ff      	b.n	b4 <rust_begin_unwind+0xb4>
/Users/Luppy/mynewt/stm32bluepill-mynewt-sensor/src/lib.rs:81
    //  Loop forever so that device won't restart.
    loop {}
  b4:	e7fe      	b.n	b4 <rust_begin_unwind+0xb4>

mylib-b003fcb153d61cda.53xejyw88i0w8gr2.rcgu.o:     file format elf32-littlearm

SYMBOL TABLE:
00000000 l    df *ABS*	00000000 53xejyw88i0w8gr2
00000301 l       .debug_str	00000000 
0000023e l       .debug_str	00000000 
00000252 l       .debug_str	00000000 
0000025c l       .debug_str	00000000 
00000264 l       .debug_str	00000000 
0000026e l       .debug_str	00000000 
0000027f l       .debug_str	00000000 
00000283 l       .debug_str	00000000 
0000028c l       .debug_str	00000000 
00000296 l       .debug_str	00000000 
0000029d l       .debug_str	00000000 
000002a3 l       .debug_str	00000000 
000002a8 l       .debug_str	00000000 
000002ac l       .debug_str	00000000 
000002b1 l       .debug_str	00000000 
000002b7 l       .debug_str	00000000 
000002bb l       .debug_str	00000000 
000002cb l       .debug_str	00000000 
000002da l       .debug_str	00000000 
000002ed l       .debug_str	00000000 
000002f6 l       .debug_str	00000000 
00000309 l       .debug_str	00000000 
0000030e l       .debug_str	00000000 
00000315 l       .debug_str	00000000 
0000031b l       .debug_str	00000000 
00000327 l       .debug_str	00000000 
0000032c l       .debug_str	00000000 
00000334 l       .debug_str	00000000 
00000342 l       .debug_str	00000000 
00000347 l       .debug_str	00000000 
0000034e l       .debug_str	00000000 
00000353 l       .debug_str	00000000 
0000035c l       .debug_str	00000000 
00000364 l       .debug_str	00000000 
00000368 l       .debug_str	00000000 
00000372 l       .debug_str	00000000 
0000037e l       .debug_str	00000000 
0000039e l       .debug_str	00000000 
000003ab l       .debug_str	00000000 
000003b5 l       .debug_str	00000000 
000003bb l       .debug_str	00000000 
000003c0 l       .debug_str	00000000 
00000000 l       .debug_str	00000000 
00000041 l       .debug_str	00000000 
0000004c l       .debug_str	00000000 
0000007c l       .debug_str	00000000 
00000082 l       .debug_str	00000000 
0000008c l       .debug_str	00000000 
000000cb l       .debug_str	00000000 
000000e1 l       .debug_str	00000000 
00000116 l       .debug_str	00000000 
00000122 l       .debug_str	00000000 
00000156 l       .debug_str	00000000 
00000161 l       .debug_str	00000000 
0000019d l       .debug_str	00000000 
000001b0 l       .debug_str	00000000 
000001b5 l       .debug_str	00000000 
000001bc l       .debug_str	00000000 
000001c0 l       .debug_str	00000000 
000001c3 l       .debug_str	00000000 
000001c7 l       .debug_str	00000000 
000001ca l       .debug_str	00000000 
000001cc l       .debug_str	00000000 
000001d0 l       .debug_str	00000000 
000001d2 l       .debug_str	00000000 
000001d6 l       .debug_str	00000000 
000001e6 l       .debug_str	00000000 
00000220 l       .debug_str	00000000 
00000231 l       .debug_str	00000000 
0000023b l       .debug_str	00000000 
00000000 l     O .rodata.cst32	00000020 .Lanon.07b863c2fd91f4da1654f4fddcb3693c.0
00000000 l     O .rodata..Lanon.07b863c2fd91f4da1654f4fddcb3693c.1	0000000a .Lanon.07b863c2fd91f4da1654f4fddcb3693c.1
00000000 l     O .rodata..Lanon.07b863c2fd91f4da1654f4fddcb3693c.11	00000006 .Lanon.07b863c2fd91f4da1654f4fddcb3693c.11
00000000 l     O .rodata..Lanon.07b863c2fd91f4da1654f4fddcb3693c.2	00000001 .Lanon.07b863c2fd91f4da1654f4fddcb3693c.2
00000000 l     O .rodata..Lanon.07b863c2fd91f4da1654f4fddcb3693c.20	00000003 .Lanon.07b863c2fd91f4da1654f4fddcb3693c.20
00000000 l     O .rodata..Lanon.07b863c2fd91f4da1654f4fddcb3693c.23	00000005 .Lanon.07b863c2fd91f4da1654f4fddcb3693c.23
00000000 l     O .rodata..Lanon.07b863c2fd91f4da1654f4fddcb3693c.3	00000003 .Lanon.07b863c2fd91f4da1654f4fddcb3693c.3
00000004 l     O .rodata.cst4	00000004 .Lanon.07b863c2fd91f4da1654f4fddcb3693c.34
00000008 l     O .rodata.cst8	00000008 .Lanon.07b863c2fd91f4da1654f4fddcb3693c.39
00000000 l     O .rodata..Lanon.07b863c2fd91f4da1654f4fddcb3693c.40	0000000a .Lanon.07b863c2fd91f4da1654f4fddcb3693c.40
00000000 l     O .rodata..Lanon.07b863c2fd91f4da1654f4fddcb3693c.41	00000018 .Lanon.07b863c2fd91f4da1654f4fddcb3693c.41
00000000 l     O .rodata..Lanon.07b863c2fd91f4da1654f4fddcb3693c.42	00000018 .Lanon.07b863c2fd91f4da1654f4fddcb3693c.42
00000000 l     O .rodata..Lanon.07b863c2fd91f4da1654f4fddcb3693c.43	00000018 .Lanon.07b863c2fd91f4da1654f4fddcb3693c.43
00000000 l     O .rodata..Lanon.07b863c2fd91f4da1654f4fddcb3693c.44	00000013 .Lanon.07b863c2fd91f4da1654f4fddcb3693c.44
00000000 l     O .rodata..Lanon.07b863c2fd91f4da1654f4fddcb3693c.45	00000011 .Lanon.07b863c2fd91f4da1654f4fddcb3693c.45
00000000 l     O .rodata.cst4	00000004 .Lanon.07b863c2fd91f4da1654f4fddcb3693c.5
00000000 l     O .rodata..Lanon.07b863c2fd91f4da1654f4fddcb3693c.6	00000006 .Lanon.07b863c2fd91f4da1654f4fddcb3693c.6
00000000 l     F .text._ZN5mylib9send_coap10test_macro17hd49bdddf3c23dc03E	00000062 mylib::send_coap::test_macro
00000000 l     F .text._ZN5mylib9send_coap11test_macro217hfebb72fb8be6bb76E	000001b6 mylib::send_coap::test_macro2
00000000 l     F .text._ZN5mylib9send_coap21send_sensor_data_rust17h8483dfb432e65792E	000001e6 mylib::send_coap::send_sensor_data_rust
00000000 l     O .rodata.str.0	00000010 str.0
00000000 l     O .rodata.str.1	0000001c str.1
00000000 l     O .rodata.str.2	00000021 str.2
00000000 l    d  .text._ZN5mylib9send_coap21send_sensor_data_rust17h8483dfb432e65792E	00000000 .text._ZN5mylib9send_coap21send_sensor_data_rust17h8483dfb432e65792E
00000000 l    d  .text._ZN5mylib9send_coap11test_macro217hfebb72fb8be6bb76E	00000000 .text._ZN5mylib9send_coap11test_macro217hfebb72fb8be6bb76E
00000000 l    d  .text._ZN5mylib9send_coap10test_macro17hd49bdddf3c23dc03E	00000000 .text._ZN5mylib9send_coap10test_macro17hd49bdddf3c23dc03E
00000000 l    d  .text._ZN5mylib9send_coap18start_network_task17hd61dace35b0a381aE	00000000 .text._ZN5mylib9send_coap18start_network_task17hd61dace35b0a381aE
00000000 l    d  .text._ZN5mylib9send_coap16send_sensor_data17hd2e470cb3f766db4E	00000000 .text._ZN5mylib9send_coap16send_sensor_data17hd2e470cb3f766db4E
00000000 l    d  .rodata.str.0	00000000 .rodata.str.0
00000000 l    d  .rodata.str.1	00000000 .rodata.str.1
00000000 l    d  .rodata.str.2	00000000 .rodata.str.2
00000000 l    d  .debug_abbrev	00000000 .debug_abbrev
00000000 l    d  .debug_info	00000000 .debug_info
00000000 l    d  .debug_ranges	00000000 .debug_ranges
00000000 l    d  .debug_frame	00000000 .debug_frame
00000000 l    d  .debug_line	00000000 .debug_line
00000000         *UND*	00000000 core::panicking::panic
00000000         *UND*	00000000 .hidden mylib::base::console_print
00000000 g     F .text._ZN5mylib9send_coap16send_sensor_data17hd2e470cb3f766db4E	00000030 .hidden mylib::send_coap::send_sensor_data
00000000 g     F .text._ZN5mylib9send_coap18start_network_task17hd61dace35b0a381aE	00000032 .hidden mylib::send_coap::start_network_task



Disassembly of section .text._ZN5mylib9send_coap21send_sensor_data_rust17h8483dfb432e65792E:

00000000 <mylib::send_coap::send_sensor_data_rust>:
_ZN5mylib9send_coap21send_sensor_data_rust17h8483dfb432e65792E():
/Users/Luppy/mynewt/stm32bluepill-mynewt-sensor/src/send_coap.rs:509
//  Test CoAP macros

///  Compose a CoAP message (CBOR or JSON) with the sensor value in `val` and transmit to the
///  Collector Node (if this is a Sensor Node) or to the CoAP Server (if this is a Collector Node
///  or Standalone Node).
fn send_sensor_data_rust() {
   0:	b570      	push	{r4, r5, r6, lr}
   2:	b0d8      	sub	sp, #352	; 0x160
/Users/Luppy/mynewt/stm32bluepill-mynewt-sensor/src/send_coap.rs:510
    let device_id = b"0102030405060708090a0b0c0d0e0f10";
   4:	f240 0000 	movw	r0, #0
   8:	f2c0 0000 	movt	r0, #0
   c:	9000      	str	r0, [sp, #0]
/Users/Luppy/mynewt/stm32bluepill-mynewt-sensor/src/send_coap.rs:511
    let node_id = b"b3b4b5b6f1";
   e:	f240 0000 	movw	r0, #0
  12:	f2c0 0000 	movt	r0, #0
  16:	9001      	str	r0, [sp, #4]
  18:	f640 3036 	movw	r0, #2870	; 0xb36
/Users/Luppy/mynewt/stm32bluepill-mynewt-sensor/src/send_coap.rs:516

    //  Sensor `t` has int value 2870.
    let int_sensor_value = SensorValueNew {
        key: "t",
        val: SensorValueType::Uint(2870)
  1c:	9007      	str	r0, [sp, #28]
  1e:	2000      	movs	r0, #0
  20:	9006      	str	r0, [sp, #24]
/Users/Luppy/mynewt/stm32bluepill-mynewt-sensor/src/send_coap.rs:514
    let int_sensor_value = SensorValueNew {
  22:	f240 0000 	movw	r0, #0
  26:	f2c0 0000 	movt	r0, #0
  2a:	9002      	str	r0, [sp, #8]
  2c:	2001      	movs	r0, #1
  2e:	9003      	str	r0, [sp, #12]
  30:	9906      	ldr	r1, [sp, #24]
  32:	9a07      	ldr	r2, [sp, #28]
  34:	9205      	str	r2, [sp, #20]
  36:	9104      	str	r1, [sp, #16]
  38:	f649 119a 	movw	r1, #39322	; 0x999a
  3c:	f2c4 11e5 	movt	r1, #16869	; 0x41e5
/Users/Luppy/mynewt/stm32bluepill-mynewt-sensor/src/send_coap.rs:521
    };
    //  Sensor `tmp` has float value 28.70.
    let float_sensor_value = SensorValueNew {
        key: "tmp",
        val: SensorValueType::Float(28.70)
  40:	910d      	str	r1, [sp, #52]	; 0x34
  42:	900c      	str	r0, [sp, #48]	; 0x30
/Users/Luppy/mynewt/stm32bluepill-mynewt-sensor/src/send_coap.rs:519
    let float_sensor_value = SensorValueNew {
  44:	f240 0000 	movw	r0, #0
  48:	f2c0 0000 	movt	r0, #0
  4c:	9008      	str	r0, [sp, #32]
  4e:	2003      	movs	r0, #3
  50:	9009      	str	r0, [sp, #36]	; 0x24
  52:	990c      	ldr	r1, [sp, #48]	; 0x30
  54:	9a0d      	ldr	r2, [sp, #52]	; 0x34
  56:	920b      	str	r2, [sp, #44]	; 0x2c
  58:	910a      	str	r1, [sp, #40]	; 0x28
/Users/Luppy/mynewt/stm32bluepill-mynewt-sensor/src/send_coap.rs:527
    };

    trace_macros!(true);

    //  Compose the CoAP Payload in JSON or CBOR using the `coap` macro.
    let payload = coap!({
  5a:	f240 0100 	movw	r1, #0
  5e:	f2c0 0100 	movt	r1, #0
  62:	9110      	str	r1, [sp, #64]	; 0x40
  64:	2104      	movs	r1, #4
  66:	9111      	str	r1, [sp, #68]	; 0x44
  68:	f240 0200 	movw	r2, #0
  6c:	f2c0 0200 	movt	r2, #0
  70:	9212      	str	r2, [sp, #72]	; 0x48
  72:	2206      	movs	r2, #6
  74:	9213      	str	r2, [sp, #76]	; 0x4c
  76:	9b10      	ldr	r3, [sp, #64]	; 0x40
  78:	f8dd c044 	ldr.w	ip, [sp, #68]	; 0x44
  7c:	9314      	str	r3, [sp, #80]	; 0x50
  7e:	f8cd c054 	str.w	ip, [sp, #84]	; 0x54
  82:	9b12      	ldr	r3, [sp, #72]	; 0x48
  84:	f8dd c04c 	ldr.w	ip, [sp, #76]	; 0x4c
  88:	9316      	str	r3, [sp, #88]	; 0x58
  8a:	f8cd c05c 	str.w	ip, [sp, #92]	; 0x5c
/Users/Luppy/mynewt/stm32bluepill-mynewt-sensor/src/send_coap.rs:108
        let _key = $($key)+;
  8e:	f240 0300 	movw	r3, #0
  92:	f2c0 0300 	movt	r3, #0
  96:	9318      	str	r3, [sp, #96]	; 0x60
  98:	9219      	str	r2, [sp, #100]	; 0x64
/Users/Luppy/mynewt/stm32bluepill-mynewt-sensor/src/send_coap.rs:528
        "device": device_id,
  9a:	f8dd c000 	ldr.w	ip, [sp]
  9e:	f8cd c06c 	str.w	ip, [sp, #108]	; 0x6c
  a2:	f8dd c000 	ldr.w	ip, [sp]
  a6:	f8cd c068 	str.w	ip, [sp, #104]	; 0x68
/Users/Luppy/mynewt/stm32bluepill-mynewt-sensor/src/send_coap.rs:527
    let payload = coap!({
  aa:	f8dd c048 	ldr.w	ip, [sp, #72]	; 0x48
  ae:	f8dd e04c 	ldr.w	lr, [sp, #76]	; 0x4c
  b2:	f8cd c070 	str.w	ip, [sp, #112]	; 0x70
  b6:	f8cd e074 	str.w	lr, [sp, #116]	; 0x74
  ba:	f8dd c048 	ldr.w	ip, [sp, #72]	; 0x48
  be:	f8dd e04c 	ldr.w	lr, [sp, #76]	; 0x4c
  c2:	f8cd c078 	str.w	ip, [sp, #120]	; 0x78
  c6:	f8cd e07c 	str.w	lr, [sp, #124]	; 0x7c
/Users/Luppy/mynewt/stm32bluepill-mynewt-sensor/src/send_coap.rs:528
        "device": device_id,
  ca:	9320      	str	r3, [sp, #128]	; 0x80
  cc:	9221      	str	r2, [sp, #132]	; 0x84
  ce:	f8dd c000 	ldr.w	ip, [sp]
  d2:	f8cd c08c 	str.w	ip, [sp, #140]	; 0x8c
  d6:	f8dd c000 	ldr.w	ip, [sp]
  da:	f8cd c088 	str.w	ip, [sp, #136]	; 0x88
/Users/Luppy/mynewt/stm32bluepill-mynewt-sensor/src/send_coap.rs:527
    let payload = coap!({
  de:	f8dd c048 	ldr.w	ip, [sp, #72]	; 0x48
  e2:	f8dd e04c 	ldr.w	lr, [sp, #76]	; 0x4c
  e6:	f8cd c090 	str.w	ip, [sp, #144]	; 0x90
  ea:	f8cd e094 	str.w	lr, [sp, #148]	; 0x94
  ee:	f240 0c00 	movw	ip, #0
  f2:	f2c0 0c00 	movt	ip, #0
  f6:	f8cd c098 	str.w	ip, [sp, #152]	; 0x98
  fa:	9027      	str	r0, [sp, #156]	; 0x9c
/Users/Luppy/mynewt/stm32bluepill-mynewt-sensor/src/send_coap.rs:528
        "device": device_id,
  fc:	9328      	str	r3, [sp, #160]	; 0xa0
  fe:	9229      	str	r2, [sp, #164]	; 0xa4
/Users/Luppy/mynewt/stm32bluepill-mynewt-sensor/src/send_coap.rs:527
    let payload = coap!({
 100:	9a12      	ldr	r2, [sp, #72]	; 0x48
 102:	9b13      	ldr	r3, [sp, #76]	; 0x4c
 104:	922a      	str	r2, [sp, #168]	; 0xa8
 106:	932b      	str	r3, [sp, #172]	; 0xac
 108:	f240 0200 	movw	r2, #0
 10c:	f2c0 0200 	movt	r2, #0
 110:	922c      	str	r2, [sp, #176]	; 0xb0
 112:	2305      	movs	r3, #5
 114:	932d      	str	r3, [sp, #180]	; 0xb4
/Users/Luppy/mynewt/stm32bluepill-mynewt-sensor/src/send_coap.rs:528
        "device": device_id,
 116:	f8dd e000 	ldr.w	lr, [sp]
 11a:	f8cd e0bc 	str.w	lr, [sp, #188]	; 0xbc
 11e:	f8dd e000 	ldr.w	lr, [sp]
 122:	f8cd e0b8 	str.w	lr, [sp, #184]	; 0xb8
/Users/Luppy/mynewt/stm32bluepill-mynewt-sensor/src/send_coap.rs:193
        let _sensor_value = $($key)*;
 126:	f8dd e008 	ldr.w	lr, [sp, #8]
 12a:	9c03      	ldr	r4, [sp, #12]
 12c:	9d04      	ldr	r5, [sp, #16]
 12e:	9e05      	ldr	r6, [sp, #20]
 130:	9633      	str	r6, [sp, #204]	; 0xcc
 132:	9532      	str	r5, [sp, #200]	; 0xc8
 134:	9431      	str	r4, [sp, #196]	; 0xc4
 136:	f8cd e0c0 	str.w	lr, [sp, #192]	; 0xc0
/Users/Luppy/mynewt/stm32bluepill-mynewt-sensor/src/send_coap.rs:527
    let payload = coap!({
 13a:	f8dd e048 	ldr.w	lr, [sp, #72]	; 0x48
 13e:	9c13      	ldr	r4, [sp, #76]	; 0x4c
 140:	f8cd e0d0 	str.w	lr, [sp, #208]	; 0xd0
 144:	9435      	str	r4, [sp, #212]	; 0xd4
 146:	f8dd e048 	ldr.w	lr, [sp, #72]	; 0x48
 14a:	9c13      	ldr	r4, [sp, #76]	; 0x4c
 14c:	f8cd e0d8 	str.w	lr, [sp, #216]	; 0xd8
 150:	9437      	str	r4, [sp, #220]	; 0xdc
/Users/Luppy/mynewt/stm32bluepill-mynewt-sensor/src/send_coap.rs:193
        let _sensor_value = $($key)*;
 152:	f8dd e020 	ldr.w	lr, [sp, #32]
 156:	9c09      	ldr	r4, [sp, #36]	; 0x24
 158:	9d0a      	ldr	r5, [sp, #40]	; 0x28
 15a:	9e0b      	ldr	r6, [sp, #44]	; 0x2c
 15c:	963b      	str	r6, [sp, #236]	; 0xec
 15e:	953a      	str	r5, [sp, #232]	; 0xe8
 160:	9439      	str	r4, [sp, #228]	; 0xe4
 162:	f8cd e0e0 	str.w	lr, [sp, #224]	; 0xe0
/Users/Luppy/mynewt/stm32bluepill-mynewt-sensor/src/send_coap.rs:527
    let payload = coap!({
 166:	f8dd e048 	ldr.w	lr, [sp, #72]	; 0x48
 16a:	9c13      	ldr	r4, [sp, #76]	; 0x4c
 16c:	f8cd e0f0 	str.w	lr, [sp, #240]	; 0xf0
 170:	943d      	str	r4, [sp, #244]	; 0xf4
 172:	f8dd e048 	ldr.w	lr, [sp, #72]	; 0x48
 176:	9c13      	ldr	r4, [sp, #76]	; 0x4c
 178:	f8cd e0f8 	str.w	lr, [sp, #248]	; 0xf8
 17c:	943f      	str	r4, [sp, #252]	; 0xfc
/Users/Luppy/mynewt/stm32bluepill-mynewt-sensor/src/send_coap.rs:108
        let _key = $($key)+;
 17e:	f240 0e00 	movw	lr, #0
 182:	f2c0 0e00 	movt	lr, #0
 186:	f8cd e100 	str.w	lr, [sp, #256]	; 0x100
 18a:	9141      	str	r1, [sp, #260]	; 0x104
/Users/Luppy/mynewt/stm32bluepill-mynewt-sensor/src/send_coap.rs:531
        int_sensor_value,    //  Send `{t: 2870}`
        float_sensor_value,  //  Send `{tmp: 28.70}`
        "node":   node_id,
 18c:	9c01      	ldr	r4, [sp, #4]
 18e:	9443      	str	r4, [sp, #268]	; 0x10c
 190:	9c01      	ldr	r4, [sp, #4]
 192:	9442      	str	r4, [sp, #264]	; 0x108
/Users/Luppy/mynewt/stm32bluepill-mynewt-sensor/src/send_coap.rs:527
    let payload = coap!({
 194:	9c12      	ldr	r4, [sp, #72]	; 0x48
 196:	9d13      	ldr	r5, [sp, #76]	; 0x4c
 198:	9444      	str	r4, [sp, #272]	; 0x110
 19a:	9545      	str	r5, [sp, #276]	; 0x114
 19c:	9c12      	ldr	r4, [sp, #72]	; 0x48
 19e:	9d13      	ldr	r5, [sp, #76]	; 0x4c
 1a0:	9446      	str	r4, [sp, #280]	; 0x118
 1a2:	9547      	str	r5, [sp, #284]	; 0x11c
/Users/Luppy/mynewt/stm32bluepill-mynewt-sensor/src/send_coap.rs:531
        "node":   node_id,
 1a4:	f8cd e120 	str.w	lr, [sp, #288]	; 0x120
 1a8:	9149      	str	r1, [sp, #292]	; 0x124
 1aa:	9c01      	ldr	r4, [sp, #4]
 1ac:	944b      	str	r4, [sp, #300]	; 0x12c
 1ae:	9c01      	ldr	r4, [sp, #4]
 1b0:	944a      	str	r4, [sp, #296]	; 0x128
/Users/Luppy/mynewt/stm32bluepill-mynewt-sensor/src/send_coap.rs:527
    let payload = coap!({
 1b2:	9c12      	ldr	r4, [sp, #72]	; 0x48
 1b4:	9d13      	ldr	r5, [sp, #76]	; 0x4c
 1b6:	944c      	str	r4, [sp, #304]	; 0x130
 1b8:	954d      	str	r5, [sp, #308]	; 0x134
 1ba:	f8cd c138 	str.w	ip, [sp, #312]	; 0x138
 1be:	904f      	str	r0, [sp, #316]	; 0x13c
/Users/Luppy/mynewt/stm32bluepill-mynewt-sensor/src/send_coap.rs:531
        "node":   node_id,
 1c0:	f8cd e140 	str.w	lr, [sp, #320]	; 0x140
 1c4:	9151      	str	r1, [sp, #324]	; 0x144
/Users/Luppy/mynewt/stm32bluepill-mynewt-sensor/src/send_coap.rs:527
    let payload = coap!({
 1c6:	9812      	ldr	r0, [sp, #72]	; 0x48
 1c8:	9913      	ldr	r1, [sp, #76]	; 0x4c
 1ca:	9052      	str	r0, [sp, #328]	; 0x148
 1cc:	9153      	str	r1, [sp, #332]	; 0x14c
 1ce:	9254      	str	r2, [sp, #336]	; 0x150
 1d0:	9355      	str	r3, [sp, #340]	; 0x154
/Users/Luppy/mynewt/stm32bluepill-mynewt-sensor/src/send_coap.rs:531
        "node":   node_id,
 1d2:	9801      	ldr	r0, [sp, #4]
 1d4:	9057      	str	r0, [sp, #348]	; 0x15c
 1d6:	9801      	ldr	r0, [sp, #4]
 1d8:	9056      	str	r0, [sp, #344]	; 0x158
/Users/Luppy/mynewt/stm32bluepill-mynewt-sensor/src/send_coap.rs:527
    let payload = coap!({
 1da:	9810      	ldr	r0, [sp, #64]	; 0x40
 1dc:	9911      	ldr	r1, [sp, #68]	; 0x44
 1de:	900e      	str	r0, [sp, #56]	; 0x38
 1e0:	910f      	str	r1, [sp, #60]	; 0x3c
/Users/Luppy/mynewt/stm32bluepill-mynewt-sensor/src/send_coap.rs:536
    });

    trace_macros!(false);

}
 1e2:	b058      	add	sp, #352	; 0x160
 1e4:	bd70      	pop	{r4, r5, r6, pc}

Disassembly of section .text._ZN5mylib9send_coap11test_macro217hfebb72fb8be6bb76E:

00000000 <mylib::send_coap::test_macro2>:
_ZN5mylib9send_coap11test_macro217hfebb72fb8be6bb76E():
/Users/Luppy/mynewt/stm32bluepill-mynewt-sensor/src/send_coap.rs:552
    Uint(u32),
    ///  32-bit float. For computed temp, contains the computed temp float value
    Float(f32),
}

fn test_macro2() {
   0:	b5f0      	push	{r4, r5, r6, r7, lr}
   2:	b0e7      	sub	sp, #412	; 0x19c
/Users/Luppy/mynewt/stm32bluepill-mynewt-sensor/src/send_coap.rs:565
    // ]}

    //  On Sensor Node: Device sends CBOR to Collector Node via nRF24L01...
    //  { "t": 2870 }

    let root = "root_var";
   4:	f240 0000 	movw	r0, #0
   8:	f2c0 0000 	movt	r0, #0
   c:	9000      	str	r0, [sp, #0]
   e:	2008      	movs	r0, #8
  10:	9001      	str	r0, [sp, #4]
/Users/Luppy/mynewt/stm32bluepill-mynewt-sensor/src/send_coap.rs:566
    let values = "values_var";
  12:	f240 0000 	movw	r0, #0
  16:	f2c0 0000 	movt	r0, #0
  1a:	9002      	str	r0, [sp, #8]
  1c:	200a      	movs	r0, #10
  1e:	9003      	str	r0, [sp, #12]
/Users/Luppy/mynewt/stm32bluepill-mynewt-sensor/src/send_coap.rs:567
    let device_id = b"0102030405060708090a0b0c0d0e0f10";
  20:	f240 0000 	movw	r0, #0
  24:	f2c0 0000 	movt	r0, #0
  28:	9004      	str	r0, [sp, #16]
/Users/Luppy/mynewt/stm32bluepill-mynewt-sensor/src/send_coap.rs:568
    let node_id = b"b3b4b5b6f1";
  2a:	f240 0000 	movw	r0, #0
  2e:	f2c0 0000 	movt	r0, #0
  32:	9005      	str	r0, [sp, #20]
  34:	f640 3036 	movw	r0, #2870	; 0xb36
/Users/Luppy/mynewt/stm32bluepill-mynewt-sensor/src/send_coap.rs:572
    //  Sensor `t` has int value 2870.
    let int_sensor_value = SensorValueNew {
        key: "t",
        val: SensorValueType::Uint(2870)
  38:	900b      	str	r0, [sp, #44]	; 0x2c
  3a:	2000      	movs	r0, #0
  3c:	900a      	str	r0, [sp, #40]	; 0x28
/Users/Luppy/mynewt/stm32bluepill-mynewt-sensor/src/send_coap.rs:570
    let int_sensor_value = SensorValueNew {
  3e:	f240 0000 	movw	r0, #0
  42:	f2c0 0000 	movt	r0, #0
  46:	9006      	str	r0, [sp, #24]
  48:	2001      	movs	r0, #1
  4a:	9007      	str	r0, [sp, #28]
  4c:	980a      	ldr	r0, [sp, #40]	; 0x28
  4e:	990b      	ldr	r1, [sp, #44]	; 0x2c
  50:	9109      	str	r1, [sp, #36]	; 0x24
  52:	9008      	str	r0, [sp, #32]
/Users/Luppy/mynewt/stm32bluepill-mynewt-sensor/src/send_coap.rs:575
    };

    coap_item_str! (values, "device", device_id);  ////
  54:	9802      	ldr	r0, [sp, #8]
  56:	9903      	ldr	r1, [sp, #12]
  58:	900c      	str	r0, [sp, #48]	; 0x30
  5a:	910d      	str	r1, [sp, #52]	; 0x34
  5c:	f240 0000 	movw	r0, #0
  60:	f2c0 0000 	movt	r0, #0
  64:	900e      	str	r0, [sp, #56]	; 0x38
  66:	2106      	movs	r1, #6
  68:	910f      	str	r1, [sp, #60]	; 0x3c
  6a:	9a04      	ldr	r2, [sp, #16]
  6c:	9210      	str	r2, [sp, #64]	; 0x40
  6e:	9a02      	ldr	r2, [sp, #8]
  70:	9b03      	ldr	r3, [sp, #12]
  72:	9211      	str	r2, [sp, #68]	; 0x44
  74:	9312      	str	r3, [sp, #72]	; 0x48
  76:	f240 0200 	movw	r2, #0
  7a:	f2c0 0200 	movt	r2, #0
  7e:	9213      	str	r2, [sp, #76]	; 0x4c
  80:	2303      	movs	r3, #3
  82:	9314      	str	r3, [sp, #80]	; 0x50
  84:	9015      	str	r0, [sp, #84]	; 0x54
  86:	9116      	str	r1, [sp, #88]	; 0x58
  88:	f8dd c008 	ldr.w	ip, [sp, #8]
  8c:	f8dd e00c 	ldr.w	lr, [sp, #12]
  90:	f8cd c05c 	str.w	ip, [sp, #92]	; 0x5c
  94:	f8cd e060 	str.w	lr, [sp, #96]	; 0x60
  98:	f240 0c00 	movw	ip, #0
  9c:	f2c0 0c00 	movt	ip, #0
  a0:	f8cd c064 	str.w	ip, [sp, #100]	; 0x64
  a4:	f04f 0e05 	mov.w	lr, #5
  a8:	f8cd e068 	str.w	lr, [sp, #104]	; 0x68
  ac:	9c04      	ldr	r4, [sp, #16]
  ae:	941b      	str	r4, [sp, #108]	; 0x6c
/Users/Luppy/mynewt/stm32bluepill-mynewt-sensor/src/send_coap.rs:578
    //  coap_set_int_val! (root, int_sensor_value);

    coap_array! (root, values, {  //  Create "values" as an array of items under the root
  b0:	9c00      	ldr	r4, [sp, #0]
  b2:	9d01      	ldr	r5, [sp, #4]
  b4:	941c      	str	r4, [sp, #112]	; 0x70
  b6:	951d      	str	r5, [sp, #116]	; 0x74
  b8:	9c02      	ldr	r4, [sp, #8]
  ba:	9d03      	ldr	r5, [sp, #12]
  bc:	941e      	str	r4, [sp, #120]	; 0x78
  be:	951f      	str	r5, [sp, #124]	; 0x7c
/Users/Luppy/mynewt/stm32bluepill-mynewt-sensor/src/send_coap.rs:579
        coap_item_str! (values, "device", device_id);
  c0:	9c02      	ldr	r4, [sp, #8]
  c2:	9d03      	ldr	r5, [sp, #12]
  c4:	9420      	str	r4, [sp, #128]	; 0x80
  c6:	9521      	str	r5, [sp, #132]	; 0x84
  c8:	9022      	str	r0, [sp, #136]	; 0x88
  ca:	9123      	str	r1, [sp, #140]	; 0x8c
  cc:	9c04      	ldr	r4, [sp, #16]
  ce:	9424      	str	r4, [sp, #144]	; 0x90
  d0:	9c02      	ldr	r4, [sp, #8]
  d2:	9d03      	ldr	r5, [sp, #12]
  d4:	9425      	str	r4, [sp, #148]	; 0x94
  d6:	9526      	str	r5, [sp, #152]	; 0x98
  d8:	9227      	str	r2, [sp, #156]	; 0x9c
  da:	9328      	str	r3, [sp, #160]	; 0xa0
  dc:	9029      	str	r0, [sp, #164]	; 0xa4
  de:	912a      	str	r1, [sp, #168]	; 0xa8
  e0:	9c02      	ldr	r4, [sp, #8]
  e2:	9d03      	ldr	r5, [sp, #12]
  e4:	942b      	str	r4, [sp, #172]	; 0xac
  e6:	952c      	str	r5, [sp, #176]	; 0xb0
  e8:	f8cd c0b4 	str.w	ip, [sp, #180]	; 0xb4
  ec:	f8cd e0b8 	str.w	lr, [sp, #184]	; 0xb8
  f0:	9c04      	ldr	r4, [sp, #16]
  f2:	942f      	str	r4, [sp, #188]	; 0xbc
/Users/Luppy/mynewt/stm32bluepill-mynewt-sensor/src/send_coap.rs:580
        coap_item_str! (values, "node", node_id);
  f4:	9c02      	ldr	r4, [sp, #8]
  f6:	9d03      	ldr	r5, [sp, #12]
  f8:	9430      	str	r4, [sp, #192]	; 0xc0
  fa:	9531      	str	r5, [sp, #196]	; 0xc4
  fc:	f240 0400 	movw	r4, #0
 100:	f2c0 0400 	movt	r4, #0
 104:	9432      	str	r4, [sp, #200]	; 0xc8
 106:	2504      	movs	r5, #4
 108:	9533      	str	r5, [sp, #204]	; 0xcc
 10a:	9e05      	ldr	r6, [sp, #20]
 10c:	9634      	str	r6, [sp, #208]	; 0xd0
 10e:	9e02      	ldr	r6, [sp, #8]
 110:	9f03      	ldr	r7, [sp, #12]
 112:	9635      	str	r6, [sp, #212]	; 0xd4
 114:	9736      	str	r7, [sp, #216]	; 0xd8
 116:	9237      	str	r2, [sp, #220]	; 0xdc
 118:	9338      	str	r3, [sp, #224]	; 0xe0
 11a:	9439      	str	r4, [sp, #228]	; 0xe4
 11c:	953a      	str	r5, [sp, #232]	; 0xe8
 11e:	9e02      	ldr	r6, [sp, #8]
 120:	9f03      	ldr	r7, [sp, #12]
 122:	963b      	str	r6, [sp, #236]	; 0xec
 124:	973c      	str	r7, [sp, #240]	; 0xf0
 126:	f8cd c0f4 	str.w	ip, [sp, #244]	; 0xf4
 12a:	f8cd e0f8 	str.w	lr, [sp, #248]	; 0xf8
 12e:	9e05      	ldr	r6, [sp, #20]
 130:	963f      	str	r6, [sp, #252]	; 0xfc
/Users/Luppy/mynewt/stm32bluepill-mynewt-sensor/src/send_coap.rs:585
        //  coap_set_int_val! (root, int_sensor_value);
    });  ////

    let payload = coap_root! ({  //  Create the payload root
        coap_array! (root, values, {  //  Create "values" as an array of items under the root
 132:	9e00      	ldr	r6, [sp, #0]
 134:	9f01      	ldr	r7, [sp, #4]
 136:	9641      	str	r6, [sp, #260]	; 0x104
 138:	9742      	str	r7, [sp, #264]	; 0x108
 13a:	9e02      	ldr	r6, [sp, #8]
 13c:	9f03      	ldr	r7, [sp, #12]
 13e:	9643      	str	r6, [sp, #268]	; 0x10c
 140:	9744      	str	r7, [sp, #272]	; 0x110
/Users/Luppy/mynewt/stm32bluepill-mynewt-sensor/src/send_coap.rs:588
            //  Append to the "values" array:
            //    {"key":"device", "value":"0102030405060708090a0b0c0d0e0f10"},
            coap_item_str! (values, "device", device_id);
 142:	9e02      	ldr	r6, [sp, #8]
 144:	9f03      	ldr	r7, [sp, #12]
 146:	9645      	str	r6, [sp, #276]	; 0x114
 148:	9746      	str	r7, [sp, #280]	; 0x118
 14a:	9047      	str	r0, [sp, #284]	; 0x11c
 14c:	9148      	str	r1, [sp, #288]	; 0x120
 14e:	9e04      	ldr	r6, [sp, #16]
 150:	9649      	str	r6, [sp, #292]	; 0x124
 152:	9e02      	ldr	r6, [sp, #8]
 154:	9f03      	ldr	r7, [sp, #12]
 156:	964a      	str	r6, [sp, #296]	; 0x128
 158:	974b      	str	r7, [sp, #300]	; 0x12c
 15a:	924c      	str	r2, [sp, #304]	; 0x130
 15c:	934d      	str	r3, [sp, #308]	; 0x134
 15e:	904e      	str	r0, [sp, #312]	; 0x138
 160:	914f      	str	r1, [sp, #316]	; 0x13c
 162:	9802      	ldr	r0, [sp, #8]
 164:	9903      	ldr	r1, [sp, #12]
 166:	9050      	str	r0, [sp, #320]	; 0x140
 168:	9151      	str	r1, [sp, #324]	; 0x144
 16a:	f8cd c148 	str.w	ip, [sp, #328]	; 0x148
 16e:	f8cd e14c 	str.w	lr, [sp, #332]	; 0x14c
 172:	9804      	ldr	r0, [sp, #16]
 174:	9054      	str	r0, [sp, #336]	; 0x150
/Users/Luppy/mynewt/stm32bluepill-mynewt-sensor/src/send_coap.rs:591

            //    {"key":"node", "value":"b3b4b5b6f1"},
            coap_item_str! (values, "node", node_id);
 176:	9802      	ldr	r0, [sp, #8]
 178:	9903      	ldr	r1, [sp, #12]
 17a:	9055      	str	r0, [sp, #340]	; 0x154
 17c:	9156      	str	r1, [sp, #344]	; 0x158
 17e:	9457      	str	r4, [sp, #348]	; 0x15c
 180:	9558      	str	r5, [sp, #352]	; 0x160
 182:	9805      	ldr	r0, [sp, #20]
 184:	9059      	str	r0, [sp, #356]	; 0x164
 186:	9802      	ldr	r0, [sp, #8]
 188:	9903      	ldr	r1, [sp, #12]
 18a:	905a      	str	r0, [sp, #360]	; 0x168
 18c:	915b      	str	r1, [sp, #364]	; 0x16c
 18e:	925c      	str	r2, [sp, #368]	; 0x170
 190:	935d      	str	r3, [sp, #372]	; 0x174
 192:	945e      	str	r4, [sp, #376]	; 0x178
 194:	955f      	str	r5, [sp, #380]	; 0x17c
 196:	9802      	ldr	r0, [sp, #8]
 198:	9903      	ldr	r1, [sp, #12]
 19a:	9060      	str	r0, [sp, #384]	; 0x180
 19c:	9161      	str	r1, [sp, #388]	; 0x184
 19e:	f8cd c188 	str.w	ip, [sp, #392]	; 0x188
 1a2:	f8cd e18c 	str.w	lr, [sp, #396]	; 0x18c
 1a6:	9805      	ldr	r0, [sp, #20]
 1a8:	9064      	str	r0, [sp, #400]	; 0x190
/Users/Luppy/mynewt/stm32bluepill-mynewt-sensor/src/send_coap.rs:594

            //  For Sensor Node: Set the Sensor Key and integer Sensor Value, e.g. { t: 2870 }
            coap_set_int_val! (root, int_sensor_value);
 1aa:	9800      	ldr	r0, [sp, #0]
 1ac:	9901      	ldr	r1, [sp, #4]
 1ae:	9065      	str	r0, [sp, #404]	; 0x194
 1b0:	9166      	str	r1, [sp, #408]	; 0x198
/Users/Luppy/mynewt/stm32bluepill-mynewt-sensor/src/send_coap.rs:608
            //  If there are more sensor values, add them here with
            //  coap_item_int_val, coap_item_int, coap_item_uint, coap_item_float or coap_item_str

        }) //  Close the "values" array
    }); //  Close the payload root
}
 1b2:	b067      	add	sp, #412	; 0x19c
 1b4:	bdf0      	pop	{r4, r5, r6, r7, pc}

Disassembly of section .text._ZN5mylib9send_coap10test_macro17hd49bdddf3c23dc03E:

00000000 <mylib::send_coap::test_macro>:
_ZN5mylib9send_coap10test_macro17hd49bdddf3c23dc03E():
/Users/Luppy/mynewt/stm32bluepill-mynewt-sensor/src/send_coap.rs:619
            //  println!("{} = {}", stringify!{$e}, val);
        }
    }};
}

fn test_macro() {
   0:	b086      	sub	sp, #24
   2:	2003      	movs	r0, #3
   4:	2100      	movs	r1, #0
/Users/Luppy/mynewt/stm32bluepill-mynewt-sensor/src/send_coap.rs:621
    calculate! {
        eval 1 + 2 // hehehe `eval` is _not_ a Rust keyword!
   6:	2900      	cmp	r1, #0
   8:	9003      	str	r0, [sp, #12]
   a:	d115      	bne.n	38 <mylib::send_coap::test_macro+0x38>
   c:	e7ff      	b.n	e <mylib::send_coap::test_macro+0xe>
   e:	9803      	ldr	r0, [sp, #12]
  10:	9004      	str	r0, [sp, #16]
  12:	2103      	movs	r1, #3
  14:	2200      	movs	r2, #0
/Users/Luppy/mynewt/stm32bluepill-mynewt-sensor/src/send_coap.rs:625
    }

    calculate! {
        eval (1 + 2) * (3 / 4)
  16:	2a00      	cmp	r2, #0
  18:	9102      	str	r1, [sp, #8]
  1a:	d114      	bne.n	46 <mylib::send_coap::test_macro+0x46>
  1c:	e7ff      	b.n	1e <mylib::send_coap::test_macro+0x1e>
  1e:	e7ff      	b.n	20 <mylib::send_coap::test_macro+0x20>
  20:	2000      	movs	r0, #0
  22:	9902      	ldr	r1, [sp, #8]
  24:	fba1 0200 	umull	r0, r2, r1, r0
  28:	2a00      	cmp	r2, #0
  2a:	9001      	str	r0, [sp, #4]
  2c:	d112      	bne.n	54 <mylib::send_coap::test_macro+0x54>
  2e:	e7ff      	b.n	30 <mylib::send_coap::test_macro+0x30>
  30:	9801      	ldr	r0, [sp, #4]
  32:	9005      	str	r0, [sp, #20]
/Users/Luppy/mynewt/stm32bluepill-mynewt-sensor/src/send_coap.rs:627
    }
}
  34:	b006      	add	sp, #24
  36:	4770      	bx	lr
/Users/Luppy/mynewt/stm32bluepill-mynewt-sensor/src/send_coap.rs:621
        eval 1 + 2 // hehehe `eval` is _not_ a Rust keyword!
  38:	f240 0000 	movw	r0, #0
  3c:	f2c0 0000 	movt	r0, #0
  40:	f7ff fffe 	bl	0 <core::panicking::panic>
  44:	defe      	udf	#254	; 0xfe
/Users/Luppy/mynewt/stm32bluepill-mynewt-sensor/src/send_coap.rs:625
        eval (1 + 2) * (3 / 4)
  46:	f240 0000 	movw	r0, #0
  4a:	f2c0 0000 	movt	r0, #0
  4e:	f7ff fffe 	bl	0 <core::panicking::panic>
  52:	defe      	udf	#254	; 0xfe
  54:	f240 0000 	movw	r0, #0
  58:	f2c0 0000 	movt	r0, #0
  5c:	f7ff fffe 	bl	0 <core::panicking::panic>
  60:	defe      	udf	#254	; 0xfe

Disassembly of section .text._ZN5mylib9send_coap18start_network_task17hd61dace35b0a381aE:

00000000 <mylib::send_coap::start_network_task>:
_ZN5mylib9send_coap18start_network_task17hd61dace35b0a381aE():
/Users/Luppy/mynewt/stm32bluepill-mynewt-sensor/src/send_coap.rs:633

///  TODO: Start the Network Task in the background.  The Network Task prepares the network drivers
///  (ESP8266 and nRF24L01) for transmitting sensor data messages.  
///  Connecting the ESP8266 to the WiFi access point may be slow so we do this in the background.
///  Also perform WiFi Geolocation if it is enabled.  Return 0 if successful.
pub fn start_network_task() -> Result<(), i32>  {  //  Returns an error code upon error.
   0:	b580      	push	{r7, lr}
   2:	b084      	sub	sp, #16
/Users/Luppy/mynewt/stm32bluepill-mynewt-sensor/src/send_coap.rs:635
//  pub fn start_network_task() -> i32  {
    console_print(b"start_network_task\n");
   4:	f240 0000 	movw	r0, #0
   8:	f2c0 0000 	movt	r0, #0
   c:	2113      	movs	r1, #19
   e:	f7ff fffe 	bl	0 <mylib::base::console_print>
  12:	e7ff      	b.n	2 <mylib::send_coap::start_network_task+0x2>
/Users/Luppy/mynewt/stm32bluepill-mynewt-sensor/src/send_coap.rs:636
    test_macro();
  14:	f7ff fffe 	bl	0 <mylib::send_coap::start_network_task>
  18:	e7ff      	b.n	2 <mylib::send_coap::start_network_task+0x2>
/Users/Luppy/mynewt/stm32bluepill-mynewt-sensor/src/send_coap.rs:637
    test_macro2();
  1a:	f7ff fffe 	bl	0 <mylib::send_coap::start_network_task>
  1e:	e7ff      	b.n	2 <mylib::send_coap::start_network_task+0x2>
/Users/Luppy/mynewt/stm32bluepill-mynewt-sensor/src/send_coap.rs:638
    send_sensor_data_rust();
  20:	f7ff fffe 	bl	0 <mylib::send_coap::start_network_task>
  24:	e7ff      	b.n	26 <mylib::send_coap::start_network_task+0x26>
  26:	2000      	movs	r0, #0
/Users/Luppy/mynewt/stm32bluepill-mynewt-sensor/src/send_coap.rs:639
    Ok(())
  28:	9001      	str	r0, [sp, #4]
/Users/Luppy/mynewt/stm32bluepill-mynewt-sensor/src/send_coap.rs:641
    //  0
}
  2a:	9801      	ldr	r0, [sp, #4]
  2c:	9902      	ldr	r1, [sp, #8]
  2e:	b004      	add	sp, #16
  30:	bd80      	pop	{r7, pc}

Disassembly of section .text._ZN5mylib9send_coap16send_sensor_data17hd2e470cb3f766db4E:

00000000 <mylib::send_coap::send_sensor_data>:
_ZN5mylib9send_coap16send_sensor_data17hd2e470cb3f766db4E():
/Users/Luppy/mynewt/stm32bluepill-mynewt-sensor/src/send_coap.rs:652
///  For Collector Node: sensor_node is the Sensor Node Address of the Sensor Node that transmitted
///  the sensor data (like `b3b4b5b6f1`)
///  The message will be enqueued for transmission by the CoAP / OIC Background Task 
///  so this function will return without waiting for the message to be transmitted.  
///  Return 0 if successful, SYS_EAGAIN if network is not ready yet.
pub fn send_sensor_data(_val: *const SensorValue, _sensor_node: &'static CStr) -> i32 {
   0:	b580      	push	{r7, lr}
   2:	b086      	sub	sp, #24
   4:	4613      	mov	r3, r2
   6:	468c      	mov	ip, r1
   8:	4686      	mov	lr, r0
   a:	9003      	str	r0, [sp, #12]
   c:	9104      	str	r1, [sp, #16]
   e:	9205      	str	r2, [sp, #20]
/Users/Luppy/mynewt/stm32bluepill-mynewt-sensor/src/send_coap.rs:653
    console_print(b"send_sensor_data\n");
  10:	f240 0000 	movw	r0, #0
  14:	f2c0 0000 	movt	r0, #0
  18:	2111      	movs	r1, #17
  1a:	9302      	str	r3, [sp, #8]
  1c:	f8cd c004 	str.w	ip, [sp, #4]
  20:	f8cd e000 	str.w	lr, [sp]
  24:	f7ff fffe 	bl	0 <mylib::base::console_print>
  28:	e7ff      	b.n	2a <mylib::send_coap::send_sensor_data+0x2a>
  2a:	2000      	movs	r0, #0
/Users/Luppy/mynewt/stm32bluepill-mynewt-sensor/src/send_coap.rs:685

*/

    ;
    0
}
  2c:	b006      	add	sp, #24
  2e:	bd80      	pop	{r7, pc}

mylib-b003fcb153d61cda.wjo4ew4l4ktpf3y.rcgu.o:     file format elf32-littlearm

SYMBOL TABLE:
00000000 l    df *ABS*	00000000 wjo4ew4l4ktpf3y
000000f4 l       .debug_str	00000000 
00000000 l       .debug_str	00000000 
00000041 l       .debug_str	00000000 
0000004c l       .debug_str	00000000 
0000007c l       .debug_str	00000000 
00000082 l       .debug_str	00000000 
00000087 l       .debug_str	00000000 
000000b9 l       .debug_str	00000000 
000000ee l       .debug_str	00000000 
000000c7 l       .debug_str	00000000 
000000cb l       .debug_str	00000000 
000000d4 l       .debug_str	00000000 
000000d7 l       .debug_str	00000000 
000000e1 l       .debug_str	00000000 
000000e8 l       .debug_str	00000000 
00000000 l    d  .text._ZN5mylib4base13console_print17h6caebb40d9fb0292E	00000000 .text._ZN5mylib4base13console_print17h6caebb40d9fb0292E
00000000 l    d  .debug_abbrev	00000000 .debug_abbrev
00000000 l    d  .debug_info	00000000 .debug_info
00000000 l    d  .debug_frame	00000000 .debug_frame
00000000 l    d  .debug_line	00000000 .debug_line
00000000         *UND*	00000000 core::slice::<impl [T]>::len
00000000         *UND*	00000000 core::slice::<impl [T]>::as_ptr
00000000 g     F .text._ZN5mylib4base13console_print17h6caebb40d9fb0292E	0000003c .hidden mylib::base::console_print
00000000         *UND*	00000000 console_buffer
00000000         *UND*	00000000 console_flush



Disassembly of section .text._ZN5mylib4base13console_print17h6caebb40d9fb0292E:

00000000 <mylib::base::console_print>:
_ZN5mylib4base13console_print17h6caebb40d9fb0292E():
/Users/Luppy/mynewt/stm32bluepill-mynewt-sensor/src/base.rs:7

use cty::*;            //  Import string utilities from cty library: https://crates.io/crates/cty
use crate::sensor::*;  //  Import sensor.rs for Mynewt Sensor API

///  Display message `msg` on the Arm Semihosting console (via OpenOCD).
pub fn console_print(msg: &[u8]) {
   0:	b580      	push	{r7, lr}
   2:	b086      	sub	sp, #24
   4:	460a      	mov	r2, r1
   6:	4603      	mov	r3, r0
   8:	9003      	str	r0, [sp, #12]
   a:	9104      	str	r1, [sp, #16]
/Users/Luppy/mynewt/stm32bluepill-mynewt-sensor/src/base.rs:8
    let len = msg.len();
   c:	9803      	ldr	r0, [sp, #12]
   e:	9904      	ldr	r1, [sp, #16]
  10:	9202      	str	r2, [sp, #8]
  12:	9301      	str	r3, [sp, #4]
  14:	f7ff fffe 	bl	0 <core::slice::<impl [T]>::len>
  18:	9005      	str	r0, [sp, #20]
  1a:	e7ff      	b.n	1c <mylib::base::console_print+0x1c>
/Users/Luppy/mynewt/stm32bluepill-mynewt-sensor/src/base.rs:11
    unsafe {
        //  Call the Semihosting Console API, which is unsafe.
        console_buffer(msg.as_ptr(), len as u32);
  1c:	9803      	ldr	r0, [sp, #12]
  1e:	9904      	ldr	r1, [sp, #16]
  20:	f7ff fffe 	bl	0 <core::slice::<impl [T]>::as_ptr>
  24:	9000      	str	r0, [sp, #0]
  26:	e7ff      	b.n	28 <mylib::base::console_print+0x28>
  28:	9905      	ldr	r1, [sp, #20]
  2a:	9800      	ldr	r0, [sp, #0]
  2c:	f7ff fffe 	bl	0 <console_buffer>
  30:	e7ff      	b.n	2 <console_flush+0x2>
/Users/Luppy/mynewt/stm32bluepill-mynewt-sensor/src/base.rs:12
        console_flush();  //  TODO: Remove this.
  32:	f7ff fffe 	bl	0 <console_flush>
  36:	e7ff      	b.n	38 <mylib::base::console_print+0x38>
/Users/Luppy/mynewt/stm32bluepill-mynewt-sensor/src/base.rs:14
    }
}
  38:	b006      	add	sp, #24
  3a:	bd80      	pop	{r7, pc}
arm-none-eabi-objdump: rust.metadata.bin: File format not recognized
arm-none-eabi-objdump: mylib-b003fcb153d61cda.11mj9j4qeikoz7a8.rcgu.bc.z: File format not recognized
arm-none-eabi-objdump: mylib-b003fcb153d61cda.18n9guqs9q0zxh55.rcgu.bc.z: File format not recognized
arm-none-eabi-objdump: mylib-b003fcb153d61cda.1cv7y0mzu4zroe8s.rcgu.bc.z: File format not recognized
arm-none-eabi-objdump: mylib-b003fcb153d61cda.23l0w0pq083mtt57.rcgu.bc.z: File format not recognized
arm-none-eabi-objdump: mylib-b003fcb153d61cda.2szhknqr18qd3cbm.rcgu.bc.z: File format not recognized
arm-none-eabi-objdump: mylib-b003fcb153d61cda.33mbow37mj95xlhx.rcgu.bc.z: File format not recognized
arm-none-eabi-objdump: mylib-b003fcb153d61cda.3bdhhpoj085ustfh.rcgu.bc.z: File format not recognized
arm-none-eabi-objdump: mylib-b003fcb153d61cda.3m2bj5bgdp6nzbj4.rcgu.bc.z: File format not recognized
arm-none-eabi-objdump: mylib-b003fcb153d61cda.53xejyw88i0w8gr2.rcgu.bc.z: File format not recognized
arm-none-eabi-objdump: mylib-b003fcb153d61cda.wjo4ew4l4ktpf3y.rcgu.bc.z: File format not recognized
