
/Users/Luppy/PineTime/pinetime-rust-mynewt/bin/targets/nrf52_boot/app/boot/mynewt/mynewt.elf:     file format elf32-littlearm
/Users/Luppy/PineTime/pinetime-rust-mynewt/bin/targets/nrf52_boot/app/boot/mynewt/mynewt.elf
architecture: arm, flags 0x00000112:
EXEC_P, HAS_SYMS, D_PAGED
start address 0x000000d9

Program Header:
0x70000001 off    0x00016028 vaddr 0x00006028 paddr 0x00006028 align 2**2
         filesz 0x00000018 memsz 0x00000018 flags r--
    LOAD off    0x00010000 vaddr 0x00000000 paddr 0x00000000 align 2**16
         filesz 0x00006040 memsz 0x00006040 flags r-x
    LOAD off    0x000200d8 vaddr 0x200000d8 paddr 0x00006040 align 2**16
         filesz 0x00000088 memsz 0x0000634c flags rw-
    LOAD off    0x00030000 vaddr 0x20000000 paddr 0x20000000 align 2**16
         filesz 0x00000000 memsz 0x000000d8 flags rw-
private flags = 5000200: [Version5 EABI] [soft-float ABI]

Sections:
Idx Name               Size      VMA       LMA       File off  Algn  Flags
  0 .text              00006028  00000000  00000000  00010000  2**2  CONTENTS, ALLOC, LOAD, READONLY, CODE
  1 .ARM.extab         00000000  00006028  00006028  00020160  2**0  CONTENTS
  2 .ARM.exidx         00000018  00006028  00006028  00016028  2**2  CONTENTS, ALLOC, LOAD, READONLY, DATA
  3 .vector_relocation 000000d8  20000000  20000000  00030000  2**0  ALLOC
  4 .rtt               00000000  200000d8  200000d8  00020160  2**0  CONTENTS
  5 .data              00000088  200000d8  00006040  000200d8  2**2  CONTENTS, ALLOC, LOAD, DATA
  6 .bssnz             00000000  20000160  20000160  00020160  2**0  CONTENTS
  7 .bss               000062c4  20000160  000060c8  00020160  2**2  ALLOC
  8 .stack_dummy       000001b0  20006428  20006428  00020160  2**3  CONTENTS, READONLY
  9 .ARM.attributes    0000002f  00000000  00000000  00020310  2**0  CONTENTS, READONLY
 10 .comment           0000007f  00000000  00000000  0002033f  2**0  CONTENTS, READONLY
 11 .svc_table         00000004  00000000  00000000  000203be  2**0  CONTENTS, READONLY
 12 .debug_line        0001463e  00000000  00000000  000203c2  2**0  CONTENTS, READONLY, DEBUGGING
 13 .debug_info        0002cee5  00000000  00000000  00034a00  2**0  CONTENTS, READONLY, DEBUGGING
 14 .debug_abbrev      00007f93  00000000  00000000  000618e5  2**0  CONTENTS, READONLY, DEBUGGING
 15 .debug_aranges     00001578  00000000  00000000  00069878  2**3  CONTENTS, READONLY, DEBUGGING
 16 .debug_str         00006448  00000000  00000000  0006adf0  2**0  CONTENTS, READONLY, DEBUGGING
 17 .debug_loc         00010010  00000000  00000000  00071238  2**0  CONTENTS, READONLY, DEBUGGING
 18 .debug_ranges      000013f8  00000000  00000000  00081248  2**0  CONTENTS, READONLY, DEBUGGING
 19 .debug_frame       00003794  00000000  00000000  00082640  2**2  CONTENTS, READONLY, DEBUGGING
SYMBOL TABLE:
00000000 l    d  .text	00000000 .text
00006028 l    d  .ARM.extab	00000000 .ARM.extab
00006028 l    d  .ARM.exidx	00000000 .ARM.exidx
20000000 l    d  .vector_relocation	00000000 .vector_relocation
200000d8 l    d  .rtt	00000000 .rtt
200000d8 l    d  .data	00000000 .data
20000160 l    d  .bssnz	00000000 .bssnz
20000160 l    d  .bss	00000000 .bss
20006428 l    d  .stack_dummy	00000000 .stack_dummy
00000000 l    d  .ARM.attributes	00000000 .ARM.attributes
00000000 l    d  .comment	00000000 .comment
00000000 l    d  .svc_table	00000000 .svc_table
00000000 l    d  .debug_line	00000000 .debug_line
00000000 l    d  .debug_info	00000000 .debug_info
00000000 l    d  .debug_abbrev	00000000 .debug_abbrev
00000000 l    d  .debug_aranges	00000000 .debug_aranges
00000000 l    d  .debug_str	00000000 .debug_str
00000000 l    d  .debug_loc	00000000 .debug_loc
00000000 l    d  .debug_ranges	00000000 .debug_ranges
00000000 l    d  .debug_frame	00000000 .debug_frame
00000000 l    df *ABS*	00000000 gcc_startup_nrf52.o
000001b0 l       *ABS*	00000000 Stack_Size
00000000 l       *ABS*	00000000 Heap_Size
000000e0 l       .text	00000000 .bss_zero_loop
00000000 l    df *ABS*	00000000 sbrk.c
200000d8 l     O .data	00000004 sbrkBase
200000dc l     O .data	00000004 sbrkLimit
200000e0 l     O .data	00000004 brk
00000000 l    df *ABS*	00000000 hal_system.c
00000000 l    df *ABS*	00000000 system_nrf52.c
000001ec l     F .text	0000003c errata_16
00000228 l     F .text	0000004c errata_31
00000274 l     F .text	0000003c errata_32
000002b0 l     F .text	0000004c errata_36
000002fc l     F .text	0000003c errata_37
00000338 l     F .text	0000003c errata_57
00000374 l     F .text	0000003c errata_66
000003b0 l     F .text	0000004c errata_108
00000000 l    df *ABS*	00000000 start.c
00000000 l    df *ABS*	00000000 main.c
00000000 l    df *ABS*	00000000 hal_bsp.c
00005810 l     O .text	00000008 flash_devs
00000000 l    df *ABS*	00000000 cmsis_nvic.c
00000000 l    df *ABS*	00000000 spiflash.c
000006cc l     F .text	00000014 hal_spiflash_sector_info
000006e0 l     F .text	0000002e spiflash_release_power_down_generic
0000070e l     F .text	00000008 spiflash_delay_us
000007b0 l     F .text	00000050 spiflash_wait_ready_till
00000816 l     F .text	0000006a hal_spiflash_read
000008a0 l     F .text	000000c8 hal_spiflash_write
00000968 l     F .text	00000078 spiflash_execute_erase
000009e0 l     F .text	0000002c spiflash_erase_cmd
00000a1a l     F .text	00000008 hal_spiflash_erase_sector
00000aec l     F .text	00000008 hal_spiflash_erase
00000b60 l     F .text	0000003e hal_spiflash_init
00005848 l     O .text	0000001c spiflash_flash_funcs
20000128 l     O .data	00000010 supported_chips
00005818 l     O .text	00000030 spiflash_characteristics
00000000 l    df *ABS*	00000000 hal_common.c
00000000 l    df *ABS*	00000000 hal_flash.c
00000ba4 l     F .text	00000028 nrf52k_flash_wait_ready
00000bcc l     F .text	00000054 nrf52k_flash_erase_sector
00000c20 l     F .text	00000004 nrf52k_flash_init
00000c24 l     F .text	00000028 nrf52k_flash_sector_info
00000c4c l     F .text	000000d0 nrf52k_flash_write
00000d1c l     F .text	0000000e nrf52k_flash_read
0000587c l     O .text	0000001c nrf52k_flash_funcs
00000000 l    df *ABS*	00000000 hal_gpio.c
00000000 l    df *ABS*	00000000 hal_spi.c
00000de4 l     F .text	0000006e nrf52_irqm_handler
00000e6c l     F .text	00000014 hal_spi_stop_transfer
00000e80 l     F .text	0000004a hal_spi_config_slave
00000ecc l     F .text	000000b8 hal_spi_init_master
00000f84 l     F .text	000000de hal_spi_config_master
00005898 l     O .text	00000010 nrf52_hal_spis
00000000 l    df *ABS*	00000000 hal_watchdog.c
000012d8 l     F .text	00000016 nrf52_hal_wdt_default_handler
000012f0 l     F .text	00000020 nrf52_wdt_irq_handler
00000000 l    df *ABS*	00000000 nrf52_periph.c
00001390 l     F .text	00000044 nrf52_periph_create_timers
000013d4 l     F .text	00000028 nrf52_periph_create_spi
000058a8 l     O .text	00000004 os_bsp_spi0m_cfg
00000000 l    df *ABS*	00000000 hal_timer.c
00001408 l     F .text	0000000a nrf_read_timer_cntr
00001414 l     F .text	000000f4 nrf_timer_set_ocmp
00001508 l     F .text	0000000a nrf_timer_disable_ocmp
00001512 l     F .text	00000010 nrf_rtc_disable_ocmp
00001524 l     F .text	00000054 hal_timer_read_bsptimer
00001578 l     F .text	00000070 hal_timer_chk_queue
000015e8 l     F .text	0000002c hal_timer_irq_handler
000058ac l     O .text	00000018 nrf52_hal_timers
00000000 l    df *ABS*	00000000 os_fault.c
00000000 l    df *ABS*	00000000 os_cputime.c
00000000 l    df *ABS*	00000000 os_dev.c
000018c4 l     F .text	00000026 os_dev_initialize
200001a4 l     O .bss	00000008 g_os_dev_list
00000000 l    df *ABS*	00000000 os_arch_arm.c
00000000 l    df *ABS*	00000000 os.c
00000000 l    df *ABS*	00000000 os_eventq.c
00000000 l    df *ABS*	00000000 os_mempool.c
00001970 l     F .text	00000078 os_mempool_init_internal
00000000 l    df *ABS*	00000000 os_msys.c
00001a84 l     F .text	00000010 os_msys_find_biggest_pool
00001a94 l     F .text	0000002c os_msys_find_pool
00001b0c l     F .text	00000058 os_msys_init_once
200001b8 l     O .bss	00004900 os_msys_1_data
20004ab8 l     O .bss	0000000c os_msys_1_mbuf_pool
20004ac4 l     O .bss	0000001c os_msys_1_mempool
20000138 l     O .data	00000008 g_msys_pool_list
00000000 l    df *ABS*	00000000 os_time.c
00000000 l    df *ABS*	00000000 HAL_CM4.o
00001c28 l       .text	00000000 SVC_User
00001c46 l       .text	00000000 SVC_Done
00000000 l    df *ABS*	00000000 os_mbuf.c
00000000 l    df *ABS*	00000000 os_mutex.c
00000000 l    df *ABS*	00000000 memcmp.c
00001e46 l       .text	00000000 test1
00001e3a l       .text	00000000 loop1
00001e4c l       .text	00000000 res1
00001e68 l       .text	00000000 test2
00001e70 l       .text	00000000 done
00001e5c l       .text	00000000 loop2
00000000 l    df *ABS*	00000000 memcpy.c
00001e7c l       .text	00000000 test1
00001e78 l       .text	00000000 loop1
00001e8a l       .text	00000000 test2
00001e86 l       .text	00000000 loop2
00000000 l    df *ABS*	00000000 memset.c
00000000 l    df *ABS*	00000000 strlen.c
00000000 l    df *ABS*	00000000 blink.c
00001ed8 l     F .text	00000028 init_backlight
00001f00 l     F .text	00000028 delay_ms
00001f28 l     F .text	00000050 blink_pattern
20000148 l     O .data	00000004 first_blink.7809
00005a3c l     O .text	00000003 backlights
00005a40 l     O .text	0000000c fast_pulse
00005a4c l     O .text	00000006 faster_pulse
00005a54 l     O .text	00000003 fastest_pulse
00005a58 l     O .text	00000012 slow_pulse
00005a6c l     O .text	00000024 slower_pulse
00000000 l    df *ABS*	00000000 pinetime_boot.c
00002000 l     F .text	00000050 relocate_vector_table
00000000 l    df *ABS*	00000000 display.c
0000219c l     F .text	0000001e hard_reset
000021bc l     F .text	00000024 delay_ms
000021e0 l     F .text	00000042 transmit_spi
00002222 l     F .text	0000001a write_data
0000223c l     F .text	0000005e write_command
0000229c l     F .text	0000016c init_display
00002408 l     F .text	00000030 set_orientation
00002438 l     F .text	00000110 set_window
20004ae8 l     O .bss	00000100 flash_buffer
00005b10 l     O .text	00000001 COLMOD_PARA.8090
00005b14 l     O .text	00000003 FRMCTR1_PARA.8078
00005b18 l     O .text	00000003 FRMCTR2_PARA.8079
00005b1c l     O .text	00000006 FRMCTR3_PARA.8080
00005b24 l     O .text	00000001 INVCTR_PARA.8081
00005b28 l     O .text	00000001 MADCTL1_PARA.8088
00005b2c l     O .text	00000003 PWCTR1_PARA.8082
00005b30 l     O .text	00000001 PWCTR2_PARA.8083
00005b34 l     O .text	00000002 PWCTR3_PARA.8084
00005b38 l     O .text	00000002 PWCTR4_PARA.8085
00005b3c l     O .text	00000002 PWCTR5_PARA.8086
00005b40 l     O .text	00000001 VMCTR1_PARA.8087
00000000 l    df *ABS*	00000000 console.c
20004be8 l     O .bss	00000010 avail_queue
20004bfc l     O .bss	0000000c console_write_lock
00000000 l    df *ABS*	00000000 console_fmt.c
00000000 l    df *ABS*	00000000 semihosting_console.c
0000270c l     F .text	00000024 __semihost
00002730 l     F .text	00000010 debugger_connected
00002740 l     F .text	0000002e semihost_write
00002814 l     F .text	0000001c semihosting_console_write_ch
20004c0c l     O .bss	00000004 semihost_mbuf
2000014c l     O .data	00000001 log_enabled
00000000 l    df *ABS*	00000000 ticks.c
20004c10 l     O .bss	00000001 do_ticks
00000000 l    df *ABS*	00000000 sysinit.c
0000287c l     F .text	00000006 sysinit_dflt_panic_cb
00000000 l    df *ABS*	00000000 mem.c
00000000 l    df *ABS*	00000000 nrf52_boot-sysinit-app.c
00000000 l    df *ABS*	00000000 bootutil_misc.c
000028e8 l     F .text	0000000c boot_flag_decode
000028f4 l     F .text	00000018 boot_magic_decode
0000290c l     F .text	00000060 boot_find_status
0000296c l     F .text	0000006a boot_write_trailer
000029d6 l     F .text	00000016 boot_write_trailer_flag
00005b8c l     O .text	00000012 boot_swap_tables
00000000 l    df *ABS*	00000000 loader.c
00002d9c l     F .text	00000040 boot_is_header_valid
00002ddc l     F .text	0000001c boot_write_sz
00002df8 l     F .text	0000009c boot_read_image_size
00002e94 l     F .text	00000054 boot_check_header_erased
00002ee8 l     F .text	00000048 boot_initialize_area
00002f30 l     F .text	0000003a boot_read_sectors
00002f6c l     F .text	00000034 boot_image_check
00002fa0 l     F .text	00000098 boot_validate_slot
00003038 l     F .text	00000038 boot_validated_swap_type
00003070 l     F .text	00000036 boot_read_image_headers
000030dc l     F .text	000000b4 boot_swap_image
00003190 l     F .text	00000094 boot_complete_partial_swap
00003224 l     F .text	00000060 boot_perform_update
00003284 l     F .text	000000f4 boot_prepare_image_for_update
20004c14 l     O .bss	0000006c boot_data
20004c80 l     O .bss	00000400 buf.7201
20005080 l     O .bss	00000600 primary_slot_sectors.7241
20005680 l     O .bss	00000600 scratch_sectors.7243
20005c80 l     O .bss	00000600 secondary_slot_sectors.7242
20006280 l     O .bss	00000100 tmpbuf.7134
00000000 l    df *ABS*	00000000 swap_misc.c
00000000 l    df *ABS*	00000000 swap_scratch.c
000037ca l     F .text	0000002e boot_copy_sz
000037f8 l     F .text	000003f2 boot_swap_sectors
00005de8 l     O .text	00000010 boot_status_tables
00000000 l    df *ABS*	00000000 image_validate.c
00003fca l     F .text	0000007e bootutil_img_hash
00000000 l    df *ABS*	00000000 tlv.c
00000000 l    df *ABS*	00000000 flash_map_extended.c
00000000 l    df *ABS*	00000000 sha256.c
00005edc l     O .text	00000100 K
00000000 l    df *ABS*	00000000 hal_flash.c
00004634 l     F .text	0000001e hal_flash_check_addr
20006380 l     O .bss	00000001 protected_flash
00000000 l    df *ABS*	00000000 hal_system_start.c
00000000 l    df *ABS*	00000000 inline.c
00000000 l    df *ABS*	00000000 mynewt.c
0000492c l     F .text	00000004 stdin_read
00004930 l     F .text	00000010 stdout_write
20000154 l     O .data	00000004 _stdin
20000158 l     O .data	00000008 _stdin_methods
00000000 l    df *ABS*	00000000 tinyprintf.c
00004940 l     F .text	000000ec ui2a
00004a2c l     F .text	00000020 i2a
00004a4c l     F .text	00000030 a2d
00004a7c l     F .text	00000036 a2i
00004ab2 l     F .text	0000002a putf
00004adc l     F .text	0000011c putchw
00004bf8 l     F .text	00000064 intarg
00000000 l    df *ABS*	00000000 vprintf.c
00000000 l    df *ABS*	00000000 flash_map.c
00004f34 l     F .text	0000003c flash_area_find_idx
00004f70 l     F .text	00000058 flash_map_area_overlaps
00004fc8 l     F .text	0000007c flash_map_add_new_dflt_areas
00005044 l     F .text	00000078 flash_map_read_mfg
2000638c l     O .bss	00000078 mfg_areas.8029
00000000 l    df *ABS*	00000000 modlog.c
00000000 l    df *ABS*	00000000 mfg.c
0000526c l     F .text	00000094 mfg_seek_next_aux
00005300 l     F .text	00000070 mfg_read_mmr
00005370 l     F .text	00000054 mfg_read_next_mmr
000053c4 l     F .text	00000044 mfg_open_flash_area
00005408 l     F .text	00000044 mfg_read_tlv_body
000054c0 l     F .text	0000004e mfg_read_mmr_refs
20006404 l     O .bss	00000001 mfg_initialized
20006408 l     O .bss	00000018 mfg_mmrs
20006420 l     O .bss	00000004 mfg_num_mmrs
00000000 l    df *ABS*	00000000 _aeabi_uldivmod.o
00000000 l    df *ABS*	00000000 libgcc2.c
00000000 l    df *ABS*	00000000 _dvmd_tls.o
00000000 l    df *ABS*	00000000 nrf52_boot-sysflash.c
00000000 l    df *ABS*	00000000 os_sched.c
00000000 l    df *ABS*	00000000 SVC_Table.S
00000000 l       .svc_table	00000000 SVC_End
000027c0 g     F .text	00000054 console_buffer
20006428 g       .bss	00000000 __HeapBase
00000000 g       .svc_table	00000000 SVC_Count
00000144  w    F .text	00000002 TIMER2_IRQHandler
200001b0 g     O .bss	00000008 g_os_mempool_list
00000144  w    F .text	00000002 RTC0_IRQHandler
00002a6c g     F .text	000000c0 boot_read_swap_state
000035a0 g     F .text	00000010 boot_go
200000d8 g       .data	00000000 __data_start__
00005864 g     O .text	00000018 nrf52k_flash_dev
00004efc g     F .text	00000024 printf
00005fdc g     O .text	00000004 stdout
00000144  w    F .text	00000002 SWI0_EGU0_IRQHandler
00000d8e g     F .text	00000022 hal_gpio_write
00004348 g     F .text	00000128 mbedtls_internal_sha256_process
00000136  w    F .text	00000002 HardFault_Handler
00001624 g     F .text	00000060 hal_timer_init
0000545e g     F .text	0000001a mfg_seek_next_with_type
000048ce g     F .text	0000000a hal_system_start
00002bb8 g     F .text	00000054 boot_write_swap_info
0000467a g     F .text	00000010 hal_flash_align
00000144  w    F .text	00000002 SWI2_EGU2_IRQHandler
000029ec g     F .text	00000020 boot_magic_compatible_check
00001c76 g     F .text	0000000c SysTick_Handler
00000144  w    F .text	00000002 GPIOTE_IRQHandler
00001614 g     F .text	00000010 nrf52_timer0_irq_handler
00001a4c g     F .text	00000026 os_memblock_put
00000144  w    F .text	00000002 PWM1_IRQHandler
00001b74 g     F .text	00000028 os_msys_get_pkthdr
20006384 g     O .bss	00000004 flash_map
0000483c g     F .text	00000030 hal_flash_is_erased
00001c4c g     F .text	0000002a PendSV_Handler
00000134  w    F .text	00000002 NMI_Handler
00006040 g       .ARM.exidx	00000000 __exidx_end
00004296 g     F .text	0000000c mbedtls_sha256_init
00000000 g       .text	00000000 __isr_vector_start
00000174 g     F .text	0000002c hal_system_reset
20000148 g       .data	00000000 __aeabi_unwind_cpp_pr0
00000144  w    F .text	00000002 POWER_CLOCK_IRQHandler
00006040 g       .ARM.exidx	00000000 __etext
00000144  w    F .text	00000002 RADIO_IRQHandler
00005192 g     F .text	00000026 flash_area_write
20000160 g       .bssnz	00000000 __bssnz_start__
00000a5e g     F .text	0000008e spiflash_erase
00000144  w    F .text	00000002 PDM_IRQHandler
000035b0 g     F .text	0000008c swap_erase_trailer_sectors
00003440 g     F .text	00000160 context_boot_go
00003d00 g     F .text	00000100 boot_slots_compatible
00005478 g     F .text	0000000a mfg_read_tlv_flash_area
00002870 g     F .text	0000000c console_get_ticks
00001a74 g     F .text	00000010 os_mempool_module_init
00000144  w    F .text	00000002 TEMP_IRQHandler
00000144  w    F .text	00000002 QDEC_IRQHandler
00000144  w    F .text	00000002 TIMER3_IRQHandler
00001918 g     F .text	0000000a timer_handler
00003f4c g     F .text	0000007e swap_run
0000286c g     F .text	00000004 semihosting_console_init
00001e76 g     F .text	0000001a memcpy
00001310 g     F .text	00000080 hal_watchdog_init
00001890 g     F .text	0000000c os_cputime_init
00003790 g     F .text	0000003a swap_set_image_ok
00005510 g     F .text	00000000 .hidden __aeabi_uldivmod
0000486c g     F .text	00000062 hal_flash_isempty
000048f8 g     F .text	00000034 puts
00000000 g       *ABS*	00000000 _imghdr_size
20004bf8 g     O .bss	00000004 console_is_midline
00001d26 g     F .text	00000014 os_mbuf_free
200000e4 g     O .data	00000004 SystemCoreClock
00000158 g     F .text	0000000c hal_system_init
00000144  w    F .text	00000002 SPIM0_SPIS0_TWIM0_TWIS0_SPI0_TWI0_IRQHandler
0000516c g     F .text	00000026 flash_area_read
000017b4 g     F .text	00000044 __assert_func
00000e54 g     F .text	00000018 nrf52_spi0_irq_handler
00002684 g     F .text	00000040 console_pkg_init
0000013c  w    F .text	00000002 UsageFault_Handler
00000a42 g     F .text	0000001c spiflash_chip_erase
00000144  w    F .text	00000002 UARTE0_UART0_IRQHandler
00004c5c g     F .text	00000298 tfp_format
2000fe50 g       *ABS*	00000000 __HeapLimit
20000160 g       .bss	00000000 __bss_start__
00000164 g     F .text	00000010 hal_debugger_connected
000046f0 g     F .text	00000074 hal_flash_write
00000144  w    F .text	00000002 TIMER4_IRQHandler
00005540 g     F .text	000002cc .hidden __udivmoddi4
00002a1e g     F .text	0000001e boot_status_entries
00002a0c g     F .text	00000008 boot_status_sz
20004ae0 g     O .bss	00000004 g_current_task
00001922 g     F .text	0000000c os_arch_save_sr
00003bea g     F .text	00000034 boot_read_image_header
00002b7c g     F .text	00000020 boot_write_magic
000019e8 g     F .text	00000014 os_mempool_init
00000af4 g     F .text	0000006c spiflash_identify
000018a6 g     F .text	00000016 os_cputime_delay_ticks
00006028 g       .text	00000000 __exidx_start
000033e0 g     F .text	00000008 boot_erase_region
00003e00 g     F .text	0000014c swap_status_source
00001d72 g     F .text	000000a8 os_mbuf_append
00005482 g     F .text	0000000a mfg_read_tlv_mmr_ref
00001bec g     F .text	00000014 os_set_env
00000670 g     F .text	00000014 hal_bsp_flash_dev
000013fc g     F .text	0000000c nrf52_periph_create
000051de g     F .text	0000000a flash_area_align
000027b8 g     F .text	00000008 disable_buffer
000026c4 g     F .text	00000048 console_printf
0000267a g     F .text	00000008 console_blocking_mode
00000144  w    F .text	00000002 I2S_IRQHandler
000005da g     F .text	00000002 _init
00004764 g     F .text	000000d8 hal_flash_erase
00002a66 g     F .text	00000006 boot_swap_info_off
00002c0c g     F .text	00000022 boot_write_swap_size
00002548 g     F .text	00000114 pinetime_boot_display_image
00000144  w    F .text	00000002 SWI4_EGU4_IRQHandler
00003378 g     F .text	00000068 boot_write_status
00000144  w    F .text	00000002 TIMER0_IRQHandler
00002c30 g     F .text	000000d8 boot_swap_type_multi
000000d8 g     F .text	0000005c Reset_Handler
20004c11 g     O .bss	00000001 sysinit_active
00002b4c g     F .text	00000030 boot_read_swap_size
00003772 g     F .text	0000001e swap_set_copy_done
00002050 g     F .text	000000c0 pinetime_boot_init
00001cb4 g     F .text	0000000a os_mbuf_pool_init
00001c82 g     F .text	0000001e os_default_irq_asm
000036ee g     F .text	00000084 swap_read_status
0000548c g     F .text	00000024 mfg_init
00001e1a g     F .text	00000014 os_mutex_init
00000148 g     F .text	00000010 _sbrkInit
20000160 g       .bssnz	00000000 __bssnz_end__
00005200 g     F .text	00000068 flash_map_init
00004f20 g     F .text	00000014 vprintf
00000144  w    F .text	00000002 TIMER1_IRQHandler
20000000 g       .bss	00000000 _ram_start
00001f78 g     F .text	00000088 blink_backlight
20000000 g       .vector_relocation	00000000 __vector_tbl_reloc__
00003c20 g     F .text	000000c4 swap_read_status_bytes
00000d2a g     F .text	0000002c hal_gpio_init_in
00000144  w    F .text	00000002 PWM2_IRQHandler
20000160 g       .data	00000000 __data_end__
000044f6 g     F .text	0000013e mbedtls_sha256_finish_ret
00000144  w    F .text	00000002 ECB_IRQHandler
20004ae4 g     O .bss	00000004 g_os_time
00001150 g     F .text	00000068 hal_spi_init
20006424 g       .bss	00000000 __bss_end__
00001cbe g     F .text	00000032 os_mbuf_get
00000144  w    F .text	00000002 SPIM1_SPIS1_TWIM1_TWIS1_SPI1_TWI1_IRQHandler
0000079a g     F .text	00000016 spiflash_device_ready
00001b64 g     F .text	00000010 os_msys_reset
00000144 g     F .text	00000002 Default_Handler
000005cc g     F .text	0000000e _start
00002b9c g     F .text	0000000e boot_write_copy_done
00003ce4 g     F .text	0000001a boot_status_internal_off
00001c00 g     F .text	00000006 os_arch_init_task_stack
00005b7c g     O .text	00000010 boot_img_magic
00000d56 g     F .text	00000038 hal_gpio_init_out
00000db0 g     F .text	00000034 hal_gpio_read
20000150 g     O .data	00000004 sysinit_panic_cb
000019fc g     F .text	00000032 os_memblock_get
0000289c g     F .text	00000030 mem_init_mbuf_pool
000030ba g     F .text	00000022 boot_status_is_reset
000017f8 g     F .text	00000098 os_default_irq
00000a0c g     F .text	0000000e spiflash_sector_erase
000051e8 g     F .text	0000000a flash_area_erased_val
0000363c g     F .text	000000b2 swap_status_init
00001e2e g     F .text	00000048 memcmp
0000580c  w    F .text	00000002 .hidden __aeabi_ldiv0
00002884 g     F .text	0000000c sysinit_start
00001684 g     F .text	000000f8 hal_timer_config
00002110 g     F .text	00000048 setup_watchdog
00004284 g     F .text	00000012 flash_area_id_from_multi_image_slot
000030a6 g     F .text	00000014 boot_status_reset
000033e8 g     F .text	00000058 boot_copy_region
00001ac0 g     F .text	0000004c os_msys_register
000050bc g     F .text	00000034 flash_area_open
200000e8 g     O .data	00000040 spiflash_dev
00000144  w    F .text	00000002 SAADC_IRQHandler
00002b2c g     F .text	00000020 boot_read_swap_state_by_id
00001e90 g     F .text	00000038 memset
00000000 g       .text	000000d8 __isr_vector
000005e2 g     F .text	0000008e main
00001200 g     F .text	0000002c hal_spi_set_txrx_cb
00002830 g     F .text	0000003c console_out_nolock
00000716 g     F .text	0000005a spiflash_read_jedec_id
00000144  w    F .text	00000002 CCM_AAR_IRQHandler
00000144  w    F .text	00000002 WDT_IRQHandler
00002890 g     F .text	0000000c sysinit_end
00005268 g     F .text	00000002 modlog_init
00001c06 g     F .text	00000046 SVC_Handler
0000469a g     F .text	00000054 hal_flash_read
0000177c g     F .text	00000038 hal_timer_read
000051b8 g     F .text	00000026 flash_area_erase
20000160 g     O .bss	00000028 nrf52_hal_spi0
00001d5e g     F .text	00000014 os_mbuf_len
20004c08 g     O .bss	00000001 g_silence_console
00000144  w    F .text	00000002 SWI5_EGU5_IRQHandler
20006388 g     O .bss	00000004 flash_map_entries
00000000 g       .text	00000000 __text
0000544c g     F .text	00000012 mfg_seek_next
000051f2 g     F .text	0000000e flash_area_read_is_empty
0000265c g     F .text	0000001e console_write
00002a3c g     F .text	0000002a boot_status_off
0000040c g     F .text	000001c0 SystemInit
0000189c g     F .text	0000000a os_cputime_get32
00000144  w    F .text	00000002 RNG_IRQHandler
0000468a g     F .text	00000010 hal_flash_erased_val
00004048 g     F .text	000000ba bootutil_img_validate
00000000 g       .svc_table	00000000 SVC_Table
00000144  w    F .text	00000002 RTC2_IRQHandler
000011b8 g     F .text	00000048 hal_spi_tx_val
00000880 g     F .text	00000020 spiflash_write_enable
20010000 g       .bss	00000000 __StackTop
00002770 g     F .text	00000048 console_flush
00000144  w    F .text	00000002 PWM0_IRQHandler
00000144  w    F .text	00000002 SWI3_EGU3_IRQHandler
00001064 g     F .text	00000038 hal_spi_config
000050f0 g     F .text	0000007c flash_area_to_sectors
00005fe0 g     O .text	00000048 sysflash_map_dflt
20000188 g     O .bss	0000001c nrf52_hal_timer0
000000d8 g       .text	00000000 __isr_vector_end
00000144  w    F .text	00000002 RTC1_IRQHandler
00002d08 g     F .text	00000092 boot_set_pending
0000109c g     F .text	0000004c hal_spi_enable
000018bc g     F .text	00000008 os_cputime_delay_usecs
00000144  w    F .text	00000002 SWI1_EGU1_IRQHandler
00000800 g     F .text	00000016 spiflash_wait_ready
000048d8 g     F .text	0000001e fwrite
00000a32 g     F .text	00000010 spiflash_block_64k_erase
000054b0 g     F .text	00000010 mfg_open
20000140 g     O .data	00000008 g_os_run_list
00000698 g     F .text	00000034 NVIC_Relocate
000028cc g     F .text	0000001c sysinit_app
200001ac g     O .bss	00000004 os_flags
0000192e g     F .text	00000006 os_arch_restore_sr
2000fe50 g       *ABS*	000001b0 __StackLimit
00004470 g     F .text	00000086 mbedtls_sha256_update_ret
00000144  w    F .text	00000002 SPIM2_SPIS2_SPI2_IRQHandler
00000144  w    F .text	00000002 NFCT_IRQHandler
000003fc g     F .text	00000010 SystemCoreClockUpdate
00001d3a g     F .text	00000024 os_mbuf_free_chain
00001b9c g     F .text	00000034 os_msys_init
00001bd0 g     F .text	0000000c os_time_get
0000122c g     F .text	000000ac hal_spi_txrx
00001cf0 g     F .text	00000036 os_mbuf_get_pkthdr
0000580c  w    F .text	00000002 .hidden __aeabi_idiv0
00004102 g     F .text	000000ca bootutil_tlv_iter_begin
00000b9e g     F .text	00000006 _exit
000001a0 g     F .text	0000004c hal_system_clock_start
0000013a  w    F .text	00000002 BusFault_Handler
00001ec8 g     F .text	00000010 strlen
00000770 g     F .text	0000002a spiflash_read_status
00001a2e g     F .text	0000001e os_memblock_put_from_cb
0000195e g     F .text	00000010 os_eventq_init
00001bdc g     F .text	00000010 os_time_advance
00004652 g     F .text	00000028 hal_flash_init
00000144  w    F .text	00000002 MWU_IRQHandler
00000138  w    F .text	00000002 MemoryManagement_Handler
00000144  w    F .text	00000002 COMP_LPCOMP_IRQHandler
000018ec g     F .text	0000002c os_dev_initialize_all
00002158 g     F .text	00000044 boot_custom_start
00000684 g     F .text	00000014 hal_bsp_init
00001934 g     F .text	0000002a os_pkg_init
000010e8 g     F .text	00000068 hal_spi_disable
000005dc g     F .text	00000006 flash_device_base
00000a22 g     F .text	00000010 spiflash_block_32k_erase
00004ef4 g     F .text	00000008 vfprintf
00002a14 g     F .text	0000000a boot_trailer_sz
000041cc g     F .text	000000b8 bootutil_tlv_iter_next
00002baa g     F .text	0000000e boot_write_image_ok
000042a4 g     F .text	000000a4 mbedtls_sha256_starts_ret



Disassembly of section .text:

00000000 <__isr_vector>:
 * NOTE: must be called with interrupts disabled! This function does not call
 * the scheduler
 */
int
os_sched_sleep(struct os_task *t, os_time_t nticks)
{
       0:	20010000 	.word	0x20010000
       4:	000000d9 	.word	0x000000d9
    struct os_task *entry;

    entry = NULL;

    TAILQ_REMOVE(&g_os_run_list, t, t_os_list);
       8:	00000135 	.word	0x00000135
       c:	00000137 	.word	0x00000137
	...
    if (nticks == OS_TIMEOUT_NEVER) {
        t->t_flags |= OS_TASK_FLAG_NO_TIMEOUT;
        TAILQ_INSERT_TAIL(&g_os_sleep_list, t, t_os_list);
    } else {
        TAILQ_FOREACH(entry, &g_os_sleep_list, t_os_list) {
            if ((entry->t_flags & OS_TASK_FLAG_NO_TIMEOUT) ||
      2c:	00001c07 	.word	0x00001c07
	...
      38:	00001c4d 	.word	0x00001c4d
        TAILQ_FOREACH(entry, &g_os_sleep_list, t_os_list) {
      3c:	00001c77 	.word	0x00001c77
    TAILQ_REMOVE(&g_os_run_list, t, t_os_list);
      40:	00000145 	.word	0x00000145
      44:	00000145 	.word	0x00000145
        t->t_flags |= OS_TASK_FLAG_NO_TIMEOUT;
      48:	00000145 	.word	0x00000145
      4c:	00000145 	.word	0x00000145
        TAILQ_INSERT_TAIL(&g_os_sleep_list, t, t_os_list);
      50:	00000145 	.word	0x00000145
      54:	00000145 	.word	0x00000145
      58:	00000145 	.word	0x00000145
      5c:	00000145 	.word	0x00000145
      60:	00000145 	.word	0x00000145
                    OS_TIME_TICK_GT(entry->t_next_wakeup, t->t_next_wakeup)) {
                break;
            }
        }
        if (entry) {
            TAILQ_INSERT_BEFORE(entry, t, t_os_list);
      64:	00000145 	.word	0x00000145
      68:	00000145 	.word	0x00000145
      6c:	00000145 	.word	0x00000145
      70:	00000145 	.word	0x00000145
        }
    }

    os_trace_task_stop_ready(t, OS_TASK_SLEEP);
    return (0);
}
      74:	00000145 	.word	0x00000145
            TAILQ_INSERT_TAIL(&g_os_sleep_list, t, t_os_list);
      78:	00000145 	.word	0x00000145
      7c:	00000145 	.word	0x00000145
      80:	00000145 	.word	0x00000145
      84:	00000145 	.word	0x00000145
      88:	00000145 	.word	0x00000145
      8c:	00000145 	.word	0x00000145
      90:	00000145 	.word	0x00000145
      94:	00000145 	.word	0x00000145
      98:	00000145 	.word	0x00000145
      9c:	00000145 	.word	0x00000145
      a0:	00000145 	.word	0x00000145
      a4:	00000145 	.word	0x00000145
      a8:	00000145 	.word	0x00000145
      ac:	00000145 	.word	0x00000145
      b0:	00000145 	.word	0x00000145
      b4:	00000145 	.word	0x00000145
	...
      c0:	00000145 	.word	0x00000145
      c4:	00000145 	.word	0x00000145
      c8:	00000145 	.word	0x00000145
      cc:	00000145 	.word	0x00000145
      d0:	00000145 	.word	0x00000145
      d4:	00000145 	.word	0x00000145

000000d8 <Reset_Handler>:
    .type    Reset_Handler, %function
Reset_Handler:
    .fnstart

    /* Clear BSS */
    mov     r0, #0
      d8:	f04f 0000 	mov.w	r0, #0
    ldr     r2, =__bss_start__
      dc:	4a0c      	ldr	r2, [pc, #48]	; (110 <.bss_zero_loop+0x30>)
    ldr     r3, =__bss_end__
      de:	4b0d      	ldr	r3, [pc, #52]	; (114 <.bss_zero_loop+0x34>)

000000e0 <.bss_zero_loop>:
.bss_zero_loop:
    cmp     r2, r3
      e0:	429a      	cmp	r2, r3
    itt     lt
      e2:	bfbc      	itt	lt
    strlt   r0, [r2], #4
      e4:	f842 0b04 	strlt.w	r0, [r2], #4
    blt    .bss_zero_loop
      e8:	e7fa      	blt.n	e0 <.bss_zero_loop>
 *      of copy from/to are specified by following symbols evaluated in
 *      linker script.
 *      __etext: End of code section, i.e., begin of data sections to copy from.
 *      __data_start__/__data_end__: RAM address range that data should be
 *      copied to. Both must be aligned to 4 bytes boundary.  */
    ldr    r1, =__etext
      ea:	490b      	ldr	r1, [pc, #44]	; (118 <.bss_zero_loop+0x38>)
    ldr    r2, =__data_start__
      ec:	4a0b      	ldr	r2, [pc, #44]	; (11c <.bss_zero_loop+0x3c>)
    ldr    r3, =__data_end__
      ee:	4b0c      	ldr	r3, [pc, #48]	; (120 <.bss_zero_loop+0x40>)

    subs    r3, r2
      f0:	1a9b      	subs	r3, r3, r2
    ble     .LC0
      f2:	dd03      	ble.n	fc <.bss_zero_loop+0x1c>

.LC1:
    subs    r3, 4
      f4:	3b04      	subs	r3, #4
    ldr    r0, [r1,r3]
      f6:	58c8      	ldr	r0, [r1, r3]
    str    r0, [r2,r3]
      f8:	50d0      	str	r0, [r2, r3]
    bgt    .LC1
      fa:	dcfb      	bgt.n	f4 <.bss_zero_loop+0x14>

.LC0:

    LDR     R0, =__HeapBase
      fc:	4809      	ldr	r0, [pc, #36]	; (124 <.bss_zero_loop+0x44>)
    LDR     R1, =__HeapLimit
      fe:	490a      	ldr	r1, [pc, #40]	; (128 <.bss_zero_loop+0x48>)
    BL      _sbrkInit
     100:	f000 f822 	bl	148 <_sbrkInit>

    LDR     R0, =SystemInit
     104:	4809      	ldr	r0, [pc, #36]	; (12c <.bss_zero_loop+0x4c>)
    BLX     R0
     106:	4780      	blx	r0

    BL      hal_system_init
     108:	f000 f826 	bl	158 <hal_system_init>

    LDR     R0, =_start
     10c:	4808      	ldr	r0, [pc, #32]	; (130 <.bss_zero_loop+0x50>)
    BX      R0
     10e:	4700      	bx	r0
    ldr     r2, =__bss_start__
     110:	20000160 	.word	0x20000160
    ldr     r3, =__bss_end__
     114:	20006424 	.word	0x20006424
    ldr    r1, =__etext
     118:	00006040 	.word	0x00006040
    ldr    r2, =__data_start__
     11c:	200000d8 	.word	0x200000d8
    ldr    r3, =__data_end__
     120:	20000160 	.word	0x20000160
    LDR     R0, =__HeapBase
     124:	20006428 	.word	0x20006428
    LDR     R1, =__HeapLimit
     128:	2000fe50 	.word	0x2000fe50
    LDR     R0, =SystemInit
     12c:	0000040d 	.word	0x0000040d
    LDR     R0, =_start
     130:	000005cd 	.word	0x000005cd

00000134 <NMI_Handler>:
/* Dummy Exception Handlers (infinite loops which can be modified) */

    .weak   NMI_Handler
    .type   NMI_Handler, %function
NMI_Handler:
    B       .
     134:	e7fe      	b.n	134 <NMI_Handler>

00000136 <HardFault_Handler>:


    .weak   HardFault_Handler
    .type   HardFault_Handler, %function
HardFault_Handler:
    B       .
     136:	e7fe      	b.n	136 <HardFault_Handler>

00000138 <MemoryManagement_Handler>:


    .weak   MemoryManagement_Handler
    .type   MemoryManagement_Handler, %function
MemoryManagement_Handler:
    B       .
     138:	e7fe      	b.n	138 <MemoryManagement_Handler>

0000013a <BusFault_Handler>:


    .weak   BusFault_Handler
    .type   BusFault_Handler, %function
BusFault_Handler:
    B       .
     13a:	e7fe      	b.n	13a <BusFault_Handler>

0000013c <UsageFault_Handler>:


    .weak   UsageFault_Handler
    .type   UsageFault_Handler, %function
UsageFault_Handler:
    B       .
     13c:	e7fe      	b.n	13c <UsageFault_Handler>


    .weak   SVC_Handler
    .type   SVC_Handler, %function
SVC_Handler:
    B       .
     13e:	e7fe      	b.n	13e <UsageFault_Handler+0x2>


    .weak   PendSV_Handler
    .type   PendSV_Handler, %function
PendSV_Handler:
    B       .
     140:	e7fe      	b.n	140 <UsageFault_Handler+0x4>


    .weak   SysTick_Handler
    .type   SysTick_Handler, %function
SysTick_Handler:
    B       .
     142:	e7fe      	b.n	142 <UsageFault_Handler+0x6>

00000144 <Default_Handler>:
/* IRQ Handlers */

    .globl  Default_Handler
    .type   Default_Handler, %function
Default_Handler:
    B       .
     144:	e7fe      	b.n	144 <Default_Handler>
     146:	bf00      	nop

00000148 <_sbrkInit>:
static char *sbrkLimit __attribute__ ((section (".data")));
static char *brk __attribute__ ((section (".data")));

void
_sbrkInit(char *base, char *limit) {
    sbrkBase = base;
     148:	4b02      	ldr	r3, [pc, #8]	; (154 <_sbrkInit+0xc>)
     14a:	6018      	str	r0, [r3, #0]
    sbrkLimit = limit;
     14c:	6059      	str	r1, [r3, #4]
    brk = base;
     14e:	6098      	str	r0, [r3, #8]
}
     150:	4770      	bx	lr
     152:	bf00      	nop
     154:	200000d8 	.word	0x200000d8

00000158 <hal_system_init>:
 */
void
hal_system_init(void)
{
#if MYNEWT_VAL(MCU_DCDC_ENABLED)
    NRF_POWER->DCDCEN = 1;
     158:	f04f 4380 	mov.w	r3, #1073741824	; 0x40000000
     15c:	2201      	movs	r2, #1
     15e:	f8c3 2578 	str.w	r2, [r3, #1400]	; 0x578
#endif
}
     162:	4770      	bx	lr

00000164 <hal_debugger_connected>:
}

int
hal_debugger_connected(void)
{
    return CoreDebug->DHCSR & CoreDebug_DHCSR_C_DEBUGEN_Msk;
     164:	4b02      	ldr	r3, [pc, #8]	; (170 <hal_debugger_connected+0xc>)
     166:	6818      	ldr	r0, [r3, #0]
}
     168:	f000 0001 	and.w	r0, r0, #1
     16c:	4770      	bx	lr
     16e:	bf00      	nop
     170:	e000edf0 	.word	0xe000edf0

00000174 <hal_system_reset>:
{
     174:	b508      	push	{r3, lr}
        HAL_DEBUG_BREAK();
     176:	f7ff fff5 	bl	164 <hal_debugger_connected>
     17a:	b100      	cbz	r0, 17e <hal_system_reset+0xa>

static inline void
hal_debug_break(void)
{
#if !MYNEWT_VAL(MCU_DEBUG_IGNORE_BKPT)
    __BKPT(1);
     17c:	be01      	bkpt	0x0001
  \details Acts as a special kind of Data Memory Barrier.
           It completes when all explicit memory accesses before this instruction complete.
 */
__STATIC_FORCEINLINE void __DSB(void)
{
  __ASM volatile ("dsb 0xF":::"memory");
     17e:	f3bf 8f4f 	dsb	sy
__NO_RETURN __STATIC_INLINE void __NVIC_SystemReset(void)
{
  __DSB();                                                          /* Ensure all outstanding memory accesses included
                                                                       buffered write are completed before reset */
  SCB->AIRCR  = (uint32_t)((0x5FAUL << SCB_AIRCR_VECTKEY_Pos)    |
                           (SCB->AIRCR & SCB_AIRCR_PRIGROUP_Msk) |
     182:	4905      	ldr	r1, [pc, #20]	; (198 <hal_system_reset+0x24>)
     184:	68ca      	ldr	r2, [r1, #12]
     186:	f402 62e0 	and.w	r2, r2, #1792	; 0x700
  SCB->AIRCR  = (uint32_t)((0x5FAUL << SCB_AIRCR_VECTKEY_Pos)    |
     18a:	4b04      	ldr	r3, [pc, #16]	; (19c <hal_system_reset+0x28>)
     18c:	4313      	orrs	r3, r2
     18e:	60cb      	str	r3, [r1, #12]
     190:	f3bf 8f4f 	dsb	sy
                            SCB_AIRCR_SYSRESETREQ_Msk    );         /* Keep priority group unchanged */
  __DSB();                                                          /* Ensure completion of memory access */

  for(;;)                                                           /* wait until reset */
  {
    __NOP();
     194:	bf00      	nop
     196:	e7fd      	b.n	194 <hal_system_reset+0x20>
     198:	e000ed00 	.word	0xe000ed00
     19c:	05fa0004 	.word	0x05fa0004

000001a0 <hal_system_clock_start>:
        }
    }
#endif

    /* Check if this clock source is already running */
    if ((NRF_CLOCK->LFCLKSTAT & regmsk) != regval) {
     1a0:	f04f 4380 	mov.w	r3, #1073741824	; 0x40000000
     1a4:	f8d3 2418 	ldr.w	r2, [r3, #1048]	; 0x418
     1a8:	4b0f      	ldr	r3, [pc, #60]	; (1e8 <Stack_Size+0x38>)
     1aa:	4013      	ands	r3, r2
     1ac:	f1b3 1f01 	cmp.w	r3, #65537	; 0x10001
     1b0:	d018      	beq.n	1e4 <Stack_Size+0x34>
        NRF_CLOCK->TASKS_LFCLKSTOP = 1;
     1b2:	f04f 4380 	mov.w	r3, #1073741824	; 0x40000000
     1b6:	2201      	movs	r2, #1
     1b8:	60da      	str	r2, [r3, #12]
        NRF_CLOCK->EVENTS_LFCLKSTARTED = 0;
     1ba:	2100      	movs	r1, #0
     1bc:	f8c3 1104 	str.w	r1, [r3, #260]	; 0x104
        NRF_CLOCK->LFCLKSRC = clksrc;
     1c0:	f8c3 2518 	str.w	r2, [r3, #1304]	; 0x518
        NRF_CLOCK->TASKS_LFCLKSTART = 1;
     1c4:	609a      	str	r2, [r3, #8]

        /* Wait here till started! */
        while (1) {
            if (NRF_CLOCK->EVENTS_LFCLKSTARTED) {
     1c6:	f04f 4380 	mov.w	r3, #1073741824	; 0x40000000
     1ca:	f8d3 3104 	ldr.w	r3, [r3, #260]	; 0x104
     1ce:	2b00      	cmp	r3, #0
     1d0:	d0f9      	beq.n	1c6 <Stack_Size+0x16>
                if ((NRF_CLOCK->LFCLKSTAT & regmsk) == regval) {
     1d2:	f04f 4380 	mov.w	r3, #1073741824	; 0x40000000
     1d6:	f8d3 2418 	ldr.w	r2, [r3, #1048]	; 0x418
     1da:	4b03      	ldr	r3, [pc, #12]	; (1e8 <Stack_Size+0x38>)
     1dc:	4013      	ands	r3, r2
     1de:	f1b3 1f01 	cmp.w	r3, #65537	; 0x10001
     1e2:	d1f0      	bne.n	1c6 <Stack_Size+0x16>
                }
            }
        }
    }
#endif
}
     1e4:	4770      	bx	lr
     1e6:	bf00      	nop
     1e8:	00010003 	.word	0x00010003

000001ec <errata_16>:
}

#ifdef NRF52
static bool errata_16(void)
{
    if ((((*(uint32_t *)0xF0000FE0) & 0x000000FF) == 0x6) && (((*(uint32_t *)0xF0000FE4) & 0x0000000F) == 0x0)){
     1ec:	4b0b      	ldr	r3, [pc, #44]	; (21c <errata_16+0x30>)
     1ee:	781b      	ldrb	r3, [r3, #0]
     1f0:	2b06      	cmp	r3, #6
     1f2:	d001      	beq.n	1f8 <errata_16+0xc>
        if (((*(uint32_t *)0xF0000FE8) & 0x000000F0) == 0x30){
            return true;
        }
    }

    return false;
     1f4:	2000      	movs	r0, #0
     1f6:	4770      	bx	lr
    if ((((*(uint32_t *)0xF0000FE0) & 0x000000FF) == 0x6) && (((*(uint32_t *)0xF0000FE4) & 0x0000000F) == 0x0)){
     1f8:	4b09      	ldr	r3, [pc, #36]	; (220 <errata_16+0x34>)
     1fa:	681b      	ldr	r3, [r3, #0]
     1fc:	f013 0f0f 	tst.w	r3, #15
     200:	d107      	bne.n	212 <errata_16+0x26>
        if (((*(uint32_t *)0xF0000FE8) & 0x000000F0) == 0x30){
     202:	4b08      	ldr	r3, [pc, #32]	; (224 <errata_16+0x38>)
     204:	681b      	ldr	r3, [r3, #0]
     206:	f003 03f0 	and.w	r3, r3, #240	; 0xf0
     20a:	2b30      	cmp	r3, #48	; 0x30
     20c:	d003      	beq.n	216 <errata_16+0x2a>
    return false;
     20e:	2000      	movs	r0, #0
     210:	4770      	bx	lr
     212:	2000      	movs	r0, #0
     214:	4770      	bx	lr
            return true;
     216:	2001      	movs	r0, #1
}
     218:	4770      	bx	lr
     21a:	bf00      	nop
     21c:	f0000fe0 	.word	0xf0000fe0
     220:	f0000fe4 	.word	0xf0000fe4
     224:	f0000fe8 	.word	0xf0000fe8

00000228 <errata_31>:

static bool errata_31(void)
{
    if ((((*(uint32_t *)0xF0000FE0) & 0x000000FF) == 0x6) && (((*(uint32_t *)0xF0000FE4) & 0x0000000F) == 0x0)){
     228:	4b0f      	ldr	r3, [pc, #60]	; (268 <errata_31+0x40>)
     22a:	781b      	ldrb	r3, [r3, #0]
     22c:	2b06      	cmp	r3, #6
     22e:	d001      	beq.n	234 <errata_31+0xc>
        if (((*(uint32_t *)0xF0000FE8) & 0x000000F0) == 0x50){
            return true;
        }
    }

    return false;
     230:	2000      	movs	r0, #0
     232:	4770      	bx	lr
    if ((((*(uint32_t *)0xF0000FE0) & 0x000000FF) == 0x6) && (((*(uint32_t *)0xF0000FE4) & 0x0000000F) == 0x0)){
     234:	4b0d      	ldr	r3, [pc, #52]	; (26c <errata_31+0x44>)
     236:	681b      	ldr	r3, [r3, #0]
     238:	f013 0f0f 	tst.w	r3, #15
     23c:	d10b      	bne.n	256 <errata_31+0x2e>
        if (((*(uint32_t *)0xF0000FE8) & 0x000000F0) == 0x30){
     23e:	4b0c      	ldr	r3, [pc, #48]	; (270 <errata_31+0x48>)
     240:	681b      	ldr	r3, [r3, #0]
     242:	f003 03f0 	and.w	r3, r3, #240	; 0xf0
     246:	2b30      	cmp	r3, #48	; 0x30
     248:	d007      	beq.n	25a <errata_31+0x32>
        if (((*(uint32_t *)0xF0000FE8) & 0x000000F0) == 0x40){
     24a:	2b40      	cmp	r3, #64	; 0x40
     24c:	d007      	beq.n	25e <errata_31+0x36>
        if (((*(uint32_t *)0xF0000FE8) & 0x000000F0) == 0x50){
     24e:	2b50      	cmp	r3, #80	; 0x50
     250:	d007      	beq.n	262 <errata_31+0x3a>
    return false;
     252:	2000      	movs	r0, #0
     254:	4770      	bx	lr
     256:	2000      	movs	r0, #0
     258:	4770      	bx	lr
            return true;
     25a:	2001      	movs	r0, #1
     25c:	4770      	bx	lr
            return true;
     25e:	2001      	movs	r0, #1
     260:	4770      	bx	lr
            return true;
     262:	2001      	movs	r0, #1
}
     264:	4770      	bx	lr
     266:	bf00      	nop
     268:	f0000fe0 	.word	0xf0000fe0
     26c:	f0000fe4 	.word	0xf0000fe4
     270:	f0000fe8 	.word	0xf0000fe8

00000274 <errata_32>:

static bool errata_32(void)
{
    if ((((*(uint32_t *)0xF0000FE0) & 0x000000FF) == 0x6) && (((*(uint32_t *)0xF0000FE4) & 0x0000000F) == 0x0)){
     274:	4b0b      	ldr	r3, [pc, #44]	; (2a4 <errata_32+0x30>)
     276:	781b      	ldrb	r3, [r3, #0]
     278:	2b06      	cmp	r3, #6
     27a:	d001      	beq.n	280 <errata_32+0xc>
        if (((*(uint32_t *)0xF0000FE8) & 0x000000F0) == 0x30){
            return true;
        }
    }

    return false;
     27c:	2000      	movs	r0, #0
     27e:	4770      	bx	lr
    if ((((*(uint32_t *)0xF0000FE0) & 0x000000FF) == 0x6) && (((*(uint32_t *)0xF0000FE4) & 0x0000000F) == 0x0)){
     280:	4b09      	ldr	r3, [pc, #36]	; (2a8 <errata_32+0x34>)
     282:	681b      	ldr	r3, [r3, #0]
     284:	f013 0f0f 	tst.w	r3, #15
     288:	d107      	bne.n	29a <errata_32+0x26>
        if (((*(uint32_t *)0xF0000FE8) & 0x000000F0) == 0x30){
     28a:	4b08      	ldr	r3, [pc, #32]	; (2ac <errata_32+0x38>)
     28c:	681b      	ldr	r3, [r3, #0]
     28e:	f003 03f0 	and.w	r3, r3, #240	; 0xf0
     292:	2b30      	cmp	r3, #48	; 0x30
     294:	d003      	beq.n	29e <errata_32+0x2a>
    return false;
     296:	2000      	movs	r0, #0
     298:	4770      	bx	lr
     29a:	2000      	movs	r0, #0
     29c:	4770      	bx	lr
            return true;
     29e:	2001      	movs	r0, #1
}
     2a0:	4770      	bx	lr
     2a2:	bf00      	nop
     2a4:	f0000fe0 	.word	0xf0000fe0
     2a8:	f0000fe4 	.word	0xf0000fe4
     2ac:	f0000fe8 	.word	0xf0000fe8

000002b0 <errata_36>:

static bool errata_36(void)
{
    if ((((*(uint32_t *)0xF0000FE0) & 0x000000FF) == 0x6) && (((*(uint32_t *)0xF0000FE4) & 0x0000000F) == 0x0)){
     2b0:	4b0f      	ldr	r3, [pc, #60]	; (2f0 <errata_36+0x40>)
     2b2:	781b      	ldrb	r3, [r3, #0]
     2b4:	2b06      	cmp	r3, #6
     2b6:	d001      	beq.n	2bc <errata_36+0xc>
        if (((*(uint32_t *)0xF0000FE8) & 0x000000F0) == 0x50){
            return true;
        }
    }

    return false;
     2b8:	2000      	movs	r0, #0
     2ba:	4770      	bx	lr
    if ((((*(uint32_t *)0xF0000FE0) & 0x000000FF) == 0x6) && (((*(uint32_t *)0xF0000FE4) & 0x0000000F) == 0x0)){
     2bc:	4b0d      	ldr	r3, [pc, #52]	; (2f4 <errata_36+0x44>)
     2be:	681b      	ldr	r3, [r3, #0]
     2c0:	f013 0f0f 	tst.w	r3, #15
     2c4:	d10b      	bne.n	2de <errata_36+0x2e>
        if (((*(uint32_t *)0xF0000FE8) & 0x000000F0) == 0x30){
     2c6:	4b0c      	ldr	r3, [pc, #48]	; (2f8 <errata_36+0x48>)
     2c8:	681b      	ldr	r3, [r3, #0]
     2ca:	f003 03f0 	and.w	r3, r3, #240	; 0xf0
     2ce:	2b30      	cmp	r3, #48	; 0x30
     2d0:	d007      	beq.n	2e2 <errata_36+0x32>
        if (((*(uint32_t *)0xF0000FE8) & 0x000000F0) == 0x40){
     2d2:	2b40      	cmp	r3, #64	; 0x40
     2d4:	d007      	beq.n	2e6 <errata_36+0x36>
        if (((*(uint32_t *)0xF0000FE8) & 0x000000F0) == 0x50){
     2d6:	2b50      	cmp	r3, #80	; 0x50
     2d8:	d007      	beq.n	2ea <errata_36+0x3a>
    return false;
     2da:	2000      	movs	r0, #0
     2dc:	4770      	bx	lr
     2de:	2000      	movs	r0, #0
     2e0:	4770      	bx	lr
            return true;
     2e2:	2001      	movs	r0, #1
     2e4:	4770      	bx	lr
            return true;
     2e6:	2001      	movs	r0, #1
     2e8:	4770      	bx	lr
            return true;
     2ea:	2001      	movs	r0, #1
}
     2ec:	4770      	bx	lr
     2ee:	bf00      	nop
     2f0:	f0000fe0 	.word	0xf0000fe0
     2f4:	f0000fe4 	.word	0xf0000fe4
     2f8:	f0000fe8 	.word	0xf0000fe8

000002fc <errata_37>:

static bool errata_37(void)
{
    if ((((*(uint32_t *)0xF0000FE0) & 0x000000FF) == 0x6) && (((*(uint32_t *)0xF0000FE4) & 0x0000000F) == 0x0)){
     2fc:	4b0b      	ldr	r3, [pc, #44]	; (32c <errata_37+0x30>)
     2fe:	781b      	ldrb	r3, [r3, #0]
     300:	2b06      	cmp	r3, #6
     302:	d001      	beq.n	308 <errata_37+0xc>
        if (((*(uint32_t *)0xF0000FE8) & 0x000000F0) == 0x30){
            return true;
        }
    }

    return false;
     304:	2000      	movs	r0, #0
     306:	4770      	bx	lr
    if ((((*(uint32_t *)0xF0000FE0) & 0x000000FF) == 0x6) && (((*(uint32_t *)0xF0000FE4) & 0x0000000F) == 0x0)){
     308:	4b09      	ldr	r3, [pc, #36]	; (330 <errata_37+0x34>)
     30a:	681b      	ldr	r3, [r3, #0]
     30c:	f013 0f0f 	tst.w	r3, #15
     310:	d107      	bne.n	322 <errata_37+0x26>
        if (((*(uint32_t *)0xF0000FE8) & 0x000000F0) == 0x30){
     312:	4b08      	ldr	r3, [pc, #32]	; (334 <errata_37+0x38>)
     314:	681b      	ldr	r3, [r3, #0]
     316:	f003 03f0 	and.w	r3, r3, #240	; 0xf0
     31a:	2b30      	cmp	r3, #48	; 0x30
     31c:	d003      	beq.n	326 <errata_37+0x2a>
    return false;
     31e:	2000      	movs	r0, #0
     320:	4770      	bx	lr
     322:	2000      	movs	r0, #0
     324:	4770      	bx	lr
            return true;
     326:	2001      	movs	r0, #1
}
     328:	4770      	bx	lr
     32a:	bf00      	nop
     32c:	f0000fe0 	.word	0xf0000fe0
     330:	f0000fe4 	.word	0xf0000fe4
     334:	f0000fe8 	.word	0xf0000fe8

00000338 <errata_57>:

static bool errata_57(void)
{
    if ((((*(uint32_t *)0xF0000FE0) & 0x000000FF) == 0x6) && (((*(uint32_t *)0xF0000FE4) & 0x0000000F) == 0x0)){
     338:	4b0b      	ldr	r3, [pc, #44]	; (368 <errata_57+0x30>)
     33a:	781b      	ldrb	r3, [r3, #0]
     33c:	2b06      	cmp	r3, #6
     33e:	d001      	beq.n	344 <errata_57+0xc>
        if (((*(uint32_t *)0xF0000FE8) & 0x000000F0) == 0x30){
            return true;
        }
    }

    return false;
     340:	2000      	movs	r0, #0
     342:	4770      	bx	lr
    if ((((*(uint32_t *)0xF0000FE0) & 0x000000FF) == 0x6) && (((*(uint32_t *)0xF0000FE4) & 0x0000000F) == 0x0)){
     344:	4b09      	ldr	r3, [pc, #36]	; (36c <errata_57+0x34>)
     346:	681b      	ldr	r3, [r3, #0]
     348:	f013 0f0f 	tst.w	r3, #15
     34c:	d107      	bne.n	35e <errata_57+0x26>
        if (((*(uint32_t *)0xF0000FE8) & 0x000000F0) == 0x30){
     34e:	4b08      	ldr	r3, [pc, #32]	; (370 <errata_57+0x38>)
     350:	681b      	ldr	r3, [r3, #0]
     352:	f003 03f0 	and.w	r3, r3, #240	; 0xf0
     356:	2b30      	cmp	r3, #48	; 0x30
     358:	d003      	beq.n	362 <errata_57+0x2a>
    return false;
     35a:	2000      	movs	r0, #0
     35c:	4770      	bx	lr
     35e:	2000      	movs	r0, #0
     360:	4770      	bx	lr
            return true;
     362:	2001      	movs	r0, #1
}
     364:	4770      	bx	lr
     366:	bf00      	nop
     368:	f0000fe0 	.word	0xf0000fe0
     36c:	f0000fe4 	.word	0xf0000fe4
     370:	f0000fe8 	.word	0xf0000fe8

00000374 <errata_66>:

static bool errata_66(void)
{
    if ((((*(uint32_t *)0xF0000FE0) & 0x000000FF) == 0x6) && (((*(uint32_t *)0xF0000FE4) & 0x0000000F) == 0x0)){
     374:	4b0b      	ldr	r3, [pc, #44]	; (3a4 <errata_66+0x30>)
     376:	781b      	ldrb	r3, [r3, #0]
     378:	2b06      	cmp	r3, #6
     37a:	d001      	beq.n	380 <errata_66+0xc>
        if (((*(uint32_t *)0xF0000FE8) & 0x000000F0) == 0x50){
            return true;
        }
    }

    return false;
     37c:	2000      	movs	r0, #0
     37e:	4770      	bx	lr
    if ((((*(uint32_t *)0xF0000FE0) & 0x000000FF) == 0x6) && (((*(uint32_t *)0xF0000FE4) & 0x0000000F) == 0x0)){
     380:	4b09      	ldr	r3, [pc, #36]	; (3a8 <errata_66+0x34>)
     382:	681b      	ldr	r3, [r3, #0]
     384:	f013 0f0f 	tst.w	r3, #15
     388:	d107      	bne.n	39a <errata_66+0x26>
        if (((*(uint32_t *)0xF0000FE8) & 0x000000F0) == 0x50){
     38a:	4b08      	ldr	r3, [pc, #32]	; (3ac <errata_66+0x38>)
     38c:	681b      	ldr	r3, [r3, #0]
     38e:	f003 03f0 	and.w	r3, r3, #240	; 0xf0
     392:	2b50      	cmp	r3, #80	; 0x50
     394:	d003      	beq.n	39e <errata_66+0x2a>
    return false;
     396:	2000      	movs	r0, #0
     398:	4770      	bx	lr
     39a:	2000      	movs	r0, #0
     39c:	4770      	bx	lr
            return true;
     39e:	2001      	movs	r0, #1
}
     3a0:	4770      	bx	lr
     3a2:	bf00      	nop
     3a4:	f0000fe0 	.word	0xf0000fe0
     3a8:	f0000fe4 	.word	0xf0000fe4
     3ac:	f0000fe8 	.word	0xf0000fe8

000003b0 <errata_108>:


static bool errata_108(void)
{
    if ((((*(uint32_t *)0xF0000FE0) & 0x000000FF) == 0x6) && (((*(uint32_t *)0xF0000FE4) & 0x0000000F) == 0x0)){
     3b0:	4b0f      	ldr	r3, [pc, #60]	; (3f0 <errata_108+0x40>)
     3b2:	781b      	ldrb	r3, [r3, #0]
     3b4:	2b06      	cmp	r3, #6
     3b6:	d001      	beq.n	3bc <errata_108+0xc>
        if (((*(uint32_t *)0xF0000FE8) & 0x000000F0) == 0x50){
            return true;
        }
    }

    return false;
     3b8:	2000      	movs	r0, #0
     3ba:	4770      	bx	lr
    if ((((*(uint32_t *)0xF0000FE0) & 0x000000FF) == 0x6) && (((*(uint32_t *)0xF0000FE4) & 0x0000000F) == 0x0)){
     3bc:	4b0d      	ldr	r3, [pc, #52]	; (3f4 <errata_108+0x44>)
     3be:	681b      	ldr	r3, [r3, #0]
     3c0:	f013 0f0f 	tst.w	r3, #15
     3c4:	d10b      	bne.n	3de <errata_108+0x2e>
        if (((*(uint32_t *)0xF0000FE8) & 0x000000F0) == 0x30){
     3c6:	4b0c      	ldr	r3, [pc, #48]	; (3f8 <errata_108+0x48>)
     3c8:	681b      	ldr	r3, [r3, #0]
     3ca:	f003 03f0 	and.w	r3, r3, #240	; 0xf0
     3ce:	2b30      	cmp	r3, #48	; 0x30
     3d0:	d007      	beq.n	3e2 <errata_108+0x32>
        if (((*(uint32_t *)0xF0000FE8) & 0x000000F0) == 0x40){
     3d2:	2b40      	cmp	r3, #64	; 0x40
     3d4:	d007      	beq.n	3e6 <errata_108+0x36>
        if (((*(uint32_t *)0xF0000FE8) & 0x000000F0) == 0x50){
     3d6:	2b50      	cmp	r3, #80	; 0x50
     3d8:	d007      	beq.n	3ea <errata_108+0x3a>
    return false;
     3da:	2000      	movs	r0, #0
     3dc:	4770      	bx	lr
     3de:	2000      	movs	r0, #0
     3e0:	4770      	bx	lr
            return true;
     3e2:	2001      	movs	r0, #1
     3e4:	4770      	bx	lr
            return true;
     3e6:	2001      	movs	r0, #1
     3e8:	4770      	bx	lr
            return true;
     3ea:	2001      	movs	r0, #1
}
     3ec:	4770      	bx	lr
     3ee:	bf00      	nop
     3f0:	f0000fe0 	.word	0xf0000fe0
     3f4:	f0000fe4 	.word	0xf0000fe4
     3f8:	f0000fe8 	.word	0xf0000fe8

000003fc <SystemCoreClockUpdate>:
    SystemCoreClock = __SYSTEM_CLOCK_64M;
     3fc:	4b01      	ldr	r3, [pc, #4]	; (404 <SystemCoreClockUpdate+0x8>)
     3fe:	4a02      	ldr	r2, [pc, #8]	; (408 <SystemCoreClockUpdate+0xc>)
     400:	601a      	str	r2, [r3, #0]
}
     402:	4770      	bx	lr
     404:	200000e4 	.word	0x200000e4
     408:	03d09000 	.word	0x03d09000

0000040c <SystemInit>:
{
     40c:	b508      	push	{r3, lr}
    if (errata_16()){
     40e:	f7ff feed 	bl	1ec <errata_16>
     412:	b110      	cbz	r0, 41a <SystemInit+0xe>
        *(volatile uint32_t *)0x4007C074 = 3131961357ul;
     414:	4b60      	ldr	r3, [pc, #384]	; (598 <SystemInit+0x18c>)
     416:	4a61      	ldr	r2, [pc, #388]	; (59c <SystemInit+0x190>)
     418:	601a      	str	r2, [r3, #0]
    if (errata_31()){
     41a:	f7ff ff05 	bl	228 <errata_31>
     41e:	b128      	cbz	r0, 42c <SystemInit+0x20>
        *(volatile uint32_t *)0x4000053C = ((*(volatile uint32_t *)0x10000244) & 0x0000E000) >> 13;
     420:	4b5f      	ldr	r3, [pc, #380]	; (5a0 <SystemInit+0x194>)
     422:	681b      	ldr	r3, [r3, #0]
     424:	f3c3 3342 	ubfx	r3, r3, #13, #3
     428:	4a5e      	ldr	r2, [pc, #376]	; (5a4 <SystemInit+0x198>)
     42a:	6013      	str	r3, [r2, #0]
    if (errata_32()){
     42c:	f7ff ff22 	bl	274 <errata_32>
     430:	b120      	cbz	r0, 43c <SystemInit+0x30>
        CoreDebug->DEMCR &= ~CoreDebug_DEMCR_TRCENA_Msk;
     432:	4a5d      	ldr	r2, [pc, #372]	; (5a8 <SystemInit+0x19c>)
     434:	68d3      	ldr	r3, [r2, #12]
     436:	f023 7380 	bic.w	r3, r3, #16777216	; 0x1000000
     43a:	60d3      	str	r3, [r2, #12]
    if (errata_36()){
     43c:	f7ff ff38 	bl	2b0 <errata_36>
     440:	b140      	cbz	r0, 454 <SystemInit+0x48>
        NRF_CLOCK->EVENTS_DONE = 0;
     442:	f04f 4380 	mov.w	r3, #1073741824	; 0x40000000
     446:	2200      	movs	r2, #0
     448:	f8c3 210c 	str.w	r2, [r3, #268]	; 0x10c
        NRF_CLOCK->EVENTS_CTTO = 0;
     44c:	f8c3 2110 	str.w	r2, [r3, #272]	; 0x110
        NRF_CLOCK->CTIV = 0;
     450:	f8c3 2538 	str.w	r2, [r3, #1336]	; 0x538
    if (errata_37()){
     454:	f7ff ff52 	bl	2fc <errata_37>
     458:	b110      	cbz	r0, 460 <SystemInit+0x54>
        *(volatile uint32_t *)0x400005A0 = 0x3;
     45a:	4b54      	ldr	r3, [pc, #336]	; (5ac <SystemInit+0x1a0>)
     45c:	2203      	movs	r2, #3
     45e:	601a      	str	r2, [r3, #0]
    if (errata_57()){
     460:	f7ff ff6a 	bl	338 <errata_57>
     464:	b158      	cbz	r0, 47e <SystemInit+0x72>
        *(volatile uint32_t *)0x40005610 = 0x00000005;
     466:	4b52      	ldr	r3, [pc, #328]	; (5b0 <SystemInit+0x1a4>)
     468:	2205      	movs	r2, #5
     46a:	601a      	str	r2, [r3, #0]
        *(volatile uint32_t *)0x40005688 = 0x00000001;
     46c:	3378      	adds	r3, #120	; 0x78
     46e:	2201      	movs	r2, #1
     470:	601a      	str	r2, [r3, #0]
        *(volatile uint32_t *)0x40005618 = 0x00000000;
     472:	3b70      	subs	r3, #112	; 0x70
     474:	2200      	movs	r2, #0
     476:	601a      	str	r2, [r3, #0]
        *(volatile uint32_t *)0x40005614 = 0x0000003F;
     478:	3b04      	subs	r3, #4
     47a:	223f      	movs	r2, #63	; 0x3f
     47c:	601a      	str	r2, [r3, #0]
    if (errata_66()){
     47e:	f7ff ff79 	bl	374 <errata_66>
     482:	2800      	cmp	r0, #0
     484:	d046      	beq.n	514 <SystemInit+0x108>
        NRF_TEMP->A0 = NRF_FICR->TEMP.A0;
     486:	f04f 5280 	mov.w	r2, #268435456	; 0x10000000
     48a:	f8d2 1404 	ldr.w	r1, [r2, #1028]	; 0x404
     48e:	4b49      	ldr	r3, [pc, #292]	; (5b4 <SystemInit+0x1a8>)
     490:	f8c3 1520 	str.w	r1, [r3, #1312]	; 0x520
        NRF_TEMP->A1 = NRF_FICR->TEMP.A1;
     494:	f8d2 1408 	ldr.w	r1, [r2, #1032]	; 0x408
     498:	f8c3 1524 	str.w	r1, [r3, #1316]	; 0x524
        NRF_TEMP->A2 = NRF_FICR->TEMP.A2;
     49c:	f8d2 140c 	ldr.w	r1, [r2, #1036]	; 0x40c
     4a0:	f8c3 1528 	str.w	r1, [r3, #1320]	; 0x528
        NRF_TEMP->A3 = NRF_FICR->TEMP.A3;
     4a4:	f8d2 1410 	ldr.w	r1, [r2, #1040]	; 0x410
     4a8:	f8c3 152c 	str.w	r1, [r3, #1324]	; 0x52c
        NRF_TEMP->A4 = NRF_FICR->TEMP.A4;
     4ac:	f8d2 1414 	ldr.w	r1, [r2, #1044]	; 0x414
     4b0:	f8c3 1530 	str.w	r1, [r3, #1328]	; 0x530
        NRF_TEMP->A5 = NRF_FICR->TEMP.A5;
     4b4:	f8d2 1418 	ldr.w	r1, [r2, #1048]	; 0x418
     4b8:	f8c3 1534 	str.w	r1, [r3, #1332]	; 0x534
        NRF_TEMP->B0 = NRF_FICR->TEMP.B0;
     4bc:	f8d2 141c 	ldr.w	r1, [r2, #1052]	; 0x41c
     4c0:	f8c3 1540 	str.w	r1, [r3, #1344]	; 0x540
        NRF_TEMP->B1 = NRF_FICR->TEMP.B1;
     4c4:	f8d2 1420 	ldr.w	r1, [r2, #1056]	; 0x420
     4c8:	f8c3 1544 	str.w	r1, [r3, #1348]	; 0x544
        NRF_TEMP->B2 = NRF_FICR->TEMP.B2;
     4cc:	f8d2 1424 	ldr.w	r1, [r2, #1060]	; 0x424
     4d0:	f8c3 1548 	str.w	r1, [r3, #1352]	; 0x548
        NRF_TEMP->B3 = NRF_FICR->TEMP.B3;
     4d4:	f8d2 1428 	ldr.w	r1, [r2, #1064]	; 0x428
     4d8:	f8c3 154c 	str.w	r1, [r3, #1356]	; 0x54c
        NRF_TEMP->B4 = NRF_FICR->TEMP.B4;
     4dc:	f8d2 142c 	ldr.w	r1, [r2, #1068]	; 0x42c
     4e0:	f8c3 1550 	str.w	r1, [r3, #1360]	; 0x550
        NRF_TEMP->B5 = NRF_FICR->TEMP.B5;
     4e4:	f8d2 1430 	ldr.w	r1, [r2, #1072]	; 0x430
     4e8:	f8c3 1554 	str.w	r1, [r3, #1364]	; 0x554
        NRF_TEMP->T0 = NRF_FICR->TEMP.T0;
     4ec:	f8d2 1434 	ldr.w	r1, [r2, #1076]	; 0x434
     4f0:	f8c3 1560 	str.w	r1, [r3, #1376]	; 0x560
        NRF_TEMP->T1 = NRF_FICR->TEMP.T1;
     4f4:	f8d2 1438 	ldr.w	r1, [r2, #1080]	; 0x438
     4f8:	f8c3 1564 	str.w	r1, [r3, #1380]	; 0x564
        NRF_TEMP->T2 = NRF_FICR->TEMP.T2;
     4fc:	f8d2 143c 	ldr.w	r1, [r2, #1084]	; 0x43c
     500:	f8c3 1568 	str.w	r1, [r3, #1384]	; 0x568
        NRF_TEMP->T3 = NRF_FICR->TEMP.T3;
     504:	f8d2 1440 	ldr.w	r1, [r2, #1088]	; 0x440
     508:	f8c3 156c 	str.w	r1, [r3, #1388]	; 0x56c
        NRF_TEMP->T4 = NRF_FICR->TEMP.T4;
     50c:	f8d2 2444 	ldr.w	r2, [r2, #1092]	; 0x444
     510:	f8c3 2570 	str.w	r2, [r3, #1392]	; 0x570
    if (errata_108()){
     514:	f7ff ff4c 	bl	3b0 <errata_108>
     518:	b128      	cbz	r0, 526 <SystemInit+0x11a>
        *(volatile uint32_t *)0x40000EE4 = *(volatile uint32_t *)0x10000258 & 0x0000004F;
     51a:	4b27      	ldr	r3, [pc, #156]	; (5b8 <SystemInit+0x1ac>)
     51c:	681b      	ldr	r3, [r3, #0]
     51e:	f003 034f 	and.w	r3, r3, #79	; 0x4f
     522:	4a26      	ldr	r2, [pc, #152]	; (5bc <SystemInit+0x1b0>)
     524:	6013      	str	r3, [r2, #0]
        if ((NRF_UICR->NFCPINS & UICR_NFCPINS_PROTECT_Msk) == (UICR_NFCPINS_PROTECT_NFC << UICR_NFCPINS_PROTECT_Pos)){
     526:	f04f 2310 	mov.w	r3, #268439552	; 0x10001000
     52a:	f8d3 320c 	ldr.w	r3, [r3, #524]	; 0x20c
     52e:	f013 0f01 	tst.w	r3, #1
     532:	d104      	bne.n	53e <SystemInit+0x132>
    SystemCoreClockUpdate();
     534:	f7ff ff62 	bl	3fc <SystemCoreClockUpdate>
    NVIC_Relocate();
     538:	f000 f8ae 	bl	698 <NVIC_Relocate>
}
     53c:	bd08      	pop	{r3, pc}
            NRF_NVMC->CONFIG = NVMC_CONFIG_WEN_Wen << NVMC_CONFIG_WEN_Pos;
     53e:	4b20      	ldr	r3, [pc, #128]	; (5c0 <SystemInit+0x1b4>)
     540:	2201      	movs	r2, #1
     542:	f8c3 2504 	str.w	r2, [r3, #1284]	; 0x504
            while (NRF_NVMC->READY == NVMC_READY_READY_Busy){}
     546:	4b1e      	ldr	r3, [pc, #120]	; (5c0 <SystemInit+0x1b4>)
     548:	f8d3 3400 	ldr.w	r3, [r3, #1024]	; 0x400
     54c:	2b00      	cmp	r3, #0
     54e:	d0fa      	beq.n	546 <SystemInit+0x13a>
            NRF_UICR->NFCPINS &= ~UICR_NFCPINS_PROTECT_Msk;
     550:	f04f 2210 	mov.w	r2, #268439552	; 0x10001000
     554:	f8d2 320c 	ldr.w	r3, [r2, #524]	; 0x20c
     558:	f023 0301 	bic.w	r3, r3, #1
     55c:	f8c2 320c 	str.w	r3, [r2, #524]	; 0x20c
            while (NRF_NVMC->READY == NVMC_READY_READY_Busy){}
     560:	4b17      	ldr	r3, [pc, #92]	; (5c0 <SystemInit+0x1b4>)
     562:	f8d3 3400 	ldr.w	r3, [r3, #1024]	; 0x400
     566:	2b00      	cmp	r3, #0
     568:	d0fa      	beq.n	560 <SystemInit+0x154>
            NRF_NVMC->CONFIG = NVMC_CONFIG_WEN_Ren << NVMC_CONFIG_WEN_Pos;
     56a:	4b15      	ldr	r3, [pc, #84]	; (5c0 <SystemInit+0x1b4>)
     56c:	2200      	movs	r2, #0
     56e:	f8c3 2504 	str.w	r2, [r3, #1284]	; 0x504
            while (NRF_NVMC->READY == NVMC_READY_READY_Busy){}
     572:	4b13      	ldr	r3, [pc, #76]	; (5c0 <SystemInit+0x1b4>)
     574:	f8d3 3400 	ldr.w	r3, [r3, #1024]	; 0x400
     578:	2b00      	cmp	r3, #0
     57a:	d0fa      	beq.n	572 <SystemInit+0x166>
     57c:	f3bf 8f4f 	dsb	sy
                           (SCB->AIRCR & SCB_AIRCR_PRIGROUP_Msk) |
     580:	4910      	ldr	r1, [pc, #64]	; (5c4 <SystemInit+0x1b8>)
     582:	68ca      	ldr	r2, [r1, #12]
     584:	f402 62e0 	and.w	r2, r2, #1792	; 0x700
  SCB->AIRCR  = (uint32_t)((0x5FAUL << SCB_AIRCR_VECTKEY_Pos)    |
     588:	4b0f      	ldr	r3, [pc, #60]	; (5c8 <SystemInit+0x1bc>)
     58a:	4313      	orrs	r3, r2
     58c:	60cb      	str	r3, [r1, #12]
     58e:	f3bf 8f4f 	dsb	sy
    __NOP();
     592:	bf00      	nop
     594:	e7fd      	b.n	592 <SystemInit+0x186>
     596:	bf00      	nop
     598:	4007c074 	.word	0x4007c074
     59c:	baadf00d 	.word	0xbaadf00d
     5a0:	10000244 	.word	0x10000244
     5a4:	4000053c 	.word	0x4000053c
     5a8:	e000edf0 	.word	0xe000edf0
     5ac:	400005a0 	.word	0x400005a0
     5b0:	40005610 	.word	0x40005610
     5b4:	4000c000 	.word	0x4000c000
     5b8:	10000258 	.word	0x10000258
     5bc:	40000ee4 	.word	0x40000ee4
     5c0:	4001e000 	.word	0x4001e000
     5c4:	e000ed00 	.word	0xe000ed00
     5c8:	05fa0004 	.word	0x05fa0004

000005cc <_start>:

/*
 * Rudimentary startup function.
 */
void _start(void)
{
     5cc:	b508      	push	{r3, lr}
#if !MYNEWT_VAL(OS_SCHEDULING)
    int rc;

    rc = main(0, NULL);
     5ce:	2100      	movs	r1, #0
     5d0:	4608      	mov	r0, r1
     5d2:	f000 f806 	bl	5e2 <main>
#define EXIT_SUCCESS	0
#define EXIT_FAILURE	1
__extern void _exit(int s);
__extern_inline void exit(int err)
{
	_exit(err);
     5d6:	f000 fae2 	bl	b9e <_exit>

000005da <_init>:
}

void
_init(void)
{
}
     5da:	4770      	bx	lr

000005dc <flash_device_base>:
 * TODO: remove this when mynewt needs to support flash_device_base()
 * for devices with nonzero base addresses.
 */
int flash_device_base(uint8_t fd_id, uintptr_t *ret)
{
    *ret = 0;
     5dc:	2000      	movs	r0, #0
     5de:	6008      	str	r0, [r1, #0]
    return 0;
}
     5e0:	4770      	bx	lr

000005e2 <main>:

int
main(void)
{
     5e2:	b500      	push	{lr}
     5e4:	b085      	sub	sp, #20
    struct boot_rsp rsp;
    uintptr_t flash_base;
    int rc;

    hal_bsp_init();
     5e6:	f000 f84d 	bl	684 <hal_bsp_init>

#if !MYNEWT_VAL(OS_SCHEDULING) && MYNEWT_VAL(WATCHDOG_INTERVAL)
    rc = hal_watchdog_init(MYNEWT_VAL(WATCHDOG_INTERVAL));
     5ea:	f247 5030 	movw	r0, #30000	; 0x7530
     5ee:	f000 fe8f 	bl	1310 <hal_watchdog_init>
    assert(rc == 0);
     5f2:	b9f8      	cbnz	r0, 634 <main+0x52>
#endif

#if defined(MCUBOOT_SERIAL) || defined(MCUBOOT_HAVE_LOGGING) || \
        MYNEWT_VAL(CRYPTO) || MYNEWT_VAL(HASH)
    /* initialize uart/crypto without os */
    os_dev_initialize_all(OS_DEV_INIT_PRIMARY);
     5f4:	2001      	movs	r0, #1
     5f6:	f001 f979 	bl	18ec <os_dev_initialize_all>
    os_dev_initialize_all(OS_DEV_INIT_SECONDARY);
     5fa:	2002      	movs	r0, #2
     5fc:	f001 f976 	bl	18ec <os_dev_initialize_all>
    sysinit();
     600:	f002 f940 	bl	2884 <sysinit_start>
     604:	f002 f962 	bl	28cc <sysinit_app>
     608:	f002 f942 	bl	2890 <sysinit_end>
    console_blocking_mode();
     60c:	f002 f835 	bl	267a <console_blocking_mode>
#endif
#else
    flash_map_init();
#endif

    rc = boot_go(&rsp);
     610:	a801      	add	r0, sp, #4
     612:	f002 ffc5 	bl	35a0 <boot_go>
    assert(rc == 0);
     616:	b9b8      	cbnz	r0, 648 <main+0x66>

    rc = flash_device_base(rsp.br_flash_dev_id, &flash_base);
     618:	4669      	mov	r1, sp
     61a:	f89d 0008 	ldrb.w	r0, [sp, #8]
     61e:	f7ff ffdd 	bl	5dc <flash_device_base>
    assert(rc == 0);
     622:	b9d8      	cbnz	r0, 65c <main+0x7a>

#if MYNEWT_VAL(BOOT_CUSTOM_START)
    boot_custom_start(flash_base, &rsp);
     624:	a901      	add	r1, sp, #4
     626:	9800      	ldr	r0, [sp, #0]
     628:	f001 fd96 	bl	2158 <boot_custom_start>
    hal_system_start((void *)(flash_base + rsp.br_image_off +
                              rsp.br_hdr->ih_hdr_size));
#endif

    return 0;
}
     62c:	2000      	movs	r0, #0
     62e:	b005      	add	sp, #20
     630:	f85d fb04 	ldr.w	pc, [sp], #4
    assert(rc == 0);
     634:	f7ff fd96 	bl	164 <hal_debugger_connected>
     638:	b100      	cbz	r0, 63c <main+0x5a>
     63a:	be01      	bkpt	0x0001
     63c:	2300      	movs	r3, #0
     63e:	461a      	mov	r2, r3
     640:	4619      	mov	r1, r3
     642:	4618      	mov	r0, r3
     644:	f001 f8b6 	bl	17b4 <__assert_func>
    assert(rc == 0);
     648:	f7ff fd8c 	bl	164 <hal_debugger_connected>
     64c:	b100      	cbz	r0, 650 <main+0x6e>
     64e:	be01      	bkpt	0x0001
     650:	2300      	movs	r3, #0
     652:	461a      	mov	r2, r3
     654:	4619      	mov	r1, r3
     656:	4618      	mov	r0, r3
     658:	f001 f8ac 	bl	17b4 <__assert_func>
    assert(rc == 0);
     65c:	f7ff fd82 	bl	164 <hal_debugger_connected>
     660:	b100      	cbz	r0, 664 <main+0x82>
     662:	be01      	bkpt	0x0001
     664:	2300      	movs	r3, #0
     666:	461a      	mov	r2, r3
     668:	4619      	mov	r1, r3
     66a:	4618      	mov	r0, r3
     66c:	f001 f8a2 	bl	17b4 <__assert_func>

00000670 <hal_bsp_flash_dev>:

/// Return the Flash Device for the ID. 0 for Internal Flash ROM, 1 for External SPI Flash
const struct hal_flash *
hal_bsp_flash_dev(uint8_t id)
{
    if (id >= ARRAY_SIZE(flash_devs)) {
     670:	2801      	cmp	r0, #1
     672:	d803      	bhi.n	67c <hal_bsp_flash_dev+0xc>
        return NULL;
    }
    return flash_devs[id];
     674:	4b02      	ldr	r3, [pc, #8]	; (680 <hal_bsp_flash_dev+0x10>)
     676:	f853 0020 	ldr.w	r0, [r3, r0, lsl #2]
     67a:	4770      	bx	lr
        return NULL;
     67c:	2000      	movs	r0, #0
}
     67e:	4770      	bx	lr
     680:	00005810 	.word	0x00005810

00000684 <hal_bsp_init>:

void blink_backlight(int pattern_id, int repetitions);  ////  Defined in blink.c

void
hal_bsp_init(void)
{
     684:	b508      	push	{r3, lr}
    blink_backlight(4, 4);////
     686:	2104      	movs	r1, #4
     688:	4608      	mov	r0, r1
     68a:	f001 fc75 	bl	1f78 <blink_backlight>
    /* Make sure system clocks have started */
    hal_system_clock_start();
     68e:	f7ff fd87 	bl	1a0 <hal_system_clock_start>

    /* Create all available nRF52840 peripherals */
    nrf52_periph_create();
     692:	f000 feb3 	bl	13fc <nrf52_periph_create>
}
     696:	bd08      	pop	{r3, pc}

00000698 <NVIC_Relocate>:
     * designated in the linker script.
     */
    current_location = (uint32_t *)&__isr_vector;
    new_location = (uint32_t *)&__vector_tbl_reloc__;

    if (new_location != current_location) {
     698:	4a09      	ldr	r2, [pc, #36]	; (6c0 <NVIC_Relocate+0x28>)
     69a:	4b0a      	ldr	r3, [pc, #40]	; (6c4 <NVIC_Relocate+0x2c>)
     69c:	429a      	cmp	r2, r3
     69e:	d00a      	beq.n	6b6 <NVIC_Relocate+0x1e>
        for (i = 0; i < NVIC_NUM_VECTORS; i++) {
     6a0:	2300      	movs	r3, #0
     6a2:	e006      	b.n	6b2 <NVIC_Relocate+0x1a>
            new_location[i] = current_location[i];
     6a4:	4a07      	ldr	r2, [pc, #28]	; (6c4 <NVIC_Relocate+0x2c>)
     6a6:	f852 1023 	ldr.w	r1, [r2, r3, lsl #2]
     6aa:	4a05      	ldr	r2, [pc, #20]	; (6c0 <NVIC_Relocate+0x28>)
     6ac:	f842 1023 	str.w	r1, [r2, r3, lsl #2]
        for (i = 0; i < NVIC_NUM_VECTORS; i++) {
     6b0:	3301      	adds	r3, #1
     6b2:	2b35      	cmp	r3, #53	; 0x35
     6b4:	ddf6      	ble.n	6a4 <NVIC_Relocate+0xc>
    }

    /* Set VTOR except for M0 */
#if ((__CORTEX_M == 0) && (__VTOR_PRESENT == 0))
#else
    SCB->VTOR = (uint32_t)&__vector_tbl_reloc__;
     6b6:	4a02      	ldr	r2, [pc, #8]	; (6c0 <NVIC_Relocate+0x28>)
     6b8:	4b03      	ldr	r3, [pc, #12]	; (6c8 <NVIC_Relocate+0x30>)
     6ba:	609a      	str	r2, [r3, #8]
#endif
}
     6bc:	4770      	bx	lr
     6be:	bf00      	nop
     6c0:	20000000 	.word	0x20000000
     6c4:	00000000 	.word	0x00000000
     6c8:	e000ed00 	.word	0xe000ed00

000006cc <hal_spiflash_sector_info>:
}

static int
hal_spiflash_sector_info(const struct hal_flash *hal_flash_dev, int idx,
        uint32_t *address, uint32_t *sz)
{
     6cc:	b410      	push	{r4}
    const struct spiflash_dev *dev = (const struct spiflash_dev *)hal_flash_dev;

    *address = idx * dev->sector_size;
     6ce:	8d84      	ldrh	r4, [r0, #44]	; 0x2c
     6d0:	fb01 f104 	mul.w	r1, r1, r4
     6d4:	6011      	str	r1, [r2, #0]
    *sz = dev->sector_size;
     6d6:	8d82      	ldrh	r2, [r0, #44]	; 0x2c
     6d8:	601a      	str	r2, [r3, #0]
    return 0;
}
     6da:	2000      	movs	r0, #0
     6dc:	bc10      	pop	{r4}
     6de:	4770      	bx	lr

000006e0 <spiflash_release_power_down_generic>:
{
     6e0:	b530      	push	{r4, r5, lr}
     6e2:	b083      	sub	sp, #12
     6e4:	4605      	mov	r5, r0
    uint8_t cmd[1] = { SPIFLASH_RELEASE_POWER_DOWN };
     6e6:	ac02      	add	r4, sp, #8
     6e8:	23ab      	movs	r3, #171	; 0xab
     6ea:	f804 3d04 	strb.w	r3, [r4, #-4]!
    hal_gpio_write(dev->ss_pin, 0);
     6ee:	2100      	movs	r1, #0
     6f0:	6a80      	ldr	r0, [r0, #40]	; 0x28
     6f2:	f000 fb4c 	bl	d8e <hal_gpio_write>
    hal_spi_txrx(dev->spi_num, cmd, cmd, sizeof cmd);
     6f6:	2301      	movs	r3, #1
     6f8:	4622      	mov	r2, r4
     6fa:	4621      	mov	r1, r4
     6fc:	6a28      	ldr	r0, [r5, #32]
     6fe:	f000 fd95 	bl	122c <hal_spi_txrx>
    hal_gpio_write(dev->ss_pin, 1);
     702:	2101      	movs	r1, #1
     704:	6aa8      	ldr	r0, [r5, #40]	; 0x28
     706:	f000 fb42 	bl	d8e <hal_gpio_write>
}
     70a:	b003      	add	sp, #12
     70c:	bd30      	pop	{r4, r5, pc}

0000070e <spiflash_delay_us>:
{
     70e:	b508      	push	{r3, lr}
    os_cputime_delay_usecs(usecs);
     710:	f001 f8d4 	bl	18bc <os_cputime_delay_usecs>
}
     714:	bd08      	pop	{r3, pc}

00000716 <spiflash_read_jedec_id>:
{
     716:	b5f0      	push	{r4, r5, r6, r7, lr}
     718:	b083      	sub	sp, #12
     71a:	4604      	mov	r4, r0
     71c:	460f      	mov	r7, r1
     71e:	4616      	mov	r6, r2
     720:	461d      	mov	r5, r3
    uint8_t cmd[4] = { SPIFLASH_READ_JEDEC_ID, 0, 0, 0 };
     722:	239f      	movs	r3, #159	; 0x9f
     724:	f88d 3004 	strb.w	r3, [sp, #4]
     728:	2100      	movs	r1, #0
     72a:	f88d 1005 	strb.w	r1, [sp, #5]
     72e:	f88d 1006 	strb.w	r1, [sp, #6]
     732:	f88d 1007 	strb.w	r1, [sp, #7]
    hal_gpio_write(dev->ss_pin, 0);
     736:	6a80      	ldr	r0, [r0, #40]	; 0x28
     738:	f000 fb29 	bl	d8e <hal_gpio_write>
    hal_spi_txrx(dev->spi_num, cmd, cmd, sizeof cmd);
     73c:	2304      	movs	r3, #4
     73e:	eb0d 0203 	add.w	r2, sp, r3
     742:	4611      	mov	r1, r2
     744:	6a20      	ldr	r0, [r4, #32]
     746:	f000 fd71 	bl	122c <hal_spi_txrx>
    hal_gpio_write(dev->ss_pin, 1);
     74a:	2101      	movs	r1, #1
     74c:	6aa0      	ldr	r0, [r4, #40]	; 0x28
     74e:	f000 fb1e 	bl	d8e <hal_gpio_write>
    if (manufacturer) {
     752:	b117      	cbz	r7, 75a <spiflash_read_jedec_id+0x44>
        *manufacturer = cmd[1];
     754:	f89d 3005 	ldrb.w	r3, [sp, #5]
     758:	703b      	strb	r3, [r7, #0]
    if (memory_type) {
     75a:	b116      	cbz	r6, 762 <spiflash_read_jedec_id+0x4c>
        *memory_type = cmd[2];
     75c:	f89d 3006 	ldrb.w	r3, [sp, #6]
     760:	7033      	strb	r3, [r6, #0]
    if (capacity) {
     762:	b115      	cbz	r5, 76a <spiflash_read_jedec_id+0x54>
        *capacity = cmd[3];
     764:	f89d 3007 	ldrb.w	r3, [sp, #7]
     768:	702b      	strb	r3, [r5, #0]
}
     76a:	2000      	movs	r0, #0
     76c:	b003      	add	sp, #12
     76e:	bdf0      	pop	{r4, r5, r6, r7, pc}

00000770 <spiflash_read_status>:
{
     770:	b538      	push	{r3, r4, r5, lr}
     772:	4604      	mov	r4, r0
    hal_gpio_write(dev->ss_pin, 0);
     774:	2100      	movs	r1, #0
     776:	6a80      	ldr	r0, [r0, #40]	; 0x28
     778:	f000 fb09 	bl	d8e <hal_gpio_write>
    hal_spi_tx_val(dev->spi_num, cmd);
     77c:	2105      	movs	r1, #5
     77e:	6a20      	ldr	r0, [r4, #32]
     780:	f000 fd1a 	bl	11b8 <hal_spi_tx_val>
    val = hal_spi_tx_val(dev->spi_num, 0xFF);
     784:	21ff      	movs	r1, #255	; 0xff
     786:	6a20      	ldr	r0, [r4, #32]
     788:	f000 fd16 	bl	11b8 <hal_spi_tx_val>
     78c:	b2c5      	uxtb	r5, r0
    hal_gpio_write(dev->ss_pin, 1);
     78e:	2101      	movs	r1, #1
     790:	6aa0      	ldr	r0, [r4, #40]	; 0x28
     792:	f000 fafc 	bl	d8e <hal_gpio_write>
}
     796:	4628      	mov	r0, r5
     798:	bd38      	pop	{r3, r4, r5, pc}

0000079a <spiflash_device_ready>:
{
     79a:	b510      	push	{r4, lr}
     79c:	4604      	mov	r4, r0
    dev->ready = !(spiflash_read_status(dev) & SPIFLASH_STATUS_BUSY);
     79e:	f7ff ffe7 	bl	770 <spiflash_read_status>
     7a2:	f080 0001 	eor.w	r0, r0, #1
     7a6:	f000 0001 	and.w	r0, r0, #1
     7aa:	f884 0030 	strb.w	r0, [r4, #48]	; 0x30
}
     7ae:	bd10      	pop	{r4, pc}

000007b0 <spiflash_wait_ready_till>:
    if (dev->ready) {
     7b0:	f890 3030 	ldrb.w	r3, [r0, #48]	; 0x30
     7b4:	b9eb      	cbnz	r3, 7f2 <spiflash_wait_ready_till+0x42>
{
     7b6:	b570      	push	{r4, r5, r6, lr}
     7b8:	4604      	mov	r4, r0
     7ba:	460e      	mov	r6, r1
     7bc:	4615      	mov	r5, r2
    if (step_us < MYNEWT_VAL(SPIFLASH_READ_STATUS_INTERVAL)) {
     7be:	2a09      	cmp	r2, #9
     7c0:	d904      	bls.n	7cc <spiflash_wait_ready_till+0x1c>
    } else if (step_us > 1000000) {
     7c2:	4b0e      	ldr	r3, [pc, #56]	; (7fc <spiflash_wait_ready_till+0x4c>)
     7c4:	429a      	cmp	r2, r3
     7c6:	d902      	bls.n	7ce <spiflash_wait_ready_till+0x1e>
        step_us = 1000000;
     7c8:	4d0c      	ldr	r5, [pc, #48]	; (7fc <spiflash_wait_ready_till+0x4c>)
     7ca:	e000      	b.n	7ce <spiflash_wait_ready_till+0x1e>
        step_us = MYNEWT_VAL(SPIFLASH_READ_STATUS_INTERVAL);
     7cc:	250a      	movs	r5, #10
    limit = os_cputime_get32() + os_cputime_usecs_to_ticks(timeout_us);
     7ce:	f001 f865 	bl	189c <os_cputime_get32>
     7d2:	4406      	add	r6, r0
        if (spiflash_device_ready(dev)) {
     7d4:	4620      	mov	r0, r4
     7d6:	f7ff ffe0 	bl	79a <spiflash_device_ready>
     7da:	b960      	cbnz	r0, 7f6 <spiflash_wait_ready_till+0x46>
        spiflash_delay_us(step_us);
     7dc:	4628      	mov	r0, r5
     7de:	f7ff ff96 	bl	70e <spiflash_delay_us>
    } while (CPUTIME_LT(os_cputime_get32(), limit));
     7e2:	f001 f85b 	bl	189c <os_cputime_get32>
     7e6:	1b80      	subs	r0, r0, r6
     7e8:	2800      	cmp	r0, #0
     7ea:	dbf3      	blt.n	7d4 <spiflash_wait_ready_till+0x24>
    int rc = -1;
     7ec:	f04f 30ff 	mov.w	r0, #4294967295	; 0xffffffff
     7f0:	e002      	b.n	7f8 <spiflash_wait_ready_till+0x48>
        return 0;
     7f2:	2000      	movs	r0, #0
}
     7f4:	4770      	bx	lr
            rc = 0;
     7f6:	2000      	movs	r0, #0
}
     7f8:	bd70      	pop	{r4, r5, r6, pc}
     7fa:	bf00      	nop
     7fc:	000f4240 	.word	0x000f4240

00000800 <spiflash_wait_ready>:
{
     800:	b508      	push	{r3, lr}
    return spiflash_wait_ready_till(dev, timeout_ms * 1000, timeout_ms * 10);
     802:	eb01 0381 	add.w	r3, r1, r1, lsl #2
     806:	005a      	lsls	r2, r3, #1
     808:	f44f 737a 	mov.w	r3, #1000	; 0x3e8
     80c:	fb03 f101 	mul.w	r1, r3, r1
     810:	f7ff ffce 	bl	7b0 <spiflash_wait_ready_till>
}
     814:	bd08      	pop	{r3, pc}

00000816 <hal_spiflash_read>:
{
     816:	b570      	push	{r4, r5, r6, lr}
     818:	b082      	sub	sp, #8
     81a:	4605      	mov	r5, r0
     81c:	4616      	mov	r6, r2
     81e:	461c      	mov	r4, r3
    uint8_t cmd[] = { SPIFLASH_READ,
     820:	2303      	movs	r3, #3
     822:	f88d 3004 	strb.w	r3, [sp, #4]
        (uint8_t)(addr >> 16), (uint8_t)(addr >> 8), (uint8_t)(addr) };
     826:	f3c1 4307 	ubfx	r3, r1, #16, #8
    uint8_t cmd[] = { SPIFLASH_READ,
     82a:	f88d 3005 	strb.w	r3, [sp, #5]
        (uint8_t)(addr >> 16), (uint8_t)(addr >> 8), (uint8_t)(addr) };
     82e:	f3c1 2307 	ubfx	r3, r1, #8, #8
    uint8_t cmd[] = { SPIFLASH_READ,
     832:	f88d 3006 	strb.w	r3, [sp, #6]
     836:	f88d 1007 	strb.w	r1, [sp, #7]
    err = spiflash_wait_ready(dev, 100);
     83a:	2164      	movs	r1, #100	; 0x64
     83c:	f7ff ffe0 	bl	800 <spiflash_wait_ready>
    if (!err) {
     840:	b900      	cbnz	r0, 844 <hal_spiflash_read+0x2e>
        if (len > 0) {
     842:	b914      	cbnz	r4, 84a <hal_spiflash_read+0x34>
}
     844:	2000      	movs	r0, #0
     846:	b002      	add	sp, #8
     848:	bd70      	pop	{r4, r5, r6, pc}
    hal_gpio_write(dev->ss_pin, 0);
     84a:	2100      	movs	r1, #0
     84c:	6aa8      	ldr	r0, [r5, #40]	; 0x28
     84e:	f000 fa9e 	bl	d8e <hal_gpio_write>
            hal_spi_txrx(dev->spi_num, cmd, NULL, sizeof cmd);
     852:	2304      	movs	r3, #4
     854:	2200      	movs	r2, #0
     856:	eb0d 0103 	add.w	r1, sp, r3
     85a:	6a28      	ldr	r0, [r5, #32]
     85c:	f000 fce6 	bl	122c <hal_spi_txrx>
            memset(buf, 0xFF, len);
     860:	4622      	mov	r2, r4
     862:	21ff      	movs	r1, #255	; 0xff
     864:	4630      	mov	r0, r6
     866:	f001 fb13 	bl	1e90 <memset>
            hal_spi_txrx(dev->spi_num, buf, buf, len);
     86a:	4623      	mov	r3, r4
     86c:	4632      	mov	r2, r6
     86e:	4631      	mov	r1, r6
     870:	6a28      	ldr	r0, [r5, #32]
     872:	f000 fcdb 	bl	122c <hal_spi_txrx>
    hal_gpio_write(dev->ss_pin, 1);
     876:	2101      	movs	r1, #1
     878:	6aa8      	ldr	r0, [r5, #40]	; 0x28
     87a:	f000 fa88 	bl	d8e <hal_gpio_write>
     87e:	e7e1      	b.n	844 <hal_spiflash_read+0x2e>

00000880 <spiflash_write_enable>:
{
     880:	b510      	push	{r4, lr}
     882:	4604      	mov	r4, r0
    hal_gpio_write(dev->ss_pin, 0);
     884:	2100      	movs	r1, #0
     886:	6a80      	ldr	r0, [r0, #40]	; 0x28
     888:	f000 fa81 	bl	d8e <hal_gpio_write>
    hal_spi_tx_val(dev->spi_num, cmd);
     88c:	2106      	movs	r1, #6
     88e:	6a20      	ldr	r0, [r4, #32]
     890:	f000 fc92 	bl	11b8 <hal_spi_tx_val>
    hal_gpio_write(dev->ss_pin, 1);
     894:	2101      	movs	r1, #1
     896:	6aa0      	ldr	r0, [r4, #40]	; 0x28
     898:	f000 fa79 	bl	d8e <hal_gpio_write>
}
     89c:	2000      	movs	r0, #0
     89e:	bd10      	pop	{r4, pc}

000008a0 <hal_spiflash_write>:
{
     8a0:	e92d 47f0 	stmdb	sp!, {r4, r5, r6, r7, r8, r9, sl, lr}
     8a4:	b082      	sub	sp, #8
     8a6:	4605      	mov	r5, r0
     8a8:	460e      	mov	r6, r1
     8aa:	4690      	mov	r8, r2
     8ac:	461f      	mov	r7, r3
    uint8_t cmd[4] = { SPIFLASH_PAGE_PROGRAM };
     8ae:	2300      	movs	r3, #0
     8b0:	9301      	str	r3, [sp, #4]
     8b2:	2302      	movs	r3, #2
     8b4:	f88d 3004 	strb.w	r3, [sp, #4]
    if (spiflash_wait_ready(dev, 100) != 0) {
     8b8:	2164      	movs	r1, #100	; 0x64
     8ba:	f7ff ffa1 	bl	800 <spiflash_wait_ready>
     8be:	2800      	cmp	r0, #0
     8c0:	d14a      	bne.n	958 <hal_spiflash_write+0xb8>
     8c2:	4603      	mov	r3, r0
    pp_time_typical = dev->characteristics->tbp1.typical;
     8c4:	6bea      	ldr	r2, [r5, #60]	; 0x3c
     8c6:	f8d2 9028 	ldr.w	r9, [r2, #40]	; 0x28
    pp_time_maximum = dev->characteristics->tpp.maximum;
     8ca:	f8d2 a024 	ldr.w	sl, [r2, #36]	; 0x24
    if (pp_time_maximum < pp_time_typical) {
     8ce:	45d1      	cmp	r9, sl
     8d0:	d840      	bhi.n	954 <hal_spiflash_write+0xb4>
    while (len) {
     8d2:	2f00      	cmp	r7, #0
     8d4:	d042      	beq.n	95c <hal_spiflash_write+0xbc>
        spiflash_write_enable(dev);
     8d6:	4628      	mov	r0, r5
     8d8:	f7ff ffd2 	bl	880 <spiflash_write_enable>
        cmd[1] = (uint8_t)(addr >> 16);
     8dc:	f3c6 4307 	ubfx	r3, r6, #16, #8
     8e0:	f88d 3005 	strb.w	r3, [sp, #5]
        cmd[2] = (uint8_t)(addr >> 8);
     8e4:	f3c6 2307 	ubfx	r3, r6, #8, #8
     8e8:	f88d 3006 	strb.w	r3, [sp, #6]
        cmd[3] = (uint8_t)(addr);
     8ec:	f88d 6007 	strb.w	r6, [sp, #7]
        page_limit = (addr & ~(dev->page_size - 1)) + dev->page_size;
     8f0:	8deb      	ldrh	r3, [r5, #46]	; 0x2e
     8f2:	425c      	negs	r4, r3
     8f4:	4034      	ands	r4, r6
     8f6:	441c      	add	r4, r3
        to_write = page_limit - addr > len ? len :  page_limit - addr;
     8f8:	1ba4      	subs	r4, r4, r6
     8fa:	42bc      	cmp	r4, r7
     8fc:	bf28      	it	cs
     8fe:	463c      	movcs	r4, r7
    hal_gpio_write(dev->ss_pin, 0);
     900:	2100      	movs	r1, #0
     902:	6aa8      	ldr	r0, [r5, #40]	; 0x28
     904:	f000 fa43 	bl	d8e <hal_gpio_write>
        hal_spi_txrx(dev->spi_num, cmd, NULL, sizeof cmd);
     908:	2304      	movs	r3, #4
     90a:	2200      	movs	r2, #0
     90c:	eb0d 0103 	add.w	r1, sp, r3
     910:	6a28      	ldr	r0, [r5, #32]
     912:	f000 fc8b 	bl	122c <hal_spi_txrx>
        hal_spi_txrx(dev->spi_num, (void *)u8buf, NULL, to_write);
     916:	4623      	mov	r3, r4
     918:	2200      	movs	r2, #0
     91a:	4641      	mov	r1, r8
     91c:	6a28      	ldr	r0, [r5, #32]
     91e:	f000 fc85 	bl	122c <hal_spi_txrx>
    hal_gpio_write(dev->ss_pin, 1);
     922:	2101      	movs	r1, #1
     924:	6aa8      	ldr	r0, [r5, #40]	; 0x28
     926:	f000 fa32 	bl	d8e <hal_gpio_write>
        dev->ready = false;
     92a:	2300      	movs	r3, #0
     92c:	f885 3030 	strb.w	r3, [r5, #48]	; 0x30
        spiflash_delay_us(pp_time_typical);
     930:	4648      	mov	r0, r9
     932:	f7ff feec 	bl	70e <spiflash_delay_us>
        rc = spiflash_wait_ready_till(dev, pp_time_maximum - pp_time_typical,
     936:	ebaa 0109 	sub.w	r1, sl, r9
     93a:	4a0a      	ldr	r2, [pc, #40]	; (964 <hal_spiflash_write+0xc4>)
     93c:	fba2 3201 	umull	r3, r2, r2, r1
     940:	08d2      	lsrs	r2, r2, #3
     942:	4628      	mov	r0, r5
     944:	f7ff ff34 	bl	7b0 <spiflash_wait_ready_till>
        if (rc) {
     948:	4603      	mov	r3, r0
     94a:	b938      	cbnz	r0, 95c <hal_spiflash_write+0xbc>
        addr += to_write;
     94c:	4426      	add	r6, r4
        u8buf += to_write;
     94e:	44a0      	add	r8, r4
        len -= to_write;
     950:	1b3f      	subs	r7, r7, r4
     952:	e7be      	b.n	8d2 <hal_spiflash_write+0x32>
        pp_time_maximum = pp_time_typical;
     954:	46ca      	mov	sl, r9
     956:	e7bc      	b.n	8d2 <hal_spiflash_write+0x32>
        rc = -1;
     958:	f04f 33ff 	mov.w	r3, #4294967295	; 0xffffffff
}
     95c:	4618      	mov	r0, r3
     95e:	b002      	add	sp, #8
     960:	e8bd 87f0 	ldmia.w	sp!, {r4, r5, r6, r7, r8, r9, sl, pc}
     964:	cccccccd 	.word	0xcccccccd

00000968 <spiflash_execute_erase>:
{
     968:	b5f8      	push	{r3, r4, r5, r6, r7, lr}
     96a:	4604      	mov	r4, r0
     96c:	460d      	mov	r5, r1
     96e:	4617      	mov	r7, r2
     970:	461e      	mov	r6, r3
    if (spiflash_wait_ready(dev, 100) != 0) {
     972:	2164      	movs	r1, #100	; 0x64
     974:	f7ff ff44 	bl	800 <spiflash_wait_ready>
     978:	bb68      	cbnz	r0, 9d6 <spiflash_execute_erase+0x6e>
    spiflash_write_enable(dev);
     97a:	4620      	mov	r0, r4
     97c:	f7ff ff80 	bl	880 <spiflash_write_enable>
    spiflash_read_status(dev);
     980:	4620      	mov	r0, r4
     982:	f7ff fef5 	bl	770 <spiflash_read_status>
    hal_gpio_write(dev->ss_pin, 0);
     986:	2100      	movs	r1, #0
     988:	6aa0      	ldr	r0, [r4, #40]	; 0x28
     98a:	f000 fa00 	bl	d8e <hal_gpio_write>
    hal_spi_txrx(dev->spi_num, (void *)buf, NULL, size);
     98e:	463b      	mov	r3, r7
     990:	2200      	movs	r2, #0
     992:	4629      	mov	r1, r5
     994:	6a20      	ldr	r0, [r4, #32]
     996:	f000 fc49 	bl	122c <hal_spi_txrx>
    hal_gpio_write(dev->ss_pin, 1);
     99a:	2101      	movs	r1, #1
     99c:	6aa0      	ldr	r0, [r4, #40]	; 0x28
     99e:	f000 f9f6 	bl	d8e <hal_gpio_write>
    dev->ready = false;
     9a2:	2300      	movs	r3, #0
     9a4:	f884 3030 	strb.w	r3, [r4, #48]	; 0x30
    start_time = os_cputime_get32();
     9a8:	f000 ff78 	bl	189c <os_cputime_get32>
     9ac:	4605      	mov	r5, r0
    spiflash_delay_us(delay_spec->typical);
     9ae:	6830      	ldr	r0, [r6, #0]
     9b0:	f7ff fead 	bl	70e <spiflash_delay_us>
    wait_time_us = os_cputime_ticks_to_usecs(os_cputime_get32() - start_time);
     9b4:	f000 ff72 	bl	189c <os_cputime_get32>
     9b8:	1b40      	subs	r0, r0, r5
    if (wait_time_us > delay_spec->maximum) {
     9ba:	6871      	ldr	r1, [r6, #4]
     9bc:	4281      	cmp	r1, r0
     9be:	d308      	bcc.n	9d2 <spiflash_execute_erase+0x6a>
        wait_time_us = delay_spec->maximum - wait_time_us;
     9c0:	1a09      	subs	r1, r1, r0
    rc = spiflash_wait_ready_till(dev, wait_time_us, wait_time_us / 50);
     9c2:	4a06      	ldr	r2, [pc, #24]	; (9dc <spiflash_execute_erase+0x74>)
     9c4:	fba2 3201 	umull	r3, r2, r2, r1
     9c8:	0912      	lsrs	r2, r2, #4
     9ca:	4620      	mov	r0, r4
     9cc:	f7ff fef0 	bl	7b0 <spiflash_wait_ready_till>
}
     9d0:	bdf8      	pop	{r3, r4, r5, r6, r7, pc}
        wait_time_us = 0;
     9d2:	2100      	movs	r1, #0
     9d4:	e7f5      	b.n	9c2 <spiflash_execute_erase+0x5a>
        rc = -1;
     9d6:	f04f 30ff 	mov.w	r0, #4294967295	; 0xffffffff
    return rc;
     9da:	e7f9      	b.n	9d0 <spiflash_execute_erase+0x68>
     9dc:	51eb851f 	.word	0x51eb851f

000009e0 <spiflash_erase_cmd>:

static int
spiflash_erase_cmd(struct spiflash_dev *dev, uint8_t cmd, uint32_t addr,
                   const struct spiflash_time_spec *time_spec)
{
     9e0:	b500      	push	{lr}
     9e2:	b083      	sub	sp, #12
    uint8_t buf[4] = { cmd, (uint8_t)(addr >> 16U), (uint8_t)(addr >> 8U),
     9e4:	f88d 1004 	strb.w	r1, [sp, #4]
     9e8:	f3c2 4107 	ubfx	r1, r2, #16, #8
     9ec:	f88d 1005 	strb.w	r1, [sp, #5]
     9f0:	f3c2 2107 	ubfx	r1, r2, #8, #8
     9f4:	f88d 1006 	strb.w	r1, [sp, #6]
     9f8:	f88d 2007 	strb.w	r2, [sp, #7]
                       (uint8_t)addr };
    return spiflash_execute_erase(dev, buf, sizeof(buf), time_spec);
     9fc:	2204      	movs	r2, #4
     9fe:	eb0d 0102 	add.w	r1, sp, r2
     a02:	f7ff ffb1 	bl	968 <spiflash_execute_erase>

}
     a06:	b003      	add	sp, #12
     a08:	f85d fb04 	ldr.w	pc, [sp], #4

00000a0c <spiflash_sector_erase>:

int
spiflash_sector_erase(struct spiflash_dev *dev, uint32_t addr)
{
     a0c:	b508      	push	{r3, lr}
    return spiflash_erase_cmd(dev, SPIFLASH_SECTOR_ERASE, addr,
     a0e:	6bc3      	ldr	r3, [r0, #60]	; 0x3c
     a10:	460a      	mov	r2, r1
     a12:	2120      	movs	r1, #32
     a14:	f7ff ffe4 	bl	9e0 <spiflash_erase_cmd>
                              &dev->characteristics->tse);
}
     a18:	bd08      	pop	{r3, pc}

00000a1a <hal_spiflash_erase_sector>:
{
     a1a:	b508      	push	{r3, lr}
    return spiflash_sector_erase(dev, addr);
     a1c:	f7ff fff6 	bl	a0c <spiflash_sector_erase>
}
     a20:	bd08      	pop	{r3, pc}

00000a22 <spiflash_block_32k_erase>:

#if MYNEWT_VAL(SPIFLASH_BLOCK_ERASE_32BK)
int
spiflash_block_32k_erase(struct spiflash_dev *dev, uint32_t addr)
{
     a22:	b508      	push	{r3, lr}
    return spiflash_erase_cmd(dev, SPIFLASH_BLOCK_ERASE_32KB, addr,
                              &dev->characteristics->tbe1);
     a24:	6bc3      	ldr	r3, [r0, #60]	; 0x3c
    return spiflash_erase_cmd(dev, SPIFLASH_BLOCK_ERASE_32KB, addr,
     a26:	3308      	adds	r3, #8
     a28:	460a      	mov	r2, r1
     a2a:	2152      	movs	r1, #82	; 0x52
     a2c:	f7ff ffd8 	bl	9e0 <spiflash_erase_cmd>
}
     a30:	bd08      	pop	{r3, pc}

00000a32 <spiflash_block_64k_erase>:
#endif

#if MYNEWT_VAL(SPIFLASH_BLOCK_ERASE_64BK)
int
spiflash_block_64k_erase(struct spiflash_dev *dev, uint32_t addr)
{
     a32:	b508      	push	{r3, lr}
    return spiflash_erase_cmd(dev, SPIFLASH_BLOCK_ERASE_64KB, addr,
                              &dev->characteristics->tbe2);
     a34:	6bc3      	ldr	r3, [r0, #60]	; 0x3c
    return spiflash_erase_cmd(dev, SPIFLASH_BLOCK_ERASE_64KB, addr,
     a36:	3310      	adds	r3, #16
     a38:	460a      	mov	r2, r1
     a3a:	21d8      	movs	r1, #216	; 0xd8
     a3c:	f7ff ffd0 	bl	9e0 <spiflash_erase_cmd>
}
     a40:	bd08      	pop	{r3, pc}

00000a42 <spiflash_chip_erase>:
#endif

int
spiflash_chip_erase(struct spiflash_dev *dev)
{
     a42:	b500      	push	{lr}
     a44:	b083      	sub	sp, #12
    uint8_t buf[1] = { SPIFLASH_CHIP_ERASE };
     a46:	a902      	add	r1, sp, #8
     a48:	2360      	movs	r3, #96	; 0x60
     a4a:	f801 3d04 	strb.w	r3, [r1, #-4]!

    return spiflash_execute_erase(dev, buf, sizeof(buf),
                                  &dev->characteristics->tce);
     a4e:	6bc3      	ldr	r3, [r0, #60]	; 0x3c
    return spiflash_execute_erase(dev, buf, sizeof(buf),
     a50:	3318      	adds	r3, #24
     a52:	2201      	movs	r2, #1
     a54:	f7ff ff88 	bl	968 <spiflash_execute_erase>
}
     a58:	b003      	add	sp, #12
     a5a:	f85d fb04 	ldr.w	pc, [sp], #4

00000a5e <spiflash_erase>:

int
spiflash_erase(struct spiflash_dev *dev, uint32_t address, uint32_t size)
{
     a5e:	b570      	push	{r4, r5, r6, lr}
     a60:	4606      	mov	r6, r0
     a62:	4615      	mov	r5, r2
    int rc = 0;

    if (address == 0 && size == dev->hal.hf_size) {
     a64:	460c      	mov	r4, r1
     a66:	b911      	cbnz	r1, a6e <spiflash_erase+0x10>
     a68:	6883      	ldr	r3, [r0, #8]
     a6a:	4293      	cmp	r3, r2
     a6c:	d005      	beq.n	a7a <spiflash_erase+0x1c>
        return spiflash_chip_erase(dev);
    }
    address &= ~0xFFFU;
     a6e:	f424 647f 	bic.w	r4, r4, #4080	; 0xff0
     a72:	f024 040f 	bic.w	r4, r4, #15
    int rc = 0;
     a76:	2300      	movs	r3, #0
    while (size) {
     a78:	e01c      	b.n	ab4 <spiflash_erase+0x56>
        return spiflash_chip_erase(dev);
     a7a:	f7ff ffe2 	bl	a42 <spiflash_chip_erase>
     a7e:	4603      	mov	r3, r0
     a80:	e010      	b.n	aa4 <spiflash_erase+0x46>
#if MYNEWT_VAL(SPIFLASH_BLOCK_ERASE_64BK)
        if ((address & 0xFFFFU) == 0 && (size >= 0x10000)) {
            /* 64 KB erase if possible */
            rc = spiflash_block_64k_erase(dev, address);
     a82:	4621      	mov	r1, r4
     a84:	4630      	mov	r0, r6
     a86:	f7ff ffd4 	bl	a32 <spiflash_block_64k_erase>
            if (rc) {
     a8a:	4603      	mov	r3, r0
     a8c:	b950      	cbnz	r0, aa4 <spiflash_erase+0x46>
                goto err;
            }
            address += 0x10000;
     a8e:	f504 3480 	add.w	r4, r4, #65536	; 0x10000
            size -= 0x10000;
     a92:	f5a5 3580 	sub.w	r5, r5, #65536	; 0x10000
            continue;
     a96:	e00d      	b.n	ab4 <spiflash_erase+0x56>
        }
#endif
#if MYNEWT_VAL(SPIFLASH_BLOCK_ERASE_32BK)
        if ((address & 0x7FFFU) == 0 && (size >= 0x8000)) {
            /* 32 KB erase if possible */
            rc = spiflash_block_32k_erase(dev, address);
     a98:	4621      	mov	r1, r4
     a9a:	4630      	mov	r0, r6
     a9c:	f7ff ffc1 	bl	a22 <spiflash_block_32k_erase>
            if (rc) {
     aa0:	4603      	mov	r3, r0
     aa2:	b108      	cbz	r0, aa8 <spiflash_erase+0x4a>
            size = 0;
        }
    }
err:
    return rc;
}
     aa4:	4618      	mov	r0, r3
     aa6:	bd70      	pop	{r4, r5, r6, pc}
            address += 0x8000;
     aa8:	f504 4400 	add.w	r4, r4, #32768	; 0x8000
            size -= 0x8000;
     aac:	f5a5 4500 	sub.w	r5, r5, #32768	; 0x8000
            continue;
     ab0:	e000      	b.n	ab4 <spiflash_erase+0x56>
            size = 0;
     ab2:	2500      	movs	r5, #0
    while (size) {
     ab4:	2d00      	cmp	r5, #0
     ab6:	d0f5      	beq.n	aa4 <spiflash_erase+0x46>
        if ((address & 0xFFFFU) == 0 && (size >= 0x10000)) {
     ab8:	b2a3      	uxth	r3, r4
     aba:	b913      	cbnz	r3, ac2 <spiflash_erase+0x64>
     abc:	f5b5 3f80 	cmp.w	r5, #65536	; 0x10000
     ac0:	d2df      	bcs.n	a82 <spiflash_erase+0x24>
        if ((address & 0x7FFFU) == 0 && (size >= 0x8000)) {
     ac2:	f3c4 030e 	ubfx	r3, r4, #0, #15
     ac6:	b913      	cbnz	r3, ace <spiflash_erase+0x70>
     ac8:	f5b5 4f00 	cmp.w	r5, #32768	; 0x8000
     acc:	d2e4      	bcs.n	a98 <spiflash_erase+0x3a>
        rc = spiflash_sector_erase(dev, address);
     ace:	4621      	mov	r1, r4
     ad0:	4630      	mov	r0, r6
     ad2:	f7ff ff9b 	bl	a0c <spiflash_sector_erase>
        if (rc) {
     ad6:	4603      	mov	r3, r0
     ad8:	2800      	cmp	r0, #0
     ada:	d1e3      	bne.n	aa4 <spiflash_erase+0x46>
        address += MYNEWT_VAL(SPIFLASH_SECTOR_SIZE);
     adc:	f504 5480 	add.w	r4, r4, #4096	; 0x1000
        if (size > MYNEWT_VAL(SPIFLASH_SECTOR_SIZE)) {
     ae0:	f5b5 5f80 	cmp.w	r5, #4096	; 0x1000
     ae4:	d9e5      	bls.n	ab2 <spiflash_erase+0x54>
            size -= MYNEWT_VAL(SPIFLASH_SECTOR_SIZE);
     ae6:	f5a5 5580 	sub.w	r5, r5, #4096	; 0x1000
     aea:	e7e3      	b.n	ab4 <spiflash_erase+0x56>

00000aec <hal_spiflash_erase>:
{
     aec:	b508      	push	{r3, lr}
    return spiflash_erase(dev, address, size);
     aee:	f7ff ffb6 	bl	a5e <spiflash_erase>
}
     af2:	bd08      	pop	{r3, pc}

00000af4 <spiflash_identify>:

int
spiflash_identify(struct spiflash_dev *dev)
{
     af4:	b570      	push	{r4, r5, r6, lr}
     af6:	b082      	sub	sp, #8
     af8:	4606      	mov	r6, r0
    int i;
    int j;
    uint8_t manufacturer = 0;
     afa:	2300      	movs	r3, #0
     afc:	f88d 3007 	strb.w	r3, [sp, #7]
    uint8_t memory_type = 0;
     b00:	f88d 3006 	strb.w	r3, [sp, #6]
    uint8_t capacity = 0;
     b04:	ac02      	add	r4, sp, #8
     b06:	f804 3d03 	strb.w	r3, [r4, #-3]!

    spiflash_lock(dev);

    /* Only one chip specified, no need for search*/
    if ((sizeof(supported_chips) / sizeof(supported_chips[0])) == 2) {
        supported_chips[0].fc_release_power_down(dev);
     b0a:	4d14      	ldr	r5, [pc, #80]	; (b5c <spiflash_identify+0x68>)
     b0c:	686b      	ldr	r3, [r5, #4]
     b0e:	4798      	blx	r3
        spiflash_read_jedec_id(dev, &manufacturer, &memory_type, &capacity);
     b10:	4623      	mov	r3, r4
     b12:	f10d 0206 	add.w	r2, sp, #6
     b16:	f10d 0107 	add.w	r1, sp, #7
     b1a:	4630      	mov	r0, r6
     b1c:	f7ff fdfb 	bl	716 <spiflash_read_jedec_id>
        /* If BSP defined SpiFlash manufacturer or memory type does not
         * match SpiFlash is most likely not connected, connected to
         * different pins, or of different type.
         * It is unlikely that flash depended packaged will work correctly.
         */
        assert(manufacturer == supported_chips[0].fc_jedec_id.ji_manufacturer &&
     b20:	782a      	ldrb	r2, [r5, #0]
     b22:	f89d 3007 	ldrb.w	r3, [sp, #7]
     b26:	429a      	cmp	r2, r3
     b28:	d10e      	bne.n	b48 <spiflash_identify+0x54>
     b2a:	786a      	ldrb	r2, [r5, #1]
     b2c:	f89d 3006 	ldrb.w	r3, [sp, #6]
     b30:	429a      	cmp	r2, r3
     b32:	d109      	bne.n	b48 <spiflash_identify+0x54>
     b34:	78aa      	ldrb	r2, [r5, #2]
     b36:	f89d 3005 	ldrb.w	r3, [sp, #5]
     b3a:	429a      	cmp	r2, r3
     b3c:	d104      	bne.n	b48 <spiflash_identify+0x54>
            memory_type != supported_chips[0].fc_jedec_id.ji_type ||
            capacity != supported_chips[0].fc_jedec_id.ji_capacity) {
            rc = -1;
            goto err;
        }
        dev->flash_chip = &supported_chips[0];
     b3e:	4b07      	ldr	r3, [pc, #28]	; (b5c <spiflash_identify+0x68>)
     b40:	63b3      	str	r3, [r6, #56]	; 0x38
    }
err:
    spiflash_unlock(dev);

    return rc;
}
     b42:	2000      	movs	r0, #0
     b44:	b002      	add	sp, #8
     b46:	bd70      	pop	{r4, r5, r6, pc}
        assert(manufacturer == supported_chips[0].fc_jedec_id.ji_manufacturer &&
     b48:	f7ff fb0c 	bl	164 <hal_debugger_connected>
     b4c:	b100      	cbz	r0, b50 <spiflash_identify+0x5c>
     b4e:	be01      	bkpt	0x0001
     b50:	2300      	movs	r3, #0
     b52:	461a      	mov	r2, r3
     b54:	4619      	mov	r1, r3
     b56:	4618      	mov	r0, r3
     b58:	f000 fe2c 	bl	17b4 <__assert_func>
     b5c:	20000128 	.word	0x20000128

00000b60 <hal_spiflash_init>:

static int
hal_spiflash_init(const struct hal_flash *hal_flash_dev)
{
     b60:	b510      	push	{r4, lr}
     b62:	4604      	mov	r4, r0
    os_callout_init(&dev->apd_tmo_co, os_eventq_dflt_get(),
                    spiflash_apd_tmo_func, dev);
#endif

#if !MYNEWT_VAL(BUS_DRIVER_PRESENT)
    hal_gpio_init_out(dev->ss_pin, 1);
     b64:	2101      	movs	r1, #1
     b66:	6a80      	ldr	r0, [r0, #40]	; 0x28
     b68:	f000 f8f5 	bl	d56 <hal_gpio_init_out>

    (void)hal_spi_disable(dev->spi_num);
     b6c:	6a20      	ldr	r0, [r4, #32]
     b6e:	f000 fabb 	bl	10e8 <hal_spi_disable>

    rc = hal_spi_config(dev->spi_num, &dev->spi_settings);
     b72:	f104 0118 	add.w	r1, r4, #24
     b76:	6a20      	ldr	r0, [r4, #32]
     b78:	f000 fa74 	bl	1064 <hal_spi_config>
    if (rc) {
     b7c:	4603      	mov	r3, r0
     b7e:	b108      	cbz	r0, b84 <hal_spiflash_init+0x24>
    hal_spi_enable(dev->spi_num);
#endif
    rc = spiflash_identify(dev);

    return rc;
}
     b80:	4618      	mov	r0, r3
     b82:	bd10      	pop	{r4, pc}
    hal_spi_set_txrx_cb(dev->spi_num, NULL, NULL);
     b84:	2200      	movs	r2, #0
     b86:	4611      	mov	r1, r2
     b88:	6a20      	ldr	r0, [r4, #32]
     b8a:	f000 fb39 	bl	1200 <hal_spi_set_txrx_cb>
    hal_spi_enable(dev->spi_num);
     b8e:	6a20      	ldr	r0, [r4, #32]
     b90:	f000 fa84 	bl	109c <hal_spi_enable>
    rc = spiflash_identify(dev);
     b94:	4620      	mov	r0, r4
     b96:	f7ff ffad 	bl	af4 <spiflash_identify>
     b9a:	4603      	mov	r3, r0
    return rc;
     b9c:	e7f0      	b.n	b80 <hal_spiflash_init+0x20>

00000b9e <_exit>:

void _exit(int status);

void
_exit(int status)
{
     b9e:	b508      	push	{r3, lr}
    hal_system_reset();
     ba0:	f7ff fae8 	bl	174 <hal_system_reset>

00000ba4 <nrf52k_flash_wait_ready>:
static int
nrf52k_flash_wait_ready(void)
{
    int i;

    for (i = 0; i < 100000; i++) {
     ba4:	2300      	movs	r3, #0
     ba6:	4a07      	ldr	r2, [pc, #28]	; (bc4 <nrf52k_flash_wait_ready+0x20>)
     ba8:	4293      	cmp	r3, r2
     baa:	dc06      	bgt.n	bba <nrf52k_flash_wait_ready+0x16>
        if (NRF_NVMC->READY == NVMC_READY_READY_Ready) {
     bac:	4a06      	ldr	r2, [pc, #24]	; (bc8 <nrf52k_flash_wait_ready+0x24>)
     bae:	f8d2 2400 	ldr.w	r2, [r2, #1024]	; 0x400
     bb2:	2a01      	cmp	r2, #1
     bb4:	d004      	beq.n	bc0 <nrf52k_flash_wait_ready+0x1c>
    for (i = 0; i < 100000; i++) {
     bb6:	3301      	adds	r3, #1
     bb8:	e7f5      	b.n	ba6 <nrf52k_flash_wait_ready+0x2>
            return 0;
        }
    }
    return -1;
     bba:	f04f 30ff 	mov.w	r0, #4294967295	; 0xffffffff
     bbe:	4770      	bx	lr
            return 0;
     bc0:	2000      	movs	r0, #0
}
     bc2:	4770      	bx	lr
     bc4:	0001869f 	.word	0x0001869f
     bc8:	4001e000 	.word	0x4001e000

00000bcc <nrf52k_flash_erase_sector>:
    return rc;
}

static int
nrf52k_flash_erase_sector(const struct hal_flash *dev, uint32_t sector_address)
{
     bcc:	b538      	push	{r3, r4, r5, lr}
     bce:	460d      	mov	r5, r1
    int sr;
    int rc = -1;

    if (nrf52k_flash_wait_ready()) {
     bd0:	f7ff ffe8 	bl	ba4 <nrf52k_flash_wait_ready>
     bd4:	b9f0      	cbnz	r0, c14 <nrf52k_flash_erase_sector+0x48>
  __ASM volatile ("MRS %0, primask" : "=r" (result) :: "memory");
     bd6:	f3ef 8410 	mrs	r4, PRIMASK
  __ASM volatile ("cpsid i" : : : "memory");
     bda:	b672      	cpsid	i
        return -1;
    }
    __HAL_DISABLE_INTERRUPTS(sr);
    NRF_NVMC->CONFIG = NVMC_CONFIG_WEN_Een; /* Enable erase OP */
     bdc:	4b0f      	ldr	r3, [pc, #60]	; (c1c <nrf52k_flash_erase_sector+0x50>)
     bde:	2202      	movs	r2, #2
     be0:	f8c3 2504 	str.w	r2, [r3, #1284]	; 0x504
    if (nrf52k_flash_wait_ready()) {
     be4:	f7ff ffde 	bl	ba4 <nrf52k_flash_wait_ready>
     be8:	b148      	cbz	r0, bfe <nrf52k_flash_erase_sector+0x32>
    int rc = -1;
     bea:	f04f 33ff 	mov.w	r3, #4294967295	; 0xffffffff
    if (nrf52k_flash_wait_ready()) {
        goto out;
    }
    rc = 0;
out:
    NRF_NVMC->CONFIG = NVMC_CONFIG_WEN_Ren; /* Disable erase OP */
     bee:	4a0b      	ldr	r2, [pc, #44]	; (c1c <nrf52k_flash_erase_sector+0x50>)
     bf0:	2100      	movs	r1, #0
     bf2:	f8c2 1504 	str.w	r1, [r2, #1284]	; 0x504
    __HAL_ENABLE_INTERRUPTS(sr);
     bf6:	b904      	cbnz	r4, bfa <nrf52k_flash_erase_sector+0x2e>
  __ASM volatile ("cpsie i" : : : "memory");
     bf8:	b662      	cpsie	i
    return rc;
}
     bfa:	4618      	mov	r0, r3
     bfc:	bd38      	pop	{r3, r4, r5, pc}
    NRF_NVMC->ERASEPAGE = sector_address;
     bfe:	4b07      	ldr	r3, [pc, #28]	; (c1c <nrf52k_flash_erase_sector+0x50>)
     c00:	f8c3 5508 	str.w	r5, [r3, #1288]	; 0x508
    if (nrf52k_flash_wait_ready()) {
     c04:	f7ff ffce 	bl	ba4 <nrf52k_flash_wait_ready>
     c08:	4603      	mov	r3, r0
     c0a:	2800      	cmp	r0, #0
     c0c:	d0ef      	beq.n	bee <nrf52k_flash_erase_sector+0x22>
    int rc = -1;
     c0e:	f04f 33ff 	mov.w	r3, #4294967295	; 0xffffffff
     c12:	e7ec      	b.n	bee <nrf52k_flash_erase_sector+0x22>
        return -1;
     c14:	f04f 33ff 	mov.w	r3, #4294967295	; 0xffffffff
     c18:	e7ef      	b.n	bfa <nrf52k_flash_erase_sector+0x2e>
     c1a:	bf00      	nop
     c1c:	4001e000 	.word	0x4001e000

00000c20 <nrf52k_flash_init>:

static int
nrf52k_flash_init(const struct hal_flash *dev)
{
    return 0;
}
     c20:	2000      	movs	r0, #0
     c22:	4770      	bx	lr

00000c24 <nrf52k_flash_sector_info>:
    assert(idx < nrf52k_flash_dev.hf_sector_cnt);
     c24:	297f      	cmp	r1, #127	; 0x7f
     c26:	dc06      	bgt.n	c36 <nrf52k_flash_sector_info+0x12>
    *address = idx * NRF52K_FLASH_SECTOR_SZ;
     c28:	0309      	lsls	r1, r1, #12
     c2a:	6011      	str	r1, [r2, #0]
    *sz = NRF52K_FLASH_SECTOR_SZ;
     c2c:	f44f 5280 	mov.w	r2, #4096	; 0x1000
     c30:	601a      	str	r2, [r3, #0]
}
     c32:	2000      	movs	r0, #0
     c34:	4770      	bx	lr
{
     c36:	b508      	push	{r3, lr}
    assert(idx < nrf52k_flash_dev.hf_sector_cnt);
     c38:	f7ff fa94 	bl	164 <hal_debugger_connected>
     c3c:	b100      	cbz	r0, c40 <nrf52k_flash_sector_info+0x1c>
     c3e:	be01      	bkpt	0x0001
     c40:	2300      	movs	r3, #0
     c42:	461a      	mov	r2, r3
     c44:	4619      	mov	r1, r3
     c46:	4618      	mov	r0, r3
     c48:	f000 fdb4 	bl	17b4 <__assert_func>

00000c4c <nrf52k_flash_write>:
{
     c4c:	e92d 47f0 	stmdb	sp!, {r4, r5, r6, r7, r8, r9, sl, lr}
     c50:	b082      	sub	sp, #8
     c52:	460d      	mov	r5, r1
     c54:	4616      	mov	r6, r2
     c56:	461c      	mov	r4, r3
    if (nrf52k_flash_wait_ready()) {
     c58:	f7ff ffa4 	bl	ba4 <nrf52k_flash_wait_ready>
     c5c:	2800      	cmp	r0, #0
     c5e:	d158      	bne.n	d12 <nrf52k_flash_write+0xc6>
  __ASM volatile ("MRS %0, primask" : "=r" (result) :: "memory");
     c60:	f3ef 8710 	mrs	r7, PRIMASK
  __ASM volatile ("cpsid i" : : : "memory");
     c64:	b672      	cpsid	i
    NRF_NVMC->CONFIG = NVMC_CONFIG_WEN_Wen; /* Enable erase OP */
     c66:	4b2c      	ldr	r3, [pc, #176]	; (d18 <nrf52k_flash_write+0xcc>)
     c68:	2201      	movs	r2, #1
     c6a:	f8c3 2504 	str.w	r2, [r3, #1284]	; 0x504
    if (tmp) {
     c6e:	f015 0803 	ands.w	r8, r5, #3
     c72:	d10b      	bne.n	c8c <nrf52k_flash_write+0x40>
    while (num_bytes >= sizeof(uint32_t)) {
     c74:	2c03      	cmp	r4, #3
     c76:	d925      	bls.n	cc4 <nrf52k_flash_write+0x78>
        if (nrf52k_flash_wait_ready()) {
     c78:	f7ff ff94 	bl	ba4 <nrf52k_flash_wait_ready>
     c7c:	2800      	cmp	r0, #0
     c7e:	d139      	bne.n	cf4 <nrf52k_flash_write+0xa8>
        *(uint32_t *)address = *(uint32_t *)src;
     c80:	f856 3b04 	ldr.w	r3, [r6], #4
     c84:	f845 3b04 	str.w	r3, [r5], #4
        num_bytes -= sizeof(uint32_t);
     c88:	3c04      	subs	r4, #4
     c8a:	e7f3      	b.n	c74 <nrf52k_flash_write+0x28>
        if (nrf52k_flash_wait_ready()) {
     c8c:	f7ff ff8a 	bl	ba4 <nrf52k_flash_wait_ready>
     c90:	bb68      	cbnz	r0, cee <nrf52k_flash_write+0xa2>
        val = *(uint32_t *)(address & ~0x3);
     c92:	f025 0a03 	bic.w	sl, r5, #3
     c96:	f8da 3000 	ldr.w	r3, [sl]
     c9a:	9301      	str	r3, [sp, #4]
        cnt = 4 - tmp;
     c9c:	f1c8 0904 	rsb	r9, r8, #4
        if (cnt > num_bytes) {
     ca0:	45a1      	cmp	r9, r4
     ca2:	d900      	bls.n	ca6 <nrf52k_flash_write+0x5a>
            cnt = num_bytes;
     ca4:	46a1      	mov	r9, r4
        memcpy((uint8_t *)&val + tmp, src, cnt);
     ca6:	464a      	mov	r2, r9
     ca8:	4631      	mov	r1, r6
     caa:	ab01      	add	r3, sp, #4
     cac:	eb03 0008 	add.w	r0, r3, r8
     cb0:	f001 f8e1 	bl	1e76 <memcpy>
        *(uint32_t *)(address & ~0x3) = val;
     cb4:	9b01      	ldr	r3, [sp, #4]
     cb6:	f8ca 3000 	str.w	r3, [sl]
        address += cnt;
     cba:	444d      	add	r5, r9
        num_bytes -= cnt;
     cbc:	eba4 0409 	sub.w	r4, r4, r9
        src += cnt;
     cc0:	444e      	add	r6, r9
     cc2:	e7d7      	b.n	c74 <nrf52k_flash_write+0x28>
    if (num_bytes) {
     cc4:	b164      	cbz	r4, ce0 <nrf52k_flash_write+0x94>
        val = *(uint32_t *)address;
     cc6:	682b      	ldr	r3, [r5, #0]
     cc8:	a802      	add	r0, sp, #8
     cca:	f840 3d04 	str.w	r3, [r0, #-4]!
        memcpy(&val, src, num_bytes);
     cce:	4622      	mov	r2, r4
     cd0:	4631      	mov	r1, r6
     cd2:	f001 f8d0 	bl	1e76 <memcpy>
        if (nrf52k_flash_wait_ready()) {
     cd6:	f7ff ff65 	bl	ba4 <nrf52k_flash_wait_ready>
     cda:	b9b8      	cbnz	r0, d0c <nrf52k_flash_write+0xc0>
        *(uint32_t *)address = val;
     cdc:	9b01      	ldr	r3, [sp, #4]
     cde:	602b      	str	r3, [r5, #0]
    if (nrf52k_flash_wait_ready()) {
     ce0:	f7ff ff60 	bl	ba4 <nrf52k_flash_wait_ready>
     ce4:	4603      	mov	r3, r0
     ce6:	b138      	cbz	r0, cf8 <nrf52k_flash_write+0xac>
        rc = -1;
     ce8:	f04f 33ff 	mov.w	r3, #4294967295	; 0xffffffff
     cec:	e004      	b.n	cf8 <nrf52k_flash_write+0xac>
    int rc = -1;
     cee:	f04f 33ff 	mov.w	r3, #4294967295	; 0xffffffff
     cf2:	e001      	b.n	cf8 <nrf52k_flash_write+0xac>
     cf4:	f04f 33ff 	mov.w	r3, #4294967295	; 0xffffffff
    NRF_NVMC->CONFIG = NVMC_CONFIG_WEN_Ren;
     cf8:	4a07      	ldr	r2, [pc, #28]	; (d18 <nrf52k_flash_write+0xcc>)
     cfa:	2100      	movs	r1, #0
     cfc:	f8c2 1504 	str.w	r1, [r2, #1284]	; 0x504
    __HAL_ENABLE_INTERRUPTS(sr);
     d00:	b907      	cbnz	r7, d04 <nrf52k_flash_write+0xb8>
  __ASM volatile ("cpsie i" : : : "memory");
     d02:	b662      	cpsie	i
}
     d04:	4618      	mov	r0, r3
     d06:	b002      	add	sp, #8
     d08:	e8bd 87f0 	ldmia.w	sp!, {r4, r5, r6, r7, r8, r9, sl, pc}
    int rc = -1;
     d0c:	f04f 33ff 	mov.w	r3, #4294967295	; 0xffffffff
     d10:	e7f2      	b.n	cf8 <nrf52k_flash_write+0xac>
        return -1;
     d12:	f04f 33ff 	mov.w	r3, #4294967295	; 0xffffffff
     d16:	e7f5      	b.n	d04 <nrf52k_flash_write+0xb8>
     d18:	4001e000 	.word	0x4001e000

00000d1c <nrf52k_flash_read>:
{
     d1c:	b508      	push	{r3, lr}
     d1e:	4610      	mov	r0, r2
    memcpy(dst, (void *)address, num_bytes);
     d20:	461a      	mov	r2, r3
     d22:	f001 f8a8 	bl	1e76 <memcpy>
}
     d26:	2000      	movs	r0, #0
     d28:	bd08      	pop	{r3, pc}

00000d2a <hal_gpio_init_in>:
{
    uint32_t conf;
    NRF_GPIO_Type *port;
    int pin_index = HAL_GPIO_INDEX(pin);

    switch (pull) {
     d2a:	2901      	cmp	r1, #1
     d2c:	d003      	beq.n	d36 <hal_gpio_init_in+0xc>
     d2e:	2902      	cmp	r1, #2
     d30:	d00f      	beq.n	d52 <hal_gpio_init_in+0x28>
    case HAL_GPIO_PULL_DOWN:
        conf = GPIO_PIN_CNF_PULL_Pulldown << GPIO_PIN_CNF_PULL_Pos;
        break;
    case HAL_GPIO_PULL_NONE:
    default:
        conf = 0;
     d32:	2100      	movs	r1, #0
        break;
     d34:	e000      	b.n	d38 <hal_gpio_init_in+0xe>
        conf = GPIO_PIN_CNF_PULL_Pullup << GPIO_PIN_CNF_PULL_Pos;
     d36:	210c      	movs	r1, #12
    }

    port = HAL_GPIO_PORT(pin);
    port->PIN_CNF[pin_index] = conf;
     d38:	f04f 42a0 	mov.w	r2, #1342177280	; 0x50000000
     d3c:	f500 73e0 	add.w	r3, r0, #448	; 0x1c0
     d40:	f842 1023 	str.w	r1, [r2, r3, lsl #2]
    port->DIRCLR = HAL_GPIO_MASK(pin);
     d44:	2301      	movs	r3, #1
     d46:	fa03 f000 	lsl.w	r0, r3, r0
     d4a:	f8c2 051c 	str.w	r0, [r2, #1308]	; 0x51c

    return 0;
}
     d4e:	2000      	movs	r0, #0
     d50:	4770      	bx	lr
        conf = GPIO_PIN_CNF_PULL_Pulldown << GPIO_PIN_CNF_PULL_Pos;
     d52:	2104      	movs	r1, #4
     d54:	e7f0      	b.n	d38 <hal_gpio_init_in+0xe>

00000d56 <hal_gpio_init_out>:
{
    NRF_GPIO_Type *port;
    int pin_index = HAL_GPIO_INDEX(pin);

    port = HAL_GPIO_PORT(pin);
    if (val) {
     d56:	b999      	cbnz	r1, d80 <hal_gpio_init_out+0x2a>
        port->OUTSET = HAL_GPIO_MASK(pin);
    } else {
        port->OUTCLR = HAL_GPIO_MASK(pin);
     d58:	2301      	movs	r3, #1
     d5a:	4083      	lsls	r3, r0
     d5c:	f04f 42a0 	mov.w	r2, #1342177280	; 0x50000000
     d60:	f8c2 350c 	str.w	r3, [r2, #1292]	; 0x50c
    }
    port->PIN_CNF[pin_index] = GPIO_PIN_CNF_DIR_Output |
     d64:	f04f 42a0 	mov.w	r2, #1342177280	; 0x50000000
     d68:	f500 73e0 	add.w	r3, r0, #448	; 0x1c0
     d6c:	2103      	movs	r1, #3
     d6e:	f842 1023 	str.w	r1, [r2, r3, lsl #2]
        (GPIO_PIN_CNF_INPUT_Disconnect << GPIO_PIN_CNF_INPUT_Pos);
    port->DIRSET = HAL_GPIO_MASK(pin);
     d72:	2301      	movs	r3, #1
     d74:	fa03 f000 	lsl.w	r0, r3, r0
     d78:	f8c2 0518 	str.w	r0, [r2, #1304]	; 0x518

    return 0;
}
     d7c:	2000      	movs	r0, #0
     d7e:	4770      	bx	lr
        port->OUTSET = HAL_GPIO_MASK(pin);
     d80:	2301      	movs	r3, #1
     d82:	4083      	lsls	r3, r0
     d84:	f04f 42a0 	mov.w	r2, #1342177280	; 0x50000000
     d88:	f8c2 3508 	str.w	r3, [r2, #1288]	; 0x508
     d8c:	e7ea      	b.n	d64 <hal_gpio_init_out+0xe>

00000d8e <hal_gpio_write>:
hal_gpio_write(int pin, int val)
{
    NRF_GPIO_Type *port;

    port = HAL_GPIO_PORT(pin);
    if (val) {
     d8e:	b939      	cbnz	r1, da0 <hal_gpio_write+0x12>
        port->OUTSET = HAL_GPIO_MASK(pin);
    } else {
        port->OUTCLR = HAL_GPIO_MASK(pin);
     d90:	2301      	movs	r3, #1
     d92:	fa03 f000 	lsl.w	r0, r3, r0
     d96:	f04f 43a0 	mov.w	r3, #1342177280	; 0x50000000
     d9a:	f8c3 050c 	str.w	r0, [r3, #1292]	; 0x50c
    }
}
     d9e:	4770      	bx	lr
        port->OUTSET = HAL_GPIO_MASK(pin);
     da0:	2301      	movs	r3, #1
     da2:	fa03 f000 	lsl.w	r0, r3, r0
     da6:	f04f 43a0 	mov.w	r3, #1342177280	; 0x50000000
     daa:	f8c3 0508 	str.w	r0, [r3, #1288]	; 0x508
     dae:	4770      	bx	lr

00000db0 <hal_gpio_read>:
hal_gpio_read(int pin)
{
    NRF_GPIO_Type *port;
    port = HAL_GPIO_PORT(pin);

    return (port->DIR & HAL_GPIO_MASK(pin)) ?
     db0:	f04f 43a0 	mov.w	r3, #1342177280	; 0x50000000
     db4:	f8d3 2514 	ldr.w	r2, [r3, #1300]	; 0x514
     db8:	2301      	movs	r3, #1
     dba:	4083      	lsls	r3, r0
        (port->OUT >> HAL_GPIO_INDEX(pin)) & 1UL :
     dbc:	421a      	tst	r2, r3
     dbe:	d108      	bne.n	dd2 <hal_gpio_read+0x22>
        (port->IN >> HAL_GPIO_INDEX(pin)) & 1UL;
     dc0:	f04f 43a0 	mov.w	r3, #1342177280	; 0x50000000
     dc4:	f8d3 3510 	ldr.w	r3, [r3, #1296]	; 0x510
     dc8:	fa23 f000 	lsr.w	r0, r3, r0
        (port->OUT >> HAL_GPIO_INDEX(pin)) & 1UL :
     dcc:	f000 0001 	and.w	r0, r0, #1
}
     dd0:	4770      	bx	lr
        (port->OUT >> HAL_GPIO_INDEX(pin)) & 1UL :
     dd2:	f04f 43a0 	mov.w	r3, #1342177280	; 0x50000000
     dd6:	f8d3 3504 	ldr.w	r3, [r3, #1284]	; 0x504
     dda:	fa23 f000 	lsr.w	r0, r3, r0
     dde:	f000 0001 	and.w	r0, r0, #1
     de2:	4770      	bx	lr

00000de4 <nrf52_irqm_handler>:
    }

#if (MYNEWT_VAL(SPI_0_MASTER) || MYNEWT_VAL(SPI_1_MASTER) || MYNEWT_VAL(SPI_2_MASTER) || MYNEWT_VAL(SPI_3_MASTER))
static void
nrf52_irqm_handler(struct nrf52_hal_spi *spi)
{
     de4:	b538      	push	{r3, r4, r5, lr}
    NRF_SPIM_Type *spim;
    uint16_t xfr_bytes;
    uint16_t len;

    spim = spi->nhs_spi.spim;
     de6:	6905      	ldr	r5, [r0, #16]
    if (spim->EVENTS_END) {
     de8:	f8d5 3118 	ldr.w	r3, [r5, #280]	; 0x118
     dec:	b32b      	cbz	r3, e3a <nrf52_irqm_handler+0x56>
        spim->EVENTS_END = 0;
     dee:	2300      	movs	r3, #0
     df0:	f8c5 3118 	str.w	r3, [r5, #280]	; 0x118

        /* Should not occur but if no transfer just leave  */
        if (spi->spi_xfr_flag == 0) {
     df4:	7843      	ldrb	r3, [r0, #1]
     df6:	b303      	cbz	r3, e3a <nrf52_irqm_handler+0x56>
            return;
        }

        /* Are there more bytes to send? */
        xfr_bytes = spim->TXD.AMOUNT;
     df8:	f8d5 254c 	ldr.w	r2, [r5, #1356]	; 0x54c
        spi->nhs_bytes_txd += xfr_bytes;
     dfc:	88c3      	ldrh	r3, [r0, #6]
     dfe:	fa13 f382 	uxtah	r3, r3, r2
     e02:	b29b      	uxth	r3, r3
     e04:	80c3      	strh	r3, [r0, #6]
        if (spi->nhs_bytes_txd < spi->nhs_buflen) {
     e06:	8881      	ldrh	r1, [r0, #4]
     e08:	428b      	cmp	r3, r1
     e0a:	d217      	bcs.n	e3c <nrf52_irqm_handler+0x58>
     e0c:	b292      	uxth	r2, r2
            spi->nhs_txbuf += xfr_bytes;
     e0e:	6984      	ldr	r4, [r0, #24]
     e10:	4414      	add	r4, r2
     e12:	6184      	str	r4, [r0, #24]
            len = spi->nhs_buflen - spi->nhs_bytes_txd;
     e14:	1acb      	subs	r3, r1, r3
     e16:	b29b      	uxth	r3, r3
            len = min(SPIM_TXD_MAXCNT_MAX, len);
     e18:	2bff      	cmp	r3, #255	; 0xff
     e1a:	bf28      	it	cs
     e1c:	23ff      	movcs	r3, #255	; 0xff
            spim->TXD.PTR = (uint32_t)spi->nhs_txbuf;
     e1e:	f8c5 4544 	str.w	r4, [r5, #1348]	; 0x544
            spim->TXD.MAXCNT = len;
     e22:	f8c5 3548 	str.w	r3, [r5, #1352]	; 0x548

            /* If no rxbuf, we need to set rxbuf and maxcnt to 1 */
            if (spi->nhs_rxbuf) {
     e26:	69c1      	ldr	r1, [r0, #28]
     e28:	b129      	cbz	r1, e36 <nrf52_irqm_handler+0x52>
                spi->nhs_rxbuf += xfr_bytes;
     e2a:	440a      	add	r2, r1
     e2c:	61c2      	str	r2, [r0, #28]
                spim->RXD.PTR    = (uint32_t)spi->nhs_rxbuf;
     e2e:	f8c5 2534 	str.w	r2, [r5, #1332]	; 0x534
                spim->RXD.MAXCNT = len;
     e32:	f8c5 3538 	str.w	r3, [r5, #1336]	; 0x538
            }
            spim->TASKS_START = 1;
     e36:	2301      	movs	r3, #1
     e38:	612b      	str	r3, [r5, #16]
            }
            spi->spi_xfr_flag = 0;
            spim->INTENCLR = SPIM_INTENSET_END_Msk;
        }
    }
}
     e3a:	bd38      	pop	{r3, r4, r5, pc}
     e3c:	4604      	mov	r4, r0
            if (spi->txrx_cb_func) {
     e3e:	6a03      	ldr	r3, [r0, #32]
     e40:	b10b      	cbz	r3, e46 <nrf52_irqm_handler+0x62>
                spi->txrx_cb_func(spi->txrx_cb_arg, spi->nhs_buflen);
     e42:	6a40      	ldr	r0, [r0, #36]	; 0x24
     e44:	4798      	blx	r3
            spi->spi_xfr_flag = 0;
     e46:	2300      	movs	r3, #0
     e48:	7063      	strb	r3, [r4, #1]
            spim->INTENCLR = SPIM_INTENSET_END_Msk;
     e4a:	2340      	movs	r3, #64	; 0x40
     e4c:	f8c5 3308 	str.w	r3, [r5, #776]	; 0x308
     e50:	e7f3      	b.n	e3a <nrf52_irqm_handler+0x56>
	...

00000e54 <nrf52_spi0_irq_handler>:

/* Interrupt handlers for SPI ports */
#if MYNEWT_VAL(SPI_0_MASTER) || MYNEWT_VAL(SPI_0_SLAVE)
void
nrf52_spi0_irq_handler(void)
{
     e54:	b508      	push	{r3, lr}
    os_trace_isr_enter();
    if (nrf52_hal_spi0.spi_type == HAL_SPI_TYPE_MASTER) {
     e56:	4b04      	ldr	r3, [pc, #16]	; (e68 <nrf52_spi0_irq_handler+0x14>)
     e58:	781b      	ldrb	r3, [r3, #0]
     e5a:	b103      	cbz	r3, e5e <nrf52_spi0_irq_handler+0xa>
#if MYNEWT_VAL(SPI_0_SLAVE)
        nrf52_irqs_handler(&nrf52_hal_spi0);
#endif
    }
    os_trace_isr_exit();
}
     e5c:	bd08      	pop	{r3, pc}
        nrf52_irqm_handler(&nrf52_hal_spi0);
     e5e:	4802      	ldr	r0, [pc, #8]	; (e68 <nrf52_spi0_irq_handler+0x14>)
     e60:	f7ff ffc0 	bl	de4 <nrf52_irqm_handler>
}
     e64:	e7fa      	b.n	e5c <nrf52_spi0_irq_handler+0x8>
     e66:	bf00      	nop
     e68:	20000160 	.word	0x20000160

00000e6c <hal_spi_stop_transfer>:
#endif

static void
hal_spi_stop_transfer(NRF_SPIM_Type *spim)
{
    spim->TASKS_STOP = 1;
     e6c:	2301      	movs	r3, #1
     e6e:	6143      	str	r3, [r0, #20]
    while (!spim->EVENTS_STOPPED) {}
     e70:	f8d0 3104 	ldr.w	r3, [r0, #260]	; 0x104
     e74:	2b00      	cmp	r3, #0
     e76:	d0fb      	beq.n	e70 <hal_spi_stop_transfer+0x4>
    spim->EVENTS_STOPPED = 0;
     e78:	2300      	movs	r3, #0
     e7a:	f8c0 3104 	str.w	r3, [r0, #260]	; 0x104
}
     e7e:	4770      	bx	lr

00000e80 <hal_spi_config_slave>:
}

static int
hal_spi_config_slave(struct nrf52_hal_spi *spi,
                     struct hal_spi_settings *settings)
{
     e80:	b410      	push	{r4}
    int rc;
    uint32_t nrf_config;
    NRF_SPIS_Type *spis;

    spis = spi->nhs_spi.spis;
     e82:	6902      	ldr	r2, [r0, #16]

    rc = 0;
    switch (settings->data_mode) {
     e84:	780b      	ldrb	r3, [r1, #0]
     e86:	2b03      	cmp	r3, #3
     e88:	d80c      	bhi.n	ea4 <hal_spi_config_slave+0x24>
     e8a:	e8df f003 	tbb	[pc, r3]
     e8e:	0e02      	.short	0x0e02
     e90:	0805      	.short	0x0805
        case HAL_SPI_MODE0:
            nrf_config = (SPIS_CONFIG_CPOL_ActiveHigh << SPIS_CONFIG_CPOL_Pos) |
     e92:	2300      	movs	r3, #0
    rc = 0;
     e94:	4618      	mov	r0, r3
     e96:	e00a      	b.n	eae <hal_spi_config_slave+0x2e>
        case HAL_SPI_MODE1:
            nrf_config = (SPIS_CONFIG_CPOL_ActiveHigh << SPIS_CONFIG_CPOL_Pos) |
                         (SPIS_CONFIG_CPHA_Trailing << SPIS_CONFIG_CPHA_Pos);
            break;
        case HAL_SPI_MODE2:
            nrf_config = (SPIS_CONFIG_CPOL_ActiveLow << SPIS_CONFIG_CPOL_Pos) |
     e98:	2304      	movs	r3, #4
    rc = 0;
     e9a:	2000      	movs	r0, #0
                         (SPIS_CONFIG_CPHA_Leading << SPIS_CONFIG_CPHA_Pos);
            break;
     e9c:	e007      	b.n	eae <hal_spi_config_slave+0x2e>
        case HAL_SPI_MODE3:
            nrf_config = (SPIS_CONFIG_CPOL_ActiveLow << SPIS_CONFIG_CPOL_Pos) |
     e9e:	2306      	movs	r3, #6
    rc = 0;
     ea0:	2000      	movs	r0, #0
                         (SPIS_CONFIG_CPHA_Trailing << SPIS_CONFIG_CPHA_Pos);
            break;
     ea2:	e004      	b.n	eae <hal_spi_config_slave+0x2e>
        default:
            nrf_config = 0;
     ea4:	2300      	movs	r3, #0
            rc = EINVAL;
     ea6:	2016      	movs	r0, #22
            break;
     ea8:	e001      	b.n	eae <hal_spi_config_slave+0x2e>
            nrf_config = (SPIS_CONFIG_CPOL_ActiveHigh << SPIS_CONFIG_CPOL_Pos) |
     eaa:	2302      	movs	r3, #2
    rc = 0;
     eac:	2000      	movs	r0, #0
    }

    if (settings->data_order == HAL_SPI_LSB_FIRST) {
     eae:	784c      	ldrb	r4, [r1, #1]
     eb0:	2c01      	cmp	r4, #1
     eb2:	d005      	beq.n	ec0 <hal_spi_config_slave+0x40>
        nrf_config |= SPIS_CONFIG_ORDER_LsbFirst;
    }
    spis->CONFIG = nrf_config;
     eb4:	f8c2 3554 	str.w	r3, [r2, #1364]	; 0x554

    /* Only 8-bit word sizes supported. */
    switch (settings->word_size) {
     eb8:	788b      	ldrb	r3, [r1, #2]
     eba:	b923      	cbnz	r3, ec6 <hal_spi_config_slave+0x46>
            rc = EINVAL;
            break;
    }

    return rc;
}
     ebc:	bc10      	pop	{r4}
     ebe:	4770      	bx	lr
        nrf_config |= SPIS_CONFIG_ORDER_LsbFirst;
     ec0:	f043 0301 	orr.w	r3, r3, #1
     ec4:	e7f6      	b.n	eb4 <hal_spi_config_slave+0x34>
            rc = EINVAL;
     ec6:	2016      	movs	r0, #22
    return rc;
     ec8:	e7f8      	b.n	ebc <hal_spi_config_slave+0x3c>
	...

00000ecc <hal_spi_init_master>:

static int
hal_spi_init_master(struct nrf52_hal_spi *spi,
                    struct nrf52_hal_spi_cfg *cfg,
                    nrf52_spi_irq_handler_t handler)
{
     ecc:	b430      	push	{r4, r5}
    NRF_GPIO_Type *port;
    uint32_t pin;

    /*  Configure MOSI */
    port = HAL_GPIO_PORT(cfg->mosi_pin);
    pin = HAL_GPIO_INDEX(cfg->mosi_pin);
     ece:	784b      	ldrb	r3, [r1, #1]
    port->OUTCLR = (1UL << pin);
     ed0:	2501      	movs	r5, #1
     ed2:	409d      	lsls	r5, r3
     ed4:	f04f 44a0 	mov.w	r4, #1342177280	; 0x50000000
     ed8:	f8c4 550c 	str.w	r5, [r4, #1292]	; 0x50c
    port->PIN_CNF[pin] =
     edc:	f503 73e0 	add.w	r3, r3, #448	; 0x1c0
     ee0:	2503      	movs	r5, #3
     ee2:	f844 5023 	str.w	r5, [r4, r3, lsl #2]
        ((uint32_t)GPIO_PIN_CNF_DIR_Output << GPIO_PIN_CNF_DIR_Pos) |
        ((uint32_t)GPIO_PIN_CNF_INPUT_Disconnect << GPIO_PIN_CNF_INPUT_Pos);

    /* Configure MISO */
    port = HAL_GPIO_PORT(cfg->miso_pin);
    pin = HAL_GPIO_INDEX(cfg->miso_pin);
     ee6:	788b      	ldrb	r3, [r1, #2]
    port->PIN_CNF[pin] =
     ee8:	f503 73e0 	add.w	r3, r3, #448	; 0x1c0
     eec:	2500      	movs	r5, #0
     eee:	f844 5023 	str.w	r5, [r4, r3, lsl #2]
        ((uint32_t)GPIO_PIN_CNF_DIR_Input << GPIO_PIN_CNF_DIR_Pos) |
        ((uint32_t)GPIO_PIN_CNF_INPUT_Connect << GPIO_PIN_CNF_INPUT_Pos);

    spim = (NRF_SPIM_Type *)spi->nhs_spi.spim;
     ef2:	6903      	ldr	r3, [r0, #16]
    spim->PSEL.SCK = cfg->sck_pin;
     ef4:	780c      	ldrb	r4, [r1, #0]
     ef6:	f8c3 4508 	str.w	r4, [r3, #1288]	; 0x508
    spim->PSEL.MOSI = cfg->mosi_pin;
     efa:	784c      	ldrb	r4, [r1, #1]
     efc:	f8c3 450c 	str.w	r4, [r3, #1292]	; 0x50c
    spim->PSEL.MISO = cfg->miso_pin;
     f00:	7889      	ldrb	r1, [r1, #2]
     f02:	f8c3 1510 	str.w	r1, [r3, #1296]	; 0x510

    spim->INTENCLR = NRF_SPI_IRQ_DISABLE_ALL;
     f06:	f04f 31ff 	mov.w	r1, #4294967295	; 0xffffffff
     f0a:	f8c3 1308 	str.w	r1, [r3, #776]	; 0x308
    NVIC_SetVector(spi->irq_num, (uint32_t)handler);
     f0e:	f990 3014 	ldrsb.w	r3, [r0, #20]
  uint32_t vectors = (uint32_t )SCB->VTOR;
     f12:	4919      	ldr	r1, [pc, #100]	; (f78 <hal_spi_init_master+0xac>)
     f14:	6889      	ldr	r1, [r1, #8]
  (* (int *) (vectors + ((int32_t)IRQn + NVIC_USER_IRQ_OFFSET) * 4)) = vector;
     f16:	3310      	adds	r3, #16
     f18:	f841 2023 	str.w	r2, [r1, r3, lsl #2]
    NVIC_SetPriority(spi->irq_num, (1 << __NVIC_PRIO_BITS) - 1);
     f1c:	f990 3014 	ldrsb.w	r3, [r0, #20]
  if ((int32_t)(IRQn) >= 0)
     f20:	42ab      	cmp	r3, r5
     f22:	db22      	blt.n	f6a <hal_spi_init_master+0x9e>
    NVIC->IP[((uint32_t)IRQn)]               = (uint8_t)((priority << (8U - __NVIC_PRIO_BITS)) & (uint32_t)0xFFUL);
     f24:	f103 4360 	add.w	r3, r3, #3758096384	; 0xe0000000
     f28:	f503 4361 	add.w	r3, r3, #57600	; 0xe100
     f2c:	22e0      	movs	r2, #224	; 0xe0
     f2e:	f883 2300 	strb.w	r2, [r3, #768]	; 0x300
    NVIC_ClearPendingIRQ(spi->irq_num);
     f32:	f990 3014 	ldrsb.w	r3, [r0, #20]
  if ((int32_t)(IRQn) >= 0)
     f36:	2b00      	cmp	r3, #0
     f38:	db08      	blt.n	f4c <hal_spi_init_master+0x80>
    NVIC->ICPR[(((uint32_t)IRQn) >> 5UL)] = (uint32_t)(1UL << (((uint32_t)IRQn) & 0x1FUL));
     f3a:	f003 011f 	and.w	r1, r3, #31
     f3e:	095b      	lsrs	r3, r3, #5
     f40:	2201      	movs	r2, #1
     f42:	408a      	lsls	r2, r1
     f44:	3360      	adds	r3, #96	; 0x60
     f46:	490d      	ldr	r1, [pc, #52]	; (f7c <hal_spi_init_master+0xb0>)
     f48:	f841 2023 	str.w	r2, [r1, r3, lsl #2]
    NVIC_EnableIRQ(spi->irq_num);
     f4c:	f990 3014 	ldrsb.w	r3, [r0, #20]
  if ((int32_t)(IRQn) >= 0)
     f50:	2b00      	cmp	r3, #0
     f52:	db07      	blt.n	f64 <hal_spi_init_master+0x98>
    NVIC->ISER[(((uint32_t)IRQn) >> 5UL)] = (uint32_t)(1UL << (((uint32_t)IRQn) & 0x1FUL));
     f54:	f003 011f 	and.w	r1, r3, #31
     f58:	095b      	lsrs	r3, r3, #5
     f5a:	2201      	movs	r2, #1
     f5c:	408a      	lsls	r2, r1
     f5e:	4907      	ldr	r1, [pc, #28]	; (f7c <hal_spi_init_master+0xb0>)
     f60:	f841 2023 	str.w	r2, [r1, r3, lsl #2]

    return 0;
}
     f64:	2000      	movs	r0, #0
     f66:	bc30      	pop	{r4, r5}
     f68:	4770      	bx	lr
    SCB->SHP[(((uint32_t)IRQn) & 0xFUL)-4UL] = (uint8_t)((priority << (8U - __NVIC_PRIO_BITS)) & (uint32_t)0xFFUL);
     f6a:	f003 030f 	and.w	r3, r3, #15
     f6e:	4a04      	ldr	r2, [pc, #16]	; (f80 <hal_spi_init_master+0xb4>)
     f70:	441a      	add	r2, r3
     f72:	23e0      	movs	r3, #224	; 0xe0
     f74:	7613      	strb	r3, [r2, #24]
     f76:	e7dc      	b.n	f32 <hal_spi_init_master+0x66>
     f78:	e000ed00 	.word	0xe000ed00
     f7c:	e000e100 	.word	0xe000e100
     f80:	e000ecfc 	.word	0xe000ecfc

00000f84 <hal_spi_config_master>:
{
     f84:	b410      	push	{r4}
    spim = spi->nhs_spi.spim;
     f86:	6902      	ldr	r2, [r0, #16]
    memcpy(&spi->spi_cfg, settings, sizeof(*settings));
     f88:	680c      	ldr	r4, [r1, #0]
     f8a:	684b      	ldr	r3, [r1, #4]
     f8c:	6084      	str	r4, [r0, #8]
     f8e:	60c3      	str	r3, [r0, #12]
    pin = spim->PSEL.SCK & SPIM_PSEL_SCK_PIN_Msk;
     f90:	f8d2 3508 	ldr.w	r3, [r2, #1288]	; 0x508
     f94:	f003 031f 	and.w	r3, r3, #31
    if (settings->data_mode <= HAL_SPI_MODE1) {
     f98:	7808      	ldrb	r0, [r1, #0]
     f9a:	2801      	cmp	r0, #1
     f9c:	d916      	bls.n	fcc <hal_spi_config_master+0x48>
        port->OUTSET = (1UL << pin);
     f9e:	2001      	movs	r0, #1
     fa0:	4098      	lsls	r0, r3
     fa2:	f04f 44a0 	mov.w	r4, #1342177280	; 0x50000000
     fa6:	f8c4 0508 	str.w	r0, [r4, #1288]	; 0x508
    port->PIN_CNF[pin] =
     faa:	f503 73e0 	add.w	r3, r3, #448	; 0x1c0
     fae:	f04f 40a0 	mov.w	r0, #1342177280	; 0x50000000
     fb2:	2403      	movs	r4, #3
     fb4:	f840 4023 	str.w	r4, [r0, r3, lsl #2]
    switch (settings->word_size) {
     fb8:	788b      	ldrb	r3, [r1, #2]
     fba:	b973      	cbnz	r3, fda <hal_spi_config_master+0x56>
    rc = 0;
     fbc:	2000      	movs	r0, #0
    switch (settings->data_mode) {
     fbe:	780b      	ldrb	r3, [r1, #0]
     fc0:	2b03      	cmp	r3, #3
     fc2:	d812      	bhi.n	fea <hal_spi_config_master+0x66>
     fc4:	e8df f003 	tbb	[pc, r3]
     fc8:	0f0d140b 	.word	0x0f0d140b
        port->OUTCLR = (1UL << pin);
     fcc:	2001      	movs	r0, #1
     fce:	4098      	lsls	r0, r3
     fd0:	f04f 44a0 	mov.w	r4, #1342177280	; 0x50000000
     fd4:	f8c4 050c 	str.w	r0, [r4, #1292]	; 0x50c
     fd8:	e7e7      	b.n	faa <hal_spi_config_master+0x26>
            rc = EINVAL;
     fda:	2016      	movs	r0, #22
     fdc:	e7ef      	b.n	fbe <hal_spi_config_master+0x3a>
            nrf_config = (SPIM_CONFIG_CPOL_ActiveHigh << SPIM_CONFIG_CPOL_Pos) |
     fde:	2300      	movs	r3, #0
     fe0:	e007      	b.n	ff2 <hal_spi_config_master+0x6e>
            nrf_config = (SPIM_CONFIG_CPOL_ActiveLow << SPIM_CONFIG_CPOL_Pos) |
     fe2:	2304      	movs	r3, #4
            break;
     fe4:	e005      	b.n	ff2 <hal_spi_config_master+0x6e>
            nrf_config = (SPIM_CONFIG_CPOL_ActiveLow << SPIM_CONFIG_CPOL_Pos) |
     fe6:	2306      	movs	r3, #6
            break;
     fe8:	e003      	b.n	ff2 <hal_spi_config_master+0x6e>
            nrf_config = 0;
     fea:	2300      	movs	r3, #0
            rc = EINVAL;
     fec:	2016      	movs	r0, #22
            break;
     fee:	e000      	b.n	ff2 <hal_spi_config_master+0x6e>
            nrf_config = (SPIM_CONFIG_CPOL_ActiveHigh << SPIM_CONFIG_CPOL_Pos) |
     ff0:	2302      	movs	r3, #2
    if (settings->data_order == HAL_SPI_LSB_FIRST) {
     ff2:	784c      	ldrb	r4, [r1, #1]
     ff4:	2c01      	cmp	r4, #1
     ff6:	d010      	beq.n	101a <hal_spi_config_master+0x96>
    spim->CONFIG = nrf_config;
     ff8:	f8c2 3554 	str.w	r3, [r2, #1364]	; 0x554
    switch (settings->baudrate) {
     ffc:	684b      	ldr	r3, [r1, #4]
     ffe:	f5b3 7f7a 	cmp.w	r3, #1000	; 0x3e8
    1002:	d022      	beq.n	104a <hal_spi_config_master+0xc6>
    1004:	d80c      	bhi.n	1020 <hal_spi_config_master+0x9c>
    1006:	2bfa      	cmp	r3, #250	; 0xfa
    1008:	d028      	beq.n	105c <hal_spi_config_master+0xd8>
    100a:	f5b3 7ffa 	cmp.w	r3, #500	; 0x1f4
    100e:	d019      	beq.n	1044 <hal_spi_config_master+0xc0>
    1010:	2b7d      	cmp	r3, #125	; 0x7d
    1012:	d011      	beq.n	1038 <hal_spi_config_master+0xb4>
            frequency = 0;
    1014:	2300      	movs	r3, #0
            rc = EINVAL;
    1016:	2016      	movs	r0, #22
            break;
    1018:	e010      	b.n	103c <hal_spi_config_master+0xb8>
        nrf_config |= SPIM_CONFIG_ORDER_LsbFirst;
    101a:	f043 0301 	orr.w	r3, r3, #1
    101e:	e7eb      	b.n	ff8 <hal_spi_config_master+0x74>
    switch (settings->baudrate) {
    1020:	f5b3 6f7a 	cmp.w	r3, #4000	; 0xfa0
    1024:	d014      	beq.n	1050 <hal_spi_config_master+0xcc>
    1026:	f5b3 5ffa 	cmp.w	r3, #8000	; 0x1f40
    102a:	d014      	beq.n	1056 <hal_spi_config_master+0xd2>
    102c:	f5b3 6ffa 	cmp.w	r3, #2000	; 0x7d0
    1030:	d1f0      	bne.n	1014 <hal_spi_config_master+0x90>
            frequency = SPIM_FREQUENCY_FREQUENCY_M2;
    1032:	f04f 5300 	mov.w	r3, #536870912	; 0x20000000
            break;
    1036:	e001      	b.n	103c <hal_spi_config_master+0xb8>
            frequency = SPIM_FREQUENCY_FREQUENCY_K125;
    1038:	f04f 7300 	mov.w	r3, #33554432	; 0x2000000
    spim->FREQUENCY = frequency;
    103c:	f8c2 3524 	str.w	r3, [r2, #1316]	; 0x524
}
    1040:	bc10      	pop	{r4}
    1042:	4770      	bx	lr
            frequency = SPIM_FREQUENCY_FREQUENCY_K500;
    1044:	f04f 6300 	mov.w	r3, #134217728	; 0x8000000
            break;
    1048:	e7f8      	b.n	103c <hal_spi_config_master+0xb8>
            frequency = SPIM_FREQUENCY_FREQUENCY_M1;
    104a:	f04f 5380 	mov.w	r3, #268435456	; 0x10000000
            break;
    104e:	e7f5      	b.n	103c <hal_spi_config_master+0xb8>
            frequency = SPIM_FREQUENCY_FREQUENCY_M4;
    1050:	f04f 4380 	mov.w	r3, #1073741824	; 0x40000000
            break;
    1054:	e7f2      	b.n	103c <hal_spi_config_master+0xb8>
            frequency = SPIM_FREQUENCY_FREQUENCY_M8;
    1056:	f04f 4300 	mov.w	r3, #2147483648	; 0x80000000
            break;
    105a:	e7ef      	b.n	103c <hal_spi_config_master+0xb8>
            frequency = SPIM_FREQUENCY_FREQUENCY_K250;
    105c:	f04f 6380 	mov.w	r3, #67108864	; 0x4000000
    1060:	e7ec      	b.n	103c <hal_spi_config_master+0xb8>
	...

00001064 <hal_spi_config>:
{
    int rc;
    struct nrf52_hal_spi *spi;
    NRF_SPIM_Type *spim;

    NRF52_HAL_SPI_RESOLVE(spi_num, spi);
    1064:	2803      	cmp	r0, #3
    1066:	dc10      	bgt.n	108a <hal_spi_config+0x26>
{
    1068:	b508      	push	{r3, lr}
    NRF52_HAL_SPI_RESOLVE(spi_num, spi);
    106a:	4b0b      	ldr	r3, [pc, #44]	; (1098 <hal_spi_config+0x34>)
    106c:	f853 0020 	ldr.w	r0, [r3, r0, lsl #2]
    1070:	b168      	cbz	r0, 108e <hal_spi_config+0x2a>

    /*
     * This looks odd, but the ENABLE register is in the same location for
     * SPIM, SPI and SPIS
     */
    spim = spi->nhs_spi.spim;
    1072:	6903      	ldr	r3, [r0, #16]
    if (spim->ENABLE != 0) {
    1074:	f8d3 3500 	ldr.w	r3, [r3, #1280]	; 0x500
    1078:	b95b      	cbnz	r3, 1092 <hal_spi_config+0x2e>
        return -1;
    }

    if (spi->spi_type  == HAL_SPI_TYPE_MASTER) {
    107a:	7803      	ldrb	r3, [r0, #0]
    107c:	b113      	cbz	r3, 1084 <hal_spi_config+0x20>
        rc = hal_spi_config_master(spi, settings);
    } else {
        rc = hal_spi_config_slave(spi, settings);
    107e:	f7ff feff 	bl	e80 <hal_spi_config_slave>
    }

err:
    return (rc);
}
    1082:	bd08      	pop	{r3, pc}
        rc = hal_spi_config_master(spi, settings);
    1084:	f7ff ff7e 	bl	f84 <hal_spi_config_master>
    1088:	e7fb      	b.n	1082 <hal_spi_config+0x1e>
    NRF52_HAL_SPI_RESOLVE(spi_num, spi);
    108a:	2016      	movs	r0, #22
}
    108c:	4770      	bx	lr
    NRF52_HAL_SPI_RESOLVE(spi_num, spi);
    108e:	2016      	movs	r0, #22
    1090:	e7f7      	b.n	1082 <hal_spi_config+0x1e>
        return -1;
    1092:	f04f 30ff 	mov.w	r0, #4294967295	; 0xffffffff
    1096:	e7f4      	b.n	1082 <hal_spi_config+0x1e>
    1098:	00005898 	.word	0x00005898

0000109c <hal_spi_enable>:
    int rc;
    NRF_SPIS_Type *spis;
    NRF_SPI_Type *nrf_spi;
    struct nrf52_hal_spi *spi;

    NRF52_HAL_SPI_RESOLVE(spi_num, spi);
    109c:	2803      	cmp	r0, #3
    109e:	dc1b      	bgt.n	10d8 <hal_spi_enable+0x3c>
    10a0:	4b10      	ldr	r3, [pc, #64]	; (10e4 <hal_spi_enable+0x48>)
    10a2:	f853 3020 	ldr.w	r3, [r3, r0, lsl #2]
    10a6:	b1cb      	cbz	r3, 10dc <hal_spi_enable+0x40>

    if (spi->spi_type  == HAL_SPI_TYPE_MASTER) {
    10a8:	781a      	ldrb	r2, [r3, #0]
    10aa:	b17a      	cbz	r2, 10cc <hal_spi_enable+0x30>
        /* For now, enable this in normal SPI mode (not spim) */
        nrf_spi = (NRF_SPI_Type *)spi->nhs_spi.spim;
        nrf_spi->ENABLE = (SPI_ENABLE_ENABLE_Enabled << SPI_ENABLE_ENABLE_Pos);
    } else {
        if (spi->txrx_cb_func == NULL) {
    10ac:	6a1a      	ldr	r2, [r3, #32]
    10ae:	b1ba      	cbz	r2, 10e0 <hal_spi_enable+0x44>
            rc = EINVAL;
            goto err;
        }

        spis = spi->nhs_spi.spis;
    10b0:	691b      	ldr	r3, [r3, #16]
        spis->EVENTS_END = 0;
    10b2:	2000      	movs	r0, #0
    10b4:	f8c3 0104 	str.w	r0, [r3, #260]	; 0x104
        spis->EVENTS_ACQUIRED = 0;
    10b8:	f8c3 0128 	str.w	r0, [r3, #296]	; 0x128
        spis->INTENSET = SPIS_INTENSET_END_Msk | SPIS_INTENSET_ACQUIRED_Msk;
    10bc:	f240 4202 	movw	r2, #1026	; 0x402
    10c0:	f8c3 2304 	str.w	r2, [r3, #772]	; 0x304
        spis->ENABLE = (SPIS_ENABLE_ENABLE_Enabled << SPIS_ENABLE_ENABLE_Pos);
    10c4:	2202      	movs	r2, #2
    10c6:	f8c3 2500 	str.w	r2, [r3, #1280]	; 0x500
    10ca:	4770      	bx	lr
        nrf_spi = (NRF_SPI_Type *)spi->nhs_spi.spim;
    10cc:	691b      	ldr	r3, [r3, #16]
        nrf_spi->ENABLE = (SPI_ENABLE_ENABLE_Enabled << SPI_ENABLE_ENABLE_Pos);
    10ce:	2201      	movs	r2, #1
    10d0:	f8c3 2500 	str.w	r2, [r3, #1280]	; 0x500
    }
    rc = 0;
    10d4:	2000      	movs	r0, #0
    10d6:	4770      	bx	lr
    NRF52_HAL_SPI_RESOLVE(spi_num, spi);
    10d8:	2016      	movs	r0, #22
    10da:	4770      	bx	lr
    10dc:	2016      	movs	r0, #22
    10de:	4770      	bx	lr
            rc = EINVAL;
    10e0:	2016      	movs	r0, #22

err:
    return rc;
}
    10e2:	4770      	bx	lr
    10e4:	00005898 	.word	0x00005898

000010e8 <hal_spi_disable>:
    int rc;
    NRF_SPIS_Type *spis;
    NRF_SPIM_Type *spim;
    struct nrf52_hal_spi *spi;

    NRF52_HAL_SPI_RESOLVE(spi_num, spi);
    10e8:	2803      	cmp	r0, #3
    10ea:	dc2a      	bgt.n	1142 <hal_spi_disable+0x5a>
{
    10ec:	b538      	push	{r3, r4, r5, lr}
    NRF52_HAL_SPI_RESOLVE(spi_num, spi);
    10ee:	4b17      	ldr	r3, [pc, #92]	; (114c <hal_spi_disable+0x64>)
    10f0:	f853 4020 	ldr.w	r4, [r3, r0, lsl #2]
    10f4:	b33c      	cbz	r4, 1146 <hal_spi_disable+0x5e>

    if (spi->spi_type  == HAL_SPI_TYPE_MASTER) {
    10f6:	7823      	ldrb	r3, [r4, #0]
    10f8:	b9ab      	cbnz	r3, 1126 <hal_spi_disable+0x3e>
        spim = spi->nhs_spi.spim;
    10fa:	6925      	ldr	r5, [r4, #16]
        spim->INTENCLR = NRF_SPI_IRQ_DISABLE_ALL;
    10fc:	f04f 33ff 	mov.w	r3, #4294967295	; 0xffffffff
    1100:	f8c5 3308 	str.w	r3, [r5, #776]	; 0x308

        if (spi->spi_xfr_flag) {
    1104:	7863      	ldrb	r3, [r4, #1]
    1106:	b943      	cbnz	r3, 111a <hal_spi_disable+0x32>
            hal_spi_stop_transfer(spim);
            spi->spi_xfr_flag = 0;
        }
        spim->ENABLE = 0;
    1108:	2300      	movs	r3, #0
    110a:	f8c5 3500 	str.w	r3, [r5, #1280]	; 0x500
        spis->EVENTS_ACQUIRED = 0;
        spis->ENABLE = 0;
        spi->slave_state = HAL_SPI_SLAVE_STATE_IDLE;
    }

    spi->nhs_txbuf = NULL;
    110e:	2000      	movs	r0, #0
    1110:	61a0      	str	r0, [r4, #24]
    spi->nhs_rxbuf = NULL;
    1112:	61e0      	str	r0, [r4, #28]
    spi->nhs_buflen = 0;
    1114:	80a0      	strh	r0, [r4, #4]
    spi->nhs_bytes_txd = 0;
    1116:	80e0      	strh	r0, [r4, #6]

    rc = 0;

err:
    return rc;
}
    1118:	bd38      	pop	{r3, r4, r5, pc}
            hal_spi_stop_transfer(spim);
    111a:	4628      	mov	r0, r5
    111c:	f7ff fea6 	bl	e6c <hal_spi_stop_transfer>
            spi->spi_xfr_flag = 0;
    1120:	2300      	movs	r3, #0
    1122:	7063      	strb	r3, [r4, #1]
    1124:	e7f0      	b.n	1108 <hal_spi_disable+0x20>
        spis = spi->nhs_spi.spis;
    1126:	6922      	ldr	r2, [r4, #16]
        spis->INTENCLR = NRF_SPI_IRQ_DISABLE_ALL;
    1128:	f04f 33ff 	mov.w	r3, #4294967295	; 0xffffffff
    112c:	f8c2 3308 	str.w	r3, [r2, #776]	; 0x308
        spis->EVENTS_END = 0;
    1130:	2300      	movs	r3, #0
    1132:	f8c2 3104 	str.w	r3, [r2, #260]	; 0x104
        spis->EVENTS_ACQUIRED = 0;
    1136:	f8c2 3128 	str.w	r3, [r2, #296]	; 0x128
        spis->ENABLE = 0;
    113a:	f8c2 3500 	str.w	r3, [r2, #1280]	; 0x500
        spi->slave_state = HAL_SPI_SLAVE_STATE_IDLE;
    113e:	70e3      	strb	r3, [r4, #3]
    1140:	e7e5      	b.n	110e <hal_spi_disable+0x26>
    NRF52_HAL_SPI_RESOLVE(spi_num, spi);
    1142:	2016      	movs	r0, #22
}
    1144:	4770      	bx	lr
    NRF52_HAL_SPI_RESOLVE(spi_num, spi);
    1146:	2016      	movs	r0, #22
    return rc;
    1148:	e7e6      	b.n	1118 <hal_spi_disable+0x30>
    114a:	bf00      	nop
    114c:	00005898 	.word	0x00005898

00001150 <hal_spi_init>:
    NRF52_HAL_SPI_RESOLVE(spi_num, spi);
    1150:	2803      	cmp	r0, #3
    1152:	dc21      	bgt.n	1198 <hal_spi_init+0x48>
{
    1154:	b538      	push	{r3, r4, r5, lr}
    NRF52_HAL_SPI_RESOLVE(spi_num, spi);
    1156:	4b15      	ldr	r3, [pc, #84]	; (11ac <hal_spi_init+0x5c>)
    1158:	f853 4020 	ldr.w	r4, [r3, r0, lsl #2]
    115c:	b1f4      	cbz	r4, 119c <hal_spi_init+0x4c>
    if (cfg == NULL) {
    115e:	b1f9      	cbz	r1, 11a0 <hal_spi_init+0x50>
    if ((spi_type != HAL_SPI_TYPE_MASTER) && (spi_type != HAL_SPI_TYPE_SLAVE)) {
    1160:	2a01      	cmp	r2, #1
    1162:	d81f      	bhi.n	11a4 <hal_spi_init+0x54>
    spi->spi_type = spi_type;
    1164:	7022      	strb	r2, [r4, #0]
    if (spi_num == 0) {
    1166:	b9f8      	cbnz	r0, 11a8 <hal_spi_init+0x58>
    1168:	460d      	mov	r5, r1
        spi->irq_num = SPIM0_SPIS0_TWIM0_TWIS0_SPI0_TWI0_IRQn;
    116a:	2303      	movs	r3, #3
    116c:	7523      	strb	r3, [r4, #20]
        if (spi_type == HAL_SPI_TYPE_MASTER) {
    116e:	b94a      	cbnz	r2, 1184 <hal_spi_init+0x34>
            spi->nhs_spi.spim = NRF_SPIM0;
    1170:	4b0f      	ldr	r3, [pc, #60]	; (11b0 <hal_spi_init+0x60>)
    1172:	6123      	str	r3, [r4, #16]
    hal_spi_disable(spi_num);
    1174:	f7ff ffb8 	bl	10e8 <hal_spi_disable>
        rc = hal_spi_init_master(spi, (struct nrf52_hal_spi_cfg *)cfg,
    1178:	4a0e      	ldr	r2, [pc, #56]	; (11b4 <hal_spi_init+0x64>)
    117a:	4629      	mov	r1, r5
    117c:	4620      	mov	r0, r4
    117e:	f7ff fea5 	bl	ecc <hal_spi_init_master>
    1182:	e010      	b.n	11a6 <hal_spi_init+0x56>
            assert(0);
    1184:	f7fe ffee 	bl	164 <hal_debugger_connected>
    1188:	b100      	cbz	r0, 118c <hal_spi_init+0x3c>
    118a:	be01      	bkpt	0x0001
    118c:	2300      	movs	r3, #0
    118e:	461a      	mov	r2, r3
    1190:	4619      	mov	r1, r3
    1192:	4618      	mov	r0, r3
    1194:	f000 fb0e 	bl	17b4 <__assert_func>
    NRF52_HAL_SPI_RESOLVE(spi_num, spi);
    1198:	2016      	movs	r0, #22
}
    119a:	4770      	bx	lr
    NRF52_HAL_SPI_RESOLVE(spi_num, spi);
    119c:	2016      	movs	r0, #22
    119e:	e002      	b.n	11a6 <hal_spi_init+0x56>
    rc = EINVAL;
    11a0:	2016      	movs	r0, #22
    11a2:	e000      	b.n	11a6 <hal_spi_init+0x56>
    11a4:	2016      	movs	r0, #22
}
    11a6:	bd38      	pop	{r3, r4, r5, pc}
    rc = EINVAL;
    11a8:	2016      	movs	r0, #22
    return (rc);
    11aa:	e7fc      	b.n	11a6 <hal_spi_init+0x56>
    11ac:	00005898 	.word	0x00005898
    11b0:	40003000 	.word	0x40003000
    11b4:	00000e55 	.word	0x00000e55

000011b8 <hal_spi_tx_val>:
    int rc;
    uint16_t retval;
    NRF_SPI_Type *spi;
    struct nrf52_hal_spi *hal_spi;

    NRF52_HAL_SPI_RESOLVE(spi_num, hal_spi);
    11b8:	2803      	cmp	r0, #3
    11ba:	dc17      	bgt.n	11ec <hal_spi_tx_val+0x34>
    11bc:	4b0f      	ldr	r3, [pc, #60]	; (11fc <hal_spi_tx_val+0x44>)
    11be:	f853 3020 	ldr.w	r3, [r3, r0, lsl #2]
    11c2:	b1ab      	cbz	r3, 11f0 <hal_spi_tx_val+0x38>

    if (hal_spi->spi_type  == HAL_SPI_TYPE_MASTER) {
    11c4:	781a      	ldrb	r2, [r3, #0]
    11c6:	b9aa      	cbnz	r2, 11f4 <hal_spi_tx_val+0x3c>
        spi = (NRF_SPI_Type *)hal_spi->nhs_spi.spim;
    11c8:	691a      	ldr	r2, [r3, #16]
        spi->EVENTS_READY = 0;
    11ca:	2300      	movs	r3, #0
    11cc:	f8c2 3108 	str.w	r3, [r2, #264]	; 0x108
        spi->TXD = (uint8_t)val;
    11d0:	b2c9      	uxtb	r1, r1
    11d2:	f8c2 151c 	str.w	r1, [r2, #1308]	; 0x51c
        while (!spi->EVENTS_READY) {}
    11d6:	f8d2 3108 	ldr.w	r3, [r2, #264]	; 0x108
    11da:	2b00      	cmp	r3, #0
    11dc:	d0fb      	beq.n	11d6 <hal_spi_tx_val+0x1e>
        spi->EVENTS_READY = 0;
    11de:	2300      	movs	r3, #0
    11e0:	f8c2 3108 	str.w	r3, [r2, #264]	; 0x108
        retval = (uint16_t)spi->RXD;
    11e4:	f8d2 0518 	ldr.w	r0, [r2, #1304]	; 0x518
    11e8:	b280      	uxth	r0, r0
    11ea:	4770      	bx	lr
    }

    return retval;

err:
    return rc;
    11ec:	2016      	movs	r0, #22
    11ee:	4770      	bx	lr
    11f0:	2016      	movs	r0, #22
    11f2:	4770      	bx	lr
        retval = 0xFFFF;
    11f4:	f64f 70ff 	movw	r0, #65535	; 0xffff
}
    11f8:	4770      	bx	lr
    11fa:	bf00      	nop
    11fc:	00005898 	.word	0x00005898

00001200 <hal_spi_set_txrx_cb>:
{
    int rc;
    NRF_SPIM_Type *spim;
    struct nrf52_hal_spi *spi;

    NRF52_HAL_SPI_RESOLVE(spi_num, spi);
    1200:	2803      	cmp	r0, #3
    1202:	dc0a      	bgt.n	121a <hal_spi_set_txrx_cb+0x1a>
    1204:	4b08      	ldr	r3, [pc, #32]	; (1228 <hal_spi_set_txrx_cb+0x28>)
    1206:	f853 3020 	ldr.w	r3, [r3, r0, lsl #2]
    120a:	b143      	cbz	r3, 121e <hal_spi_set_txrx_cb+0x1e>

    /*
     * This looks odd, but the ENABLE register is in the same location for
     * SPIM, SPI and SPIS
     */
    spim = spi->nhs_spi.spim;
    120c:	6918      	ldr	r0, [r3, #16]
    if (spim->ENABLE != 0) {
    120e:	f8d0 0500 	ldr.w	r0, [r0, #1280]	; 0x500
    1212:	b930      	cbnz	r0, 1222 <hal_spi_set_txrx_cb+0x22>
        rc = -1;
    } else {
        spi->txrx_cb_func = txrx_cb;
    1214:	6219      	str	r1, [r3, #32]
        spi->txrx_cb_arg = arg;
    1216:	625a      	str	r2, [r3, #36]	; 0x24
    1218:	4770      	bx	lr
    NRF52_HAL_SPI_RESOLVE(spi_num, spi);
    121a:	2016      	movs	r0, #22
    121c:	4770      	bx	lr
    121e:	2016      	movs	r0, #22
    1220:	4770      	bx	lr
        rc = -1;
    1222:	f04f 30ff 	mov.w	r0, #4294967295	; 0xffffffff
        rc = 0;
    }

err:
    return rc;
}
    1226:	4770      	bx	lr
    1228:	00005898 	.word	0x00005898

0000122c <hal_spi_txrx>:
    NRF_SPI_Type *spi;
    NRF_SPIM_Type *spim;
    struct nrf52_hal_spi *hal_spi;

    rc = EINVAL;
    if (!len) {
    122c:	2b00      	cmp	r3, #0
    122e:	d046      	beq.n	12be <hal_spi_txrx+0x92>
{
    1230:	b5f8      	push	{r3, r4, r5, r6, r7, lr}
    1232:	460d      	mov	r5, r1
    1234:	4617      	mov	r7, r2
    1236:	461e      	mov	r6, r3
        goto err;
    }

    NRF52_HAL_SPI_RESOLVE(spi_num, hal_spi);
    1238:	2803      	cmp	r0, #3
    123a:	dc42      	bgt.n	12c2 <hal_spi_txrx+0x96>
    123c:	4b25      	ldr	r3, [pc, #148]	; (12d4 <hal_spi_txrx+0xa8>)
    123e:	f853 3020 	ldr.w	r3, [r3, r0, lsl #2]
    1242:	2b00      	cmp	r3, #0
    1244:	d03f      	beq.n	12c6 <hal_spi_txrx+0x9a>

    if (hal_spi->spi_type  == HAL_SPI_TYPE_MASTER) {
    1246:	781a      	ldrb	r2, [r3, #0]
    1248:	2a00      	cmp	r2, #0
    124a:	d13e      	bne.n	12ca <hal_spi_txrx+0x9e>
        /* Must have a txbuf for master! */
        if (txbuf == NULL) {
    124c:	2900      	cmp	r1, #0
    124e:	d03e      	beq.n	12ce <hal_spi_txrx+0xa2>

        /*
         * If SPIM is enabled, we want to stop, disable, then enable
         * the legacy SPI interface.
         */
        spim = hal_spi->nhs_spi.spim;
    1250:	691c      	ldr	r4, [r3, #16]
        enabled = spim->ENABLE;
    1252:	f8d4 3500 	ldr.w	r3, [r4, #1280]	; 0x500
        if (enabled == SPIM_ENABLE_ENABLE_Enabled) {
    1256:	2b07      	cmp	r3, #7
    1258:	d004      	beq.n	1264 <hal_spi_txrx+0x38>
            hal_spi_disable(spi_num);
            enabled = 0;
        }

        spi = (NRF_SPI_Type *)spim;
        if (enabled == 0) {
    125a:	b95b      	cbnz	r3, 1274 <hal_spi_txrx+0x48>
            spi->ENABLE = (SPI_ENABLE_ENABLE_Enabled << SPI_ENABLE_ENABLE_Pos);
    125c:	2301      	movs	r3, #1
    125e:	f8c4 3500 	str.w	r3, [r4, #1280]	; 0x500
    1262:	e007      	b.n	1274 <hal_spi_txrx+0x48>
            hal_spi_disable(spi_num);
    1264:	f7ff ff40 	bl	10e8 <hal_spi_disable>
    1268:	e7f8      	b.n	125c <hal_spi_txrx+0x30>
        }

        while (spi->EVENTS_READY) {
            rxval = (uint8_t)spi->RXD;
    126a:	f8d4 3518 	ldr.w	r3, [r4, #1304]	; 0x518
            spi->EVENTS_READY = 0;
    126e:	2300      	movs	r3, #0
    1270:	f8c4 3108 	str.w	r3, [r4, #264]	; 0x108
        while (spi->EVENTS_READY) {
    1274:	f8d4 3108 	ldr.w	r3, [r4, #264]	; 0x108
    1278:	2b00      	cmp	r3, #0
    127a:	d1f6      	bne.n	126a <hal_spi_txrx+0x3e>
        }
        txd = (uint8_t *)txbuf;
        spi->TXD = *txd;
    127c:	782b      	ldrb	r3, [r5, #0]
    127e:	f8c4 351c 	str.w	r3, [r4, #1308]	; 0x51c

        txcnt = len - 1;
    1282:	1e71      	subs	r1, r6, #1
        rxd = (uint8_t *)rxbuf;
    1284:	4638      	mov	r0, r7
        for (i = 0; i < len; ++i) {
    1286:	2200      	movs	r2, #0
    1288:	e00d      	b.n	12a6 <hal_spi_txrx+0x7a>
            if (txcnt) {
                ++txd;
                spi->TXD = *txd;
                --txcnt;
            }
            while (!spi->EVENTS_READY) {}
    128a:	f8d4 3108 	ldr.w	r3, [r4, #264]	; 0x108
    128e:	2b00      	cmp	r3, #0
    1290:	d0fb      	beq.n	128a <hal_spi_txrx+0x5e>
            spi->EVENTS_READY = 0;
    1292:	2300      	movs	r3, #0
    1294:	f8c4 3108 	str.w	r3, [r4, #264]	; 0x108
            rxval = (uint8_t)spi->RXD;
    1298:	f8d4 3518 	ldr.w	r3, [r4, #1304]	; 0x518
    129c:	b2db      	uxtb	r3, r3
            if (rxbuf) {
    129e:	b10f      	cbz	r7, 12a4 <hal_spi_txrx+0x78>
                *rxd = rxval;
    12a0:	f800 3b01 	strb.w	r3, [r0], #1
        for (i = 0; i < len; ++i) {
    12a4:	3201      	adds	r2, #1
    12a6:	42b2      	cmp	r2, r6
    12a8:	da07      	bge.n	12ba <hal_spi_txrx+0x8e>
            if (txcnt) {
    12aa:	2900      	cmp	r1, #0
    12ac:	d0ed      	beq.n	128a <hal_spi_txrx+0x5e>
                spi->TXD = *txd;
    12ae:	786b      	ldrb	r3, [r5, #1]
    12b0:	f8c4 351c 	str.w	r3, [r4, #1308]	; 0x51c
                --txcnt;
    12b4:	3901      	subs	r1, #1
                ++txd;
    12b6:	3501      	adds	r5, #1
    12b8:	e7e7      	b.n	128a <hal_spi_txrx+0x5e>
                ++rxd;
            }
        }
        return 0;
    12ba:	2000      	movs	r0, #0
    }

err:
    return rc;
}
    12bc:	bdf8      	pop	{r3, r4, r5, r6, r7, pc}
    return rc;
    12be:	2016      	movs	r0, #22
}
    12c0:	4770      	bx	lr
    return rc;
    12c2:	2016      	movs	r0, #22
    12c4:	e7fa      	b.n	12bc <hal_spi_txrx+0x90>
    12c6:	2016      	movs	r0, #22
    12c8:	e7f8      	b.n	12bc <hal_spi_txrx+0x90>
    12ca:	2016      	movs	r0, #22
    12cc:	e7f6      	b.n	12bc <hal_spi_txrx+0x90>
    12ce:	2016      	movs	r0, #22
    12d0:	e7f4      	b.n	12bc <hal_spi_txrx+0x90>
    12d2:	bf00      	nop
    12d4:	00005898 	.word	0x00005898

000012d8 <nrf52_hal_wdt_default_handler>:
#include "mcu/cmsis_nvic.h"
#include "nrf.h"

static void
nrf52_hal_wdt_default_handler(void)
{
    12d8:	b508      	push	{r3, lr}
    assert(0);
    12da:	f7fe ff43 	bl	164 <hal_debugger_connected>
    12de:	b100      	cbz	r0, 12e2 <nrf52_hal_wdt_default_handler+0xa>
    12e0:	be01      	bkpt	0x0001
    12e2:	2300      	movs	r3, #0
    12e4:	461a      	mov	r2, r3
    12e6:	4619      	mov	r1, r3
    12e8:	4618      	mov	r0, r3
    12ea:	f000 fa63 	bl	17b4 <__assert_func>
	...

000012f0 <nrf52_wdt_irq_handler>:
}

/**@brief WDT interrupt handler. */
static void
nrf52_wdt_irq_handler(void)
{
    12f0:	b508      	push	{r3, lr}
    os_trace_isr_enter();
    if (NRF_WDT->INTENSET & WDT_INTENSET_TIMEOUT_Msk) {
    12f2:	4b06      	ldr	r3, [pc, #24]	; (130c <nrf52_wdt_irq_handler+0x1c>)
    12f4:	f8d3 3304 	ldr.w	r3, [r3, #772]	; 0x304
    12f8:	f013 0f01 	tst.w	r3, #1
    12fc:	d100      	bne.n	1300 <nrf52_wdt_irq_handler+0x10>
        NRF_WDT->EVENTS_TIMEOUT = 0;
        nrf52_hal_wdt_default_handler();
    }
    os_trace_isr_exit();
}
    12fe:	bd08      	pop	{r3, pc}
        NRF_WDT->EVENTS_TIMEOUT = 0;
    1300:	4b02      	ldr	r3, [pc, #8]	; (130c <nrf52_wdt_irq_handler+0x1c>)
    1302:	2200      	movs	r2, #0
    1304:	f8c3 2100 	str.w	r2, [r3, #256]	; 0x100
        nrf52_hal_wdt_default_handler();
    1308:	f7ff ffe6 	bl	12d8 <nrf52_hal_wdt_default_handler>
    130c:	40010000 	.word	0x40010000

00001310 <hal_watchdog_init>:

int
hal_watchdog_init(uint32_t expire_msecs)
{
    1310:	b508      	push	{r3, lr}
    NRF_WDT->CONFIG = WDT_CONFIG_SLEEP_Msk;
    1312:	4b19      	ldr	r3, [pc, #100]	; (1378 <hal_watchdog_init+0x68>)
    1314:	2201      	movs	r2, #1
    1316:	f8c3 250c 	str.w	r2, [r3, #1292]	; 0x50c

    if (expire_msecs >= 44739243) {
    131a:	4b18      	ldr	r3, [pc, #96]	; (137c <hal_watchdog_init+0x6c>)
    131c:	4298      	cmp	r0, r3
    131e:	d821      	bhi.n	1364 <hal_watchdog_init+0x54>
        /* maximum allowed time is near 12.5 hours! */
        assert(0);
    } else {
        NRF_WDT->CRV = (expire_msecs * 32) + ((expire_msecs * 96) / 125);
    1320:	eb00 0240 	add.w	r2, r0, r0, lsl #1
    1324:	0153      	lsls	r3, r2, #5
    1326:	4a16      	ldr	r2, [pc, #88]	; (1380 <hal_watchdog_init+0x70>)
    1328:	fba2 2303 	umull	r2, r3, r2, r3
    132c:	08db      	lsrs	r3, r3, #3
    132e:	eb03 1040 	add.w	r0, r3, r0, lsl #5
    1332:	4b11      	ldr	r3, [pc, #68]	; (1378 <hal_watchdog_init+0x68>)
    1334:	f8c3 0504 	str.w	r0, [r3, #1284]	; 0x504
  uint32_t vectors = (uint32_t )SCB->VTOR;
    1338:	4a12      	ldr	r2, [pc, #72]	; (1384 <hal_watchdog_init+0x74>)
    133a:	6892      	ldr	r2, [r2, #8]
  (* (int *) (vectors + ((int32_t)IRQn + NVIC_USER_IRQ_OFFSET) * 4)) = vector;
    133c:	4912      	ldr	r1, [pc, #72]	; (1388 <hal_watchdog_init+0x78>)
    133e:	f8c2 1080 	str.w	r1, [r2, #128]	; 0x80
    NVIC->IP[((uint32_t)IRQn)]               = (uint8_t)((priority << (8U - __NVIC_PRIO_BITS)) & (uint32_t)0xFFUL);
    1342:	4a12      	ldr	r2, [pc, #72]	; (138c <hal_watchdog_init+0x7c>)
    1344:	21e0      	movs	r1, #224	; 0xe0
    1346:	f882 1310 	strb.w	r1, [r2, #784]	; 0x310
    NVIC->ICPR[(((uint32_t)IRQn) >> 5UL)] = (uint32_t)(1UL << (((uint32_t)IRQn) & 0x1FUL));
    134a:	f44f 3180 	mov.w	r1, #65536	; 0x10000
    134e:	f8c2 1180 	str.w	r1, [r2, #384]	; 0x180
    NVIC->ISER[(((uint32_t)IRQn) >> 5UL)] = (uint32_t)(1UL << (((uint32_t)IRQn) & 0x1FUL));
    1352:	6011      	str	r1, [r2, #0]

    NVIC_SetVector(WDT_IRQn, (uint32_t) nrf52_wdt_irq_handler);
    NVIC_SetPriority(WDT_IRQn, (1 << __NVIC_PRIO_BITS) - 1);
    NVIC_ClearPendingIRQ(WDT_IRQn);
    NVIC_EnableIRQ(WDT_IRQn);
    NRF_WDT->RREN |= 0x1;
    1354:	f8d3 2508 	ldr.w	r2, [r3, #1288]	; 0x508
    1358:	f042 0201 	orr.w	r2, r2, #1
    135c:	f8c3 2508 	str.w	r2, [r3, #1288]	; 0x508

    return (0);
}
    1360:	2000      	movs	r0, #0
    1362:	bd08      	pop	{r3, pc}
        assert(0);
    1364:	f7fe fefe 	bl	164 <hal_debugger_connected>
    1368:	b100      	cbz	r0, 136c <hal_watchdog_init+0x5c>
    136a:	be01      	bkpt	0x0001
    136c:	2300      	movs	r3, #0
    136e:	461a      	mov	r2, r3
    1370:	4619      	mov	r1, r3
    1372:	4618      	mov	r0, r3
    1374:	f000 fa1e 	bl	17b4 <__assert_func>
    1378:	40010000 	.word	0x40010000
    137c:	02aaaaaa 	.word	0x02aaaaaa
    1380:	10624dd3 	.word	0x10624dd3
    1384:	e000ed00 	.word	0xe000ed00
    1388:	000012f1 	.word	0x000012f1
    138c:	e000e100 	.word	0xe000e100

00001390 <nrf52_periph_create_timers>:
static struct temperature_dev os_bsp_temp;
#endif

static void
nrf52_periph_create_timers(void)
{
    1390:	b508      	push	{r3, lr}
    int rc;

    (void)rc;

#if MYNEWT_VAL(TIMER_0)
    rc = hal_timer_init(0, NULL);
    1392:	2100      	movs	r1, #0
    1394:	4608      	mov	r0, r1
    1396:	f000 f945 	bl	1624 <hal_timer_init>
    assert(rc == 0);
    139a:	b920      	cbnz	r0, 13a6 <nrf52_periph_create_timers+0x16>
    rc = hal_timer_init(5, NULL);
    assert(rc == 0);
#endif

#if MYNEWT_VAL(OS_CPUTIME_TIMER_NUM) >= 0
    rc = os_cputime_init(MYNEWT_VAL(OS_CPUTIME_FREQ));
    139c:	480c      	ldr	r0, [pc, #48]	; (13d0 <nrf52_periph_create_timers+0x40>)
    139e:	f000 fa77 	bl	1890 <os_cputime_init>
    assert(rc == 0);
    13a2:	b950      	cbnz	r0, 13ba <nrf52_periph_create_timers+0x2a>
#endif
}
    13a4:	bd08      	pop	{r3, pc}
    assert(rc == 0);
    13a6:	f7fe fedd 	bl	164 <hal_debugger_connected>
    13aa:	b100      	cbz	r0, 13ae <nrf52_periph_create_timers+0x1e>
    13ac:	be01      	bkpt	0x0001
    13ae:	2300      	movs	r3, #0
    13b0:	461a      	mov	r2, r3
    13b2:	4619      	mov	r1, r3
    13b4:	4618      	mov	r0, r3
    13b6:	f000 f9fd 	bl	17b4 <__assert_func>
    assert(rc == 0);
    13ba:	f7fe fed3 	bl	164 <hal_debugger_connected>
    13be:	b100      	cbz	r0, 13c2 <nrf52_periph_create_timers+0x32>
    13c0:	be01      	bkpt	0x0001
    13c2:	2300      	movs	r3, #0
    13c4:	461a      	mov	r2, r3
    13c6:	4619      	mov	r1, r3
    13c8:	4618      	mov	r0, r3
    13ca:	f000 f9f3 	bl	17b4 <__assert_func>
    13ce:	bf00      	nop
    13d0:	000f4240 	.word	0x000f4240

000013d4 <nrf52_periph_create_spi>:
#endif
}

static void
nrf52_periph_create_spi(void)
{
    13d4:	b508      	push	{r3, lr}
#if MYNEWT_VAL(BUS_DRIVER_PRESENT)
    rc = bus_spi_hal_dev_create("spi0",
                                &spi0_bus, (struct bus_spi_dev_cfg *)&spi0_cfg);
    assert(rc == 0);
#else
    rc = hal_spi_init(0, (void *)&os_bsp_spi0m_cfg, HAL_SPI_TYPE_MASTER);
    13d6:	2200      	movs	r2, #0
    13d8:	4907      	ldr	r1, [pc, #28]	; (13f8 <nrf52_periph_create_spi+0x24>)
    13da:	4610      	mov	r0, r2
    13dc:	f7ff feb8 	bl	1150 <hal_spi_init>
    assert(rc == 0);
    13e0:	b900      	cbnz	r0, 13e4 <nrf52_periph_create_spi+0x10>
#else
    rc = hal_spi_init(3, (void *)&os_bsp_spi3m_cfg, HAL_SPI_TYPE_MASTER);
    assert(rc == 0);
#endif
#endif
}
    13e2:	bd08      	pop	{r3, pc}
    assert(rc == 0);
    13e4:	f7fe febe 	bl	164 <hal_debugger_connected>
    13e8:	b100      	cbz	r0, 13ec <nrf52_periph_create_spi+0x18>
    13ea:	be01      	bkpt	0x0001
    13ec:	2300      	movs	r3, #0
    13ee:	461a      	mov	r2, r3
    13f0:	4619      	mov	r1, r3
    13f2:	4618      	mov	r0, r3
    13f4:	f000 f9de 	bl	17b4 <__assert_func>
    13f8:	000058a8 	.word	0x000058a8

000013fc <nrf52_periph_create>:
#endif
}

void
nrf52_periph_create(void)
{
    13fc:	b508      	push	{r3, lr}
    nrf52_periph_create_timers();
    13fe:	f7ff ffc7 	bl	1390 <nrf52_periph_create_timers>
    nrf52_periph_create_pwm();
    nrf52_periph_create_trng();
    nrf52_periph_create_crypto();
    nrf52_periph_create_uart();
    nrf52_periph_create_i2c();
    nrf52_periph_create_spi();
    1402:	f7ff ffe7 	bl	13d4 <nrf52_periph_create_spi>
    nrf52_periph_create_temp();
}
    1406:	bd08      	pop	{r3, pc}

00001408 <nrf_read_timer_cntr>:
nrf_read_timer_cntr(NRF_TIMER_Type *hwtimer)
{
    uint32_t tcntr;

    /* Force a capture of the timer into 'cntr' capture channel; read it */
    hwtimer->TASKS_CAPTURE[NRF_TIMER_CC_READ] = 1;
    1408:	2301      	movs	r3, #1
    140a:	6483      	str	r3, [r0, #72]	; 0x48
    tcntr = hwtimer->CC[NRF_TIMER_CC_READ];
    140c:	f8d0 0548 	ldr.w	r0, [r0, #1352]	; 0x548

    return tcntr;
}
    1410:	4770      	bx	lr
	...

00001414 <nrf_timer_set_ocmp>:
 *
 * @param timer Pointer to timer.
 */
static void
nrf_timer_set_ocmp(struct nrf52_hal_timer *bsptimer, uint32_t expiry)
{
    1414:	b538      	push	{r3, r4, r5, lr}
    uint32_t temp;
    uint32_t cntr;
    NRF_TIMER_Type *hwtimer;
    NRF_RTC_Type *rtctimer;

    if (bsptimer->tmr_rtc) {
    1416:	7883      	ldrb	r3, [r0, #2]
    1418:	2b00      	cmp	r3, #0
    141a:	d050      	beq.n	14be <nrf_timer_set_ocmp+0xaa>
        rtctimer = (NRF_RTC_Type *)bsptimer->tmr_reg;
    141c:	6902      	ldr	r2, [r0, #16]
        rtctimer->INTENCLR = NRF_TIMER_INT_MASK(NRF_RTC_TIMER_CC_INT);
    141e:	f44f 2380 	mov.w	r3, #262144	; 0x40000
    1422:	f8c2 3308 	str.w	r3, [r2, #776]	; 0x308
        temp = bsptimer->tmr_cntr;
    1426:	6843      	ldr	r3, [r0, #4]
        cntr = rtctimer->COUNTER;
    1428:	f8d2 4504 	ldr.w	r4, [r2, #1284]	; 0x504
        if (rtctimer->EVENTS_OVRFLW) {
    142c:	f8d2 5104 	ldr.w	r5, [r2, #260]	; 0x104
    1430:	b11d      	cbz	r5, 143a <nrf_timer_set_ocmp+0x26>
            temp += (1UL << 24);
    1432:	f103 7380 	add.w	r3, r3, #16777216	; 0x1000000
            cntr = rtctimer->COUNTER;
    1436:	f8d2 4504 	ldr.w	r4, [r2, #1284]	; 0x504
        }
        temp |= cntr;
    143a:	4323      	orrs	r3, r4
        delta_t = (int32_t)(expiry - temp);
    143c:	1acb      	subs	r3, r1, r3
         * to be handled differently. TICK event is used to have interrupt on
         * each subsequent tick so we won't miss any and in case we detected
         * mentioned extra tick during calculations, interrupt is triggered
         * immediately. Delta 0 or less means we should always fire immediately.
         */
        if (delta_t < 1) {
    143e:	2b00      	cmp	r3, #0
    1440:	dd17      	ble.n	1472 <nrf_timer_set_ocmp+0x5e>
            rtctimer->INTENCLR = RTC_INTENCLR_TICK_Msk;
            NVIC_SetPendingIRQ(bsptimer->tmr_irq_num);
        } else if (delta_t < 3) {
    1442:	2b02      	cmp	r3, #2
    1444:	dc27      	bgt.n	1496 <nrf_timer_set_ocmp+0x82>
            rtctimer->INTENSET = RTC_INTENSET_TICK_Msk;
    1446:	2301      	movs	r3, #1
    1448:	f8c2 3304 	str.w	r3, [r2, #772]	; 0x304
            if (rtctimer->COUNTER != cntr) {
    144c:	f8d2 3504 	ldr.w	r3, [r2, #1284]	; 0x504
    1450:	42a3      	cmp	r3, r4
    1452:	d02e      	beq.n	14b2 <nrf_timer_set_ocmp+0x9e>
                NVIC_SetPendingIRQ(bsptimer->tmr_irq_num);
    1454:	7842      	ldrb	r2, [r0, #1]
    1456:	b253      	sxtb	r3, r2
  if ((int32_t)(IRQn) >= 0)
    1458:	2b00      	cmp	r3, #0
    145a:	db2a      	blt.n	14b2 <nrf_timer_set_ocmp+0x9e>
    NVIC->ISPR[(((uint32_t)IRQn) >> 5UL)] = (uint32_t)(1UL << (((uint32_t)IRQn) & 0x1FUL));
    145c:	f002 021f 	and.w	r2, r2, #31
    1460:	095b      	lsrs	r3, r3, #5
    1462:	2101      	movs	r1, #1
    1464:	fa01 f202 	lsl.w	r2, r1, r2
    1468:	3340      	adds	r3, #64	; 0x40
    146a:	4926      	ldr	r1, [pc, #152]	; (1504 <nrf_timer_set_ocmp+0xf0>)
    146c:	f841 2023 	str.w	r2, [r1, r3, lsl #2]
    1470:	e01f      	b.n	14b2 <nrf_timer_set_ocmp+0x9e>
            rtctimer->INTENCLR = RTC_INTENCLR_TICK_Msk;
    1472:	2301      	movs	r3, #1
    1474:	f8c2 3308 	str.w	r3, [r2, #776]	; 0x308
            NVIC_SetPendingIRQ(bsptimer->tmr_irq_num);
    1478:	7842      	ldrb	r2, [r0, #1]
    147a:	b253      	sxtb	r3, r2
  if ((int32_t)(IRQn) >= 0)
    147c:	2b00      	cmp	r3, #0
    147e:	db18      	blt.n	14b2 <nrf_timer_set_ocmp+0x9e>
    NVIC->ISPR[(((uint32_t)IRQn) >> 5UL)] = (uint32_t)(1UL << (((uint32_t)IRQn) & 0x1FUL));
    1480:	f002 021f 	and.w	r2, r2, #31
    1484:	095b      	lsrs	r3, r3, #5
    1486:	2101      	movs	r1, #1
    1488:	fa01 f202 	lsl.w	r2, r1, r2
    148c:	3340      	adds	r3, #64	; 0x40
    148e:	491d      	ldr	r1, [pc, #116]	; (1504 <nrf_timer_set_ocmp+0xf0>)
    1490:	f841 2023 	str.w	r2, [r1, r3, lsl #2]
    1494:	e00d      	b.n	14b2 <nrf_timer_set_ocmp+0x9e>
            }
        } else {
            rtctimer->INTENCLR = RTC_INTENCLR_TICK_Msk;
    1496:	2001      	movs	r0, #1
    1498:	f8c2 0308 	str.w	r0, [r2, #776]	; 0x308

            if (delta_t < (1UL << 24)) {
    149c:	f1b3 7f80 	cmp.w	r3, #16777216	; 0x1000000
    14a0:	d208      	bcs.n	14b4 <nrf_timer_set_ocmp+0xa0>
                rtctimer->CC[NRF_RTC_TIMER_CC_INT] = expiry & 0x00ffffff;
    14a2:	f021 417f 	bic.w	r1, r1, #4278190080	; 0xff000000
    14a6:	f8c2 1548 	str.w	r1, [r2, #1352]	; 0x548
            } else {
                /* CC too far ahead. Just make sure we set compare far ahead */
                rtctimer->CC[NRF_RTC_TIMER_CC_INT] = cntr + (1UL << 23);
            }
            rtctimer->INTENSET = NRF_TIMER_INT_MASK(NRF_RTC_TIMER_CC_INT);
    14aa:	f44f 2380 	mov.w	r3, #262144	; 0x40000
    14ae:	f8c2 3304 	str.w	r3, [r2, #772]	; 0x304
        /* Force interrupt to occur as we may have missed it */
        if ((int32_t)(nrf_read_timer_cntr(hwtimer) - expiry) >= 0) {
            NVIC_SetPendingIRQ(bsptimer->tmr_irq_num);
        }
    }
}
    14b2:	bd38      	pop	{r3, r4, r5, pc}
                rtctimer->CC[NRF_RTC_TIMER_CC_INT] = cntr + (1UL << 23);
    14b4:	f504 0400 	add.w	r4, r4, #8388608	; 0x800000
    14b8:	f8c2 4548 	str.w	r4, [r2, #1352]	; 0x548
    14bc:	e7f5      	b.n	14aa <nrf_timer_set_ocmp+0x96>
    14be:	460d      	mov	r5, r1
    14c0:	4604      	mov	r4, r0
        hwtimer = bsptimer->tmr_reg;
    14c2:	6900      	ldr	r0, [r0, #16]
        hwtimer->INTENCLR = NRF_TIMER_INT_MASK(NRF_TIMER_CC_INT);
    14c4:	f44f 2300 	mov.w	r3, #524288	; 0x80000
    14c8:	f8c0 3308 	str.w	r3, [r0, #776]	; 0x308
        hwtimer->CC[NRF_TIMER_CC_INT] = expiry;
    14cc:	f8c0 154c 	str.w	r1, [r0, #1356]	; 0x54c
        hwtimer->EVENTS_COMPARE[NRF_TIMER_CC_INT] = 0;
    14d0:	2200      	movs	r2, #0
    14d2:	f8c0 214c 	str.w	r2, [r0, #332]	; 0x14c
        hwtimer->INTENSET = NRF_TIMER_INT_MASK(NRF_TIMER_CC_INT);
    14d6:	f8c0 3304 	str.w	r3, [r0, #772]	; 0x304
        if ((int32_t)(nrf_read_timer_cntr(hwtimer) - expiry) >= 0) {
    14da:	f7ff ff95 	bl	1408 <nrf_read_timer_cntr>
    14de:	1b40      	subs	r0, r0, r5
    14e0:	2800      	cmp	r0, #0
    14e2:	dbe6      	blt.n	14b2 <nrf_timer_set_ocmp+0x9e>
            NVIC_SetPendingIRQ(bsptimer->tmr_irq_num);
    14e4:	7862      	ldrb	r2, [r4, #1]
    14e6:	b253      	sxtb	r3, r2
  if ((int32_t)(IRQn) >= 0)
    14e8:	2b00      	cmp	r3, #0
    14ea:	dbe2      	blt.n	14b2 <nrf_timer_set_ocmp+0x9e>
    NVIC->ISPR[(((uint32_t)IRQn) >> 5UL)] = (uint32_t)(1UL << (((uint32_t)IRQn) & 0x1FUL));
    14ec:	f002 021f 	and.w	r2, r2, #31
    14f0:	095b      	lsrs	r3, r3, #5
    14f2:	2101      	movs	r1, #1
    14f4:	fa01 f202 	lsl.w	r2, r1, r2
    14f8:	3340      	adds	r3, #64	; 0x40
    14fa:	4902      	ldr	r1, [pc, #8]	; (1504 <nrf_timer_set_ocmp+0xf0>)
    14fc:	f841 2023 	str.w	r2, [r1, r3, lsl #2]
}
    1500:	e7d7      	b.n	14b2 <nrf_timer_set_ocmp+0x9e>
    1502:	bf00      	nop
    1504:	e000e100 	.word	0xe000e100

00001508 <nrf_timer_disable_ocmp>:

/* Disable output compare used for timer */
static void
nrf_timer_disable_ocmp(NRF_TIMER_Type *hwtimer)
{
    hwtimer->INTENCLR = NRF_TIMER_INT_MASK(NRF_TIMER_CC_INT);
    1508:	f44f 2300 	mov.w	r3, #524288	; 0x80000
    150c:	f8c0 3308 	str.w	r3, [r0, #776]	; 0x308
}
    1510:	4770      	bx	lr

00001512 <nrf_rtc_disable_ocmp>:

static void
nrf_rtc_disable_ocmp(NRF_RTC_Type *rtctimer)
{
    rtctimer->INTENCLR = NRF_TIMER_INT_MASK(NRF_RTC_TIMER_CC_INT);
    1512:	f44f 2380 	mov.w	r3, #262144	; 0x40000
    1516:	f8c0 3308 	str.w	r3, [r0, #776]	; 0x308
    rtctimer->INTENCLR = RTC_INTENCLR_TICK_Msk;
    151a:	2301      	movs	r3, #1
    151c:	f8c0 3308 	str.w	r3, [r0, #776]	; 0x308
}
    1520:	4770      	bx	lr
	...

00001524 <hal_timer_read_bsptimer>:

static uint32_t
hal_timer_read_bsptimer(struct nrf52_hal_timer *bsptimer)
{
    1524:	b430      	push	{r4, r5}
    uint32_t low32;
    uint32_t ctx;
    uint32_t tcntr;
    NRF_RTC_Type *rtctimer;

    rtctimer = (NRF_RTC_Type *)bsptimer->tmr_reg;
    1526:	6902      	ldr	r2, [r0, #16]
  __ASM volatile ("MRS %0, primask" : "=r" (result) :: "memory");
    1528:	f3ef 8410 	mrs	r4, PRIMASK
  __ASM volatile ("cpsid i" : : : "memory");
    152c:	b672      	cpsid	i
    __HAL_DISABLE_INTERRUPTS(ctx);
    tcntr = bsptimer->tmr_cntr;
    152e:	6841      	ldr	r1, [r0, #4]
    low32 = rtctimer->COUNTER;
    1530:	f8d2 3504 	ldr.w	r3, [r2, #1284]	; 0x504
    if (rtctimer->EVENTS_OVRFLW) {
    1534:	f8d2 5104 	ldr.w	r5, [r2, #260]	; 0x104
    1538:	b1ad      	cbz	r5, 1566 <hal_timer_read_bsptimer+0x42>
        tcntr += (1UL << 24);
    153a:	f101 7180 	add.w	r1, r1, #16777216	; 0x1000000
        bsptimer->tmr_cntr = tcntr;
    153e:	6041      	str	r1, [r0, #4]
        low32 = rtctimer->COUNTER;
    1540:	f8d2 3504 	ldr.w	r3, [r2, #1284]	; 0x504
        rtctimer->EVENTS_OVRFLW = 0;
    1544:	2500      	movs	r5, #0
    1546:	f8c2 5104 	str.w	r5, [r2, #260]	; 0x104
        NVIC_SetPendingIRQ(bsptimer->tmr_irq_num);
    154a:	7840      	ldrb	r0, [r0, #1]
    154c:	b242      	sxtb	r2, r0
  if ((int32_t)(IRQn) >= 0)
    154e:	42aa      	cmp	r2, r5
    1550:	db09      	blt.n	1566 <hal_timer_read_bsptimer+0x42>
    NVIC->ISPR[(((uint32_t)IRQn) >> 5UL)] = (uint32_t)(1UL << (((uint32_t)IRQn) & 0x1FUL));
    1552:	f000 001f 	and.w	r0, r0, #31
    1556:	0952      	lsrs	r2, r2, #5
    1558:	2501      	movs	r5, #1
    155a:	fa05 f000 	lsl.w	r0, r5, r0
    155e:	3240      	adds	r2, #64	; 0x40
    1560:	4d04      	ldr	r5, [pc, #16]	; (1574 <hal_timer_read_bsptimer+0x50>)
    1562:	f845 0022 	str.w	r0, [r5, r2, lsl #2]
    }
    tcntr |= low32;
    1566:	ea43 0001 	orr.w	r0, r3, r1
    __HAL_ENABLE_INTERRUPTS(ctx);
    156a:	b904      	cbnz	r4, 156e <hal_timer_read_bsptimer+0x4a>
  __ASM volatile ("cpsie i" : : : "memory");
    156c:	b662      	cpsie	i

    return tcntr;
}
    156e:	bc30      	pop	{r4, r5}
    1570:	4770      	bx	lr
    1572:	bf00      	nop
    1574:	e000e100 	.word	0xe000e100

00001578 <hal_timer_chk_queue>:
 *
 * @param bsptimer
 */
static void
hal_timer_chk_queue(struct nrf52_hal_timer *bsptimer)
{
    1578:	b570      	push	{r4, r5, r6, lr}
    157a:	4605      	mov	r5, r0
  __ASM volatile ("MRS %0, primask" : "=r" (result) :: "memory");
    157c:	f3ef 8610 	mrs	r6, PRIMASK
  __ASM volatile ("cpsid i" : : : "memory");
    1580:	b672      	cpsid	i
    1582:	e012      	b.n	15aa <hal_timer_chk_queue+0x32>
    __HAL_DISABLE_INTERRUPTS(ctx);
    while ((timer = TAILQ_FIRST(&bsptimer->hal_timer_q)) != NULL) {
        if (bsptimer->tmr_rtc) {
            tcntr = hal_timer_read_bsptimer(bsptimer);
        } else {
            tcntr = nrf_read_timer_cntr(bsptimer->tmr_reg);
    1584:	6928      	ldr	r0, [r5, #16]
    1586:	f7ff ff3f 	bl	1408 <nrf_read_timer_cntr>
        }
        if ((int32_t)(tcntr - timer->expiry) >= 0) {
    158a:	68e3      	ldr	r3, [r4, #12]
    158c:	1ac0      	subs	r0, r0, r3
    158e:	2800      	cmp	r0, #0
    1590:	db17      	blt.n	15c2 <hal_timer_chk_queue+0x4a>
            TAILQ_REMOVE(&bsptimer->hal_timer_q, timer, link);
    1592:	6923      	ldr	r3, [r4, #16]
    1594:	b193      	cbz	r3, 15bc <hal_timer_chk_queue+0x44>
    1596:	6962      	ldr	r2, [r4, #20]
    1598:	615a      	str	r2, [r3, #20]
    159a:	6963      	ldr	r3, [r4, #20]
    159c:	6922      	ldr	r2, [r4, #16]
    159e:	601a      	str	r2, [r3, #0]
            timer->link.tqe_prev = NULL;
    15a0:	2300      	movs	r3, #0
    15a2:	6163      	str	r3, [r4, #20]
            timer->cb_func(timer->cb_arg);
    15a4:	6863      	ldr	r3, [r4, #4]
    15a6:	68a0      	ldr	r0, [r4, #8]
    15a8:	4798      	blx	r3
    while ((timer = TAILQ_FIRST(&bsptimer->hal_timer_q)) != NULL) {
    15aa:	696c      	ldr	r4, [r5, #20]
    15ac:	b14c      	cbz	r4, 15c2 <hal_timer_chk_queue+0x4a>
        if (bsptimer->tmr_rtc) {
    15ae:	78ab      	ldrb	r3, [r5, #2]
    15b0:	2b00      	cmp	r3, #0
    15b2:	d0e7      	beq.n	1584 <hal_timer_chk_queue+0xc>
            tcntr = hal_timer_read_bsptimer(bsptimer);
    15b4:	4628      	mov	r0, r5
    15b6:	f7ff ffb5 	bl	1524 <hal_timer_read_bsptimer>
    15ba:	e7e6      	b.n	158a <hal_timer_chk_queue+0x12>
            TAILQ_REMOVE(&bsptimer->hal_timer_q, timer, link);
    15bc:	6963      	ldr	r3, [r4, #20]
    15be:	61ab      	str	r3, [r5, #24]
    15c0:	e7eb      	b.n	159a <hal_timer_chk_queue+0x22>
            break;
        }
    }

    /* Any timers left on queue? If so, we need to set OCMP */
    timer = TAILQ_FIRST(&bsptimer->hal_timer_q);
    15c2:	696b      	ldr	r3, [r5, #20]
    if (timer) {
    15c4:	b133      	cbz	r3, 15d4 <hal_timer_chk_queue+0x5c>
        nrf_timer_set_ocmp(bsptimer, timer->expiry);
    15c6:	68d9      	ldr	r1, [r3, #12]
    15c8:	4628      	mov	r0, r5
    15ca:	f7ff ff23 	bl	1414 <nrf_timer_set_ocmp>
            nrf_rtc_disable_ocmp((NRF_RTC_Type *)bsptimer->tmr_reg);
        } else {
            nrf_timer_disable_ocmp(bsptimer->tmr_reg);
        }
    }
    __HAL_ENABLE_INTERRUPTS(ctx);
    15ce:	b906      	cbnz	r6, 15d2 <hal_timer_chk_queue+0x5a>
  __ASM volatile ("cpsie i" : : : "memory");
    15d0:	b662      	cpsie	i
}
    15d2:	bd70      	pop	{r4, r5, r6, pc}
        if (bsptimer->tmr_rtc) {
    15d4:	78ab      	ldrb	r3, [r5, #2]
    15d6:	b11b      	cbz	r3, 15e0 <hal_timer_chk_queue+0x68>
            nrf_rtc_disable_ocmp((NRF_RTC_Type *)bsptimer->tmr_reg);
    15d8:	6928      	ldr	r0, [r5, #16]
    15da:	f7ff ff9a 	bl	1512 <nrf_rtc_disable_ocmp>
    15de:	e7f6      	b.n	15ce <hal_timer_chk_queue+0x56>
            nrf_timer_disable_ocmp(bsptimer->tmr_reg);
    15e0:	6928      	ldr	r0, [r5, #16]
    15e2:	f7ff ff91 	bl	1508 <nrf_timer_disable_ocmp>
    15e6:	e7f2      	b.n	15ce <hal_timer_chk_queue+0x56>

000015e8 <hal_timer_irq_handler>:
#if (MYNEWT_VAL(TIMER_0) || MYNEWT_VAL(TIMER_1) || MYNEWT_VAL(TIMER_2) || \
     MYNEWT_VAL(TIMER_3) || MYNEWT_VAL(TIMER_4))

static void
hal_timer_irq_handler(struct nrf52_hal_timer *bsptimer)
{
    15e8:	b510      	push	{r4, lr}
    NRF_TIMER_Type *hwtimer;

    os_trace_isr_enter();

    /* Check interrupt source. If set, clear them */
    hwtimer = bsptimer->tmr_reg;
    15ea:	6904      	ldr	r4, [r0, #16]
    compare = hwtimer->EVENTS_COMPARE[NRF_TIMER_CC_INT];
    15ec:	f8d4 314c 	ldr.w	r3, [r4, #332]	; 0x14c
    if (compare) {
    15f0:	b113      	cbz	r3, 15f8 <hal_timer_irq_handler+0x10>
        hwtimer->EVENTS_COMPARE[NRF_TIMER_CC_INT] = 0;
    15f2:	2300      	movs	r3, #0
    15f4:	f8c4 314c 	str.w	r3, [r4, #332]	; 0x14c
    }

    /* XXX: make these stats? */
    /* Count # of timer isrs */
    ++bsptimer->timer_isrs;
    15f8:	6883      	ldr	r3, [r0, #8]
    15fa:	3301      	adds	r3, #1
    15fc:	6083      	str	r3, [r0, #8]
     * counter is already passed the output compare value), we use the NVIC
     * to set a pending interrupt. This means that there will be no compare
     * flag set, so all we do is check to see if the compare interrupt is
     * enabled.
     */
    if (hwtimer->INTENCLR & NRF_TIMER_INT_MASK(NRF_TIMER_CC_INT)) {
    15fe:	f8d4 3308 	ldr.w	r3, [r4, #776]	; 0x308
    1602:	f413 2f00 	tst.w	r3, #524288	; 0x80000
    1606:	d100      	bne.n	160a <hal_timer_irq_handler+0x22>
        /* XXX: Recommended by nordic to make sure interrupts are cleared */
        compare = hwtimer->EVENTS_COMPARE[NRF_TIMER_CC_INT];
    }

    os_trace_isr_exit();
}
    1608:	bd10      	pop	{r4, pc}
        hal_timer_chk_queue(bsptimer);
    160a:	f7ff ffb5 	bl	1578 <hal_timer_chk_queue>
        compare = hwtimer->EVENTS_COMPARE[NRF_TIMER_CC_INT];
    160e:	f8d4 314c 	ldr.w	r3, [r4, #332]	; 0x14c
}
    1612:	e7f9      	b.n	1608 <hal_timer_irq_handler+0x20>

00001614 <nrf52_timer0_irq_handler>:
#endif

#if MYNEWT_VAL(TIMER_0)
void
nrf52_timer0_irq_handler(void)
{
    1614:	b508      	push	{r3, lr}
    hal_timer_irq_handler(&nrf52_hal_timer0);
    1616:	4802      	ldr	r0, [pc, #8]	; (1620 <nrf52_timer0_irq_handler+0xc>)
    1618:	f7ff ffe6 	bl	15e8 <hal_timer_irq_handler>
}
    161c:	bd08      	pop	{r3, pc}
    161e:	bf00      	nop
    1620:	20000188 	.word	0x20000188

00001624 <hal_timer_init>:
    uint8_t irq_num;
    struct nrf52_hal_timer *bsptimer;
    void *hwtimer;
    hal_timer_irq_handler_t irq_isr;

    NRF52_HAL_TIMER_RESOLVE(timer_num, bsptimer);
    1624:	2805      	cmp	r0, #5
    1626:	dc1c      	bgt.n	1662 <hal_timer_init+0x3e>
    1628:	4b12      	ldr	r3, [pc, #72]	; (1674 <hal_timer_init+0x50>)
    162a:	f853 3020 	ldr.w	r3, [r3, r0, lsl #2]
    162e:	b1d3      	cbz	r3, 1666 <hal_timer_init+0x42>

    /* If timer is enabled do not allow init */
    if (bsptimer->tmr_enabled) {
    1630:	781a      	ldrb	r2, [r3, #0]
    1632:	b9d2      	cbnz	r2, 166a <hal_timer_init+0x46>
        rc = EINVAL;
        goto err;
    }

    switch (timer_num) {
    1634:	b9d8      	cbnz	r0, 166e <hal_timer_init+0x4a>
    if (hwtimer == NULL) {
        rc = EINVAL;
        goto err;
    }

    bsptimer->tmr_reg = hwtimer;
    1636:	4a10      	ldr	r2, [pc, #64]	; (1678 <hal_timer_init+0x54>)
    1638:	611a      	str	r2, [r3, #16]
    bsptimer->tmr_irq_num = irq_num;
    163a:	2208      	movs	r2, #8
    163c:	705a      	strb	r2, [r3, #1]
    NVIC->ICER[(((uint32_t)IRQn) >> 5UL)] = (uint32_t)(1UL << (((uint32_t)IRQn) & 0x1FUL));
    163e:	4b0f      	ldr	r3, [pc, #60]	; (167c <hal_timer_init+0x58>)
    1640:	f44f 7280 	mov.w	r2, #256	; 0x100
    1644:	f8c3 2080 	str.w	r2, [r3, #128]	; 0x80
  __ASM volatile ("dsb 0xF":::"memory");
    1648:	f3bf 8f4f 	dsb	sy
  __ASM volatile ("isb 0xF":::"memory");
    164c:	f3bf 8f6f 	isb	sy
    NVIC->IP[((uint32_t)IRQn)]               = (uint8_t)((priority << (8U - __NVIC_PRIO_BITS)) & (uint32_t)0xFFUL);
    1650:	22e0      	movs	r2, #224	; 0xe0
    1652:	f883 2308 	strb.w	r2, [r3, #776]	; 0x308
  uint32_t vectors = (uint32_t )SCB->VTOR;
    1656:	f503 6340 	add.w	r3, r3, #3072	; 0xc00
    165a:	689b      	ldr	r3, [r3, #8]
  (* (int *) (vectors + ((int32_t)IRQn + NVIC_USER_IRQ_OFFSET) * 4)) = vector;
    165c:	4a08      	ldr	r2, [pc, #32]	; (1680 <hal_timer_init+0x5c>)
    165e:	661a      	str	r2, [r3, #96]	; 0x60
    /* Disable IRQ, set priority and set vector in table */
    NVIC_DisableIRQ(irq_num);
    NVIC_SetPriority(irq_num, (1 << __NVIC_PRIO_BITS) - 1);
    NVIC_SetVector(irq_num, (uint32_t)irq_isr);

    return 0;
    1660:	4770      	bx	lr

err:
    return rc;
    1662:	2016      	movs	r0, #22
    1664:	4770      	bx	lr
    1666:	2016      	movs	r0, #22
    1668:	4770      	bx	lr
    166a:	2016      	movs	r0, #22
    166c:	4770      	bx	lr
    166e:	2016      	movs	r0, #22
}
    1670:	4770      	bx	lr
    1672:	bf00      	nop
    1674:	000058ac 	.word	0x000058ac
    1678:	40008000 	.word	0x40008000
    167c:	e000e100 	.word	0xe000e100
    1680:	00001615 	.word	0x00001615

00001684 <hal_timer_config>:
    NRF_TIMER_Type *hwtimer;
#if MYNEWT_VAL(TIMER_5)
    NRF_RTC_Type *rtctimer;
#endif

    NRF52_HAL_TIMER_RESOLVE(timer_num, bsptimer);
    1684:	2805      	cmp	r0, #5
    1686:	dc65      	bgt.n	1754 <hal_timer_config+0xd0>
    1688:	4b39      	ldr	r3, [pc, #228]	; (1770 <hal_timer_config+0xec>)
    168a:	f853 0020 	ldr.w	r0, [r3, r0, lsl #2]
    168e:	2800      	cmp	r0, #0
    1690:	d062      	beq.n	1758 <hal_timer_config+0xd4>
        return 0;
    }
#endif

    /* Set timer to desired frequency */
    div = NRF52_MAX_TIMER_FREQ / freq_hz;
    1692:	4b38      	ldr	r3, [pc, #224]	; (1774 <hal_timer_config+0xf0>)
    1694:	fbb3 f1f1 	udiv	r1, r3, r1
    /*
     * Largest prescaler is 2^9 and must make sure frequency not too high.
     * If hwtimer is NULL it means that the timer was not initialized prior
     * to call.
     */
    if (bsptimer->tmr_enabled || (div == 0) || (div > 512) ||
    1698:	7803      	ldrb	r3, [r0, #0]
    169a:	2b00      	cmp	r3, #0
    169c:	d15e      	bne.n	175c <hal_timer_config+0xd8>
    169e:	2900      	cmp	r1, #0
    16a0:	d05e      	beq.n	1760 <hal_timer_config+0xdc>
    16a2:	f5b1 7f00 	cmp.w	r1, #512	; 0x200
    16a6:	d85d      	bhi.n	1764 <hal_timer_config+0xe0>
        (bsptimer->tmr_reg == NULL)) {
    16a8:	6902      	ldr	r2, [r0, #16]
    if (bsptimer->tmr_enabled || (div == 0) || (div > 512) ||
    16aa:	2a00      	cmp	r2, #0
    16ac:	d05c      	beq.n	1768 <hal_timer_config+0xe4>
{
    16ae:	b430      	push	{r4, r5}
        rc = EINVAL;
        goto err;
    }

    if (div == 1) {
    16b0:	2901      	cmp	r1, #1
    16b2:	d013      	beq.n	16dc <hal_timer_config+0x58>
        prescaler = 0;
    } else {
        /* Find closest prescaler */
        for (prescaler = 1; prescaler < 10; ++prescaler) {
    16b4:	2301      	movs	r3, #1
    16b6:	2b09      	cmp	r3, #9
    16b8:	d810      	bhi.n	16dc <hal_timer_config+0x58>
            if (div <= (1 << prescaler)) {
    16ba:	2201      	movs	r2, #1
    16bc:	409a      	lsls	r2, r3
    16be:	428a      	cmp	r2, r1
    16c0:	d202      	bcs.n	16c8 <hal_timer_config+0x44>
        for (prescaler = 1; prescaler < 10; ++prescaler) {
    16c2:	3301      	adds	r3, #1
    16c4:	b2db      	uxtb	r3, r3
    16c6:	e7f6      	b.n	16b6 <hal_timer_config+0x32>
                min_delta = div - (1 << (prescaler - 1));
    16c8:	1e5c      	subs	r4, r3, #1
    16ca:	2501      	movs	r5, #1
    16cc:	fa05 f404 	lsl.w	r4, r5, r4
    16d0:	1b0c      	subs	r4, r1, r4
                max_delta = (1 << prescaler) - div;
    16d2:	1a51      	subs	r1, r2, r1
                if (min_delta < max_delta) {
    16d4:	428c      	cmp	r4, r1
    16d6:	d201      	bcs.n	16dc <hal_timer_config+0x58>
                    prescaler -= 1;
    16d8:	3b01      	subs	r3, #1
    16da:	b2db      	uxtb	r3, r3
            }
        }
    }

    /* Now set the actual frequency */
    bsptimer->tmr_freq = NRF52_MAX_TIMER_FREQ / (1 << prescaler);
    16dc:	4a25      	ldr	r2, [pc, #148]	; (1774 <hal_timer_config+0xf0>)
    16de:	411a      	asrs	r2, r3
    16e0:	60c2      	str	r2, [r0, #12]
    bsptimer->tmr_enabled = 1;
    16e2:	2201      	movs	r2, #1
    16e4:	7002      	strb	r2, [r0, #0]
  __ASM volatile ("MRS %0, primask" : "=r" (result) :: "memory");
    16e6:	f3ef 8410 	mrs	r4, PRIMASK
  __ASM volatile ("cpsid i" : : : "memory");
    16ea:	b672      	cpsid	i
    /* disable interrupts */
    __HAL_DISABLE_INTERRUPTS(ctx);

#if MYNEWT_VAL_CHOICE(MCU_HFCLK_SOURCE, HFXO)
    /* Make sure HFXO is started */
    if ((NRF_CLOCK->HFCLKSTAT &
    16ec:	f04f 4280 	mov.w	r2, #1073741824	; 0x40000000
    16f0:	f8d2 240c 	ldr.w	r2, [r2, #1036]	; 0x40c
    16f4:	f002 1201 	and.w	r2, r2, #65537	; 0x10001
    16f8:	f1b2 1f01 	cmp.w	r2, #65537	; 0x10001
    16fc:	d00c      	beq.n	1718 <hal_timer_config+0x94>
         (CLOCK_HFCLKSTAT_SRC_Msk | CLOCK_HFCLKSTAT_STATE_Msk)) !=
        (CLOCK_HFCLKSTAT_SRC_Msk | CLOCK_HFCLKSTAT_STATE_Msk)) {
        NRF_CLOCK->EVENTS_HFCLKSTARTED = 0;
    16fe:	f04f 4280 	mov.w	r2, #1073741824	; 0x40000000
    1702:	2100      	movs	r1, #0
    1704:	f8c2 1100 	str.w	r1, [r2, #256]	; 0x100
        NRF_CLOCK->TASKS_HFCLKSTART = 1;
    1708:	2101      	movs	r1, #1
    170a:	6011      	str	r1, [r2, #0]
        while (1) {
            if ((NRF_CLOCK->EVENTS_HFCLKSTARTED) != 0) {
    170c:	f04f 4280 	mov.w	r2, #1073741824	; 0x40000000
    1710:	f8d2 2100 	ldr.w	r2, [r2, #256]	; 0x100
    1714:	2a00      	cmp	r2, #0
    1716:	d0f9      	beq.n	170c <hal_timer_config+0x88>
                break;
            }
        }
    }
#endif
    hwtimer = bsptimer->tmr_reg;
    1718:	6902      	ldr	r2, [r0, #16]

    /* Stop the timer first */
    hwtimer->TASKS_STOP = 1;
    171a:	2101      	movs	r1, #1
    171c:	6051      	str	r1, [r2, #4]
    hwtimer->TASKS_CLEAR = 1;
    171e:	60d1      	str	r1, [r2, #12]

    /* Put the timer in timer mode using 32 bits. */
    hwtimer->MODE = TIMER_MODE_MODE_Timer;
    1720:	2500      	movs	r5, #0
    1722:	f8c2 5504 	str.w	r5, [r2, #1284]	; 0x504
    hwtimer->BITMODE = TIMER_BITMODE_BITMODE_32Bit;
    1726:	2503      	movs	r5, #3
    1728:	f8c2 5508 	str.w	r5, [r2, #1288]	; 0x508

    /* Set the pre-scalar */
    hwtimer->PRESCALER = prescaler;
    172c:	f8c2 3510 	str.w	r3, [r2, #1296]	; 0x510

    /* Start the timer */
    hwtimer->TASKS_START = 1;
    1730:	6011      	str	r1, [r2, #0]

    NVIC_EnableIRQ(bsptimer->tmr_irq_num);
    1732:	7842      	ldrb	r2, [r0, #1]
    1734:	b253      	sxtb	r3, r2
  if ((int32_t)(IRQn) >= 0)
    1736:	2b00      	cmp	r3, #0
    1738:	db07      	blt.n	174a <hal_timer_config+0xc6>
    NVIC->ISER[(((uint32_t)IRQn) >> 5UL)] = (uint32_t)(1UL << (((uint32_t)IRQn) & 0x1FUL));
    173a:	f002 021f 	and.w	r2, r2, #31
    173e:	095b      	lsrs	r3, r3, #5
    1740:	fa01 f202 	lsl.w	r2, r1, r2
    1744:	490c      	ldr	r1, [pc, #48]	; (1778 <hal_timer_config+0xf4>)
    1746:	f841 2023 	str.w	r2, [r1, r3, lsl #2]

    __HAL_ENABLE_INTERRUPTS(ctx);
    174a:	b97c      	cbnz	r4, 176c <hal_timer_config+0xe8>
  __ASM volatile ("cpsie i" : : : "memory");
    174c:	b662      	cpsie	i

    return 0;
    174e:	2000      	movs	r0, #0

err:
    return rc;
}
    1750:	bc30      	pop	{r4, r5}
    1752:	4770      	bx	lr
    return rc;
    1754:	2016      	movs	r0, #22
    1756:	4770      	bx	lr
    1758:	2016      	movs	r0, #22
    175a:	4770      	bx	lr
    175c:	2016      	movs	r0, #22
    175e:	4770      	bx	lr
    1760:	2016      	movs	r0, #22
    1762:	4770      	bx	lr
    1764:	2016      	movs	r0, #22
    1766:	4770      	bx	lr
    1768:	2016      	movs	r0, #22
}
    176a:	4770      	bx	lr
    return 0;
    176c:	2000      	movs	r0, #0
    176e:	e7ef      	b.n	1750 <hal_timer_config+0xcc>
    1770:	000058ac 	.word	0x000058ac
    1774:	00f42400 	.word	0x00f42400
    1778:	e000e100 	.word	0xe000e100

0000177c <hal_timer_read>:
 *
 * @return uint32_t The timer counter register.
 */
uint32_t
hal_timer_read(int timer_num)
{
    177c:	b508      	push	{r3, lr}
    int rc;
    uint32_t tcntr;
    struct nrf52_hal_timer *bsptimer;

    NRF52_HAL_TIMER_RESOLVE(timer_num, bsptimer);
    177e:	2805      	cmp	r0, #5
    1780:	dc0c      	bgt.n	179c <hal_timer_read+0x20>
    1782:	4b0b      	ldr	r3, [pc, #44]	; (17b0 <hal_timer_read+0x34>)
    1784:	f853 0020 	ldr.w	r0, [r3, r0, lsl #2]
    1788:	b140      	cbz	r0, 179c <hal_timer_read+0x20>
    if (bsptimer->tmr_rtc) {
    178a:	7883      	ldrb	r3, [r0, #2]
    178c:	b91b      	cbnz	r3, 1796 <hal_timer_read+0x1a>
        tcntr = hal_timer_read_bsptimer(bsptimer);
    } else {
        tcntr = nrf_read_timer_cntr(bsptimer->tmr_reg);
    178e:	6900      	ldr	r0, [r0, #16]
    1790:	f7ff fe3a 	bl	1408 <nrf_read_timer_cntr>
    /* Assert here since there is no invalid return code */
err:
    assert(0);
    rc = 0;
    return rc;
}
    1794:	bd08      	pop	{r3, pc}
        tcntr = hal_timer_read_bsptimer(bsptimer);
    1796:	f7ff fec5 	bl	1524 <hal_timer_read_bsptimer>
    179a:	e7fb      	b.n	1794 <hal_timer_read+0x18>
    assert(0);
    179c:	f7fe fce2 	bl	164 <hal_debugger_connected>
    17a0:	b100      	cbz	r0, 17a4 <hal_timer_read+0x28>
    17a2:	be01      	bkpt	0x0001
    17a4:	2300      	movs	r3, #0
    17a6:	461a      	mov	r2, r3
    17a8:	4619      	mov	r1, r3
    17aa:	4618      	mov	r0, r3
    17ac:	f000 f802 	bl	17b4 <__assert_func>
    17b0:	000058ac 	.word	0x000058ac

000017b4 <__assert_func>:
}
#endif

void
__assert_func(const char *file, int line, const char *func, const char *e)
{
    17b4:	b508      	push	{r3, lr}
    17b6:	4675      	mov	r5, lr
    17b8:	4604      	mov	r4, r0
    17ba:	460e      	mov	r6, r1
#if MYNEWT_VAL(OS_CRASH_LOG)
    struct log_reboot_info lri;
#endif
    int sr;

    OS_ENTER_CRITICAL(sr);
    17bc:	f000 f8b1 	bl	1922 <os_arch_save_sr>
    (void)sr;
    console_blocking_mode();
    17c0:	f000 ff5b 	bl	267a <console_blocking_mode>
    OS_PRINT_ASSERT(file, line, func, e);
    17c4:	b16c      	cbz	r4, 17e2 <__assert_func+0x2e>
    17c6:	4633      	mov	r3, r6
    17c8:	4622      	mov	r2, r4
    17ca:	4629      	mov	r1, r5
    17cc:	4807      	ldr	r0, [pc, #28]	; (17ec <__assert_func+0x38>)
    17ce:	f000 ff79 	bl	26c4 <console_printf>

#if MYNEWT_VAL(OS_ASSERT_CB)
    os_assert_cb();
#endif

    SCB->ICSR = SCB_ICSR_NMIPENDSET_Msk;
    17d2:	4b07      	ldr	r3, [pc, #28]	; (17f0 <__assert_func+0x3c>)
    17d4:	f04f 4200 	mov.w	r2, #2147483648	; 0x80000000
    17d8:	605a      	str	r2, [r3, #4]
    asm("isb");
    17da:	f3bf 8f6f 	isb	sy
    hal_system_reset();
    17de:	f7fe fcc9 	bl	174 <hal_system_reset>
    OS_PRINT_ASSERT(file, line, func, e);
    17e2:	4629      	mov	r1, r5
    17e4:	4803      	ldr	r0, [pc, #12]	; (17f4 <__assert_func+0x40>)
    17e6:	f000 ff6d 	bl	26c4 <console_printf>
    17ea:	e7f2      	b.n	17d2 <__assert_func+0x1e>
    17ec:	000058d4 	.word	0x000058d4
    17f0:	e000ed00 	.word	0xe000ed00
    17f4:	000058c4 	.word	0x000058c4

000017f8 <os_default_irq>:
}

void
os_default_irq(struct trap_frame *tf)
{
    17f8:	b500      	push	{lr}
    17fa:	b083      	sub	sp, #12
    17fc:	4604      	mov	r4, r0
#endif
#if MYNEWT_VAL(OS_CRASH_RESTORE_REGS)
    uint32_t orig_sp;
#endif

    console_blocking_mode();
    17fe:	f000 ff3c 	bl	267a <console_blocking_mode>
    console_printf("Unhandled interrupt (%ld), exception sp 0x%08lx\n",
      SCB->ICSR & SCB_ICSR_VECTACTIVE_Msk, (uint32_t)tf->ef);
    1802:	4d1b      	ldr	r5, [pc, #108]	; (1870 <os_default_irq+0x78>)
    1804:	6869      	ldr	r1, [r5, #4]
    console_printf("Unhandled interrupt (%ld), exception sp 0x%08lx\n",
    1806:	6822      	ldr	r2, [r4, #0]
    1808:	f3c1 0108 	ubfx	r1, r1, #0, #9
    180c:	4819      	ldr	r0, [pc, #100]	; (1874 <os_default_irq+0x7c>)
    180e:	f000 ff59 	bl	26c4 <console_printf>
    console_printf(" r0:0x%08lx  r1:0x%08lx  r2:0x%08lx  r3:0x%08lx\n",
      tf->ef->r0, tf->ef->r1, tf->ef->r2, tf->ef->r3);
    1812:	6820      	ldr	r0, [r4, #0]
    console_printf(" r0:0x%08lx  r1:0x%08lx  r2:0x%08lx  r3:0x%08lx\n",
    1814:	6883      	ldr	r3, [r0, #8]
    1816:	6842      	ldr	r2, [r0, #4]
    1818:	6801      	ldr	r1, [r0, #0]
    181a:	68c0      	ldr	r0, [r0, #12]
    181c:	9000      	str	r0, [sp, #0]
    181e:	4816      	ldr	r0, [pc, #88]	; (1878 <os_default_irq+0x80>)
    1820:	f000 ff50 	bl	26c4 <console_printf>
    console_printf(" r4:0x%08lx  r5:0x%08lx  r6:0x%08lx  r7:0x%08lx\n",
    1824:	6923      	ldr	r3, [r4, #16]
    1826:	9300      	str	r3, [sp, #0]
    1828:	68e3      	ldr	r3, [r4, #12]
    182a:	68a2      	ldr	r2, [r4, #8]
    182c:	6861      	ldr	r1, [r4, #4]
    182e:	4813      	ldr	r0, [pc, #76]	; (187c <os_default_irq+0x84>)
    1830:	f000 ff48 	bl	26c4 <console_printf>
      tf->r4, tf->r5, tf->r6, tf->r7);
    console_printf(" r8:0x%08lx  r9:0x%08lx r10:0x%08lx r11:0x%08lx\n",
    1834:	6a23      	ldr	r3, [r4, #32]
    1836:	9300      	str	r3, [sp, #0]
    1838:	69e3      	ldr	r3, [r4, #28]
    183a:	69a2      	ldr	r2, [r4, #24]
    183c:	6961      	ldr	r1, [r4, #20]
    183e:	4810      	ldr	r0, [pc, #64]	; (1880 <os_default_irq+0x88>)
    1840:	f000 ff40 	bl	26c4 <console_printf>
      tf->r8, tf->r9, tf->r10, tf->r11);
    console_printf("r12:0x%08lx  lr:0x%08lx  pc:0x%08lx psr:0x%08lx\n",
      tf->ef->r12, tf->ef->lr, tf->ef->pc, tf->ef->psr);
    1844:	6820      	ldr	r0, [r4, #0]
    console_printf("r12:0x%08lx  lr:0x%08lx  pc:0x%08lx psr:0x%08lx\n",
    1846:	6983      	ldr	r3, [r0, #24]
    1848:	6942      	ldr	r2, [r0, #20]
    184a:	6901      	ldr	r1, [r0, #16]
    184c:	69c0      	ldr	r0, [r0, #28]
    184e:	9000      	str	r0, [sp, #0]
    1850:	480c      	ldr	r0, [pc, #48]	; (1884 <os_default_irq+0x8c>)
    1852:	f000 ff37 	bl	26c4 <console_printf>
    console_printf("ICSR:0x%08lx HFSR:0x%08lx CFSR:0x%08lx\n",
    1856:	6869      	ldr	r1, [r5, #4]
    1858:	6aea      	ldr	r2, [r5, #44]	; 0x2c
    185a:	6aab      	ldr	r3, [r5, #40]	; 0x28
    185c:	480a      	ldr	r0, [pc, #40]	; (1888 <os_default_irq+0x90>)
    185e:	f000 ff31 	bl	26c4 <console_printf>
      SCB->ICSR, SCB->HFSR, SCB->CFSR);
    console_printf("BFAR:0x%08lx MMFAR:0x%08lx\n", SCB->BFAR, SCB->MMFAR);
    1862:	6ba9      	ldr	r1, [r5, #56]	; 0x38
    1864:	6b6a      	ldr	r2, [r5, #52]	; 0x34
    1866:	4809      	ldr	r0, [pc, #36]	; (188c <os_default_irq+0x94>)
    1868:	f000 ff2c 	bl	26c4 <console_printf>
            : "r0"
        );
    }
#endif

    hal_system_reset();
    186c:	f7fe fc82 	bl	174 <hal_system_reset>
    1870:	e000ed00 	.word	0xe000ed00
    1874:	000058ec 	.word	0x000058ec
    1878:	00005920 	.word	0x00005920
    187c:	00005954 	.word	0x00005954
    1880:	00005988 	.word	0x00005988
    1884:	000059bc 	.word	0x000059bc
    1888:	000059f0 	.word	0x000059f0
    188c:	00005a18 	.word	0x00005a18

00001890 <os_cputime_init>:
struct os_cputime_data g_os_cputime;
#endif

int
os_cputime_init(uint32_t clock_freq)
{
    1890:	b508      	push	{r3, lr}

    /* Set the ticks per microsecond. */
#if defined(OS_CPUTIME_FREQ_HIGH)
    g_os_cputime.ticks_per_usec = clock_freq / 1000000U;
#endif
    rc = hal_timer_config(MYNEWT_VAL(OS_CPUTIME_TIMER_NUM), clock_freq);
    1892:	4601      	mov	r1, r0
    1894:	2000      	movs	r0, #0
    1896:	f7ff fef5 	bl	1684 <hal_timer_config>
    return rc;
}
    189a:	bd08      	pop	{r3, pc}

0000189c <os_cputime_get32>:
    hal_timer_stop(timer);
}

uint32_t
os_cputime_get32(void)
{
    189c:	b508      	push	{r3, lr}
    uint32_t cpu_time;

    cpu_time = hal_timer_read(MYNEWT_VAL(OS_CPUTIME_TIMER_NUM));
    189e:	2000      	movs	r0, #0
    18a0:	f7ff ff6c 	bl	177c <hal_timer_read>
    return cpu_time;
}
    18a4:	bd08      	pop	{r3, pc}

000018a6 <os_cputime_delay_ticks>:
{
    18a6:	b510      	push	{r4, lr}
    18a8:	4604      	mov	r4, r0
    until = os_cputime_get32() + ticks;
    18aa:	f7ff fff7 	bl	189c <os_cputime_get32>
    18ae:	4404      	add	r4, r0
    while ((int32_t)(os_cputime_get32() - until) < 0) {
    18b0:	f7ff fff4 	bl	189c <os_cputime_get32>
    18b4:	1b00      	subs	r0, r0, r4
    18b6:	2800      	cmp	r0, #0
    18b8:	dbfa      	blt.n	18b0 <os_cputime_delay_ticks+0xa>
}
    18ba:	bd10      	pop	{r4, pc}

000018bc <os_cputime_delay_usecs>:
{
    18bc:	b508      	push	{r3, lr}
    os_cputime_delay_ticks(ticks);
    18be:	f7ff fff2 	bl	18a6 <os_cputime_delay_ticks>
}
    18c2:	bd08      	pop	{r3, pc}

000018c4 <os_dev_initialize>:
 *
 * @return 0 on success, non-zero on failure.
 */
static int
os_dev_initialize(struct os_dev *dev)
{
    18c4:	b510      	push	{r4, lr}
    18c6:	4604      	mov	r4, r0
    int rc;

    rc = dev->od_init(dev, dev->od_init_arg);
    18c8:	6903      	ldr	r3, [r0, #16]
    18ca:	6941      	ldr	r1, [r0, #20]
    18cc:	4798      	blx	r3
    if (rc != 0) {
    18ce:	4603      	mov	r3, r0
    18d0:	b128      	cbz	r0, 18de <os_dev_initialize+0x1a>
        if (dev->od_flags & OS_DEV_F_INIT_CRITICAL) {
    18d2:	7ee2      	ldrb	r2, [r4, #27]
    18d4:	f012 0f08 	tst.w	r2, #8
    18d8:	d105      	bne.n	18e6 <os_dev_initialize+0x22>
            goto err;
        }
    } else {
        dev->od_flags |= OS_DEV_F_STATUS_READY;
    }
    return 0;
    18da:	2300      	movs	r3, #0
    18dc:	e003      	b.n	18e6 <os_dev_initialize+0x22>
        dev->od_flags |= OS_DEV_F_STATUS_READY;
    18de:	7ee2      	ldrb	r2, [r4, #27]
    18e0:	f042 0201 	orr.w	r2, r2, #1
    18e4:	76e2      	strb	r2, [r4, #27]
err:
    return rc;
}
    18e6:	4618      	mov	r0, r3
    18e8:	bd10      	pop	{r4, pc}
	...

000018ec <os_dev_initialize_all>:
    return (rc);
}

int
os_dev_initialize_all(uint8_t stage)
{
    18ec:	b538      	push	{r3, r4, r5, lr}
    18ee:	4605      	mov	r5, r0
    struct os_dev *dev;
    int rc = 0;

    STAILQ_FOREACH(dev, &g_os_dev_list, od_next) {
    18f0:	4b08      	ldr	r3, [pc, #32]	; (1914 <os_dev_initialize_all+0x28>)
    18f2:	681c      	ldr	r4, [r3, #0]
    int rc = 0;
    18f4:	2200      	movs	r2, #0
    STAILQ_FOREACH(dev, &g_os_dev_list, od_next) {
    18f6:	e000      	b.n	18fa <os_dev_initialize_all+0xe>
    18f8:	6a24      	ldr	r4, [r4, #32]
    18fa:	b144      	cbz	r4, 190e <os_dev_initialize_all+0x22>
        if (dev->od_stage == stage) {
    18fc:	7e23      	ldrb	r3, [r4, #24]
    18fe:	42ab      	cmp	r3, r5
    1900:	d1fa      	bne.n	18f8 <os_dev_initialize_all+0xc>
            rc = os_dev_initialize(dev);
    1902:	4620      	mov	r0, r4
    1904:	f7ff ffde 	bl	18c4 <os_dev_initialize>
            if (rc) {
    1908:	4602      	mov	r2, r0
    190a:	2800      	cmp	r0, #0
    190c:	d0f4      	beq.n	18f8 <os_dev_initialize_all+0xc>
            }
        }
    }

    return (rc);
}
    190e:	4610      	mov	r0, r2
    1910:	bd38      	pop	{r3, r4, r5, pc}
    1912:	bf00      	nop
    1914:	200001a4 	.word	0x200001a4

00001918 <timer_handler>:
/* XXX: determine how we will deal with running un-privileged */
uint32_t os_flags = OS_RUN_PRIV;

void
timer_handler(void)
{
    1918:	b508      	push	{r3, lr}
    os_time_advance(1);
    191a:	2001      	movs	r0, #1
    191c:	f000 f95e 	bl	1bdc <os_time_advance>
}
    1920:	bd08      	pop	{r3, pc}

00001922 <os_arch_save_sr>:
  __ASM volatile ("MRS %0, primask" : "=r" (result) :: "memory");
    1922:	f3ef 8010 	mrs	r0, PRIMASK

#if MCU_CRITICAL_BASEPRI
    isr_ctx = __get_BASEPRI();
    __set_BASEPRI((MCU_CRITICAL_BASEPRI) << (8 - __NVIC_PRIO_BITS));
#else
    isr_ctx = __get_PRIMASK() & 1;
    1926:	f000 0001 	and.w	r0, r0, #1
  __ASM volatile ("cpsid i" : : : "memory");
    192a:	b672      	cpsid	i
    __disable_irq();
#endif

    return isr_ctx;
}
    192c:	4770      	bx	lr

0000192e <os_arch_restore_sr>:
os_arch_restore_sr(os_sr_t isr_ctx)
{
#if MCU_CRITICAL_BASEPRI
    __set_BASEPRI(isr_ctx);
#else
    if (!isr_ctx) {
    192e:	b900      	cbnz	r0, 1932 <os_arch_restore_sr+0x4>
  __ASM volatile ("cpsie i" : : : "memory");
    1930:	b662      	cpsie	i
        __enable_irq();
    }
#endif
}
    1932:	4770      	bx	lr

00001934 <os_pkg_init>:
    hal_system_reset();
}

void
os_pkg_init(void)
{
    1934:	b508      	push	{r3, lr}
    os_error_t err;

    /* Ensure this function only gets called by sysinit. */
    SYSINIT_ASSERT_ACTIVE();

    err = os_dev_initialize_all(OS_DEV_INIT_KERNEL);
    1936:	2003      	movs	r0, #3
    1938:	f7ff ffd8 	bl	18ec <os_dev_initialize_all>
    193c:	b2c0      	uxtb	r0, r0
    assert(err == OS_OK);
    193e:	b920      	cbnz	r0, 194a <os_pkg_init+0x16>

    os_mempool_module_init();
    1940:	f000 f898 	bl	1a74 <os_mempool_module_init>
    os_msys_init();
    1944:	f000 f92a 	bl	1b9c <os_msys_init>
}
    1948:	bd08      	pop	{r3, pc}
    assert(err == OS_OK);
    194a:	f7fe fc0b 	bl	164 <hal_debugger_connected>
    194e:	b100      	cbz	r0, 1952 <os_pkg_init+0x1e>
    1950:	be01      	bkpt	0x0001
    1952:	2300      	movs	r3, #0
    1954:	461a      	mov	r2, r3
    1956:	4619      	mov	r1, r3
    1958:	4618      	mov	r0, r3
    195a:	f7ff ff2b 	bl	17b4 <__assert_func>

0000195e <os_eventq_init>:
static struct os_eventq os_eventq_main;

void
os_eventq_init(struct os_eventq *evq)
{
    memset(evq, 0, sizeof(*evq));
    195e:	2200      	movs	r2, #0
    1960:	6002      	str	r2, [r0, #0]
    1962:	6042      	str	r2, [r0, #4]
    STAILQ_INIT(&evq->evq_list);
    1964:	4603      	mov	r3, r0
    1966:	f843 2f08 	str.w	r2, [r3, #8]!
    196a:	60c3      	str	r3, [r0, #12]
}
    196c:	4770      	bx	lr
	...

00001970 <os_mempool_init_internal>:
    int i;
    uint8_t *block_addr;
    struct os_memblock *block_ptr;

    /* Check for valid parameters */
    if (!mp || (block_size == 0)) {
    1970:	2800      	cmp	r0, #0
    1972:	d031      	beq.n	19d8 <os_mempool_init_internal+0x68>
{
    1974:	b430      	push	{r4, r5}
    1976:	4604      	mov	r4, r0
    if (!mp || (block_size == 0)) {
    1978:	2a00      	cmp	r2, #0
    197a:	d02f      	beq.n	19dc <os_mempool_init_internal+0x6c>
        return OS_INVALID_PARM;
    }

    if ((!membuf) && (blocks != 0)) {
    197c:	b1bb      	cbz	r3, 19ae <os_mempool_init_internal+0x3e>
        return OS_INVALID_PARM;
    }

    if (membuf != NULL) {
    197e:	b113      	cbz	r3, 1986 <os_mempool_init_internal+0x16>
        /* Blocks need to be sized properly and memory buffer should be
         * aligned
         */
        if (((uint32_t)membuf & (OS_ALIGNMENT - 1)) != 0) {
    1980:	f013 0f03 	tst.w	r3, #3
    1984:	d12c      	bne.n	19e0 <os_mempool_init_internal+0x70>
            return OS_MEM_NOT_ALIGNED;
        }
    }

    /* Initialize the memory pool structure */
    mp->mp_block_size = block_size;
    1986:	6022      	str	r2, [r4, #0]
    mp->mp_num_free = blocks;
    1988:	80e1      	strh	r1, [r4, #6]
    mp->mp_min_free = blocks;
    198a:	8121      	strh	r1, [r4, #8]
    mp->mp_flags = flags;
    198c:	f89d 000c 	ldrb.w	r0, [sp, #12]
    1990:	72a0      	strb	r0, [r4, #10]
    mp->mp_num_blocks = blocks;
    1992:	80a1      	strh	r1, [r4, #4]
    mp->mp_membuf_addr = (uint32_t)membuf;
    1994:	60e3      	str	r3, [r4, #12]
    mp->name = name;
    1996:	9802      	ldr	r0, [sp, #8]
    1998:	61a0      	str	r0, [r4, #24]
    SLIST_FIRST(mp) = membuf;
    199a:	6163      	str	r3, [r4, #20]

    if (blocks > 0) {
    199c:	b199      	cbz	r1, 19c6 <os_mempool_init_internal+0x56>
        os_mempool_poison(mp, membuf);
        os_mempool_guard(mp, membuf);
        true_block_size = OS_MEMPOOL_TRUE_BLOCK_SIZE(mp);
    199e:	f012 0f03 	tst.w	r2, #3
    19a2:	d002      	beq.n	19aa <os_mempool_init_internal+0x3a>
    19a4:	f022 0203 	bic.w	r2, r2, #3
    19a8:	3204      	adds	r2, #4

        /* Chain the memory blocks to the free list */
        block_addr = (uint8_t *)membuf;
        block_ptr = (struct os_memblock *)block_addr;
        for (i = 1; i < blocks; i++) {
    19aa:	2001      	movs	r0, #1
    19ac:	e007      	b.n	19be <os_mempool_init_internal+0x4e>
    if ((!membuf) && (blocks != 0)) {
    19ae:	2900      	cmp	r1, #0
    19b0:	d0e5      	beq.n	197e <os_mempool_init_internal+0xe>
        return OS_INVALID_PARM;
    19b2:	2003      	movs	r0, #3
    19b4:	e00e      	b.n	19d4 <os_mempool_init_internal+0x64>
            block_addr += true_block_size;
    19b6:	189d      	adds	r5, r3, r2
            os_mempool_poison(mp, block_addr);
            os_mempool_guard(mp, block_addr);
            SLIST_NEXT(block_ptr, mb_next) = (struct os_memblock *)block_addr;
    19b8:	601d      	str	r5, [r3, #0]
        for (i = 1; i < blocks; i++) {
    19ba:	3001      	adds	r0, #1
            block_addr += true_block_size;
    19bc:	462b      	mov	r3, r5
        for (i = 1; i < blocks; i++) {
    19be:	4281      	cmp	r1, r0
    19c0:	dcf9      	bgt.n	19b6 <os_mempool_init_internal+0x46>
            block_ptr = (struct os_memblock *)block_addr;
        }

        /* Last one in the list should be NULL */
        SLIST_NEXT(block_ptr, mb_next) = NULL;
    19c2:	2200      	movs	r2, #0
    19c4:	601a      	str	r2, [r3, #0]
    }

    STAILQ_INSERT_TAIL(&g_os_mempool_list, mp, mp_list);
    19c6:	2000      	movs	r0, #0
    19c8:	6120      	str	r0, [r4, #16]
    19ca:	4b06      	ldr	r3, [pc, #24]	; (19e4 <os_mempool_init_internal+0x74>)
    19cc:	685a      	ldr	r2, [r3, #4]
    19ce:	6014      	str	r4, [r2, #0]
    19d0:	3410      	adds	r4, #16
    19d2:	605c      	str	r4, [r3, #4]

    return OS_OK;
}
    19d4:	bc30      	pop	{r4, r5}
    19d6:	4770      	bx	lr
        return OS_INVALID_PARM;
    19d8:	2003      	movs	r0, #3
}
    19da:	4770      	bx	lr
        return OS_INVALID_PARM;
    19dc:	2003      	movs	r0, #3
    19de:	e7f9      	b.n	19d4 <os_mempool_init_internal+0x64>
            return OS_MEM_NOT_ALIGNED;
    19e0:	2004      	movs	r0, #4
    19e2:	e7f7      	b.n	19d4 <os_mempool_init_internal+0x64>
    19e4:	200001b0 	.word	0x200001b0

000019e8 <os_mempool_init>:

os_error_t
os_mempool_init(struct os_mempool *mp, uint16_t blocks, uint32_t block_size,
                void *membuf, char *name)
{
    19e8:	b510      	push	{r4, lr}
    19ea:	b082      	sub	sp, #8
    return os_mempool_init_internal(mp, blocks, block_size, membuf, name, 0);
    19ec:	2400      	movs	r4, #0
    19ee:	9401      	str	r4, [sp, #4]
    19f0:	9c04      	ldr	r4, [sp, #16]
    19f2:	9400      	str	r4, [sp, #0]
    19f4:	f7ff ffbc 	bl	1970 <os_mempool_init_internal>
}
    19f8:	b002      	add	sp, #8
    19fa:	bd10      	pop	{r4, pc}

000019fc <os_memblock_get>:
    return 1;
}

void *
os_memblock_get(struct os_mempool *mp)
{
    19fc:	b538      	push	{r3, r4, r5, lr}

    os_trace_api_u32(OS_TRACE_ID_MEMBLOCK_GET, (uint32_t)mp);

    /* Check to make sure they passed in a memory pool (or something) */
    block = NULL;
    if (mp) {
    19fe:	b1a0      	cbz	r0, 1a2a <os_memblock_get+0x2e>
    1a00:	4604      	mov	r4, r0
        OS_ENTER_CRITICAL(sr);
    1a02:	f7ff ff8e 	bl	1922 <os_arch_save_sr>
        /* Check for any free */
        if (mp->mp_num_free) {
    1a06:	88e3      	ldrh	r3, [r4, #6]
    1a08:	b153      	cbz	r3, 1a20 <os_memblock_get+0x24>
            /* Get a free block */
            block = SLIST_FIRST(mp);
    1a0a:	6965      	ldr	r5, [r4, #20]

            /* Set new free list head */
            SLIST_FIRST(mp) = SLIST_NEXT(block, mb_next);
    1a0c:	682a      	ldr	r2, [r5, #0]
    1a0e:	6162      	str	r2, [r4, #20]

            /* Decrement number free by 1 */
            mp->mp_num_free--;
    1a10:	3b01      	subs	r3, #1
    1a12:	b29b      	uxth	r3, r3
    1a14:	80e3      	strh	r3, [r4, #6]
            if (mp->mp_min_free > mp->mp_num_free) {
    1a16:	8922      	ldrh	r2, [r4, #8]
    1a18:	4293      	cmp	r3, r2
    1a1a:	d202      	bcs.n	1a22 <os_memblock_get+0x26>
                mp->mp_min_free = mp->mp_num_free;
    1a1c:	8123      	strh	r3, [r4, #8]
    1a1e:	e000      	b.n	1a22 <os_memblock_get+0x26>
    block = NULL;
    1a20:	2500      	movs	r5, #0
            }
        }
        OS_EXIT_CRITICAL(sr);
    1a22:	f7ff ff84 	bl	192e <os_arch_restore_sr>
    }

    os_trace_api_ret_u32(OS_TRACE_ID_MEMBLOCK_GET, (uint32_t)block);

    return (void *)block;
}
    1a26:	4628      	mov	r0, r5
    1a28:	bd38      	pop	{r3, r4, r5, pc}
    block = NULL;
    1a2a:	2500      	movs	r5, #0
    return (void *)block;
    1a2c:	e7fb      	b.n	1a26 <os_memblock_get+0x2a>

00001a2e <os_memblock_put_from_cb>:

os_error_t
os_memblock_put_from_cb(struct os_mempool *mp, void *block_addr)
{
    1a2e:	b538      	push	{r3, r4, r5, lr}
    1a30:	4604      	mov	r4, r0
    1a32:	460d      	mov	r5, r1

    os_mempool_guard_check(mp, block_addr);
    os_mempool_poison(mp, block_addr);

    block = (struct os_memblock *)block_addr;
    OS_ENTER_CRITICAL(sr);
    1a34:	f7ff ff75 	bl	1922 <os_arch_save_sr>

    /* Chain current free list pointer to this block; make this block head */
    SLIST_NEXT(block, mb_next) = SLIST_FIRST(mp);
    1a38:	6963      	ldr	r3, [r4, #20]
    1a3a:	602b      	str	r3, [r5, #0]
    SLIST_FIRST(mp) = block;
    1a3c:	6165      	str	r5, [r4, #20]

    /* XXX: Should we check that the number free <= number blocks? */
    /* Increment number free */
    mp->mp_num_free++;
    1a3e:	88e3      	ldrh	r3, [r4, #6]
    1a40:	3301      	adds	r3, #1
    1a42:	80e3      	strh	r3, [r4, #6]

    OS_EXIT_CRITICAL(sr);
    1a44:	f7ff ff73 	bl	192e <os_arch_restore_sr>

    os_trace_api_ret_u32(OS_TRACE_ID_MEMBLOCK_PUT_FROM_CB, (uint32_t)OS_OK);

    return OS_OK;
}
    1a48:	2000      	movs	r0, #0
    1a4a:	bd38      	pop	{r3, r4, r5, pc}

00001a4c <os_memblock_put>:

    os_trace_api_u32x2(OS_TRACE_ID_MEMBLOCK_PUT, (uint32_t)mp,
                       (uint32_t)block_addr);

    /* Make sure parameters are valid */
    if ((mp == NULL) || (block_addr == NULL)) {
    1a4c:	b168      	cbz	r0, 1a6a <os_memblock_put+0x1e>
{
    1a4e:	b508      	push	{r3, lr}
    if ((mp == NULL) || (block_addr == NULL)) {
    1a50:	b169      	cbz	r1, 1a6e <os_memblock_put+0x22>
    }
#endif
    /* If this is an extended mempool with a put callback, call the callback
     * instead of freeing the block directly.
     */
    if (mp->mp_flags & OS_MEMPOOL_F_EXT) {
    1a52:	7a83      	ldrb	r3, [r0, #10]
    1a54:	f013 0f01 	tst.w	r3, #1
    1a58:	d004      	beq.n	1a64 <os_memblock_put+0x18>
        mpe = (struct os_mempool_ext *)mp;
        if (mpe->mpe_put_cb != NULL) {
    1a5a:	69c3      	ldr	r3, [r0, #28]
    1a5c:	b113      	cbz	r3, 1a64 <os_memblock_put+0x18>
            ret = mpe->mpe_put_cb(mpe, block_addr, mpe->mpe_put_arg);
    1a5e:	6a02      	ldr	r2, [r0, #32]
    1a60:	4798      	blx	r3
    ret = os_memblock_put_from_cb(mp, block_addr);

done:
    os_trace_api_ret_u32(OS_TRACE_ID_MEMBLOCK_PUT, (uint32_t)ret);
    return ret;
}
    1a62:	bd08      	pop	{r3, pc}
    ret = os_memblock_put_from_cb(mp, block_addr);
    1a64:	f7ff ffe3 	bl	1a2e <os_memblock_put_from_cb>
    1a68:	e7fb      	b.n	1a62 <os_memblock_put+0x16>
        ret = OS_INVALID_PARM;
    1a6a:	2003      	movs	r0, #3
}
    1a6c:	4770      	bx	lr
        ret = OS_INVALID_PARM;
    1a6e:	2003      	movs	r0, #3
    1a70:	e7f7      	b.n	1a62 <os_memblock_put+0x16>
	...

00001a74 <os_mempool_module_init>:
}

void
os_mempool_module_init(void)
{
    STAILQ_INIT(&g_os_mempool_list);
    1a74:	4b02      	ldr	r3, [pc, #8]	; (1a80 <os_mempool_module_init+0xc>)
    1a76:	2200      	movs	r2, #0
    1a78:	601a      	str	r2, [r3, #0]
    1a7a:	605b      	str	r3, [r3, #4]
}
    1a7c:	4770      	bx	lr
    1a7e:	bf00      	nop
    1a80:	200001b0 	.word	0x200001b0

00001a84 <os_msys_find_biggest_pool>:

static struct os_mbuf_pool *
os_msys_find_biggest_pool(void)
{
    /* Mempools are sorted by the blocksize, so just return last one */
    return STAILQ_LAST(&g_msys_pool_list, os_mbuf_pool, omp_next);
    1a84:	4b02      	ldr	r3, [pc, #8]	; (1a90 <os_msys_find_biggest_pool+0xc>)
    1a86:	6818      	ldr	r0, [r3, #0]
    1a88:	b108      	cbz	r0, 1a8e <os_msys_find_biggest_pool+0xa>
    1a8a:	6858      	ldr	r0, [r3, #4]
    1a8c:	3808      	subs	r0, #8
}
    1a8e:	4770      	bx	lr
    1a90:	20000138 	.word	0x20000138

00001a94 <os_msys_find_pool>:
os_msys_find_pool(uint16_t dsize)
{
    struct os_mbuf_pool *pool;

    pool = NULL;
    STAILQ_FOREACH(pool, &g_msys_pool_list, omp_next) {
    1a94:	4b09      	ldr	r3, [pc, #36]	; (1abc <os_msys_find_pool+0x28>)
    1a96:	6819      	ldr	r1, [r3, #0]
    1a98:	460b      	mov	r3, r1
    1a9a:	b123      	cbz	r3, 1aa6 <os_msys_find_pool+0x12>
        if (dsize <= pool->omp_databuf_len) {
    1a9c:	881a      	ldrh	r2, [r3, #0]
    1a9e:	4282      	cmp	r2, r0
    1aa0:	d201      	bcs.n	1aa6 <os_msys_find_pool+0x12>
    STAILQ_FOREACH(pool, &g_msys_pool_list, omp_next) {
    1aa2:	689b      	ldr	r3, [r3, #8]
    1aa4:	e7f9      	b.n	1a9a <os_msys_find_pool+0x6>
            break;
        }
    }

    if (!pool) {
    1aa6:	b10b      	cbz	r3, 1aac <os_msys_find_pool+0x18>
        pool = STAILQ_LAST(&g_msys_pool_list, os_mbuf_pool, omp_next);
    }

    return (pool);
}
    1aa8:	4618      	mov	r0, r3
    1aaa:	4770      	bx	lr
        pool = STAILQ_LAST(&g_msys_pool_list, os_mbuf_pool, omp_next);
    1aac:	b119      	cbz	r1, 1ab6 <os_msys_find_pool+0x22>
    1aae:	4b03      	ldr	r3, [pc, #12]	; (1abc <os_msys_find_pool+0x28>)
    1ab0:	685b      	ldr	r3, [r3, #4]
    1ab2:	3b08      	subs	r3, #8
    1ab4:	e7f8      	b.n	1aa8 <os_msys_find_pool+0x14>
    1ab6:	460b      	mov	r3, r1
    return (pool);
    1ab8:	e7f6      	b.n	1aa8 <os_msys_find_pool+0x14>
    1aba:	bf00      	nop
    1abc:	20000138 	.word	0x20000138

00001ac0 <os_msys_register>:
{
    1ac0:	b430      	push	{r4, r5}
    STAILQ_FOREACH(pool, &g_msys_pool_list, omp_next) {
    1ac2:	4b11      	ldr	r3, [pc, #68]	; (1b08 <os_msys_register+0x48>)
    1ac4:	681d      	ldr	r5, [r3, #0]
    1ac6:	462b      	mov	r3, r5
    prev = NULL;
    1ac8:	2400      	movs	r4, #0
    STAILQ_FOREACH(pool, &g_msys_pool_list, omp_next) {
    1aca:	b133      	cbz	r3, 1ada <os_msys_register+0x1a>
        if (new_pool->omp_databuf_len < pool->omp_databuf_len) {
    1acc:	8801      	ldrh	r1, [r0, #0]
    1ace:	881a      	ldrh	r2, [r3, #0]
    1ad0:	4291      	cmp	r1, r2
    1ad2:	d302      	bcc.n	1ada <os_msys_register+0x1a>
        prev = pool;
    1ad4:	461c      	mov	r4, r3
    STAILQ_FOREACH(pool, &g_msys_pool_list, omp_next) {
    1ad6:	689b      	ldr	r3, [r3, #8]
    1ad8:	e7f7      	b.n	1aca <os_msys_register+0xa>
    if (prev) {
    1ada:	b15c      	cbz	r4, 1af4 <os_msys_register+0x34>
        STAILQ_INSERT_AFTER(&g_msys_pool_list, prev, new_pool, omp_next);
    1adc:	68a3      	ldr	r3, [r4, #8]
    1ade:	6083      	str	r3, [r0, #8]
    1ae0:	b11b      	cbz	r3, 1aea <os_msys_register+0x2a>
    1ae2:	60a0      	str	r0, [r4, #8]
}
    1ae4:	2000      	movs	r0, #0
    1ae6:	bc30      	pop	{r4, r5}
    1ae8:	4770      	bx	lr
        STAILQ_INSERT_AFTER(&g_msys_pool_list, prev, new_pool, omp_next);
    1aea:	f100 0308 	add.w	r3, r0, #8
    1aee:	4a06      	ldr	r2, [pc, #24]	; (1b08 <os_msys_register+0x48>)
    1af0:	6053      	str	r3, [r2, #4]
    1af2:	e7f6      	b.n	1ae2 <os_msys_register+0x22>
        STAILQ_INSERT_HEAD(&g_msys_pool_list, new_pool, omp_next);
    1af4:	6085      	str	r5, [r0, #8]
    1af6:	b115      	cbz	r5, 1afe <os_msys_register+0x3e>
    1af8:	4b03      	ldr	r3, [pc, #12]	; (1b08 <os_msys_register+0x48>)
    1afa:	6018      	str	r0, [r3, #0]
    1afc:	e7f2      	b.n	1ae4 <os_msys_register+0x24>
    1afe:	f100 0308 	add.w	r3, r0, #8
    1b02:	4a01      	ldr	r2, [pc, #4]	; (1b08 <os_msys_register+0x48>)
    1b04:	6053      	str	r3, [r2, #4]
    1b06:	e7f7      	b.n	1af8 <os_msys_register+0x38>
    1b08:	20000138 	.word	0x20000138

00001b0c <os_msys_init_once>:

static void
os_msys_init_once(void *data, struct os_mempool *mempool,
                  struct os_mbuf_pool *mbuf_pool,
                  int block_count, int block_size, char *name)
{
    1b0c:	b530      	push	{r4, r5, lr}
    1b0e:	b083      	sub	sp, #12
    1b10:	4614      	mov	r4, r2
    int rc;

    rc = mem_init_mbuf_pool(data, mempool, mbuf_pool, block_count, block_size,
    1b12:	9d07      	ldr	r5, [sp, #28]
    1b14:	9501      	str	r5, [sp, #4]
    1b16:	9d06      	ldr	r5, [sp, #24]
    1b18:	9500      	str	r5, [sp, #0]
    1b1a:	f000 febf 	bl	289c <mem_init_mbuf_pool>
                            name);
    SYSINIT_PANIC_ASSERT(rc == 0);
    1b1e:	b928      	cbnz	r0, 1b2c <os_msys_init_once+0x20>

    rc = os_msys_register(mbuf_pool);
    1b20:	4620      	mov	r0, r4
    1b22:	f7ff ffcd 	bl	1ac0 <os_msys_register>
    SYSINIT_PANIC_ASSERT(rc == 0);
    1b26:	b970      	cbnz	r0, 1b46 <os_msys_init_once+0x3a>
}
    1b28:	b003      	add	sp, #12
    1b2a:	bd30      	pop	{r4, r5, pc}
    SYSINIT_PANIC_ASSERT(rc == 0);
    1b2c:	f7fe fb1a 	bl	164 <hal_debugger_connected>
    1b30:	b100      	cbz	r0, 1b34 <os_msys_init_once+0x28>
    1b32:	be01      	bkpt	0x0001
    1b34:	2000      	movs	r0, #0
    1b36:	9000      	str	r0, [sp, #0]
    1b38:	4b09      	ldr	r3, [pc, #36]	; (1b60 <os_msys_init_once+0x54>)
    1b3a:	681d      	ldr	r5, [r3, #0]
    1b3c:	4603      	mov	r3, r0
    1b3e:	4602      	mov	r2, r0
    1b40:	4601      	mov	r1, r0
    1b42:	47a8      	blx	r5
    1b44:	e7ec      	b.n	1b20 <os_msys_init_once+0x14>
    SYSINIT_PANIC_ASSERT(rc == 0);
    1b46:	f7fe fb0d 	bl	164 <hal_debugger_connected>
    1b4a:	b100      	cbz	r0, 1b4e <os_msys_init_once+0x42>
    1b4c:	be01      	bkpt	0x0001
    1b4e:	2000      	movs	r0, #0
    1b50:	9000      	str	r0, [sp, #0]
    1b52:	4b03      	ldr	r3, [pc, #12]	; (1b60 <os_msys_init_once+0x54>)
    1b54:	681c      	ldr	r4, [r3, #0]
    1b56:	4603      	mov	r3, r0
    1b58:	4602      	mov	r2, r0
    1b5a:	4601      	mov	r1, r0
    1b5c:	47a0      	blx	r4
}
    1b5e:	e7e3      	b.n	1b28 <os_msys_init_once+0x1c>
    1b60:	20000150 	.word	0x20000150

00001b64 <os_msys_reset>:
    STAILQ_INIT(&g_msys_pool_list);
    1b64:	4b02      	ldr	r3, [pc, #8]	; (1b70 <os_msys_reset+0xc>)
    1b66:	2200      	movs	r2, #0
    1b68:	601a      	str	r2, [r3, #0]
    1b6a:	605b      	str	r3, [r3, #4]
}
    1b6c:	4770      	bx	lr
    1b6e:	bf00      	nop
    1b70:	20000138 	.word	0x20000138

00001b74 <os_msys_get_pkthdr>:
{
    1b74:	b510      	push	{r4, lr}
    1b76:	460c      	mov	r4, r1
    if (dsize == 0) {
    1b78:	b930      	cbnz	r0, 1b88 <os_msys_get_pkthdr+0x14>
        pool = os_msys_find_biggest_pool();
    1b7a:	f7ff ff83 	bl	1a84 <os_msys_find_biggest_pool>
    if (!pool) {
    1b7e:	b158      	cbz	r0, 1b98 <os_msys_get_pkthdr+0x24>
    m = os_mbuf_get_pkthdr(pool, user_hdr_len);
    1b80:	b2e1      	uxtb	r1, r4
    1b82:	f000 f8b5 	bl	1cf0 <os_mbuf_get_pkthdr>
}
    1b86:	bd10      	pop	{r4, pc}
    1b88:	f101 0308 	add.w	r3, r1, #8
    1b8c:	b29b      	uxth	r3, r3
        pool = os_msys_find_pool(dsize + total_pkthdr_len);
    1b8e:	4403      	add	r3, r0
    1b90:	b298      	uxth	r0, r3
    1b92:	f7ff ff7f 	bl	1a94 <os_msys_find_pool>
    1b96:	e7f2      	b.n	1b7e <os_msys_get_pkthdr+0xa>
    return (NULL);
    1b98:	2000      	movs	r0, #0
    1b9a:	e7f4      	b.n	1b86 <os_msys_get_pkthdr+0x12>

00001b9c <os_msys_init>:

void
os_msys_init(void)
{
    1b9c:	b500      	push	{lr}
    1b9e:	b083      	sub	sp, #12
    int rc;

    os_msys_reset();
    1ba0:	f7ff ffe0 	bl	1b64 <os_msys_reset>

    (void)os_msys_init_once;
    (void)rc;

#if MYNEWT_VAL(MSYS_1_BLOCK_COUNT) > 0
    os_msys_init_once(os_msys_1_data,
    1ba4:	4b06      	ldr	r3, [pc, #24]	; (1bc0 <os_msys_init+0x24>)
    1ba6:	9301      	str	r3, [sp, #4]
    1ba8:	f44f 7392 	mov.w	r3, #292	; 0x124
    1bac:	9300      	str	r3, [sp, #0]
    1bae:	2340      	movs	r3, #64	; 0x40
    1bb0:	4a04      	ldr	r2, [pc, #16]	; (1bc4 <os_msys_init+0x28>)
    1bb2:	4905      	ldr	r1, [pc, #20]	; (1bc8 <os_msys_init+0x2c>)
    1bb4:	4805      	ldr	r0, [pc, #20]	; (1bcc <os_msys_init+0x30>)
    1bb6:	f7ff ffa9 	bl	1b0c <os_msys_init_once>
    os_msys_sc.sc_checkin_itvl =
        OS_TICKS_PER_SEC * MYNEWT_VAL(MSYS_SANITY_TIMEOUT) / 1000;
    rc = os_sanity_check_register(&os_msys_sc);
    SYSINIT_PANIC_ASSERT(rc == 0);
#endif
}
    1bba:	b003      	add	sp, #12
    1bbc:	f85d fb04 	ldr.w	pc, [sp], #4
    1bc0:	00005a34 	.word	0x00005a34
    1bc4:	20004ab8 	.word	0x20004ab8
    1bc8:	20004ac4 	.word	0x20004ac4
    1bcc:	200001b8 	.word	0x200001b8

00001bd0 <os_time_get>:

os_time_t
os_time_get(void)
{
    return (g_os_time);
}
    1bd0:	4b01      	ldr	r3, [pc, #4]	; (1bd8 <os_time_get+0x8>)
    1bd2:	6818      	ldr	r0, [r3, #0]
    1bd4:	4770      	bx	lr
    1bd6:	bf00      	nop
    1bd8:	20004ae4 	.word	0x20004ae4

00001bdc <os_time_advance>:
#else

void
os_time_advance(int ticks)
{
    g_os_time += ticks;
    1bdc:	4a02      	ldr	r2, [pc, #8]	; (1be8 <os_time_advance+0xc>)
    1bde:	6813      	ldr	r3, [r2, #0]
    1be0:	4418      	add	r0, r3
    1be2:	6010      	str	r0, [r2, #0]
}
    1be4:	4770      	bx	lr
    1be6:	bf00      	nop
    1be8:	20004ae4 	.word	0x20004ae4

00001bec <os_set_env>:
        .global os_set_env
os_set_env:
        .fnstart
        .cantunwind

        MSR     PSP,R0
    1bec:	f380 8809 	msr	PSP, r0
        LDR     R0,=os_flags
    1bf0:	482b      	ldr	r0, [pc, #172]	; (1ca0 <os_default_irq_asm+0x1e>)
        LDRB    R0,[R0]
    1bf2:	7800      	ldrb	r0, [r0, #0]
        ADDS    R0, R0, #2
    1bf4:	3002      	adds	r0, #2
        MSR     CONTROL,R0
    1bf6:	f380 8814 	msr	CONTROL, r0
        ISB
    1bfa:	f3bf 8f6f 	isb	sy
        BX      LR
    1bfe:	4770      	bx	lr

00001c00 <os_arch_init_task_stack>:
        .type   os_arch_init_task_stack, %function
        .global os_arch_init_task_stack
os_arch_init_task_stack:
        .fnstart

        STMIA   R0,{R4-R11}
    1c00:	e880 0ff0 	stmia.w	r0, {r4, r5, r6, r7, r8, r9, sl, fp}
        BX      LR
    1c04:	4770      	bx	lr

00001c06 <SVC_Handler>:
        PUSH    {R4,LR}
        BL      os_trace_isr_enter
        POP     {R4,LR}
#endif

        MRS     R0,PSP                  /* Read PSP */
    1c06:	f3ef 8009 	mrs	r0, PSP
        LDR     R1,[R0,#24]             /* Read Saved PC from Stack */
    1c0a:	6981      	ldr	r1, [r0, #24]
        LDRB    R1,[R1,#-2]             /* Load SVC Number */
    1c0c:	f811 1c02 	ldrb.w	r1, [r1, #-2]
        CBNZ    R1,SVC_User
    1c10:	b951      	cbnz	r1, 1c28 <SVC_User>

        LDM     R0,{R0-R3,R12}          /* Read R0-R3,R12 from stack */
    1c12:	e890 100f 	ldmia.w	r0, {r0, r1, r2, r3, ip}
        PUSH    {R4,LR}                 /* Save EXC_RETURN */
    1c16:	b510      	push	{r4, lr}
        BLX     R12                     /* Call SVC Function */
    1c18:	47e0      	blx	ip
        POP     {R4,LR}                 /* Restore EXC_RETURN */
    1c1a:	e8bd 4010 	ldmia.w	sp!, {r4, lr}

        MRS     R12,PSP                 /* Read PSP */
    1c1e:	f3ef 8c09 	mrs	ip, PSP
        STM     R12,{R0-R2}             /* Store return values */
    1c22:	e88c 0007 	stmia.w	ip, {r0, r1, r2}
        PUSH    {R4,LR}
        BL      os_trace_isr_exit
        POP     {R4,LR}
#endif

        BX      LR                      /* Return from interrupt */
    1c26:	4770      	bx	lr

00001c28 <SVC_User>:

        /*------------------- User SVC ------------------------------*/
SVC_User:
        PUSH    {R4,LR}                 /* Save EXC_RETURN */
    1c28:	b510      	push	{r4, lr}
        LDR     R2,=SVC_Count
    1c2a:	4a1e      	ldr	r2, [pc, #120]	; (1ca4 <os_default_irq_asm+0x22>)
        LDR     R2,[R2]
    1c2c:	6812      	ldr	r2, [r2, #0]
        CMP     R1,R2
    1c2e:	4291      	cmp	r1, r2
        BHI     SVC_Done                /* Overflow */
    1c30:	d809      	bhi.n	1c46 <SVC_Done>

        LDR     R4,=SVC_Table-4
    1c32:	4c1d      	ldr	r4, [pc, #116]	; (1ca8 <os_default_irq_asm+0x26>)
        LDR     R4,[R4,R1,LSL #2]       /* Load SVC Function Address */
    1c34:	f854 4021 	ldr.w	r4, [r4, r1, lsl #2]

        LDM     R0,{R0-R3,R12}          /* Read R0-R3,R12 from stack */
    1c38:	e890 100f 	ldmia.w	r0, {r0, r1, r2, r3, ip}
        BLX     R4                      /* Call SVC Function */
    1c3c:	47a0      	blx	r4

        MRS     R12,PSP
    1c3e:	f3ef 8c09 	mrs	ip, PSP
        STM     R12,{R0-R3}             /* Function return values */
    1c42:	e88c 000f 	stmia.w	ip, {r0, r1, r2, r3}

00001c46 <SVC_Done>:
SVC_Done:
#if MYNEWT_VAL(OS_SYSVIEW)
        BL      os_trace_isr_exit
#endif
        POP     {R4,LR}                 /* Restore EXC_RETURN */
    1c46:	e8bd 4010 	ldmia.w	sp!, {r4, lr}
        BX      LR                      /* Return from interrupt */
    1c4a:	4770      	bx	lr

00001c4c <PendSV_Handler>:
        .global PendSV_Handler
PendSV_Handler:
        .fnstart
        .cantunwind

        LDR     R3,=g_os_run_list       /* Get highest priority task ready to run */
    1c4c:	4b17      	ldr	r3, [pc, #92]	; (1cac <os_default_irq_asm+0x2a>)
        LDR     R2,[R3]                 /* Store in R2 */
    1c4e:	681a      	ldr	r2, [r3, #0]
        LDR     R3,=g_current_task      /* Get current task */
    1c50:	4b17      	ldr	r3, [pc, #92]	; (1cb0 <os_default_irq_asm+0x2e>)
        LDR     R1,[R3]                 /* Current task in R1 */
    1c52:	6819      	ldr	r1, [r3, #0]
        CMP     R1,R2
    1c54:	4291      	cmp	r1, r2
        IT      EQ
    1c56:	bf08      	it	eq
        BXEQ    LR                      /* RETI, no task switch */
    1c58:	4770      	bxeq	lr

        MRS     R12,PSP                 /* Read PSP */
    1c5a:	f3ef 8c09 	mrs	ip, PSP
        TST     LR,#0x10                /* is it extended frame? */
        IT      EQ
        VSTMDBEQ R12!,{S16-S31}         /* yes; push the regs */
        STMDB   R12!,{R4-R11,LR}        /* Save Old context */
#else
        STMDB   R12!,{R4-R11}           /* Save Old context */
    1c5e:	e92c 0ff0 	stmdb	ip!, {r4, r5, r6, r7, r8, r9, sl, fp}
#endif
        STR     R12,[R1,#0]             /* Update stack pointer in current task */
    1c62:	f8c1 c000 	str.w	ip, [r1]
        STR     R2,[R3]                 /* g_current_task = highest ready */
    1c66:	601a      	str	r2, [r3, #0]

        LDR     R12,[R2,#0]             /* get stack pointer of task we will start */
    1c68:	f8d2 c000 	ldr.w	ip, [r2]
        ITTE    EQ
        VLDMIAEQ R12!,{S16-S31}         /* yes; pull the regs */
        MVNEQ   LR,#~0xFFFFFFED         /* BX treats it as extended */
        MVNNE   LR,#~0xFFFFFFFD         /* BX treats is as basic frame */
#else
        LDMIA   R12!,{R4-R11}           /* Restore New Context */
    1c6c:	e8bc 0ff0 	ldmia.w	ip!, {r4, r5, r6, r7, r8, r9, sl, fp}
#endif
        MSR     PSP,R12                 /* Write PSP */
    1c70:	f38c 8809 	msr	PSP, ip
        MOV     R0, R2
        BL      os_trace_task_start_exec
        POP     {R4,LR}
#endif

        BX      LR                      /* Return to Thread Mode */
    1c74:	4770      	bx	lr

00001c76 <SysTick_Handler>:
        .global SysTick_Handler
SysTick_Handler:
        .fnstart
        .cantunwind

        PUSH    {R4,LR}                 /* Save EXC_RETURN */
    1c76:	b510      	push	{r4, lr}
#if MYNEWT_VAL(OS_SYSVIEW)
        BL      os_trace_isr_enter
#endif
        BL      timer_handler
    1c78:	f7ff fe4e 	bl	1918 <timer_handler>
#if MYNEWT_VAL(OS_SYSVIEW)
        BL      os_trace_isr_exit
#endif
        POP     {R4,LR}                 /* Restore EXC_RETURN */
    1c7c:	e8bd 4010 	ldmia.w	sp!, {r4, lr}
        BX      LR
    1c80:	4770      	bx	lr

00001c82 <os_default_irq_asm>:

        /*
         * LR = 0xfffffff9 if we were using MSP as SP
         * LR = 0xfffffffd if we were using PSP as SP
         */
        TST     LR,#4
    1c82:	f01e 0f04 	tst.w	lr, #4
        ITE     EQ
    1c86:	bf0c      	ite	eq
        MRSEQ   R3,MSP
    1c88:	f3ef 8308 	mrseq	r3, MSP
        MRSNE   R3,PSP
    1c8c:	f3ef 8309 	mrsne	r3, PSP
        PUSH    {R3-R11,LR}
    1c90:	e92d 4ff8 	stmdb	sp!, {r3, r4, r5, r6, r7, r8, r9, sl, fp, lr}
        MOV     R0, SP
    1c94:	4668      	mov	r0, sp
        BL      os_default_irq
    1c96:	f7ff fdaf 	bl	17f8 <os_default_irq>
        POP     {R3-R11,LR}                 /* Restore EXC_RETURN */
    1c9a:	e8bd 4ff8 	ldmia.w	sp!, {r3, r4, r5, r6, r7, r8, r9, sl, fp, lr}
        PUSH    {R4,LR}
        BL      os_trace_isr_exit
        POP     {R4,LR}
#endif

        BX      LR
    1c9e:	4770      	bx	lr
        LDR     R0,=os_flags
    1ca0:	200001ac 	.word	0x200001ac
        LDR     R2,=SVC_Count
    1ca4:	00000000 	.word	0x00000000
        LDR     R4,=SVC_Table-4
    1ca8:	fffffffc 	.word	0xfffffffc
        LDR     R3,=g_os_run_list       /* Get highest priority task ready to run */
    1cac:	20000140 	.word	0x20000140
        LDR     R3,=g_current_task      /* Get current task */
    1cb0:	20004ae0 	.word	0x20004ae0

00001cb4 <os_mbuf_pool_init>:

int
os_mbuf_pool_init(struct os_mbuf_pool *omp, struct os_mempool *mp,
                  uint16_t buf_len, uint16_t nbufs)
{
    omp->omp_databuf_len = buf_len - sizeof(struct os_mbuf);
    1cb4:	3a10      	subs	r2, #16
    1cb6:	8002      	strh	r2, [r0, #0]
    omp->omp_pool = mp;
    1cb8:	6041      	str	r1, [r0, #4]

    return (0);
}
    1cba:	2000      	movs	r0, #0
    1cbc:	4770      	bx	lr

00001cbe <os_mbuf_get>:

struct os_mbuf *
os_mbuf_get(struct os_mbuf_pool *omp, uint16_t leadingspace)
{
    1cbe:	b538      	push	{r3, r4, r5, lr}
    struct os_mbuf *om;

    os_trace_api_u32x2(OS_TRACE_ID_MBUF_GET, (uint32_t)omp,
                       (uint32_t)leadingspace);

    if (leadingspace > omp->omp_databuf_len) {
    1cc0:	8803      	ldrh	r3, [r0, #0]
    1cc2:	428b      	cmp	r3, r1
    1cc4:	d312      	bcc.n	1cec <os_mbuf_get+0x2e>
    1cc6:	460d      	mov	r5, r1
    1cc8:	4604      	mov	r4, r0
        om = NULL;
        goto done;
    }

    om = os_memblock_get(omp->omp_pool);
    1cca:	6840      	ldr	r0, [r0, #4]
    1ccc:	f7ff fe96 	bl	19fc <os_memblock_get>
    if (!om) {
    1cd0:	4603      	mov	r3, r0
    1cd2:	b148      	cbz	r0, 1ce8 <os_mbuf_get+0x2a>
        goto done;
    }

    SLIST_NEXT(om, om_next) = NULL;
    1cd4:	2200      	movs	r2, #0
    1cd6:	60c2      	str	r2, [r0, #12]
    om->om_flags = 0;
    1cd8:	7102      	strb	r2, [r0, #4]
    om->om_pkthdr_len = 0;
    1cda:	7142      	strb	r2, [r0, #5]
    om->om_len = 0;
    1cdc:	80c2      	strh	r2, [r0, #6]
    om->om_data = (&om->om_databuf[0] + leadingspace);
    1cde:	f100 0110 	add.w	r1, r0, #16
    1ce2:	4429      	add	r1, r5
    1ce4:	6001      	str	r1, [r0, #0]
    om->om_omp = omp;
    1ce6:	6084      	str	r4, [r0, #8]

done:
    os_trace_api_ret_u32(OS_TRACE_ID_MBUF_GET, (uint32_t)om);
    return om;
}
    1ce8:	4618      	mov	r0, r3
    1cea:	bd38      	pop	{r3, r4, r5, pc}
        om = NULL;
    1cec:	2300      	movs	r3, #0
    return om;
    1cee:	e7fb      	b.n	1ce8 <os_mbuf_get+0x2a>

00001cf0 <os_mbuf_get_pkthdr>:

struct os_mbuf *
os_mbuf_get_pkthdr(struct os_mbuf_pool *omp, uint8_t user_pkthdr_len)
{
    1cf0:	b538      	push	{r3, r4, r5, lr}

    os_trace_api_u32x2(OS_TRACE_ID_MBUF_GET_PKTHDR, (uint32_t)omp,
                       (uint32_t)user_pkthdr_len);

    /* User packet header must fit inside mbuf */
    pkthdr_len = user_pkthdr_len + sizeof(struct os_mbuf_pkthdr);
    1cf2:	f101 0508 	add.w	r5, r1, #8
    if ((pkthdr_len > omp->omp_databuf_len) || (pkthdr_len > 255)) {
    1cf6:	8803      	ldrh	r3, [r0, #0]
    1cf8:	42ab      	cmp	r3, r5
    1cfa:	d310      	bcc.n	1d1e <os_mbuf_get_pkthdr+0x2e>
    1cfc:	2dff      	cmp	r5, #255	; 0xff
    1cfe:	d810      	bhi.n	1d22 <os_mbuf_get_pkthdr+0x32>
        om = NULL;
        goto done;
    }

    om = os_mbuf_get(omp, 0);
    1d00:	2100      	movs	r1, #0
    1d02:	f7ff ffdc 	bl	1cbe <os_mbuf_get>
    if (om) {
    1d06:	4603      	mov	r3, r0
    1d08:	b138      	cbz	r0, 1d1a <os_mbuf_get_pkthdr+0x2a>
        om->om_pkthdr_len = pkthdr_len;
    1d0a:	715d      	strb	r5, [r3, #5]
        om->om_data += pkthdr_len;
    1d0c:	6802      	ldr	r2, [r0, #0]
    1d0e:	4415      	add	r5, r2
    1d10:	6005      	str	r5, [r0, #0]

        pkthdr = OS_MBUF_PKTHDR(om);
        pkthdr->omp_len = 0;
    1d12:	2200      	movs	r2, #0
    1d14:	8202      	strh	r2, [r0, #16]
        pkthdr->omp_flags = 0;
    1d16:	8242      	strh	r2, [r0, #18]
        STAILQ_NEXT(pkthdr, omp_next) = NULL;
    1d18:	6142      	str	r2, [r0, #20]
    }

done:
    os_trace_api_ret_u32(OS_TRACE_ID_MBUF_GET_PKTHDR, (uint32_t)om);
    return om;
}
    1d1a:	4618      	mov	r0, r3
    1d1c:	bd38      	pop	{r3, r4, r5, pc}
        om = NULL;
    1d1e:	2300      	movs	r3, #0
    1d20:	e7fb      	b.n	1d1a <os_mbuf_get_pkthdr+0x2a>
    1d22:	2300      	movs	r3, #0
    return om;
    1d24:	e7f9      	b.n	1d1a <os_mbuf_get_pkthdr+0x2a>

00001d26 <os_mbuf_free>:

int
os_mbuf_free(struct os_mbuf *om)
{
    1d26:	b508      	push	{r3, lr}
    int rc;

    os_trace_api_u32(OS_TRACE_ID_MBUF_FREE, (uint32_t)om);

    if (om->om_omp != NULL) {
    1d28:	6883      	ldr	r3, [r0, #8]
    1d2a:	b123      	cbz	r3, 1d36 <os_mbuf_free+0x10>
    1d2c:	4601      	mov	r1, r0
        rc = os_memblock_put(om->om_omp->omp_pool, om);
    1d2e:	6858      	ldr	r0, [r3, #4]
    1d30:	f7ff fe8c 	bl	1a4c <os_memblock_put>
    rc = 0;

done:
    os_trace_api_ret_u32(OS_TRACE_ID_MBUF_FREE, (uint32_t)rc);
    return (rc);
}
    1d34:	bd08      	pop	{r3, pc}
    rc = 0;
    1d36:	2000      	movs	r0, #0
    return (rc);
    1d38:	e7fc      	b.n	1d34 <os_mbuf_free+0xe>

00001d3a <os_mbuf_free_chain>:

int
os_mbuf_free_chain(struct os_mbuf *om)
{
    1d3a:	4603      	mov	r3, r0
    struct os_mbuf *next;
    int rc;

    os_trace_api_u32(OS_TRACE_ID_MBUF_FREE_CHAIN, (uint32_t)om);

    while (om != NULL) {
    1d3c:	b160      	cbz	r0, 1d58 <os_mbuf_free_chain+0x1e>
{
    1d3e:	b510      	push	{r4, lr}
        next = SLIST_NEXT(om, om_next);
    1d40:	68dc      	ldr	r4, [r3, #12]

        rc = os_mbuf_free(om);
    1d42:	4618      	mov	r0, r3
    1d44:	f7ff ffef 	bl	1d26 <os_mbuf_free>
        if (rc != 0) {
            goto done;
        }

        om = next;
    1d48:	4623      	mov	r3, r4
        if (rc != 0) {
    1d4a:	4602      	mov	r2, r0
    1d4c:	b910      	cbnz	r0, 1d54 <os_mbuf_free_chain+0x1a>
    while (om != NULL) {
    1d4e:	2c00      	cmp	r4, #0
    1d50:	d1f6      	bne.n	1d40 <os_mbuf_free_chain+0x6>
    }

    rc = 0;
    1d52:	2200      	movs	r2, #0

done:
    os_trace_api_ret_u32(OS_TRACE_ID_MBUF_FREE_CHAIN, (uint32_t)rc);
    return (rc);
}
    1d54:	4610      	mov	r0, r2
    1d56:	bd10      	pop	{r4, pc}
    rc = 0;
    1d58:	2200      	movs	r2, #0
}
    1d5a:	4610      	mov	r0, r2
    1d5c:	4770      	bx	lr

00001d5e <os_mbuf_len>:
uint16_t
os_mbuf_len(const struct os_mbuf *om)
{
    uint16_t len;

    len = 0;
    1d5e:	2300      	movs	r3, #0
    while (om != NULL) {
    1d60:	e003      	b.n	1d6a <os_mbuf_len+0xc>
        len += om->om_len;
    1d62:	88c2      	ldrh	r2, [r0, #6]
    1d64:	4413      	add	r3, r2
    1d66:	b29b      	uxth	r3, r3
        om = SLIST_NEXT(om, om_next);
    1d68:	68c0      	ldr	r0, [r0, #12]
    while (om != NULL) {
    1d6a:	2800      	cmp	r0, #0
    1d6c:	d1f9      	bne.n	1d62 <os_mbuf_len+0x4>
    }

    return len;
}
    1d6e:	4618      	mov	r0, r3
    1d70:	4770      	bx	lr

00001d72 <os_mbuf_append>:

int
os_mbuf_append(struct os_mbuf *om, const void *data,  uint16_t len)
{
    1d72:	e92d 47f0 	stmdb	sp!, {r4, r5, r6, r7, r8, r9, sl, lr}
    struct os_mbuf *new;
    int remainder;
    int space;
    int rc;

    if (om == NULL) {
    1d76:	2800      	cmp	r0, #0
    1d78:	d04d      	beq.n	1e16 <os_mbuf_append+0xa4>
    1d7a:	460f      	mov	r7, r1
    1d7c:	4691      	mov	r9, r2
    1d7e:	4682      	mov	sl, r0
        rc = OS_EINVAL;
        goto err;
    }

    omp = om->om_omp;
    1d80:	f8d0 8008 	ldr.w	r8, [r0, #8]

    /* Scroll to last mbuf in the chain */
    last = om;
    1d84:	4605      	mov	r5, r0
    while (SLIST_NEXT(last, om_next) != NULL) {
    1d86:	e000      	b.n	1d8a <os_mbuf_append+0x18>
        last = SLIST_NEXT(last, om_next);
    1d88:	461d      	mov	r5, r3
    while (SLIST_NEXT(last, om_next) != NULL) {
    1d8a:	68eb      	ldr	r3, [r5, #12]
    1d8c:	2b00      	cmp	r3, #0
    1d8e:	d1fb      	bne.n	1d88 <os_mbuf_append+0x16>
    }

    remainder = len;
    1d90:	464e      	mov	r6, r9
static inline uint16_t
_os_mbuf_trailingspace(struct os_mbuf *om)
{
    struct os_mbuf_pool *omp;

    omp = om->om_omp;
    1d92:	68ab      	ldr	r3, [r5, #8]

    return (&om->om_databuf[0] + omp->omp_databuf_len) -
    1d94:	f105 0410 	add.w	r4, r5, #16
    1d98:	881b      	ldrh	r3, [r3, #0]
    1d9a:	441c      	add	r4, r3
      (om->om_data + om->om_len);
    1d9c:	6828      	ldr	r0, [r5, #0]
    1d9e:	88eb      	ldrh	r3, [r5, #6]
    1da0:	4418      	add	r0, r3
    return (&om->om_databuf[0] + omp->omp_databuf_len) -
    1da2:	1a24      	subs	r4, r4, r0
    1da4:	b2a4      	uxth	r4, r4
    space = OS_MBUF_TRAILINGSPACE(last);

    /* If room in current mbuf, copy the first part of the data into the
     * remaining space in that mbuf.
     */
    if (space > 0) {
    1da6:	b164      	cbz	r4, 1dc2 <os_mbuf_append+0x50>
        if (space > remainder) {
    1da8:	454c      	cmp	r4, r9
    1daa:	dd00      	ble.n	1dae <os_mbuf_append+0x3c>
            space = remainder;
    1dac:	464c      	mov	r4, r9
        }

        memcpy(OS_MBUF_DATA(last, uint8_t *) + last->om_len , data, space);
    1dae:	4622      	mov	r2, r4
    1db0:	4639      	mov	r1, r7
    1db2:	f000 f860 	bl	1e76 <memcpy>

        last->om_len += space;
    1db6:	88eb      	ldrh	r3, [r5, #6]
    1db8:	4423      	add	r3, r4
    1dba:	80eb      	strh	r3, [r5, #6]
        data += space;
    1dbc:	4427      	add	r7, r4
        remainder -= space;
    1dbe:	eba9 0604 	sub.w	r6, r9, r4
    }

    /* Take the remaining data, and keep allocating new mbufs and copying
     * data into it, until data is exhausted.
     */
    while (remainder > 0) {
    1dc2:	2e00      	cmp	r6, #0
    1dc4:	dd16      	ble.n	1df4 <os_mbuf_append+0x82>
        new = os_mbuf_get(omp, 0);
    1dc6:	2100      	movs	r1, #0
    1dc8:	4640      	mov	r0, r8
    1dca:	f7ff ff78 	bl	1cbe <os_mbuf_get>
        if (!new) {
    1dce:	4604      	mov	r4, r0
    1dd0:	b180      	cbz	r0, 1df4 <os_mbuf_append+0x82>
            break;
        }

        new->om_len = min(omp->omp_databuf_len, remainder);
    1dd2:	f8b8 2000 	ldrh.w	r2, [r8]
    1dd6:	42b2      	cmp	r2, r6
    1dd8:	bfa8      	it	ge
    1dda:	4632      	movge	r2, r6
    1ddc:	b292      	uxth	r2, r2
    1dde:	80c2      	strh	r2, [r0, #6]
        memcpy(OS_MBUF_DATA(new, void *), data, new->om_len);
    1de0:	4639      	mov	r1, r7
    1de2:	6800      	ldr	r0, [r0, #0]
    1de4:	f000 f847 	bl	1e76 <memcpy>
        data += new->om_len;
    1de8:	88e3      	ldrh	r3, [r4, #6]
    1dea:	441f      	add	r7, r3
        remainder -= new->om_len;
    1dec:	1af6      	subs	r6, r6, r3
        SLIST_NEXT(last, om_next) = new;
    1dee:	60ec      	str	r4, [r5, #12]
        last = new;
    1df0:	4625      	mov	r5, r4
    1df2:	e7e6      	b.n	1dc2 <os_mbuf_append+0x50>
    }

    /* Adjust the packet header length in the buffer */
    if (OS_MBUF_IS_PKTHDR(om)) {
    1df4:	f89a 3005 	ldrb.w	r3, [sl, #5]
    1df8:	2b07      	cmp	r3, #7
    1dfa:	d907      	bls.n	1e0c <os_mbuf_append+0x9a>
        OS_MBUF_PKTHDR(om)->omp_len += len - remainder;
    1dfc:	eba9 0906 	sub.w	r9, r9, r6
    1e00:	f8ba 3010 	ldrh.w	r3, [sl, #16]
    1e04:	fa13 f989 	uxtah	r9, r3, r9
    1e08:	f8aa 9010 	strh.w	r9, [sl, #16]
    }

    if (remainder != 0) {
    1e0c:	b106      	cbz	r6, 1e10 <os_mbuf_append+0x9e>
        rc = OS_ENOMEM;
    1e0e:	2601      	movs	r6, #1


    return (0);
err:
    return (rc);
}
    1e10:	4630      	mov	r0, r6
    1e12:	e8bd 87f0 	ldmia.w	sp!, {r4, r5, r6, r7, r8, r9, sl, pc}
        rc = OS_EINVAL;
    1e16:	2602      	movs	r6, #2
    1e18:	e7fa      	b.n	1e10 <os_mbuf_append+0x9e>

00001e1a <os_mutex_init>:
os_error_t
os_mutex_init(struct os_mutex *mu)
{
    os_error_t ret;

    if (!mu) {
    1e1a:	4603      	mov	r3, r0
    1e1c:	b128      	cbz	r0, 1e2a <os_mutex_init+0x10>
    }

    os_trace_api_u32(OS_TRACE_ID_MUTEX_INIT, (uint32_t)mu);

    /* Initialize to 0 */
    mu->mu_prio = 0;
    1e1e:	2000      	movs	r0, #0
    1e20:	7158      	strb	r0, [r3, #5]
    mu->mu_level = 0;
    1e22:	80d8      	strh	r0, [r3, #6]
    mu->mu_owner = NULL;
    1e24:	6098      	str	r0, [r3, #8]
    SLIST_FIRST(&mu->mu_head) = NULL;
    1e26:	6018      	str	r0, [r3, #0]
    1e28:	4770      	bx	lr
        ret = OS_INVALID_PARM;
    1e2a:	2003      	movs	r0, #3
    ret = OS_OK;

done:
    os_trace_api_ret_u32(OS_TRACE_ID_MUTEX_INIT, (uint32_t)ret);
    return ret;
}
    1e2c:	4770      	bx	lr

00001e2e <memcmp>:
int memcmp(const void *s1, const void *s2, size_t n)
{
    int d = 0;

#if defined(ARCH_cortex_m3) || defined(ARCH_cortex_m4) || defined(ARCH_cortex_m7)
    asm (".syntax unified                   \n"
    1e2e:	b470      	push	{r4, r5, r6}
    1e30:	f04f 0500 	mov.w	r5, #0
    1e34:	f022 0603 	bic.w	r6, r2, #3
    1e38:	e005      	b.n	1e46 <test1>

00001e3a <loop1>:
    1e3a:	5943      	ldr	r3, [r0, r5]
    1e3c:	594c      	ldr	r4, [r1, r5]
    1e3e:	42a3      	cmp	r3, r4
    1e40:	d104      	bne.n	1e4c <res1>
    1e42:	f105 0504 	add.w	r5, r5, #4

00001e46 <test1>:
    1e46:	42b5      	cmp	r5, r6
    1e48:	d1f7      	bne.n	1e3a <loop1>
    1e4a:	e00d      	b.n	1e68 <test2>

00001e4c <res1>:
    1e4c:	ba1b      	rev	r3, r3
    1e4e:	ba24      	rev	r4, r4
    1e50:	1b1b      	subs	r3, r3, r4
    1e52:	bf8c      	ite	hi
    1e54:	2301      	movhi	r3, #1
    1e56:	f04f 33ff 	movls.w	r3, #4294967295	; 0xffffffff
    1e5a:	e009      	b.n	1e70 <done>

00001e5c <loop2>:
    1e5c:	5d43      	ldrb	r3, [r0, r5]
    1e5e:	5d4c      	ldrb	r4, [r1, r5]
    1e60:	1b1b      	subs	r3, r3, r4
    1e62:	d105      	bne.n	1e70 <done>
    1e64:	f105 0501 	add.w	r5, r5, #1

00001e68 <test2>:
    1e68:	4295      	cmp	r5, r2
    1e6a:	d1f7      	bne.n	1e5c <loop2>
    1e6c:	f04f 0300 	mov.w	r3, #0

00001e70 <done>:
    1e70:	4618      	mov	r0, r3
    1e72:	bc70      	pop	{r4, r5, r6}
			break;
	}
#endif

	return d;
}
    1e74:	4770      	bx	lr

00001e76 <memcpy>:
#if defined(__ARM_FEATURE_UNALIGNED)
        /*
         * We can speed up a bit by moving 32-bit words if unaligned access is
         * supported (e.g. Cortex-M3/4/7/33).
         */
        asm (".syntax unified           \n"
    1e76:	e001      	b.n	1e7c <test1>

00001e78 <loop1>:
    1e78:	588b      	ldr	r3, [r1, r2]
    1e7a:	5083      	str	r3, [r0, r2]

00001e7c <test1>:
    1e7c:	3a04      	subs	r2, #4
    1e7e:	d5fb      	bpl.n	1e78 <loop1>
    1e80:	f102 0204 	add.w	r2, r2, #4
             "       bpl  loop1         \n"
             "       add  r2, #4        \n"
            );
#endif

        asm (".syntax unified           \n"
    1e84:	e001      	b.n	1e8a <test2>

00001e86 <loop2>:
    1e86:	5c8b      	ldrb	r3, [r1, r2]
    1e88:	5483      	strb	r3, [r0, r2]

00001e8a <test2>:
    1e8a:	3a01      	subs	r2, #1
    1e8c:	d5fb      	bpl.n	1e86 <loop2>
		*q++ = *p++;
	}
#endif

	return dst;
}
    1e8e:	4770      	bx	lr

00001e90 <memset>:
#if defined(__arm__)
#include <mcu/cmsis_nvic.h>
#endif

void *memset(void *dst, int c, size_t n)
{
    1e90:	b430      	push	{r4, r5}
	asm volatile ("cld ; rep ; stosq ; movl %3,%%ecx ; rep ; stosb"
		      :"+c" (nq), "+D" (q)
		      : "a" ((unsigned char)c * 0x0101010101010101U),
			"r" ((uint32_t) n & 7));
#elif defined(__arm__)
    asm volatile (".syntax unified                          \n"
    1e92:	4605      	mov	r5, r0
    1e94:	b2c9      	uxtb	r1, r1
    1e96:	ea41 2101 	orr.w	r1, r1, r1, lsl #8
    1e9a:	ea41 4101 	orr.w	r1, r1, r1, lsl #16
    1e9e:	18ab      	adds	r3, r5, r2
    1ea0:	2403      	movs	r4, #3
    1ea2:	4023      	ands	r3, r4
    1ea4:	1ad3      	subs	r3, r2, r3
    1ea6:	d40b      	bmi.n	1ec0 <memset+0x30>
    1ea8:	e001      	b.n	1eae <memset+0x1e>
    1eaa:	3a01      	subs	r2, #1
    1eac:	54a9      	strb	r1, [r5, r2]
    1eae:	429a      	cmp	r2, r3
    1eb0:	d1fb      	bne.n	1eaa <memset+0x1a>
    1eb2:	e000      	b.n	1eb6 <memset+0x26>
    1eb4:	50a9      	str	r1, [r5, r2]
    1eb6:	3a04      	subs	r2, #4
    1eb8:	d5fc      	bpl.n	1eb4 <memset+0x24>
    1eba:	3204      	adds	r2, #4
    1ebc:	e000      	b.n	1ec0 <memset+0x30>
    1ebe:	54a9      	strb	r1, [r5, r2]
    1ec0:	3a01      	subs	r2, #1
    1ec2:	d5fc      	bpl.n	1ebe <memset+0x2e>
		*q++ = c;
	}
#endif

	return dst;
}
    1ec4:	bc30      	pop	{r4, r5}
    1ec6:	4770      	bx	lr

00001ec8 <strlen>:

#include <string.h>

size_t strlen(const char *s)
{
	const char *ss = s;
    1ec8:	4603      	mov	r3, r0
	while (*ss)
    1eca:	e000      	b.n	1ece <strlen+0x6>
		ss++;
    1ecc:	3301      	adds	r3, #1
	while (*ss)
    1ece:	781a      	ldrb	r2, [r3, #0]
    1ed0:	2a00      	cmp	r2, #0
    1ed2:	d1fb      	bne.n	1ecc <strlen+0x4>
	return ss - s;
}
    1ed4:	1a18      	subs	r0, r3, r0
    1ed6:	4770      	bx	lr

00001ed8 <init_backlight>:

static void blink_pattern(const uint8_t pattern[], int length);
static void delay_ms(uint32_t ms);

/// Init the backlights
static void init_backlight(void) {
    1ed8:	b510      	push	{r4, lr}
    for (int b = 0; b < sizeof(backlights); b++) {
    1eda:	2400      	movs	r4, #0
    1edc:	e003      	b.n	1ee6 <init_backlight+0xe>
        uint8_t gpio = backlights[b];
        //  If High backlight...
        if (b == 2) {
            //  Switch to on
            hal_gpio_init_out(gpio, 0);
    1ede:	2100      	movs	r1, #0
    1ee0:	f7fe ff39 	bl	d56 <hal_gpio_init_out>
    for (int b = 0; b < sizeof(backlights); b++) {
    1ee4:	3401      	adds	r4, #1
    1ee6:	2c02      	cmp	r4, #2
    1ee8:	d807      	bhi.n	1efa <init_backlight+0x22>
        uint8_t gpio = backlights[b];
    1eea:	4b04      	ldr	r3, [pc, #16]	; (1efc <init_backlight+0x24>)
    1eec:	5d18      	ldrb	r0, [r3, r4]
        if (b == 2) {
    1eee:	2c02      	cmp	r4, #2
    1ef0:	d0f5      	beq.n	1ede <init_backlight+0x6>
        } else {
            //  Switch to off
            hal_gpio_init_out(gpio, 1);
    1ef2:	2101      	movs	r1, #1
    1ef4:	f7fe ff2f 	bl	d56 <hal_gpio_init_out>
    1ef8:	e7f4      	b.n	1ee4 <init_backlight+0xc>
        }
    }
}
    1efa:	bd10      	pop	{r4, pc}
    1efc:	00005a3c 	.word	0x00005a3c

00001f00 <delay_ms>:
        hal_gpio_write(gpio, 1);
    }
}

/// Sleep for the specified number of milliseconds
static void delay_ms(uint32_t ms) {
    1f00:	b538      	push	{r3, r4, r5, lr}
    1f02:	4605      	mov	r5, r0
    //  os_time_delay() doesn't work in MCUBoot because the scheduler has not started
    uint8_t button_samples = 0;
    for (int i = 0; i < ms; i++) {
    1f04:	2400      	movs	r4, #0
    1f06:	e007      	b.n	1f18 <delay_ms+0x18>
        for (int delay = 0; delay < 100000; delay++) {}
    1f08:	3301      	adds	r3, #1
    1f0a:	4a06      	ldr	r2, [pc, #24]	; (1f24 <delay_ms+0x24>)
    1f0c:	4293      	cmp	r3, r2
    1f0e:	ddfb      	ble.n	1f08 <delay_ms+0x8>
        button_samples += hal_gpio_read(PUSH_BUTTON_IN);
    1f10:	200d      	movs	r0, #13
    1f12:	f7fe ff4d 	bl	db0 <hal_gpio_read>
    for (int i = 0; i < ms; i++) {
    1f16:	3401      	adds	r4, #1
    1f18:	42ac      	cmp	r4, r5
    1f1a:	d201      	bcs.n	1f20 <delay_ms+0x20>
        for (int delay = 0; delay < 100000; delay++) {}
    1f1c:	2300      	movs	r3, #0
    1f1e:	e7f4      	b.n	1f0a <delay_ms+0xa>
    }
    1f20:	bd38      	pop	{r3, r4, r5, pc}
    1f22:	bf00      	nop
    1f24:	0001869f 	.word	0x0001869f

00001f28 <blink_pattern>:
static void blink_pattern(const uint8_t pattern[], int length) {
    1f28:	e92d 41f0 	stmdb	sp!, {r4, r5, r6, r7, r8, lr}
    1f2c:	4680      	mov	r8, r0
    1f2e:	460f      	mov	r7, r1
    for (int i = 0; i < length; i++) {
    1f30:	2600      	movs	r6, #0
    1f32:	e016      	b.n	1f62 <blink_pattern+0x3a>
                hal_gpio_write(gpio, 0);
    1f34:	2100      	movs	r1, #0
    1f36:	f7fe ff2a 	bl	d8e <hal_gpio_write>
        for (int b = 0; b < sizeof(backlights); b++) {
    1f3a:	3401      	adds	r4, #1
    1f3c:	2c02      	cmp	r4, #2
    1f3e:	d807      	bhi.n	1f50 <blink_pattern+0x28>
            uint8_t gpio = backlights[b];
    1f40:	4b0c      	ldr	r3, [pc, #48]	; (1f74 <blink_pattern+0x4c>)
    1f42:	5d18      	ldrb	r0, [r3, r4]
            if (b == level) {                
    1f44:	42a5      	cmp	r5, r4
    1f46:	d0f5      	beq.n	1f34 <blink_pattern+0xc>
                hal_gpio_write(gpio, 1);
    1f48:	2101      	movs	r1, #1
    1f4a:	f7fe ff20 	bl	d8e <hal_gpio_write>
    1f4e:	e7f4      	b.n	1f3a <blink_pattern+0x12>
        delay_ms(10);
    1f50:	200a      	movs	r0, #10
    1f52:	f7ff ffd5 	bl	1f00 <delay_ms>
        hal_gpio_write(gpio, 1);
    1f56:	2101      	movs	r1, #1
    1f58:	4b06      	ldr	r3, [pc, #24]	; (1f74 <blink_pattern+0x4c>)
    1f5a:	5d58      	ldrb	r0, [r3, r5]
    1f5c:	f7fe ff17 	bl	d8e <hal_gpio_write>
    for (int i = 0; i < length; i++) {
    1f60:	3601      	adds	r6, #1
    1f62:	42be      	cmp	r6, r7
    1f64:	da03      	bge.n	1f6e <blink_pattern+0x46>
        uint8_t level = pattern[i];
    1f66:	f818 5006 	ldrb.w	r5, [r8, r6]
        for (int b = 0; b < sizeof(backlights); b++) {
    1f6a:	2400      	movs	r4, #0
    1f6c:	e7e6      	b.n	1f3c <blink_pattern+0x14>
}
    1f6e:	e8bd 81f0 	ldmia.w	sp!, {r4, r5, r6, r7, r8, pc}
    1f72:	bf00      	nop
    1f74:	00005a3c 	.word	0x00005a3c

00001f78 <blink_backlight>:
void blink_backlight(int pattern_id, int repetitions) {
    1f78:	b570      	push	{r4, r5, r6, lr}
    1f7a:	4605      	mov	r5, r0
    1f7c:	460e      	mov	r6, r1
    if (first_blink) {
    1f7e:	4b1a      	ldr	r3, [pc, #104]	; (1fe8 <blink_backlight+0x70>)
    1f80:	681b      	ldr	r3, [r3, #0]
    1f82:	b90b      	cbnz	r3, 1f88 <blink_backlight+0x10>
void blink_backlight(int pattern_id, int repetitions) {
    1f84:	2400      	movs	r4, #0
    1f86:	e00a      	b.n	1f9e <blink_backlight+0x26>
        first_blink = 0;
    1f88:	4b17      	ldr	r3, [pc, #92]	; (1fe8 <blink_backlight+0x70>)
    1f8a:	2200      	movs	r2, #0
    1f8c:	601a      	str	r2, [r3, #0]
        init_backlight();
    1f8e:	f7ff ffa3 	bl	1ed8 <init_backlight>
    1f92:	e7f7      	b.n	1f84 <blink_backlight+0xc>
            case 0:  blink_pattern(slower_pulse,  sizeof(slower_pulse));  break;
    1f94:	2124      	movs	r1, #36	; 0x24
    1f96:	4815      	ldr	r0, [pc, #84]	; (1fec <blink_backlight+0x74>)
    1f98:	f7ff ffc6 	bl	1f28 <blink_pattern>
    for (int i = 0; i < repetitions; i++) {
    1f9c:	3401      	adds	r4, #1
    1f9e:	42b4      	cmp	r4, r6
    1fa0:	da20      	bge.n	1fe4 <blink_backlight+0x6c>
        switch (pattern_id) {
    1fa2:	2d03      	cmp	r5, #3
    1fa4:	d819      	bhi.n	1fda <blink_backlight+0x62>
    1fa6:	a301      	add	r3, pc, #4	; (adr r3, 1fac <blink_backlight+0x34>)
    1fa8:	f853 f025 	ldr.w	pc, [r3, r5, lsl #2]
    1fac:	00001f95 	.word	0x00001f95
    1fb0:	00001fbd 	.word	0x00001fbd
    1fb4:	00001fc7 	.word	0x00001fc7
    1fb8:	00001fd1 	.word	0x00001fd1
            case 1:  blink_pattern(slow_pulse,    sizeof(slow_pulse));    break;
    1fbc:	2112      	movs	r1, #18
    1fbe:	480c      	ldr	r0, [pc, #48]	; (1ff0 <blink_backlight+0x78>)
    1fc0:	f7ff ffb2 	bl	1f28 <blink_pattern>
    1fc4:	e7ea      	b.n	1f9c <blink_backlight+0x24>
            case 2:  blink_pattern(fast_pulse,    sizeof(fast_pulse));    break;
    1fc6:	210c      	movs	r1, #12
    1fc8:	480a      	ldr	r0, [pc, #40]	; (1ff4 <blink_backlight+0x7c>)
    1fca:	f7ff ffad 	bl	1f28 <blink_pattern>
    1fce:	e7e5      	b.n	1f9c <blink_backlight+0x24>
            case 3:  blink_pattern(faster_pulse,  sizeof(faster_pulse));  break;
    1fd0:	2106      	movs	r1, #6
    1fd2:	4809      	ldr	r0, [pc, #36]	; (1ff8 <blink_backlight+0x80>)
    1fd4:	f7ff ffa8 	bl	1f28 <blink_pattern>
    1fd8:	e7e0      	b.n	1f9c <blink_backlight+0x24>
            default: blink_pattern(fastest_pulse, sizeof(fastest_pulse)); break;
    1fda:	2103      	movs	r1, #3
    1fdc:	4807      	ldr	r0, [pc, #28]	; (1ffc <blink_backlight+0x84>)
    1fde:	f7ff ffa3 	bl	1f28 <blink_pattern>
    1fe2:	e7db      	b.n	1f9c <blink_backlight+0x24>
}
    1fe4:	bd70      	pop	{r4, r5, r6, pc}
    1fe6:	bf00      	nop
    1fe8:	20000148 	.word	0x20000148
    1fec:	00005a6c 	.word	0x00005a6c
    1ff0:	00005a58 	.word	0x00005a58
    1ff4:	00005a40 	.word	0x00005a40
    1ff8:	00005a4c 	.word	0x00005a4c
    1ffc:	00005a54 	.word	0x00005a54

00002000 <relocate_vector_table>:
/// Relocate the Arm Vector Table from vector_table to relocated_vector_table.
/// relocated_vector_table must be aligned to 0x100 page boundary.
static void relocate_vector_table(void *vector_table, void *relocated_vector_table) {
    uint32_t *current_location = (uint32_t *) vector_table;
    uint32_t *new_location = (uint32_t *) relocated_vector_table;
    if (new_location == current_location) { return; }  //  No need to relocate
    2000:	4288      	cmp	r0, r1
    2002:	d021      	beq.n	2048 <relocate_vector_table+0x48>
static void relocate_vector_table(void *vector_table, void *relocated_vector_table) {
    2004:	b538      	push	{r3, r4, r5, lr}
    //  Check whether we need to copy the vectors.
    int vector_diff = 0;  //  Non-zero if a vector is different
    for (int i = 0; i < NVIC_NUM_VECTORS; i++) {
    2006:	2300      	movs	r3, #0
    2008:	2b35      	cmp	r3, #53	; 0x35
    200a:	dc07      	bgt.n	201c <relocate_vector_table+0x1c>
        if (new_location[i] != current_location[i]) {
    200c:	f851 5023 	ldr.w	r5, [r1, r3, lsl #2]
    2010:	f850 4023 	ldr.w	r4, [r0, r3, lsl #2]
    2014:	42a5      	cmp	r5, r4
    2016:	d103      	bne.n	2020 <relocate_vector_table+0x20>
    for (int i = 0; i < NVIC_NUM_VECTORS; i++) {
    2018:	3301      	adds	r3, #1
    201a:	e7f5      	b.n	2008 <relocate_vector_table+0x8>
    int vector_diff = 0;  //  Non-zero if a vector is different
    201c:	2300      	movs	r3, #0
    201e:	e000      	b.n	2022 <relocate_vector_table+0x22>
            vector_diff = 1;
    2020:	2301      	movs	r3, #1
    2022:	460c      	mov	r4, r1
    2024:	4605      	mov	r5, r0
            break;
        }
    }
    //  If we need to copy the vectors, erase the flash ROM and write the vectors.
    if (vector_diff) {
    2026:	b913      	cbnz	r3, 202e <relocate_vector_table+0x2e>
            vector_table, //  From the original address
            0x100         //  Assume that we copy an entire page
        );
    }
    //  Point VTOR Register in the System Control Block to the relocated vector table.
    *SCB_VTOR = (uint32_t) relocated_vector_table;
    2028:	4b08      	ldr	r3, [pc, #32]	; (204c <relocate_vector_table+0x4c>)
    202a:	601c      	str	r4, [r3, #0]
}
    202c:	bd38      	pop	{r3, r4, r5, pc}
        hal_flash_erase(  //  Erase...
    202e:	f44f 7280 	mov.w	r2, #256	; 0x100
    2032:	2000      	movs	r0, #0
    2034:	f002 fb96 	bl	4764 <hal_flash_erase>
        hal_flash_write(  //  Write...
    2038:	f44f 7380 	mov.w	r3, #256	; 0x100
    203c:	462a      	mov	r2, r5
    203e:	4621      	mov	r1, r4
    2040:	2000      	movs	r0, #0
    2042:	f002 fb55 	bl	46f0 <hal_flash_write>
    2046:	e7ef      	b.n	2028 <relocate_vector_table+0x28>
    2048:	4770      	bx	lr
    204a:	bf00      	nop
    204c:	e000ed08 	.word	0xe000ed08

00002050 <pinetime_boot_init>:
void pinetime_boot_init(void) {
    2050:	b538      	push	{r3, r4, r5, lr}
    blink_backlight(1, 1);
    2052:	2101      	movs	r1, #1
    2054:	4608      	mov	r0, r1
    2056:	f7ff ff8f 	bl	1f78 <blink_backlight>
    console_printf("Starting Bootloader...\n");
    205a:	4828      	ldr	r0, [pc, #160]	; (20fc <pinetime_boot_init+0xac>)
    205c:	f000 fb32 	bl	26c4 <console_printf>
    console_flush();
    2060:	f000 fb86 	bl	2770 <console_flush>
    hal_gpio_init_in(PUSH_BUTTON_IN, HAL_GPIO_PULL_DOWN);  //  TODO: Doesn't seem to work
    2064:	2102      	movs	r1, #2
    2066:	200d      	movs	r0, #13
    2068:	f7fe fe5f 	bl	d2a <hal_gpio_init_in>
    hal_gpio_init_out(PUSH_BUTTON_OUT, 1);
    206c:	2101      	movs	r1, #1
    206e:	200f      	movs	r0, #15
    2070:	f7fe fe71 	bl	d56 <hal_gpio_init_out>
    hal_gpio_write(PUSH_BUTTON_OUT, 1);  //  Enable the button
    2074:	2101      	movs	r1, #1
    2076:	200f      	movs	r0, #15
    2078:	f7fe fe89 	bl	d8e <hal_gpio_write>
    blink_backlight(1, 1);
    207c:	2101      	movs	r1, #1
    207e:	4608      	mov	r0, r1
    2080:	f7ff ff7a 	bl	1f78 <blink_backlight>
    pinetime_boot_display_image();
    2084:	f000 fa60 	bl	2548 <pinetime_boot_display_image>
    console_printf("Check button: %d\n", hal_gpio_read(PUSH_BUTTON_IN));
    2088:	200d      	movs	r0, #13
    208a:	f7fe fe91 	bl	db0 <hal_gpio_read>
    208e:	4601      	mov	r1, r0
    2090:	481b      	ldr	r0, [pc, #108]	; (2100 <pinetime_boot_init+0xb0>)
    2092:	f000 fb17 	bl	26c4 <console_printf>
    console_flush();
    2096:	f000 fb6b 	bl	2770 <console_flush>
    blink_backlight(1, 1);
    209a:	2101      	movs	r1, #1
    209c:	4608      	mov	r0, r1
    209e:	f7ff ff6b 	bl	1f78 <blink_backlight>
    console_printf("Waiting 5 seconds for button...\n");
    20a2:	4818      	ldr	r0, [pc, #96]	; (2104 <pinetime_boot_init+0xb4>)
    20a4:	f000 fb0e 	bl	26c4 <console_printf>
    console_flush();
    20a8:	f000 fb62 	bl	2770 <console_flush>
    for (int i = 0; i < 64 * 5; i++) {
    20ac:	2500      	movs	r5, #0
    uint8_t button_samples = 0;
    20ae:	462c      	mov	r4, r5
    for (int i = 0; i < 64 * 5; i++) {
    20b0:	e009      	b.n	20c6 <pinetime_boot_init+0x76>
        for (int delay = 0; delay < 100000; delay++);
    20b2:	3301      	adds	r3, #1
    20b4:	4a14      	ldr	r2, [pc, #80]	; (2108 <pinetime_boot_init+0xb8>)
    20b6:	4293      	cmp	r3, r2
    20b8:	ddfb      	ble.n	20b2 <pinetime_boot_init+0x62>
        button_samples += hal_gpio_read(PUSH_BUTTON_IN);
    20ba:	200d      	movs	r0, #13
    20bc:	f7fe fe78 	bl	db0 <hal_gpio_read>
    20c0:	4404      	add	r4, r0
    20c2:	b2e4      	uxtb	r4, r4
    for (int i = 0; i < 64 * 5; i++) {
    20c4:	3501      	adds	r5, #1
    20c6:	f5b5 7fa0 	cmp.w	r5, #320	; 0x140
    20ca:	da01      	bge.n	20d0 <pinetime_boot_init+0x80>
        for (int delay = 0; delay < 100000; delay++);
    20cc:	2300      	movs	r3, #0
    20ce:	e7f1      	b.n	20b4 <pinetime_boot_init+0x64>
    blink_backlight(1, 2);
    20d0:	2102      	movs	r1, #2
    20d2:	2001      	movs	r0, #1
    20d4:	f7ff ff50 	bl	1f78 <blink_backlight>
    if (button_samples > 1 /* TODO: this needs to be set higher to avoid accidental rollbacks */) {
    20d8:	2c01      	cmp	r4, #1
    20da:	d800      	bhi.n	20de <pinetime_boot_init+0x8e>
}
    20dc:	bd38      	pop	{r3, r4, r5, pc}
        console_printf("Flashing and resetting...\n");
    20de:	480b      	ldr	r0, [pc, #44]	; (210c <pinetime_boot_init+0xbc>)
    20e0:	f000 faf0 	bl	26c4 <console_printf>
        console_flush();
    20e4:	f000 fb44 	bl	2770 <console_flush>
        boot_set_pending(0);
    20e8:	2000      	movs	r0, #0
    20ea:	f000 fe0d 	bl	2d08 <boot_set_pending>
        blink_backlight(1, 2);
    20ee:	2102      	movs	r1, #2
    20f0:	2001      	movs	r0, #1
    20f2:	f7ff ff41 	bl	1f78 <blink_backlight>
        hal_system_reset();
    20f6:	f7fe f83d 	bl	174 <hal_system_reset>
    20fa:	bf00      	nop
    20fc:	00005aa4 	.word	0x00005aa4
    2100:	00005abc 	.word	0x00005abc
    2104:	00005ad0 	.word	0x00005ad0
    2108:	0001869f 	.word	0x0001869f
    210c:	00005af4 	.word	0x00005af4

00002110 <setup_watchdog>:
  NRF_WDT->CONFIG &= ~(WDT_CONFIG_SLEEP_Msk << WDT_CONFIG_SLEEP_Pos);
    2110:	4b0f      	ldr	r3, [pc, #60]	; (2150 <setup_watchdog+0x40>)
    2112:	f8d3 250c 	ldr.w	r2, [r3, #1292]	; 0x50c
    2116:	f022 0201 	bic.w	r2, r2, #1
    211a:	f8c3 250c 	str.w	r2, [r3, #1292]	; 0x50c
  NRF_WDT->CONFIG |= (WDT_CONFIG_HALT_Run << WDT_CONFIG_SLEEP_Pos);
    211e:	f8d3 250c 	ldr.w	r2, [r3, #1292]	; 0x50c
    2122:	f042 0201 	orr.w	r2, r2, #1
    2126:	f8c3 250c 	str.w	r2, [r3, #1292]	; 0x50c
  NRF_WDT->CONFIG &= ~(WDT_CONFIG_HALT_Msk << WDT_CONFIG_HALT_Pos);
    212a:	f8d3 250c 	ldr.w	r2, [r3, #1292]	; 0x50c
    212e:	f022 0240 	bic.w	r2, r2, #64	; 0x40
    2132:	f8c3 250c 	str.w	r2, [r3, #1292]	; 0x50c
  NRF_WDT->CONFIG |= (WDT_CONFIG_HALT_Pause << WDT_CONFIG_HALT_Pos);
    2136:	f8d3 250c 	ldr.w	r2, [r3, #1292]	; 0x50c
    213a:	f8c3 250c 	str.w	r2, [r3, #1292]	; 0x50c
  NRF_WDT->CRV = crv;
    213e:	4a05      	ldr	r2, [pc, #20]	; (2154 <setup_watchdog+0x44>)
    2140:	f8c3 2504 	str.w	r2, [r3, #1284]	; 0x504
  NRF_WDT->RREN = (WDT_RREN_RR0_Enabled << WDT_RREN_RR0_Pos);
    2144:	2201      	movs	r2, #1
    2146:	f8c3 2508 	str.w	r2, [r3, #1288]	; 0x508
  NRF_WDT->TASKS_START = 1;
    214a:	601a      	str	r2, [r3, #0]
}
    214c:	4770      	bx	lr
    214e:	bf00      	nop
    2150:	40010000 	.word	0x40010000
    2154:	00037fff 	.word	0x00037fff

00002158 <boot_custom_start>:
) {
    2158:	b570      	push	{r4, r5, r6, lr}
    215a:	4606      	mov	r6, r0
    215c:	460d      	mov	r5, r1
    blink_backlight(2, 2);
    215e:	2102      	movs	r1, #2
    2160:	4608      	mov	r0, r1
    2162:	f7ff ff09 	bl	1f78 <blink_backlight>
    console_printf("Bootloader done\n");
    2166:	480c      	ldr	r0, [pc, #48]	; (2198 <boot_custom_start+0x40>)
    2168:	f000 faac 	bl	26c4 <console_printf>
    console_flush();
    216c:	f000 fb00 	bl	2770 <console_flush>
        rsp->br_image_off +          //  Offset of FLASH_AREA_IMAGE_0 (application image): 0x8000
    2170:	68ac      	ldr	r4, [r5, #8]
        flash_base +                 //  0
    2172:	4434      	add	r4, r6
        rsp->br_hdr->ih_hdr_size     //  Size of MCUBoot image header (0x20)
    2174:	682b      	ldr	r3, [r5, #0]
    2176:	891b      	ldrh	r3, [r3, #8]
        rsp->br_image_off +          //  Offset of FLASH_AREA_IMAGE_0 (application image): 0x8000
    2178:	441c      	add	r4, r3
    relocate_vector_table(  //  Relocate the vector table...
    217a:	f44f 41fe 	mov.w	r1, #32512	; 0x7f00
    217e:	4620      	mov	r0, r4
    2180:	f7ff ff3e 	bl	2000 <relocate_vector_table>
    blink_backlight(3, 4);
    2184:	2104      	movs	r1, #4
    2186:	2003      	movs	r0, #3
    2188:	f7ff fef6 	bl	1f78 <blink_backlight>
    setup_watchdog();
    218c:	f7ff ffc0 	bl	2110 <setup_watchdog>
    hal_system_start(vector_table);
    2190:	4620      	mov	r0, r4
    2192:	f002 fb9c 	bl	48ce <hal_system_start>
    2196:	bf00      	nop
    2198:	00005a90 	.word	0x00005a90

0000219c <hard_reset>:
    delay_ms(200);
    return 0;
}

/// Reset the display controller
static int hard_reset(void) {
    219c:	b508      	push	{r3, lr}
    hal_gpio_write(DISPLAY_RST, 1);
    219e:	2101      	movs	r1, #1
    21a0:	201a      	movs	r0, #26
    21a2:	f7fe fdf4 	bl	d8e <hal_gpio_write>
    hal_gpio_write(DISPLAY_RST, 0);
    21a6:	2100      	movs	r1, #0
    21a8:	201a      	movs	r0, #26
    21aa:	f7fe fdf0 	bl	d8e <hal_gpio_write>
    hal_gpio_write(DISPLAY_RST, 1);
    21ae:	2101      	movs	r1, #1
    21b0:	201a      	movs	r0, #26
    21b2:	f7fe fdec 	bl	d8e <hal_gpio_write>
    return 0;
}
    21b6:	2000      	movs	r0, #0
    21b8:	bd08      	pop	{r3, pc}
	...

000021bc <delay_ms>:
    hal_gpio_write(DISPLAY_CS, 1);
    return 0;
}

/// Sleep for the specified number of milliseconds
static void delay_ms(uint32_t ms) {
    21bc:	b510      	push	{r4, lr}
    uint32_t delay_ticks = ms * OS_TICKS_PER_SEC / 1000;
    os_time_delay(delay_ticks);
#else  //  If Task Scheduler is disabled (i.e. MCUBoot)...
    //  os_time_delay() doesn't work in MCUBoot because the scheduler has not started
    uint8_t button_samples = 0;
    for (int i = 0; i < 64; i++) {
    21be:	2400      	movs	r4, #0
    21c0:	e007      	b.n	21d2 <delay_ms+0x16>
        for (int delay = 0; delay < 100000; delay++) {}
    21c2:	3301      	adds	r3, #1
    21c4:	4a05      	ldr	r2, [pc, #20]	; (21dc <delay_ms+0x20>)
    21c6:	4293      	cmp	r3, r2
    21c8:	ddfb      	ble.n	21c2 <delay_ms+0x6>
        button_samples += hal_gpio_read(PUSH_BUTTON_IN);
    21ca:	200d      	movs	r0, #13
    21cc:	f7fe fdf0 	bl	db0 <hal_gpio_read>
    for (int i = 0; i < 64; i++) {
    21d0:	3401      	adds	r4, #1
    21d2:	2c3f      	cmp	r4, #63	; 0x3f
    21d4:	dc01      	bgt.n	21da <delay_ms+0x1e>
        for (int delay = 0; delay < 100000; delay++) {}
    21d6:	2300      	movs	r3, #0
    21d8:	e7f4      	b.n	21c4 <delay_ms+0x8>
    }
#endif  //  MYNEWT_VAL(OS_SCHEDULING)
}
    21da:	bd10      	pop	{r4, pc}
    21dc:	0001869f 	.word	0x0001869f

000021e0 <transmit_spi>:
    if (len == 0) { return 0; }
    21e0:	b909      	cbnz	r1, 21e6 <transmit_spi+0x6>
}
    21e2:	2000      	movs	r0, #0
    21e4:	4770      	bx	lr
static int transmit_spi(const uint8_t *data, uint16_t len) {
    21e6:	b538      	push	{r3, r4, r5, lr}
    21e8:	460d      	mov	r5, r1
    21ea:	4604      	mov	r4, r0
    hal_gpio_write(DISPLAY_CS, 0);
    21ec:	2100      	movs	r1, #0
    21ee:	2019      	movs	r0, #25
    21f0:	f7fe fdcd 	bl	d8e <hal_gpio_write>
    int rc = hal_spi_txrx(DISPLAY_SPI, 
    21f4:	462b      	mov	r3, r5
    21f6:	2200      	movs	r2, #0
    21f8:	4621      	mov	r1, r4
    21fa:	4610      	mov	r0, r2
    21fc:	f7ff f816 	bl	122c <hal_spi_txrx>
    assert(rc == 0);
    2200:	b928      	cbnz	r0, 220e <transmit_spi+0x2e>
    hal_gpio_write(DISPLAY_CS, 1);
    2202:	2101      	movs	r1, #1
    2204:	2019      	movs	r0, #25
    2206:	f7fe fdc2 	bl	d8e <hal_gpio_write>
}
    220a:	2000      	movs	r0, #0
    220c:	bd38      	pop	{r3, r4, r5, pc}
    assert(rc == 0);
    220e:	f7fd ffa9 	bl	164 <hal_debugger_connected>
    2212:	b100      	cbz	r0, 2216 <transmit_spi+0x36>
    2214:	be01      	bkpt	0x0001
    2216:	2300      	movs	r3, #0
    2218:	461a      	mov	r2, r3
    221a:	4619      	mov	r1, r3
    221c:	4618      	mov	r0, r3
    221e:	f7ff fac9 	bl	17b4 <__assert_func>

00002222 <write_data>:
static int write_data(const uint8_t *data, uint16_t len) {
    2222:	b538      	push	{r3, r4, r5, lr}
    2224:	4604      	mov	r4, r0
    2226:	460d      	mov	r5, r1
    hal_gpio_write(DISPLAY_DC, 1);
    2228:	2101      	movs	r1, #1
    222a:	2012      	movs	r0, #18
    222c:	f7fe fdaf 	bl	d8e <hal_gpio_write>
    transmit_spi(data, len);
    2230:	4629      	mov	r1, r5
    2232:	4620      	mov	r0, r4
    2234:	f7ff ffd4 	bl	21e0 <transmit_spi>
}
    2238:	2000      	movs	r0, #0
    223a:	bd38      	pop	{r3, r4, r5, pc}

0000223c <write_command>:
static int write_command(uint8_t command, const uint8_t *params, uint16_t len) {
    223c:	b570      	push	{r4, r5, r6, lr}
    223e:	b082      	sub	sp, #8
    2240:	460d      	mov	r5, r1
    2242:	4616      	mov	r6, r2
    2244:	ac02      	add	r4, sp, #8
    2246:	f804 0d01 	strb.w	r0, [r4, #-1]!
    hal_gpio_write(DISPLAY_DC, 0);
    224a:	2100      	movs	r1, #0
    224c:	2012      	movs	r0, #18
    224e:	f7fe fd9e 	bl	d8e <hal_gpio_write>
    int rc = transmit_spi(&command, 1);
    2252:	2101      	movs	r1, #1
    2254:	4620      	mov	r0, r4
    2256:	f7ff ffc3 	bl	21e0 <transmit_spi>
    assert(rc == 0);
    225a:	b920      	cbnz	r0, 2266 <write_command+0x2a>
    if (params != NULL && len > 0) {
    225c:	b105      	cbz	r5, 2260 <write_command+0x24>
    225e:	b966      	cbnz	r6, 227a <write_command+0x3e>
}
    2260:	2000      	movs	r0, #0
    2262:	b002      	add	sp, #8
    2264:	bd70      	pop	{r4, r5, r6, pc}
    assert(rc == 0);
    2266:	f7fd ff7d 	bl	164 <hal_debugger_connected>
    226a:	b100      	cbz	r0, 226e <write_command+0x32>
    226c:	be01      	bkpt	0x0001
    226e:	2300      	movs	r3, #0
    2270:	461a      	mov	r2, r3
    2272:	4619      	mov	r1, r3
    2274:	4618      	mov	r0, r3
    2276:	f7ff fa9d 	bl	17b4 <__assert_func>
        rc = write_data(params, len);
    227a:	4631      	mov	r1, r6
    227c:	4628      	mov	r0, r5
    227e:	f7ff ffd0 	bl	2222 <write_data>
        assert(rc == 0);
    2282:	2800      	cmp	r0, #0
    2284:	d0ec      	beq.n	2260 <write_command+0x24>
    2286:	f7fd ff6d 	bl	164 <hal_debugger_connected>
    228a:	b100      	cbz	r0, 228e <write_command+0x52>
    228c:	be01      	bkpt	0x0001
    228e:	2300      	movs	r3, #0
    2290:	461a      	mov	r2, r3
    2292:	4619      	mov	r1, r3
    2294:	4618      	mov	r0, r3
    2296:	f7ff fa8d 	bl	17b4 <__assert_func>
	...

0000229c <init_display>:
static int init_display(void) {
    229c:	b508      	push	{r3, lr}
    rc = hal_gpio_init_out(DISPLAY_RST, 1); assert(rc == 0);
    229e:	2101      	movs	r1, #1
    22a0:	201a      	movs	r0, #26
    22a2:	f7fe fd58 	bl	d56 <hal_gpio_init_out>
    22a6:	2800      	cmp	r0, #0
    22a8:	d16e      	bne.n	2388 <init_display+0xec>
    rc = hal_gpio_init_out(DISPLAY_CS, 1); assert(rc == 0);
    22aa:	2101      	movs	r1, #1
    22ac:	2019      	movs	r0, #25
    22ae:	f7fe fd52 	bl	d56 <hal_gpio_init_out>
    22b2:	2800      	cmp	r0, #0
    22b4:	d172      	bne.n	239c <init_display+0x100>
    rc = hal_gpio_init_out(DISPLAY_DC, 0); assert(rc == 0);
    22b6:	2100      	movs	r1, #0
    22b8:	2012      	movs	r0, #18
    22ba:	f7fe fd4c 	bl	d56 <hal_gpio_init_out>
    22be:	2800      	cmp	r0, #0
    22c0:	d176      	bne.n	23b0 <init_display+0x114>
    rc = hal_gpio_init_out(DISPLAY_HIGH, 0); assert(rc == 0);
    22c2:	2100      	movs	r1, #0
    22c4:	2017      	movs	r0, #23
    22c6:	f7fe fd46 	bl	d56 <hal_gpio_init_out>
    22ca:	2800      	cmp	r0, #0
    22cc:	d17a      	bne.n	23c4 <init_display+0x128>
    hard_reset();
    22ce:	f7ff ff65 	bl	219c <hard_reset>
    write_command(SWRESET, NULL, 0);
    22d2:	2200      	movs	r2, #0
    22d4:	4611      	mov	r1, r2
    22d6:	2001      	movs	r0, #1
    22d8:	f7ff ffb0 	bl	223c <write_command>
    delay_ms(200);
    22dc:	20c8      	movs	r0, #200	; 0xc8
    22de:	f7ff ff6d 	bl	21bc <delay_ms>
    write_command(SLPOUT, NULL, 0);
    22e2:	2200      	movs	r2, #0
    22e4:	4611      	mov	r1, r2
    22e6:	2011      	movs	r0, #17
    22e8:	f7ff ffa8 	bl	223c <write_command>
    delay_ms(200);
    22ec:	20c8      	movs	r0, #200	; 0xc8
    22ee:	f7ff ff65 	bl	21bc <delay_ms>
    write_command(FRMCTR1, FRMCTR1_PARA, sizeof(FRMCTR1_PARA));
    22f2:	2203      	movs	r2, #3
    22f4:	4938      	ldr	r1, [pc, #224]	; (23d8 <init_display+0x13c>)
    22f6:	20b1      	movs	r0, #177	; 0xb1
    22f8:	f7ff ffa0 	bl	223c <write_command>
    write_command(FRMCTR2, FRMCTR2_PARA, sizeof(FRMCTR2_PARA));
    22fc:	2203      	movs	r2, #3
    22fe:	4937      	ldr	r1, [pc, #220]	; (23dc <init_display+0x140>)
    2300:	20b2      	movs	r0, #178	; 0xb2
    2302:	f7ff ff9b 	bl	223c <write_command>
    write_command(FRMCTR3, FRMCTR3_PARA, sizeof(FRMCTR3_PARA));
    2306:	2206      	movs	r2, #6
    2308:	4935      	ldr	r1, [pc, #212]	; (23e0 <init_display+0x144>)
    230a:	20b3      	movs	r0, #179	; 0xb3
    230c:	f7ff ff96 	bl	223c <write_command>
    write_command(INVCTR, INVCTR_PARA, sizeof(INVCTR_PARA));
    2310:	2201      	movs	r2, #1
    2312:	4934      	ldr	r1, [pc, #208]	; (23e4 <init_display+0x148>)
    2314:	20b4      	movs	r0, #180	; 0xb4
    2316:	f7ff ff91 	bl	223c <write_command>
    write_command(PWCTR1, PWCTR1_PARA, sizeof(PWCTR1_PARA));
    231a:	2203      	movs	r2, #3
    231c:	4932      	ldr	r1, [pc, #200]	; (23e8 <init_display+0x14c>)
    231e:	20c0      	movs	r0, #192	; 0xc0
    2320:	f7ff ff8c 	bl	223c <write_command>
    write_command(PWCTR2, PWCTR2_PARA, sizeof(PWCTR2_PARA));
    2324:	2201      	movs	r2, #1
    2326:	4931      	ldr	r1, [pc, #196]	; (23ec <init_display+0x150>)
    2328:	20c1      	movs	r0, #193	; 0xc1
    232a:	f7ff ff87 	bl	223c <write_command>
    write_command(PWCTR3, PWCTR3_PARA, sizeof(PWCTR3_PARA));
    232e:	2202      	movs	r2, #2
    2330:	492f      	ldr	r1, [pc, #188]	; (23f0 <init_display+0x154>)
    2332:	20c2      	movs	r0, #194	; 0xc2
    2334:	f7ff ff82 	bl	223c <write_command>
    write_command(PWCTR4, PWCTR4_PARA, sizeof(PWCTR4_PARA));
    2338:	2202      	movs	r2, #2
    233a:	492e      	ldr	r1, [pc, #184]	; (23f4 <init_display+0x158>)
    233c:	20c3      	movs	r0, #195	; 0xc3
    233e:	f7ff ff7d 	bl	223c <write_command>
    write_command(PWCTR5, PWCTR5_PARA, sizeof(PWCTR5_PARA));
    2342:	2202      	movs	r2, #2
    2344:	492c      	ldr	r1, [pc, #176]	; (23f8 <init_display+0x15c>)
    2346:	20c4      	movs	r0, #196	; 0xc4
    2348:	f7ff ff78 	bl	223c <write_command>
    write_command(VMCTR1, VMCTR1_PARA, sizeof(VMCTR1_PARA));
    234c:	2201      	movs	r2, #1
    234e:	492b      	ldr	r1, [pc, #172]	; (23fc <init_display+0x160>)
    2350:	20c5      	movs	r0, #197	; 0xc5
    2352:	f7ff ff73 	bl	223c <write_command>
        write_command(INVON, NULL, 0);
    2356:	2200      	movs	r2, #0
    2358:	4611      	mov	r1, r2
    235a:	2021      	movs	r0, #33	; 0x21
    235c:	f7ff ff6e 	bl	223c <write_command>
        write_command(MADCTL, MADCTL1_PARA, sizeof(MADCTL1_PARA));
    2360:	2201      	movs	r2, #1
    2362:	4927      	ldr	r1, [pc, #156]	; (2400 <init_display+0x164>)
    2364:	2036      	movs	r0, #54	; 0x36
    2366:	f7ff ff69 	bl	223c <write_command>
    write_command(COLMOD, COLMOD_PARA, sizeof(COLMOD_PARA));
    236a:	2201      	movs	r2, #1
    236c:	4925      	ldr	r1, [pc, #148]	; (2404 <init_display+0x168>)
    236e:	203a      	movs	r0, #58	; 0x3a
    2370:	f7ff ff64 	bl	223c <write_command>
    write_command(DISPON, NULL, 0);
    2374:	2200      	movs	r2, #0
    2376:	4611      	mov	r1, r2
    2378:	2029      	movs	r0, #41	; 0x29
    237a:	f7ff ff5f 	bl	223c <write_command>
    delay_ms(200);
    237e:	20c8      	movs	r0, #200	; 0xc8
    2380:	f7ff ff1c 	bl	21bc <delay_ms>
}
    2384:	2000      	movs	r0, #0
    2386:	bd08      	pop	{r3, pc}
    rc = hal_gpio_init_out(DISPLAY_RST, 1); assert(rc == 0);
    2388:	f7fd feec 	bl	164 <hal_debugger_connected>
    238c:	b100      	cbz	r0, 2390 <init_display+0xf4>
    238e:	be01      	bkpt	0x0001
    2390:	2300      	movs	r3, #0
    2392:	461a      	mov	r2, r3
    2394:	4619      	mov	r1, r3
    2396:	4618      	mov	r0, r3
    2398:	f7ff fa0c 	bl	17b4 <__assert_func>
    rc = hal_gpio_init_out(DISPLAY_CS, 1); assert(rc == 0);
    239c:	f7fd fee2 	bl	164 <hal_debugger_connected>
    23a0:	b100      	cbz	r0, 23a4 <init_display+0x108>
    23a2:	be01      	bkpt	0x0001
    23a4:	2300      	movs	r3, #0
    23a6:	461a      	mov	r2, r3
    23a8:	4619      	mov	r1, r3
    23aa:	4618      	mov	r0, r3
    23ac:	f7ff fa02 	bl	17b4 <__assert_func>
    rc = hal_gpio_init_out(DISPLAY_DC, 0); assert(rc == 0);
    23b0:	f7fd fed8 	bl	164 <hal_debugger_connected>
    23b4:	b100      	cbz	r0, 23b8 <init_display+0x11c>
    23b6:	be01      	bkpt	0x0001
    23b8:	2300      	movs	r3, #0
    23ba:	461a      	mov	r2, r3
    23bc:	4619      	mov	r1, r3
    23be:	4618      	mov	r0, r3
    23c0:	f7ff f9f8 	bl	17b4 <__assert_func>
    rc = hal_gpio_init_out(DISPLAY_HIGH, 0); assert(rc == 0);
    23c4:	f7fd fece 	bl	164 <hal_debugger_connected>
    23c8:	b100      	cbz	r0, 23cc <init_display+0x130>
    23ca:	be01      	bkpt	0x0001
    23cc:	2300      	movs	r3, #0
    23ce:	461a      	mov	r2, r3
    23d0:	4619      	mov	r1, r3
    23d2:	4618      	mov	r0, r3
    23d4:	f7ff f9ee 	bl	17b4 <__assert_func>
    23d8:	00005b14 	.word	0x00005b14
    23dc:	00005b18 	.word	0x00005b18
    23e0:	00005b1c 	.word	0x00005b1c
    23e4:	00005b24 	.word	0x00005b24
    23e8:	00005b2c 	.word	0x00005b2c
    23ec:	00005b30 	.word	0x00005b30
    23f0:	00005b34 	.word	0x00005b34
    23f4:	00005b38 	.word	0x00005b38
    23f8:	00005b3c 	.word	0x00005b3c
    23fc:	00005b40 	.word	0x00005b40
    2400:	00005b28 	.word	0x00005b28
    2404:	00005b10 	.word	0x00005b10

00002408 <set_orientation>:
static int set_orientation(uint8_t orientation) {
    2408:	b500      	push	{lr}
    240a:	b083      	sub	sp, #12
        uint8_t orientation_para[1] = { orientation };
    240c:	a902      	add	r1, sp, #8
    240e:	f801 0d04 	strb.w	r0, [r1, #-4]!
        int rc = write_command(MADCTL, orientation_para, 1);
    2412:	2201      	movs	r2, #1
    2414:	2036      	movs	r0, #54	; 0x36
    2416:	f7ff ff11 	bl	223c <write_command>
        assert(rc == 0);
    241a:	b918      	cbnz	r0, 2424 <set_orientation+0x1c>
}
    241c:	2000      	movs	r0, #0
    241e:	b003      	add	sp, #12
    2420:	f85d fb04 	ldr.w	pc, [sp], #4
        assert(rc == 0);
    2424:	f7fd fe9e 	bl	164 <hal_debugger_connected>
    2428:	b100      	cbz	r0, 242c <set_orientation+0x24>
    242a:	be01      	bkpt	0x0001
    242c:	2300      	movs	r3, #0
    242e:	461a      	mov	r2, r3
    2430:	4619      	mov	r1, r3
    2432:	4618      	mov	r0, r3
    2434:	f7ff f9be 	bl	17b4 <__assert_func>

00002438 <set_window>:
static int set_window(uint8_t left, uint8_t top, uint8_t right, uint8_t bottom) {
    2438:	b5f0      	push	{r4, r5, r6, r7, lr}
    243a:	b083      	sub	sp, #12
    assert(left < COL_COUNT && right < COL_COUNT && top < ROW_COUNT && bottom < ROW_COUNT);
    243c:	28ef      	cmp	r0, #239	; 0xef
    243e:	d83d      	bhi.n	24bc <set_window+0x84>
    2440:	4604      	mov	r4, r0
    2442:	460e      	mov	r6, r1
    2444:	4615      	mov	r5, r2
    2446:	461f      	mov	r7, r3
    2448:	2aef      	cmp	r2, #239	; 0xef
    244a:	d837      	bhi.n	24bc <set_window+0x84>
    244c:	29ef      	cmp	r1, #239	; 0xef
    244e:	d835      	bhi.n	24bc <set_window+0x84>
    2450:	2bef      	cmp	r3, #239	; 0xef
    2452:	d833      	bhi.n	24bc <set_window+0x84>
    assert(left <= right);
    2454:	4290      	cmp	r0, r2
    2456:	d83b      	bhi.n	24d0 <set_window+0x98>
    assert(top <= bottom);
    2458:	4299      	cmp	r1, r3
    245a:	d843      	bhi.n	24e4 <set_window+0xac>
    int rc = write_command(CASET, NULL, 0); assert(rc == 0);
    245c:	2200      	movs	r2, #0
    245e:	4611      	mov	r1, r2
    2460:	202a      	movs	r0, #42	; 0x2a
    2462:	f7ff feeb 	bl	223c <write_command>
    2466:	2800      	cmp	r0, #0
    2468:	d146      	bne.n	24f8 <set_window+0xc0>
    uint8_t col_para[4] = { 0x00, left, 0x00, right };
    246a:	2300      	movs	r3, #0
    246c:	f88d 3004 	strb.w	r3, [sp, #4]
    2470:	f88d 4005 	strb.w	r4, [sp, #5]
    2474:	f88d 3006 	strb.w	r3, [sp, #6]
    2478:	f88d 5007 	strb.w	r5, [sp, #7]
    rc = write_data(col_para, 4); assert(rc == 0);
    247c:	2104      	movs	r1, #4
    247e:	eb0d 0001 	add.w	r0, sp, r1
    2482:	f7ff fece 	bl	2222 <write_data>
    2486:	2800      	cmp	r0, #0
    2488:	d140      	bne.n	250c <set_window+0xd4>
    rc = write_command(RASET, NULL, 0); assert(rc == 0);
    248a:	2200      	movs	r2, #0
    248c:	4611      	mov	r1, r2
    248e:	202b      	movs	r0, #43	; 0x2b
    2490:	f7ff fed4 	bl	223c <write_command>
    2494:	2800      	cmp	r0, #0
    2496:	d143      	bne.n	2520 <set_window+0xe8>
    uint8_t row_para[4] = { 0x00, top, 0x00, bottom };
    2498:	2300      	movs	r3, #0
    249a:	f88d 3000 	strb.w	r3, [sp]
    249e:	f88d 6001 	strb.w	r6, [sp, #1]
    24a2:	f88d 3002 	strb.w	r3, [sp, #2]
    24a6:	f88d 7003 	strb.w	r7, [sp, #3]
    rc = write_data(row_para, 4); assert(rc == 0);
    24aa:	2104      	movs	r1, #4
    24ac:	4668      	mov	r0, sp
    24ae:	f7ff feb8 	bl	2222 <write_data>
    24b2:	2800      	cmp	r0, #0
    24b4:	d13e      	bne.n	2534 <set_window+0xfc>
}
    24b6:	2000      	movs	r0, #0
    24b8:	b003      	add	sp, #12
    24ba:	bdf0      	pop	{r4, r5, r6, r7, pc}
    assert(left < COL_COUNT && right < COL_COUNT && top < ROW_COUNT && bottom < ROW_COUNT);
    24bc:	f7fd fe52 	bl	164 <hal_debugger_connected>
    24c0:	b100      	cbz	r0, 24c4 <set_window+0x8c>
    24c2:	be01      	bkpt	0x0001
    24c4:	2300      	movs	r3, #0
    24c6:	461a      	mov	r2, r3
    24c8:	4619      	mov	r1, r3
    24ca:	4618      	mov	r0, r3
    24cc:	f7ff f972 	bl	17b4 <__assert_func>
    assert(left <= right);
    24d0:	f7fd fe48 	bl	164 <hal_debugger_connected>
    24d4:	b100      	cbz	r0, 24d8 <set_window+0xa0>
    24d6:	be01      	bkpt	0x0001
    24d8:	2300      	movs	r3, #0
    24da:	461a      	mov	r2, r3
    24dc:	4619      	mov	r1, r3
    24de:	4618      	mov	r0, r3
    24e0:	f7ff f968 	bl	17b4 <__assert_func>
    assert(top <= bottom);
    24e4:	f7fd fe3e 	bl	164 <hal_debugger_connected>
    24e8:	b100      	cbz	r0, 24ec <set_window+0xb4>
    24ea:	be01      	bkpt	0x0001
    24ec:	2300      	movs	r3, #0
    24ee:	461a      	mov	r2, r3
    24f0:	4619      	mov	r1, r3
    24f2:	4618      	mov	r0, r3
    24f4:	f7ff f95e 	bl	17b4 <__assert_func>
    int rc = write_command(CASET, NULL, 0); assert(rc == 0);
    24f8:	f7fd fe34 	bl	164 <hal_debugger_connected>
    24fc:	b100      	cbz	r0, 2500 <set_window+0xc8>
    24fe:	be01      	bkpt	0x0001
    2500:	2300      	movs	r3, #0
    2502:	461a      	mov	r2, r3
    2504:	4619      	mov	r1, r3
    2506:	4618      	mov	r0, r3
    2508:	f7ff f954 	bl	17b4 <__assert_func>
    rc = write_data(col_para, 4); assert(rc == 0);
    250c:	f7fd fe2a 	bl	164 <hal_debugger_connected>
    2510:	b100      	cbz	r0, 2514 <set_window+0xdc>
    2512:	be01      	bkpt	0x0001
    2514:	2300      	movs	r3, #0
    2516:	461a      	mov	r2, r3
    2518:	4619      	mov	r1, r3
    251a:	4618      	mov	r0, r3
    251c:	f7ff f94a 	bl	17b4 <__assert_func>
    rc = write_command(RASET, NULL, 0); assert(rc == 0);
    2520:	f7fd fe20 	bl	164 <hal_debugger_connected>
    2524:	b100      	cbz	r0, 2528 <set_window+0xf0>
    2526:	be01      	bkpt	0x0001
    2528:	2300      	movs	r3, #0
    252a:	461a      	mov	r2, r3
    252c:	4619      	mov	r1, r3
    252e:	4618      	mov	r0, r3
    2530:	f7ff f940 	bl	17b4 <__assert_func>
    rc = write_data(row_para, 4); assert(rc == 0);
    2534:	f7fd fe16 	bl	164 <hal_debugger_connected>
    2538:	b100      	cbz	r0, 253c <set_window+0x104>
    253a:	be01      	bkpt	0x0001
    253c:	2300      	movs	r3, #0
    253e:	461a      	mov	r2, r3
    2540:	4619      	mov	r1, r3
    2542:	4618      	mov	r0, r3
    2544:	f7ff f936 	bl	17b4 <__assert_func>

00002548 <pinetime_boot_display_image>:
int pinetime_boot_display_image(void) {
    2548:	b5f8      	push	{r3, r4, r5, r6, r7, lr}
    console_printf("Displaying image...\n"); console_flush();
    254a:	4841      	ldr	r0, [pc, #260]	; (2650 <pinetime_boot_display_image+0x108>)
    254c:	f000 f8ba 	bl	26c4 <console_printf>
    2550:	f000 f90e 	bl	2770 <console_flush>
    int rc = init_display();  assert(rc == 0);
    2554:	f7ff fea2 	bl	229c <init_display>
    2558:	b928      	cbnz	r0, 2566 <pinetime_boot_display_image+0x1e>
    rc = set_orientation(Landscape);  assert(rc == 0);
    255a:	2060      	movs	r0, #96	; 0x60
    255c:	f7ff ff54 	bl	2408 <set_orientation>
    2560:	b958      	cbnz	r0, 257a <pinetime_boot_display_image+0x32>
    for (uint8_t row = 0; row < ROW_COUNT; row++) {
    2562:	2600      	movs	r6, #0
    2564:	e069      	b.n	263a <pinetime_boot_display_image+0xf2>
    int rc = init_display();  assert(rc == 0);
    2566:	f7fd fdfd 	bl	164 <hal_debugger_connected>
    256a:	b100      	cbz	r0, 256e <pinetime_boot_display_image+0x26>
    256c:	be01      	bkpt	0x0001
    256e:	2300      	movs	r3, #0
    2570:	461a      	mov	r2, r3
    2572:	4619      	mov	r1, r3
    2574:	4618      	mov	r0, r3
    2576:	f7ff f91d 	bl	17b4 <__assert_func>
    rc = set_orientation(Landscape);  assert(rc == 0);
    257a:	f7fd fdf3 	bl	164 <hal_debugger_connected>
    257e:	b100      	cbz	r0, 2582 <pinetime_boot_display_image+0x3a>
    2580:	be01      	bkpt	0x0001
    2582:	2300      	movs	r3, #0
    2584:	461a      	mov	r2, r3
    2586:	4619      	mov	r1, r3
    2588:	4618      	mov	r0, r3
    258a:	f7ff f913 	bl	17b4 <__assert_func>
            uint16_t len = (right - left + 1) * BYTES_PER_PIXEL;
    258e:	1be5      	subs	r5, r4, r7
    2590:	3501      	adds	r5, #1
    2592:	006d      	lsls	r5, r5, #1
    2594:	b2ad      	uxth	r5, r5
            uint32_t offset = ((top * COL_COUNT) + left) * BYTES_PER_PIXEL;
    2596:	ebc6 1306 	rsb	r3, r6, r6, lsl #4
    259a:	0119      	lsls	r1, r3, #4
    259c:	4439      	add	r1, r7
            int rc = hal_flash_read(FLASH_DEVICE, offset, flash_buffer, len); assert(rc == 0);
    259e:	462b      	mov	r3, r5
    25a0:	4a2c      	ldr	r2, [pc, #176]	; (2654 <pinetime_boot_display_image+0x10c>)
    25a2:	0049      	lsls	r1, r1, #1
    25a4:	2001      	movs	r0, #1
    25a6:	f002 f878 	bl	469a <hal_flash_read>
    25aa:	b9e0      	cbnz	r0, 25e6 <pinetime_boot_display_image+0x9e>
            rc = set_window(left, top, right, bottom); assert(rc == 0);
    25ac:	b2e4      	uxtb	r4, r4
    25ae:	4633      	mov	r3, r6
    25b0:	4622      	mov	r2, r4
    25b2:	4631      	mov	r1, r6
    25b4:	4638      	mov	r0, r7
    25b6:	f7ff ff3f 	bl	2438 <set_window>
    25ba:	b9f0      	cbnz	r0, 25fa <pinetime_boot_display_image+0xb2>
            rc = write_command(RAMWR, NULL, 0); assert(rc == 0);
    25bc:	2200      	movs	r2, #0
    25be:	4611      	mov	r1, r2
    25c0:	202c      	movs	r0, #44	; 0x2c
    25c2:	f7ff fe3b 	bl	223c <write_command>
    25c6:	bb10      	cbnz	r0, 260e <pinetime_boot_display_image+0xc6>
            rc = write_data(flash_buffer, len); assert(rc == 0);
    25c8:	4629      	mov	r1, r5
    25ca:	4822      	ldr	r0, [pc, #136]	; (2654 <pinetime_boot_display_image+0x10c>)
    25cc:	f7ff fe29 	bl	2222 <write_data>
    25d0:	bb38      	cbnz	r0, 2622 <pinetime_boot_display_image+0xda>
            left = right + 1;
    25d2:	3401      	adds	r4, #1
    25d4:	b2e7      	uxtb	r7, r4
            if (left >= COL_COUNT) { break; }
    25d6:	2fef      	cmp	r7, #239	; 0xef
    25d8:	d82d      	bhi.n	2636 <pinetime_boot_display_image+0xee>
            uint16_t right = left + batch_columns - 1;
    25da:	f107 047f 	add.w	r4, r7, #127	; 0x7f
            if (right >= COL_COUNT) { right = COL_COUNT - 1; }
    25de:	2cef      	cmp	r4, #239	; 0xef
    25e0:	d9d5      	bls.n	258e <pinetime_boot_display_image+0x46>
    25e2:	24ef      	movs	r4, #239	; 0xef
    25e4:	e7d3      	b.n	258e <pinetime_boot_display_image+0x46>
            int rc = hal_flash_read(FLASH_DEVICE, offset, flash_buffer, len); assert(rc == 0);
    25e6:	f7fd fdbd 	bl	164 <hal_debugger_connected>
    25ea:	b100      	cbz	r0, 25ee <pinetime_boot_display_image+0xa6>
    25ec:	be01      	bkpt	0x0001
    25ee:	2300      	movs	r3, #0
    25f0:	461a      	mov	r2, r3
    25f2:	4619      	mov	r1, r3
    25f4:	4618      	mov	r0, r3
    25f6:	f7ff f8dd 	bl	17b4 <__assert_func>
            rc = set_window(left, top, right, bottom); assert(rc == 0);
    25fa:	f7fd fdb3 	bl	164 <hal_debugger_connected>
    25fe:	b100      	cbz	r0, 2602 <pinetime_boot_display_image+0xba>
    2600:	be01      	bkpt	0x0001
    2602:	2300      	movs	r3, #0
    2604:	461a      	mov	r2, r3
    2606:	4619      	mov	r1, r3
    2608:	4618      	mov	r0, r3
    260a:	f7ff f8d3 	bl	17b4 <__assert_func>
            rc = write_command(RAMWR, NULL, 0); assert(rc == 0);
    260e:	f7fd fda9 	bl	164 <hal_debugger_connected>
    2612:	b100      	cbz	r0, 2616 <pinetime_boot_display_image+0xce>
    2614:	be01      	bkpt	0x0001
    2616:	2300      	movs	r3, #0
    2618:	461a      	mov	r2, r3
    261a:	4619      	mov	r1, r3
    261c:	4618      	mov	r0, r3
    261e:	f7ff f8c9 	bl	17b4 <__assert_func>
            rc = write_data(flash_buffer, len); assert(rc == 0);
    2622:	f7fd fd9f 	bl	164 <hal_debugger_connected>
    2626:	b100      	cbz	r0, 262a <pinetime_boot_display_image+0xe2>
    2628:	be01      	bkpt	0x0001
    262a:	2300      	movs	r3, #0
    262c:	461a      	mov	r2, r3
    262e:	4619      	mov	r1, r3
    2630:	4618      	mov	r0, r3
    2632:	f7ff f8bf 	bl	17b4 <__assert_func>
    for (uint8_t row = 0; row < ROW_COUNT; row++) {
    2636:	3601      	adds	r6, #1
    2638:	b2f6      	uxtb	r6, r6
    263a:	2eef      	cmp	r6, #239	; 0xef
    263c:	d801      	bhi.n	2642 <pinetime_boot_display_image+0xfa>
        uint8_t left = 0;
    263e:	2700      	movs	r7, #0
    2640:	e7c9      	b.n	25d6 <pinetime_boot_display_image+0x8e>
    console_printf("Image displayed\n"); console_flush();
    2642:	4805      	ldr	r0, [pc, #20]	; (2658 <pinetime_boot_display_image+0x110>)
    2644:	f000 f83e 	bl	26c4 <console_printf>
    2648:	f000 f892 	bl	2770 <console_flush>
}
    264c:	2000      	movs	r0, #0
    264e:	bdf8      	pop	{r3, r4, r5, r6, r7, pc}
    2650:	00005b44 	.word	0x00005b44
    2654:	20004ae8 	.word	0x20004ae8
    2658:	00005b5c 	.word	0x00005b5c

0000265c <console_write>:

int console_unlock(void) { return OS_OK; }

int console_out(int c) { return console_out_nolock(c); }

void console_write(const char *str, int cnt) {
    265c:	b570      	push	{r4, r5, r6, lr}
    265e:	4606      	mov	r6, r0
    2660:	460d      	mov	r5, r1
    int i;
    for (i = 0; i < cnt; i++) {
    2662:	2400      	movs	r4, #0
    2664:	42ac      	cmp	r4, r5
    2666:	da07      	bge.n	2678 <console_write+0x1c>
        if (console_out_nolock((int)str[i]) == EOF) { break; }
    2668:	5d30      	ldrb	r0, [r6, r4]
    266a:	f000 f8e1 	bl	2830 <console_out_nolock>
    266e:	f1b0 3fff 	cmp.w	r0, #4294967295	; 0xffffffff
    2672:	d001      	beq.n	2678 <console_write+0x1c>
    for (i = 0; i < cnt; i++) {
    2674:	3401      	adds	r4, #1
    2676:	e7f5      	b.n	2664 <console_write+0x8>
    }
}
    2678:	bd70      	pop	{r4, r5, r6, pc}

0000267a <console_blocking_mode>:

void console_blocking_mode(void) {
    267a:	b508      	push	{r3, lr}
    disable_buffer();
    267c:	f000 f89c 	bl	27b8 <disable_buffer>
}
    2680:	bd08      	pop	{r3, pc}
	...

00002684 <console_pkg_init>:

void console_deinit(void) {}

void console_reinit(void) {}

void console_pkg_init(void) {
    2684:	b510      	push	{r4, lr}
    2686:	b082      	sub	sp, #8
    int rc = 0;

    /* Ensure this function only gets called by sysinit. */
    SYSINIT_ASSERT_ACTIVE();

    os_eventq_init(&avail_queue);
    2688:	480b      	ldr	r0, [pc, #44]	; (26b8 <console_pkg_init+0x34>)
    268a:	f7ff f968 	bl	195e <os_eventq_init>
    os_mutex_init(&console_write_lock);
    268e:	480b      	ldr	r0, [pc, #44]	; (26bc <console_pkg_init+0x38>)
    2690:	f7ff fbc3 	bl	1e1a <os_mutex_init>

#if MYNEWT_VAL(CONSOLE_SEMIHOSTING)
    rc = semihosting_console_init();
    2694:	f000 f8ea 	bl	286c <semihosting_console_init>
#endif
    SYSINIT_PANIC_ASSERT(rc == 0);
    2698:	b908      	cbnz	r0, 269e <console_pkg_init+0x1a>
}
    269a:	b002      	add	sp, #8
    269c:	bd10      	pop	{r4, pc}
    SYSINIT_PANIC_ASSERT(rc == 0);
    269e:	f7fd fd61 	bl	164 <hal_debugger_connected>
    26a2:	b100      	cbz	r0, 26a6 <console_pkg_init+0x22>
    26a4:	be01      	bkpt	0x0001
    26a6:	2000      	movs	r0, #0
    26a8:	9000      	str	r0, [sp, #0]
    26aa:	4b05      	ldr	r3, [pc, #20]	; (26c0 <console_pkg_init+0x3c>)
    26ac:	681c      	ldr	r4, [r3, #0]
    26ae:	4603      	mov	r3, r0
    26b0:	4602      	mov	r2, r0
    26b2:	4601      	mov	r1, r0
    26b4:	47a0      	blx	r4
}
    26b6:	e7f0      	b.n	269a <console_pkg_init+0x16>
    26b8:	20004be8 	.word	0x20004be8
    26bc:	20004bfc 	.word	0x20004bfc
    26c0:	20000150 	.word	0x20000150

000026c4 <console_printf>:
 *                                  unlimited.  This return value is analogous
 *                                  to that of snprintf.
 */
int
console_printf(const char *fmt, ...)
{
    26c4:	b40f      	push	{r0, r1, r2, r3}
    26c6:	b510      	push	{r4, lr}
    26c8:	b082      	sub	sp, #8
    va_list args;
    int num_chars;

    num_chars = 0;

    if (console_get_ticks()) {
    26ca:	f000 f8d1 	bl	2870 <console_get_ticks>
    26ce:	b160      	cbz	r0, 26ea <console_printf+0x26>
        /* Prefix each line with a timestamp. */
        if (!console_is_midline) {
    26d0:	4b0c      	ldr	r3, [pc, #48]	; (2704 <console_printf+0x40>)
    26d2:	681b      	ldr	r3, [r3, #0]
    26d4:	b10b      	cbz	r3, 26da <console_printf+0x16>
    num_chars = 0;
    26d6:	2400      	movs	r4, #0
    26d8:	e008      	b.n	26ec <console_printf+0x28>
            num_chars += printf("%06lu ", (unsigned long)os_time_get());
    26da:	f7ff fa79 	bl	1bd0 <os_time_get>
    26de:	4601      	mov	r1, r0
    26e0:	4809      	ldr	r0, [pc, #36]	; (2708 <console_printf+0x44>)
    26e2:	f002 fc0b 	bl	4efc <printf>
    26e6:	4604      	mov	r4, r0
    26e8:	e000      	b.n	26ec <console_printf+0x28>
    num_chars = 0;
    26ea:	2400      	movs	r4, #0
        }
    }

    va_start(args, fmt);
    26ec:	a905      	add	r1, sp, #20
    26ee:	9101      	str	r1, [sp, #4]
    num_chars += vprintf(fmt, args);
    26f0:	9804      	ldr	r0, [sp, #16]
    26f2:	f002 fc15 	bl	4f20 <vprintf>
    va_end(args);

    return num_chars;
}
    26f6:	4420      	add	r0, r4
    26f8:	b002      	add	sp, #8
    26fa:	e8bd 4010 	ldmia.w	sp!, {r4, lr}
    26fe:	b004      	add	sp, #16
    2700:	4770      	bx	lr
    2702:	bf00      	nop
    2704:	20004bf8 	.word	0x20004bf8
    2708:	00005b70 	.word	0x00005b70

0000270c <__semihost>:
	//    openocd -f interface/stlink-v2.cfg -f target/stm32f1x.cfg -f scripts/debug.ocd

	//  Warning: This code will trigger a breakpoint and hang unless a debugger is connected.
	//  That's how ARM Semihosting sends a command to the debugger to print a message.
	//  This code MUST be disabled on production devices.
    if (!log_enabled) return -1;
    270c:	4b07      	ldr	r3, [pc, #28]	; (272c <__semihost+0x20>)
    270e:	781b      	ldrb	r3, [r3, #0]
    2710:	b143      	cbz	r3, 2724 <__semihost+0x18>
static int __semihost(int command, void* message) {
    2712:	b410      	push	{r4}
    2714:	4602      	mov	r2, r0
    2716:	460c      	mov	r4, r1
    __asm( 
    2718:	4610      	mov	r0, r2
    271a:	4621      	mov	r1, r4
    271c:	beab      	bkpt	0x00ab
		[cmd] "r" (command), 
		[msg] "r" (message)
	:  //  Clobbered register list:
		"r0", "r1", "memory"
	);
	return 0;  //  TODO
    271e:	2000      	movs	r0, #0
}
    2720:	bc10      	pop	{r4}
    2722:	4770      	bx	lr
    if (!log_enabled) return -1;
    2724:	f04f 30ff 	mov.w	r0, #4294967295	; 0xffffffff
}
    2728:	4770      	bx	lr
    272a:	bf00      	nop
    272c:	2000014c 	.word	0x2000014c

00002730 <debugger_connected>:
// #define SYS_RENAME (0xf)
// #define SYS_EXIT   (0x18)

static int debugger_connected(void) {
    //  Return non-zero if debugger is connected. From repos/apache-mynewt-core/hw/mcu/ambiq/apollo2/src/hal_system.c
    return CoreDebug->DHCSR & CoreDebug_DHCSR_C_DEBUGEN_Msk;
    2730:	4b02      	ldr	r3, [pc, #8]	; (273c <debugger_connected+0xc>)
    2732:	6818      	ldr	r0, [r3, #0]
}
    2734:	f000 0001 	and.w	r0, r0, #1
    2738:	4770      	bx	lr
    273a:	bf00      	nop
    273c:	e000edf0 	.word	0xe000edf0

00002740 <semihost_write>:
#endif  //  !DISABLE_SEMIHOSTING

// We normally set the file handle to 2 to write to the debugger's stderr output.
#define SEMIHOST_HANDLE 2

static int semihost_write(uint32_t fh, const unsigned char *buffer, unsigned int length) {
    2740:	b570      	push	{r4, r5, r6, lr}
    2742:	b084      	sub	sp, #16
    2744:	4606      	mov	r6, r0
    2746:	460d      	mov	r5, r1
    2748:	4614      	mov	r4, r2
    //  Write "length" number of bytes from "buffer" to the debugger's file handle fh.
    //  We normally set fh=2 to write to the debugger's stderr output.
#ifdef DISABLE_SEMIHOSTING  //  If Arm Semihosting is disabled...
    return 0;               //  Don't write debug messages.
#else                       //  If Arm Semihosting is enabled...
    if (!debugger_connected()) { return 0; }  //  If debugger is not connected, quit.
    274a:	f7ff fff1 	bl	2730 <debugger_connected>
    274e:	4603      	mov	r3, r0
    2750:	b108      	cbz	r0, 2756 <semihost_write+0x16>
    if (length == 0) { return 0; }
    2752:	b91c      	cbnz	r4, 275c <semihost_write+0x1c>
    2754:	2300      	movs	r3, #0
    args[0] = (uint32_t)fh;
    args[1] = (uint32_t)buffer;
    args[2] = (uint32_t)length;
    return __semihost(SYS_WRITE, args);
#endif  //  DISABLE_SEMIHOSTING
}
    2756:	4618      	mov	r0, r3
    2758:	b004      	add	sp, #16
    275a:	bd70      	pop	{r4, r5, r6, pc}
    args[0] = (uint32_t)fh;
    275c:	9601      	str	r6, [sp, #4]
    args[1] = (uint32_t)buffer;
    275e:	9502      	str	r5, [sp, #8]
    args[2] = (uint32_t)length;
    2760:	9403      	str	r4, [sp, #12]
    return __semihost(SYS_WRITE, args);
    2762:	a901      	add	r1, sp, #4
    2764:	2005      	movs	r0, #5
    2766:	f7ff ffd1 	bl	270c <__semihost>
    276a:	4603      	mov	r3, r0
    276c:	e7f3      	b.n	2756 <semihost_write+0x16>
	...

00002770 <console_flush>:

static struct os_mbuf *semihost_mbuf = NULL;

void console_flush(void) {
    2770:	b538      	push	{r3, r4, r5, lr}
    //  Flush output buffer to the console log.  This will be slow.
    if (!log_enabled) { return; }       //  Skip if log not enabled.
    2772:	4b0e      	ldr	r3, [pc, #56]	; (27ac <console_flush+0x3c>)
    2774:	781b      	ldrb	r3, [r3, #0]
    2776:	b1bb      	cbz	r3, 27a8 <console_flush+0x38>
    if (!semihost_mbuf) { return; }     //  Buffer is empty, nothing to write.
    2778:	4b0d      	ldr	r3, [pc, #52]	; (27b0 <console_flush+0x40>)
    277a:	681d      	ldr	r5, [r3, #0]
    277c:	b1a5      	cbz	r5, 27a8 <console_flush+0x38>
#endif

static inline int
os_arch_in_isr(void)
{
    return (SCB->ICSR & SCB_ICSR_VECTACTIVE_Msk) != 0;
    277e:	4b0d      	ldr	r3, [pc, #52]	; (27b4 <console_flush+0x44>)
    2780:	685b      	ldr	r3, [r3, #4]
    2782:	f3c3 0308 	ubfx	r3, r3, #0, #9
    if (os_arch_in_isr()) { return; }   //  Don't flush if we are called during an interrupt.
    2786:	b97b      	cbnz	r3, 27a8 <console_flush+0x38>

    //  Swap mbufs first to prevent concurrency problems.
    struct os_mbuf *old = semihost_mbuf;
    semihost_mbuf = NULL;
    2788:	4b09      	ldr	r3, [pc, #36]	; (27b0 <console_flush+0x40>)
    278a:	2200      	movs	r2, #0
    278c:	601a      	str	r2, [r3, #0]

    struct os_mbuf *m = old;
    278e:	462c      	mov	r4, r5
    while (m) {  //  For each mbuf in the chain...
    2790:	e005      	b.n	279e <console_flush+0x2e>
        const unsigned char *data = OS_MBUF_DATA(m, const unsigned char *);  //  Fetch the data.
        int size = m->om_len;                         //  Fetch the size.
        semihost_write(SEMIHOST_HANDLE, data, size);  //  Write the data to Semihosting output.
    2792:	88e2      	ldrh	r2, [r4, #6]
    2794:	6821      	ldr	r1, [r4, #0]
    2796:	2002      	movs	r0, #2
    2798:	f7ff ffd2 	bl	2740 <semihost_write>
        m = m->om_next.sle_next;                      //  Fetch next mbuf in the chain.
    279c:	68e4      	ldr	r4, [r4, #12]
    while (m) {  //  For each mbuf in the chain...
    279e:	2c00      	cmp	r4, #0
    27a0:	d1f7      	bne.n	2792 <console_flush+0x22>
    }
    if (old) { os_mbuf_free_chain(old); }  //  Deallocate the old chain.
    27a2:	4628      	mov	r0, r5
    27a4:	f7ff fac9 	bl	1d3a <os_mbuf_free_chain>
}
    27a8:	bd38      	pop	{r3, r4, r5, pc}
    27aa:	bf00      	nop
    27ac:	2000014c 	.word	0x2000014c
    27b0:	20004c0c 	.word	0x20004c0c
    27b4:	e000ed00 	.word	0xe000ed00

000027b8 <disable_buffer>:
void disable_buffer(void) { buffer_enabled = false; console_flush(); }  //  Disable buffering.
    27b8:	b508      	push	{r3, lr}
    27ba:	f7ff ffd9 	bl	2770 <console_flush>
    27be:	bd08      	pop	{r3, pc}

000027c0 <console_buffer>:

void console_buffer(const char *buffer, unsigned int length) {
    27c0:	b538      	push	{r3, r4, r5, lr}
    //  Append "length" number of bytes from "buffer" to the output buffer.
#ifdef DISABLE_SEMIHOSTING  //  If Arm Semihosting is disabled...
    return;                 //  Don't write debug messages.
#else                       //  If Arm Semihosting is enabled...
    int rc;
    if (!log_enabled) { return; }           //  Skip if log not enabled.
    27c2:	4b12      	ldr	r3, [pc, #72]	; (280c <console_buffer+0x4c>)
    27c4:	781b      	ldrb	r3, [r3, #0]
    27c6:	b903      	cbnz	r3, 27ca <console_buffer+0xa>
    if (os_mbuf_len(semihost_mbuf) + length >= OUTPUT_BUFFER_SIZE) { return; }
    //  Append the data to the mbuf chain.  This may increase the numbere of mbufs in the chain.
    rc = os_mbuf_append(semihost_mbuf, buffer, length);
    if (rc) { return; }  //  If out of memory, quit.
#endif  //  DISABLE_SEMIHOSTING
}
    27c8:	bd38      	pop	{r3, r4, r5, pc}
    27ca:	460d      	mov	r5, r1
    27cc:	4604      	mov	r4, r0
    if (!debugger_connected()) { return; }  //  If debugger is not connected, quit.
    27ce:	f7ff ffaf 	bl	2730 <debugger_connected>
    27d2:	2800      	cmp	r0, #0
    27d4:	d0f8      	beq.n	27c8 <console_buffer+0x8>
    if (!semihost_mbuf) {                   //  Allocate mbuf if not already allocated.
    27d6:	4b0e      	ldr	r3, [pc, #56]	; (2810 <console_buffer+0x50>)
    27d8:	681b      	ldr	r3, [r3, #0]
    27da:	b173      	cbz	r3, 27fa <console_buffer+0x3a>
    if (os_mbuf_len(semihost_mbuf) + length >= OUTPUT_BUFFER_SIZE) { return; }
    27dc:	4b0c      	ldr	r3, [pc, #48]	; (2810 <console_buffer+0x50>)
    27de:	6818      	ldr	r0, [r3, #0]
    27e0:	f7ff fabd 	bl	1d5e <os_mbuf_len>
    27e4:	4428      	add	r0, r5
    27e6:	f5b0 6f00 	cmp.w	r0, #2048	; 0x800
    27ea:	d2ed      	bcs.n	27c8 <console_buffer+0x8>
    rc = os_mbuf_append(semihost_mbuf, buffer, length);
    27ec:	b2aa      	uxth	r2, r5
    27ee:	4621      	mov	r1, r4
    27f0:	4b07      	ldr	r3, [pc, #28]	; (2810 <console_buffer+0x50>)
    27f2:	6818      	ldr	r0, [r3, #0]
    27f4:	f7ff fabd 	bl	1d72 <os_mbuf_append>
    27f8:	e7e6      	b.n	27c8 <console_buffer+0x8>
        semihost_mbuf = os_msys_get_pkthdr(length, 0);
    27fa:	2100      	movs	r1, #0
    27fc:	b2a8      	uxth	r0, r5
    27fe:	f7ff f9b9 	bl	1b74 <os_msys_get_pkthdr>
    2802:	4b03      	ldr	r3, [pc, #12]	; (2810 <console_buffer+0x50>)
    2804:	6018      	str	r0, [r3, #0]
        if (!semihost_mbuf) { return; }  //  If out of memory, quit.
    2806:	2800      	cmp	r0, #0
    2808:	d1e8      	bne.n	27dc <console_buffer+0x1c>
    280a:	e7dd      	b.n	27c8 <console_buffer+0x8>
    280c:	2000014c 	.word	0x2000014c
    2810:	20004c0c 	.word	0x20004c0c

00002814 <semihosting_console_write_ch>:
    float f_abs = *neg ? -f : f;          //  Absolute value of f
    *i = (int) f_abs;                     //  Integer part
    *d = ((int) (1000000.0f * f_abs)) % 1000000;  //  6 decimal places
}

static void semihosting_console_write_ch(char c) {
    2814:	b500      	push	{lr}
    2816:	b083      	sub	sp, #12
    2818:	f88d 0007 	strb.w	r0, [sp, #7]
    if (c == '\r') { return; }  //  Don't display \r.
    281c:	280d      	cmp	r0, #13
    281e:	d004      	beq.n	282a <semihosting_console_write_ch+0x16>
    console_buffer(&c, 1);  //  Append the char to the output buffer.
    2820:	2101      	movs	r1, #1
    2822:	f10d 0007 	add.w	r0, sp, #7
    2826:	f7ff ffcb 	bl	27c0 <console_buffer>
    //  if (c == '\n') { console_flush(); }  //  If we see a newline, flush the buffer.
}
    282a:	b003      	add	sp, #12
    282c:	f85d fb04 	ldr.w	pc, [sp], #4

00002830 <console_out_nolock>:

int console_out_nolock(int character) {
    2830:	b538      	push	{r3, r4, r5, lr}
    char c = (char)character;
    2832:	b2c5      	uxtb	r5, r0
    if (g_silence_console) { return c; }
    2834:	4b0b      	ldr	r3, [pc, #44]	; (2864 <console_out_nolock+0x34>)
    2836:	781b      	ldrb	r3, [r3, #0]
    2838:	b953      	cbnz	r3, 2850 <console_out_nolock+0x20>
    283a:	4604      	mov	r4, r0
    if ('\n' == c) {
    283c:	2d0a      	cmp	r5, #10
    283e:	d009      	beq.n	2854 <console_out_nolock+0x24>
        semihosting_console_write_ch('\r');
        console_is_midline = 0;
    } else {
        console_is_midline = 1;
    2840:	4b09      	ldr	r3, [pc, #36]	; (2868 <console_out_nolock+0x38>)
    2842:	2201      	movs	r2, #1
    2844:	601a      	str	r2, [r3, #0]
    }
    semihosting_console_write_ch(c);
    2846:	4628      	mov	r0, r5
    2848:	f7ff ffe4 	bl	2814 <semihosting_console_write_ch>
    return character;
    284c:	4620      	mov	r0, r4
}
    284e:	bd38      	pop	{r3, r4, r5, pc}
    2850:	4628      	mov	r0, r5
    if (g_silence_console) { return c; }
    2852:	e7fc      	b.n	284e <console_out_nolock+0x1e>
        semihosting_console_write_ch('\r');
    2854:	200d      	movs	r0, #13
    2856:	f7ff ffdd 	bl	2814 <semihosting_console_write_ch>
        console_is_midline = 0;
    285a:	4b03      	ldr	r3, [pc, #12]	; (2868 <console_out_nolock+0x38>)
    285c:	2200      	movs	r2, #0
    285e:	601a      	str	r2, [r3, #0]
    2860:	e7f1      	b.n	2846 <console_out_nolock+0x16>
    2862:	bf00      	nop
    2864:	20004c08 	.word	0x20004c08
    2868:	20004bf8 	.word	0x20004bf8

0000286c <semihosting_console_init>:

void console_rx_restart(void) {}

int semihosting_console_is_init(void) { return 1; }

int semihosting_console_init(void) { return 0; }
    286c:	2000      	movs	r0, #0
    286e:	4770      	bx	lr

00002870 <console_get_ticks>:

/* return value of CONSOLE_TICKS */
char console_get_ticks(void)
{
    return do_ticks;
}
    2870:	4b01      	ldr	r3, [pc, #4]	; (2878 <console_get_ticks+0x8>)
    2872:	7818      	ldrb	r0, [r3, #0]
    2874:	4770      	bx	lr
    2876:	bf00      	nop
    2878:	20004c10 	.word	0x20004c10

0000287c <sysinit_dflt_panic_cb>:
#include "os/mynewt.h"

static void
sysinit_dflt_panic_cb(const char *file, int line, const char *func,
                      const char *expr, const char *msg)
{
    287c:	b508      	push	{r3, lr}
    if (msg != NULL) {
        fprintf(stderr, "sysinit failure: %s\n", msg);
    }
#endif

    __assert_func(file, line, func, expr);
    287e:	f7fe ff99 	bl	17b4 <__assert_func>
	...

00002884 <sysinit_start>:
}

void
sysinit_start(void)
{
    sysinit_active = 1;
    2884:	4b01      	ldr	r3, [pc, #4]	; (288c <sysinit_start+0x8>)
    2886:	2201      	movs	r2, #1
    2888:	701a      	strb	r2, [r3, #0]
}
    288a:	4770      	bx	lr
    288c:	20004c11 	.word	0x20004c11

00002890 <sysinit_end>:

void
sysinit_end(void)
{
    sysinit_active = 0;
    2890:	4b01      	ldr	r3, [pc, #4]	; (2898 <sysinit_end+0x8>)
    2892:	2200      	movs	r2, #0
    2894:	701a      	strb	r2, [r3, #0]
}
    2896:	4770      	bx	lr
    2898:	20004c11 	.word	0x20004c11

0000289c <mem_init_mbuf_pool>:

int
mem_init_mbuf_pool(void *mem, struct os_mempool *mempool,
                   struct os_mbuf_pool *mbuf_pool, int num_blocks,
                   int block_size, char *name)
{
    289c:	b570      	push	{r4, r5, r6, lr}
    289e:	b082      	sub	sp, #8
    28a0:	460c      	mov	r4, r1
    28a2:	4616      	mov	r6, r2
    int rc;

    rc = os_mempool_init(mempool, num_blocks, block_size, mem, name);
    28a4:	b29d      	uxth	r5, r3
    28a6:	9b07      	ldr	r3, [sp, #28]
    28a8:	9300      	str	r3, [sp, #0]
    28aa:	4603      	mov	r3, r0
    28ac:	9a06      	ldr	r2, [sp, #24]
    28ae:	4629      	mov	r1, r5
    28b0:	4620      	mov	r0, r4
    28b2:	f7ff f899 	bl	19e8 <os_mempool_init>
    if (rc != 0) {
    28b6:	b108      	cbz	r0, 28bc <mem_init_mbuf_pool+0x20>
    if (rc != 0) {
        return rc;
    }

    return 0;
}
    28b8:	b002      	add	sp, #8
    28ba:	bd70      	pop	{r4, r5, r6, pc}
    rc = os_mbuf_pool_init(mbuf_pool, mempool, block_size, num_blocks);
    28bc:	462b      	mov	r3, r5
    28be:	9a06      	ldr	r2, [sp, #24]
    28c0:	b292      	uxth	r2, r2
    28c2:	4621      	mov	r1, r4
    28c4:	4630      	mov	r0, r6
    28c6:	f7ff f9f5 	bl	1cb4 <os_mbuf_pool_init>
    28ca:	e7f5      	b.n	28b8 <mem_init_mbuf_pool+0x1c>

000028cc <sysinit_app>:
void modlog_init(void);
void pinetime_boot_init(void);

void
sysinit_app(void)
{
    28cc:	b508      	push	{r3, lr}
    /*** Stage 0 */
    /* 0.0: os_pkg_init (kernel/os) */
    os_pkg_init();
    28ce:	f7ff f831 	bl	1934 <os_pkg_init>

    /*** Stage 2 */
    /* 2.0: flash_map_init (sys/flash_map) */
    flash_map_init();
    28d2:	f002 fc95 	bl	5200 <flash_map_init>

    /*** Stage 20 */
    /* 20.0: console_pkg_init (libs/semihosting_console) */
    console_pkg_init();
    28d6:	f7ff fed5 	bl	2684 <console_pkg_init>

    /*** Stage 100 */
    /* 100.0: mfg_init (sys/mfg) */
    mfg_init();
    28da:	f002 fdd7 	bl	548c <mfg_init>
    /* 100.1: modlog_init (sys/log/modlog) */
    modlog_init();
    28de:	f002 fcc3 	bl	5268 <modlog_init>

    /*** Stage 900 */
    /* 900.0: pinetime_boot_init (libs/pinetime_boot) */
    pinetime_boot_init();
    28e2:	f7ff fbb5 	bl	2050 <pinetime_boot_init>
}
    28e6:	bd08      	pop	{r3, pc}

000028e8 <boot_flag_decode>:
}

static int
boot_flag_decode(uint8_t flag)
{
    if (flag != BOOT_FLAG_SET) {
    28e8:	2801      	cmp	r0, #1
    28ea:	d101      	bne.n	28f0 <boot_flag_decode+0x8>
        return BOOT_FLAG_BAD;
    }
    return BOOT_FLAG_SET;
    28ec:	2001      	movs	r0, #1
}
    28ee:	4770      	bx	lr
        return BOOT_FLAG_BAD;
    28f0:	2002      	movs	r0, #2
    28f2:	4770      	bx	lr

000028f4 <boot_magic_decode>:
{
    28f4:	b508      	push	{r3, lr}
    if (memcmp(magic, boot_img_magic, BOOT_MAGIC_SZ) == 0) {
    28f6:	2210      	movs	r2, #16
    28f8:	4903      	ldr	r1, [pc, #12]	; (2908 <boot_magic_decode+0x14>)
    28fa:	f7ff fa98 	bl	1e2e <memcmp>
    28fe:	b908      	cbnz	r0, 2904 <boot_magic_decode+0x10>
        return BOOT_MAGIC_GOOD;
    2900:	2001      	movs	r0, #1
}
    2902:	bd08      	pop	{r3, pc}
    return BOOT_MAGIC_BAD;
    2904:	2002      	movs	r0, #2
    2906:	e7fc      	b.n	2902 <boot_magic_decode+0xe>
    2908:	00005b7c 	.word	0x00005b7c

0000290c <boot_find_status>:
 *
 * @returns 0 on success, -1 on errors
 */
static int
boot_find_status(int image_index, const struct flash_area **fap)
{
    290c:	b530      	push	{r4, r5, lr}
    290e:	b087      	sub	sp, #28
    2910:	460d      	mov	r5, r1
    uint32_t magic[BOOT_MAGIC_ARR_SZ];
    uint32_t off;
    uint8_t areas[2] = {
    2912:	4b14      	ldr	r3, [pc, #80]	; (2964 <boot_find_status+0x58>)
    2914:	881b      	ldrh	r3, [r3, #0]
    2916:	f8ad 3004 	strh.w	r3, [sp, #4]
     * Both "slots" can end up being temporary storage for a swap and it
     * is assumed that if magic is valid then other metadata is too,
     * because magic is always written in the last step.
     */

    for (i = 0; i < sizeof(areas) / sizeof(areas[0]); i++) {
    291a:	2400      	movs	r4, #0
    291c:	e000      	b.n	2920 <boot_find_status+0x14>
    291e:	3401      	adds	r4, #1
    2920:	2c01      	cmp	r4, #1
    2922:	d81a      	bhi.n	295a <boot_find_status+0x4e>
        rc = flash_area_open(areas[i], fap);
    2924:	4629      	mov	r1, r5
    2926:	ab06      	add	r3, sp, #24
    2928:	4423      	add	r3, r4
    292a:	f813 0c14 	ldrb.w	r0, [r3, #-20]
    292e:	f002 fbc5 	bl	50bc <flash_area_open>
        if (rc != 0) {
    2932:	4603      	mov	r3, r0
    2934:	b998      	cbnz	r0, 295e <boot_find_status+0x52>
            return rc;
        }

        off = boot_magic_off(*fap);
    2936:	6828      	ldr	r0, [r5, #0]
    return fap->fa_size - BOOT_MAGIC_SZ;
    2938:	6881      	ldr	r1, [r0, #8]
        rc = flash_area_read(*fap, off, magic, BOOT_MAGIC_SZ);
    293a:	2310      	movs	r3, #16
    293c:	aa02      	add	r2, sp, #8
    293e:	3910      	subs	r1, #16
    2940:	f002 fc14 	bl	516c <flash_area_read>
        if (rc != 0) {
    2944:	4603      	mov	r3, r0
    2946:	b950      	cbnz	r0, 295e <boot_find_status+0x52>
            flash_area_close(*fap);
            return rc;
        }

        if (memcmp(magic, boot_img_magic, BOOT_MAGIC_SZ) == 0) {
    2948:	2210      	movs	r2, #16
    294a:	4907      	ldr	r1, [pc, #28]	; (2968 <boot_find_status+0x5c>)
    294c:	a802      	add	r0, sp, #8
    294e:	f7ff fa6e 	bl	1e2e <memcmp>
    2952:	4603      	mov	r3, r0
    2954:	2800      	cmp	r0, #0
    2956:	d1e2      	bne.n	291e <boot_find_status+0x12>
    2958:	e001      	b.n	295e <boot_find_status+0x52>

        flash_area_close(*fap);
    }

    /* If we got here, no magic was found */
    return -1;
    295a:	f04f 33ff 	mov.w	r3, #4294967295	; 0xffffffff
}
    295e:	4618      	mov	r0, r3
    2960:	b007      	add	sp, #28
    2962:	bd30      	pop	{r4, r5, pc}
    2964:	00005b78 	.word	0x00005b78
    2968:	00005b7c 	.word	0x00005b7c

0000296c <boot_write_trailer>:
 * @returns 0 on success, != 0 on error.
 */
static int
boot_write_trailer(const struct flash_area *fap, uint32_t off,
        const uint8_t *inbuf, uint8_t inlen)
{
    296c:	e92d 43f0 	stmdb	sp!, {r4, r5, r6, r7, r8, r9, lr}
    2970:	b083      	sub	sp, #12
    2972:	4606      	mov	r6, r0
    2974:	460f      	mov	r7, r1
    2976:	4690      	mov	r8, r2
    2978:	461c      	mov	r4, r3
    uint8_t buf[BOOT_MAX_ALIGN];
    uint8_t align;
    uint8_t erased_val;
    int rc;

    align = flash_area_align(fap);
    297a:	f002 fc30 	bl	51de <flash_area_align>
    if (inlen > BOOT_MAX_ALIGN || align > BOOT_MAX_ALIGN) {
    297e:	2c08      	cmp	r4, #8
    2980:	d823      	bhi.n	29ca <boot_write_trailer+0x5e>
    2982:	4605      	mov	r5, r0
    2984:	2808      	cmp	r0, #8
    2986:	d823      	bhi.n	29d0 <boot_write_trailer+0x64>
        return -1;
    }
    erased_val = flash_area_erased_val(fap);
    2988:	4630      	mov	r0, r6
    298a:	f002 fc2d 	bl	51e8 <flash_area_erased_val>
    298e:	4681      	mov	r9, r0
    if (align < inlen) {
    2990:	42a5      	cmp	r5, r4
    2992:	d200      	bcs.n	2996 <boot_write_trailer+0x2a>
        align = inlen;
    2994:	4625      	mov	r5, r4
    }
    memcpy(buf, inbuf, inlen);
    2996:	4622      	mov	r2, r4
    2998:	4641      	mov	r1, r8
    299a:	4668      	mov	r0, sp
    299c:	f7ff fa6b 	bl	1e76 <memcpy>
    memset(&buf[inlen], erased_val, align - inlen);
    29a0:	1b2a      	subs	r2, r5, r4
    29a2:	fa5f f189 	uxtb.w	r1, r9
    29a6:	eb0d 0004 	add.w	r0, sp, r4
    29aa:	f7ff fa71 	bl	1e90 <memset>

    rc = flash_area_write(fap, off, buf, align);
    29ae:	462b      	mov	r3, r5
    29b0:	466a      	mov	r2, sp
    29b2:	4639      	mov	r1, r7
    29b4:	4630      	mov	r0, r6
    29b6:	f002 fbec 	bl	5192 <flash_area_write>
    if (rc != 0) {
    29ba:	4603      	mov	r3, r0
    29bc:	b918      	cbnz	r0, 29c6 <boot_write_trailer+0x5a>
        return BOOT_EFLASH;
    }

    return 0;
}
    29be:	4618      	mov	r0, r3
    29c0:	b003      	add	sp, #12
    29c2:	e8bd 83f0 	ldmia.w	sp!, {r4, r5, r6, r7, r8, r9, pc}
        return BOOT_EFLASH;
    29c6:	2301      	movs	r3, #1
    29c8:	e7f9      	b.n	29be <boot_write_trailer+0x52>
        return -1;
    29ca:	f04f 33ff 	mov.w	r3, #4294967295	; 0xffffffff
    29ce:	e7f6      	b.n	29be <boot_write_trailer+0x52>
    29d0:	f04f 33ff 	mov.w	r3, #4294967295	; 0xffffffff
    29d4:	e7f3      	b.n	29be <boot_write_trailer+0x52>

000029d6 <boot_write_trailer_flag>:

static int
boot_write_trailer_flag(const struct flash_area *fap, uint32_t off,
        uint8_t flag_val)
{
    29d6:	b510      	push	{r4, lr}
    29d8:	b082      	sub	sp, #8
    const uint8_t buf[1] = { flag_val };
    29da:	ac02      	add	r4, sp, #8
    29dc:	f804 2d04 	strb.w	r2, [r4, #-4]!
    return boot_write_trailer(fap, off, buf, 1);
    29e0:	2301      	movs	r3, #1
    29e2:	4622      	mov	r2, r4
    29e4:	f7ff ffc2 	bl	296c <boot_write_trailer>
}
    29e8:	b002      	add	sp, #8
    29ea:	bd10      	pop	{r4, pc}

000029ec <boot_magic_compatible_check>:
    switch (tbl_val) {
    29ec:	2804      	cmp	r0, #4
    29ee:	d00b      	beq.n	2a08 <boot_magic_compatible_check+0x1c>
    29f0:	2805      	cmp	r0, #5
    29f2:	d104      	bne.n	29fe <boot_magic_compatible_check+0x12>
        return val != BOOT_MAGIC_GOOD;
    29f4:	f111 30ff 	adds.w	r0, r1, #4294967295	; 0xffffffff
    29f8:	bf18      	it	ne
    29fa:	2001      	movne	r0, #1
    29fc:	4770      	bx	lr
        return tbl_val == val;
    29fe:	4288      	cmp	r0, r1
    2a00:	bf14      	ite	ne
    2a02:	2000      	movne	r0, #0
    2a04:	2001      	moveq	r0, #1
    2a06:	4770      	bx	lr
        return 1;
    2a08:	2001      	movs	r0, #1
}
    2a0a:	4770      	bx	lr

00002a0c <boot_status_sz>:
           BOOT_STATUS_MAX_ENTRIES * BOOT_STATUS_STATE_COUNT * min_write_sz;
    2a0c:	eb00 0340 	add.w	r3, r0, r0, lsl #1
    2a10:	01d8      	lsls	r0, r3, #7
}
    2a12:	4770      	bx	lr

00002a14 <boot_trailer_sz>:
{
    2a14:	b508      	push	{r3, lr}
           boot_status_sz(min_write_sz)           +
    2a16:	f7ff fff9 	bl	2a0c <boot_status_sz>
}
    2a1a:	3030      	adds	r0, #48	; 0x30
    2a1c:	bd08      	pop	{r3, pc}

00002a1e <boot_status_entries>:
    if (fap->fa_id == FLASH_AREA_IMAGE_SCRATCH) {
    2a1e:	780b      	ldrb	r3, [r1, #0]
    2a20:	2b03      	cmp	r3, #3
    2a22:	d006      	beq.n	2a32 <boot_status_entries+0x14>
    if (fap->fa_id == FLASH_AREA_IMAGE_PRIMARY(image_index) ||
    2a24:	3b01      	subs	r3, #1
    2a26:	b2db      	uxtb	r3, r3
    2a28:	2b01      	cmp	r3, #1
    2a2a:	d804      	bhi.n	2a36 <boot_status_entries+0x18>
        return BOOT_STATUS_STATE_COUNT * BOOT_STATUS_MAX_ENTRIES;
    2a2c:	f44f 70c0 	mov.w	r0, #384	; 0x180
    2a30:	4770      	bx	lr
        return BOOT_STATUS_STATE_COUNT;
    2a32:	2003      	movs	r0, #3
    2a34:	4770      	bx	lr
    return -1;
    2a36:	f04f 30ff 	mov.w	r0, #4294967295	; 0xffffffff
}
    2a3a:	4770      	bx	lr

00002a3c <boot_status_off>:
{
    2a3c:	b510      	push	{r4, lr}
    2a3e:	4604      	mov	r4, r0
    elem_sz = flash_area_align(fap);
    2a40:	f002 fbcd 	bl	51de <flash_area_align>
    off_from_end = boot_trailer_sz(elem_sz);
    2a44:	f7ff ffe6 	bl	2a14 <boot_trailer_sz>
    assert(off_from_end <= fap->fa_size);
    2a48:	68a3      	ldr	r3, [r4, #8]
    2a4a:	4283      	cmp	r3, r0
    2a4c:	d301      	bcc.n	2a52 <boot_status_off+0x16>
}
    2a4e:	1a18      	subs	r0, r3, r0
    2a50:	bd10      	pop	{r4, pc}
    assert(off_from_end <= fap->fa_size);
    2a52:	f7fd fb87 	bl	164 <hal_debugger_connected>
    2a56:	b100      	cbz	r0, 2a5a <boot_status_off+0x1e>
    2a58:	be01      	bkpt	0x0001
    2a5a:	2300      	movs	r3, #0
    2a5c:	461a      	mov	r2, r3
    2a5e:	4619      	mov	r1, r3
    2a60:	4618      	mov	r0, r3
    2a62:	f7fe fea7 	bl	17b4 <__assert_func>

00002a66 <boot_swap_info_off>:
    return fap->fa_size - BOOT_MAGIC_SZ;
    2a66:	6880      	ldr	r0, [r0, #8]
}
    2a68:	3828      	subs	r0, #40	; 0x28
    2a6a:	4770      	bx	lr

00002a6c <boot_read_swap_state>:
{
    2a6c:	b530      	push	{r4, r5, lr}
    2a6e:	b087      	sub	sp, #28
    2a70:	4604      	mov	r4, r0
    2a72:	460d      	mov	r5, r1
    return fap->fa_size - BOOT_MAGIC_SZ;
    2a74:	6881      	ldr	r1, [r0, #8]
    rc = flash_area_read_is_empty(fap, off, magic, BOOT_MAGIC_SZ);
    2a76:	2310      	movs	r3, #16
    2a78:	aa02      	add	r2, sp, #8
    2a7a:	3910      	subs	r1, #16
    2a7c:	f002 fbb9 	bl	51f2 <flash_area_read_is_empty>
    if (rc < 0) {
    2a80:	2800      	cmp	r0, #0
    2a82:	db4a      	blt.n	2b1a <boot_read_swap_state+0xae>
    if (rc == 1) {
    2a84:	2801      	cmp	r0, #1
    2a86:	d03e      	beq.n	2b06 <boot_read_swap_state+0x9a>
        state->magic = boot_magic_decode(magic);
    2a88:	a802      	add	r0, sp, #8
    2a8a:	f7ff ff33 	bl	28f4 <boot_magic_decode>
    2a8e:	7028      	strb	r0, [r5, #0]
    off = boot_swap_info_off(fap);
    2a90:	4620      	mov	r0, r4
    2a92:	f7ff ffe8 	bl	2a66 <boot_swap_info_off>
    rc = flash_area_read_is_empty(fap, off, &swap_info, sizeof swap_info);
    2a96:	2301      	movs	r3, #1
    2a98:	f10d 0207 	add.w	r2, sp, #7
    2a9c:	4601      	mov	r1, r0
    2a9e:	4620      	mov	r0, r4
    2aa0:	f002 fba7 	bl	51f2 <flash_area_read_is_empty>
    if (rc < 0) {
    2aa4:	2800      	cmp	r0, #0
    2aa6:	db3b      	blt.n	2b20 <boot_read_swap_state+0xb4>
    state->swap_type = BOOT_GET_SWAP_TYPE(swap_info);
    2aa8:	f89d 3007 	ldrb.w	r3, [sp, #7]
    2aac:	f003 020f 	and.w	r2, r3, #15
    2ab0:	706a      	strb	r2, [r5, #1]
    state->image_num = BOOT_GET_IMAGE_NUM(swap_info);
    2ab2:	091b      	lsrs	r3, r3, #4
    2ab4:	712b      	strb	r3, [r5, #4]
    if (rc == 1 || state->swap_type > BOOT_SWAP_TYPE_REVERT) {
    2ab6:	2801      	cmp	r0, #1
    2ab8:	d001      	beq.n	2abe <boot_read_swap_state+0x52>
    2aba:	2a04      	cmp	r2, #4
    2abc:	d903      	bls.n	2ac6 <boot_read_swap_state+0x5a>
        state->swap_type = BOOT_SWAP_TYPE_NONE;
    2abe:	2301      	movs	r3, #1
    2ac0:	706b      	strb	r3, [r5, #1]
        state->image_num = 0;
    2ac2:	2300      	movs	r3, #0
    2ac4:	712b      	strb	r3, [r5, #4]
    return fap->fa_size - BOOT_MAGIC_SZ;
    2ac6:	68a1      	ldr	r1, [r4, #8]
    rc = flash_area_read_is_empty(fap, off, &state->copy_done,
    2ac8:	2301      	movs	r3, #1
    2aca:	1caa      	adds	r2, r5, #2
    2acc:	3920      	subs	r1, #32
    2ace:	4620      	mov	r0, r4
    2ad0:	f002 fb8f 	bl	51f2 <flash_area_read_is_empty>
    if (rc < 0) {
    2ad4:	2800      	cmp	r0, #0
    2ad6:	db25      	blt.n	2b24 <boot_read_swap_state+0xb8>
    if (rc == 1) {
    2ad8:	2801      	cmp	r0, #1
    2ada:	d017      	beq.n	2b0c <boot_read_swap_state+0xa0>
        state->copy_done = boot_flag_decode(state->copy_done);
    2adc:	78a8      	ldrb	r0, [r5, #2]
    2ade:	f7ff ff03 	bl	28e8 <boot_flag_decode>
    2ae2:	70a8      	strb	r0, [r5, #2]
    return fap->fa_size - BOOT_MAGIC_SZ;
    2ae4:	68a1      	ldr	r1, [r4, #8]
    rc = flash_area_read_is_empty(fap, off, &state->image_ok,
    2ae6:	2301      	movs	r3, #1
    2ae8:	1cea      	adds	r2, r5, #3
    2aea:	3918      	subs	r1, #24
    2aec:	4620      	mov	r0, r4
    2aee:	f002 fb80 	bl	51f2 <flash_area_read_is_empty>
    if (rc < 0) {
    2af2:	2800      	cmp	r0, #0
    2af4:	db18      	blt.n	2b28 <boot_read_swap_state+0xbc>
    if (rc == 1) {
    2af6:	2801      	cmp	r0, #1
    2af8:	d00b      	beq.n	2b12 <boot_read_swap_state+0xa6>
        state->image_ok = boot_flag_decode(state->image_ok);
    2afa:	78e8      	ldrb	r0, [r5, #3]
    2afc:	f7ff fef4 	bl	28e8 <boot_flag_decode>
    2b00:	70e8      	strb	r0, [r5, #3]
    return 0;
    2b02:	2000      	movs	r0, #0
    2b04:	e00a      	b.n	2b1c <boot_read_swap_state+0xb0>
        state->magic = BOOT_MAGIC_UNSET;
    2b06:	2303      	movs	r3, #3
    2b08:	702b      	strb	r3, [r5, #0]
    2b0a:	e7c1      	b.n	2a90 <boot_read_swap_state+0x24>
        state->copy_done = BOOT_FLAG_UNSET;
    2b0c:	2303      	movs	r3, #3
    2b0e:	70ab      	strb	r3, [r5, #2]
    2b10:	e7e8      	b.n	2ae4 <boot_read_swap_state+0x78>
        state->image_ok = BOOT_FLAG_UNSET;
    2b12:	2303      	movs	r3, #3
    2b14:	70eb      	strb	r3, [r5, #3]
    return 0;
    2b16:	2000      	movs	r0, #0
    2b18:	e000      	b.n	2b1c <boot_read_swap_state+0xb0>
        return BOOT_EFLASH;
    2b1a:	2001      	movs	r0, #1
}
    2b1c:	b007      	add	sp, #28
    2b1e:	bd30      	pop	{r4, r5, pc}
        return BOOT_EFLASH;
    2b20:	2001      	movs	r0, #1
    2b22:	e7fb      	b.n	2b1c <boot_read_swap_state+0xb0>
        return BOOT_EFLASH;
    2b24:	2001      	movs	r0, #1
    2b26:	e7f9      	b.n	2b1c <boot_read_swap_state+0xb0>
        return BOOT_EFLASH;
    2b28:	2001      	movs	r0, #1
    2b2a:	e7f7      	b.n	2b1c <boot_read_swap_state+0xb0>

00002b2c <boot_read_swap_state_by_id>:
{
    2b2c:	b510      	push	{r4, lr}
    2b2e:	b082      	sub	sp, #8
    2b30:	460c      	mov	r4, r1
    rc = flash_area_open(flash_area_id, &fap);
    2b32:	a901      	add	r1, sp, #4
    2b34:	b2c0      	uxtb	r0, r0
    2b36:	f002 fac1 	bl	50bc <flash_area_open>
    if (rc != 0) {
    2b3a:	b110      	cbz	r0, 2b42 <boot_read_swap_state_by_id+0x16>
        return BOOT_EFLASH;
    2b3c:	2001      	movs	r0, #1
}
    2b3e:	b002      	add	sp, #8
    2b40:	bd10      	pop	{r4, pc}
    rc = boot_read_swap_state(fap, state);
    2b42:	4621      	mov	r1, r4
    2b44:	9801      	ldr	r0, [sp, #4]
    2b46:	f7ff ff91 	bl	2a6c <boot_read_swap_state>
    return rc;
    2b4a:	e7f8      	b.n	2b3e <boot_read_swap_state_by_id+0x12>

00002b4c <boot_read_swap_size>:
{
    2b4c:	b530      	push	{r4, r5, lr}
    2b4e:	b083      	sub	sp, #12
    2b50:	460c      	mov	r4, r1
    rc = boot_find_status(image_index, &fap);
    2b52:	a901      	add	r1, sp, #4
    2b54:	f7ff feda 	bl	290c <boot_find_status>
    if (rc == 0) {
    2b58:	4603      	mov	r3, r0
    2b5a:	b110      	cbz	r0, 2b62 <boot_read_swap_size+0x16>
}
    2b5c:	4618      	mov	r0, r3
    2b5e:	b003      	add	sp, #12
    2b60:	bd30      	pop	{r4, r5, pc}
        off = boot_swap_size_off(fap);
    2b62:	9d01      	ldr	r5, [sp, #4]
    return boot_swap_info_off(fap) - BOOT_MAX_ALIGN;
    2b64:	4628      	mov	r0, r5
    2b66:	f7ff ff7e 	bl	2a66 <boot_swap_info_off>
        rc = flash_area_read(fap, off, swap_size, sizeof *swap_size);
    2b6a:	2304      	movs	r3, #4
    2b6c:	4622      	mov	r2, r4
    2b6e:	f1a0 0108 	sub.w	r1, r0, #8
    2b72:	4628      	mov	r0, r5
    2b74:	f002 fafa 	bl	516c <flash_area_read>
    2b78:	4603      	mov	r3, r0
    return rc;
    2b7a:	e7ef      	b.n	2b5c <boot_read_swap_size+0x10>

00002b7c <boot_write_magic>:
{
    2b7c:	b508      	push	{r3, lr}
    return fap->fa_size - BOOT_MAGIC_SZ;
    2b7e:	6881      	ldr	r1, [r0, #8]
    rc = flash_area_write(fap, off, boot_img_magic, BOOT_MAGIC_SZ);
    2b80:	2310      	movs	r3, #16
    2b82:	4a05      	ldr	r2, [pc, #20]	; (2b98 <boot_write_magic+0x1c>)
    2b84:	3910      	subs	r1, #16
    2b86:	f002 fb04 	bl	5192 <flash_area_write>
    if (rc != 0) {
    2b8a:	4603      	mov	r3, r0
    2b8c:	b908      	cbnz	r0, 2b92 <boot_write_magic+0x16>
}
    2b8e:	4618      	mov	r0, r3
    2b90:	bd08      	pop	{r3, pc}
        return BOOT_EFLASH;
    2b92:	2301      	movs	r3, #1
    2b94:	e7fb      	b.n	2b8e <boot_write_magic+0x12>
    2b96:	bf00      	nop
    2b98:	00005b7c 	.word	0x00005b7c

00002b9c <boot_write_copy_done>:

int
boot_write_copy_done(const struct flash_area *fap)
{
    2b9c:	b508      	push	{r3, lr}
    return fap->fa_size - BOOT_MAGIC_SZ;
    2b9e:	6881      	ldr	r1, [r0, #8]

    off = boot_copy_done_off(fap);
    BOOT_LOG_DBG("writing copy_done; fa_id=%d off=0x%lx (0x%lx)",
                 fap->fa_id, (unsigned long)off,
                 (unsigned long)(fap->fa_off + off));
    return boot_write_trailer_flag(fap, off, BOOT_FLAG_SET);
    2ba0:	2201      	movs	r2, #1
    2ba2:	3920      	subs	r1, #32
    2ba4:	f7ff ff17 	bl	29d6 <boot_write_trailer_flag>
}
    2ba8:	bd08      	pop	{r3, pc}

00002baa <boot_write_image_ok>:

int
boot_write_image_ok(const struct flash_area *fap)
{
    2baa:	b508      	push	{r3, lr}
    return fap->fa_size - BOOT_MAGIC_SZ;
    2bac:	6881      	ldr	r1, [r0, #8]

    off = boot_image_ok_off(fap);
    BOOT_LOG_DBG("writing image_ok; fa_id=%d off=0x%lx (0x%lx)",
                 fap->fa_id, (unsigned long)off,
                 (unsigned long)(fap->fa_off + off));
    return boot_write_trailer_flag(fap, off, BOOT_FLAG_SET);
    2bae:	2201      	movs	r2, #1
    2bb0:	3918      	subs	r1, #24
    2bb2:	f7ff ff10 	bl	29d6 <boot_write_trailer_flag>
}
    2bb6:	bd08      	pop	{r3, pc}

00002bb8 <boot_write_swap_info>:
 * resume in case of an unexpected reset.
 */
int
boot_write_swap_info(const struct flash_area *fap, uint8_t swap_type,
                     uint8_t image_num)
{
    2bb8:	b530      	push	{r4, r5, lr}
    2bba:	b083      	sub	sp, #12
    uint32_t off;
    uint8_t swap_info;

    BOOT_SET_SWAP_INFO(swap_info, image_num, swap_type);
    2bbc:	2a0e      	cmp	r2, #14
    2bbe:	d811      	bhi.n	2be4 <boot_write_swap_info+0x2c>
    2bc0:	4605      	mov	r5, r0
    2bc2:	290e      	cmp	r1, #14
    2bc4:	d818      	bhi.n	2bf8 <boot_write_swap_info+0x40>
    2bc6:	ea41 1102 	orr.w	r1, r1, r2, lsl #4
    2bca:	ac02      	add	r4, sp, #8
    2bcc:	f804 1d01 	strb.w	r1, [r4, #-1]!
    off = boot_swap_info_off(fap);
    2bd0:	f7ff ff49 	bl	2a66 <boot_swap_info_off>
    BOOT_LOG_DBG("writing swap_info; fa_id=%d off=0x%lx (0x%lx), swap_type=0x%x"
                 " image_num=0x%x",
                 fap->fa_id, (unsigned long)off,
                 (unsigned long)(fap->fa_off + off), swap_type, image_num);
    return boot_write_trailer(fap, off, (const uint8_t *) &swap_info, 1);
    2bd4:	2301      	movs	r3, #1
    2bd6:	4622      	mov	r2, r4
    2bd8:	4601      	mov	r1, r0
    2bda:	4628      	mov	r0, r5
    2bdc:	f7ff fec6 	bl	296c <boot_write_trailer>
}
    2be0:	b003      	add	sp, #12
    2be2:	bd30      	pop	{r4, r5, pc}
    BOOT_SET_SWAP_INFO(swap_info, image_num, swap_type);
    2be4:	f7fd fabe 	bl	164 <hal_debugger_connected>
    2be8:	b100      	cbz	r0, 2bec <boot_write_swap_info+0x34>
    2bea:	be01      	bkpt	0x0001
    2bec:	2300      	movs	r3, #0
    2bee:	461a      	mov	r2, r3
    2bf0:	4619      	mov	r1, r3
    2bf2:	4618      	mov	r0, r3
    2bf4:	f7fe fdde 	bl	17b4 <__assert_func>
    2bf8:	f7fd fab4 	bl	164 <hal_debugger_connected>
    2bfc:	b100      	cbz	r0, 2c00 <boot_write_swap_info+0x48>
    2bfe:	be01      	bkpt	0x0001
    2c00:	2300      	movs	r3, #0
    2c02:	461a      	mov	r2, r3
    2c04:	4619      	mov	r1, r3
    2c06:	4618      	mov	r0, r3
    2c08:	f7fe fdd4 	bl	17b4 <__assert_func>

00002c0c <boot_write_swap_size>:

int
boot_write_swap_size(const struct flash_area *fap, uint32_t swap_size)
{
    2c0c:	b530      	push	{r4, r5, lr}
    2c0e:	b083      	sub	sp, #12
    2c10:	4605      	mov	r5, r0
    2c12:	ac02      	add	r4, sp, #8
    2c14:	f844 1d04 	str.w	r1, [r4, #-4]!
    return boot_swap_info_off(fap) - BOOT_MAX_ALIGN;
    2c18:	f7ff ff25 	bl	2a66 <boot_swap_info_off>

    off = boot_swap_size_off(fap);
    BOOT_LOG_DBG("writing swap_size; fa_id=%d off=0x%lx (0x%lx)",
                 fap->fa_id, (unsigned long)off,
                 (unsigned long)fap->fa_off + off);
    return boot_write_trailer(fap, off, (const uint8_t *) &swap_size, 4);
    2c1c:	2304      	movs	r3, #4
    2c1e:	4622      	mov	r2, r4
    2c20:	f1a0 0108 	sub.w	r1, r0, #8
    2c24:	4628      	mov	r0, r5
    2c26:	f7ff fea1 	bl	296c <boot_write_trailer>
}
    2c2a:	b003      	add	sp, #12
    2c2c:	bd30      	pop	{r4, r5, pc}
	...

00002c30 <boot_swap_type_multi>:
}
#endif

int
boot_swap_type_multi(int image_index)
{
    2c30:	b530      	push	{r4, r5, lr}
    2c32:	b085      	sub	sp, #20
    struct boot_swap_state primary_slot;
    struct boot_swap_state secondary_slot;
    int rc;
    size_t i;

    rc = boot_read_swap_state_by_id(FLASH_AREA_IMAGE_PRIMARY(image_index),
    2c34:	a902      	add	r1, sp, #8
    2c36:	2001      	movs	r0, #1
    2c38:	f7ff ff78 	bl	2b2c <boot_read_swap_state_by_id>
                                    &primary_slot);
    if (rc) {
    2c3c:	2800      	cmp	r0, #0
    2c3e:	d150      	bne.n	2ce2 <boot_swap_type_multi+0xb2>
        return BOOT_SWAP_TYPE_PANIC;
    }

    rc = boot_read_swap_state_by_id(FLASH_AREA_IMAGE_SECONDARY(image_index),
    2c40:	4669      	mov	r1, sp
    2c42:	2002      	movs	r0, #2
    2c44:	f7ff ff72 	bl	2b2c <boot_read_swap_state_by_id>
                                    &secondary_slot);
    if (rc) {
    2c48:	2800      	cmp	r0, #0
    2c4a:	d14d      	bne.n	2ce8 <boot_swap_type_multi+0xb8>
        return BOOT_SWAP_TYPE_PANIC;
    }

    for (i = 0; i < BOOT_SWAP_TABLES_COUNT; i++) {
    2c4c:	2400      	movs	r4, #0
    2c4e:	e007      	b.n	2c60 <boot_swap_type_multi+0x30>
                                        secondary_slot.magic) &&
            (table->image_ok_primary_slot == BOOT_FLAG_ANY   ||
                table->image_ok_primary_slot == primary_slot.image_ok) &&
            (table->image_ok_secondary_slot == BOOT_FLAG_ANY ||
                table->image_ok_secondary_slot == secondary_slot.image_ok) &&
            (table->copy_done_primary_slot == BOOT_FLAG_ANY  ||
    2c50:	792b      	ldrb	r3, [r5, #4]
                table->image_ok_secondary_slot == secondary_slot.image_ok) &&
    2c52:	2b04      	cmp	r3, #4
    2c54:	d028      	beq.n	2ca8 <boot_swap_type_multi+0x78>
                table->copy_done_primary_slot == primary_slot.copy_done)) {
    2c56:	f89d 200a 	ldrb.w	r2, [sp, #10]
            (table->copy_done_primary_slot == BOOT_FLAG_ANY  ||
    2c5a:	4293      	cmp	r3, r2
    2c5c:	d024      	beq.n	2ca8 <boot_swap_type_multi+0x78>
    for (i = 0; i < BOOT_SWAP_TABLES_COUNT; i++) {
    2c5e:	3401      	adds	r4, #1
    2c60:	2c02      	cmp	r4, #2
    2c62:	d839      	bhi.n	2cd8 <boot_swap_type_multi+0xa8>
        table = boot_swap_tables + i;
    2c64:	eb04 0244 	add.w	r2, r4, r4, lsl #1
    2c68:	0053      	lsls	r3, r2, #1
    2c6a:	4a20      	ldr	r2, [pc, #128]	; (2cec <boot_swap_type_multi+0xbc>)
    2c6c:	18d5      	adds	r5, r2, r3
        if (boot_magic_compatible_check(table->magic_primary_slot,
    2c6e:	f89d 1008 	ldrb.w	r1, [sp, #8]
    2c72:	5cd0      	ldrb	r0, [r2, r3]
    2c74:	f7ff feba 	bl	29ec <boot_magic_compatible_check>
    2c78:	2800      	cmp	r0, #0
    2c7a:	d0f0      	beq.n	2c5e <boot_swap_type_multi+0x2e>
            boot_magic_compatible_check(table->magic_secondary_slot,
    2c7c:	f89d 1000 	ldrb.w	r1, [sp]
    2c80:	7868      	ldrb	r0, [r5, #1]
    2c82:	f7ff feb3 	bl	29ec <boot_magic_compatible_check>
                                        primary_slot.magic) &&
    2c86:	2800      	cmp	r0, #0
    2c88:	d0e9      	beq.n	2c5e <boot_swap_type_multi+0x2e>
            (table->image_ok_primary_slot == BOOT_FLAG_ANY   ||
    2c8a:	78ab      	ldrb	r3, [r5, #2]
                                        secondary_slot.magic) &&
    2c8c:	2b04      	cmp	r3, #4
    2c8e:	d003      	beq.n	2c98 <boot_swap_type_multi+0x68>
                table->image_ok_primary_slot == primary_slot.image_ok) &&
    2c90:	f89d 200b 	ldrb.w	r2, [sp, #11]
            (table->image_ok_primary_slot == BOOT_FLAG_ANY   ||
    2c94:	4293      	cmp	r3, r2
    2c96:	d1e2      	bne.n	2c5e <boot_swap_type_multi+0x2e>
            (table->image_ok_secondary_slot == BOOT_FLAG_ANY ||
    2c98:	78eb      	ldrb	r3, [r5, #3]
                table->image_ok_primary_slot == primary_slot.image_ok) &&
    2c9a:	2b04      	cmp	r3, #4
    2c9c:	d0d8      	beq.n	2c50 <boot_swap_type_multi+0x20>
                table->image_ok_secondary_slot == secondary_slot.image_ok) &&
    2c9e:	f89d 2003 	ldrb.w	r2, [sp, #3]
            (table->image_ok_secondary_slot == BOOT_FLAG_ANY ||
    2ca2:	4293      	cmp	r3, r2
    2ca4:	d1db      	bne.n	2c5e <boot_swap_type_multi+0x2e>
    2ca6:	e7d3      	b.n	2c50 <boot_swap_type_multi+0x20>
            BOOT_LOG_INF("Swap type: %s",
    2ca8:	796b      	ldrb	r3, [r5, #5]
    2caa:	2b02      	cmp	r3, #2
    2cac:	d007      	beq.n	2cbe <boot_swap_type_multi+0x8e>
    2cae:	2b03      	cmp	r3, #3
    2cb0:	d010      	beq.n	2cd4 <boot_swap_type_multi+0xa4>
    2cb2:	2b04      	cmp	r3, #4
    2cb4:	d001      	beq.n	2cba <boot_swap_type_multi+0x8a>
    2cb6:	490e      	ldr	r1, [pc, #56]	; (2cf0 <boot_swap_type_multi+0xc0>)
    2cb8:	e002      	b.n	2cc0 <boot_swap_type_multi+0x90>
    2cba:	490e      	ldr	r1, [pc, #56]	; (2cf4 <boot_swap_type_multi+0xc4>)
    2cbc:	e000      	b.n	2cc0 <boot_swap_type_multi+0x90>
    2cbe:	490e      	ldr	r1, [pc, #56]	; (2cf8 <boot_swap_type_multi+0xc8>)
    2cc0:	480e      	ldr	r0, [pc, #56]	; (2cfc <boot_swap_type_multi+0xcc>)
    2cc2:	f002 f91b 	bl	4efc <printf>
                         table->swap_type == BOOT_SWAP_TYPE_TEST   ? "test"   :
                         table->swap_type == BOOT_SWAP_TYPE_PERM   ? "perm"   :
                         table->swap_type == BOOT_SWAP_TYPE_REVERT ? "revert" :
                         "BUG; can't happen");
            if (table->swap_type != BOOT_SWAP_TYPE_TEST &&
    2cc6:	7968      	ldrb	r0, [r5, #5]
                    table->swap_type != BOOT_SWAP_TYPE_PERM &&
    2cc8:	1e83      	subs	r3, r0, #2
    2cca:	b2db      	uxtb	r3, r3
            if (table->swap_type != BOOT_SWAP_TYPE_TEST &&
    2ccc:	2b02      	cmp	r3, #2
    2cce:	d909      	bls.n	2ce4 <boot_swap_type_multi+0xb4>
                    table->swap_type != BOOT_SWAP_TYPE_REVERT) {
                return BOOT_SWAP_TYPE_PANIC;
    2cd0:	20ff      	movs	r0, #255	; 0xff
    2cd2:	e007      	b.n	2ce4 <boot_swap_type_multi+0xb4>
            BOOT_LOG_INF("Swap type: %s",
    2cd4:	490a      	ldr	r1, [pc, #40]	; (2d00 <boot_swap_type_multi+0xd0>)
    2cd6:	e7f3      	b.n	2cc0 <boot_swap_type_multi+0x90>
            }
            return table->swap_type;
        }
    }

    BOOT_LOG_INF("Swap type: none");
    2cd8:	480a      	ldr	r0, [pc, #40]	; (2d04 <boot_swap_type_multi+0xd4>)
    2cda:	f001 fe0d 	bl	48f8 <puts>
    return BOOT_SWAP_TYPE_NONE;
    2cde:	2001      	movs	r0, #1
    2ce0:	e000      	b.n	2ce4 <boot_swap_type_multi+0xb4>
        return BOOT_SWAP_TYPE_PANIC;
    2ce2:	20ff      	movs	r0, #255	; 0xff
}
    2ce4:	b005      	add	sp, #20
    2ce6:	bd30      	pop	{r4, r5, pc}
        return BOOT_SWAP_TYPE_PANIC;
    2ce8:	20ff      	movs	r0, #255	; 0xff
    2cea:	e7fb      	b.n	2ce4 <boot_swap_type_multi+0xb4>
    2cec:	00005b8c 	.word	0x00005b8c
    2cf0:	00005bb0 	.word	0x00005bb0
    2cf4:	00005bc4 	.word	0x00005bc4
    2cf8:	00005ba8 	.word	0x00005ba8
    2cfc:	00005bcc 	.word	0x00005bcc
    2d00:	00005ba0 	.word	0x00005ba0
    2d04:	00005be4 	.word	0x00005be4

00002d08 <boot_set_pending>:
 *
 * @return                  0 on success; nonzero on failure.
 */
int
boot_set_pending(int permanent)
{
    2d08:	b510      	push	{r4, lr}
    2d0a:	b084      	sub	sp, #16
    2d0c:	4604      	mov	r4, r0
    const struct flash_area *fap;
    struct boot_swap_state state_secondary_slot;
    uint8_t swap_type;
    int rc;

    rc = boot_read_swap_state_by_id(FLASH_AREA_IMAGE_SECONDARY(0),
    2d0e:	a901      	add	r1, sp, #4
    2d10:	2002      	movs	r0, #2
    2d12:	f7ff ff0b 	bl	2b2c <boot_read_swap_state_by_id>
                                    &state_secondary_slot);
    if (rc != 0) {
    2d16:	4603      	mov	r3, r0
    2d18:	bba8      	cbnz	r0, 2d86 <boot_set_pending+0x7e>
        return rc;
    }

    switch (state_secondary_slot.magic) {
    2d1a:	f89d 2004 	ldrb.w	r2, [sp, #4]
    2d1e:	2a02      	cmp	r2, #2
    2d20:	d02b      	beq.n	2d7a <boot_set_pending+0x72>
    2d22:	2a03      	cmp	r2, #3
    2d24:	d00b      	beq.n	2d3e <boot_set_pending+0x36>
    2d26:	2a01      	cmp	r2, #1
    2d28:	d02d      	beq.n	2d86 <boot_set_pending+0x7e>
        flash_area_erase(fap, 0, fap->fa_size);
        flash_area_close(fap);
        return BOOT_EBADIMAGE;

    default:
        assert(0);
    2d2a:	f7fd fa1b 	bl	164 <hal_debugger_connected>
    2d2e:	b100      	cbz	r0, 2d32 <boot_set_pending+0x2a>
    2d30:	be01      	bkpt	0x0001
    2d32:	2300      	movs	r3, #0
    2d34:	461a      	mov	r2, r3
    2d36:	4619      	mov	r1, r3
    2d38:	4618      	mov	r0, r3
    2d3a:	f7fe fd3b 	bl	17b4 <__assert_func>
        rc = flash_area_open(FLASH_AREA_IMAGE_SECONDARY(0), &fap);
    2d3e:	a903      	add	r1, sp, #12
    2d40:	2002      	movs	r0, #2
    2d42:	f002 f9bb 	bl	50bc <flash_area_open>
        if (rc != 0) {
    2d46:	b148      	cbz	r0, 2d5c <boot_set_pending+0x54>
            rc = BOOT_EFLASH;
    2d48:	2301      	movs	r3, #1
        if (rc == 0) {
    2d4a:	b9e3      	cbnz	r3, 2d86 <boot_set_pending+0x7e>
            if (permanent) {
    2d4c:	b99c      	cbnz	r4, 2d76 <boot_set_pending+0x6e>
                swap_type = BOOT_SWAP_TYPE_TEST;
    2d4e:	2102      	movs	r1, #2
            rc = boot_write_swap_info(fap, swap_type, 0);
    2d50:	2200      	movs	r2, #0
    2d52:	9803      	ldr	r0, [sp, #12]
    2d54:	f7ff ff30 	bl	2bb8 <boot_write_swap_info>
    2d58:	4603      	mov	r3, r0
    2d5a:	e014      	b.n	2d86 <boot_set_pending+0x7e>
            rc = boot_write_magic(fap);
    2d5c:	9803      	ldr	r0, [sp, #12]
    2d5e:	f7ff ff0d 	bl	2b7c <boot_write_magic>
        if (rc == 0 && permanent) {
    2d62:	4603      	mov	r3, r0
    2d64:	2800      	cmp	r0, #0
    2d66:	d1f0      	bne.n	2d4a <boot_set_pending+0x42>
    2d68:	2c00      	cmp	r4, #0
    2d6a:	d0ee      	beq.n	2d4a <boot_set_pending+0x42>
            rc = boot_write_image_ok(fap);
    2d6c:	9803      	ldr	r0, [sp, #12]
    2d6e:	f7ff ff1c 	bl	2baa <boot_write_image_ok>
    2d72:	4603      	mov	r3, r0
    2d74:	e7e9      	b.n	2d4a <boot_set_pending+0x42>
                swap_type = BOOT_SWAP_TYPE_PERM;
    2d76:	2103      	movs	r1, #3
    2d78:	e7ea      	b.n	2d50 <boot_set_pending+0x48>
        rc = flash_area_open(FLASH_AREA_IMAGE_SECONDARY(0), &fap);
    2d7a:	a903      	add	r1, sp, #12
    2d7c:	2002      	movs	r0, #2
    2d7e:	f002 f99d 	bl	50bc <flash_area_open>
        if (rc != 0) {
    2d82:	b118      	cbz	r0, 2d8c <boot_set_pending+0x84>
            return BOOT_EFLASH;
    2d84:	2301      	movs	r3, #1
        return BOOT_EBADIMAGE;
    }
}
    2d86:	4618      	mov	r0, r3
    2d88:	b004      	add	sp, #16
    2d8a:	bd10      	pop	{r4, pc}
        flash_area_erase(fap, 0, fap->fa_size);
    2d8c:	9803      	ldr	r0, [sp, #12]
    2d8e:	6882      	ldr	r2, [r0, #8]
    2d90:	2100      	movs	r1, #0
    2d92:	f002 fa11 	bl	51b8 <flash_area_erase>
        return BOOT_EBADIMAGE;
    2d96:	2303      	movs	r3, #3
    2d98:	e7f5      	b.n	2d86 <boot_set_pending+0x7e>
	...

00002d9c <boot_is_header_valid>:
static bool
boot_is_header_valid(const struct image_header *hdr, const struct flash_area *fap)
{
    uint32_t size;

    if (hdr->ih_magic != IMAGE_MAGIC) {
    2d9c:	6802      	ldr	r2, [r0, #0]
    2d9e:	4b0e      	ldr	r3, [pc, #56]	; (2dd8 <boot_is_header_valid+0x3c>)
    2da0:	429a      	cmp	r2, r3
    2da2:	d001      	beq.n	2da8 <boot_is_header_valid+0xc>
        return false;
    2da4:	2000      	movs	r0, #0
    2da6:	4770      	bx	lr
    }

    if (!boot_u32_safe_add(&size, hdr->ih_img_size, hdr->ih_hdr_size)) {
    2da8:	68c2      	ldr	r2, [r0, #12]
    2daa:	8903      	ldrh	r3, [r0, #8]
{
    /*
     * "a + b <= UINT32_MAX", subtract 'b' from both sides to avoid
     * the overflow.
     */
    if (a > UINT32_MAX - b) {
    2dac:	43d8      	mvns	r0, r3
    2dae:	4282      	cmp	r2, r0
    2db0:	d80a      	bhi.n	2dc8 <boot_is_header_valid+0x2c>
{
    2db2:	b410      	push	{r4}
        return false;
    } else {
        *dest = a + b;
    2db4:	18d4      	adds	r4, r2, r3
        return true;
    2db6:	2001      	movs	r0, #1
    if (!boot_u32_safe_add(&size, hdr->ih_img_size, hdr->ih_hdr_size)) {
    2db8:	b110      	cbz	r0, 2dc0 <boot_is_header_valid+0x24>
        return false;
    }

    if (size >= fap->fa_size) {
    2dba:	688b      	ldr	r3, [r1, #8]
    2dbc:	42a3      	cmp	r3, r4
    2dbe:	d901      	bls.n	2dc4 <boot_is_header_valid+0x28>
        return false;
    }

    return true;
}
    2dc0:	bc10      	pop	{r4}
    2dc2:	4770      	bx	lr
        return false;
    2dc4:	2000      	movs	r0, #0
    2dc6:	e7fb      	b.n	2dc0 <boot_is_header_valid+0x24>
        return false;
    2dc8:	2000      	movs	r0, #0
    if (!boot_u32_safe_add(&size, hdr->ih_img_size, hdr->ih_hdr_size)) {
    2dca:	b110      	cbz	r0, 2dd2 <boot_is_header_valid+0x36>
    if (size >= fap->fa_size) {
    2dcc:	688b      	ldr	r3, [r1, #8]
    2dce:	42a3      	cmp	r3, r4
    2dd0:	d900      	bls.n	2dd4 <boot_is_header_valid+0x38>
}
    2dd2:	4770      	bx	lr
        return false;
    2dd4:	2000      	movs	r0, #0
    2dd6:	e7fc      	b.n	2dd2 <boot_is_header_valid+0x36>
    2dd8:	96f3b83d 	.word	0x96f3b83d

00002ddc <boot_write_sz>:
{
    2ddc:	b538      	push	{r3, r4, r5, lr}
    2dde:	4604      	mov	r4, r0
    elem_sz = flash_area_align(BOOT_IMG_AREA(state, BOOT_PRIMARY_SLOT));
    2de0:	6a00      	ldr	r0, [r0, #32]
    2de2:	f002 f9fc 	bl	51de <flash_area_align>
    2de6:	4605      	mov	r5, r0
    align = flash_area_align(BOOT_SCRATCH_AREA(state));
    2de8:	6da0      	ldr	r0, [r4, #88]	; 0x58
    2dea:	f002 f9f8 	bl	51de <flash_area_align>
    if (align > elem_sz) {
    2dee:	4285      	cmp	r5, r0
    2df0:	d200      	bcs.n	2df4 <boot_write_sz+0x18>
}
    2df2:	bd38      	pop	{r3, r4, r5, pc}
    elem_sz = flash_area_align(BOOT_IMG_AREA(state, BOOT_PRIMARY_SLOT));
    2df4:	4628      	mov	r0, r5
    return elem_sz;
    2df6:	e7fc      	b.n	2df2 <boot_write_sz+0x16>

00002df8 <boot_read_image_size>:
{
    2df8:	e92d 41f0 	stmdb	sp!, {r4, r5, r6, r7, r8, lr}
    2dfc:	b082      	sub	sp, #8
    2dfe:	4680      	mov	r8, r0
    2e00:	460d      	mov	r5, r1
    2e02:	4617      	mov	r7, r2
    area_id = flash_area_id_from_multi_image_slot(BOOT_CURR_IMG(state), slot);
    2e04:	2000      	movs	r0, #0
    2e06:	f001 fa3d 	bl	4284 <flash_area_id_from_multi_image_slot>
    rc = flash_area_open(area_id, &fap);
    2e0a:	a901      	add	r1, sp, #4
    2e0c:	b2c0      	uxtb	r0, r0
    2e0e:	f002 f955 	bl	50bc <flash_area_open>
    if (rc != 0) {
    2e12:	b120      	cbz	r0, 2e1e <boot_read_image_size+0x26>
        rc = BOOT_EFLASH;
    2e14:	2401      	movs	r4, #1
}
    2e16:	4620      	mov	r0, r4
    2e18:	b002      	add	sp, #8
    2e1a:	e8bd 81f0 	ldmia.w	sp!, {r4, r5, r6, r7, r8, pc}
    off = BOOT_TLV_OFF(boot_img_hdr(state, slot));
    2e1e:	232c      	movs	r3, #44	; 0x2c
    2e20:	fb03 8305 	mla	r3, r3, r5, r8
    2e24:	891e      	ldrh	r6, [r3, #8]
    2e26:	68db      	ldr	r3, [r3, #12]
    2e28:	441e      	add	r6, r3
    if (flash_area_read(fap, off, &info, sizeof(info))) {
    2e2a:	2304      	movs	r3, #4
    2e2c:	466a      	mov	r2, sp
    2e2e:	4631      	mov	r1, r6
    2e30:	9801      	ldr	r0, [sp, #4]
    2e32:	f002 f99b 	bl	516c <flash_area_read>
    2e36:	4604      	mov	r4, r0
    2e38:	bb30      	cbnz	r0, 2e88 <boot_read_image_size+0x90>
    protect_tlv_size = boot_img_hdr(state, slot)->ih_protect_tlv_size;
    2e3a:	232c      	movs	r3, #44	; 0x2c
    2e3c:	fb03 8505 	mla	r5, r3, r5, r8
    2e40:	896d      	ldrh	r5, [r5, #10]
    if (info.it_magic == IMAGE_TLV_PROT_INFO_MAGIC) {
    2e42:	f8bd 2000 	ldrh.w	r2, [sp]
    2e46:	f646 1308 	movw	r3, #26888	; 0x6908
    2e4a:	429a      	cmp	r2, r3
    2e4c:	d00c      	beq.n	2e68 <boot_read_image_size+0x70>
    } else if (protect_tlv_size != 0) {
    2e4e:	b9ed      	cbnz	r5, 2e8c <boot_read_image_size+0x94>
    if (info.it_magic != IMAGE_TLV_INFO_MAGIC) {
    2e50:	f8bd 2000 	ldrh.w	r2, [sp]
    2e54:	f646 1307 	movw	r3, #26887	; 0x6907
    2e58:	429a      	cmp	r2, r3
    2e5a:	d119      	bne.n	2e90 <boot_read_image_size+0x98>
    *size = off + protect_tlv_size + info.it_tlv_tot;
    2e5c:	442e      	add	r6, r5
    2e5e:	f8bd 3002 	ldrh.w	r3, [sp, #2]
    2e62:	441e      	add	r6, r3
    2e64:	603e      	str	r6, [r7, #0]
    2e66:	e7d6      	b.n	2e16 <boot_read_image_size+0x1e>
        if (protect_tlv_size != info.it_tlv_tot) {
    2e68:	f8bd 1002 	ldrh.w	r1, [sp, #2]
    2e6c:	428d      	cmp	r5, r1
    2e6e:	d001      	beq.n	2e74 <boot_read_image_size+0x7c>
            rc = BOOT_EBADIMAGE;
    2e70:	2403      	movs	r4, #3
    2e72:	e7d0      	b.n	2e16 <boot_read_image_size+0x1e>
        if (flash_area_read(fap, off + info.it_tlv_tot, &info, sizeof(info))) {
    2e74:	2304      	movs	r3, #4
    2e76:	466a      	mov	r2, sp
    2e78:	4431      	add	r1, r6
    2e7a:	9801      	ldr	r0, [sp, #4]
    2e7c:	f002 f976 	bl	516c <flash_area_read>
    2e80:	2800      	cmp	r0, #0
    2e82:	d0e5      	beq.n	2e50 <boot_read_image_size+0x58>
            rc = BOOT_EFLASH;
    2e84:	2401      	movs	r4, #1
    2e86:	e7c6      	b.n	2e16 <boot_read_image_size+0x1e>
        rc = BOOT_EFLASH;
    2e88:	2401      	movs	r4, #1
    2e8a:	e7c4      	b.n	2e16 <boot_read_image_size+0x1e>
        rc = BOOT_EBADIMAGE;
    2e8c:	2403      	movs	r4, #3
    2e8e:	e7c2      	b.n	2e16 <boot_read_image_size+0x1e>
        rc = BOOT_EBADIMAGE;
    2e90:	2403      	movs	r4, #3
    return rc;
    2e92:	e7c0      	b.n	2e16 <boot_read_image_size+0x1e>

00002e94 <boot_check_header_erased>:
    return true;
}

static int
boot_check_header_erased(struct boot_loader_state *state, int slot)
{
    2e94:	b570      	push	{r4, r5, r6, lr}
    2e96:	b082      	sub	sp, #8
    2e98:	4606      	mov	r6, r0
    2e9a:	460c      	mov	r4, r1
    struct image_header *hdr;
    uint8_t erased_val;
    int area_id;
    int rc;

    area_id = flash_area_id_from_multi_image_slot(BOOT_CURR_IMG(state), slot);
    2e9c:	2000      	movs	r0, #0
    2e9e:	f001 f9f1 	bl	4284 <flash_area_id_from_multi_image_slot>
    rc = flash_area_open(area_id, &fap);
    2ea2:	a901      	add	r1, sp, #4
    2ea4:	b2c0      	uxtb	r0, r0
    2ea6:	f002 f909 	bl	50bc <flash_area_open>
    if (rc != 0) {
    2eaa:	b9d0      	cbnz	r0, 2ee2 <boot_check_header_erased+0x4e>
    2eac:	4605      	mov	r5, r0
        return -1;
    }

    erased_val = flash_area_erased_val(fap);
    2eae:	9801      	ldr	r0, [sp, #4]
    2eb0:	f002 f99a 	bl	51e8 <flash_area_erased_val>
    2eb4:	b2c0      	uxtb	r0, r0
    flash_area_close(fap);

    hdr = boot_img_hdr(state, slot);
    if (!boot_data_is_set_to(erased_val, &hdr->ih_magic, sizeof(hdr->ih_magic))) {
    2eb6:	212c      	movs	r1, #44	; 0x2c
    2eb8:	fb01 6104 	mla	r1, r1, r4, r6
    for (i = 0; i < len; i++) {
    2ebc:	2300      	movs	r3, #0
    2ebe:	2b03      	cmp	r3, #3
    2ec0:	d805      	bhi.n	2ece <boot_check_header_erased+0x3a>
        if (val != p[i]) {
    2ec2:	5cca      	ldrb	r2, [r1, r3]
    2ec4:	4290      	cmp	r0, r2
    2ec6:	d107      	bne.n	2ed8 <boot_check_header_erased+0x44>
    for (i = 0; i < len; i++) {
    2ec8:	3301      	adds	r3, #1
    2eca:	b2db      	uxtb	r3, r3
    2ecc:	e7f7      	b.n	2ebe <boot_check_header_erased+0x2a>
    return true;
    2ece:	2301      	movs	r3, #1
    if (!boot_data_is_set_to(erased_val, &hdr->ih_magic, sizeof(hdr->ih_magic))) {
    2ed0:	b123      	cbz	r3, 2edc <boot_check_header_erased+0x48>
        return -1;
    }

    return 0;
}
    2ed2:	4628      	mov	r0, r5
    2ed4:	b002      	add	sp, #8
    2ed6:	bd70      	pop	{r4, r5, r6, pc}
            return false;
    2ed8:	2300      	movs	r3, #0
    2eda:	e7f9      	b.n	2ed0 <boot_check_header_erased+0x3c>
        return -1;
    2edc:	f04f 35ff 	mov.w	r5, #4294967295	; 0xffffffff
    2ee0:	e7f7      	b.n	2ed2 <boot_check_header_erased+0x3e>
        return -1;
    2ee2:	f04f 35ff 	mov.w	r5, #4294967295	; 0xffffffff
    2ee6:	e7f4      	b.n	2ed2 <boot_check_header_erased+0x3e>

00002ee8 <boot_initialize_area>:
{
    2ee8:	b510      	push	{r4, lr}
    2eea:	b082      	sub	sp, #8
    2eec:	4604      	mov	r4, r0
    2eee:	4608      	mov	r0, r1
    int num_sectors = BOOT_MAX_IMG_SECTORS;
    2ef0:	2380      	movs	r3, #128	; 0x80
    2ef2:	9301      	str	r3, [sp, #4]
    if (flash_area == FLASH_AREA_IMAGE_PRIMARY(BOOT_CURR_IMG(state))) {
    2ef4:	2901      	cmp	r1, #1
    2ef6:	d006      	beq.n	2f06 <boot_initialize_area+0x1e>
    } else if (flash_area == FLASH_AREA_IMAGE_SECONDARY(BOOT_CURR_IMG(state))) {
    2ef8:	2902      	cmp	r1, #2
    2efa:	d00b      	beq.n	2f14 <boot_initialize_area+0x2c>
    } else if (flash_area == FLASH_AREA_IMAGE_SCRATCH) {
    2efc:	2903      	cmp	r1, #3
    2efe:	d010      	beq.n	2f22 <boot_initialize_area+0x3a>
        return BOOT_EFLASH;
    2f00:	2001      	movs	r0, #1
}
    2f02:	b002      	add	sp, #8
    2f04:	bd10      	pop	{r4, pc}
        rc = flash_area_to_sectors(flash_area, &num_sectors,
    2f06:	6a62      	ldr	r2, [r4, #36]	; 0x24
    2f08:	a901      	add	r1, sp, #4
    2f0a:	f002 f8f1 	bl	50f0 <flash_area_to_sectors>
        BOOT_IMG(state, BOOT_PRIMARY_SLOT).num_sectors = (size_t)num_sectors;
    2f0e:	9b01      	ldr	r3, [sp, #4]
    2f10:	62a3      	str	r3, [r4, #40]	; 0x28
    2f12:	e7f6      	b.n	2f02 <boot_initialize_area+0x1a>
        rc = flash_area_to_sectors(flash_area, &num_sectors,
    2f14:	6d22      	ldr	r2, [r4, #80]	; 0x50
    2f16:	a901      	add	r1, sp, #4
    2f18:	f002 f8ea 	bl	50f0 <flash_area_to_sectors>
        BOOT_IMG(state, BOOT_SECONDARY_SLOT).num_sectors = (size_t)num_sectors;
    2f1c:	9b01      	ldr	r3, [sp, #4]
    2f1e:	6563      	str	r3, [r4, #84]	; 0x54
    2f20:	e7ef      	b.n	2f02 <boot_initialize_area+0x1a>
        rc = flash_area_to_sectors(flash_area, &num_sectors,
    2f22:	6de2      	ldr	r2, [r4, #92]	; 0x5c
    2f24:	a901      	add	r1, sp, #4
    2f26:	f002 f8e3 	bl	50f0 <flash_area_to_sectors>
        state->scratch.num_sectors = (size_t)num_sectors;
    2f2a:	9b01      	ldr	r3, [sp, #4]
    2f2c:	6623      	str	r3, [r4, #96]	; 0x60
    2f2e:	e7e8      	b.n	2f02 <boot_initialize_area+0x1a>

00002f30 <boot_read_sectors>:
{
    2f30:	b538      	push	{r3, r4, r5, lr}
    2f32:	4605      	mov	r5, r0
    rc = boot_initialize_area(state, FLASH_AREA_IMAGE_PRIMARY(image_index));
    2f34:	2101      	movs	r1, #1
    2f36:	f7ff ffd7 	bl	2ee8 <boot_initialize_area>
    if (rc != 0) {
    2f3a:	b110      	cbz	r0, 2f42 <boot_read_sectors+0x12>
        return BOOT_EFLASH;
    2f3c:	2401      	movs	r4, #1
}
    2f3e:	4620      	mov	r0, r4
    2f40:	bd38      	pop	{r3, r4, r5, pc}
    rc = boot_initialize_area(state, FLASH_AREA_IMAGE_SECONDARY(image_index));
    2f42:	2102      	movs	r1, #2
    2f44:	4628      	mov	r0, r5
    2f46:	f7ff ffcf 	bl	2ee8 <boot_initialize_area>
    if (rc != 0) {
    2f4a:	b108      	cbz	r0, 2f50 <boot_read_sectors+0x20>
        return BOOT_EFLASH;
    2f4c:	2401      	movs	r4, #1
    2f4e:	e7f6      	b.n	2f3e <boot_read_sectors+0xe>
    rc = boot_initialize_area(state, FLASH_AREA_IMAGE_SCRATCH);
    2f50:	2103      	movs	r1, #3
    2f52:	4628      	mov	r0, r5
    2f54:	f7ff ffc8 	bl	2ee8 <boot_initialize_area>
    if (rc != 0) {
    2f58:	4604      	mov	r4, r0
    2f5a:	b108      	cbz	r0, 2f60 <boot_read_sectors+0x30>
        return BOOT_EFLASH;
    2f5c:	2401      	movs	r4, #1
    2f5e:	e7ee      	b.n	2f3e <boot_read_sectors+0xe>
    BOOT_WRITE_SZ(state) = boot_write_sz(state);
    2f60:	4628      	mov	r0, r5
    2f62:	f7ff ff3b 	bl	2ddc <boot_write_sz>
    2f66:	66a8      	str	r0, [r5, #104]	; 0x68
    return 0;
    2f68:	e7e9      	b.n	2f3e <boot_read_sectors+0xe>
	...

00002f6c <boot_image_check>:
{
    2f6c:	b500      	push	{lr}
    2f6e:	b087      	sub	sp, #28
    if (bootutil_img_validate(BOOT_CURR_ENC(state), image_index, hdr, fap, tmpbuf,
    2f70:	2000      	movs	r0, #0
    2f72:	9004      	str	r0, [sp, #16]
    2f74:	9003      	str	r0, [sp, #12]
    2f76:	9002      	str	r0, [sp, #8]
    2f78:	f44f 7380 	mov.w	r3, #256	; 0x100
    2f7c:	9301      	str	r3, [sp, #4]
    2f7e:	4b07      	ldr	r3, [pc, #28]	; (2f9c <boot_image_check+0x30>)
    2f80:	9300      	str	r3, [sp, #0]
    2f82:	4613      	mov	r3, r2
    2f84:	460a      	mov	r2, r1
    2f86:	4601      	mov	r1, r0
    2f88:	f001 f85e 	bl	4048 <bootutil_img_validate>
    2f8c:	4603      	mov	r3, r0
    2f8e:	b918      	cbnz	r0, 2f98 <boot_image_check+0x2c>
}
    2f90:	4618      	mov	r0, r3
    2f92:	b007      	add	sp, #28
    2f94:	f85d fb04 	ldr.w	pc, [sp], #4
        return BOOT_EBADIMAGE;
    2f98:	2303      	movs	r3, #3
    2f9a:	e7f9      	b.n	2f90 <boot_image_check+0x24>
    2f9c:	20006280 	.word	0x20006280

00002fa0 <boot_validate_slot>:
 *         -1 on any errors
 */
static int
boot_validate_slot(struct boot_loader_state *state, int slot,
                   struct boot_status *bs)
{
    2fa0:	e92d 41f0 	stmdb	sp!, {r4, r5, r6, r7, r8, lr}
    2fa4:	b082      	sub	sp, #8
    2fa6:	4605      	mov	r5, r0
    2fa8:	460c      	mov	r4, r1
    2faa:	4617      	mov	r7, r2
    const struct flash_area *fap;
    struct image_header *hdr;
    int area_id;
    int rc;

    area_id = flash_area_id_from_multi_image_slot(BOOT_CURR_IMG(state), slot);
    2fac:	2000      	movs	r0, #0
    2fae:	f001 f969 	bl	4284 <flash_area_id_from_multi_image_slot>
    rc = flash_area_open(area_id, &fap);
    2fb2:	a901      	add	r1, sp, #4
    2fb4:	b2c0      	uxtb	r0, r0
    2fb6:	f002 f881 	bl	50bc <flash_area_open>
    if (rc != 0) {
    2fba:	bb60      	cbnz	r0, 3016 <boot_validate_slot+0x76>
     ((swap_type) == BOOT_SWAP_TYPE_PERM))

static inline struct image_header*
boot_img_hdr(struct boot_loader_state *state, size_t slot)
{
    return &BOOT_IMG(state, slot).hdr;
    2fbc:	202c      	movs	r0, #44	; 0x2c
    2fbe:	fb00 5604 	mla	r6, r0, r4, r5
        return -1;
    }

    hdr = boot_img_hdr(state, slot);
    if (boot_check_header_erased(state, slot) == 0 ||
    2fc2:	4621      	mov	r1, r4
    2fc4:	4628      	mov	r0, r5
    2fc6:	f7ff ff65 	bl	2e94 <boot_check_header_erased>
    2fca:	b338      	cbz	r0, 301c <boot_validate_slot+0x7c>
        (hdr->ih_flags & IMAGE_F_NON_BOOTABLE)) {
    2fcc:	6933      	ldr	r3, [r6, #16]
    if (boot_check_header_erased(state, slot) == 0 ||
    2fce:	f013 0f10 	tst.w	r3, #16
    2fd2:	d128      	bne.n	3026 <boot_validate_slot+0x86>
            goto out;
        }
    }
#endif

    if (!boot_is_header_valid(hdr, fap) || boot_image_check(state, hdr, fap, bs)) {
    2fd4:	f8dd 8004 	ldr.w	r8, [sp, #4]
    2fd8:	4641      	mov	r1, r8
    2fda:	4630      	mov	r0, r6
    2fdc:	f7ff fede 	bl	2d9c <boot_is_header_valid>
    2fe0:	b938      	cbnz	r0, 2ff2 <boot_validate_slot+0x52>
        if (slot != BOOT_PRIMARY_SLOT) {
    2fe2:	b984      	cbnz	r4, 3006 <boot_validate_slot+0x66>
            /* Image in the secondary slot is invalid. Erase the image and
             * continue booting from the primary slot.
             */
        }
#if !defined(__BOOTSIM__)
        BOOT_LOG_ERR("Image in the %s slot is not valid!",
    2fe4:	b9ac      	cbnz	r4, 3012 <boot_validate_slot+0x72>
    2fe6:	4911      	ldr	r1, [pc, #68]	; (302c <boot_validate_slot+0x8c>)
    2fe8:	4811      	ldr	r0, [pc, #68]	; (3030 <boot_validate_slot+0x90>)
    2fea:	f001 ff87 	bl	4efc <printf>
                     (slot == BOOT_PRIMARY_SLOT) ? "primary" : "secondary");
#endif
        rc = 1;
    2fee:	2301      	movs	r3, #1
        goto out;
    2ff0:	e015      	b.n	301e <boot_validate_slot+0x7e>
    if (!boot_is_header_valid(hdr, fap) || boot_image_check(state, hdr, fap, bs)) {
    2ff2:	463b      	mov	r3, r7
    2ff4:	4642      	mov	r2, r8
    2ff6:	4631      	mov	r1, r6
    2ff8:	4628      	mov	r0, r5
    2ffa:	f7ff ffb7 	bl	2f6c <boot_image_check>
    2ffe:	4603      	mov	r3, r0
    3000:	2800      	cmp	r0, #0
    3002:	d1ee      	bne.n	2fe2 <boot_validate_slot+0x42>
    3004:	e00b      	b.n	301e <boot_validate_slot+0x7e>
            flash_area_erase(fap, 0, fap->fa_size);
    3006:	9801      	ldr	r0, [sp, #4]
    3008:	6882      	ldr	r2, [r0, #8]
    300a:	2100      	movs	r1, #0
    300c:	f002 f8d4 	bl	51b8 <flash_area_erase>
    3010:	e7e8      	b.n	2fe4 <boot_validate_slot+0x44>
        BOOT_LOG_ERR("Image in the %s slot is not valid!",
    3012:	4908      	ldr	r1, [pc, #32]	; (3034 <boot_validate_slot+0x94>)
    3014:	e7e8      	b.n	2fe8 <boot_validate_slot+0x48>
        return -1;
    3016:	f04f 33ff 	mov.w	r3, #4294967295	; 0xffffffff
    301a:	e000      	b.n	301e <boot_validate_slot+0x7e>
        rc = 1;
    301c:	2301      	movs	r3, #1
    rc = 0;

out:
    flash_area_close(fap);
    return rc;
}
    301e:	4618      	mov	r0, r3
    3020:	b002      	add	sp, #8
    3022:	e8bd 81f0 	ldmia.w	sp!, {r4, r5, r6, r7, r8, pc}
        rc = 1;
    3026:	2301      	movs	r3, #1
    3028:	e7f9      	b.n	301e <boot_validate_slot+0x7e>
    302a:	bf00      	nop
    302c:	00005cac 	.word	0x00005cac
    3030:	00005cc0 	.word	0x00005cc0
    3034:	00005cb4 	.word	0x00005cb4

00003038 <boot_validated_swap_type>:
 * @return                      The type of swap to perform (BOOT_SWAP_TYPE...)
 */
static int
boot_validated_swap_type(struct boot_loader_state *state,
                         struct boot_status *bs)
{
    3038:	b570      	push	{r4, r5, r6, lr}
    303a:	4605      	mov	r5, r0
    303c:	460e      	mov	r6, r1
    int swap_type;
    int rc;

    swap_type = boot_swap_type_multi(BOOT_CURR_IMG(state));
    303e:	2000      	movs	r0, #0
    3040:	f7ff fdf6 	bl	2c30 <boot_swap_type_multi>
    3044:	4604      	mov	r4, r0
    if (BOOT_IS_UPGRADE(swap_type)) {
    3046:	2802      	cmp	r0, #2
    3048:	d005      	beq.n	3056 <boot_validated_swap_type+0x1e>
    304a:	2804      	cmp	r0, #4
    304c:	d003      	beq.n	3056 <boot_validated_swap_type+0x1e>
    304e:	2803      	cmp	r0, #3
    3050:	d001      	beq.n	3056 <boot_validated_swap_type+0x1e>
            swap_type = BOOT_SWAP_TYPE_FAIL;
        }
    }

    return swap_type;
}
    3052:	4620      	mov	r0, r4
    3054:	bd70      	pop	{r4, r5, r6, pc}
        rc = boot_validate_slot(state, BOOT_SECONDARY_SLOT, bs);
    3056:	4632      	mov	r2, r6
    3058:	2101      	movs	r1, #1
    305a:	4628      	mov	r0, r5
    305c:	f7ff ffa0 	bl	2fa0 <boot_validate_slot>
        if (rc == 1) {
    3060:	2801      	cmp	r0, #1
    3062:	d003      	beq.n	306c <boot_validated_swap_type+0x34>
        } else if (rc != 0) {
    3064:	2800      	cmp	r0, #0
    3066:	d0f4      	beq.n	3052 <boot_validated_swap_type+0x1a>
            swap_type = BOOT_SWAP_TYPE_FAIL;
    3068:	2405      	movs	r4, #5
    return swap_type;
    306a:	e7f2      	b.n	3052 <boot_validated_swap_type+0x1a>
            swap_type = BOOT_SWAP_TYPE_NONE;
    306c:	4604      	mov	r4, r0
    306e:	e7f0      	b.n	3052 <boot_validated_swap_type+0x1a>

00003070 <boot_read_image_headers>:
{
    3070:	b5f8      	push	{r3, r4, r5, r6, r7, lr}
    3072:	4605      	mov	r5, r0
    3074:	460f      	mov	r7, r1
    3076:	4616      	mov	r6, r2
    for (i = 0; i < BOOT_NUM_SLOTS; i++) {
    3078:	2400      	movs	r4, #0
    307a:	2c01      	cmp	r4, #1
    307c:	dc10      	bgt.n	30a0 <boot_read_image_headers+0x30>
        rc = boot_read_image_header(state, i, boot_img_hdr(state, i), bs);
    307e:	4633      	mov	r3, r6
    3080:	222c      	movs	r2, #44	; 0x2c
    3082:	fb02 5204 	mla	r2, r2, r4, r5
    3086:	4621      	mov	r1, r4
    3088:	4628      	mov	r0, r5
    308a:	f000 fdae 	bl	3bea <boot_read_image_header>
        if (rc != 0) {
    308e:	4603      	mov	r3, r0
    3090:	b908      	cbnz	r0, 3096 <boot_read_image_headers+0x26>
    for (i = 0; i < BOOT_NUM_SLOTS; i++) {
    3092:	3401      	adds	r4, #1
    3094:	e7f1      	b.n	307a <boot_read_image_headers+0xa>
            if (i > 0 && !require_all) {
    3096:	2c00      	cmp	r4, #0
    3098:	dd03      	ble.n	30a2 <boot_read_image_headers+0x32>
    309a:	b917      	cbnz	r7, 30a2 <boot_read_image_headers+0x32>
                return 0;
    309c:	2300      	movs	r3, #0
    309e:	e000      	b.n	30a2 <boot_read_image_headers+0x32>
    return 0;
    30a0:	2300      	movs	r3, #0
}
    30a2:	4618      	mov	r0, r3
    30a4:	bdf8      	pop	{r3, r4, r5, r6, r7, pc}

000030a6 <boot_status_reset>:
    bs->use_scratch = 0;
    30a6:	2300      	movs	r3, #0
    30a8:	7183      	strb	r3, [r0, #6]
    bs->swap_size = 0;
    30aa:	6083      	str	r3, [r0, #8]
    bs->source = 0;
    30ac:	60c3      	str	r3, [r0, #12]
    bs->op = BOOT_STATUS_OP_MOVE;
    30ae:	2301      	movs	r3, #1
    30b0:	7143      	strb	r3, [r0, #5]
    bs->idx = BOOT_STATUS_IDX_0;
    30b2:	6003      	str	r3, [r0, #0]
    bs->state = BOOT_STATUS_STATE_0;
    30b4:	7103      	strb	r3, [r0, #4]
    bs->swap_type = BOOT_SWAP_TYPE_NONE;
    30b6:	71c3      	strb	r3, [r0, #7]
}
    30b8:	4770      	bx	lr

000030ba <boot_status_is_reset>:
    return (bs->op == BOOT_STATUS_OP_MOVE &&
    30ba:	7943      	ldrb	r3, [r0, #5]
            bs->idx == BOOT_STATUS_IDX_0 &&
    30bc:	2b01      	cmp	r3, #1
    30be:	d001      	beq.n	30c4 <boot_status_is_reset+0xa>
    30c0:	2000      	movs	r0, #0
    30c2:	4770      	bx	lr
    30c4:	6803      	ldr	r3, [r0, #0]
    return (bs->op == BOOT_STATUS_OP_MOVE &&
    30c6:	2b01      	cmp	r3, #1
    30c8:	d001      	beq.n	30ce <boot_status_is_reset+0x14>
            bs->idx == BOOT_STATUS_IDX_0 &&
    30ca:	2000      	movs	r0, #0
    30cc:	4770      	bx	lr
            bs->state == BOOT_STATUS_STATE_0);
    30ce:	7903      	ldrb	r3, [r0, #4]
            bs->idx == BOOT_STATUS_IDX_0 &&
    30d0:	2b01      	cmp	r3, #1
    30d2:	d001      	beq.n	30d8 <boot_status_is_reset+0x1e>
    30d4:	2000      	movs	r0, #0
    30d6:	4770      	bx	lr
    30d8:	2001      	movs	r0, #1
}
    30da:	4770      	bx	lr

000030dc <boot_swap_image>:
 *
 * @return                      0 on success; nonzero on failure.
 */
static int
boot_swap_image(struct boot_loader_state *state, struct boot_status *bs)
{
    30dc:	b530      	push	{r4, r5, lr}
    30de:	b083      	sub	sp, #12
    30e0:	4605      	mov	r5, r0
    30e2:	460c      	mov	r4, r1
    uint8_t image_index;
    int rc;

    /* FIXME: just do this if asked by user? */

    size = copy_size = 0;
    30e4:	2300      	movs	r3, #0
    30e6:	9300      	str	r3, [sp, #0]
    30e8:	9301      	str	r3, [sp, #4]
    image_index = BOOT_CURR_IMG(state);

    if (boot_status_is_reset(bs)) {
    30ea:	4608      	mov	r0, r1
    30ec:	f7ff ffe5 	bl	30ba <boot_status_is_reset>
    30f0:	2800      	cmp	r0, #0
    30f2:	d038      	beq.n	3166 <boot_swap_image+0x8a>
        /*
         * No swap ever happened, so need to find the largest image which
         * will be used to determine the amount of sectors to swap.
         */
        hdr = boot_img_hdr(state, BOOT_PRIMARY_SLOT);
        if (hdr->ih_magic == IMAGE_MAGIC) {
    30f4:	682a      	ldr	r2, [r5, #0]
    30f6:	4b25      	ldr	r3, [pc, #148]	; (318c <boot_swap_image+0xb0>)
    30f8:	429a      	cmp	r2, r3
    30fa:	d012      	beq.n	3122 <boot_swap_image+0x46>
            memset(bs->enckey[0], 0xff, BOOT_ENC_KEY_SIZE);
        }
#endif

        hdr = boot_img_hdr(state, BOOT_SECONDARY_SLOT);
        if (hdr->ih_magic == IMAGE_MAGIC) {
    30fc:	6aea      	ldr	r2, [r5, #44]	; 0x2c
    30fe:	4b23      	ldr	r3, [pc, #140]	; (318c <boot_swap_image+0xb0>)
    3100:	429a      	cmp	r2, r3
    3102:	d01f      	beq.n	3144 <boot_swap_image+0x68>
        } else {
            memset(bs->enckey[1], 0xff, BOOT_ENC_KEY_SIZE);
        }
#endif

        if (size > copy_size) {
    3104:	9b01      	ldr	r3, [sp, #4]
    3106:	9a00      	ldr	r2, [sp, #0]
    3108:	4293      	cmp	r3, r2
    310a:	d900      	bls.n	310e <boot_swap_image+0x32>
            copy_size = size;
    310c:	9300      	str	r3, [sp, #0]
        }

        bs->swap_size = copy_size;
    310e:	9b00      	ldr	r3, [sp, #0]
    3110:	60a3      	str	r3, [r4, #8]
            }
        }
#endif
    }

    swap_run(state, bs, copy_size);
    3112:	9a00      	ldr	r2, [sp, #0]
    3114:	4621      	mov	r1, r4
    3116:	4628      	mov	r0, r5
    3118:	f000 ff18 	bl	3f4c <swap_run>
                     boot_status_fails);
    }
#endif

    return 0;
}
    311c:	2000      	movs	r0, #0
    311e:	b003      	add	sp, #12
    3120:	bd30      	pop	{r4, r5, pc}
            rc = boot_read_image_size(state, BOOT_PRIMARY_SLOT, &copy_size);
    3122:	466a      	mov	r2, sp
    3124:	2100      	movs	r1, #0
    3126:	4628      	mov	r0, r5
    3128:	f7ff fe66 	bl	2df8 <boot_read_image_size>
            assert(rc == 0);
    312c:	2800      	cmp	r0, #0
    312e:	d0e5      	beq.n	30fc <boot_swap_image+0x20>
    3130:	f7fd f818 	bl	164 <hal_debugger_connected>
    3134:	b100      	cbz	r0, 3138 <boot_swap_image+0x5c>
    3136:	be01      	bkpt	0x0001
    3138:	2300      	movs	r3, #0
    313a:	461a      	mov	r2, r3
    313c:	4619      	mov	r1, r3
    313e:	4618      	mov	r0, r3
    3140:	f7fe fb38 	bl	17b4 <__assert_func>
            rc = boot_read_image_size(state, BOOT_SECONDARY_SLOT, &size);
    3144:	aa01      	add	r2, sp, #4
    3146:	2101      	movs	r1, #1
    3148:	4628      	mov	r0, r5
    314a:	f7ff fe55 	bl	2df8 <boot_read_image_size>
            assert(rc == 0);
    314e:	2800      	cmp	r0, #0
    3150:	d0d8      	beq.n	3104 <boot_swap_image+0x28>
    3152:	f7fd f807 	bl	164 <hal_debugger_connected>
    3156:	b100      	cbz	r0, 315a <boot_swap_image+0x7e>
    3158:	be01      	bkpt	0x0001
    315a:	2300      	movs	r3, #0
    315c:	461a      	mov	r2, r3
    315e:	4619      	mov	r1, r3
    3160:	4618      	mov	r0, r3
    3162:	f7fe fb27 	bl	17b4 <__assert_func>
        rc = boot_read_swap_size(image_index, &bs->swap_size);
    3166:	f104 0108 	add.w	r1, r4, #8
    316a:	2000      	movs	r0, #0
    316c:	f7ff fcee 	bl	2b4c <boot_read_swap_size>
        assert(rc == 0);
    3170:	b910      	cbnz	r0, 3178 <boot_swap_image+0x9c>
        copy_size = bs->swap_size;
    3172:	68a3      	ldr	r3, [r4, #8]
    3174:	9300      	str	r3, [sp, #0]
    3176:	e7cc      	b.n	3112 <boot_swap_image+0x36>
        assert(rc == 0);
    3178:	f7fc fff4 	bl	164 <hal_debugger_connected>
    317c:	b100      	cbz	r0, 3180 <boot_swap_image+0xa4>
    317e:	be01      	bkpt	0x0001
    3180:	2300      	movs	r3, #0
    3182:	461a      	mov	r2, r3
    3184:	4619      	mov	r1, r3
    3186:	4618      	mov	r0, r3
    3188:	f7fe fb14 	bl	17b4 <__assert_func>
    318c:	96f3b83d 	.word	0x96f3b83d

00003190 <boot_complete_partial_swap>:
 */
#if !defined(MCUBOOT_OVERWRITE_ONLY)
static int
boot_complete_partial_swap(struct boot_loader_state *state,
        struct boot_status *bs)
{
    3190:	b538      	push	{r3, r4, r5, lr}
    3192:	4605      	mov	r5, r0
    3194:	460c      	mov	r4, r1
    int rc;

    /* Determine the type of swap operation being resumed from the
     * `swap-type` trailer field.
     */
    rc = boot_swap_image(state, bs);
    3196:	f7ff ffa1 	bl	30dc <boot_swap_image>
    assert(rc == 0);
    319a:	b9a8      	cbnz	r0, 31c8 <boot_complete_partial_swap+0x38>
    319c:	4602      	mov	r2, r0

    BOOT_SWAP_TYPE(state) = bs->swap_type;
    319e:	79e3      	ldrb	r3, [r4, #7]
    31a0:	f885 3064 	strb.w	r3, [r5, #100]	; 0x64

    /* The following states need image_ok be explicitly set after the
     * swap was finished to avoid a new revert.
     */
    if (bs->swap_type == BOOT_SWAP_TYPE_REVERT ||
    31a4:	79e3      	ldrb	r3, [r4, #7]
    31a6:	3b03      	subs	r3, #3
    31a8:	b2db      	uxtb	r3, r3
    31aa:	2b01      	cmp	r3, #1
    31ac:	d916      	bls.n	31dc <boot_complete_partial_swap+0x4c>
        if (rc != 0) {
            BOOT_SWAP_TYPE(state) = BOOT_SWAP_TYPE_PANIC;
        }
    }

    if (BOOT_IS_UPGRADE(bs->swap_type)) {
    31ae:	79e3      	ldrb	r3, [r4, #7]
    31b0:	2b02      	cmp	r3, #2
    31b2:	d01d      	beq.n	31f0 <boot_complete_partial_swap+0x60>
    31b4:	2b04      	cmp	r3, #4
    31b6:	d01b      	beq.n	31f0 <boot_complete_partial_swap+0x60>
    31b8:	2b03      	cmp	r3, #3
    31ba:	d019      	beq.n	31f0 <boot_complete_partial_swap+0x60>
        if (rc != 0) {
            BOOT_SWAP_TYPE(state) = BOOT_SWAP_TYPE_PANIC;
        }
    }

    if (BOOT_SWAP_TYPE(state) == BOOT_SWAP_TYPE_PANIC) {
    31bc:	f895 3064 	ldrb.w	r3, [r5, #100]	; 0x64
    31c0:	2bff      	cmp	r3, #255	; 0xff
    31c2:	d01f      	beq.n	3204 <boot_complete_partial_swap+0x74>
        /* Loop forever... */
        while (1) {}
    }

    return rc;
}
    31c4:	4610      	mov	r0, r2
    31c6:	bd38      	pop	{r3, r4, r5, pc}
    assert(rc == 0);
    31c8:	f7fc ffcc 	bl	164 <hal_debugger_connected>
    31cc:	b100      	cbz	r0, 31d0 <boot_complete_partial_swap+0x40>
    31ce:	be01      	bkpt	0x0001
    31d0:	2300      	movs	r3, #0
    31d2:	461a      	mov	r2, r3
    31d4:	4619      	mov	r1, r3
    31d6:	4618      	mov	r0, r3
    31d8:	f7fe faec 	bl	17b4 <__assert_func>
        rc = swap_set_image_ok(BOOT_CURR_IMG(state));
    31dc:	2000      	movs	r0, #0
    31de:	f000 fad7 	bl	3790 <swap_set_image_ok>
        if (rc != 0) {
    31e2:	4602      	mov	r2, r0
    31e4:	2800      	cmp	r0, #0
    31e6:	d0e2      	beq.n	31ae <boot_complete_partial_swap+0x1e>
            BOOT_SWAP_TYPE(state) = BOOT_SWAP_TYPE_PANIC;
    31e8:	23ff      	movs	r3, #255	; 0xff
    31ea:	f885 3064 	strb.w	r3, [r5, #100]	; 0x64
    31ee:	e7de      	b.n	31ae <boot_complete_partial_swap+0x1e>
        rc = swap_set_copy_done(BOOT_CURR_IMG(state));
    31f0:	2000      	movs	r0, #0
    31f2:	f000 fabe 	bl	3772 <swap_set_copy_done>
        if (rc != 0) {
    31f6:	4602      	mov	r2, r0
    31f8:	2800      	cmp	r0, #0
    31fa:	d0df      	beq.n	31bc <boot_complete_partial_swap+0x2c>
            BOOT_SWAP_TYPE(state) = BOOT_SWAP_TYPE_PANIC;
    31fc:	23ff      	movs	r3, #255	; 0xff
    31fe:	f885 3064 	strb.w	r3, [r5, #100]	; 0x64
    3202:	e7db      	b.n	31bc <boot_complete_partial_swap+0x2c>
        BOOT_LOG_ERR("panic!");
    3204:	4806      	ldr	r0, [pc, #24]	; (3220 <boot_complete_partial_swap+0x90>)
    3206:	f001 fb77 	bl	48f8 <puts>
        assert(0);
    320a:	f7fc ffab 	bl	164 <hal_debugger_connected>
    320e:	b100      	cbz	r0, 3212 <boot_complete_partial_swap+0x82>
    3210:	be01      	bkpt	0x0001
    3212:	2300      	movs	r3, #0
    3214:	461a      	mov	r2, r3
    3216:	4619      	mov	r1, r3
    3218:	4618      	mov	r0, r3
    321a:	f7fe facb 	bl	17b4 <__assert_func>
    321e:	bf00      	nop
    3220:	00005bfc 	.word	0x00005bfc

00003224 <boot_perform_update>:
{
    3224:	b538      	push	{r3, r4, r5, lr}
    3226:	4605      	mov	r5, r0
        rc = boot_swap_image(state, bs);
    3228:	f7ff ff58 	bl	30dc <boot_swap_image>
    assert(rc == 0);
    322c:	b9b0      	cbnz	r0, 325c <boot_perform_update+0x38>
    322e:	4602      	mov	r2, r0
    swap_type = BOOT_SWAP_TYPE(state);
    3230:	f895 4064 	ldrb.w	r4, [r5, #100]	; 0x64
    if (swap_type == BOOT_SWAP_TYPE_REVERT ||
    3234:	1ee3      	subs	r3, r4, #3
    3236:	b2db      	uxtb	r3, r3
    3238:	2b01      	cmp	r3, #1
    323a:	d919      	bls.n	3270 <boot_perform_update+0x4c>
    if (BOOT_IS_UPGRADE(swap_type)) {
    323c:	2c02      	cmp	r4, #2
    323e:	d003      	beq.n	3248 <boot_perform_update+0x24>
    3240:	2c04      	cmp	r4, #4
    3242:	d001      	beq.n	3248 <boot_perform_update+0x24>
    3244:	2c03      	cmp	r4, #3
    3246:	d107      	bne.n	3258 <boot_perform_update+0x34>
        rc = swap_set_copy_done(BOOT_CURR_IMG(state));
    3248:	2000      	movs	r0, #0
    324a:	f000 fa92 	bl	3772 <swap_set_copy_done>
        if (rc != 0) {
    324e:	4602      	mov	r2, r0
    3250:	b110      	cbz	r0, 3258 <boot_perform_update+0x34>
            BOOT_SWAP_TYPE(state) = BOOT_SWAP_TYPE_PANIC;
    3252:	23ff      	movs	r3, #255	; 0xff
    3254:	f885 3064 	strb.w	r3, [r5, #100]	; 0x64
}
    3258:	4610      	mov	r0, r2
    325a:	bd38      	pop	{r3, r4, r5, pc}
    assert(rc == 0);
    325c:	f7fc ff82 	bl	164 <hal_debugger_connected>
    3260:	b100      	cbz	r0, 3264 <boot_perform_update+0x40>
    3262:	be01      	bkpt	0x0001
    3264:	2300      	movs	r3, #0
    3266:	461a      	mov	r2, r3
    3268:	4619      	mov	r1, r3
    326a:	4618      	mov	r0, r3
    326c:	f7fe faa2 	bl	17b4 <__assert_func>
        rc = swap_set_image_ok(BOOT_CURR_IMG(state));
    3270:	2000      	movs	r0, #0
    3272:	f000 fa8d 	bl	3790 <swap_set_image_ok>
        if (rc != 0) {
    3276:	4602      	mov	r2, r0
    3278:	2800      	cmp	r0, #0
    327a:	d0df      	beq.n	323c <boot_perform_update+0x18>
            BOOT_SWAP_TYPE(state) = swap_type = BOOT_SWAP_TYPE_PANIC;
    327c:	24ff      	movs	r4, #255	; 0xff
    327e:	f885 4064 	strb.w	r4, [r5, #100]	; 0x64
    3282:	e7dd      	b.n	3240 <boot_perform_update+0x1c>

00003284 <boot_prepare_image_for_update>:
 *                              boot status can be written to.
 */
static void
boot_prepare_image_for_update(struct boot_loader_state *state,
                              struct boot_status *bs)
{
    3284:	b538      	push	{r3, r4, r5, lr}
    3286:	4604      	mov	r4, r0
    3288:	460d      	mov	r5, r1
    int rc;

    /* Determine the sector layout of the image slots and scratch area. */
    rc = boot_read_sectors(state);
    328a:	f7ff fe51 	bl	2f30 <boot_read_sectors>
    if (rc != 0) {
    328e:	b968      	cbnz	r0, 32ac <boot_prepare_image_for_update+0x28>
        BOOT_SWAP_TYPE(state) = BOOT_SWAP_TYPE_NONE;
        return;
    }

    /* Attempt to read an image header from each slot. */
    rc = boot_read_image_headers(state, false, NULL);
    3290:	2200      	movs	r2, #0
    3292:	4611      	mov	r1, r2
    3294:	4620      	mov	r0, r4
    3296:	f7ff feeb 	bl	3070 <boot_read_image_headers>
    if (rc != 0) {
    329a:	b978      	cbnz	r0, 32bc <boot_prepare_image_for_update+0x38>
    }

    /* If the current image's slots aren't compatible, no swap is possible.
     * Just boot into primary slot.
     */
    if (boot_slots_compatible(state)) {
    329c:	4620      	mov	r0, r4
    329e:	f000 fd2f 	bl	3d00 <boot_slots_compatible>
    32a2:	b998      	cbnz	r0, 32cc <boot_prepare_image_for_update+0x48>
            }
#endif
        }
    } else {
        /* In that case if slots are not compatible. */
        BOOT_SWAP_TYPE(state) = BOOT_SWAP_TYPE_NONE;
    32a4:	2301      	movs	r3, #1
    32a6:	f884 3064 	strb.w	r3, [r4, #100]	; 0x64
    32aa:	e006      	b.n	32ba <boot_prepare_image_for_update+0x36>
        BOOT_LOG_WRN("Failed reading sectors; BOOT_MAX_IMG_SECTORS=%d"
    32ac:	2180      	movs	r1, #128	; 0x80
    32ae:	482f      	ldr	r0, [pc, #188]	; (336c <boot_prepare_image_for_update+0xe8>)
    32b0:	f001 fe24 	bl	4efc <printf>
        BOOT_SWAP_TYPE(state) = BOOT_SWAP_TYPE_NONE;
    32b4:	2301      	movs	r3, #1
    32b6:	f884 3064 	strb.w	r3, [r4, #100]	; 0x64
    }
}
    32ba:	bd38      	pop	{r3, r4, r5, pc}
        BOOT_LOG_WRN("Failed reading image headers; Image=%u",
    32bc:	2100      	movs	r1, #0
    32be:	482c      	ldr	r0, [pc, #176]	; (3370 <boot_prepare_image_for_update+0xec>)
    32c0:	f001 fe1c 	bl	4efc <printf>
        BOOT_SWAP_TYPE(state) = BOOT_SWAP_TYPE_NONE;
    32c4:	2301      	movs	r3, #1
    32c6:	f884 3064 	strb.w	r3, [r4, #100]	; 0x64
        return;
    32ca:	e7f6      	b.n	32ba <boot_prepare_image_for_update+0x36>
        boot_status_reset(bs);
    32cc:	4628      	mov	r0, r5
    32ce:	f7ff feea 	bl	30a6 <boot_status_reset>
        rc = swap_read_status(state, bs);
    32d2:	4629      	mov	r1, r5
    32d4:	4620      	mov	r0, r4
    32d6:	f000 fa0a 	bl	36ee <swap_read_status>
        if (rc != 0) {
    32da:	b980      	cbnz	r0, 32fe <boot_prepare_image_for_update+0x7a>
        if (!boot_status_is_reset(bs)) {
    32dc:	4628      	mov	r0, r5
    32de:	f7ff feec 	bl	30ba <boot_status_is_reset>
    32e2:	b1a0      	cbz	r0, 330e <boot_prepare_image_for_update+0x8a>
            if (bs->swap_type == BOOT_SWAP_TYPE_NONE) {
    32e4:	79eb      	ldrb	r3, [r5, #7]
    32e6:	2b01      	cmp	r3, #1
    32e8:	d034      	beq.n	3354 <boot_prepare_image_for_update+0xd0>
            } else if (boot_validate_slot(state, BOOT_SECONDARY_SLOT, bs) != 0) {
    32ea:	462a      	mov	r2, r5
    32ec:	2101      	movs	r1, #1
    32ee:	4620      	mov	r0, r4
    32f0:	f7ff fe56 	bl	2fa0 <boot_validate_slot>
    32f4:	b3a8      	cbz	r0, 3362 <boot_prepare_image_for_update+0xde>
                BOOT_SWAP_TYPE(state) = BOOT_SWAP_TYPE_FAIL;
    32f6:	2305      	movs	r3, #5
    32f8:	f884 3064 	strb.w	r3, [r4, #100]	; 0x64
    32fc:	e7dd      	b.n	32ba <boot_prepare_image_for_update+0x36>
            BOOT_LOG_WRN("Failed reading boot status; Image=%u",
    32fe:	2100      	movs	r1, #0
    3300:	481c      	ldr	r0, [pc, #112]	; (3374 <boot_prepare_image_for_update+0xf0>)
    3302:	f001 fdfb 	bl	4efc <printf>
            BOOT_SWAP_TYPE(state) = BOOT_SWAP_TYPE_NONE;
    3306:	2301      	movs	r3, #1
    3308:	f884 3064 	strb.w	r3, [r4, #100]	; 0x64
            return;
    330c:	e7d5      	b.n	32ba <boot_prepare_image_for_update+0x36>
            rc = boot_complete_partial_swap(state, bs);
    330e:	4629      	mov	r1, r5
    3310:	4620      	mov	r0, r4
    3312:	f7ff ff3d 	bl	3190 <boot_complete_partial_swap>
            assert(rc == 0);
    3316:	b948      	cbnz	r0, 332c <boot_prepare_image_for_update+0xa8>
            rc = boot_read_image_headers(state, false, bs);
    3318:	462a      	mov	r2, r5
    331a:	2100      	movs	r1, #0
    331c:	4620      	mov	r0, r4
    331e:	f7ff fea7 	bl	3070 <boot_read_image_headers>
            assert(rc == 0);
    3322:	b968      	cbnz	r0, 3340 <boot_prepare_image_for_update+0xbc>
            BOOT_SWAP_TYPE(state) = BOOT_SWAP_TYPE_NONE;
    3324:	2301      	movs	r3, #1
    3326:	f884 3064 	strb.w	r3, [r4, #100]	; 0x64
    332a:	e7c6      	b.n	32ba <boot_prepare_image_for_update+0x36>
            assert(rc == 0);
    332c:	f7fc ff1a 	bl	164 <hal_debugger_connected>
    3330:	b100      	cbz	r0, 3334 <boot_prepare_image_for_update+0xb0>
    3332:	be01      	bkpt	0x0001
    3334:	2300      	movs	r3, #0
    3336:	461a      	mov	r2, r3
    3338:	4619      	mov	r1, r3
    333a:	4618      	mov	r0, r3
    333c:	f7fe fa3a 	bl	17b4 <__assert_func>
            assert(rc == 0);
    3340:	f7fc ff10 	bl	164 <hal_debugger_connected>
    3344:	b100      	cbz	r0, 3348 <boot_prepare_image_for_update+0xc4>
    3346:	be01      	bkpt	0x0001
    3348:	2300      	movs	r3, #0
    334a:	461a      	mov	r2, r3
    334c:	4619      	mov	r1, r3
    334e:	4618      	mov	r0, r3
    3350:	f7fe fa30 	bl	17b4 <__assert_func>
                BOOT_SWAP_TYPE(state) = boot_validated_swap_type(state, bs);
    3354:	4629      	mov	r1, r5
    3356:	4620      	mov	r0, r4
    3358:	f7ff fe6e 	bl	3038 <boot_validated_swap_type>
    335c:	f884 0064 	strb.w	r0, [r4, #100]	; 0x64
    3360:	e7ab      	b.n	32ba <boot_prepare_image_for_update+0x36>
                BOOT_SWAP_TYPE(state) = bs->swap_type;
    3362:	79eb      	ldrb	r3, [r5, #7]
    3364:	f884 3064 	strb.w	r3, [r4, #100]	; 0x64
    3368:	e7a7      	b.n	32ba <boot_prepare_image_for_update+0x36>
    336a:	bf00      	nop
    336c:	00005c0c 	.word	0x00005c0c
    3370:	00005c50 	.word	0x00005c50
    3374:	00005c80 	.word	0x00005c80

00003378 <boot_write_status>:
{
    3378:	b570      	push	{r4, r5, r6, lr}
    337a:	b084      	sub	sp, #16
    337c:	4606      	mov	r6, r0
    337e:	460c      	mov	r4, r1
    if (bs->use_scratch) {
    3380:	798b      	ldrb	r3, [r1, #6]
    3382:	b143      	cbz	r3, 3396 <boot_write_status+0x1e>
        area_id = FLASH_AREA_IMAGE_SCRATCH;
    3384:	2003      	movs	r0, #3
    rc = flash_area_open(area_id, &fap);
    3386:	a903      	add	r1, sp, #12
    3388:	f001 fe98 	bl	50bc <flash_area_open>
    if (rc != 0) {
    338c:	b128      	cbz	r0, 339a <boot_write_status+0x22>
        rc = BOOT_EFLASH;
    338e:	2301      	movs	r3, #1
}
    3390:	4618      	mov	r0, r3
    3392:	b004      	add	sp, #16
    3394:	bd70      	pop	{r4, r5, r6, pc}
        area_id = FLASH_AREA_IMAGE_PRIMARY(BOOT_CURR_IMG(state));
    3396:	2001      	movs	r0, #1
    3398:	e7f5      	b.n	3386 <boot_write_status+0xe>
    off = boot_status_off(fap) +
    339a:	9803      	ldr	r0, [sp, #12]
    339c:	f7ff fb4e 	bl	2a3c <boot_status_off>
    33a0:	4605      	mov	r5, r0
          boot_status_internal_off(bs, BOOT_WRITE_SZ(state));
    33a2:	6eb1      	ldr	r1, [r6, #104]	; 0x68
    33a4:	4620      	mov	r0, r4
    33a6:	f000 fc9d 	bl	3ce4 <boot_status_internal_off>
    off = boot_status_off(fap) +
    33aa:	4405      	add	r5, r0
    align = flash_area_align(fap);
    33ac:	9803      	ldr	r0, [sp, #12]
    33ae:	f001 ff16 	bl	51de <flash_area_align>
    33b2:	4606      	mov	r6, r0
    erased_val = flash_area_erased_val(fap);
    33b4:	9803      	ldr	r0, [sp, #12]
    33b6:	f001 ff17 	bl	51e8 <flash_area_erased_val>
    memset(buf, erased_val, BOOT_MAX_ALIGN);
    33ba:	2208      	movs	r2, #8
    33bc:	b2c1      	uxtb	r1, r0
    33be:	a801      	add	r0, sp, #4
    33c0:	f7fe fd66 	bl	1e90 <memset>
    buf[0] = bs->state;
    33c4:	7923      	ldrb	r3, [r4, #4]
    33c6:	f88d 3004 	strb.w	r3, [sp, #4]
    rc = flash_area_write(fap, off, buf, align);
    33ca:	4633      	mov	r3, r6
    33cc:	aa01      	add	r2, sp, #4
    33ce:	4629      	mov	r1, r5
    33d0:	9803      	ldr	r0, [sp, #12]
    33d2:	f001 fede 	bl	5192 <flash_area_write>
    if (rc != 0) {
    33d6:	4603      	mov	r3, r0
    33d8:	2800      	cmp	r0, #0
    33da:	d0d9      	beq.n	3390 <boot_write_status+0x18>
        rc = BOOT_EFLASH;
    33dc:	2301      	movs	r3, #1
    33de:	e7d7      	b.n	3390 <boot_write_status+0x18>

000033e0 <boot_erase_region>:
{
    33e0:	b508      	push	{r3, lr}
    return flash_area_erase(fap, off, sz);
    33e2:	f001 fee9 	bl	51b8 <flash_area_erase>
}
    33e6:	bd08      	pop	{r3, pc}

000033e8 <boot_copy_region>:
{
    33e8:	e92d 4ff8 	stmdb	sp!, {r3, r4, r5, r6, r7, r8, r9, sl, fp, lr}
    33ec:	4688      	mov	r8, r1
    33ee:	4692      	mov	sl, r2
    33f0:	461f      	mov	r7, r3
    33f2:	f8dd 9028 	ldr.w	r9, [sp, #40]	; 0x28
    33f6:	9e0b      	ldr	r6, [sp, #44]	; 0x2c
    bytes_copied = 0;
    33f8:	2500      	movs	r5, #0
    while (bytes_copied < sz) {
    33fa:	e00f      	b.n	341c <boot_copy_region+0x34>
        rc = flash_area_read(fap_src, off_src + bytes_copied, buf, chunk_sz);
    33fc:	4623      	mov	r3, r4
    33fe:	4a0f      	ldr	r2, [pc, #60]	; (343c <boot_copy_region+0x54>)
    3400:	19e9      	adds	r1, r5, r7
    3402:	4640      	mov	r0, r8
    3404:	f001 feb2 	bl	516c <flash_area_read>
        if (rc != 0) {
    3408:	b9a0      	cbnz	r0, 3434 <boot_copy_region+0x4c>
        rc = flash_area_write(fap_dst, off_dst + bytes_copied, buf, chunk_sz);
    340a:	4623      	mov	r3, r4
    340c:	4a0b      	ldr	r2, [pc, #44]	; (343c <boot_copy_region+0x54>)
    340e:	eb05 0109 	add.w	r1, r5, r9
    3412:	4650      	mov	r0, sl
    3414:	f001 febd 	bl	5192 <flash_area_write>
        if (rc != 0) {
    3418:	b970      	cbnz	r0, 3438 <boot_copy_region+0x50>
        bytes_copied += chunk_sz;
    341a:	4425      	add	r5, r4
    while (bytes_copied < sz) {
    341c:	42b5      	cmp	r5, r6
    341e:	d206      	bcs.n	342e <boot_copy_region+0x46>
        if (sz - bytes_copied > sizeof buf) {
    3420:	1b74      	subs	r4, r6, r5
    3422:	f5b4 6f80 	cmp.w	r4, #1024	; 0x400
    3426:	d9e9      	bls.n	33fc <boot_copy_region+0x14>
            chunk_sz = sizeof buf;
    3428:	f44f 6480 	mov.w	r4, #1024	; 0x400
    342c:	e7e6      	b.n	33fc <boot_copy_region+0x14>
    return 0;
    342e:	2000      	movs	r0, #0
}
    3430:	e8bd 8ff8 	ldmia.w	sp!, {r3, r4, r5, r6, r7, r8, r9, sl, fp, pc}
            return BOOT_EFLASH;
    3434:	2001      	movs	r0, #1
    3436:	e7fb      	b.n	3430 <boot_copy_region+0x48>
            return BOOT_EFLASH;
    3438:	2001      	movs	r0, #1
    343a:	e7f9      	b.n	3430 <boot_copy_region+0x48>
    343c:	20004c80 	.word	0x20004c80

00003440 <context_boot_go>:

int
context_boot_go(struct boot_loader_state *state, struct boot_rsp *rsp)
{
    3440:	b570      	push	{r4, r5, r6, lr}
    3442:	b084      	sub	sp, #16
    3444:	4604      	mov	r4, r0
    3446:	460e      	mov	r6, r1
    TARGET_STATIC boot_sector_t secondary_slot_sectors[BOOT_IMAGE_NUMBER][BOOT_MAX_IMG_SECTORS];
#if MCUBOOT_SWAP_USING_SCRATCH
    TARGET_STATIC boot_sector_t scratch_sectors[BOOT_MAX_IMG_SECTORS];
#endif

    memset(state, 0, sizeof(struct boot_loader_state));
    3448:	226c      	movs	r2, #108	; 0x6c
    344a:	2100      	movs	r1, #0
    344c:	f7fe fd20 	bl	1e90 <memset>
        boot_enc_zeroize(BOOT_CURR_ENC(state));
#endif

        image_index = BOOT_CURR_IMG(state);

        BOOT_IMG(state, BOOT_PRIMARY_SLOT).sectors =
    3450:	4b4d      	ldr	r3, [pc, #308]	; (3588 <context_boot_go+0x148>)
    3452:	6263      	str	r3, [r4, #36]	; 0x24
            primary_slot_sectors[image_index];
        BOOT_IMG(state, BOOT_SECONDARY_SLOT).sectors =
    3454:	4b4d      	ldr	r3, [pc, #308]	; (358c <context_boot_go+0x14c>)
    3456:	6523      	str	r3, [r4, #80]	; 0x50
            secondary_slot_sectors[image_index];
#if MCUBOOT_SWAP_USING_SCRATCH
        state->scratch.sectors = scratch_sectors;
    3458:	4b4d      	ldr	r3, [pc, #308]	; (3590 <context_boot_go+0x150>)
    345a:	65e3      	str	r3, [r4, #92]	; 0x5c
#endif

        /* Open primary and secondary image areas for the duration
         * of this call.
         */
        for (slot = 0; slot < BOOT_NUM_SLOTS; slot++) {
    345c:	2500      	movs	r5, #0
    345e:	2d01      	cmp	r5, #1
    3460:	d818      	bhi.n	3494 <context_boot_go+0x54>
            fa_id = flash_area_id_from_multi_image_slot(image_index, slot);
    3462:	4629      	mov	r1, r5
    3464:	2000      	movs	r0, #0
    3466:	f000 ff0d 	bl	4284 <flash_area_id_from_multi_image_slot>
            rc = flash_area_open(fa_id, &BOOT_IMG_AREA(state, slot));
    346a:	212c      	movs	r1, #44	; 0x2c
    346c:	fb01 f105 	mul.w	r1, r1, r5
    3470:	3120      	adds	r1, #32
    3472:	4421      	add	r1, r4
    3474:	b2c0      	uxtb	r0, r0
    3476:	f001 fe21 	bl	50bc <flash_area_open>
            assert(rc == 0);
    347a:	b908      	cbnz	r0, 3480 <context_boot_go+0x40>
        for (slot = 0; slot < BOOT_NUM_SLOTS; slot++) {
    347c:	3501      	adds	r5, #1
    347e:	e7ee      	b.n	345e <context_boot_go+0x1e>
            assert(rc == 0);
    3480:	f7fc fe70 	bl	164 <hal_debugger_connected>
    3484:	b100      	cbz	r0, 3488 <context_boot_go+0x48>
    3486:	be01      	bkpt	0x0001
    3488:	2300      	movs	r3, #0
    348a:	461a      	mov	r2, r3
    348c:	4619      	mov	r1, r3
    348e:	4618      	mov	r0, r3
    3490:	f7fe f990 	bl	17b4 <__assert_func>
        }
#if MCUBOOT_SWAP_USING_SCRATCH
        rc = flash_area_open(FLASH_AREA_IMAGE_SCRATCH,
    3494:	f104 0158 	add.w	r1, r4, #88	; 0x58
    3498:	2003      	movs	r0, #3
    349a:	f001 fe0f 	bl	50bc <flash_area_open>
                             &BOOT_SCRATCH_AREA(state));
        assert(rc == 0);
    349e:	4605      	mov	r5, r0
    34a0:	b978      	cbnz	r0, 34c2 <context_boot_go+0x82>
#endif

        /* Determine swap type and complete swap if it has been aborted. */
        boot_prepare_image_for_update(state, &bs);
    34a2:	4669      	mov	r1, sp
    34a4:	4620      	mov	r0, r4
    34a6:	f7ff feed 	bl	3284 <boot_prepare_image_for_update>

        if (BOOT_IS_UPGRADE(BOOT_SWAP_TYPE(state))) {
    34aa:	f894 3064 	ldrb.w	r3, [r4, #100]	; 0x64
        /* Indicate that swap is not aborted */
        boot_status_reset(&bs);
#endif /* (BOOT_IMAGE_NUMBER > 1) */

        /* Set the previously determined swap type */
        bs.swap_type = BOOT_SWAP_TYPE(state);
    34ae:	f88d 3007 	strb.w	r3, [sp, #7]

        switch (BOOT_SWAP_TYPE(state)) {
    34b2:	3b01      	subs	r3, #1
    34b4:	2b04      	cmp	r3, #4
    34b6:	d840      	bhi.n	353a <context_boot_go+0xfa>
    34b8:	e8df f003 	tbb	[pc, r3]
    34bc:	0d0d0d13 	.word	0x0d0d0d13
    34c0:	35          	.byte	0x35
    34c1:	00          	.byte	0x00
        assert(rc == 0);
    34c2:	f7fc fe4f 	bl	164 <hal_debugger_connected>
    34c6:	b100      	cbz	r0, 34ca <context_boot_go+0x8a>
    34c8:	be01      	bkpt	0x0001
    34ca:	2300      	movs	r3, #0
    34cc:	461a      	mov	r2, r3
    34ce:	4619      	mov	r1, r3
    34d0:	4618      	mov	r0, r3
    34d2:	f7fe f96f 	bl	17b4 <__assert_func>
            break;

        case BOOT_SWAP_TYPE_TEST:          /* fallthrough */
        case BOOT_SWAP_TYPE_PERM:          /* fallthrough */
        case BOOT_SWAP_TYPE_REVERT:
            rc = boot_perform_update(state, &bs);
    34d6:	4669      	mov	r1, sp
    34d8:	4620      	mov	r0, r4
    34da:	f7ff fea3 	bl	3224 <boot_perform_update>
            assert(rc == 0);
    34de:	4605      	mov	r5, r0
    34e0:	b9b8      	cbnz	r0, 3512 <context_boot_go+0xd2>

        default:
            BOOT_SWAP_TYPE(state) = BOOT_SWAP_TYPE_PANIC;
        }

        if (BOOT_SWAP_TYPE(state) == BOOT_SWAP_TYPE_PANIC) {
    34e2:	f894 3064 	ldrb.w	r3, [r4, #100]	; 0x64
    34e6:	2bff      	cmp	r3, #255	; 0xff
    34e8:	d02b      	beq.n	3542 <context_boot_go+0x102>
    /* Iterate over all the images. At this point all required update operations
     * have finished. By the end of the loop each image in the primary slot will
     * have been re-validated.
     */
    IMAGES_ITER(BOOT_CURR_IMG(state)) {
        if (BOOT_SWAP_TYPE(state) != BOOT_SWAP_TYPE_NONE) {
    34ea:	2b01      	cmp	r3, #1
    34ec:	d136      	bne.n	355c <context_boot_go+0x11c>
#else
        /* Even if we're not re-validating the primary slot, we could be booting
         * onto an empty flash chip. At least do a basic sanity check that
         * the magic number on the image is OK.
         */
        if (BOOT_IMG(state, BOOT_PRIMARY_SLOT).hdr.ih_magic != IMAGE_MAGIC) {
    34ee:	6822      	ldr	r2, [r4, #0]
    34f0:	4b28      	ldr	r3, [pc, #160]	; (3594 <context_boot_go+0x154>)
    34f2:	429a      	cmp	r2, r3
    34f4:	d13b      	bne.n	356e <context_boot_go+0x12e>
    /*
     * Since the boot_status struct stores plaintext encryption keys, reset
     * them here to avoid the possibility of jumping into an image that could
     * easily recover them.
     */
    memset(&bs, 0, sizeof(struct boot_status));
    34f6:	2300      	movs	r3, #0
    34f8:	9300      	str	r3, [sp, #0]
    34fa:	9301      	str	r3, [sp, #4]
    34fc:	9302      	str	r3, [sp, #8]
    34fe:	9303      	str	r3, [sp, #12]

    rsp->br_flash_dev_id = BOOT_IMG_AREA(state, BOOT_PRIMARY_SLOT)->fa_device_id;
    3500:	6a23      	ldr	r3, [r4, #32]
    3502:	785b      	ldrb	r3, [r3, #1]
    3504:	7133      	strb	r3, [r6, #4]
 * Offset of the slot from the beginning of the flash device.
 */
static inline uint32_t
boot_img_slot_off(struct boot_loader_state *state, size_t slot)
{
    return BOOT_IMG(state, slot).area->fa_off;
    3506:	6a23      	ldr	r3, [r4, #32]
    3508:	685b      	ldr	r3, [r3, #4]
    rsp->br_image_off = boot_img_slot_off(state, BOOT_PRIMARY_SLOT);
    350a:	60b3      	str	r3, [r6, #8]
    rsp->br_hdr = boot_img_hdr(state, BOOT_PRIMARY_SLOT);
    350c:	6034      	str	r4, [r6, #0]
out:
    IMAGES_ITER(BOOT_CURR_IMG(state)) {
#if MCUBOOT_SWAP_USING_SCRATCH
        flash_area_close(BOOT_SCRATCH_AREA(state));
#endif
        for (slot = 0; slot < BOOT_NUM_SLOTS; slot++) {
    350e:	2300      	movs	r3, #0
    3510:	e035      	b.n	357e <context_boot_go+0x13e>
            assert(rc == 0);
    3512:	f7fc fe27 	bl	164 <hal_debugger_connected>
    3516:	b100      	cbz	r0, 351a <context_boot_go+0xda>
    3518:	be01      	bkpt	0x0001
    351a:	2300      	movs	r3, #0
    351c:	461a      	mov	r2, r3
    351e:	4619      	mov	r1, r3
    3520:	4618      	mov	r0, r3
    3522:	f7fe f947 	bl	17b4 <__assert_func>
            rc = swap_set_image_ok(BOOT_CURR_IMG(state));
    3526:	2000      	movs	r0, #0
    3528:	f000 f932 	bl	3790 <swap_set_image_ok>
            if (rc != 0) {
    352c:	4605      	mov	r5, r0
    352e:	2800      	cmp	r0, #0
    3530:	d0d7      	beq.n	34e2 <context_boot_go+0xa2>
                BOOT_SWAP_TYPE(state) = BOOT_SWAP_TYPE_PANIC;
    3532:	23ff      	movs	r3, #255	; 0xff
    3534:	f884 3064 	strb.w	r3, [r4, #100]	; 0x64
    3538:	e7d3      	b.n	34e2 <context_boot_go+0xa2>
            BOOT_SWAP_TYPE(state) = BOOT_SWAP_TYPE_PANIC;
    353a:	23ff      	movs	r3, #255	; 0xff
    353c:	f884 3064 	strb.w	r3, [r4, #100]	; 0x64
    3540:	e7cf      	b.n	34e2 <context_boot_go+0xa2>
            BOOT_LOG_ERR("panic!");
    3542:	4815      	ldr	r0, [pc, #84]	; (3598 <context_boot_go+0x158>)
    3544:	f001 f9d8 	bl	48f8 <puts>
            assert(0);
    3548:	f7fc fe0c 	bl	164 <hal_debugger_connected>
    354c:	b100      	cbz	r0, 3550 <context_boot_go+0x110>
    354e:	be01      	bkpt	0x0001
    3550:	2300      	movs	r3, #0
    3552:	461a      	mov	r2, r3
    3554:	4619      	mov	r1, r3
    3556:	4618      	mov	r0, r3
    3558:	f7fe f92c 	bl	17b4 <__assert_func>
            rc = boot_read_image_headers(state, false, &bs);
    355c:	466a      	mov	r2, sp
    355e:	2100      	movs	r1, #0
    3560:	4620      	mov	r0, r4
    3562:	f7ff fd85 	bl	3070 <boot_read_image_headers>
            if (rc != 0) {
    3566:	4605      	mov	r5, r0
    3568:	2800      	cmp	r0, #0
    356a:	d1d0      	bne.n	350e <context_boot_go+0xce>
    356c:	e7bf      	b.n	34ee <context_boot_go+0xae>
            BOOT_LOG_ERR("bad image magic 0x%lx; Image=%u", (unsigned long)
    356e:	2200      	movs	r2, #0
    3570:	4621      	mov	r1, r4
    3572:	480a      	ldr	r0, [pc, #40]	; (359c <context_boot_go+0x15c>)
    3574:	f001 fcc2 	bl	4efc <printf>
            rc = BOOT_EBADIMAGE;
    3578:	2503      	movs	r5, #3
            goto out;
    357a:	e7c8      	b.n	350e <context_boot_go+0xce>
        for (slot = 0; slot < BOOT_NUM_SLOTS; slot++) {
    357c:	3301      	adds	r3, #1
    357e:	2b01      	cmp	r3, #1
    3580:	d9fc      	bls.n	357c <context_boot_go+0x13c>
            flash_area_close(BOOT_IMG_AREA(state, BOOT_NUM_SLOTS - 1 - slot));
        }
    }
    return rc;
}
    3582:	4628      	mov	r0, r5
    3584:	b004      	add	sp, #16
    3586:	bd70      	pop	{r4, r5, r6, pc}
    3588:	20005080 	.word	0x20005080
    358c:	20005c80 	.word	0x20005c80
    3590:	20005680 	.word	0x20005680
    3594:	96f3b83d 	.word	0x96f3b83d
    3598:	00005bfc 	.word	0x00005bfc
    359c:	00005cec 	.word	0x00005cec

000035a0 <boot_go>:
 *
 * @return                      0 on success; nonzero on failure.
 */
int
boot_go(struct boot_rsp *rsp)
{
    35a0:	b508      	push	{r3, lr}
    return context_boot_go(&boot_data, rsp);
    35a2:	4601      	mov	r1, r0
    35a4:	4801      	ldr	r0, [pc, #4]	; (35ac <boot_go+0xc>)
    35a6:	f7ff ff4b 	bl	3440 <context_boot_go>
}
    35aa:	bd08      	pop	{r3, pc}
    35ac:	20004c14 	.word	0x20004c14

000035b0 <swap_erase_trailer_sectors>:
#if defined(MCUBOOT_SWAP_USING_SCRATCH) || defined(MCUBOOT_SWAP_USING_MOVE)

int
swap_erase_trailer_sectors(const struct boot_loader_state *state,
                           const struct flash_area *fap)
{
    35b0:	e92d 47f0 	stmdb	sp!, {r4, r5, r6, r7, r8, r9, sl, lr}
    35b4:	4606      	mov	r6, r0
    35b6:	460f      	mov	r7, r1
    int rc;

    BOOT_LOG_DBG("erasing trailer; fa_id=%d", fap->fa_id);

    image_index = BOOT_CURR_IMG(state);
    fa_id_primary = flash_area_id_from_multi_image_slot(image_index,
    35b8:	2100      	movs	r1, #0
    35ba:	4608      	mov	r0, r1
    35bc:	f000 fe62 	bl	4284 <flash_area_id_from_multi_image_slot>
    35c0:	4604      	mov	r4, r0
            BOOT_PRIMARY_SLOT);
    fa_id_secondary = flash_area_id_from_multi_image_slot(image_index,
    35c2:	2101      	movs	r1, #1
    35c4:	2000      	movs	r0, #0
    35c6:	f000 fe5d 	bl	4284 <flash_area_id_from_multi_image_slot>
            BOOT_SECONDARY_SLOT);

    if (fap->fa_id == fa_id_primary) {
    35ca:	783b      	ldrb	r3, [r7, #0]
    35cc:	42a3      	cmp	r3, r4
    35ce:	d029      	beq.n	3624 <swap_erase_trailer_sectors+0x74>
        slot = BOOT_PRIMARY_SLOT;
    } else if (fap->fa_id == fa_id_secondary) {
    35d0:	4283      	cmp	r3, r0
    35d2:	d001      	beq.n	35d8 <swap_erase_trailer_sectors+0x28>
        slot = BOOT_SECONDARY_SLOT;
    } else {
        return BOOT_EFLASH;
    35d4:	2301      	movs	r3, #1
    35d6:	e022      	b.n	361e <swap_erase_trailer_sectors+0x6e>
        slot = BOOT_SECONDARY_SLOT;
    35d8:	2301      	movs	r3, #1
    }

    /* delete starting from last sector and moving to beginning */
    sector = boot_img_num_sectors(state, slot) - 1;
    35da:	4698      	mov	r8, r3
    return BOOT_IMG(state, slot).num_sectors;
    35dc:	222c      	movs	r2, #44	; 0x2c
    35de:	fb02 6303 	mla	r3, r2, r3, r6
    35e2:	6a9c      	ldr	r4, [r3, #40]	; 0x28
    35e4:	3c01      	subs	r4, #1
    trailer_sz = boot_trailer_sz(BOOT_WRITE_SZ(state));
    35e6:	6eb0      	ldr	r0, [r6, #104]	; 0x68
    35e8:	f7ff fa14 	bl	2a14 <boot_trailer_sz>
    35ec:	4681      	mov	r9, r0
    total_sz = 0;
    35ee:	2500      	movs	r5, #0

static inline size_t
boot_img_sector_size(const struct boot_loader_state *state,
                     size_t slot, size_t sector)
{
    return BOOT_IMG(state, slot).sectors[sector].fa_size;
    35f0:	232c      	movs	r3, #44	; 0x2c
    35f2:	fb03 6308 	mla	r3, r3, r8, r6
    35f6:	6a5a      	ldr	r2, [r3, #36]	; 0x24
    35f8:	eb04 0144 	add.w	r1, r4, r4, lsl #1
    35fc:	008b      	lsls	r3, r1, #2
    35fe:	4413      	add	r3, r2
    3600:	f8d3 a008 	ldr.w	sl, [r3, #8]
 */
static inline uint32_t
boot_img_sector_off(const struct boot_loader_state *state, size_t slot,
                    size_t sector)
{
    return BOOT_IMG(state, slot).sectors[sector].fa_off -
    3604:	6859      	ldr	r1, [r3, #4]
           BOOT_IMG(state, slot).sectors[0].fa_off;
    3606:	6853      	ldr	r3, [r2, #4]
    do {
        sz = boot_img_sector_size(state, slot, sector);
        off = boot_img_sector_off(state, slot, sector);
        rc = boot_erase_region(fap, off, sz);
    3608:	4652      	mov	r2, sl
    360a:	1ac9      	subs	r1, r1, r3
    360c:	4638      	mov	r0, r7
    360e:	f7ff fee7 	bl	33e0 <boot_erase_region>
        assert(rc == 0);
    3612:	4603      	mov	r3, r0
    3614:	b940      	cbnz	r0, 3628 <swap_erase_trailer_sectors+0x78>

        sector--;
    3616:	3c01      	subs	r4, #1
        total_sz += sz;
    3618:	4455      	add	r5, sl
    } while (total_sz < trailer_sz);
    361a:	45a9      	cmp	r9, r5
    361c:	d8e8      	bhi.n	35f0 <swap_erase_trailer_sectors+0x40>

    return rc;
}
    361e:	4618      	mov	r0, r3
    3620:	e8bd 87f0 	ldmia.w	sp!, {r4, r5, r6, r7, r8, r9, sl, pc}
        slot = BOOT_PRIMARY_SLOT;
    3624:	2300      	movs	r3, #0
    3626:	e7d8      	b.n	35da <swap_erase_trailer_sectors+0x2a>
        assert(rc == 0);
    3628:	f7fc fd9c 	bl	164 <hal_debugger_connected>
    362c:	b100      	cbz	r0, 3630 <swap_erase_trailer_sectors+0x80>
    362e:	be01      	bkpt	0x0001
    3630:	2300      	movs	r3, #0
    3632:	461a      	mov	r2, r3
    3634:	4619      	mov	r1, r3
    3636:	4618      	mov	r0, r3
    3638:	f7fe f8bc 	bl	17b4 <__assert_func>

0000363c <swap_status_init>:

int
swap_status_init(const struct boot_loader_state *state,
                 const struct flash_area *fap,
                 const struct boot_status *bs)
{
    363c:	b530      	push	{r4, r5, lr}
    363e:	b083      	sub	sp, #12
    3640:	460c      	mov	r4, r1
    3642:	4615      	mov	r5, r2

    image_index = BOOT_CURR_IMG(state);

    BOOT_LOG_DBG("initializing status; fa_id=%d", fap->fa_id);

    rc = boot_read_swap_state_by_id(FLASH_AREA_IMAGE_SECONDARY(image_index),
    3644:	4669      	mov	r1, sp
    3646:	2002      	movs	r0, #2
    3648:	f7ff fa70 	bl	2b2c <boot_read_swap_state_by_id>
            &swap_state);
    assert(rc == 0);
    364c:	b990      	cbnz	r0, 3674 <swap_status_init+0x38>

    if (bs->swap_type != BOOT_SWAP_TYPE_NONE) {
    364e:	79e9      	ldrb	r1, [r5, #7]
    3650:	2901      	cmp	r1, #1
    3652:	d119      	bne.n	3688 <swap_status_init+0x4c>
        rc = boot_write_swap_info(fap, bs->swap_type, image_index);
        assert(rc == 0);
    }

    if (swap_state.image_ok == BOOT_FLAG_SET) {
    3654:	f89d 3003 	ldrb.w	r3, [sp, #3]
    3658:	2b01      	cmp	r3, #1
    365a:	d025      	beq.n	36a8 <swap_status_init+0x6c>
        rc = boot_write_image_ok(fap);
        assert(rc == 0);
    }

    rc = boot_write_swap_size(fap, bs->swap_size);
    365c:	68a9      	ldr	r1, [r5, #8]
    365e:	4620      	mov	r0, r4
    3660:	f7ff fad4 	bl	2c0c <boot_write_swap_size>
    assert(rc == 0);
    3664:	bb78      	cbnz	r0, 36c6 <swap_status_init+0x8a>

    rc = boot_write_enc_key(fap, 1, bs);
    assert(rc == 0);
#endif

    rc = boot_write_magic(fap);
    3666:	4620      	mov	r0, r4
    3668:	f7ff fa88 	bl	2b7c <boot_write_magic>
    assert(rc == 0);
    366c:	bba8      	cbnz	r0, 36da <swap_status_init+0x9e>

    return 0;
}
    366e:	2000      	movs	r0, #0
    3670:	b003      	add	sp, #12
    3672:	bd30      	pop	{r4, r5, pc}
    assert(rc == 0);
    3674:	f7fc fd76 	bl	164 <hal_debugger_connected>
    3678:	b100      	cbz	r0, 367c <swap_status_init+0x40>
    367a:	be01      	bkpt	0x0001
    367c:	2300      	movs	r3, #0
    367e:	461a      	mov	r2, r3
    3680:	4619      	mov	r1, r3
    3682:	4618      	mov	r0, r3
    3684:	f7fe f896 	bl	17b4 <__assert_func>
        rc = boot_write_swap_info(fap, bs->swap_type, image_index);
    3688:	2200      	movs	r2, #0
    368a:	4620      	mov	r0, r4
    368c:	f7ff fa94 	bl	2bb8 <boot_write_swap_info>
        assert(rc == 0);
    3690:	2800      	cmp	r0, #0
    3692:	d0df      	beq.n	3654 <swap_status_init+0x18>
    3694:	f7fc fd66 	bl	164 <hal_debugger_connected>
    3698:	b100      	cbz	r0, 369c <swap_status_init+0x60>
    369a:	be01      	bkpt	0x0001
    369c:	2300      	movs	r3, #0
    369e:	461a      	mov	r2, r3
    36a0:	4619      	mov	r1, r3
    36a2:	4618      	mov	r0, r3
    36a4:	f7fe f886 	bl	17b4 <__assert_func>
        rc = boot_write_image_ok(fap);
    36a8:	4620      	mov	r0, r4
    36aa:	f7ff fa7e 	bl	2baa <boot_write_image_ok>
        assert(rc == 0);
    36ae:	2800      	cmp	r0, #0
    36b0:	d0d4      	beq.n	365c <swap_status_init+0x20>
    36b2:	f7fc fd57 	bl	164 <hal_debugger_connected>
    36b6:	b100      	cbz	r0, 36ba <swap_status_init+0x7e>
    36b8:	be01      	bkpt	0x0001
    36ba:	2300      	movs	r3, #0
    36bc:	461a      	mov	r2, r3
    36be:	4619      	mov	r1, r3
    36c0:	4618      	mov	r0, r3
    36c2:	f7fe f877 	bl	17b4 <__assert_func>
    assert(rc == 0);
    36c6:	f7fc fd4d 	bl	164 <hal_debugger_connected>
    36ca:	b100      	cbz	r0, 36ce <swap_status_init+0x92>
    36cc:	be01      	bkpt	0x0001
    36ce:	2300      	movs	r3, #0
    36d0:	461a      	mov	r2, r3
    36d2:	4619      	mov	r1, r3
    36d4:	4618      	mov	r0, r3
    36d6:	f7fe f86d 	bl	17b4 <__assert_func>
    assert(rc == 0);
    36da:	f7fc fd43 	bl	164 <hal_debugger_connected>
    36de:	b100      	cbz	r0, 36e2 <swap_status_init+0xa6>
    36e0:	be01      	bkpt	0x0001
    36e2:	2300      	movs	r3, #0
    36e4:	461a      	mov	r2, r3
    36e6:	4619      	mov	r1, r3
    36e8:	4618      	mov	r0, r3
    36ea:	f7fe f863 	bl	17b4 <__assert_func>

000036ee <swap_read_status>:

int
swap_read_status(struct boot_loader_state *state, struct boot_status *bs)
{
    36ee:	b570      	push	{r4, r5, r6, lr}
    36f0:	b082      	sub	sp, #8
    36f2:	4606      	mov	r6, r0
    36f4:	460d      	mov	r5, r1
    uint32_t off;
    uint8_t swap_info;
    int area_id;
    int rc;

    bs->source = swap_status_source(state);
    36f6:	f000 fb83 	bl	3e00 <swap_status_source>
    36fa:	60e8      	str	r0, [r5, #12]
    switch (bs->source) {
    36fc:	2801      	cmp	r0, #1
    36fe:	d00d      	beq.n	371c <swap_read_status+0x2e>
    3700:	4604      	mov	r4, r0
    3702:	2802      	cmp	r0, #2
    3704:	d013      	beq.n	372e <swap_read_status+0x40>
    3706:	b178      	cbz	r0, 3728 <swap_read_status+0x3a>
    case BOOT_STATUS_SOURCE_PRIMARY_SLOT:
        area_id = FLASH_AREA_IMAGE_PRIMARY(BOOT_CURR_IMG(state));
        break;

    default:
        assert(0);
    3708:	f7fc fd2c 	bl	164 <hal_debugger_connected>
    370c:	b100      	cbz	r0, 3710 <swap_read_status+0x22>
    370e:	be01      	bkpt	0x0001
    3710:	2300      	movs	r3, #0
    3712:	461a      	mov	r2, r3
    3714:	4619      	mov	r1, r3
    3716:	4618      	mov	r0, r3
    3718:	f7fe f84c 	bl	17b4 <__assert_func>
        area_id = FLASH_AREA_IMAGE_SCRATCH;
    371c:	2003      	movs	r0, #3
        return BOOT_EBADARGS;
    }

    rc = flash_area_open(area_id, &fap);
    371e:	a901      	add	r1, sp, #4
    3720:	f001 fccc 	bl	50bc <flash_area_open>
    if (rc != 0) {
    3724:	b128      	cbz	r0, 3732 <swap_read_status+0x44>
        return BOOT_EFLASH;
    3726:	2401      	movs	r4, #1
    }

    flash_area_close(fap);

    return rc;
}
    3728:	4620      	mov	r0, r4
    372a:	b002      	add	sp, #8
    372c:	bd70      	pop	{r4, r5, r6, pc}
        area_id = FLASH_AREA_IMAGE_PRIMARY(BOOT_CURR_IMG(state));
    372e:	2001      	movs	r0, #1
    3730:	e7f5      	b.n	371e <swap_read_status+0x30>
    rc = swap_read_status_bytes(fap, state, bs);
    3732:	462a      	mov	r2, r5
    3734:	4631      	mov	r1, r6
    3736:	9801      	ldr	r0, [sp, #4]
    3738:	f000 fa72 	bl	3c20 <swap_read_status_bytes>
    if (rc == 0) {
    373c:	4604      	mov	r4, r0
    373e:	2800      	cmp	r0, #0
    3740:	d1f2      	bne.n	3728 <swap_read_status+0x3a>
        off = boot_swap_info_off(fap);
    3742:	9801      	ldr	r0, [sp, #4]
    3744:	f7ff f98f 	bl	2a66 <boot_swap_info_off>
        rc = flash_area_read_is_empty(fap, off, &swap_info, sizeof swap_info);
    3748:	2301      	movs	r3, #1
    374a:	f10d 0203 	add.w	r2, sp, #3
    374e:	4601      	mov	r1, r0
    3750:	9801      	ldr	r0, [sp, #4]
    3752:	f001 fd4e 	bl	51f2 <flash_area_read_is_empty>
        if (rc == 1) {
    3756:	2801      	cmp	r0, #1
    3758:	d006      	beq.n	3768 <swap_read_status+0x7a>
        bs->swap_type = BOOT_GET_SWAP_TYPE(swap_info);
    375a:	f89d 3003 	ldrb.w	r3, [sp, #3]
    375e:	f003 030f 	and.w	r3, r3, #15
    3762:	71eb      	strb	r3, [r5, #7]
    3764:	4604      	mov	r4, r0
    3766:	e7df      	b.n	3728 <swap_read_status+0x3a>
            BOOT_SET_SWAP_INFO(swap_info, 0, BOOT_SWAP_TYPE_NONE);
    3768:	2301      	movs	r3, #1
    376a:	f88d 3003 	strb.w	r3, [sp, #3]
            rc = 0;
    376e:	4620      	mov	r0, r4
    3770:	e7f3      	b.n	375a <swap_read_status+0x6c>

00003772 <swap_set_copy_done>:

int
swap_set_copy_done(uint8_t image_index)
{
    3772:	b500      	push	{lr}
    3774:	b083      	sub	sp, #12
    const struct flash_area *fap;
    int rc;

    rc = flash_area_open(FLASH_AREA_IMAGE_PRIMARY(image_index),
    3776:	a901      	add	r1, sp, #4
    3778:	2001      	movs	r0, #1
    377a:	f001 fc9f 	bl	50bc <flash_area_open>
            &fap);
    if (rc != 0) {
    377e:	b118      	cbz	r0, 3788 <swap_set_copy_done+0x16>
        return BOOT_EFLASH;
    3780:	2001      	movs	r0, #1
    }

    rc = boot_write_copy_done(fap);
    flash_area_close(fap);
    return rc;
}
    3782:	b003      	add	sp, #12
    3784:	f85d fb04 	ldr.w	pc, [sp], #4
    rc = boot_write_copy_done(fap);
    3788:	9801      	ldr	r0, [sp, #4]
    378a:	f7ff fa07 	bl	2b9c <boot_write_copy_done>
    return rc;
    378e:	e7f8      	b.n	3782 <swap_set_copy_done+0x10>

00003790 <swap_set_image_ok>:

int
swap_set_image_ok(uint8_t image_index)
{
    3790:	b500      	push	{lr}
    3792:	b085      	sub	sp, #20
    const struct flash_area *fap;
    struct boot_swap_state state;
    int rc;

    rc = flash_area_open(FLASH_AREA_IMAGE_PRIMARY(image_index),
    3794:	a903      	add	r1, sp, #12
    3796:	2001      	movs	r0, #1
    3798:	f001 fc90 	bl	50bc <flash_area_open>
            &fap);
    if (rc != 0) {
    379c:	b120      	cbz	r0, 37a8 <swap_set_image_ok+0x18>
        return BOOT_EFLASH;
    379e:	2301      	movs	r3, #1
    }

out:
    flash_area_close(fap);
    return rc;
}
    37a0:	4618      	mov	r0, r3
    37a2:	b005      	add	sp, #20
    37a4:	f85d fb04 	ldr.w	pc, [sp], #4
    rc = boot_read_swap_state(fap, &state);
    37a8:	a901      	add	r1, sp, #4
    37aa:	9803      	ldr	r0, [sp, #12]
    37ac:	f7ff f95e 	bl	2a6c <boot_read_swap_state>
    if (rc != 0) {
    37b0:	4603      	mov	r3, r0
    37b2:	b940      	cbnz	r0, 37c6 <swap_set_image_ok+0x36>
    if (state.image_ok == BOOT_FLAG_UNSET) {
    37b4:	f89d 2007 	ldrb.w	r2, [sp, #7]
    37b8:	2a03      	cmp	r2, #3
    37ba:	d1f1      	bne.n	37a0 <swap_set_image_ok+0x10>
        rc = boot_write_image_ok(fap);
    37bc:	9803      	ldr	r0, [sp, #12]
    37be:	f7ff f9f4 	bl	2baa <boot_write_image_ok>
    37c2:	4603      	mov	r3, r0
    37c4:	e7ec      	b.n	37a0 <swap_set_image_ok+0x10>
        rc = BOOT_EFLASH;
    37c6:	2301      	movs	r3, #1
    37c8:	e7ea      	b.n	37a0 <swap_set_image_ok+0x10>

000037ca <boot_copy_sz>:
 *                                  [first-sector, last-sector] range.
 */
static uint32_t
boot_copy_sz(const struct boot_loader_state *state, int last_sector_idx,
             int *out_first_sector_idx)
{
    37ca:	b4f0      	push	{r4, r5, r6, r7}
    37cc:	4606      	mov	r6, r0
#if MCUBOOT_SWAP_USING_SCRATCH
#define BOOT_SCRATCH_AREA(state) ((state)->scratch.area)

static inline size_t boot_scratch_area_size(const struct boot_loader_state *state)
{
    return BOOT_SCRATCH_AREA(state)->fa_size;
    37ce:	6d83      	ldr	r3, [r0, #88]	; 0x58
    37d0:	689f      	ldr	r7, [r3, #8]
    size_t scratch_sz;
    uint32_t new_sz;
    uint32_t sz;
    int i;

    sz = 0;
    37d2:	2000      	movs	r0, #0

    scratch_sz = boot_scratch_area_size(state);
    for (i = last_sector_idx; i >= 0; i--) {
    37d4:	2900      	cmp	r1, #0
    37d6:	db0b      	blt.n	37f0 <boot_copy_sz+0x26>
    return BOOT_IMG(state, slot).sectors[sector].fa_size;
    37d8:	6a73      	ldr	r3, [r6, #36]	; 0x24
    37da:	eb01 0541 	add.w	r5, r1, r1, lsl #1
    37de:	00ac      	lsls	r4, r5, #2
    37e0:	4423      	add	r3, r4
    37e2:	689b      	ldr	r3, [r3, #8]
        new_sz = sz + boot_img_sector_size(state, BOOT_PRIMARY_SLOT, i);
    37e4:	4403      	add	r3, r0
        /*
         * The secondary slot is not being checked here, because
         * `boot_slots_compatible` already provides assurance that the copy size
         * will be compatible with the primary slot and scratch.
         */
        if (new_sz > scratch_sz) {
    37e6:	429f      	cmp	r7, r3
    37e8:	d302      	bcc.n	37f0 <boot_copy_sz+0x26>
    for (i = last_sector_idx; i >= 0; i--) {
    37ea:	3901      	subs	r1, #1
            break;
        }
        sz = new_sz;
    37ec:	4618      	mov	r0, r3
    37ee:	e7f1      	b.n	37d4 <boot_copy_sz+0xa>
    }

    /* i currently refers to a sector that doesn't fit or it is -1 because all
     * sectors have been processed.  In both cases, exclude sector i.
     */
    *out_first_sector_idx = i + 1;
    37f0:	3101      	adds	r1, #1
    37f2:	6011      	str	r1, [r2, #0]
    return sz;
}
    37f4:	bcf0      	pop	{r4, r5, r6, r7}
    37f6:	4770      	bx	lr

000037f8 <boot_swap_sectors>:
 * @return                      0 on success; nonzero on failure.
 */
static void
boot_swap_sectors(int idx, uint32_t sz, struct boot_loader_state *state,
        struct boot_status *bs)
{
    37f8:	e92d 41f0 	stmdb	sp!, {r4, r5, r6, r7, r8, lr}
    37fc:	b088      	sub	sp, #32
    37fe:	460f      	mov	r7, r1
    3800:	4615      	mov	r5, r2
    3802:	461c      	mov	r4, r3
    return BOOT_IMG(state, slot).sectors[sector].fa_off -
    3804:	6a52      	ldr	r2, [r2, #36]	; 0x24
    3806:	eb00 0040 	add.w	r0, r0, r0, lsl #1
    380a:	0083      	lsls	r3, r0, #2
    380c:	4413      	add	r3, r2
    380e:	685e      	ldr	r6, [r3, #4]
           BOOT_IMG(state, slot).sectors[0].fa_off;
    3810:	6853      	ldr	r3, [r2, #4]
    return BOOT_IMG(state, slot).sectors[sector].fa_off -
    3812:	1af6      	subs	r6, r6, r3

    /* Calculate offset from start of image area. */
    img_off = boot_img_sector_off(state, BOOT_PRIMARY_SLOT, idx);

    copy_sz = sz;
    trailer_sz = boot_trailer_sz(BOOT_WRITE_SZ(state));
    3814:	6ea8      	ldr	r0, [r5, #104]	; 0x68
    3816:	f7ff f8fd 	bl	2a14 <boot_trailer_sz>
    return BOOT_IMG(state, slot).num_sectors;
    381a:	6aab      	ldr	r3, [r5, #40]	; 0x28
     * copying it, we need to use scratch to write the trailer temporarily.
     *
     * NOTE: `use_scratch` is a temporary flag (never written to flash) which
     * controls if special handling is needed (swapping last sector).
     */
    last_sector = boot_img_num_sectors(state, BOOT_PRIMARY_SLOT) - 1;
    381c:	3b01      	subs	r3, #1
    if ((img_off + sz) >
    381e:	eb07 0c06 	add.w	ip, r7, r6
    return BOOT_IMG(state, slot).sectors[sector].fa_off -
    3822:	6a69      	ldr	r1, [r5, #36]	; 0x24
    3824:	eb03 0343 	add.w	r3, r3, r3, lsl #1
    3828:	009a      	lsls	r2, r3, #2
    382a:	440a      	add	r2, r1
    382c:	6853      	ldr	r3, [r2, #4]
           BOOT_IMG(state, slot).sectors[0].fa_off;
    382e:	684a      	ldr	r2, [r1, #4]
    return BOOT_IMG(state, slot).sectors[sector].fa_off -
    3830:	1a9b      	subs	r3, r3, r2
    3832:	459c      	cmp	ip, r3
    3834:	d923      	bls.n	387e <boot_swap_sectors+0x86>
        boot_img_sector_off(state, BOOT_PRIMARY_SLOT, last_sector)) {
        copy_sz -= trailer_sz;
    3836:	eba7 0800 	sub.w	r8, r7, r0
    }

    bs->use_scratch = (bs->idx == BOOT_STATUS_IDX_0 && copy_sz != sz);
    383a:	6823      	ldr	r3, [r4, #0]
    383c:	2b01      	cmp	r3, #1
    383e:	d020      	beq.n	3882 <boot_swap_sectors+0x8a>
    3840:	2300      	movs	r3, #0
    3842:	71a3      	strb	r3, [r4, #6]

    image_index = BOOT_CURR_IMG(state);

    rc = flash_area_open(FLASH_AREA_IMAGE_PRIMARY(image_index),
    3844:	a907      	add	r1, sp, #28
    3846:	2001      	movs	r0, #1
    3848:	f001 fc38 	bl	50bc <flash_area_open>
            &fap_primary_slot);
    assert (rc == 0);
    384c:	b9f8      	cbnz	r0, 388e <boot_swap_sectors+0x96>

    rc = flash_area_open(FLASH_AREA_IMAGE_SECONDARY(image_index),
    384e:	a906      	add	r1, sp, #24
    3850:	2002      	movs	r0, #2
    3852:	f001 fc33 	bl	50bc <flash_area_open>
            &fap_secondary_slot);
    assert (rc == 0);
    3856:	bb20      	cbnz	r0, 38a2 <boot_swap_sectors+0xaa>

    rc = flash_area_open(FLASH_AREA_IMAGE_SCRATCH, &fap_scratch);
    3858:	a905      	add	r1, sp, #20
    385a:	2003      	movs	r0, #3
    385c:	f001 fc2e 	bl	50bc <flash_area_open>
    assert (rc == 0);
    3860:	bb48      	cbnz	r0, 38b6 <boot_swap_sectors+0xbe>

    if (bs->state == BOOT_STATUS_STATE_0) {
    3862:	7923      	ldrb	r3, [r4, #4]
    3864:	2b01      	cmp	r3, #1
    3866:	d030      	beq.n	38ca <boot_swap_sectors+0xd2>
        rc = boot_write_status(state, bs);
        bs->state = BOOT_STATUS_STATE_1;
        BOOT_STATUS_ASSERT(rc == 0);
    }

    if (bs->state == BOOT_STATUS_STATE_1) {
    3868:	7923      	ldrb	r3, [r4, #4]
    386a:	2b02      	cmp	r3, #2
    386c:	f000 80ab 	beq.w	39c6 <boot_swap_sectors+0x1ce>
        rc = boot_write_status(state, bs);
        bs->state = BOOT_STATUS_STATE_2;
        BOOT_STATUS_ASSERT(rc == 0);
    }

    if (bs->state == BOOT_STATUS_STATE_2) {
    3870:	7923      	ldrb	r3, [r4, #4]
    3872:	2b03      	cmp	r3, #3
    3874:	f000 80f3 	beq.w	3a5e <boot_swap_sectors+0x266>
    }

    flash_area_close(fap_primary_slot);
    flash_area_close(fap_secondary_slot);
    flash_area_close(fap_scratch);
}
    3878:	b008      	add	sp, #32
    387a:	e8bd 81f0 	ldmia.w	sp!, {r4, r5, r6, r7, r8, pc}
    copy_sz = sz;
    387e:	46b8      	mov	r8, r7
    3880:	e7db      	b.n	383a <boot_swap_sectors+0x42>
    bs->use_scratch = (bs->idx == BOOT_STATUS_IDX_0 && copy_sz != sz);
    3882:	45b8      	cmp	r8, r7
    3884:	d001      	beq.n	388a <boot_swap_sectors+0x92>
    3886:	2301      	movs	r3, #1
    3888:	e7db      	b.n	3842 <boot_swap_sectors+0x4a>
    388a:	2300      	movs	r3, #0
    388c:	e7d9      	b.n	3842 <boot_swap_sectors+0x4a>
    assert (rc == 0);
    388e:	f7fc fc69 	bl	164 <hal_debugger_connected>
    3892:	b100      	cbz	r0, 3896 <boot_swap_sectors+0x9e>
    3894:	be01      	bkpt	0x0001
    3896:	2300      	movs	r3, #0
    3898:	461a      	mov	r2, r3
    389a:	4619      	mov	r1, r3
    389c:	4618      	mov	r0, r3
    389e:	f7fd ff89 	bl	17b4 <__assert_func>
    assert (rc == 0);
    38a2:	f7fc fc5f 	bl	164 <hal_debugger_connected>
    38a6:	b100      	cbz	r0, 38aa <boot_swap_sectors+0xb2>
    38a8:	be01      	bkpt	0x0001
    38aa:	2300      	movs	r3, #0
    38ac:	461a      	mov	r2, r3
    38ae:	4619      	mov	r1, r3
    38b0:	4618      	mov	r0, r3
    38b2:	f7fd ff7f 	bl	17b4 <__assert_func>
    assert (rc == 0);
    38b6:	f7fc fc55 	bl	164 <hal_debugger_connected>
    38ba:	b100      	cbz	r0, 38be <boot_swap_sectors+0xc6>
    38bc:	be01      	bkpt	0x0001
    38be:	2300      	movs	r3, #0
    38c0:	461a      	mov	r2, r3
    38c2:	4619      	mov	r1, r3
    38c4:	4618      	mov	r0, r3
    38c6:	f7fd ff75 	bl	17b4 <__assert_func>
        rc = boot_erase_region(fap_scratch, 0, fap_scratch->fa_size);
    38ca:	9805      	ldr	r0, [sp, #20]
    38cc:	6882      	ldr	r2, [r0, #8]
    38ce:	2100      	movs	r1, #0
    38d0:	f7ff fd86 	bl	33e0 <boot_erase_region>
        assert(rc == 0);
    38d4:	bb00      	cbnz	r0, 3918 <boot_swap_sectors+0x120>
        if (bs->idx == BOOT_STATUS_IDX_0) {
    38d6:	6823      	ldr	r3, [r4, #0]
    38d8:	2b01      	cmp	r3, #1
    38da:	d027      	beq.n	392c <boot_swap_sectors+0x134>
        rc = boot_copy_region(state, fap_secondary_slot, fap_scratch,
    38dc:	f8cd 8004 	str.w	r8, [sp, #4]
    38e0:	2300      	movs	r3, #0
    38e2:	9300      	str	r3, [sp, #0]
    38e4:	4633      	mov	r3, r6
    38e6:	9a05      	ldr	r2, [sp, #20]
    38e8:	9906      	ldr	r1, [sp, #24]
    38ea:	4628      	mov	r0, r5
    38ec:	f7ff fd7c 	bl	33e8 <boot_copy_region>
        assert(rc == 0);
    38f0:	2800      	cmp	r0, #0
    38f2:	d15e      	bne.n	39b2 <boot_swap_sectors+0x1ba>
        rc = boot_write_status(state, bs);
    38f4:	4621      	mov	r1, r4
    38f6:	4628      	mov	r0, r5
    38f8:	f7ff fd3e 	bl	3378 <boot_write_status>
        bs->state = BOOT_STATUS_STATE_1;
    38fc:	2302      	movs	r3, #2
    38fe:	7123      	strb	r3, [r4, #4]
        BOOT_STATUS_ASSERT(rc == 0);
    3900:	2800      	cmp	r0, #0
    3902:	d0b1      	beq.n	3868 <boot_swap_sectors+0x70>
    3904:	f7fc fc2e 	bl	164 <hal_debugger_connected>
    3908:	b100      	cbz	r0, 390c <boot_swap_sectors+0x114>
    390a:	be01      	bkpt	0x0001
    390c:	2300      	movs	r3, #0
    390e:	461a      	mov	r2, r3
    3910:	4619      	mov	r1, r3
    3912:	4618      	mov	r0, r3
    3914:	f7fd ff4e 	bl	17b4 <__assert_func>
        assert(rc == 0);
    3918:	f7fc fc24 	bl	164 <hal_debugger_connected>
    391c:	b100      	cbz	r0, 3920 <boot_swap_sectors+0x128>
    391e:	be01      	bkpt	0x0001
    3920:	2300      	movs	r3, #0
    3922:	461a      	mov	r2, r3
    3924:	4619      	mov	r1, r3
    3926:	4618      	mov	r0, r3
    3928:	f7fd ff44 	bl	17b4 <__assert_func>
            rc = swap_status_init(state, fap_scratch, bs);
    392c:	4622      	mov	r2, r4
    392e:	9905      	ldr	r1, [sp, #20]
    3930:	4628      	mov	r0, r5
    3932:	f7ff fe83 	bl	363c <swap_status_init>
            assert(rc == 0);
    3936:	b9f0      	cbnz	r0, 3976 <boot_swap_sectors+0x17e>
            if (!bs->use_scratch) {
    3938:	79a3      	ldrb	r3, [r4, #6]
    393a:	2b00      	cmp	r3, #0
    393c:	d1ce      	bne.n	38dc <boot_swap_sectors+0xe4>
                rc = swap_erase_trailer_sectors(state, fap_primary_slot);
    393e:	9907      	ldr	r1, [sp, #28]
    3940:	4628      	mov	r0, r5
    3942:	f7ff fe35 	bl	35b0 <swap_erase_trailer_sectors>
                assert(rc == 0);
    3946:	bb00      	cbnz	r0, 398a <boot_swap_sectors+0x192>
                rc = swap_status_init(state, fap_primary_slot, bs);
    3948:	4622      	mov	r2, r4
    394a:	9907      	ldr	r1, [sp, #28]
    394c:	4628      	mov	r0, r5
    394e:	f7ff fe75 	bl	363c <swap_status_init>
                assert(rc == 0);
    3952:	bb20      	cbnz	r0, 399e <boot_swap_sectors+0x1a6>
                rc = boot_erase_region(fap_scratch, 0, fap_scratch->fa_size);
    3954:	9805      	ldr	r0, [sp, #20]
    3956:	6882      	ldr	r2, [r0, #8]
    3958:	2100      	movs	r1, #0
    395a:	f7ff fd41 	bl	33e0 <boot_erase_region>
                assert(rc == 0);
    395e:	2800      	cmp	r0, #0
    3960:	d0bc      	beq.n	38dc <boot_swap_sectors+0xe4>
    3962:	f7fc fbff 	bl	164 <hal_debugger_connected>
    3966:	b100      	cbz	r0, 396a <boot_swap_sectors+0x172>
    3968:	be01      	bkpt	0x0001
    396a:	2300      	movs	r3, #0
    396c:	461a      	mov	r2, r3
    396e:	4619      	mov	r1, r3
    3970:	4618      	mov	r0, r3
    3972:	f7fd ff1f 	bl	17b4 <__assert_func>
            assert(rc == 0);
    3976:	f7fc fbf5 	bl	164 <hal_debugger_connected>
    397a:	b100      	cbz	r0, 397e <boot_swap_sectors+0x186>
    397c:	be01      	bkpt	0x0001
    397e:	2300      	movs	r3, #0
    3980:	461a      	mov	r2, r3
    3982:	4619      	mov	r1, r3
    3984:	4618      	mov	r0, r3
    3986:	f7fd ff15 	bl	17b4 <__assert_func>
                assert(rc == 0);
    398a:	f7fc fbeb 	bl	164 <hal_debugger_connected>
    398e:	b100      	cbz	r0, 3992 <boot_swap_sectors+0x19a>
    3990:	be01      	bkpt	0x0001
    3992:	2300      	movs	r3, #0
    3994:	461a      	mov	r2, r3
    3996:	4619      	mov	r1, r3
    3998:	4618      	mov	r0, r3
    399a:	f7fd ff0b 	bl	17b4 <__assert_func>
                assert(rc == 0);
    399e:	f7fc fbe1 	bl	164 <hal_debugger_connected>
    39a2:	b100      	cbz	r0, 39a6 <boot_swap_sectors+0x1ae>
    39a4:	be01      	bkpt	0x0001
    39a6:	2300      	movs	r3, #0
    39a8:	461a      	mov	r2, r3
    39aa:	4619      	mov	r1, r3
    39ac:	4618      	mov	r0, r3
    39ae:	f7fd ff01 	bl	17b4 <__assert_func>
        assert(rc == 0);
    39b2:	f7fc fbd7 	bl	164 <hal_debugger_connected>
    39b6:	b100      	cbz	r0, 39ba <boot_swap_sectors+0x1c2>
    39b8:	be01      	bkpt	0x0001
    39ba:	2300      	movs	r3, #0
    39bc:	461a      	mov	r2, r3
    39be:	4619      	mov	r1, r3
    39c0:	4618      	mov	r0, r3
    39c2:	f7fd fef7 	bl	17b4 <__assert_func>
        rc = boot_erase_region(fap_secondary_slot, img_off, sz);
    39c6:	463a      	mov	r2, r7
    39c8:	4631      	mov	r1, r6
    39ca:	9806      	ldr	r0, [sp, #24]
    39cc:	f7ff fd08 	bl	33e0 <boot_erase_region>
        assert(rc == 0);
    39d0:	bb08      	cbnz	r0, 3a16 <boot_swap_sectors+0x21e>
        rc = boot_copy_region(state, fap_primary_slot, fap_secondary_slot,
    39d2:	f8cd 8004 	str.w	r8, [sp, #4]
    39d6:	9600      	str	r6, [sp, #0]
    39d8:	4633      	mov	r3, r6
    39da:	9a06      	ldr	r2, [sp, #24]
    39dc:	9907      	ldr	r1, [sp, #28]
    39de:	4628      	mov	r0, r5
    39e0:	f7ff fd02 	bl	33e8 <boot_copy_region>
        assert(rc == 0);
    39e4:	bb08      	cbnz	r0, 3a2a <boot_swap_sectors+0x232>
        if (bs->idx == BOOT_STATUS_IDX_0 && !bs->use_scratch) {
    39e6:	6823      	ldr	r3, [r4, #0]
    39e8:	2b01      	cmp	r3, #1
    39ea:	d101      	bne.n	39f0 <boot_swap_sectors+0x1f8>
    39ec:	79a3      	ldrb	r3, [r4, #6]
    39ee:	b333      	cbz	r3, 3a3e <boot_swap_sectors+0x246>
        rc = boot_write_status(state, bs);
    39f0:	4621      	mov	r1, r4
    39f2:	4628      	mov	r0, r5
    39f4:	f7ff fcc0 	bl	3378 <boot_write_status>
        bs->state = BOOT_STATUS_STATE_2;
    39f8:	2303      	movs	r3, #3
    39fa:	7123      	strb	r3, [r4, #4]
        BOOT_STATUS_ASSERT(rc == 0);
    39fc:	2800      	cmp	r0, #0
    39fe:	f43f af37 	beq.w	3870 <boot_swap_sectors+0x78>
    3a02:	f7fc fbaf 	bl	164 <hal_debugger_connected>
    3a06:	b100      	cbz	r0, 3a0a <boot_swap_sectors+0x212>
    3a08:	be01      	bkpt	0x0001
    3a0a:	2300      	movs	r3, #0
    3a0c:	461a      	mov	r2, r3
    3a0e:	4619      	mov	r1, r3
    3a10:	4618      	mov	r0, r3
    3a12:	f7fd fecf 	bl	17b4 <__assert_func>
        assert(rc == 0);
    3a16:	f7fc fba5 	bl	164 <hal_debugger_connected>
    3a1a:	b100      	cbz	r0, 3a1e <boot_swap_sectors+0x226>
    3a1c:	be01      	bkpt	0x0001
    3a1e:	2300      	movs	r3, #0
    3a20:	461a      	mov	r2, r3
    3a22:	4619      	mov	r1, r3
    3a24:	4618      	mov	r0, r3
    3a26:	f7fd fec5 	bl	17b4 <__assert_func>
        assert(rc == 0);
    3a2a:	f7fc fb9b 	bl	164 <hal_debugger_connected>
    3a2e:	b100      	cbz	r0, 3a32 <boot_swap_sectors+0x23a>
    3a30:	be01      	bkpt	0x0001
    3a32:	2300      	movs	r3, #0
    3a34:	461a      	mov	r2, r3
    3a36:	4619      	mov	r1, r3
    3a38:	4618      	mov	r0, r3
    3a3a:	f7fd febb 	bl	17b4 <__assert_func>
            rc = swap_erase_trailer_sectors(state, fap_secondary_slot);
    3a3e:	9906      	ldr	r1, [sp, #24]
    3a40:	4628      	mov	r0, r5
    3a42:	f7ff fdb5 	bl	35b0 <swap_erase_trailer_sectors>
            assert(rc == 0);
    3a46:	2800      	cmp	r0, #0
    3a48:	d0d2      	beq.n	39f0 <boot_swap_sectors+0x1f8>
    3a4a:	f7fc fb8b 	bl	164 <hal_debugger_connected>
    3a4e:	b100      	cbz	r0, 3a52 <boot_swap_sectors+0x25a>
    3a50:	be01      	bkpt	0x0001
    3a52:	2300      	movs	r3, #0
    3a54:	461a      	mov	r2, r3
    3a56:	4619      	mov	r1, r3
    3a58:	4618      	mov	r0, r3
    3a5a:	f7fd feab 	bl	17b4 <__assert_func>
        rc = boot_erase_region(fap_primary_slot, img_off, sz);
    3a5e:	463a      	mov	r2, r7
    3a60:	4631      	mov	r1, r6
    3a62:	9807      	ldr	r0, [sp, #28]
    3a64:	f7ff fcbc 	bl	33e0 <boot_erase_region>
        assert(rc == 0);
    3a68:	2800      	cmp	r0, #0
    3a6a:	d15f      	bne.n	3b2c <boot_swap_sectors+0x334>
        rc = boot_copy_region(state, fap_scratch, fap_primary_slot,
    3a6c:	f8cd 8004 	str.w	r8, [sp, #4]
    3a70:	9600      	str	r6, [sp, #0]
    3a72:	2300      	movs	r3, #0
    3a74:	9a07      	ldr	r2, [sp, #28]
    3a76:	9905      	ldr	r1, [sp, #20]
    3a78:	4628      	mov	r0, r5
    3a7a:	f7ff fcb5 	bl	33e8 <boot_copy_region>
        assert(rc == 0);
    3a7e:	2800      	cmp	r0, #0
    3a80:	d15e      	bne.n	3b40 <boot_swap_sectors+0x348>
        if (bs->use_scratch) {
    3a82:	79a3      	ldrb	r3, [r4, #6]
    3a84:	2b00      	cmp	r3, #0
    3a86:	d02e      	beq.n	3ae6 <boot_swap_sectors+0x2ee>
            scratch_trailer_off = boot_status_off(fap_scratch);
    3a88:	9805      	ldr	r0, [sp, #20]
    3a8a:	f7fe ffd7 	bl	2a3c <boot_status_off>
            rc = boot_copy_region(state, fap_scratch, fap_primary_slot,
    3a8e:	4446      	add	r6, r8
                        (BOOT_STATUS_STATE_COUNT - 1) * BOOT_WRITE_SZ(state));
    3a90:	6eab      	ldr	r3, [r5, #104]	; 0x68
            rc = boot_copy_region(state, fap_scratch, fap_primary_slot,
    3a92:	005b      	lsls	r3, r3, #1
    3a94:	9301      	str	r3, [sp, #4]
    3a96:	9600      	str	r6, [sp, #0]
    3a98:	4603      	mov	r3, r0
    3a9a:	9a07      	ldr	r2, [sp, #28]
    3a9c:	9905      	ldr	r1, [sp, #20]
    3a9e:	4628      	mov	r0, r5
    3aa0:	f7ff fca2 	bl	33e8 <boot_copy_region>
            BOOT_STATUS_ASSERT(rc == 0);
    3aa4:	2800      	cmp	r0, #0
    3aa6:	d155      	bne.n	3b54 <boot_swap_sectors+0x35c>
            rc = boot_read_swap_state_by_id(FLASH_AREA_IMAGE_SCRATCH,
    3aa8:	a903      	add	r1, sp, #12
    3aaa:	2003      	movs	r0, #3
    3aac:	f7ff f83e 	bl	2b2c <boot_read_swap_state_by_id>
            assert(rc == 0);
    3ab0:	2800      	cmp	r0, #0
    3ab2:	d159      	bne.n	3b68 <boot_swap_sectors+0x370>
            if (swap_state.image_ok == BOOT_FLAG_SET) {
    3ab4:	f89d 300f 	ldrb.w	r3, [sp, #15]
    3ab8:	2b01      	cmp	r3, #1
    3aba:	d05f      	beq.n	3b7c <boot_swap_sectors+0x384>
            if (swap_state.swap_type != BOOT_SWAP_TYPE_NONE) {
    3abc:	f89d 100d 	ldrb.w	r1, [sp, #13]
    3ac0:	2901      	cmp	r1, #1
    3ac2:	d005      	beq.n	3ad0 <boot_swap_sectors+0x2d8>
                rc = boot_write_swap_info(fap_primary_slot,
    3ac4:	2200      	movs	r2, #0
    3ac6:	9807      	ldr	r0, [sp, #28]
    3ac8:	f7ff f876 	bl	2bb8 <boot_write_swap_info>
                assert(rc == 0);
    3acc:	2800      	cmp	r0, #0
    3ace:	d164      	bne.n	3b9a <boot_swap_sectors+0x3a2>
            rc = boot_write_swap_size(fap_primary_slot, bs->swap_size);
    3ad0:	68a1      	ldr	r1, [r4, #8]
    3ad2:	9807      	ldr	r0, [sp, #28]
    3ad4:	f7ff f89a 	bl	2c0c <boot_write_swap_size>
            assert(rc == 0);
    3ad8:	2800      	cmp	r0, #0
    3ada:	d168      	bne.n	3bae <boot_swap_sectors+0x3b6>
            rc = boot_write_magic(fap_primary_slot);
    3adc:	9807      	ldr	r0, [sp, #28]
    3ade:	f7ff f84d 	bl	2b7c <boot_write_magic>
            assert(rc == 0);
    3ae2:	2800      	cmp	r0, #0
    3ae4:	d16d      	bne.n	3bc2 <boot_swap_sectors+0x3ca>
        erase_scratch = bs->use_scratch;
    3ae6:	79a6      	ldrb	r6, [r4, #6]
        bs->use_scratch = 0;
    3ae8:	2300      	movs	r3, #0
    3aea:	71a3      	strb	r3, [r4, #6]
        rc = boot_write_status(state, bs);
    3aec:	4621      	mov	r1, r4
    3aee:	4628      	mov	r0, r5
    3af0:	f7ff fc42 	bl	3378 <boot_write_status>
        bs->idx++;
    3af4:	6823      	ldr	r3, [r4, #0]
    3af6:	3301      	adds	r3, #1
    3af8:	6023      	str	r3, [r4, #0]
        bs->state = BOOT_STATUS_STATE_0;
    3afa:	2301      	movs	r3, #1
    3afc:	7123      	strb	r3, [r4, #4]
        BOOT_STATUS_ASSERT(rc == 0);
    3afe:	2800      	cmp	r0, #0
    3b00:	d169      	bne.n	3bd6 <boot_swap_sectors+0x3de>
        if (erase_scratch) {
    3b02:	2e00      	cmp	r6, #0
    3b04:	f43f aeb8 	beq.w	3878 <boot_swap_sectors+0x80>
            rc = boot_erase_region(fap_scratch, 0, sz);
    3b08:	463a      	mov	r2, r7
    3b0a:	2100      	movs	r1, #0
    3b0c:	9805      	ldr	r0, [sp, #20]
    3b0e:	f7ff fc67 	bl	33e0 <boot_erase_region>
            assert(rc == 0);
    3b12:	2800      	cmp	r0, #0
    3b14:	f43f aeb0 	beq.w	3878 <boot_swap_sectors+0x80>
    3b18:	f7fc fb24 	bl	164 <hal_debugger_connected>
    3b1c:	b100      	cbz	r0, 3b20 <boot_swap_sectors+0x328>
    3b1e:	be01      	bkpt	0x0001
    3b20:	2300      	movs	r3, #0
    3b22:	461a      	mov	r2, r3
    3b24:	4619      	mov	r1, r3
    3b26:	4618      	mov	r0, r3
    3b28:	f7fd fe44 	bl	17b4 <__assert_func>
        assert(rc == 0);
    3b2c:	f7fc fb1a 	bl	164 <hal_debugger_connected>
    3b30:	b100      	cbz	r0, 3b34 <boot_swap_sectors+0x33c>
    3b32:	be01      	bkpt	0x0001
    3b34:	2300      	movs	r3, #0
    3b36:	461a      	mov	r2, r3
    3b38:	4619      	mov	r1, r3
    3b3a:	4618      	mov	r0, r3
    3b3c:	f7fd fe3a 	bl	17b4 <__assert_func>
        assert(rc == 0);
    3b40:	f7fc fb10 	bl	164 <hal_debugger_connected>
    3b44:	b100      	cbz	r0, 3b48 <boot_swap_sectors+0x350>
    3b46:	be01      	bkpt	0x0001
    3b48:	2300      	movs	r3, #0
    3b4a:	461a      	mov	r2, r3
    3b4c:	4619      	mov	r1, r3
    3b4e:	4618      	mov	r0, r3
    3b50:	f7fd fe30 	bl	17b4 <__assert_func>
            BOOT_STATUS_ASSERT(rc == 0);
    3b54:	f7fc fb06 	bl	164 <hal_debugger_connected>
    3b58:	b100      	cbz	r0, 3b5c <boot_swap_sectors+0x364>
    3b5a:	be01      	bkpt	0x0001
    3b5c:	2300      	movs	r3, #0
    3b5e:	461a      	mov	r2, r3
    3b60:	4619      	mov	r1, r3
    3b62:	4618      	mov	r0, r3
    3b64:	f7fd fe26 	bl	17b4 <__assert_func>
            assert(rc == 0);
    3b68:	f7fc fafc 	bl	164 <hal_debugger_connected>
    3b6c:	b100      	cbz	r0, 3b70 <boot_swap_sectors+0x378>
    3b6e:	be01      	bkpt	0x0001
    3b70:	2300      	movs	r3, #0
    3b72:	461a      	mov	r2, r3
    3b74:	4619      	mov	r1, r3
    3b76:	4618      	mov	r0, r3
    3b78:	f7fd fe1c 	bl	17b4 <__assert_func>
                rc = boot_write_image_ok(fap_primary_slot);
    3b7c:	9807      	ldr	r0, [sp, #28]
    3b7e:	f7ff f814 	bl	2baa <boot_write_image_ok>
                assert(rc == 0);
    3b82:	2800      	cmp	r0, #0
    3b84:	d09a      	beq.n	3abc <boot_swap_sectors+0x2c4>
    3b86:	f7fc faed 	bl	164 <hal_debugger_connected>
    3b8a:	b100      	cbz	r0, 3b8e <boot_swap_sectors+0x396>
    3b8c:	be01      	bkpt	0x0001
    3b8e:	2300      	movs	r3, #0
    3b90:	461a      	mov	r2, r3
    3b92:	4619      	mov	r1, r3
    3b94:	4618      	mov	r0, r3
    3b96:	f7fd fe0d 	bl	17b4 <__assert_func>
                assert(rc == 0);
    3b9a:	f7fc fae3 	bl	164 <hal_debugger_connected>
    3b9e:	b100      	cbz	r0, 3ba2 <boot_swap_sectors+0x3aa>
    3ba0:	be01      	bkpt	0x0001
    3ba2:	2300      	movs	r3, #0
    3ba4:	461a      	mov	r2, r3
    3ba6:	4619      	mov	r1, r3
    3ba8:	4618      	mov	r0, r3
    3baa:	f7fd fe03 	bl	17b4 <__assert_func>
            assert(rc == 0);
    3bae:	f7fc fad9 	bl	164 <hal_debugger_connected>
    3bb2:	b100      	cbz	r0, 3bb6 <boot_swap_sectors+0x3be>
    3bb4:	be01      	bkpt	0x0001
    3bb6:	2300      	movs	r3, #0
    3bb8:	461a      	mov	r2, r3
    3bba:	4619      	mov	r1, r3
    3bbc:	4618      	mov	r0, r3
    3bbe:	f7fd fdf9 	bl	17b4 <__assert_func>
            assert(rc == 0);
    3bc2:	f7fc facf 	bl	164 <hal_debugger_connected>
    3bc6:	b100      	cbz	r0, 3bca <boot_swap_sectors+0x3d2>
    3bc8:	be01      	bkpt	0x0001
    3bca:	2300      	movs	r3, #0
    3bcc:	461a      	mov	r2, r3
    3bce:	4619      	mov	r1, r3
    3bd0:	4618      	mov	r0, r3
    3bd2:	f7fd fdef 	bl	17b4 <__assert_func>
        BOOT_STATUS_ASSERT(rc == 0);
    3bd6:	f7fc fac5 	bl	164 <hal_debugger_connected>
    3bda:	b100      	cbz	r0, 3bde <boot_swap_sectors+0x3e6>
    3bdc:	be01      	bkpt	0x0001
    3bde:	2300      	movs	r3, #0
    3be0:	461a      	mov	r2, r3
    3be2:	4619      	mov	r1, r3
    3be4:	4618      	mov	r0, r3
    3be6:	f7fd fde5 	bl	17b4 <__assert_func>

00003bea <boot_read_image_header>:
{
    3bea:	b510      	push	{r4, lr}
    3bec:	b082      	sub	sp, #8
    3bee:	4614      	mov	r4, r2
    area_id = flash_area_id_from_multi_image_slot(BOOT_CURR_IMG(state), slot);
    3bf0:	2000      	movs	r0, #0
    3bf2:	f000 fb47 	bl	4284 <flash_area_id_from_multi_image_slot>
    rc = flash_area_open(area_id, &fap);
    3bf6:	a901      	add	r1, sp, #4
    3bf8:	b2c0      	uxtb	r0, r0
    3bfa:	f001 fa5f 	bl	50bc <flash_area_open>
    if (rc != 0) {
    3bfe:	b118      	cbz	r0, 3c08 <boot_read_image_header+0x1e>
        rc = BOOT_EFLASH;
    3c00:	2301      	movs	r3, #1
}
    3c02:	4618      	mov	r0, r3
    3c04:	b002      	add	sp, #8
    3c06:	bd10      	pop	{r4, pc}
    rc = flash_area_read(fap, 0, out_hdr, sizeof *out_hdr);
    3c08:	2320      	movs	r3, #32
    3c0a:	4622      	mov	r2, r4
    3c0c:	2100      	movs	r1, #0
    3c0e:	9801      	ldr	r0, [sp, #4]
    3c10:	f001 faac 	bl	516c <flash_area_read>
    if (rc != 0) {
    3c14:	4603      	mov	r3, r0
    3c16:	2800      	cmp	r0, #0
    3c18:	d0f3      	beq.n	3c02 <boot_read_image_header+0x18>
        rc = BOOT_EFLASH;
    3c1a:	2301      	movs	r3, #1
    3c1c:	e7f1      	b.n	3c02 <boot_read_image_header+0x18>
	...

00003c20 <swap_read_status_bytes>:
{
    3c20:	e92d 4ff0 	stmdb	sp!, {r4, r5, r6, r7, r8, r9, sl, fp, lr}
    3c24:	b083      	sub	sp, #12
    3c26:	4606      	mov	r6, r0
    3c28:	4689      	mov	r9, r1
    3c2a:	4693      	mov	fp, r2
    off = boot_status_off(fap);
    3c2c:	f7fe ff06 	bl	2a3c <boot_status_off>
    3c30:	4680      	mov	r8, r0
    max_entries = boot_status_entries(BOOT_CURR_IMG(state), fap);
    3c32:	4631      	mov	r1, r6
    3c34:	2000      	movs	r0, #0
    3c36:	f7fe fef2 	bl	2a1e <boot_status_entries>
    if (max_entries < 0) {
    3c3a:	1e07      	subs	r7, r0, #0
    3c3c:	db46      	blt.n	3ccc <swap_read_status_bytes+0xac>
    for (i = 0; i < max_entries; i++) {
    3c3e:	2400      	movs	r4, #0
    found_idx = 0;
    3c40:	46a2      	mov	sl, r4
    found = 0;
    3c42:	4625      	mov	r5, r4
    3c44:	e007      	b.n	3c56 <swap_read_status_bytes+0x36>
            if (found && !found_idx) {
    3c46:	b12d      	cbz	r5, 3c54 <swap_read_status_bytes+0x34>
    3c48:	f1ba 0f00 	cmp.w	sl, #0
    3c4c:	d102      	bne.n	3c54 <swap_read_status_bytes+0x34>
                found_idx = i;
    3c4e:	46a2      	mov	sl, r4
    3c50:	e000      	b.n	3c54 <swap_read_status_bytes+0x34>
            found = 1;
    3c52:	2501      	movs	r5, #1
    for (i = 0; i < max_entries; i++) {
    3c54:	3401      	adds	r4, #1
    3c56:	42bc      	cmp	r4, r7
    3c58:	da14      	bge.n	3c84 <swap_read_status_bytes+0x64>
        rc = flash_area_read_is_empty(fap, off + i * BOOT_WRITE_SZ(state),
    3c5a:	f8d9 1068 	ldr.w	r1, [r9, #104]	; 0x68
    3c5e:	2301      	movs	r3, #1
    3c60:	f10d 0207 	add.w	r2, sp, #7
    3c64:	fb01 8104 	mla	r1, r1, r4, r8
    3c68:	4630      	mov	r0, r6
    3c6a:	f001 fac2 	bl	51f2 <flash_area_read_is_empty>
        if (rc < 0) {
    3c6e:	2800      	cmp	r0, #0
    3c70:	db2e      	blt.n	3cd0 <swap_read_status_bytes+0xb0>
        if (rc == 1) {
    3c72:	2801      	cmp	r0, #1
    3c74:	d0e7      	beq.n	3c46 <swap_read_status_bytes+0x26>
        } else if (!found) {
    3c76:	2d00      	cmp	r5, #0
    3c78:	d0eb      	beq.n	3c52 <swap_read_status_bytes+0x32>
        } else if (found_idx) {
    3c7a:	f1ba 0f00 	cmp.w	sl, #0
    3c7e:	d0e9      	beq.n	3c54 <swap_read_status_bytes+0x34>
            invalid = 1;
    3c80:	4629      	mov	r1, r5
    3c82:	e000      	b.n	3c86 <swap_read_status_bytes+0x66>
    invalid = 0;
    3c84:	2100      	movs	r1, #0
    if (invalid) {
    3c86:	b9a1      	cbnz	r1, 3cb2 <swap_read_status_bytes+0x92>
    if (found) {
    3c88:	b31d      	cbz	r5, 3cd2 <swap_read_status_bytes+0xb2>
        if (!found_idx) {
    3c8a:	f1ba 0f00 	cmp.w	sl, #0
    3c8e:	d000      	beq.n	3c92 <swap_read_status_bytes+0x72>
    3c90:	4654      	mov	r4, sl
        bs->idx = (found_idx / BOOT_STATUS_STATE_COUNT) + 1;
    3c92:	4b12      	ldr	r3, [pc, #72]	; (3cdc <swap_read_status_bytes+0xbc>)
    3c94:	fb83 2304 	smull	r2, r3, r3, r4
    3c98:	eba3 73e4 	sub.w	r3, r3, r4, asr #31
    3c9c:	1c5a      	adds	r2, r3, #1
    3c9e:	f8cb 2000 	str.w	r2, [fp]
        bs->state = (found_idx % BOOT_STATUS_STATE_COUNT) + 1;
    3ca2:	eb03 0343 	add.w	r3, r3, r3, lsl #1
    3ca6:	1ae2      	subs	r2, r4, r3
    3ca8:	1c53      	adds	r3, r2, #1
    3caa:	f88b 3004 	strb.w	r3, [fp, #4]
    return 0;
    3cae:	460d      	mov	r5, r1
    3cb0:	e00f      	b.n	3cd2 <swap_read_status_bytes+0xb2>
        BOOT_LOG_ERR("Detected inconsistent status!");
    3cb2:	480b      	ldr	r0, [pc, #44]	; (3ce0 <swap_read_status_bytes+0xc0>)
    3cb4:	f000 fe20 	bl	48f8 <puts>
        assert(0);
    3cb8:	f7fc fa54 	bl	164 <hal_debugger_connected>
    3cbc:	b100      	cbz	r0, 3cc0 <swap_read_status_bytes+0xa0>
    3cbe:	be01      	bkpt	0x0001
    3cc0:	2300      	movs	r3, #0
    3cc2:	461a      	mov	r2, r3
    3cc4:	4619      	mov	r1, r3
    3cc6:	4618      	mov	r0, r3
    3cc8:	f7fd fd74 	bl	17b4 <__assert_func>
        return BOOT_EBADARGS;
    3ccc:	2507      	movs	r5, #7
    3cce:	e000      	b.n	3cd2 <swap_read_status_bytes+0xb2>
            return BOOT_EFLASH;
    3cd0:	2501      	movs	r5, #1
}
    3cd2:	4628      	mov	r0, r5
    3cd4:	b003      	add	sp, #12
    3cd6:	e8bd 8ff0 	ldmia.w	sp!, {r4, r5, r6, r7, r8, r9, sl, fp, pc}
    3cda:	bf00      	nop
    3cdc:	55555556 	.word	0x55555556
    3ce0:	00005df8 	.word	0x00005df8

00003ce4 <boot_status_internal_off>:
{
    3ce4:	b410      	push	{r4}
    idx_sz = elem_sz * BOOT_STATUS_STATE_COUNT;
    3ce6:	eb01 0441 	add.w	r4, r1, r1, lsl #1
    return (bs->idx - BOOT_STATUS_IDX_0) * idx_sz +
    3cea:	6803      	ldr	r3, [r0, #0]
    3cec:	3b01      	subs	r3, #1
           (bs->state - BOOT_STATUS_STATE_0) * elem_sz;
    3cee:	7902      	ldrb	r2, [r0, #4]
    3cf0:	3a01      	subs	r2, #1
    3cf2:	fb01 f102 	mul.w	r1, r1, r2
}
    3cf6:	fb03 1004 	mla	r0, r3, r4, r1
    3cfa:	bc10      	pop	{r4}
    3cfc:	4770      	bx	lr
	...

00003d00 <boot_slots_compatible>:
{
    3d00:	e92d 4ff8 	stmdb	sp!, {r3, r4, r5, r6, r7, r8, r9, sl, fp, lr}
    return BOOT_IMG(state, slot).num_sectors;
    3d04:	6a87      	ldr	r7, [r0, #40]	; 0x28
    3d06:	f8d0 c054 	ldr.w	ip, [r0, #84]	; 0x54
    if ((num_sectors_primary > BOOT_MAX_IMG_SECTORS) ||
    3d0a:	2f80      	cmp	r7, #128	; 0x80
    3d0c:	d80d      	bhi.n	3d2a <boot_slots_compatible+0x2a>
    3d0e:	f1bc 0f80 	cmp.w	ip, #128	; 0x80
    3d12:	d80a      	bhi.n	3d2a <boot_slots_compatible+0x2a>
    3d14:	6d83      	ldr	r3, [r0, #88]	; 0x58
    3d16:	f8d3 8008 	ldr.w	r8, [r3, #8]
    smaller = 0;
    3d1a:	2500      	movs	r5, #0
    j = sz1 = secondary_slot_sz = 0;
    3d1c:	462c      	mov	r4, r5
    i = sz0 = primary_slot_sz = 0;
    3d1e:	4629      	mov	r1, r5
    j = sz1 = secondary_slot_sz = 0;
    3d20:	46a9      	mov	r9, r5
    i = sz0 = primary_slot_sz = 0;
    3d22:	46ae      	mov	lr, r5
    j = sz1 = secondary_slot_sz = 0;
    3d24:	462a      	mov	r2, r5
    i = sz0 = primary_slot_sz = 0;
    3d26:	462b      	mov	r3, r5
    while (i < num_sectors_primary || j < num_sectors_secondary) {
    3d28:	e019      	b.n	3d5e <boot_slots_compatible+0x5e>
        BOOT_LOG_WRN("Cannot upgrade: more sectors than allowed");
    3d2a:	4831      	ldr	r0, [pc, #196]	; (3df0 <boot_slots_compatible+0xf0>)
    3d2c:	f000 fde4 	bl	48f8 <puts>
        return 0;
    3d30:	2000      	movs	r0, #0
}
    3d32:	e8bd 8ff8 	ldmia.w	sp!, {r3, r4, r5, r6, r7, r8, r9, sl, fp, pc}
    return BOOT_IMG(state, slot).sectors[sector].fa_size;
    3d36:	6a46      	ldr	r6, [r0, #36]	; 0x24
    3d38:	eb01 0b41 	add.w	fp, r1, r1, lsl #1
    3d3c:	ea4f 0a8b 	mov.w	sl, fp, lsl #2
    3d40:	4456      	add	r6, sl
    3d42:	68b6      	ldr	r6, [r6, #8]
            sz0 += boot_img_sector_size(state, BOOT_PRIMARY_SLOT, i);
    3d44:	4433      	add	r3, r6
    3d46:	6d06      	ldr	r6, [r0, #80]	; 0x50
    3d48:	eb04 0b44 	add.w	fp, r4, r4, lsl #1
    3d4c:	ea4f 0a8b 	mov.w	sl, fp, lsl #2
    3d50:	4456      	add	r6, sl
    3d52:	68b6      	ldr	r6, [r6, #8]
            sz1 += boot_img_sector_size(state, BOOT_SECONDARY_SLOT, j);
    3d54:	4432      	add	r2, r6
            i++;
    3d56:	3101      	adds	r1, #1
            j++;
    3d58:	3401      	adds	r4, #1
        if (sz0 == sz1) {
    3d5a:	4293      	cmp	r3, r2
    3d5c:	d02b      	beq.n	3db6 <boot_slots_compatible+0xb6>
    while (i < num_sectors_primary || j < num_sectors_secondary) {
    3d5e:	42b9      	cmp	r1, r7
    3d60:	d301      	bcc.n	3d66 <boot_slots_compatible+0x66>
    3d62:	4564      	cmp	r4, ip
    3d64:	d236      	bcs.n	3dd4 <boot_slots_compatible+0xd4>
        if (sz0 == sz1) {
    3d66:	4293      	cmp	r3, r2
    3d68:	d0e5      	beq.n	3d36 <boot_slots_compatible+0x36>
        } else if (sz0 < sz1) {
    3d6a:	4293      	cmp	r3, r2
    3d6c:	d211      	bcs.n	3d92 <boot_slots_compatible+0x92>
    3d6e:	6a46      	ldr	r6, [r0, #36]	; 0x24
    3d70:	eb01 0b41 	add.w	fp, r1, r1, lsl #1
    3d74:	ea4f 0a8b 	mov.w	sl, fp, lsl #2
    3d78:	4456      	add	r6, sl
    3d7a:	68b6      	ldr	r6, [r6, #8]
            sz0 += boot_img_sector_size(state, BOOT_PRIMARY_SLOT, i);
    3d7c:	4433      	add	r3, r6
            if (smaller == 2) {
    3d7e:	2d02      	cmp	r5, #2
    3d80:	d002      	beq.n	3d88 <boot_slots_compatible+0x88>
            i++;
    3d82:	3101      	adds	r1, #1
            smaller = 1;
    3d84:	2501      	movs	r5, #1
    3d86:	e7e8      	b.n	3d5a <boot_slots_compatible+0x5a>
                BOOT_LOG_WRN("Cannot upgrade: slots have non-compatible sectors");
    3d88:	481a      	ldr	r0, [pc, #104]	; (3df4 <boot_slots_compatible+0xf4>)
    3d8a:	f000 fdb5 	bl	48f8 <puts>
                return 0;
    3d8e:	2000      	movs	r0, #0
    3d90:	e7cf      	b.n	3d32 <boot_slots_compatible+0x32>
    3d92:	6d06      	ldr	r6, [r0, #80]	; 0x50
    3d94:	eb04 0b44 	add.w	fp, r4, r4, lsl #1
    3d98:	ea4f 0a8b 	mov.w	sl, fp, lsl #2
    3d9c:	4456      	add	r6, sl
    3d9e:	68b6      	ldr	r6, [r6, #8]
            sz1 += boot_img_sector_size(state, BOOT_SECONDARY_SLOT, j);
    3da0:	4432      	add	r2, r6
            if (smaller == 1) {
    3da2:	2d01      	cmp	r5, #1
    3da4:	d002      	beq.n	3dac <boot_slots_compatible+0xac>
            j++;
    3da6:	3401      	adds	r4, #1
            smaller = 2;
    3da8:	2502      	movs	r5, #2
    3daa:	e7d6      	b.n	3d5a <boot_slots_compatible+0x5a>
                BOOT_LOG_WRN("Cannot upgrade: slots have non-compatible sectors");
    3dac:	4811      	ldr	r0, [pc, #68]	; (3df4 <boot_slots_compatible+0xf4>)
    3dae:	f000 fda3 	bl	48f8 <puts>
                return 0;
    3db2:	2000      	movs	r0, #0
    3db4:	e7bd      	b.n	3d32 <boot_slots_compatible+0x32>
            primary_slot_sz += sz0;
    3db6:	449e      	add	lr, r3
            secondary_slot_sz += sz1;
    3db8:	4491      	add	r9, r2
            if (sz0 > scratch_sz || sz1 > scratch_sz) {
    3dba:	4543      	cmp	r3, r8
    3dbc:	d805      	bhi.n	3dca <boot_slots_compatible+0xca>
    3dbe:	4542      	cmp	r2, r8
    3dc0:	d803      	bhi.n	3dca <boot_slots_compatible+0xca>
            smaller = sz0 = sz1 = 0;
    3dc2:	2500      	movs	r5, #0
    3dc4:	462a      	mov	r2, r5
    3dc6:	462b      	mov	r3, r5
    3dc8:	e7c9      	b.n	3d5e <boot_slots_compatible+0x5e>
                BOOT_LOG_WRN("Cannot upgrade: not all sectors fit inside scratch");
    3dca:	480b      	ldr	r0, [pc, #44]	; (3df8 <boot_slots_compatible+0xf8>)
    3dcc:	f000 fd94 	bl	48f8 <puts>
                return 0;
    3dd0:	2000      	movs	r0, #0
    3dd2:	e7ae      	b.n	3d32 <boot_slots_compatible+0x32>
    if ((i != num_sectors_primary) ||
    3dd4:	42b9      	cmp	r1, r7
    3dd6:	d101      	bne.n	3ddc <boot_slots_compatible+0xdc>
    3dd8:	4564      	cmp	r4, ip
    3dda:	d004      	beq.n	3de6 <boot_slots_compatible+0xe6>
        BOOT_LOG_WRN("Cannot upgrade: slots are not compatible");
    3ddc:	4807      	ldr	r0, [pc, #28]	; (3dfc <boot_slots_compatible+0xfc>)
    3dde:	f000 fd8b 	bl	48f8 <puts>
        return 0;
    3de2:	2000      	movs	r0, #0
    3de4:	e7a5      	b.n	3d32 <boot_slots_compatible+0x32>
        (j != num_sectors_secondary) ||
    3de6:	45ce      	cmp	lr, r9
    3de8:	d1f8      	bne.n	3ddc <boot_slots_compatible+0xdc>
    return 1;
    3dea:	2001      	movs	r0, #1
    3dec:	e7a1      	b.n	3d32 <boot_slots_compatible+0x32>
    3dee:	bf00      	nop
    3df0:	00005d14 	.word	0x00005d14
    3df4:	00005d44 	.word	0x00005d44
    3df8:	00005d7c 	.word	0x00005d7c
    3dfc:	00005db8 	.word	0x00005db8

00003e00 <swap_status_source>:
{
    3e00:	b530      	push	{r4, r5, lr}
    3e02:	b087      	sub	sp, #28
    rc = boot_read_swap_state_by_id(FLASH_AREA_IMAGE_PRIMARY(image_index),
    3e04:	a902      	add	r1, sp, #8
    3e06:	2001      	movs	r0, #1
    3e08:	f7fe fe90 	bl	2b2c <boot_read_swap_state_by_id>
    assert(rc == 0);
    3e0c:	bb68      	cbnz	r0, 3e6a <swap_status_source+0x6a>
    rc = boot_read_swap_state_by_id(FLASH_AREA_IMAGE_SCRATCH, &state_scratch);
    3e0e:	a904      	add	r1, sp, #16
    3e10:	2003      	movs	r0, #3
    3e12:	f7fe fe8b 	bl	2b2c <boot_read_swap_state_by_id>
    assert(rc == 0);
    3e16:	4605      	mov	r5, r0
    3e18:	bb88      	cbnz	r0, 3e7e <swap_status_source+0x7e>
    BOOT_LOG_SWAP_STATE("Primary image", &state_primary_slot);
    3e1a:	f89d 3008 	ldrb.w	r3, [sp, #8]
    3e1e:	2b01      	cmp	r3, #1
    3e20:	d039      	beq.n	3e96 <swap_status_source+0x96>
    3e22:	2b03      	cmp	r3, #3
    3e24:	d035      	beq.n	3e92 <swap_status_source+0x92>
    3e26:	4a3c      	ldr	r2, [pc, #240]	; (3f18 <swap_status_source+0x118>)
    3e28:	f89d 3009 	ldrb.w	r3, [sp, #9]
    3e2c:	f89d 100a 	ldrb.w	r1, [sp, #10]
    3e30:	f89d 000b 	ldrb.w	r0, [sp, #11]
    3e34:	9001      	str	r0, [sp, #4]
    3e36:	9100      	str	r1, [sp, #0]
    3e38:	4938      	ldr	r1, [pc, #224]	; (3f1c <swap_status_source+0x11c>)
    3e3a:	4839      	ldr	r0, [pc, #228]	; (3f20 <swap_status_source+0x120>)
    3e3c:	f001 f85e 	bl	4efc <printf>
    BOOT_LOG_SWAP_STATE("Scratch", &state_scratch);
    3e40:	f89d 3010 	ldrb.w	r3, [sp, #16]
    3e44:	2b01      	cmp	r3, #1
    3e46:	d02a      	beq.n	3e9e <swap_status_source+0x9e>
    3e48:	2b03      	cmp	r3, #3
    3e4a:	d026      	beq.n	3e9a <swap_status_source+0x9a>
    3e4c:	4a32      	ldr	r2, [pc, #200]	; (3f18 <swap_status_source+0x118>)
    3e4e:	f89d 3011 	ldrb.w	r3, [sp, #17]
    3e52:	f89d 1012 	ldrb.w	r1, [sp, #18]
    3e56:	f89d 0013 	ldrb.w	r0, [sp, #19]
    3e5a:	9001      	str	r0, [sp, #4]
    3e5c:	9100      	str	r1, [sp, #0]
    3e5e:	4931      	ldr	r1, [pc, #196]	; (3f24 <swap_status_source+0x124>)
    3e60:	482f      	ldr	r0, [pc, #188]	; (3f20 <swap_status_source+0x120>)
    3e62:	f001 f84b 	bl	4efc <printf>
    for (i = 0; i < BOOT_STATUS_TABLES_COUNT; i++) {
    3e66:	2400      	movs	r4, #0
    3e68:	e025      	b.n	3eb6 <swap_status_source+0xb6>
    assert(rc == 0);
    3e6a:	f7fc f97b 	bl	164 <hal_debugger_connected>
    3e6e:	b100      	cbz	r0, 3e72 <swap_status_source+0x72>
    3e70:	be01      	bkpt	0x0001
    3e72:	2300      	movs	r3, #0
    3e74:	461a      	mov	r2, r3
    3e76:	4619      	mov	r1, r3
    3e78:	4618      	mov	r0, r3
    3e7a:	f7fd fc9b 	bl	17b4 <__assert_func>
    assert(rc == 0);
    3e7e:	f7fc f971 	bl	164 <hal_debugger_connected>
    3e82:	b100      	cbz	r0, 3e86 <swap_status_source+0x86>
    3e84:	be01      	bkpt	0x0001
    3e86:	2300      	movs	r3, #0
    3e88:	461a      	mov	r2, r3
    3e8a:	4619      	mov	r1, r3
    3e8c:	4618      	mov	r0, r3
    3e8e:	f7fd fc91 	bl	17b4 <__assert_func>
    BOOT_LOG_SWAP_STATE("Primary image", &state_primary_slot);
    3e92:	4a25      	ldr	r2, [pc, #148]	; (3f28 <swap_status_source+0x128>)
    3e94:	e7c8      	b.n	3e28 <swap_status_source+0x28>
    3e96:	4a25      	ldr	r2, [pc, #148]	; (3f2c <swap_status_source+0x12c>)
    3e98:	e7c6      	b.n	3e28 <swap_status_source+0x28>
    BOOT_LOG_SWAP_STATE("Scratch", &state_scratch);
    3e9a:	4a23      	ldr	r2, [pc, #140]	; (3f28 <swap_status_source+0x128>)
    3e9c:	e7d7      	b.n	3e4e <swap_status_source+0x4e>
    3e9e:	4a23      	ldr	r2, [pc, #140]	; (3f2c <swap_status_source+0x12c>)
    3ea0:	e7d5      	b.n	3e4e <swap_status_source+0x4e>
            BOOT_LOG_INF("Boot source: %s",
    3ea2:	4923      	ldr	r1, [pc, #140]	; (3f30 <swap_status_source+0x130>)
    3ea4:	e000      	b.n	3ea8 <swap_status_source+0xa8>
    3ea6:	4923      	ldr	r1, [pc, #140]	; (3f34 <swap_status_source+0x134>)
    3ea8:	4823      	ldr	r0, [pc, #140]	; (3f38 <swap_status_source+0x138>)
    3eaa:	f001 f827 	bl	4efc <printf>
            return source;
    3eae:	e030      	b.n	3f12 <swap_status_source+0x112>
            BOOT_LOG_INF("Boot source: %s",
    3eb0:	4922      	ldr	r1, [pc, #136]	; (3f3c <swap_status_source+0x13c>)
    3eb2:	e7f9      	b.n	3ea8 <swap_status_source+0xa8>
    for (i = 0; i < BOOT_STATUS_TABLES_COUNT; i++) {
    3eb4:	3401      	adds	r4, #1
    3eb6:	2c03      	cmp	r4, #3
    3eb8:	d828      	bhi.n	3f0c <swap_status_source+0x10c>
        if (boot_magic_compatible_check(table->bst_magic_primary_slot,
    3eba:	f89d 1008 	ldrb.w	r1, [sp, #8]
    3ebe:	4b20      	ldr	r3, [pc, #128]	; (3f40 <swap_status_source+0x140>)
    3ec0:	f813 0024 	ldrb.w	r0, [r3, r4, lsl #2]
    3ec4:	f7fe fd92 	bl	29ec <boot_magic_compatible_check>
    3ec8:	2800      	cmp	r0, #0
    3eca:	d0f3      	beq.n	3eb4 <swap_status_source+0xb4>
            boot_magic_compatible_check(table->bst_magic_scratch,
    3ecc:	4b1c      	ldr	r3, [pc, #112]	; (3f40 <swap_status_source+0x140>)
    3ece:	eb03 0384 	add.w	r3, r3, r4, lsl #2
    3ed2:	f89d 1010 	ldrb.w	r1, [sp, #16]
    3ed6:	7858      	ldrb	r0, [r3, #1]
    3ed8:	f7fe fd88 	bl	29ec <boot_magic_compatible_check>
                          state_primary_slot.magic) &&
    3edc:	2800      	cmp	r0, #0
    3ede:	d0e9      	beq.n	3eb4 <swap_status_source+0xb4>
            (table->bst_copy_done_primary_slot == BOOT_FLAG_ANY ||
    3ee0:	4b17      	ldr	r3, [pc, #92]	; (3f40 <swap_status_source+0x140>)
    3ee2:	eb03 0384 	add.w	r3, r3, r4, lsl #2
    3ee6:	789b      	ldrb	r3, [r3, #2]
                          state_scratch.magic) &&
    3ee8:	2b04      	cmp	r3, #4
    3eea:	d003      	beq.n	3ef4 <swap_status_source+0xf4>
             table->bst_copy_done_primary_slot == state_primary_slot.copy_done))
    3eec:	f89d 200a 	ldrb.w	r2, [sp, #10]
            (table->bst_copy_done_primary_slot == BOOT_FLAG_ANY ||
    3ef0:	4293      	cmp	r3, r2
    3ef2:	d1df      	bne.n	3eb4 <swap_status_source+0xb4>
            source = table->bst_status_source;
    3ef4:	4b12      	ldr	r3, [pc, #72]	; (3f40 <swap_status_source+0x140>)
    3ef6:	eb03 0484 	add.w	r4, r3, r4, lsl #2
    3efa:	78e5      	ldrb	r5, [r4, #3]
            BOOT_LOG_INF("Boot source: %s",
    3efc:	2d00      	cmp	r5, #0
    3efe:	d0d2      	beq.n	3ea6 <swap_status_source+0xa6>
    3f00:	2d01      	cmp	r5, #1
    3f02:	d0d5      	beq.n	3eb0 <swap_status_source+0xb0>
    3f04:	2d02      	cmp	r5, #2
    3f06:	d0cc      	beq.n	3ea2 <swap_status_source+0xa2>
    3f08:	490e      	ldr	r1, [pc, #56]	; (3f44 <swap_status_source+0x144>)
    3f0a:	e7cd      	b.n	3ea8 <swap_status_source+0xa8>
    BOOT_LOG_INF("Boot source: none");
    3f0c:	480e      	ldr	r0, [pc, #56]	; (3f48 <swap_status_source+0x148>)
    3f0e:	f000 fcf3 	bl	48f8 <puts>
}
    3f12:	4628      	mov	r0, r5
    3f14:	b007      	add	sp, #28
    3f16:	bd30      	pop	{r4, r5, pc}
    3f18:	00005e1c 	.word	0x00005e1c
    3f1c:	00005e50 	.word	0x00005e50
    3f20:	00005e60 	.word	0x00005e60
    3f24:	00005ea4 	.word	0x00005ea4
    3f28:	00005e28 	.word	0x00005e28
    3f2c:	00005e20 	.word	0x00005e20
    3f30:	00005e40 	.word	0x00005e40
    3f34:	00005e38 	.word	0x00005e38
    3f38:	00005eac 	.word	0x00005eac
    3f3c:	00005e30 	.word	0x00005e30
    3f40:	00005de8 	.word	0x00005de8
    3f44:	00005bb0 	.word	0x00005bb0
    3f48:	00005ec4 	.word	0x00005ec4

00003f4c <swap_run>:

void
swap_run(struct boot_loader_state *state, struct boot_status *bs,
         uint32_t copy_size)
{
    3f4c:	b5f0      	push	{r4, r5, r6, r7, lr}
    3f4e:	b083      	sub	sp, #12
    3f50:	4605      	mov	r5, r0
    3f52:	460e      	mov	r6, r1
    uint32_t swap_idx;
    int last_idx_secondary_slot;
    uint32_t primary_slot_size;
    uint32_t secondary_slot_size;
    primary_slot_size = 0;
    secondary_slot_size = 0;
    3f54:	2000      	movs	r0, #0
    primary_slot_size = 0;
    3f56:	4603      	mov	r3, r0
    last_sector_idx = 0;
    3f58:	4601      	mov	r1, r0
    3f5a:	e000      	b.n	3f5e <swap_run+0x12>
        if (primary_slot_size >= copy_size &&
                secondary_slot_size >= copy_size &&
                primary_slot_size == secondary_slot_size) {
            break;
        }
        last_sector_idx++;
    3f5c:	3101      	adds	r1, #1
        if ((primary_slot_size < copy_size) ||
    3f5e:	4293      	cmp	r3, r2
    3f60:	d301      	bcc.n	3f66 <swap_run+0x1a>
    3f62:	4283      	cmp	r3, r0
    3f64:	d207      	bcs.n	3f76 <swap_run+0x2a>
    3f66:	6a6c      	ldr	r4, [r5, #36]	; 0x24
    3f68:	eb01 0c41 	add.w	ip, r1, r1, lsl #1
    3f6c:	ea4f 078c 	mov.w	r7, ip, lsl #2
    3f70:	443c      	add	r4, r7
    3f72:	68a4      	ldr	r4, [r4, #8]
           primary_slot_size += boot_img_sector_size(state,
    3f74:	4423      	add	r3, r4
        if ((secondary_slot_size < copy_size) ||
    3f76:	4290      	cmp	r0, r2
    3f78:	d301      	bcc.n	3f7e <swap_run+0x32>
    3f7a:	4283      	cmp	r3, r0
    3f7c:	d907      	bls.n	3f8e <swap_run+0x42>
    3f7e:	6d2c      	ldr	r4, [r5, #80]	; 0x50
    3f80:	eb01 0c41 	add.w	ip, r1, r1, lsl #1
    3f84:	ea4f 078c 	mov.w	r7, ip, lsl #2
    3f88:	443c      	add	r4, r7
    3f8a:	68a4      	ldr	r4, [r4, #8]
           secondary_slot_size += boot_img_sector_size(state,
    3f8c:	4420      	add	r0, r4
        if (primary_slot_size >= copy_size &&
    3f8e:	4293      	cmp	r3, r2
    3f90:	d3e4      	bcc.n	3f5c <swap_run+0x10>
    3f92:	4290      	cmp	r0, r2
    3f94:	d3e2      	bcc.n	3f5c <swap_run+0x10>
                secondary_slot_size >= copy_size &&
    3f96:	4283      	cmp	r3, r0
    3f98:	d1e0      	bne.n	3f5c <swap_run+0x10>
        last_idx_secondary_slot++;
    }

    swap_idx = 0;
    3f9a:	2400      	movs	r4, #0
    3f9c:	e002      	b.n	3fa4 <swap_run+0x58>
        sz = boot_copy_sz(state, last_sector_idx, &first_sector_idx);
        if (swap_idx >= (bs->idx - BOOT_STATUS_IDX_0)) {
            boot_swap_sectors(first_sector_idx, sz, state, bs);
        }

        last_sector_idx = first_sector_idx - 1;
    3f9e:	9901      	ldr	r1, [sp, #4]
    3fa0:	3901      	subs	r1, #1
        swap_idx++;
    3fa2:	3401      	adds	r4, #1
    while (last_sector_idx >= 0) {
    3fa4:	2900      	cmp	r1, #0
    3fa6:	db0e      	blt.n	3fc6 <swap_run+0x7a>
        sz = boot_copy_sz(state, last_sector_idx, &first_sector_idx);
    3fa8:	aa01      	add	r2, sp, #4
    3faa:	4628      	mov	r0, r5
    3fac:	f7ff fc0d 	bl	37ca <boot_copy_sz>
        if (swap_idx >= (bs->idx - BOOT_STATUS_IDX_0)) {
    3fb0:	6833      	ldr	r3, [r6, #0]
    3fb2:	3b01      	subs	r3, #1
    3fb4:	42a3      	cmp	r3, r4
    3fb6:	d8f2      	bhi.n	3f9e <swap_run+0x52>
            boot_swap_sectors(first_sector_idx, sz, state, bs);
    3fb8:	4633      	mov	r3, r6
    3fba:	462a      	mov	r2, r5
    3fbc:	4601      	mov	r1, r0
    3fbe:	9801      	ldr	r0, [sp, #4]
    3fc0:	f7ff fc1a 	bl	37f8 <boot_swap_sectors>
    3fc4:	e7eb      	b.n	3f9e <swap_run+0x52>
    }

}
    3fc6:	b003      	add	sp, #12
    3fc8:	bdf0      	pop	{r4, r5, r6, r7, pc}

00003fca <bootutil_img_hash>:
static int
bootutil_img_hash(struct enc_key_data *enc_state, int image_index,
                  struct image_header *hdr, const struct flash_area *fap,
                  uint8_t *tmp_buf, uint32_t tmp_buf_sz, uint8_t *hash_result,
                  uint8_t *seed, int seed_len)
{
    3fca:	e92d 43f0 	stmdb	sp!, {r4, r5, r6, r7, r8, r9, lr}
    3fce:	b09d      	sub	sp, #116	; 0x74
    3fd0:	4615      	mov	r5, r2
    3fd2:	4699      	mov	r9, r3
    3fd4:	9f24      	ldr	r7, [sp, #144]	; 0x90
    3fd6:	f8dd 8094 	ldr.w	r8, [sp, #148]	; 0x94
    3fda:	9c27      	ldr	r4, [sp, #156]	; 0x9c
#ifdef MCUBOOT_USE_MBED_TLS
typedef mbedtls_sha256_context bootutil_sha256_context;

static inline void bootutil_sha256_init(bootutil_sha256_context *ctx)
{
    mbedtls_sha256_init(ctx);
    3fdc:	a801      	add	r0, sp, #4
    3fde:	f000 f95a 	bl	4296 <mbedtls_sha256_init>
    (void)mbedtls_sha256_starts_ret(ctx, 0);
    3fe2:	2100      	movs	r1, #0
    3fe4:	a801      	add	r0, sp, #4
    3fe6:	f000 f95d 	bl	42a4 <mbedtls_sha256_starts_ret>

    bootutil_sha256_init(&sha256_ctx);

    /* in some cases (split image) the hash is seeded with data from
     * the loader image */
    if (seed && (seed_len > 0)) {
    3fea:	b114      	cbz	r4, 3ff2 <bootutil_img_hash+0x28>
    3fec:	9b28      	ldr	r3, [sp, #160]	; 0xa0
    3fee:	2b00      	cmp	r3, #0
    3ff0:	dc06      	bgt.n	4000 <bootutil_img_hash+0x36>
        bootutil_sha256_update(&sha256_ctx, seed, seed_len);
    }

    /* Hash is computed over image header and image itself. */
    size = hdr_size = hdr->ih_hdr_size;
    3ff2:	892b      	ldrh	r3, [r5, #8]
    size += hdr->ih_img_size;
    3ff4:	68ee      	ldr	r6, [r5, #12]
    3ff6:	4433      	add	r3, r6
    tlv_off = size;

    /* If protected TLVs are present they are also hashed. */
    size += hdr->ih_protect_tlv_size;
    3ff8:	896e      	ldrh	r6, [r5, #10]
    3ffa:	441e      	add	r6, r3

    for (off = 0; off < size; off += blk_sz) {
    3ffc:	2500      	movs	r5, #0
    3ffe:	e013      	b.n	4028 <bootutil_img_hash+0x5e>

static inline void bootutil_sha256_update(bootutil_sha256_context *ctx,
                                          const void *data,
                                          uint32_t data_len)
{
    (void)mbedtls_sha256_update_ret(ctx, data, data_len);
    4000:	461a      	mov	r2, r3
    4002:	4621      	mov	r1, r4
    4004:	a801      	add	r0, sp, #4
    4006:	f000 fa33 	bl	4470 <mbedtls_sha256_update_ret>
    400a:	e7f2      	b.n	3ff2 <bootutil_img_hash+0x28>
        if ((off < tlv_off) && ((off + blk_sz) > tlv_off)) {
            /* read only up to the end of the image payload */
            blk_sz = tlv_off - off;
        }
#endif
        rc = flash_area_read(fap, off, tmp_buf, blk_sz);
    400c:	4623      	mov	r3, r4
    400e:	463a      	mov	r2, r7
    4010:	4629      	mov	r1, r5
    4012:	4648      	mov	r0, r9
    4014:	f001 f8aa 	bl	516c <flash_area_read>
        if (rc) {
    4018:	4603      	mov	r3, r0
    401a:	b988      	cbnz	r0, 4040 <bootutil_img_hash+0x76>
    401c:	4622      	mov	r2, r4
    401e:	4639      	mov	r1, r7
    4020:	a801      	add	r0, sp, #4
    4022:	f000 fa25 	bl	4470 <mbedtls_sha256_update_ret>
    for (off = 0; off < size; off += blk_sz) {
    4026:	4425      	add	r5, r4
    4028:	42b5      	cmp	r5, r6
    402a:	d204      	bcs.n	4036 <bootutil_img_hash+0x6c>
        blk_sz = size - off;
    402c:	1b74      	subs	r4, r6, r5
        if (blk_sz > tmp_buf_sz) {
    402e:	4544      	cmp	r4, r8
    4030:	d9ec      	bls.n	400c <bootutil_img_hash+0x42>
            blk_sz = tmp_buf_sz;
    4032:	4644      	mov	r4, r8
    4034:	e7ea      	b.n	400c <bootutil_img_hash+0x42>
}

static inline void bootutil_sha256_finish(bootutil_sha256_context *ctx,
                                          uint8_t *output)
{
    (void)mbedtls_sha256_finish_ret(ctx, output);
    4036:	9926      	ldr	r1, [sp, #152]	; 0x98
    4038:	a801      	add	r0, sp, #4
    403a:	f000 fa5c 	bl	44f6 <mbedtls_sha256_finish_ret>
#endif
        bootutil_sha256_update(&sha256_ctx, tmp_buf, blk_sz);
    }
    bootutil_sha256_finish(&sha256_ctx, hash_result);

    return 0;
    403e:	2300      	movs	r3, #0
}
    4040:	4618      	mov	r0, r3
    4042:	b01d      	add	sp, #116	; 0x74
    4044:	e8bd 83f0 	ldmia.w	sp!, {r4, r5, r6, r7, r8, r9, pc}

00004048 <bootutil_img_validate>:
int
bootutil_img_validate(struct enc_key_data *enc_state, int image_index,
                      struct image_header *hdr, const struct flash_area *fap,
                      uint8_t *tmp_buf, uint32_t tmp_buf_sz, uint8_t *seed,
                      int seed_len, uint8_t *out_hash)
{
    4048:	b5f0      	push	{r4, r5, r6, r7, lr}
    404a:	b09f      	sub	sp, #124	; 0x7c
    404c:	4617      	mov	r7, r2
    404e:	461e      	mov	r6, r3
    4050:	9d28      	ldr	r5, [sp, #160]	; 0xa0
    struct image_tlv_iter it;
    uint8_t buf[SIG_BUF_SIZE];
    uint8_t hash[32];
    int rc;

    rc = bootutil_img_hash(enc_state, image_index, hdr, fap, tmp_buf,
    4052:	9c27      	ldr	r4, [sp, #156]	; 0x9c
    4054:	9404      	str	r4, [sp, #16]
    4056:	9c26      	ldr	r4, [sp, #152]	; 0x98
    4058:	9403      	str	r4, [sp, #12]
    405a:	ac06      	add	r4, sp, #24
    405c:	9402      	str	r4, [sp, #8]
    405e:	9c25      	ldr	r4, [sp, #148]	; 0x94
    4060:	9401      	str	r4, [sp, #4]
    4062:	9c24      	ldr	r4, [sp, #144]	; 0x90
    4064:	9400      	str	r4, [sp, #0]
    4066:	f7ff ffb0 	bl	3fca <bootutil_img_hash>
            tmp_buf_sz, hash, seed, seed_len);
    if (rc) {
    406a:	4604      	mov	r4, r0
    406c:	2800      	cmp	r0, #0
    406e:	d140      	bne.n	40f2 <bootutil_img_validate+0xaa>
        return rc;
    }

    if (out_hash) {
    4070:	b155      	cbz	r5, 4088 <bootutil_img_validate+0x40>
        memcpy(out_hash, hash, 32);
    4072:	ac06      	add	r4, sp, #24
    4074:	cc0f      	ldmia	r4!, {r0, r1, r2, r3}
    4076:	6028      	str	r0, [r5, #0]
    4078:	6069      	str	r1, [r5, #4]
    407a:	60aa      	str	r2, [r5, #8]
    407c:	60eb      	str	r3, [r5, #12]
    407e:	cc0f      	ldmia	r4!, {r0, r1, r2, r3}
    4080:	6128      	str	r0, [r5, #16]
    4082:	6169      	str	r1, [r5, #20]
    4084:	61aa      	str	r2, [r5, #24]
    4086:	61eb      	str	r3, [r5, #28]
    }

    rc = bootutil_tlv_iter_begin(&it, hdr, fap, IMAGE_TLV_ANY, false);
    4088:	2300      	movs	r3, #0
    408a:	9300      	str	r3, [sp, #0]
    408c:	f64f 73ff 	movw	r3, #65535	; 0xffff
    4090:	4632      	mov	r2, r6
    4092:	4639      	mov	r1, r7
    4094:	a816      	add	r0, sp, #88	; 0x58
    4096:	f000 f834 	bl	4102 <bootutil_tlv_iter_begin>
    if (rc) {
    409a:	4604      	mov	r4, r0
    409c:	bb48      	cbnz	r0, 40f2 <bootutil_img_validate+0xaa>
    int sha256_valid = 0;
    409e:	4605      	mov	r5, r0
    /*
     * Traverse through all of the TLVs, performing any checks we know
     * and are able to do.
     */
    while (true) {
        rc = bootutil_tlv_iter_next(&it, &off, &len, &type);
    40a0:	ab1c      	add	r3, sp, #112	; 0x70
    40a2:	f10d 0272 	add.w	r2, sp, #114	; 0x72
    40a6:	a91d      	add	r1, sp, #116	; 0x74
    40a8:	a816      	add	r0, sp, #88	; 0x58
    40aa:	f000 f88f 	bl	41cc <bootutil_tlv_iter_next>
        if (rc < 0) {
    40ae:	2800      	cmp	r0, #0
    40b0:	db1d      	blt.n	40ee <bootutil_img_validate+0xa6>
            return -1;
        } else if (rc > 0) {
    40b2:	dc18      	bgt.n	40e6 <bootutil_img_validate+0x9e>
            break;
        }

        if (type == IMAGE_TLV_SHA256) {
    40b4:	f8bd 3070 	ldrh.w	r3, [sp, #112]	; 0x70
    40b8:	2b10      	cmp	r3, #16
    40ba:	d1f1      	bne.n	40a0 <bootutil_img_validate+0x58>
            /*
             * Verify the SHA256 image hash.  This must always be
             * present.
             */
            if (len != sizeof(hash)) {
    40bc:	f8bd 3072 	ldrh.w	r3, [sp, #114]	; 0x72
    40c0:	2b20      	cmp	r3, #32
    40c2:	d119      	bne.n	40f8 <bootutil_img_validate+0xb0>
                return -1;
            }
            rc = flash_area_read(fap, off, buf, sizeof hash);
    40c4:	aa0e      	add	r2, sp, #56	; 0x38
    40c6:	991d      	ldr	r1, [sp, #116]	; 0x74
    40c8:	4630      	mov	r0, r6
    40ca:	f001 f84f 	bl	516c <flash_area_read>
            if (rc) {
    40ce:	b9b0      	cbnz	r0, 40fe <bootutil_img_validate+0xb6>
                return rc;
            }
            if (memcmp(hash, buf, sizeof(hash))) {
    40d0:	2220      	movs	r2, #32
    40d2:	a90e      	add	r1, sp, #56	; 0x38
    40d4:	a806      	add	r0, sp, #24
    40d6:	f7fd feaa 	bl	1e2e <memcmp>
                return -1;
            }

            sha256_valid = 1;
    40da:	2501      	movs	r5, #1
            if (memcmp(hash, buf, sizeof(hash))) {
    40dc:	2800      	cmp	r0, #0
    40de:	d0df      	beq.n	40a0 <bootutil_img_validate+0x58>
                return -1;
    40e0:	f04f 34ff 	mov.w	r4, #4294967295	; 0xffffffff
    40e4:	e005      	b.n	40f2 <bootutil_img_validate+0xaa>
            key_id = -1;
#endif
        }
    }

    if (!sha256_valid) {
    40e6:	b925      	cbnz	r5, 40f2 <bootutil_img_validate+0xaa>
        return -1;
    40e8:	f04f 34ff 	mov.w	r4, #4294967295	; 0xffffffff
    40ec:	e001      	b.n	40f2 <bootutil_img_validate+0xaa>
            return -1;
    40ee:	f04f 34ff 	mov.w	r4, #4294967295	; 0xffffffff
        return -1;
    }
#endif

    return 0;
}
    40f2:	4620      	mov	r0, r4
    40f4:	b01f      	add	sp, #124	; 0x7c
    40f6:	bdf0      	pop	{r4, r5, r6, r7, pc}
                return -1;
    40f8:	f04f 34ff 	mov.w	r4, #4294967295	; 0xffffffff
    40fc:	e7f9      	b.n	40f2 <bootutil_img_validate+0xaa>
                return rc;
    40fe:	4604      	mov	r4, r0
    4100:	e7f7      	b.n	40f2 <bootutil_img_validate+0xaa>

00004102 <bootutil_tlv_iter_begin>:
 *          -1 on errors
 */
int
bootutil_tlv_iter_begin(struct image_tlv_iter *it, const struct image_header *hdr,
                        const struct flash_area *fap, uint16_t type, bool prot)
{
    4102:	e92d 43f0 	stmdb	sp!, {r4, r5, r6, r7, r8, r9, lr}
    4106:	b083      	sub	sp, #12
    uint32_t off_;
    struct image_tlv_info info;

    if (it == NULL || hdr == NULL || fap == NULL) {
    4108:	2800      	cmp	r0, #0
    410a:	d04a      	beq.n	41a2 <bootutil_tlv_iter_begin+0xa0>
    410c:	4605      	mov	r5, r0
    410e:	2900      	cmp	r1, #0
    4110:	d04a      	beq.n	41a8 <bootutil_tlv_iter_begin+0xa6>
    4112:	2a00      	cmp	r2, #0
    4114:	d04b      	beq.n	41ae <bootutil_tlv_iter_begin+0xac>
    4116:	4699      	mov	r9, r3
    4118:	4617      	mov	r7, r2
    411a:	460c      	mov	r4, r1
        return -1;
    }

    off_ = BOOT_TLV_OFF(hdr);
    411c:	890e      	ldrh	r6, [r1, #8]
    411e:	68cb      	ldr	r3, [r1, #12]
    4120:	441e      	add	r6, r3
    if (flash_area_read(fap, off_, &info, sizeof(info))) {
    4122:	2304      	movs	r3, #4
    4124:	eb0d 0203 	add.w	r2, sp, r3
    4128:	4631      	mov	r1, r6
    412a:	4638      	mov	r0, r7
    412c:	f001 f81e 	bl	516c <flash_area_read>
    4130:	4680      	mov	r8, r0
    4132:	2800      	cmp	r0, #0
    4134:	d13e      	bne.n	41b4 <bootutil_tlv_iter_begin+0xb2>
        return -1;
    }

    if (info.it_magic == IMAGE_TLV_PROT_INFO_MAGIC) {
    4136:	f8bd 2004 	ldrh.w	r2, [sp, #4]
    413a:	f646 1308 	movw	r3, #26888	; 0x6908
    413e:	429a      	cmp	r2, r3
    4140:	d01e      	beq.n	4180 <bootutil_tlv_iter_begin+0x7e>
        }

        if (flash_area_read(fap, off_ + info.it_tlv_tot, &info, sizeof(info))) {
            return -1;
        }
    } else if (hdr->ih_protect_tlv_size != 0) {
    4142:	8963      	ldrh	r3, [r4, #10]
    4144:	2b00      	cmp	r3, #0
    4146:	d13b      	bne.n	41c0 <bootutil_tlv_iter_begin+0xbe>
        return -1;
    }

    if (info.it_magic != IMAGE_TLV_INFO_MAGIC) {
    4148:	f8bd 2004 	ldrh.w	r2, [sp, #4]
    414c:	f646 1307 	movw	r3, #26887	; 0x6907
    4150:	429a      	cmp	r2, r3
    4152:	d138      	bne.n	41c6 <bootutil_tlv_iter_begin+0xc4>
        return -1;
    }

    it->hdr = hdr;
    4154:	602c      	str	r4, [r5, #0]
    it->fap = fap;
    4156:	606f      	str	r7, [r5, #4]
    it->type = type;
    4158:	f8a5 9008 	strh.w	r9, [r5, #8]
    it->prot = prot;
    415c:	f89d 3028 	ldrb.w	r3, [sp, #40]	; 0x28
    4160:	72ab      	strb	r3, [r5, #10]
    it->prot_end = off_ + it->hdr->ih_protect_tlv_size;
    4162:	8963      	ldrh	r3, [r4, #10]
    4164:	4433      	add	r3, r6
    4166:	60eb      	str	r3, [r5, #12]
    it->tlv_end = off_ + it->hdr->ih_protect_tlv_size + info.it_tlv_tot;
    4168:	8963      	ldrh	r3, [r4, #10]
    416a:	4433      	add	r3, r6
    416c:	f8bd 2006 	ldrh.w	r2, [sp, #6]
    4170:	4413      	add	r3, r2
    4172:	616b      	str	r3, [r5, #20]
    // position on first TLV
    it->tlv_off = off_ + sizeof(info);
    4174:	3604      	adds	r6, #4
    4176:	612e      	str	r6, [r5, #16]
    return 0;
}
    4178:	4640      	mov	r0, r8
    417a:	b003      	add	sp, #12
    417c:	e8bd 83f0 	ldmia.w	sp!, {r4, r5, r6, r7, r8, r9, pc}
        if (hdr->ih_protect_tlv_size != info.it_tlv_tot) {
    4180:	8963      	ldrh	r3, [r4, #10]
    4182:	f8bd 1006 	ldrh.w	r1, [sp, #6]
    4186:	428b      	cmp	r3, r1
    4188:	d117      	bne.n	41ba <bootutil_tlv_iter_begin+0xb8>
        if (flash_area_read(fap, off_ + info.it_tlv_tot, &info, sizeof(info))) {
    418a:	2304      	movs	r3, #4
    418c:	eb0d 0203 	add.w	r2, sp, r3
    4190:	4431      	add	r1, r6
    4192:	4638      	mov	r0, r7
    4194:	f000 ffea 	bl	516c <flash_area_read>
    4198:	2800      	cmp	r0, #0
    419a:	d0d5      	beq.n	4148 <bootutil_tlv_iter_begin+0x46>
            return -1;
    419c:	f04f 38ff 	mov.w	r8, #4294967295	; 0xffffffff
    41a0:	e7ea      	b.n	4178 <bootutil_tlv_iter_begin+0x76>
        return -1;
    41a2:	f04f 38ff 	mov.w	r8, #4294967295	; 0xffffffff
    41a6:	e7e7      	b.n	4178 <bootutil_tlv_iter_begin+0x76>
    41a8:	f04f 38ff 	mov.w	r8, #4294967295	; 0xffffffff
    41ac:	e7e4      	b.n	4178 <bootutil_tlv_iter_begin+0x76>
    41ae:	f04f 38ff 	mov.w	r8, #4294967295	; 0xffffffff
    41b2:	e7e1      	b.n	4178 <bootutil_tlv_iter_begin+0x76>
        return -1;
    41b4:	f04f 38ff 	mov.w	r8, #4294967295	; 0xffffffff
    41b8:	e7de      	b.n	4178 <bootutil_tlv_iter_begin+0x76>
            return -1;
    41ba:	f04f 38ff 	mov.w	r8, #4294967295	; 0xffffffff
    41be:	e7db      	b.n	4178 <bootutil_tlv_iter_begin+0x76>
        return -1;
    41c0:	f04f 38ff 	mov.w	r8, #4294967295	; 0xffffffff
    41c4:	e7d8      	b.n	4178 <bootutil_tlv_iter_begin+0x76>
        return -1;
    41c6:	f04f 38ff 	mov.w	r8, #4294967295	; 0xffffffff
    41ca:	e7d5      	b.n	4178 <bootutil_tlv_iter_begin+0x76>

000041cc <bootutil_tlv_iter_next>:
                       uint16_t *type)
{
    struct image_tlv tlv;
    int rc;

    if (it == NULL || it->hdr == NULL || it->fap == NULL) {
    41cc:	2800      	cmp	r0, #0
    41ce:	d04d      	beq.n	426c <bootutil_tlv_iter_next+0xa0>
{
    41d0:	b5f0      	push	{r4, r5, r6, r7, lr}
    41d2:	b083      	sub	sp, #12
    41d4:	4604      	mov	r4, r0
    if (it == NULL || it->hdr == NULL || it->fap == NULL) {
    41d6:	6800      	ldr	r0, [r0, #0]
    41d8:	2800      	cmp	r0, #0
    41da:	d04b      	beq.n	4274 <bootutil_tlv_iter_next+0xa8>
    41dc:	461d      	mov	r5, r3
    41de:	4616      	mov	r6, r2
    41e0:	460f      	mov	r7, r1
    41e2:	6863      	ldr	r3, [r4, #4]
    41e4:	bb0b      	cbnz	r3, 422a <bootutil_tlv_iter_next+0x5e>
        return -1;
    41e6:	f04f 31ff 	mov.w	r1, #4294967295	; 0xffffffff
    41ea:	e03a      	b.n	4262 <bootutil_tlv_iter_next+0x96>
    while (it->tlv_off < it->tlv_end) {
        if (it->hdr->ih_protect_tlv_size > 0 && it->tlv_off == it->prot_end) {
            it->tlv_off += sizeof(struct image_tlv_info);
        }

        rc = flash_area_read(it->fap, it->tlv_off, &tlv, sizeof tlv);
    41ec:	2304      	movs	r3, #4
    41ee:	eb0d 0203 	add.w	r2, sp, r3
    41f2:	6921      	ldr	r1, [r4, #16]
    41f4:	6860      	ldr	r0, [r4, #4]
    41f6:	f000 ffb9 	bl	516c <flash_area_read>
        if (rc) {
    41fa:	4601      	mov	r1, r0
    41fc:	2800      	cmp	r0, #0
    41fe:	d13c      	bne.n	427a <bootutil_tlv_iter_next+0xae>
            return -1;
        }

        /* No more TLVs in the protected area */
        if (it->prot && it->tlv_off >= it->prot_end) {
    4200:	7aa3      	ldrb	r3, [r4, #10]
    4202:	b11b      	cbz	r3, 420c <bootutil_tlv_iter_next+0x40>
    4204:	6922      	ldr	r2, [r4, #16]
    4206:	68e3      	ldr	r3, [r4, #12]
    4208:	429a      	cmp	r2, r3
    420a:	d239      	bcs.n	4280 <bootutil_tlv_iter_next+0xb4>
            return 1;
        }

        if (it->type == IMAGE_TLV_ANY || tlv.it_type == it->type) {
    420c:	8923      	ldrh	r3, [r4, #8]
    420e:	f64f 72ff 	movw	r2, #65535	; 0xffff
    4212:	4293      	cmp	r3, r2
    4214:	d017      	beq.n	4246 <bootutil_tlv_iter_next+0x7a>
    4216:	f8bd 2004 	ldrh.w	r2, [sp, #4]
    421a:	4293      	cmp	r3, r2
    421c:	d013      	beq.n	4246 <bootutil_tlv_iter_next+0x7a>
            *len = tlv.it_len;
            it->tlv_off += sizeof(tlv) + tlv.it_len;
            return 0;
        }

        it->tlv_off += sizeof(tlv) + tlv.it_len;
    421e:	f8bd 0006 	ldrh.w	r0, [sp, #6]
    4222:	6923      	ldr	r3, [r4, #16]
    4224:	4418      	add	r0, r3
    4226:	3004      	adds	r0, #4
    4228:	6120      	str	r0, [r4, #16]
    while (it->tlv_off < it->tlv_end) {
    422a:	6920      	ldr	r0, [r4, #16]
    422c:	6963      	ldr	r3, [r4, #20]
    422e:	4298      	cmp	r0, r3
    4230:	d21a      	bcs.n	4268 <bootutil_tlv_iter_next+0x9c>
        if (it->hdr->ih_protect_tlv_size > 0 && it->tlv_off == it->prot_end) {
    4232:	6823      	ldr	r3, [r4, #0]
    4234:	895b      	ldrh	r3, [r3, #10]
    4236:	2b00      	cmp	r3, #0
    4238:	d0d8      	beq.n	41ec <bootutil_tlv_iter_next+0x20>
    423a:	68e3      	ldr	r3, [r4, #12]
    423c:	4283      	cmp	r3, r0
    423e:	d1d5      	bne.n	41ec <bootutil_tlv_iter_next+0x20>
            it->tlv_off += sizeof(struct image_tlv_info);
    4240:	3004      	adds	r0, #4
    4242:	6120      	str	r0, [r4, #16]
    4244:	e7d2      	b.n	41ec <bootutil_tlv_iter_next+0x20>
            if (type != NULL) {
    4246:	b115      	cbz	r5, 424e <bootutil_tlv_iter_next+0x82>
                *type = tlv.it_type;
    4248:	f8bd 3004 	ldrh.w	r3, [sp, #4]
    424c:	802b      	strh	r3, [r5, #0]
            *off = it->tlv_off + sizeof(tlv);
    424e:	6923      	ldr	r3, [r4, #16]
    4250:	3304      	adds	r3, #4
    4252:	603b      	str	r3, [r7, #0]
            *len = tlv.it_len;
    4254:	f8bd 3006 	ldrh.w	r3, [sp, #6]
    4258:	8033      	strh	r3, [r6, #0]
            it->tlv_off += sizeof(tlv) + tlv.it_len;
    425a:	6922      	ldr	r2, [r4, #16]
    425c:	4413      	add	r3, r2
    425e:	3304      	adds	r3, #4
    4260:	6123      	str	r3, [r4, #16]
    }

    return 1;
}
    4262:	4608      	mov	r0, r1
    4264:	b003      	add	sp, #12
    4266:	bdf0      	pop	{r4, r5, r6, r7, pc}
    return 1;
    4268:	2101      	movs	r1, #1
    426a:	e7fa      	b.n	4262 <bootutil_tlv_iter_next+0x96>
        return -1;
    426c:	f04f 31ff 	mov.w	r1, #4294967295	; 0xffffffff
}
    4270:	4608      	mov	r0, r1
    4272:	4770      	bx	lr
        return -1;
    4274:	f04f 31ff 	mov.w	r1, #4294967295	; 0xffffffff
    4278:	e7f3      	b.n	4262 <bootutil_tlv_iter_next+0x96>
            return -1;
    427a:	f04f 31ff 	mov.w	r1, #4294967295	; 0xffffffff
    427e:	e7f0      	b.n	4262 <bootutil_tlv_iter_next+0x96>
            return 1;
    4280:	2101      	movs	r1, #1
    4282:	e7ee      	b.n	4262 <bootutil_tlv_iter_next+0x96>

00004284 <flash_area_id_from_multi_image_slot>:
#include <flash_map/flash_map.h>
#include <flash_map_backend/flash_map_backend.h>

int flash_area_id_from_multi_image_slot(int image_index, int slot)
{
    switch (slot) {
    4284:	b119      	cbz	r1, 428e <flash_area_id_from_multi_image_slot+0xa>
    4286:	2901      	cmp	r1, #1
    4288:	d003      	beq.n	4292 <flash_area_id_from_multi_image_slot+0xe>
    case 1: return FLASH_AREA_IMAGE_SECONDARY(image_index);
#if MCUBOOT_SWAP_USING_SCRATCH
    case 2: return FLASH_AREA_IMAGE_SCRATCH;
#endif
    }
    return 255;
    428a:	20ff      	movs	r0, #255	; 0xff
    428c:	4770      	bx	lr
    case 0: return FLASH_AREA_IMAGE_PRIMARY(image_index);
    428e:	2001      	movs	r0, #1
    4290:	4770      	bx	lr
    case 1: return FLASH_AREA_IMAGE_SECONDARY(image_index);
    4292:	2002      	movs	r0, #2
}
    4294:	4770      	bx	lr

00004296 <mbedtls_sha256_init>:
    (b)[(i) + 3] = (unsigned char) ( (n)       );       \
} while( 0 )
#endif

void mbedtls_sha256_init( mbedtls_sha256_context *ctx )
{
    4296:	b508      	push	{r3, lr}
    SHA256_VALIDATE( ctx != NULL );

    memset( ctx, 0, sizeof( mbedtls_sha256_context ) );
    4298:	226c      	movs	r2, #108	; 0x6c
    429a:	2100      	movs	r1, #0
    429c:	f7fd fdf8 	bl	1e90 <memset>
}
    42a0:	bd08      	pop	{r3, pc}
	...

000042a4 <mbedtls_sha256_starts_ret>:
int mbedtls_sha256_starts_ret( mbedtls_sha256_context *ctx, int is224 )
{
    SHA256_VALIDATE_RET( ctx != NULL );
    SHA256_VALIDATE_RET( is224 == 0 || is224 == 1 );

    ctx->total[0] = 0;
    42a4:	2300      	movs	r3, #0
    42a6:	6003      	str	r3, [r0, #0]
    ctx->total[1] = 0;
    42a8:	6043      	str	r3, [r0, #4]

    if( is224 == 0 )
    42aa:	460b      	mov	r3, r1
    42ac:	b1e1      	cbz	r1, 42e8 <mbedtls_sha256_starts_ret+0x44>
        ctx->state[7] = 0x5BE0CD19;
    }
    else
    {
        /* SHA-224 */
        ctx->state[0] = 0xC1059ED8;
    42ae:	4a19      	ldr	r2, [pc, #100]	; (4314 <mbedtls_sha256_starts_ret+0x70>)
    42b0:	6082      	str	r2, [r0, #8]
        ctx->state[1] = 0x367CD507;
    42b2:	4a19      	ldr	r2, [pc, #100]	; (4318 <mbedtls_sha256_starts_ret+0x74>)
    42b4:	60c2      	str	r2, [r0, #12]
        ctx->state[2] = 0x3070DD17;
    42b6:	f102 4279 	add.w	r2, r2, #4177526784	; 0xf9000000
    42ba:	f502 0274 	add.w	r2, r2, #15990784	; 0xf40000
    42be:	f502 6201 	add.w	r2, r2, #2064	; 0x810
    42c2:	6102      	str	r2, [r0, #16]
        ctx->state[3] = 0xF70E5939;
    42c4:	4a15      	ldr	r2, [pc, #84]	; (431c <mbedtls_sha256_starts_ret+0x78>)
    42c6:	6142      	str	r2, [r0, #20]
        ctx->state[4] = 0xFFC00B31;
    42c8:	4a15      	ldr	r2, [pc, #84]	; (4320 <mbedtls_sha256_starts_ret+0x7c>)
    42ca:	6182      	str	r2, [r0, #24]
        ctx->state[5] = 0x68581511;
    42cc:	f102 42d1 	add.w	r2, r2, #1753219072	; 0x68800000
    42d0:	f502 12c0 	add.w	r2, r2, #1572864	; 0x180000
    42d4:	f502 621e 	add.w	r2, r2, #2528	; 0x9e0
    42d8:	61c2      	str	r2, [r0, #28]
        ctx->state[6] = 0x64F98FA7;
    42da:	4a12      	ldr	r2, [pc, #72]	; (4324 <mbedtls_sha256_starts_ret+0x80>)
    42dc:	6202      	str	r2, [r0, #32]
        ctx->state[7] = 0xBEFA4FA4;
    42de:	4a12      	ldr	r2, [pc, #72]	; (4328 <mbedtls_sha256_starts_ret+0x84>)
    42e0:	6242      	str	r2, [r0, #36]	; 0x24
    }

    ctx->is224 = is224;
    42e2:	6683      	str	r3, [r0, #104]	; 0x68

    return( 0 );
}
    42e4:	2000      	movs	r0, #0
    42e6:	4770      	bx	lr
        ctx->state[0] = 0x6A09E667;
    42e8:	4a10      	ldr	r2, [pc, #64]	; (432c <mbedtls_sha256_starts_ret+0x88>)
    42ea:	6082      	str	r2, [r0, #8]
        ctx->state[1] = 0xBB67AE85;
    42ec:	4a10      	ldr	r2, [pc, #64]	; (4330 <mbedtls_sha256_starts_ret+0x8c>)
    42ee:	60c2      	str	r2, [r0, #12]
        ctx->state[2] = 0x3C6EF372;
    42f0:	4a10      	ldr	r2, [pc, #64]	; (4334 <mbedtls_sha256_starts_ret+0x90>)
    42f2:	6102      	str	r2, [r0, #16]
        ctx->state[3] = 0xA54FF53A;
    42f4:	4a10      	ldr	r2, [pc, #64]	; (4338 <mbedtls_sha256_starts_ret+0x94>)
    42f6:	6142      	str	r2, [r0, #20]
        ctx->state[4] = 0x510E527F;
    42f8:	4a10      	ldr	r2, [pc, #64]	; (433c <mbedtls_sha256_starts_ret+0x98>)
    42fa:	6182      	str	r2, [r0, #24]
        ctx->state[5] = 0x9B05688C;
    42fc:	4a10      	ldr	r2, [pc, #64]	; (4340 <mbedtls_sha256_starts_ret+0x9c>)
    42fe:	61c2      	str	r2, [r0, #28]
        ctx->state[6] = 0x1F83D9AB;
    4300:	4a10      	ldr	r2, [pc, #64]	; (4344 <mbedtls_sha256_starts_ret+0xa0>)
    4302:	6202      	str	r2, [r0, #32]
        ctx->state[7] = 0x5BE0CD19;
    4304:	f102 5274 	add.w	r2, r2, #1023410176	; 0x3d000000
    4308:	f5a2 0223 	sub.w	r2, r2, #10682368	; 0xa30000
    430c:	f6a2 4292 	subw	r2, r2, #3218	; 0xc92
    4310:	6242      	str	r2, [r0, #36]	; 0x24
    4312:	e7e6      	b.n	42e2 <mbedtls_sha256_starts_ret+0x3e>
    4314:	c1059ed8 	.word	0xc1059ed8
    4318:	367cd507 	.word	0x367cd507
    431c:	f70e5939 	.word	0xf70e5939
    4320:	ffc00b31 	.word	0xffc00b31
    4324:	64f98fa7 	.word	0x64f98fa7
    4328:	befa4fa4 	.word	0xbefa4fa4
    432c:	6a09e667 	.word	0x6a09e667
    4330:	bb67ae85 	.word	0xbb67ae85
    4334:	3c6ef372 	.word	0x3c6ef372
    4338:	a54ff53a 	.word	0xa54ff53a
    433c:	510e527f 	.word	0x510e527f
    4340:	9b05688c 	.word	0x9b05688c
    4344:	1f83d9ab 	.word	0x1f83d9ab

00004348 <mbedtls_internal_sha256_process>:
        (d) += temp1; (h) = temp1 + temp2;              \
    } while( 0 )

int mbedtls_internal_sha256_process( mbedtls_sha256_context *ctx,
                                const unsigned char data[64] )
{
    4348:	e92d 47f0 	stmdb	sp!, {r4, r5, r6, r7, r8, r9, sl, lr}
    434c:	b0c8      	sub	sp, #288	; 0x120
    unsigned int i;

    SHA256_VALIDATE_RET( ctx != NULL );
    SHA256_VALIDATE_RET( (const unsigned char *)data != NULL );

    for( i = 0; i < 8; i++ )
    434e:	2300      	movs	r3, #0
    4350:	e005      	b.n	435e <mbedtls_internal_sha256_process+0x16>
        A[i] = ctx->state[i];
    4352:	1c9a      	adds	r2, r3, #2
    4354:	f850 2022 	ldr.w	r2, [r0, r2, lsl #2]
    4358:	f84d 2023 	str.w	r2, [sp, r3, lsl #2]
    for( i = 0; i < 8; i++ )
    435c:	3301      	adds	r3, #1
    435e:	2b07      	cmp	r3, #7
    4360:	d9f7      	bls.n	4352 <mbedtls_internal_sha256_process+0xa>

#if defined(MBEDTLS_SHA256_SMALLER)
    for( i = 0; i < 64; i++ )
    4362:	2200      	movs	r2, #0
    4364:	e04b      	b.n	43fe <mbedtls_internal_sha256_process+0xb6>
    {
        if( i < 16 )
            GET_UINT32_BE( W[i], data, 4 * i );
    4366:	f811 5022 	ldrb.w	r5, [r1, r2, lsl #2]
    436a:	eb01 0482 	add.w	r4, r1, r2, lsl #2
    436e:	7863      	ldrb	r3, [r4, #1]
    4370:	041b      	lsls	r3, r3, #16
    4372:	ea43 6305 	orr.w	r3, r3, r5, lsl #24
    4376:	78a5      	ldrb	r5, [r4, #2]
    4378:	ea43 2305 	orr.w	r3, r3, r5, lsl #8
    437c:	78e4      	ldrb	r4, [r4, #3]
    437e:	4323      	orrs	r3, r4
    4380:	ac08      	add	r4, sp, #32
    4382:	f844 3022 	str.w	r3, [r4, r2, lsl #2]
        else
            R( i );

        P( A[0], A[1], A[2], A[3], A[4], A[5], A[6], A[7], W[i], K[i] );
    4386:	9b07      	ldr	r3, [sp, #28]
    4388:	9c04      	ldr	r4, [sp, #16]
    438a:	ea4f 25f4 	mov.w	r5, r4, ror #11
    438e:	ea85 15b4 	eor.w	r5, r5, r4, ror #6
    4392:	ea85 6574 	eor.w	r5, r5, r4, ror #25
    4396:	442b      	add	r3, r5
    4398:	9e06      	ldr	r6, [sp, #24]
    439a:	9f05      	ldr	r7, [sp, #20]
    439c:	ea86 0507 	eor.w	r5, r6, r7
    43a0:	4025      	ands	r5, r4
    43a2:	4075      	eors	r5, r6
    43a4:	442b      	add	r3, r5
    43a6:	4d31      	ldr	r5, [pc, #196]	; (446c <mbedtls_internal_sha256_process+0x124>)
    43a8:	f855 5022 	ldr.w	r5, [r5, r2, lsl #2]
    43ac:	442b      	add	r3, r5
    43ae:	ad08      	add	r5, sp, #32
    43b0:	f855 5022 	ldr.w	r5, [r5, r2, lsl #2]
    43b4:	442b      	add	r3, r5
    43b6:	f8dd e000 	ldr.w	lr, [sp]
    43ba:	ea4f 3c7e 	mov.w	ip, lr, ror #13
    43be:	ea8c 0cbe 	eor.w	ip, ip, lr, ror #2
    43c2:	ea8c 5cbe 	eor.w	ip, ip, lr, ror #22
    43c6:	f8dd 8004 	ldr.w	r8, [sp, #4]
    43ca:	ea0e 0508 	and.w	r5, lr, r8
    43ce:	f8dd 9008 	ldr.w	r9, [sp, #8]
    43d2:	ea4e 0a08 	orr.w	sl, lr, r8
    43d6:	ea09 0a0a 	and.w	sl, r9, sl
    43da:	ea45 050a 	orr.w	r5, r5, sl
    43de:	44ac      	add	ip, r5
    43e0:	9d03      	ldr	r5, [sp, #12]
    43e2:	441d      	add	r5, r3
    43e4:	4463      	add	r3, ip

        temp1 = A[7]; A[7] = A[6]; A[6] = A[5]; A[5] = A[4]; A[4] = A[3];
    43e6:	9607      	str	r6, [sp, #28]
    43e8:	9706      	str	r7, [sp, #24]
    43ea:	9405      	str	r4, [sp, #20]
    43ec:	9504      	str	r5, [sp, #16]
        A[3] = A[2]; A[2] = A[1]; A[1] = A[0]; A[0] = temp1;
    43ee:	f8cd 900c 	str.w	r9, [sp, #12]
    43f2:	f8cd 8008 	str.w	r8, [sp, #8]
    43f6:	f8cd e004 	str.w	lr, [sp, #4]
    43fa:	9300      	str	r3, [sp, #0]
    for( i = 0; i < 64; i++ )
    43fc:	3201      	adds	r2, #1
    43fe:	2a3f      	cmp	r2, #63	; 0x3f
    4400:	d822      	bhi.n	4448 <mbedtls_internal_sha256_process+0x100>
        if( i < 16 )
    4402:	2a0f      	cmp	r2, #15
    4404:	d9af      	bls.n	4366 <mbedtls_internal_sha256_process+0x1e>
            R( i );
    4406:	1e93      	subs	r3, r2, #2
    4408:	ac08      	add	r4, sp, #32
    440a:	f854 5023 	ldr.w	r5, [r4, r3, lsl #2]
    440e:	ea4f 43f5 	mov.w	r3, r5, ror #19
    4412:	ea83 4375 	eor.w	r3, r3, r5, ror #17
    4416:	ea83 2395 	eor.w	r3, r3, r5, lsr #10
    441a:	1fd5      	subs	r5, r2, #7
    441c:	f854 5025 	ldr.w	r5, [r4, r5, lsl #2]
    4420:	442b      	add	r3, r5
    4422:	f1a2 050f 	sub.w	r5, r2, #15
    4426:	f854 6025 	ldr.w	r6, [r4, r5, lsl #2]
    442a:	ea4f 45b6 	mov.w	r5, r6, ror #18
    442e:	ea85 15f6 	eor.w	r5, r5, r6, ror #7
    4432:	ea85 05d6 	eor.w	r5, r5, r6, lsr #3
    4436:	442b      	add	r3, r5
    4438:	f1a2 0510 	sub.w	r5, r2, #16
    443c:	f854 5025 	ldr.w	r5, [r4, r5, lsl #2]
    4440:	442b      	add	r3, r5
    4442:	f844 3022 	str.w	r3, [r4, r2, lsl #2]
    4446:	e79e      	b.n	4386 <mbedtls_internal_sha256_process+0x3e>
        P( A[2], A[3], A[4], A[5], A[6], A[7], A[0], A[1], R(i+6), K[i+6] );
        P( A[1], A[2], A[3], A[4], A[5], A[6], A[7], A[0], R(i+7), K[i+7] );
    }
#endif /* MBEDTLS_SHA256_SMALLER */

    for( i = 0; i < 8; i++ )
    4448:	2300      	movs	r3, #0
    444a:	e008      	b.n	445e <mbedtls_internal_sha256_process+0x116>
        ctx->state[i] += A[i];
    444c:	f85d 4023 	ldr.w	r4, [sp, r3, lsl #2]
    4450:	1c99      	adds	r1, r3, #2
    4452:	f850 2021 	ldr.w	r2, [r0, r1, lsl #2]
    4456:	4422      	add	r2, r4
    4458:	f840 2021 	str.w	r2, [r0, r1, lsl #2]
    for( i = 0; i < 8; i++ )
    445c:	3301      	adds	r3, #1
    445e:	2b07      	cmp	r3, #7
    4460:	d9f4      	bls.n	444c <mbedtls_internal_sha256_process+0x104>

    return( 0 );
}
    4462:	2000      	movs	r0, #0
    4464:	b048      	add	sp, #288	; 0x120
    4466:	e8bd 87f0 	ldmia.w	sp!, {r4, r5, r6, r7, r8, r9, sl, pc}
    446a:	bf00      	nop
    446c:	00005edc 	.word	0x00005edc

00004470 <mbedtls_sha256_update_ret>:
 * SHA-256 process buffer
 */
int mbedtls_sha256_update_ret( mbedtls_sha256_context *ctx,
                               const unsigned char *input,
                               size_t ilen )
{
    4470:	e92d 43f8 	stmdb	sp!, {r3, r4, r5, r6, r7, r8, r9, lr}
    uint32_t left;

    SHA256_VALIDATE_RET( ctx != NULL );
    SHA256_VALIDATE_RET( ilen == 0 || input != NULL );

    if( ilen == 0 )
    4474:	b3da      	cbz	r2, 44ee <mbedtls_sha256_update_ret+0x7e>
    4476:	4606      	mov	r6, r0
    4478:	460d      	mov	r5, r1
    447a:	4614      	mov	r4, r2
        return( 0 );

    left = ctx->total[0] & 0x3F;
    447c:	6803      	ldr	r3, [r0, #0]
    447e:	f003 073f 	and.w	r7, r3, #63	; 0x3f
    fill = 64 - left;
    4482:	f1c7 0840 	rsb	r8, r7, #64	; 0x40

    ctx->total[0] += (uint32_t) ilen;
    4486:	4413      	add	r3, r2
    4488:	6003      	str	r3, [r0, #0]
    ctx->total[0] &= 0xFFFFFFFF;

    if( ctx->total[0] < (uint32_t) ilen )
    448a:	4293      	cmp	r3, r2
    448c:	d202      	bcs.n	4494 <mbedtls_sha256_update_ret+0x24>
        ctx->total[1]++;
    448e:	6843      	ldr	r3, [r0, #4]
    4490:	3301      	adds	r3, #1
    4492:	6043      	str	r3, [r0, #4]

    if( left && ilen >= fill )
    4494:	b10f      	cbz	r7, 449a <mbedtls_sha256_update_ret+0x2a>
    4496:	4544      	cmp	r4, r8
    4498:	d20a      	bcs.n	44b0 <mbedtls_sha256_update_ret+0x40>
        input += fill;
        ilen  -= fill;
        left = 0;
    }

    while( ilen >= 64 )
    449a:	2c3f      	cmp	r4, #63	; 0x3f
    449c:	d91b      	bls.n	44d6 <mbedtls_sha256_update_ret+0x66>
    {
        if( ( ret = mbedtls_internal_sha256_process( ctx, input ) ) != 0 )
    449e:	4629      	mov	r1, r5
    44a0:	4630      	mov	r0, r6
    44a2:	f7ff ff51 	bl	4348 <mbedtls_internal_sha256_process>
    44a6:	4603      	mov	r3, r0
    44a8:	bb10      	cbnz	r0, 44f0 <mbedtls_sha256_update_ret+0x80>
            return( ret );

        input += 64;
    44aa:	3540      	adds	r5, #64	; 0x40
        ilen  -= 64;
    44ac:	3c40      	subs	r4, #64	; 0x40
    44ae:	e7f4      	b.n	449a <mbedtls_sha256_update_ret+0x2a>
        memcpy( (void *) (ctx->buffer + left), input, fill );
    44b0:	f106 0928 	add.w	r9, r6, #40	; 0x28
    44b4:	4642      	mov	r2, r8
    44b6:	4629      	mov	r1, r5
    44b8:	eb09 0007 	add.w	r0, r9, r7
    44bc:	f7fd fcdb 	bl	1e76 <memcpy>
        if( ( ret = mbedtls_internal_sha256_process( ctx, ctx->buffer ) ) != 0 )
    44c0:	4649      	mov	r1, r9
    44c2:	4630      	mov	r0, r6
    44c4:	f7ff ff40 	bl	4348 <mbedtls_internal_sha256_process>
    44c8:	4603      	mov	r3, r0
    44ca:	b988      	cbnz	r0, 44f0 <mbedtls_sha256_update_ret+0x80>
        input += fill;
    44cc:	4445      	add	r5, r8
        ilen  -= fill;
    44ce:	eba4 0408 	sub.w	r4, r4, r8
        left = 0;
    44d2:	2700      	movs	r7, #0
    44d4:	e7e1      	b.n	449a <mbedtls_sha256_update_ret+0x2a>
    }

    if( ilen > 0 )
    44d6:	b90c      	cbnz	r4, 44dc <mbedtls_sha256_update_ret+0x6c>
        memcpy( (void *) (ctx->buffer + left), input, ilen );

    return( 0 );
    44d8:	2300      	movs	r3, #0
    44da:	e009      	b.n	44f0 <mbedtls_sha256_update_ret+0x80>
        memcpy( (void *) (ctx->buffer + left), input, ilen );
    44dc:	f106 0028 	add.w	r0, r6, #40	; 0x28
    44e0:	4622      	mov	r2, r4
    44e2:	4629      	mov	r1, r5
    44e4:	4438      	add	r0, r7
    44e6:	f7fd fcc6 	bl	1e76 <memcpy>
    return( 0 );
    44ea:	2300      	movs	r3, #0
    44ec:	e000      	b.n	44f0 <mbedtls_sha256_update_ret+0x80>
        return( 0 );
    44ee:	2300      	movs	r3, #0
}
    44f0:	4618      	mov	r0, r3
    44f2:	e8bd 83f8 	ldmia.w	sp!, {r3, r4, r5, r6, r7, r8, r9, pc}

000044f6 <mbedtls_sha256_finish_ret>:
/*
 * SHA-256 final digest
 */
int mbedtls_sha256_finish_ret( mbedtls_sha256_context *ctx,
                               unsigned char output[32] )
{
    44f6:	b570      	push	{r4, r5, r6, lr}
    44f8:	4604      	mov	r4, r0
    44fa:	460d      	mov	r5, r1
    SHA256_VALIDATE_RET( (unsigned char *)output != NULL );

    /*
     * Add padding: 0x80 then 0x00 until 8 bytes remain for the length
     */
    used = ctx->total[0] & 0x3F;
    44fc:	6803      	ldr	r3, [r0, #0]
    44fe:	f003 033f 	and.w	r3, r3, #63	; 0x3f

    ctx->buffer[used++] = 0x80;
    4502:	1c58      	adds	r0, r3, #1
    4504:	4423      	add	r3, r4
    4506:	2280      	movs	r2, #128	; 0x80
    4508:	f883 2028 	strb.w	r2, [r3, #40]	; 0x28

    if( used <= 56 )
    450c:	2838      	cmp	r0, #56	; 0x38
    450e:	d87b      	bhi.n	4608 <mbedtls_sha256_finish_ret+0x112>
    {
        /* Enough room for padding + length in current block */
        memset( ctx->buffer + used, 0, 56 - used );
    4510:	f104 0328 	add.w	r3, r4, #40	; 0x28
    4514:	f1c0 0238 	rsb	r2, r0, #56	; 0x38
    4518:	2100      	movs	r1, #0
    451a:	4418      	add	r0, r3
    451c:	f7fd fcb8 	bl	1e90 <memset>
    }

    /*
     * Add message length
     */
    high = ( ctx->total[0] >> 29 )
    4520:	6822      	ldr	r2, [r4, #0]
         | ( ctx->total[1] <<  3 );
    4522:	6863      	ldr	r3, [r4, #4]
    4524:	00db      	lsls	r3, r3, #3
    high = ( ctx->total[0] >> 29 )
    4526:	ea43 7352 	orr.w	r3, r3, r2, lsr #29
    low  = ( ctx->total[0] <<  3 );
    452a:	00d2      	lsls	r2, r2, #3

    PUT_UINT32_BE( high, ctx->buffer, 56 );
    452c:	0e19      	lsrs	r1, r3, #24
    452e:	f884 1060 	strb.w	r1, [r4, #96]	; 0x60
    4532:	f3c3 4107 	ubfx	r1, r3, #16, #8
    4536:	f884 1061 	strb.w	r1, [r4, #97]	; 0x61
    453a:	f3c3 2107 	ubfx	r1, r3, #8, #8
    453e:	f884 1062 	strb.w	r1, [r4, #98]	; 0x62
    4542:	f884 3063 	strb.w	r3, [r4, #99]	; 0x63
    PUT_UINT32_BE( low,  ctx->buffer, 60 );
    4546:	0e13      	lsrs	r3, r2, #24
    4548:	f884 3064 	strb.w	r3, [r4, #100]	; 0x64
    454c:	f3c2 4307 	ubfx	r3, r2, #16, #8
    4550:	f884 3065 	strb.w	r3, [r4, #101]	; 0x65
    4554:	f3c2 2307 	ubfx	r3, r2, #8, #8
    4558:	f884 3066 	strb.w	r3, [r4, #102]	; 0x66
    455c:	f884 2067 	strb.w	r2, [r4, #103]	; 0x67

    if( ( ret = mbedtls_internal_sha256_process( ctx, ctx->buffer ) ) != 0 )
    4560:	f104 0128 	add.w	r1, r4, #40	; 0x28
    4564:	4620      	mov	r0, r4
    4566:	f7ff feef 	bl	4348 <mbedtls_internal_sha256_process>
    456a:	4603      	mov	r3, r0
    456c:	2800      	cmp	r0, #0
    456e:	d159      	bne.n	4624 <mbedtls_sha256_finish_ret+0x12e>
        return( ret );

    /*
     * Output final state
     */
    PUT_UINT32_BE( ctx->state[0], output,  0 );
    4570:	7ae2      	ldrb	r2, [r4, #11]
    4572:	702a      	strb	r2, [r5, #0]
    4574:	7aa2      	ldrb	r2, [r4, #10]
    4576:	706a      	strb	r2, [r5, #1]
    4578:	7a62      	ldrb	r2, [r4, #9]
    457a:	70aa      	strb	r2, [r5, #2]
    457c:	7a22      	ldrb	r2, [r4, #8]
    457e:	70ea      	strb	r2, [r5, #3]
    PUT_UINT32_BE( ctx->state[1], output,  4 );
    4580:	7be2      	ldrb	r2, [r4, #15]
    4582:	712a      	strb	r2, [r5, #4]
    4584:	7ba2      	ldrb	r2, [r4, #14]
    4586:	716a      	strb	r2, [r5, #5]
    4588:	7b62      	ldrb	r2, [r4, #13]
    458a:	71aa      	strb	r2, [r5, #6]
    458c:	7b22      	ldrb	r2, [r4, #12]
    458e:	71ea      	strb	r2, [r5, #7]
    PUT_UINT32_BE( ctx->state[2], output,  8 );
    4590:	7ce2      	ldrb	r2, [r4, #19]
    4592:	722a      	strb	r2, [r5, #8]
    4594:	7ca2      	ldrb	r2, [r4, #18]
    4596:	726a      	strb	r2, [r5, #9]
    4598:	7c62      	ldrb	r2, [r4, #17]
    459a:	72aa      	strb	r2, [r5, #10]
    459c:	7c22      	ldrb	r2, [r4, #16]
    459e:	72ea      	strb	r2, [r5, #11]
    PUT_UINT32_BE( ctx->state[3], output, 12 );
    45a0:	7de2      	ldrb	r2, [r4, #23]
    45a2:	732a      	strb	r2, [r5, #12]
    45a4:	7da2      	ldrb	r2, [r4, #22]
    45a6:	736a      	strb	r2, [r5, #13]
    45a8:	7d62      	ldrb	r2, [r4, #21]
    45aa:	73aa      	strb	r2, [r5, #14]
    45ac:	7d22      	ldrb	r2, [r4, #20]
    45ae:	73ea      	strb	r2, [r5, #15]
    PUT_UINT32_BE( ctx->state[4], output, 16 );
    45b0:	7ee2      	ldrb	r2, [r4, #27]
    45b2:	742a      	strb	r2, [r5, #16]
    45b4:	7ea2      	ldrb	r2, [r4, #26]
    45b6:	746a      	strb	r2, [r5, #17]
    45b8:	7e62      	ldrb	r2, [r4, #25]
    45ba:	74aa      	strb	r2, [r5, #18]
    45bc:	7e22      	ldrb	r2, [r4, #24]
    45be:	74ea      	strb	r2, [r5, #19]
    PUT_UINT32_BE( ctx->state[5], output, 20 );
    45c0:	7fe2      	ldrb	r2, [r4, #31]
    45c2:	752a      	strb	r2, [r5, #20]
    45c4:	7fa2      	ldrb	r2, [r4, #30]
    45c6:	756a      	strb	r2, [r5, #21]
    45c8:	7f62      	ldrb	r2, [r4, #29]
    45ca:	75aa      	strb	r2, [r5, #22]
    45cc:	7f22      	ldrb	r2, [r4, #28]
    45ce:	75ea      	strb	r2, [r5, #23]
    PUT_UINT32_BE( ctx->state[6], output, 24 );
    45d0:	f894 2023 	ldrb.w	r2, [r4, #35]	; 0x23
    45d4:	762a      	strb	r2, [r5, #24]
    45d6:	f894 2022 	ldrb.w	r2, [r4, #34]	; 0x22
    45da:	766a      	strb	r2, [r5, #25]
    45dc:	f894 2021 	ldrb.w	r2, [r4, #33]	; 0x21
    45e0:	76aa      	strb	r2, [r5, #26]
    45e2:	f894 2020 	ldrb.w	r2, [r4, #32]
    45e6:	76ea      	strb	r2, [r5, #27]

    if( ctx->is224 == 0 )
    45e8:	6ea2      	ldr	r2, [r4, #104]	; 0x68
    45ea:	b9da      	cbnz	r2, 4624 <mbedtls_sha256_finish_ret+0x12e>
        PUT_UINT32_BE( ctx->state[7], output, 28 );
    45ec:	f894 3027 	ldrb.w	r3, [r4, #39]	; 0x27
    45f0:	772b      	strb	r3, [r5, #28]
    45f2:	f894 3026 	ldrb.w	r3, [r4, #38]	; 0x26
    45f6:	776b      	strb	r3, [r5, #29]
    45f8:	f894 3025 	ldrb.w	r3, [r4, #37]	; 0x25
    45fc:	77ab      	strb	r3, [r5, #30]
    45fe:	f894 3024 	ldrb.w	r3, [r4, #36]	; 0x24
    4602:	77eb      	strb	r3, [r5, #31]

    return( 0 );
    4604:	4613      	mov	r3, r2
    4606:	e00d      	b.n	4624 <mbedtls_sha256_finish_ret+0x12e>
        memset( ctx->buffer + used, 0, 64 - used );
    4608:	f104 0628 	add.w	r6, r4, #40	; 0x28
    460c:	f1c0 0240 	rsb	r2, r0, #64	; 0x40
    4610:	2100      	movs	r1, #0
    4612:	4430      	add	r0, r6
    4614:	f7fd fc3c 	bl	1e90 <memset>
        if( ( ret = mbedtls_internal_sha256_process( ctx, ctx->buffer ) ) != 0 )
    4618:	4631      	mov	r1, r6
    461a:	4620      	mov	r0, r4
    461c:	f7ff fe94 	bl	4348 <mbedtls_internal_sha256_process>
    4620:	4603      	mov	r3, r0
    4622:	b108      	cbz	r0, 4628 <mbedtls_sha256_finish_ret+0x132>
}
    4624:	4618      	mov	r0, r3
    4626:	bd70      	pop	{r4, r5, r6, pc}
        memset( ctx->buffer, 0, 56 );
    4628:	2238      	movs	r2, #56	; 0x38
    462a:	2100      	movs	r1, #0
    462c:	4630      	mov	r0, r6
    462e:	f7fd fc2f 	bl	1e90 <memset>
    4632:	e775      	b.n	4520 <mbedtls_sha256_finish_ret+0x2a>

00004634 <hal_flash_check_addr>:
}

static int
hal_flash_check_addr(const struct hal_flash *hf, uint32_t addr)
{
    if (addr < hf->hf_base_addr || addr > hf->hf_base_addr + hf->hf_size) {
    4634:	6843      	ldr	r3, [r0, #4]
    4636:	428b      	cmp	r3, r1
    4638:	d808      	bhi.n	464c <hal_flash_check_addr+0x18>
    463a:	6882      	ldr	r2, [r0, #8]
    463c:	4413      	add	r3, r2
    463e:	428b      	cmp	r3, r1
    4640:	d301      	bcc.n	4646 <hal_flash_check_addr+0x12>
        return SYS_EINVAL;
    }
    return 0;
    4642:	2000      	movs	r0, #0
}
    4644:	4770      	bx	lr
        return SYS_EINVAL;
    4646:	f06f 0001 	mvn.w	r0, #1
    464a:	4770      	bx	lr
    464c:	f06f 0001 	mvn.w	r0, #1
    4650:	4770      	bx	lr

00004652 <hal_flash_init>:
{
    4652:	b538      	push	{r3, r4, r5, lr}
    int rc = 0;
    4654:	2500      	movs	r5, #0
    for (i = 0; ; i++) {
    4656:	462c      	mov	r4, r5
    4658:	e001      	b.n	465e <hal_flash_init+0xc>
    465a:	3401      	adds	r4, #1
    465c:	b2e4      	uxtb	r4, r4
        hf = hal_bsp_flash_dev(i);
    465e:	4620      	mov	r0, r4
    4660:	f7fc f806 	bl	670 <hal_bsp_flash_dev>
        if (!hf) {
    4664:	b138      	cbz	r0, 4676 <hal_flash_init+0x24>
        if (hf->hf_itf->hff_init(hf)) {
    4666:	6802      	ldr	r2, [r0, #0]
    4668:	6952      	ldr	r2, [r2, #20]
    466a:	4790      	blx	r2
    466c:	2800      	cmp	r0, #0
    466e:	d0f4      	beq.n	465a <hal_flash_init+0x8>
            rc = SYS_EIO;
    4670:	f06f 0504 	mvn.w	r5, #4
    4674:	e7f1      	b.n	465a <hal_flash_init+0x8>
}
    4676:	4628      	mov	r0, r5
    4678:	bd38      	pop	{r3, r4, r5, pc}

0000467a <hal_flash_align>:
{
    467a:	b508      	push	{r3, lr}
    hf = hal_bsp_flash_dev(flash_id);
    467c:	f7fb fff8 	bl	670 <hal_bsp_flash_dev>
    if (!hf) {
    4680:	b108      	cbz	r0, 4686 <hal_flash_align+0xc>
    return hf->hf_align;
    4682:	7c00      	ldrb	r0, [r0, #16]
}
    4684:	bd08      	pop	{r3, pc}
        return 1;
    4686:	2001      	movs	r0, #1
    4688:	e7fc      	b.n	4684 <hal_flash_align+0xa>

0000468a <hal_flash_erased_val>:
{
    468a:	b508      	push	{r3, lr}
    hf = hal_bsp_flash_dev(flash_id);
    468c:	f7fb fff0 	bl	670 <hal_bsp_flash_dev>
    if (!hf) {
    4690:	b108      	cbz	r0, 4696 <hal_flash_erased_val+0xc>
    return hf->hf_erased_val;
    4692:	7d00      	ldrb	r0, [r0, #20]
}
    4694:	bd08      	pop	{r3, pc}
        return 1;
    4696:	2001      	movs	r0, #1
    4698:	e7fc      	b.n	4694 <hal_flash_erased_val+0xa>

0000469a <hal_flash_read>:

int
hal_flash_read(uint8_t id, uint32_t address, void *dst, uint32_t num_bytes)
{
    469a:	e92d 41f0 	stmdb	sp!, {r4, r5, r6, r7, r8, lr}
    469e:	460d      	mov	r5, r1
    46a0:	4690      	mov	r8, r2
    46a2:	461e      	mov	r6, r3
    const struct hal_flash *hf;
    int rc;

    hf = hal_bsp_flash_dev(id);
    46a4:	f7fb ffe4 	bl	670 <hal_bsp_flash_dev>
    if (!hf) {
    46a8:	b1c0      	cbz	r0, 46dc <hal_flash_read+0x42>
    46aa:	4604      	mov	r4, r0
        return SYS_EINVAL;
    }
    if (hal_flash_check_addr(hf, address) ||
    46ac:	4629      	mov	r1, r5
    46ae:	f7ff ffc1 	bl	4634 <hal_flash_check_addr>
    46b2:	b9b0      	cbnz	r0, 46e2 <hal_flash_read+0x48>
      hal_flash_check_addr(hf, address + num_bytes)) {
    46b4:	19a9      	adds	r1, r5, r6
    46b6:	4620      	mov	r0, r4
    46b8:	f7ff ffbc 	bl	4634 <hal_flash_check_addr>
    if (hal_flash_check_addr(hf, address) ||
    46bc:	b9a0      	cbnz	r0, 46e8 <hal_flash_read+0x4e>
        return SYS_EINVAL;
    }

    rc = hf->hf_itf->hff_read(hf, address, dst, num_bytes);
    46be:	6823      	ldr	r3, [r4, #0]
    46c0:	681f      	ldr	r7, [r3, #0]
    46c2:	4633      	mov	r3, r6
    46c4:	4642      	mov	r2, r8
    46c6:	4629      	mov	r1, r5
    46c8:	4620      	mov	r0, r4
    46ca:	47b8      	blx	r7
    if (rc != 0) {
    46cc:	4603      	mov	r3, r0
    46ce:	b910      	cbnz	r0, 46d6 <hal_flash_read+0x3c>
        return SYS_EIO;
    }

    return 0;
}
    46d0:	4618      	mov	r0, r3
    46d2:	e8bd 81f0 	ldmia.w	sp!, {r4, r5, r6, r7, r8, pc}
        return SYS_EIO;
    46d6:	f06f 0304 	mvn.w	r3, #4
    46da:	e7f9      	b.n	46d0 <hal_flash_read+0x36>
        return SYS_EINVAL;
    46dc:	f06f 0301 	mvn.w	r3, #1
    46e0:	e7f6      	b.n	46d0 <hal_flash_read+0x36>
        return SYS_EINVAL;
    46e2:	f06f 0301 	mvn.w	r3, #1
    46e6:	e7f3      	b.n	46d0 <hal_flash_read+0x36>
    46e8:	f06f 0301 	mvn.w	r3, #1
    46ec:	e7f0      	b.n	46d0 <hal_flash_read+0x36>
	...

000046f0 <hal_flash_write>:
#endif

int
hal_flash_write(uint8_t id, uint32_t address, const void *src,
  uint32_t num_bytes)
{
    46f0:	e92d 41f0 	stmdb	sp!, {r4, r5, r6, r7, r8, lr}
    46f4:	4605      	mov	r5, r0
    46f6:	460e      	mov	r6, r1
    46f8:	4690      	mov	r8, r2
    46fa:	461f      	mov	r7, r3
    const struct hal_flash *hf;
    int rc;

    hf = hal_bsp_flash_dev(id);
    46fc:	f7fb ffb8 	bl	670 <hal_bsp_flash_dev>
    if (!hf) {
    4700:	b310      	cbz	r0, 4748 <hal_flash_write+0x58>
    4702:	4604      	mov	r4, r0
        return SYS_EINVAL;
    }
    if (hal_flash_check_addr(hf, address) ||
    4704:	4631      	mov	r1, r6
    4706:	f7ff ff95 	bl	4634 <hal_flash_check_addr>
    470a:	bb00      	cbnz	r0, 474e <hal_flash_write+0x5e>
      hal_flash_check_addr(hf, address + num_bytes)) {
    470c:	19f1      	adds	r1, r6, r7
    470e:	4620      	mov	r0, r4
    4710:	f7ff ff90 	bl	4634 <hal_flash_check_addr>
    if (hal_flash_check_addr(hf, address) ||
    4714:	b9f0      	cbnz	r0, 4754 <hal_flash_write+0x64>
        return SYS_EINVAL;
    }

    if (protected_flash[id / 8] & (1 << (id & 7))) {
    4716:	08eb      	lsrs	r3, r5, #3
    4718:	4a11      	ldr	r2, [pc, #68]	; (4760 <hal_flash_write+0x70>)
    471a:	5cd3      	ldrb	r3, [r2, r3]
    471c:	f005 0507 	and.w	r5, r5, #7
    4720:	fa43 f505 	asr.w	r5, r3, r5
    4724:	f015 0f01 	tst.w	r5, #1
    4728:	d117      	bne.n	475a <hal_flash_write+0x6a>
        return SYS_EACCES;
    }

    rc = hf->hf_itf->hff_write(hf, address, src, num_bytes);
    472a:	6823      	ldr	r3, [r4, #0]
    472c:	685d      	ldr	r5, [r3, #4]
    472e:	463b      	mov	r3, r7
    4730:	4642      	mov	r2, r8
    4732:	4631      	mov	r1, r6
    4734:	4620      	mov	r0, r4
    4736:	47a8      	blx	r5
    if (rc != 0) {
    4738:	4603      	mov	r3, r0
    473a:	b910      	cbnz	r0, 4742 <hal_flash_write+0x52>
#if MYNEWT_VAL(HAL_FLASH_VERIFY_WRITES)
    assert(hal_flash_cmp(hf, address, src, num_bytes) == 0);
#endif

    return 0;
}
    473c:	4618      	mov	r0, r3
    473e:	e8bd 81f0 	ldmia.w	sp!, {r4, r5, r6, r7, r8, pc}
        return SYS_EIO;
    4742:	f06f 0304 	mvn.w	r3, #4
    4746:	e7f9      	b.n	473c <hal_flash_write+0x4c>
        return SYS_EINVAL;
    4748:	f06f 0301 	mvn.w	r3, #1
    474c:	e7f6      	b.n	473c <hal_flash_write+0x4c>
        return SYS_EINVAL;
    474e:	f06f 0301 	mvn.w	r3, #1
    4752:	e7f3      	b.n	473c <hal_flash_write+0x4c>
    4754:	f06f 0301 	mvn.w	r3, #1
    4758:	e7f0      	b.n	473c <hal_flash_write+0x4c>
        return SYS_EACCES;
    475a:	f06f 0306 	mvn.w	r3, #6
    475e:	e7ed      	b.n	473c <hal_flash_write+0x4c>
    4760:	20006380 	.word	0x20006380

00004764 <hal_flash_erase>:
    return 0;
}

int
hal_flash_erase(uint8_t id, uint32_t address, uint32_t num_bytes)
{
    4764:	e92d 43f0 	stmdb	sp!, {r4, r5, r6, r7, r8, r9, lr}
    4768:	b083      	sub	sp, #12
    476a:	4605      	mov	r5, r0
    476c:	460e      	mov	r6, r1
    476e:	4690      	mov	r8, r2
    uint32_t end;
    uint32_t end_area;
    int i;
    int rc;

    hf = hal_bsp_flash_dev(id);
    4770:	f7fb ff7e 	bl	670 <hal_bsp_flash_dev>
    if (!hf) {
    4774:	2800      	cmp	r0, #0
    4776:	d050      	beq.n	481a <hal_flash_erase+0xb6>
    4778:	4604      	mov	r4, r0
        return SYS_EINVAL;
    }
    if (hal_flash_check_addr(hf, address) ||
    477a:	4631      	mov	r1, r6
    477c:	f7ff ff5a 	bl	4634 <hal_flash_check_addr>
    4780:	2800      	cmp	r0, #0
    4782:	d14d      	bne.n	4820 <hal_flash_erase+0xbc>
      hal_flash_check_addr(hf, address + num_bytes)) {
    4784:	eb06 0708 	add.w	r7, r6, r8
    4788:	4639      	mov	r1, r7
    478a:	4620      	mov	r0, r4
    478c:	f7ff ff52 	bl	4634 <hal_flash_check_addr>
    if (hal_flash_check_addr(hf, address) ||
    4790:	2800      	cmp	r0, #0
    4792:	d148      	bne.n	4826 <hal_flash_erase+0xc2>
        return SYS_EINVAL;
    }

    if (protected_flash[id / 8] & (1 << (id & 7))) {
    4794:	08eb      	lsrs	r3, r5, #3
    4796:	4a28      	ldr	r2, [pc, #160]	; (4838 <hal_flash_erase+0xd4>)
    4798:	5cd3      	ldrb	r3, [r2, r3]
    479a:	f005 0507 	and.w	r5, r5, #7
    479e:	fa43 f505 	asr.w	r5, r3, r5
    47a2:	f015 0501 	ands.w	r5, r5, #1
    47a6:	d141      	bne.n	482c <hal_flash_erase+0xc8>
        return SYS_EACCES;
    }

    end = address + num_bytes;
    if (end <= address) {
    47a8:	42b7      	cmp	r7, r6
    47aa:	d942      	bls.n	4832 <hal_flash_erase+0xce>
         * Check for wrap-around.
         */
        return SYS_EINVAL;
    }

    if (hf->hf_itf->hff_erase) {
    47ac:	6823      	ldr	r3, [r4, #0]
    47ae:	699b      	ldr	r3, [r3, #24]
    47b0:	2b00      	cmp	r3, #0
    47b2:	d030      	beq.n	4816 <hal_flash_erase+0xb2>
        hf->hf_itf->hff_erase(hf, address, num_bytes);
    47b4:	4642      	mov	r2, r8
    47b6:	4631      	mov	r1, r6
    47b8:	4620      	mov	r0, r4
    47ba:	4798      	blx	r3
#endif
            }
        }
    }
    return 0;
}
    47bc:	4628      	mov	r0, r5
    47be:	b003      	add	sp, #12
    47c0:	e8bd 83f0 	ldmia.w	sp!, {r4, r5, r6, r7, r8, r9, pc}
            assert(rc == 0);
    47c4:	f7fb fcce 	bl	164 <hal_debugger_connected>
    47c8:	b100      	cbz	r0, 47cc <hal_flash_erase+0x68>
    47ca:	be01      	bkpt	0x0001
    47cc:	2300      	movs	r3, #0
    47ce:	461a      	mov	r2, r3
    47d0:	4619      	mov	r1, r3
    47d2:	4618      	mov	r0, r3
    47d4:	f7fc ffee 	bl	17b4 <__assert_func>
        for (i = 0; i < hf->hf_sector_cnt; i++) {
    47d8:	f108 0801 	add.w	r8, r8, #1
    47dc:	68e3      	ldr	r3, [r4, #12]
    47de:	4543      	cmp	r3, r8
    47e0:	ddec      	ble.n	47bc <hal_flash_erase+0x58>
            rc = hf->hf_itf->hff_sector_info(hf, i, &start, &size);
    47e2:	6823      	ldr	r3, [r4, #0]
    47e4:	f8d3 900c 	ldr.w	r9, [r3, #12]
    47e8:	466b      	mov	r3, sp
    47ea:	aa01      	add	r2, sp, #4
    47ec:	4641      	mov	r1, r8
    47ee:	4620      	mov	r0, r4
    47f0:	47c8      	blx	r9
            assert(rc == 0);
    47f2:	2800      	cmp	r0, #0
    47f4:	d1e6      	bne.n	47c4 <hal_flash_erase+0x60>
            end_area = start + size;
    47f6:	9901      	ldr	r1, [sp, #4]
    47f8:	9b00      	ldr	r3, [sp, #0]
    47fa:	440b      	add	r3, r1
            if (address < end_area && end > start) {
    47fc:	429e      	cmp	r6, r3
    47fe:	d2eb      	bcs.n	47d8 <hal_flash_erase+0x74>
    4800:	428f      	cmp	r7, r1
    4802:	d9e9      	bls.n	47d8 <hal_flash_erase+0x74>
                if (hf->hf_itf->hff_erase_sector(hf, start)) {
    4804:	6823      	ldr	r3, [r4, #0]
    4806:	689b      	ldr	r3, [r3, #8]
    4808:	4620      	mov	r0, r4
    480a:	4798      	blx	r3
    480c:	2800      	cmp	r0, #0
    480e:	d0e3      	beq.n	47d8 <hal_flash_erase+0x74>
                    return SYS_EIO;
    4810:	f06f 0504 	mvn.w	r5, #4
    4814:	e7d2      	b.n	47bc <hal_flash_erase+0x58>
        for (i = 0; i < hf->hf_sector_cnt; i++) {
    4816:	46a8      	mov	r8, r5
    4818:	e7e0      	b.n	47dc <hal_flash_erase+0x78>
        return SYS_EINVAL;
    481a:	f06f 0501 	mvn.w	r5, #1
    481e:	e7cd      	b.n	47bc <hal_flash_erase+0x58>
        return SYS_EINVAL;
    4820:	f06f 0501 	mvn.w	r5, #1
    4824:	e7ca      	b.n	47bc <hal_flash_erase+0x58>
    4826:	f06f 0501 	mvn.w	r5, #1
    482a:	e7c7      	b.n	47bc <hal_flash_erase+0x58>
        return SYS_EACCES;
    482c:	f06f 0506 	mvn.w	r5, #6
    4830:	e7c4      	b.n	47bc <hal_flash_erase+0x58>
        return SYS_EINVAL;
    4832:	f06f 0501 	mvn.w	r5, #1
    4836:	e7c1      	b.n	47bc <hal_flash_erase+0x58>
    4838:	20006380 	.word	0x20006380

0000483c <hal_flash_is_erased>:

int
hal_flash_is_erased(const struct hal_flash *hf, uint32_t address, void *dst,
        uint32_t num_bytes)
{
    483c:	b5f8      	push	{r3, r4, r5, r6, r7, lr}
    483e:	4604      	mov	r4, r0
    4840:	4616      	mov	r6, r2
    4842:	461d      	mov	r5, r3
    uint8_t *buf;
    int rc;

    buf = dst;

    rc = hf->hf_itf->hff_read(hf, address, dst, num_bytes);
    4844:	6807      	ldr	r7, [r0, #0]
    4846:	683f      	ldr	r7, [r7, #0]
    4848:	47b8      	blx	r7
    if (rc != 0) {
    484a:	b960      	cbnz	r0, 4866 <hal_flash_is_erased+0x2a>
    484c:	4607      	mov	r7, r0
        return SYS_EIO;
    }

    for (i = 0; i < num_bytes; i++) {
    484e:	2300      	movs	r3, #0
    4850:	42ab      	cmp	r3, r5
    4852:	d205      	bcs.n	4860 <hal_flash_is_erased+0x24>
        if (buf[i] != hf->hf_erased_val) {
    4854:	5cf1      	ldrb	r1, [r6, r3]
    4856:	7d22      	ldrb	r2, [r4, #20]
    4858:	4291      	cmp	r1, r2
    485a:	d102      	bne.n	4862 <hal_flash_is_erased+0x26>
    for (i = 0; i < num_bytes; i++) {
    485c:	3301      	adds	r3, #1
    485e:	e7f7      	b.n	4850 <hal_flash_is_erased+0x14>
            return 0;
        }
    }
    return 1;
    4860:	2701      	movs	r7, #1
}
    4862:	4638      	mov	r0, r7
    4864:	bdf8      	pop	{r3, r4, r5, r6, r7, pc}
        return SYS_EIO;
    4866:	f06f 0704 	mvn.w	r7, #4
    486a:	e7fa      	b.n	4862 <hal_flash_is_erased+0x26>

0000486c <hal_flash_isempty>:

int
hal_flash_isempty(uint8_t id, uint32_t address, void *dst, uint32_t num_bytes)
{
    486c:	e92d 41f0 	stmdb	sp!, {r4, r5, r6, r7, r8, lr}
    4870:	460d      	mov	r5, r1
    4872:	4690      	mov	r8, r2
    4874:	461e      	mov	r6, r3
    const struct hal_flash *hf;
    int rc;

    hf = hal_bsp_flash_dev(id);
    4876:	f7fb fefb 	bl	670 <hal_bsp_flash_dev>
    if (!hf) {
    487a:	b1f8      	cbz	r0, 48bc <hal_flash_isempty+0x50>
    487c:	4604      	mov	r4, r0
        return SYS_EINVAL;
    }
    if (hal_flash_check_addr(hf, address) ||
    487e:	4629      	mov	r1, r5
    4880:	f7ff fed8 	bl	4634 <hal_flash_check_addr>
    4884:	b9e8      	cbnz	r0, 48c2 <hal_flash_isempty+0x56>
      hal_flash_check_addr(hf, address + num_bytes)) {
    4886:	19a9      	adds	r1, r5, r6
    4888:	4620      	mov	r0, r4
    488a:	f7ff fed3 	bl	4634 <hal_flash_check_addr>
    if (hal_flash_check_addr(hf, address) ||
    488e:	b9d8      	cbnz	r0, 48c8 <hal_flash_isempty+0x5c>
        return SYS_EINVAL;
    }
    if (hf->hf_itf->hff_is_empty) {
    4890:	6823      	ldr	r3, [r4, #0]
    4892:	691f      	ldr	r7, [r3, #16]
    4894:	b15f      	cbz	r7, 48ae <hal_flash_isempty+0x42>
        rc = hf->hf_itf->hff_is_empty(hf, address, dst, num_bytes);
    4896:	4633      	mov	r3, r6
    4898:	4642      	mov	r2, r8
    489a:	4629      	mov	r1, r5
    489c:	4620      	mov	r0, r4
    489e:	47b8      	blx	r7
        if (rc < 0) {
    48a0:	2800      	cmp	r0, #0
    48a2:	db01      	blt.n	48a8 <hal_flash_isempty+0x3c>
            return rc;
        }
    } else {
        return hal_flash_is_erased(hf, address, dst, num_bytes);
    }
}
    48a4:	e8bd 81f0 	ldmia.w	sp!, {r4, r5, r6, r7, r8, pc}
            return SYS_EIO;
    48a8:	f06f 0004 	mvn.w	r0, #4
    48ac:	e7fa      	b.n	48a4 <hal_flash_isempty+0x38>
        return hal_flash_is_erased(hf, address, dst, num_bytes);
    48ae:	4633      	mov	r3, r6
    48b0:	4642      	mov	r2, r8
    48b2:	4629      	mov	r1, r5
    48b4:	4620      	mov	r0, r4
    48b6:	f7ff ffc1 	bl	483c <hal_flash_is_erased>
    48ba:	e7f3      	b.n	48a4 <hal_flash_isempty+0x38>
        return SYS_EINVAL;
    48bc:	f06f 0001 	mvn.w	r0, #1
    48c0:	e7f0      	b.n	48a4 <hal_flash_isempty+0x38>
        return SYS_EINVAL;
    48c2:	f06f 0001 	mvn.w	r0, #1
    48c6:	e7ed      	b.n	48a4 <hal_flash_isempty+0x38>
    48c8:	f06f 0001 	mvn.w	r0, #1
    48cc:	e7ea      	b.n	48a4 <hal_flash_isempty+0x38>

000048ce <hal_system_start>:
                  /* 1st word is stack pointer */
                  "    msr  msp, %0       \n"
                  /* 2nd word is a reset handler (image entry) */
                  "    bx   %1            \n"
                  : /* no output */
                  : "r" (img_data[0]), "r" (img_data[1]));
    48ce:	6803      	ldr	r3, [r0, #0]
    48d0:	6842      	ldr	r2, [r0, #4]
    asm volatile (".syntax unified        \n"
    48d2:	f383 8808 	msr	MSP, r3
    48d6:	4710      	bx	r2

000048d8 <fwrite>:
    if (stream->vmt->read == NULL) return 0;
    return stream->vmt->read(stream, (char*)buf, size*nmemb) / size;
}

__extern_inline size_t fwrite(const void *buf, size_t size, size_t nmemb, FILE *stream)
{
    48d8:	b538      	push	{r3, r4, r5, lr}
    if (stream->vmt->write == NULL) return 0;
    48da:	681c      	ldr	r4, [r3, #0]
    48dc:	6825      	ldr	r5, [r4, #0]
    48de:	b145      	cbz	r5, 48f2 <fwrite+0x1a>
    48e0:	460c      	mov	r4, r1
    48e2:	4601      	mov	r1, r0
    return stream->vmt->write(stream, (char*)buf, size*nmemb) / size;
    48e4:	fb02 f204 	mul.w	r2, r2, r4
    48e8:	4618      	mov	r0, r3
    48ea:	47a8      	blx	r5
    48ec:	fbb0 f0f4 	udiv	r0, r0, r4
}
    48f0:	bd38      	pop	{r3, r4, r5, pc}
    if (stream->vmt->write == NULL) return 0;
    48f2:	2000      	movs	r0, #0
    48f4:	e7fc      	b.n	48f0 <fwrite+0x18>
	...

000048f8 <puts>:
{
	return fwrite(s, 1, strlen(s), f);
}

__extern_inline int puts(const char *s)
{
    48f8:	b538      	push	{r3, r4, r5, lr}
    48fa:	4605      	mov	r5, r0
	return fwrite(s, 1, strlen(s), stdout) + fwrite("\n", 1, 1, stdout);
    48fc:	f7fd fae4 	bl	1ec8 <strlen>
    4900:	4b08      	ldr	r3, [pc, #32]	; (4924 <puts+0x2c>)
    4902:	681c      	ldr	r4, [r3, #0]
    4904:	4623      	mov	r3, r4
    4906:	4602      	mov	r2, r0
    4908:	2101      	movs	r1, #1
    490a:	4628      	mov	r0, r5
    490c:	f7ff ffe4 	bl	48d8 <fwrite>
    4910:	4605      	mov	r5, r0
    4912:	4623      	mov	r3, r4
    4914:	2201      	movs	r2, #1
    4916:	4611      	mov	r1, r2
    4918:	4803      	ldr	r0, [pc, #12]	; (4928 <puts+0x30>)
    491a:	f7ff ffdd 	bl	48d8 <fwrite>
}
    491e:	4428      	add	r0, r5
    4920:	bd38      	pop	{r3, r4, r5, pc}
    4922:	bf00      	nop
    4924:	00005fdc 	.word	0x00005fdc
    4928:	00005ce8 	.word	0x00005ce8

0000492c <stdin_read>:

static size_t
stdin_read(FILE *fp, char *bp, size_t n)
{
    return 0;
}
    492c:	2000      	movs	r0, #0
    492e:	4770      	bx	lr

00004930 <stdout_write>:

static size_t
stdout_write(FILE *fp, const char *bp, size_t n)
{
    4930:	b510      	push	{r4, lr}
    4932:	4608      	mov	r0, r1
    4934:	4614      	mov	r4, r2
    console_write(bp, n);
    4936:	4611      	mov	r1, r2
    4938:	f7fd fe90 	bl	265c <console_write>
    return n;
}
    493c:	4620      	mov	r0, r4
    493e:	bd10      	pop	{r4, pc}

00004940 <ui2a>:
    char base;  /**<  number base (e.g.: 8, 10, 16) */
    char *bf;           /**<  Buffer to output */
};

static void ui2a(unsigned long long int num, struct param *p)
{
    4940:	e92d 47f0 	stmdb	sp!, {r4, r5, r6, r7, r8, r9, sl, lr}
    4944:	b082      	sub	sp, #8
    4946:	e9cd 0100 	strd	r0, r1, [sp]
    494a:	4690      	mov	r8, r2
    int n = 0;
    unsigned long long int d = 1;
    char *bf = p->bf;
    494c:	f8d2 9004 	ldr.w	r9, [r2, #4]

    if (p->hh == 1) {
    4950:	7893      	ldrb	r3, [r2, #2]
    4952:	f003 0330 	and.w	r3, r3, #48	; 0x30
    4956:	2b10      	cmp	r3, #16
    4958:	d004      	beq.n	4964 <ui2a+0x24>
        num = (unsigned short int)num;
    } else if (p->hh == 2) {
    495a:	2b20      	cmp	r3, #32
    495c:	d009      	beq.n	4972 <ui2a+0x32>
{
    495e:	2401      	movs	r4, #1
    4960:	2500      	movs	r5, #0
    4962:	e013      	b.n	498c <ui2a+0x4c>
    4964:	f8bd 2000 	ldrh.w	r2, [sp]
    4968:	b293      	uxth	r3, r2
    496a:	2400      	movs	r4, #0
    496c:	e9cd 3400 	strd	r3, r4, [sp]
    4970:	e7f5      	b.n	495e <ui2a+0x1e>
    4972:	e9dd 3400 	ldrd	r3, r4, [sp]
    4976:	f003 03ff 	and.w	r3, r3, #255	; 0xff
    497a:	2400      	movs	r4, #0
    497c:	e9cd 3400 	strd	r3, r4, [sp]
    4980:	e7ed      	b.n	495e <ui2a+0x1e>
        num = (unsigned char)num;
    }

    while (num / d >= p->base)
        d *= p->base;
    4982:	fb06 f305 	mul.w	r3, r6, r5
    4986:	fba4 4506 	umull	r4, r5, r4, r6
    498a:	441d      	add	r5, r3
    while (num / d >= p->base)
    498c:	4622      	mov	r2, r4
    498e:	462b      	mov	r3, r5
    4990:	e9dd 0100 	ldrd	r0, r1, [sp]
    4994:	f000 fdbc 	bl	5510 <__aeabi_uldivmod>
    4998:	f898 6003 	ldrb.w	r6, [r8, #3]
    499c:	2700      	movs	r7, #0
    499e:	42b9      	cmp	r1, r7
    49a0:	bf08      	it	eq
    49a2:	42b0      	cmpeq	r0, r6
    49a4:	d2ed      	bcs.n	4982 <ui2a+0x42>
    int n = 0;
    49a6:	f04f 0a00 	mov.w	sl, #0
    49aa:	e007      	b.n	49bc <ui2a+0x7c>
    while (d != 0) {
        unsigned long long  dgt = num / d;
        num %= d;
        d /= p->base;
        if (n || dgt > 0 || d == 0) {
            *bf++ = dgt + (dgt < 10 ? '0' : (p->uc ? 'A' : 'a') - 10);
    49ac:	2330      	movs	r3, #48	; 0x30
    49ae:	441e      	add	r6, r3
    49b0:	f889 6000 	strb.w	r6, [r9]
            ++n;
    49b4:	f10a 0a01 	add.w	sl, sl, #1
            *bf++ = dgt + (dgt < 10 ? '0' : (p->uc ? 'A' : 'a') - 10);
    49b8:	f109 0901 	add.w	r9, r9, #1
    while (d != 0) {
    49bc:	ea54 0305 	orrs.w	r3, r4, r5
    49c0:	d02e      	beq.n	4a20 <ui2a+0xe0>
        unsigned long long  dgt = num / d;
    49c2:	4622      	mov	r2, r4
    49c4:	462b      	mov	r3, r5
    49c6:	e9dd 0100 	ldrd	r0, r1, [sp]
    49ca:	f000 fda1 	bl	5510 <__aeabi_uldivmod>
    49ce:	4606      	mov	r6, r0
    49d0:	460f      	mov	r7, r1
        num %= d;
    49d2:	4622      	mov	r2, r4
    49d4:	462b      	mov	r3, r5
    49d6:	e9dd 0100 	ldrd	r0, r1, [sp]
    49da:	f000 fd99 	bl	5510 <__aeabi_uldivmod>
    49de:	e9cd 2300 	strd	r2, r3, [sp]
        d /= p->base;
    49e2:	f898 2003 	ldrb.w	r2, [r8, #3]
    49e6:	2300      	movs	r3, #0
    49e8:	4620      	mov	r0, r4
    49ea:	4629      	mov	r1, r5
    49ec:	f000 fd90 	bl	5510 <__aeabi_uldivmod>
    49f0:	4604      	mov	r4, r0
    49f2:	460d      	mov	r5, r1
        if (n || dgt > 0 || d == 0) {
    49f4:	f1ba 0f00 	cmp.w	sl, #0
    49f8:	d105      	bne.n	4a06 <ui2a+0xc6>
    49fa:	ea56 0307 	orrs.w	r3, r6, r7
    49fe:	d102      	bne.n	4a06 <ui2a+0xc6>
    4a00:	ea54 0305 	orrs.w	r3, r4, r5
    4a04:	d1da      	bne.n	49bc <ui2a+0x7c>
            *bf++ = dgt + (dgt < 10 ? '0' : (p->uc ? 'A' : 'a') - 10);
    4a06:	2f00      	cmp	r7, #0
    4a08:	bf08      	it	eq
    4a0a:	2e0a      	cmpeq	r6, #10
    4a0c:	d3ce      	bcc.n	49ac <ui2a+0x6c>
    4a0e:	f898 3002 	ldrb.w	r3, [r8, #2]
    4a12:	f013 0f04 	tst.w	r3, #4
    4a16:	d001      	beq.n	4a1c <ui2a+0xdc>
    4a18:	2337      	movs	r3, #55	; 0x37
    4a1a:	e7c8      	b.n	49ae <ui2a+0x6e>
    4a1c:	2357      	movs	r3, #87	; 0x57
    4a1e:	e7c6      	b.n	49ae <ui2a+0x6e>
        }
    }
    *bf = 0;
    4a20:	2300      	movs	r3, #0
    4a22:	f889 3000 	strb.w	r3, [r9]
}
    4a26:	b002      	add	sp, #8
    4a28:	e8bd 87f0 	ldmia.w	sp!, {r4, r5, r6, r7, r8, r9, sl, pc}

00004a2c <i2a>:

static void i2a(long long int num, struct param *p)
{
    4a2c:	b508      	push	{r3, lr}
    if (num < 0) {
    4a2e:	2800      	cmp	r0, #0
    4a30:	f171 0300 	sbcs.w	r3, r1, #0
    4a34:	db02      	blt.n	4a3c <i2a+0x10>
        num = -num;
        p->sign = 1;
    }
    ui2a(num, p);
    4a36:	f7ff ff83 	bl	4940 <ui2a>
}
    4a3a:	bd08      	pop	{r3, pc}
        num = -num;
    4a3c:	4240      	negs	r0, r0
    4a3e:	eb61 0141 	sbc.w	r1, r1, r1, lsl #1
        p->sign = 1;
    4a42:	7893      	ldrb	r3, [r2, #2]
    4a44:	f043 0301 	orr.w	r3, r3, #1
    4a48:	7093      	strb	r3, [r2, #2]
    4a4a:	e7f4      	b.n	4a36 <i2a+0xa>

00004a4c <a2d>:

static int a2d(char ch)
{
    if (ch >= '0' && ch <= '9')
    4a4c:	f1a0 0330 	sub.w	r3, r0, #48	; 0x30
    4a50:	b2db      	uxtb	r3, r3
    4a52:	2b09      	cmp	r3, #9
    4a54:	d90b      	bls.n	4a6e <a2d+0x22>
        return ch - '0';
    else if (ch >= 'a' && ch <= 'f')
    4a56:	f1a0 0361 	sub.w	r3, r0, #97	; 0x61
    4a5a:	b2db      	uxtb	r3, r3
    4a5c:	2b05      	cmp	r3, #5
    4a5e:	d908      	bls.n	4a72 <a2d+0x26>
        return ch - 'a' + 10;
    else if (ch >= 'A' && ch <= 'F')
    4a60:	f1a0 0341 	sub.w	r3, r0, #65	; 0x41
    4a64:	b2db      	uxtb	r3, r3
    4a66:	2b05      	cmp	r3, #5
    4a68:	d805      	bhi.n	4a76 <a2d+0x2a>
        return ch - 'A' + 10;
    4a6a:	3837      	subs	r0, #55	; 0x37
    4a6c:	4770      	bx	lr
        return ch - '0';
    4a6e:	3830      	subs	r0, #48	; 0x30
    4a70:	4770      	bx	lr
        return ch - 'a' + 10;
    4a72:	3857      	subs	r0, #87	; 0x57
    4a74:	4770      	bx	lr
    else
        return -1;
    4a76:	f04f 30ff 	mov.w	r0, #4294967295	; 0xffffffff
}
    4a7a:	4770      	bx	lr

00004a7c <a2i>:

static char a2i(char ch, const char **src, int base, unsigned char *nump)
{
    4a7c:	e92d 43f8 	stmdb	sp!, {r3, r4, r5, r6, r7, r8, r9, lr}
    4a80:	4605      	mov	r5, r0
    4a82:	4688      	mov	r8, r1
    4a84:	4617      	mov	r7, r2
    4a86:	4699      	mov	r9, r3
    const char *p = *src;
    4a88:	680c      	ldr	r4, [r1, #0]
    int num = 0;
    4a8a:	2600      	movs	r6, #0
    int digit;
    while ((digit = a2d(ch)) >= 0) {
    4a8c:	4628      	mov	r0, r5
    4a8e:	f7ff ffdd 	bl	4a4c <a2d>
    4a92:	2800      	cmp	r0, #0
    4a94:	db06      	blt.n	4aa4 <a2i+0x28>
        if (digit > base)
    4a96:	42b8      	cmp	r0, r7
    4a98:	dc04      	bgt.n	4aa4 <a2i+0x28>
            break;
        num = num * base + digit;
    4a9a:	fb07 0606 	mla	r6, r7, r6, r0
        ch = *p++;
    4a9e:	7825      	ldrb	r5, [r4, #0]
    4aa0:	3401      	adds	r4, #1
    4aa2:	e7f3      	b.n	4a8c <a2i+0x10>
    }
    *src = p;
    4aa4:	f8c8 4000 	str.w	r4, [r8]
    *nump = num;
    4aa8:	f889 6000 	strb.w	r6, [r9]
    return ch;
}
    4aac:	4628      	mov	r0, r5
    4aae:	e8bd 83f8 	ldmia.w	sp!, {r3, r4, r5, r6, r7, r8, r9, pc}

00004ab2 <putf>:

static int putf(FILE *putp, char c)
{
    4ab2:	b500      	push	{lr}
    4ab4:	b083      	sub	sp, #12

__extern_inline int fputc(int c, FILE *f)
{
	unsigned char ch = c;
    4ab6:	f88d 1007 	strb.w	r1, [sp, #7]
    if (stream->vmt->write == NULL) return 0;
    4aba:	6803      	ldr	r3, [r0, #0]
    4abc:	681b      	ldr	r3, [r3, #0]
    4abe:	b14b      	cbz	r3, 4ad4 <putf+0x22>
    return stream->vmt->write(stream, (char*)buf, size*nmemb) / size;
    4ac0:	2201      	movs	r2, #1
    4ac2:	f10d 0107 	add.w	r1, sp, #7
    4ac6:	4798      	blx	r3
	return fwrite(&ch, 1, 1, f) == 1 ? ch : EOF;
    4ac8:	2801      	cmp	r0, #1
    4aca:	d005      	beq.n	4ad8 <putf+0x26>
    if (fputc(c, putp) == EOF)
        return 0;
    4acc:	2000      	movs	r0, #0
    else
        return 1;
}
    4ace:	b003      	add	sp, #12
    4ad0:	f85d fb04 	ldr.w	pc, [sp], #4
        return 0;
    4ad4:	2000      	movs	r0, #0
    4ad6:	e7fa      	b.n	4ace <putf+0x1c>
        return 1;
    4ad8:	2001      	movs	r0, #1
    4ada:	e7f8      	b.n	4ace <putf+0x1c>

00004adc <putchw>:

static unsigned putchw(FILE *putp, struct param *p)
{
    4adc:	e92d 41f0 	stmdb	sp!, {r4, r5, r6, r7, r8, lr}
    4ae0:	4606      	mov	r6, r0
    4ae2:	460f      	mov	r7, r1
    unsigned written = 0;
    char ch;
    int n = p->width;
    4ae4:	780c      	ldrb	r4, [r1, #0]
    char *bf = p->bf;
    4ae6:	684b      	ldr	r3, [r1, #4]

    /* Number of filling characters */
    while (*bf++ && n > 0)
    4ae8:	e001      	b.n	4aee <putchw+0x12>
        n--;
    4aea:	3c01      	subs	r4, #1
    while (*bf++ && n > 0)
    4aec:	4613      	mov	r3, r2
    4aee:	1c5a      	adds	r2, r3, #1
    4af0:	781b      	ldrb	r3, [r3, #0]
    4af2:	b10b      	cbz	r3, 4af8 <putchw+0x1c>
    4af4:	2c00      	cmp	r4, #0
    4af6:	dcf8      	bgt.n	4aea <putchw+0xe>
    if (p->sign)
    4af8:	78bb      	ldrb	r3, [r7, #2]
    4afa:	f013 0f01 	tst.w	r3, #1
    4afe:	d000      	beq.n	4b02 <putchw+0x26>
        n--;
    4b00:	3c01      	subs	r4, #1
    if (p->alt && p->base == 16)
    4b02:	887b      	ldrh	r3, [r7, #2]
    4b04:	f023 03fd 	bic.w	r3, r3, #253	; 0xfd
    4b08:	b29b      	uxth	r3, r3
    4b0a:	f241 0202 	movw	r2, #4098	; 0x1002
    4b0e:	4293      	cmp	r3, r2
    4b10:	d01c      	beq.n	4b4c <putchw+0x70>
        n -= 2;
    else if (p->alt && p->base == 8)
    4b12:	f640 0202 	movw	r2, #2050	; 0x802
    4b16:	4293      	cmp	r3, r2
    4b18:	d01a      	beq.n	4b50 <putchw+0x74>
        n--;

    /* Unless left-aligned, fill with space, before alternate or sign */
    if (!p->lz && !p->left) {
    4b1a:	683b      	ldr	r3, [r7, #0]
    4b1c:	4d35      	ldr	r5, [pc, #212]	; (4bf4 <putchw+0x118>)
    4b1e:	401d      	ands	r5, r3
    4b20:	b1f5      	cbz	r5, 4b60 <putchw+0x84>
    unsigned written = 0;
    4b22:	2500      	movs	r5, #0
        while (n-- > 0)
            written += putf(putp, ' ');
    }

    /* print sign */
    if (p->sign)
    4b24:	78bb      	ldrb	r3, [r7, #2]
    4b26:	f013 0f01 	tst.w	r3, #1
    4b2a:	d11f      	bne.n	4b6c <putchw+0x90>
        written += putf(putp, '-');

    /* Alternate */
    if (p->alt && p->base == 16) {
    4b2c:	887b      	ldrh	r3, [r7, #2]
    4b2e:	f023 03fd 	bic.w	r3, r3, #253	; 0xfd
    4b32:	b29b      	uxth	r3, r3
    4b34:	f241 0202 	movw	r2, #4098	; 0x1002
    4b38:	4293      	cmp	r3, r2
    4b3a:	d01d      	beq.n	4b78 <putchw+0x9c>
        written += putf(putp, '0');
        written += putf(putp, (p->uc ? 'X' : 'x'));
    } else if (p->alt && p->base == 8) {
    4b3c:	f640 0202 	movw	r2, #2050	; 0x802
    4b40:	4293      	cmp	r3, r2
    4b42:	d02a      	beq.n	4b9a <putchw+0xbe>
        written += putf(putp, '0');
    }

    /* Fill with zeros, after alternate or sign */
    if (p->lz) {
    4b44:	787b      	ldrb	r3, [r7, #1]
    4b46:	bba3      	cbnz	r3, 4bb2 <putchw+0xd6>
        while (n-- > 0)
            written += putf(putp, '0');
    }

    /* Put actual buffer */
    bf = p->bf;
    4b48:	687b      	ldr	r3, [r7, #4]
    while ((ch = *bf++))
    4b4a:	e03d      	b.n	4bc8 <putchw+0xec>
        n -= 2;
    4b4c:	3c02      	subs	r4, #2
    4b4e:	e7e4      	b.n	4b1a <putchw+0x3e>
        n--;
    4b50:	3c01      	subs	r4, #1
    4b52:	e7e2      	b.n	4b1a <putchw+0x3e>
            written += putf(putp, ' ');
    4b54:	2120      	movs	r1, #32
    4b56:	4630      	mov	r0, r6
    4b58:	f7ff ffab 	bl	4ab2 <putf>
    4b5c:	4405      	add	r5, r0
        while (n-- > 0)
    4b5e:	4644      	mov	r4, r8
    4b60:	f104 38ff 	add.w	r8, r4, #4294967295	; 0xffffffff
    4b64:	2c00      	cmp	r4, #0
    4b66:	dcf5      	bgt.n	4b54 <putchw+0x78>
    4b68:	4644      	mov	r4, r8
    4b6a:	e7db      	b.n	4b24 <putchw+0x48>
        written += putf(putp, '-');
    4b6c:	212d      	movs	r1, #45	; 0x2d
    4b6e:	4630      	mov	r0, r6
    4b70:	f7ff ff9f 	bl	4ab2 <putf>
    4b74:	4405      	add	r5, r0
    4b76:	e7d9      	b.n	4b2c <putchw+0x50>
        written += putf(putp, '0');
    4b78:	2130      	movs	r1, #48	; 0x30
    4b7a:	4630      	mov	r0, r6
    4b7c:	f7ff ff99 	bl	4ab2 <putf>
    4b80:	4405      	add	r5, r0
        written += putf(putp, (p->uc ? 'X' : 'x'));
    4b82:	78bb      	ldrb	r3, [r7, #2]
    4b84:	f013 0f04 	tst.w	r3, #4
    4b88:	d005      	beq.n	4b96 <putchw+0xba>
    4b8a:	2158      	movs	r1, #88	; 0x58
    4b8c:	4630      	mov	r0, r6
    4b8e:	f7ff ff90 	bl	4ab2 <putf>
    4b92:	4405      	add	r5, r0
    4b94:	e7d6      	b.n	4b44 <putchw+0x68>
    4b96:	2178      	movs	r1, #120	; 0x78
    4b98:	e7f8      	b.n	4b8c <putchw+0xb0>
        written += putf(putp, '0');
    4b9a:	2130      	movs	r1, #48	; 0x30
    4b9c:	4630      	mov	r0, r6
    4b9e:	f7ff ff88 	bl	4ab2 <putf>
    4ba2:	4405      	add	r5, r0
    4ba4:	e7ce      	b.n	4b44 <putchw+0x68>
            written += putf(putp, '0');
    4ba6:	2130      	movs	r1, #48	; 0x30
    4ba8:	4630      	mov	r0, r6
    4baa:	f7ff ff82 	bl	4ab2 <putf>
    4bae:	4405      	add	r5, r0
        while (n-- > 0)
    4bb0:	4644      	mov	r4, r8
    4bb2:	f104 38ff 	add.w	r8, r4, #4294967295	; 0xffffffff
    4bb6:	2c00      	cmp	r4, #0
    4bb8:	dcf5      	bgt.n	4ba6 <putchw+0xca>
    4bba:	4644      	mov	r4, r8
    4bbc:	e7c4      	b.n	4b48 <putchw+0x6c>
        written += putf(putp, ch);
    4bbe:	4630      	mov	r0, r6
    4bc0:	f7ff ff77 	bl	4ab2 <putf>
    4bc4:	4405      	add	r5, r0
    while ((ch = *bf++))
    4bc6:	4643      	mov	r3, r8
    4bc8:	f103 0801 	add.w	r8, r3, #1
    4bcc:	7819      	ldrb	r1, [r3, #0]
    4bce:	2900      	cmp	r1, #0
    4bd0:	d1f5      	bne.n	4bbe <putchw+0xe2>

    /* If left-aligned, pad the end with spaces. */
    if (p->left) {
    4bd2:	78bb      	ldrb	r3, [r7, #2]
    4bd4:	f013 0f08 	tst.w	r3, #8
    4bd8:	d106      	bne.n	4be8 <putchw+0x10c>
    4bda:	e008      	b.n	4bee <putchw+0x112>
        while (n-- > 0)
            written += putf(putp, ' ');
    4bdc:	2120      	movs	r1, #32
    4bde:	4630      	mov	r0, r6
    4be0:	f7ff ff67 	bl	4ab2 <putf>
    4be4:	4405      	add	r5, r0
        while (n-- > 0)
    4be6:	463c      	mov	r4, r7
    4be8:	1e67      	subs	r7, r4, #1
    4bea:	2c00      	cmp	r4, #0
    4bec:	dcf6      	bgt.n	4bdc <putchw+0x100>
    }
    
    return written;
}
    4bee:	4628      	mov	r0, r5
    4bf0:	e8bd 81f0 	ldmia.w	sp!, {r4, r5, r6, r7, r8, pc}
    4bf4:	0008ff00 	.word	0x0008ff00

00004bf8 <intarg>:
static unsigned long long
intarg(int lng, int sign, va_list *va)
{
    unsigned long long val;

    switch (lng) {
    4bf8:	b160      	cbz	r0, 4c14 <intarg+0x1c>
    4bfa:	2801      	cmp	r0, #1
    4bfc:	d017      	beq.n	4c2e <intarg+0x36>
        }
        break;

    case 2:
    default:
        if (sign) {
    4bfe:	bb19      	cbnz	r1, 4c48 <intarg+0x50>
            val = va_arg(*va, long long);
        } else {
            val = va_arg(*va, unsigned long long);
    4c00:	6813      	ldr	r3, [r2, #0]
    4c02:	3307      	adds	r3, #7
    4c04:	f023 0307 	bic.w	r3, r3, #7
    4c08:	f103 0108 	add.w	r1, r3, #8
    4c0c:	6011      	str	r1, [r2, #0]
    4c0e:	e9d3 0100 	ldrd	r0, r1, [r3]
        }
        break;
    }

    return val;
}
    4c12:	4770      	bx	lr
        if (sign) {
    4c14:	b129      	cbz	r1, 4c22 <intarg+0x2a>
            val = va_arg(*va, int);
    4c16:	6813      	ldr	r3, [r2, #0]
    4c18:	1d19      	adds	r1, r3, #4
    4c1a:	6011      	str	r1, [r2, #0]
    4c1c:	6818      	ldr	r0, [r3, #0]
    4c1e:	17c1      	asrs	r1, r0, #31
    4c20:	4770      	bx	lr
            val = va_arg(*va, unsigned int);
    4c22:	6813      	ldr	r3, [r2, #0]
    4c24:	1d19      	adds	r1, r3, #4
    4c26:	6011      	str	r1, [r2, #0]
    4c28:	6818      	ldr	r0, [r3, #0]
    4c2a:	2100      	movs	r1, #0
    4c2c:	4770      	bx	lr
        if (sign) {
    4c2e:	b129      	cbz	r1, 4c3c <intarg+0x44>
            val = va_arg(*va, long);
    4c30:	6813      	ldr	r3, [r2, #0]
    4c32:	1d19      	adds	r1, r3, #4
    4c34:	6011      	str	r1, [r2, #0]
    4c36:	6818      	ldr	r0, [r3, #0]
    4c38:	17c1      	asrs	r1, r0, #31
    4c3a:	4770      	bx	lr
            val = va_arg(*va, unsigned long);
    4c3c:	6813      	ldr	r3, [r2, #0]
    4c3e:	1d19      	adds	r1, r3, #4
    4c40:	6011      	str	r1, [r2, #0]
    4c42:	6818      	ldr	r0, [r3, #0]
    4c44:	2100      	movs	r1, #0
    4c46:	4770      	bx	lr
            val = va_arg(*va, long long);
    4c48:	6813      	ldr	r3, [r2, #0]
    4c4a:	3307      	adds	r3, #7
    4c4c:	f023 0307 	bic.w	r3, r3, #7
    4c50:	f103 0108 	add.w	r1, r3, #8
    4c54:	6011      	str	r1, [r2, #0]
    4c56:	e9d3 0100 	ldrd	r0, r1, [r3]
    4c5a:	4770      	bx	lr

00004c5c <tfp_format>:

size_t tfp_format(FILE *putp, const char *fmt, va_list va)
{
    4c5c:	b570      	push	{r4, r5, r6, lr}
    4c5e:	b08a      	sub	sp, #40	; 0x28
    4c60:	4605      	mov	r5, r0
    4c62:	9101      	str	r1, [sp, #4]
    4c64:	9200      	str	r2, [sp, #0]
    double d;
    int n;
#endif
    int i;

    p.bf = bf;
    4c66:	ab02      	add	r3, sp, #8
    4c68:	9309      	str	r3, [sp, #36]	; 0x24
    size_t written = 0;
    4c6a:	2400      	movs	r4, #0

    while ((ch = *(fmt++))) {
    4c6c:	9b01      	ldr	r3, [sp, #4]
    4c6e:	1c5a      	adds	r2, r3, #1
    4c70:	9201      	str	r2, [sp, #4]
    4c72:	7819      	ldrb	r1, [r3, #0]
    4c74:	2900      	cmp	r1, #0
    4c76:	f000 813a 	beq.w	4eee <tfp_format+0x292>
        if (ch != '%') {
    4c7a:	2925      	cmp	r1, #37	; 0x25
    4c7c:	d004      	beq.n	4c88 <tfp_format+0x2c>
            written += putf(putp, ch);
    4c7e:	4628      	mov	r0, r5
    4c80:	f7ff ff17 	bl	4ab2 <putf>
    4c84:	4404      	add	r4, r0
    4c86:	e7f1      	b.n	4c6c <tfp_format+0x10>
        } else {
            /* Init parameter struct */
            p.lz = 0;
    4c88:	2200      	movs	r2, #0
    4c8a:	f88d 2021 	strb.w	r2, [sp, #33]	; 0x21
            p.alt = 0;
    4c8e:	f89d 3022 	ldrb.w	r3, [sp, #34]	; 0x22
            p.width = 0;
    4c92:	f88d 2020 	strb.w	r2, [sp, #32]
            p.sign = 0;
            p.left = 0;
            p.uc = 0;
            p.hh = 0;
    4c96:	f003 03f0 	and.w	r3, r3, #240	; 0xf0
    4c9a:	f362 1305 	bfi	r3, r2, #4, #2
    4c9e:	f88d 3022 	strb.w	r3, [sp, #34]	; 0x22
            lng = 0;

            /* Flags */
            while ((ch = *(fmt++))) {
    4ca2:	9b01      	ldr	r3, [sp, #4]
    4ca4:	1c5a      	adds	r2, r3, #1
    4ca6:	9201      	str	r2, [sp, #4]
    4ca8:	7818      	ldrb	r0, [r3, #0]
    4caa:	b128      	cbz	r0, 4cb8 <tfp_format+0x5c>
                switch (ch) {
    4cac:	282d      	cmp	r0, #45	; 0x2d
    4cae:	d052      	beq.n	4d56 <tfp_format+0xfa>
    4cb0:	2830      	cmp	r0, #48	; 0x30
    4cb2:	d040      	beq.n	4d36 <tfp_format+0xda>
    4cb4:	2823      	cmp	r0, #35	; 0x23
    4cb6:	d047      	beq.n	4d48 <tfp_format+0xec>
                }
                break;
            }

            /* Width */
            if (ch == '*') {
    4cb8:	282a      	cmp	r0, #42	; 0x2a
    4cba:	d056      	beq.n	4d6a <tfp_format+0x10e>
                    p.width = UCHAR_MAX;
                } else if (i > 0) {
                    p.width = i;
                }
                ch = *(fmt++);
            } else if (ch >= '0' && ch <= '9') {
    4cbc:	f1a0 0330 	sub.w	r3, r0, #48	; 0x30
    4cc0:	b2db      	uxtb	r3, r3
    4cc2:	2b09      	cmp	r3, #9
    4cc4:	d965      	bls.n	4d92 <tfp_format+0x136>
                ch = a2i(ch, &fmt, 10, &(p.width));
            }
            if (ch == 'l') {
    4cc6:	286c      	cmp	r0, #108	; 0x6c
    4cc8:	d069      	beq.n	4d9e <tfp_format+0x142>

                if (ch == 'l') {
                    ch = *(fmt++);
                    lng = 2;
                }
            } else if (ch == 'h') {
    4cca:	2868      	cmp	r0, #104	; 0x68
    4ccc:	d074      	beq.n	4db8 <tfp_format+0x15c>
            lng = 0;
    4cce:	2300      	movs	r3, #0
                    ch = *(fmt++);
                    p.hh = 2;
                }
            }

            if (ch == 'z') {
    4cd0:	287a      	cmp	r0, #122	; 0x7a
    4cd2:	f000 808b 	beq.w	4dec <tfp_format+0x190>
                ch = *(fmt++);
            }

            switch (ch) {
    4cd6:	2869      	cmp	r0, #105	; 0x69
    4cd8:	f000 80a9 	beq.w	4e2e <tfp_format+0x1d2>
    4cdc:	f240 808b 	bls.w	4df6 <tfp_format+0x19a>
    4ce0:	2873      	cmp	r0, #115	; 0x73
    4ce2:	f000 80f7 	beq.w	4ed4 <tfp_format+0x278>
    4ce6:	f200 80b3 	bhi.w	4e50 <tfp_format+0x1f4>
    4cea:	286f      	cmp	r0, #111	; 0x6f
    4cec:	f000 80e1 	beq.w	4eb2 <tfp_format+0x256>
    4cf0:	2870      	cmp	r0, #112	; 0x70
    4cf2:	d1bb      	bne.n	4c6c <tfp_format+0x10>
                p.base = 8;
                ui2a(intarg(lng, 0, &va), &p);
                written += putchw(putp, &p);
                break;
            case 'p':
                v = va_arg(va, void *);
    4cf4:	9b00      	ldr	r3, [sp, #0]
    4cf6:	1d1a      	adds	r2, r3, #4
    4cf8:	9200      	str	r2, [sp, #0]
    4cfa:	6818      	ldr	r0, [r3, #0]
                p.base = 16;
    4cfc:	2310      	movs	r3, #16
    4cfe:	f88d 3023 	strb.w	r3, [sp, #35]	; 0x23
                ui2a((uintptr_t)v, &p);
    4d02:	aa08      	add	r2, sp, #32
    4d04:	2100      	movs	r1, #0
    4d06:	f7ff fe1b 	bl	4940 <ui2a>
                p.width = 2 * sizeof(void*);
    4d0a:	2308      	movs	r3, #8
    4d0c:	f88d 3020 	strb.w	r3, [sp, #32]
                p.lz = 1;
    4d10:	2301      	movs	r3, #1
    4d12:	f88d 3021 	strb.w	r3, [sp, #33]	; 0x21
                written += putf(putp, '0');
    4d16:	2130      	movs	r1, #48	; 0x30
    4d18:	4628      	mov	r0, r5
    4d1a:	f7ff feca 	bl	4ab2 <putf>
    4d1e:	4404      	add	r4, r0
                written += putf(putp, 'x');
    4d20:	2178      	movs	r1, #120	; 0x78
    4d22:	4628      	mov	r0, r5
    4d24:	f7ff fec5 	bl	4ab2 <putf>
    4d28:	4404      	add	r4, r0
                written += putchw(putp, &p);
    4d2a:	a908      	add	r1, sp, #32
    4d2c:	4628      	mov	r0, r5
    4d2e:	f7ff fed5 	bl	4adc <putchw>
    4d32:	4404      	add	r4, r0
                break;
    4d34:	e79a      	b.n	4c6c <tfp_format+0x10>
                    if (!p.left) {
    4d36:	f89d 3022 	ldrb.w	r3, [sp, #34]	; 0x22
    4d3a:	f013 0f08 	tst.w	r3, #8
    4d3e:	d1b0      	bne.n	4ca2 <tfp_format+0x46>
                        p.lz = 1;
    4d40:	2301      	movs	r3, #1
    4d42:	f88d 3021 	strb.w	r3, [sp, #33]	; 0x21
                    continue;
    4d46:	e7ac      	b.n	4ca2 <tfp_format+0x46>
                    p.alt = 1;
    4d48:	f89d 3022 	ldrb.w	r3, [sp, #34]	; 0x22
    4d4c:	f043 0302 	orr.w	r3, r3, #2
    4d50:	f88d 3022 	strb.w	r3, [sp, #34]	; 0x22
                    continue;
    4d54:	e7a5      	b.n	4ca2 <tfp_format+0x46>
                    p.left = 1;
    4d56:	f89d 3022 	ldrb.w	r3, [sp, #34]	; 0x22
    4d5a:	f043 0308 	orr.w	r3, r3, #8
    4d5e:	f88d 3022 	strb.w	r3, [sp, #34]	; 0x22
                    p.lz = 0;
    4d62:	2300      	movs	r3, #0
    4d64:	f88d 3021 	strb.w	r3, [sp, #33]	; 0x21
                    continue;
    4d68:	e79b      	b.n	4ca2 <tfp_format+0x46>
                i = intarg(0, 1, &va);
    4d6a:	466a      	mov	r2, sp
    4d6c:	2101      	movs	r1, #1
    4d6e:	2000      	movs	r0, #0
    4d70:	f7ff ff42 	bl	4bf8 <intarg>
                if (i > UCHAR_MAX) {
    4d74:	28ff      	cmp	r0, #255	; 0xff
    4d76:	dd07      	ble.n	4d88 <tfp_format+0x12c>
                    p.width = UCHAR_MAX;
    4d78:	23ff      	movs	r3, #255	; 0xff
    4d7a:	f88d 3020 	strb.w	r3, [sp, #32]
                ch = *(fmt++);
    4d7e:	9b01      	ldr	r3, [sp, #4]
    4d80:	1c5a      	adds	r2, r3, #1
    4d82:	9201      	str	r2, [sp, #4]
    4d84:	7818      	ldrb	r0, [r3, #0]
    4d86:	e79e      	b.n	4cc6 <tfp_format+0x6a>
                } else if (i > 0) {
    4d88:	2800      	cmp	r0, #0
    4d8a:	ddf8      	ble.n	4d7e <tfp_format+0x122>
                    p.width = i;
    4d8c:	f88d 0020 	strb.w	r0, [sp, #32]
    4d90:	e7f5      	b.n	4d7e <tfp_format+0x122>
                ch = a2i(ch, &fmt, 10, &(p.width));
    4d92:	ab08      	add	r3, sp, #32
    4d94:	220a      	movs	r2, #10
    4d96:	a901      	add	r1, sp, #4
    4d98:	f7ff fe70 	bl	4a7c <a2i>
    4d9c:	e793      	b.n	4cc6 <tfp_format+0x6a>
                ch = *(fmt++);
    4d9e:	9b01      	ldr	r3, [sp, #4]
    4da0:	1c5a      	adds	r2, r3, #1
    4da2:	9201      	str	r2, [sp, #4]
    4da4:	7818      	ldrb	r0, [r3, #0]
                if (ch == 'l') {
    4da6:	286c      	cmp	r0, #108	; 0x6c
    4da8:	d001      	beq.n	4dae <tfp_format+0x152>
                lng = 1;
    4daa:	2301      	movs	r3, #1
    4dac:	e790      	b.n	4cd0 <tfp_format+0x74>
                    ch = *(fmt++);
    4dae:	1c9a      	adds	r2, r3, #2
    4db0:	9201      	str	r2, [sp, #4]
    4db2:	7858      	ldrb	r0, [r3, #1]
                    lng = 2;
    4db4:	2302      	movs	r3, #2
    4db6:	e78b      	b.n	4cd0 <tfp_format+0x74>
                ch = *(fmt++);
    4db8:	9b01      	ldr	r3, [sp, #4]
    4dba:	1c5a      	adds	r2, r3, #1
    4dbc:	9201      	str	r2, [sp, #4]
    4dbe:	7818      	ldrb	r0, [r3, #0]
                p.hh = 1;
    4dc0:	f89d 1022 	ldrb.w	r1, [sp, #34]	; 0x22
    4dc4:	2601      	movs	r6, #1
    4dc6:	f366 1105 	bfi	r1, r6, #4, #2
    4dca:	f88d 1022 	strb.w	r1, [sp, #34]	; 0x22
                if (ch == 'h') {
    4dce:	2868      	cmp	r0, #104	; 0x68
    4dd0:	d001      	beq.n	4dd6 <tfp_format+0x17a>
            lng = 0;
    4dd2:	2300      	movs	r3, #0
    4dd4:	e77c      	b.n	4cd0 <tfp_format+0x74>
                    ch = *(fmt++);
    4dd6:	4432      	add	r2, r6
    4dd8:	9201      	str	r2, [sp, #4]
    4dda:	7858      	ldrb	r0, [r3, #1]
                    p.hh = 2;
    4ddc:	b2cb      	uxtb	r3, r1
    4dde:	2202      	movs	r2, #2
    4de0:	f362 1305 	bfi	r3, r2, #4, #2
    4de4:	f88d 3022 	strb.w	r3, [sp, #34]	; 0x22
            lng = 0;
    4de8:	2300      	movs	r3, #0
    4dea:	e771      	b.n	4cd0 <tfp_format+0x74>
                ch = *(fmt++);
    4dec:	9a01      	ldr	r2, [sp, #4]
    4dee:	1c51      	adds	r1, r2, #1
    4df0:	9101      	str	r1, [sp, #4]
    4df2:	7810      	ldrb	r0, [r2, #0]
    4df4:	e76f      	b.n	4cd6 <tfp_format+0x7a>
            switch (ch) {
    4df6:	2858      	cmp	r0, #88	; 0x58
    4df8:	d040      	beq.n	4e7c <tfp_format+0x220>
    4dfa:	d80a      	bhi.n	4e12 <tfp_format+0x1b6>
    4dfc:	2800      	cmp	r0, #0
    4dfe:	d076      	beq.n	4eee <tfp_format+0x292>
    4e00:	2825      	cmp	r0, #37	; 0x25
    4e02:	f47f af33 	bne.w	4c6c <tfp_format+0x10>
                /* Output the decimal part. */
                written += putchw(putp, &p);
                break;
#endif
            case '%':
                written += putf(putp, ch);
    4e06:	4601      	mov	r1, r0
    4e08:	4628      	mov	r0, r5
    4e0a:	f7ff fe52 	bl	4ab2 <putf>
    4e0e:	4404      	add	r4, r0
                break;
    4e10:	e72c      	b.n	4c6c <tfp_format+0x10>
            switch (ch) {
    4e12:	2863      	cmp	r0, #99	; 0x63
    4e14:	d108      	bne.n	4e28 <tfp_format+0x1cc>
                written += putf(putp, (char)(va_arg(va, int)));
    4e16:	9b00      	ldr	r3, [sp, #0]
    4e18:	1d1a      	adds	r2, r3, #4
    4e1a:	9200      	str	r2, [sp, #0]
    4e1c:	7819      	ldrb	r1, [r3, #0]
    4e1e:	4628      	mov	r0, r5
    4e20:	f7ff fe47 	bl	4ab2 <putf>
    4e24:	4404      	add	r4, r0
                break;
    4e26:	e721      	b.n	4c6c <tfp_format+0x10>
            switch (ch) {
    4e28:	2864      	cmp	r0, #100	; 0x64
    4e2a:	f47f af1f 	bne.w	4c6c <tfp_format+0x10>
                p.base = 10;
    4e2e:	220a      	movs	r2, #10
    4e30:	f88d 2023 	strb.w	r2, [sp, #35]	; 0x23
                i2a(intarg(lng, 1, &va), &p);
    4e34:	466a      	mov	r2, sp
    4e36:	2101      	movs	r1, #1
    4e38:	4618      	mov	r0, r3
    4e3a:	f7ff fedd 	bl	4bf8 <intarg>
    4e3e:	aa08      	add	r2, sp, #32
    4e40:	f7ff fdf4 	bl	4a2c <i2a>
                written += putchw(putp, &p);
    4e44:	a908      	add	r1, sp, #32
    4e46:	4628      	mov	r0, r5
    4e48:	f7ff fe48 	bl	4adc <putchw>
    4e4c:	4404      	add	r4, r0
                break;
    4e4e:	e70d      	b.n	4c6c <tfp_format+0x10>
            switch (ch) {
    4e50:	2875      	cmp	r0, #117	; 0x75
    4e52:	d110      	bne.n	4e76 <tfp_format+0x21a>
                p.base = 10;
    4e54:	220a      	movs	r2, #10
    4e56:	f88d 2023 	strb.w	r2, [sp, #35]	; 0x23
                ui2a(intarg(lng, 0, &va), &p);
    4e5a:	466a      	mov	r2, sp
    4e5c:	2100      	movs	r1, #0
    4e5e:	4618      	mov	r0, r3
    4e60:	f7ff feca 	bl	4bf8 <intarg>
    4e64:	aa08      	add	r2, sp, #32
    4e66:	f7ff fd6b 	bl	4940 <ui2a>
                written += putchw(putp, &p);
    4e6a:	a908      	add	r1, sp, #32
    4e6c:	4628      	mov	r0, r5
    4e6e:	f7ff fe35 	bl	4adc <putchw>
    4e72:	4404      	add	r4, r0
                break;
    4e74:	e6fa      	b.n	4c6c <tfp_format+0x10>
            switch (ch) {
    4e76:	2878      	cmp	r0, #120	; 0x78
    4e78:	f47f aef8 	bne.w	4c6c <tfp_format+0x10>
                p.base = 16;
    4e7c:	2210      	movs	r2, #16
    4e7e:	f88d 2023 	strb.w	r2, [sp, #35]	; 0x23
                p.uc = (ch == 'X');
    4e82:	2858      	cmp	r0, #88	; 0x58
    4e84:	bf14      	ite	ne
    4e86:	2000      	movne	r0, #0
    4e88:	2001      	moveq	r0, #1
    4e8a:	f89d 2022 	ldrb.w	r2, [sp, #34]	; 0x22
    4e8e:	f360 0282 	bfi	r2, r0, #2, #1
    4e92:	f88d 2022 	strb.w	r2, [sp, #34]	; 0x22
                ui2a(intarg(lng, 0, &va), &p);
    4e96:	466a      	mov	r2, sp
    4e98:	2100      	movs	r1, #0
    4e9a:	4618      	mov	r0, r3
    4e9c:	f7ff feac 	bl	4bf8 <intarg>
    4ea0:	aa08      	add	r2, sp, #32
    4ea2:	f7ff fd4d 	bl	4940 <ui2a>
                written += putchw(putp, &p);
    4ea6:	a908      	add	r1, sp, #32
    4ea8:	4628      	mov	r0, r5
    4eaa:	f7ff fe17 	bl	4adc <putchw>
    4eae:	4404      	add	r4, r0
                break;
    4eb0:	e6dc      	b.n	4c6c <tfp_format+0x10>
                p.base = 8;
    4eb2:	2208      	movs	r2, #8
    4eb4:	f88d 2023 	strb.w	r2, [sp, #35]	; 0x23
                ui2a(intarg(lng, 0, &va), &p);
    4eb8:	466a      	mov	r2, sp
    4eba:	2100      	movs	r1, #0
    4ebc:	4618      	mov	r0, r3
    4ebe:	f7ff fe9b 	bl	4bf8 <intarg>
    4ec2:	aa08      	add	r2, sp, #32
    4ec4:	f7ff fd3c 	bl	4940 <ui2a>
                written += putchw(putp, &p);
    4ec8:	a908      	add	r1, sp, #32
    4eca:	4628      	mov	r0, r5
    4ecc:	f7ff fe06 	bl	4adc <putchw>
    4ed0:	4404      	add	r4, r0
                break;
    4ed2:	e6cb      	b.n	4c6c <tfp_format+0x10>
                p.bf = va_arg(va, char *);
    4ed4:	9b00      	ldr	r3, [sp, #0]
    4ed6:	1d1a      	adds	r2, r3, #4
    4ed8:	9200      	str	r2, [sp, #0]
    4eda:	681b      	ldr	r3, [r3, #0]
    4edc:	9309      	str	r3, [sp, #36]	; 0x24
                written += putchw(putp, &p);
    4ede:	a908      	add	r1, sp, #32
    4ee0:	4628      	mov	r0, r5
    4ee2:	f7ff fdfb 	bl	4adc <putchw>
    4ee6:	4404      	add	r4, r0
                p.bf = bf;
    4ee8:	ab02      	add	r3, sp, #8
    4eea:	9309      	str	r3, [sp, #36]	; 0x24
                break;
    4eec:	e6be      	b.n	4c6c <tfp_format+0x10>
        }
    }
 abort:;
 
 return written;
}
    4eee:	4620      	mov	r0, r4
    4ef0:	b00a      	add	sp, #40	; 0x28
    4ef2:	bd70      	pop	{r4, r5, r6, pc}

00004ef4 <vfprintf>:

int vfprintf(FILE *f, const char *fmt, va_list va)
{
    4ef4:	b508      	push	{r3, lr}
    return tfp_format(f, fmt, va);
    4ef6:	f7ff feb1 	bl	4c5c <tfp_format>
}
    4efa:	bd08      	pop	{r3, pc}

00004efc <printf>:
    va_end(va);
    return rv;
}

int printf(const char *fmt, ...)
{
    4efc:	b40f      	push	{r0, r1, r2, r3}
    4efe:	b500      	push	{lr}
    4f00:	b083      	sub	sp, #12
    4f02:	aa04      	add	r2, sp, #16
    4f04:	f852 1b04 	ldr.w	r1, [r2], #4
    va_list va;
    va_start(va, fmt);
    4f08:	9201      	str	r2, [sp, #4]
    int rv = vfprintf(stdout, fmt, va);
    4f0a:	4b04      	ldr	r3, [pc, #16]	; (4f1c <printf+0x20>)
    4f0c:	6818      	ldr	r0, [r3, #0]
    4f0e:	f7ff fff1 	bl	4ef4 <vfprintf>
    va_end(va);
    return rv;
}
    4f12:	b003      	add	sp, #12
    4f14:	f85d eb04 	ldr.w	lr, [sp], #4
    4f18:	b004      	add	sp, #16
    4f1a:	4770      	bx	lr
    4f1c:	00005fdc 	.word	0x00005fdc

00004f20 <vprintf>:

#include <stdio.h>
#include <stdarg.h>

int vprintf(const char *format, va_list ap)
{
    4f20:	b508      	push	{r3, lr}
	return vfprintf(stdout, format, ap);
    4f22:	460a      	mov	r2, r1
    4f24:	4601      	mov	r1, r0
    4f26:	4b02      	ldr	r3, [pc, #8]	; (4f30 <vprintf+0x10>)
    4f28:	6818      	ldr	r0, [r3, #0]
    4f2a:	f7ff ffe3 	bl	4ef4 <vfprintf>
}
    4f2e:	bd08      	pop	{r3, pc}
    4f30:	00005fdc 	.word	0x00005fdc

00004f34 <flash_area_find_idx>:
const struct flash_area *flash_map;
int flash_map_entries;

static int
flash_area_find_idx(uint8_t id)
{
    4f34:	b410      	push	{r4}
    int i;

    if (flash_map == NULL) {
    4f36:	4b0c      	ldr	r3, [pc, #48]	; (4f68 <flash_area_find_idx+0x34>)
    4f38:	681c      	ldr	r4, [r3, #0]
    4f3a:	b18c      	cbz	r4, 4f60 <flash_area_find_idx+0x2c>
        return -1;
    }

    for (i = 0; i < flash_map_entries; i++) {
    4f3c:	2300      	movs	r3, #0
    4f3e:	4a0b      	ldr	r2, [pc, #44]	; (4f6c <flash_area_find_idx+0x38>)
    4f40:	6812      	ldr	r2, [r2, #0]
    4f42:	429a      	cmp	r2, r3
    4f44:	dd07      	ble.n	4f56 <flash_area_find_idx+0x22>
        if (flash_map[i].fa_id == id) {
    4f46:	eb03 0143 	add.w	r1, r3, r3, lsl #1
    4f4a:	008a      	lsls	r2, r1, #2
    4f4c:	5ca2      	ldrb	r2, [r4, r2]
    4f4e:	4282      	cmp	r2, r0
    4f50:	d003      	beq.n	4f5a <flash_area_find_idx+0x26>
    for (i = 0; i < flash_map_entries; i++) {
    4f52:	3301      	adds	r3, #1
    4f54:	e7f3      	b.n	4f3e <flash_area_find_idx+0xa>
            return i;
        }
    }

    return -1;
    4f56:	f04f 33ff 	mov.w	r3, #4294967295	; 0xffffffff
}
    4f5a:	4618      	mov	r0, r3
    4f5c:	bc10      	pop	{r4}
    4f5e:	4770      	bx	lr
        return -1;
    4f60:	f04f 33ff 	mov.w	r3, #4294967295	; 0xffffffff
    4f64:	e7f9      	b.n	4f5a <flash_area_find_idx+0x26>
    4f66:	bf00      	nop
    4f68:	20006384 	.word	0x20006384
    4f6c:	20006388 	.word	0x20006388

00004f70 <flash_map_area_overlaps>:
    const struct flash_area *area2;
    uint32_t end1;
    uint32_t end2;
    int i;

    for (i = 0; i < flash_map_entries; i++) {
    4f70:	2300      	movs	r3, #0
    4f72:	4a13      	ldr	r2, [pc, #76]	; (4fc0 <flash_map_area_overlaps+0x50>)
    4f74:	6812      	ldr	r2, [r2, #0]
    4f76:	429a      	cmp	r2, r3
    4f78:	dd1f      	ble.n	4fba <flash_map_area_overlaps+0x4a>
{
    4f7a:	b430      	push	{r4, r5}
    4f7c:	e004      	b.n	4f88 <flash_map_area_overlaps+0x18>
    for (i = 0; i < flash_map_entries; i++) {
    4f7e:	3301      	adds	r3, #1
    4f80:	4a0f      	ldr	r2, [pc, #60]	; (4fc0 <flash_map_area_overlaps+0x50>)
    4f82:	6812      	ldr	r2, [r2, #0]
    4f84:	429a      	cmp	r2, r3
    4f86:	dd15      	ble.n	4fb4 <flash_map_area_overlaps+0x44>
        area2 = &flash_map[i];
    4f88:	4a0e      	ldr	r2, [pc, #56]	; (4fc4 <flash_map_area_overlaps+0x54>)
    4f8a:	6812      	ldr	r2, [r2, #0]
    4f8c:	eb03 0443 	add.w	r4, r3, r3, lsl #1
    4f90:	00a1      	lsls	r1, r4, #2
    4f92:	440a      	add	r2, r1

        if (area1->fa_device_id == area2->fa_device_id) {
    4f94:	7844      	ldrb	r4, [r0, #1]
    4f96:	7851      	ldrb	r1, [r2, #1]
    4f98:	428c      	cmp	r4, r1
    4f9a:	d1f0      	bne.n	4f7e <flash_map_area_overlaps+0xe>
            end1 = area1->fa_off + area1->fa_size;
    4f9c:	6845      	ldr	r5, [r0, #4]
    4f9e:	6881      	ldr	r1, [r0, #8]
    4fa0:	4429      	add	r1, r5
            end2 = area2->fa_off + area2->fa_size;
    4fa2:	6854      	ldr	r4, [r2, #4]
    4fa4:	6892      	ldr	r2, [r2, #8]
    4fa6:	4422      	add	r2, r4

            if (end1 > area2->fa_off && area1->fa_off < end2) {
    4fa8:	428c      	cmp	r4, r1
    4faa:	d2e8      	bcs.n	4f7e <flash_map_area_overlaps+0xe>
    4fac:	4295      	cmp	r5, r2
    4fae:	d2e6      	bcs.n	4f7e <flash_map_area_overlaps+0xe>
                return true;
    4fb0:	2001      	movs	r0, #1
    4fb2:	e000      	b.n	4fb6 <flash_map_area_overlaps+0x46>
            }
        }
    }

    return false;
    4fb4:	2000      	movs	r0, #0
}
    4fb6:	bc30      	pop	{r4, r5}
    4fb8:	4770      	bx	lr
    return false;
    4fba:	2000      	movs	r0, #0
}
    4fbc:	4770      	bx	lr
    4fbe:	bf00      	nop
    4fc0:	20006388 	.word	0x20006388
    4fc4:	20006384 	.word	0x20006384

00004fc8 <flash_map_add_new_dflt_areas>:
 * Adds areas from the hardcoded flash map that aren't present in, and don't
 * overlap with, the manufacturing flash map.
 */
static void
flash_map_add_new_dflt_areas(void)
{
    4fc8:	b570      	push	{r4, r5, r6, lr}

    const struct flash_area *dflt_area;
    struct flash_area *dst_area;
    int i;
    
    for (i = 0; i < num_dflt_entries; i++) {
    4fca:	2400      	movs	r4, #0
    4fcc:	e00a      	b.n	4fe4 <flash_map_add_new_dflt_areas+0x1c>
            /* Default flash map contains a new entry. */
            if (flash_map_entries >= MYNEWT_VAL(FLASH_MAP_MAX_AREAS)) {
                DFLT_LOG_DEBUG("failed to add default flash area: "
                               "no room: id=%d",
                               dflt_area->fa_id);
                DEBUG_PANIC();
    4fce:	f7fb f8c9 	bl	164 <hal_debugger_connected>
    4fd2:	b100      	cbz	r0, 4fd6 <flash_map_add_new_dflt_areas+0xe>
    4fd4:	be01      	bkpt	0x0001
    4fd6:	2300      	movs	r3, #0
    4fd8:	461a      	mov	r2, r3
    4fda:	4619      	mov	r1, r3
    4fdc:	4618      	mov	r0, r3
    4fde:	f7fc fbe9 	bl	17b4 <__assert_func>
    for (i = 0; i < num_dflt_entries; i++) {
    4fe2:	3401      	adds	r4, #1
    4fe4:	2c05      	cmp	r4, #5
    4fe6:	dc26      	bgt.n	5036 <flash_map_add_new_dflt_areas+0x6e>
        dflt_area = &sysflash_map_dflt[i];
    4fe8:	0063      	lsls	r3, r4, #1
    4fea:	4423      	add	r3, r4
    4fec:	009a      	lsls	r2, r3, #2
    4fee:	4b12      	ldr	r3, [pc, #72]	; (5038 <flash_map_add_new_dflt_areas+0x70>)
    4ff0:	18d6      	adds	r6, r2, r3
        if (flash_area_find_idx(dflt_area->fa_id) == -1) {
    4ff2:	5c98      	ldrb	r0, [r3, r2]
    4ff4:	f7ff ff9e 	bl	4f34 <flash_area_find_idx>
    4ff8:	f1b0 3fff 	cmp.w	r0, #4294967295	; 0xffffffff
    4ffc:	d1f1      	bne.n	4fe2 <flash_map_add_new_dflt_areas+0x1a>
            if (flash_map_entries >= MYNEWT_VAL(FLASH_MAP_MAX_AREAS)) {
    4ffe:	4b0f      	ldr	r3, [pc, #60]	; (503c <flash_map_add_new_dflt_areas+0x74>)
    5000:	681d      	ldr	r5, [r3, #0]
    5002:	2d09      	cmp	r5, #9
    5004:	dce3      	bgt.n	4fce <flash_map_add_new_dflt_areas+0x6>
                return;
            } 

            /* Add the default entry if it doesn't cause any overlaps. */
            if (flash_map_area_overlaps(dflt_area)) {
    5006:	4630      	mov	r0, r6
    5008:	f7ff ffb2 	bl	4f70 <flash_map_area_overlaps>
    500c:	2800      	cmp	r0, #0
    500e:	d1e8      	bne.n	4fe2 <flash_map_add_new_dflt_areas+0x1a>
                DFLT_LOG_DEBUG("failed to add default flash area: "
                               "overlap: id=%d",
                               dflt_area->fa_id);
            } else {
                /* Cast away const. */
                dst_area = (struct flash_area *) &flash_map[flash_map_entries];
    5010:	4b0b      	ldr	r3, [pc, #44]	; (5040 <flash_map_add_new_dflt_areas+0x78>)
    5012:	681b      	ldr	r3, [r3, #0]
    5014:	eb05 0545 	add.w	r5, r5, r5, lsl #1
    5018:	00aa      	lsls	r2, r5, #2
    501a:	4413      	add	r3, r2

                *dst_area = *dflt_area;
    501c:	eb04 0244 	add.w	r2, r4, r4, lsl #1
    5020:	0091      	lsls	r1, r2, #2
    5022:	4a05      	ldr	r2, [pc, #20]	; (5038 <flash_map_add_new_dflt_areas+0x70>)
    5024:	440a      	add	r2, r1
    5026:	ca07      	ldmia	r2, {r0, r1, r2}
    5028:	e883 0007 	stmia.w	r3, {r0, r1, r2}
                flash_map_entries++;
    502c:	4a03      	ldr	r2, [pc, #12]	; (503c <flash_map_add_new_dflt_areas+0x74>)
    502e:	6813      	ldr	r3, [r2, #0]
    5030:	3301      	adds	r3, #1
    5032:	6013      	str	r3, [r2, #0]
    5034:	e7d5      	b.n	4fe2 <flash_map_add_new_dflt_areas+0x1a>
            }
        }
    }
}
    5036:	bd70      	pop	{r4, r5, r6, pc}
    5038:	00005fe0 	.word	0x00005fe0
    503c:	20006388 	.word	0x20006388
    5040:	20006384 	.word	0x20006384

00005044 <flash_map_read_mfg>:
{
    5044:	b570      	push	{r4, r5, r6, lr}
    5046:	b086      	sub	sp, #24
    5048:	4605      	mov	r5, r0
    504a:	460e      	mov	r6, r1
    504c:	4614      	mov	r4, r2
    *out_num_areas = 0;
    504e:	2300      	movs	r3, #0
    5050:	6013      	str	r3, [r2, #0]
    mfg_init();
    5052:	f000 fa1b 	bl	548c <mfg_init>
    mfg_open(&reader);
    5056:	a801      	add	r0, sp, #4
    5058:	f000 fa2a 	bl	54b0 <mfg_open>
        if (*out_num_areas >= max_areas) {
    505c:	6823      	ldr	r3, [r4, #0]
    505e:	42ab      	cmp	r3, r5
    5060:	da29      	bge.n	50b6 <flash_map_read_mfg+0x72>
        rc = mfg_seek_next_with_type(&reader, MFG_META_TLV_TYPE_FLASH_AREA);
    5062:	2102      	movs	r1, #2
    5064:	a801      	add	r0, sp, #4
    5066:	f000 f9fa 	bl	545e <mfg_seek_next_with_type>
    506a:	4603      	mov	r3, r0
        switch (rc) {
    506c:	f110 0f0f 	cmn.w	r0, #15
    5070:	d003      	beq.n	507a <flash_map_read_mfg+0x36>
    5072:	b120      	cbz	r0, 507e <flash_map_read_mfg+0x3a>
}
    5074:	4618      	mov	r0, r3
    5076:	b006      	add	sp, #24
    5078:	bd70      	pop	{r4, r5, r6, pc}
            return 0;
    507a:	2300      	movs	r3, #0
    507c:	e7fa      	b.n	5074 <flash_map_read_mfg+0x30>
        rc = mfg_read_tlv_flash_area(&reader, &meta_flash_area);
    507e:	a903      	add	r1, sp, #12
    5080:	a801      	add	r0, sp, #4
    5082:	f000 f9f9 	bl	5478 <mfg_read_tlv_flash_area>
        if (rc != 0) {
    5086:	4603      	mov	r3, r0
    5088:	2800      	cmp	r0, #0
    508a:	d1f3      	bne.n	5074 <flash_map_read_mfg+0x30>
        fap = out_areas + *out_num_areas;
    508c:	6823      	ldr	r3, [r4, #0]
    508e:	eb03 0343 	add.w	r3, r3, r3, lsl #1
    5092:	009a      	lsls	r2, r3, #2
    5094:	18b3      	adds	r3, r6, r2
        fap->fa_id = meta_flash_area.area_id;
    5096:	f89d 100c 	ldrb.w	r1, [sp, #12]
    509a:	54b1      	strb	r1, [r6, r2]
        fap->fa_device_id = meta_flash_area.device_id;
    509c:	f89d 200d 	ldrb.w	r2, [sp, #13]
    50a0:	705a      	strb	r2, [r3, #1]
        fap->fa_off = meta_flash_area.offset;
    50a2:	f8dd 200e 	ldr.w	r2, [sp, #14]
    50a6:	605a      	str	r2, [r3, #4]
        fap->fa_size = meta_flash_area.size;
    50a8:	f8dd 2012 	ldr.w	r2, [sp, #18]
    50ac:	609a      	str	r2, [r3, #8]
        (*out_num_areas)++;
    50ae:	6823      	ldr	r3, [r4, #0]
    50b0:	3301      	adds	r3, #1
    50b2:	6023      	str	r3, [r4, #0]
        if (*out_num_areas >= max_areas) {
    50b4:	e7d2      	b.n	505c <flash_map_read_mfg+0x18>
            return -1;
    50b6:	f04f 33ff 	mov.w	r3, #4294967295	; 0xffffffff
    50ba:	e7db      	b.n	5074 <flash_map_read_mfg+0x30>

000050bc <flash_area_open>:
{
    50bc:	b538      	push	{r3, r4, r5, lr}
    if (flash_map == NULL) {
    50be:	4b0b      	ldr	r3, [pc, #44]	; (50ec <flash_area_open+0x30>)
    50c0:	681c      	ldr	r4, [r3, #0]
    50c2:	b164      	cbz	r4, 50de <flash_area_open+0x22>
    50c4:	460d      	mov	r5, r1
    idx = flash_area_find_idx(id);
    50c6:	f7ff ff35 	bl	4f34 <flash_area_find_idx>
    if (idx == -1) {
    50ca:	f1b0 3fff 	cmp.w	r0, #4294967295	; 0xffffffff
    50ce:	d009      	beq.n	50e4 <flash_area_open+0x28>
    *fap = &flash_map[idx];
    50d0:	eb00 0040 	add.w	r0, r0, r0, lsl #1
    50d4:	0083      	lsls	r3, r0, #2
    50d6:	441c      	add	r4, r3
    50d8:	602c      	str	r4, [r5, #0]
    return 0;
    50da:	2000      	movs	r0, #0
}
    50dc:	bd38      	pop	{r3, r4, r5, pc}
        return SYS_EACCES;
    50de:	f06f 0006 	mvn.w	r0, #6
    50e2:	e7fb      	b.n	50dc <flash_area_open+0x20>
        return SYS_ENOENT;
    50e4:	f06f 0003 	mvn.w	r0, #3
    50e8:	e7f8      	b.n	50dc <flash_area_open+0x20>
    50ea:	bf00      	nop
    50ec:	20006384 	.word	0x20006384

000050f0 <flash_area_to_sectors>:
{
    50f0:	e92d 47f0 	stmdb	sp!, {r4, r5, r6, r7, r8, r9, sl, lr}
    50f4:	b084      	sub	sp, #16
    50f6:	460f      	mov	r7, r1
    50f8:	4616      	mov	r6, r2
    rc = flash_area_open(id, &fa);
    50fa:	fa5f f980 	uxtb.w	r9, r0
    50fe:	a903      	add	r1, sp, #12
    5100:	4648      	mov	r0, r9
    5102:	f7ff ffdb 	bl	50bc <flash_area_open>
    if (rc != 0) {
    5106:	4680      	mov	r8, r0
    5108:	b118      	cbz	r0, 5112 <flash_area_to_sectors+0x22>
}
    510a:	4640      	mov	r0, r8
    510c:	b004      	add	sp, #16
    510e:	e8bd 87f0 	ldmia.w	sp!, {r4, r5, r6, r7, r8, r9, sl, pc}
    *cnt = 0;
    5112:	2300      	movs	r3, #0
    5114:	603b      	str	r3, [r7, #0]
    hf = hal_bsp_flash_dev(fa->fa_device_id);
    5116:	9b03      	ldr	r3, [sp, #12]
    5118:	7858      	ldrb	r0, [r3, #1]
    511a:	f7fb faa9 	bl	670 <hal_bsp_flash_dev>
    511e:	4605      	mov	r5, r0
    for (i = 0; i < hf->hf_sector_cnt; i++) {
    5120:	4644      	mov	r4, r8
    5122:	e003      	b.n	512c <flash_area_to_sectors+0x3c>
            (*cnt)++;
    5124:	683b      	ldr	r3, [r7, #0]
    5126:	3301      	adds	r3, #1
    5128:	603b      	str	r3, [r7, #0]
    for (i = 0; i < hf->hf_sector_cnt; i++) {
    512a:	3401      	adds	r4, #1
    512c:	68eb      	ldr	r3, [r5, #12]
    512e:	42a3      	cmp	r3, r4
    5130:	ddeb      	ble.n	510a <flash_area_to_sectors+0x1a>
        hf->hf_itf->hff_sector_info(hf, i, &start, &size);
    5132:	682b      	ldr	r3, [r5, #0]
    5134:	f8d3 a00c 	ldr.w	sl, [r3, #12]
    5138:	ab01      	add	r3, sp, #4
    513a:	aa02      	add	r2, sp, #8
    513c:	4621      	mov	r1, r4
    513e:	4628      	mov	r0, r5
    5140:	47d0      	blx	sl
        if (start >= fa->fa_off && start < fa->fa_off + fa->fa_size) {
    5142:	9903      	ldr	r1, [sp, #12]
    5144:	684b      	ldr	r3, [r1, #4]
    5146:	9a02      	ldr	r2, [sp, #8]
    5148:	4293      	cmp	r3, r2
    514a:	d8ee      	bhi.n	512a <flash_area_to_sectors+0x3a>
    514c:	6889      	ldr	r1, [r1, #8]
    514e:	440b      	add	r3, r1
    5150:	429a      	cmp	r2, r3
    5152:	d2ea      	bcs.n	512a <flash_area_to_sectors+0x3a>
            if (ret) {
    5154:	2e00      	cmp	r6, #0
    5156:	d0e5      	beq.n	5124 <flash_area_to_sectors+0x34>
                ret->fa_id = id;
    5158:	f886 9000 	strb.w	r9, [r6]
                ret->fa_device_id = fa->fa_device_id;
    515c:	9b03      	ldr	r3, [sp, #12]
    515e:	785b      	ldrb	r3, [r3, #1]
    5160:	7073      	strb	r3, [r6, #1]
                ret->fa_off = start;
    5162:	6072      	str	r2, [r6, #4]
                ret->fa_size = size;
    5164:	9b01      	ldr	r3, [sp, #4]
    5166:	60b3      	str	r3, [r6, #8]
                ret++;
    5168:	360c      	adds	r6, #12
    516a:	e7db      	b.n	5124 <flash_area_to_sectors+0x34>

0000516c <flash_area_read>:
{
    516c:	b538      	push	{r3, r4, r5, lr}
    if (off > fa->fa_size || off + len > fa->fa_size) {
    516e:	6884      	ldr	r4, [r0, #8]
    5170:	428c      	cmp	r4, r1
    5172:	d308      	bcc.n	5186 <flash_area_read+0x1a>
    5174:	18cd      	adds	r5, r1, r3
    5176:	42ac      	cmp	r4, r5
    5178:	d308      	bcc.n	518c <flash_area_read+0x20>
    return hal_flash_read(fa->fa_device_id, fa->fa_off + off, dst, len);
    517a:	6844      	ldr	r4, [r0, #4]
    517c:	4421      	add	r1, r4
    517e:	7840      	ldrb	r0, [r0, #1]
    5180:	f7ff fa8b 	bl	469a <hal_flash_read>
}
    5184:	bd38      	pop	{r3, r4, r5, pc}
        return -1;
    5186:	f04f 30ff 	mov.w	r0, #4294967295	; 0xffffffff
    518a:	e7fb      	b.n	5184 <flash_area_read+0x18>
    518c:	f04f 30ff 	mov.w	r0, #4294967295	; 0xffffffff
    5190:	e7f8      	b.n	5184 <flash_area_read+0x18>

00005192 <flash_area_write>:
{
    5192:	b538      	push	{r3, r4, r5, lr}
    if (off > fa->fa_size || off + len > fa->fa_size) {
    5194:	6884      	ldr	r4, [r0, #8]
    5196:	428c      	cmp	r4, r1
    5198:	d308      	bcc.n	51ac <flash_area_write+0x1a>
    519a:	18cd      	adds	r5, r1, r3
    519c:	42ac      	cmp	r4, r5
    519e:	d308      	bcc.n	51b2 <flash_area_write+0x20>
    return hal_flash_write(fa->fa_device_id, fa->fa_off + off,
    51a0:	6844      	ldr	r4, [r0, #4]
    51a2:	4421      	add	r1, r4
    51a4:	7840      	ldrb	r0, [r0, #1]
    51a6:	f7ff faa3 	bl	46f0 <hal_flash_write>
}
    51aa:	bd38      	pop	{r3, r4, r5, pc}
        return -1;
    51ac:	f04f 30ff 	mov.w	r0, #4294967295	; 0xffffffff
    51b0:	e7fb      	b.n	51aa <flash_area_write+0x18>
    51b2:	f04f 30ff 	mov.w	r0, #4294967295	; 0xffffffff
    51b6:	e7f8      	b.n	51aa <flash_area_write+0x18>

000051b8 <flash_area_erase>:
    if (off > fa->fa_size || off + len > fa->fa_size) {
    51b8:	6883      	ldr	r3, [r0, #8]
    51ba:	428b      	cmp	r3, r1
    51bc:	d309      	bcc.n	51d2 <flash_area_erase+0x1a>
{
    51be:	b510      	push	{r4, lr}
    if (off > fa->fa_size || off + len > fa->fa_size) {
    51c0:	188c      	adds	r4, r1, r2
    51c2:	42a3      	cmp	r3, r4
    51c4:	d308      	bcc.n	51d8 <flash_area_erase+0x20>
    return hal_flash_erase(fa->fa_device_id, fa->fa_off + off, len);
    51c6:	6843      	ldr	r3, [r0, #4]
    51c8:	4419      	add	r1, r3
    51ca:	7840      	ldrb	r0, [r0, #1]
    51cc:	f7ff faca 	bl	4764 <hal_flash_erase>
}
    51d0:	bd10      	pop	{r4, pc}
        return -1;
    51d2:	f04f 30ff 	mov.w	r0, #4294967295	; 0xffffffff
}
    51d6:	4770      	bx	lr
        return -1;
    51d8:	f04f 30ff 	mov.w	r0, #4294967295	; 0xffffffff
    51dc:	e7f8      	b.n	51d0 <flash_area_erase+0x18>

000051de <flash_area_align>:
{
    51de:	b508      	push	{r3, lr}
    return hal_flash_align(fa->fa_device_id);
    51e0:	7840      	ldrb	r0, [r0, #1]
    51e2:	f7ff fa4a 	bl	467a <hal_flash_align>
}
    51e6:	bd08      	pop	{r3, pc}

000051e8 <flash_area_erased_val>:
{
    51e8:	b508      	push	{r3, lr}
    return hal_flash_erased_val(fa->fa_device_id);
    51ea:	7840      	ldrb	r0, [r0, #1]
    51ec:	f7ff fa4d 	bl	468a <hal_flash_erased_val>
}
    51f0:	bd08      	pop	{r3, pc}

000051f2 <flash_area_read_is_empty>:
{
    51f2:	b510      	push	{r4, lr}
    return hal_flash_isempty(fa->fa_device_id, fa->fa_off + off, dst, len);
    51f4:	6844      	ldr	r4, [r0, #4]
    51f6:	4421      	add	r1, r4
    51f8:	7840      	ldrb	r0, [r0, #1]
    51fa:	f7ff fb37 	bl	486c <hal_flash_isempty>
}
    51fe:	bd10      	pop	{r4, pc}

00005200 <flash_map_init>:

void
flash_map_init(void)
{
    5200:	b510      	push	{r4, lr}
    5202:	b084      	sub	sp, #16
    int rc;

    /* Ensure this function only gets called by sysinit. */
    SYSINIT_ASSERT_ACTIVE();

    rc = hal_flash_init();
    5204:	f7ff fa25 	bl	4652 <hal_flash_init>
    SYSINIT_PANIC_ASSERT(rc == 0);
    5208:	b978      	cbnz	r0, 522a <flash_map_init+0x2a>
     *    In particular, a FLASH_AREA_BOOTLOADER entry is required for the boot
     *    MMR, as well as an entry for each extended MMR.
     * 2. If we fail to read the flash map from the MMRs, the system continues
     *    to use the default flash map.
     */
    flash_map = sysflash_map_dflt;
    520a:	4b12      	ldr	r3, [pc, #72]	; (5254 <flash_map_init+0x54>)
    520c:	4a12      	ldr	r2, [pc, #72]	; (5258 <flash_map_init+0x58>)
    520e:	601a      	str	r2, [r3, #0]
    flash_map_entries = sizeof sysflash_map_dflt / sizeof sysflash_map_dflt[0];
    5210:	4b12      	ldr	r3, [pc, #72]	; (525c <flash_map_init+0x5c>)
    5212:	2206      	movs	r2, #6
    5214:	601a      	str	r2, [r3, #0]

    /* Attempt to read the flash map from the manufacturing meta regions.  On
     * success, use the new flash map instead of the default hardcoded one.
     */
    rc = flash_map_read_mfg(sizeof mfg_areas / sizeof mfg_areas[0],
    5216:	aa03      	add	r2, sp, #12
    5218:	4911      	ldr	r1, [pc, #68]	; (5260 <flash_map_init+0x60>)
    521a:	200a      	movs	r0, #10
    521c:	f7ff ff12 	bl	5044 <flash_map_read_mfg>
                            mfg_areas, &num_areas);
    if (rc != 0 || num_areas == 0) {
    5220:	b908      	cbnz	r0, 5226 <flash_map_init+0x26>
    5222:	9b03      	ldr	r3, [sp, #12]
    5224:	b973      	cbnz	r3, 5244 <flash_map_init+0x44>
    /* The hardcoded flash map may contain new areas that aren't present in the
     * manufacturing flash map.  Try including them if they don't overlap with
     * any mfg areas.
     */
    flash_map_add_new_dflt_areas();
}
    5226:	b004      	add	sp, #16
    5228:	bd10      	pop	{r4, pc}
    SYSINIT_PANIC_ASSERT(rc == 0);
    522a:	f7fa ff9b 	bl	164 <hal_debugger_connected>
    522e:	b100      	cbz	r0, 5232 <flash_map_init+0x32>
    5230:	be01      	bkpt	0x0001
    5232:	2000      	movs	r0, #0
    5234:	9000      	str	r0, [sp, #0]
    5236:	4b0b      	ldr	r3, [pc, #44]	; (5264 <flash_map_init+0x64>)
    5238:	681c      	ldr	r4, [r3, #0]
    523a:	4603      	mov	r3, r0
    523c:	4602      	mov	r2, r0
    523e:	4601      	mov	r1, r0
    5240:	47a0      	blx	r4
    5242:	e7e2      	b.n	520a <flash_map_init+0xa>
    flash_map = mfg_areas;
    5244:	4a03      	ldr	r2, [pc, #12]	; (5254 <flash_map_init+0x54>)
    5246:	4906      	ldr	r1, [pc, #24]	; (5260 <flash_map_init+0x60>)
    5248:	6011      	str	r1, [r2, #0]
    flash_map_entries = num_areas;
    524a:	4a04      	ldr	r2, [pc, #16]	; (525c <flash_map_init+0x5c>)
    524c:	6013      	str	r3, [r2, #0]
    flash_map_add_new_dflt_areas();
    524e:	f7ff febb 	bl	4fc8 <flash_map_add_new_dflt_areas>
    5252:	e7e8      	b.n	5226 <flash_map_init+0x26>
    5254:	20006384 	.word	0x20006384
    5258:	00005fe0 	.word	0x00005fe0
    525c:	20006388 	.word	0x20006388
    5260:	2000638c 	.word	0x2000638c
    5264:	20000150 	.word	0x20000150

00005268 <modlog_init>:

#else /* LOG_FULL */

void
modlog_init(void)
{ }
    5268:	4770      	bx	lr
	...

0000526c <mfg_seek_next_aux>:
 *                                  for reading.
 *                              Other MFG error code on failure.
 */
static int
mfg_seek_next_aux(struct mfg_reader *reader)
{
    526c:	b530      	push	{r4, r5, lr}
    526e:	b083      	sub	sp, #12
    const struct flash_area *fap;
    const struct mfg_mmr *mmr;
    int rc;

    if (reader->mmr_idx >= mfg_num_mmrs) {
    5270:	7885      	ldrb	r5, [r0, #2]
    5272:	4b21      	ldr	r3, [pc, #132]	; (52f8 <mfg_seek_next_aux+0x8c>)
    5274:	681b      	ldr	r3, [r3, #0]
    5276:	429d      	cmp	r5, r3
    5278:	da32      	bge.n	52e0 <mfg_seek_next_aux+0x74>
    527a:	4604      	mov	r4, r0
        return SYS_EINVAL;
    }

    mmr = &mfg_mmrs[reader->mmr_idx];

    rc = flash_area_open(mmr->area_id, &fap);
    527c:	eb05 0245 	add.w	r2, r5, r5, lsl #1
    5280:	0093      	lsls	r3, r2, #2
    5282:	a901      	add	r1, sp, #4
    5284:	4a1d      	ldr	r2, [pc, #116]	; (52fc <mfg_seek_next_aux+0x90>)
    5286:	5cd0      	ldrb	r0, [r2, r3]
    5288:	f7ff ff18 	bl	50bc <flash_area_open>
    if (rc != 0) {
    528c:	bb58      	cbnz	r0, 52e6 <mfg_seek_next_aux+0x7a>
        return SYS_EIO;
    }

    if (reader->offset == 0) {
    528e:	6862      	ldr	r2, [r4, #4]
    5290:	b9c2      	cbnz	r2, 52c4 <mfg_seek_next_aux+0x58>
        /* First seek; advance to the start of the MMR. */
        reader->offset = mmr->offset;
    5292:	eb05 0545 	add.w	r5, r5, r5, lsl #1
    5296:	00aa      	lsls	r2, r5, #2
    5298:	4b18      	ldr	r3, [pc, #96]	; (52fc <mfg_seek_next_aux+0x90>)
    529a:	4413      	add	r3, r2
    529c:	685b      	ldr	r3, [r3, #4]
    529e:	6063      	str	r3, [r4, #4]
    } else {
        /* Follow-up seek; skip the current TLV. */
        reader->offset += MFG_META_TLV_SZ + reader->cur_tlv.size;
    }

    if (reader->offset >= fap->fa_size - MFG_META_FOOTER_SZ) {
    52a0:	6861      	ldr	r1, [r4, #4]
    52a2:	9801      	ldr	r0, [sp, #4]
    52a4:	6883      	ldr	r3, [r0, #8]
    52a6:	3b08      	subs	r3, #8
    52a8:	4299      	cmp	r1, r3
    52aa:	d310      	bcc.n	52ce <mfg_seek_next_aux+0x62>
        /* Reached end of the MMR; advance to the next MMR if one exists. */
        if (reader->mmr_idx + 1 >= mfg_num_mmrs) {
    52ac:	78a3      	ldrb	r3, [r4, #2]
    52ae:	1c59      	adds	r1, r3, #1
    52b0:	4a11      	ldr	r2, [pc, #68]	; (52f8 <mfg_seek_next_aux+0x8c>)
    52b2:	6812      	ldr	r2, [r2, #0]
    52b4:	4291      	cmp	r1, r2
    52b6:	da19      	bge.n	52ec <mfg_seek_next_aux+0x80>
            rc = SYS_EDONE;
        } else {
            reader->offset = 0;
    52b8:	2200      	movs	r2, #0
    52ba:	6062      	str	r2, [r4, #4]
            reader->mmr_idx++;
    52bc:	70a1      	strb	r1, [r4, #2]
            rc = SYS_EAGAIN;
    52be:	f06f 0305 	mvn.w	r3, #5
    52c2:	e015      	b.n	52f0 <mfg_seek_next_aux+0x84>
        reader->offset += MFG_META_TLV_SZ + reader->cur_tlv.size;
    52c4:	7863      	ldrb	r3, [r4, #1]
    52c6:	4413      	add	r3, r2
    52c8:	3302      	adds	r3, #2
    52ca:	6063      	str	r3, [r4, #4]
    52cc:	e7e8      	b.n	52a0 <mfg_seek_next_aux+0x34>
        }
        goto done;
    }

    /* Read current TLV header. */
    rc = flash_area_read(fap, reader->offset, &reader->cur_tlv,
    52ce:	2302      	movs	r3, #2
    52d0:	4622      	mov	r2, r4
    52d2:	f7ff ff4b 	bl	516c <flash_area_read>
                         MFG_META_TLV_SZ);
    if (rc != 0) {
    52d6:	4603      	mov	r3, r0
    52d8:	b150      	cbz	r0, 52f0 <mfg_seek_next_aux+0x84>
        rc = SYS_EIO;
    52da:	f06f 0304 	mvn.w	r3, #4
    52de:	e007      	b.n	52f0 <mfg_seek_next_aux+0x84>
        return SYS_EINVAL;
    52e0:	f06f 0301 	mvn.w	r3, #1
    52e4:	e004      	b.n	52f0 <mfg_seek_next_aux+0x84>
        return SYS_EIO;
    52e6:	f06f 0304 	mvn.w	r3, #4
    52ea:	e001      	b.n	52f0 <mfg_seek_next_aux+0x84>
            rc = SYS_EDONE;
    52ec:	f06f 030e 	mvn.w	r3, #14
    }

done:
    flash_area_close(fap);
    return rc;
}
    52f0:	4618      	mov	r0, r3
    52f2:	b003      	add	sp, #12
    52f4:	bd30      	pop	{r4, r5, pc}
    52f6:	bf00      	nop
    52f8:	20006420 	.word	0x20006420
    52fc:	20006408 	.word	0x20006408

00005300 <mfg_read_mmr>:
/**
 * Reads an MMR from the end of the specified flash area.
 */
static int
mfg_read_mmr(uint8_t area_id, struct mfg_mmr *out_mmr)
{
    5300:	b530      	push	{r4, r5, lr}
    5302:	b085      	sub	sp, #20
    5304:	4605      	mov	r5, r0
    5306:	460c      	mov	r4, r1
    const struct flash_area *fap;
    struct mfg_meta_footer ftr;
    int rc;

    rc = flash_area_open(area_id, &fap);
    5308:	a903      	add	r1, sp, #12
    530a:	f7ff fed7 	bl	50bc <flash_area_open>
    if (rc != 0) {
    530e:	b9e8      	cbnz	r0, 534c <mfg_read_mmr+0x4c>
        return SYS_EIO;
    }

    /* Read the MMR footer. */
    rc = flash_area_read(fap, fap->fa_size - sizeof ftr, &ftr, sizeof ftr);
    5310:	9803      	ldr	r0, [sp, #12]
    5312:	6881      	ldr	r1, [r0, #8]
    5314:	2308      	movs	r3, #8
    5316:	aa01      	add	r2, sp, #4
    5318:	3908      	subs	r1, #8
    531a:	f7ff ff27 	bl	516c <flash_area_read>
    flash_area_close(fap);

    if (rc != 0) {
    531e:	4601      	mov	r1, r0
    5320:	b9b8      	cbnz	r0, 5352 <mfg_read_mmr+0x52>
        return SYS_EIO;
    }

    if (ftr.magic != MFG_META_MAGIC) {
    5322:	9a02      	ldr	r2, [sp, #8]
    5324:	4b11      	ldr	r3, [pc, #68]	; (536c <mfg_read_mmr+0x6c>)
    5326:	429a      	cmp	r2, r3
    5328:	d116      	bne.n	5358 <mfg_read_mmr+0x58>
        return SYS_ENODEV;
    }

    if (ftr.version != MFG_META_VERSION) {
    532a:	f89d 3006 	ldrb.w	r3, [sp, #6]
    532e:	2b02      	cmp	r3, #2
    5330:	d115      	bne.n	535e <mfg_read_mmr+0x5e>
        return SYS_ENOTSUP;
    }

    if (ftr.size > fap->fa_size) {
    5332:	f8bd 2004 	ldrh.w	r2, [sp, #4]
    5336:	9b03      	ldr	r3, [sp, #12]
    5338:	689b      	ldr	r3, [r3, #8]
    533a:	429a      	cmp	r2, r3
    533c:	d812      	bhi.n	5364 <mfg_read_mmr+0x64>
        return SYS_ENODEV;
    }

    *out_mmr = (struct mfg_mmr) {
        .area_id = area_id,
        .offset = fap->fa_size - ftr.size,
    533e:	1a9b      	subs	r3, r3, r2
    *out_mmr = (struct mfg_mmr) {
    5340:	7025      	strb	r5, [r4, #0]
    5342:	6063      	str	r3, [r4, #4]
    5344:	60a2      	str	r2, [r4, #8]
        .size = ftr.size,
    };

    return 0;
}
    5346:	4608      	mov	r0, r1
    5348:	b005      	add	sp, #20
    534a:	bd30      	pop	{r4, r5, pc}
        return SYS_EIO;
    534c:	f06f 0104 	mvn.w	r1, #4
    5350:	e7f9      	b.n	5346 <mfg_read_mmr+0x46>
        return SYS_EIO;
    5352:	f06f 0104 	mvn.w	r1, #4
    5356:	e7f6      	b.n	5346 <mfg_read_mmr+0x46>
        return SYS_ENODEV;
    5358:	f06f 0108 	mvn.w	r1, #8
    535c:	e7f3      	b.n	5346 <mfg_read_mmr+0x46>
        return SYS_ENOTSUP;
    535e:	f06f 010b 	mvn.w	r1, #11
    5362:	e7f0      	b.n	5346 <mfg_read_mmr+0x46>
        return SYS_ENODEV;
    5364:	f06f 0108 	mvn.w	r1, #8
    5368:	e7ed      	b.n	5346 <mfg_read_mmr+0x46>
    536a:	bf00      	nop
    536c:	3bb2a269 	.word	0x3bb2a269

00005370 <mfg_read_next_mmr>:
 * Reads an MMR from the end of the specified flash area.  On success, the
 * global MMR list is populated with the result for subsequent reading.
 */
static int
mfg_read_next_mmr(uint8_t area_id)
{
    5370:	b508      	push	{r3, lr}
    int rc;
    int i;

    /* Detect if this MMR has already been read. */
    for (i = 0; i < mfg_num_mmrs; i++) {
    5372:	2300      	movs	r3, #0
    5374:	4a11      	ldr	r2, [pc, #68]	; (53bc <mfg_read_next_mmr+0x4c>)
    5376:	6812      	ldr	r2, [r2, #0]
    5378:	429a      	cmp	r2, r3
    537a:	dd08      	ble.n	538e <mfg_read_next_mmr+0x1e>
        if (mfg_mmrs[i].area_id == area_id) {
    537c:	eb03 0143 	add.w	r1, r3, r3, lsl #1
    5380:	008a      	lsls	r2, r1, #2
    5382:	490f      	ldr	r1, [pc, #60]	; (53c0 <mfg_read_next_mmr+0x50>)
    5384:	5c8a      	ldrb	r2, [r1, r2]
    5386:	4282      	cmp	r2, r0
    5388:	d011      	beq.n	53ae <mfg_read_next_mmr+0x3e>
    for (i = 0; i < mfg_num_mmrs; i++) {
    538a:	3301      	adds	r3, #1
    538c:	e7f2      	b.n	5374 <mfg_read_next_mmr+0x4>
            return SYS_EALREADY;
        }
    }

    if (mfg_num_mmrs >= MYNEWT_VAL(MFG_MAX_MMRS)) {
    538e:	2a01      	cmp	r2, #1
    5390:	dc11      	bgt.n	53b6 <mfg_read_next_mmr+0x46>
        return SYS_ENOMEM;
    }

    rc = mfg_read_mmr(area_id, &mfg_mmrs[mfg_num_mmrs]);
    5392:	eb02 0242 	add.w	r2, r2, r2, lsl #1
    5396:	0093      	lsls	r3, r2, #2
    5398:	4909      	ldr	r1, [pc, #36]	; (53c0 <mfg_read_next_mmr+0x50>)
    539a:	4419      	add	r1, r3
    539c:	f7ff ffb0 	bl	5300 <mfg_read_mmr>
    if (rc != 0) {
    53a0:	4603      	mov	r3, r0
    53a2:	b930      	cbnz	r0, 53b2 <mfg_read_next_mmr+0x42>
        return rc;
    }

    mfg_num_mmrs++;
    53a4:	4905      	ldr	r1, [pc, #20]	; (53bc <mfg_read_next_mmr+0x4c>)
    53a6:	680a      	ldr	r2, [r1, #0]
    53a8:	3201      	adds	r2, #1
    53aa:	600a      	str	r2, [r1, #0]
    return 0;
    53ac:	e001      	b.n	53b2 <mfg_read_next_mmr+0x42>
            return SYS_EALREADY;
    53ae:	f06f 030a 	mvn.w	r3, #10
}
    53b2:	4618      	mov	r0, r3
    53b4:	bd08      	pop	{r3, pc}
        return SYS_ENOMEM;
    53b6:	f04f 33ff 	mov.w	r3, #4294967295	; 0xffffffff
    53ba:	e7fa      	b.n	53b2 <mfg_read_next_mmr+0x42>
    53bc:	20006420 	.word	0x20006420
    53c0:	20006408 	.word	0x20006408

000053c4 <mfg_open_flash_area>:
{
    53c4:	b508      	push	{r3, lr}
    assert(reader->mmr_idx < mfg_num_mmrs);
    53c6:	7883      	ldrb	r3, [r0, #2]
    53c8:	4a0d      	ldr	r2, [pc, #52]	; (5400 <mfg_open_flash_area+0x3c>)
    53ca:	6812      	ldr	r2, [r2, #0]
    53cc:	4293      	cmp	r3, r2
    53ce:	da0a      	bge.n	53e6 <mfg_open_flash_area+0x22>
    rc = flash_area_open(mmr->area_id, fap);
    53d0:	eb03 0343 	add.w	r3, r3, r3, lsl #1
    53d4:	009a      	lsls	r2, r3, #2
    53d6:	4b0b      	ldr	r3, [pc, #44]	; (5404 <mfg_open_flash_area+0x40>)
    53d8:	5c98      	ldrb	r0, [r3, r2]
    53da:	f7ff fe6f 	bl	50bc <flash_area_open>
    if (rc != 0) {
    53de:	4603      	mov	r3, r0
    53e0:	b958      	cbnz	r0, 53fa <mfg_open_flash_area+0x36>
}
    53e2:	4618      	mov	r0, r3
    53e4:	bd08      	pop	{r3, pc}
    assert(reader->mmr_idx < mfg_num_mmrs);
    53e6:	f7fa febd 	bl	164 <hal_debugger_connected>
    53ea:	b100      	cbz	r0, 53ee <mfg_open_flash_area+0x2a>
    53ec:	be01      	bkpt	0x0001
    53ee:	2300      	movs	r3, #0
    53f0:	461a      	mov	r2, r3
    53f2:	4619      	mov	r1, r3
    53f4:	4618      	mov	r0, r3
    53f6:	f7fc f9dd 	bl	17b4 <__assert_func>
        return SYS_EIO;
    53fa:	f06f 0304 	mvn.w	r3, #4
    53fe:	e7f0      	b.n	53e2 <mfg_open_flash_area+0x1e>
    5400:	20006420 	.word	0x20006420
    5404:	20006408 	.word	0x20006408

00005408 <mfg_read_tlv_body>:
{
    5408:	b570      	push	{r4, r5, r6, lr}
    540a:	b082      	sub	sp, #8
    540c:	4606      	mov	r6, r0
    540e:	460c      	mov	r4, r1
    5410:	4615      	mov	r5, r2
    rc = mfg_open_flash_area(reader, &fap);
    5412:	a901      	add	r1, sp, #4
    5414:	f7ff ffd6 	bl	53c4 <mfg_open_flash_area>
    if (rc != 0) {
    5418:	4603      	mov	r3, r0
    541a:	b110      	cbz	r0, 5422 <mfg_read_tlv_body+0x1a>
}
    541c:	4618      	mov	r0, r3
    541e:	b002      	add	sp, #8
    5420:	bd70      	pop	{r4, r5, r6, pc}
    memset(dst, 0, max_size);
    5422:	462a      	mov	r2, r5
    5424:	2100      	movs	r1, #0
    5426:	4620      	mov	r0, r4
    5428:	f7fc fd32 	bl	1e90 <memset>
    read_sz = min(max_size, reader->cur_tlv.size);
    542c:	7873      	ldrb	r3, [r6, #1]
    rc = flash_area_read(fap, reader->offset + MFG_META_TLV_SZ, dst, read_sz);
    542e:	6871      	ldr	r1, [r6, #4]
    5430:	42ab      	cmp	r3, r5
    5432:	bfa8      	it	ge
    5434:	462b      	movge	r3, r5
    5436:	4622      	mov	r2, r4
    5438:	3102      	adds	r1, #2
    543a:	9801      	ldr	r0, [sp, #4]
    543c:	f7ff fe96 	bl	516c <flash_area_read>
    if (rc != 0) {
    5440:	4603      	mov	r3, r0
    5442:	2800      	cmp	r0, #0
    5444:	d0ea      	beq.n	541c <mfg_read_tlv_body+0x14>
        return SYS_EIO;
    5446:	f06f 0304 	mvn.w	r3, #4
    544a:	e7e7      	b.n	541c <mfg_read_tlv_body+0x14>

0000544c <mfg_seek_next>:
{
    544c:	b510      	push	{r4, lr}
    544e:	4604      	mov	r4, r0
        rc = mfg_seek_next_aux(reader);
    5450:	4620      	mov	r0, r4
    5452:	f7ff ff0b 	bl	526c <mfg_seek_next_aux>
    } while (rc == SYS_EAGAIN);
    5456:	f110 0f06 	cmn.w	r0, #6
    545a:	d0f9      	beq.n	5450 <mfg_seek_next+0x4>
}
    545c:	bd10      	pop	{r4, pc}

0000545e <mfg_seek_next_with_type>:
{
    545e:	b538      	push	{r3, r4, r5, lr}
    5460:	4604      	mov	r4, r0
    5462:	460d      	mov	r5, r1
        rc = mfg_seek_next(reader);
    5464:	4620      	mov	r0, r4
    5466:	f7ff fff1 	bl	544c <mfg_seek_next>
        if (rc != 0) {
    546a:	4602      	mov	r2, r0
    546c:	b910      	cbnz	r0, 5474 <mfg_seek_next_with_type+0x16>
        if (reader->cur_tlv.type == type) {
    546e:	7823      	ldrb	r3, [r4, #0]
    5470:	42ab      	cmp	r3, r5
    5472:	d1f7      	bne.n	5464 <mfg_seek_next_with_type+0x6>
}
    5474:	4610      	mov	r0, r2
    5476:	bd38      	pop	{r3, r4, r5, pc}

00005478 <mfg_read_tlv_flash_area>:
{
    5478:	b508      	push	{r3, lr}
    return mfg_read_tlv_body(reader, out_mfa, sizeof *out_mfa);
    547a:	220a      	movs	r2, #10
    547c:	f7ff ffc4 	bl	5408 <mfg_read_tlv_body>
}
    5480:	bd08      	pop	{r3, pc}

00005482 <mfg_read_tlv_mmr_ref>:
{
    5482:	b508      	push	{r3, lr}
    return mfg_read_tlv_body(reader, out_mr, sizeof *out_mr);
    5484:	2201      	movs	r2, #1
    5486:	f7ff ffbf 	bl	5408 <mfg_read_tlv_body>
}
    548a:	bd08      	pop	{r3, pc}

0000548c <mfg_init>:
 * called before any TLVs can be read.  No-op if this function has already
 * executed successfully.
 */
void
mfg_init(void)
{
    548c:	b508      	push	{r3, lr}
    int rc;

    if (mfg_initialized) {
    548e:	4b07      	ldr	r3, [pc, #28]	; (54ac <mfg_init+0x20>)
    5490:	781b      	ldrb	r3, [r3, #0]
    5492:	b103      	cbz	r3, 5496 <mfg_init+0xa>

    return;

err:
    MFG_LOG_ERROR("failed to read MMRs: rc=%d", rc);
}
    5494:	bd08      	pop	{r3, pc}
    mfg_initialized = true;
    5496:	4b05      	ldr	r3, [pc, #20]	; (54ac <mfg_init+0x20>)
    5498:	2201      	movs	r2, #1
    549a:	701a      	strb	r2, [r3, #0]
    rc = mfg_read_next_mmr(FLASH_AREA_BOOTLOADER);
    549c:	2000      	movs	r0, #0
    549e:	f7ff ff67 	bl	5370 <mfg_read_next_mmr>
    if (rc != 0) {
    54a2:	2800      	cmp	r0, #0
    54a4:	d1f6      	bne.n	5494 <mfg_init+0x8>
    rc = mfg_read_mmr_refs();
    54a6:	f000 f80b 	bl	54c0 <mfg_read_mmr_refs>
err:
    54aa:	e7f3      	b.n	5494 <mfg_init+0x8>
    54ac:	20006404 	.word	0x20006404

000054b0 <mfg_open>:
{
    54b0:	b510      	push	{r4, lr}
    54b2:	4604      	mov	r4, r0
    mfg_init();
    54b4:	f7ff ffea 	bl	548c <mfg_init>
    *out_reader = (struct mfg_reader) { 0 };
    54b8:	2300      	movs	r3, #0
    54ba:	6023      	str	r3, [r4, #0]
    54bc:	6063      	str	r3, [r4, #4]
}
    54be:	bd10      	pop	{r4, pc}

000054c0 <mfg_read_mmr_refs>:
{
    54c0:	b500      	push	{lr}
    54c2:	b085      	sub	sp, #20
    mfg_open(&reader);
    54c4:	a801      	add	r0, sp, #4
    54c6:	f7ff fff3 	bl	54b0 <mfg_open>
        rc = mfg_seek_next_with_type(&reader, MFG_META_TLV_TYPE_MMR_REF);
    54ca:	2104      	movs	r1, #4
    54cc:	eb0d 0001 	add.w	r0, sp, r1
    54d0:	f7ff ffc5 	bl	545e <mfg_seek_next_with_type>
    54d4:	4603      	mov	r3, r0
        switch (rc) {
    54d6:	f110 0f0f 	cmn.w	r0, #15
    54da:	d004      	beq.n	54e6 <mfg_read_mmr_refs+0x26>
    54dc:	b128      	cbz	r0, 54ea <mfg_read_mmr_refs+0x2a>
}
    54de:	4618      	mov	r0, r3
    54e0:	b005      	add	sp, #20
    54e2:	f85d fb04 	ldr.w	pc, [sp], #4
            return 0;
    54e6:	2300      	movs	r3, #0
    54e8:	e7f9      	b.n	54de <mfg_read_mmr_refs+0x1e>
        rc = mfg_read_tlv_mmr_ref(&reader, &mmr_ref);
    54ea:	a903      	add	r1, sp, #12
    54ec:	a801      	add	r0, sp, #4
    54ee:	f7ff ffc8 	bl	5482 <mfg_read_tlv_mmr_ref>
        if (rc != 0) {
    54f2:	4603      	mov	r3, r0
    54f4:	2800      	cmp	r0, #0
    54f6:	d1f2      	bne.n	54de <mfg_read_mmr_refs+0x1e>
        rc = mfg_read_next_mmr(mmr_ref.area_id);
    54f8:	f89d 000c 	ldrb.w	r0, [sp, #12]
    54fc:	f7ff ff38 	bl	5370 <mfg_read_next_mmr>
        if (rc != 0 && rc != SYS_EALREADY) {
    5500:	4603      	mov	r3, r0
    5502:	2800      	cmp	r0, #0
    5504:	d0e1      	beq.n	54ca <mfg_read_mmr_refs+0xa>
    5506:	f110 0f0b 	cmn.w	r0, #11
    550a:	d0de      	beq.n	54ca <mfg_read_mmr_refs+0xa>
    550c:	e7e7      	b.n	54de <mfg_read_mmr_refs+0x1e>
	...

00005510 <__aeabi_uldivmod>:
    5510:	b953      	cbnz	r3, 5528 <__aeabi_uldivmod+0x18>
    5512:	b94a      	cbnz	r2, 5528 <__aeabi_uldivmod+0x18>
    5514:	2900      	cmp	r1, #0
    5516:	bf08      	it	eq
    5518:	2800      	cmpeq	r0, #0
    551a:	bf1c      	itt	ne
    551c:	f04f 31ff 	movne.w	r1, #4294967295	; 0xffffffff
    5520:	f04f 30ff 	movne.w	r0, #4294967295	; 0xffffffff
    5524:	f000 b972 	b.w	580c <__aeabi_idiv0>
    5528:	f1ad 0c08 	sub.w	ip, sp, #8
    552c:	e96d ce04 	strd	ip, lr, [sp, #-16]!
    5530:	f000 f806 	bl	5540 <__udivmoddi4>
    5534:	f8dd e004 	ldr.w	lr, [sp, #4]
    5538:	e9dd 2302 	ldrd	r2, r3, [sp, #8]
    553c:	b004      	add	sp, #16
    553e:	4770      	bx	lr

00005540 <__udivmoddi4>:
    5540:	e92d 47f0 	stmdb	sp!, {r4, r5, r6, r7, r8, r9, sl, lr}
    5544:	9e08      	ldr	r6, [sp, #32]
    5546:	4604      	mov	r4, r0
    5548:	4688      	mov	r8, r1
    554a:	2b00      	cmp	r3, #0
    554c:	d14b      	bne.n	55e6 <__udivmoddi4+0xa6>
    554e:	428a      	cmp	r2, r1
    5550:	4615      	mov	r5, r2
    5552:	d967      	bls.n	5624 <__udivmoddi4+0xe4>
    5554:	fab2 f282 	clz	r2, r2
    5558:	b14a      	cbz	r2, 556e <__udivmoddi4+0x2e>
    555a:	f1c2 0720 	rsb	r7, r2, #32
    555e:	fa01 f302 	lsl.w	r3, r1, r2
    5562:	fa20 f707 	lsr.w	r7, r0, r7
    5566:	4095      	lsls	r5, r2
    5568:	ea47 0803 	orr.w	r8, r7, r3
    556c:	4094      	lsls	r4, r2
    556e:	ea4f 4e15 	mov.w	lr, r5, lsr #16
    5572:	0c23      	lsrs	r3, r4, #16
    5574:	fbb8 f7fe 	udiv	r7, r8, lr
    5578:	fa1f fc85 	uxth.w	ip, r5
    557c:	fb0e 8817 	mls	r8, lr, r7, r8
    5580:	ea43 4308 	orr.w	r3, r3, r8, lsl #16
    5584:	fb07 f10c 	mul.w	r1, r7, ip
    5588:	4299      	cmp	r1, r3
    558a:	d909      	bls.n	55a0 <__udivmoddi4+0x60>
    558c:	18eb      	adds	r3, r5, r3
    558e:	f107 30ff 	add.w	r0, r7, #4294967295	; 0xffffffff
    5592:	f080 811b 	bcs.w	57cc <__udivmoddi4+0x28c>
    5596:	4299      	cmp	r1, r3
    5598:	f240 8118 	bls.w	57cc <__udivmoddi4+0x28c>
    559c:	3f02      	subs	r7, #2
    559e:	442b      	add	r3, r5
    55a0:	1a5b      	subs	r3, r3, r1
    55a2:	b2a4      	uxth	r4, r4
    55a4:	fbb3 f0fe 	udiv	r0, r3, lr
    55a8:	fb0e 3310 	mls	r3, lr, r0, r3
    55ac:	ea44 4403 	orr.w	r4, r4, r3, lsl #16
    55b0:	fb00 fc0c 	mul.w	ip, r0, ip
    55b4:	45a4      	cmp	ip, r4
    55b6:	d909      	bls.n	55cc <__udivmoddi4+0x8c>
    55b8:	192c      	adds	r4, r5, r4
    55ba:	f100 33ff 	add.w	r3, r0, #4294967295	; 0xffffffff
    55be:	f080 8107 	bcs.w	57d0 <__udivmoddi4+0x290>
    55c2:	45a4      	cmp	ip, r4
    55c4:	f240 8104 	bls.w	57d0 <__udivmoddi4+0x290>
    55c8:	3802      	subs	r0, #2
    55ca:	442c      	add	r4, r5
    55cc:	ea40 4007 	orr.w	r0, r0, r7, lsl #16
    55d0:	eba4 040c 	sub.w	r4, r4, ip
    55d4:	2700      	movs	r7, #0
    55d6:	b11e      	cbz	r6, 55e0 <__udivmoddi4+0xa0>
    55d8:	40d4      	lsrs	r4, r2
    55da:	2300      	movs	r3, #0
    55dc:	e9c6 4300 	strd	r4, r3, [r6]
    55e0:	4639      	mov	r1, r7
    55e2:	e8bd 87f0 	ldmia.w	sp!, {r4, r5, r6, r7, r8, r9, sl, pc}
    55e6:	428b      	cmp	r3, r1
    55e8:	d909      	bls.n	55fe <__udivmoddi4+0xbe>
    55ea:	2e00      	cmp	r6, #0
    55ec:	f000 80eb 	beq.w	57c6 <__udivmoddi4+0x286>
    55f0:	2700      	movs	r7, #0
    55f2:	e9c6 0100 	strd	r0, r1, [r6]
    55f6:	4638      	mov	r0, r7
    55f8:	4639      	mov	r1, r7
    55fa:	e8bd 87f0 	ldmia.w	sp!, {r4, r5, r6, r7, r8, r9, sl, pc}
    55fe:	fab3 f783 	clz	r7, r3
    5602:	2f00      	cmp	r7, #0
    5604:	d147      	bne.n	5696 <__udivmoddi4+0x156>
    5606:	428b      	cmp	r3, r1
    5608:	d302      	bcc.n	5610 <__udivmoddi4+0xd0>
    560a:	4282      	cmp	r2, r0
    560c:	f200 80fa 	bhi.w	5804 <__udivmoddi4+0x2c4>
    5610:	1a84      	subs	r4, r0, r2
    5612:	eb61 0303 	sbc.w	r3, r1, r3
    5616:	2001      	movs	r0, #1
    5618:	4698      	mov	r8, r3
    561a:	2e00      	cmp	r6, #0
    561c:	d0e0      	beq.n	55e0 <__udivmoddi4+0xa0>
    561e:	e9c6 4800 	strd	r4, r8, [r6]
    5622:	e7dd      	b.n	55e0 <__udivmoddi4+0xa0>
    5624:	b902      	cbnz	r2, 5628 <__udivmoddi4+0xe8>
    5626:	deff      	udf	#255	; 0xff
    5628:	fab2 f282 	clz	r2, r2
    562c:	2a00      	cmp	r2, #0
    562e:	f040 808f 	bne.w	5750 <__udivmoddi4+0x210>
    5632:	1b49      	subs	r1, r1, r5
    5634:	ea4f 4e15 	mov.w	lr, r5, lsr #16
    5638:	fa1f f885 	uxth.w	r8, r5
    563c:	2701      	movs	r7, #1
    563e:	fbb1 fcfe 	udiv	ip, r1, lr
    5642:	0c23      	lsrs	r3, r4, #16
    5644:	fb0e 111c 	mls	r1, lr, ip, r1
    5648:	ea43 4301 	orr.w	r3, r3, r1, lsl #16
    564c:	fb08 f10c 	mul.w	r1, r8, ip
    5650:	4299      	cmp	r1, r3
    5652:	d907      	bls.n	5664 <__udivmoddi4+0x124>
    5654:	18eb      	adds	r3, r5, r3
    5656:	f10c 30ff 	add.w	r0, ip, #4294967295	; 0xffffffff
    565a:	d202      	bcs.n	5662 <__udivmoddi4+0x122>
    565c:	4299      	cmp	r1, r3
    565e:	f200 80cd 	bhi.w	57fc <__udivmoddi4+0x2bc>
    5662:	4684      	mov	ip, r0
    5664:	1a59      	subs	r1, r3, r1
    5666:	b2a3      	uxth	r3, r4
    5668:	fbb1 f0fe 	udiv	r0, r1, lr
    566c:	fb0e 1410 	mls	r4, lr, r0, r1
    5670:	ea43 4404 	orr.w	r4, r3, r4, lsl #16
    5674:	fb08 f800 	mul.w	r8, r8, r0
    5678:	45a0      	cmp	r8, r4
    567a:	d907      	bls.n	568c <__udivmoddi4+0x14c>
    567c:	192c      	adds	r4, r5, r4
    567e:	f100 33ff 	add.w	r3, r0, #4294967295	; 0xffffffff
    5682:	d202      	bcs.n	568a <__udivmoddi4+0x14a>
    5684:	45a0      	cmp	r8, r4
    5686:	f200 80b6 	bhi.w	57f6 <__udivmoddi4+0x2b6>
    568a:	4618      	mov	r0, r3
    568c:	eba4 0408 	sub.w	r4, r4, r8
    5690:	ea40 400c 	orr.w	r0, r0, ip, lsl #16
    5694:	e79f      	b.n	55d6 <__udivmoddi4+0x96>
    5696:	f1c7 0c20 	rsb	ip, r7, #32
    569a:	40bb      	lsls	r3, r7
    569c:	fa22 fe0c 	lsr.w	lr, r2, ip
    56a0:	ea4e 0e03 	orr.w	lr, lr, r3
    56a4:	fa01 f407 	lsl.w	r4, r1, r7
    56a8:	fa20 f50c 	lsr.w	r5, r0, ip
    56ac:	fa21 f30c 	lsr.w	r3, r1, ip
    56b0:	ea4f 481e 	mov.w	r8, lr, lsr #16
    56b4:	4325      	orrs	r5, r4
    56b6:	fbb3 f9f8 	udiv	r9, r3, r8
    56ba:	0c2c      	lsrs	r4, r5, #16
    56bc:	fb08 3319 	mls	r3, r8, r9, r3
    56c0:	fa1f fa8e 	uxth.w	sl, lr
    56c4:	ea44 4303 	orr.w	r3, r4, r3, lsl #16
    56c8:	fb09 f40a 	mul.w	r4, r9, sl
    56cc:	429c      	cmp	r4, r3
    56ce:	fa02 f207 	lsl.w	r2, r2, r7
    56d2:	fa00 f107 	lsl.w	r1, r0, r7
    56d6:	d90b      	bls.n	56f0 <__udivmoddi4+0x1b0>
    56d8:	eb1e 0303 	adds.w	r3, lr, r3
    56dc:	f109 30ff 	add.w	r0, r9, #4294967295	; 0xffffffff
    56e0:	f080 8087 	bcs.w	57f2 <__udivmoddi4+0x2b2>
    56e4:	429c      	cmp	r4, r3
    56e6:	f240 8084 	bls.w	57f2 <__udivmoddi4+0x2b2>
    56ea:	f1a9 0902 	sub.w	r9, r9, #2
    56ee:	4473      	add	r3, lr
    56f0:	1b1b      	subs	r3, r3, r4
    56f2:	b2ad      	uxth	r5, r5
    56f4:	fbb3 f0f8 	udiv	r0, r3, r8
    56f8:	fb08 3310 	mls	r3, r8, r0, r3
    56fc:	ea45 4403 	orr.w	r4, r5, r3, lsl #16
    5700:	fb00 fa0a 	mul.w	sl, r0, sl
    5704:	45a2      	cmp	sl, r4
    5706:	d908      	bls.n	571a <__udivmoddi4+0x1da>
    5708:	eb1e 0404 	adds.w	r4, lr, r4
    570c:	f100 33ff 	add.w	r3, r0, #4294967295	; 0xffffffff
    5710:	d26b      	bcs.n	57ea <__udivmoddi4+0x2aa>
    5712:	45a2      	cmp	sl, r4
    5714:	d969      	bls.n	57ea <__udivmoddi4+0x2aa>
    5716:	3802      	subs	r0, #2
    5718:	4474      	add	r4, lr
    571a:	ea40 4009 	orr.w	r0, r0, r9, lsl #16
    571e:	fba0 8902 	umull	r8, r9, r0, r2
    5722:	eba4 040a 	sub.w	r4, r4, sl
    5726:	454c      	cmp	r4, r9
    5728:	46c2      	mov	sl, r8
    572a:	464b      	mov	r3, r9
    572c:	d354      	bcc.n	57d8 <__udivmoddi4+0x298>
    572e:	d051      	beq.n	57d4 <__udivmoddi4+0x294>
    5730:	2e00      	cmp	r6, #0
    5732:	d069      	beq.n	5808 <__udivmoddi4+0x2c8>
    5734:	ebb1 050a 	subs.w	r5, r1, sl
    5738:	eb64 0403 	sbc.w	r4, r4, r3
    573c:	fa04 fc0c 	lsl.w	ip, r4, ip
    5740:	40fd      	lsrs	r5, r7
    5742:	40fc      	lsrs	r4, r7
    5744:	ea4c 0505 	orr.w	r5, ip, r5
    5748:	e9c6 5400 	strd	r5, r4, [r6]
    574c:	2700      	movs	r7, #0
    574e:	e747      	b.n	55e0 <__udivmoddi4+0xa0>
    5750:	f1c2 0320 	rsb	r3, r2, #32
    5754:	fa20 f703 	lsr.w	r7, r0, r3
    5758:	4095      	lsls	r5, r2
    575a:	fa01 f002 	lsl.w	r0, r1, r2
    575e:	fa21 f303 	lsr.w	r3, r1, r3
    5762:	ea4f 4e15 	mov.w	lr, r5, lsr #16
    5766:	4338      	orrs	r0, r7
    5768:	0c01      	lsrs	r1, r0, #16
    576a:	fbb3 f7fe 	udiv	r7, r3, lr
    576e:	fa1f f885 	uxth.w	r8, r5
    5772:	fb0e 3317 	mls	r3, lr, r7, r3
    5776:	ea41 4103 	orr.w	r1, r1, r3, lsl #16
    577a:	fb07 f308 	mul.w	r3, r7, r8
    577e:	428b      	cmp	r3, r1
    5780:	fa04 f402 	lsl.w	r4, r4, r2
    5784:	d907      	bls.n	5796 <__udivmoddi4+0x256>
    5786:	1869      	adds	r1, r5, r1
    5788:	f107 3cff 	add.w	ip, r7, #4294967295	; 0xffffffff
    578c:	d22f      	bcs.n	57ee <__udivmoddi4+0x2ae>
    578e:	428b      	cmp	r3, r1
    5790:	d92d      	bls.n	57ee <__udivmoddi4+0x2ae>
    5792:	3f02      	subs	r7, #2
    5794:	4429      	add	r1, r5
    5796:	1acb      	subs	r3, r1, r3
    5798:	b281      	uxth	r1, r0
    579a:	fbb3 f0fe 	udiv	r0, r3, lr
    579e:	fb0e 3310 	mls	r3, lr, r0, r3
    57a2:	ea41 4103 	orr.w	r1, r1, r3, lsl #16
    57a6:	fb00 f308 	mul.w	r3, r0, r8
    57aa:	428b      	cmp	r3, r1
    57ac:	d907      	bls.n	57be <__udivmoddi4+0x27e>
    57ae:	1869      	adds	r1, r5, r1
    57b0:	f100 3cff 	add.w	ip, r0, #4294967295	; 0xffffffff
    57b4:	d217      	bcs.n	57e6 <__udivmoddi4+0x2a6>
    57b6:	428b      	cmp	r3, r1
    57b8:	d915      	bls.n	57e6 <__udivmoddi4+0x2a6>
    57ba:	3802      	subs	r0, #2
    57bc:	4429      	add	r1, r5
    57be:	1ac9      	subs	r1, r1, r3
    57c0:	ea40 4707 	orr.w	r7, r0, r7, lsl #16
    57c4:	e73b      	b.n	563e <__udivmoddi4+0xfe>
    57c6:	4637      	mov	r7, r6
    57c8:	4630      	mov	r0, r6
    57ca:	e709      	b.n	55e0 <__udivmoddi4+0xa0>
    57cc:	4607      	mov	r7, r0
    57ce:	e6e7      	b.n	55a0 <__udivmoddi4+0x60>
    57d0:	4618      	mov	r0, r3
    57d2:	e6fb      	b.n	55cc <__udivmoddi4+0x8c>
    57d4:	4541      	cmp	r1, r8
    57d6:	d2ab      	bcs.n	5730 <__udivmoddi4+0x1f0>
    57d8:	ebb8 0a02 	subs.w	sl, r8, r2
    57dc:	eb69 020e 	sbc.w	r2, r9, lr
    57e0:	3801      	subs	r0, #1
    57e2:	4613      	mov	r3, r2
    57e4:	e7a4      	b.n	5730 <__udivmoddi4+0x1f0>
    57e6:	4660      	mov	r0, ip
    57e8:	e7e9      	b.n	57be <__udivmoddi4+0x27e>
    57ea:	4618      	mov	r0, r3
    57ec:	e795      	b.n	571a <__udivmoddi4+0x1da>
    57ee:	4667      	mov	r7, ip
    57f0:	e7d1      	b.n	5796 <__udivmoddi4+0x256>
    57f2:	4681      	mov	r9, r0
    57f4:	e77c      	b.n	56f0 <__udivmoddi4+0x1b0>
    57f6:	3802      	subs	r0, #2
    57f8:	442c      	add	r4, r5
    57fa:	e747      	b.n	568c <__udivmoddi4+0x14c>
    57fc:	f1ac 0c02 	sub.w	ip, ip, #2
    5800:	442b      	add	r3, r5
    5802:	e72f      	b.n	5664 <__udivmoddi4+0x124>
    5804:	4638      	mov	r0, r7
    5806:	e708      	b.n	561a <__udivmoddi4+0xda>
    5808:	4637      	mov	r7, r6
    580a:	e6e9      	b.n	55e0 <__udivmoddi4+0xa0>

0000580c <__aeabi_idiv0>:
    580c:	4770      	bx	lr
    580e:	bf00      	nop

00005810 <flash_devs>:
    5810:	5864 0000 00e8 2000                         dX..... 

00005818 <spiflash_characteristics>:
    5818:	7530 0000 1a80 0006 d4c0 0001 3500 000c     0u...........5..
    5828:	49f0 0002 4240 000f c6c0 002d 9680 0098     .I..@B....-.....
    5838:	02bc 0000 0bb8 0000 0014 0000 0032 0000     ............2...

00005848 <spiflash_flash_funcs>:
    5848:	0817 0000 08a1 0000 0a1b 0000 06cd 0000     ................
    5858:	0000 0000 0b61 0000 0aed 0000               ....a.......

00005864 <nrf52k_flash_dev>:
    5864:	587c 0000 0000 0000 0000 0008 0080 0000     |X..............
    5874:	0001 0000 00ff 0000                         ........

0000587c <nrf52k_flash_funcs>:
    587c:	0d1d 0000 0c4d 0000 0bcd 0000 0c25 0000     ....M.......%...
    588c:	0000 0000 0c21 0000 0000 0000               ....!.......

00005898 <nrf52_hal_spis>:
    5898:	0160 2000 0000 0000 0000 0000 0000 0000     `.. ............

000058a8 <os_bsp_spi0m_cfg>:
    58a8:	0302 0004                                   ....

000058ac <nrf52_hal_timers>:
    58ac:	0188 2000 0000 0000 0000 0000 0000 0000     ... ............
	...
    58c4:	7341 6573 7472 4020 3020 2578 0a78 0000     Assert @ 0x%x...
    58d4:	7341 6573 7472 4020 3020 2578 2078 202d     Assert @ 0x%x - 
    58e4:	7325 253a 0a64 0000 6e55 6168 646e 656c     %s:%d...Unhandle
    58f4:	2064 6e69 6574 7272 7075 2074 2528 646c     d interrupt (%ld
    5904:	2c29 6520 6378 7065 6974 6e6f 7320 2070     ), exception sp 
    5914:	7830 3025 6c38 0a78 0000 0000 7220 3a30     0x%08lx..... r0:
    5924:	7830 3025 6c38 2078 7220 3a31 7830 3025     0x%08lx  r1:0x%0
    5934:	6c38 2078 7220 3a32 7830 3025 6c38 2078     8lx  r2:0x%08lx 
    5944:	7220 3a33 7830 3025 6c38 0a78 0000 0000      r3:0x%08lx.....
    5954:	7220 3a34 7830 3025 6c38 2078 7220 3a35      r4:0x%08lx  r5:
    5964:	7830 3025 6c38 2078 7220 3a36 7830 3025     0x%08lx  r6:0x%0
    5974:	6c38 2078 7220 3a37 7830 3025 6c38 0a78     8lx  r7:0x%08lx.
    5984:	0000 0000 7220 3a38 7830 3025 6c38 2078     .... r8:0x%08lx 
    5994:	7220 3a39 7830 3025 6c38 2078 3172 3a30      r9:0x%08lx r10:
    59a4:	7830 3025 6c38 2078 3172 3a31 7830 3025     0x%08lx r11:0x%0
    59b4:	6c38 0a78 0000 0000 3172 3a32 7830 3025     8lx.....r12:0x%0
    59c4:	6c38 2078 6c20 3a72 7830 3025 6c38 2078     8lx  lr:0x%08lx 
    59d4:	7020 3a63 7830 3025 6c38 2078 7370 3a72      pc:0x%08lx psr:
    59e4:	7830 3025 6c38 0a78 0000 0000 4349 5253     0x%08lx.....ICSR
    59f4:	303a 2578 3830 786c 4820 5346 3a52 7830     :0x%08lx HFSR:0x
    5a04:	3025 6c38 2078 4643 5253 303a 2578 3830     %08lx CFSR:0x%08
    5a14:	786c 000a 4642 5241 303a 2578 3830 786c     lx..BFAR:0x%08lx
    5a24:	4d20 464d 5241 303a 2578 3830 786c 000a      MMFAR:0x%08lx..
    5a34:	736d 7379 315f 0000                         msys_1..

00005a3c <backlights>:
    5a3c:	160e 0017                                   ....

00005a40 <fast_pulse>:
    5a40:	0101 0000 0101 0202 0202 0202               ............

00005a4c <faster_pulse>:
    5a4c:	0001 0201 0202 0000                         ........

00005a54 <fastest_pulse>:
    5a54:	0200 0002                                   ....

00005a58 <slow_pulse>:
    5a58:	0101 0001 0000 0101 0201 0202 0202 0202     ................
    5a68:	0202 0000                                   ....

00005a6c <slower_pulse>:
    5a6c:	0101 0101 0101 0000 0000 0000 0101 0101     ................
    5a7c:	0101 0202 0202 0202 0202 0202 0202 0202     ................
    5a8c:	0202 0202 6f42 746f 6f6c 6461 7265 6420     ....Bootloader d
    5a9c:	6e6f 0a65 0000 0000 7453 7261 6974 676e     one.....Starting
    5aac:	4220 6f6f 6c74 616f 6564 2e72 2e2e 000a      Bootloader.....
    5abc:	6843 6365 206b 7562 7474 6e6f 203a 6425     Check button: %d
    5acc:	000a 0000 6157 7469 6e69 2067 2035 6573     ....Waiting 5 se
    5adc:	6f63 646e 2073 6f66 2072 7562 7474 6e6f     conds for button
    5aec:	2e2e 0a2e 0000 0000 6c46 7361 6968 676e     ........Flashing
    5afc:	6120 646e 7220 7365 7465 6974 676e 2e2e      and resetting..
    5b0c:	0a2e 0000                                   ....

00005b10 <COLMOD_PARA.8090>:
    5b10:	0005 0000                                   ....

00005b14 <FRMCTR1_PARA.8078>:
    5b14:	2c01 002d                                   .,-.

00005b18 <FRMCTR2_PARA.8079>:
    5b18:	2c01 002d                                   .,-.

00005b1c <FRMCTR3_PARA.8080>:
    5b1c:	2c01 012d 2d2c 0000                         .,-.,-..

00005b24 <INVCTR_PARA.8081>:
    5b24:	0007 0000                                   ....

00005b28 <MADCTL1_PARA.8088>:
    5b28:	0000 0000                                   ....

00005b2c <PWCTR1_PARA.8082>:
    5b2c:	02a2 0084                                   ....

00005b30 <PWCTR2_PARA.8083>:
    5b30:	00c5 0000                                   ....

00005b34 <PWCTR3_PARA.8084>:
    5b34:	000a 0000                                   ....

00005b38 <PWCTR4_PARA.8085>:
    5b38:	2a8a 0000                                   .*..

00005b3c <PWCTR5_PARA.8086>:
    5b3c:	ee8a 0000                                   ....

00005b40 <VMCTR1_PARA.8087>:
    5b40:	000e 0000 6944 7073 616c 6979 676e 6920     ....Displaying i
    5b50:	616d 6567 2e2e 0a2e 0000 0000 6d49 6761     mage........Imag
    5b60:	2065 6964 7073 616c 6579 0a64 0000 0000     e displayed.....
    5b70:	3025 6c36 2075 0000 0103 0000               %06lu ......

00005b7c <boot_img_magic>:
    5b7c:	c277 f395 d260 7fef 5235 0f50 b62c 8079     w...`...5RP.,.y.

00005b8c <boot_swap_tables>:
    5b8c:	0104 0304 0204 0104 0104 0304 0301 0403     ................
    5b9c:	0401 0000 6570 6d72 0000 0000 6574 7473     ....perm....test
    5bac:	0000 0000 5542 3b47 6320 6e61 7427 6820     ....BUG; can't h
    5bbc:	7061 6570 006e 0000 6572 6576 7472 0000     appen...revert..
    5bcc:	495b 464e 205d 7753 7061 7420 7079 3a65     [INF] Swap type:
    5bdc:	2520 0a73 0000 0000 495b 464e 205d 7753      %s.....[INF] Sw
    5bec:	7061 7420 7079 3a65 6e20 6e6f 0065 0000     ap type: none...
    5bfc:	455b 5252 205d 6170 696e 2163 0000 0000     [ERR] panic!....
    5c0c:	575b 4e52 205d 6146 6c69 6465 7220 6165     [WRN] Failed rea
    5c1c:	6964 676e 7320 6365 6f74 7372 203b 4f42     ding sectors; BO
    5c2c:	544f 4d5f 5841 495f 474d 535f 4345 4f54     OT_MAX_IMG_SECTO
    5c3c:	5352 253d 2064 202d 6f74 206f 6d73 6c61     RS=%d - too smal
    5c4c:	3f6c 000a 575b 4e52 205d 6146 6c69 6465     l?..[WRN] Failed
    5c5c:	7220 6165 6964 676e 6920 616d 6567 6820      reading image h
    5c6c:	6165 6564 7372 203b 6d49 6761 3d65 7525     eaders; Image=%u
    5c7c:	000a 0000 575b 4e52 205d 6146 6c69 6465     ....[WRN] Failed
    5c8c:	7220 6165 6964 676e 6220 6f6f 2074 7473      reading boot st
    5c9c:	7461 7375 203b 6d49 6761 3d65 7525 000a     atus; Image=%u..
    5cac:	7270 6d69 7261 0079 6573 6f63 646e 7261     primary.secondar
    5cbc:	0079 0000 455b 5252 205d 6d49 6761 2065     y...[ERR] Image 
    5ccc:	6e69 7420 6568 2520 2073 6c73 746f 6920     in the %s slot i
    5cdc:	2073 6f6e 2074 6176 696c 2164 000a 0000     s not valid!....
    5cec:	455b 5252 205d 6162 2064 6d69 6761 2065     [ERR] bad image 
    5cfc:	616d 6967 2063 7830 6c25 3b78 4920 616d     magic 0x%lx; Ima
    5d0c:	6567 253d 0a75 0000 575b 4e52 205d 6143     ge=%u...[WRN] Ca
    5d1c:	6e6e 746f 7520 6770 6172 6564 203a 6f6d     nnot upgrade: mo
    5d2c:	6572 7320 6365 6f74 7372 7420 6168 206e     re sectors than 
    5d3c:	6c61 6f6c 6577 0064 575b 4e52 205d 6143     allowed.[WRN] Ca
    5d4c:	6e6e 746f 7520 6770 6172 6564 203a 6c73     nnot upgrade: sl
    5d5c:	746f 2073 6168 6576 6e20 6e6f 632d 6d6f     ots have non-com
    5d6c:	6170 6974 6c62 2065 6573 7463 726f 0073     patible sectors.
    5d7c:	575b 4e52 205d 6143 6e6e 746f 7520 6770     [WRN] Cannot upg
    5d8c:	6172 6564 203a 6f6e 2074 6c61 206c 6573     rade: not all se
    5d9c:	7463 726f 2073 6966 2074 6e69 6973 6564     ctors fit inside
    5dac:	7320 7263 7461 6863 0000 0000 575b 4e52      scratch....[WRN
    5dbc:	205d 6143 6e6e 746f 7520 6770 6172 6564     ] Cannot upgrade
    5dcc:	203a 6c73 746f 2073 7261 2065 6f6e 2074     : slots are not 
    5ddc:	6f63 706d 7461 6269 656c 0000               compatible..

00005de8 <boot_status_tables>:
    5de8:	0501 0001 0501 0203 0104 0104 0403 0203     ................
    5df8:	455b 5252 205d 6544 6574 7463 6465 6920     [ERR] Detected i
    5e08:	636e 6e6f 6973 7473 6e65 2074 7473 7461     nconsistent stat
    5e18:	7375 0021 6162 0064 6f67 646f 0000 0000     us!.bad.good....
    5e28:	6e75 6573 0074 0000 6373 6172 6374 0068     unset...scratch.
    5e38:	6f6e 656e 0000 0000 7270 6d69 7261 2079     none....primary 
    5e48:	6c73 746f 0000 0000 7250 6d69 7261 2079     slot....Primary 
    5e58:	6d69 6761 0065 0000 495b 464e 205d 7325     image...[INF] %s
    5e68:	203a 616d 6967 3d63 7325 202c 7773 7061     : magic=%s, swap
    5e78:	745f 7079 3d65 7830 7825 202c 6f63 7970     _type=0x%x, copy
    5e88:	645f 6e6f 3d65 7830 7825 202c 6d69 6761     _done=0x%x, imag
    5e98:	5f65 6b6f 303d 2578 0a78 0000 6353 6172     e_ok=0x%x...Scra
    5ea8:	6374 0068 495b 464e 205d 6f42 746f 7320     tch.[INF] Boot s
    5eb8:	756f 6372 3a65 2520 0a73 0000 495b 464e     ource: %s...[INF
    5ec8:	205d 6f42 746f 7320 756f 6372 3a65 6e20     ] Boot source: n
    5ed8:	6e6f 0065                                   one.

00005edc <K>:
    5edc:	2f98 428a 4491 7137 fbcf b5c0 dba5 e9b5     ./.B.D7q........
    5eec:	c25b 3956 11f1 59f1 82a4 923f 5ed5 ab1c     [.V9...Y..?..^..
    5efc:	aa98 d807 5b01 1283 85be 2431 7dc3 550c     .....[....1$.}.U
    5f0c:	5d74 72be b1fe 80de 06a7 9bdc f174 c19b     t].r........t...
    5f1c:	69c1 e49b 4786 efbe 9dc6 0fc1 a1cc 240c     .i...G.........$
    5f2c:	2c6f 2de9 84aa 4a74 a9dc 5cb0 88da 76f9     o,.-..tJ...\...v
    5f3c:	5152 983e c66d a831 27c8 b003 7fc7 bf59     RQ>.m.1..'....Y.
    5f4c:	0bf3 c6e0 9147 d5a7 6351 06ca 2967 1429     ....G...Qc..g)).
    5f5c:	0a85 27b7 2138 2e1b 6dfc 4d2c 0d13 5338     ...'8!...m,M..8S
    5f6c:	7354 650a 0abb 766a c92e 81c2 2c85 9272     Ts.e..jv.....,r.
    5f7c:	e8a1 a2bf 664b a81a 8b70 c24b 51a3 c76c     ....Kf..p.K..Ql.
    5f8c:	e819 d192 0624 d699 3585 f40e a070 106a     ....$....5..p.j.
    5f9c:	c116 19a4 6c08 1e37 774c 2748 bcb5 34b0     .....l7.LwH'...4
    5fac:	0cb3 391c aa4a 4ed8 ca4f 5b9c 6ff3 682e     ...9J..NO..[.o.h
    5fbc:	82ee 748f 636f 78a5 7814 84c8 0208 8cc7     ...toc.x.x......
    5fcc:	fffa 90be 6ceb a450 a3f7 bef9 78f2 c671     .....lP......xq.

00005fdc <stdout>:
    5fdc:	0154 2000                                   T.. 

00005fe0 <sysflash_map_dflt>:
	...
    5fe8:	7000 0000 0001 0000 8000 0000 4000 0007     .p...........@..
    5ff8:	0102 0000 0000 0004 4000 0007 0003 0000     .........@......
    6008:	c000 0007 1000 0000 0010 0000 7000 0000     .............p..
    6018:	1000 0000 0111 0000 4000 000b c000 0034     .........@....4.

/Users/Luppy/PineTime/pinetime-rust-mynewt/bin/targets/nrf52_boot/app/boot/mynewt/mynewt.elf:     file format elf32-littlearm

arm-none-eabi-objdump: section '.rodata' mentioned in a -j option, but not found in any input file
   text	   data	    bss	    dec	    hex	filename
  24640	    136	  25500	  50276	   c464	/Users/Luppy/PineTime/pinetime-rust-mynewt/bin/targets/nrf52_boot/app/boot/mynewt/mynewt.elf
